ARM GAS  C:\Users\Petro\AppData\Local\Temp\ccLVkPCw.s 			page 1


   1              		.cpu cortex-m0
   2              		.fpu softvfp
   3              		.eabi_attribute 20, 1
   4              		.eabi_attribute 21, 1
   5              		.eabi_attribute 23, 3
   6              		.eabi_attribute 24, 1
   7              		.eabi_attribute 25, 1
   8              		.eabi_attribute 26, 1
   9              		.eabi_attribute 30, 1
  10              		.eabi_attribute 34, 0
  11              		.eabi_attribute 18, 4
  12              		.code	16
  13              		.file	"UART_XB2.c"
  14              		.text
  15              	.Ltext0:
  16              		.cfi_sections	.debug_frame
  17              		.section	.text.UART_XB2_Init,"ax",%progbits
  18              		.align	2
  19              		.global	UART_XB2_Init
  20              		.code	16
  21              		.thumb_func
  22              		.type	UART_XB2_Init, %function
  23              	UART_XB2_Init:
  24              	.LFB3:
  25              		.file 1 "Generated_Source\\PSoC4\\UART_XB2.c"
   1:Generated_Source\PSoC4/UART_XB2.c **** /*******************************************************************************
   2:Generated_Source\PSoC4/UART_XB2.c **** * File Name: UART_XB2.c
   3:Generated_Source\PSoC4/UART_XB2.c **** * Version 2.50
   4:Generated_Source\PSoC4/UART_XB2.c **** *
   5:Generated_Source\PSoC4/UART_XB2.c **** * Description:
   6:Generated_Source\PSoC4/UART_XB2.c **** *  This file provides all API functionality of the UART component
   7:Generated_Source\PSoC4/UART_XB2.c **** *
   8:Generated_Source\PSoC4/UART_XB2.c **** * Note:
   9:Generated_Source\PSoC4/UART_XB2.c **** *
  10:Generated_Source\PSoC4/UART_XB2.c **** ********************************************************************************
  11:Generated_Source\PSoC4/UART_XB2.c **** * Copyright 2008-2015, Cypress Semiconductor Corporation.  All rights reserved.
  12:Generated_Source\PSoC4/UART_XB2.c **** * You may use this file only in accordance with the license, terms, conditions,
  13:Generated_Source\PSoC4/UART_XB2.c **** * disclaimers, and limitations in the end user license agreement accompanying
  14:Generated_Source\PSoC4/UART_XB2.c **** * the software package with which this file was provided.
  15:Generated_Source\PSoC4/UART_XB2.c **** *******************************************************************************/
  16:Generated_Source\PSoC4/UART_XB2.c **** 
  17:Generated_Source\PSoC4/UART_XB2.c **** #include "UART_XB2.h"
  18:Generated_Source\PSoC4/UART_XB2.c **** #if (UART_XB2_INTERNAL_CLOCK_USED)
  19:Generated_Source\PSoC4/UART_XB2.c ****     #include "UART_XB2_IntClock.h"
  20:Generated_Source\PSoC4/UART_XB2.c **** #endif /* End UART_XB2_INTERNAL_CLOCK_USED */
  21:Generated_Source\PSoC4/UART_XB2.c **** 
  22:Generated_Source\PSoC4/UART_XB2.c **** 
  23:Generated_Source\PSoC4/UART_XB2.c **** /***************************************
  24:Generated_Source\PSoC4/UART_XB2.c **** * Global data allocation
  25:Generated_Source\PSoC4/UART_XB2.c **** ***************************************/
  26:Generated_Source\PSoC4/UART_XB2.c **** 
  27:Generated_Source\PSoC4/UART_XB2.c **** uint8 UART_XB2_initVar = 0u;
  28:Generated_Source\PSoC4/UART_XB2.c **** 
  29:Generated_Source\PSoC4/UART_XB2.c **** #if (UART_XB2_TX_INTERRUPT_ENABLED && UART_XB2_TX_ENABLED)
  30:Generated_Source\PSoC4/UART_XB2.c ****     volatile uint8 UART_XB2_txBuffer[UART_XB2_TX_BUFFER_SIZE];
  31:Generated_Source\PSoC4/UART_XB2.c ****     volatile uint8 UART_XB2_txBufferRead = 0u;
  32:Generated_Source\PSoC4/UART_XB2.c ****     uint8 UART_XB2_txBufferWrite = 0u;
ARM GAS  C:\Users\Petro\AppData\Local\Temp\ccLVkPCw.s 			page 2


  33:Generated_Source\PSoC4/UART_XB2.c **** #endif /* (UART_XB2_TX_INTERRUPT_ENABLED && UART_XB2_TX_ENABLED) */
  34:Generated_Source\PSoC4/UART_XB2.c **** 
  35:Generated_Source\PSoC4/UART_XB2.c **** #if (UART_XB2_RX_INTERRUPT_ENABLED && (UART_XB2_RX_ENABLED || UART_XB2_HD_ENABLED))
  36:Generated_Source\PSoC4/UART_XB2.c ****     uint8 UART_XB2_errorStatus = 0u;
  37:Generated_Source\PSoC4/UART_XB2.c ****     volatile uint8 UART_XB2_rxBuffer[UART_XB2_RX_BUFFER_SIZE];
  38:Generated_Source\PSoC4/UART_XB2.c ****     volatile uint8 UART_XB2_rxBufferRead  = 0u;
  39:Generated_Source\PSoC4/UART_XB2.c ****     volatile uint8 UART_XB2_rxBufferWrite = 0u;
  40:Generated_Source\PSoC4/UART_XB2.c ****     volatile uint8 UART_XB2_rxBufferLoopDetect = 0u;
  41:Generated_Source\PSoC4/UART_XB2.c ****     volatile uint8 UART_XB2_rxBufferOverflow   = 0u;
  42:Generated_Source\PSoC4/UART_XB2.c ****     #if (UART_XB2_RXHW_ADDRESS_ENABLED)
  43:Generated_Source\PSoC4/UART_XB2.c ****         volatile uint8 UART_XB2_rxAddressMode = UART_XB2_RX_ADDRESS_MODE;
  44:Generated_Source\PSoC4/UART_XB2.c ****         volatile uint8 UART_XB2_rxAddressDetected = 0u;
  45:Generated_Source\PSoC4/UART_XB2.c ****     #endif /* (UART_XB2_RXHW_ADDRESS_ENABLED) */
  46:Generated_Source\PSoC4/UART_XB2.c **** #endif /* (UART_XB2_RX_INTERRUPT_ENABLED && (UART_XB2_RX_ENABLED || UART_XB2_HD_ENABLED)) */
  47:Generated_Source\PSoC4/UART_XB2.c **** 
  48:Generated_Source\PSoC4/UART_XB2.c **** 
  49:Generated_Source\PSoC4/UART_XB2.c **** /*******************************************************************************
  50:Generated_Source\PSoC4/UART_XB2.c **** * Function Name: UART_XB2_Start
  51:Generated_Source\PSoC4/UART_XB2.c **** ********************************************************************************
  52:Generated_Source\PSoC4/UART_XB2.c **** *
  53:Generated_Source\PSoC4/UART_XB2.c **** * Summary:
  54:Generated_Source\PSoC4/UART_XB2.c **** *  This is the preferred method to begin component operation.
  55:Generated_Source\PSoC4/UART_XB2.c **** *  UART_XB2_Start() sets the initVar variable, calls the
  56:Generated_Source\PSoC4/UART_XB2.c **** *  UART_XB2_Init() function, and then calls the
  57:Generated_Source\PSoC4/UART_XB2.c **** *  UART_XB2_Enable() function.
  58:Generated_Source\PSoC4/UART_XB2.c **** *
  59:Generated_Source\PSoC4/UART_XB2.c **** * Parameters:
  60:Generated_Source\PSoC4/UART_XB2.c **** *  None.
  61:Generated_Source\PSoC4/UART_XB2.c **** *
  62:Generated_Source\PSoC4/UART_XB2.c **** * Return:
  63:Generated_Source\PSoC4/UART_XB2.c **** *  None.
  64:Generated_Source\PSoC4/UART_XB2.c **** *
  65:Generated_Source\PSoC4/UART_XB2.c **** * Global variables:
  66:Generated_Source\PSoC4/UART_XB2.c **** *  The UART_XB2_intiVar variable is used to indicate initial
  67:Generated_Source\PSoC4/UART_XB2.c **** *  configuration of this component. The variable is initialized to zero (0u)
  68:Generated_Source\PSoC4/UART_XB2.c **** *  and set to one (1u) the first time UART_XB2_Start() is called. This
  69:Generated_Source\PSoC4/UART_XB2.c **** *  allows for component initialization without re-initialization in all
  70:Generated_Source\PSoC4/UART_XB2.c **** *  subsequent calls to the UART_XB2_Start() routine.
  71:Generated_Source\PSoC4/UART_XB2.c **** *
  72:Generated_Source\PSoC4/UART_XB2.c **** * Reentrant:
  73:Generated_Source\PSoC4/UART_XB2.c **** *  No.
  74:Generated_Source\PSoC4/UART_XB2.c **** *
  75:Generated_Source\PSoC4/UART_XB2.c **** *******************************************************************************/
  76:Generated_Source\PSoC4/UART_XB2.c **** void UART_XB2_Start(void) 
  77:Generated_Source\PSoC4/UART_XB2.c **** {
  78:Generated_Source\PSoC4/UART_XB2.c ****     /* If not initialized then initialize all required hardware and software */
  79:Generated_Source\PSoC4/UART_XB2.c ****     if(UART_XB2_initVar == 0u)
  80:Generated_Source\PSoC4/UART_XB2.c ****     {
  81:Generated_Source\PSoC4/UART_XB2.c ****         UART_XB2_Init();
  82:Generated_Source\PSoC4/UART_XB2.c ****         UART_XB2_initVar = 1u;
  83:Generated_Source\PSoC4/UART_XB2.c ****     }
  84:Generated_Source\PSoC4/UART_XB2.c **** 
  85:Generated_Source\PSoC4/UART_XB2.c ****     UART_XB2_Enable();
  86:Generated_Source\PSoC4/UART_XB2.c **** }
  87:Generated_Source\PSoC4/UART_XB2.c **** 
  88:Generated_Source\PSoC4/UART_XB2.c **** 
  89:Generated_Source\PSoC4/UART_XB2.c **** /*******************************************************************************
ARM GAS  C:\Users\Petro\AppData\Local\Temp\ccLVkPCw.s 			page 3


  90:Generated_Source\PSoC4/UART_XB2.c **** * Function Name: UART_XB2_Init
  91:Generated_Source\PSoC4/UART_XB2.c **** ********************************************************************************
  92:Generated_Source\PSoC4/UART_XB2.c **** *
  93:Generated_Source\PSoC4/UART_XB2.c **** * Summary:
  94:Generated_Source\PSoC4/UART_XB2.c **** *  Initializes or restores the component according to the customizer Configure
  95:Generated_Source\PSoC4/UART_XB2.c **** *  dialog settings. It is not necessary to call UART_XB2_Init() because
  96:Generated_Source\PSoC4/UART_XB2.c **** *  the UART_XB2_Start() API calls this function and is the preferred
  97:Generated_Source\PSoC4/UART_XB2.c **** *  method to begin component operation.
  98:Generated_Source\PSoC4/UART_XB2.c **** *
  99:Generated_Source\PSoC4/UART_XB2.c **** * Parameters:
 100:Generated_Source\PSoC4/UART_XB2.c **** *  None.
 101:Generated_Source\PSoC4/UART_XB2.c **** *
 102:Generated_Source\PSoC4/UART_XB2.c **** * Return:
 103:Generated_Source\PSoC4/UART_XB2.c **** *  None.
 104:Generated_Source\PSoC4/UART_XB2.c **** *
 105:Generated_Source\PSoC4/UART_XB2.c **** *******************************************************************************/
 106:Generated_Source\PSoC4/UART_XB2.c **** void UART_XB2_Init(void) 
 107:Generated_Source\PSoC4/UART_XB2.c **** {
  26              		.loc 1 107 0
  27              		.cfi_startproc
  28 0000 08B5     		push	{r3, lr}
  29              		.cfi_def_cfa_offset 8
  30              		.cfi_offset 3, -8
  31              		.cfi_offset 14, -4
 108:Generated_Source\PSoC4/UART_XB2.c ****     #if(UART_XB2_RX_ENABLED || UART_XB2_HD_ENABLED)
 109:Generated_Source\PSoC4/UART_XB2.c **** 
 110:Generated_Source\PSoC4/UART_XB2.c ****         #if (UART_XB2_RX_INTERRUPT_ENABLED)
 111:Generated_Source\PSoC4/UART_XB2.c ****             /* Set RX interrupt vector and priority */
 112:Generated_Source\PSoC4/UART_XB2.c ****             (void) CyIntSetVector(UART_XB2_RX_VECT_NUM, &UART_XB2_RXISR);
  32              		.loc 1 112 0
  33 0002 0120     		mov	r0, #1
  34 0004 1049     		ldr	r1, .L2
  35 0006 FFF7FEFF 		bl	CyIntSetVector
  36              	.LVL0:
 113:Generated_Source\PSoC4/UART_XB2.c ****             CyIntSetPriority(UART_XB2_RX_VECT_NUM, UART_XB2_RX_PRIOR_NUM);
  37              		.loc 1 113 0
  38 000a 0120     		mov	r0, #1
  39 000c 0321     		mov	r1, #3
  40 000e FFF7FEFF 		bl	CyIntSetPriority
  41              	.LVL1:
 114:Generated_Source\PSoC4/UART_XB2.c ****             UART_XB2_errorStatus = 0u;
  42              		.loc 1 114 0
  43 0012 0022     		mov	r2, #0
  44 0014 0D4B     		ldr	r3, .L2+4
  45 0016 1A70     		strb	r2, [r3]
 115:Generated_Source\PSoC4/UART_XB2.c ****         #endif /* (UART_XB2_RX_INTERRUPT_ENABLED) */
 116:Generated_Source\PSoC4/UART_XB2.c **** 
 117:Generated_Source\PSoC4/UART_XB2.c ****         #if (UART_XB2_RXHW_ADDRESS_ENABLED)
 118:Generated_Source\PSoC4/UART_XB2.c ****             UART_XB2_SetRxAddressMode(UART_XB2_RX_ADDRESS_MODE);
 119:Generated_Source\PSoC4/UART_XB2.c ****             UART_XB2_SetRxAddress1(UART_XB2_RX_HW_ADDRESS1);
 120:Generated_Source\PSoC4/UART_XB2.c ****             UART_XB2_SetRxAddress2(UART_XB2_RX_HW_ADDRESS2);
 121:Generated_Source\PSoC4/UART_XB2.c ****         #endif /* End UART_XB2_RXHW_ADDRESS_ENABLED */
 122:Generated_Source\PSoC4/UART_XB2.c **** 
 123:Generated_Source\PSoC4/UART_XB2.c ****         /* Init Count7 period */
 124:Generated_Source\PSoC4/UART_XB2.c ****         UART_XB2_RXBITCTR_PERIOD_REG = UART_XB2_RXBITCTR_INIT;
  46              		.loc 1 124 0
  47 0018 7232     		add	r2, r2, #114
ARM GAS  C:\Users\Petro\AppData\Local\Temp\ccLVkPCw.s 			page 4


  48 001a 0D4B     		ldr	r3, .L2+8
  49 001c 1A70     		strb	r2, [r3]
 125:Generated_Source\PSoC4/UART_XB2.c ****         /* Configure the Initial RX interrupt mask */
 126:Generated_Source\PSoC4/UART_XB2.c ****         UART_XB2_RXSTATUS_MASK_REG  = UART_XB2_INIT_RX_INTERRUPTS_MASK;
  50              		.loc 1 126 0
  51 001e 523A     		sub	r2, r2, #82
  52 0020 0C4B     		ldr	r3, .L2+12
  53 0022 1A70     		strb	r2, [r3]
 127:Generated_Source\PSoC4/UART_XB2.c ****     #endif /* End UART_XB2_RX_ENABLED || UART_XB2_HD_ENABLED*/
 128:Generated_Source\PSoC4/UART_XB2.c **** 
 129:Generated_Source\PSoC4/UART_XB2.c ****     #if(UART_XB2_TX_ENABLED)
 130:Generated_Source\PSoC4/UART_XB2.c ****         #if (UART_XB2_TX_INTERRUPT_ENABLED)
 131:Generated_Source\PSoC4/UART_XB2.c ****             /* Set TX interrupt vector and priority */
 132:Generated_Source\PSoC4/UART_XB2.c ****             (void) CyIntSetVector(UART_XB2_TX_VECT_NUM, &UART_XB2_TXISR);
  54              		.loc 1 132 0
  55 0024 0220     		mov	r0, #2
  56 0026 0C49     		ldr	r1, .L2+16
  57 0028 FFF7FEFF 		bl	CyIntSetVector
  58              	.LVL2:
 133:Generated_Source\PSoC4/UART_XB2.c ****             CyIntSetPriority(UART_XB2_TX_VECT_NUM, UART_XB2_TX_PRIOR_NUM);
  59              		.loc 1 133 0
  60 002c 0220     		mov	r0, #2
  61 002e 0321     		mov	r1, #3
  62 0030 FFF7FEFF 		bl	CyIntSetPriority
  63              	.LVL3:
 134:Generated_Source\PSoC4/UART_XB2.c ****         #endif /* (UART_XB2_TX_INTERRUPT_ENABLED) */
 135:Generated_Source\PSoC4/UART_XB2.c **** 
 136:Generated_Source\PSoC4/UART_XB2.c ****         /* Write Counter Value for TX Bit Clk Generator*/
 137:Generated_Source\PSoC4/UART_XB2.c ****         #if (UART_XB2_TXCLKGEN_DP)
 138:Generated_Source\PSoC4/UART_XB2.c ****             UART_XB2_TXBITCLKGEN_CTR_REG = UART_XB2_BIT_CENTER;
  64              		.loc 1 138 0
  65 0034 0622     		mov	r2, #6
  66 0036 094B     		ldr	r3, .L2+20
  67 0038 1A70     		strb	r2, [r3]
 139:Generated_Source\PSoC4/UART_XB2.c ****             UART_XB2_TXBITCLKTX_COMPLETE_REG = ((UART_XB2_NUMBER_OF_DATA_BITS +
  68              		.loc 1 139 0
  69 003a 4132     		add	r2, r2, #65
  70 003c 084B     		ldr	r3, .L2+24
  71 003e 1A70     		strb	r2, [r3]
 140:Generated_Source\PSoC4/UART_XB2.c ****                         UART_XB2_NUMBER_OF_START_BIT) * UART_XB2_OVER_SAMPLE_COUNT) - 1u;
 141:Generated_Source\PSoC4/UART_XB2.c ****         #else
 142:Generated_Source\PSoC4/UART_XB2.c ****             UART_XB2_TXBITCTR_PERIOD_REG = ((UART_XB2_NUMBER_OF_DATA_BITS +
 143:Generated_Source\PSoC4/UART_XB2.c ****                         UART_XB2_NUMBER_OF_START_BIT) * UART_XB2_OVER_SAMPLE_8) - 1u;
 144:Generated_Source\PSoC4/UART_XB2.c ****         #endif /* End UART_XB2_TXCLKGEN_DP */
 145:Generated_Source\PSoC4/UART_XB2.c **** 
 146:Generated_Source\PSoC4/UART_XB2.c ****         /* Configure the Initial TX interrupt mask */
 147:Generated_Source\PSoC4/UART_XB2.c ****         #if (UART_XB2_TX_INTERRUPT_ENABLED)
 148:Generated_Source\PSoC4/UART_XB2.c ****             UART_XB2_TXSTATUS_MASK_REG = UART_XB2_TX_STS_FIFO_EMPTY;
  72              		.loc 1 148 0
  73 0040 453A     		sub	r2, r2, #69
  74 0042 084B     		ldr	r3, .L2+28
  75 0044 1A70     		strb	r2, [r3]
 149:Generated_Source\PSoC4/UART_XB2.c ****         #else
 150:Generated_Source\PSoC4/UART_XB2.c ****             UART_XB2_TXSTATUS_MASK_REG = UART_XB2_INIT_TX_INTERRUPTS_MASK;
 151:Generated_Source\PSoC4/UART_XB2.c ****         #endif /*End UART_XB2_TX_INTERRUPT_ENABLED*/
 152:Generated_Source\PSoC4/UART_XB2.c **** 
 153:Generated_Source\PSoC4/UART_XB2.c ****     #endif /* End UART_XB2_TX_ENABLED */
ARM GAS  C:\Users\Petro\AppData\Local\Temp\ccLVkPCw.s 			page 5


 154:Generated_Source\PSoC4/UART_XB2.c **** 
 155:Generated_Source\PSoC4/UART_XB2.c ****     #if(UART_XB2_PARITY_TYPE_SW)  /* Write Parity to Control Register */
 156:Generated_Source\PSoC4/UART_XB2.c ****         UART_XB2_WriteControlRegister( \
 157:Generated_Source\PSoC4/UART_XB2.c ****             (UART_XB2_ReadControlRegister() & (uint8)~UART_XB2_CTRL_PARITY_TYPE_MASK) | \
 158:Generated_Source\PSoC4/UART_XB2.c ****             (uint8)(UART_XB2_PARITY_TYPE << UART_XB2_CTRL_PARITY_TYPE0_SHIFT) );
 159:Generated_Source\PSoC4/UART_XB2.c ****     #endif /* End UART_XB2_PARITY_TYPE_SW */
 160:Generated_Source\PSoC4/UART_XB2.c **** }
  76              		.loc 1 160 0
  77              		@ sp needed
  78 0046 08BD     		pop	{r3, pc}
  79              	.L3:
  80              		.align	2
  81              	.L2:
  82 0048 00000000 		.word	UART_XB2_RXISR
  83 004c 00000000 		.word	.LANCHOR0
  84 0050 81000F40 		.word	1074724993
  85 0054 80000F40 		.word	1074724992
  86 0058 00000000 		.word	UART_XB2_TXISR
  87 005c 22000F40 		.word	1074724898
  88 0060 32000F40 		.word	1074724914
  89 0064 83000F40 		.word	1074724995
  90              		.cfi_endproc
  91              	.LFE3:
  92              		.size	UART_XB2_Init, .-UART_XB2_Init
  93              		.section	.text.UART_XB2_Enable,"ax",%progbits
  94              		.align	2
  95              		.global	UART_XB2_Enable
  96              		.code	16
  97              		.thumb_func
  98              		.type	UART_XB2_Enable, %function
  99              	UART_XB2_Enable:
 100              	.LFB4:
 161:Generated_Source\PSoC4/UART_XB2.c **** 
 162:Generated_Source\PSoC4/UART_XB2.c **** 
 163:Generated_Source\PSoC4/UART_XB2.c **** /*******************************************************************************
 164:Generated_Source\PSoC4/UART_XB2.c **** * Function Name: UART_XB2_Enable
 165:Generated_Source\PSoC4/UART_XB2.c **** ********************************************************************************
 166:Generated_Source\PSoC4/UART_XB2.c **** *
 167:Generated_Source\PSoC4/UART_XB2.c **** * Summary:
 168:Generated_Source\PSoC4/UART_XB2.c **** *  Activates the hardware and begins component operation. It is not necessary
 169:Generated_Source\PSoC4/UART_XB2.c **** *  to call UART_XB2_Enable() because the UART_XB2_Start() API
 170:Generated_Source\PSoC4/UART_XB2.c **** *  calls this function, which is the preferred method to begin component
 171:Generated_Source\PSoC4/UART_XB2.c **** *  operation.
 172:Generated_Source\PSoC4/UART_XB2.c **** 
 173:Generated_Source\PSoC4/UART_XB2.c **** * Parameters:
 174:Generated_Source\PSoC4/UART_XB2.c **** *  None.
 175:Generated_Source\PSoC4/UART_XB2.c **** *
 176:Generated_Source\PSoC4/UART_XB2.c **** * Return:
 177:Generated_Source\PSoC4/UART_XB2.c **** *  None.
 178:Generated_Source\PSoC4/UART_XB2.c **** *
 179:Generated_Source\PSoC4/UART_XB2.c **** * Global Variables:
 180:Generated_Source\PSoC4/UART_XB2.c **** *  UART_XB2_rxAddressDetected - set to initial state (0).
 181:Generated_Source\PSoC4/UART_XB2.c **** *
 182:Generated_Source\PSoC4/UART_XB2.c **** *******************************************************************************/
 183:Generated_Source\PSoC4/UART_XB2.c **** void UART_XB2_Enable(void) 
 184:Generated_Source\PSoC4/UART_XB2.c **** {
 101              		.loc 1 184 0
ARM GAS  C:\Users\Petro\AppData\Local\Temp\ccLVkPCw.s 			page 6


 102              		.cfi_startproc
 103 0000 38B5     		push	{r3, r4, r5, lr}
 104              		.cfi_def_cfa_offset 16
 105              		.cfi_offset 3, -16
 106              		.cfi_offset 4, -12
 107              		.cfi_offset 5, -8
 108              		.cfi_offset 14, -4
 185:Generated_Source\PSoC4/UART_XB2.c ****     uint8 enableInterrupts;
 186:Generated_Source\PSoC4/UART_XB2.c ****     enableInterrupts = CyEnterCriticalSection();
 109              		.loc 1 186 0
 110 0002 FFF7FEFF 		bl	CyEnterCriticalSection
 111              	.LVL4:
 112 0006 051C     		mov	r5, r0
 113              	.LVL5:
 187:Generated_Source\PSoC4/UART_XB2.c **** 
 188:Generated_Source\PSoC4/UART_XB2.c ****     #if (UART_XB2_RX_ENABLED || UART_XB2_HD_ENABLED)
 189:Generated_Source\PSoC4/UART_XB2.c ****         /* RX Counter (Count7) Enable */
 190:Generated_Source\PSoC4/UART_XB2.c ****         UART_XB2_RXBITCTR_CONTROL_REG |= UART_XB2_CNTR_ENABLE;
 114              		.loc 1 190 0
 115 0008 0F4A     		ldr	r2, .L5
 116 000a 1178     		ldrb	r1, [r2]
 117 000c 2023     		mov	r3, #32
 118 000e 0B43     		orr	r3, r1
 119 0010 1370     		strb	r3, [r2]
 191:Generated_Source\PSoC4/UART_XB2.c **** 
 192:Generated_Source\PSoC4/UART_XB2.c ****         /* Enable the RX Interrupt */
 193:Generated_Source\PSoC4/UART_XB2.c ****         UART_XB2_RXSTATUS_ACTL_REG  |= UART_XB2_INT_ENABLE;
 120              		.loc 1 193 0
 121 0012 0E4A     		ldr	r2, .L5+4
 122 0014 1378     		ldrb	r3, [r2]
 123 0016 1024     		mov	r4, #16
 124 0018 2343     		orr	r3, r4
 125 001a DBB2     		uxtb	r3, r3
 126 001c 1370     		strb	r3, [r2]
 194:Generated_Source\PSoC4/UART_XB2.c **** 
 195:Generated_Source\PSoC4/UART_XB2.c ****         #if (UART_XB2_RX_INTERRUPT_ENABLED)
 196:Generated_Source\PSoC4/UART_XB2.c ****             UART_XB2_EnableRxInt();
 127              		.loc 1 196 0
 128 001e 0120     		mov	r0, #1
 129 0020 FFF7FEFF 		bl	CyIntEnable
 130              	.LVL6:
 197:Generated_Source\PSoC4/UART_XB2.c **** 
 198:Generated_Source\PSoC4/UART_XB2.c ****             #if (UART_XB2_RXHW_ADDRESS_ENABLED)
 199:Generated_Source\PSoC4/UART_XB2.c ****                 UART_XB2_rxAddressDetected = 0u;
 200:Generated_Source\PSoC4/UART_XB2.c ****             #endif /* (UART_XB2_RXHW_ADDRESS_ENABLED) */
 201:Generated_Source\PSoC4/UART_XB2.c ****         #endif /* (UART_XB2_RX_INTERRUPT_ENABLED) */
 202:Generated_Source\PSoC4/UART_XB2.c ****     #endif /* (UART_XB2_RX_ENABLED || UART_XB2_HD_ENABLED) */
 203:Generated_Source\PSoC4/UART_XB2.c **** 
 204:Generated_Source\PSoC4/UART_XB2.c ****     #if(UART_XB2_TX_ENABLED)
 205:Generated_Source\PSoC4/UART_XB2.c ****         /* TX Counter (DP/Count7) Enable */
 206:Generated_Source\PSoC4/UART_XB2.c ****         #if(!UART_XB2_TXCLKGEN_DP)
 207:Generated_Source\PSoC4/UART_XB2.c ****             UART_XB2_TXBITCTR_CONTROL_REG |= UART_XB2_CNTR_ENABLE;
 208:Generated_Source\PSoC4/UART_XB2.c ****         #endif /* End UART_XB2_TXCLKGEN_DP */
 209:Generated_Source\PSoC4/UART_XB2.c **** 
 210:Generated_Source\PSoC4/UART_XB2.c ****         /* Enable the TX Interrupt */
 211:Generated_Source\PSoC4/UART_XB2.c ****         UART_XB2_TXSTATUS_ACTL_REG |= UART_XB2_INT_ENABLE;
 131              		.loc 1 211 0
ARM GAS  C:\Users\Petro\AppData\Local\Temp\ccLVkPCw.s 			page 7


 132 0024 0A4B     		ldr	r3, .L5+8
 133 0026 1A78     		ldrb	r2, [r3]
 134 0028 1443     		orr	r4, r2
 135 002a E4B2     		uxtb	r4, r4
 136 002c 1C70     		strb	r4, [r3]
 212:Generated_Source\PSoC4/UART_XB2.c ****         #if (UART_XB2_TX_INTERRUPT_ENABLED)
 213:Generated_Source\PSoC4/UART_XB2.c ****             UART_XB2_ClearPendingTxInt(); /* Clear history of TX_NOT_EMPTY */
 137              		.loc 1 213 0
 138 002e 0220     		mov	r0, #2
 139 0030 FFF7FEFF 		bl	CyIntClearPending
 140              	.LVL7:
 214:Generated_Source\PSoC4/UART_XB2.c ****             UART_XB2_EnableTxInt();
 141              		.loc 1 214 0
 142 0034 0220     		mov	r0, #2
 143 0036 FFF7FEFF 		bl	CyIntEnable
 144              	.LVL8:
 215:Generated_Source\PSoC4/UART_XB2.c ****         #endif /* (UART_XB2_TX_INTERRUPT_ENABLED) */
 216:Generated_Source\PSoC4/UART_XB2.c ****      #endif /* (UART_XB2_TX_INTERRUPT_ENABLED) */
 217:Generated_Source\PSoC4/UART_XB2.c **** 
 218:Generated_Source\PSoC4/UART_XB2.c ****     #if (UART_XB2_INTERNAL_CLOCK_USED)
 219:Generated_Source\PSoC4/UART_XB2.c ****         UART_XB2_IntClock_Start();  /* Enable the clock */
 145              		.loc 1 219 0
 146 003a FF20     		mov	r0, #255
 147 003c FFF7FEFF 		bl	UART_XB2_IntClock_StartEx
 148              	.LVL9:
 220:Generated_Source\PSoC4/UART_XB2.c ****     #endif /* (UART_XB2_INTERNAL_CLOCK_USED) */
 221:Generated_Source\PSoC4/UART_XB2.c **** 
 222:Generated_Source\PSoC4/UART_XB2.c ****     CyExitCriticalSection(enableInterrupts);
 149              		.loc 1 222 0
 150 0040 281C     		mov	r0, r5
 151 0042 FFF7FEFF 		bl	CyExitCriticalSection
 152              	.LVL10:
 223:Generated_Source\PSoC4/UART_XB2.c **** }
 153              		.loc 1 223 0
 154              		@ sp needed
 155              	.LVL11:
 156 0046 38BD     		pop	{r3, r4, r5, pc}
 157              	.L6:
 158              		.align	2
 159              	.L5:
 160 0048 91000F40 		.word	1074725009
 161 004c 90000F40 		.word	1074725008
 162 0050 93000F40 		.word	1074725011
 163              		.cfi_endproc
 164              	.LFE4:
 165              		.size	UART_XB2_Enable, .-UART_XB2_Enable
 166              		.section	.text.UART_XB2_Start,"ax",%progbits
 167              		.align	2
 168              		.global	UART_XB2_Start
 169              		.code	16
 170              		.thumb_func
 171              		.type	UART_XB2_Start, %function
 172              	UART_XB2_Start:
 173              	.LFB2:
  77:Generated_Source\PSoC4/UART_XB2.c ****     /* If not initialized then initialize all required hardware and software */
 174              		.loc 1 77 0
 175              		.cfi_startproc
ARM GAS  C:\Users\Petro\AppData\Local\Temp\ccLVkPCw.s 			page 8


 176 0000 08B5     		push	{r3, lr}
 177              		.cfi_def_cfa_offset 8
 178              		.cfi_offset 3, -8
 179              		.cfi_offset 14, -4
  79:Generated_Source\PSoC4/UART_XB2.c ****     {
 180              		.loc 1 79 0
 181 0002 064B     		ldr	r3, .L9
 182 0004 5B78     		ldrb	r3, [r3, #1]
 183 0006 002B     		cmp	r3, #0
 184 0008 04D1     		bne	.L8
  81:Generated_Source\PSoC4/UART_XB2.c ****         UART_XB2_initVar = 1u;
 185              		.loc 1 81 0
 186 000a FFF7FEFF 		bl	UART_XB2_Init
 187              	.LVL12:
  82:Generated_Source\PSoC4/UART_XB2.c ****     }
 188              		.loc 1 82 0
 189 000e 0122     		mov	r2, #1
 190 0010 024B     		ldr	r3, .L9
 191 0012 5A70     		strb	r2, [r3, #1]
 192              	.L8:
  85:Generated_Source\PSoC4/UART_XB2.c **** }
 193              		.loc 1 85 0
 194 0014 FFF7FEFF 		bl	UART_XB2_Enable
 195              	.LVL13:
  86:Generated_Source\PSoC4/UART_XB2.c **** 
 196              		.loc 1 86 0
 197              		@ sp needed
 198 0018 08BD     		pop	{r3, pc}
 199              	.L10:
 200 001a C046     		.align	2
 201              	.L9:
 202 001c 00000000 		.word	.LANCHOR0
 203              		.cfi_endproc
 204              	.LFE2:
 205              		.size	UART_XB2_Start, .-UART_XB2_Start
 206              		.section	.text.UART_XB2_Stop,"ax",%progbits
 207              		.align	2
 208              		.global	UART_XB2_Stop
 209              		.code	16
 210              		.thumb_func
 211              		.type	UART_XB2_Stop, %function
 212              	UART_XB2_Stop:
 213              	.LFB5:
 224:Generated_Source\PSoC4/UART_XB2.c **** 
 225:Generated_Source\PSoC4/UART_XB2.c **** 
 226:Generated_Source\PSoC4/UART_XB2.c **** /*******************************************************************************
 227:Generated_Source\PSoC4/UART_XB2.c **** * Function Name: UART_XB2_Stop
 228:Generated_Source\PSoC4/UART_XB2.c **** ********************************************************************************
 229:Generated_Source\PSoC4/UART_XB2.c **** *
 230:Generated_Source\PSoC4/UART_XB2.c **** * Summary:
 231:Generated_Source\PSoC4/UART_XB2.c **** *  Disables the UART operation.
 232:Generated_Source\PSoC4/UART_XB2.c **** *
 233:Generated_Source\PSoC4/UART_XB2.c **** * Parameters:
 234:Generated_Source\PSoC4/UART_XB2.c **** *  None.
 235:Generated_Source\PSoC4/UART_XB2.c **** *
 236:Generated_Source\PSoC4/UART_XB2.c **** * Return:
 237:Generated_Source\PSoC4/UART_XB2.c **** *  None.
ARM GAS  C:\Users\Petro\AppData\Local\Temp\ccLVkPCw.s 			page 9


 238:Generated_Source\PSoC4/UART_XB2.c **** *
 239:Generated_Source\PSoC4/UART_XB2.c **** *******************************************************************************/
 240:Generated_Source\PSoC4/UART_XB2.c **** void UART_XB2_Stop(void) 
 241:Generated_Source\PSoC4/UART_XB2.c **** {
 214              		.loc 1 241 0
 215              		.cfi_startproc
 216 0000 38B5     		push	{r3, r4, r5, lr}
 217              		.cfi_def_cfa_offset 16
 218              		.cfi_offset 3, -16
 219              		.cfi_offset 4, -12
 220              		.cfi_offset 5, -8
 221              		.cfi_offset 14, -4
 242:Generated_Source\PSoC4/UART_XB2.c ****     uint8 enableInterrupts;
 243:Generated_Source\PSoC4/UART_XB2.c ****     enableInterrupts = CyEnterCriticalSection();
 222              		.loc 1 243 0
 223 0002 FFF7FEFF 		bl	CyEnterCriticalSection
 224              	.LVL14:
 225 0006 041C     		mov	r4, r0
 226              	.LVL15:
 244:Generated_Source\PSoC4/UART_XB2.c **** 
 245:Generated_Source\PSoC4/UART_XB2.c ****     /* Write Bit Counter Disable */
 246:Generated_Source\PSoC4/UART_XB2.c ****     #if (UART_XB2_RX_ENABLED || UART_XB2_HD_ENABLED)
 247:Generated_Source\PSoC4/UART_XB2.c ****         UART_XB2_RXBITCTR_CONTROL_REG &= (uint8) ~UART_XB2_CNTR_ENABLE;
 227              		.loc 1 247 0
 228 0008 0C4A     		ldr	r2, .L12
 229 000a 1378     		ldrb	r3, [r2]
 230 000c 2021     		mov	r1, #32
 231 000e 8B43     		bic	r3, r1
 232 0010 1370     		strb	r3, [r2]
 248:Generated_Source\PSoC4/UART_XB2.c ****     #endif /* (UART_XB2_RX_ENABLED || UART_XB2_HD_ENABLED) */
 249:Generated_Source\PSoC4/UART_XB2.c **** 
 250:Generated_Source\PSoC4/UART_XB2.c ****     #if (UART_XB2_TX_ENABLED)
 251:Generated_Source\PSoC4/UART_XB2.c ****         #if(!UART_XB2_TXCLKGEN_DP)
 252:Generated_Source\PSoC4/UART_XB2.c ****             UART_XB2_TXBITCTR_CONTROL_REG &= (uint8) ~UART_XB2_CNTR_ENABLE;
 253:Generated_Source\PSoC4/UART_XB2.c ****         #endif /* (!UART_XB2_TXCLKGEN_DP) */
 254:Generated_Source\PSoC4/UART_XB2.c ****     #endif /* (UART_XB2_TX_ENABLED) */
 255:Generated_Source\PSoC4/UART_XB2.c **** 
 256:Generated_Source\PSoC4/UART_XB2.c ****     #if (UART_XB2_INTERNAL_CLOCK_USED)
 257:Generated_Source\PSoC4/UART_XB2.c ****         UART_XB2_IntClock_Stop();   /* Disable the clock */
 233              		.loc 1 257 0
 234 0012 FFF7FEFF 		bl	UART_XB2_IntClock_Stop
 235              	.LVL16:
 258:Generated_Source\PSoC4/UART_XB2.c ****     #endif /* (UART_XB2_INTERNAL_CLOCK_USED) */
 259:Generated_Source\PSoC4/UART_XB2.c **** 
 260:Generated_Source\PSoC4/UART_XB2.c ****     /* Disable internal interrupt component */
 261:Generated_Source\PSoC4/UART_XB2.c ****     #if (UART_XB2_RX_ENABLED || UART_XB2_HD_ENABLED)
 262:Generated_Source\PSoC4/UART_XB2.c ****         UART_XB2_RXSTATUS_ACTL_REG  &= (uint8) ~UART_XB2_INT_ENABLE;
 236              		.loc 1 262 0
 237 0016 0A4A     		ldr	r2, .L12+4
 238 0018 1378     		ldrb	r3, [r2]
 239 001a 1025     		mov	r5, #16
 240 001c AB43     		bic	r3, r5
 241 001e 1370     		strb	r3, [r2]
 263:Generated_Source\PSoC4/UART_XB2.c **** 
 264:Generated_Source\PSoC4/UART_XB2.c ****         #if (UART_XB2_RX_INTERRUPT_ENABLED)
 265:Generated_Source\PSoC4/UART_XB2.c ****             UART_XB2_DisableRxInt();
 242              		.loc 1 265 0
ARM GAS  C:\Users\Petro\AppData\Local\Temp\ccLVkPCw.s 			page 10


 243 0020 0120     		mov	r0, #1
 244 0022 FFF7FEFF 		bl	CyIntDisable
 245              	.LVL17:
 266:Generated_Source\PSoC4/UART_XB2.c ****         #endif /* (UART_XB2_RX_INTERRUPT_ENABLED) */
 267:Generated_Source\PSoC4/UART_XB2.c ****     #endif /* (UART_XB2_RX_ENABLED || UART_XB2_HD_ENABLED) */
 268:Generated_Source\PSoC4/UART_XB2.c **** 
 269:Generated_Source\PSoC4/UART_XB2.c ****     #if (UART_XB2_TX_ENABLED)
 270:Generated_Source\PSoC4/UART_XB2.c ****         UART_XB2_TXSTATUS_ACTL_REG &= (uint8) ~UART_XB2_INT_ENABLE;
 246              		.loc 1 270 0
 247 0026 074A     		ldr	r2, .L12+8
 248 0028 1378     		ldrb	r3, [r2]
 249 002a AB43     		bic	r3, r5
 250 002c 1370     		strb	r3, [r2]
 271:Generated_Source\PSoC4/UART_XB2.c **** 
 272:Generated_Source\PSoC4/UART_XB2.c ****         #if (UART_XB2_TX_INTERRUPT_ENABLED)
 273:Generated_Source\PSoC4/UART_XB2.c ****             UART_XB2_DisableTxInt();
 251              		.loc 1 273 0
 252 002e 0220     		mov	r0, #2
 253 0030 FFF7FEFF 		bl	CyIntDisable
 254              	.LVL18:
 274:Generated_Source\PSoC4/UART_XB2.c ****         #endif /* (UART_XB2_TX_INTERRUPT_ENABLED) */
 275:Generated_Source\PSoC4/UART_XB2.c ****     #endif /* (UART_XB2_TX_ENABLED) */
 276:Generated_Source\PSoC4/UART_XB2.c **** 
 277:Generated_Source\PSoC4/UART_XB2.c ****     CyExitCriticalSection(enableInterrupts);
 255              		.loc 1 277 0
 256 0034 201C     		mov	r0, r4
 257 0036 FFF7FEFF 		bl	CyExitCriticalSection
 258              	.LVL19:
 278:Generated_Source\PSoC4/UART_XB2.c **** }
 259              		.loc 1 278 0
 260              		@ sp needed
 261              	.LVL20:
 262 003a 38BD     		pop	{r3, r4, r5, pc}
 263              	.L13:
 264              		.align	2
 265              	.L12:
 266 003c 91000F40 		.word	1074725009
 267 0040 90000F40 		.word	1074725008
 268 0044 93000F40 		.word	1074725011
 269              		.cfi_endproc
 270              	.LFE5:
 271              		.size	UART_XB2_Stop, .-UART_XB2_Stop
 272              		.section	.text.UART_XB2_ReadControlRegister,"ax",%progbits
 273              		.align	2
 274              		.global	UART_XB2_ReadControlRegister
 275              		.code	16
 276              		.thumb_func
 277              		.type	UART_XB2_ReadControlRegister, %function
 278              	UART_XB2_ReadControlRegister:
 279              	.LFB6:
 279:Generated_Source\PSoC4/UART_XB2.c **** 
 280:Generated_Source\PSoC4/UART_XB2.c **** 
 281:Generated_Source\PSoC4/UART_XB2.c **** /*******************************************************************************
 282:Generated_Source\PSoC4/UART_XB2.c **** * Function Name: UART_XB2_ReadControlRegister
 283:Generated_Source\PSoC4/UART_XB2.c **** ********************************************************************************
 284:Generated_Source\PSoC4/UART_XB2.c **** *
 285:Generated_Source\PSoC4/UART_XB2.c **** * Summary:
ARM GAS  C:\Users\Petro\AppData\Local\Temp\ccLVkPCw.s 			page 11


 286:Generated_Source\PSoC4/UART_XB2.c **** *  Returns the current value of the control register.
 287:Generated_Source\PSoC4/UART_XB2.c **** *
 288:Generated_Source\PSoC4/UART_XB2.c **** * Parameters:
 289:Generated_Source\PSoC4/UART_XB2.c **** *  None.
 290:Generated_Source\PSoC4/UART_XB2.c **** *
 291:Generated_Source\PSoC4/UART_XB2.c **** * Return:
 292:Generated_Source\PSoC4/UART_XB2.c **** *  Contents of the control register.
 293:Generated_Source\PSoC4/UART_XB2.c **** *
 294:Generated_Source\PSoC4/UART_XB2.c **** *******************************************************************************/
 295:Generated_Source\PSoC4/UART_XB2.c **** uint8 UART_XB2_ReadControlRegister(void) 
 296:Generated_Source\PSoC4/UART_XB2.c **** {
 280              		.loc 1 296 0
 281              		.cfi_startproc
 297:Generated_Source\PSoC4/UART_XB2.c ****     #if (UART_XB2_CONTROL_REG_REMOVED)
 298:Generated_Source\PSoC4/UART_XB2.c ****         return(0u);
 299:Generated_Source\PSoC4/UART_XB2.c ****     #else
 300:Generated_Source\PSoC4/UART_XB2.c ****         return(UART_XB2_CONTROL_REG);
 301:Generated_Source\PSoC4/UART_XB2.c ****     #endif /* (UART_XB2_CONTROL_REG_REMOVED) */
 302:Generated_Source\PSoC4/UART_XB2.c **** }
 282              		.loc 1 302 0
 283 0000 0020     		mov	r0, #0
 284              		@ sp needed
 285 0002 7047     		bx	lr
 286              		.cfi_endproc
 287              	.LFE6:
 288              		.size	UART_XB2_ReadControlRegister, .-UART_XB2_ReadControlRegister
 289              		.section	.text.UART_XB2_WriteControlRegister,"ax",%progbits
 290              		.align	2
 291              		.global	UART_XB2_WriteControlRegister
 292              		.code	16
 293              		.thumb_func
 294              		.type	UART_XB2_WriteControlRegister, %function
 295              	UART_XB2_WriteControlRegister:
 296              	.LFB7:
 303:Generated_Source\PSoC4/UART_XB2.c **** 
 304:Generated_Source\PSoC4/UART_XB2.c **** 
 305:Generated_Source\PSoC4/UART_XB2.c **** /*******************************************************************************
 306:Generated_Source\PSoC4/UART_XB2.c **** * Function Name: UART_XB2_WriteControlRegister
 307:Generated_Source\PSoC4/UART_XB2.c **** ********************************************************************************
 308:Generated_Source\PSoC4/UART_XB2.c **** *
 309:Generated_Source\PSoC4/UART_XB2.c **** * Summary:
 310:Generated_Source\PSoC4/UART_XB2.c **** *  Writes an 8-bit value into the control register
 311:Generated_Source\PSoC4/UART_XB2.c **** *
 312:Generated_Source\PSoC4/UART_XB2.c **** * Parameters:
 313:Generated_Source\PSoC4/UART_XB2.c **** *  control:  control register value
 314:Generated_Source\PSoC4/UART_XB2.c **** *
 315:Generated_Source\PSoC4/UART_XB2.c **** * Return:
 316:Generated_Source\PSoC4/UART_XB2.c **** *  None.
 317:Generated_Source\PSoC4/UART_XB2.c **** *
 318:Generated_Source\PSoC4/UART_XB2.c **** *******************************************************************************/
 319:Generated_Source\PSoC4/UART_XB2.c **** void  UART_XB2_WriteControlRegister(uint8 control) 
 320:Generated_Source\PSoC4/UART_XB2.c **** {
 297              		.loc 1 320 0
 298              		.cfi_startproc
 299              	.LVL21:
 321:Generated_Source\PSoC4/UART_XB2.c ****     #if (UART_XB2_CONTROL_REG_REMOVED)
 322:Generated_Source\PSoC4/UART_XB2.c ****         if(0u != control)
ARM GAS  C:\Users\Petro\AppData\Local\Temp\ccLVkPCw.s 			page 12


 323:Generated_Source\PSoC4/UART_XB2.c ****         {
 324:Generated_Source\PSoC4/UART_XB2.c ****             /* Suppress compiler warning */
 325:Generated_Source\PSoC4/UART_XB2.c ****         }
 326:Generated_Source\PSoC4/UART_XB2.c ****     #else
 327:Generated_Source\PSoC4/UART_XB2.c ****        UART_XB2_CONTROL_REG = control;
 328:Generated_Source\PSoC4/UART_XB2.c ****     #endif /* (UART_XB2_CONTROL_REG_REMOVED) */
 329:Generated_Source\PSoC4/UART_XB2.c **** }
 300              		.loc 1 329 0
 301              		@ sp needed
 302 0000 7047     		bx	lr
 303              		.cfi_endproc
 304              	.LFE7:
 305              		.size	UART_XB2_WriteControlRegister, .-UART_XB2_WriteControlRegister
 306 0002 C046     		.section	.text.UART_XB2_SetRxInterruptMode,"ax",%progbits
 307              		.align	2
 308              		.global	UART_XB2_SetRxInterruptMode
 309              		.code	16
 310              		.thumb_func
 311              		.type	UART_XB2_SetRxInterruptMode, %function
 312              	UART_XB2_SetRxInterruptMode:
 313              	.LFB8:
 330:Generated_Source\PSoC4/UART_XB2.c **** 
 331:Generated_Source\PSoC4/UART_XB2.c **** 
 332:Generated_Source\PSoC4/UART_XB2.c **** #if(UART_XB2_RX_ENABLED || UART_XB2_HD_ENABLED)
 333:Generated_Source\PSoC4/UART_XB2.c ****     /*******************************************************************************
 334:Generated_Source\PSoC4/UART_XB2.c ****     * Function Name: UART_XB2_SetRxInterruptMode
 335:Generated_Source\PSoC4/UART_XB2.c ****     ********************************************************************************
 336:Generated_Source\PSoC4/UART_XB2.c ****     *
 337:Generated_Source\PSoC4/UART_XB2.c ****     * Summary:
 338:Generated_Source\PSoC4/UART_XB2.c ****     *  Configures the RX interrupt sources enabled.
 339:Generated_Source\PSoC4/UART_XB2.c ****     *
 340:Generated_Source\PSoC4/UART_XB2.c ****     * Parameters:
 341:Generated_Source\PSoC4/UART_XB2.c ****     *  IntSrc:  Bit field containing the RX interrupts to enable. Based on the 
 342:Generated_Source\PSoC4/UART_XB2.c ****     *  bit-field arrangement of the status register. This value must be a 
 343:Generated_Source\PSoC4/UART_XB2.c ****     *  combination of status register bit-masks shown below:
 344:Generated_Source\PSoC4/UART_XB2.c ****     *      UART_XB2_RX_STS_FIFO_NOTEMPTY    Interrupt on byte received.
 345:Generated_Source\PSoC4/UART_XB2.c ****     *      UART_XB2_RX_STS_PAR_ERROR        Interrupt on parity error.
 346:Generated_Source\PSoC4/UART_XB2.c ****     *      UART_XB2_RX_STS_STOP_ERROR       Interrupt on stop error.
 347:Generated_Source\PSoC4/UART_XB2.c ****     *      UART_XB2_RX_STS_BREAK            Interrupt on break.
 348:Generated_Source\PSoC4/UART_XB2.c ****     *      UART_XB2_RX_STS_OVERRUN          Interrupt on overrun error.
 349:Generated_Source\PSoC4/UART_XB2.c ****     *      UART_XB2_RX_STS_ADDR_MATCH       Interrupt on address match.
 350:Generated_Source\PSoC4/UART_XB2.c ****     *      UART_XB2_RX_STS_MRKSPC           Interrupt on address detect.
 351:Generated_Source\PSoC4/UART_XB2.c ****     *
 352:Generated_Source\PSoC4/UART_XB2.c ****     * Return:
 353:Generated_Source\PSoC4/UART_XB2.c ****     *  None.
 354:Generated_Source\PSoC4/UART_XB2.c ****     *
 355:Generated_Source\PSoC4/UART_XB2.c ****     * Theory:
 356:Generated_Source\PSoC4/UART_XB2.c ****     *  Enables the output of specific status bits to the interrupt controller
 357:Generated_Source\PSoC4/UART_XB2.c ****     *
 358:Generated_Source\PSoC4/UART_XB2.c ****     *******************************************************************************/
 359:Generated_Source\PSoC4/UART_XB2.c ****     void UART_XB2_SetRxInterruptMode(uint8 intSrc) 
 360:Generated_Source\PSoC4/UART_XB2.c ****     {
 314              		.loc 1 360 0
 315              		.cfi_startproc
 316              	.LVL22:
 361:Generated_Source\PSoC4/UART_XB2.c ****         UART_XB2_RXSTATUS_MASK_REG  = intSrc;
 317              		.loc 1 361 0
ARM GAS  C:\Users\Petro\AppData\Local\Temp\ccLVkPCw.s 			page 13


 318 0000 014B     		ldr	r3, .L17
 319 0002 1870     		strb	r0, [r3]
 362:Generated_Source\PSoC4/UART_XB2.c ****     }
 320              		.loc 1 362 0
 321              		@ sp needed
 322 0004 7047     		bx	lr
 323              	.L18:
 324 0006 C046     		.align	2
 325              	.L17:
 326 0008 80000F40 		.word	1074724992
 327              		.cfi_endproc
 328              	.LFE8:
 329              		.size	UART_XB2_SetRxInterruptMode, .-UART_XB2_SetRxInterruptMode
 330              		.section	.text.UART_XB2_ReadRxData,"ax",%progbits
 331              		.align	2
 332              		.global	UART_XB2_ReadRxData
 333              		.code	16
 334              		.thumb_func
 335              		.type	UART_XB2_ReadRxData, %function
 336              	UART_XB2_ReadRxData:
 337              	.LFB9:
 363:Generated_Source\PSoC4/UART_XB2.c **** 
 364:Generated_Source\PSoC4/UART_XB2.c **** 
 365:Generated_Source\PSoC4/UART_XB2.c ****     /*******************************************************************************
 366:Generated_Source\PSoC4/UART_XB2.c ****     * Function Name: UART_XB2_ReadRxData
 367:Generated_Source\PSoC4/UART_XB2.c ****     ********************************************************************************
 368:Generated_Source\PSoC4/UART_XB2.c ****     *
 369:Generated_Source\PSoC4/UART_XB2.c ****     * Summary:
 370:Generated_Source\PSoC4/UART_XB2.c ****     *  Returns the next byte of received data. This function returns data without
 371:Generated_Source\PSoC4/UART_XB2.c ****     *  checking the status. You must check the status separately.
 372:Generated_Source\PSoC4/UART_XB2.c ****     *
 373:Generated_Source\PSoC4/UART_XB2.c ****     * Parameters:
 374:Generated_Source\PSoC4/UART_XB2.c ****     *  None.
 375:Generated_Source\PSoC4/UART_XB2.c ****     *
 376:Generated_Source\PSoC4/UART_XB2.c ****     * Return:
 377:Generated_Source\PSoC4/UART_XB2.c ****     *  Received data from RX register
 378:Generated_Source\PSoC4/UART_XB2.c ****     *
 379:Generated_Source\PSoC4/UART_XB2.c ****     * Global Variables:
 380:Generated_Source\PSoC4/UART_XB2.c ****     *  UART_XB2_rxBuffer - RAM buffer pointer for save received data.
 381:Generated_Source\PSoC4/UART_XB2.c ****     *  UART_XB2_rxBufferWrite - cyclic index for write to rxBuffer,
 382:Generated_Source\PSoC4/UART_XB2.c ****     *     checked to identify new data.
 383:Generated_Source\PSoC4/UART_XB2.c ****     *  UART_XB2_rxBufferRead - cyclic index for read from rxBuffer,
 384:Generated_Source\PSoC4/UART_XB2.c ****     *     incremented after each byte has been read from buffer.
 385:Generated_Source\PSoC4/UART_XB2.c ****     *  UART_XB2_rxBufferLoopDetect - cleared if loop condition was detected
 386:Generated_Source\PSoC4/UART_XB2.c ****     *     in RX ISR.
 387:Generated_Source\PSoC4/UART_XB2.c ****     *
 388:Generated_Source\PSoC4/UART_XB2.c ****     * Reentrant:
 389:Generated_Source\PSoC4/UART_XB2.c ****     *  No.
 390:Generated_Source\PSoC4/UART_XB2.c ****     *
 391:Generated_Source\PSoC4/UART_XB2.c ****     *******************************************************************************/
 392:Generated_Source\PSoC4/UART_XB2.c ****     uint8 UART_XB2_ReadRxData(void) 
 393:Generated_Source\PSoC4/UART_XB2.c ****     {
 338              		.loc 1 393 0
 339              		.cfi_startproc
 340 0000 10B5     		push	{r4, lr}
 341              		.cfi_def_cfa_offset 8
 342              		.cfi_offset 4, -8
ARM GAS  C:\Users\Petro\AppData\Local\Temp\ccLVkPCw.s 			page 14


 343              		.cfi_offset 14, -4
 394:Generated_Source\PSoC4/UART_XB2.c ****         uint8 rxData;
 395:Generated_Source\PSoC4/UART_XB2.c **** 
 396:Generated_Source\PSoC4/UART_XB2.c ****     #if (UART_XB2_RX_INTERRUPT_ENABLED)
 397:Generated_Source\PSoC4/UART_XB2.c **** 
 398:Generated_Source\PSoC4/UART_XB2.c ****         uint8 locRxBufferRead;
 399:Generated_Source\PSoC4/UART_XB2.c ****         uint8 locRxBufferWrite;
 400:Generated_Source\PSoC4/UART_XB2.c **** 
 401:Generated_Source\PSoC4/UART_XB2.c ****         /* Protect variables that could change on interrupt */
 402:Generated_Source\PSoC4/UART_XB2.c ****         UART_XB2_DisableRxInt();
 344              		.loc 1 402 0
 345 0002 0120     		mov	r0, #1
 346 0004 FFF7FEFF 		bl	CyIntDisable
 347              	.LVL23:
 403:Generated_Source\PSoC4/UART_XB2.c **** 
 404:Generated_Source\PSoC4/UART_XB2.c ****         locRxBufferRead  = UART_XB2_rxBufferRead;
 348              		.loc 1 404 0
 349 0008 114A     		ldr	r2, .L25
 350 000a 9378     		ldrb	r3, [r2, #2]
 351 000c DBB2     		uxtb	r3, r3
 352              	.LVL24:
 405:Generated_Source\PSoC4/UART_XB2.c ****         locRxBufferWrite = UART_XB2_rxBufferWrite;
 353              		.loc 1 405 0
 354 000e D178     		ldrb	r1, [r2, #3]
 355 0010 C9B2     		uxtb	r1, r1
 356              	.LVL25:
 406:Generated_Source\PSoC4/UART_XB2.c **** 
 407:Generated_Source\PSoC4/UART_XB2.c ****         if( (UART_XB2_rxBufferLoopDetect != 0u) || (locRxBufferRead != locRxBufferWrite) )
 357              		.loc 1 407 0
 358 0012 1279     		ldrb	r2, [r2, #4]
 359 0014 002A     		cmp	r2, #0
 360 0016 01D1     		bne	.L20
 361              		.loc 1 407 0 is_stmt 0 discriminator 1
 362 0018 8B42     		cmp	r3, r1
 363 001a 10D0     		beq	.L21
 364              	.L20:
 408:Generated_Source\PSoC4/UART_XB2.c ****         {
 409:Generated_Source\PSoC4/UART_XB2.c ****             rxData = UART_XB2_rxBuffer[locRxBufferRead];
 365              		.loc 1 409 0 is_stmt 1
 366 001c 0D4A     		ldr	r2, .L25+4
 367 001e D45C     		ldrb	r4, [r2, r3]
 368 0020 E4B2     		uxtb	r4, r4
 369              	.LVL26:
 410:Generated_Source\PSoC4/UART_XB2.c ****             locRxBufferRead++;
 370              		.loc 1 410 0
 371 0022 0133     		add	r3, r3, #1
 372              	.LVL27:
 373 0024 DBB2     		uxtb	r3, r3
 374              	.LVL28:
 411:Generated_Source\PSoC4/UART_XB2.c **** 
 412:Generated_Source\PSoC4/UART_XB2.c ****             if(locRxBufferRead >= UART_XB2_RX_BUFFER_SIZE)
 375              		.loc 1 412 0
 376 0026 632B     		cmp	r3, #99
 377 0028 00D9     		bls	.L22
 413:Generated_Source\PSoC4/UART_XB2.c ****             {
 414:Generated_Source\PSoC4/UART_XB2.c ****                 locRxBufferRead = 0u;
 378              		.loc 1 414 0
ARM GAS  C:\Users\Petro\AppData\Local\Temp\ccLVkPCw.s 			page 15


 379 002a 0023     		mov	r3, #0
 380              	.LVL29:
 381              	.L22:
 415:Generated_Source\PSoC4/UART_XB2.c ****             }
 416:Generated_Source\PSoC4/UART_XB2.c ****             /* Update the real pointer */
 417:Generated_Source\PSoC4/UART_XB2.c ****             UART_XB2_rxBufferRead = locRxBufferRead;
 382              		.loc 1 417 0
 383 002c 084A     		ldr	r2, .L25
 384 002e 9370     		strb	r3, [r2, #2]
 418:Generated_Source\PSoC4/UART_XB2.c **** 
 419:Generated_Source\PSoC4/UART_XB2.c ****             if(UART_XB2_rxBufferLoopDetect != 0u)
 385              		.loc 1 419 0
 386 0030 1379     		ldrb	r3, [r2, #4]
 387              	.LVL30:
 388 0032 002B     		cmp	r3, #0
 389 0034 06D0     		beq	.L23
 420:Generated_Source\PSoC4/UART_XB2.c ****             {
 421:Generated_Source\PSoC4/UART_XB2.c ****                 UART_XB2_rxBufferLoopDetect = 0u;
 390              		.loc 1 421 0
 391 0036 0022     		mov	r2, #0
 392 0038 054B     		ldr	r3, .L25
 393 003a 1A71     		strb	r2, [r3, #4]
 394              	.LVL31:
 395 003c 02E0     		b	.L23
 396              	.LVL32:
 397              	.L21:
 422:Generated_Source\PSoC4/UART_XB2.c ****                 #if ((UART_XB2_RX_INTERRUPT_ENABLED) && (UART_XB2_FLOW_CONTROL != 0u))
 423:Generated_Source\PSoC4/UART_XB2.c ****                     /* When Hardware Flow Control selected - return RX mask */
 424:Generated_Source\PSoC4/UART_XB2.c ****                     #if( UART_XB2_HD_ENABLED )
 425:Generated_Source\PSoC4/UART_XB2.c ****                         if((UART_XB2_CONTROL_REG & UART_XB2_CTRL_HD_SEND) == 0u)
 426:Generated_Source\PSoC4/UART_XB2.c ****                         {   /* In Half duplex mode return RX mask only in RX
 427:Generated_Source\PSoC4/UART_XB2.c ****                             *  configuration set, otherwise
 428:Generated_Source\PSoC4/UART_XB2.c ****                             *  mask will be returned in LoadRxConfig() API.
 429:Generated_Source\PSoC4/UART_XB2.c ****                             */
 430:Generated_Source\PSoC4/UART_XB2.c ****                             UART_XB2_RXSTATUS_MASK_REG  |= UART_XB2_RX_STS_FIFO_NOTEMPTY;
 431:Generated_Source\PSoC4/UART_XB2.c ****                         }
 432:Generated_Source\PSoC4/UART_XB2.c ****                     #else
 433:Generated_Source\PSoC4/UART_XB2.c ****                         UART_XB2_RXSTATUS_MASK_REG  |= UART_XB2_RX_STS_FIFO_NOTEMPTY;
 434:Generated_Source\PSoC4/UART_XB2.c ****                     #endif /* end UART_XB2_HD_ENABLED */
 435:Generated_Source\PSoC4/UART_XB2.c ****                 #endif /* ((UART_XB2_RX_INTERRUPT_ENABLED) && (UART_XB2_FLOW_CONTROL != 0u)) */
 436:Generated_Source\PSoC4/UART_XB2.c ****             }
 437:Generated_Source\PSoC4/UART_XB2.c ****         }
 438:Generated_Source\PSoC4/UART_XB2.c ****         else
 439:Generated_Source\PSoC4/UART_XB2.c ****         {   /* Needs to check status for RX_STS_FIFO_NOTEMPTY bit */
 440:Generated_Source\PSoC4/UART_XB2.c ****             rxData = UART_XB2_RXDATA_REG;
 398              		.loc 1 440 0
 399 003e 064B     		ldr	r3, .L25+8
 400              	.LVL33:
 401 0040 1C78     		ldrb	r4, [r3]
 402 0042 E4B2     		uxtb	r4, r4
 403              	.LVL34:
 404              	.L23:
 441:Generated_Source\PSoC4/UART_XB2.c ****         }
 442:Generated_Source\PSoC4/UART_XB2.c **** 
 443:Generated_Source\PSoC4/UART_XB2.c ****         UART_XB2_EnableRxInt();
 405              		.loc 1 443 0
 406 0044 0120     		mov	r0, #1
ARM GAS  C:\Users\Petro\AppData\Local\Temp\ccLVkPCw.s 			page 16


 407 0046 FFF7FEFF 		bl	CyIntEnable
 408              	.LVL35:
 444:Generated_Source\PSoC4/UART_XB2.c **** 
 445:Generated_Source\PSoC4/UART_XB2.c ****     #else
 446:Generated_Source\PSoC4/UART_XB2.c **** 
 447:Generated_Source\PSoC4/UART_XB2.c ****         /* Needs to check status for RX_STS_FIFO_NOTEMPTY bit */
 448:Generated_Source\PSoC4/UART_XB2.c ****         rxData = UART_XB2_RXDATA_REG;
 449:Generated_Source\PSoC4/UART_XB2.c **** 
 450:Generated_Source\PSoC4/UART_XB2.c ****     #endif /* (UART_XB2_RX_INTERRUPT_ENABLED) */
 451:Generated_Source\PSoC4/UART_XB2.c **** 
 452:Generated_Source\PSoC4/UART_XB2.c ****         return(rxData);
 453:Generated_Source\PSoC4/UART_XB2.c ****     }
 409              		.loc 1 453 0
 410 004a 201C     		mov	r0, r4
 411              		@ sp needed
 412              	.LVL36:
 413 004c 10BD     		pop	{r4, pc}
 414              	.L26:
 415 004e C046     		.align	2
 416              	.L25:
 417 0050 00000000 		.word	.LANCHOR0
 418 0054 00000000 		.word	UART_XB2_rxBuffer
 419 0058 41000F40 		.word	1074724929
 420              		.cfi_endproc
 421              	.LFE9:
 422              		.size	UART_XB2_ReadRxData, .-UART_XB2_ReadRxData
 423              		.section	.text.UART_XB2_ReadRxStatus,"ax",%progbits
 424              		.align	2
 425              		.global	UART_XB2_ReadRxStatus
 426              		.code	16
 427              		.thumb_func
 428              		.type	UART_XB2_ReadRxStatus, %function
 429              	UART_XB2_ReadRxStatus:
 430              	.LFB10:
 454:Generated_Source\PSoC4/UART_XB2.c **** 
 455:Generated_Source\PSoC4/UART_XB2.c **** 
 456:Generated_Source\PSoC4/UART_XB2.c ****     /*******************************************************************************
 457:Generated_Source\PSoC4/UART_XB2.c ****     * Function Name: UART_XB2_ReadRxStatus
 458:Generated_Source\PSoC4/UART_XB2.c ****     ********************************************************************************
 459:Generated_Source\PSoC4/UART_XB2.c ****     *
 460:Generated_Source\PSoC4/UART_XB2.c ****     * Summary:
 461:Generated_Source\PSoC4/UART_XB2.c ****     *  Returns the current state of the receiver status register and the software
 462:Generated_Source\PSoC4/UART_XB2.c ****     *  buffer overflow status.
 463:Generated_Source\PSoC4/UART_XB2.c ****     *
 464:Generated_Source\PSoC4/UART_XB2.c ****     * Parameters:
 465:Generated_Source\PSoC4/UART_XB2.c ****     *  None.
 466:Generated_Source\PSoC4/UART_XB2.c ****     *
 467:Generated_Source\PSoC4/UART_XB2.c ****     * Return:
 468:Generated_Source\PSoC4/UART_XB2.c ****     *  Current state of the status register.
 469:Generated_Source\PSoC4/UART_XB2.c ****     *
 470:Generated_Source\PSoC4/UART_XB2.c ****     * Side Effect:
 471:Generated_Source\PSoC4/UART_XB2.c ****     *  All status register bits are clear-on-read except
 472:Generated_Source\PSoC4/UART_XB2.c ****     *  UART_XB2_RX_STS_FIFO_NOTEMPTY.
 473:Generated_Source\PSoC4/UART_XB2.c ****     *  UART_XB2_RX_STS_FIFO_NOTEMPTY clears immediately after RX data
 474:Generated_Source\PSoC4/UART_XB2.c ****     *  register read.
 475:Generated_Source\PSoC4/UART_XB2.c ****     *
 476:Generated_Source\PSoC4/UART_XB2.c ****     * Global Variables:
ARM GAS  C:\Users\Petro\AppData\Local\Temp\ccLVkPCw.s 			page 17


 477:Generated_Source\PSoC4/UART_XB2.c ****     *  UART_XB2_rxBufferOverflow - used to indicate overload condition.
 478:Generated_Source\PSoC4/UART_XB2.c ****     *   It set to one in RX interrupt when there isn't free space in
 479:Generated_Source\PSoC4/UART_XB2.c ****     *   UART_XB2_rxBufferRead to write new data. This condition returned
 480:Generated_Source\PSoC4/UART_XB2.c ****     *   and cleared to zero by this API as an
 481:Generated_Source\PSoC4/UART_XB2.c ****     *   UART_XB2_RX_STS_SOFT_BUFF_OVER bit along with RX Status register
 482:Generated_Source\PSoC4/UART_XB2.c ****     *   bits.
 483:Generated_Source\PSoC4/UART_XB2.c ****     *
 484:Generated_Source\PSoC4/UART_XB2.c ****     *******************************************************************************/
 485:Generated_Source\PSoC4/UART_XB2.c ****     uint8 UART_XB2_ReadRxStatus(void) 
 486:Generated_Source\PSoC4/UART_XB2.c ****     {
 431              		.loc 1 486 0
 432              		.cfi_startproc
 487:Generated_Source\PSoC4/UART_XB2.c ****         uint8 status;
 488:Generated_Source\PSoC4/UART_XB2.c **** 
 489:Generated_Source\PSoC4/UART_XB2.c ****         status = UART_XB2_RXSTATUS_REG & UART_XB2_RX_HW_MASK;
 433              		.loc 1 489 0
 434 0000 064B     		ldr	r3, .L29
 435 0002 1878     		ldrb	r0, [r3]
 436 0004 7F23     		mov	r3, #127
 437 0006 1840     		and	r0, r3
 438              	.LVL37:
 490:Generated_Source\PSoC4/UART_XB2.c **** 
 491:Generated_Source\PSoC4/UART_XB2.c ****     #if (UART_XB2_RX_INTERRUPT_ENABLED)
 492:Generated_Source\PSoC4/UART_XB2.c ****         if(UART_XB2_rxBufferOverflow != 0u)
 439              		.loc 1 492 0
 440 0008 054B     		ldr	r3, .L29+4
 441 000a 5B79     		ldrb	r3, [r3, #5]
 442 000c 002B     		cmp	r3, #0
 443 000e 04D0     		beq	.L28
 493:Generated_Source\PSoC4/UART_XB2.c ****         {
 494:Generated_Source\PSoC4/UART_XB2.c ****             status |= UART_XB2_RX_STS_SOFT_BUFF_OVER;
 444              		.loc 1 494 0
 445 0010 8023     		mov	r3, #128
 446 0012 1843     		orr	r0, r3
 447              	.LVL38:
 495:Generated_Source\PSoC4/UART_XB2.c ****             UART_XB2_rxBufferOverflow = 0u;
 448              		.loc 1 495 0
 449 0014 0022     		mov	r2, #0
 450 0016 024B     		ldr	r3, .L29+4
 451 0018 5A71     		strb	r2, [r3, #5]
 452              	.L28:
 496:Generated_Source\PSoC4/UART_XB2.c ****         }
 497:Generated_Source\PSoC4/UART_XB2.c ****     #endif /* (UART_XB2_RX_INTERRUPT_ENABLED) */
 498:Generated_Source\PSoC4/UART_XB2.c **** 
 499:Generated_Source\PSoC4/UART_XB2.c ****         return(status);
 500:Generated_Source\PSoC4/UART_XB2.c ****     }
 453              		.loc 1 500 0
 454              		@ sp needed
 455 001a 7047     		bx	lr
 456              	.L30:
 457              		.align	2
 458              	.L29:
 459 001c 60000F40 		.word	1074724960
 460 0020 00000000 		.word	.LANCHOR0
 461              		.cfi_endproc
 462              	.LFE10:
 463              		.size	UART_XB2_ReadRxStatus, .-UART_XB2_ReadRxStatus
ARM GAS  C:\Users\Petro\AppData\Local\Temp\ccLVkPCw.s 			page 18


 464              		.section	.text.UART_XB2_GetChar,"ax",%progbits
 465              		.align	2
 466              		.global	UART_XB2_GetChar
 467              		.code	16
 468              		.thumb_func
 469              		.type	UART_XB2_GetChar, %function
 470              	UART_XB2_GetChar:
 471              	.LFB11:
 501:Generated_Source\PSoC4/UART_XB2.c **** 
 502:Generated_Source\PSoC4/UART_XB2.c **** 
 503:Generated_Source\PSoC4/UART_XB2.c ****     /*******************************************************************************
 504:Generated_Source\PSoC4/UART_XB2.c ****     * Function Name: UART_XB2_GetChar
 505:Generated_Source\PSoC4/UART_XB2.c ****     ********************************************************************************
 506:Generated_Source\PSoC4/UART_XB2.c ****     *
 507:Generated_Source\PSoC4/UART_XB2.c ****     * Summary:
 508:Generated_Source\PSoC4/UART_XB2.c ****     *  Returns the last received byte of data. UART_XB2_GetChar() is
 509:Generated_Source\PSoC4/UART_XB2.c ****     *  designed for ASCII characters and returns a uint8 where 1 to 255 are values
 510:Generated_Source\PSoC4/UART_XB2.c ****     *  for valid characters and 0 indicates an error occurred or no data is present.
 511:Generated_Source\PSoC4/UART_XB2.c ****     *
 512:Generated_Source\PSoC4/UART_XB2.c ****     * Parameters:
 513:Generated_Source\PSoC4/UART_XB2.c ****     *  None.
 514:Generated_Source\PSoC4/UART_XB2.c ****     *
 515:Generated_Source\PSoC4/UART_XB2.c ****     * Return:
 516:Generated_Source\PSoC4/UART_XB2.c ****     *  Character read from UART RX buffer. ASCII characters from 1 to 255 are valid.
 517:Generated_Source\PSoC4/UART_XB2.c ****     *  A returned zero signifies an error condition or no data available.
 518:Generated_Source\PSoC4/UART_XB2.c ****     *
 519:Generated_Source\PSoC4/UART_XB2.c ****     * Global Variables:
 520:Generated_Source\PSoC4/UART_XB2.c ****     *  UART_XB2_rxBuffer - RAM buffer pointer for save received data.
 521:Generated_Source\PSoC4/UART_XB2.c ****     *  UART_XB2_rxBufferWrite - cyclic index for write to rxBuffer,
 522:Generated_Source\PSoC4/UART_XB2.c ****     *     checked to identify new data.
 523:Generated_Source\PSoC4/UART_XB2.c ****     *  UART_XB2_rxBufferRead - cyclic index for read from rxBuffer,
 524:Generated_Source\PSoC4/UART_XB2.c ****     *     incremented after each byte has been read from buffer.
 525:Generated_Source\PSoC4/UART_XB2.c ****     *  UART_XB2_rxBufferLoopDetect - cleared if loop condition was detected
 526:Generated_Source\PSoC4/UART_XB2.c ****     *     in RX ISR.
 527:Generated_Source\PSoC4/UART_XB2.c ****     *
 528:Generated_Source\PSoC4/UART_XB2.c ****     * Reentrant:
 529:Generated_Source\PSoC4/UART_XB2.c ****     *  No.
 530:Generated_Source\PSoC4/UART_XB2.c ****     *
 531:Generated_Source\PSoC4/UART_XB2.c ****     *******************************************************************************/
 532:Generated_Source\PSoC4/UART_XB2.c ****     uint8 UART_XB2_GetChar(void) 
 533:Generated_Source\PSoC4/UART_XB2.c ****     {
 472              		.loc 1 533 0
 473              		.cfi_startproc
 474 0000 10B5     		push	{r4, lr}
 475              		.cfi_def_cfa_offset 8
 476              		.cfi_offset 4, -8
 477              		.cfi_offset 14, -4
 478              	.LVL39:
 534:Generated_Source\PSoC4/UART_XB2.c ****         uint8 rxData = 0u;
 535:Generated_Source\PSoC4/UART_XB2.c ****         uint8 rxStatus;
 536:Generated_Source\PSoC4/UART_XB2.c **** 
 537:Generated_Source\PSoC4/UART_XB2.c ****     #if (UART_XB2_RX_INTERRUPT_ENABLED)
 538:Generated_Source\PSoC4/UART_XB2.c ****         uint8 locRxBufferRead;
 539:Generated_Source\PSoC4/UART_XB2.c ****         uint8 locRxBufferWrite;
 540:Generated_Source\PSoC4/UART_XB2.c **** 
 541:Generated_Source\PSoC4/UART_XB2.c ****         /* Protect variables that could change on interrupt */
 542:Generated_Source\PSoC4/UART_XB2.c ****         UART_XB2_DisableRxInt();
ARM GAS  C:\Users\Petro\AppData\Local\Temp\ccLVkPCw.s 			page 19


 479              		.loc 1 542 0
 480 0002 0120     		mov	r0, #1
 481 0004 FFF7FEFF 		bl	CyIntDisable
 482              	.LVL40:
 543:Generated_Source\PSoC4/UART_XB2.c **** 
 544:Generated_Source\PSoC4/UART_XB2.c ****         locRxBufferRead  = UART_XB2_rxBufferRead;
 483              		.loc 1 544 0
 484 0008 174A     		ldr	r2, .L39
 485 000a 9378     		ldrb	r3, [r2, #2]
 486 000c DBB2     		uxtb	r3, r3
 487              	.LVL41:
 545:Generated_Source\PSoC4/UART_XB2.c ****         locRxBufferWrite = UART_XB2_rxBufferWrite;
 488              		.loc 1 545 0
 489 000e D178     		ldrb	r1, [r2, #3]
 490 0010 C9B2     		uxtb	r1, r1
 491              	.LVL42:
 546:Generated_Source\PSoC4/UART_XB2.c **** 
 547:Generated_Source\PSoC4/UART_XB2.c ****         if( (UART_XB2_rxBufferLoopDetect != 0u) || (locRxBufferRead != locRxBufferWrite) )
 492              		.loc 1 547 0
 493 0012 1279     		ldrb	r2, [r2, #4]
 494 0014 002A     		cmp	r2, #0
 495 0016 01D1     		bne	.L32
 496              		.loc 1 547 0 is_stmt 0 discriminator 1
 497 0018 8B42     		cmp	r3, r1
 498 001a 10D0     		beq	.L33
 499              	.L32:
 548:Generated_Source\PSoC4/UART_XB2.c ****         {
 549:Generated_Source\PSoC4/UART_XB2.c ****             rxData = UART_XB2_rxBuffer[locRxBufferRead];
 500              		.loc 1 549 0 is_stmt 1
 501 001c 134A     		ldr	r2, .L39+4
 502 001e D45C     		ldrb	r4, [r2, r3]
 503 0020 E4B2     		uxtb	r4, r4
 504              	.LVL43:
 550:Generated_Source\PSoC4/UART_XB2.c ****             locRxBufferRead++;
 505              		.loc 1 550 0
 506 0022 0133     		add	r3, r3, #1
 507              	.LVL44:
 508 0024 DBB2     		uxtb	r3, r3
 509              	.LVL45:
 551:Generated_Source\PSoC4/UART_XB2.c ****             if(locRxBufferRead >= UART_XB2_RX_BUFFER_SIZE)
 510              		.loc 1 551 0
 511 0026 632B     		cmp	r3, #99
 512 0028 00D9     		bls	.L34
 552:Generated_Source\PSoC4/UART_XB2.c ****             {
 553:Generated_Source\PSoC4/UART_XB2.c ****                 locRxBufferRead = 0u;
 513              		.loc 1 553 0
 514 002a 0023     		mov	r3, #0
 515              	.LVL46:
 516              	.L34:
 554:Generated_Source\PSoC4/UART_XB2.c ****             }
 555:Generated_Source\PSoC4/UART_XB2.c ****             /* Update the real pointer */
 556:Generated_Source\PSoC4/UART_XB2.c ****             UART_XB2_rxBufferRead = locRxBufferRead;
 517              		.loc 1 556 0
 518 002c 0E4A     		ldr	r2, .L39
 519 002e 9370     		strb	r3, [r2, #2]
 557:Generated_Source\PSoC4/UART_XB2.c **** 
 558:Generated_Source\PSoC4/UART_XB2.c ****             if(UART_XB2_rxBufferLoopDetect != 0u)
ARM GAS  C:\Users\Petro\AppData\Local\Temp\ccLVkPCw.s 			page 20


 520              		.loc 1 558 0
 521 0030 1379     		ldrb	r3, [r2, #4]
 522              	.LVL47:
 523 0032 002B     		cmp	r3, #0
 524 0034 12D0     		beq	.L35
 559:Generated_Source\PSoC4/UART_XB2.c ****             {
 560:Generated_Source\PSoC4/UART_XB2.c ****                 UART_XB2_rxBufferLoopDetect = 0u;
 525              		.loc 1 560 0
 526 0036 0022     		mov	r2, #0
 527 0038 0B4B     		ldr	r3, .L39
 528 003a 1A71     		strb	r2, [r3, #4]
 529              	.LVL48:
 530 003c 0EE0     		b	.L35
 531              	.LVL49:
 532              	.L33:
 561:Generated_Source\PSoC4/UART_XB2.c ****                 #if( (UART_XB2_RX_INTERRUPT_ENABLED) && (UART_XB2_FLOW_CONTROL != 0u) )
 562:Generated_Source\PSoC4/UART_XB2.c ****                     /* When Hardware Flow Control selected - return RX mask */
 563:Generated_Source\PSoC4/UART_XB2.c ****                     #if( UART_XB2_HD_ENABLED )
 564:Generated_Source\PSoC4/UART_XB2.c ****                         if((UART_XB2_CONTROL_REG & UART_XB2_CTRL_HD_SEND) == 0u)
 565:Generated_Source\PSoC4/UART_XB2.c ****                         {   /* In Half duplex mode return RX mask only if
 566:Generated_Source\PSoC4/UART_XB2.c ****                             *  RX configuration set, otherwise
 567:Generated_Source\PSoC4/UART_XB2.c ****                             *  mask will be returned in LoadRxConfig() API.
 568:Generated_Source\PSoC4/UART_XB2.c ****                             */
 569:Generated_Source\PSoC4/UART_XB2.c ****                             UART_XB2_RXSTATUS_MASK_REG |= UART_XB2_RX_STS_FIFO_NOTEMPTY;
 570:Generated_Source\PSoC4/UART_XB2.c ****                         }
 571:Generated_Source\PSoC4/UART_XB2.c ****                     #else
 572:Generated_Source\PSoC4/UART_XB2.c ****                         UART_XB2_RXSTATUS_MASK_REG |= UART_XB2_RX_STS_FIFO_NOTEMPTY;
 573:Generated_Source\PSoC4/UART_XB2.c ****                     #endif /* end UART_XB2_HD_ENABLED */
 574:Generated_Source\PSoC4/UART_XB2.c ****                 #endif /* UART_XB2_RX_INTERRUPT_ENABLED and Hardware flow control*/
 575:Generated_Source\PSoC4/UART_XB2.c ****             }
 576:Generated_Source\PSoC4/UART_XB2.c **** 
 577:Generated_Source\PSoC4/UART_XB2.c ****         }
 578:Generated_Source\PSoC4/UART_XB2.c ****         else
 579:Generated_Source\PSoC4/UART_XB2.c ****         {   rxStatus = UART_XB2_RXSTATUS_REG;
 533              		.loc 1 579 0
 534 003e 0C4B     		ldr	r3, .L39+8
 535              	.LVL50:
 536 0040 1B78     		ldrb	r3, [r3]
 537 0042 DBB2     		uxtb	r3, r3
 538              	.LVL51:
 580:Generated_Source\PSoC4/UART_XB2.c ****             if((rxStatus & UART_XB2_RX_STS_FIFO_NOTEMPTY) != 0u)
 539              		.loc 1 580 0
 540 0044 9A06     		lsl	r2, r3, #26
 541 0046 06D5     		bpl	.L37
 581:Generated_Source\PSoC4/UART_XB2.c ****             {   /* Read received data from FIFO */
 582:Generated_Source\PSoC4/UART_XB2.c ****                 rxData = UART_XB2_RXDATA_REG;
 542              		.loc 1 582 0
 543 0048 0A4A     		ldr	r2, .L39+12
 544 004a 1478     		ldrb	r4, [r2]
 545 004c E4B2     		uxtb	r4, r4
 546              	.LVL52:
 583:Generated_Source\PSoC4/UART_XB2.c ****                 /*Check status on error*/
 584:Generated_Source\PSoC4/UART_XB2.c ****                 if((rxStatus & (UART_XB2_RX_STS_BREAK | UART_XB2_RX_STS_PAR_ERROR |
 547              		.loc 1 584 0
 548 004e 1E22     		mov	r2, #30
 549 0050 1A42     		tst	r2, r3
 550 0052 02D1     		bne	.L38
ARM GAS  C:\Users\Petro\AppData\Local\Temp\ccLVkPCw.s 			page 21


 551 0054 02E0     		b	.L35
 552              	.LVL53:
 553              	.L37:
 534:Generated_Source\PSoC4/UART_XB2.c ****         uint8 rxStatus;
 554              		.loc 1 534 0
 555 0056 0024     		mov	r4, #0
 556 0058 00E0     		b	.L35
 557              	.LVL54:
 558              	.L38:
 585:Generated_Source\PSoC4/UART_XB2.c ****                                 UART_XB2_RX_STS_STOP_ERROR | UART_XB2_RX_STS_OVERRUN)) != 0u)
 586:Generated_Source\PSoC4/UART_XB2.c ****                 {
 587:Generated_Source\PSoC4/UART_XB2.c ****                     rxData = 0u;
 559              		.loc 1 587 0
 560 005a 0024     		mov	r4, #0
 561              	.LVL55:
 562              	.L35:
 588:Generated_Source\PSoC4/UART_XB2.c ****                 }
 589:Generated_Source\PSoC4/UART_XB2.c ****             }
 590:Generated_Source\PSoC4/UART_XB2.c ****         }
 591:Generated_Source\PSoC4/UART_XB2.c **** 
 592:Generated_Source\PSoC4/UART_XB2.c ****         UART_XB2_EnableRxInt();
 563              		.loc 1 592 0
 564 005c 0120     		mov	r0, #1
 565 005e FFF7FEFF 		bl	CyIntEnable
 566              	.LVL56:
 593:Generated_Source\PSoC4/UART_XB2.c **** 
 594:Generated_Source\PSoC4/UART_XB2.c ****     #else
 595:Generated_Source\PSoC4/UART_XB2.c **** 
 596:Generated_Source\PSoC4/UART_XB2.c ****         rxStatus =UART_XB2_RXSTATUS_REG;
 597:Generated_Source\PSoC4/UART_XB2.c ****         if((rxStatus & UART_XB2_RX_STS_FIFO_NOTEMPTY) != 0u)
 598:Generated_Source\PSoC4/UART_XB2.c ****         {
 599:Generated_Source\PSoC4/UART_XB2.c ****             /* Read received data from FIFO */
 600:Generated_Source\PSoC4/UART_XB2.c ****             rxData = UART_XB2_RXDATA_REG;
 601:Generated_Source\PSoC4/UART_XB2.c **** 
 602:Generated_Source\PSoC4/UART_XB2.c ****             /*Check status on error*/
 603:Generated_Source\PSoC4/UART_XB2.c ****             if((rxStatus & (UART_XB2_RX_STS_BREAK | UART_XB2_RX_STS_PAR_ERROR |
 604:Generated_Source\PSoC4/UART_XB2.c ****                             UART_XB2_RX_STS_STOP_ERROR | UART_XB2_RX_STS_OVERRUN)) != 0u)
 605:Generated_Source\PSoC4/UART_XB2.c ****             {
 606:Generated_Source\PSoC4/UART_XB2.c ****                 rxData = 0u;
 607:Generated_Source\PSoC4/UART_XB2.c ****             }
 608:Generated_Source\PSoC4/UART_XB2.c ****         }
 609:Generated_Source\PSoC4/UART_XB2.c ****     #endif /* (UART_XB2_RX_INTERRUPT_ENABLED) */
 610:Generated_Source\PSoC4/UART_XB2.c **** 
 611:Generated_Source\PSoC4/UART_XB2.c ****         return(rxData);
 612:Generated_Source\PSoC4/UART_XB2.c ****     }
 567              		.loc 1 612 0
 568 0062 201C     		mov	r0, r4
 569              		@ sp needed
 570              	.LVL57:
 571 0064 10BD     		pop	{r4, pc}
 572              	.L40:
 573 0066 C046     		.align	2
 574              	.L39:
 575 0068 00000000 		.word	.LANCHOR0
 576 006c 00000000 		.word	UART_XB2_rxBuffer
 577 0070 60000F40 		.word	1074724960
 578 0074 41000F40 		.word	1074724929
ARM GAS  C:\Users\Petro\AppData\Local\Temp\ccLVkPCw.s 			page 22


 579              		.cfi_endproc
 580              	.LFE11:
 581              		.size	UART_XB2_GetChar, .-UART_XB2_GetChar
 582              		.section	.text.UART_XB2_GetByte,"ax",%progbits
 583              		.align	2
 584              		.global	UART_XB2_GetByte
 585              		.code	16
 586              		.thumb_func
 587              		.type	UART_XB2_GetByte, %function
 588              	UART_XB2_GetByte:
 589              	.LFB12:
 613:Generated_Source\PSoC4/UART_XB2.c **** 
 614:Generated_Source\PSoC4/UART_XB2.c **** 
 615:Generated_Source\PSoC4/UART_XB2.c ****     /*******************************************************************************
 616:Generated_Source\PSoC4/UART_XB2.c ****     * Function Name: UART_XB2_GetByte
 617:Generated_Source\PSoC4/UART_XB2.c ****     ********************************************************************************
 618:Generated_Source\PSoC4/UART_XB2.c ****     *
 619:Generated_Source\PSoC4/UART_XB2.c ****     * Summary:
 620:Generated_Source\PSoC4/UART_XB2.c ****     *  Reads UART RX buffer immediately, returns received character and error
 621:Generated_Source\PSoC4/UART_XB2.c ****     *  condition.
 622:Generated_Source\PSoC4/UART_XB2.c ****     *
 623:Generated_Source\PSoC4/UART_XB2.c ****     * Parameters:
 624:Generated_Source\PSoC4/UART_XB2.c ****     *  None.
 625:Generated_Source\PSoC4/UART_XB2.c ****     *
 626:Generated_Source\PSoC4/UART_XB2.c ****     * Return:
 627:Generated_Source\PSoC4/UART_XB2.c ****     *  MSB contains status and LSB contains UART RX data. If the MSB is nonzero,
 628:Generated_Source\PSoC4/UART_XB2.c ****     *  an error has occurred.
 629:Generated_Source\PSoC4/UART_XB2.c ****     *
 630:Generated_Source\PSoC4/UART_XB2.c ****     * Reentrant:
 631:Generated_Source\PSoC4/UART_XB2.c ****     *  No.
 632:Generated_Source\PSoC4/UART_XB2.c ****     *
 633:Generated_Source\PSoC4/UART_XB2.c ****     *******************************************************************************/
 634:Generated_Source\PSoC4/UART_XB2.c ****     uint16 UART_XB2_GetByte(void) 
 635:Generated_Source\PSoC4/UART_XB2.c ****     {
 590              		.loc 1 635 0
 591              		.cfi_startproc
 592 0000 10B5     		push	{r4, lr}
 593              		.cfi_def_cfa_offset 8
 594              		.cfi_offset 4, -8
 595              		.cfi_offset 14, -4
 636:Generated_Source\PSoC4/UART_XB2.c ****         
 637:Generated_Source\PSoC4/UART_XB2.c ****     #if (UART_XB2_RX_INTERRUPT_ENABLED)
 638:Generated_Source\PSoC4/UART_XB2.c ****         uint16 locErrorStatus;
 639:Generated_Source\PSoC4/UART_XB2.c ****         /* Protect variables that could change on interrupt */
 640:Generated_Source\PSoC4/UART_XB2.c ****         UART_XB2_DisableRxInt();
 596              		.loc 1 640 0
 597 0002 0120     		mov	r0, #1
 598 0004 FFF7FEFF 		bl	CyIntDisable
 599              	.LVL58:
 641:Generated_Source\PSoC4/UART_XB2.c ****         locErrorStatus = (uint16)UART_XB2_errorStatus;
 600              		.loc 1 641 0
 601 0008 064B     		ldr	r3, .L42
 602 000a 1C78     		ldrb	r4, [r3]
 603              	.LVL59:
 642:Generated_Source\PSoC4/UART_XB2.c ****         UART_XB2_errorStatus = 0u;
 604              		.loc 1 642 0
 605 000c 0022     		mov	r2, #0
ARM GAS  C:\Users\Petro\AppData\Local\Temp\ccLVkPCw.s 			page 23


 606 000e 1A70     		strb	r2, [r3]
 643:Generated_Source\PSoC4/UART_XB2.c ****         UART_XB2_EnableRxInt();
 607              		.loc 1 643 0
 608 0010 0120     		mov	r0, #1
 609 0012 FFF7FEFF 		bl	CyIntEnable
 610              	.LVL60:
 644:Generated_Source\PSoC4/UART_XB2.c ****         return ( (uint16)(locErrorStatus << 8u) | UART_XB2_ReadRxData() );
 611              		.loc 1 644 0
 612 0016 2402     		lsl	r4, r4, #8
 613              	.LVL61:
 614 0018 FFF7FEFF 		bl	UART_XB2_ReadRxData
 615              	.LVL62:
 616 001c 2043     		orr	r0, r4
 617 001e 80B2     		uxth	r0, r0
 645:Generated_Source\PSoC4/UART_XB2.c ****     #else
 646:Generated_Source\PSoC4/UART_XB2.c ****         return ( ((uint16)UART_XB2_ReadRxStatus() << 8u) | UART_XB2_ReadRxData() );
 647:Generated_Source\PSoC4/UART_XB2.c ****     #endif /* UART_XB2_RX_INTERRUPT_ENABLED */
 648:Generated_Source\PSoC4/UART_XB2.c ****         
 649:Generated_Source\PSoC4/UART_XB2.c ****     }
 618              		.loc 1 649 0
 619              		@ sp needed
 620 0020 10BD     		pop	{r4, pc}
 621              	.L43:
 622 0022 C046     		.align	2
 623              	.L42:
 624 0024 00000000 		.word	.LANCHOR0
 625              		.cfi_endproc
 626              	.LFE12:
 627              		.size	UART_XB2_GetByte, .-UART_XB2_GetByte
 628              		.section	.text.UART_XB2_GetRxBufferSize,"ax",%progbits
 629              		.align	2
 630              		.global	UART_XB2_GetRxBufferSize
 631              		.code	16
 632              		.thumb_func
 633              		.type	UART_XB2_GetRxBufferSize, %function
 634              	UART_XB2_GetRxBufferSize:
 635              	.LFB13:
 650:Generated_Source\PSoC4/UART_XB2.c **** 
 651:Generated_Source\PSoC4/UART_XB2.c **** 
 652:Generated_Source\PSoC4/UART_XB2.c ****     /*******************************************************************************
 653:Generated_Source\PSoC4/UART_XB2.c ****     * Function Name: UART_XB2_GetRxBufferSize
 654:Generated_Source\PSoC4/UART_XB2.c ****     ********************************************************************************
 655:Generated_Source\PSoC4/UART_XB2.c ****     *
 656:Generated_Source\PSoC4/UART_XB2.c ****     * Summary:
 657:Generated_Source\PSoC4/UART_XB2.c ****     *  Returns the number of received bytes available in the RX buffer.
 658:Generated_Source\PSoC4/UART_XB2.c ****     *  * RX software buffer is disabled (RX Buffer Size parameter is equal to 4): 
 659:Generated_Source\PSoC4/UART_XB2.c ****     *    returns 0 for empty RX FIFO or 1 for not empty RX FIFO.
 660:Generated_Source\PSoC4/UART_XB2.c ****     *  * RX software buffer is enabled: returns the number of bytes available in 
 661:Generated_Source\PSoC4/UART_XB2.c ****     *    the RX software buffer. Bytes available in the RX FIFO do not take to 
 662:Generated_Source\PSoC4/UART_XB2.c ****     *    account.
 663:Generated_Source\PSoC4/UART_XB2.c ****     *
 664:Generated_Source\PSoC4/UART_XB2.c ****     * Parameters:
 665:Generated_Source\PSoC4/UART_XB2.c ****     *  None.
 666:Generated_Source\PSoC4/UART_XB2.c ****     *
 667:Generated_Source\PSoC4/UART_XB2.c ****     * Return:
 668:Generated_Source\PSoC4/UART_XB2.c ****     *  uint8: Number of bytes in the RX buffer. 
 669:Generated_Source\PSoC4/UART_XB2.c ****     *    Return value type depends on RX Buffer Size parameter.
ARM GAS  C:\Users\Petro\AppData\Local\Temp\ccLVkPCw.s 			page 24


 670:Generated_Source\PSoC4/UART_XB2.c ****     *
 671:Generated_Source\PSoC4/UART_XB2.c ****     * Global Variables:
 672:Generated_Source\PSoC4/UART_XB2.c ****     *  UART_XB2_rxBufferWrite - used to calculate left bytes.
 673:Generated_Source\PSoC4/UART_XB2.c ****     *  UART_XB2_rxBufferRead - used to calculate left bytes.
 674:Generated_Source\PSoC4/UART_XB2.c ****     *  UART_XB2_rxBufferLoopDetect - checked to decide left bytes amount.
 675:Generated_Source\PSoC4/UART_XB2.c ****     *
 676:Generated_Source\PSoC4/UART_XB2.c ****     * Reentrant:
 677:Generated_Source\PSoC4/UART_XB2.c ****     *  No.
 678:Generated_Source\PSoC4/UART_XB2.c ****     *
 679:Generated_Source\PSoC4/UART_XB2.c ****     * Theory:
 680:Generated_Source\PSoC4/UART_XB2.c ****     *  Allows the user to find out how full the RX Buffer is.
 681:Generated_Source\PSoC4/UART_XB2.c ****     *
 682:Generated_Source\PSoC4/UART_XB2.c ****     *******************************************************************************/
 683:Generated_Source\PSoC4/UART_XB2.c ****     uint8 UART_XB2_GetRxBufferSize(void)
 684:Generated_Source\PSoC4/UART_XB2.c ****                                                             
 685:Generated_Source\PSoC4/UART_XB2.c ****     {
 636              		.loc 1 685 0
 637              		.cfi_startproc
 638 0000 10B5     		push	{r4, lr}
 639              		.cfi_def_cfa_offset 8
 640              		.cfi_offset 4, -8
 641              		.cfi_offset 14, -4
 686:Generated_Source\PSoC4/UART_XB2.c ****         uint8 size;
 687:Generated_Source\PSoC4/UART_XB2.c **** 
 688:Generated_Source\PSoC4/UART_XB2.c ****     #if (UART_XB2_RX_INTERRUPT_ENABLED)
 689:Generated_Source\PSoC4/UART_XB2.c **** 
 690:Generated_Source\PSoC4/UART_XB2.c ****         /* Protect variables that could change on interrupt */
 691:Generated_Source\PSoC4/UART_XB2.c ****         UART_XB2_DisableRxInt();
 642              		.loc 1 691 0
 643 0002 0120     		mov	r0, #1
 644 0004 FFF7FEFF 		bl	CyIntDisable
 645              	.LVL63:
 692:Generated_Source\PSoC4/UART_XB2.c **** 
 693:Generated_Source\PSoC4/UART_XB2.c ****         if(UART_XB2_rxBufferRead == UART_XB2_rxBufferWrite)
 646              		.loc 1 693 0
 647 0008 124A     		ldr	r2, .L49
 648 000a 9378     		ldrb	r3, [r2, #2]
 649 000c D278     		ldrb	r2, [r2, #3]
 650 000e DBB2     		uxtb	r3, r3
 651 0010 9342     		cmp	r3, r2
 652 0012 05D1     		bne	.L45
 694:Generated_Source\PSoC4/UART_XB2.c ****         {
 695:Generated_Source\PSoC4/UART_XB2.c ****             if(UART_XB2_rxBufferLoopDetect != 0u)
 653              		.loc 1 695 0
 654 0014 0F4B     		ldr	r3, .L49
 655 0016 1B79     		ldrb	r3, [r3, #4]
 656 0018 002B     		cmp	r3, #0
 657 001a 14D0     		beq	.L48
 696:Generated_Source\PSoC4/UART_XB2.c ****             {
 697:Generated_Source\PSoC4/UART_XB2.c ****                 size = UART_XB2_RX_BUFFER_SIZE;
 658              		.loc 1 697 0
 659 001c 6424     		mov	r4, #100
 660 001e 13E0     		b	.L46
 661              	.L45:
 698:Generated_Source\PSoC4/UART_XB2.c ****             }
 699:Generated_Source\PSoC4/UART_XB2.c ****             else
 700:Generated_Source\PSoC4/UART_XB2.c ****             {
ARM GAS  C:\Users\Petro\AppData\Local\Temp\ccLVkPCw.s 			page 25


 701:Generated_Source\PSoC4/UART_XB2.c ****                 size = 0u;
 702:Generated_Source\PSoC4/UART_XB2.c ****             }
 703:Generated_Source\PSoC4/UART_XB2.c ****         }
 704:Generated_Source\PSoC4/UART_XB2.c ****         else if(UART_XB2_rxBufferRead < UART_XB2_rxBufferWrite)
 662              		.loc 1 704 0
 663 0020 0C4A     		ldr	r2, .L49
 664 0022 9378     		ldrb	r3, [r2, #2]
 665 0024 D278     		ldrb	r2, [r2, #3]
 666 0026 DBB2     		uxtb	r3, r3
 667 0028 9342     		cmp	r3, r2
 668 002a 05D2     		bcs	.L47
 705:Generated_Source\PSoC4/UART_XB2.c ****         {
 706:Generated_Source\PSoC4/UART_XB2.c ****             size = (UART_XB2_rxBufferWrite - UART_XB2_rxBufferRead);
 669              		.loc 1 706 0
 670 002c 094A     		ldr	r2, .L49
 671 002e D378     		ldrb	r3, [r2, #3]
 672 0030 9478     		ldrb	r4, [r2, #2]
 673 0032 1C1B     		sub	r4, r3, r4
 674 0034 E4B2     		uxtb	r4, r4
 675              	.LVL64:
 676 0036 07E0     		b	.L46
 677              	.LVL65:
 678              	.L47:
 707:Generated_Source\PSoC4/UART_XB2.c ****         }
 708:Generated_Source\PSoC4/UART_XB2.c ****         else
 709:Generated_Source\PSoC4/UART_XB2.c ****         {
 710:Generated_Source\PSoC4/UART_XB2.c ****             size = (UART_XB2_RX_BUFFER_SIZE - UART_XB2_rxBufferRead) + UART_XB2_rxBufferWrite;
 679              		.loc 1 710 0
 680 0038 064A     		ldr	r2, .L49
 681 003a D378     		ldrb	r3, [r2, #3]
 682 003c 9478     		ldrb	r4, [r2, #2]
 683 003e 1C1B     		sub	r4, r3, r4
 684 0040 6434     		add	r4, r4, #100
 685 0042 E4B2     		uxtb	r4, r4
 686              	.LVL66:
 687 0044 00E0     		b	.L46
 688              	.LVL67:
 689              	.L48:
 701:Generated_Source\PSoC4/UART_XB2.c ****             }
 690              		.loc 1 701 0
 691 0046 0024     		mov	r4, #0
 692              	.L46:
 693              	.LVL68:
 711:Generated_Source\PSoC4/UART_XB2.c ****         }
 712:Generated_Source\PSoC4/UART_XB2.c **** 
 713:Generated_Source\PSoC4/UART_XB2.c ****         UART_XB2_EnableRxInt();
 694              		.loc 1 713 0
 695 0048 0120     		mov	r0, #1
 696 004a FFF7FEFF 		bl	CyIntEnable
 697              	.LVL69:
 714:Generated_Source\PSoC4/UART_XB2.c **** 
 715:Generated_Source\PSoC4/UART_XB2.c ****     #else
 716:Generated_Source\PSoC4/UART_XB2.c **** 
 717:Generated_Source\PSoC4/UART_XB2.c ****         /* We can only know if there is data in the fifo. */
 718:Generated_Source\PSoC4/UART_XB2.c ****         size = ((UART_XB2_RXSTATUS_REG & UART_XB2_RX_STS_FIFO_NOTEMPTY) != 0u) ? 1u : 0u;
 719:Generated_Source\PSoC4/UART_XB2.c **** 
 720:Generated_Source\PSoC4/UART_XB2.c ****     #endif /* (UART_XB2_RX_INTERRUPT_ENABLED) */
ARM GAS  C:\Users\Petro\AppData\Local\Temp\ccLVkPCw.s 			page 26


 721:Generated_Source\PSoC4/UART_XB2.c **** 
 722:Generated_Source\PSoC4/UART_XB2.c ****         return(size);
 723:Generated_Source\PSoC4/UART_XB2.c ****     }
 698              		.loc 1 723 0
 699 004e 201C     		mov	r0, r4
 700              		@ sp needed
 701              	.LVL70:
 702 0050 10BD     		pop	{r4, pc}
 703              	.L50:
 704 0052 C046     		.align	2
 705              	.L49:
 706 0054 00000000 		.word	.LANCHOR0
 707              		.cfi_endproc
 708              	.LFE13:
 709              		.size	UART_XB2_GetRxBufferSize, .-UART_XB2_GetRxBufferSize
 710              		.section	.text.UART_XB2_ClearRxBuffer,"ax",%progbits
 711              		.align	2
 712              		.global	UART_XB2_ClearRxBuffer
 713              		.code	16
 714              		.thumb_func
 715              		.type	UART_XB2_ClearRxBuffer, %function
 716              	UART_XB2_ClearRxBuffer:
 717              	.LFB14:
 724:Generated_Source\PSoC4/UART_XB2.c **** 
 725:Generated_Source\PSoC4/UART_XB2.c **** 
 726:Generated_Source\PSoC4/UART_XB2.c ****     /*******************************************************************************
 727:Generated_Source\PSoC4/UART_XB2.c ****     * Function Name: UART_XB2_ClearRxBuffer
 728:Generated_Source\PSoC4/UART_XB2.c ****     ********************************************************************************
 729:Generated_Source\PSoC4/UART_XB2.c ****     *
 730:Generated_Source\PSoC4/UART_XB2.c ****     * Summary:
 731:Generated_Source\PSoC4/UART_XB2.c ****     *  Clears the receiver memory buffer and hardware RX FIFO of all received data.
 732:Generated_Source\PSoC4/UART_XB2.c ****     *
 733:Generated_Source\PSoC4/UART_XB2.c ****     * Parameters:
 734:Generated_Source\PSoC4/UART_XB2.c ****     *  None.
 735:Generated_Source\PSoC4/UART_XB2.c ****     *
 736:Generated_Source\PSoC4/UART_XB2.c ****     * Return:
 737:Generated_Source\PSoC4/UART_XB2.c ****     *  None.
 738:Generated_Source\PSoC4/UART_XB2.c ****     *
 739:Generated_Source\PSoC4/UART_XB2.c ****     * Global Variables:
 740:Generated_Source\PSoC4/UART_XB2.c ****     *  UART_XB2_rxBufferWrite - cleared to zero.
 741:Generated_Source\PSoC4/UART_XB2.c ****     *  UART_XB2_rxBufferRead - cleared to zero.
 742:Generated_Source\PSoC4/UART_XB2.c ****     *  UART_XB2_rxBufferLoopDetect - cleared to zero.
 743:Generated_Source\PSoC4/UART_XB2.c ****     *  UART_XB2_rxBufferOverflow - cleared to zero.
 744:Generated_Source\PSoC4/UART_XB2.c ****     *
 745:Generated_Source\PSoC4/UART_XB2.c ****     * Reentrant:
 746:Generated_Source\PSoC4/UART_XB2.c ****     *  No.
 747:Generated_Source\PSoC4/UART_XB2.c ****     *
 748:Generated_Source\PSoC4/UART_XB2.c ****     * Theory:
 749:Generated_Source\PSoC4/UART_XB2.c ****     *  Setting the pointers to zero makes the system believe there is no data to
 750:Generated_Source\PSoC4/UART_XB2.c ****     *  read and writing will resume at address 0 overwriting any data that may
 751:Generated_Source\PSoC4/UART_XB2.c ****     *  have remained in the RAM.
 752:Generated_Source\PSoC4/UART_XB2.c ****     *
 753:Generated_Source\PSoC4/UART_XB2.c ****     * Side Effects:
 754:Generated_Source\PSoC4/UART_XB2.c ****     *  Any received data not read from the RAM or FIFO buffer will be lost.
 755:Generated_Source\PSoC4/UART_XB2.c ****     *
 756:Generated_Source\PSoC4/UART_XB2.c ****     *******************************************************************************/
 757:Generated_Source\PSoC4/UART_XB2.c ****     void UART_XB2_ClearRxBuffer(void) 
ARM GAS  C:\Users\Petro\AppData\Local\Temp\ccLVkPCw.s 			page 27


 758:Generated_Source\PSoC4/UART_XB2.c ****     {
 718              		.loc 1 758 0
 719              		.cfi_startproc
 720 0000 08B5     		push	{r3, lr}
 721              		.cfi_def_cfa_offset 8
 722              		.cfi_offset 3, -8
 723              		.cfi_offset 14, -4
 759:Generated_Source\PSoC4/UART_XB2.c ****         uint8 enableInterrupts;
 760:Generated_Source\PSoC4/UART_XB2.c **** 
 761:Generated_Source\PSoC4/UART_XB2.c ****         /* Clear the HW FIFO */
 762:Generated_Source\PSoC4/UART_XB2.c ****         enableInterrupts = CyEnterCriticalSection();
 724              		.loc 1 762 0
 725 0002 FFF7FEFF 		bl	CyEnterCriticalSection
 726              	.LVL71:
 763:Generated_Source\PSoC4/UART_XB2.c ****         UART_XB2_RXDATA_AUX_CTL_REG |= (uint8)  UART_XB2_RX_FIFO_CLR;
 727              		.loc 1 763 0
 728 0006 0C4B     		ldr	r3, .L52
 729 0008 1978     		ldrb	r1, [r3]
 730 000a 0122     		mov	r2, #1
 731 000c 0A43     		orr	r2, r1
 732 000e 1A70     		strb	r2, [r3]
 764:Generated_Source\PSoC4/UART_XB2.c ****         UART_XB2_RXDATA_AUX_CTL_REG &= (uint8) ~UART_XB2_RX_FIFO_CLR;
 733              		.loc 1 764 0
 734 0010 1A78     		ldrb	r2, [r3]
 735 0012 0121     		mov	r1, #1
 736 0014 8A43     		bic	r2, r1
 737 0016 1A70     		strb	r2, [r3]
 765:Generated_Source\PSoC4/UART_XB2.c ****         CyExitCriticalSection(enableInterrupts);
 738              		.loc 1 765 0
 739 0018 FFF7FEFF 		bl	CyExitCriticalSection
 740              	.LVL72:
 766:Generated_Source\PSoC4/UART_XB2.c **** 
 767:Generated_Source\PSoC4/UART_XB2.c ****     #if (UART_XB2_RX_INTERRUPT_ENABLED)
 768:Generated_Source\PSoC4/UART_XB2.c **** 
 769:Generated_Source\PSoC4/UART_XB2.c ****         /* Protect variables that could change on interrupt. */
 770:Generated_Source\PSoC4/UART_XB2.c ****         UART_XB2_DisableRxInt();
 741              		.loc 1 770 0
 742 001c 0120     		mov	r0, #1
 743 001e FFF7FEFF 		bl	CyIntDisable
 744              	.LVL73:
 771:Generated_Source\PSoC4/UART_XB2.c **** 
 772:Generated_Source\PSoC4/UART_XB2.c ****         UART_XB2_rxBufferRead = 0u;
 745              		.loc 1 772 0
 746 0022 064B     		ldr	r3, .L52+4
 747 0024 0022     		mov	r2, #0
 748 0026 9A70     		strb	r2, [r3, #2]
 773:Generated_Source\PSoC4/UART_XB2.c ****         UART_XB2_rxBufferWrite = 0u;
 749              		.loc 1 773 0
 750 0028 DA70     		strb	r2, [r3, #3]
 774:Generated_Source\PSoC4/UART_XB2.c ****         UART_XB2_rxBufferLoopDetect = 0u;
 751              		.loc 1 774 0
 752 002a 1A71     		strb	r2, [r3, #4]
 775:Generated_Source\PSoC4/UART_XB2.c ****         UART_XB2_rxBufferOverflow = 0u;
 753              		.loc 1 775 0
 754 002c 5A71     		strb	r2, [r3, #5]
 776:Generated_Source\PSoC4/UART_XB2.c **** 
 777:Generated_Source\PSoC4/UART_XB2.c ****         UART_XB2_EnableRxInt();
ARM GAS  C:\Users\Petro\AppData\Local\Temp\ccLVkPCw.s 			page 28


 755              		.loc 1 777 0
 756 002e 0120     		mov	r0, #1
 757 0030 FFF7FEFF 		bl	CyIntEnable
 758              	.LVL74:
 778:Generated_Source\PSoC4/UART_XB2.c **** 
 779:Generated_Source\PSoC4/UART_XB2.c ****     #endif /* (UART_XB2_RX_INTERRUPT_ENABLED) */
 780:Generated_Source\PSoC4/UART_XB2.c **** 
 781:Generated_Source\PSoC4/UART_XB2.c ****     }
 759              		.loc 1 781 0
 760              		@ sp needed
 761 0034 08BD     		pop	{r3, pc}
 762              	.L53:
 763 0036 C046     		.align	2
 764              	.L52:
 765 0038 91000F40 		.word	1074725009
 766 003c 00000000 		.word	.LANCHOR0
 767              		.cfi_endproc
 768              	.LFE14:
 769              		.size	UART_XB2_ClearRxBuffer, .-UART_XB2_ClearRxBuffer
 770              		.section	.text.UART_XB2_SetRxAddressMode,"ax",%progbits
 771              		.align	2
 772              		.global	UART_XB2_SetRxAddressMode
 773              		.code	16
 774              		.thumb_func
 775              		.type	UART_XB2_SetRxAddressMode, %function
 776              	UART_XB2_SetRxAddressMode:
 777              	.LFB15:
 782:Generated_Source\PSoC4/UART_XB2.c **** 
 783:Generated_Source\PSoC4/UART_XB2.c **** 
 784:Generated_Source\PSoC4/UART_XB2.c ****     /*******************************************************************************
 785:Generated_Source\PSoC4/UART_XB2.c ****     * Function Name: UART_XB2_SetRxAddressMode
 786:Generated_Source\PSoC4/UART_XB2.c ****     ********************************************************************************
 787:Generated_Source\PSoC4/UART_XB2.c ****     *
 788:Generated_Source\PSoC4/UART_XB2.c ****     * Summary:
 789:Generated_Source\PSoC4/UART_XB2.c ****     *  Sets the software controlled Addressing mode used by the RX portion of the
 790:Generated_Source\PSoC4/UART_XB2.c ****     *  UART.
 791:Generated_Source\PSoC4/UART_XB2.c ****     *
 792:Generated_Source\PSoC4/UART_XB2.c ****     * Parameters:
 793:Generated_Source\PSoC4/UART_XB2.c ****     *  addressMode: Enumerated value indicating the mode of RX addressing
 794:Generated_Source\PSoC4/UART_XB2.c ****     *  UART_XB2__B_UART__AM_SW_BYTE_BYTE -  Software Byte-by-Byte address
 795:Generated_Source\PSoC4/UART_XB2.c ****     *                                               detection
 796:Generated_Source\PSoC4/UART_XB2.c ****     *  UART_XB2__B_UART__AM_SW_DETECT_TO_BUFFER - Software Detect to Buffer
 797:Generated_Source\PSoC4/UART_XB2.c ****     *                                               address detection
 798:Generated_Source\PSoC4/UART_XB2.c ****     *  UART_XB2__B_UART__AM_HW_BYTE_BY_BYTE - Hardware Byte-by-Byte address
 799:Generated_Source\PSoC4/UART_XB2.c ****     *                                               detection
 800:Generated_Source\PSoC4/UART_XB2.c ****     *  UART_XB2__B_UART__AM_HW_DETECT_TO_BUFFER - Hardware Detect to Buffer
 801:Generated_Source\PSoC4/UART_XB2.c ****     *                                               address detection
 802:Generated_Source\PSoC4/UART_XB2.c ****     *  UART_XB2__B_UART__AM_NONE - No address detection
 803:Generated_Source\PSoC4/UART_XB2.c ****     *
 804:Generated_Source\PSoC4/UART_XB2.c ****     * Return:
 805:Generated_Source\PSoC4/UART_XB2.c ****     *  None.
 806:Generated_Source\PSoC4/UART_XB2.c ****     *
 807:Generated_Source\PSoC4/UART_XB2.c ****     * Global Variables:
 808:Generated_Source\PSoC4/UART_XB2.c ****     *  UART_XB2_rxAddressMode - the parameter stored in this variable for
 809:Generated_Source\PSoC4/UART_XB2.c ****     *   the farther usage in RX ISR.
 810:Generated_Source\PSoC4/UART_XB2.c ****     *  UART_XB2_rxAddressDetected - set to initial state (0).
 811:Generated_Source\PSoC4/UART_XB2.c ****     *
ARM GAS  C:\Users\Petro\AppData\Local\Temp\ccLVkPCw.s 			page 29


 812:Generated_Source\PSoC4/UART_XB2.c ****     *******************************************************************************/
 813:Generated_Source\PSoC4/UART_XB2.c ****     void UART_XB2_SetRxAddressMode(uint8 addressMode)
 814:Generated_Source\PSoC4/UART_XB2.c ****                                                         
 815:Generated_Source\PSoC4/UART_XB2.c ****     {
 778              		.loc 1 815 0
 779              		.cfi_startproc
 780              	.LVL75:
 816:Generated_Source\PSoC4/UART_XB2.c ****         #if(UART_XB2_RXHW_ADDRESS_ENABLED)
 817:Generated_Source\PSoC4/UART_XB2.c ****             #if(UART_XB2_CONTROL_REG_REMOVED)
 818:Generated_Source\PSoC4/UART_XB2.c ****                 if(0u != addressMode)
 819:Generated_Source\PSoC4/UART_XB2.c ****                 {
 820:Generated_Source\PSoC4/UART_XB2.c ****                     /* Suppress compiler warning */
 821:Generated_Source\PSoC4/UART_XB2.c ****                 }
 822:Generated_Source\PSoC4/UART_XB2.c ****             #else /* UART_XB2_CONTROL_REG_REMOVED */
 823:Generated_Source\PSoC4/UART_XB2.c ****                 uint8 tmpCtrl;
 824:Generated_Source\PSoC4/UART_XB2.c ****                 tmpCtrl = UART_XB2_CONTROL_REG & (uint8)~UART_XB2_CTRL_RXADDR_MODE_MASK;
 825:Generated_Source\PSoC4/UART_XB2.c ****                 tmpCtrl |= (uint8)(addressMode << UART_XB2_CTRL_RXADDR_MODE0_SHIFT);
 826:Generated_Source\PSoC4/UART_XB2.c ****                 UART_XB2_CONTROL_REG = tmpCtrl;
 827:Generated_Source\PSoC4/UART_XB2.c **** 
 828:Generated_Source\PSoC4/UART_XB2.c ****                 #if(UART_XB2_RX_INTERRUPT_ENABLED && \
 829:Generated_Source\PSoC4/UART_XB2.c ****                    (UART_XB2_RXBUFFERSIZE > UART_XB2_FIFO_LENGTH) )
 830:Generated_Source\PSoC4/UART_XB2.c ****                     UART_XB2_rxAddressMode = addressMode;
 831:Generated_Source\PSoC4/UART_XB2.c ****                     UART_XB2_rxAddressDetected = 0u;
 832:Generated_Source\PSoC4/UART_XB2.c ****                 #endif /* End UART_XB2_RXBUFFERSIZE > UART_XB2_FIFO_LENGTH*/
 833:Generated_Source\PSoC4/UART_XB2.c ****             #endif /* End UART_XB2_CONTROL_REG_REMOVED */
 834:Generated_Source\PSoC4/UART_XB2.c ****         #else /* UART_XB2_RXHW_ADDRESS_ENABLED */
 835:Generated_Source\PSoC4/UART_XB2.c ****             if(0u != addressMode)
 836:Generated_Source\PSoC4/UART_XB2.c ****             {
 837:Generated_Source\PSoC4/UART_XB2.c ****                 /* Suppress compiler warning */
 838:Generated_Source\PSoC4/UART_XB2.c ****             }
 839:Generated_Source\PSoC4/UART_XB2.c ****         #endif /* End UART_XB2_RXHW_ADDRESS_ENABLED */
 840:Generated_Source\PSoC4/UART_XB2.c ****     }
 781              		.loc 1 840 0
 782              		@ sp needed
 783 0000 7047     		bx	lr
 784              		.cfi_endproc
 785              	.LFE15:
 786              		.size	UART_XB2_SetRxAddressMode, .-UART_XB2_SetRxAddressMode
 787 0002 C046     		.section	.text.UART_XB2_SetRxAddress1,"ax",%progbits
 788              		.align	2
 789              		.global	UART_XB2_SetRxAddress1
 790              		.code	16
 791              		.thumb_func
 792              		.type	UART_XB2_SetRxAddress1, %function
 793              	UART_XB2_SetRxAddress1:
 794              	.LFB16:
 841:Generated_Source\PSoC4/UART_XB2.c **** 
 842:Generated_Source\PSoC4/UART_XB2.c **** 
 843:Generated_Source\PSoC4/UART_XB2.c ****     /*******************************************************************************
 844:Generated_Source\PSoC4/UART_XB2.c ****     * Function Name: UART_XB2_SetRxAddress1
 845:Generated_Source\PSoC4/UART_XB2.c ****     ********************************************************************************
 846:Generated_Source\PSoC4/UART_XB2.c ****     *
 847:Generated_Source\PSoC4/UART_XB2.c ****     * Summary:
 848:Generated_Source\PSoC4/UART_XB2.c ****     *  Sets the first of two hardware-detectable receiver addresses.
 849:Generated_Source\PSoC4/UART_XB2.c ****     *
 850:Generated_Source\PSoC4/UART_XB2.c ****     * Parameters:
 851:Generated_Source\PSoC4/UART_XB2.c ****     *  address: Address #1 for hardware address detection.
ARM GAS  C:\Users\Petro\AppData\Local\Temp\ccLVkPCw.s 			page 30


 852:Generated_Source\PSoC4/UART_XB2.c ****     *
 853:Generated_Source\PSoC4/UART_XB2.c ****     * Return:
 854:Generated_Source\PSoC4/UART_XB2.c ****     *  None.
 855:Generated_Source\PSoC4/UART_XB2.c ****     *
 856:Generated_Source\PSoC4/UART_XB2.c ****     *******************************************************************************/
 857:Generated_Source\PSoC4/UART_XB2.c ****     void UART_XB2_SetRxAddress1(uint8 address) 
 858:Generated_Source\PSoC4/UART_XB2.c ****     {
 795              		.loc 1 858 0
 796              		.cfi_startproc
 797              	.LVL76:
 859:Generated_Source\PSoC4/UART_XB2.c ****         UART_XB2_RXADDRESS1_REG = address;
 798              		.loc 1 859 0
 799 0000 014B     		ldr	r3, .L56
 800 0002 1870     		strb	r0, [r3]
 860:Generated_Source\PSoC4/UART_XB2.c ****     }
 801              		.loc 1 860 0
 802              		@ sp needed
 803 0004 7047     		bx	lr
 804              	.L57:
 805 0006 C046     		.align	2
 806              	.L56:
 807 0008 21000F40 		.word	1074724897
 808              		.cfi_endproc
 809              	.LFE16:
 810              		.size	UART_XB2_SetRxAddress1, .-UART_XB2_SetRxAddress1
 811              		.section	.text.UART_XB2_SetRxAddress2,"ax",%progbits
 812              		.align	2
 813              		.global	UART_XB2_SetRxAddress2
 814              		.code	16
 815              		.thumb_func
 816              		.type	UART_XB2_SetRxAddress2, %function
 817              	UART_XB2_SetRxAddress2:
 818              	.LFB17:
 861:Generated_Source\PSoC4/UART_XB2.c **** 
 862:Generated_Source\PSoC4/UART_XB2.c **** 
 863:Generated_Source\PSoC4/UART_XB2.c ****     /*******************************************************************************
 864:Generated_Source\PSoC4/UART_XB2.c ****     * Function Name: UART_XB2_SetRxAddress2
 865:Generated_Source\PSoC4/UART_XB2.c ****     ********************************************************************************
 866:Generated_Source\PSoC4/UART_XB2.c ****     *
 867:Generated_Source\PSoC4/UART_XB2.c ****     * Summary:
 868:Generated_Source\PSoC4/UART_XB2.c ****     *  Sets the second of two hardware-detectable receiver addresses.
 869:Generated_Source\PSoC4/UART_XB2.c ****     *
 870:Generated_Source\PSoC4/UART_XB2.c ****     * Parameters:
 871:Generated_Source\PSoC4/UART_XB2.c ****     *  address: Address #2 for hardware address detection.
 872:Generated_Source\PSoC4/UART_XB2.c ****     *
 873:Generated_Source\PSoC4/UART_XB2.c ****     * Return:
 874:Generated_Source\PSoC4/UART_XB2.c ****     *  None.
 875:Generated_Source\PSoC4/UART_XB2.c ****     *
 876:Generated_Source\PSoC4/UART_XB2.c ****     *******************************************************************************/
 877:Generated_Source\PSoC4/UART_XB2.c ****     void UART_XB2_SetRxAddress2(uint8 address) 
 878:Generated_Source\PSoC4/UART_XB2.c ****     {
 819              		.loc 1 878 0
 820              		.cfi_startproc
 821              	.LVL77:
 879:Generated_Source\PSoC4/UART_XB2.c ****         UART_XB2_RXADDRESS2_REG = address;
 822              		.loc 1 879 0
 823 0000 014B     		ldr	r3, .L59
ARM GAS  C:\Users\Petro\AppData\Local\Temp\ccLVkPCw.s 			page 31


 824 0002 1870     		strb	r0, [r3]
 880:Generated_Source\PSoC4/UART_XB2.c ****     }
 825              		.loc 1 880 0
 826              		@ sp needed
 827 0004 7047     		bx	lr
 828              	.L60:
 829 0006 C046     		.align	2
 830              	.L59:
 831 0008 31000F40 		.word	1074724913
 832              		.cfi_endproc
 833              	.LFE17:
 834              		.size	UART_XB2_SetRxAddress2, .-UART_XB2_SetRxAddress2
 835              		.section	.text.UART_XB2_SetTxInterruptMode,"ax",%progbits
 836              		.align	2
 837              		.global	UART_XB2_SetTxInterruptMode
 838              		.code	16
 839              		.thumb_func
 840              		.type	UART_XB2_SetTxInterruptMode, %function
 841              	UART_XB2_SetTxInterruptMode:
 842              	.LFB18:
 881:Generated_Source\PSoC4/UART_XB2.c **** 
 882:Generated_Source\PSoC4/UART_XB2.c **** #endif  /* UART_XB2_RX_ENABLED || UART_XB2_HD_ENABLED*/
 883:Generated_Source\PSoC4/UART_XB2.c **** 
 884:Generated_Source\PSoC4/UART_XB2.c **** 
 885:Generated_Source\PSoC4/UART_XB2.c **** #if( (UART_XB2_TX_ENABLED) || (UART_XB2_HD_ENABLED) )
 886:Generated_Source\PSoC4/UART_XB2.c ****     /*******************************************************************************
 887:Generated_Source\PSoC4/UART_XB2.c ****     * Function Name: UART_XB2_SetTxInterruptMode
 888:Generated_Source\PSoC4/UART_XB2.c ****     ********************************************************************************
 889:Generated_Source\PSoC4/UART_XB2.c ****     *
 890:Generated_Source\PSoC4/UART_XB2.c ****     * Summary:
 891:Generated_Source\PSoC4/UART_XB2.c ****     *  Configures the TX interrupt sources to be enabled, but does not enable the
 892:Generated_Source\PSoC4/UART_XB2.c ****     *  interrupt.
 893:Generated_Source\PSoC4/UART_XB2.c ****     *
 894:Generated_Source\PSoC4/UART_XB2.c ****     * Parameters:
 895:Generated_Source\PSoC4/UART_XB2.c ****     *  intSrc: Bit field containing the TX interrupt sources to enable
 896:Generated_Source\PSoC4/UART_XB2.c ****     *   UART_XB2_TX_STS_COMPLETE        Interrupt on TX byte complete
 897:Generated_Source\PSoC4/UART_XB2.c ****     *   UART_XB2_TX_STS_FIFO_EMPTY      Interrupt when TX FIFO is empty
 898:Generated_Source\PSoC4/UART_XB2.c ****     *   UART_XB2_TX_STS_FIFO_FULL       Interrupt when TX FIFO is full
 899:Generated_Source\PSoC4/UART_XB2.c ****     *   UART_XB2_TX_STS_FIFO_NOT_FULL   Interrupt when TX FIFO is not full
 900:Generated_Source\PSoC4/UART_XB2.c ****     *
 901:Generated_Source\PSoC4/UART_XB2.c ****     * Return:
 902:Generated_Source\PSoC4/UART_XB2.c ****     *  None.
 903:Generated_Source\PSoC4/UART_XB2.c ****     *
 904:Generated_Source\PSoC4/UART_XB2.c ****     * Theory:
 905:Generated_Source\PSoC4/UART_XB2.c ****     *  Enables the output of specific status bits to the interrupt controller
 906:Generated_Source\PSoC4/UART_XB2.c ****     *
 907:Generated_Source\PSoC4/UART_XB2.c ****     *******************************************************************************/
 908:Generated_Source\PSoC4/UART_XB2.c ****     void UART_XB2_SetTxInterruptMode(uint8 intSrc) 
 909:Generated_Source\PSoC4/UART_XB2.c ****     {
 843              		.loc 1 909 0
 844              		.cfi_startproc
 845              	.LVL78:
 910:Generated_Source\PSoC4/UART_XB2.c ****         UART_XB2_TXSTATUS_MASK_REG = intSrc;
 846              		.loc 1 910 0
 847 0000 014B     		ldr	r3, .L62
 848 0002 1870     		strb	r0, [r3]
 911:Generated_Source\PSoC4/UART_XB2.c ****     }
ARM GAS  C:\Users\Petro\AppData\Local\Temp\ccLVkPCw.s 			page 32


 849              		.loc 1 911 0
 850              		@ sp needed
 851 0004 7047     		bx	lr
 852              	.L63:
 853 0006 C046     		.align	2
 854              	.L62:
 855 0008 83000F40 		.word	1074724995
 856              		.cfi_endproc
 857              	.LFE18:
 858              		.size	UART_XB2_SetTxInterruptMode, .-UART_XB2_SetTxInterruptMode
 859              		.section	.text.UART_XB2_WriteTxData,"ax",%progbits
 860              		.align	2
 861              		.global	UART_XB2_WriteTxData
 862              		.code	16
 863              		.thumb_func
 864              		.type	UART_XB2_WriteTxData, %function
 865              	UART_XB2_WriteTxData:
 866              	.LFB19:
 912:Generated_Source\PSoC4/UART_XB2.c **** 
 913:Generated_Source\PSoC4/UART_XB2.c **** 
 914:Generated_Source\PSoC4/UART_XB2.c ****     /*******************************************************************************
 915:Generated_Source\PSoC4/UART_XB2.c ****     * Function Name: UART_XB2_WriteTxData
 916:Generated_Source\PSoC4/UART_XB2.c ****     ********************************************************************************
 917:Generated_Source\PSoC4/UART_XB2.c ****     *
 918:Generated_Source\PSoC4/UART_XB2.c ****     * Summary:
 919:Generated_Source\PSoC4/UART_XB2.c ****     *  Places a byte of data into the transmit buffer to be sent when the bus is
 920:Generated_Source\PSoC4/UART_XB2.c ****     *  available without checking the TX status register. You must check status
 921:Generated_Source\PSoC4/UART_XB2.c ****     *  separately.
 922:Generated_Source\PSoC4/UART_XB2.c ****     *
 923:Generated_Source\PSoC4/UART_XB2.c ****     * Parameters:
 924:Generated_Source\PSoC4/UART_XB2.c ****     *  txDataByte: data byte
 925:Generated_Source\PSoC4/UART_XB2.c ****     *
 926:Generated_Source\PSoC4/UART_XB2.c ****     * Return:
 927:Generated_Source\PSoC4/UART_XB2.c ****     * None.
 928:Generated_Source\PSoC4/UART_XB2.c ****     *
 929:Generated_Source\PSoC4/UART_XB2.c ****     * Global Variables:
 930:Generated_Source\PSoC4/UART_XB2.c ****     *  UART_XB2_txBuffer - RAM buffer pointer for save data for transmission
 931:Generated_Source\PSoC4/UART_XB2.c ****     *  UART_XB2_txBufferWrite - cyclic index for write to txBuffer,
 932:Generated_Source\PSoC4/UART_XB2.c ****     *    incremented after each byte saved to buffer.
 933:Generated_Source\PSoC4/UART_XB2.c ****     *  UART_XB2_txBufferRead - cyclic index for read from txBuffer,
 934:Generated_Source\PSoC4/UART_XB2.c ****     *    checked to identify the condition to write to FIFO directly or to TX buffer
 935:Generated_Source\PSoC4/UART_XB2.c ****     *  UART_XB2_initVar - checked to identify that the component has been
 936:Generated_Source\PSoC4/UART_XB2.c ****     *    initialized.
 937:Generated_Source\PSoC4/UART_XB2.c ****     *
 938:Generated_Source\PSoC4/UART_XB2.c ****     * Reentrant:
 939:Generated_Source\PSoC4/UART_XB2.c ****     *  No.
 940:Generated_Source\PSoC4/UART_XB2.c ****     *
 941:Generated_Source\PSoC4/UART_XB2.c ****     *******************************************************************************/
 942:Generated_Source\PSoC4/UART_XB2.c ****     void UART_XB2_WriteTxData(uint8 txDataByte) 
 943:Generated_Source\PSoC4/UART_XB2.c ****     {
 867              		.loc 1 943 0
 868              		.cfi_startproc
 869              	.LVL79:
 870 0000 10B5     		push	{r4, lr}
 871              		.cfi_def_cfa_offset 8
 872              		.cfi_offset 4, -8
 873              		.cfi_offset 14, -4
ARM GAS  C:\Users\Petro\AppData\Local\Temp\ccLVkPCw.s 			page 33


 874 0002 041C     		mov	r4, r0
 944:Generated_Source\PSoC4/UART_XB2.c ****         /* If not Initialized then skip this function*/
 945:Generated_Source\PSoC4/UART_XB2.c ****         if(UART_XB2_initVar != 0u)
 875              		.loc 1 945 0
 876 0004 114B     		ldr	r3, .L69
 877 0006 5B78     		ldrb	r3, [r3, #1]
 878 0008 002B     		cmp	r3, #0
 879 000a 1DD0     		beq	.L64
 946:Generated_Source\PSoC4/UART_XB2.c ****         {
 947:Generated_Source\PSoC4/UART_XB2.c ****         #if (UART_XB2_TX_INTERRUPT_ENABLED)
 948:Generated_Source\PSoC4/UART_XB2.c **** 
 949:Generated_Source\PSoC4/UART_XB2.c ****             /* Protect variables that could change on interrupt. */
 950:Generated_Source\PSoC4/UART_XB2.c ****             UART_XB2_DisableTxInt();
 880              		.loc 1 950 0
 881 000c 0220     		mov	r0, #2
 882              	.LVL80:
 883 000e FFF7FEFF 		bl	CyIntDisable
 884              	.LVL81:
 951:Generated_Source\PSoC4/UART_XB2.c **** 
 952:Generated_Source\PSoC4/UART_XB2.c ****             if( (UART_XB2_txBufferRead == UART_XB2_txBufferWrite) &&
 885              		.loc 1 952 0
 886 0012 0E4A     		ldr	r2, .L69
 887 0014 9379     		ldrb	r3, [r2, #6]
 888 0016 DBB2     		uxtb	r3, r3
 889 0018 D279     		ldrb	r2, [r2, #7]
 890 001a 9342     		cmp	r3, r2
 891 001c 06D1     		bne	.L66
 953:Generated_Source\PSoC4/UART_XB2.c ****                 ((UART_XB2_TXSTATUS_REG & UART_XB2_TX_STS_FIFO_FULL) == 0u) )
 892              		.loc 1 953 0 discriminator 1
 893 001e 0C4B     		ldr	r3, .L69+4
 894 0020 1B78     		ldrb	r3, [r3]
 952:Generated_Source\PSoC4/UART_XB2.c ****                 ((UART_XB2_TXSTATUS_REG & UART_XB2_TX_STS_FIFO_FULL) == 0u) )
 895              		.loc 1 952 0 discriminator 1
 896 0022 5B07     		lsl	r3, r3, #29
 897 0024 02D4     		bmi	.L66
 954:Generated_Source\PSoC4/UART_XB2.c ****             {
 955:Generated_Source\PSoC4/UART_XB2.c ****                 /* Add directly to the FIFO. */
 956:Generated_Source\PSoC4/UART_XB2.c ****                 UART_XB2_TXDATA_REG = txDataByte;
 898              		.loc 1 956 0
 899 0026 0B4B     		ldr	r3, .L69+8
 900 0028 1C70     		strb	r4, [r3]
 901 002a 0AE0     		b	.L67
 902              	.L66:
 957:Generated_Source\PSoC4/UART_XB2.c ****             }
 958:Generated_Source\PSoC4/UART_XB2.c ****             else
 959:Generated_Source\PSoC4/UART_XB2.c ****             {
 960:Generated_Source\PSoC4/UART_XB2.c ****                 if(UART_XB2_txBufferWrite >= UART_XB2_TX_BUFFER_SIZE)
 903              		.loc 1 960 0
 904 002c 632A     		cmp	r2, #99
 905 002e 02D9     		bls	.L68
 961:Generated_Source\PSoC4/UART_XB2.c ****                 {
 962:Generated_Source\PSoC4/UART_XB2.c ****                     UART_XB2_txBufferWrite = 0u;
 906              		.loc 1 962 0
 907 0030 0022     		mov	r2, #0
 908 0032 064B     		ldr	r3, .L69
 909 0034 DA71     		strb	r2, [r3, #7]
 910              	.L68:
ARM GAS  C:\Users\Petro\AppData\Local\Temp\ccLVkPCw.s 			page 34


 963:Generated_Source\PSoC4/UART_XB2.c ****                 }
 964:Generated_Source\PSoC4/UART_XB2.c **** 
 965:Generated_Source\PSoC4/UART_XB2.c ****                 UART_XB2_txBuffer[UART_XB2_txBufferWrite] = txDataByte;
 911              		.loc 1 965 0
 912 0036 054A     		ldr	r2, .L69
 913 0038 D379     		ldrb	r3, [r2, #7]
 914 003a 0749     		ldr	r1, .L69+12
 915 003c CC54     		strb	r4, [r1, r3]
 966:Generated_Source\PSoC4/UART_XB2.c **** 
 967:Generated_Source\PSoC4/UART_XB2.c ****                 /* Add to the software buffer. */
 968:Generated_Source\PSoC4/UART_XB2.c ****                 UART_XB2_txBufferWrite++;
 916              		.loc 1 968 0
 917 003e 0133     		add	r3, r3, #1
 918 0040 D371     		strb	r3, [r2, #7]
 919              	.L67:
 969:Generated_Source\PSoC4/UART_XB2.c ****             }
 970:Generated_Source\PSoC4/UART_XB2.c **** 
 971:Generated_Source\PSoC4/UART_XB2.c ****             UART_XB2_EnableTxInt();
 920              		.loc 1 971 0
 921 0042 0220     		mov	r0, #2
 922 0044 FFF7FEFF 		bl	CyIntEnable
 923              	.LVL82:
 924              	.L64:
 972:Generated_Source\PSoC4/UART_XB2.c **** 
 973:Generated_Source\PSoC4/UART_XB2.c ****         #else
 974:Generated_Source\PSoC4/UART_XB2.c **** 
 975:Generated_Source\PSoC4/UART_XB2.c ****             /* Add directly to the FIFO. */
 976:Generated_Source\PSoC4/UART_XB2.c ****             UART_XB2_TXDATA_REG = txDataByte;
 977:Generated_Source\PSoC4/UART_XB2.c **** 
 978:Generated_Source\PSoC4/UART_XB2.c ****         #endif /*(UART_XB2_TX_INTERRUPT_ENABLED) */
 979:Generated_Source\PSoC4/UART_XB2.c ****         }
 980:Generated_Source\PSoC4/UART_XB2.c ****     }
 925              		.loc 1 980 0
 926              		@ sp needed
 927 0048 10BD     		pop	{r4, pc}
 928              	.L70:
 929 004a C046     		.align	2
 930              	.L69:
 931 004c 00000000 		.word	.LANCHOR0
 932 0050 63000F40 		.word	1074724963
 933 0054 43000F40 		.word	1074724931
 934 0058 00000000 		.word	UART_XB2_txBuffer
 935              		.cfi_endproc
 936              	.LFE19:
 937              		.size	UART_XB2_WriteTxData, .-UART_XB2_WriteTxData
 938              		.section	.text.UART_XB2_ReadTxStatus,"ax",%progbits
 939              		.align	2
 940              		.global	UART_XB2_ReadTxStatus
 941              		.code	16
 942              		.thumb_func
 943              		.type	UART_XB2_ReadTxStatus, %function
 944              	UART_XB2_ReadTxStatus:
 945              	.LFB20:
 981:Generated_Source\PSoC4/UART_XB2.c **** 
 982:Generated_Source\PSoC4/UART_XB2.c **** 
 983:Generated_Source\PSoC4/UART_XB2.c ****     /*******************************************************************************
 984:Generated_Source\PSoC4/UART_XB2.c ****     * Function Name: UART_XB2_ReadTxStatus
ARM GAS  C:\Users\Petro\AppData\Local\Temp\ccLVkPCw.s 			page 35


 985:Generated_Source\PSoC4/UART_XB2.c ****     ********************************************************************************
 986:Generated_Source\PSoC4/UART_XB2.c ****     *
 987:Generated_Source\PSoC4/UART_XB2.c ****     * Summary:
 988:Generated_Source\PSoC4/UART_XB2.c ****     *  Reads the status register for the TX portion of the UART.
 989:Generated_Source\PSoC4/UART_XB2.c ****     *
 990:Generated_Source\PSoC4/UART_XB2.c ****     * Parameters:
 991:Generated_Source\PSoC4/UART_XB2.c ****     *  None.
 992:Generated_Source\PSoC4/UART_XB2.c ****     *
 993:Generated_Source\PSoC4/UART_XB2.c ****     * Return:
 994:Generated_Source\PSoC4/UART_XB2.c ****     *  Contents of the status register
 995:Generated_Source\PSoC4/UART_XB2.c ****     *
 996:Generated_Source\PSoC4/UART_XB2.c ****     * Theory:
 997:Generated_Source\PSoC4/UART_XB2.c ****     *  This function reads the TX status register, which is cleared on read.
 998:Generated_Source\PSoC4/UART_XB2.c ****     *  It is up to the user to handle all bits in this return value accordingly,
 999:Generated_Source\PSoC4/UART_XB2.c ****     *  even if the bit was not enabled as an interrupt source the event happened
1000:Generated_Source\PSoC4/UART_XB2.c ****     *  and must be handled accordingly.
1001:Generated_Source\PSoC4/UART_XB2.c ****     *
1002:Generated_Source\PSoC4/UART_XB2.c ****     *******************************************************************************/
1003:Generated_Source\PSoC4/UART_XB2.c ****     uint8 UART_XB2_ReadTxStatus(void) 
1004:Generated_Source\PSoC4/UART_XB2.c ****     {
 946              		.loc 1 1004 0
 947              		.cfi_startproc
1005:Generated_Source\PSoC4/UART_XB2.c ****         return(UART_XB2_TXSTATUS_REG);
 948              		.loc 1 1005 0
 949 0000 014B     		ldr	r3, .L72
 950 0002 1878     		ldrb	r0, [r3]
 951 0004 C0B2     		uxtb	r0, r0
1006:Generated_Source\PSoC4/UART_XB2.c ****     }
 952              		.loc 1 1006 0
 953              		@ sp needed
 954 0006 7047     		bx	lr
 955              	.L73:
 956              		.align	2
 957              	.L72:
 958 0008 63000F40 		.word	1074724963
 959              		.cfi_endproc
 960              	.LFE20:
 961              		.size	UART_XB2_ReadTxStatus, .-UART_XB2_ReadTxStatus
 962              		.section	.text.UART_XB2_PutChar,"ax",%progbits
 963              		.align	2
 964              		.global	UART_XB2_PutChar
 965              		.code	16
 966              		.thumb_func
 967              		.type	UART_XB2_PutChar, %function
 968              	UART_XB2_PutChar:
 969              	.LFB21:
1007:Generated_Source\PSoC4/UART_XB2.c **** 
1008:Generated_Source\PSoC4/UART_XB2.c **** 
1009:Generated_Source\PSoC4/UART_XB2.c ****     /*******************************************************************************
1010:Generated_Source\PSoC4/UART_XB2.c ****     * Function Name: UART_XB2_PutChar
1011:Generated_Source\PSoC4/UART_XB2.c ****     ********************************************************************************
1012:Generated_Source\PSoC4/UART_XB2.c ****     *
1013:Generated_Source\PSoC4/UART_XB2.c ****     * Summary:
1014:Generated_Source\PSoC4/UART_XB2.c ****     *  Puts a byte of data into the transmit buffer to be sent when the bus is
1015:Generated_Source\PSoC4/UART_XB2.c ****     *  available. This is a blocking API that waits until the TX buffer has room to
1016:Generated_Source\PSoC4/UART_XB2.c ****     *  hold the data.
1017:Generated_Source\PSoC4/UART_XB2.c ****     *
ARM GAS  C:\Users\Petro\AppData\Local\Temp\ccLVkPCw.s 			page 36


1018:Generated_Source\PSoC4/UART_XB2.c ****     * Parameters:
1019:Generated_Source\PSoC4/UART_XB2.c ****     *  txDataByte: Byte containing the data to transmit
1020:Generated_Source\PSoC4/UART_XB2.c ****     *
1021:Generated_Source\PSoC4/UART_XB2.c ****     * Return:
1022:Generated_Source\PSoC4/UART_XB2.c ****     *  None.
1023:Generated_Source\PSoC4/UART_XB2.c ****     *
1024:Generated_Source\PSoC4/UART_XB2.c ****     * Global Variables:
1025:Generated_Source\PSoC4/UART_XB2.c ****     *  UART_XB2_txBuffer - RAM buffer pointer for save data for transmission
1026:Generated_Source\PSoC4/UART_XB2.c ****     *  UART_XB2_txBufferWrite - cyclic index for write to txBuffer,
1027:Generated_Source\PSoC4/UART_XB2.c ****     *     checked to identify free space in txBuffer and incremented after each byte
1028:Generated_Source\PSoC4/UART_XB2.c ****     *     saved to buffer.
1029:Generated_Source\PSoC4/UART_XB2.c ****     *  UART_XB2_txBufferRead - cyclic index for read from txBuffer,
1030:Generated_Source\PSoC4/UART_XB2.c ****     *     checked to identify free space in txBuffer.
1031:Generated_Source\PSoC4/UART_XB2.c ****     *  UART_XB2_initVar - checked to identify that the component has been
1032:Generated_Source\PSoC4/UART_XB2.c ****     *     initialized.
1033:Generated_Source\PSoC4/UART_XB2.c ****     *
1034:Generated_Source\PSoC4/UART_XB2.c ****     * Reentrant:
1035:Generated_Source\PSoC4/UART_XB2.c ****     *  No.
1036:Generated_Source\PSoC4/UART_XB2.c ****     *
1037:Generated_Source\PSoC4/UART_XB2.c ****     * Theory:
1038:Generated_Source\PSoC4/UART_XB2.c ****     *  Allows the user to transmit any byte of data in a single transfer
1039:Generated_Source\PSoC4/UART_XB2.c ****     *
1040:Generated_Source\PSoC4/UART_XB2.c ****     *******************************************************************************/
1041:Generated_Source\PSoC4/UART_XB2.c ****     void UART_XB2_PutChar(uint8 txDataByte) 
1042:Generated_Source\PSoC4/UART_XB2.c ****     {
 970              		.loc 1 1042 0
 971              		.cfi_startproc
 972              	.LVL83:
 973 0000 10B5     		push	{r4, lr}
 974              		.cfi_def_cfa_offset 8
 975              		.cfi_offset 4, -8
 976              		.cfi_offset 14, -4
 977              	.L77:
1043:Generated_Source\PSoC4/UART_XB2.c ****     #if (UART_XB2_TX_INTERRUPT_ENABLED)
1044:Generated_Source\PSoC4/UART_XB2.c ****         /* The temporary output pointer is used since it takes two instructions
1045:Generated_Source\PSoC4/UART_XB2.c ****         *  to increment with a wrap, and we can't risk doing that with the real
1046:Generated_Source\PSoC4/UART_XB2.c ****         *  pointer and getting an interrupt in between instructions.
1047:Generated_Source\PSoC4/UART_XB2.c ****         */
1048:Generated_Source\PSoC4/UART_XB2.c ****         uint8 locTxBufferWrite;
1049:Generated_Source\PSoC4/UART_XB2.c ****         uint8 locTxBufferRead;
1050:Generated_Source\PSoC4/UART_XB2.c **** 
1051:Generated_Source\PSoC4/UART_XB2.c ****         do
1052:Generated_Source\PSoC4/UART_XB2.c ****         { /* Block if software buffer is full, so we don't overwrite. */
1053:Generated_Source\PSoC4/UART_XB2.c **** 
1054:Generated_Source\PSoC4/UART_XB2.c ****         #if ((UART_XB2_TX_BUFFER_SIZE > UART_XB2_MAX_BYTE_VALUE) && (CY_PSOC3))
1055:Generated_Source\PSoC4/UART_XB2.c ****             /* Disable TX interrupt to protect variables from modification */
1056:Generated_Source\PSoC4/UART_XB2.c ****             UART_XB2_DisableTxInt();
1057:Generated_Source\PSoC4/UART_XB2.c ****         #endif /* (UART_XB2_TX_BUFFER_SIZE > UART_XB2_MAX_BYTE_VALUE) && (CY_PSOC3) */
1058:Generated_Source\PSoC4/UART_XB2.c **** 
1059:Generated_Source\PSoC4/UART_XB2.c ****             locTxBufferWrite = UART_XB2_txBufferWrite;
 978              		.loc 1 1059 0
 979 0002 164B     		ldr	r3, .L82
 980 0004 D979     		ldrb	r1, [r3, #7]
 981              	.LVL84:
1060:Generated_Source\PSoC4/UART_XB2.c ****             locTxBufferRead  = UART_XB2_txBufferRead;
 982              		.loc 1 1060 0
 983 0006 9A79     		ldrb	r2, [r3, #6]
ARM GAS  C:\Users\Petro\AppData\Local\Temp\ccLVkPCw.s 			page 37


 984 0008 D2B2     		uxtb	r2, r2
 985              	.LVL85:
1061:Generated_Source\PSoC4/UART_XB2.c **** 
1062:Generated_Source\PSoC4/UART_XB2.c ****         #if ((UART_XB2_TX_BUFFER_SIZE > UART_XB2_MAX_BYTE_VALUE) && (CY_PSOC3))
1063:Generated_Source\PSoC4/UART_XB2.c ****             /* Enable interrupt to continue transmission */
1064:Generated_Source\PSoC4/UART_XB2.c ****             UART_XB2_EnableTxInt();
1065:Generated_Source\PSoC4/UART_XB2.c ****         #endif /* (UART_XB2_TX_BUFFER_SIZE > UART_XB2_MAX_BYTE_VALUE) && (CY_PSOC3) */
1066:Generated_Source\PSoC4/UART_XB2.c ****         }
1067:Generated_Source\PSoC4/UART_XB2.c ****         while( (locTxBufferWrite < locTxBufferRead) ? (locTxBufferWrite == (locTxBufferRead - 1u)) 
 986              		.loc 1 1067 0
 987 000a 9142     		cmp	r1, r2
 988 000c 05D2     		bcs	.L75
 989              		.loc 1 1067 0 is_stmt 0 discriminator 1
 990 000e 531E     		sub	r3, r2, #1
 991 0010 CB1A     		sub	r3, r1, r3
 992 0012 5C42     		neg	r4, r3
 993 0014 6341     		adc	r3, r3, r4
 994 0016 DBB2     		uxtb	r3, r3
 995 0018 04E0     		b	.L76
 996              	.L75:
1068:Generated_Source\PSoC4/UART_XB2.c ****                                 ((locTxBufferWrite - locTxBufferRead) ==
 997              		.loc 1 1068 0 is_stmt 1 discriminator 2
 998 001a 8B1A     		sub	r3, r1, r2
1067:Generated_Source\PSoC4/UART_XB2.c ****                                 ((locTxBufferWrite - locTxBufferRead) ==
 999              		.loc 1 1067 0 discriminator 2
 1000 001c 633B     		sub	r3, r3, #99
 1001 001e 5C42     		neg	r4, r3
 1002 0020 6341     		adc	r3, r3, r4
 1003 0022 DBB2     		uxtb	r3, r3
 1004              	.L76:
1069:Generated_Source\PSoC4/UART_XB2.c ****                                 (uint8)(UART_XB2_TX_BUFFER_SIZE - 1u)) );
 1005              		.loc 1 1069 0
 1006 0024 002B     		cmp	r3, #0
 1007 0026 ECD1     		bne	.L77
1070:Generated_Source\PSoC4/UART_XB2.c **** 
1071:Generated_Source\PSoC4/UART_XB2.c ****         if( (locTxBufferRead == locTxBufferWrite) &&
 1008              		.loc 1 1071 0
 1009 0028 8A42     		cmp	r2, r1
 1010 002a 06D1     		bne	.L78
1072:Generated_Source\PSoC4/UART_XB2.c ****             ((UART_XB2_TXSTATUS_REG & UART_XB2_TX_STS_FIFO_FULL) == 0u) )
 1011              		.loc 1 1072 0 discriminator 1
 1012 002c 0C4B     		ldr	r3, .L82+4
 1013 002e 1B78     		ldrb	r3, [r3]
1071:Generated_Source\PSoC4/UART_XB2.c ****             ((UART_XB2_TXSTATUS_REG & UART_XB2_TX_STS_FIFO_FULL) == 0u) )
 1014              		.loc 1 1071 0 discriminator 1
 1015 0030 5B07     		lsl	r3, r3, #29
 1016 0032 02D4     		bmi	.L78
1073:Generated_Source\PSoC4/UART_XB2.c ****         {
1074:Generated_Source\PSoC4/UART_XB2.c ****             /* Add directly to the FIFO */
1075:Generated_Source\PSoC4/UART_XB2.c ****             UART_XB2_TXDATA_REG = txDataByte;
 1017              		.loc 1 1075 0
 1018 0034 0B4B     		ldr	r3, .L82+8
 1019 0036 1870     		strb	r0, [r3]
 1020 0038 0EE0     		b	.L74
 1021              	.L78:
1076:Generated_Source\PSoC4/UART_XB2.c ****         }
1077:Generated_Source\PSoC4/UART_XB2.c ****         else
ARM GAS  C:\Users\Petro\AppData\Local\Temp\ccLVkPCw.s 			page 38


1078:Generated_Source\PSoC4/UART_XB2.c ****         {
1079:Generated_Source\PSoC4/UART_XB2.c ****             if(locTxBufferWrite >= UART_XB2_TX_BUFFER_SIZE)
 1022              		.loc 1 1079 0
 1023 003a 6329     		cmp	r1, #99
 1024 003c 00D9     		bls	.L80
1080:Generated_Source\PSoC4/UART_XB2.c ****             {
1081:Generated_Source\PSoC4/UART_XB2.c ****                 locTxBufferWrite = 0u;
 1025              		.loc 1 1081 0
 1026 003e 0021     		mov	r1, #0
 1027              	.LVL86:
 1028              	.L80:
1082:Generated_Source\PSoC4/UART_XB2.c ****             }
1083:Generated_Source\PSoC4/UART_XB2.c ****             /* Add to the software buffer. */
1084:Generated_Source\PSoC4/UART_XB2.c ****             UART_XB2_txBuffer[locTxBufferWrite] = txDataByte;
 1029              		.loc 1 1084 0
 1030 0040 094B     		ldr	r3, .L82+12
 1031 0042 5854     		strb	r0, [r3, r1]
1085:Generated_Source\PSoC4/UART_XB2.c ****             locTxBufferWrite++;
 1032              		.loc 1 1085 0
 1033 0044 0131     		add	r1, r1, #1
 1034              	.LVL87:
1086:Generated_Source\PSoC4/UART_XB2.c **** 
1087:Generated_Source\PSoC4/UART_XB2.c ****             /* Finally, update the real output pointer */
1088:Generated_Source\PSoC4/UART_XB2.c ****         #if ((UART_XB2_TX_BUFFER_SIZE > UART_XB2_MAX_BYTE_VALUE) && (CY_PSOC3))
1089:Generated_Source\PSoC4/UART_XB2.c ****             UART_XB2_DisableTxInt();
1090:Generated_Source\PSoC4/UART_XB2.c ****         #endif /* (UART_XB2_TX_BUFFER_SIZE > UART_XB2_MAX_BYTE_VALUE) && (CY_PSOC3) */
1091:Generated_Source\PSoC4/UART_XB2.c **** 
1092:Generated_Source\PSoC4/UART_XB2.c ****             UART_XB2_txBufferWrite = locTxBufferWrite;
 1035              		.loc 1 1092 0
 1036 0046 054B     		ldr	r3, .L82
 1037 0048 D971     		strb	r1, [r3, #7]
1093:Generated_Source\PSoC4/UART_XB2.c **** 
1094:Generated_Source\PSoC4/UART_XB2.c ****         #if ((UART_XB2_TX_BUFFER_SIZE > UART_XB2_MAX_BYTE_VALUE) && (CY_PSOC3))
1095:Generated_Source\PSoC4/UART_XB2.c ****             UART_XB2_EnableTxInt();
1096:Generated_Source\PSoC4/UART_XB2.c ****         #endif /* (UART_XB2_TX_BUFFER_SIZE > UART_XB2_MAX_BYTE_VALUE) && (CY_PSOC3) */
1097:Generated_Source\PSoC4/UART_XB2.c **** 
1098:Generated_Source\PSoC4/UART_XB2.c ****             if(0u != (UART_XB2_TXSTATUS_REG & UART_XB2_TX_STS_FIFO_EMPTY))
 1038              		.loc 1 1098 0
 1039 004a 054B     		ldr	r3, .L82+4
 1040 004c 1B78     		ldrb	r3, [r3]
 1041 004e 9B07     		lsl	r3, r3, #30
 1042 0050 02D5     		bpl	.L74
1099:Generated_Source\PSoC4/UART_XB2.c ****             {
1100:Generated_Source\PSoC4/UART_XB2.c ****                 /* Trigger TX interrupt to send software buffer */
1101:Generated_Source\PSoC4/UART_XB2.c ****                 UART_XB2_SetPendingTxInt();
 1043              		.loc 1 1101 0
 1044 0052 0220     		mov	r0, #2
 1045              	.LVL88:
 1046 0054 FFF7FEFF 		bl	CyIntSetPending
 1047              	.LVL89:
 1048              	.L74:
1102:Generated_Source\PSoC4/UART_XB2.c ****             }
1103:Generated_Source\PSoC4/UART_XB2.c ****         }
1104:Generated_Source\PSoC4/UART_XB2.c **** 
1105:Generated_Source\PSoC4/UART_XB2.c ****     #else
1106:Generated_Source\PSoC4/UART_XB2.c **** 
1107:Generated_Source\PSoC4/UART_XB2.c ****         while((UART_XB2_TXSTATUS_REG & UART_XB2_TX_STS_FIFO_FULL) != 0u)
ARM GAS  C:\Users\Petro\AppData\Local\Temp\ccLVkPCw.s 			page 39


1108:Generated_Source\PSoC4/UART_XB2.c ****         {
1109:Generated_Source\PSoC4/UART_XB2.c ****             /* Wait for room in the FIFO */
1110:Generated_Source\PSoC4/UART_XB2.c ****         }
1111:Generated_Source\PSoC4/UART_XB2.c **** 
1112:Generated_Source\PSoC4/UART_XB2.c ****         /* Add directly to the FIFO */
1113:Generated_Source\PSoC4/UART_XB2.c ****         UART_XB2_TXDATA_REG = txDataByte;
1114:Generated_Source\PSoC4/UART_XB2.c **** 
1115:Generated_Source\PSoC4/UART_XB2.c ****     #endif /* UART_XB2_TX_INTERRUPT_ENABLED */
1116:Generated_Source\PSoC4/UART_XB2.c ****     }
 1049              		.loc 1 1116 0
 1050              		@ sp needed
 1051 0058 10BD     		pop	{r4, pc}
 1052              	.L83:
 1053 005a C046     		.align	2
 1054              	.L82:
 1055 005c 00000000 		.word	.LANCHOR0
 1056 0060 63000F40 		.word	1074724963
 1057 0064 43000F40 		.word	1074724931
 1058 0068 00000000 		.word	UART_XB2_txBuffer
 1059              		.cfi_endproc
 1060              	.LFE21:
 1061              		.size	UART_XB2_PutChar, .-UART_XB2_PutChar
 1062              		.section	.text.UART_XB2_PutString,"ax",%progbits
 1063              		.align	2
 1064              		.global	UART_XB2_PutString
 1065              		.code	16
 1066              		.thumb_func
 1067              		.type	UART_XB2_PutString, %function
 1068              	UART_XB2_PutString:
 1069              	.LFB22:
1117:Generated_Source\PSoC4/UART_XB2.c **** 
1118:Generated_Source\PSoC4/UART_XB2.c **** 
1119:Generated_Source\PSoC4/UART_XB2.c ****     /*******************************************************************************
1120:Generated_Source\PSoC4/UART_XB2.c ****     * Function Name: UART_XB2_PutString
1121:Generated_Source\PSoC4/UART_XB2.c ****     ********************************************************************************
1122:Generated_Source\PSoC4/UART_XB2.c ****     *
1123:Generated_Source\PSoC4/UART_XB2.c ****     * Summary:
1124:Generated_Source\PSoC4/UART_XB2.c ****     *  Sends a NULL terminated string to the TX buffer for transmission.
1125:Generated_Source\PSoC4/UART_XB2.c ****     *
1126:Generated_Source\PSoC4/UART_XB2.c ****     * Parameters:
1127:Generated_Source\PSoC4/UART_XB2.c ****     *  string[]: Pointer to the null terminated string array residing in RAM or ROM
1128:Generated_Source\PSoC4/UART_XB2.c ****     *
1129:Generated_Source\PSoC4/UART_XB2.c ****     * Return:
1130:Generated_Source\PSoC4/UART_XB2.c ****     *  None.
1131:Generated_Source\PSoC4/UART_XB2.c ****     *
1132:Generated_Source\PSoC4/UART_XB2.c ****     * Global Variables:
1133:Generated_Source\PSoC4/UART_XB2.c ****     *  UART_XB2_initVar - checked to identify that the component has been
1134:Generated_Source\PSoC4/UART_XB2.c ****     *     initialized.
1135:Generated_Source\PSoC4/UART_XB2.c ****     *
1136:Generated_Source\PSoC4/UART_XB2.c ****     * Reentrant:
1137:Generated_Source\PSoC4/UART_XB2.c ****     *  No.
1138:Generated_Source\PSoC4/UART_XB2.c ****     *
1139:Generated_Source\PSoC4/UART_XB2.c ****     * Theory:
1140:Generated_Source\PSoC4/UART_XB2.c ****     *  If there is not enough memory in the TX buffer for the entire string, this
1141:Generated_Source\PSoC4/UART_XB2.c ****     *  function blocks until the last character of the string is loaded into the
1142:Generated_Source\PSoC4/UART_XB2.c ****     *  TX buffer.
1143:Generated_Source\PSoC4/UART_XB2.c ****     *
ARM GAS  C:\Users\Petro\AppData\Local\Temp\ccLVkPCw.s 			page 40


1144:Generated_Source\PSoC4/UART_XB2.c ****     *******************************************************************************/
1145:Generated_Source\PSoC4/UART_XB2.c ****     void UART_XB2_PutString(const char8 string[]) 
1146:Generated_Source\PSoC4/UART_XB2.c ****     {
 1070              		.loc 1 1146 0
 1071              		.cfi_startproc
 1072              	.LVL90:
 1073 0000 38B5     		push	{r3, r4, r5, lr}
 1074              		.cfi_def_cfa_offset 16
 1075              		.cfi_offset 3, -16
 1076              		.cfi_offset 4, -12
 1077              		.cfi_offset 5, -8
 1078              		.cfi_offset 14, -4
 1079              	.LVL91:
1147:Generated_Source\PSoC4/UART_XB2.c ****         uint16 bufIndex = 0u;
1148:Generated_Source\PSoC4/UART_XB2.c **** 
1149:Generated_Source\PSoC4/UART_XB2.c ****         /* If not Initialized then skip this function */
1150:Generated_Source\PSoC4/UART_XB2.c ****         if(UART_XB2_initVar != 0u)
 1080              		.loc 1 1150 0
 1081 0002 084B     		ldr	r3, .L89
 1082 0004 5B78     		ldrb	r3, [r3, #1]
 1083 0006 002B     		cmp	r3, #0
 1084 0008 05D1     		bne	.L88
 1085 000a 09E0     		b	.L84
 1086              	.LVL92:
 1087              	.L87:
1151:Generated_Source\PSoC4/UART_XB2.c ****         {
1152:Generated_Source\PSoC4/UART_XB2.c ****             /* This is a blocking function, it will not exit until all data is sent */
1153:Generated_Source\PSoC4/UART_XB2.c ****             while(string[bufIndex] != (char8) 0)
1154:Generated_Source\PSoC4/UART_XB2.c ****             {
1155:Generated_Source\PSoC4/UART_XB2.c ****                 UART_XB2_PutChar((uint8)string[bufIndex]);
 1088              		.loc 1 1155 0
 1089 000c FFF7FEFF 		bl	UART_XB2_PutChar
 1090              	.LVL93:
1156:Generated_Source\PSoC4/UART_XB2.c ****                 bufIndex++;
 1091              		.loc 1 1156 0
 1092 0010 0134     		add	r4, r4, #1
 1093              	.LVL94:
 1094 0012 A4B2     		uxth	r4, r4
 1095              	.LVL95:
 1096 0014 01E0     		b	.L85
 1097              	.LVL96:
 1098              	.L88:
 1099 0016 051C     		mov	r5, r0
 1100 0018 0024     		mov	r4, #0
 1101              	.LVL97:
 1102              	.L85:
1153:Generated_Source\PSoC4/UART_XB2.c ****             {
 1103              		.loc 1 1153 0
 1104 001a 285D     		ldrb	r0, [r5, r4]
 1105 001c 0028     		cmp	r0, #0
 1106 001e F5D1     		bne	.L87
 1107              	.LVL98:
 1108              	.L84:
1157:Generated_Source\PSoC4/UART_XB2.c ****             }
1158:Generated_Source\PSoC4/UART_XB2.c ****         }
1159:Generated_Source\PSoC4/UART_XB2.c ****     }
 1109              		.loc 1 1159 0
ARM GAS  C:\Users\Petro\AppData\Local\Temp\ccLVkPCw.s 			page 41


 1110              		@ sp needed
 1111 0020 38BD     		pop	{r3, r4, r5, pc}
 1112              	.L90:
 1113 0022 C046     		.align	2
 1114              	.L89:
 1115 0024 00000000 		.word	.LANCHOR0
 1116              		.cfi_endproc
 1117              	.LFE22:
 1118              		.size	UART_XB2_PutString, .-UART_XB2_PutString
 1119              		.section	.text.UART_XB2_PutArray,"ax",%progbits
 1120              		.align	2
 1121              		.global	UART_XB2_PutArray
 1122              		.code	16
 1123              		.thumb_func
 1124              		.type	UART_XB2_PutArray, %function
 1125              	UART_XB2_PutArray:
 1126              	.LFB23:
1160:Generated_Source\PSoC4/UART_XB2.c **** 
1161:Generated_Source\PSoC4/UART_XB2.c **** 
1162:Generated_Source\PSoC4/UART_XB2.c ****     /*******************************************************************************
1163:Generated_Source\PSoC4/UART_XB2.c ****     * Function Name: UART_XB2_PutArray
1164:Generated_Source\PSoC4/UART_XB2.c ****     ********************************************************************************
1165:Generated_Source\PSoC4/UART_XB2.c ****     *
1166:Generated_Source\PSoC4/UART_XB2.c ****     * Summary:
1167:Generated_Source\PSoC4/UART_XB2.c ****     *  Places N bytes of data from a memory array into the TX buffer for
1168:Generated_Source\PSoC4/UART_XB2.c ****     *  transmission.
1169:Generated_Source\PSoC4/UART_XB2.c ****     *
1170:Generated_Source\PSoC4/UART_XB2.c ****     * Parameters:
1171:Generated_Source\PSoC4/UART_XB2.c ****     *  string[]: Address of the memory array residing in RAM or ROM.
1172:Generated_Source\PSoC4/UART_XB2.c ****     *  byteCount: Number of bytes to be transmitted. The type depends on TX Buffer
1173:Generated_Source\PSoC4/UART_XB2.c ****     *             Size parameter.
1174:Generated_Source\PSoC4/UART_XB2.c ****     *
1175:Generated_Source\PSoC4/UART_XB2.c ****     * Return:
1176:Generated_Source\PSoC4/UART_XB2.c ****     *  None.
1177:Generated_Source\PSoC4/UART_XB2.c ****     *
1178:Generated_Source\PSoC4/UART_XB2.c ****     * Global Variables:
1179:Generated_Source\PSoC4/UART_XB2.c ****     *  UART_XB2_initVar - checked to identify that the component has been
1180:Generated_Source\PSoC4/UART_XB2.c ****     *     initialized.
1181:Generated_Source\PSoC4/UART_XB2.c ****     *
1182:Generated_Source\PSoC4/UART_XB2.c ****     * Reentrant:
1183:Generated_Source\PSoC4/UART_XB2.c ****     *  No.
1184:Generated_Source\PSoC4/UART_XB2.c ****     *
1185:Generated_Source\PSoC4/UART_XB2.c ****     * Theory:
1186:Generated_Source\PSoC4/UART_XB2.c ****     *  If there is not enough memory in the TX buffer for the entire string, this
1187:Generated_Source\PSoC4/UART_XB2.c ****     *  function blocks until the last character of the string is loaded into the
1188:Generated_Source\PSoC4/UART_XB2.c ****     *  TX buffer.
1189:Generated_Source\PSoC4/UART_XB2.c ****     *
1190:Generated_Source\PSoC4/UART_XB2.c ****     *******************************************************************************/
1191:Generated_Source\PSoC4/UART_XB2.c ****     void UART_XB2_PutArray(const uint8 string[], uint8 byteCount)
1192:Generated_Source\PSoC4/UART_XB2.c ****                                                                     
1193:Generated_Source\PSoC4/UART_XB2.c ****     {
 1127              		.loc 1 1193 0
 1128              		.cfi_startproc
 1129              	.LVL99:
 1130 0000 70B5     		push	{r4, r5, r6, lr}
 1131              		.cfi_def_cfa_offset 16
 1132              		.cfi_offset 4, -16
ARM GAS  C:\Users\Petro\AppData\Local\Temp\ccLVkPCw.s 			page 42


 1133              		.cfi_offset 5, -12
 1134              		.cfi_offset 6, -8
 1135              		.cfi_offset 14, -4
 1136              	.LVL100:
1194:Generated_Source\PSoC4/UART_XB2.c ****         uint8 bufIndex = 0u;
1195:Generated_Source\PSoC4/UART_XB2.c **** 
1196:Generated_Source\PSoC4/UART_XB2.c ****         /* If not Initialized then skip this function */
1197:Generated_Source\PSoC4/UART_XB2.c ****         if(UART_XB2_initVar != 0u)
 1137              		.loc 1 1197 0
 1138 0002 084B     		ldr	r3, .L96
 1139 0004 5B78     		ldrb	r3, [r3, #1]
 1140 0006 002B     		cmp	r3, #0
 1141 0008 06D1     		bne	.L95
 1142 000a 0AE0     		b	.L91
 1143              	.LVL101:
 1144              	.L94:
1198:Generated_Source\PSoC4/UART_XB2.c ****         {
1199:Generated_Source\PSoC4/UART_XB2.c ****             while(bufIndex < byteCount)
1200:Generated_Source\PSoC4/UART_XB2.c ****             {
1201:Generated_Source\PSoC4/UART_XB2.c ****                 UART_XB2_PutChar(string[bufIndex]);
 1145              		.loc 1 1201 0
 1146 000c 305D     		ldrb	r0, [r6, r4]
 1147 000e FFF7FEFF 		bl	UART_XB2_PutChar
 1148              	.LVL102:
1202:Generated_Source\PSoC4/UART_XB2.c ****                 bufIndex++;
 1149              		.loc 1 1202 0
 1150 0012 0134     		add	r4, r4, #1
 1151              	.LVL103:
 1152 0014 E4B2     		uxtb	r4, r4
 1153              	.LVL104:
 1154 0016 02E0     		b	.L92
 1155              	.LVL105:
 1156              	.L95:
 1157 0018 0D1C     		mov	r5, r1
 1158 001a 061C     		mov	r6, r0
 1159 001c 0024     		mov	r4, #0
 1160              	.LVL106:
 1161              	.L92:
1199:Generated_Source\PSoC4/UART_XB2.c ****             {
 1162              		.loc 1 1199 0
 1163 001e AC42     		cmp	r4, r5
 1164 0020 F4D3     		bcc	.L94
 1165              	.LVL107:
 1166              	.L91:
1203:Generated_Source\PSoC4/UART_XB2.c ****             }
1204:Generated_Source\PSoC4/UART_XB2.c ****         }
1205:Generated_Source\PSoC4/UART_XB2.c ****     }
 1167              		.loc 1 1205 0
 1168              		@ sp needed
 1169 0022 70BD     		pop	{r4, r5, r6, pc}
 1170              	.L97:
 1171              		.align	2
 1172              	.L96:
 1173 0024 00000000 		.word	.LANCHOR0
 1174              		.cfi_endproc
 1175              	.LFE23:
 1176              		.size	UART_XB2_PutArray, .-UART_XB2_PutArray
ARM GAS  C:\Users\Petro\AppData\Local\Temp\ccLVkPCw.s 			page 43


 1177              		.section	.text.UART_XB2_PutCRLF,"ax",%progbits
 1178              		.align	2
 1179              		.global	UART_XB2_PutCRLF
 1180              		.code	16
 1181              		.thumb_func
 1182              		.type	UART_XB2_PutCRLF, %function
 1183              	UART_XB2_PutCRLF:
 1184              	.LFB24:
1206:Generated_Source\PSoC4/UART_XB2.c **** 
1207:Generated_Source\PSoC4/UART_XB2.c **** 
1208:Generated_Source\PSoC4/UART_XB2.c ****     /*******************************************************************************
1209:Generated_Source\PSoC4/UART_XB2.c ****     * Function Name: UART_XB2_PutCRLF
1210:Generated_Source\PSoC4/UART_XB2.c ****     ********************************************************************************
1211:Generated_Source\PSoC4/UART_XB2.c ****     *
1212:Generated_Source\PSoC4/UART_XB2.c ****     * Summary:
1213:Generated_Source\PSoC4/UART_XB2.c ****     *  Writes a byte of data followed by a carriage return (0x0D) and line feed
1214:Generated_Source\PSoC4/UART_XB2.c ****     *  (0x0A) to the transmit buffer.
1215:Generated_Source\PSoC4/UART_XB2.c ****     *
1216:Generated_Source\PSoC4/UART_XB2.c ****     * Parameters:
1217:Generated_Source\PSoC4/UART_XB2.c ****     *  txDataByte: Data byte to transmit before the carriage return and line feed.
1218:Generated_Source\PSoC4/UART_XB2.c ****     *
1219:Generated_Source\PSoC4/UART_XB2.c ****     * Return:
1220:Generated_Source\PSoC4/UART_XB2.c ****     *  None.
1221:Generated_Source\PSoC4/UART_XB2.c ****     *
1222:Generated_Source\PSoC4/UART_XB2.c ****     * Global Variables:
1223:Generated_Source\PSoC4/UART_XB2.c ****     *  UART_XB2_initVar - checked to identify that the component has been
1224:Generated_Source\PSoC4/UART_XB2.c ****     *     initialized.
1225:Generated_Source\PSoC4/UART_XB2.c ****     *
1226:Generated_Source\PSoC4/UART_XB2.c ****     * Reentrant:
1227:Generated_Source\PSoC4/UART_XB2.c ****     *  No.
1228:Generated_Source\PSoC4/UART_XB2.c ****     *
1229:Generated_Source\PSoC4/UART_XB2.c ****     *******************************************************************************/
1230:Generated_Source\PSoC4/UART_XB2.c ****     void UART_XB2_PutCRLF(uint8 txDataByte) 
1231:Generated_Source\PSoC4/UART_XB2.c ****     {
 1185              		.loc 1 1231 0
 1186              		.cfi_startproc
 1187              	.LVL108:
 1188 0000 08B5     		push	{r3, lr}
 1189              		.cfi_def_cfa_offset 8
 1190              		.cfi_offset 3, -8
 1191              		.cfi_offset 14, -4
1232:Generated_Source\PSoC4/UART_XB2.c ****         /* If not Initialized then skip this function */
1233:Generated_Source\PSoC4/UART_XB2.c ****         if(UART_XB2_initVar != 0u)
 1192              		.loc 1 1233 0
 1193 0002 064B     		ldr	r3, .L100
 1194 0004 5B78     		ldrb	r3, [r3, #1]
 1195 0006 002B     		cmp	r3, #0
 1196 0008 07D0     		beq	.L98
1234:Generated_Source\PSoC4/UART_XB2.c ****         {
1235:Generated_Source\PSoC4/UART_XB2.c ****             UART_XB2_PutChar(txDataByte);
 1197              		.loc 1 1235 0
 1198 000a FFF7FEFF 		bl	UART_XB2_PutChar
 1199              	.LVL109:
1236:Generated_Source\PSoC4/UART_XB2.c ****             UART_XB2_PutChar(0x0Du);
 1200              		.loc 1 1236 0
 1201 000e 0D20     		mov	r0, #13
 1202 0010 FFF7FEFF 		bl	UART_XB2_PutChar
ARM GAS  C:\Users\Petro\AppData\Local\Temp\ccLVkPCw.s 			page 44


 1203              	.LVL110:
1237:Generated_Source\PSoC4/UART_XB2.c ****             UART_XB2_PutChar(0x0Au);
 1204              		.loc 1 1237 0
 1205 0014 0A20     		mov	r0, #10
 1206 0016 FFF7FEFF 		bl	UART_XB2_PutChar
 1207              	.LVL111:
 1208              	.L98:
1238:Generated_Source\PSoC4/UART_XB2.c ****         }
1239:Generated_Source\PSoC4/UART_XB2.c ****     }
 1209              		.loc 1 1239 0
 1210              		@ sp needed
 1211 001a 08BD     		pop	{r3, pc}
 1212              	.L101:
 1213              		.align	2
 1214              	.L100:
 1215 001c 00000000 		.word	.LANCHOR0
 1216              		.cfi_endproc
 1217              	.LFE24:
 1218              		.size	UART_XB2_PutCRLF, .-UART_XB2_PutCRLF
 1219              		.section	.text.UART_XB2_GetTxBufferSize,"ax",%progbits
 1220              		.align	2
 1221              		.global	UART_XB2_GetTxBufferSize
 1222              		.code	16
 1223              		.thumb_func
 1224              		.type	UART_XB2_GetTxBufferSize, %function
 1225              	UART_XB2_GetTxBufferSize:
 1226              	.LFB25:
1240:Generated_Source\PSoC4/UART_XB2.c **** 
1241:Generated_Source\PSoC4/UART_XB2.c **** 
1242:Generated_Source\PSoC4/UART_XB2.c ****     /*******************************************************************************
1243:Generated_Source\PSoC4/UART_XB2.c ****     * Function Name: UART_XB2_GetTxBufferSize
1244:Generated_Source\PSoC4/UART_XB2.c ****     ********************************************************************************
1245:Generated_Source\PSoC4/UART_XB2.c ****     *
1246:Generated_Source\PSoC4/UART_XB2.c ****     * Summary:
1247:Generated_Source\PSoC4/UART_XB2.c ****     *  Returns the number of bytes in the TX buffer which are waiting to be 
1248:Generated_Source\PSoC4/UART_XB2.c ****     *  transmitted.
1249:Generated_Source\PSoC4/UART_XB2.c ****     *  * TX software buffer is disabled (TX Buffer Size parameter is equal to 4): 
1250:Generated_Source\PSoC4/UART_XB2.c ****     *    returns 0 for empty TX FIFO, 1 for not full TX FIFO or 4 for full TX FIFO.
1251:Generated_Source\PSoC4/UART_XB2.c ****     *  * TX software buffer is enabled: returns the number of bytes in the TX 
1252:Generated_Source\PSoC4/UART_XB2.c ****     *    software buffer which are waiting to be transmitted. Bytes available in the
1253:Generated_Source\PSoC4/UART_XB2.c ****     *    TX FIFO do not count.
1254:Generated_Source\PSoC4/UART_XB2.c ****     *
1255:Generated_Source\PSoC4/UART_XB2.c ****     * Parameters:
1256:Generated_Source\PSoC4/UART_XB2.c ****     *  None.
1257:Generated_Source\PSoC4/UART_XB2.c ****     *
1258:Generated_Source\PSoC4/UART_XB2.c ****     * Return:
1259:Generated_Source\PSoC4/UART_XB2.c ****     *  Number of bytes used in the TX buffer. Return value type depends on the TX 
1260:Generated_Source\PSoC4/UART_XB2.c ****     *  Buffer Size parameter.
1261:Generated_Source\PSoC4/UART_XB2.c ****     *
1262:Generated_Source\PSoC4/UART_XB2.c ****     * Global Variables:
1263:Generated_Source\PSoC4/UART_XB2.c ****     *  UART_XB2_txBufferWrite - used to calculate left space.
1264:Generated_Source\PSoC4/UART_XB2.c ****     *  UART_XB2_txBufferRead - used to calculate left space.
1265:Generated_Source\PSoC4/UART_XB2.c ****     *
1266:Generated_Source\PSoC4/UART_XB2.c ****     * Reentrant:
1267:Generated_Source\PSoC4/UART_XB2.c ****     *  No.
1268:Generated_Source\PSoC4/UART_XB2.c ****     *
1269:Generated_Source\PSoC4/UART_XB2.c ****     * Theory:
ARM GAS  C:\Users\Petro\AppData\Local\Temp\ccLVkPCw.s 			page 45


1270:Generated_Source\PSoC4/UART_XB2.c ****     *  Allows the user to find out how full the TX Buffer is.
1271:Generated_Source\PSoC4/UART_XB2.c ****     *
1272:Generated_Source\PSoC4/UART_XB2.c ****     *******************************************************************************/
1273:Generated_Source\PSoC4/UART_XB2.c ****     uint8 UART_XB2_GetTxBufferSize(void)
1274:Generated_Source\PSoC4/UART_XB2.c ****                                                             
1275:Generated_Source\PSoC4/UART_XB2.c ****     {
 1227              		.loc 1 1275 0
 1228              		.cfi_startproc
 1229 0000 10B5     		push	{r4, lr}
 1230              		.cfi_def_cfa_offset 8
 1231              		.cfi_offset 4, -8
 1232              		.cfi_offset 14, -4
1276:Generated_Source\PSoC4/UART_XB2.c ****         uint8 size;
1277:Generated_Source\PSoC4/UART_XB2.c **** 
1278:Generated_Source\PSoC4/UART_XB2.c ****     #if (UART_XB2_TX_INTERRUPT_ENABLED)
1279:Generated_Source\PSoC4/UART_XB2.c **** 
1280:Generated_Source\PSoC4/UART_XB2.c ****         /* Protect variables that could change on interrupt. */
1281:Generated_Source\PSoC4/UART_XB2.c ****         UART_XB2_DisableTxInt();
 1233              		.loc 1 1281 0
 1234 0002 0220     		mov	r0, #2
 1235 0004 FFF7FEFF 		bl	CyIntDisable
 1236              	.LVL112:
1282:Generated_Source\PSoC4/UART_XB2.c **** 
1283:Generated_Source\PSoC4/UART_XB2.c ****         if(UART_XB2_txBufferRead == UART_XB2_txBufferWrite)
 1237              		.loc 1 1283 0
 1238 0008 0D4B     		ldr	r3, .L106
 1239 000a 9A79     		ldrb	r2, [r3, #6]
 1240 000c D2B2     		uxtb	r2, r2
 1241 000e DB79     		ldrb	r3, [r3, #7]
 1242 0010 9A42     		cmp	r2, r3
 1243 0012 0FD0     		beq	.L105
1284:Generated_Source\PSoC4/UART_XB2.c ****         {
1285:Generated_Source\PSoC4/UART_XB2.c ****             size = 0u;
1286:Generated_Source\PSoC4/UART_XB2.c ****         }
1287:Generated_Source\PSoC4/UART_XB2.c ****         else if(UART_XB2_txBufferRead < UART_XB2_txBufferWrite)
 1244              		.loc 1 1287 0
 1245 0014 0A4A     		ldr	r2, .L106
 1246 0016 9279     		ldrb	r2, [r2, #6]
 1247 0018 D2B2     		uxtb	r2, r2
 1248 001a 9342     		cmp	r3, r2
 1249 001c 04D9     		bls	.L104
1288:Generated_Source\PSoC4/UART_XB2.c ****         {
1289:Generated_Source\PSoC4/UART_XB2.c ****             size = (UART_XB2_txBufferWrite - UART_XB2_txBufferRead);
 1250              		.loc 1 1289 0
 1251 001e 084A     		ldr	r2, .L106
 1252 0020 9479     		ldrb	r4, [r2, #6]
 1253 0022 1B1B     		sub	r3, r3, r4
 1254 0024 DCB2     		uxtb	r4, r3
 1255              	.LVL113:
 1256 0026 06E0     		b	.L103
 1257              	.LVL114:
 1258              	.L104:
1290:Generated_Source\PSoC4/UART_XB2.c ****         }
1291:Generated_Source\PSoC4/UART_XB2.c ****         else
1292:Generated_Source\PSoC4/UART_XB2.c ****         {
1293:Generated_Source\PSoC4/UART_XB2.c ****             size = (UART_XB2_TX_BUFFER_SIZE - UART_XB2_txBufferRead) +
 1259              		.loc 1 1293 0
ARM GAS  C:\Users\Petro\AppData\Local\Temp\ccLVkPCw.s 			page 46


 1260 0028 054A     		ldr	r2, .L106
 1261 002a 9479     		ldrb	r4, [r2, #6]
 1262 002c 1B1B     		sub	r3, r3, r4
 1263 002e 6433     		add	r3, r3, #100
 1264 0030 DCB2     		uxtb	r4, r3
 1265              	.LVL115:
 1266 0032 00E0     		b	.L103
 1267              	.LVL116:
 1268              	.L105:
1285:Generated_Source\PSoC4/UART_XB2.c ****         }
 1269              		.loc 1 1285 0
 1270 0034 0024     		mov	r4, #0
 1271              	.L103:
 1272              	.LVL117:
1294:Generated_Source\PSoC4/UART_XB2.c ****                     UART_XB2_txBufferWrite;
1295:Generated_Source\PSoC4/UART_XB2.c ****         }
1296:Generated_Source\PSoC4/UART_XB2.c **** 
1297:Generated_Source\PSoC4/UART_XB2.c ****         UART_XB2_EnableTxInt();
 1273              		.loc 1 1297 0
 1274 0036 0220     		mov	r0, #2
 1275 0038 FFF7FEFF 		bl	CyIntEnable
 1276              	.LVL118:
1298:Generated_Source\PSoC4/UART_XB2.c **** 
1299:Generated_Source\PSoC4/UART_XB2.c ****     #else
1300:Generated_Source\PSoC4/UART_XB2.c **** 
1301:Generated_Source\PSoC4/UART_XB2.c ****         size = UART_XB2_TXSTATUS_REG;
1302:Generated_Source\PSoC4/UART_XB2.c **** 
1303:Generated_Source\PSoC4/UART_XB2.c ****         /* Is the fifo is full. */
1304:Generated_Source\PSoC4/UART_XB2.c ****         if((size & UART_XB2_TX_STS_FIFO_FULL) != 0u)
1305:Generated_Source\PSoC4/UART_XB2.c ****         {
1306:Generated_Source\PSoC4/UART_XB2.c ****             size = UART_XB2_FIFO_LENGTH;
1307:Generated_Source\PSoC4/UART_XB2.c ****         }
1308:Generated_Source\PSoC4/UART_XB2.c ****         else if((size & UART_XB2_TX_STS_FIFO_EMPTY) != 0u)
1309:Generated_Source\PSoC4/UART_XB2.c ****         {
1310:Generated_Source\PSoC4/UART_XB2.c ****             size = 0u;
1311:Generated_Source\PSoC4/UART_XB2.c ****         }
1312:Generated_Source\PSoC4/UART_XB2.c ****         else
1313:Generated_Source\PSoC4/UART_XB2.c ****         {
1314:Generated_Source\PSoC4/UART_XB2.c ****             /* We only know there is data in the fifo. */
1315:Generated_Source\PSoC4/UART_XB2.c ****             size = 1u;
1316:Generated_Source\PSoC4/UART_XB2.c ****         }
1317:Generated_Source\PSoC4/UART_XB2.c **** 
1318:Generated_Source\PSoC4/UART_XB2.c ****     #endif /* (UART_XB2_TX_INTERRUPT_ENABLED) */
1319:Generated_Source\PSoC4/UART_XB2.c **** 
1320:Generated_Source\PSoC4/UART_XB2.c ****     return(size);
1321:Generated_Source\PSoC4/UART_XB2.c ****     }
 1277              		.loc 1 1321 0
 1278 003c 201C     		mov	r0, r4
 1279              		@ sp needed
 1280              	.LVL119:
 1281 003e 10BD     		pop	{r4, pc}
 1282              	.L107:
 1283              		.align	2
 1284              	.L106:
 1285 0040 00000000 		.word	.LANCHOR0
 1286              		.cfi_endproc
 1287              	.LFE25:
ARM GAS  C:\Users\Petro\AppData\Local\Temp\ccLVkPCw.s 			page 47


 1288              		.size	UART_XB2_GetTxBufferSize, .-UART_XB2_GetTxBufferSize
 1289              		.section	.text.UART_XB2_ClearTxBuffer,"ax",%progbits
 1290              		.align	2
 1291              		.global	UART_XB2_ClearTxBuffer
 1292              		.code	16
 1293              		.thumb_func
 1294              		.type	UART_XB2_ClearTxBuffer, %function
 1295              	UART_XB2_ClearTxBuffer:
 1296              	.LFB26:
1322:Generated_Source\PSoC4/UART_XB2.c **** 
1323:Generated_Source\PSoC4/UART_XB2.c **** 
1324:Generated_Source\PSoC4/UART_XB2.c ****     /*******************************************************************************
1325:Generated_Source\PSoC4/UART_XB2.c ****     * Function Name: UART_XB2_ClearTxBuffer
1326:Generated_Source\PSoC4/UART_XB2.c ****     ********************************************************************************
1327:Generated_Source\PSoC4/UART_XB2.c ****     *
1328:Generated_Source\PSoC4/UART_XB2.c ****     * Summary:
1329:Generated_Source\PSoC4/UART_XB2.c ****     *  Clears all data from the TX buffer and hardware TX FIFO.
1330:Generated_Source\PSoC4/UART_XB2.c ****     *
1331:Generated_Source\PSoC4/UART_XB2.c ****     * Parameters:
1332:Generated_Source\PSoC4/UART_XB2.c ****     *  None.
1333:Generated_Source\PSoC4/UART_XB2.c ****     *
1334:Generated_Source\PSoC4/UART_XB2.c ****     * Return:
1335:Generated_Source\PSoC4/UART_XB2.c ****     *  None.
1336:Generated_Source\PSoC4/UART_XB2.c ****     *
1337:Generated_Source\PSoC4/UART_XB2.c ****     * Global Variables:
1338:Generated_Source\PSoC4/UART_XB2.c ****     *  UART_XB2_txBufferWrite - cleared to zero.
1339:Generated_Source\PSoC4/UART_XB2.c ****     *  UART_XB2_txBufferRead - cleared to zero.
1340:Generated_Source\PSoC4/UART_XB2.c ****     *
1341:Generated_Source\PSoC4/UART_XB2.c ****     * Reentrant:
1342:Generated_Source\PSoC4/UART_XB2.c ****     *  No.
1343:Generated_Source\PSoC4/UART_XB2.c ****     *
1344:Generated_Source\PSoC4/UART_XB2.c ****     * Theory:
1345:Generated_Source\PSoC4/UART_XB2.c ****     *  Setting the pointers to zero makes the system believe there is no data to
1346:Generated_Source\PSoC4/UART_XB2.c ****     *  read and writing will resume at address 0 overwriting any data that may have
1347:Generated_Source\PSoC4/UART_XB2.c ****     *  remained in the RAM.
1348:Generated_Source\PSoC4/UART_XB2.c ****     *
1349:Generated_Source\PSoC4/UART_XB2.c ****     * Side Effects:
1350:Generated_Source\PSoC4/UART_XB2.c ****     *  Data waiting in the transmit buffer is not sent; a byte that is currently
1351:Generated_Source\PSoC4/UART_XB2.c ****     *  transmitting finishes transmitting.
1352:Generated_Source\PSoC4/UART_XB2.c ****     *
1353:Generated_Source\PSoC4/UART_XB2.c ****     *******************************************************************************/
1354:Generated_Source\PSoC4/UART_XB2.c ****     void UART_XB2_ClearTxBuffer(void) 
1355:Generated_Source\PSoC4/UART_XB2.c ****     {
 1297              		.loc 1 1355 0
 1298              		.cfi_startproc
 1299 0000 08B5     		push	{r3, lr}
 1300              		.cfi_def_cfa_offset 8
 1301              		.cfi_offset 3, -8
 1302              		.cfi_offset 14, -4
1356:Generated_Source\PSoC4/UART_XB2.c ****         uint8 enableInterrupts;
1357:Generated_Source\PSoC4/UART_XB2.c **** 
1358:Generated_Source\PSoC4/UART_XB2.c ****         enableInterrupts = CyEnterCriticalSection();
 1303              		.loc 1 1358 0
 1304 0002 FFF7FEFF 		bl	CyEnterCriticalSection
 1305              	.LVL120:
1359:Generated_Source\PSoC4/UART_XB2.c ****         /* Clear the HW FIFO */
1360:Generated_Source\PSoC4/UART_XB2.c ****         UART_XB2_TXDATA_AUX_CTL_REG |= (uint8)  UART_XB2_TX_FIFO_CLR;
ARM GAS  C:\Users\Petro\AppData\Local\Temp\ccLVkPCw.s 			page 48


 1306              		.loc 1 1360 0
 1307 0006 0B4B     		ldr	r3, .L109
 1308 0008 1978     		ldrb	r1, [r3]
 1309 000a 0122     		mov	r2, #1
 1310 000c 0A43     		orr	r2, r1
 1311 000e 1A70     		strb	r2, [r3]
1361:Generated_Source\PSoC4/UART_XB2.c ****         UART_XB2_TXDATA_AUX_CTL_REG &= (uint8) ~UART_XB2_TX_FIFO_CLR;
 1312              		.loc 1 1361 0
 1313 0010 1A78     		ldrb	r2, [r3]
 1314 0012 0121     		mov	r1, #1
 1315 0014 8A43     		bic	r2, r1
 1316 0016 1A70     		strb	r2, [r3]
1362:Generated_Source\PSoC4/UART_XB2.c ****         CyExitCriticalSection(enableInterrupts);
 1317              		.loc 1 1362 0
 1318 0018 FFF7FEFF 		bl	CyExitCriticalSection
 1319              	.LVL121:
1363:Generated_Source\PSoC4/UART_XB2.c **** 
1364:Generated_Source\PSoC4/UART_XB2.c ****     #if (UART_XB2_TX_INTERRUPT_ENABLED)
1365:Generated_Source\PSoC4/UART_XB2.c **** 
1366:Generated_Source\PSoC4/UART_XB2.c ****         /* Protect variables that could change on interrupt. */
1367:Generated_Source\PSoC4/UART_XB2.c ****         UART_XB2_DisableTxInt();
 1320              		.loc 1 1367 0
 1321 001c 0220     		mov	r0, #2
 1322 001e FFF7FEFF 		bl	CyIntDisable
 1323              	.LVL122:
1368:Generated_Source\PSoC4/UART_XB2.c **** 
1369:Generated_Source\PSoC4/UART_XB2.c ****         UART_XB2_txBufferRead = 0u;
 1324              		.loc 1 1369 0
 1325 0022 054B     		ldr	r3, .L109+4
 1326 0024 0022     		mov	r2, #0
 1327 0026 9A71     		strb	r2, [r3, #6]
1370:Generated_Source\PSoC4/UART_XB2.c ****         UART_XB2_txBufferWrite = 0u;
 1328              		.loc 1 1370 0
 1329 0028 DA71     		strb	r2, [r3, #7]
1371:Generated_Source\PSoC4/UART_XB2.c **** 
1372:Generated_Source\PSoC4/UART_XB2.c ****         /* Enable Tx interrupt. */
1373:Generated_Source\PSoC4/UART_XB2.c ****         UART_XB2_EnableTxInt();
 1330              		.loc 1 1373 0
 1331 002a 0220     		mov	r0, #2
 1332 002c FFF7FEFF 		bl	CyIntEnable
 1333              	.LVL123:
1374:Generated_Source\PSoC4/UART_XB2.c **** 
1375:Generated_Source\PSoC4/UART_XB2.c ****     #endif /* (UART_XB2_TX_INTERRUPT_ENABLED) */
1376:Generated_Source\PSoC4/UART_XB2.c ****     }
 1334              		.loc 1 1376 0
 1335              		@ sp needed
 1336 0030 08BD     		pop	{r3, pc}
 1337              	.L110:
 1338 0032 C046     		.align	2
 1339              	.L109:
 1340 0034 93000F40 		.word	1074725011
 1341 0038 00000000 		.word	.LANCHOR0
 1342              		.cfi_endproc
 1343              	.LFE26:
 1344              		.size	UART_XB2_ClearTxBuffer, .-UART_XB2_ClearTxBuffer
 1345              		.section	.text.UART_XB2_SendBreak,"ax",%progbits
 1346              		.align	2
ARM GAS  C:\Users\Petro\AppData\Local\Temp\ccLVkPCw.s 			page 49


 1347              		.global	UART_XB2_SendBreak
 1348              		.code	16
 1349              		.thumb_func
 1350              		.type	UART_XB2_SendBreak, %function
 1351              	UART_XB2_SendBreak:
 1352              	.LFB27:
1377:Generated_Source\PSoC4/UART_XB2.c **** 
1378:Generated_Source\PSoC4/UART_XB2.c **** 
1379:Generated_Source\PSoC4/UART_XB2.c ****     /*******************************************************************************
1380:Generated_Source\PSoC4/UART_XB2.c ****     * Function Name: UART_XB2_SendBreak
1381:Generated_Source\PSoC4/UART_XB2.c ****     ********************************************************************************
1382:Generated_Source\PSoC4/UART_XB2.c ****     *
1383:Generated_Source\PSoC4/UART_XB2.c ****     * Summary:
1384:Generated_Source\PSoC4/UART_XB2.c ****     *  Transmits a break signal on the bus.
1385:Generated_Source\PSoC4/UART_XB2.c ****     *
1386:Generated_Source\PSoC4/UART_XB2.c ****     * Parameters:
1387:Generated_Source\PSoC4/UART_XB2.c ****     *  uint8 retMode:  Send Break return mode. See the following table for options.
1388:Generated_Source\PSoC4/UART_XB2.c ****     *   UART_XB2_SEND_BREAK - Initialize registers for break, send the Break
1389:Generated_Source\PSoC4/UART_XB2.c ****     *       signal and return immediately.
1390:Generated_Source\PSoC4/UART_XB2.c ****     *   UART_XB2_WAIT_FOR_COMPLETE_REINIT - Wait until break transmission is
1391:Generated_Source\PSoC4/UART_XB2.c ****     *       complete, reinitialize registers to normal transmission mode then return
1392:Generated_Source\PSoC4/UART_XB2.c ****     *   UART_XB2_REINIT - Reinitialize registers to normal transmission mode
1393:Generated_Source\PSoC4/UART_XB2.c ****     *       then return.
1394:Generated_Source\PSoC4/UART_XB2.c ****     *   UART_XB2_SEND_WAIT_REINIT - Performs both options: 
1395:Generated_Source\PSoC4/UART_XB2.c ****     *      UART_XB2_SEND_BREAK and UART_XB2_WAIT_FOR_COMPLETE_REINIT.
1396:Generated_Source\PSoC4/UART_XB2.c ****     *      This option is recommended for most cases.
1397:Generated_Source\PSoC4/UART_XB2.c ****     *
1398:Generated_Source\PSoC4/UART_XB2.c ****     * Return:
1399:Generated_Source\PSoC4/UART_XB2.c ****     *  None.
1400:Generated_Source\PSoC4/UART_XB2.c ****     *
1401:Generated_Source\PSoC4/UART_XB2.c ****     * Global Variables:
1402:Generated_Source\PSoC4/UART_XB2.c ****     *  UART_XB2_initVar - checked to identify that the component has been
1403:Generated_Source\PSoC4/UART_XB2.c ****     *     initialized.
1404:Generated_Source\PSoC4/UART_XB2.c ****     *  txPeriod - static variable, used for keeping TX period configuration.
1405:Generated_Source\PSoC4/UART_XB2.c ****     *
1406:Generated_Source\PSoC4/UART_XB2.c ****     * Reentrant:
1407:Generated_Source\PSoC4/UART_XB2.c ****     *  No.
1408:Generated_Source\PSoC4/UART_XB2.c ****     *
1409:Generated_Source\PSoC4/UART_XB2.c ****     * Theory:
1410:Generated_Source\PSoC4/UART_XB2.c ****     *  SendBreak function initializes registers to send 13-bit break signal. It is
1411:Generated_Source\PSoC4/UART_XB2.c ****     *  important to return the registers configuration to normal for continue 8-bit
1412:Generated_Source\PSoC4/UART_XB2.c ****     *  operation.
1413:Generated_Source\PSoC4/UART_XB2.c ****     *  There are 3 variants for this API usage:
1414:Generated_Source\PSoC4/UART_XB2.c ****     *  1) SendBreak(3) - function will send the Break signal and take care on the
1415:Generated_Source\PSoC4/UART_XB2.c ****     *     configuration returning. Function will block CPU until transmission
1416:Generated_Source\PSoC4/UART_XB2.c ****     *     complete.
1417:Generated_Source\PSoC4/UART_XB2.c ****     *  2) User may want to use blocking time if UART configured to the low speed
1418:Generated_Source\PSoC4/UART_XB2.c ****     *     operation
1419:Generated_Source\PSoC4/UART_XB2.c ****     *     Example for this case:
1420:Generated_Source\PSoC4/UART_XB2.c ****     *     SendBreak(0);     - initialize Break signal transmission
1421:Generated_Source\PSoC4/UART_XB2.c ****     *         Add your code here to use CPU time
1422:Generated_Source\PSoC4/UART_XB2.c ****     *     SendBreak(1);     - complete Break operation
1423:Generated_Source\PSoC4/UART_XB2.c ****     *  3) Same to 2) but user may want to initialize and use the interrupt to
1424:Generated_Source\PSoC4/UART_XB2.c ****     *     complete break operation.
1425:Generated_Source\PSoC4/UART_XB2.c ****     *     Example for this case:
1426:Generated_Source\PSoC4/UART_XB2.c ****     *     Initialize TX interrupt with "TX - On TX Complete" parameter
1427:Generated_Source\PSoC4/UART_XB2.c ****     *     SendBreak(0);     - initialize Break signal transmission
ARM GAS  C:\Users\Petro\AppData\Local\Temp\ccLVkPCw.s 			page 50


1428:Generated_Source\PSoC4/UART_XB2.c ****     *         Add your code here to use CPU time
1429:Generated_Source\PSoC4/UART_XB2.c ****     *     When interrupt appear with UART_XB2_TX_STS_COMPLETE status:
1430:Generated_Source\PSoC4/UART_XB2.c ****     *     SendBreak(2);     - complete Break operation
1431:Generated_Source\PSoC4/UART_XB2.c ****     *
1432:Generated_Source\PSoC4/UART_XB2.c ****     * Side Effects:
1433:Generated_Source\PSoC4/UART_XB2.c ****     *  The UART_XB2_SendBreak() function initializes registers to send a
1434:Generated_Source\PSoC4/UART_XB2.c ****     *  break signal.
1435:Generated_Source\PSoC4/UART_XB2.c ****     *  Break signal length depends on the break signal bits configuration.
1436:Generated_Source\PSoC4/UART_XB2.c ****     *  The register configuration should be reinitialized before normal 8-bit
1437:Generated_Source\PSoC4/UART_XB2.c ****     *  communication can continue.
1438:Generated_Source\PSoC4/UART_XB2.c ****     *
1439:Generated_Source\PSoC4/UART_XB2.c ****     *******************************************************************************/
1440:Generated_Source\PSoC4/UART_XB2.c ****     void UART_XB2_SendBreak(uint8 retMode) 
1441:Generated_Source\PSoC4/UART_XB2.c ****     {
 1353              		.loc 1 1441 0
 1354              		.cfi_startproc
 1355              	.LVL124:
1442:Generated_Source\PSoC4/UART_XB2.c **** 
1443:Generated_Source\PSoC4/UART_XB2.c ****         /* If not Initialized then skip this function*/
1444:Generated_Source\PSoC4/UART_XB2.c ****         if(UART_XB2_initVar != 0u)
 1356              		.loc 1 1444 0
 1357 0000 124B     		ldr	r3, .L118
 1358 0002 5B78     		ldrb	r3, [r3, #1]
 1359 0004 002B     		cmp	r3, #0
 1360 0006 1FD0     		beq	.L111
 1361              	.LBB2:
1445:Generated_Source\PSoC4/UART_XB2.c ****         {
1446:Generated_Source\PSoC4/UART_XB2.c ****             /* Set the Counter to 13-bits and transmit a 00 byte */
1447:Generated_Source\PSoC4/UART_XB2.c ****             /* When that is done then reset the counter value back */
1448:Generated_Source\PSoC4/UART_XB2.c ****             uint8 tmpStat;
1449:Generated_Source\PSoC4/UART_XB2.c **** 
1450:Generated_Source\PSoC4/UART_XB2.c ****         #if(UART_XB2_HD_ENABLED) /* Half Duplex mode*/
1451:Generated_Source\PSoC4/UART_XB2.c **** 
1452:Generated_Source\PSoC4/UART_XB2.c ****             if( (retMode == UART_XB2_SEND_BREAK) ||
1453:Generated_Source\PSoC4/UART_XB2.c ****                 (retMode == UART_XB2_SEND_WAIT_REINIT ) )
1454:Generated_Source\PSoC4/UART_XB2.c ****             {
1455:Generated_Source\PSoC4/UART_XB2.c ****                 /* CTRL_HD_SEND_BREAK - sends break bits in HD mode */
1456:Generated_Source\PSoC4/UART_XB2.c ****                 UART_XB2_WriteControlRegister(UART_XB2_ReadControlRegister() |
1457:Generated_Source\PSoC4/UART_XB2.c ****                                                       UART_XB2_CTRL_HD_SEND_BREAK);
1458:Generated_Source\PSoC4/UART_XB2.c ****                 /* Send zeros */
1459:Generated_Source\PSoC4/UART_XB2.c ****                 UART_XB2_TXDATA_REG = 0u;
1460:Generated_Source\PSoC4/UART_XB2.c **** 
1461:Generated_Source\PSoC4/UART_XB2.c ****                 do /* Wait until transmit starts */
1462:Generated_Source\PSoC4/UART_XB2.c ****                 {
1463:Generated_Source\PSoC4/UART_XB2.c ****                     tmpStat = UART_XB2_TXSTATUS_REG;
1464:Generated_Source\PSoC4/UART_XB2.c ****                 }
1465:Generated_Source\PSoC4/UART_XB2.c ****                 while((tmpStat & UART_XB2_TX_STS_FIFO_EMPTY) != 0u);
1466:Generated_Source\PSoC4/UART_XB2.c ****             }
1467:Generated_Source\PSoC4/UART_XB2.c **** 
1468:Generated_Source\PSoC4/UART_XB2.c ****             if( (retMode == UART_XB2_WAIT_FOR_COMPLETE_REINIT) ||
1469:Generated_Source\PSoC4/UART_XB2.c ****                 (retMode == UART_XB2_SEND_WAIT_REINIT) )
1470:Generated_Source\PSoC4/UART_XB2.c ****             {
1471:Generated_Source\PSoC4/UART_XB2.c ****                 do /* Wait until transmit complete */
1472:Generated_Source\PSoC4/UART_XB2.c ****                 {
1473:Generated_Source\PSoC4/UART_XB2.c ****                     tmpStat = UART_XB2_TXSTATUS_REG;
1474:Generated_Source\PSoC4/UART_XB2.c ****                 }
1475:Generated_Source\PSoC4/UART_XB2.c ****                 while(((uint8)~tmpStat & UART_XB2_TX_STS_COMPLETE) != 0u);
ARM GAS  C:\Users\Petro\AppData\Local\Temp\ccLVkPCw.s 			page 51


1476:Generated_Source\PSoC4/UART_XB2.c ****             }
1477:Generated_Source\PSoC4/UART_XB2.c **** 
1478:Generated_Source\PSoC4/UART_XB2.c ****             if( (retMode == UART_XB2_WAIT_FOR_COMPLETE_REINIT) ||
1479:Generated_Source\PSoC4/UART_XB2.c ****                 (retMode == UART_XB2_REINIT) ||
1480:Generated_Source\PSoC4/UART_XB2.c ****                 (retMode == UART_XB2_SEND_WAIT_REINIT) )
1481:Generated_Source\PSoC4/UART_XB2.c ****             {
1482:Generated_Source\PSoC4/UART_XB2.c ****                 UART_XB2_WriteControlRegister(UART_XB2_ReadControlRegister() &
1483:Generated_Source\PSoC4/UART_XB2.c ****                                               (uint8)~UART_XB2_CTRL_HD_SEND_BREAK);
1484:Generated_Source\PSoC4/UART_XB2.c ****             }
1485:Generated_Source\PSoC4/UART_XB2.c **** 
1486:Generated_Source\PSoC4/UART_XB2.c ****         #else /* UART_XB2_HD_ENABLED Full Duplex mode */
1487:Generated_Source\PSoC4/UART_XB2.c **** 
1488:Generated_Source\PSoC4/UART_XB2.c ****             static uint8 txPeriod;
1489:Generated_Source\PSoC4/UART_XB2.c **** 
1490:Generated_Source\PSoC4/UART_XB2.c ****             if( (retMode == UART_XB2_SEND_BREAK) ||
 1362              		.loc 1 1490 0
 1363 0008 0028     		cmp	r0, #0
 1364 000a 01D0     		beq	.L113
 1365              		.loc 1 1490 0 is_stmt 0 discriminator 1
 1366 000c 0328     		cmp	r0, #3
 1367 000e 0CD1     		bne	.L114
 1368              	.L113:
1491:Generated_Source\PSoC4/UART_XB2.c ****                 (retMode == UART_XB2_SEND_WAIT_REINIT) )
1492:Generated_Source\PSoC4/UART_XB2.c ****             {
1493:Generated_Source\PSoC4/UART_XB2.c ****                 /* CTRL_HD_SEND_BREAK - skip to send parity bit at Break signal in Full Duplex mode
1494:Generated_Source\PSoC4/UART_XB2.c ****                 #if( (UART_XB2_PARITY_TYPE != UART_XB2__B_UART__NONE_REVB) || \
1495:Generated_Source\PSoC4/UART_XB2.c ****                                     (UART_XB2_PARITY_TYPE_SW != 0u) )
1496:Generated_Source\PSoC4/UART_XB2.c ****                     UART_XB2_WriteControlRegister(UART_XB2_ReadControlRegister() |
1497:Generated_Source\PSoC4/UART_XB2.c ****                                                           UART_XB2_CTRL_HD_SEND_BREAK);
1498:Generated_Source\PSoC4/UART_XB2.c ****                 #endif /* End UART_XB2_PARITY_TYPE != UART_XB2__B_UART__NONE_REVB  */
1499:Generated_Source\PSoC4/UART_XB2.c **** 
1500:Generated_Source\PSoC4/UART_XB2.c ****                 #if(UART_XB2_TXCLKGEN_DP)
1501:Generated_Source\PSoC4/UART_XB2.c ****                     txPeriod = UART_XB2_TXBITCLKTX_COMPLETE_REG;
 1369              		.loc 1 1501 0 is_stmt 1
 1370 0010 0F4B     		ldr	r3, .L118+4
 1371 0012 1978     		ldrb	r1, [r3]
 1372 0014 0D4A     		ldr	r2, .L118
 1373 0016 1172     		strb	r1, [r2, #8]
1502:Generated_Source\PSoC4/UART_XB2.c ****                     UART_XB2_TXBITCLKTX_COMPLETE_REG = UART_XB2_TXBITCTR_BREAKBITS;
 1374              		.loc 1 1502 0
 1375 0018 6722     		mov	r2, #103
 1376 001a 1A70     		strb	r2, [r3]
1503:Generated_Source\PSoC4/UART_XB2.c ****                 #else
1504:Generated_Source\PSoC4/UART_XB2.c ****                     txPeriod = UART_XB2_TXBITCTR_PERIOD_REG;
1505:Generated_Source\PSoC4/UART_XB2.c ****                     UART_XB2_TXBITCTR_PERIOD_REG = UART_XB2_TXBITCTR_BREAKBITS8X;
1506:Generated_Source\PSoC4/UART_XB2.c ****                 #endif /* End UART_XB2_TXCLKGEN_DP */
1507:Generated_Source\PSoC4/UART_XB2.c **** 
1508:Generated_Source\PSoC4/UART_XB2.c ****                 /* Send zeros */
1509:Generated_Source\PSoC4/UART_XB2.c ****                 UART_XB2_TXDATA_REG = 0u;
 1377              		.loc 1 1509 0
 1378 001c 0022     		mov	r2, #0
 1379 001e 0D4B     		ldr	r3, .L118+8
 1380 0020 1A70     		strb	r2, [r3]
 1381              	.L115:
1510:Generated_Source\PSoC4/UART_XB2.c **** 
1511:Generated_Source\PSoC4/UART_XB2.c ****                 do /* Wait until transmit starts */
1512:Generated_Source\PSoC4/UART_XB2.c ****                 {
ARM GAS  C:\Users\Petro\AppData\Local\Temp\ccLVkPCw.s 			page 52


1513:Generated_Source\PSoC4/UART_XB2.c ****                     tmpStat = UART_XB2_TXSTATUS_REG;
 1382              		.loc 1 1513 0 discriminator 1
 1383 0022 0D4B     		ldr	r3, .L118+12
 1384 0024 1B78     		ldrb	r3, [r3]
 1385              	.LVL125:
1514:Generated_Source\PSoC4/UART_XB2.c ****                 }
1515:Generated_Source\PSoC4/UART_XB2.c ****                 while((tmpStat & UART_XB2_TX_STS_FIFO_EMPTY) != 0u);
 1386              		.loc 1 1515 0 discriminator 1
 1387 0026 9B07     		lsl	r3, r3, #30
 1388 0028 FBD4     		bmi	.L115
 1389              	.LVL126:
 1390              	.L114:
1516:Generated_Source\PSoC4/UART_XB2.c ****             }
1517:Generated_Source\PSoC4/UART_XB2.c **** 
1518:Generated_Source\PSoC4/UART_XB2.c ****             if( (retMode == UART_XB2_WAIT_FOR_COMPLETE_REINIT) ||
 1391              		.loc 1 1518 0
 1392 002a 0128     		cmp	r0, #1
 1393 002c 01D0     		beq	.L116
 1394              		.loc 1 1518 0 is_stmt 0 discriminator 1
 1395 002e 0328     		cmp	r0, #3
 1396 0030 03D1     		bne	.L117
 1397              	.L116:
1519:Generated_Source\PSoC4/UART_XB2.c ****                 (retMode == UART_XB2_SEND_WAIT_REINIT) )
1520:Generated_Source\PSoC4/UART_XB2.c ****             {
1521:Generated_Source\PSoC4/UART_XB2.c ****                 do /* Wait until transmit complete */
1522:Generated_Source\PSoC4/UART_XB2.c ****                 {
1523:Generated_Source\PSoC4/UART_XB2.c ****                     tmpStat = UART_XB2_TXSTATUS_REG;
 1398              		.loc 1 1523 0 is_stmt 1 discriminator 1
 1399 0032 094B     		ldr	r3, .L118+12
 1400 0034 1B78     		ldrb	r3, [r3]
 1401              	.LVL127:
1524:Generated_Source\PSoC4/UART_XB2.c ****                 }
1525:Generated_Source\PSoC4/UART_XB2.c ****                 while(((uint8)~tmpStat & UART_XB2_TX_STS_COMPLETE) != 0u);
 1402              		.loc 1 1525 0 discriminator 1
 1403 0036 DB07     		lsl	r3, r3, #31
 1404 0038 FBD5     		bpl	.L116
 1405              	.LVL128:
 1406              	.L117:
1526:Generated_Source\PSoC4/UART_XB2.c ****             }
1527:Generated_Source\PSoC4/UART_XB2.c **** 
1528:Generated_Source\PSoC4/UART_XB2.c ****             if( (retMode == UART_XB2_WAIT_FOR_COMPLETE_REINIT) ||
1529:Generated_Source\PSoC4/UART_XB2.c ****                 (retMode == UART_XB2_REINIT) ||
 1407              		.loc 1 1529 0
 1408 003a 0138     		sub	r0, r0, #1
 1409              	.LVL129:
1528:Generated_Source\PSoC4/UART_XB2.c ****                 (retMode == UART_XB2_REINIT) ||
 1410              		.loc 1 1528 0
 1411 003c 0228     		cmp	r0, #2
 1412 003e 03D8     		bhi	.L111
1530:Generated_Source\PSoC4/UART_XB2.c ****                 (retMode == UART_XB2_SEND_WAIT_REINIT) )
1531:Generated_Source\PSoC4/UART_XB2.c ****             {
1532:Generated_Source\PSoC4/UART_XB2.c **** 
1533:Generated_Source\PSoC4/UART_XB2.c ****             #if(UART_XB2_TXCLKGEN_DP)
1534:Generated_Source\PSoC4/UART_XB2.c ****                 UART_XB2_TXBITCLKTX_COMPLETE_REG = txPeriod;
 1413              		.loc 1 1534 0
 1414 0040 024B     		ldr	r3, .L118
 1415 0042 1A7A     		ldrb	r2, [r3, #8]
ARM GAS  C:\Users\Petro\AppData\Local\Temp\ccLVkPCw.s 			page 53


 1416 0044 024B     		ldr	r3, .L118+4
 1417 0046 1A70     		strb	r2, [r3]
 1418              	.L111:
 1419              	.LBE2:
1535:Generated_Source\PSoC4/UART_XB2.c ****             #else
1536:Generated_Source\PSoC4/UART_XB2.c ****                 UART_XB2_TXBITCTR_PERIOD_REG = txPeriod;
1537:Generated_Source\PSoC4/UART_XB2.c ****             #endif /* End UART_XB2_TXCLKGEN_DP */
1538:Generated_Source\PSoC4/UART_XB2.c **** 
1539:Generated_Source\PSoC4/UART_XB2.c ****             #if( (UART_XB2_PARITY_TYPE != UART_XB2__B_UART__NONE_REVB) || \
1540:Generated_Source\PSoC4/UART_XB2.c ****                  (UART_XB2_PARITY_TYPE_SW != 0u) )
1541:Generated_Source\PSoC4/UART_XB2.c ****                 UART_XB2_WriteControlRegister(UART_XB2_ReadControlRegister() &
1542:Generated_Source\PSoC4/UART_XB2.c ****                                                       (uint8) ~UART_XB2_CTRL_HD_SEND_BREAK);
1543:Generated_Source\PSoC4/UART_XB2.c ****             #endif /* End UART_XB2_PARITY_TYPE != NONE */
1544:Generated_Source\PSoC4/UART_XB2.c ****             }
1545:Generated_Source\PSoC4/UART_XB2.c ****         #endif    /* End UART_XB2_HD_ENABLED */
1546:Generated_Source\PSoC4/UART_XB2.c ****         }
1547:Generated_Source\PSoC4/UART_XB2.c ****     }
 1420              		.loc 1 1547 0
 1421              		@ sp needed
 1422 0048 7047     		bx	lr
 1423              	.L119:
 1424 004a C046     		.align	2
 1425              	.L118:
 1426 004c 00000000 		.word	.LANCHOR0
 1427 0050 32000F40 		.word	1074724914
 1428 0054 43000F40 		.word	1074724931
 1429 0058 63000F40 		.word	1074724963
 1430              		.cfi_endproc
 1431              	.LFE27:
 1432              		.size	UART_XB2_SendBreak, .-UART_XB2_SendBreak
 1433              		.section	.text.UART_XB2_SetTxAddressMode,"ax",%progbits
 1434              		.align	2
 1435              		.global	UART_XB2_SetTxAddressMode
 1436              		.code	16
 1437              		.thumb_func
 1438              		.type	UART_XB2_SetTxAddressMode, %function
 1439              	UART_XB2_SetTxAddressMode:
 1440              	.LFB28:
1548:Generated_Source\PSoC4/UART_XB2.c **** 
1549:Generated_Source\PSoC4/UART_XB2.c **** 
1550:Generated_Source\PSoC4/UART_XB2.c ****     /*******************************************************************************
1551:Generated_Source\PSoC4/UART_XB2.c ****     * Function Name: UART_XB2_SetTxAddressMode
1552:Generated_Source\PSoC4/UART_XB2.c ****     ********************************************************************************
1553:Generated_Source\PSoC4/UART_XB2.c ****     *
1554:Generated_Source\PSoC4/UART_XB2.c ****     * Summary:
1555:Generated_Source\PSoC4/UART_XB2.c ****     *  Configures the transmitter to signal the next bytes is address or data.
1556:Generated_Source\PSoC4/UART_XB2.c ****     *
1557:Generated_Source\PSoC4/UART_XB2.c ****     * Parameters:
1558:Generated_Source\PSoC4/UART_XB2.c ****     *  addressMode: 
1559:Generated_Source\PSoC4/UART_XB2.c ****     *       UART_XB2_SET_SPACE - Configure the transmitter to send the next
1560:Generated_Source\PSoC4/UART_XB2.c ****     *                                    byte as a data.
1561:Generated_Source\PSoC4/UART_XB2.c ****     *       UART_XB2_SET_MARK  - Configure the transmitter to send the next
1562:Generated_Source\PSoC4/UART_XB2.c ****     *                                    byte as an address.
1563:Generated_Source\PSoC4/UART_XB2.c ****     *
1564:Generated_Source\PSoC4/UART_XB2.c ****     * Return:
1565:Generated_Source\PSoC4/UART_XB2.c ****     *  None.
1566:Generated_Source\PSoC4/UART_XB2.c ****     *
ARM GAS  C:\Users\Petro\AppData\Local\Temp\ccLVkPCw.s 			page 54


1567:Generated_Source\PSoC4/UART_XB2.c ****     * Side Effects:
1568:Generated_Source\PSoC4/UART_XB2.c ****     *  This function sets and clears UART_XB2_CTRL_MARK bit in the Control
1569:Generated_Source\PSoC4/UART_XB2.c ****     *  register.
1570:Generated_Source\PSoC4/UART_XB2.c ****     *
1571:Generated_Source\PSoC4/UART_XB2.c ****     *******************************************************************************/
1572:Generated_Source\PSoC4/UART_XB2.c ****     void UART_XB2_SetTxAddressMode(uint8 addressMode) 
1573:Generated_Source\PSoC4/UART_XB2.c ****     {
 1441              		.loc 1 1573 0
 1442              		.cfi_startproc
 1443              	.LVL130:
1574:Generated_Source\PSoC4/UART_XB2.c ****         /* Mark/Space sending enable */
1575:Generated_Source\PSoC4/UART_XB2.c ****         if(addressMode != 0u)
1576:Generated_Source\PSoC4/UART_XB2.c ****         {
1577:Generated_Source\PSoC4/UART_XB2.c ****         #if( UART_XB2_CONTROL_REG_REMOVED == 0u )
1578:Generated_Source\PSoC4/UART_XB2.c ****             UART_XB2_WriteControlRegister(UART_XB2_ReadControlRegister() |
1579:Generated_Source\PSoC4/UART_XB2.c ****                                                   UART_XB2_CTRL_MARK);
1580:Generated_Source\PSoC4/UART_XB2.c ****         #endif /* End UART_XB2_CONTROL_REG_REMOVED == 0u */
1581:Generated_Source\PSoC4/UART_XB2.c ****         }
1582:Generated_Source\PSoC4/UART_XB2.c ****         else
1583:Generated_Source\PSoC4/UART_XB2.c ****         {
1584:Generated_Source\PSoC4/UART_XB2.c ****         #if( UART_XB2_CONTROL_REG_REMOVED == 0u )
1585:Generated_Source\PSoC4/UART_XB2.c ****             UART_XB2_WriteControlRegister(UART_XB2_ReadControlRegister() &
1586:Generated_Source\PSoC4/UART_XB2.c ****                                                   (uint8) ~UART_XB2_CTRL_MARK);
1587:Generated_Source\PSoC4/UART_XB2.c ****         #endif /* End UART_XB2_CONTROL_REG_REMOVED == 0u */
1588:Generated_Source\PSoC4/UART_XB2.c ****         }
1589:Generated_Source\PSoC4/UART_XB2.c ****     }
 1444              		.loc 1 1589 0
 1445              		@ sp needed
 1446 0000 7047     		bx	lr
 1447              		.cfi_endproc
 1448              	.LFE28:
 1449              		.size	UART_XB2_SetTxAddressMode, .-UART_XB2_SetTxAddressMode
 1450              		.global	UART_XB2_rxBufferOverflow
 1451              		.global	UART_XB2_rxBufferLoopDetect
 1452              		.global	UART_XB2_rxBufferWrite
 1453              		.global	UART_XB2_rxBufferRead
 1454              		.comm	UART_XB2_rxBuffer,100,4
 1455              		.global	UART_XB2_errorStatus
 1456              		.global	UART_XB2_txBufferWrite
 1457              		.global	UART_XB2_txBufferRead
 1458              		.comm	UART_XB2_txBuffer,100,4
 1459              		.global	UART_XB2_initVar
 1460 0002 C046     		.bss
 1461              		.set	.LANCHOR0,. + 0
 1462              		.type	UART_XB2_errorStatus, %object
 1463              		.size	UART_XB2_errorStatus, 1
 1464              	UART_XB2_errorStatus:
 1465 0000 00       		.space	1
 1466              		.type	UART_XB2_initVar, %object
 1467              		.size	UART_XB2_initVar, 1
 1468              	UART_XB2_initVar:
 1469 0001 00       		.space	1
 1470              		.type	UART_XB2_rxBufferRead, %object
 1471              		.size	UART_XB2_rxBufferRead, 1
 1472              	UART_XB2_rxBufferRead:
 1473 0002 00       		.space	1
 1474              		.type	UART_XB2_rxBufferWrite, %object
ARM GAS  C:\Users\Petro\AppData\Local\Temp\ccLVkPCw.s 			page 55


 1475              		.size	UART_XB2_rxBufferWrite, 1
 1476              	UART_XB2_rxBufferWrite:
 1477 0003 00       		.space	1
 1478              		.type	UART_XB2_rxBufferLoopDetect, %object
 1479              		.size	UART_XB2_rxBufferLoopDetect, 1
 1480              	UART_XB2_rxBufferLoopDetect:
 1481 0004 00       		.space	1
 1482              		.type	UART_XB2_rxBufferOverflow, %object
 1483              		.size	UART_XB2_rxBufferOverflow, 1
 1484              	UART_XB2_rxBufferOverflow:
 1485 0005 00       		.space	1
 1486              		.type	UART_XB2_txBufferRead, %object
 1487              		.size	UART_XB2_txBufferRead, 1
 1488              	UART_XB2_txBufferRead:
 1489 0006 00       		.space	1
 1490              		.type	UART_XB2_txBufferWrite, %object
 1491              		.size	UART_XB2_txBufferWrite, 1
 1492              	UART_XB2_txBufferWrite:
 1493 0007 00       		.space	1
 1494              		.type	txPeriod.4926, %object
 1495              		.size	txPeriod.4926, 1
 1496              	txPeriod.4926:
 1497 0008 00       		.space	1
 1498              		.text
 1499              	.Letext0:
 1500              		.file 2 "Generated_Source\\PSoC4\\cytypes.h"
 1501              		.file 3 "Generated_Source\\PSoC4\\CyLib.h"
 1502              		.file 4 "Generated_Source\\PSoC4\\UART_XB2_IntClock.h"
 1503              		.section	.debug_info,"",%progbits
 1504              	.Ldebug_info0:
 1505 0000 9E090000 		.4byte	0x99e
 1506 0004 0400     		.2byte	0x4
 1507 0006 00000000 		.4byte	.Ldebug_abbrev0
 1508 000a 04       		.byte	0x4
 1509 000b 01       		.uleb128 0x1
 1510 000c B8030000 		.4byte	.LASF83
 1511 0010 01       		.byte	0x1
 1512 0011 3B030000 		.4byte	.LASF84
 1513 0015 B8010000 		.4byte	.LASF85
 1514 0019 00000000 		.4byte	.Ldebug_ranges0+0
 1515 001d 00000000 		.4byte	0
 1516 0021 00000000 		.4byte	.Ldebug_line0
 1517 0025 02       		.uleb128 0x2
 1518 0026 01       		.byte	0x1
 1519 0027 06       		.byte	0x6
 1520 0028 DF000000 		.4byte	.LASF0
 1521 002c 02       		.uleb128 0x2
 1522 002d 01       		.byte	0x1
 1523 002e 08       		.byte	0x8
 1524 002f 7A040000 		.4byte	.LASF1
 1525 0033 02       		.uleb128 0x2
 1526 0034 02       		.byte	0x2
 1527 0035 05       		.byte	0x5
 1528 0036 9F040000 		.4byte	.LASF2
 1529 003a 02       		.uleb128 0x2
 1530 003b 02       		.byte	0x2
 1531 003c 07       		.byte	0x7
ARM GAS  C:\Users\Petro\AppData\Local\Temp\ccLVkPCw.s 			page 56


 1532 003d DA020000 		.4byte	.LASF3
 1533 0041 02       		.uleb128 0x2
 1534 0042 04       		.byte	0x4
 1535 0043 05       		.byte	0x5
 1536 0044 F4000000 		.4byte	.LASF4
 1537 0048 02       		.uleb128 0x2
 1538 0049 04       		.byte	0x4
 1539 004a 07       		.byte	0x7
 1540 004b 7A020000 		.4byte	.LASF5
 1541 004f 02       		.uleb128 0x2
 1542 0050 08       		.byte	0x8
 1543 0051 05       		.byte	0x5
 1544 0052 D1000000 		.4byte	.LASF6
 1545 0056 02       		.uleb128 0x2
 1546 0057 08       		.byte	0x8
 1547 0058 07       		.byte	0x7
 1548 0059 62000000 		.4byte	.LASF7
 1549 005d 03       		.uleb128 0x3
 1550 005e 04       		.byte	0x4
 1551 005f 05       		.byte	0x5
 1552 0060 696E7400 		.ascii	"int\000"
 1553 0064 02       		.uleb128 0x2
 1554 0065 04       		.byte	0x4
 1555 0066 07       		.byte	0x7
 1556 0067 23020000 		.4byte	.LASF8
 1557 006b 04       		.uleb128 0x4
 1558 006c 0A010000 		.4byte	.LASF9
 1559 0070 02       		.byte	0x2
 1560 0071 B901     		.2byte	0x1b9
 1561 0073 2C000000 		.4byte	0x2c
 1562 0077 04       		.uleb128 0x4
 1563 0078 00000000 		.4byte	.LASF10
 1564 007c 02       		.byte	0x2
 1565 007d BA01     		.2byte	0x1ba
 1566 007f 3A000000 		.4byte	0x3a
 1567 0083 04       		.uleb128 0x4
 1568 0084 60010000 		.4byte	.LASF11
 1569 0088 02       		.byte	0x2
 1570 0089 BB01     		.2byte	0x1bb
 1571 008b 48000000 		.4byte	0x48
 1572 008f 02       		.uleb128 0x2
 1573 0090 04       		.byte	0x4
 1574 0091 04       		.byte	0x4
 1575 0092 68040000 		.4byte	.LASF12
 1576 0096 02       		.uleb128 0x2
 1577 0097 08       		.byte	0x8
 1578 0098 04       		.byte	0x4
 1579 0099 10010000 		.4byte	.LASF13
 1580 009d 04       		.uleb128 0x4
 1581 009e 34050000 		.4byte	.LASF14
 1582 00a2 02       		.byte	0x2
 1583 00a3 CA01     		.2byte	0x1ca
 1584 00a5 A9000000 		.4byte	0xa9
 1585 00a9 02       		.uleb128 0x2
 1586 00aa 01       		.byte	0x1
 1587 00ab 08       		.byte	0x8
 1588 00ac 08050000 		.4byte	.LASF15
ARM GAS  C:\Users\Petro\AppData\Local\Temp\ccLVkPCw.s 			page 57


 1589 00b0 04       		.uleb128 0x4
 1590 00b1 75040000 		.4byte	.LASF16
 1591 00b5 02       		.byte	0x2
 1592 00b6 6302     		.2byte	0x263
 1593 00b8 BC000000 		.4byte	0xbc
 1594 00bc 05       		.uleb128 0x5
 1595 00bd 6B000000 		.4byte	0x6b
 1596 00c1 04       		.uleb128 0x4
 1597 00c2 27050000 		.4byte	.LASF17
 1598 00c6 02       		.byte	0x2
 1599 00c7 7502     		.2byte	0x275
 1600 00c9 CD000000 		.4byte	0xcd
 1601 00cd 06       		.uleb128 0x6
 1602 00ce 04       		.byte	0x4
 1603 00cf D3000000 		.4byte	0xd3
 1604 00d3 07       		.uleb128 0x7
 1605 00d4 02       		.uleb128 0x2
 1606 00d5 04       		.byte	0x4
 1607 00d6 07       		.byte	0x7
 1608 00d7 65030000 		.4byte	.LASF18
 1609 00db 08       		.uleb128 0x8
 1610 00dc 7E050000 		.4byte	.LASF19
 1611 00e0 01       		.byte	0x1
 1612 00e1 6A       		.byte	0x6a
 1613 00e2 00000000 		.4byte	.LFB3
 1614 00e6 68000000 		.4byte	.LFE3-.LFB3
 1615 00ea 01       		.uleb128 0x1
 1616 00eb 9C       		.byte	0x9c
 1617 00ec 43010000 		.4byte	0x143
 1618 00f0 09       		.uleb128 0x9
 1619 00f1 0A000000 		.4byte	.LVL0
 1620 00f5 FD080000 		.4byte	0x8fd
 1621 00f9 03010000 		.4byte	0x103
 1622 00fd 0A       		.uleb128 0xa
 1623 00fe 01       		.uleb128 0x1
 1624 00ff 50       		.byte	0x50
 1625 0100 01       		.uleb128 0x1
 1626 0101 31       		.byte	0x31
 1627 0102 00       		.byte	0
 1628 0103 09       		.uleb128 0x9
 1629 0104 12000000 		.4byte	.LVL1
 1630 0108 17090000 		.4byte	0x917
 1631 010c 1B010000 		.4byte	0x11b
 1632 0110 0A       		.uleb128 0xa
 1633 0111 01       		.uleb128 0x1
 1634 0112 51       		.byte	0x51
 1635 0113 01       		.uleb128 0x1
 1636 0114 33       		.byte	0x33
 1637 0115 0A       		.uleb128 0xa
 1638 0116 01       		.uleb128 0x1
 1639 0117 50       		.byte	0x50
 1640 0118 01       		.uleb128 0x1
 1641 0119 31       		.byte	0x31
 1642 011a 00       		.byte	0
 1643 011b 09       		.uleb128 0x9
 1644 011c 2C000000 		.4byte	.LVL2
 1645 0120 FD080000 		.4byte	0x8fd
ARM GAS  C:\Users\Petro\AppData\Local\Temp\ccLVkPCw.s 			page 58


 1646 0124 2E010000 		.4byte	0x12e
 1647 0128 0A       		.uleb128 0xa
 1648 0129 01       		.uleb128 0x1
 1649 012a 50       		.byte	0x50
 1650 012b 01       		.uleb128 0x1
 1651 012c 32       		.byte	0x32
 1652 012d 00       		.byte	0
 1653 012e 0B       		.uleb128 0xb
 1654 012f 34000000 		.4byte	.LVL3
 1655 0133 17090000 		.4byte	0x917
 1656 0137 0A       		.uleb128 0xa
 1657 0138 01       		.uleb128 0x1
 1658 0139 51       		.byte	0x51
 1659 013a 01       		.uleb128 0x1
 1660 013b 33       		.byte	0x33
 1661 013c 0A       		.uleb128 0xa
 1662 013d 01       		.uleb128 0x1
 1663 013e 50       		.byte	0x50
 1664 013f 01       		.uleb128 0x1
 1665 0140 32       		.byte	0x32
 1666 0141 00       		.byte	0
 1667 0142 00       		.byte	0
 1668 0143 08       		.uleb128 0x8
 1669 0144 49020000 		.4byte	.LASF20
 1670 0148 01       		.byte	0x1
 1671 0149 B7       		.byte	0xb7
 1672 014a 00000000 		.4byte	.LFB4
 1673 014e 54000000 		.4byte	.LFE4-.LFB4
 1674 0152 01       		.uleb128 0x1
 1675 0153 9C       		.byte	0x9c
 1676 0154 CE010000 		.4byte	0x1ce
 1677 0158 0C       		.uleb128 0xc
 1678 0159 B2050000 		.4byte	.LASF23
 1679 015d 01       		.byte	0x1
 1680 015e B9       		.byte	0xb9
 1681 015f 6B000000 		.4byte	0x6b
 1682 0163 00000000 		.4byte	.LLST0
 1683 0167 0D       		.uleb128 0xd
 1684 0168 06000000 		.4byte	.LVL4
 1685 016c 2D090000 		.4byte	0x92d
 1686 0170 09       		.uleb128 0x9
 1687 0171 24000000 		.4byte	.LVL6
 1688 0175 38090000 		.4byte	0x938
 1689 0179 83010000 		.4byte	0x183
 1690 017d 0A       		.uleb128 0xa
 1691 017e 01       		.uleb128 0x1
 1692 017f 50       		.byte	0x50
 1693 0180 01       		.uleb128 0x1
 1694 0181 31       		.byte	0x31
 1695 0182 00       		.byte	0
 1696 0183 09       		.uleb128 0x9
 1697 0184 34000000 		.4byte	.LVL7
 1698 0188 49090000 		.4byte	0x949
 1699 018c 96010000 		.4byte	0x196
 1700 0190 0A       		.uleb128 0xa
 1701 0191 01       		.uleb128 0x1
 1702 0192 50       		.byte	0x50
ARM GAS  C:\Users\Petro\AppData\Local\Temp\ccLVkPCw.s 			page 59


 1703 0193 01       		.uleb128 0x1
 1704 0194 32       		.byte	0x32
 1705 0195 00       		.byte	0
 1706 0196 09       		.uleb128 0x9
 1707 0197 3A000000 		.4byte	.LVL8
 1708 019b 38090000 		.4byte	0x938
 1709 019f A9010000 		.4byte	0x1a9
 1710 01a3 0A       		.uleb128 0xa
 1711 01a4 01       		.uleb128 0x1
 1712 01a5 50       		.byte	0x50
 1713 01a6 01       		.uleb128 0x1
 1714 01a7 32       		.byte	0x32
 1715 01a8 00       		.byte	0
 1716 01a9 09       		.uleb128 0x9
 1717 01aa 40000000 		.4byte	.LVL9
 1718 01ae 5A090000 		.4byte	0x95a
 1719 01b2 BD010000 		.4byte	0x1bd
 1720 01b6 0A       		.uleb128 0xa
 1721 01b7 01       		.uleb128 0x1
 1722 01b8 50       		.byte	0x50
 1723 01b9 02       		.uleb128 0x2
 1724 01ba 08       		.byte	0x8
 1725 01bb FF       		.byte	0xff
 1726 01bc 00       		.byte	0
 1727 01bd 0B       		.uleb128 0xb
 1728 01be 46000000 		.4byte	.LVL10
 1729 01c2 6B090000 		.4byte	0x96b
 1730 01c6 0A       		.uleb128 0xa
 1731 01c7 01       		.uleb128 0x1
 1732 01c8 50       		.byte	0x50
 1733 01c9 02       		.uleb128 0x2
 1734 01ca 75       		.byte	0x75
 1735 01cb 00       		.sleb128 0
 1736 01cc 00       		.byte	0
 1737 01cd 00       		.byte	0
 1738 01ce 08       		.uleb128 0x8
 1739 01cf 51010000 		.4byte	.LASF21
 1740 01d3 01       		.byte	0x1
 1741 01d4 4C       		.byte	0x4c
 1742 01d5 00000000 		.4byte	.LFB2
 1743 01d9 20000000 		.4byte	.LFE2-.LFB2
 1744 01dd 01       		.uleb128 0x1
 1745 01de 9C       		.byte	0x9c
 1746 01df F6010000 		.4byte	0x1f6
 1747 01e3 0D       		.uleb128 0xd
 1748 01e4 0E000000 		.4byte	.LVL12
 1749 01e8 DB000000 		.4byte	0xdb
 1750 01ec 0D       		.uleb128 0xd
 1751 01ed 18000000 		.4byte	.LVL13
 1752 01f1 43010000 		.4byte	0x143
 1753 01f5 00       		.byte	0
 1754 01f6 08       		.uleb128 0x8
 1755 01f7 05030000 		.4byte	.LASF22
 1756 01fb 01       		.byte	0x1
 1757 01fc F0       		.byte	0xf0
 1758 01fd 00000000 		.4byte	.LFB5
 1759 0201 48000000 		.4byte	.LFE5-.LFB5
ARM GAS  C:\Users\Petro\AppData\Local\Temp\ccLVkPCw.s 			page 60


 1760 0205 01       		.uleb128 0x1
 1761 0206 9C       		.byte	0x9c
 1762 0207 63020000 		.4byte	0x263
 1763 020b 0C       		.uleb128 0xc
 1764 020c B2050000 		.4byte	.LASF23
 1765 0210 01       		.byte	0x1
 1766 0211 F2       		.byte	0xf2
 1767 0212 6B000000 		.4byte	0x6b
 1768 0216 13000000 		.4byte	.LLST1
 1769 021a 0D       		.uleb128 0xd
 1770 021b 06000000 		.4byte	.LVL14
 1771 021f 2D090000 		.4byte	0x92d
 1772 0223 0D       		.uleb128 0xd
 1773 0224 16000000 		.4byte	.LVL16
 1774 0228 7C090000 		.4byte	0x97c
 1775 022c 09       		.uleb128 0x9
 1776 022d 26000000 		.4byte	.LVL17
 1777 0231 83090000 		.4byte	0x983
 1778 0235 3F020000 		.4byte	0x23f
 1779 0239 0A       		.uleb128 0xa
 1780 023a 01       		.uleb128 0x1
 1781 023b 50       		.byte	0x50
 1782 023c 01       		.uleb128 0x1
 1783 023d 31       		.byte	0x31
 1784 023e 00       		.byte	0
 1785 023f 09       		.uleb128 0x9
 1786 0240 34000000 		.4byte	.LVL18
 1787 0244 83090000 		.4byte	0x983
 1788 0248 52020000 		.4byte	0x252
 1789 024c 0A       		.uleb128 0xa
 1790 024d 01       		.uleb128 0x1
 1791 024e 50       		.byte	0x50
 1792 024f 01       		.uleb128 0x1
 1793 0250 32       		.byte	0x32
 1794 0251 00       		.byte	0
 1795 0252 0B       		.uleb128 0xb
 1796 0253 3A000000 		.4byte	.LVL19
 1797 0257 6B090000 		.4byte	0x96b
 1798 025b 0A       		.uleb128 0xa
 1799 025c 01       		.uleb128 0x1
 1800 025d 50       		.byte	0x50
 1801 025e 02       		.uleb128 0x2
 1802 025f 74       		.byte	0x74
 1803 0260 00       		.sleb128 0
 1804 0261 00       		.byte	0
 1805 0262 00       		.byte	0
 1806 0263 0E       		.uleb128 0xe
 1807 0264 B5040000 		.4byte	.LASF49
 1808 0268 01       		.byte	0x1
 1809 0269 2701     		.2byte	0x127
 1810 026b 6B000000 		.4byte	0x6b
 1811 026f 00000000 		.4byte	.LFB6
 1812 0273 04000000 		.4byte	.LFE6-.LFB6
 1813 0277 01       		.uleb128 0x1
 1814 0278 9C       		.byte	0x9c
 1815 0279 0F       		.uleb128 0xf
 1816 027a 7B060000 		.4byte	.LASF24
ARM GAS  C:\Users\Petro\AppData\Local\Temp\ccLVkPCw.s 			page 61


 1817 027e 01       		.byte	0x1
 1818 027f 3F01     		.2byte	0x13f
 1819 0281 00000000 		.4byte	.LFB7
 1820 0285 02000000 		.4byte	.LFE7-.LFB7
 1821 0289 01       		.uleb128 0x1
 1822 028a 9C       		.byte	0x9c
 1823 028b 9E020000 		.4byte	0x29e
 1824 028f 10       		.uleb128 0x10
 1825 0290 81010000 		.4byte	.LASF26
 1826 0294 01       		.byte	0x1
 1827 0295 3F01     		.2byte	0x13f
 1828 0297 6B000000 		.4byte	0x6b
 1829 029b 01       		.uleb128 0x1
 1830 029c 50       		.byte	0x50
 1831 029d 00       		.byte	0
 1832 029e 0F       		.uleb128 0xf
 1833 029f 50050000 		.4byte	.LASF25
 1834 02a3 01       		.byte	0x1
 1835 02a4 6701     		.2byte	0x167
 1836 02a6 00000000 		.4byte	.LFB8
 1837 02aa 0C000000 		.4byte	.LFE8-.LFB8
 1838 02ae 01       		.uleb128 0x1
 1839 02af 9C       		.byte	0x9c
 1840 02b0 C3020000 		.4byte	0x2c3
 1841 02b4 10       		.uleb128 0x10
 1842 02b5 6E040000 		.4byte	.LASF27
 1843 02b9 01       		.byte	0x1
 1844 02ba 6701     		.2byte	0x167
 1845 02bc 6B000000 		.4byte	0x6b
 1846 02c0 01       		.uleb128 0x1
 1847 02c1 50       		.byte	0x50
 1848 02c2 00       		.byte	0
 1849 02c3 11       		.uleb128 0x11
 1850 02c4 C3050000 		.4byte	.LASF31
 1851 02c8 01       		.byte	0x1
 1852 02c9 8801     		.2byte	0x188
 1853 02cb 6B000000 		.4byte	0x6b
 1854 02cf 00000000 		.4byte	.LFB9
 1855 02d3 5C000000 		.4byte	.LFE9-.LFB9
 1856 02d7 01       		.uleb128 0x1
 1857 02d8 9C       		.byte	0x9c
 1858 02d9 30030000 		.4byte	0x330
 1859 02dd 12       		.uleb128 0x12
 1860 02de DC040000 		.4byte	.LASF28
 1861 02e2 01       		.byte	0x1
 1862 02e3 8A01     		.2byte	0x18a
 1863 02e5 6B000000 		.4byte	0x6b
 1864 02e9 26000000 		.4byte	.LLST2
 1865 02ed 12       		.uleb128 0x12
 1866 02ee A2050000 		.4byte	.LASF29
 1867 02f2 01       		.byte	0x1
 1868 02f3 8E01     		.2byte	0x18e
 1869 02f5 6B000000 		.4byte	0x6b
 1870 02f9 44000000 		.4byte	.LLST3
 1871 02fd 12       		.uleb128 0x12
 1872 02fe 9E030000 		.4byte	.LASF30
 1873 0302 01       		.byte	0x1
ARM GAS  C:\Users\Petro\AppData\Local\Temp\ccLVkPCw.s 			page 62


 1874 0303 8F01     		.2byte	0x18f
 1875 0305 6B000000 		.4byte	0x6b
 1876 0309 89000000 		.4byte	.LLST4
 1877 030d 09       		.uleb128 0x9
 1878 030e 08000000 		.4byte	.LVL23
 1879 0312 83090000 		.4byte	0x983
 1880 0316 20030000 		.4byte	0x320
 1881 031a 0A       		.uleb128 0xa
 1882 031b 01       		.uleb128 0x1
 1883 031c 50       		.byte	0x50
 1884 031d 01       		.uleb128 0x1
 1885 031e 31       		.byte	0x31
 1886 031f 00       		.byte	0
 1887 0320 0B       		.uleb128 0xb
 1888 0321 4A000000 		.4byte	.LVL35
 1889 0325 38090000 		.4byte	0x938
 1890 0329 0A       		.uleb128 0xa
 1891 032a 01       		.uleb128 0x1
 1892 032b 50       		.byte	0x50
 1893 032c 01       		.uleb128 0x1
 1894 032d 31       		.byte	0x31
 1895 032e 00       		.byte	0
 1896 032f 00       		.byte	0
 1897 0330 11       		.uleb128 0x11
 1898 0331 BB000000 		.4byte	.LASF32
 1899 0335 01       		.byte	0x1
 1900 0336 E501     		.2byte	0x1e5
 1901 0338 6B000000 		.4byte	0x6b
 1902 033c 00000000 		.4byte	.LFB10
 1903 0340 24000000 		.4byte	.LFE10-.LFB10
 1904 0344 01       		.uleb128 0x1
 1905 0345 9C       		.byte	0x9c
 1906 0346 59030000 		.4byte	0x359
 1907 034a 13       		.uleb128 0x13
 1908 034b E8050000 		.4byte	.LASF33
 1909 034f 01       		.byte	0x1
 1910 0350 E701     		.2byte	0x1e7
 1911 0352 6B000000 		.4byte	0x6b
 1912 0356 01       		.uleb128 0x1
 1913 0357 50       		.byte	0x50
 1914 0358 00       		.byte	0
 1915 0359 11       		.uleb128 0x11
 1916 035a 9D020000 		.4byte	.LASF34
 1917 035e 01       		.byte	0x1
 1918 035f 1402     		.2byte	0x214
 1919 0361 6B000000 		.4byte	0x6b
 1920 0365 00000000 		.4byte	.LFB11
 1921 0369 78000000 		.4byte	.LFE11-.LFB11
 1922 036d 01       		.uleb128 0x1
 1923 036e 9C       		.byte	0x9c
 1924 036f D6030000 		.4byte	0x3d6
 1925 0373 12       		.uleb128 0x12
 1926 0374 DC040000 		.4byte	.LASF28
 1927 0378 01       		.byte	0x1
 1928 0379 1602     		.2byte	0x216
 1929 037b 6B000000 		.4byte	0x6b
 1930 037f 9C000000 		.4byte	.LLST5
ARM GAS  C:\Users\Petro\AppData\Local\Temp\ccLVkPCw.s 			page 63


 1931 0383 12       		.uleb128 0x12
 1932 0384 AF030000 		.4byte	.LASF35
 1933 0388 01       		.byte	0x1
 1934 0389 1702     		.2byte	0x217
 1935 038b 6B000000 		.4byte	0x6b
 1936 038f E9000000 		.4byte	.LLST6
 1937 0393 12       		.uleb128 0x12
 1938 0394 A2050000 		.4byte	.LASF29
 1939 0398 01       		.byte	0x1
 1940 0399 1A02     		.2byte	0x21a
 1941 039b 6B000000 		.4byte	0x6b
 1942 039f FC000000 		.4byte	.LLST7
 1943 03a3 12       		.uleb128 0x12
 1944 03a4 9E030000 		.4byte	.LASF30
 1945 03a8 01       		.byte	0x1
 1946 03a9 1B02     		.2byte	0x21b
 1947 03ab 6B000000 		.4byte	0x6b
 1948 03af 41010000 		.4byte	.LLST8
 1949 03b3 09       		.uleb128 0x9
 1950 03b4 08000000 		.4byte	.LVL40
 1951 03b8 83090000 		.4byte	0x983
 1952 03bc C6030000 		.4byte	0x3c6
 1953 03c0 0A       		.uleb128 0xa
 1954 03c1 01       		.uleb128 0x1
 1955 03c2 50       		.byte	0x50
 1956 03c3 01       		.uleb128 0x1
 1957 03c4 31       		.byte	0x31
 1958 03c5 00       		.byte	0
 1959 03c6 0B       		.uleb128 0xb
 1960 03c7 62000000 		.4byte	.LVL56
 1961 03cb 38090000 		.4byte	0x938
 1962 03cf 0A       		.uleb128 0xa
 1963 03d0 01       		.uleb128 0x1
 1964 03d1 50       		.byte	0x50
 1965 03d2 01       		.uleb128 0x1
 1966 03d3 31       		.byte	0x31
 1967 03d4 00       		.byte	0
 1968 03d5 00       		.byte	0
 1969 03d6 11       		.uleb128 0x11
 1970 03d7 D7050000 		.4byte	.LASF36
 1971 03db 01       		.byte	0x1
 1972 03dc 7A02     		.2byte	0x27a
 1973 03de 77000000 		.4byte	0x77
 1974 03e2 00000000 		.4byte	.LFB12
 1975 03e6 28000000 		.4byte	.LFE12-.LFB12
 1976 03ea 01       		.uleb128 0x1
 1977 03eb 9C       		.byte	0x9c
 1978 03ec 30040000 		.4byte	0x430
 1979 03f0 12       		.uleb128 0x12
 1980 03f1 59020000 		.4byte	.LASF37
 1981 03f5 01       		.byte	0x1
 1982 03f6 7E02     		.2byte	0x27e
 1983 03f8 77000000 		.4byte	0x77
 1984 03fc 54010000 		.4byte	.LLST9
 1985 0400 09       		.uleb128 0x9
 1986 0401 08000000 		.4byte	.LVL58
 1987 0405 83090000 		.4byte	0x983
ARM GAS  C:\Users\Petro\AppData\Local\Temp\ccLVkPCw.s 			page 64


 1988 0409 13040000 		.4byte	0x413
 1989 040d 0A       		.uleb128 0xa
 1990 040e 01       		.uleb128 0x1
 1991 040f 50       		.byte	0x50
 1992 0410 01       		.uleb128 0x1
 1993 0411 31       		.byte	0x31
 1994 0412 00       		.byte	0
 1995 0413 09       		.uleb128 0x9
 1996 0414 16000000 		.4byte	.LVL60
 1997 0418 38090000 		.4byte	0x938
 1998 041c 26040000 		.4byte	0x426
 1999 0420 0A       		.uleb128 0xa
 2000 0421 01       		.uleb128 0x1
 2001 0422 50       		.byte	0x50
 2002 0423 01       		.uleb128 0x1
 2003 0424 31       		.byte	0x31
 2004 0425 00       		.byte	0
 2005 0426 0D       		.uleb128 0xd
 2006 0427 1C000000 		.4byte	.LVL62
 2007 042b C3020000 		.4byte	0x2c3
 2008 042f 00       		.byte	0
 2009 0430 11       		.uleb128 0x11
 2010 0431 04060000 		.4byte	.LASF38
 2011 0435 01       		.byte	0x1
 2012 0436 AB02     		.2byte	0x2ab
 2013 0438 6B000000 		.4byte	0x6b
 2014 043c 00000000 		.4byte	.LFB13
 2015 0440 58000000 		.4byte	.LFE13-.LFB13
 2016 0444 01       		.uleb128 0x1
 2017 0445 9C       		.byte	0x9c
 2018 0446 7D040000 		.4byte	0x47d
 2019 044a 12       		.uleb128 0x12
 2020 044b D5020000 		.4byte	.LASF39
 2021 044f 01       		.byte	0x1
 2022 0450 AE02     		.2byte	0x2ae
 2023 0452 6B000000 		.4byte	0x6b
 2024 0456 67010000 		.4byte	.LLST10
 2025 045a 09       		.uleb128 0x9
 2026 045b 08000000 		.4byte	.LVL63
 2027 045f 83090000 		.4byte	0x983
 2028 0463 6D040000 		.4byte	0x46d
 2029 0467 0A       		.uleb128 0xa
 2030 0468 01       		.uleb128 0x1
 2031 0469 50       		.byte	0x50
 2032 046a 01       		.uleb128 0x1
 2033 046b 31       		.byte	0x31
 2034 046c 00       		.byte	0
 2035 046d 0B       		.uleb128 0xb
 2036 046e 4E000000 		.4byte	.LVL69
 2037 0472 38090000 		.4byte	0x938
 2038 0476 0A       		.uleb128 0xa
 2039 0477 01       		.uleb128 0x1
 2040 0478 50       		.byte	0x50
 2041 0479 01       		.uleb128 0x1
 2042 047a 31       		.byte	0x31
 2043 047b 00       		.byte	0
 2044 047c 00       		.byte	0
ARM GAS  C:\Users\Petro\AppData\Local\Temp\ccLVkPCw.s 			page 65


 2045 047d 0F       		.uleb128 0xf
 2046 047e 88040000 		.4byte	.LASF40
 2047 0482 01       		.byte	0x1
 2048 0483 F502     		.2byte	0x2f5
 2049 0485 00000000 		.4byte	.LFB14
 2050 0489 40000000 		.4byte	.LFE14-.LFB14
 2051 048d 01       		.uleb128 0x1
 2052 048e 9C       		.byte	0x9c
 2053 048f D8040000 		.4byte	0x4d8
 2054 0493 12       		.uleb128 0x12
 2055 0494 B2050000 		.4byte	.LASF23
 2056 0498 01       		.byte	0x1
 2057 0499 F702     		.2byte	0x2f7
 2058 049b 6B000000 		.4byte	0x6b
 2059 049f 90010000 		.4byte	.LLST11
 2060 04a3 0D       		.uleb128 0xd
 2061 04a4 06000000 		.4byte	.LVL71
 2062 04a8 2D090000 		.4byte	0x92d
 2063 04ac 0D       		.uleb128 0xd
 2064 04ad 1C000000 		.4byte	.LVL72
 2065 04b1 6B090000 		.4byte	0x96b
 2066 04b5 09       		.uleb128 0x9
 2067 04b6 22000000 		.4byte	.LVL73
 2068 04ba 83090000 		.4byte	0x983
 2069 04be C8040000 		.4byte	0x4c8
 2070 04c2 0A       		.uleb128 0xa
 2071 04c3 01       		.uleb128 0x1
 2072 04c4 50       		.byte	0x50
 2073 04c5 01       		.uleb128 0x1
 2074 04c6 31       		.byte	0x31
 2075 04c7 00       		.byte	0
 2076 04c8 0B       		.uleb128 0xb
 2077 04c9 34000000 		.4byte	.LVL74
 2078 04cd 38090000 		.4byte	0x938
 2079 04d1 0A       		.uleb128 0xa
 2080 04d2 01       		.uleb128 0x1
 2081 04d3 50       		.byte	0x50
 2082 04d4 01       		.uleb128 0x1
 2083 04d5 31       		.byte	0x31
 2084 04d6 00       		.byte	0
 2085 04d7 00       		.byte	0
 2086 04d8 0F       		.uleb128 0xf
 2087 04d9 67010000 		.4byte	.LASF41
 2088 04dd 01       		.byte	0x1
 2089 04de 2D03     		.2byte	0x32d
 2090 04e0 00000000 		.4byte	.LFB15
 2091 04e4 02000000 		.4byte	.LFE15-.LFB15
 2092 04e8 01       		.uleb128 0x1
 2093 04e9 9C       		.byte	0x9c
 2094 04ea FD040000 		.4byte	0x4fd
 2095 04ee 10       		.uleb128 0x10
 2096 04ef 17010000 		.4byte	.LASF42
 2097 04f3 01       		.byte	0x1
 2098 04f4 2D03     		.2byte	0x32d
 2099 04f6 6B000000 		.4byte	0x6b
 2100 04fa 01       		.uleb128 0x1
 2101 04fb 50       		.byte	0x50
ARM GAS  C:\Users\Petro\AppData\Local\Temp\ccLVkPCw.s 			page 66


 2102 04fc 00       		.byte	0
 2103 04fd 0F       		.uleb128 0xf
 2104 04fe 23010000 		.4byte	.LASF43
 2105 0502 01       		.byte	0x1
 2106 0503 5903     		.2byte	0x359
 2107 0505 00000000 		.4byte	.LFB16
 2108 0509 0C000000 		.4byte	.LFE16-.LFB16
 2109 050d 01       		.uleb128 0x1
 2110 050e 9C       		.byte	0x9c
 2111 050f 22050000 		.4byte	0x522
 2112 0513 10       		.uleb128 0x10
 2113 0514 80030000 		.4byte	.LASF44
 2114 0518 01       		.byte	0x1
 2115 0519 5903     		.2byte	0x359
 2116 051b 6B000000 		.4byte	0x6b
 2117 051f 01       		.uleb128 0x1
 2118 0520 50       		.byte	0x50
 2119 0521 00       		.byte	0
 2120 0522 0F       		.uleb128 0xf
 2121 0523 3A010000 		.4byte	.LASF45
 2122 0527 01       		.byte	0x1
 2123 0528 6D03     		.2byte	0x36d
 2124 052a 00000000 		.4byte	.LFB17
 2125 052e 0C000000 		.4byte	.LFE17-.LFB17
 2126 0532 01       		.uleb128 0x1
 2127 0533 9C       		.byte	0x9c
 2128 0534 47050000 		.4byte	0x547
 2129 0538 10       		.uleb128 0x10
 2130 0539 80030000 		.4byte	.LASF44
 2131 053d 01       		.byte	0x1
 2132 053e 6D03     		.2byte	0x36d
 2133 0540 6B000000 		.4byte	0x6b
 2134 0544 01       		.uleb128 0x1
 2135 0545 50       		.byte	0x50
 2136 0546 00       		.byte	0
 2137 0547 0F       		.uleb128 0xf
 2138 0548 79000000 		.4byte	.LASF46
 2139 054c 01       		.byte	0x1
 2140 054d 8C03     		.2byte	0x38c
 2141 054f 00000000 		.4byte	.LFB18
 2142 0553 0C000000 		.4byte	.LFE18-.LFB18
 2143 0557 01       		.uleb128 0x1
 2144 0558 9C       		.byte	0x9c
 2145 0559 6C050000 		.4byte	0x56c
 2146 055d 10       		.uleb128 0x10
 2147 055e 6E040000 		.4byte	.LASF27
 2148 0562 01       		.byte	0x1
 2149 0563 8C03     		.2byte	0x38c
 2150 0565 6B000000 		.4byte	0x6b
 2151 0569 01       		.uleb128 0x1
 2152 056a 50       		.byte	0x50
 2153 056b 00       		.byte	0
 2154 056c 0F       		.uleb128 0xf
 2155 056d EF050000 		.4byte	.LASF47
 2156 0571 01       		.byte	0x1
 2157 0572 AE03     		.2byte	0x3ae
 2158 0574 00000000 		.4byte	.LFB19
ARM GAS  C:\Users\Petro\AppData\Local\Temp\ccLVkPCw.s 			page 67


 2159 0578 5C000000 		.4byte	.LFE19-.LFB19
 2160 057c 01       		.uleb128 0x1
 2161 057d 9C       		.byte	0x9c
 2162 057e B5050000 		.4byte	0x5b5
 2163 0582 14       		.uleb128 0x14
 2164 0583 1D000000 		.4byte	.LASF48
 2165 0587 01       		.byte	0x1
 2166 0588 AE03     		.2byte	0x3ae
 2167 058a 6B000000 		.4byte	0x6b
 2168 058e A3010000 		.4byte	.LLST12
 2169 0592 09       		.uleb128 0x9
 2170 0593 12000000 		.4byte	.LVL81
 2171 0597 83090000 		.4byte	0x983
 2172 059b A5050000 		.4byte	0x5a5
 2173 059f 0A       		.uleb128 0xa
 2174 05a0 01       		.uleb128 0x1
 2175 05a1 50       		.byte	0x50
 2176 05a2 01       		.uleb128 0x1
 2177 05a3 32       		.byte	0x32
 2178 05a4 00       		.byte	0
 2179 05a5 0B       		.uleb128 0xb
 2180 05a6 48000000 		.4byte	.LVL82
 2181 05aa 38090000 		.4byte	0x938
 2182 05ae 0A       		.uleb128 0xa
 2183 05af 01       		.uleb128 0x1
 2184 05b0 50       		.byte	0x50
 2185 05b1 01       		.uleb128 0x1
 2186 05b2 32       		.byte	0x32
 2187 05b3 00       		.byte	0
 2188 05b4 00       		.byte	0
 2189 05b5 0E       		.uleb128 0xe
 2190 05b6 8C050000 		.4byte	.LASF50
 2191 05ba 01       		.byte	0x1
 2192 05bb EB03     		.2byte	0x3eb
 2193 05bd 6B000000 		.4byte	0x6b
 2194 05c1 00000000 		.4byte	.LFB20
 2195 05c5 0C000000 		.4byte	.LFE20-.LFB20
 2196 05c9 01       		.uleb128 0x1
 2197 05ca 9C       		.byte	0x9c
 2198 05cb 0F       		.uleb128 0xf
 2199 05cc 13030000 		.4byte	.LASF51
 2200 05d0 01       		.byte	0x1
 2201 05d1 1104     		.2byte	0x411
 2202 05d3 00000000 		.4byte	.LFB21
 2203 05d7 6C000000 		.4byte	.LFE21-.LFB21
 2204 05db 01       		.uleb128 0x1
 2205 05dc 9C       		.byte	0x9c
 2206 05dd 21060000 		.4byte	0x621
 2207 05e1 14       		.uleb128 0x14
 2208 05e2 1D000000 		.4byte	.LASF48
 2209 05e6 01       		.byte	0x1
 2210 05e7 1104     		.2byte	0x411
 2211 05e9 6B000000 		.4byte	0x6b
 2212 05ed C4010000 		.4byte	.LLST13
 2213 05f1 12       		.uleb128 0x12
 2214 05f2 8C020000 		.4byte	.LASF52
 2215 05f6 01       		.byte	0x1
ARM GAS  C:\Users\Petro\AppData\Local\Temp\ccLVkPCw.s 			page 68


 2216 05f7 1804     		.2byte	0x418
 2217 05f9 6B000000 		.4byte	0x6b
 2218 05fd F7010000 		.4byte	.LLST14
 2219 0601 12       		.uleb128 0x12
 2220 0602 89010000 		.4byte	.LASF53
 2221 0606 01       		.byte	0x1
 2222 0607 1904     		.2byte	0x419
 2223 0609 6B000000 		.4byte	0x6b
 2224 060d 0A020000 		.4byte	.LLST15
 2225 0611 0B       		.uleb128 0xb
 2226 0612 58000000 		.4byte	.LVL89
 2227 0616 94090000 		.4byte	0x994
 2228 061a 0A       		.uleb128 0xa
 2229 061b 01       		.uleb128 0x1
 2230 061c 50       		.byte	0x50
 2231 061d 01       		.uleb128 0x1
 2232 061e 32       		.byte	0x32
 2233 061f 00       		.byte	0
 2234 0620 00       		.byte	0
 2235 0621 0F       		.uleb128 0xf
 2236 0622 68060000 		.4byte	.LASF54
 2237 0626 01       		.byte	0x1
 2238 0627 7904     		.2byte	0x479
 2239 0629 00000000 		.4byte	.LFB22
 2240 062d 28000000 		.4byte	.LFE22-.LFB22
 2241 0631 01       		.uleb128 0x1
 2242 0632 9C       		.byte	0x9c
 2243 0633 61060000 		.4byte	0x661
 2244 0637 14       		.uleb128 0x14
 2245 0638 28000000 		.4byte	.LASF55
 2246 063c 01       		.byte	0x1
 2247 063d 7904     		.2byte	0x479
 2248 063f 61060000 		.4byte	0x661
 2249 0643 1D020000 		.4byte	.LLST16
 2250 0647 12       		.uleb128 0x12
 2251 0648 FC020000 		.4byte	.LASF56
 2252 064c 01       		.byte	0x1
 2253 064d 7B04     		.2byte	0x47b
 2254 064f 77000000 		.4byte	0x77
 2255 0653 5F020000 		.4byte	.LLST17
 2256 0657 0D       		.uleb128 0xd
 2257 0658 10000000 		.4byte	.LVL93
 2258 065c CB050000 		.4byte	0x5cb
 2259 0660 00       		.byte	0
 2260 0661 06       		.uleb128 0x6
 2261 0662 04       		.byte	0x4
 2262 0663 67060000 		.4byte	0x667
 2263 0667 15       		.uleb128 0x15
 2264 0668 9D000000 		.4byte	0x9d
 2265 066c 0F       		.uleb128 0xf
 2266 066d 6C050000 		.4byte	.LASF57
 2267 0671 01       		.byte	0x1
 2268 0672 A704     		.2byte	0x4a7
 2269 0674 00000000 		.4byte	.LFB23
 2270 0678 28000000 		.4byte	.LFE23-.LFB23
 2271 067c 01       		.uleb128 0x1
 2272 067d 9C       		.byte	0x9c
ARM GAS  C:\Users\Petro\AppData\Local\Temp\ccLVkPCw.s 			page 69


 2273 067e BC060000 		.4byte	0x6bc
 2274 0682 14       		.uleb128 0x14
 2275 0683 28000000 		.4byte	.LASF55
 2276 0687 01       		.byte	0x1
 2277 0688 A704     		.2byte	0x4a7
 2278 068a BC060000 		.4byte	0x6bc
 2279 068e A0020000 		.4byte	.LLST18
 2280 0692 14       		.uleb128 0x14
 2281 0693 D2040000 		.4byte	.LASF58
 2282 0697 01       		.byte	0x1
 2283 0698 A704     		.2byte	0x4a7
 2284 069a 6B000000 		.4byte	0x6b
 2285 069e E2020000 		.4byte	.LLST19
 2286 06a2 12       		.uleb128 0x12
 2287 06a3 FC020000 		.4byte	.LASF56
 2288 06a7 01       		.byte	0x1
 2289 06a8 AA04     		.2byte	0x4aa
 2290 06aa 6B000000 		.4byte	0x6b
 2291 06ae 1C030000 		.4byte	.LLST20
 2292 06b2 0D       		.uleb128 0xd
 2293 06b3 12000000 		.4byte	.LVL102
 2294 06b7 CB050000 		.4byte	0x5cb
 2295 06bb 00       		.byte	0
 2296 06bc 06       		.uleb128 0x6
 2297 06bd 04       		.byte	0x4
 2298 06be C2060000 		.4byte	0x6c2
 2299 06c2 15       		.uleb128 0x15
 2300 06c3 6B000000 		.4byte	0x6b
 2301 06c7 0F       		.uleb128 0xf
 2302 06c8 57040000 		.4byte	.LASF59
 2303 06cc 01       		.byte	0x1
 2304 06cd CE04     		.2byte	0x4ce
 2305 06cf 00000000 		.4byte	.LFB24
 2306 06d3 20000000 		.4byte	.LFE24-.LFB24
 2307 06d7 01       		.uleb128 0x1
 2308 06d8 9C       		.byte	0x9c
 2309 06d9 19070000 		.4byte	0x719
 2310 06dd 14       		.uleb128 0x14
 2311 06de 1D000000 		.4byte	.LASF48
 2312 06e2 01       		.byte	0x1
 2313 06e3 CE04     		.2byte	0x4ce
 2314 06e5 6B000000 		.4byte	0x6b
 2315 06e9 5D030000 		.4byte	.LLST21
 2316 06ed 0D       		.uleb128 0xd
 2317 06ee 0E000000 		.4byte	.LVL109
 2318 06f2 CB050000 		.4byte	0x5cb
 2319 06f6 09       		.uleb128 0x9
 2320 06f7 14000000 		.4byte	.LVL110
 2321 06fb CB050000 		.4byte	0x5cb
 2322 06ff 09070000 		.4byte	0x709
 2323 0703 0A       		.uleb128 0xa
 2324 0704 01       		.uleb128 0x1
 2325 0705 50       		.byte	0x50
 2326 0706 01       		.uleb128 0x1
 2327 0707 3D       		.byte	0x3d
 2328 0708 00       		.byte	0
 2329 0709 0B       		.uleb128 0xb
ARM GAS  C:\Users\Petro\AppData\Local\Temp\ccLVkPCw.s 			page 70


 2330 070a 1A000000 		.4byte	.LVL111
 2331 070e CB050000 		.4byte	0x5cb
 2332 0712 0A       		.uleb128 0xa
 2333 0713 01       		.uleb128 0x1
 2334 0714 50       		.byte	0x50
 2335 0715 01       		.uleb128 0x1
 2336 0716 3A       		.byte	0x3a
 2337 0717 00       		.byte	0
 2338 0718 00       		.byte	0
 2339 0719 11       		.uleb128 0x11
 2340 071a 30020000 		.4byte	.LASF60
 2341 071e 01       		.byte	0x1
 2342 071f F904     		.2byte	0x4f9
 2343 0721 6B000000 		.4byte	0x6b
 2344 0725 00000000 		.4byte	.LFB25
 2345 0729 44000000 		.4byte	.LFE25-.LFB25
 2346 072d 01       		.uleb128 0x1
 2347 072e 9C       		.byte	0x9c
 2348 072f 66070000 		.4byte	0x766
 2349 0733 12       		.uleb128 0x12
 2350 0734 D5020000 		.4byte	.LASF39
 2351 0738 01       		.byte	0x1
 2352 0739 FC04     		.2byte	0x4fc
 2353 073b 6B000000 		.4byte	0x6b
 2354 073f 7E030000 		.4byte	.LLST22
 2355 0743 09       		.uleb128 0x9
 2356 0744 08000000 		.4byte	.LVL112
 2357 0748 83090000 		.4byte	0x983
 2358 074c 56070000 		.4byte	0x756
 2359 0750 0A       		.uleb128 0xa
 2360 0751 01       		.uleb128 0x1
 2361 0752 50       		.byte	0x50
 2362 0753 01       		.uleb128 0x1
 2363 0754 32       		.byte	0x32
 2364 0755 00       		.byte	0
 2365 0756 0B       		.uleb128 0xb
 2366 0757 3C000000 		.4byte	.LVL118
 2367 075b 38090000 		.4byte	0x938
 2368 075f 0A       		.uleb128 0xa
 2369 0760 01       		.uleb128 0x1
 2370 0761 50       		.byte	0x50
 2371 0762 01       		.uleb128 0x1
 2372 0763 32       		.byte	0x32
 2373 0764 00       		.byte	0
 2374 0765 00       		.byte	0
 2375 0766 0F       		.uleb128 0xf
 2376 0767 4B000000 		.4byte	.LASF61
 2377 076b 01       		.byte	0x1
 2378 076c 4A05     		.2byte	0x54a
 2379 076e 00000000 		.4byte	.LFB26
 2380 0772 3C000000 		.4byte	.LFE26-.LFB26
 2381 0776 01       		.uleb128 0x1
 2382 0777 9C       		.byte	0x9c
 2383 0778 C1070000 		.4byte	0x7c1
 2384 077c 12       		.uleb128 0x12
 2385 077d B2050000 		.4byte	.LASF23
 2386 0781 01       		.byte	0x1
ARM GAS  C:\Users\Petro\AppData\Local\Temp\ccLVkPCw.s 			page 71


 2387 0782 4C05     		.2byte	0x54c
 2388 0784 6B000000 		.4byte	0x6b
 2389 0788 A7030000 		.4byte	.LLST23
 2390 078c 0D       		.uleb128 0xd
 2391 078d 06000000 		.4byte	.LVL120
 2392 0791 2D090000 		.4byte	0x92d
 2393 0795 0D       		.uleb128 0xd
 2394 0796 1C000000 		.4byte	.LVL121
 2395 079a 6B090000 		.4byte	0x96b
 2396 079e 09       		.uleb128 0x9
 2397 079f 22000000 		.4byte	.LVL122
 2398 07a3 83090000 		.4byte	0x983
 2399 07a7 B1070000 		.4byte	0x7b1
 2400 07ab 0A       		.uleb128 0xa
 2401 07ac 01       		.uleb128 0x1
 2402 07ad 50       		.byte	0x50
 2403 07ae 01       		.uleb128 0x1
 2404 07af 32       		.byte	0x32
 2405 07b0 00       		.byte	0
 2406 07b1 0B       		.uleb128 0xb
 2407 07b2 30000000 		.4byte	.LVL123
 2408 07b6 38090000 		.4byte	0x938
 2409 07ba 0A       		.uleb128 0xa
 2410 07bb 01       		.uleb128 0x1
 2411 07bc 50       		.byte	0x50
 2412 07bd 01       		.uleb128 0x1
 2413 07be 32       		.byte	0x32
 2414 07bf 00       		.byte	0
 2415 07c0 00       		.byte	0
 2416 07c1 0F       		.uleb128 0xf
 2417 07c2 E3040000 		.4byte	.LASF62
 2418 07c6 01       		.byte	0x1
 2419 07c7 A005     		.2byte	0x5a0
 2420 07c9 00000000 		.4byte	.LFB27
 2421 07cd 5C000000 		.4byte	.LFE27-.LFB27
 2422 07d1 01       		.uleb128 0x1
 2423 07d2 9C       		.byte	0x9c
 2424 07d3 14080000 		.4byte	0x814
 2425 07d7 14       		.uleb128 0x14
 2426 07d8 B0010000 		.4byte	.LASF63
 2427 07dc 01       		.byte	0x1
 2428 07dd A005     		.2byte	0x5a0
 2429 07df 6B000000 		.4byte	0x6b
 2430 07e3 BA030000 		.4byte	.LLST24
 2431 07e7 16       		.uleb128 0x16
 2432 07e8 08000000 		.4byte	.LBB2
 2433 07ec 40000000 		.4byte	.LBE2-.LBB2
 2434 07f0 12       		.uleb128 0x12
 2435 07f1 5D030000 		.4byte	.LASF64
 2436 07f5 01       		.byte	0x1
 2437 07f6 A805     		.2byte	0x5a8
 2438 07f8 6B000000 		.4byte	0x6b
 2439 07fc DB030000 		.4byte	.LLST25
 2440 0800 13       		.uleb128 0x13
 2441 0801 EB000000 		.4byte	.LASF65
 2442 0805 01       		.byte	0x1
 2443 0806 D005     		.2byte	0x5d0
ARM GAS  C:\Users\Petro\AppData\Local\Temp\ccLVkPCw.s 			page 72


 2444 0808 6B000000 		.4byte	0x6b
 2445 080c 05       		.uleb128 0x5
 2446 080d 03       		.byte	0x3
 2447 080e 08000000 		.4byte	txPeriod.4926
 2448 0812 00       		.byte	0
 2449 0813 00       		.byte	0
 2450 0814 0F       		.uleb128 0xf
 2451 0815 1D060000 		.4byte	.LASF66
 2452 0819 01       		.byte	0x1
 2453 081a 2406     		.2byte	0x624
 2454 081c 00000000 		.4byte	.LFB28
 2455 0820 02000000 		.4byte	.LFE28-.LFB28
 2456 0824 01       		.uleb128 0x1
 2457 0825 9C       		.byte	0x9c
 2458 0826 39080000 		.4byte	0x839
 2459 082a 10       		.uleb128 0x10
 2460 082b 17010000 		.4byte	.LASF42
 2461 082f 01       		.byte	0x1
 2462 0830 2406     		.2byte	0x624
 2463 0832 6B000000 		.4byte	0x6b
 2464 0836 01       		.uleb128 0x1
 2465 0837 50       		.byte	0x50
 2466 0838 00       		.byte	0
 2467 0839 17       		.uleb128 0x17
 2468 083a 95000000 		.4byte	.LASF67
 2469 083e 01       		.byte	0x1
 2470 083f 1B       		.byte	0x1b
 2471 0840 6B000000 		.4byte	0x6b
 2472 0844 05       		.uleb128 0x5
 2473 0845 03       		.byte	0x3
 2474 0846 00000000 		.4byte	UART_XB2_initVar
 2475 084a 18       		.uleb128 0x18
 2476 084b 6B000000 		.4byte	0x6b
 2477 084f 5A080000 		.4byte	0x85a
 2478 0853 19       		.uleb128 0x19
 2479 0854 D4000000 		.4byte	0xd4
 2480 0858 63       		.byte	0x63
 2481 0859 00       		.byte	0
 2482 085a 17       		.uleb128 0x17
 2483 085b F6040000 		.4byte	.LASF68
 2484 085f 01       		.byte	0x1
 2485 0860 1E       		.byte	0x1e
 2486 0861 6B080000 		.4byte	0x86b
 2487 0865 05       		.uleb128 0x5
 2488 0866 03       		.byte	0x3
 2489 0867 00000000 		.4byte	UART_XB2_txBuffer
 2490 086b 05       		.uleb128 0x5
 2491 086c 4A080000 		.4byte	0x84a
 2492 0870 17       		.uleb128 0x17
 2493 0871 88030000 		.4byte	.LASF69
 2494 0875 01       		.byte	0x1
 2495 0876 1F       		.byte	0x1f
 2496 0877 BC000000 		.4byte	0xbc
 2497 087b 05       		.uleb128 0x5
 2498 087c 03       		.byte	0x3
 2499 087d 00000000 		.4byte	UART_XB2_txBufferRead
 2500 0881 17       		.uleb128 0x17
ARM GAS  C:\Users\Petro\AppData\Local\Temp\ccLVkPCw.s 			page 73


 2501 0882 24030000 		.4byte	.LASF70
 2502 0886 01       		.byte	0x1
 2503 0887 20       		.byte	0x20
 2504 0888 6B000000 		.4byte	0x6b
 2505 088c 05       		.uleb128 0x5
 2506 088d 03       		.byte	0x3
 2507 088e 00000000 		.4byte	UART_XB2_txBufferWrite
 2508 0892 17       		.uleb128 0x17
 2509 0893 A6000000 		.4byte	.LASF71
 2510 0897 01       		.byte	0x1
 2511 0898 24       		.byte	0x24
 2512 0899 6B000000 		.4byte	0x6b
 2513 089d 05       		.uleb128 0x5
 2514 089e 03       		.byte	0x3
 2515 089f 00000000 		.4byte	UART_XB2_errorStatus
 2516 08a3 17       		.uleb128 0x17
 2517 08a4 68020000 		.4byte	.LASF72
 2518 08a8 01       		.byte	0x1
 2519 08a9 25       		.byte	0x25
 2520 08aa B4080000 		.4byte	0x8b4
 2521 08ae 05       		.uleb128 0x5
 2522 08af 03       		.byte	0x3
 2523 08b0 00000000 		.4byte	UART_XB2_rxBuffer
 2524 08b4 05       		.uleb128 0x5
 2525 08b5 4A080000 		.4byte	0x84a
 2526 08b9 17       		.uleb128 0x17
 2527 08ba 3A050000 		.4byte	.LASF73
 2528 08be 01       		.byte	0x1
 2529 08bf 26       		.byte	0x26
 2530 08c0 BC000000 		.4byte	0xbc
 2531 08c4 05       		.uleb128 0x5
 2532 08c5 03       		.byte	0x3
 2533 08c6 00000000 		.4byte	UART_XB2_rxBufferRead
 2534 08ca 17       		.uleb128 0x17
 2535 08cb 51060000 		.4byte	.LASF74
 2536 08cf 01       		.byte	0x1
 2537 08d0 27       		.byte	0x27
 2538 08d1 BC000000 		.4byte	0xbc
 2539 08d5 05       		.uleb128 0x5
 2540 08d6 03       		.byte	0x3
 2541 08d7 00000000 		.4byte	UART_XB2_rxBufferWrite
 2542 08db 17       		.uleb128 0x17
 2543 08dc 2F000000 		.4byte	.LASF75
 2544 08e0 01       		.byte	0x1
 2545 08e1 28       		.byte	0x28
 2546 08e2 BC000000 		.4byte	0xbc
 2547 08e6 05       		.uleb128 0x5
 2548 08e7 03       		.byte	0x3
 2549 08e8 00000000 		.4byte	UART_XB2_rxBufferLoopDetect
 2550 08ec 17       		.uleb128 0x17
 2551 08ed 0D050000 		.4byte	.LASF76
 2552 08f1 01       		.byte	0x1
 2553 08f2 29       		.byte	0x29
 2554 08f3 BC000000 		.4byte	0xbc
 2555 08f7 05       		.uleb128 0x5
 2556 08f8 03       		.byte	0x3
 2557 08f9 00000000 		.4byte	UART_XB2_rxBufferOverflow
ARM GAS  C:\Users\Petro\AppData\Local\Temp\ccLVkPCw.s 			page 74


 2558 08fd 1A       		.uleb128 0x1a
 2559 08fe ED020000 		.4byte	.LASF86
 2560 0902 03       		.byte	0x3
 2561 0903 BD       		.byte	0xbd
 2562 0904 C1000000 		.4byte	0xc1
 2563 0908 17090000 		.4byte	0x917
 2564 090c 1B       		.uleb128 0x1b
 2565 090d 6B000000 		.4byte	0x6b
 2566 0911 1B       		.uleb128 0x1b
 2567 0912 C1000000 		.4byte	0xc1
 2568 0916 00       		.byte	0
 2569 0917 1C       		.uleb128 0x1c
 2570 0918 46040000 		.4byte	.LASF77
 2571 091c 03       		.byte	0x3
 2572 091d C0       		.byte	0xc0
 2573 091e 2D090000 		.4byte	0x92d
 2574 0922 1B       		.uleb128 0x1b
 2575 0923 6B000000 		.4byte	0x6b
 2576 0927 1B       		.uleb128 0x1b
 2577 0928 6B000000 		.4byte	0x6b
 2578 092c 00       		.byte	0
 2579 092d 1D       		.uleb128 0x1d
 2580 092e AE020000 		.4byte	.LASF87
 2581 0932 03       		.byte	0x3
 2582 0933 E5       		.byte	0xe5
 2583 0934 6B000000 		.4byte	0x6b
 2584 0938 1C       		.uleb128 0x1c
 2585 0939 A9040000 		.4byte	.LASF78
 2586 093d 03       		.byte	0x3
 2587 093e C3       		.byte	0xc3
 2588 093f 49090000 		.4byte	0x949
 2589 0943 1B       		.uleb128 0x1b
 2590 0944 6B000000 		.4byte	0x6b
 2591 0948 00       		.byte	0
 2592 0949 1C       		.uleb128 0x1c
 2593 094a 6E030000 		.4byte	.LASF79
 2594 094e 03       		.byte	0x3
 2595 094f C8       		.byte	0xc8
 2596 0950 5A090000 		.4byte	0x95a
 2597 0954 1B       		.uleb128 0x1b
 2598 0955 6B000000 		.4byte	0x6b
 2599 0959 00       		.byte	0
 2600 095a 1C       		.uleb128 0x1c
 2601 095b 37060000 		.4byte	.LASF80
 2602 095f 04       		.byte	0x4
 2603 0960 1D       		.byte	0x1d
 2604 0961 6B090000 		.4byte	0x96b
 2605 0965 1B       		.uleb128 0x1b
 2606 0966 83000000 		.4byte	0x83
 2607 096a 00       		.byte	0
 2608 096b 1C       		.uleb128 0x1c
 2609 096c 07000000 		.4byte	.LASF81
 2610 0970 03       		.byte	0x3
 2611 0971 E6       		.byte	0xe6
 2612 0972 7C090000 		.4byte	0x97c
 2613 0976 1B       		.uleb128 0x1b
 2614 0977 6B000000 		.4byte	0x6b
ARM GAS  C:\Users\Petro\AppData\Local\Temp\ccLVkPCw.s 			page 75


 2615 097b 00       		.byte	0
 2616 097c 1E       		.uleb128 0x1e
 2617 097d 99010000 		.4byte	.LASF88
 2618 0981 04       		.byte	0x4
 2619 0982 27       		.byte	0x27
 2620 0983 1C       		.uleb128 0x1c
 2621 0984 FD000000 		.4byte	.LASF82
 2622 0988 03       		.byte	0x3
 2623 0989 C5       		.byte	0xc5
 2624 098a 94090000 		.4byte	0x994
 2625 098e 1B       		.uleb128 0x1b
 2626 098f 6B000000 		.4byte	0x6b
 2627 0993 00       		.byte	0
 2628 0994 1F       		.uleb128 0x1f
 2629 0995 C5020000 		.4byte	.LASF89
 2630 0999 03       		.byte	0x3
 2631 099a C7       		.byte	0xc7
 2632 099b 1B       		.uleb128 0x1b
 2633 099c 6B000000 		.4byte	0x6b
 2634 09a0 00       		.byte	0
 2635 09a1 00       		.byte	0
 2636              		.section	.debug_abbrev,"",%progbits
 2637              	.Ldebug_abbrev0:
 2638 0000 01       		.uleb128 0x1
 2639 0001 11       		.uleb128 0x11
 2640 0002 01       		.byte	0x1
 2641 0003 25       		.uleb128 0x25
 2642 0004 0E       		.uleb128 0xe
 2643 0005 13       		.uleb128 0x13
 2644 0006 0B       		.uleb128 0xb
 2645 0007 03       		.uleb128 0x3
 2646 0008 0E       		.uleb128 0xe
 2647 0009 1B       		.uleb128 0x1b
 2648 000a 0E       		.uleb128 0xe
 2649 000b 55       		.uleb128 0x55
 2650 000c 17       		.uleb128 0x17
 2651 000d 11       		.uleb128 0x11
 2652 000e 01       		.uleb128 0x1
 2653 000f 10       		.uleb128 0x10
 2654 0010 17       		.uleb128 0x17
 2655 0011 00       		.byte	0
 2656 0012 00       		.byte	0
 2657 0013 02       		.uleb128 0x2
 2658 0014 24       		.uleb128 0x24
 2659 0015 00       		.byte	0
 2660 0016 0B       		.uleb128 0xb
 2661 0017 0B       		.uleb128 0xb
 2662 0018 3E       		.uleb128 0x3e
 2663 0019 0B       		.uleb128 0xb
 2664 001a 03       		.uleb128 0x3
 2665 001b 0E       		.uleb128 0xe
 2666 001c 00       		.byte	0
 2667 001d 00       		.byte	0
 2668 001e 03       		.uleb128 0x3
 2669 001f 24       		.uleb128 0x24
 2670 0020 00       		.byte	0
 2671 0021 0B       		.uleb128 0xb
ARM GAS  C:\Users\Petro\AppData\Local\Temp\ccLVkPCw.s 			page 76


 2672 0022 0B       		.uleb128 0xb
 2673 0023 3E       		.uleb128 0x3e
 2674 0024 0B       		.uleb128 0xb
 2675 0025 03       		.uleb128 0x3
 2676 0026 08       		.uleb128 0x8
 2677 0027 00       		.byte	0
 2678 0028 00       		.byte	0
 2679 0029 04       		.uleb128 0x4
 2680 002a 16       		.uleb128 0x16
 2681 002b 00       		.byte	0
 2682 002c 03       		.uleb128 0x3
 2683 002d 0E       		.uleb128 0xe
 2684 002e 3A       		.uleb128 0x3a
 2685 002f 0B       		.uleb128 0xb
 2686 0030 3B       		.uleb128 0x3b
 2687 0031 05       		.uleb128 0x5
 2688 0032 49       		.uleb128 0x49
 2689 0033 13       		.uleb128 0x13
 2690 0034 00       		.byte	0
 2691 0035 00       		.byte	0
 2692 0036 05       		.uleb128 0x5
 2693 0037 35       		.uleb128 0x35
 2694 0038 00       		.byte	0
 2695 0039 49       		.uleb128 0x49
 2696 003a 13       		.uleb128 0x13
 2697 003b 00       		.byte	0
 2698 003c 00       		.byte	0
 2699 003d 06       		.uleb128 0x6
 2700 003e 0F       		.uleb128 0xf
 2701 003f 00       		.byte	0
 2702 0040 0B       		.uleb128 0xb
 2703 0041 0B       		.uleb128 0xb
 2704 0042 49       		.uleb128 0x49
 2705 0043 13       		.uleb128 0x13
 2706 0044 00       		.byte	0
 2707 0045 00       		.byte	0
 2708 0046 07       		.uleb128 0x7
 2709 0047 15       		.uleb128 0x15
 2710 0048 00       		.byte	0
 2711 0049 27       		.uleb128 0x27
 2712 004a 19       		.uleb128 0x19
 2713 004b 00       		.byte	0
 2714 004c 00       		.byte	0
 2715 004d 08       		.uleb128 0x8
 2716 004e 2E       		.uleb128 0x2e
 2717 004f 01       		.byte	0x1
 2718 0050 3F       		.uleb128 0x3f
 2719 0051 19       		.uleb128 0x19
 2720 0052 03       		.uleb128 0x3
 2721 0053 0E       		.uleb128 0xe
 2722 0054 3A       		.uleb128 0x3a
 2723 0055 0B       		.uleb128 0xb
 2724 0056 3B       		.uleb128 0x3b
 2725 0057 0B       		.uleb128 0xb
 2726 0058 27       		.uleb128 0x27
 2727 0059 19       		.uleb128 0x19
 2728 005a 11       		.uleb128 0x11
ARM GAS  C:\Users\Petro\AppData\Local\Temp\ccLVkPCw.s 			page 77


 2729 005b 01       		.uleb128 0x1
 2730 005c 12       		.uleb128 0x12
 2731 005d 06       		.uleb128 0x6
 2732 005e 40       		.uleb128 0x40
 2733 005f 18       		.uleb128 0x18
 2734 0060 9742     		.uleb128 0x2117
 2735 0062 19       		.uleb128 0x19
 2736 0063 01       		.uleb128 0x1
 2737 0064 13       		.uleb128 0x13
 2738 0065 00       		.byte	0
 2739 0066 00       		.byte	0
 2740 0067 09       		.uleb128 0x9
 2741 0068 898201   		.uleb128 0x4109
 2742 006b 01       		.byte	0x1
 2743 006c 11       		.uleb128 0x11
 2744 006d 01       		.uleb128 0x1
 2745 006e 31       		.uleb128 0x31
 2746 006f 13       		.uleb128 0x13
 2747 0070 01       		.uleb128 0x1
 2748 0071 13       		.uleb128 0x13
 2749 0072 00       		.byte	0
 2750 0073 00       		.byte	0
 2751 0074 0A       		.uleb128 0xa
 2752 0075 8A8201   		.uleb128 0x410a
 2753 0078 00       		.byte	0
 2754 0079 02       		.uleb128 0x2
 2755 007a 18       		.uleb128 0x18
 2756 007b 9142     		.uleb128 0x2111
 2757 007d 18       		.uleb128 0x18
 2758 007e 00       		.byte	0
 2759 007f 00       		.byte	0
 2760 0080 0B       		.uleb128 0xb
 2761 0081 898201   		.uleb128 0x4109
 2762 0084 01       		.byte	0x1
 2763 0085 11       		.uleb128 0x11
 2764 0086 01       		.uleb128 0x1
 2765 0087 31       		.uleb128 0x31
 2766 0088 13       		.uleb128 0x13
 2767 0089 00       		.byte	0
 2768 008a 00       		.byte	0
 2769 008b 0C       		.uleb128 0xc
 2770 008c 34       		.uleb128 0x34
 2771 008d 00       		.byte	0
 2772 008e 03       		.uleb128 0x3
 2773 008f 0E       		.uleb128 0xe
 2774 0090 3A       		.uleb128 0x3a
 2775 0091 0B       		.uleb128 0xb
 2776 0092 3B       		.uleb128 0x3b
 2777 0093 0B       		.uleb128 0xb
 2778 0094 49       		.uleb128 0x49
 2779 0095 13       		.uleb128 0x13
 2780 0096 02       		.uleb128 0x2
 2781 0097 17       		.uleb128 0x17
 2782 0098 00       		.byte	0
 2783 0099 00       		.byte	0
 2784 009a 0D       		.uleb128 0xd
 2785 009b 898201   		.uleb128 0x4109
ARM GAS  C:\Users\Petro\AppData\Local\Temp\ccLVkPCw.s 			page 78


 2786 009e 00       		.byte	0
 2787 009f 11       		.uleb128 0x11
 2788 00a0 01       		.uleb128 0x1
 2789 00a1 31       		.uleb128 0x31
 2790 00a2 13       		.uleb128 0x13
 2791 00a3 00       		.byte	0
 2792 00a4 00       		.byte	0
 2793 00a5 0E       		.uleb128 0xe
 2794 00a6 2E       		.uleb128 0x2e
 2795 00a7 00       		.byte	0
 2796 00a8 3F       		.uleb128 0x3f
 2797 00a9 19       		.uleb128 0x19
 2798 00aa 03       		.uleb128 0x3
 2799 00ab 0E       		.uleb128 0xe
 2800 00ac 3A       		.uleb128 0x3a
 2801 00ad 0B       		.uleb128 0xb
 2802 00ae 3B       		.uleb128 0x3b
 2803 00af 05       		.uleb128 0x5
 2804 00b0 27       		.uleb128 0x27
 2805 00b1 19       		.uleb128 0x19
 2806 00b2 49       		.uleb128 0x49
 2807 00b3 13       		.uleb128 0x13
 2808 00b4 11       		.uleb128 0x11
 2809 00b5 01       		.uleb128 0x1
 2810 00b6 12       		.uleb128 0x12
 2811 00b7 06       		.uleb128 0x6
 2812 00b8 40       		.uleb128 0x40
 2813 00b9 18       		.uleb128 0x18
 2814 00ba 9742     		.uleb128 0x2117
 2815 00bc 19       		.uleb128 0x19
 2816 00bd 00       		.byte	0
 2817 00be 00       		.byte	0
 2818 00bf 0F       		.uleb128 0xf
 2819 00c0 2E       		.uleb128 0x2e
 2820 00c1 01       		.byte	0x1
 2821 00c2 3F       		.uleb128 0x3f
 2822 00c3 19       		.uleb128 0x19
 2823 00c4 03       		.uleb128 0x3
 2824 00c5 0E       		.uleb128 0xe
 2825 00c6 3A       		.uleb128 0x3a
 2826 00c7 0B       		.uleb128 0xb
 2827 00c8 3B       		.uleb128 0x3b
 2828 00c9 05       		.uleb128 0x5
 2829 00ca 27       		.uleb128 0x27
 2830 00cb 19       		.uleb128 0x19
 2831 00cc 11       		.uleb128 0x11
 2832 00cd 01       		.uleb128 0x1
 2833 00ce 12       		.uleb128 0x12
 2834 00cf 06       		.uleb128 0x6
 2835 00d0 40       		.uleb128 0x40
 2836 00d1 18       		.uleb128 0x18
 2837 00d2 9742     		.uleb128 0x2117
 2838 00d4 19       		.uleb128 0x19
 2839 00d5 01       		.uleb128 0x1
 2840 00d6 13       		.uleb128 0x13
 2841 00d7 00       		.byte	0
 2842 00d8 00       		.byte	0
ARM GAS  C:\Users\Petro\AppData\Local\Temp\ccLVkPCw.s 			page 79


 2843 00d9 10       		.uleb128 0x10
 2844 00da 05       		.uleb128 0x5
 2845 00db 00       		.byte	0
 2846 00dc 03       		.uleb128 0x3
 2847 00dd 0E       		.uleb128 0xe
 2848 00de 3A       		.uleb128 0x3a
 2849 00df 0B       		.uleb128 0xb
 2850 00e0 3B       		.uleb128 0x3b
 2851 00e1 05       		.uleb128 0x5
 2852 00e2 49       		.uleb128 0x49
 2853 00e3 13       		.uleb128 0x13
 2854 00e4 02       		.uleb128 0x2
 2855 00e5 18       		.uleb128 0x18
 2856 00e6 00       		.byte	0
 2857 00e7 00       		.byte	0
 2858 00e8 11       		.uleb128 0x11
 2859 00e9 2E       		.uleb128 0x2e
 2860 00ea 01       		.byte	0x1
 2861 00eb 3F       		.uleb128 0x3f
 2862 00ec 19       		.uleb128 0x19
 2863 00ed 03       		.uleb128 0x3
 2864 00ee 0E       		.uleb128 0xe
 2865 00ef 3A       		.uleb128 0x3a
 2866 00f0 0B       		.uleb128 0xb
 2867 00f1 3B       		.uleb128 0x3b
 2868 00f2 05       		.uleb128 0x5
 2869 00f3 27       		.uleb128 0x27
 2870 00f4 19       		.uleb128 0x19
 2871 00f5 49       		.uleb128 0x49
 2872 00f6 13       		.uleb128 0x13
 2873 00f7 11       		.uleb128 0x11
 2874 00f8 01       		.uleb128 0x1
 2875 00f9 12       		.uleb128 0x12
 2876 00fa 06       		.uleb128 0x6
 2877 00fb 40       		.uleb128 0x40
 2878 00fc 18       		.uleb128 0x18
 2879 00fd 9742     		.uleb128 0x2117
 2880 00ff 19       		.uleb128 0x19
 2881 0100 01       		.uleb128 0x1
 2882 0101 13       		.uleb128 0x13
 2883 0102 00       		.byte	0
 2884 0103 00       		.byte	0
 2885 0104 12       		.uleb128 0x12
 2886 0105 34       		.uleb128 0x34
 2887 0106 00       		.byte	0
 2888 0107 03       		.uleb128 0x3
 2889 0108 0E       		.uleb128 0xe
 2890 0109 3A       		.uleb128 0x3a
 2891 010a 0B       		.uleb128 0xb
 2892 010b 3B       		.uleb128 0x3b
 2893 010c 05       		.uleb128 0x5
 2894 010d 49       		.uleb128 0x49
 2895 010e 13       		.uleb128 0x13
 2896 010f 02       		.uleb128 0x2
 2897 0110 17       		.uleb128 0x17
 2898 0111 00       		.byte	0
 2899 0112 00       		.byte	0
ARM GAS  C:\Users\Petro\AppData\Local\Temp\ccLVkPCw.s 			page 80


 2900 0113 13       		.uleb128 0x13
 2901 0114 34       		.uleb128 0x34
 2902 0115 00       		.byte	0
 2903 0116 03       		.uleb128 0x3
 2904 0117 0E       		.uleb128 0xe
 2905 0118 3A       		.uleb128 0x3a
 2906 0119 0B       		.uleb128 0xb
 2907 011a 3B       		.uleb128 0x3b
 2908 011b 05       		.uleb128 0x5
 2909 011c 49       		.uleb128 0x49
 2910 011d 13       		.uleb128 0x13
 2911 011e 02       		.uleb128 0x2
 2912 011f 18       		.uleb128 0x18
 2913 0120 00       		.byte	0
 2914 0121 00       		.byte	0
 2915 0122 14       		.uleb128 0x14
 2916 0123 05       		.uleb128 0x5
 2917 0124 00       		.byte	0
 2918 0125 03       		.uleb128 0x3
 2919 0126 0E       		.uleb128 0xe
 2920 0127 3A       		.uleb128 0x3a
 2921 0128 0B       		.uleb128 0xb
 2922 0129 3B       		.uleb128 0x3b
 2923 012a 05       		.uleb128 0x5
 2924 012b 49       		.uleb128 0x49
 2925 012c 13       		.uleb128 0x13
 2926 012d 02       		.uleb128 0x2
 2927 012e 17       		.uleb128 0x17
 2928 012f 00       		.byte	0
 2929 0130 00       		.byte	0
 2930 0131 15       		.uleb128 0x15
 2931 0132 26       		.uleb128 0x26
 2932 0133 00       		.byte	0
 2933 0134 49       		.uleb128 0x49
 2934 0135 13       		.uleb128 0x13
 2935 0136 00       		.byte	0
 2936 0137 00       		.byte	0
 2937 0138 16       		.uleb128 0x16
 2938 0139 0B       		.uleb128 0xb
 2939 013a 01       		.byte	0x1
 2940 013b 11       		.uleb128 0x11
 2941 013c 01       		.uleb128 0x1
 2942 013d 12       		.uleb128 0x12
 2943 013e 06       		.uleb128 0x6
 2944 013f 00       		.byte	0
 2945 0140 00       		.byte	0
 2946 0141 17       		.uleb128 0x17
 2947 0142 34       		.uleb128 0x34
 2948 0143 00       		.byte	0
 2949 0144 03       		.uleb128 0x3
 2950 0145 0E       		.uleb128 0xe
 2951 0146 3A       		.uleb128 0x3a
 2952 0147 0B       		.uleb128 0xb
 2953 0148 3B       		.uleb128 0x3b
 2954 0149 0B       		.uleb128 0xb
 2955 014a 49       		.uleb128 0x49
 2956 014b 13       		.uleb128 0x13
ARM GAS  C:\Users\Petro\AppData\Local\Temp\ccLVkPCw.s 			page 81


 2957 014c 3F       		.uleb128 0x3f
 2958 014d 19       		.uleb128 0x19
 2959 014e 02       		.uleb128 0x2
 2960 014f 18       		.uleb128 0x18
 2961 0150 00       		.byte	0
 2962 0151 00       		.byte	0
 2963 0152 18       		.uleb128 0x18
 2964 0153 01       		.uleb128 0x1
 2965 0154 01       		.byte	0x1
 2966 0155 49       		.uleb128 0x49
 2967 0156 13       		.uleb128 0x13
 2968 0157 01       		.uleb128 0x1
 2969 0158 13       		.uleb128 0x13
 2970 0159 00       		.byte	0
 2971 015a 00       		.byte	0
 2972 015b 19       		.uleb128 0x19
 2973 015c 21       		.uleb128 0x21
 2974 015d 00       		.byte	0
 2975 015e 49       		.uleb128 0x49
 2976 015f 13       		.uleb128 0x13
 2977 0160 2F       		.uleb128 0x2f
 2978 0161 0B       		.uleb128 0xb
 2979 0162 00       		.byte	0
 2980 0163 00       		.byte	0
 2981 0164 1A       		.uleb128 0x1a
 2982 0165 2E       		.uleb128 0x2e
 2983 0166 01       		.byte	0x1
 2984 0167 3F       		.uleb128 0x3f
 2985 0168 19       		.uleb128 0x19
 2986 0169 03       		.uleb128 0x3
 2987 016a 0E       		.uleb128 0xe
 2988 016b 3A       		.uleb128 0x3a
 2989 016c 0B       		.uleb128 0xb
 2990 016d 3B       		.uleb128 0x3b
 2991 016e 0B       		.uleb128 0xb
 2992 016f 27       		.uleb128 0x27
 2993 0170 19       		.uleb128 0x19
 2994 0171 49       		.uleb128 0x49
 2995 0172 13       		.uleb128 0x13
 2996 0173 3C       		.uleb128 0x3c
 2997 0174 19       		.uleb128 0x19
 2998 0175 01       		.uleb128 0x1
 2999 0176 13       		.uleb128 0x13
 3000 0177 00       		.byte	0
 3001 0178 00       		.byte	0
 3002 0179 1B       		.uleb128 0x1b
 3003 017a 05       		.uleb128 0x5
 3004 017b 00       		.byte	0
 3005 017c 49       		.uleb128 0x49
 3006 017d 13       		.uleb128 0x13
 3007 017e 00       		.byte	0
 3008 017f 00       		.byte	0
 3009 0180 1C       		.uleb128 0x1c
 3010 0181 2E       		.uleb128 0x2e
 3011 0182 01       		.byte	0x1
 3012 0183 3F       		.uleb128 0x3f
 3013 0184 19       		.uleb128 0x19
ARM GAS  C:\Users\Petro\AppData\Local\Temp\ccLVkPCw.s 			page 82


 3014 0185 03       		.uleb128 0x3
 3015 0186 0E       		.uleb128 0xe
 3016 0187 3A       		.uleb128 0x3a
 3017 0188 0B       		.uleb128 0xb
 3018 0189 3B       		.uleb128 0x3b
 3019 018a 0B       		.uleb128 0xb
 3020 018b 27       		.uleb128 0x27
 3021 018c 19       		.uleb128 0x19
 3022 018d 3C       		.uleb128 0x3c
 3023 018e 19       		.uleb128 0x19
 3024 018f 01       		.uleb128 0x1
 3025 0190 13       		.uleb128 0x13
 3026 0191 00       		.byte	0
 3027 0192 00       		.byte	0
 3028 0193 1D       		.uleb128 0x1d
 3029 0194 2E       		.uleb128 0x2e
 3030 0195 00       		.byte	0
 3031 0196 3F       		.uleb128 0x3f
 3032 0197 19       		.uleb128 0x19
 3033 0198 03       		.uleb128 0x3
 3034 0199 0E       		.uleb128 0xe
 3035 019a 3A       		.uleb128 0x3a
 3036 019b 0B       		.uleb128 0xb
 3037 019c 3B       		.uleb128 0x3b
 3038 019d 0B       		.uleb128 0xb
 3039 019e 27       		.uleb128 0x27
 3040 019f 19       		.uleb128 0x19
 3041 01a0 49       		.uleb128 0x49
 3042 01a1 13       		.uleb128 0x13
 3043 01a2 3C       		.uleb128 0x3c
 3044 01a3 19       		.uleb128 0x19
 3045 01a4 00       		.byte	0
 3046 01a5 00       		.byte	0
 3047 01a6 1E       		.uleb128 0x1e
 3048 01a7 2E       		.uleb128 0x2e
 3049 01a8 00       		.byte	0
 3050 01a9 3F       		.uleb128 0x3f
 3051 01aa 19       		.uleb128 0x19
 3052 01ab 03       		.uleb128 0x3
 3053 01ac 0E       		.uleb128 0xe
 3054 01ad 3A       		.uleb128 0x3a
 3055 01ae 0B       		.uleb128 0xb
 3056 01af 3B       		.uleb128 0x3b
 3057 01b0 0B       		.uleb128 0xb
 3058 01b1 27       		.uleb128 0x27
 3059 01b2 19       		.uleb128 0x19
 3060 01b3 3C       		.uleb128 0x3c
 3061 01b4 19       		.uleb128 0x19
 3062 01b5 00       		.byte	0
 3063 01b6 00       		.byte	0
 3064 01b7 1F       		.uleb128 0x1f
 3065 01b8 2E       		.uleb128 0x2e
 3066 01b9 01       		.byte	0x1
 3067 01ba 3F       		.uleb128 0x3f
 3068 01bb 19       		.uleb128 0x19
 3069 01bc 03       		.uleb128 0x3
 3070 01bd 0E       		.uleb128 0xe
ARM GAS  C:\Users\Petro\AppData\Local\Temp\ccLVkPCw.s 			page 83


 3071 01be 3A       		.uleb128 0x3a
 3072 01bf 0B       		.uleb128 0xb
 3073 01c0 3B       		.uleb128 0x3b
 3074 01c1 0B       		.uleb128 0xb
 3075 01c2 27       		.uleb128 0x27
 3076 01c3 19       		.uleb128 0x19
 3077 01c4 3C       		.uleb128 0x3c
 3078 01c5 19       		.uleb128 0x19
 3079 01c6 00       		.byte	0
 3080 01c7 00       		.byte	0
 3081 01c8 00       		.byte	0
 3082              		.section	.debug_loc,"",%progbits
 3083              	.Ldebug_loc0:
 3084              	.LLST0:
 3085 0000 08000000 		.4byte	.LVL5
 3086 0004 46000000 		.4byte	.LVL11
 3087 0008 0100     		.2byte	0x1
 3088 000a 55       		.byte	0x55
 3089 000b 00000000 		.4byte	0
 3090 000f 00000000 		.4byte	0
 3091              	.LLST1:
 3092 0013 08000000 		.4byte	.LVL15
 3093 0017 3A000000 		.4byte	.LVL20
 3094 001b 0100     		.2byte	0x1
 3095 001d 54       		.byte	0x54
 3096 001e 00000000 		.4byte	0
 3097 0022 00000000 		.4byte	0
 3098              	.LLST2:
 3099 0026 22000000 		.4byte	.LVL26
 3100 002a 3E000000 		.4byte	.LVL32
 3101 002e 0100     		.2byte	0x1
 3102 0030 54       		.byte	0x54
 3103 0031 44000000 		.4byte	.LVL34
 3104 0035 4C000000 		.4byte	.LVL36
 3105 0039 0100     		.2byte	0x1
 3106 003b 54       		.byte	0x54
 3107 003c 00000000 		.4byte	0
 3108 0040 00000000 		.4byte	0
 3109              	.LLST3:
 3110 0044 0E000000 		.4byte	.LVL24
 3111 0048 24000000 		.4byte	.LVL27
 3112 004c 0100     		.2byte	0x1
 3113 004e 53       		.byte	0x53
 3114 004f 24000000 		.4byte	.LVL27
 3115 0053 26000000 		.4byte	.LVL28
 3116 0057 0300     		.2byte	0x3
 3117 0059 73       		.byte	0x73
 3118 005a 7F       		.sleb128 -1
 3119 005b 9F       		.byte	0x9f
 3120 005c 26000000 		.4byte	.LVL28
 3121 0060 32000000 		.4byte	.LVL30
 3122 0064 0100     		.2byte	0x1
 3123 0066 53       		.byte	0x53
 3124 0067 32000000 		.4byte	.LVL30
 3125 006b 3C000000 		.4byte	.LVL31
 3126 006f 0500     		.2byte	0x5
 3127 0071 03       		.byte	0x3
ARM GAS  C:\Users\Petro\AppData\Local\Temp\ccLVkPCw.s 			page 84


 3128 0072 00000000 		.4byte	UART_XB2_rxBufferRead
 3129 0076 3E000000 		.4byte	.LVL32
 3130 007a 40000000 		.4byte	.LVL33
 3131 007e 0100     		.2byte	0x1
 3132 0080 53       		.byte	0x53
 3133 0081 00000000 		.4byte	0
 3134 0085 00000000 		.4byte	0
 3135              	.LLST4:
 3136 0089 12000000 		.4byte	.LVL25
 3137 008d 49000000 		.4byte	.LVL35-1
 3138 0091 0100     		.2byte	0x1
 3139 0093 51       		.byte	0x51
 3140 0094 00000000 		.4byte	0
 3141 0098 00000000 		.4byte	0
 3142              	.LLST5:
 3143 009c 02000000 		.4byte	.LVL39
 3144 00a0 22000000 		.4byte	.LVL43
 3145 00a4 0200     		.2byte	0x2
 3146 00a6 30       		.byte	0x30
 3147 00a7 9F       		.byte	0x9f
 3148 00a8 22000000 		.4byte	.LVL43
 3149 00ac 3E000000 		.4byte	.LVL49
 3150 00b0 0100     		.2byte	0x1
 3151 00b2 54       		.byte	0x54
 3152 00b3 3E000000 		.4byte	.LVL49
 3153 00b7 4E000000 		.4byte	.LVL52
 3154 00bb 0200     		.2byte	0x2
 3155 00bd 30       		.byte	0x30
 3156 00be 9F       		.byte	0x9f
 3157 00bf 4E000000 		.4byte	.LVL52
 3158 00c3 56000000 		.4byte	.LVL53
 3159 00c7 0100     		.2byte	0x1
 3160 00c9 54       		.byte	0x54
 3161 00ca 56000000 		.4byte	.LVL53
 3162 00ce 5A000000 		.4byte	.LVL54
 3163 00d2 0200     		.2byte	0x2
 3164 00d4 30       		.byte	0x30
 3165 00d5 9F       		.byte	0x9f
 3166 00d6 5A000000 		.4byte	.LVL54
 3167 00da 64000000 		.4byte	.LVL57
 3168 00de 0100     		.2byte	0x1
 3169 00e0 54       		.byte	0x54
 3170 00e1 00000000 		.4byte	0
 3171 00e5 00000000 		.4byte	0
 3172              	.LLST6:
 3173 00e9 44000000 		.4byte	.LVL51
 3174 00ed 5C000000 		.4byte	.LVL55
 3175 00f1 0100     		.2byte	0x1
 3176 00f3 53       		.byte	0x53
 3177 00f4 00000000 		.4byte	0
 3178 00f8 00000000 		.4byte	0
 3179              	.LLST7:
 3180 00fc 0E000000 		.4byte	.LVL41
 3181 0100 24000000 		.4byte	.LVL44
 3182 0104 0100     		.2byte	0x1
 3183 0106 53       		.byte	0x53
 3184 0107 24000000 		.4byte	.LVL44
ARM GAS  C:\Users\Petro\AppData\Local\Temp\ccLVkPCw.s 			page 85


 3185 010b 26000000 		.4byte	.LVL45
 3186 010f 0300     		.2byte	0x3
 3187 0111 73       		.byte	0x73
 3188 0112 7F       		.sleb128 -1
 3189 0113 9F       		.byte	0x9f
 3190 0114 26000000 		.4byte	.LVL45
 3191 0118 32000000 		.4byte	.LVL47
 3192 011c 0100     		.2byte	0x1
 3193 011e 53       		.byte	0x53
 3194 011f 32000000 		.4byte	.LVL47
 3195 0123 3C000000 		.4byte	.LVL48
 3196 0127 0500     		.2byte	0x5
 3197 0129 03       		.byte	0x3
 3198 012a 00000000 		.4byte	UART_XB2_rxBufferRead
 3199 012e 3E000000 		.4byte	.LVL49
 3200 0132 40000000 		.4byte	.LVL50
 3201 0136 0100     		.2byte	0x1
 3202 0138 53       		.byte	0x53
 3203 0139 00000000 		.4byte	0
 3204 013d 00000000 		.4byte	0
 3205              	.LLST8:
 3206 0141 12000000 		.4byte	.LVL42
 3207 0145 61000000 		.4byte	.LVL56-1
 3208 0149 0100     		.2byte	0x1
 3209 014b 51       		.byte	0x51
 3210 014c 00000000 		.4byte	0
 3211 0150 00000000 		.4byte	0
 3212              	.LLST9:
 3213 0154 0C000000 		.4byte	.LVL59
 3214 0158 18000000 		.4byte	.LVL61
 3215 015c 0100     		.2byte	0x1
 3216 015e 54       		.byte	0x54
 3217 015f 00000000 		.4byte	0
 3218 0163 00000000 		.4byte	0
 3219              	.LLST10:
 3220 0167 36000000 		.4byte	.LVL64
 3221 016b 38000000 		.4byte	.LVL65
 3222 016f 0100     		.2byte	0x1
 3223 0171 54       		.byte	0x54
 3224 0172 44000000 		.4byte	.LVL66
 3225 0176 46000000 		.4byte	.LVL67
 3226 017a 0100     		.2byte	0x1
 3227 017c 54       		.byte	0x54
 3228 017d 48000000 		.4byte	.LVL68
 3229 0181 50000000 		.4byte	.LVL70
 3230 0185 0100     		.2byte	0x1
 3231 0187 54       		.byte	0x54
 3232 0188 00000000 		.4byte	0
 3233 018c 00000000 		.4byte	0
 3234              	.LLST11:
 3235 0190 06000000 		.4byte	.LVL71
 3236 0194 1B000000 		.4byte	.LVL72-1
 3237 0198 0100     		.2byte	0x1
 3238 019a 50       		.byte	0x50
 3239 019b 00000000 		.4byte	0
 3240 019f 00000000 		.4byte	0
 3241              	.LLST12:
ARM GAS  C:\Users\Petro\AppData\Local\Temp\ccLVkPCw.s 			page 86


 3242 01a3 00000000 		.4byte	.LVL79
 3243 01a7 0E000000 		.4byte	.LVL80
 3244 01ab 0100     		.2byte	0x1
 3245 01ad 50       		.byte	0x50
 3246 01ae 0E000000 		.4byte	.LVL80
 3247 01b2 5C000000 		.4byte	.LFE19
 3248 01b6 0400     		.2byte	0x4
 3249 01b8 F3       		.byte	0xf3
 3250 01b9 01       		.uleb128 0x1
 3251 01ba 50       		.byte	0x50
 3252 01bb 9F       		.byte	0x9f
 3253 01bc 00000000 		.4byte	0
 3254 01c0 00000000 		.4byte	0
 3255              	.LLST13:
 3256 01c4 00000000 		.4byte	.LVL83
 3257 01c8 54000000 		.4byte	.LVL88
 3258 01cc 0100     		.2byte	0x1
 3259 01ce 50       		.byte	0x50
 3260 01cf 54000000 		.4byte	.LVL88
 3261 01d3 57000000 		.4byte	.LVL89-1
 3262 01d7 0800     		.2byte	0x8
 3263 01d9 71       		.byte	0x71
 3264 01da 00       		.sleb128 0
 3265 01db 03       		.byte	0x3
 3266 01dc FFFFFFFF 		.4byte	UART_XB2_txBuffer-1
 3267 01e0 22       		.byte	0x22
 3268 01e1 57000000 		.4byte	.LVL89-1
 3269 01e5 6C000000 		.4byte	.LFE21
 3270 01e9 0400     		.2byte	0x4
 3271 01eb F3       		.byte	0xf3
 3272 01ec 01       		.uleb128 0x1
 3273 01ed 50       		.byte	0x50
 3274 01ee 9F       		.byte	0x9f
 3275 01ef 00000000 		.4byte	0
 3276 01f3 00000000 		.4byte	0
 3277              	.LLST14:
 3278 01f7 06000000 		.4byte	.LVL84
 3279 01fb 57000000 		.4byte	.LVL89-1
 3280 01ff 0100     		.2byte	0x1
 3281 0201 51       		.byte	0x51
 3282 0202 00000000 		.4byte	0
 3283 0206 00000000 		.4byte	0
 3284              	.LLST15:
 3285 020a 0A000000 		.4byte	.LVL85
 3286 020e 57000000 		.4byte	.LVL89-1
 3287 0212 0100     		.2byte	0x1
 3288 0214 52       		.byte	0x52
 3289 0215 00000000 		.4byte	0
 3290 0219 00000000 		.4byte	0
 3291              	.LLST16:
 3292 021d 00000000 		.4byte	.LVL90
 3293 0221 0C000000 		.4byte	.LVL92
 3294 0225 0100     		.2byte	0x1
 3295 0227 50       		.byte	0x50
 3296 0228 0C000000 		.4byte	.LVL92
 3297 022c 16000000 		.4byte	.LVL96
 3298 0230 0100     		.2byte	0x1
ARM GAS  C:\Users\Petro\AppData\Local\Temp\ccLVkPCw.s 			page 87


 3299 0232 55       		.byte	0x55
 3300 0233 16000000 		.4byte	.LVL96
 3301 0237 1A000000 		.4byte	.LVL97
 3302 023b 0100     		.2byte	0x1
 3303 023d 50       		.byte	0x50
 3304 023e 1A000000 		.4byte	.LVL97
 3305 0242 20000000 		.4byte	.LVL98
 3306 0246 0100     		.2byte	0x1
 3307 0248 55       		.byte	0x55
 3308 0249 20000000 		.4byte	.LVL98
 3309 024d 28000000 		.4byte	.LFE22
 3310 0251 0400     		.2byte	0x4
 3311 0253 F3       		.byte	0xf3
 3312 0254 01       		.uleb128 0x1
 3313 0255 50       		.byte	0x50
 3314 0256 9F       		.byte	0x9f
 3315 0257 00000000 		.4byte	0
 3316 025b 00000000 		.4byte	0
 3317              	.LLST17:
 3318 025f 02000000 		.4byte	.LVL91
 3319 0263 0C000000 		.4byte	.LVL92
 3320 0267 0200     		.2byte	0x2
 3321 0269 30       		.byte	0x30
 3322 026a 9F       		.byte	0x9f
 3323 026b 0C000000 		.4byte	.LVL92
 3324 026f 12000000 		.4byte	.LVL94
 3325 0273 0100     		.2byte	0x1
 3326 0275 54       		.byte	0x54
 3327 0276 14000000 		.4byte	.LVL95
 3328 027a 16000000 		.4byte	.LVL96
 3329 027e 0100     		.2byte	0x1
 3330 0280 54       		.byte	0x54
 3331 0281 16000000 		.4byte	.LVL96
 3332 0285 1A000000 		.4byte	.LVL97
 3333 0289 0200     		.2byte	0x2
 3334 028b 30       		.byte	0x30
 3335 028c 9F       		.byte	0x9f
 3336 028d 1A000000 		.4byte	.LVL97
 3337 0291 20000000 		.4byte	.LVL98
 3338 0295 0100     		.2byte	0x1
 3339 0297 54       		.byte	0x54
 3340 0298 00000000 		.4byte	0
 3341 029c 00000000 		.4byte	0
 3342              	.LLST18:
 3343 02a0 00000000 		.4byte	.LVL99
 3344 02a4 0C000000 		.4byte	.LVL101
 3345 02a8 0100     		.2byte	0x1
 3346 02aa 50       		.byte	0x50
 3347 02ab 0C000000 		.4byte	.LVL101
 3348 02af 18000000 		.4byte	.LVL105
 3349 02b3 0100     		.2byte	0x1
 3350 02b5 56       		.byte	0x56
 3351 02b6 18000000 		.4byte	.LVL105
 3352 02ba 1E000000 		.4byte	.LVL106
 3353 02be 0100     		.2byte	0x1
 3354 02c0 50       		.byte	0x50
 3355 02c1 1E000000 		.4byte	.LVL106
ARM GAS  C:\Users\Petro\AppData\Local\Temp\ccLVkPCw.s 			page 88


 3356 02c5 22000000 		.4byte	.LVL107
 3357 02c9 0100     		.2byte	0x1
 3358 02cb 56       		.byte	0x56
 3359 02cc 22000000 		.4byte	.LVL107
 3360 02d0 28000000 		.4byte	.LFE23
 3361 02d4 0400     		.2byte	0x4
 3362 02d6 F3       		.byte	0xf3
 3363 02d7 01       		.uleb128 0x1
 3364 02d8 50       		.byte	0x50
 3365 02d9 9F       		.byte	0x9f
 3366 02da 00000000 		.4byte	0
 3367 02de 00000000 		.4byte	0
 3368              	.LLST19:
 3369 02e2 00000000 		.4byte	.LVL99
 3370 02e6 0C000000 		.4byte	.LVL101
 3371 02ea 0100     		.2byte	0x1
 3372 02ec 51       		.byte	0x51
 3373 02ed 0C000000 		.4byte	.LVL101
 3374 02f1 18000000 		.4byte	.LVL105
 3375 02f5 0400     		.2byte	0x4
 3376 02f7 F3       		.byte	0xf3
 3377 02f8 01       		.uleb128 0x1
 3378 02f9 51       		.byte	0x51
 3379 02fa 9F       		.byte	0x9f
 3380 02fb 18000000 		.4byte	.LVL105
 3381 02ff 1E000000 		.4byte	.LVL106
 3382 0303 0100     		.2byte	0x1
 3383 0305 51       		.byte	0x51
 3384 0306 1E000000 		.4byte	.LVL106
 3385 030a 28000000 		.4byte	.LFE23
 3386 030e 0400     		.2byte	0x4
 3387 0310 F3       		.byte	0xf3
 3388 0311 01       		.uleb128 0x1
 3389 0312 51       		.byte	0x51
 3390 0313 9F       		.byte	0x9f
 3391 0314 00000000 		.4byte	0
 3392 0318 00000000 		.4byte	0
 3393              	.LLST20:
 3394 031c 02000000 		.4byte	.LVL100
 3395 0320 0C000000 		.4byte	.LVL101
 3396 0324 0200     		.2byte	0x2
 3397 0326 30       		.byte	0x30
 3398 0327 9F       		.byte	0x9f
 3399 0328 0C000000 		.4byte	.LVL101
 3400 032c 14000000 		.4byte	.LVL103
 3401 0330 0100     		.2byte	0x1
 3402 0332 54       		.byte	0x54
 3403 0333 16000000 		.4byte	.LVL104
 3404 0337 18000000 		.4byte	.LVL105
 3405 033b 0100     		.2byte	0x1
 3406 033d 54       		.byte	0x54
 3407 033e 18000000 		.4byte	.LVL105
 3408 0342 1E000000 		.4byte	.LVL106
 3409 0346 0200     		.2byte	0x2
 3410 0348 30       		.byte	0x30
 3411 0349 9F       		.byte	0x9f
 3412 034a 1E000000 		.4byte	.LVL106
ARM GAS  C:\Users\Petro\AppData\Local\Temp\ccLVkPCw.s 			page 89


 3413 034e 22000000 		.4byte	.LVL107
 3414 0352 0100     		.2byte	0x1
 3415 0354 54       		.byte	0x54
 3416 0355 00000000 		.4byte	0
 3417 0359 00000000 		.4byte	0
 3418              	.LLST21:
 3419 035d 00000000 		.4byte	.LVL108
 3420 0361 0D000000 		.4byte	.LVL109-1
 3421 0365 0100     		.2byte	0x1
 3422 0367 50       		.byte	0x50
 3423 0368 0D000000 		.4byte	.LVL109-1
 3424 036c 20000000 		.4byte	.LFE24
 3425 0370 0400     		.2byte	0x4
 3426 0372 F3       		.byte	0xf3
 3427 0373 01       		.uleb128 0x1
 3428 0374 50       		.byte	0x50
 3429 0375 9F       		.byte	0x9f
 3430 0376 00000000 		.4byte	0
 3431 037a 00000000 		.4byte	0
 3432              	.LLST22:
 3433 037e 26000000 		.4byte	.LVL113
 3434 0382 28000000 		.4byte	.LVL114
 3435 0386 0100     		.2byte	0x1
 3436 0388 54       		.byte	0x54
 3437 0389 32000000 		.4byte	.LVL115
 3438 038d 34000000 		.4byte	.LVL116
 3439 0391 0100     		.2byte	0x1
 3440 0393 54       		.byte	0x54
 3441 0394 36000000 		.4byte	.LVL117
 3442 0398 3E000000 		.4byte	.LVL119
 3443 039c 0100     		.2byte	0x1
 3444 039e 54       		.byte	0x54
 3445 039f 00000000 		.4byte	0
 3446 03a3 00000000 		.4byte	0
 3447              	.LLST23:
 3448 03a7 06000000 		.4byte	.LVL120
 3449 03ab 1B000000 		.4byte	.LVL121-1
 3450 03af 0100     		.2byte	0x1
 3451 03b1 50       		.byte	0x50
 3452 03b2 00000000 		.4byte	0
 3453 03b6 00000000 		.4byte	0
 3454              	.LLST24:
 3455 03ba 00000000 		.4byte	.LVL124
 3456 03be 3C000000 		.4byte	.LVL129
 3457 03c2 0100     		.2byte	0x1
 3458 03c4 50       		.byte	0x50
 3459 03c5 3C000000 		.4byte	.LVL129
 3460 03c9 5C000000 		.4byte	.LFE27
 3461 03cd 0400     		.2byte	0x4
 3462 03cf F3       		.byte	0xf3
 3463 03d0 01       		.uleb128 0x1
 3464 03d1 50       		.byte	0x50
 3465 03d2 9F       		.byte	0x9f
 3466 03d3 00000000 		.4byte	0
 3467 03d7 00000000 		.4byte	0
 3468              	.LLST25:
 3469 03db 26000000 		.4byte	.LVL125
ARM GAS  C:\Users\Petro\AppData\Local\Temp\ccLVkPCw.s 			page 90


 3470 03df 2A000000 		.4byte	.LVL126
 3471 03e3 0100     		.2byte	0x1
 3472 03e5 53       		.byte	0x53
 3473 03e6 36000000 		.4byte	.LVL127
 3474 03ea 3A000000 		.4byte	.LVL128
 3475 03ee 0100     		.2byte	0x1
 3476 03f0 53       		.byte	0x53
 3477 03f1 00000000 		.4byte	0
 3478 03f5 00000000 		.4byte	0
 3479              		.section	.debug_aranges,"",%progbits
 3480 0000 EC000000 		.4byte	0xec
 3481 0004 0200     		.2byte	0x2
 3482 0006 00000000 		.4byte	.Ldebug_info0
 3483 000a 04       		.byte	0x4
 3484 000b 00       		.byte	0
 3485 000c 0000     		.2byte	0
 3486 000e 0000     		.2byte	0
 3487 0010 00000000 		.4byte	.LFB3
 3488 0014 68000000 		.4byte	.LFE3-.LFB3
 3489 0018 00000000 		.4byte	.LFB4
 3490 001c 54000000 		.4byte	.LFE4-.LFB4
 3491 0020 00000000 		.4byte	.LFB2
 3492 0024 20000000 		.4byte	.LFE2-.LFB2
 3493 0028 00000000 		.4byte	.LFB5
 3494 002c 48000000 		.4byte	.LFE5-.LFB5
 3495 0030 00000000 		.4byte	.LFB6
 3496 0034 04000000 		.4byte	.LFE6-.LFB6
 3497 0038 00000000 		.4byte	.LFB7
 3498 003c 02000000 		.4byte	.LFE7-.LFB7
 3499 0040 00000000 		.4byte	.LFB8
 3500 0044 0C000000 		.4byte	.LFE8-.LFB8
 3501 0048 00000000 		.4byte	.LFB9
 3502 004c 5C000000 		.4byte	.LFE9-.LFB9
 3503 0050 00000000 		.4byte	.LFB10
 3504 0054 24000000 		.4byte	.LFE10-.LFB10
 3505 0058 00000000 		.4byte	.LFB11
 3506 005c 78000000 		.4byte	.LFE11-.LFB11
 3507 0060 00000000 		.4byte	.LFB12
 3508 0064 28000000 		.4byte	.LFE12-.LFB12
 3509 0068 00000000 		.4byte	.LFB13
 3510 006c 58000000 		.4byte	.LFE13-.LFB13
 3511 0070 00000000 		.4byte	.LFB14
 3512 0074 40000000 		.4byte	.LFE14-.LFB14
 3513 0078 00000000 		.4byte	.LFB15
 3514 007c 02000000 		.4byte	.LFE15-.LFB15
 3515 0080 00000000 		.4byte	.LFB16
 3516 0084 0C000000 		.4byte	.LFE16-.LFB16
 3517 0088 00000000 		.4byte	.LFB17
 3518 008c 0C000000 		.4byte	.LFE17-.LFB17
 3519 0090 00000000 		.4byte	.LFB18
 3520 0094 0C000000 		.4byte	.LFE18-.LFB18
 3521 0098 00000000 		.4byte	.LFB19
 3522 009c 5C000000 		.4byte	.LFE19-.LFB19
 3523 00a0 00000000 		.4byte	.LFB20
 3524 00a4 0C000000 		.4byte	.LFE20-.LFB20
 3525 00a8 00000000 		.4byte	.LFB21
 3526 00ac 6C000000 		.4byte	.LFE21-.LFB21
ARM GAS  C:\Users\Petro\AppData\Local\Temp\ccLVkPCw.s 			page 91


 3527 00b0 00000000 		.4byte	.LFB22
 3528 00b4 28000000 		.4byte	.LFE22-.LFB22
 3529 00b8 00000000 		.4byte	.LFB23
 3530 00bc 28000000 		.4byte	.LFE23-.LFB23
 3531 00c0 00000000 		.4byte	.LFB24
 3532 00c4 20000000 		.4byte	.LFE24-.LFB24
 3533 00c8 00000000 		.4byte	.LFB25
 3534 00cc 44000000 		.4byte	.LFE25-.LFB25
 3535 00d0 00000000 		.4byte	.LFB26
 3536 00d4 3C000000 		.4byte	.LFE26-.LFB26
 3537 00d8 00000000 		.4byte	.LFB27
 3538 00dc 5C000000 		.4byte	.LFE27-.LFB27
 3539 00e0 00000000 		.4byte	.LFB28
 3540 00e4 02000000 		.4byte	.LFE28-.LFB28
 3541 00e8 00000000 		.4byte	0
 3542 00ec 00000000 		.4byte	0
 3543              		.section	.debug_ranges,"",%progbits
 3544              	.Ldebug_ranges0:
 3545 0000 00000000 		.4byte	.LFB3
 3546 0004 68000000 		.4byte	.LFE3
 3547 0008 00000000 		.4byte	.LFB4
 3548 000c 54000000 		.4byte	.LFE4
 3549 0010 00000000 		.4byte	.LFB2
 3550 0014 20000000 		.4byte	.LFE2
 3551 0018 00000000 		.4byte	.LFB5
 3552 001c 48000000 		.4byte	.LFE5
 3553 0020 00000000 		.4byte	.LFB6
 3554 0024 04000000 		.4byte	.LFE6
 3555 0028 00000000 		.4byte	.LFB7
 3556 002c 02000000 		.4byte	.LFE7
 3557 0030 00000000 		.4byte	.LFB8
 3558 0034 0C000000 		.4byte	.LFE8
 3559 0038 00000000 		.4byte	.LFB9
 3560 003c 5C000000 		.4byte	.LFE9
 3561 0040 00000000 		.4byte	.LFB10
 3562 0044 24000000 		.4byte	.LFE10
 3563 0048 00000000 		.4byte	.LFB11
 3564 004c 78000000 		.4byte	.LFE11
 3565 0050 00000000 		.4byte	.LFB12
 3566 0054 28000000 		.4byte	.LFE12
 3567 0058 00000000 		.4byte	.LFB13
 3568 005c 58000000 		.4byte	.LFE13
 3569 0060 00000000 		.4byte	.LFB14
 3570 0064 40000000 		.4byte	.LFE14
 3571 0068 00000000 		.4byte	.LFB15
 3572 006c 02000000 		.4byte	.LFE15
 3573 0070 00000000 		.4byte	.LFB16
 3574 0074 0C000000 		.4byte	.LFE16
 3575 0078 00000000 		.4byte	.LFB17
 3576 007c 0C000000 		.4byte	.LFE17
 3577 0080 00000000 		.4byte	.LFB18
 3578 0084 0C000000 		.4byte	.LFE18
 3579 0088 00000000 		.4byte	.LFB19
 3580 008c 5C000000 		.4byte	.LFE19
 3581 0090 00000000 		.4byte	.LFB20
 3582 0094 0C000000 		.4byte	.LFE20
 3583 0098 00000000 		.4byte	.LFB21
ARM GAS  C:\Users\Petro\AppData\Local\Temp\ccLVkPCw.s 			page 92


 3584 009c 6C000000 		.4byte	.LFE21
 3585 00a0 00000000 		.4byte	.LFB22
 3586 00a4 28000000 		.4byte	.LFE22
 3587 00a8 00000000 		.4byte	.LFB23
 3588 00ac 28000000 		.4byte	.LFE23
 3589 00b0 00000000 		.4byte	.LFB24
 3590 00b4 20000000 		.4byte	.LFE24
 3591 00b8 00000000 		.4byte	.LFB25
 3592 00bc 44000000 		.4byte	.LFE25
 3593 00c0 00000000 		.4byte	.LFB26
 3594 00c4 3C000000 		.4byte	.LFE26
 3595 00c8 00000000 		.4byte	.LFB27
 3596 00cc 5C000000 		.4byte	.LFE27
 3597 00d0 00000000 		.4byte	.LFB28
 3598 00d4 02000000 		.4byte	.LFE28
 3599 00d8 00000000 		.4byte	0
 3600 00dc 00000000 		.4byte	0
 3601              		.section	.debug_line,"",%progbits
 3602              	.Ldebug_line0:
 3603 0000 5D030000 		.section	.debug_str,"MS",%progbits,1
 3603      02006700 
 3603      00000201 
 3603      FB0E0D00 
 3603      01010101 
 3604              	.LASF10:
 3605 0000 75696E74 		.ascii	"uint16\000"
 3605      313600
 3606              	.LASF81:
 3607 0007 43794578 		.ascii	"CyExitCriticalSection\000"
 3607      69744372 
 3607      69746963 
 3607      616C5365 
 3607      6374696F 
 3608              	.LASF48:
 3609 001d 74784461 		.ascii	"txDataByte\000"
 3609      74614279 
 3609      746500
 3610              	.LASF55:
 3611 0028 73747269 		.ascii	"string\000"
 3611      6E6700
 3612              	.LASF75:
 3613 002f 55415254 		.ascii	"UART_XB2_rxBufferLoopDetect\000"
 3613      5F584232 
 3613      5F727842 
 3613      75666665 
 3613      724C6F6F 
 3614              	.LASF61:
 3615 004b 55415254 		.ascii	"UART_XB2_ClearTxBuffer\000"
 3615      5F584232 
 3615      5F436C65 
 3615      61725478 
 3615      42756666 
 3616              	.LASF7:
 3617 0062 6C6F6E67 		.ascii	"long long unsigned int\000"
 3617      206C6F6E 
 3617      6720756E 
 3617      7369676E 
ARM GAS  C:\Users\Petro\AppData\Local\Temp\ccLVkPCw.s 			page 93


 3617      65642069 
 3618              	.LASF46:
 3619 0079 55415254 		.ascii	"UART_XB2_SetTxInterruptMode\000"
 3619      5F584232 
 3619      5F536574 
 3619      5478496E 
 3619      74657272 
 3620              	.LASF67:
 3621 0095 55415254 		.ascii	"UART_XB2_initVar\000"
 3621      5F584232 
 3621      5F696E69 
 3621      74566172 
 3621      00
 3622              	.LASF71:
 3623 00a6 55415254 		.ascii	"UART_XB2_errorStatus\000"
 3623      5F584232 
 3623      5F657272 
 3623      6F725374 
 3623      61747573 
 3624              	.LASF32:
 3625 00bb 55415254 		.ascii	"UART_XB2_ReadRxStatus\000"
 3625      5F584232 
 3625      5F526561 
 3625      64527853 
 3625      74617475 
 3626              	.LASF6:
 3627 00d1 6C6F6E67 		.ascii	"long long int\000"
 3627      206C6F6E 
 3627      6720696E 
 3627      7400
 3628              	.LASF0:
 3629 00df 7369676E 		.ascii	"signed char\000"
 3629      65642063 
 3629      68617200 
 3630              	.LASF65:
 3631 00eb 74785065 		.ascii	"txPeriod\000"
 3631      72696F64 
 3631      00
 3632              	.LASF4:
 3633 00f4 6C6F6E67 		.ascii	"long int\000"
 3633      20696E74 
 3633      00
 3634              	.LASF82:
 3635 00fd 4379496E 		.ascii	"CyIntDisable\000"
 3635      74446973 
 3635      61626C65 
 3635      00
 3636              	.LASF9:
 3637 010a 75696E74 		.ascii	"uint8\000"
 3637      3800
 3638              	.LASF13:
 3639 0110 646F7562 		.ascii	"double\000"
 3639      6C6500
 3640              	.LASF42:
 3641 0117 61646472 		.ascii	"addressMode\000"
 3641      6573734D 
 3641      6F646500 
ARM GAS  C:\Users\Petro\AppData\Local\Temp\ccLVkPCw.s 			page 94


 3642              	.LASF43:
 3643 0123 55415254 		.ascii	"UART_XB2_SetRxAddress1\000"
 3643      5F584232 
 3643      5F536574 
 3643      52784164 
 3643      64726573 
 3644              	.LASF45:
 3645 013a 55415254 		.ascii	"UART_XB2_SetRxAddress2\000"
 3645      5F584232 
 3645      5F536574 
 3645      52784164 
 3645      64726573 
 3646              	.LASF21:
 3647 0151 55415254 		.ascii	"UART_XB2_Start\000"
 3647      5F584232 
 3647      5F537461 
 3647      727400
 3648              	.LASF11:
 3649 0160 75696E74 		.ascii	"uint32\000"
 3649      333200
 3650              	.LASF41:
 3651 0167 55415254 		.ascii	"UART_XB2_SetRxAddressMode\000"
 3651      5F584232 
 3651      5F536574 
 3651      52784164 
 3651      64726573 
 3652              	.LASF26:
 3653 0181 636F6E74 		.ascii	"control\000"
 3653      726F6C00 
 3654              	.LASF53:
 3655 0189 6C6F6354 		.ascii	"locTxBufferRead\000"
 3655      78427566 
 3655      66657252 
 3655      65616400 
 3656              	.LASF88:
 3657 0199 55415254 		.ascii	"UART_XB2_IntClock_Stop\000"
 3657      5F584232 
 3657      5F496E74 
 3657      436C6F63 
 3657      6B5F5374 
 3658              	.LASF63:
 3659 01b0 7265744D 		.ascii	"retMode\000"
 3659      6F646500 
 3660              	.LASF85:
 3661 01b8 443A5C43 		.ascii	"D:\\Cypress\\system-start-finish\\vesion 2\\fw\\sta"
 3661      79707265 
 3661      73735C73 
 3661      79737465 
 3661      6D2D7374 
 3662 01e6 72745C73 		.ascii	"rt\\sandbox\\v7_debug_ntp\\Start(state machine)\\de"
 3662      616E6462 
 3662      6F785C76 
 3662      375F6465 
 3662      6275675F 
 3663 0215 6275675F 		.ascii	"bug_ntp.cydsn\000"
 3663      6E74702E 
 3663      63796473 
ARM GAS  C:\Users\Petro\AppData\Local\Temp\ccLVkPCw.s 			page 95


 3663      6E00
 3664              	.LASF8:
 3665 0223 756E7369 		.ascii	"unsigned int\000"
 3665      676E6564 
 3665      20696E74 
 3665      00
 3666              	.LASF60:
 3667 0230 55415254 		.ascii	"UART_XB2_GetTxBufferSize\000"
 3667      5F584232 
 3667      5F476574 
 3667      54784275 
 3667      66666572 
 3668              	.LASF20:
 3669 0249 55415254 		.ascii	"UART_XB2_Enable\000"
 3669      5F584232 
 3669      5F456E61 
 3669      626C6500 
 3670              	.LASF37:
 3671 0259 6C6F6345 		.ascii	"locErrorStatus\000"
 3671      72726F72 
 3671      53746174 
 3671      757300
 3672              	.LASF72:
 3673 0268 55415254 		.ascii	"UART_XB2_rxBuffer\000"
 3673      5F584232 
 3673      5F727842 
 3673      75666665 
 3673      7200
 3674              	.LASF5:
 3675 027a 6C6F6E67 		.ascii	"long unsigned int\000"
 3675      20756E73 
 3675      69676E65 
 3675      6420696E 
 3675      7400
 3676              	.LASF52:
 3677 028c 6C6F6354 		.ascii	"locTxBufferWrite\000"
 3677      78427566 
 3677      66657257 
 3677      72697465 
 3677      00
 3678              	.LASF34:
 3679 029d 55415254 		.ascii	"UART_XB2_GetChar\000"
 3679      5F584232 
 3679      5F476574 
 3679      43686172 
 3679      00
 3680              	.LASF87:
 3681 02ae 4379456E 		.ascii	"CyEnterCriticalSection\000"
 3681      74657243 
 3681      72697469 
 3681      63616C53 
 3681      65637469 
 3682              	.LASF89:
 3683 02c5 4379496E 		.ascii	"CyIntSetPending\000"
 3683      74536574 
 3683      50656E64 
 3683      696E6700 
ARM GAS  C:\Users\Petro\AppData\Local\Temp\ccLVkPCw.s 			page 96


 3684              	.LASF39:
 3685 02d5 73697A65 		.ascii	"size\000"
 3685      00
 3686              	.LASF3:
 3687 02da 73686F72 		.ascii	"short unsigned int\000"
 3687      7420756E 
 3687      7369676E 
 3687      65642069 
 3687      6E7400
 3688              	.LASF86:
 3689 02ed 4379496E 		.ascii	"CyIntSetVector\000"
 3689      74536574 
 3689      56656374 
 3689      6F7200
 3690              	.LASF56:
 3691 02fc 62756649 		.ascii	"bufIndex\000"
 3691      6E646578 
 3691      00
 3692              	.LASF22:
 3693 0305 55415254 		.ascii	"UART_XB2_Stop\000"
 3693      5F584232 
 3693      5F53746F 
 3693      7000
 3694              	.LASF51:
 3695 0313 55415254 		.ascii	"UART_XB2_PutChar\000"
 3695      5F584232 
 3695      5F507574 
 3695      43686172 
 3695      00
 3696              	.LASF70:
 3697 0324 55415254 		.ascii	"UART_XB2_txBufferWrite\000"
 3697      5F584232 
 3697      5F747842 
 3697      75666665 
 3697      72577269 
 3698              	.LASF84:
 3699 033b 47656E65 		.ascii	"Generated_Source\\PSoC4\\UART_XB2.c\000"
 3699      72617465 
 3699      645F536F 
 3699      75726365 
 3699      5C50536F 
 3700              	.LASF64:
 3701 035d 746D7053 		.ascii	"tmpStat\000"
 3701      74617400 
 3702              	.LASF18:
 3703 0365 73697A65 		.ascii	"sizetype\000"
 3703      74797065 
 3703      00
 3704              	.LASF79:
 3705 036e 4379496E 		.ascii	"CyIntClearPending\000"
 3705      74436C65 
 3705      61725065 
 3705      6E64696E 
 3705      6700
 3706              	.LASF44:
 3707 0380 61646472 		.ascii	"address\000"
 3707      65737300 
ARM GAS  C:\Users\Petro\AppData\Local\Temp\ccLVkPCw.s 			page 97


 3708              	.LASF69:
 3709 0388 55415254 		.ascii	"UART_XB2_txBufferRead\000"
 3709      5F584232 
 3709      5F747842 
 3709      75666665 
 3709      72526561 
 3710              	.LASF30:
 3711 039e 6C6F6352 		.ascii	"locRxBufferWrite\000"
 3711      78427566 
 3711      66657257 
 3711      72697465 
 3711      00
 3712              	.LASF35:
 3713 03af 72785374 		.ascii	"rxStatus\000"
 3713      61747573 
 3713      00
 3714              	.LASF83:
 3715 03b8 474E5520 		.ascii	"GNU C 4.9.3 20150303 (release) [ARM/embedded-4_9-br"
 3715      4320342E 
 3715      392E3320 
 3715      32303135 
 3715      30333033 
 3716 03eb 616E6368 		.ascii	"anch revision 221220] -mcpu=cortex-m0 -mthumb -g -O"
 3716      20726576 
 3716      6973696F 
 3716      6E203232 
 3716      31323230 
 3717 041e 67202D66 		.ascii	"g -ffunction-sections -ffat-lto-objects\000"
 3717      66756E63 
 3717      74696F6E 
 3717      2D736563 
 3717      74696F6E 
 3718              	.LASF77:
 3719 0446 4379496E 		.ascii	"CyIntSetPriority\000"
 3719      74536574 
 3719      5072696F 
 3719      72697479 
 3719      00
 3720              	.LASF59:
 3721 0457 55415254 		.ascii	"UART_XB2_PutCRLF\000"
 3721      5F584232 
 3721      5F507574 
 3721      43524C46 
 3721      00
 3722              	.LASF12:
 3723 0468 666C6F61 		.ascii	"float\000"
 3723      7400
 3724              	.LASF27:
 3725 046e 696E7453 		.ascii	"intSrc\000"
 3725      726300
 3726              	.LASF16:
 3727 0475 72656738 		.ascii	"reg8\000"
 3727      00
 3728              	.LASF1:
 3729 047a 756E7369 		.ascii	"unsigned char\000"
 3729      676E6564 
 3729      20636861 
ARM GAS  C:\Users\Petro\AppData\Local\Temp\ccLVkPCw.s 			page 98


 3729      7200
 3730              	.LASF40:
 3731 0488 55415254 		.ascii	"UART_XB2_ClearRxBuffer\000"
 3731      5F584232 
 3731      5F436C65 
 3731      61725278 
 3731      42756666 
 3732              	.LASF2:
 3733 049f 73686F72 		.ascii	"short int\000"
 3733      7420696E 
 3733      7400
 3734              	.LASF78:
 3735 04a9 4379496E 		.ascii	"CyIntEnable\000"
 3735      74456E61 
 3735      626C6500 
 3736              	.LASF49:
 3737 04b5 55415254 		.ascii	"UART_XB2_ReadControlRegister\000"
 3737      5F584232 
 3737      5F526561 
 3737      64436F6E 
 3737      74726F6C 
 3738              	.LASF58:
 3739 04d2 62797465 		.ascii	"byteCount\000"
 3739      436F756E 
 3739      7400
 3740              	.LASF28:
 3741 04dc 72784461 		.ascii	"rxData\000"
 3741      746100
 3742              	.LASF62:
 3743 04e3 55415254 		.ascii	"UART_XB2_SendBreak\000"
 3743      5F584232 
 3743      5F53656E 
 3743      64427265 
 3743      616B00
 3744              	.LASF68:
 3745 04f6 55415254 		.ascii	"UART_XB2_txBuffer\000"
 3745      5F584232 
 3745      5F747842 
 3745      75666665 
 3745      7200
 3746              	.LASF15:
 3747 0508 63686172 		.ascii	"char\000"
 3747      00
 3748              	.LASF76:
 3749 050d 55415254 		.ascii	"UART_XB2_rxBufferOverflow\000"
 3749      5F584232 
 3749      5F727842 
 3749      75666665 
 3749      724F7665 
 3750              	.LASF17:
 3751 0527 63796973 		.ascii	"cyisraddress\000"
 3751      72616464 
 3751      72657373 
 3751      00
 3752              	.LASF14:
 3753 0534 63686172 		.ascii	"char8\000"
 3753      3800
ARM GAS  C:\Users\Petro\AppData\Local\Temp\ccLVkPCw.s 			page 99


 3754              	.LASF73:
 3755 053a 55415254 		.ascii	"UART_XB2_rxBufferRead\000"
 3755      5F584232 
 3755      5F727842 
 3755      75666665 
 3755      72526561 
 3756              	.LASF25:
 3757 0550 55415254 		.ascii	"UART_XB2_SetRxInterruptMode\000"
 3757      5F584232 
 3757      5F536574 
 3757      5278496E 
 3757      74657272 
 3758              	.LASF57:
 3759 056c 55415254 		.ascii	"UART_XB2_PutArray\000"
 3759      5F584232 
 3759      5F507574 
 3759      41727261 
 3759      7900
 3760              	.LASF19:
 3761 057e 55415254 		.ascii	"UART_XB2_Init\000"
 3761      5F584232 
 3761      5F496E69 
 3761      7400
 3762              	.LASF50:
 3763 058c 55415254 		.ascii	"UART_XB2_ReadTxStatus\000"
 3763      5F584232 
 3763      5F526561 
 3763      64547853 
 3763      74617475 
 3764              	.LASF29:
 3765 05a2 6C6F6352 		.ascii	"locRxBufferRead\000"
 3765      78427566 
 3765      66657252 
 3765      65616400 
 3766              	.LASF23:
 3767 05b2 656E6162 		.ascii	"enableInterrupts\000"
 3767      6C65496E 
 3767      74657272 
 3767      75707473 
 3767      00
 3768              	.LASF31:
 3769 05c3 55415254 		.ascii	"UART_XB2_ReadRxData\000"
 3769      5F584232 
 3769      5F526561 
 3769      64527844 
 3769      61746100 
 3770              	.LASF36:
 3771 05d7 55415254 		.ascii	"UART_XB2_GetByte\000"
 3771      5F584232 
 3771      5F476574 
 3771      42797465 
 3771      00
 3772              	.LASF33:
 3773 05e8 73746174 		.ascii	"status\000"
 3773      757300
 3774              	.LASF47:
 3775 05ef 55415254 		.ascii	"UART_XB2_WriteTxData\000"
ARM GAS  C:\Users\Petro\AppData\Local\Temp\ccLVkPCw.s 			page 100


 3775      5F584232 
 3775      5F577269 
 3775      74655478 
 3775      44617461 
 3776              	.LASF38:
 3777 0604 55415254 		.ascii	"UART_XB2_GetRxBufferSize\000"
 3777      5F584232 
 3777      5F476574 
 3777      52784275 
 3777      66666572 
 3778              	.LASF66:
 3779 061d 55415254 		.ascii	"UART_XB2_SetTxAddressMode\000"
 3779      5F584232 
 3779      5F536574 
 3779      54784164 
 3779      64726573 
 3780              	.LASF80:
 3781 0637 55415254 		.ascii	"UART_XB2_IntClock_StartEx\000"
 3781      5F584232 
 3781      5F496E74 
 3781      436C6F63 
 3781      6B5F5374 
 3782              	.LASF74:
 3783 0651 55415254 		.ascii	"UART_XB2_rxBufferWrite\000"
 3783      5F584232 
 3783      5F727842 
 3783      75666665 
 3783      72577269 
 3784              	.LASF54:
 3785 0668 55415254 		.ascii	"UART_XB2_PutString\000"
 3785      5F584232 
 3785      5F507574 
 3785      53747269 
 3785      6E6700
 3786              	.LASF24:
 3787 067b 55415254 		.ascii	"UART_XB2_WriteControlRegister\000"
 3787      5F584232 
 3787      5F577269 
 3787      7465436F 
 3787      6E74726F 
 3788              		.ident	"GCC: (GNU Tools for ARM Embedded Processors) 4.9.3 20150303 (release) [ARM/embedded-4_9-br
