ARM GAS  C:\Users\Petro\AppData\Local\Temp\ccMviaYd.s 			page 1


   1              		.cpu cortex-m0
   2              		.fpu softvfp
   3              		.eabi_attribute 20, 1
   4              		.eabi_attribute 21, 1
   5              		.eabi_attribute 23, 3
   6              		.eabi_attribute 24, 1
   7              		.eabi_attribute 25, 1
   8              		.eabi_attribute 26, 1
   9              		.eabi_attribute 30, 6
  10              		.eabi_attribute 34, 0
  11              		.eabi_attribute 18, 4
  12              		.code	16
  13              		.file	"testMode.c"
  14              		.text
  15              	.Ltext0:
  16              		.cfi_sections	.debug_frame
  17              		.global	statusTestMode
  18              		.bss
  19              		.type	statusTestMode, %object
  20              		.size	statusTestMode, 1
  21              	statusTestMode:
  22 0000 00       		.space	1
  23              		.global	switchState
  24              		.data
  25              		.type	switchState, %object
  26              		.size	switchState, 1
  27              	switchState:
  28 0000 03       		.byte	3
  29              		.global	networkState
  30              		.type	networkState, %object
  31              		.size	networkState, 1
  32              	networkState:
  33 0001 03       		.byte	3
  34              		.bss
  35              	enableTestMode:
  36 0001 00       		.space	1
  37              		.section	.text.testModeHandler,"ax",%progbits
  38              		.align	2
  39              		.global	testModeHandler
  40              		.code	16
  41              		.thumb_func
  42              		.type	testModeHandler, %function
  43              	testModeHandler:
  44              	.LFB63:
  45              		.file 1 "lib_testMode\\testMode.c"
   1:lib_testMode/testMode.c **** #include "project.h"
   2:lib_testMode/testMode.c **** #include <stdlib.h>
   3:lib_testMode/testMode.c **** 
   4:lib_testMode/testMode.c **** #include <stdio.h>
   5:lib_testMode/testMode.c **** #include <lib_Display\Display.h>
   6:lib_testMode/testMode.c **** #include <lib_Network\network.h>
   7:lib_testMode/testMode.c **** #include <lib_Testmode\testMode.h>
   8:lib_testMode/testMode.c **** 
   9:lib_testMode/testMode.c **** #define COUNTER_TEST_MODE_ON   5
  10:lib_testMode/testMode.c **** #define COUNTER_TEST_MODE_OFF  7
  11:lib_testMode/testMode.c **** #define MAX_DELAY_CYCLES_IN_READING 2
  12:lib_testMode/testMode.c **** 
ARM GAS  C:\Users\Petro\AppData\Local\Temp\ccMviaYd.s 			page 2


  13:lib_testMode/testMode.c **** enum status {STOPPED=0, RUN};
  14:lib_testMode/testMode.c **** typedef enum {HIGH_LEVEL, RISING_EDGE, FALLING_EDGE, LOW_LEVEL}funcReturnValue;
  15:lib_testMode/testMode.c **** 
  16:lib_testMode/testMode.c **** uint8_t statusTestMode = STOPPED;
  17:lib_testMode/testMode.c **** 
  18:lib_testMode/testMode.c **** funcReturnValue switchState = LOW_LEVEL;
  19:lib_testMode/testMode.c **** funcReturnValue networkState = LOW_LEVEL;
  20:lib_testMode/testMode.c **** 
  21:lib_testMode/testMode.c **** funcReturnValue ReadSwitchState();
  22:lib_testMode/testMode.c **** funcReturnValue ReadNetworkState();
  23:lib_testMode/testMode.c **** 
  24:lib_testMode/testMode.c **** static uint8_t enableTestMode;
  25:lib_testMode/testMode.c **** 
  26:lib_testMode/testMode.c **** CY_ISR(testModeHandler)
  27:lib_testMode/testMode.c **** {
  46              		.loc 1 27 0
  47              		.cfi_startproc
  48 0000 80B5     		push	{r7, lr}
  49              		.cfi_def_cfa_offset 8
  50              		.cfi_offset 7, -8
  51              		.cfi_offset 14, -4
  52 0002 00AF     		add	r7, sp, #0
  53              		.cfi_def_cfa_register 7
  28:lib_testMode/testMode.c ****     Pin_testMode_Write(0);
  54              		.loc 1 28 0
  55 0004 0020     		mov	r0, #0
  56 0006 FFF7FEFF 		bl	Pin_testMode_Write
  29:lib_testMode/testMode.c ****     Pin_testMode_Write(1);
  57              		.loc 1 29 0
  58 000a 0120     		mov	r0, #1
  59 000c FFF7FEFF 		bl	Pin_testMode_Write
  30:lib_testMode/testMode.c ****     
  31:lib_testMode/testMode.c ****     TimerTestMode_ClearInterrupt(TimerTestMode_INTR_MASK_CC_MATCH);
  60              		.loc 1 31 0
  61 0010 0220     		mov	r0, #2
  62 0012 FFF7FEFF 		bl	TimerTestMode_ClearInterrupt
  32:lib_testMode/testMode.c ****     statusTestMode = STOPPED;
  63              		.loc 1 32 0
  64 0016 024B     		ldr	r3, .L2
  65 0018 0022     		mov	r2, #0
  66 001a 1A70     		strb	r2, [r3]
  33:lib_testMode/testMode.c **** }
  67              		.loc 1 33 0
  68 001c BD46     		mov	sp, r7
  69              		@ sp needed
  70 001e 80BD     		pop	{r7, pc}
  71              	.L3:
  72              		.align	2
  73              	.L2:
  74 0020 00000000 		.word	statusTestMode
  75              		.cfi_endproc
  76              	.LFE63:
  77              		.size	testModeHandler, .-testModeHandler
  78              		.section	.text.newFuncTestMode,"ax",%progbits
  79              		.align	2
  80              		.global	newFuncTestMode
  81              		.code	16
ARM GAS  C:\Users\Petro\AppData\Local\Temp\ccMviaYd.s 			page 3


  82              		.thumb_func
  83              		.type	newFuncTestMode, %function
  84              	newFuncTestMode:
  85              	.LFB64:
  34:lib_testMode/testMode.c **** 
  35:lib_testMode/testMode.c **** 
  36:lib_testMode/testMode.c **** void newFuncTestMode()
  37:lib_testMode/testMode.c **** {   
  86              		.loc 1 37 0
  87              		.cfi_startproc
  88 0000 80B5     		push	{r7, lr}
  89              		.cfi_def_cfa_offset 8
  90              		.cfi_offset 7, -8
  91              		.cfi_offset 14, -4
  92 0002 00AF     		add	r7, sp, #0
  93              		.cfi_def_cfa_register 7
  38:lib_testMode/testMode.c ****     ReadSwitchState();
  94              		.loc 1 38 0
  95 0004 FFF7FEFF 		bl	ReadSwitchState
  39:lib_testMode/testMode.c ****     ReadNetworkState();
  96              		.loc 1 39 0
  97 0008 FFF7FEFF 		bl	ReadNetworkState
  40:lib_testMode/testMode.c ****     
  41:lib_testMode/testMode.c ****     if(switchState == RISING_EDGE || networkState == RISING_EDGE)   //enable test mode
  98              		.loc 1 41 0
  99 000c 374B     		ldr	r3, .L11
 100 000e 1B78     		ldrb	r3, [r3]
 101 0010 012B     		cmp	r3, #1
 102 0012 03D0     		beq	.L5
 103              		.loc 1 41 0 is_stmt 0 discriminator 1
 104 0014 364B     		ldr	r3, .L11+4
 105 0016 1B78     		ldrb	r3, [r3]
 106 0018 012B     		cmp	r3, #1
 107 001a 1ED1     		bne	.L6
 108              	.L5:
  42:lib_testMode/testMode.c ****     {
  43:lib_testMode/testMode.c ****         DisplayTestMode(1);
 109              		.loc 1 43 0 is_stmt 1
 110 001c 0120     		mov	r0, #1
 111 001e FFF7FEFF 		bl	DisplayTestMode
  44:lib_testMode/testMode.c ****         NetworkSendTestModeStatus(1);
 112              		.loc 1 44 0
 113 0022 0120     		mov	r0, #1
 114 0024 FFF7FEFF 		bl	NetworkSendTestModeStatus
  45:lib_testMode/testMode.c ****         statusTestMode = STOPPED;
 115              		.loc 1 45 0
 116 0028 324B     		ldr	r3, .L11+8
 117 002a 0022     		mov	r2, #0
 118 002c 1A70     		strb	r2, [r3]
  46:lib_testMode/testMode.c ****         if(networkState == RISING_EDGE && switchState == LOW_LEVEL)
 119              		.loc 1 46 0
 120 002e 304B     		ldr	r3, .L11+4
 121 0030 1B78     		ldrb	r3, [r3]
 122 0032 012B     		cmp	r3, #1
 123 0034 06D1     		bne	.L7
 124              		.loc 1 46 0 is_stmt 0 discriminator 1
 125 0036 2D4B     		ldr	r3, .L11
ARM GAS  C:\Users\Petro\AppData\Local\Temp\ccMviaYd.s 			page 4


 126 0038 1B78     		ldrb	r3, [r3]
 127 003a 032B     		cmp	r3, #3
 128 003c 02D1     		bne	.L7
  47:lib_testMode/testMode.c ****             switchState = RISING_EDGE;
 129              		.loc 1 47 0 is_stmt 1
 130 003e 2B4B     		ldr	r3, .L11
 131 0040 0122     		mov	r2, #1
 132 0042 1A70     		strb	r2, [r3]
 133              	.L7:
  48:lib_testMode/testMode.c ****         if(networkState == LOW_LEVEL && switchState == RISING_EDGE)
 134              		.loc 1 48 0
 135 0044 2A4B     		ldr	r3, .L11+4
 136 0046 1B78     		ldrb	r3, [r3]
 137 0048 032B     		cmp	r3, #3
 138 004a 06D1     		bne	.L6
 139              		.loc 1 48 0 is_stmt 0 discriminator 1
 140 004c 274B     		ldr	r3, .L11
 141 004e 1B78     		ldrb	r3, [r3]
 142 0050 012B     		cmp	r3, #1
 143 0052 02D1     		bne	.L6
  49:lib_testMode/testMode.c ****             networkState = RISING_EDGE;
 144              		.loc 1 49 0 is_stmt 1
 145 0054 264B     		ldr	r3, .L11+4
 146 0056 0122     		mov	r2, #1
 147 0058 1A70     		strb	r2, [r3]
 148              	.L6:
  50:lib_testMode/testMode.c ****     }
  51:lib_testMode/testMode.c ****     if(/*switchState == FALLING_EDGE ||*/ networkState == FALLING_EDGE)        //disable test mode
 149              		.loc 1 51 0
 150 005a 254B     		ldr	r3, .L11+4
 151 005c 1B78     		ldrb	r3, [r3]
 152 005e 022B     		cmp	r3, #2
 153 0060 20D1     		bne	.L8
  52:lib_testMode/testMode.c ****     {
  53:lib_testMode/testMode.c ****         TimerTestMode_Stop();
 154              		.loc 1 53 0
 155 0062 FFF7FEFF 		bl	TimerTestMode_Stop
  54:lib_testMode/testMode.c ****         DisplayTestMode(0);
 156              		.loc 1 54 0
 157 0066 0020     		mov	r0, #0
 158 0068 FFF7FEFF 		bl	DisplayTestMode
  55:lib_testMode/testMode.c ****         NetworkSendTestModeStatus(0);
 159              		.loc 1 55 0
 160 006c 0020     		mov	r0, #0
 161 006e FFF7FEFF 		bl	NetworkSendTestModeStatus
  56:lib_testMode/testMode.c ****         statusTestMode = STOPPED;
 162              		.loc 1 56 0
 163 0072 204B     		ldr	r3, .L11+8
 164 0074 0022     		mov	r2, #0
 165 0076 1A70     		strb	r2, [r3]
  57:lib_testMode/testMode.c ****         if(networkState == FALLING_EDGE && switchState != FALLING_EDGE)
 166              		.loc 1 57 0
 167 0078 1D4B     		ldr	r3, .L11+4
 168 007a 1B78     		ldrb	r3, [r3]
 169 007c 022B     		cmp	r3, #2
 170 007e 06D1     		bne	.L9
 171              		.loc 1 57 0 is_stmt 0 discriminator 1
ARM GAS  C:\Users\Petro\AppData\Local\Temp\ccMviaYd.s 			page 5


 172 0080 1A4B     		ldr	r3, .L11
 173 0082 1B78     		ldrb	r3, [r3]
 174 0084 022B     		cmp	r3, #2
 175 0086 02D0     		beq	.L9
  58:lib_testMode/testMode.c ****             switchState = LOW_LEVEL;
 176              		.loc 1 58 0 is_stmt 1
 177 0088 184B     		ldr	r3, .L11
 178 008a 0322     		mov	r2, #3
 179 008c 1A70     		strb	r2, [r3]
 180              	.L9:
  59:lib_testMode/testMode.c ****         if(networkState != FALLING_EDGE && switchState == FALLING_EDGE)
 181              		.loc 1 59 0
 182 008e 184B     		ldr	r3, .L11+4
 183 0090 1B78     		ldrb	r3, [r3]
 184 0092 022B     		cmp	r3, #2
 185 0094 06D0     		beq	.L8
 186              		.loc 1 59 0 is_stmt 0 discriminator 1
 187 0096 154B     		ldr	r3, .L11
 188 0098 1B78     		ldrb	r3, [r3]
 189 009a 022B     		cmp	r3, #2
 190 009c 02D1     		bne	.L8
  60:lib_testMode/testMode.c ****             networkState = LOW_LEVEL;
 191              		.loc 1 60 0 is_stmt 1
 192 009e 144B     		ldr	r3, .L11+4
 193 00a0 0322     		mov	r2, #3
 194 00a2 1A70     		strb	r2, [r3]
 195              	.L8:
  61:lib_testMode/testMode.c ****     }
  62:lib_testMode/testMode.c ****     //else    
  63:lib_testMode/testMode.c ****     //{
  64:lib_testMode/testMode.c ****     /*update test mode*/
  65:lib_testMode/testMode.c ****     if(networkState == HIGH_LEVEL && switchState == HIGH_LEVEL )
 196              		.loc 1 65 0
 197 00a4 124B     		ldr	r3, .L11+4
 198 00a6 1B78     		ldrb	r3, [r3]
 199 00a8 002B     		cmp	r3, #0
 200 00aa 1CD1     		bne	.L4
 201              		.loc 1 65 0 is_stmt 0 discriminator 1
 202 00ac 0F4B     		ldr	r3, .L11
 203 00ae 1B78     		ldrb	r3, [r3]
 204 00b0 002B     		cmp	r3, #0
 205 00b2 18D1     		bne	.L4
  66:lib_testMode/testMode.c ****     {
  67:lib_testMode/testMode.c ****         if(NetworkStatus() != NETWORK_DISCONN && FinWriteInDB() != NO_WRITE && FinReady() != NO_REA
 206              		.loc 1 67 0 is_stmt 1
 207 00b4 FFF7FEFF 		bl	NetworkStatus
 208 00b8 031E     		sub	r3, r0, #0
 209 00ba 14D0     		beq	.L4
 210              		.loc 1 67 0 is_stmt 0 discriminator 1
 211 00bc FFF7FEFF 		bl	FinWriteInDB
 212 00c0 031E     		sub	r3, r0, #0
 213 00c2 10D0     		beq	.L4
 214              		.loc 1 67 0 discriminator 2
 215 00c4 FFF7FEFF 		bl	FinReady
 216 00c8 031E     		sub	r3, r0, #0
 217 00ca 0CD0     		beq	.L4
 218              		.loc 1 67 0 discriminator 3
ARM GAS  C:\Users\Petro\AppData\Local\Temp\ccMviaYd.s 			page 6


 219 00cc 094B     		ldr	r3, .L11+8
 220 00ce 1B78     		ldrb	r3, [r3]
 221 00d0 002B     		cmp	r3, #0
 222 00d2 08D1     		bne	.L4
  68:lib_testMode/testMode.c ****         {
  69:lib_testMode/testMode.c ****             /*start timer*/
  70:lib_testMode/testMode.c ****             TestMode_UpdateNewRandomTime();
 223              		.loc 1 70 0 is_stmt 1
 224 00d4 FFF7FEFF 		bl	TestMode_UpdateNewRandomTime
  71:lib_testMode/testMode.c ****             Int_timerTestMode_StartEx(testModeHandler);
 225              		.loc 1 71 0
 226 00d8 074B     		ldr	r3, .L11+12
 227 00da 181C     		mov	r0, r3
 228 00dc FFF7FEFF 		bl	Int_timerTestMode_StartEx
  72:lib_testMode/testMode.c ****             statusTestMode = RUN;
 229              		.loc 1 72 0
 230 00e0 044B     		ldr	r3, .L11+8
 231 00e2 0122     		mov	r2, #1
 232 00e4 1A70     		strb	r2, [r3]
 233              	.L4:
  73:lib_testMode/testMode.c ****         }
  74:lib_testMode/testMode.c ****     }
  75:lib_testMode/testMode.c ****     //}
  76:lib_testMode/testMode.c **** }
 234              		.loc 1 76 0
 235 00e6 BD46     		mov	sp, r7
 236              		@ sp needed
 237 00e8 80BD     		pop	{r7, pc}
 238              	.L12:
 239 00ea C046     		.align	2
 240              	.L11:
 241 00ec 00000000 		.word	switchState
 242 00f0 00000000 		.word	networkState
 243 00f4 00000000 		.word	statusTestMode
 244 00f8 00000000 		.word	testModeHandler
 245              		.cfi_endproc
 246              	.LFE64:
 247              		.size	newFuncTestMode, .-newFuncTestMode
 248              		.global	__aeabi_idivmod
 249              		.section	.rodata
 250              		.align	2
 251              	.LC5:
 252 0000 256400   		.ascii	"%d\000"
 253 0003 00       		.section	.text.TestMode_UpdateNewRandomTime,"ax",%progbits
 254              		.align	2
 255              		.global	TestMode_UpdateNewRandomTime
 256              		.code	16
 257              		.thumb_func
 258              		.type	TestMode_UpdateNewRandomTime, %function
 259              	TestMode_UpdateNewRandomTime:
 260              	.LFB65:
  77:lib_testMode/testMode.c **** 
  78:lib_testMode/testMode.c **** 
  79:lib_testMode/testMode.c **** void TestMode_UpdateNewRandomTime()
  80:lib_testMode/testMode.c **** {
 261              		.loc 1 80 0
 262              		.cfi_startproc
ARM GAS  C:\Users\Petro\AppData\Local\Temp\ccMviaYd.s 			page 7


 263 0000 80B5     		push	{r7, lr}
 264              		.cfi_def_cfa_offset 8
 265              		.cfi_offset 7, -8
 266              		.cfi_offset 14, -4
 267 0002 84B0     		sub	sp, sp, #16
 268              		.cfi_def_cfa_offset 24
 269 0004 00AF     		add	r7, sp, #0
 270              		.cfi_def_cfa_register 7
  81:lib_testMode/testMode.c ****     uint8_t num;
  82:lib_testMode/testMode.c ****     
  83:lib_testMode/testMode.c ****     num = 30+rand()%60;
 271              		.loc 1 83 0
 272 0006 FFF7FEFF 		bl	rand
 273 000a 031C     		mov	r3, r0
 274 000c 181C     		mov	r0, r3
 275 000e 3C21     		mov	r1, #60
 276 0010 FFF7FEFF 		bl	__aeabi_idivmod
 277 0014 0B1C     		mov	r3, r1
 278 0016 DAB2     		uxtb	r2, r3
 279 0018 0F23     		mov	r3, #15
 280 001a FB18     		add	r3, r7, r3
 281 001c 1E32     		add	r2, r2, #30
 282 001e 1A70     		strb	r2, [r3]
  84:lib_testMode/testMode.c ****     
  85:lib_testMode/testMode.c ****     char buff[11];
  86:lib_testMode/testMode.c ****     sprintf(buff,"%d",num);
 283              		.loc 1 86 0
 284 0020 0F23     		mov	r3, #15
 285 0022 FB18     		add	r3, r7, r3
 286 0024 1B78     		ldrb	r3, [r3]
 287 0026 391D     		add	r1, r7, #4
 288 0028 0C4A     		ldr	r2, .L14
 289 002a 081C     		mov	r0, r1
 290 002c 111C     		mov	r1, r2
 291 002e 1A1C     		mov	r2, r3
 292 0030 FFF7FEFF 		bl	sprintf
  87:lib_testMode/testMode.c ****     Display(buff);
 293              		.loc 1 87 0
 294 0034 3B1D     		add	r3, r7, #4
 295 0036 181C     		mov	r0, r3
 296 0038 FFF7FEFF 		bl	Display
  88:lib_testMode/testMode.c ****     
  89:lib_testMode/testMode.c ****     TimerTestMode_WriteCounter(0);
 297              		.loc 1 89 0
 298 003c 0020     		mov	r0, #0
 299 003e FFF7FEFF 		bl	TimerTestMode_WriteCounter
  90:lib_testMode/testMode.c ****     TimerTestMode_WriteCompare(num*100);
 300              		.loc 1 90 0
 301 0042 0F23     		mov	r3, #15
 302 0044 FB18     		add	r3, r7, r3
 303 0046 1B78     		ldrb	r3, [r3]
 304 0048 6422     		mov	r2, #100
 305 004a 5343     		mul	r3, r2
 306 004c 181C     		mov	r0, r3
 307 004e FFF7FEFF 		bl	TimerTestMode_WriteCompare
  91:lib_testMode/testMode.c ****     TimerTestMode_Start();   
 308              		.loc 1 91 0
ARM GAS  C:\Users\Petro\AppData\Local\Temp\ccMviaYd.s 			page 8


 309 0052 FFF7FEFF 		bl	TimerTestMode_Start
  92:lib_testMode/testMode.c **** }
 310              		.loc 1 92 0
 311 0056 BD46     		mov	sp, r7
 312 0058 04B0     		add	sp, sp, #16
 313              		@ sp needed
 314 005a 80BD     		pop	{r7, pc}
 315              	.L15:
 316              		.align	2
 317              	.L14:
 318 005c 00000000 		.word	.LC5
 319              		.cfi_endproc
 320              	.LFE65:
 321              		.size	TestMode_UpdateNewRandomTime, .-TestMode_UpdateNewRandomTime
 322              		.section	.text.ReadSwitchState,"ax",%progbits
 323              		.align	2
 324              		.global	ReadSwitchState
 325              		.code	16
 326              		.thumb_func
 327              		.type	ReadSwitchState, %function
 328              	ReadSwitchState:
 329              	.LFB66:
  93:lib_testMode/testMode.c **** 
  94:lib_testMode/testMode.c **** funcReturnValue ReadSwitchState()
  95:lib_testMode/testMode.c **** {  
 330              		.loc 1 95 0
 331              		.cfi_startproc
 332 0000 80B5     		push	{r7, lr}
 333              		.cfi_def_cfa_offset 8
 334              		.cfi_offset 7, -8
 335              		.cfi_offset 14, -4
 336 0002 00AF     		add	r7, sp, #0
 337              		.cfi_def_cfa_register 7
  96:lib_testMode/testMode.c ****     static uint8_t tmpCounter;
  97:lib_testMode/testMode.c ****     
  98:lib_testMode/testMode.c ****     if(SW_RunTestMode_Read() == 0)
 338              		.loc 1 98 0
 339 0004 FFF7FEFF 		bl	SW_RunTestMode_Read
 340 0008 031E     		sub	r3, r0, #0
 341 000a 06D1     		bne	.L17
  99:lib_testMode/testMode.c ****         tmpCounter++;
 342              		.loc 1 99 0
 343 000c 1A4B     		ldr	r3, .L25
 344 000e 1B78     		ldrb	r3, [r3]
 345 0010 0133     		add	r3, r3, #1
 346 0012 DAB2     		uxtb	r2, r3
 347 0014 184B     		ldr	r3, .L25
 348 0016 1A70     		strb	r2, [r3]
 349 0018 02E0     		b	.L18
 350              	.L17:
 100:lib_testMode/testMode.c ****     else
 101:lib_testMode/testMode.c ****         tmpCounter = 0;
 351              		.loc 1 101 0
 352 001a 174B     		ldr	r3, .L25
 353 001c 0022     		mov	r2, #0
 354 001e 1A70     		strb	r2, [r3]
 355              	.L18:
ARM GAS  C:\Users\Petro\AppData\Local\Temp\ccMviaYd.s 			page 9


 102:lib_testMode/testMode.c ****     
 103:lib_testMode/testMode.c ****     if(tmpCounter > COUNTER_TEST_MODE_ON)
 356              		.loc 1 103 0
 357 0020 154B     		ldr	r3, .L25
 358 0022 1B78     		ldrb	r3, [r3]
 359 0024 052B     		cmp	r3, #5
 360 0026 12D9     		bls	.L19
 104:lib_testMode/testMode.c ****     {
 105:lib_testMode/testMode.c ****         if(switchState == LOW_LEVEL)switchState = RISING_EDGE;
 361              		.loc 1 105 0
 362 0028 144B     		ldr	r3, .L25+4
 363 002a 1B78     		ldrb	r3, [r3]
 364 002c 032B     		cmp	r3, #3
 365 002e 03D1     		bne	.L20
 366              		.loc 1 105 0 is_stmt 0 discriminator 1
 367 0030 124B     		ldr	r3, .L25+4
 368 0032 0122     		mov	r2, #1
 369 0034 1A70     		strb	r2, [r3]
 370 0036 19E0     		b	.L22
 371              	.L20:
 106:lib_testMode/testMode.c ****         else if(switchState == HIGH_LEVEL)
 372              		.loc 1 106 0 is_stmt 1
 373 0038 104B     		ldr	r3, .L25+4
 374 003a 1B78     		ldrb	r3, [r3]
 375 003c 002B     		cmp	r3, #0
 376 003e 15D1     		bne	.L22
 107:lib_testMode/testMode.c ****         {
 108:lib_testMode/testMode.c ****             switchState = FALLING_EDGE;
 377              		.loc 1 108 0
 378 0040 0E4B     		ldr	r3, .L25+4
 379 0042 0222     		mov	r2, #2
 380 0044 1A70     		strb	r2, [r3]
 109:lib_testMode/testMode.c ****             NetworkSendTestModeStatus(0);
 381              		.loc 1 109 0
 382 0046 0020     		mov	r0, #0
 383 0048 FFF7FEFF 		bl	NetworkSendTestModeStatus
 384 004c 0EE0     		b	.L22
 385              	.L19:
 110:lib_testMode/testMode.c ****         }
 111:lib_testMode/testMode.c ****     }
 112:lib_testMode/testMode.c ****     else
 113:lib_testMode/testMode.c ****     {
 114:lib_testMode/testMode.c ****         if(switchState == RISING_EDGE)switchState = HIGH_LEVEL;
 386              		.loc 1 114 0
 387 004e 0B4B     		ldr	r3, .L25+4
 388 0050 1B78     		ldrb	r3, [r3]
 389 0052 012B     		cmp	r3, #1
 390 0054 03D1     		bne	.L23
 391              		.loc 1 114 0 is_stmt 0 discriminator 1
 392 0056 094B     		ldr	r3, .L25+4
 393 0058 0022     		mov	r2, #0
 394 005a 1A70     		strb	r2, [r3]
 395 005c 06E0     		b	.L22
 396              	.L23:
 115:lib_testMode/testMode.c ****         else if(switchState == FALLING_EDGE)switchState = LOW_LEVEL;
 397              		.loc 1 115 0 is_stmt 1
 398 005e 074B     		ldr	r3, .L25+4
ARM GAS  C:\Users\Petro\AppData\Local\Temp\ccMviaYd.s 			page 10


 399 0060 1B78     		ldrb	r3, [r3]
 400 0062 022B     		cmp	r3, #2
 401 0064 02D1     		bne	.L22
 402              		.loc 1 115 0 is_stmt 0 discriminator 1
 403 0066 054B     		ldr	r3, .L25+4
 404 0068 0322     		mov	r2, #3
 405 006a 1A70     		strb	r2, [r3]
 406              	.L22:
 116:lib_testMode/testMode.c ****     }
 117:lib_testMode/testMode.c **** 
 118:lib_testMode/testMode.c ****       
 119:lib_testMode/testMode.c ****     return switchState;
 407              		.loc 1 119 0 is_stmt 1
 408 006c 034B     		ldr	r3, .L25+4
 409 006e 1B78     		ldrb	r3, [r3]
 120:lib_testMode/testMode.c **** }
 410              		.loc 1 120 0
 411 0070 181C     		mov	r0, r3
 412 0072 BD46     		mov	sp, r7
 413              		@ sp needed
 414 0074 80BD     		pop	{r7, pc}
 415              	.L26:
 416 0076 C046     		.align	2
 417              	.L25:
 418 0078 02000000 		.word	tmpCounter.7637
 419 007c 00000000 		.word	switchState
 420              		.cfi_endproc
 421              	.LFE66:
 422              		.size	ReadSwitchState, .-ReadSwitchState
 423              		.section	.text.ReadNetworkState,"ax",%progbits
 424              		.align	2
 425              		.global	ReadNetworkState
 426              		.code	16
 427              		.thumb_func
 428              		.type	ReadNetworkState, %function
 429              	ReadNetworkState:
 430              	.LFB67:
 121:lib_testMode/testMode.c **** 
 122:lib_testMode/testMode.c **** 
 123:lib_testMode/testMode.c **** funcReturnValue ReadNetworkState()
 124:lib_testMode/testMode.c **** {
 431              		.loc 1 124 0
 432              		.cfi_startproc
 433 0000 80B5     		push	{r7, lr}
 434              		.cfi_def_cfa_offset 8
 435              		.cfi_offset 7, -8
 436              		.cfi_offset 14, -4
 437 0002 00AF     		add	r7, sp, #0
 438              		.cfi_def_cfa_register 7
 125:lib_testMode/testMode.c ****     if(networkState == LOW_LEVEL && NetworkReadTestModeStatus()==1)  networkState = RISING_EDGE;
 439              		.loc 1 125 0
 440 0004 1A4B     		ldr	r3, .L33
 441 0006 1B78     		ldrb	r3, [r3]
 442 0008 032B     		cmp	r3, #3
 443 000a 08D1     		bne	.L28
 444              		.loc 1 125 0 is_stmt 0 discriminator 1
 445 000c FFF7FEFF 		bl	NetworkReadTestModeStatus
ARM GAS  C:\Users\Petro\AppData\Local\Temp\ccMviaYd.s 			page 11


 446 0010 031E     		sub	r3, r0, #0
 447 0012 012B     		cmp	r3, #1
 448 0014 03D1     		bne	.L28
 449              		.loc 1 125 0 discriminator 2
 450 0016 164B     		ldr	r3, .L33
 451 0018 0122     		mov	r2, #1
 452 001a 1A70     		strb	r2, [r3]
 453 001c 23E0     		b	.L29
 454              	.L28:
 126:lib_testMode/testMode.c ****     else if(networkState == HIGH_LEVEL && NetworkReadTestModeStatus() == 0)  networkState = FALLING
 455              		.loc 1 126 0 is_stmt 1
 456 001e 144B     		ldr	r3, .L33
 457 0020 1B78     		ldrb	r3, [r3]
 458 0022 002B     		cmp	r3, #0
 459 0024 07D1     		bne	.L30
 460              		.loc 1 126 0 is_stmt 0 discriminator 1
 461 0026 FFF7FEFF 		bl	NetworkReadTestModeStatus
 462 002a 031E     		sub	r3, r0, #0
 463 002c 03D1     		bne	.L30
 464              		.loc 1 126 0 discriminator 2
 465 002e 104B     		ldr	r3, .L33
 466 0030 0222     		mov	r2, #2
 467 0032 1A70     		strb	r2, [r3]
 468 0034 17E0     		b	.L29
 469              	.L30:
 127:lib_testMode/testMode.c ****     else if(networkState == RISING_EDGE && NetworkReadTestModeStatus() ==1)  networkState = HIGH_LE
 470              		.loc 1 127 0 is_stmt 1
 471 0036 0E4B     		ldr	r3, .L33
 472 0038 1B78     		ldrb	r3, [r3]
 473 003a 012B     		cmp	r3, #1
 474 003c 08D1     		bne	.L31
 475              		.loc 1 127 0 is_stmt 0 discriminator 1
 476 003e FFF7FEFF 		bl	NetworkReadTestModeStatus
 477 0042 031E     		sub	r3, r0, #0
 478 0044 012B     		cmp	r3, #1
 479 0046 03D1     		bne	.L31
 480              		.loc 1 127 0 discriminator 2
 481 0048 094B     		ldr	r3, .L33
 482 004a 0022     		mov	r2, #0
 483 004c 1A70     		strb	r2, [r3]
 484 004e 0AE0     		b	.L29
 485              	.L31:
 128:lib_testMode/testMode.c ****     else if(networkState == FALLING_EDGE && NetworkReadTestModeStatus() == 0)  networkState = LOW_L
 486              		.loc 1 128 0 is_stmt 1
 487 0050 074B     		ldr	r3, .L33
 488 0052 1B78     		ldrb	r3, [r3]
 489 0054 022B     		cmp	r3, #2
 490 0056 06D1     		bne	.L29
 491              		.loc 1 128 0 is_stmt 0 discriminator 1
 492 0058 FFF7FEFF 		bl	NetworkReadTestModeStatus
 493 005c 031E     		sub	r3, r0, #0
 494 005e 02D1     		bne	.L29
 495              		.loc 1 128 0 discriminator 2
 496 0060 034B     		ldr	r3, .L33
 497 0062 0322     		mov	r2, #3
 498 0064 1A70     		strb	r2, [r3]
 499              	.L29:
ARM GAS  C:\Users\Petro\AppData\Local\Temp\ccMviaYd.s 			page 12


 129:lib_testMode/testMode.c **** 
 130:lib_testMode/testMode.c ****     return networkState;   
 500              		.loc 1 130 0 is_stmt 1
 501 0066 024B     		ldr	r3, .L33
 502 0068 1B78     		ldrb	r3, [r3]
 131:lib_testMode/testMode.c **** }...
 503              		.loc 1 131 0
 504 006a 181C     		mov	r0, r3
 505 006c BD46     		mov	sp, r7
 506              		@ sp needed
 507 006e 80BD     		pop	{r7, pc}
 508              	.L34:
 509              		.align	2
 510              	.L33:
 511 0070 00000000 		.word	networkState
 512              		.cfi_endproc
 513              	.LFE67:
 514              		.size	ReadNetworkState, .-ReadNetworkState
 515              		.bss
 516              	tmpCounter.7637:
 517 0002 00       		.space	1
 518              		.text
 519              	.Letext0:
 520              		.file 2 "c:\\program files (x86)\\cypress\\psoc creator\\4.0\\psoc creator\\import\\gnu\\arm\\4.9.
 521              		.file 3 "c:\\program files (x86)\\cypress\\psoc creator\\4.0\\psoc creator\\import\\gnu\\arm\\4.9.
 522              		.file 4 "Generated_Source\\PSoC4/cytypes.h"