ARM GAS  C:\Users\Petro\AppData\Local\Temp\ccyg7qaW.s 			page 1


   1              		.cpu cortex-m0
   2              		.fpu softvfp
   3              		.eabi_attribute 20, 1
   4              		.eabi_attribute 21, 1
   5              		.eabi_attribute 23, 3
   6              		.eabi_attribute 24, 1
   7              		.eabi_attribute 25, 1
   8              		.eabi_attribute 26, 1
   9              		.eabi_attribute 30, 4
  10              		.eabi_attribute 34, 0
  11              		.eabi_attribute 18, 4
  12              		.code	16
  13              		.file	"cyfitter_cfg.c"
  14              		.text
  15              	.Ltext0:
  16              		.cfi_sections	.debug_frame
  17              		.section	.text.SetAnalogRoutingPumps,"ax",%progbits
  18              		.align	1
  19              		.global	SetAnalogRoutingPumps
  20              		.code	16
  21              		.thumb_func
  22              		.type	SetAnalogRoutingPumps, %function
  23              	SetAnalogRoutingPumps:
  24              	.LFB8:
  25              		.file 1 "Generated_Source\\PSoC4\\cyfitter_cfg.c"
   1:Generated_Source\PSoC4/cyfitter_cfg.c **** /*******************************************************************************
   2:Generated_Source\PSoC4/cyfitter_cfg.c **** * File Name: cyfitter_cfg.c
   3:Generated_Source\PSoC4/cyfitter_cfg.c **** * 
   4:Generated_Source\PSoC4/cyfitter_cfg.c **** * PSoC Creator  4.0
   5:Generated_Source\PSoC4/cyfitter_cfg.c **** *
   6:Generated_Source\PSoC4/cyfitter_cfg.c **** * Description:
   7:Generated_Source\PSoC4/cyfitter_cfg.c **** * This file contains device initialization code.
   8:Generated_Source\PSoC4/cyfitter_cfg.c **** * Except for the user defined sections in CyClockStartupError(), this file should not be modified.
   9:Generated_Source\PSoC4/cyfitter_cfg.c **** * This file is automatically generated by PSoC Creator.
  10:Generated_Source\PSoC4/cyfitter_cfg.c **** *
  11:Generated_Source\PSoC4/cyfitter_cfg.c **** ********************************************************************************
  12:Generated_Source\PSoC4/cyfitter_cfg.c **** * Copyright (c) 2007-2016 Cypress Semiconductor.  All rights reserved.
  13:Generated_Source\PSoC4/cyfitter_cfg.c **** * You may use this file only in accordance with the license, terms, conditions, 
  14:Generated_Source\PSoC4/cyfitter_cfg.c **** * disclaimers, and limitations in the end user license agreement accompanying 
  15:Generated_Source\PSoC4/cyfitter_cfg.c **** * the software package with which this file was provided.
  16:Generated_Source\PSoC4/cyfitter_cfg.c **** ********************************************************************************/
  17:Generated_Source\PSoC4/cyfitter_cfg.c **** 
  18:Generated_Source\PSoC4/cyfitter_cfg.c **** #include <string.h>
  19:Generated_Source\PSoC4/cyfitter_cfg.c **** #include "cytypes.h"
  20:Generated_Source\PSoC4/cyfitter_cfg.c **** #include "cydevice_trm.h"
  21:Generated_Source\PSoC4/cyfitter_cfg.c **** #include "cyfitter.h"
  22:Generated_Source\PSoC4/cyfitter_cfg.c **** #include "CyLib.h"
  23:Generated_Source\PSoC4/cyfitter_cfg.c **** #include "CyLFClk.h"
  24:Generated_Source\PSoC4/cyfitter_cfg.c **** #include "cyfitter_cfg.h"
  25:Generated_Source\PSoC4/cyfitter_cfg.c **** #include "cyapicallbacks.h"
  26:Generated_Source\PSoC4/cyfitter_cfg.c **** 
  27:Generated_Source\PSoC4/cyfitter_cfg.c **** 
  28:Generated_Source\PSoC4/cyfitter_cfg.c **** #if defined(__GNUC__) || defined(__ARMCC_VERSION)
  29:Generated_Source\PSoC4/cyfitter_cfg.c ****     #define CYPACKED 
  30:Generated_Source\PSoC4/cyfitter_cfg.c ****     #define CYPACKED_ATTR __attribute__ ((packed))
  31:Generated_Source\PSoC4/cyfitter_cfg.c ****     #define CYALIGNED __attribute__ ((aligned))
  32:Generated_Source\PSoC4/cyfitter_cfg.c ****     #define CY_CFG_UNUSED __attribute__ ((unused))
ARM GAS  C:\Users\Petro\AppData\Local\Temp\ccyg7qaW.s 			page 2


  33:Generated_Source\PSoC4/cyfitter_cfg.c ****     #ifndef CY_CFG_SECTION
  34:Generated_Source\PSoC4/cyfitter_cfg.c ****         #define CY_CFG_SECTION __attribute__ ((section(".psocinit")))
  35:Generated_Source\PSoC4/cyfitter_cfg.c ****     #endif
  36:Generated_Source\PSoC4/cyfitter_cfg.c ****     
  37:Generated_Source\PSoC4/cyfitter_cfg.c ****     #if defined(__ARMCC_VERSION)
  38:Generated_Source\PSoC4/cyfitter_cfg.c ****         #define CY_CFG_MEMORY_BARRIER() __memory_changed()
  39:Generated_Source\PSoC4/cyfitter_cfg.c ****     #else
  40:Generated_Source\PSoC4/cyfitter_cfg.c ****         #define CY_CFG_MEMORY_BARRIER() __sync_synchronize()
  41:Generated_Source\PSoC4/cyfitter_cfg.c ****     #endif
  42:Generated_Source\PSoC4/cyfitter_cfg.c ****     
  43:Generated_Source\PSoC4/cyfitter_cfg.c **** #elif defined(__ICCARM__)
  44:Generated_Source\PSoC4/cyfitter_cfg.c ****     #include <intrinsics.h>
  45:Generated_Source\PSoC4/cyfitter_cfg.c **** 
  46:Generated_Source\PSoC4/cyfitter_cfg.c ****     #define CYPACKED __packed
  47:Generated_Source\PSoC4/cyfitter_cfg.c ****     #define CYPACKED_ATTR 
  48:Generated_Source\PSoC4/cyfitter_cfg.c ****     #define CYALIGNED _Pragma("data_alignment=4")
  49:Generated_Source\PSoC4/cyfitter_cfg.c ****     #define CY_CFG_UNUSED _Pragma("diag_suppress=Pe177")
  50:Generated_Source\PSoC4/cyfitter_cfg.c ****     #define CY_CFG_SECTION _Pragma("location=\".psocinit\"")
  51:Generated_Source\PSoC4/cyfitter_cfg.c ****     
  52:Generated_Source\PSoC4/cyfitter_cfg.c ****     #define CY_CFG_MEMORY_BARRIER() __DMB()
  53:Generated_Source\PSoC4/cyfitter_cfg.c ****     
  54:Generated_Source\PSoC4/cyfitter_cfg.c **** #else
  55:Generated_Source\PSoC4/cyfitter_cfg.c ****     #error Unsupported toolchain
  56:Generated_Source\PSoC4/cyfitter_cfg.c **** #endif
  57:Generated_Source\PSoC4/cyfitter_cfg.c **** 
  58:Generated_Source\PSoC4/cyfitter_cfg.c **** 
  59:Generated_Source\PSoC4/cyfitter_cfg.c **** CY_CFG_UNUSED
  60:Generated_Source\PSoC4/cyfitter_cfg.c **** static void CYMEMZERO(void *s, size_t n);
  61:Generated_Source\PSoC4/cyfitter_cfg.c **** CY_CFG_UNUSED
  62:Generated_Source\PSoC4/cyfitter_cfg.c **** static void CYMEMZERO(void *s, size_t n)
  63:Generated_Source\PSoC4/cyfitter_cfg.c **** {
  64:Generated_Source\PSoC4/cyfitter_cfg.c **** 	(void)memset(s, 0, n);
  65:Generated_Source\PSoC4/cyfitter_cfg.c **** }
  66:Generated_Source\PSoC4/cyfitter_cfg.c **** CY_CFG_UNUSED
  67:Generated_Source\PSoC4/cyfitter_cfg.c **** static void CYCONFIGCPY(void *dest, const void *src, size_t n);
  68:Generated_Source\PSoC4/cyfitter_cfg.c **** CY_CFG_UNUSED
  69:Generated_Source\PSoC4/cyfitter_cfg.c **** static void CYCONFIGCPY(void *dest, const void *src, size_t n)
  70:Generated_Source\PSoC4/cyfitter_cfg.c **** {
  71:Generated_Source\PSoC4/cyfitter_cfg.c **** 	(void)memcpy(dest, src, n);
  72:Generated_Source\PSoC4/cyfitter_cfg.c **** }
  73:Generated_Source\PSoC4/cyfitter_cfg.c **** CY_CFG_UNUSED
  74:Generated_Source\PSoC4/cyfitter_cfg.c **** static void CYCONFIGCPYCODE(void *dest, const void *src, size_t n);
  75:Generated_Source\PSoC4/cyfitter_cfg.c **** CY_CFG_UNUSED
  76:Generated_Source\PSoC4/cyfitter_cfg.c **** static void CYCONFIGCPYCODE(void *dest, const void *src, size_t n)
  77:Generated_Source\PSoC4/cyfitter_cfg.c **** {
  78:Generated_Source\PSoC4/cyfitter_cfg.c **** 	(void)memcpy(dest, src, n);
  79:Generated_Source\PSoC4/cyfitter_cfg.c **** }
  80:Generated_Source\PSoC4/cyfitter_cfg.c **** 
  81:Generated_Source\PSoC4/cyfitter_cfg.c **** 
  82:Generated_Source\PSoC4/cyfitter_cfg.c **** 
  83:Generated_Source\PSoC4/cyfitter_cfg.c **** 
  84:Generated_Source\PSoC4/cyfitter_cfg.c **** /* Clock startup error codes                                                   */
  85:Generated_Source\PSoC4/cyfitter_cfg.c **** #define CYCLOCKSTART_NO_ERROR    0u
  86:Generated_Source\PSoC4/cyfitter_cfg.c **** #define CYCLOCKSTART_XTAL_ERROR  1u
  87:Generated_Source\PSoC4/cyfitter_cfg.c **** #define CYCLOCKSTART_32KHZ_ERROR 2u
  88:Generated_Source\PSoC4/cyfitter_cfg.c **** #define CYCLOCKSTART_PLL_ERROR   3u
  89:Generated_Source\PSoC4/cyfitter_cfg.c **** 
ARM GAS  C:\Users\Petro\AppData\Local\Temp\ccyg7qaW.s 			page 3


  90:Generated_Source\PSoC4/cyfitter_cfg.c **** 
  91:Generated_Source\PSoC4/cyfitter_cfg.c **** #ifdef CY_NEED_CYCLOCKSTARTUPERROR
  92:Generated_Source\PSoC4/cyfitter_cfg.c **** /*******************************************************************************
  93:Generated_Source\PSoC4/cyfitter_cfg.c **** * Function Name: CyClockStartupError
  94:Generated_Source\PSoC4/cyfitter_cfg.c **** ********************************************************************************
  95:Generated_Source\PSoC4/cyfitter_cfg.c **** * Summary:
  96:Generated_Source\PSoC4/cyfitter_cfg.c **** *  If an error is encountered during clock configuration (crystal startup error,
  97:Generated_Source\PSoC4/cyfitter_cfg.c **** *  PLL lock error, etc.), the system will end up here.  Unless reimplemented by
  98:Generated_Source\PSoC4/cyfitter_cfg.c **** *  the customer, this function will stop in an infinite loop.
  99:Generated_Source\PSoC4/cyfitter_cfg.c **** *
 100:Generated_Source\PSoC4/cyfitter_cfg.c **** * Parameters:
 101:Generated_Source\PSoC4/cyfitter_cfg.c **** *   void
 102:Generated_Source\PSoC4/cyfitter_cfg.c **** *
 103:Generated_Source\PSoC4/cyfitter_cfg.c **** * Return:
 104:Generated_Source\PSoC4/cyfitter_cfg.c **** *   void
 105:Generated_Source\PSoC4/cyfitter_cfg.c **** *
 106:Generated_Source\PSoC4/cyfitter_cfg.c **** *******************************************************************************/
 107:Generated_Source\PSoC4/cyfitter_cfg.c **** CY_CFG_UNUSED
 108:Generated_Source\PSoC4/cyfitter_cfg.c **** static void CyClockStartupError(uint8 errorCode);
 109:Generated_Source\PSoC4/cyfitter_cfg.c **** CY_CFG_UNUSED
 110:Generated_Source\PSoC4/cyfitter_cfg.c **** static void CyClockStartupError(uint8 errorCode)
 111:Generated_Source\PSoC4/cyfitter_cfg.c **** {
 112:Generated_Source\PSoC4/cyfitter_cfg.c ****     /* To remove the compiler warning if errorCode not used.                */
 113:Generated_Source\PSoC4/cyfitter_cfg.c ****     errorCode = errorCode;
 114:Generated_Source\PSoC4/cyfitter_cfg.c **** 
 115:Generated_Source\PSoC4/cyfitter_cfg.c ****     /* If we have a clock startup error (bad MHz crystal, PLL lock, etc.),  */
 116:Generated_Source\PSoC4/cyfitter_cfg.c ****     /* we will end up here to allow the customer to implement something to  */
 117:Generated_Source\PSoC4/cyfitter_cfg.c ****     /* deal with the clock condition.                                       */
 118:Generated_Source\PSoC4/cyfitter_cfg.c **** 
 119:Generated_Source\PSoC4/cyfitter_cfg.c **** #ifdef CY_CFG_CLOCK_STARTUP_ERROR_CALLBACK
 120:Generated_Source\PSoC4/cyfitter_cfg.c **** 	CY_CFG_Clock_Startup_ErrorCallback();
 121:Generated_Source\PSoC4/cyfitter_cfg.c **** #else
 122:Generated_Source\PSoC4/cyfitter_cfg.c **** 	/*  If not using CY_CFG_CLOCK_STARTUP_ERROR_CALLBACK, place your clock startup code here. */
 123:Generated_Source\PSoC4/cyfitter_cfg.c ****     /* `#START CyClockStartupError` */
 124:Generated_Source\PSoC4/cyfitter_cfg.c **** 
 125:Generated_Source\PSoC4/cyfitter_cfg.c ****     /* If we have a clock startup error (bad MHz crystal, PLL lock, etc.),  */
 126:Generated_Source\PSoC4/cyfitter_cfg.c ****     /* we will end up here to allow the customer to implement something to  */
 127:Generated_Source\PSoC4/cyfitter_cfg.c ****     /* deal with the clock condition.                                       */
 128:Generated_Source\PSoC4/cyfitter_cfg.c **** 
 129:Generated_Source\PSoC4/cyfitter_cfg.c ****     /* `#END` */
 130:Generated_Source\PSoC4/cyfitter_cfg.c **** 
 131:Generated_Source\PSoC4/cyfitter_cfg.c ****     /* If nothing else, stop here since the clocks have not started         */
 132:Generated_Source\PSoC4/cyfitter_cfg.c ****     /* correctly.                                                           */
 133:Generated_Source\PSoC4/cyfitter_cfg.c ****     while(1) {}
 134:Generated_Source\PSoC4/cyfitter_cfg.c **** #endif /* CY_CFG_CLOCK_STARTUP_ERROR_CALLBACK */ 
 135:Generated_Source\PSoC4/cyfitter_cfg.c **** }
 136:Generated_Source\PSoC4/cyfitter_cfg.c **** #endif
 137:Generated_Source\PSoC4/cyfitter_cfg.c **** 
 138:Generated_Source\PSoC4/cyfitter_cfg.c **** #define CY_CFG_BASE_ADDR_COUNT 6u
 139:Generated_Source\PSoC4/cyfitter_cfg.c **** CYPACKED typedef struct
 140:Generated_Source\PSoC4/cyfitter_cfg.c **** {
 141:Generated_Source\PSoC4/cyfitter_cfg.c **** 	uint8 offset;
 142:Generated_Source\PSoC4/cyfitter_cfg.c **** 	uint8 value;
 143:Generated_Source\PSoC4/cyfitter_cfg.c **** } CYPACKED_ATTR cy_cfg_addrvalue_t;
 144:Generated_Source\PSoC4/cyfitter_cfg.c **** 
 145:Generated_Source\PSoC4/cyfitter_cfg.c **** 
 146:Generated_Source\PSoC4/cyfitter_cfg.c **** 
ARM GAS  C:\Users\Petro\AppData\Local\Temp\ccyg7qaW.s 			page 4


 147:Generated_Source\PSoC4/cyfitter_cfg.c **** /*******************************************************************************
 148:Generated_Source\PSoC4/cyfitter_cfg.c **** * Function Name: cfg_write_bytes32
 149:Generated_Source\PSoC4/cyfitter_cfg.c **** ********************************************************************************
 150:Generated_Source\PSoC4/cyfitter_cfg.c **** * Summary:
 151:Generated_Source\PSoC4/cyfitter_cfg.c **** *  This function is used for setting up the chip configuration areas that
 152:Generated_Source\PSoC4/cyfitter_cfg.c **** *  contain relatively sparse data.
 153:Generated_Source\PSoC4/cyfitter_cfg.c **** *
 154:Generated_Source\PSoC4/cyfitter_cfg.c **** * Parameters:
 155:Generated_Source\PSoC4/cyfitter_cfg.c **** *   void
 156:Generated_Source\PSoC4/cyfitter_cfg.c **** *
 157:Generated_Source\PSoC4/cyfitter_cfg.c **** * Return:
 158:Generated_Source\PSoC4/cyfitter_cfg.c **** *   void
 159:Generated_Source\PSoC4/cyfitter_cfg.c **** *
 160:Generated_Source\PSoC4/cyfitter_cfg.c **** *******************************************************************************/
 161:Generated_Source\PSoC4/cyfitter_cfg.c **** static void cfg_write_bytes32(const uint32 addr_table[], const cy_cfg_addrvalue_t data_table[]);
 162:Generated_Source\PSoC4/cyfitter_cfg.c **** static void cfg_write_bytes32(const uint32 addr_table[], const cy_cfg_addrvalue_t data_table[])
 163:Generated_Source\PSoC4/cyfitter_cfg.c **** {
 164:Generated_Source\PSoC4/cyfitter_cfg.c **** 	/* For 32-bit little-endian architectures */
 165:Generated_Source\PSoC4/cyfitter_cfg.c **** 	uint32 i, j = 0u;
 166:Generated_Source\PSoC4/cyfitter_cfg.c **** 	for (i = 0u; i < CY_CFG_BASE_ADDR_COUNT; i++)
 167:Generated_Source\PSoC4/cyfitter_cfg.c **** 	{
 168:Generated_Source\PSoC4/cyfitter_cfg.c **** 		uint32 baseAddr = addr_table[i];
 169:Generated_Source\PSoC4/cyfitter_cfg.c **** 		uint8 count = (uint8)baseAddr;
 170:Generated_Source\PSoC4/cyfitter_cfg.c **** 		baseAddr &= 0xFFFFFF00u;
 171:Generated_Source\PSoC4/cyfitter_cfg.c **** 		while (count != 0u)
 172:Generated_Source\PSoC4/cyfitter_cfg.c **** 		{
 173:Generated_Source\PSoC4/cyfitter_cfg.c **** 			CY_SET_XTND_REG8((void CYFAR *)(baseAddr + data_table[j].offset), data_table[j].value);
 174:Generated_Source\PSoC4/cyfitter_cfg.c **** 			j++;
 175:Generated_Source\PSoC4/cyfitter_cfg.c **** 			count--;
 176:Generated_Source\PSoC4/cyfitter_cfg.c **** 		}
 177:Generated_Source\PSoC4/cyfitter_cfg.c **** 	}
 178:Generated_Source\PSoC4/cyfitter_cfg.c **** }
 179:Generated_Source\PSoC4/cyfitter_cfg.c **** 
 180:Generated_Source\PSoC4/cyfitter_cfg.c **** 
 181:Generated_Source\PSoC4/cyfitter_cfg.c **** /*******************************************************************************
 182:Generated_Source\PSoC4/cyfitter_cfg.c **** * Function Name: ClockSetup
 183:Generated_Source\PSoC4/cyfitter_cfg.c **** ********************************************************************************
 184:Generated_Source\PSoC4/cyfitter_cfg.c **** *
 185:Generated_Source\PSoC4/cyfitter_cfg.c **** * Summary:
 186:Generated_Source\PSoC4/cyfitter_cfg.c **** *   Performs the initialization of all of the clocks in the device based on the
 187:Generated_Source\PSoC4/cyfitter_cfg.c **** *   settings in the Clock tab of the DWR.  This includes enabling the requested
 188:Generated_Source\PSoC4/cyfitter_cfg.c **** *   clocks and setting the necessary dividers to produce the desired frequency. 
 189:Generated_Source\PSoC4/cyfitter_cfg.c **** *
 190:Generated_Source\PSoC4/cyfitter_cfg.c **** * Parameters:
 191:Generated_Source\PSoC4/cyfitter_cfg.c **** *   void
 192:Generated_Source\PSoC4/cyfitter_cfg.c **** *
 193:Generated_Source\PSoC4/cyfitter_cfg.c **** * Return:
 194:Generated_Source\PSoC4/cyfitter_cfg.c **** *   void
 195:Generated_Source\PSoC4/cyfitter_cfg.c **** *
 196:Generated_Source\PSoC4/cyfitter_cfg.c **** *******************************************************************************/
 197:Generated_Source\PSoC4/cyfitter_cfg.c **** static void ClockSetup(void);
 198:Generated_Source\PSoC4/cyfitter_cfg.c **** CY_CFG_SECTION
 199:Generated_Source\PSoC4/cyfitter_cfg.c **** static void ClockSetup(void)
 200:Generated_Source\PSoC4/cyfitter_cfg.c **** {
 201:Generated_Source\PSoC4/cyfitter_cfg.c **** 
 202:Generated_Source\PSoC4/cyfitter_cfg.c **** 	/* Set Flash Cycles based on max possible frequency in case a glitch occurs during ClockSetup(). *
 203:Generated_Source\PSoC4/cyfitter_cfg.c **** 	CY_SET_REG32((void CYXDATA *)(CYREG_CPUSS_FLASH_CTL), (0x0012u));
ARM GAS  C:\Users\Petro\AppData\Local\Temp\ccyg7qaW.s 			page 5


 204:Generated_Source\PSoC4/cyfitter_cfg.c **** 
 205:Generated_Source\PSoC4/cyfitter_cfg.c **** 	/* Start the WCO */
 206:Generated_Source\PSoC4/cyfitter_cfg.c **** 	CySysClkWcoStart();
 207:Generated_Source\PSoC4/cyfitter_cfg.c **** 	CyDelayCycles(12000000u); /* WCO may take up to 500ms to start */
 208:Generated_Source\PSoC4/cyfitter_cfg.c **** 	(void)CySysClkWcoSetPowerMode(CY_SYS_CLK_WCO_LPM);    /* Switch to the low power mode */
 209:Generated_Source\PSoC4/cyfitter_cfg.c **** 
 210:Generated_Source\PSoC4/cyfitter_cfg.c **** 	/* Setup and trim IMO based on desired frequency. */
 211:Generated_Source\PSoC4/cyfitter_cfg.c **** 	CySysClkWriteImoFreq(48u);
 212:Generated_Source\PSoC4/cyfitter_cfg.c **** 	/* CYDEV_WDT_CONFIG Starting address: CYDEV_WDT_CONFIG */
 213:Generated_Source\PSoC4/cyfitter_cfg.c **** 	CY_SET_XTND_REG32((void CYFAR *)(CYREG_WDT_CONFIG), 0x40000000u);
 214:Generated_Source\PSoC4/cyfitter_cfg.c **** 
 215:Generated_Source\PSoC4/cyfitter_cfg.c **** 
 216:Generated_Source\PSoC4/cyfitter_cfg.c **** 	/* Enable fast start mode for XO */
 217:Generated_Source\PSoC4/cyfitter_cfg.c **** 	CY_SET_REG32((void*)CYREG_BLE_BLERD_BB_XO, CY_GET_REG32((void*)CYREG_BLE_BLERD_BB_XO) | (uint32)0x
 218:Generated_Source\PSoC4/cyfitter_cfg.c **** 	CY_SET_XTND_REG32((void CYFAR *)(CYREG_BLE_BLERD_BB_XO_CAPTRIM), 0x00003E2Du);
 219:Generated_Source\PSoC4/cyfitter_cfg.c **** 	/*Set XTAL(ECO) divider*/
 220:Generated_Source\PSoC4/cyfitter_cfg.c **** 	CY_SET_XTND_REG32((void CYFAR *)(CYREG_BLE_BLESS_XTAL_CLK_DIV_CONFIG), 0x00000000u);
 221:Generated_Source\PSoC4/cyfitter_cfg.c **** 	/* Disable Crystal Stable Interrupt before enabling ECO */
 222:Generated_Source\PSoC4/cyfitter_cfg.c **** 	CY_SET_REG32((void*)CYREG_BLE_BLESS_LL_DSM_CTRL, CY_GET_REG32((void*)CYREG_BLE_BLESS_LL_DSM_CTRL) 
 223:Generated_Source\PSoC4/cyfitter_cfg.c **** 	/* Start the ECO and do not check status since it is not needed for HFCLK */
 224:Generated_Source\PSoC4/cyfitter_cfg.c **** 	(void)CySysClkEcoStart(2000u);
 225:Generated_Source\PSoC4/cyfitter_cfg.c **** 	CyDelayUs(1500u); /* Wait to stabalize */
 226:Generated_Source\PSoC4/cyfitter_cfg.c **** 
 227:Generated_Source\PSoC4/cyfitter_cfg.c **** 	/* Setup phase aligned clocks */
 228:Generated_Source\PSoC4/cyfitter_cfg.c **** 	CY_SET_REG32((void *)CYREG_PERI_DIV_16_CTL6, 0x00BB7F00u);
 229:Generated_Source\PSoC4/cyfitter_cfg.c **** 	CY_SET_REG32((void *)CYREG_PERI_DIV_CMD, 0x8000FF46u);
 230:Generated_Source\PSoC4/cyfitter_cfg.c **** 	CY_SET_REG32((void *)CYREG_PERI_DIV_16_CTL2, 0x0005B800u);
 231:Generated_Source\PSoC4/cyfitter_cfg.c **** 	CY_SET_REG32((void *)CYREG_PERI_DIV_CMD, 0x8000FF42u);
 232:Generated_Source\PSoC4/cyfitter_cfg.c **** 	CY_SET_REG32((void *)CYREG_PERI_DIV_16_CTL5, 0x00BB7F00u);
 233:Generated_Source\PSoC4/cyfitter_cfg.c **** 	CY_SET_REG32((void *)CYREG_PERI_DIV_CMD, 0x8000FF45u);
 234:Generated_Source\PSoC4/cyfitter_cfg.c **** 	CY_SET_REG32((void *)CYREG_PERI_DIV_16_CTL4, 0x0012BF00u);
 235:Generated_Source\PSoC4/cyfitter_cfg.c **** 	CY_SET_REG32((void *)CYREG_PERI_DIV_CMD, 0x8000FF44u);
 236:Generated_Source\PSoC4/cyfitter_cfg.c **** 	CY_SET_REG32((void *)CYREG_PERI_DIV_16_CTL0, 0x00000F00u);
 237:Generated_Source\PSoC4/cyfitter_cfg.c **** 	CY_SET_REG32((void *)CYREG_PERI_DIV_CMD, 0x8000FF40u);
 238:Generated_Source\PSoC4/cyfitter_cfg.c **** 	CY_SET_REG32((void *)CYREG_PERI_DIV_16_CTL1, 0x00001D00u);
 239:Generated_Source\PSoC4/cyfitter_cfg.c **** 	CY_SET_REG32((void *)CYREG_PERI_DIV_CMD, 0x8000FF41u);
 240:Generated_Source\PSoC4/cyfitter_cfg.c **** 	CY_SET_REG32((void *)CYREG_PERI_DIV_16_CTL3, 0x00068200u);
 241:Generated_Source\PSoC4/cyfitter_cfg.c **** 	CY_SET_REG32((void *)CYREG_PERI_DIV_CMD, 0x8000FF43u);
 242:Generated_Source\PSoC4/cyfitter_cfg.c **** 
 243:Generated_Source\PSoC4/cyfitter_cfg.c **** 	/* CYDEV_CLK_IMO_CONFIG Starting address: CYDEV_CLK_IMO_CONFIG */
 244:Generated_Source\PSoC4/cyfitter_cfg.c **** 	CY_SET_XTND_REG32((void CYFAR *)(CYREG_CLK_IMO_CONFIG), 0x82000000u);
 245:Generated_Source\PSoC4/cyfitter_cfg.c **** 
 246:Generated_Source\PSoC4/cyfitter_cfg.c **** 	/* CYDEV_CLK_SELECT Starting address: CYDEV_CLK_SELECT */
 247:Generated_Source\PSoC4/cyfitter_cfg.c **** 	CY_SET_XTND_REG32((void CYFAR *)(CYREG_CLK_SELECT), 0x00040000u);
 248:Generated_Source\PSoC4/cyfitter_cfg.c **** 
 249:Generated_Source\PSoC4/cyfitter_cfg.c **** 	/* CYDEV_PERI_PCLK_CTL11 Starting address: CYDEV_PERI_PCLK_CTL11 */
 250:Generated_Source\PSoC4/cyfitter_cfg.c **** 	CY_SET_XTND_REG32((void CYFAR *)(CYREG_PERI_PCLK_CTL11), 0x00000046u);
 251:Generated_Source\PSoC4/cyfitter_cfg.c **** 
 252:Generated_Source\PSoC4/cyfitter_cfg.c **** 	/* CYDEV_PERI_PCLK_CTL9 Starting address: CYDEV_PERI_PCLK_CTL9 */
 253:Generated_Source\PSoC4/cyfitter_cfg.c **** 	CY_SET_XTND_REG32((void CYFAR *)(CYREG_PERI_PCLK_CTL9), 0x00000042u);
 254:Generated_Source\PSoC4/cyfitter_cfg.c **** 
 255:Generated_Source\PSoC4/cyfitter_cfg.c **** 	/* CYDEV_PERI_PCLK_CTL8 Starting address: CYDEV_PERI_PCLK_CTL8 */
 256:Generated_Source\PSoC4/cyfitter_cfg.c **** 	CY_SET_XTND_REG32((void CYFAR *)(CYREG_PERI_PCLK_CTL8), 0x00000045u);
 257:Generated_Source\PSoC4/cyfitter_cfg.c **** 
 258:Generated_Source\PSoC4/cyfitter_cfg.c **** 	/* CYDEV_PERI_PCLK_CTL7 Starting address: CYDEV_PERI_PCLK_CTL7 */
 259:Generated_Source\PSoC4/cyfitter_cfg.c **** 	CY_SET_XTND_REG32((void CYFAR *)(CYREG_PERI_PCLK_CTL7), 0x00000044u);
 260:Generated_Source\PSoC4/cyfitter_cfg.c **** 
ARM GAS  C:\Users\Petro\AppData\Local\Temp\ccyg7qaW.s 			page 6


 261:Generated_Source\PSoC4/cyfitter_cfg.c **** 	/* CYDEV_PERI_PCLK_CTL6 Starting address: CYDEV_PERI_PCLK_CTL6 */
 262:Generated_Source\PSoC4/cyfitter_cfg.c **** 	CY_SET_XTND_REG32((void CYFAR *)(CYREG_PERI_PCLK_CTL6), 0x00000040u);
 263:Generated_Source\PSoC4/cyfitter_cfg.c **** 
 264:Generated_Source\PSoC4/cyfitter_cfg.c **** 	/* CYDEV_PERI_PCLK_CTL2 Starting address: CYDEV_PERI_PCLK_CTL2 */
 265:Generated_Source\PSoC4/cyfitter_cfg.c **** 	CY_SET_XTND_REG32((void CYFAR *)(CYREG_PERI_PCLK_CTL2), 0x00000041u);
 266:Generated_Source\PSoC4/cyfitter_cfg.c **** 
 267:Generated_Source\PSoC4/cyfitter_cfg.c **** 	/* CYDEV_PERI_PCLK_CTL1 Starting address: CYDEV_PERI_PCLK_CTL1 */
 268:Generated_Source\PSoC4/cyfitter_cfg.c **** 	CY_SET_XTND_REG32((void CYFAR *)(CYREG_PERI_PCLK_CTL1), 0x00000043u);
 269:Generated_Source\PSoC4/cyfitter_cfg.c **** 
 270:Generated_Source\PSoC4/cyfitter_cfg.c **** 	(void)CyIntSetVector(8u, &CySysWdtIsr);
 271:Generated_Source\PSoC4/cyfitter_cfg.c **** 	CyIntEnable(8u);
 272:Generated_Source\PSoC4/cyfitter_cfg.c **** 	CY_SET_XTND_REG32((void CYFAR *)(CYREG_WDT_MATCH), 0xFFFF0020u);
 273:Generated_Source\PSoC4/cyfitter_cfg.c **** 	CY_SET_XTND_REG32((void CYFAR *)(CYREG_WDT_CONFIG), 0x40000505u);
 274:Generated_Source\PSoC4/cyfitter_cfg.c **** 	CY_SET_XTND_REG32((void CYFAR *)(CYREG_WDT_CONTROL), 0x00000808u);
 275:Generated_Source\PSoC4/cyfitter_cfg.c **** 	while ((CY_GET_XTND_REG32((void CYFAR *)(CYREG_WDT_CONTROL)) & 0x00000808u) != 0u) { }
 276:Generated_Source\PSoC4/cyfitter_cfg.c **** 	CY_SET_XTND_REG32((void CYFAR *)(CYREG_WDT_CONTROL), 0x00000101u);
 277:Generated_Source\PSoC4/cyfitter_cfg.c **** }
 278:Generated_Source\PSoC4/cyfitter_cfg.c **** 
 279:Generated_Source\PSoC4/cyfitter_cfg.c **** 
 280:Generated_Source\PSoC4/cyfitter_cfg.c **** /* Analog API Functions */
 281:Generated_Source\PSoC4/cyfitter_cfg.c **** 
 282:Generated_Source\PSoC4/cyfitter_cfg.c **** 
 283:Generated_Source\PSoC4/cyfitter_cfg.c **** /*******************************************************************************
 284:Generated_Source\PSoC4/cyfitter_cfg.c **** * Function Name: AnalogSetDefault
 285:Generated_Source\PSoC4/cyfitter_cfg.c **** ********************************************************************************
 286:Generated_Source\PSoC4/cyfitter_cfg.c **** *
 287:Generated_Source\PSoC4/cyfitter_cfg.c **** * Summary:
 288:Generated_Source\PSoC4/cyfitter_cfg.c **** *  Sets up the analog portions of the chip to default values based on chip
 289:Generated_Source\PSoC4/cyfitter_cfg.c **** *  configuration options from the project.
 290:Generated_Source\PSoC4/cyfitter_cfg.c **** *
 291:Generated_Source\PSoC4/cyfitter_cfg.c **** * Parameters:
 292:Generated_Source\PSoC4/cyfitter_cfg.c **** *  void
 293:Generated_Source\PSoC4/cyfitter_cfg.c **** *
 294:Generated_Source\PSoC4/cyfitter_cfg.c **** * Return:
 295:Generated_Source\PSoC4/cyfitter_cfg.c **** *  void
 296:Generated_Source\PSoC4/cyfitter_cfg.c **** *
 297:Generated_Source\PSoC4/cyfitter_cfg.c **** *******************************************************************************/
 298:Generated_Source\PSoC4/cyfitter_cfg.c **** static void AnalogSetDefault(void);
 299:Generated_Source\PSoC4/cyfitter_cfg.c **** static void AnalogSetDefault(void)
 300:Generated_Source\PSoC4/cyfitter_cfg.c **** {
 301:Generated_Source\PSoC4/cyfitter_cfg.c **** 	CY_SET_XTND_REG32((void CYFAR *)CYREG_CTBM0_DFT_CTRL, 0x00000003u);
 302:Generated_Source\PSoC4/cyfitter_cfg.c **** 	CY_SET_XTND_REG32((void CYFAR *)CYREG_CTBM1_DFT_CTRL, 0x00000003u);
 303:Generated_Source\PSoC4/cyfitter_cfg.c **** 	CY_SET_XTND_REG32((void CYFAR *)CYREG_SAR_CTRL, 0x80000000u);
 304:Generated_Source\PSoC4/cyfitter_cfg.c **** 	CY_SET_XTND_REG32((void CYFAR *)CYREG_SAR_MUX_SWITCH0, 0x00000001u);
 305:Generated_Source\PSoC4/cyfitter_cfg.c **** 	CY_SET_XTND_REG32((void CYFAR *)CYREG_PASS_DSAB_DSAB_CTRL, 0x00000000u);
 306:Generated_Source\PSoC4/cyfitter_cfg.c **** 	SetAnalogRoutingPumps(1);
 307:Generated_Source\PSoC4/cyfitter_cfg.c **** }
 308:Generated_Source\PSoC4/cyfitter_cfg.c **** 
 309:Generated_Source\PSoC4/cyfitter_cfg.c **** 
 310:Generated_Source\PSoC4/cyfitter_cfg.c **** /*******************************************************************************
 311:Generated_Source\PSoC4/cyfitter_cfg.c **** * Function Name: SetAnalogRoutingPumps
 312:Generated_Source\PSoC4/cyfitter_cfg.c **** ********************************************************************************
 313:Generated_Source\PSoC4/cyfitter_cfg.c **** *
 314:Generated_Source\PSoC4/cyfitter_cfg.c **** * Summary:
 315:Generated_Source\PSoC4/cyfitter_cfg.c **** * Enables or disables the analog pumps feeding analog routing switches.
 316:Generated_Source\PSoC4/cyfitter_cfg.c **** * Intended to be called at startup, based on the Vdda system configuration;
 317:Generated_Source\PSoC4/cyfitter_cfg.c **** * may be called during operation when the user informs us that the Vdda voltage crossed the pump th
ARM GAS  C:\Users\Petro\AppData\Local\Temp\ccyg7qaW.s 			page 7


 318:Generated_Source\PSoC4/cyfitter_cfg.c **** *
 319:Generated_Source\PSoC4/cyfitter_cfg.c **** * Parameters:
 320:Generated_Source\PSoC4/cyfitter_cfg.c **** *  enabled - 1 to enable the pumps, 0 to disable the pumps
 321:Generated_Source\PSoC4/cyfitter_cfg.c **** *
 322:Generated_Source\PSoC4/cyfitter_cfg.c **** * Return:
 323:Generated_Source\PSoC4/cyfitter_cfg.c **** *  void
 324:Generated_Source\PSoC4/cyfitter_cfg.c **** *
 325:Generated_Source\PSoC4/cyfitter_cfg.c **** *******************************************************************************/
 326:Generated_Source\PSoC4/cyfitter_cfg.c **** void SetAnalogRoutingPumps(uint8 enabled)
 327:Generated_Source\PSoC4/cyfitter_cfg.c **** {
  26              		.loc 1 327 0
  27              		.cfi_startproc
  28              	.LVL0:
 328:Generated_Source\PSoC4/cyfitter_cfg.c **** 	uint32 regValue = CY_GET_XTND_REG32((void *)(CYREG_SAR_PUMP_CTRL));
  29              		.loc 1 328 0
  30 0000 054A     		ldr	r2, .L5
  31 0002 1368     		ldr	r3, [r2]
  32              	.LVL1:
 329:Generated_Source\PSoC4/cyfitter_cfg.c **** 	if (enabled != 0u)
  33              		.loc 1 329 0
  34 0004 0028     		cmp	r0, #0
  35 0006 03D0     		beq	.L2
 330:Generated_Source\PSoC4/cyfitter_cfg.c **** 	{
 331:Generated_Source\PSoC4/cyfitter_cfg.c **** 		regValue |= 0x80000000u;
  36              		.loc 1 331 0
  37 0008 8021     		mov	r1, #128
  38 000a 0906     		lsl	r1, r1, #24
  39 000c 0B43     		orr	r3, r1
  40              	.LVL2:
  41 000e 01E0     		b	.L3
  42              	.L2:
 332:Generated_Source\PSoC4/cyfitter_cfg.c **** 	}
 333:Generated_Source\PSoC4/cyfitter_cfg.c **** 	else
 334:Generated_Source\PSoC4/cyfitter_cfg.c **** 	{
 335:Generated_Source\PSoC4/cyfitter_cfg.c **** 		regValue &= ~0x80000000u;
  43              		.loc 1 335 0
  44 0010 5B00     		lsl	r3, r3, #1
  45              	.LVL3:
  46 0012 5B08     		lsr	r3, r3, #1
  47              	.LVL4:
  48              	.L3:
 336:Generated_Source\PSoC4/cyfitter_cfg.c **** 	}
 337:Generated_Source\PSoC4/cyfitter_cfg.c **** 	CY_SET_XTND_REG32((void *)(CYREG_SAR_PUMP_CTRL), regValue);
  49              		.loc 1 337 0
  50 0014 1360     		str	r3, [r2]
 338:Generated_Source\PSoC4/cyfitter_cfg.c **** }
  51              		.loc 1 338 0
  52              		@ sp needed
  53 0016 7047     		bx	lr
  54              	.L6:
  55              		.align	2
  56              	.L5:
  57 0018 80033A40 		.word	1077543808
  58              		.cfi_endproc
  59              	.LFE8:
  60              		.size	SetAnalogRoutingPumps, .-SetAnalogRoutingPumps
  61              		.section	.psocinit,"ax",%progbits
ARM GAS  C:\Users\Petro\AppData\Local\Temp\ccyg7qaW.s 			page 8


  62              		.align	1
  63              		.global	cyfitter_cfg
  64              		.code	16
  65              		.thumb_func
  66              		.type	cyfitter_cfg, %function
  67              	cyfitter_cfg:
  68              	.LFB9:
 339:Generated_Source\PSoC4/cyfitter_cfg.c **** 
 340:Generated_Source\PSoC4/cyfitter_cfg.c **** #define CY_AMUX_UNUSED CYREG_CM0_ROM_DWT
 341:Generated_Source\PSoC4/cyfitter_cfg.c **** 
 342:Generated_Source\PSoC4/cyfitter_cfg.c **** 
 343:Generated_Source\PSoC4/cyfitter_cfg.c **** /*******************************************************************************
 344:Generated_Source\PSoC4/cyfitter_cfg.c **** * Function Name: cyfitter_cfg
 345:Generated_Source\PSoC4/cyfitter_cfg.c **** ********************************************************************************
 346:Generated_Source\PSoC4/cyfitter_cfg.c **** * Summary:
 347:Generated_Source\PSoC4/cyfitter_cfg.c **** *  This function is called by the start-up code for the selected device. It
 348:Generated_Source\PSoC4/cyfitter_cfg.c **** *  performs all of the necessary device configuration based on the design
 349:Generated_Source\PSoC4/cyfitter_cfg.c **** *  settings.  This includes settings from the Design Wide Resources (DWR) such
 350:Generated_Source\PSoC4/cyfitter_cfg.c **** *  as Clocks and Pins as well as any component configuration that is necessary.
 351:Generated_Source\PSoC4/cyfitter_cfg.c **** *
 352:Generated_Source\PSoC4/cyfitter_cfg.c **** * Parameters:  
 353:Generated_Source\PSoC4/cyfitter_cfg.c **** *   void
 354:Generated_Source\PSoC4/cyfitter_cfg.c **** *
 355:Generated_Source\PSoC4/cyfitter_cfg.c **** * Return:
 356:Generated_Source\PSoC4/cyfitter_cfg.c **** *   void
 357:Generated_Source\PSoC4/cyfitter_cfg.c **** *
 358:Generated_Source\PSoC4/cyfitter_cfg.c **** *******************************************************************************/
 359:Generated_Source\PSoC4/cyfitter_cfg.c **** CY_CFG_SECTION
 360:Generated_Source\PSoC4/cyfitter_cfg.c **** void cyfitter_cfg(void)
 361:Generated_Source\PSoC4/cyfitter_cfg.c **** {
  69              		.loc 1 361 0
  70              		.cfi_startproc
  71 0000 F8B5     		push	{r3, r4, r5, r6, r7, lr}
  72              		.cfi_def_cfa_offset 24
  73              		.cfi_offset 3, -24
  74              		.cfi_offset 4, -20
  75              		.cfi_offset 5, -16
  76              		.cfi_offset 6, -12
  77              		.cfi_offset 7, -8
  78              		.cfi_offset 14, -4
 362:Generated_Source\PSoC4/cyfitter_cfg.c **** 	/* Disable interrupts by default. Let user enable if/when they want. */
 363:Generated_Source\PSoC4/cyfitter_cfg.c **** 	CyGlobalIntDisable;
  79              		.loc 1 363 0
  80              	@ 363 "Generated_Source\PSoC4\cyfitter_cfg.c" 1
  81 0002 72B6     		CPSID   i
  82              	@ 0 "" 2
 364:Generated_Source\PSoC4/cyfitter_cfg.c **** 
 365:Generated_Source\PSoC4/cyfitter_cfg.c **** 	CY_SET_XTND_REG32((void CYFAR *)(CYREG_BLE_BLESS_LL_DSM_CTRL), 0x00000000u);
  83              		.loc 1 365 0
  84              		.code	16
  85 0004 0025     		mov	r5, #0
 366:Generated_Source\PSoC4/cyfitter_cfg.c **** 
 367:Generated_Source\PSoC4/cyfitter_cfg.c **** 	/* Enable the clock in the interrupt controller for the routed interrupts */
 368:Generated_Source\PSoC4/cyfitter_cfg.c **** 	CY_SET_REG8((void *)CYREG_UDB_UDBIF_INT_CLK_CTL, 0x01u);
  86              		.loc 1 368 0
  87 0006 0122     		mov	r2, #1
  88 0008 804B     		ldr	r3, .L13
ARM GAS  C:\Users\Petro\AppData\Local\Temp\ccyg7qaW.s 			page 9


 365:Generated_Source\PSoC4/cyfitter_cfg.c **** 
  89              		.loc 1 365 0
  90 000a 814C     		ldr	r4, .L13+4
  91              	.LBB14:
  92              	.LBB15:
  93              	.LBB16:
  94              	.LBB17:
  64:Generated_Source\PSoC4/cyfitter_cfg.c **** }
  95              		.loc 1 64 0
  96 000c 291C     		mov	r1, r5
  97              	.LBE17:
  98              	.LBE16:
  99              	.LBE15:
 100              	.LBE14:
 365:Generated_Source\PSoC4/cyfitter_cfg.c **** 
 101              		.loc 1 365 0
 102 000e 2560     		str	r5, [r4]
 103              		.loc 1 368 0
 104 0010 1A70     		strb	r2, [r3]
 105              	.LVL5:
 106              	.LBB24:
 107              	.LBB20:
 108              	.LBB19:
 109              	.LBB18:
  64:Generated_Source\PSoC4/cyfitter_cfg.c **** }
 110              		.loc 1 64 0
 111 0012 8022     		mov	r2, #128
 112 0014 7F48     		ldr	r0, .L13+8
 113 0016 D200     		lsl	r2, r2, #3
 114 0018 FFF7FEFF 		bl	memset
 115              	.LVL6:
 116 001c 8022     		mov	r2, #128
 117 001e 291C     		mov	r1, r5
 118 0020 7D48     		ldr	r0, .L13+12
 119 0022 D200     		lsl	r2, r2, #3
 120 0024 FFF7FEFF 		bl	memset
 121              	.LVL7:
 122 0028 291C     		mov	r1, r5
 123              	.LVL8:
 124              	.L10:
 125              	.LBE18:
 126              	.LBE19:
 127              	.LBE20:
 128              	.LBB21:
 129              	.LBB22:
 130              	.LBB23:
 168:Generated_Source\PSoC4/cyfitter_cfg.c **** 		uint8 count = (uint8)baseAddr;
 131              		.loc 1 168 0
 132 002a 7C4F     		ldr	r7, .L13+16
 170:Generated_Source\PSoC4/cyfitter_cfg.c **** 		while (count != 0u)
 133              		.loc 1 170 0
 134 002c FF20     		mov	r0, #255
 168:Generated_Source\PSoC4/cyfitter_cfg.c **** 		uint8 count = (uint8)baseAddr;
 135              		.loc 1 168 0
 136 002e CA59     		ldr	r2, [r1, r7]
 137              	.LVL9:
 138 0030 6B00     		lsl	r3, r5, #1
ARM GAS  C:\Users\Petro\AppData\Local\Temp\ccyg7qaW.s 			page 10


 170:Generated_Source\PSoC4/cyfitter_cfg.c **** 		while (count != 0u)
 139              		.loc 1 170 0
 140 0032 161C     		mov	r6, r2
 141 0034 8643     		bic	r6, r0
 142              	.LVL10:
 143 0036 1040     		and	r0, r2
 144 0038 2D18     		add	r5, r5, r0
 145              	.LVL11:
 146 003a 6A00     		lsl	r2, r5, #1
 147              	.LVL12:
 148 003c 1837     		add	r7, r7, #24
 149              	.LVL13:
 150 003e 0133     		add	r3, r3, #1
 151 0040 0132     		add	r2, r2, #1
 152 0042 FB18     		add	r3, r7, r3
 153 0044 BA18     		add	r2, r7, r2
 154              	.LVL14:
 155              	.L8:
 171:Generated_Source\PSoC4/cyfitter_cfg.c **** 		{
 156              		.loc 1 171 0
 157 0046 9342     		cmp	r3, r2
 158 0048 06D0     		beq	.L12
 159 004a 581E     		sub	r0, r3, #1
 173:Generated_Source\PSoC4/cyfitter_cfg.c **** 			j++;
 160              		.loc 1 173 0
 161 004c 0078     		ldrb	r0, [r0]
 162 004e 1F78     		ldrb	r7, [r3]
 163 0050 8019     		add	r0, r0, r6
 164 0052 0770     		strb	r7, [r0]
 165 0054 0233     		add	r3, r3, #2
 166 0056 F6E7     		b	.L8
 167              	.L12:
 168              	.LVL15:
 169 0058 0431     		add	r1, r1, #4
 170              	.LBE23:
 166:Generated_Source\PSoC4/cyfitter_cfg.c **** 	{
 171              		.loc 1 166 0
 172 005a 1829     		cmp	r1, #24
 173 005c E5D1     		bne	.L10
 174              	.LBE22:
 175              	.LBE21:
 369:Generated_Source\PSoC4/cyfitter_cfg.c **** 	{
 370:Generated_Source\PSoC4/cyfitter_cfg.c **** 		static const uint32 CYCODE cy_cfg_addr_table[] = {
 371:Generated_Source\PSoC4/cyfitter_cfg.c **** 			0x400F0001u, /* Base address: 0x400F0000 Count: 1 */
 372:Generated_Source\PSoC4/cyfitter_cfg.c **** 			0x400F322Cu, /* Base address: 0x400F3200 Count: 44 */
 373:Generated_Source\PSoC4/cyfitter_cfg.c **** 			0x400F3323u, /* Base address: 0x400F3300 Count: 35 */
 374:Generated_Source\PSoC4/cyfitter_cfg.c **** 			0x400F4104u, /* Base address: 0x400F4100 Count: 4 */
 375:Generated_Source\PSoC4/cyfitter_cfg.c **** 			0x400F4307u, /* Base address: 0x400F4300 Count: 7 */
 376:Generated_Source\PSoC4/cyfitter_cfg.c **** 			0x400F6002u, /* Base address: 0x400F6000 Count: 2 */
 377:Generated_Source\PSoC4/cyfitter_cfg.c **** 		};
 378:Generated_Source\PSoC4/cyfitter_cfg.c **** 
 379:Generated_Source\PSoC4/cyfitter_cfg.c **** 		static const cy_cfg_addrvalue_t CYCODE cy_cfg_data_table[] = {
 380:Generated_Source\PSoC4/cyfitter_cfg.c **** 			{0x83u, 0x0Du},
 381:Generated_Source\PSoC4/cyfitter_cfg.c **** 			{0x8Bu, 0x02u},
 382:Generated_Source\PSoC4/cyfitter_cfg.c **** 			{0x8Cu, 0x01u},
 383:Generated_Source\PSoC4/cyfitter_cfg.c **** 			{0x8Fu, 0x01u},
 384:Generated_Source\PSoC4/cyfitter_cfg.c **** 			{0x91u, 0x04u},
ARM GAS  C:\Users\Petro\AppData\Local\Temp\ccyg7qaW.s 			page 11


 385:Generated_Source\PSoC4/cyfitter_cfg.c **** 			{0x94u, 0x08u},
 386:Generated_Source\PSoC4/cyfitter_cfg.c **** 			{0x9Au, 0x04u},
 387:Generated_Source\PSoC4/cyfitter_cfg.c **** 			{0xA3u, 0x02u},
 388:Generated_Source\PSoC4/cyfitter_cfg.c **** 			{0xA6u, 0x07u},
 389:Generated_Source\PSoC4/cyfitter_cfg.c **** 			{0xB0u, 0x02u},
 390:Generated_Source\PSoC4/cyfitter_cfg.c **** 			{0xB2u, 0x04u},
 391:Generated_Source\PSoC4/cyfitter_cfg.c **** 			{0xB3u, 0x02u},
 392:Generated_Source\PSoC4/cyfitter_cfg.c **** 			{0xB4u, 0x08u},
 393:Generated_Source\PSoC4/cyfitter_cfg.c **** 			{0xB5u, 0x01u},
 394:Generated_Source\PSoC4/cyfitter_cfg.c **** 			{0xB6u, 0x01u},
 395:Generated_Source\PSoC4/cyfitter_cfg.c **** 			{0xB7u, 0x04u},
 396:Generated_Source\PSoC4/cyfitter_cfg.c **** 			{0xBEu, 0x10u},
 397:Generated_Source\PSoC4/cyfitter_cfg.c **** 			{0xBFu, 0x44u},
 398:Generated_Source\PSoC4/cyfitter_cfg.c **** 			{0xC0u, 0x20u},
 399:Generated_Source\PSoC4/cyfitter_cfg.c **** 			{0xC1u, 0x05u},
 400:Generated_Source\PSoC4/cyfitter_cfg.c **** 			{0xC5u, 0xD1u},
 401:Generated_Source\PSoC4/cyfitter_cfg.c **** 			{0xC7u, 0x20u},
 402:Generated_Source\PSoC4/cyfitter_cfg.c **** 			{0xC8u, 0x23u},
 403:Generated_Source\PSoC4/cyfitter_cfg.c **** 			{0xC9u, 0xFFu},
 404:Generated_Source\PSoC4/cyfitter_cfg.c **** 			{0xCAu, 0xFFu},
 405:Generated_Source\PSoC4/cyfitter_cfg.c **** 			{0xCBu, 0xFFu},
 406:Generated_Source\PSoC4/cyfitter_cfg.c **** 			{0xCDu, 0xA0u},
 407:Generated_Source\PSoC4/cyfitter_cfg.c **** 			{0xCFu, 0x04u},
 408:Generated_Source\PSoC4/cyfitter_cfg.c **** 			{0xD0u, 0x18u},
 409:Generated_Source\PSoC4/cyfitter_cfg.c **** 			{0xD2u, 0x80u},
 410:Generated_Source\PSoC4/cyfitter_cfg.c **** 			{0xD4u, 0x05u},
 411:Generated_Source\PSoC4/cyfitter_cfg.c **** 			{0xD8u, 0x04u},
 412:Generated_Source\PSoC4/cyfitter_cfg.c **** 			{0xD9u, 0x04u},
 413:Generated_Source\PSoC4/cyfitter_cfg.c **** 			{0xDAu, 0x04u},
 414:Generated_Source\PSoC4/cyfitter_cfg.c **** 			{0xDBu, 0x04u},
 415:Generated_Source\PSoC4/cyfitter_cfg.c **** 			{0xDFu, 0x01u},
 416:Generated_Source\PSoC4/cyfitter_cfg.c **** 			{0xE0u, 0x40u},
 417:Generated_Source\PSoC4/cyfitter_cfg.c **** 			{0xE2u, 0xC0u},
 418:Generated_Source\PSoC4/cyfitter_cfg.c **** 			{0xE4u, 0x40u},
 419:Generated_Source\PSoC4/cyfitter_cfg.c **** 			{0xE5u, 0x40u},
 420:Generated_Source\PSoC4/cyfitter_cfg.c **** 			{0xE6u, 0xC0u},
 421:Generated_Source\PSoC4/cyfitter_cfg.c **** 			{0xE8u, 0xC0u},
 422:Generated_Source\PSoC4/cyfitter_cfg.c **** 			{0xEAu, 0xC0u},
 423:Generated_Source\PSoC4/cyfitter_cfg.c **** 			{0xECu, 0xC0u},
 424:Generated_Source\PSoC4/cyfitter_cfg.c **** 			{0xEEu, 0xC0u},
 425:Generated_Source\PSoC4/cyfitter_cfg.c **** 			{0x00u, 0x40u},
 426:Generated_Source\PSoC4/cyfitter_cfg.c **** 			{0x09u, 0x20u},
 427:Generated_Source\PSoC4/cyfitter_cfg.c **** 			{0x0Au, 0x10u},
 428:Generated_Source\PSoC4/cyfitter_cfg.c **** 			{0x10u, 0x20u},
 429:Generated_Source\PSoC4/cyfitter_cfg.c **** 			{0x18u, 0x44u},
 430:Generated_Source\PSoC4/cyfitter_cfg.c **** 			{0x19u, 0x40u},
 431:Generated_Source\PSoC4/cyfitter_cfg.c **** 			{0x1Au, 0x10u},
 432:Generated_Source\PSoC4/cyfitter_cfg.c **** 			{0x21u, 0x30u},
 433:Generated_Source\PSoC4/cyfitter_cfg.c **** 			{0x22u, 0x04u},
 434:Generated_Source\PSoC4/cyfitter_cfg.c **** 			{0x23u, 0x01u},
 435:Generated_Source\PSoC4/cyfitter_cfg.c **** 			{0x2Au, 0x01u},
 436:Generated_Source\PSoC4/cyfitter_cfg.c **** 			{0x33u, 0x01u},
 437:Generated_Source\PSoC4/cyfitter_cfg.c **** 			{0x39u, 0x20u},
 438:Generated_Source\PSoC4/cyfitter_cfg.c **** 			{0x3Bu, 0x40u},
 439:Generated_Source\PSoC4/cyfitter_cfg.c **** 			{0x41u, 0x10u},
 440:Generated_Source\PSoC4/cyfitter_cfg.c **** 			{0x48u, 0x22u},
 441:Generated_Source\PSoC4/cyfitter_cfg.c **** 			{0x49u, 0x01u},
ARM GAS  C:\Users\Petro\AppData\Local\Temp\ccyg7qaW.s 			page 12


 442:Generated_Source\PSoC4/cyfitter_cfg.c **** 			{0x50u, 0x02u},
 443:Generated_Source\PSoC4/cyfitter_cfg.c **** 			{0x52u, 0x01u},
 444:Generated_Source\PSoC4/cyfitter_cfg.c **** 			{0x59u, 0x41u},
 445:Generated_Source\PSoC4/cyfitter_cfg.c **** 			{0x5Au, 0x08u},
 446:Generated_Source\PSoC4/cyfitter_cfg.c **** 			{0x73u, 0x40u},
 447:Generated_Source\PSoC4/cyfitter_cfg.c **** 			{0x83u, 0x01u},
 448:Generated_Source\PSoC4/cyfitter_cfg.c **** 			{0x87u, 0x01u},
 449:Generated_Source\PSoC4/cyfitter_cfg.c **** 			{0x8Cu, 0x04u},
 450:Generated_Source\PSoC4/cyfitter_cfg.c **** 			{0xC0u, 0x01u},
 451:Generated_Source\PSoC4/cyfitter_cfg.c **** 			{0xC2u, 0x06u},
 452:Generated_Source\PSoC4/cyfitter_cfg.c **** 			{0xC4u, 0x04u},
 453:Generated_Source\PSoC4/cyfitter_cfg.c **** 			{0xCAu, 0x01u},
 454:Generated_Source\PSoC4/cyfitter_cfg.c **** 			{0xCCu, 0x01u},
 455:Generated_Source\PSoC4/cyfitter_cfg.c **** 			{0xCEu, 0x0Cu},
 456:Generated_Source\PSoC4/cyfitter_cfg.c **** 			{0xD0u, 0x04u},
 457:Generated_Source\PSoC4/cyfitter_cfg.c **** 			{0xD2u, 0x08u},
 458:Generated_Source\PSoC4/cyfitter_cfg.c **** 			{0xD6u, 0x0Bu},
 459:Generated_Source\PSoC4/cyfitter_cfg.c **** 			{0xE2u, 0x02u},
 460:Generated_Source\PSoC4/cyfitter_cfg.c **** 			{0x6Cu, 0x20u},
 461:Generated_Source\PSoC4/cyfitter_cfg.c **** 			{0x80u, 0x20u},
 462:Generated_Source\PSoC4/cyfitter_cfg.c **** 			{0xDAu, 0x80u},
 463:Generated_Source\PSoC4/cyfitter_cfg.c **** 			{0xE2u, 0x80u},
 464:Generated_Source\PSoC4/cyfitter_cfg.c **** 			{0x07u, 0x80u},
 465:Generated_Source\PSoC4/cyfitter_cfg.c **** 			{0x54u, 0x02u},
 466:Generated_Source\PSoC4/cyfitter_cfg.c **** 			{0x87u, 0x80u},
 467:Generated_Source\PSoC4/cyfitter_cfg.c **** 			{0x8Cu, 0x02u},
 468:Generated_Source\PSoC4/cyfitter_cfg.c **** 			{0xC0u, 0x04u},
 469:Generated_Source\PSoC4/cyfitter_cfg.c **** 			{0xD6u, 0x04u},
 470:Generated_Source\PSoC4/cyfitter_cfg.c **** 			{0xE4u, 0x02u},
 471:Generated_Source\PSoC4/cyfitter_cfg.c **** 			{0x01u, 0x01u},
 472:Generated_Source\PSoC4/cyfitter_cfg.c **** 			{0x10u, 0x01u},
 473:Generated_Source\PSoC4/cyfitter_cfg.c **** 		};
 474:Generated_Source\PSoC4/cyfitter_cfg.c **** 
 475:Generated_Source\PSoC4/cyfitter_cfg.c **** 
 476:Generated_Source\PSoC4/cyfitter_cfg.c **** 
 477:Generated_Source\PSoC4/cyfitter_cfg.c **** 		CYPACKED typedef struct {
 478:Generated_Source\PSoC4/cyfitter_cfg.c **** 			void CYFAR *address;
 479:Generated_Source\PSoC4/cyfitter_cfg.c **** 			uint16 size;
 480:Generated_Source\PSoC4/cyfitter_cfg.c **** 		} CYPACKED_ATTR cfg_memset_t;
 481:Generated_Source\PSoC4/cyfitter_cfg.c **** 
 482:Generated_Source\PSoC4/cyfitter_cfg.c **** 		static const cfg_memset_t CYCODE cfg_memset_list [] = {
 483:Generated_Source\PSoC4/cyfitter_cfg.c **** 			/* address, size */
 484:Generated_Source\PSoC4/cyfitter_cfg.c **** 			{(void CYFAR *)(CYDEV_UDB_P0_U0_BASE), 1024u},
 485:Generated_Source\PSoC4/cyfitter_cfg.c **** 			{(void CYFAR *)(CYDEV_UDB_DSI0_BASE), 1024u},
 486:Generated_Source\PSoC4/cyfitter_cfg.c **** 		};
 487:Generated_Source\PSoC4/cyfitter_cfg.c **** 
 488:Generated_Source\PSoC4/cyfitter_cfg.c **** 		uint8 CYDATA i;
 489:Generated_Source\PSoC4/cyfitter_cfg.c **** 
 490:Generated_Source\PSoC4/cyfitter_cfg.c **** 		/* Zero out critical memory blocks before beginning configuration */
 491:Generated_Source\PSoC4/cyfitter_cfg.c **** 		for (i = 0u; i < (sizeof(cfg_memset_list)/sizeof(cfg_memset_list[0])); i++)
 492:Generated_Source\PSoC4/cyfitter_cfg.c **** 		{
 493:Generated_Source\PSoC4/cyfitter_cfg.c **** 			const cfg_memset_t CYCODE * CYDATA ms = &cfg_memset_list[i];
 494:Generated_Source\PSoC4/cyfitter_cfg.c **** 			CYMEMZERO(ms->address, (size_t)(uint32)(ms->size));
 495:Generated_Source\PSoC4/cyfitter_cfg.c **** 		}
 496:Generated_Source\PSoC4/cyfitter_cfg.c **** 
 497:Generated_Source\PSoC4/cyfitter_cfg.c **** 		cfg_write_bytes32(cy_cfg_addr_table, cy_cfg_data_table);
 498:Generated_Source\PSoC4/cyfitter_cfg.c **** 
ARM GAS  C:\Users\Petro\AppData\Local\Temp\ccyg7qaW.s 			page 13


 499:Generated_Source\PSoC4/cyfitter_cfg.c **** 		/* HSIOM Starting address: CYDEV_HSIOM_BASE */
 500:Generated_Source\PSoC4/cyfitter_cfg.c **** 		CY_SET_XTND_REG32((void CYFAR *)(CYDEV_HSIOM_BASE), 0xEE9900EEu);
 176              		.loc 1 500 0
 177 005e 704A     		ldr	r2, .L13+20
 178 0060 704B     		ldr	r3, .L13+24
 501:Generated_Source\PSoC4/cyfitter_cfg.c **** 		CY_SET_XTND_REG32((void CYFAR *)(CYREG_HSIOM_PORT_SEL3), 0x00003000u);
 502:Generated_Source\PSoC4/cyfitter_cfg.c **** 
 503:Generated_Source\PSoC4/cyfitter_cfg.c **** 		/* UDB_PA_0 Starting address: CYDEV_UDB_PA0_BASE */
 504:Generated_Source\PSoC4/cyfitter_cfg.c **** 		CY_SET_XTND_REG32((void CYFAR *)(CYDEV_UDB_PA0_BASE), 0x00990000u);
 505:Generated_Source\PSoC4/cyfitter_cfg.c **** 
 506:Generated_Source\PSoC4/cyfitter_cfg.c **** 		/* UDB_PA_1 Starting address: CYDEV_UDB_PA1_BASE */
 507:Generated_Source\PSoC4/cyfitter_cfg.c **** 		CY_SET_XTND_REG32((void CYFAR *)(CYDEV_UDB_PA1_BASE), 0x00990000u);
 508:Generated_Source\PSoC4/cyfitter_cfg.c **** 
 509:Generated_Source\PSoC4/cyfitter_cfg.c **** 		/* UDB_PA_2 Starting address: CYDEV_UDB_PA2_BASE */
 510:Generated_Source\PSoC4/cyfitter_cfg.c **** 		CY_SET_XTND_REG32((void CYFAR *)(CYDEV_UDB_PA2_BASE), 0x00990000u);
 511:Generated_Source\PSoC4/cyfitter_cfg.c **** 
 512:Generated_Source\PSoC4/cyfitter_cfg.c **** 		/* UDB_PA_3 Starting address: CYDEV_UDB_PA3_BASE */
 513:Generated_Source\PSoC4/cyfitter_cfg.c **** 		CY_SET_XTND_REG32((void CYFAR *)(CYDEV_UDB_PA3_BASE), 0x00990000u);
 514:Generated_Source\PSoC4/cyfitter_cfg.c **** 		CY_SET_XTND_REG32((void CYFAR *)(CYREG_UDB_PA3_CFG8), 0x00C00000u);
 515:Generated_Source\PSoC4/cyfitter_cfg.c **** 
 516:Generated_Source\PSoC4/cyfitter_cfg.c **** 		/* INT_SELECT Starting address: CYDEV_CPUSS_INT_SEL */
 517:Generated_Source\PSoC4/cyfitter_cfg.c **** 		CY_SET_XTND_REG32((void CYFAR *)(CYREG_CPUSS_INT_SEL), 0x00000002u);
 179              		.loc 1 517 0
 180 0062 0225     		mov	r5, #2
 181              	.LVL16:
 500:Generated_Source\PSoC4/cyfitter_cfg.c **** 		CY_SET_XTND_REG32((void CYFAR *)(CYREG_HSIOM_PORT_SEL3), 0x00003000u);
 182              		.loc 1 500 0
 183 0064 1A60     		str	r2, [r3]
 501:Generated_Source\PSoC4/cyfitter_cfg.c **** 		CY_SET_XTND_REG32((void CYFAR *)(CYREG_HSIOM_PORT_SEL3), 0x00003000u);
 184              		.loc 1 501 0
 185 0066 C022     		mov	r2, #192
 186 0068 6F4B     		ldr	r3, .L13+28
 187 006a 9201     		lsl	r2, r2, #6
 188 006c 1A60     		str	r2, [r3]
 504:Generated_Source\PSoC4/cyfitter_cfg.c **** 
 189              		.loc 1 504 0
 190 006e 9923     		mov	r3, #153
 191 0070 6E4A     		ldr	r2, .L13+32
 192 0072 1B04     		lsl	r3, r3, #16
 193 0074 1360     		str	r3, [r2]
 507:Generated_Source\PSoC4/cyfitter_cfg.c **** 
 194              		.loc 1 507 0
 195 0076 6E4A     		ldr	r2, .L13+36
 518:Generated_Source\PSoC4/cyfitter_cfg.c **** 
 519:Generated_Source\PSoC4/cyfitter_cfg.c **** 		/* INT_CONFIG Starting address: CYDEV_UDB_INT_CFG */
 520:Generated_Source\PSoC4/cyfitter_cfg.c **** 		CY_SET_XTND_REG32((void CYFAR *)(CYREG_UDB_INT_CFG), 0x00000002u);
 521:Generated_Source\PSoC4/cyfitter_cfg.c **** 
 522:Generated_Source\PSoC4/cyfitter_cfg.c **** 		/* Enable digital routing */
 523:Generated_Source\PSoC4/cyfitter_cfg.c **** 		CY_SET_XTND_REG8((void *)CYREG_UDB_UDBIF_BANK_CTL, CY_GET_XTND_REG8((void *)CYREG_UDB_UDBIF_BANK_
 524:Generated_Source\PSoC4/cyfitter_cfg.c **** 
 525:Generated_Source\PSoC4/cyfitter_cfg.c **** 		/* Enable UDB array */
 526:Generated_Source\PSoC4/cyfitter_cfg.c **** 		CY_SET_XTND_REG8((void *)CYREG_UDB_UDBIF_WAIT_CFG, (uint8)((CY_GET_XTND_REG8((void *)CYREG_UDB_UD
 196              		.loc 1 526 0
 197 0078 3C20     		mov	r0, #60
 507:Generated_Source\PSoC4/cyfitter_cfg.c **** 
 198              		.loc 1 507 0
 199 007a 1360     		str	r3, [r2]
ARM GAS  C:\Users\Petro\AppData\Local\Temp\ccyg7qaW.s 			page 14


 510:Generated_Source\PSoC4/cyfitter_cfg.c **** 
 200              		.loc 1 510 0
 201 007c 6D4A     		ldr	r2, .L13+40
 202              		.loc 1 526 0
 203 007e 6E49     		ldr	r1, .L13+44
 510:Generated_Source\PSoC4/cyfitter_cfg.c **** 
 204              		.loc 1 510 0
 205 0080 1360     		str	r3, [r2]
 513:Generated_Source\PSoC4/cyfitter_cfg.c **** 		CY_SET_XTND_REG32((void CYFAR *)(CYREG_UDB_PA3_CFG8), 0x00C00000u);
 206              		.loc 1 513 0
 207 0082 6E4A     		ldr	r2, .L13+48
 208              	.LBE24:
 527:Generated_Source\PSoC4/cyfitter_cfg.c **** 		CY_SET_XTND_REG8((void *)CYREG_UDB_UDBIF_BANK_CTL, (uint8)(CY_GET_XTND_REG8((void *)CYREG_UDB_UDB
 528:Generated_Source\PSoC4/cyfitter_cfg.c **** 	}
 529:Generated_Source\PSoC4/cyfitter_cfg.c **** 
 530:Generated_Source\PSoC4/cyfitter_cfg.c **** 	/* Perform second pass device configuration. These items must be configured in specific order afte
 531:Generated_Source\PSoC4/cyfitter_cfg.c **** 	/* IOPINS0_0 Starting address: CYDEV_GPIO_PRT0_BASE */
 532:Generated_Source\PSoC4/cyfitter_cfg.c **** 	CY_SET_XTND_REG32((void CYFAR *)(CYDEV_GPIO_PRT0_BASE), 0x00000023u);
 533:Generated_Source\PSoC4/cyfitter_cfg.c **** 	CY_SET_XTND_REG32((void CYFAR *)(CYREG_GPIO_PRT0_PC), 0x00DB1DA4u);
 534:Generated_Source\PSoC4/cyfitter_cfg.c **** 	CY_SET_XTND_REG32((void CYFAR *)(CYREG_GPIO_PRT0_PC2), 0x00000020u);
 535:Generated_Source\PSoC4/cyfitter_cfg.c **** 
 536:Generated_Source\PSoC4/cyfitter_cfg.c **** 	/* IOPINS0_1 Starting address: CYDEV_GPIO_PRT1_BASE */
 537:Generated_Source\PSoC4/cyfitter_cfg.c **** 	CY_SET_XTND_REG32((void CYFAR *)(CYDEV_GPIO_PRT1_BASE), 0x00000090u);
 538:Generated_Source\PSoC4/cyfitter_cfg.c **** 	CY_SET_XTND_REG32((void CYFAR *)(CYREG_GPIO_PRT1_PC), 0x009B6006u);
 539:Generated_Source\PSoC4/cyfitter_cfg.c **** 
 540:Generated_Source\PSoC4/cyfitter_cfg.c **** 	/* IOPINS0_2 Starting address: CYDEV_GPIO_PRT2_BASE */
 541:Generated_Source\PSoC4/cyfitter_cfg.c **** 	CY_SET_XTND_REG32((void CYFAR *)(CYDEV_GPIO_PRT2_BASE), 0x00000023u);
 542:Generated_Source\PSoC4/cyfitter_cfg.c **** 	CY_SET_XTND_REG32((void CYFAR *)(CYREG_GPIO_PRT2_PC), 0x00036192u);
 543:Generated_Source\PSoC4/cyfitter_cfg.c **** 
 544:Generated_Source\PSoC4/cyfitter_cfg.c **** 	/* IOPINS0_3 Starting address: CYDEV_GPIO_PRT3_BASE */
 545:Generated_Source\PSoC4/cyfitter_cfg.c **** 	CY_SET_XTND_REG32((void CYFAR *)(CYDEV_GPIO_PRT3_BASE), 0x0000000Fu);
 546:Generated_Source\PSoC4/cyfitter_cfg.c **** 	CY_SET_XTND_REG32((void CYFAR *)(CYREG_GPIO_PRT3_PC), 0x00036C90u);
 547:Generated_Source\PSoC4/cyfitter_cfg.c **** 	CY_SET_XTND_REG32((void CYFAR *)(CYREG_GPIO_PRT3_PC2), 0x00000001u);
 209              		.loc 1 547 0
 210 0084 0126     		mov	r6, #1
 211              	.LVL17:
 212              	.LBB25:
 513:Generated_Source\PSoC4/cyfitter_cfg.c **** 		CY_SET_XTND_REG32((void CYFAR *)(CYREG_UDB_PA3_CFG8), 0x00C00000u);
 213              		.loc 1 513 0
 214 0086 1360     		str	r3, [r2]
 514:Generated_Source\PSoC4/cyfitter_cfg.c **** 
 215              		.loc 1 514 0
 216 0088 C022     		mov	r2, #192
 217 008a 6D4B     		ldr	r3, .L13+52
 218 008c 1204     		lsl	r2, r2, #16
 219 008e 1A60     		str	r2, [r3]
 517:Generated_Source\PSoC4/cyfitter_cfg.c **** 
 220              		.loc 1 517 0
 221 0090 6C4B     		ldr	r3, .L13+56
 523:Generated_Source\PSoC4/cyfitter_cfg.c **** 
 222              		.loc 1 523 0
 223 0092 6D4A     		ldr	r2, .L13+60
 517:Generated_Source\PSoC4/cyfitter_cfg.c **** 
 224              		.loc 1 517 0
 225 0094 1D60     		str	r5, [r3]
 520:Generated_Source\PSoC4/cyfitter_cfg.c **** 
 226              		.loc 1 520 0
ARM GAS  C:\Users\Petro\AppData\Local\Temp\ccyg7qaW.s 			page 15


 227 0096 6D4B     		ldr	r3, .L13+64
 228 0098 1D60     		str	r5, [r3]
 523:Generated_Source\PSoC4/cyfitter_cfg.c **** 
 229              		.loc 1 523 0
 230 009a 1378     		ldrb	r3, [r2]
 231 009c 2B43     		orr	r3, r5
 232 009e 1370     		strb	r3, [r2]
 526:Generated_Source\PSoC4/cyfitter_cfg.c **** 		CY_SET_XTND_REG8((void *)CYREG_UDB_UDBIF_BANK_CTL, (uint8)(CY_GET_XTND_REG8((void *)CYREG_UDB_UDB
 233              		.loc 1 526 0
 234 00a0 0B78     		ldrb	r3, [r1]
 235 00a2 8343     		bic	r3, r0
 236 00a4 2838     		sub	r0, r0, #40
 237 00a6 0343     		orr	r3, r0
 238 00a8 0B70     		strb	r3, [r1]
 527:Generated_Source\PSoC4/cyfitter_cfg.c **** 	}
 239              		.loc 1 527 0
 240 00aa 1621     		mov	r1, #22
 241 00ac 1378     		ldrb	r3, [r2]
 242 00ae 0B43     		orr	r3, r1
 243 00b0 1370     		strb	r3, [r2]
 244              	.LBE25:
 532:Generated_Source\PSoC4/cyfitter_cfg.c **** 	CY_SET_XTND_REG32((void CYFAR *)(CYREG_GPIO_PRT0_PC), 0x00DB1DA4u);
 245              		.loc 1 532 0
 246 00b2 2323     		mov	r3, #35
 247 00b4 664A     		ldr	r2, .L13+68
 533:Generated_Source\PSoC4/cyfitter_cfg.c **** 	CY_SET_XTND_REG32((void CYFAR *)(CYREG_GPIO_PRT0_PC2), 0x00000020u);
 248              		.loc 1 533 0
 249 00b6 6749     		ldr	r1, .L13+72
 532:Generated_Source\PSoC4/cyfitter_cfg.c **** 	CY_SET_XTND_REG32((void CYFAR *)(CYREG_GPIO_PRT0_PC), 0x00DB1DA4u);
 250              		.loc 1 532 0
 251 00b8 1360     		str	r3, [r2]
 533:Generated_Source\PSoC4/cyfitter_cfg.c **** 	CY_SET_XTND_REG32((void CYFAR *)(CYREG_GPIO_PRT0_PC2), 0x00000020u);
 252              		.loc 1 533 0
 253 00ba 674A     		ldr	r2, .L13+76
 254 00bc 1160     		str	r1, [r2]
 534:Generated_Source\PSoC4/cyfitter_cfg.c **** 
 255              		.loc 1 534 0
 256 00be 2021     		mov	r1, #32
 257 00c0 664A     		ldr	r2, .L13+80
 258 00c2 1160     		str	r1, [r2]
 537:Generated_Source\PSoC4/cyfitter_cfg.c **** 	CY_SET_XTND_REG32((void CYFAR *)(CYREG_GPIO_PRT1_PC), 0x009B6006u);
 259              		.loc 1 537 0
 260 00c4 664A     		ldr	r2, .L13+84
 261 00c6 7031     		add	r1, r1, #112
 262 00c8 1160     		str	r1, [r2]
 538:Generated_Source\PSoC4/cyfitter_cfg.c **** 
 263              		.loc 1 538 0
 264 00ca 6649     		ldr	r1, .L13+88
 265 00cc 664A     		ldr	r2, .L13+92
 266 00ce 1160     		str	r1, [r2]
 541:Generated_Source\PSoC4/cyfitter_cfg.c **** 	CY_SET_XTND_REG32((void CYFAR *)(CYREG_GPIO_PRT2_PC), 0x00036192u);
 267              		.loc 1 541 0
 268 00d0 664A     		ldr	r2, .L13+96
 269 00d2 1360     		str	r3, [r2]
 542:Generated_Source\PSoC4/cyfitter_cfg.c **** 
 270              		.loc 1 542 0
 271 00d4 664A     		ldr	r2, .L13+100
ARM GAS  C:\Users\Petro\AppData\Local\Temp\ccyg7qaW.s 			page 16


 272 00d6 674B     		ldr	r3, .L13+104
 273 00d8 1A60     		str	r2, [r3]
 545:Generated_Source\PSoC4/cyfitter_cfg.c **** 	CY_SET_XTND_REG32((void CYFAR *)(CYREG_GPIO_PRT3_PC), 0x00036C90u);
 274              		.loc 1 545 0
 275 00da 0F22     		mov	r2, #15
 276 00dc 664B     		ldr	r3, .L13+108
 277 00de 1A60     		str	r2, [r3]
 546:Generated_Source\PSoC4/cyfitter_cfg.c **** 	CY_SET_XTND_REG32((void CYFAR *)(CYREG_GPIO_PRT3_PC2), 0x00000001u);
 278              		.loc 1 546 0
 279 00e0 664A     		ldr	r2, .L13+112
 280 00e2 674B     		ldr	r3, .L13+116
 281 00e4 1A60     		str	r2, [r3]
 282              	.LBB26:
 283              	.LBB27:
 203:Generated_Source\PSoC4/cyfitter_cfg.c **** 
 284              		.loc 1 203 0
 285 00e6 1222     		mov	r2, #18
 286              	.LBE27:
 287              	.LBE26:
 288              		.loc 1 547 0
 289 00e8 664B     		ldr	r3, .L13+120
 290 00ea 1E60     		str	r6, [r3]
 291              	.LBB29:
 292              	.LBB28:
 203:Generated_Source\PSoC4/cyfitter_cfg.c **** 
 293              		.loc 1 203 0
 294 00ec 664B     		ldr	r3, .L13+124
 295 00ee 1A60     		str	r2, [r3]
 206:Generated_Source\PSoC4/cyfitter_cfg.c **** 	CyDelayCycles(12000000u); /* WCO may take up to 500ms to start */
 296              		.loc 1 206 0
 297 00f0 FFF7FEFF 		bl	CySysClkWcoStart
 298              	.LVL18:
 207:Generated_Source\PSoC4/cyfitter_cfg.c **** 	(void)CySysClkWcoSetPowerMode(CY_SYS_CLK_WCO_LPM);    /* Switch to the low power mode */
 299              		.loc 1 207 0
 300 00f4 6548     		ldr	r0, .L13+128
 301 00f6 FFF7FEFF 		bl	CyDelayCycles
 302              	.LVL19:
 208:Generated_Source\PSoC4/cyfitter_cfg.c **** 
 303              		.loc 1 208 0
 304 00fa 301C     		mov	r0, r6
 305 00fc FFF7FEFF 		bl	CySysClkWcoSetPowerMode
 306              	.LVL20:
 211:Generated_Source\PSoC4/cyfitter_cfg.c **** 	/* CYDEV_WDT_CONFIG Starting address: CYDEV_WDT_CONFIG */
 307              		.loc 1 211 0
 308 0100 3020     		mov	r0, #48
 309 0102 FFF7FEFF 		bl	CySysClkWriteImoFreq
 310              	.LVL21:
 213:Generated_Source\PSoC4/cyfitter_cfg.c **** 
 311              		.loc 1 213 0
 312 0106 8023     		mov	r3, #128
 313 0108 614E     		ldr	r6, .L13+132
 217:Generated_Source\PSoC4/cyfitter_cfg.c **** 	CY_SET_XTND_REG32((void CYFAR *)(CYREG_BLE_BLERD_BB_XO_CAPTRIM), 0x00003E2Du);
 314              		.loc 1 217 0
 315 010a 624A     		ldr	r2, .L13+136
 213:Generated_Source\PSoC4/cyfitter_cfg.c **** 
 316              		.loc 1 213 0
 317 010c DB05     		lsl	r3, r3, #23
ARM GAS  C:\Users\Petro\AppData\Local\Temp\ccyg7qaW.s 			page 17


 318 010e 3360     		str	r3, [r6]
 217:Generated_Source\PSoC4/cyfitter_cfg.c **** 	CY_SET_XTND_REG32((void CYFAR *)(CYREG_BLE_BLERD_BB_XO_CAPTRIM), 0x00003E2Du);
 319              		.loc 1 217 0
 320 0110 1368     		ldr	r3, [r2]
 224:Generated_Source\PSoC4/cyfitter_cfg.c **** 	CyDelayUs(1500u); /* Wait to stabalize */
 321              		.loc 1 224 0
 322 0112 FA20     		mov	r0, #250
 217:Generated_Source\PSoC4/cyfitter_cfg.c **** 	CY_SET_XTND_REG32((void CYFAR *)(CYREG_BLE_BLERD_BB_XO_CAPTRIM), 0x00003E2Du);
 323              		.loc 1 217 0
 324 0114 1D43     		orr	r5, r3
 325 0116 1560     		str	r5, [r2]
 218:Generated_Source\PSoC4/cyfitter_cfg.c **** 	/*Set XTAL(ECO) divider*/
 326              		.loc 1 218 0
 327 0118 5F4B     		ldr	r3, .L13+140
 328 011a 604A     		ldr	r2, .L13+144
 222:Generated_Source\PSoC4/cyfitter_cfg.c **** 	/* Start the ECO and do not check status since it is not needed for HFCLK */
 329              		.loc 1 222 0
 330 011c 0825     		mov	r5, #8
 218:Generated_Source\PSoC4/cyfitter_cfg.c **** 	/*Set XTAL(ECO) divider*/
 331              		.loc 1 218 0
 332 011e 1A60     		str	r2, [r3]
 220:Generated_Source\PSoC4/cyfitter_cfg.c **** 	/* Disable Crystal Stable Interrupt before enabling ECO */
 333              		.loc 1 220 0
 334 0120 0022     		mov	r2, #0
 335 0122 5F4B     		ldr	r3, .L13+148
 224:Generated_Source\PSoC4/cyfitter_cfg.c **** 	CyDelayUs(1500u); /* Wait to stabalize */
 336              		.loc 1 224 0
 337 0124 C000     		lsl	r0, r0, #3
 220:Generated_Source\PSoC4/cyfitter_cfg.c **** 	/* Disable Crystal Stable Interrupt before enabling ECO */
 338              		.loc 1 220 0
 339 0126 1A60     		str	r2, [r3]
 222:Generated_Source\PSoC4/cyfitter_cfg.c **** 	/* Start the ECO and do not check status since it is not needed for HFCLK */
 340              		.loc 1 222 0
 341 0128 2368     		ldr	r3, [r4]
 342 012a AB43     		bic	r3, r5
 343 012c 2360     		str	r3, [r4]
 224:Generated_Source\PSoC4/cyfitter_cfg.c **** 	CyDelayUs(1500u); /* Wait to stabalize */
 344              		.loc 1 224 0
 345 012e FFF7FEFF 		bl	CySysClkEcoStart
 346              	.LVL22:
 225:Generated_Source\PSoC4/cyfitter_cfg.c **** 
 347              		.loc 1 225 0
 348 0132 5C48     		ldr	r0, .L13+152
 349 0134 FFF7FEFF 		bl	CyDelayUs
 350              	.LVL23:
 230:Generated_Source\PSoC4/cyfitter_cfg.c **** 	CY_SET_REG32((void *)CYREG_PERI_DIV_CMD, 0x8000FF42u);
 351              		.loc 1 230 0
 352 0138 B720     		mov	r0, #183
 228:Generated_Source\PSoC4/cyfitter_cfg.c **** 	CY_SET_REG32((void *)CYREG_PERI_DIV_CMD, 0x8000FF46u);
 353              		.loc 1 228 0
 354 013a 5B4A     		ldr	r2, .L13+156
 355 013c 5B4B     		ldr	r3, .L13+160
 229:Generated_Source\PSoC4/cyfitter_cfg.c **** 	CY_SET_REG32((void *)CYREG_PERI_DIV_16_CTL2, 0x0005B800u);
 356              		.loc 1 229 0
 357 013e 5C49     		ldr	r1, .L13+164
 228:Generated_Source\PSoC4/cyfitter_cfg.c **** 	CY_SET_REG32((void *)CYREG_PERI_DIV_CMD, 0x8000FF46u);
 358              		.loc 1 228 0
ARM GAS  C:\Users\Petro\AppData\Local\Temp\ccyg7qaW.s 			page 18


 359 0140 1A60     		str	r2, [r3]
 229:Generated_Source\PSoC4/cyfitter_cfg.c **** 	CY_SET_REG32((void *)CYREG_PERI_DIV_16_CTL2, 0x0005B800u);
 360              		.loc 1 229 0
 361 0142 5C4B     		ldr	r3, .L13+168
 230:Generated_Source\PSoC4/cyfitter_cfg.c **** 	CY_SET_REG32((void *)CYREG_PERI_DIV_CMD, 0x8000FF42u);
 362              		.loc 1 230 0
 363 0144 C002     		lsl	r0, r0, #11
 229:Generated_Source\PSoC4/cyfitter_cfg.c **** 	CY_SET_REG32((void *)CYREG_PERI_DIV_16_CTL2, 0x0005B800u);
 364              		.loc 1 229 0
 365 0146 1960     		str	r1, [r3]
 230:Generated_Source\PSoC4/cyfitter_cfg.c **** 	CY_SET_REG32((void *)CYREG_PERI_DIV_CMD, 0x8000FF42u);
 366              		.loc 1 230 0
 367 0148 5B49     		ldr	r1, .L13+172
 368 014a 0860     		str	r0, [r1]
 231:Generated_Source\PSoC4/cyfitter_cfg.c **** 	CY_SET_REG32((void *)CYREG_PERI_DIV_16_CTL5, 0x00BB7F00u);
 369              		.loc 1 231 0
 370 014c 5B49     		ldr	r1, .L13+176
 270:Generated_Source\PSoC4/cyfitter_cfg.c **** 	CyIntEnable(8u);
 371              		.loc 1 270 0
 372 014e 281C     		mov	r0, r5
 231:Generated_Source\PSoC4/cyfitter_cfg.c **** 	CY_SET_REG32((void *)CYREG_PERI_DIV_16_CTL5, 0x00BB7F00u);
 373              		.loc 1 231 0
 374 0150 1960     		str	r1, [r3]
 232:Generated_Source\PSoC4/cyfitter_cfg.c **** 	CY_SET_REG32((void *)CYREG_PERI_DIV_CMD, 0x8000FF45u);
 375              		.loc 1 232 0
 376 0152 5B49     		ldr	r1, .L13+180
 377 0154 0A60     		str	r2, [r1]
 233:Generated_Source\PSoC4/cyfitter_cfg.c **** 	CY_SET_REG32((void *)CYREG_PERI_DIV_16_CTL4, 0x0012BF00u);
 378              		.loc 1 233 0
 379 0156 5B4A     		ldr	r2, .L13+184
 234:Generated_Source\PSoC4/cyfitter_cfg.c **** 	CY_SET_REG32((void *)CYREG_PERI_DIV_CMD, 0x8000FF44u);
 380              		.loc 1 234 0
 381 0158 5B49     		ldr	r1, .L13+188
 233:Generated_Source\PSoC4/cyfitter_cfg.c **** 	CY_SET_REG32((void *)CYREG_PERI_DIV_16_CTL4, 0x0012BF00u);
 382              		.loc 1 233 0
 383 015a 1A60     		str	r2, [r3]
 234:Generated_Source\PSoC4/cyfitter_cfg.c **** 	CY_SET_REG32((void *)CYREG_PERI_DIV_CMD, 0x8000FF44u);
 384              		.loc 1 234 0
 385 015c 5B4A     		ldr	r2, .L13+192
 386 015e 1160     		str	r1, [r2]
 236:Generated_Source\PSoC4/cyfitter_cfg.c **** 	CY_SET_REG32((void *)CYREG_PERI_DIV_CMD, 0x8000FF40u);
 387              		.loc 1 236 0
 388 0160 F021     		mov	r1, #240
 235:Generated_Source\PSoC4/cyfitter_cfg.c **** 	CY_SET_REG32((void *)CYREG_PERI_DIV_16_CTL0, 0x00000F00u);
 389              		.loc 1 235 0
 390 0162 5B4A     		ldr	r2, .L13+196
 236:Generated_Source\PSoC4/cyfitter_cfg.c **** 	CY_SET_REG32((void *)CYREG_PERI_DIV_CMD, 0x8000FF40u);
 391              		.loc 1 236 0
 392 0164 0901     		lsl	r1, r1, #4
 235:Generated_Source\PSoC4/cyfitter_cfg.c **** 	CY_SET_REG32((void *)CYREG_PERI_DIV_16_CTL0, 0x00000F00u);
 393              		.loc 1 235 0
 394 0166 1A60     		str	r2, [r3]
 236:Generated_Source\PSoC4/cyfitter_cfg.c **** 	CY_SET_REG32((void *)CYREG_PERI_DIV_CMD, 0x8000FF40u);
 395              		.loc 1 236 0
 396 0168 5A4A     		ldr	r2, .L13+200
 397 016a 1160     		str	r1, [r2]
 238:Generated_Source\PSoC4/cyfitter_cfg.c **** 	CY_SET_REG32((void *)CYREG_PERI_DIV_CMD, 0x8000FF41u);
ARM GAS  C:\Users\Petro\AppData\Local\Temp\ccyg7qaW.s 			page 19


 398              		.loc 1 238 0
 399 016c E821     		mov	r1, #232
 237:Generated_Source\PSoC4/cyfitter_cfg.c **** 	CY_SET_REG32((void *)CYREG_PERI_DIV_16_CTL1, 0x00001D00u);
 400              		.loc 1 237 0
 401 016e 5A4A     		ldr	r2, .L13+204
 238:Generated_Source\PSoC4/cyfitter_cfg.c **** 	CY_SET_REG32((void *)CYREG_PERI_DIV_CMD, 0x8000FF41u);
 402              		.loc 1 238 0
 403 0170 4901     		lsl	r1, r1, #5
 237:Generated_Source\PSoC4/cyfitter_cfg.c **** 	CY_SET_REG32((void *)CYREG_PERI_DIV_16_CTL1, 0x00001D00u);
 404              		.loc 1 237 0
 405 0172 1A60     		str	r2, [r3]
 238:Generated_Source\PSoC4/cyfitter_cfg.c **** 	CY_SET_REG32((void *)CYREG_PERI_DIV_CMD, 0x8000FF41u);
 406              		.loc 1 238 0
 407 0174 594A     		ldr	r2, .L13+208
 408 0176 1160     		str	r1, [r2]
 239:Generated_Source\PSoC4/cyfitter_cfg.c **** 	CY_SET_REG32((void *)CYREG_PERI_DIV_16_CTL3, 0x00068200u);
 409              		.loc 1 239 0
 410 0178 594A     		ldr	r2, .L13+212
 240:Generated_Source\PSoC4/cyfitter_cfg.c **** 	CY_SET_REG32((void *)CYREG_PERI_DIV_CMD, 0x8000FF43u);
 411              		.loc 1 240 0
 412 017a 5A49     		ldr	r1, .L13+216
 239:Generated_Source\PSoC4/cyfitter_cfg.c **** 	CY_SET_REG32((void *)CYREG_PERI_DIV_16_CTL3, 0x00068200u);
 413              		.loc 1 239 0
 414 017c 1A60     		str	r2, [r3]
 240:Generated_Source\PSoC4/cyfitter_cfg.c **** 	CY_SET_REG32((void *)CYREG_PERI_DIV_CMD, 0x8000FF43u);
 415              		.loc 1 240 0
 416 017e 5A4A     		ldr	r2, .L13+220
 417 0180 1160     		str	r1, [r2]
 241:Generated_Source\PSoC4/cyfitter_cfg.c **** 
 418              		.loc 1 241 0
 419 0182 5A4A     		ldr	r2, .L13+224
 270:Generated_Source\PSoC4/cyfitter_cfg.c **** 	CyIntEnable(8u);
 420              		.loc 1 270 0
 421 0184 5A49     		ldr	r1, .L13+228
 241:Generated_Source\PSoC4/cyfitter_cfg.c **** 
 422              		.loc 1 241 0
 423 0186 1A60     		str	r2, [r3]
 244:Generated_Source\PSoC4/cyfitter_cfg.c **** 
 424              		.loc 1 244 0
 425 0188 8222     		mov	r2, #130
 426 018a 5A4B     		ldr	r3, .L13+232
 427 018c 1206     		lsl	r2, r2, #24
 428 018e 1A60     		str	r2, [r3]
 247:Generated_Source\PSoC4/cyfitter_cfg.c **** 
 429              		.loc 1 247 0
 430 0190 8022     		mov	r2, #128
 431 0192 594B     		ldr	r3, .L13+236
 432 0194 D202     		lsl	r2, r2, #11
 433 0196 1A60     		str	r2, [r3]
 250:Generated_Source\PSoC4/cyfitter_cfg.c **** 
 434              		.loc 1 250 0
 435 0198 4622     		mov	r2, #70
 436 019a 584B     		ldr	r3, .L13+240
 437 019c 1A60     		str	r2, [r3]
 253:Generated_Source\PSoC4/cyfitter_cfg.c **** 
 438              		.loc 1 253 0
 439 019e 584B     		ldr	r3, .L13+244
ARM GAS  C:\Users\Petro\AppData\Local\Temp\ccyg7qaW.s 			page 20


 440 01a0 043A     		sub	r2, r2, #4
 441 01a2 1A60     		str	r2, [r3]
 256:Generated_Source\PSoC4/cyfitter_cfg.c **** 
 442              		.loc 1 256 0
 443 01a4 574B     		ldr	r3, .L13+248
 444 01a6 0332     		add	r2, r2, #3
 445 01a8 1A60     		str	r2, [r3]
 259:Generated_Source\PSoC4/cyfitter_cfg.c **** 
 446              		.loc 1 259 0
 447 01aa 574B     		ldr	r3, .L13+252
 448 01ac 013A     		sub	r2, r2, #1
 449 01ae 1A60     		str	r2, [r3]
 262:Generated_Source\PSoC4/cyfitter_cfg.c **** 
 450              		.loc 1 262 0
 451 01b0 564B     		ldr	r3, .L13+256
 452 01b2 043A     		sub	r2, r2, #4
 453 01b4 1A60     		str	r2, [r3]
 265:Generated_Source\PSoC4/cyfitter_cfg.c **** 
 454              		.loc 1 265 0
 455 01b6 564B     		ldr	r3, .L13+260
 456 01b8 0132     		add	r2, r2, #1
 457 01ba 1A60     		str	r2, [r3]
 268:Generated_Source\PSoC4/cyfitter_cfg.c **** 
 458              		.loc 1 268 0
 459 01bc 554B     		ldr	r3, .L13+264
 460 01be 0232     		add	r2, r2, #2
 461 01c0 1A60     		str	r2, [r3]
 270:Generated_Source\PSoC4/cyfitter_cfg.c **** 	CyIntEnable(8u);
 462              		.loc 1 270 0
 463 01c2 FFF7FEFF 		bl	CyIntSetVector
 464              	.LVL24:
 271:Generated_Source\PSoC4/cyfitter_cfg.c **** 	CY_SET_XTND_REG32((void CYFAR *)(CYREG_WDT_MATCH), 0xFFFF0020u);
 465              		.loc 1 271 0
 466 01c6 281C     		mov	r0, r5
 467 01c8 FFF7FEFF 		bl	CyIntEnable
 468              	.LVL25:
 272:Generated_Source\PSoC4/cyfitter_cfg.c **** 	CY_SET_XTND_REG32((void CYFAR *)(CYREG_WDT_CONFIG), 0x40000505u);
 469              		.loc 1 272 0
 470 01cc 524A     		ldr	r2, .L13+268
 471 01ce 534B     		ldr	r3, .L13+272
 472 01d0 1A60     		str	r2, [r3]
 273:Generated_Source\PSoC4/cyfitter_cfg.c **** 	CY_SET_XTND_REG32((void CYFAR *)(CYREG_WDT_CONTROL), 0x00000808u);
 473              		.loc 1 273 0
 474 01d2 534B     		ldr	r3, .L13+276
 274:Generated_Source\PSoC4/cyfitter_cfg.c **** 	while ((CY_GET_XTND_REG32((void CYFAR *)(CYREG_WDT_CONTROL)) & 0x00000808u) != 0u) { }
 475              		.loc 1 274 0
 476 01d4 534A     		ldr	r2, .L13+280
 273:Generated_Source\PSoC4/cyfitter_cfg.c **** 	CY_SET_XTND_REG32((void CYFAR *)(CYREG_WDT_CONTROL), 0x00000808u);
 477              		.loc 1 273 0
 478 01d6 3360     		str	r3, [r6]
 274:Generated_Source\PSoC4/cyfitter_cfg.c **** 	while ((CY_GET_XTND_REG32((void CYFAR *)(CYREG_WDT_CONTROL)) & 0x00000808u) != 0u) { }
 479              		.loc 1 274 0
 480 01d8 534B     		ldr	r3, .L13+284
 481 01da 1360     		str	r3, [r2]
 482              	.L11:
 275:Generated_Source\PSoC4/cyfitter_cfg.c **** 	CY_SET_XTND_REG32((void CYFAR *)(CYREG_WDT_CONTROL), 0x00000101u);
 483              		.loc 1 275 0
ARM GAS  C:\Users\Petro\AppData\Local\Temp\ccyg7qaW.s 			page 21


 484 01dc 1168     		ldr	r1, [r2]
 485 01de 1940     		and	r1, r3
 486 01e0 FCD1     		bne	.L11
 276:Generated_Source\PSoC4/cyfitter_cfg.c **** }
 487              		.loc 1 276 0
 488 01e2 0222     		mov	r2, #2
 489 01e4 4F4B     		ldr	r3, .L13+280
 490 01e6 FF32     		add	r2, r2, #255
 491 01e8 1A60     		str	r2, [r3]
 492              	.LBE28:
 493              	.LBE29:
 494              	.LBB30:
 495              	.LBB31:
 301:Generated_Source\PSoC4/cyfitter_cfg.c **** 	CY_SET_XTND_REG32((void CYFAR *)CYREG_CTBM1_DFT_CTRL, 0x00000003u);
 496              		.loc 1 301 0
 497 01ea 0323     		mov	r3, #3
 498 01ec 4F4A     		ldr	r2, .L13+288
 304:Generated_Source\PSoC4/cyfitter_cfg.c **** 	CY_SET_XTND_REG32((void CYFAR *)CYREG_PASS_DSAB_DSAB_CTRL, 0x00000000u);
 499              		.loc 1 304 0
 500 01ee 0120     		mov	r0, #1
 301:Generated_Source\PSoC4/cyfitter_cfg.c **** 	CY_SET_XTND_REG32((void CYFAR *)CYREG_CTBM1_DFT_CTRL, 0x00000003u);
 501              		.loc 1 301 0
 502 01f0 1360     		str	r3, [r2]
 302:Generated_Source\PSoC4/cyfitter_cfg.c **** 	CY_SET_XTND_REG32((void CYFAR *)CYREG_SAR_CTRL, 0x80000000u);
 503              		.loc 1 302 0
 504 01f2 4F4A     		ldr	r2, .L13+292
 505              	.LBE31:
 506              	.LBE30:
 548:Generated_Source\PSoC4/cyfitter_cfg.c **** 
 549:Generated_Source\PSoC4/cyfitter_cfg.c **** 
 550:Generated_Source\PSoC4/cyfitter_cfg.c **** 	/* Setup clocks based on selections from Clock DWR */
 551:Generated_Source\PSoC4/cyfitter_cfg.c **** 	ClockSetup();
 552:Generated_Source\PSoC4/cyfitter_cfg.c **** 
 553:Generated_Source\PSoC4/cyfitter_cfg.c **** 	/* Perform basic analog initialization to defaults */
 554:Generated_Source\PSoC4/cyfitter_cfg.c **** 	AnalogSetDefault();
 555:Generated_Source\PSoC4/cyfitter_cfg.c **** 
 556:Generated_Source\PSoC4/cyfitter_cfg.c **** }
 507              		.loc 1 556 0
 508              		@ sp needed
 509              	.LBB33:
 510              	.LBB32:
 302:Generated_Source\PSoC4/cyfitter_cfg.c **** 	CY_SET_XTND_REG32((void CYFAR *)CYREG_SAR_CTRL, 0x80000000u);
 511              		.loc 1 302 0
 512 01f4 1360     		str	r3, [r2]
 303:Generated_Source\PSoC4/cyfitter_cfg.c **** 	CY_SET_XTND_REG32((void CYFAR *)CYREG_SAR_MUX_SWITCH0, 0x00000001u);
 513              		.loc 1 303 0
 514 01f6 8022     		mov	r2, #128
 515 01f8 4E4B     		ldr	r3, .L13+296
 516 01fa 1206     		lsl	r2, r2, #24
 517 01fc 1A60     		str	r2, [r3]
 304:Generated_Source\PSoC4/cyfitter_cfg.c **** 	CY_SET_XTND_REG32((void CYFAR *)CYREG_PASS_DSAB_DSAB_CTRL, 0x00000000u);
 518              		.loc 1 304 0
 519 01fe 4E4B     		ldr	r3, .L13+300
 520 0200 1860     		str	r0, [r3]
 305:Generated_Source\PSoC4/cyfitter_cfg.c **** 	SetAnalogRoutingPumps(1);
 521              		.loc 1 305 0
 522 0202 4E4B     		ldr	r3, .L13+304
ARM GAS  C:\Users\Petro\AppData\Local\Temp\ccyg7qaW.s 			page 22


 523 0204 1960     		str	r1, [r3]
 306:Generated_Source\PSoC4/cyfitter_cfg.c **** }
 524              		.loc 1 306 0
 525 0206 FFF7FEFF 		bl	SetAnalogRoutingPumps
 526              	.LVL26:
 527              	.LBE32:
 528              	.LBE33:
 529              		.loc 1 556 0
 530 020a F8BD     		pop	{r3, r4, r5, r6, r7, pc}
 531              	.L14:
 532              		.align	2
 533              	.L13:
 534 020c 1C700F40 		.word	1074753564
 535 0210 6CF02E40 		.word	1076818028
 536 0214 00300F40 		.word	1074737152
 537 0218 00400F40 		.word	1074741248
 538 021c 00000000 		.word	.LANCHOR0
 539 0220 EE0099EE 		.word	-291962642
 540 0224 00000240 		.word	1073872896
 541 0228 00030240 		.word	1073873664
 542 022c 00500F40 		.word	1074745344
 543 0230 10500F40 		.word	1074745360
 544 0234 20500F40 		.word	1074745376
 545 0238 01700F40 		.word	1074753537
 546 023c 30500F40 		.word	1074745392
 547 0240 38500F40 		.word	1074745400
 548 0244 20001040 		.word	1074790432
 549 0248 00700F40 		.word	1074753536
 550 024c 00800F40 		.word	1074757632
 551 0250 00000440 		.word	1074003968
 552 0254 A41DDB00 		.word	14359972
 553 0258 08000440 		.word	1074003976
 554 025c 18000440 		.word	1074003992
 555 0260 00010440 		.word	1074004224
 556 0264 06609B00 		.word	10182662
 557 0268 08010440 		.word	1074004232
 558 026c 00020440 		.word	1074004480
 559 0270 92610300 		.word	221586
 560 0274 08020440 		.word	1074004488
 561 0278 00030440 		.word	1074004736
 562 027c 906C0300 		.word	224400
 563 0280 08030440 		.word	1074004744
 564 0284 18030440 		.word	1074004760
 565 0288 30001040 		.word	1074790448
 566 028c 001BB700 		.word	12000000
 567 0290 0C020B40 		.word	1074463244
 568 0294 78002E40 		.word	1076756600
 569 0298 7C002E40 		.word	1076756604
 570 029c 2D3E0000 		.word	15917
 571 02a0 64F02E40 		.word	1076818020
 572 02a4 DC050000 		.word	1500
 573 02a8 007FBB00 		.word	12287744
 574 02ac 18030140 		.word	1073808152
 575 02b0 46FF0080 		.word	-2147418298
 576 02b4 00000140 		.word	1073807360
 577 02b8 08030140 		.word	1073808136
 578 02bc 42FF0080 		.word	-2147418302
ARM GAS  C:\Users\Petro\AppData\Local\Temp\ccyg7qaW.s 			page 23


 579 02c0 14030140 		.word	1073808148
 580 02c4 45FF0080 		.word	-2147418299
 581 02c8 00BF1200 		.word	1228544
 582 02cc 10030140 		.word	1073808144
 583 02d0 44FF0080 		.word	-2147418300
 584 02d4 00030140 		.word	1073808128
 585 02d8 40FF0080 		.word	-2147418304
 586 02dc 04030140 		.word	1073808132
 587 02e0 41FF0080 		.word	-2147418303
 588 02e4 00820600 		.word	426496
 589 02e8 0C030140 		.word	1073808140
 590 02ec 43FF0080 		.word	-2147418301
 591 02f0 00000000 		.word	CySysWdtIsr
 592 02f4 08010B40 		.word	1074462984
 593 02f8 00010B40 		.word	1074462976
 594 02fc 2C010140 		.word	1073807660
 595 0300 24010140 		.word	1073807652
 596 0304 20010140 		.word	1073807648
 597 0308 1C010140 		.word	1073807644
 598 030c 18010140 		.word	1073807640
 599 0310 08010140 		.word	1073807624
 600 0314 04010140 		.word	1073807620
 601 0318 2000FFFF 		.word	-65504
 602 031c 08020B40 		.word	1074463240
 603 0320 05050040 		.word	1073743109
 604 0324 10020B40 		.word	1074463248
 605 0328 08080000 		.word	2056
 606 032c 30003040 		.word	1076887600
 607 0330 30003140 		.word	1076953136
 608 0334 00003A40 		.word	1077542912
 609 0338 00033A40 		.word	1077543680
 610 033c 000E3F40 		.word	1077874176
 611              		.cfi_endproc
 612              	.LFE9:
 613              		.size	cyfitter_cfg, .-cyfitter_cfg
 614              		.section	.rodata
 615              		.align	2
 616              		.set	.LANCHOR0,. + 0
 617              		.type	cy_cfg_addr_table.4784, %object
 618              		.size	cy_cfg_addr_table.4784, 24
 619              	cy_cfg_addr_table.4784:
 620 0000 01000F40 		.word	1074724865
 621 0004 2C320F40 		.word	1074737708
 622 0008 23330F40 		.word	1074737955
 623 000c 04410F40 		.word	1074741508
 624 0010 07430F40 		.word	1074742023
 625 0014 02600F40 		.word	1074749442
 626              		.type	cy_cfg_data_table.4785, %object
 627              		.size	cy_cfg_data_table.4785, 186
 628              	cy_cfg_data_table.4785:
 629 0018 83       		.byte	-125
 630 0019 0D       		.byte	13
 631 001a 8B       		.byte	-117
 632 001b 02       		.byte	2
 633 001c 8C       		.byte	-116
 634 001d 01       		.byte	1
 635 001e 8F       		.byte	-113
ARM GAS  C:\Users\Petro\AppData\Local\Temp\ccyg7qaW.s 			page 24


 636 001f 01       		.byte	1
 637 0020 91       		.byte	-111
 638 0021 04       		.byte	4
 639 0022 94       		.byte	-108
 640 0023 08       		.byte	8
 641 0024 9A       		.byte	-102
 642 0025 04       		.byte	4
 643 0026 A3       		.byte	-93
 644 0027 02       		.byte	2
 645 0028 A6       		.byte	-90
 646 0029 07       		.byte	7
 647 002a B0       		.byte	-80
 648 002b 02       		.byte	2
 649 002c B2       		.byte	-78
 650 002d 04       		.byte	4
 651 002e B3       		.byte	-77
 652 002f 02       		.byte	2
 653 0030 B4       		.byte	-76
 654 0031 08       		.byte	8
 655 0032 B5       		.byte	-75
 656 0033 01       		.byte	1
 657 0034 B6       		.byte	-74
 658 0035 01       		.byte	1
 659 0036 B7       		.byte	-73
 660 0037 04       		.byte	4
 661 0038 BE       		.byte	-66
 662 0039 10       		.byte	16
 663 003a BF       		.byte	-65
 664 003b 44       		.byte	68
 665 003c C0       		.byte	-64
 666 003d 20       		.byte	32
 667 003e C1       		.byte	-63
 668 003f 05       		.byte	5
 669 0040 C5       		.byte	-59
 670 0041 D1       		.byte	-47
 671 0042 C7       		.byte	-57
 672 0043 20       		.byte	32
 673 0044 C8       		.byte	-56
 674 0045 23       		.byte	35
 675 0046 C9       		.byte	-55
 676 0047 FF       		.byte	-1
 677 0048 CA       		.byte	-54
 678 0049 FF       		.byte	-1
 679 004a CB       		.byte	-53
 680 004b FF       		.byte	-1
 681 004c CD       		.byte	-51
 682 004d A0       		.byte	-96
 683 004e CF       		.byte	-49
 684 004f 04       		.byte	4
 685 0050 D0       		.byte	-48
 686 0051 18       		.byte	24
 687 0052 D2       		.byte	-46
 688 0053 80       		.byte	-128
 689 0054 D4       		.byte	-44
 690 0055 05       		.byte	5
 691 0056 D8       		.byte	-40
 692 0057 04       		.byte	4
ARM GAS  C:\Users\Petro\AppData\Local\Temp\ccyg7qaW.s 			page 25


 693 0058 D9       		.byte	-39
 694 0059 04       		.byte	4
 695 005a DA       		.byte	-38
 696 005b 04       		.byte	4
 697 005c DB       		.byte	-37
 698 005d 04       		.byte	4
 699 005e DF       		.byte	-33
 700 005f 01       		.byte	1
 701 0060 E0       		.byte	-32
 702 0061 40       		.byte	64
 703 0062 E2       		.byte	-30
 704 0063 C0       		.byte	-64
 705 0064 E4       		.byte	-28
 706 0065 40       		.byte	64
 707 0066 E5       		.byte	-27
 708 0067 40       		.byte	64
 709 0068 E6       		.byte	-26
 710 0069 C0       		.byte	-64
 711 006a E8       		.byte	-24
 712 006b C0       		.byte	-64
 713 006c EA       		.byte	-22
 714 006d C0       		.byte	-64
 715 006e EC       		.byte	-20
 716 006f C0       		.byte	-64
 717 0070 EE       		.byte	-18
 718 0071 C0       		.byte	-64
 719 0072 00       		.byte	0
 720 0073 40       		.byte	64
 721 0074 09       		.byte	9
 722 0075 20       		.byte	32
 723 0076 0A       		.byte	10
 724 0077 10       		.byte	16
 725 0078 10       		.byte	16
 726 0079 20       		.byte	32
 727 007a 18       		.byte	24
 728 007b 44       		.byte	68
 729 007c 19       		.byte	25
 730 007d 40       		.byte	64
 731 007e 1A       		.byte	26
 732 007f 10       		.byte	16
 733 0080 21       		.byte	33
 734 0081 30       		.byte	48
 735 0082 22       		.byte	34
 736 0083 04       		.byte	4
 737 0084 23       		.byte	35
 738 0085 01       		.byte	1
 739 0086 2A       		.byte	42
 740 0087 01       		.byte	1
 741 0088 33       		.byte	51
 742 0089 01       		.byte	1
 743 008a 39       		.byte	57
 744 008b 20       		.byte	32
 745 008c 3B       		.byte	59
 746 008d 40       		.byte	64
 747 008e 41       		.byte	65
 748 008f 10       		.byte	16
 749 0090 48       		.byte	72
ARM GAS  C:\Users\Petro\AppData\Local\Temp\ccyg7qaW.s 			page 26


 750 0091 22       		.byte	34
 751 0092 49       		.byte	73
 752 0093 01       		.byte	1
 753 0094 50       		.byte	80
 754 0095 02       		.byte	2
 755 0096 52       		.byte	82
 756 0097 01       		.byte	1
 757 0098 59       		.byte	89
 758 0099 41       		.byte	65
 759 009a 5A       		.byte	90
 760 009b 08       		.byte	8
 761 009c 73       		.byte	115
 762 009d 40       		.byte	64
 763 009e 83       		.byte	-125
 764 009f 01       		.byte	1
 765 00a0 87       		.byte	-121
 766 00a1 01       		.byte	1
 767 00a2 8C       		.byte	-116
 768 00a3 04       		.byte	4
 769 00a4 C0       		.byte	-64
 770 00a5 01       		.byte	1
 771 00a6 C2       		.byte	-62
 772 00a7 06       		.byte	6
 773 00a8 C4       		.byte	-60
 774 00a9 04       		.byte	4
 775 00aa CA       		.byte	-54
 776 00ab 01       		.byte	1
 777 00ac CC       		.byte	-52
 778 00ad 01       		.byte	1
 779 00ae CE       		.byte	-50
 780 00af 0C       		.byte	12
 781 00b0 D0       		.byte	-48
 782 00b1 04       		.byte	4
 783 00b2 D2       		.byte	-46
 784 00b3 08       		.byte	8
 785 00b4 D6       		.byte	-42
 786 00b5 0B       		.byte	11
 787 00b6 E2       		.byte	-30
 788 00b7 02       		.byte	2
 789 00b8 6C       		.byte	108
 790 00b9 20       		.byte	32
 791 00ba 80       		.byte	-128
 792 00bb 20       		.byte	32
 793 00bc DA       		.byte	-38
 794 00bd 80       		.byte	-128
 795 00be E2       		.byte	-30
 796 00bf 80       		.byte	-128
 797 00c0 07       		.byte	7
 798 00c1 80       		.byte	-128
 799 00c2 54       		.byte	84
 800 00c3 02       		.byte	2
 801 00c4 87       		.byte	-121
 802 00c5 80       		.byte	-128
 803 00c6 8C       		.byte	-116
 804 00c7 02       		.byte	2
 805 00c8 C0       		.byte	-64
 806 00c9 04       		.byte	4
ARM GAS  C:\Users\Petro\AppData\Local\Temp\ccyg7qaW.s 			page 27


 807 00ca D6       		.byte	-42
 808 00cb 04       		.byte	4
 809 00cc E4       		.byte	-28
 810 00cd 02       		.byte	2
 811 00ce 01       		.byte	1
 812 00cf 01       		.byte	1
 813 00d0 10       		.byte	16
 814 00d1 01       		.byte	1
 815 00d2 0000     		.text
 816              	.Letext0:
 817              		.file 2 "c:\\program files (x86)\\cypress\\psoc creator\\4.0\\psoc creator\\import\\gnu\\arm\\4.9.
 818              		.file 3 "Generated_Source\\PSoC4\\cytypes.h"
 819              		.file 4 "Generated_Source\\PSoC4\\CyLib.h"
 820              		.file 5 "Generated_Source\\PSoC4\\CyLFClk.h"