ARM GAS  C:\Users\Petro\AppData\Local\Temp\cc9STwA3.s 			page 1


   1              		.cpu cortex-m0
   2              		.fpu softvfp
   3              		.eabi_attribute 20, 1
   4              		.eabi_attribute 21, 1
   5              		.eabi_attribute 23, 3
   6              		.eabi_attribute 24, 1
   7              		.eabi_attribute 25, 1
   8              		.eabi_attribute 26, 1
   9              		.eabi_attribute 30, 4
  10              		.eabi_attribute 34, 0
  11              		.eabi_attribute 18, 4
  12              		.code	16
  13              		.file	"crc32.c"
  14              		.text
  15              	.Ltext0:
  16              		.cfi_sections	.debug_frame
  17              		.section	.text.crc32_update,"ax",%progbits
  18              		.align	1
  19              		.global	crc32_update
  20              		.code	16
  21              		.thumb_func
  22              		.type	crc32_update, %function
  23              	crc32_update:
  24              	.LFB0:
  25              		.file 1 "lib_Network\\crc32.c"
   1:lib_Network/crc32.c **** /* ========================================
   2:lib_Network/crc32.c ****  *
   3:lib_Network/crc32.c ****  * Copyright YOUR COMPANY, THE YEAR
   4:lib_Network/crc32.c ****  * All Rights Reserved
   5:lib_Network/crc32.c ****  * UNPUBLISHED, LICENSED SOFTWARE.
   6:lib_Network/crc32.c ****  *
   7:lib_Network/crc32.c ****  * CONFIDENTIAL AND PROPRIETARY INFORMATION
   8:lib_Network/crc32.c ****  * WHICH IS THE PROPERTY OF your company.
   9:lib_Network/crc32.c ****  *
  10:lib_Network/crc32.c ****  * ========================================
  11:lib_Network/crc32.c **** */
  12:lib_Network/crc32.c **** 
  13:lib_Network/crc32.c **** //#include "CommonPrototypes.h"
  14:lib_Network/crc32.c **** #include <stdint.h>
  15:lib_Network/crc32.c **** #include "crc32.h"
  16:lib_Network/crc32.c **** 
  17:lib_Network/crc32.c **** #define         CRC32_POLYNOM        0xEDB88320L
  18:lib_Network/crc32.c **** 
  19:lib_Network/crc32.c **** static int      crc32_tab_init       = 0;//= FALSE;
  20:lib_Network/crc32.c **** static uint32_t    crc32_tab[256];
  21:lib_Network/crc32.c **** 
  22:lib_Network/crc32.c **** static void     crc32_init_tab( void );
  23:lib_Network/crc32.c **** 
  24:lib_Network/crc32.c **** uint32_t crc32_update( uint32_t crc, uint8_t c ) {
  26              		.loc 1 24 0
  27              		.cfi_startproc
  28              	.LVL0:
  25:lib_Network/crc32.c **** 
  26:lib_Network/crc32.c ****     uint32_t tmp, long_c;
  27:lib_Network/crc32.c **** 
  28:lib_Network/crc32.c ****     long_c = 0x000000ffL & (unsigned long) c;
  29:lib_Network/crc32.c **** 
ARM GAS  C:\Users\Petro\AppData\Local\Temp\cc9STwA3.s 			page 2


  30:lib_Network/crc32.c ****     if ( ! crc32_tab_init ) crc32_init_tab();
  29              		.loc 1 30 0
  30 0000 114A     		ldr	r2, .L9
  24:lib_Network/crc32.c **** 
  31              		.loc 1 24 0
  32 0002 70B5     		push	{r4, r5, r6, lr}
  33              		.cfi_def_cfa_offset 16
  34              		.cfi_offset 4, -16
  35              		.cfi_offset 5, -12
  36              		.cfi_offset 6, -8
  37              		.cfi_offset 14, -4
  38              		.loc 1 30 0
  39 0004 1368     		ldr	r3, [r2]
  40 0006 002B     		cmp	r3, #0
  41 0008 15D1     		bne	.L2
  42              	.L6:
  43              	.LVL1:
  44              	.LBB4:
  45              	.LBB5:
  31:lib_Network/crc32.c **** 
  32:lib_Network/crc32.c ****     tmp = crc ^ long_c;
  33:lib_Network/crc32.c ****     crc = (crc >> 8) ^ crc32_tab[ tmp & 0xff ];
  34:lib_Network/crc32.c **** 
  35:lib_Network/crc32.c ****     return crc;
  36:lib_Network/crc32.c **** 
  37:lib_Network/crc32.c **** }
  38:lib_Network/crc32.c **** 
  39:lib_Network/crc32.c **** uint32_t crc32_calc_block(uint8_t *buf, uint32_t Size, uint32_t init)
  40:lib_Network/crc32.c **** {
  41:lib_Network/crc32.c **** 	uint32_t i;
  42:lib_Network/crc32.c **** 	uint32_t _crc = init;
  43:lib_Network/crc32.c **** 	for (i = 0; i < Size; i++)
  44:lib_Network/crc32.c **** 		_crc = crc32_update(_crc, buf[i]);
  45:lib_Network/crc32.c **** 
  46:lib_Network/crc32.c **** 	return _crc;
  47:lib_Network/crc32.c **** }
  48:lib_Network/crc32.c **** 
  49:lib_Network/crc32.c **** uint32_t crc32_calc(uint8_t *buf, uint32_t Size)
  50:lib_Network/crc32.c **** {
  51:lib_Network/crc32.c **** 	uint32_t _crc;
  52:lib_Network/crc32.c **** 
  53:lib_Network/crc32.c **** 	_crc = crc32_reset();
  54:lib_Network/crc32.c **** 	_crc = crc32_calc_block(buf, Size, _crc);
  55:lib_Network/crc32.c **** 	return crc32_final(_crc);
  56:lib_Network/crc32.c **** }
  57:lib_Network/crc32.c **** 
  58:lib_Network/crc32.c **** static void crc32_init_tab( void ) {
  59:lib_Network/crc32.c **** 
  60:lib_Network/crc32.c ****     int i, j;
  61:lib_Network/crc32.c ****     uint32_t crc;
  62:lib_Network/crc32.c **** 
  63:lib_Network/crc32.c ****     for (i=0; i<256; i++) {
  64:lib_Network/crc32.c **** 
  65:lib_Network/crc32.c ****         crc = (uint32_t) i;
  46              		.loc 1 65 0
  47 000a 1C1C     		mov	r4, r3
  48 000c 0825     		mov	r5, #8
ARM GAS  C:\Users\Petro\AppData\Local\Temp\cc9STwA3.s 			page 3


  49              	.LVL2:
  50              	.L5:
  66:lib_Network/crc32.c **** 
  67:lib_Network/crc32.c ****         for (j=0; j<8; j++) {
  68:lib_Network/crc32.c **** 
  69:lib_Network/crc32.c ****             if ( crc & 0x00000001L ) crc = ( crc >> 1 ) ^ CRC32_POLYNOM;
  51              		.loc 1 69 0
  52 000e 0126     		mov	r6, #1
  53 0010 2640     		and	r6, r4
  54 0012 6408     		lsr	r4, r4, #1
  55              	.LVL3:
  56 0014 002E     		cmp	r6, #0
  57 0016 01D0     		beq	.L4
  58 0018 0C4E     		ldr	r6, .L9+4
  59 001a 7440     		eor	r4, r6
  60              	.LVL4:
  61              	.L4:
  62 001c 013D     		sub	r5, r5, #1
  63              	.LVL5:
  67:lib_Network/crc32.c **** 
  64              		.loc 1 67 0
  65 001e 002D     		cmp	r5, #0
  66 0020 F5D1     		bne	.L5
  67 0022 9E00     		lsl	r6, r3, #2
  70:lib_Network/crc32.c ****             else                     crc =   crc >> 1;
  71:lib_Network/crc32.c ****         }
  72:lib_Network/crc32.c **** 
  73:lib_Network/crc32.c ****         crc32_tab[i] = crc;
  68              		.loc 1 73 0
  69 0024 151D     		add	r5, r2, #4
  70              	.LVL6:
  71 0026 7451     		str	r4, [r6, r5]
  63:lib_Network/crc32.c **** 
  72              		.loc 1 63 0
  73 0028 8024     		mov	r4, #128
  74              	.LVL7:
  75 002a 0133     		add	r3, r3, #1
  76              	.LVL8:
  77 002c 6400     		lsl	r4, r4, #1
  78 002e A342     		cmp	r3, r4
  79 0030 EBD1     		bne	.L6
  74:lib_Network/crc32.c ****     }
  75:lib_Network/crc32.c **** 
  76:lib_Network/crc32.c ****     crc32_tab_init = 1;
  80              		.loc 1 76 0
  81 0032 0123     		mov	r3, #1
  82              	.LVL9:
  83 0034 1360     		str	r3, [r2]
  84              	.LVL10:
  85              	.L2:
  86              	.LBE5:
  87              	.LBE4:
  32:lib_Network/crc32.c ****     crc = (crc >> 8) ^ crc32_tab[ tmp & 0xff ];
  88              		.loc 1 32 0
  89 0036 4140     		eor	r1, r0
  90              	.LVL11:
  33:lib_Network/crc32.c **** 
ARM GAS  C:\Users\Petro\AppData\Local\Temp\cc9STwA3.s 			page 4


  91              		.loc 1 33 0
  92 0038 C9B2     		uxtb	r1, r1
  93              	.LVL12:
  94 003a 8900     		lsl	r1, r1, #2
  95 003c 5118     		add	r1, r2, r1
  96 003e 030A     		lsr	r3, r0, #8
  97 0040 4868     		ldr	r0, [r1, #4]
  98              	.LVL13:
  37:lib_Network/crc32.c **** 
  99              		.loc 1 37 0
 100              		@ sp needed
  33:lib_Network/crc32.c **** 
 101              		.loc 1 33 0
 102 0042 5840     		eor	r0, r3
 103              	.LVL14:
  37:lib_Network/crc32.c **** 
 104              		.loc 1 37 0
 105 0044 70BD     		pop	{r4, r5, r6, pc}
 106              	.L10:
 107 0046 C046     		.align	2
 108              	.L9:
 109 0048 00000000 		.word	.LANCHOR0
 110 004c 2083B8ED 		.word	-306674912
 111              		.cfi_endproc
 112              	.LFE0:
 113              		.size	crc32_update, .-crc32_update
 114              		.section	.text.crc32_calc_block,"ax",%progbits
 115              		.align	1
 116              		.global	crc32_calc_block
 117              		.code	16
 118              		.thumb_func
 119              		.type	crc32_calc_block, %function
 120              	crc32_calc_block:
 121              	.LFB1:
  40:lib_Network/crc32.c **** 	uint32_t i;
 122              		.loc 1 40 0
 123              		.cfi_startproc
 124              	.LVL15:
 125 0000 38B5     		push	{r3, r4, r5, lr}
 126              		.cfi_def_cfa_offset 16
 127              		.cfi_offset 3, -16
 128              		.cfi_offset 4, -12
 129              		.cfi_offset 5, -8
 130              		.cfi_offset 14, -4
  40:lib_Network/crc32.c **** 	uint32_t i;
 131              		.loc 1 40 0
 132 0002 041C     		mov	r4, r0
 133 0004 101C     		mov	r0, r2
 134              	.LVL16:
 135 0006 6518     		add	r5, r4, r1
 136              	.LVL17:
 137              	.L12:
  43:lib_Network/crc32.c **** 		_crc = crc32_update(_crc, buf[i]);
 138              		.loc 1 43 0 discriminator 1
 139 0008 AC42     		cmp	r4, r5
 140 000a 04D0     		beq	.L14
  44:lib_Network/crc32.c **** 
ARM GAS  C:\Users\Petro\AppData\Local\Temp\cc9STwA3.s 			page 5


 141              		.loc 1 44 0 discriminator 3
 142 000c 2178     		ldrb	r1, [r4]
 143 000e FFF7FEFF 		bl	crc32_update
 144              	.LVL18:
 145 0012 0134     		add	r4, r4, #1
 146              	.LVL19:
 147 0014 F8E7     		b	.L12
 148              	.L14:
  47:lib_Network/crc32.c **** 
 149              		.loc 1 47 0
 150              		@ sp needed
 151              	.LVL20:
 152 0016 38BD     		pop	{r3, r4, r5, pc}
 153              		.cfi_endproc
 154              	.LFE1:
 155              		.size	crc32_calc_block, .-crc32_calc_block
 156              		.section	.text.crc32_calc,"ax",%progbits
 157              		.align	1
 158              		.global	crc32_calc
 159              		.code	16
 160              		.thumb_func
 161              		.type	crc32_calc, %function
 162              	crc32_calc:
 163              	.LFB2:
  50:lib_Network/crc32.c **** 	uint32_t _crc;
 164              		.loc 1 50 0
 165              		.cfi_startproc
 166              	.LVL21:
  54:lib_Network/crc32.c **** 	return crc32_final(_crc);
 167              		.loc 1 54 0
 168 0000 0122     		mov	r2, #1
  50:lib_Network/crc32.c **** 	uint32_t _crc;
 169              		.loc 1 50 0
 170 0002 08B5     		push	{r3, lr}
 171              		.cfi_def_cfa_offset 8
 172              		.cfi_offset 3, -8
 173              		.cfi_offset 14, -4
  54:lib_Network/crc32.c **** 	return crc32_final(_crc);
 174              		.loc 1 54 0
 175 0004 5242     		neg	r2, r2
 176 0006 FFF7FEFF 		bl	crc32_calc_block
 177              	.LVL22:
  56:lib_Network/crc32.c **** 
 178              		.loc 1 56 0
 179              		@ sp needed
  55:lib_Network/crc32.c **** }
 180              		.loc 1 55 0
 181 000a C043     		mvn	r0, r0
 182              	.LVL23:
  56:lib_Network/crc32.c **** 
 183              		.loc 1 56 0
 184 000c 08BD     		pop	{r3, pc}
 185              		.cfi_endproc
 186              	.LFE2:
 187              		.size	crc32_calc, .-crc32_calc
 188              		.bss
 189              		.align	2
ARM GAS  C:\Users\Petro\AppData\Local\Temp\cc9STwA3.s 			page 6


 190              		.set	.LANCHOR0,. + 0
 191              		.type	crc32_tab_init, %object
 192              		.size	crc32_tab_init, 4
 193              	crc32_tab_init:
 194 0000 00000000 		.space	4
 195              		.type	crc32_tab, %object
 196              		.size	crc32_tab, 1024
 197              	crc32_tab:
 198 0004 00000000 		.space	1024
 198      00000000 
 198      00000000 
 198      00000000 
 198      00000000 
 199              		.text
 200              	.Letext0:
 201              		.file 2 "c:\\program files (x86)\\cypress\\psoc creator\\4.0\\psoc creator\\import\\gnu\\arm\\4.9.
 202              		.file 3 "c:\\program files (x86)\\cypress\\psoc creator\\4.0\\psoc creator\\import\\gnu\\arm\\4.9.