ARM GAS  C:\Users\Petro\AppData\Local\Temp\cc2GkQNJ.s 			page 1


   1              		.cpu cortex-m0
   2              		.fpu softvfp
   3              		.eabi_attribute 20, 1
   4              		.eabi_attribute 21, 1
   5              		.eabi_attribute 23, 3
   6              		.eabi_attribute 24, 1
   7              		.eabi_attribute 25, 1
   8              		.eabi_attribute 26, 1
   9              		.eabi_attribute 30, 4
  10              		.eabi_attribute 34, 0
  11              		.eabi_attribute 18, 4
  12              		.code	16
  13              		.file	"main.c"
  14              		.text
  15              	.Ltext0:
  16              		.cfi_sections	.debug_frame
  17              		.section	.text.SystemInit,"ax",%progbits
  18              		.align	1
  19              		.global	SystemInit
  20              		.code	16
  21              		.thumb_func
  22              		.type	SystemInit, %function
  23              	SystemInit:
  24              	.LFB64:
  25              		.file 1 "main.c"
   1:main.c        **** 
   2:main.c        **** #include "appGlobal.h"
   3:main.c        **** 
   4:main.c        **** 
   5:main.c        **** int main()
   6:main.c        **** {      
   7:main.c        ****     while(SystemInit() == ERROR);
   8:main.c        ****     BLE_start();
   9:main.c        ****     currentState = TIME_SYNC;
  10:main.c        ****     
  11:main.c        ****     for(;;)
  12:main.c        ****     {
  13:main.c        ****         switch (currentState)
  14:main.c        ****         {
  15:main.c        ****             case TIME_SYNC:
  16:main.c        ****             {
  17:main.c        ****                 result = TimeSynchronize();
  18:main.c        ****                 if(result == TIME_SYNC_OK)
  19:main.c        ****                 {
  20:main.c        ****                     currentState = READY;
  21:main.c        ****                 }
  22:main.c        ****                 break;
  23:main.c        ****             }
  24:main.c        ****             case READY:
  25:main.c        ****             {
  26:main.c        ****                 result = CheckReady();
  27:main.c        ****                 if(result == NO_ERROR)
  28:main.c        ****                 {
  29:main.c        ****                     currentState = CHECK_GATE;
  30:main.c        ****                 }
  31:main.c        ****                 else if(result == REBOOT)  
  32:main.c        ****                 {
ARM GAS  C:\Users\Petro\AppData\Local\Temp\cc2GkQNJ.s 			page 2


  33:main.c        ****                     currentState = TIME_SYNC;
  34:main.c        ****                 }
  35:main.c        ****                 break;
  36:main.c        ****             }
  37:main.c        ****             case CHECK_GATE:
  38:main.c        ****             {
  39:main.c        ****                 result = CheckGate();
  40:main.c        ****                 if(result == GATE_OPEN)
  41:main.c        ****                 {
  42:main.c        ****                     currentState = SAVE_RESULT;
  43:main.c        ****                 }
  44:main.c        ****                 else
  45:main.c        ****                 {
  46:main.c        ****                     currentState = READY;
  47:main.c        ****                 }
  48:main.c        ****                 break;
  49:main.c        ****             }
  50:main.c        ****             case SAVE_RESULT:
  51:main.c        ****             {
  52:main.c        ****                 SaveResult();
  53:main.c        ****                 currentState = READY;
  54:main.c        ****                 break;
  55:main.c        ****             }            
  56:main.c        ****         }
  57:main.c        ****         MyDelay(TIMEOUT_DELAY);
  58:main.c        ****     }
  59:main.c        **** }
  60:main.c        **** 
  61:main.c        **** 
  62:main.c        **** uint32_t SystemInit(void)
  63:main.c        **** {
  26              		.loc 1 63 0
  27              		.cfi_startproc
  28 0000 10B5     		push	{r4, lr}
  29              		.cfi_def_cfa_offset 8
  30              		.cfi_offset 4, -8
  31              		.cfi_offset 14, -4
  64:main.c        ****     uint32_t result;
  65:main.c        ****     uint32_t unixTime;
  66:main.c        ****         
  67:main.c        ****     SetRebootFlag();
  32              		.loc 1 67 0
  33 0002 FFF7FEFF 		bl	SetRebootFlag
  34              	.LVL0:
  68:main.c        ****     LedInit();   
  35              		.loc 1 68 0
  36 0006 FFF7FEFF 		bl	LedInit
  37              	.LVL1:
  69:main.c        ****     DisplayStart();   
  38              		.loc 1 69 0
  39 000a FFF7FEFF 		bl	DisplayStart
  40              	.LVL2:
  70:main.c        ****     RTC_WDT_Init(); 
  41              		.loc 1 70 0
  42 000e FFF7FEFF 		bl	RTC_WDT_Init
  43              	.LVL3:
  71:main.c        ****     InitNetwork();
ARM GAS  C:\Users\Petro\AppData\Local\Temp\cc2GkQNJ.s 			page 3


  44              		.loc 1 71 0
  45 0012 FFF7FEFF 		bl	InitNetwork
  46              	.LVL4:
  72:main.c        ****     GateInit();
  47              		.loc 1 72 0
  48 0016 FFF7FEFF 		bl	GateInit
  49              	.LVL5:
  73:main.c        ****     InitBuff();
  50              		.loc 1 73 0
  51 001a FFF7FEFF 		bl	InitBuff
  52              	.LVL6:
  74:main.c        ****     BattADC_Init(); //0.5% flash
  53              		.loc 1 74 0
  54 001e FFF7FEFF 		bl	BattADC_Init
  55              	.LVL7:
  75:main.c        **** 
  76:main.c        ****     /* Enable global interrupts */
  77:main.c        ****     CyGlobalIntEnable;
  56              		.loc 1 77 0
  57              	@ 77 "main.c" 1
  58 0022 62B6     		CPSIE   i
  59              	@ 0 "" 2
  78:main.c        ****    
  79:main.c        ****     /*sync real time*/
  80:main.c        ****     unixTime = DS1307_GetUnixTime();
  60              		.loc 1 80 0
  61              		.code	16
  62 0024 FFF7FEFF 		bl	DS1307_GetUnixTime
  63              	.LVL8:
  64 0028 041E     		sub	r4, r0, #0
  65              	.LVL9:
  81:main.c        ****     
  82:main.c        ****     if(unixTime > 0)
  66              		.loc 1 82 0
  67 002a 13D0     		beq	.L2
  83:main.c        ****     {      
  84:main.c        ****         RTC_SetUnixTime(unixTime);
  68              		.loc 1 84 0
  69 002c 0021     		mov	r1, #0
  70 002e FFF7FEFF 		bl	RTC_SetUnixTime
  71              	.LVL10:
  85:main.c        ****         result = DataBaseStart();
  72              		.loc 1 85 0
  73 0032 FFF7FEFF 		bl	DataBaseStart
  74              	.LVL11:
  75 0036 041E     		sub	r4, r0, #0
  76              	.LVL12:
  86:main.c        ****         
  87:main.c        ****         if(result == DB_NO_ERROR)
  77              		.loc 1 87 0
  78 0038 012C     		cmp	r4, #1
  79 003a 03D1     		bne	.L3
  88:main.c        ****         {
  89:main.c        ****             Display("System init...");
  80              		.loc 1 89 0
  81 003c 0948     		ldr	r0, .L6
  82              	.LVL13:
ARM GAS  C:\Users\Petro\AppData\Local\Temp\cc2GkQNJ.s 			page 4


  83 003e FFF7FEFF 		bl	Display
  84              	.LVL14:
  85 0042 0DE0     		b	.L4
  86              	.LVL15:
  87              	.L3:
  88              	.LBB4:
  89              	.LBB5:
  90:main.c        ****             result = NO_ERROR;
  91:main.c        ****         }
  92:main.c        ****         else
  93:main.c        ****         {
  94:main.c        ****             Display("Please insert SD");
  90              		.loc 1 94 0
  91 0044 0848     		ldr	r0, .L6+4
  92              	.LVL16:
  93 0046 FFF7FEFF 		bl	Display
  94              	.LVL17:
  95:main.c        ****             result = ERROR;
  96:main.c        ****             SendFinStatus(FIN_NO_READY);
  95              		.loc 1 96 0
  96 004a 0020     		mov	r0, #0
  97 004c FFF7FEFF 		bl	SendFinStatus
  98              	.LVL18:
  99 0050 0024     		mov	r4, #0
 100              	.LVL19:
 101 0052 05E0     		b	.L4
 102              	.LVL20:
 103              	.L2:
 104              	.LBE5:
 105              	.LBE4:
  97:main.c        ****         }
  98:main.c        ****     }
  99:main.c        ****     else
 100:main.c        ****     {
 101:main.c        ****         Display("Error sync time");
 106              		.loc 1 101 0
 107 0054 0548     		ldr	r0, .L6+8
 108              	.LVL21:
 109 0056 FFF7FEFF 		bl	Display
 110              	.LVL22:
 102:main.c        ****         result = ERROR;
 103:main.c        ****         SendFinStatus(FIN_NO_READY);
 111              		.loc 1 103 0
 112 005a 201C     		mov	r0, r4
 113 005c FFF7FEFF 		bl	SendFinStatus
 114              	.LVL23:
 115              	.L4:
 104:main.c        ****     }
 105:main.c        ****     
 106:main.c        ****     return result;    
 107:main.c        **** }
 116              		.loc 1 107 0
 117 0060 201C     		mov	r0, r4
 118              		@ sp needed
 119              	.LVL24:
 120 0062 10BD     		pop	{r4, pc}
 121              	.L7:
ARM GAS  C:\Users\Petro\AppData\Local\Temp\cc2GkQNJ.s 			page 5


 122              		.align	2
 123              	.L6:
 124 0064 00000000 		.word	.LC0
 125 0068 0F000000 		.word	.LC2
 126 006c 20000000 		.word	.LC4
 127              		.cfi_endproc
 128              	.LFE64:
 129              		.size	SystemInit, .-SystemInit
 130              		.section	.text.TimeSynchronize,"ax",%progbits
 131              		.align	1
 132              		.global	TimeSynchronize
 133              		.code	16
 134              		.thumb_func
 135              		.type	TimeSynchronize, %function
 136              	TimeSynchronize:
 137              	.LFB65:
 108:main.c        **** 
 109:main.c        **** uint32_t TimeSynchronize(void)
 110:main.c        **** {
 138              		.loc 1 110 0
 139              		.cfi_startproc
 140 0000 10B5     		push	{r4, lr}
 141              		.cfi_def_cfa_offset 8
 142              		.cfi_offset 4, -8
 143              		.cfi_offset 14, -4
 111:main.c        ****     uint32_t result;
 112:main.c        ****     
 113:main.c        ****     LedBlink(FREQ_INIT_BLINK);
 144              		.loc 1 113 0
 145 0002 0A20     		mov	r0, #10
 146 0004 FFF7FEFF 		bl	LedBlink
 147              	.LVL25:
 114:main.c        ****     
 115:main.c        ****     /* network connect */
 116:main.c        ****     if(NetworkStatus() == NETWORK_DISCONNECT)
 148              		.loc 1 116 0
 149 0008 FFF7FEFF 		bl	NetworkStatus
 150              	.LVL26:
 151 000c 0028     		cmp	r0, #0
 152 000e 05D1     		bne	.L9
 117:main.c        ****     {
 118:main.c        ****         Display("Network conn...");
 153              		.loc 1 118 0
 154 0010 1548     		ldr	r0, .L13
 155 0012 FFF7FEFF 		bl	Display
 156              	.LVL27:
 119:main.c        ****         MyDelay(TIMEOUT_DELAY);
 157              		.loc 1 119 0
 158 0016 FA20     		mov	r0, #250
 159 0018 4000     		lsl	r0, r0, #1
 160 001a 12E0     		b	.L12
 161              	.L9:
 120:main.c        ****     }
 121:main.c        ****     else
 122:main.c        ****     {  
 123:main.c        ****         /* time sync */
 124:main.c        ****         Display("Sync time...");
ARM GAS  C:\Users\Petro\AppData\Local\Temp\cc2GkQNJ.s 			page 6


 162              		.loc 1 124 0
 163 001c 1348     		ldr	r0, .L13+4
 164 001e FFF7FEFF 		bl	Display
 165              	.LVL28:
 125:main.c        ****         if(NTPsync() == TIME_SYNC_OK)
 166              		.loc 1 125 0
 167 0022 FFF7FEFF 		bl	NTPsync
 168              	.LVL29:
 169 0026 041E     		sub	r4, r0, #0
 170 0028 0ED1     		bne	.L11
 171              	.LBB8:
 172              	.LBB9:
 126:main.c        ****         {
 127:main.c        ****             Display("Sync ok");
 173              		.loc 1 127 0
 174 002a 1148     		ldr	r0, .L13+8
 175 002c FFF7FEFF 		bl	Display
 176              	.LVL30:
 128:main.c        ****             ClearRebootFlag();
 177              		.loc 1 128 0
 178 0030 FFF7FEFF 		bl	ClearRebootFlag
 179              	.LVL31:
 129:main.c        ****             BLE_sendSystemStatus(STATUS_OK);
 180              		.loc 1 129 0
 181 0034 201C     		mov	r0, r4
 182 0036 FFF7FEFF 		bl	BLE_sendSystemStatus
 183              	.LVL32:
 130:main.c        ****             ResetTimerForTimeSync();
 184              		.loc 1 130 0
 185 003a FFF7FEFF 		bl	ResetTimerForTimeSync
 186              	.LVL33:
 131:main.c        ****             
 132:main.c        ****             MyDelay(4 * TIMEOUT_USER_READ_INFO);
 187              		.loc 1 132 0
 188 003e FA20     		mov	r0, #250
 189 0040 C000     		lsl	r0, r0, #3
 190              	.L12:
 191 0042 FFF7FEFF 		bl	MyDelay
 192              	.LVL34:
 193 0046 0CE0     		b	.L10
 194              	.LVL35:
 195              	.L11:
 196              	.LBE9:
 197              	.LBE8:
 133:main.c        ****             
 134:main.c        ****             result = TIME_SYNC_OK;
 135:main.c        ****         }
 136:main.c        ****         else
 137:main.c        ****         {
 138:main.c        ****             Display("Sync time error");
 198              		.loc 1 138 0
 199 0048 0A48     		ldr	r0, .L13+12
 200 004a FFF7FEFF 		bl	Display
 201              	.LVL36:
 139:main.c        ****             SetRebootFlag();
 202              		.loc 1 139 0
 203 004e FFF7FEFF 		bl	SetRebootFlag
ARM GAS  C:\Users\Petro\AppData\Local\Temp\cc2GkQNJ.s 			page 7


 204              	.LVL37:
 140:main.c        ****             BLE_sendSystemStatus(STATUS_ERROR);
 205              		.loc 1 140 0
 206 0052 0120     		mov	r0, #1
 207 0054 FFF7FEFF 		bl	BLE_sendSystemStatus
 208              	.LVL38:
 141:main.c        ****             MyDelay(4 * TIMEOUT_USER_READ_INFO);
 209              		.loc 1 141 0
 210 0058 FA20     		mov	r0, #250
 211 005a C000     		lsl	r0, r0, #3
 212 005c FFF7FEFF 		bl	MyDelay
 213              	.LVL39:
 142:main.c        ****             
 143:main.c        ****             result = TIME_SYNC_ERR;
 214              		.loc 1 143 0
 215 0060 0124     		mov	r4, #1
 216              	.LVL40:
 217              	.L10:
 144:main.c        ****         }
 145:main.c        ****     }
 146:main.c        ****     
 147:main.c        ****     return result;
 148:main.c        **** }
 218              		.loc 1 148 0
 219 0062 201C     		mov	r0, r4
 220              		@ sp needed
 221              	.LVL41:
 222 0064 10BD     		pop	{r4, pc}
 223              	.L14:
 224 0066 C046     		.align	2
 225              	.L13:
 226 0068 30000000 		.word	.LC6
 227 006c 40000000 		.word	.LC8
 228 0070 4D000000 		.word	.LC10
 229 0074 55000000 		.word	.LC12
 230              		.cfi_endproc
 231              	.LFE65:
 232              		.size	TimeSynchronize, .-TimeSynchronize
 233              		.section	.text.CheckReady,"ax",%progbits
 234              		.align	1
 235              		.global	CheckReady
 236              		.code	16
 237              		.thumb_func
 238              		.type	CheckReady, %function
 239              	CheckReady:
 240              	.LFB66:
 149:main.c        **** 
 150:main.c        **** 
 151:main.c        **** uint32_t CheckReady(void)
 152:main.c        **** {
 241              		.loc 1 152 0
 242              		.cfi_startproc
 243 0000 38B5     		push	{r3, r4, r5, lr}
 244              		.cfi_def_cfa_offset 16
 245              		.cfi_offset 3, -16
 246              		.cfi_offset 4, -12
 247              		.cfi_offset 5, -8
ARM GAS  C:\Users\Petro\AppData\Local\Temp\cc2GkQNJ.s 			page 8


 248              		.cfi_offset 14, -4
 153:main.c        ****     uint32_t result;   
 154:main.c        ****  
 155:main.c        ****     /*sise FIFO*/
 156:main.c        ****     if ((FifoGetSize() >= MAX_SKIERS_ON_BUF/*main_db_buffer) */)&& (FifoGetSize() <= MAX_FIFO_SIZE)
 249              		.loc 1 156 0
 250 0002 FFF7FEFF 		bl	FifoGetSize
 251              	.LVL42:
 252 0006 0728     		cmp	r0, #7
 253 0008 0FD9     		bls	.L16
 254              		.loc 1 156 0 is_stmt 0 discriminator 1
 255 000a FFF7FEFF 		bl	FifoGetSize
 256              	.LVL43:
 257 000e 0C28     		cmp	r0, #12
 258 0010 0BD8     		bhi	.L16
 157:main.c        ****     {
 158:main.c        ****         /*skier finish successful*/
 159:main.c        ****         Display("Error SD Card!");
 259              		.loc 1 159 0 is_stmt 1
 260 0012 2848     		ldr	r0, .L28
 261 0014 FFF7FEFF 		bl	Display
 262              	.LVL44:
 160:main.c        ****         SendFinStatus(FIN_NO_READY); 
 263              		.loc 1 160 0
 264 0018 0020     		mov	r0, #0
 265 001a FFF7FEFF 		bl	SendFinStatus
 266              	.LVL45:
 161:main.c        ****         
 162:main.c        ****         if (SkierOnWay() != 0)
 267              		.loc 1 162 0
 268 001e FFF7FEFF 		bl	SkierOnWay
 269              	.LVL46:
 163:main.c        ****         {
 164:main.c        ****             /*if skiers on way*/
 165:main.c        ****             result = NO_ERROR;
 166:main.c        ****         }
 167:main.c        ****         else
 168:main.c        ****         {
 169:main.c        ****             /*if not skiers on way*/
 170:main.c        ****             result = ERROR;
 270              		.loc 1 170 0
 271 0022 041C     		mov	r4, r0
 272 0024 601E     		sub	r0, r4, #1
 273 0026 8441     		sbc	r4, r4, r0
 274 0028 30E0     		b	.L17
 275              	.L16:
 171:main.c        ****         }        
 172:main.c        ****     }
 173:main.c        ****     else if(FifoGetSize() > MAX_FIFO_SIZE)
 276              		.loc 1 173 0
 277 002a FFF7FEFF 		bl	FifoGetSize
 278              	.LVL47:
 279 002e 0C28     		cmp	r0, #12
 280 0030 07D9     		bls	.L18
 174:main.c        ****     {
 175:main.c        ****         /*skier finish no successful*/
 176:main.c        ****         Display("Error SD Card!");
ARM GAS  C:\Users\Petro\AppData\Local\Temp\cc2GkQNJ.s 			page 9


 281              		.loc 1 176 0
 282 0032 2048     		ldr	r0, .L28
 283 0034 FFF7FEFF 		bl	Display
 284              	.LVL48:
 177:main.c        ****         SendFinStatus(FIN_NO_READY); 
 285              		.loc 1 177 0
 286 0038 0020     		mov	r0, #0
 287 003a FFF7FEFF 		bl	SendFinStatus
 288              	.LVL49:
 178:main.c        ****         
 179:main.c        ****         result = ERROR;                
 289              		.loc 1 179 0
 290 003e 0024     		mov	r4, #0
 291 0040 24E0     		b	.L17
 292              	.LVL50:
 293              	.L18:
 180:main.c        ****     }
 181:main.c        ****     else if(SkierOnWay() >= MAX_SKIERS_ON_WAY/*MAX_COUNT, TRACK_OVERFLOW*/)
 294              		.loc 1 181 0
 295 0042 FFF7FEFF 		bl	SkierOnWay
 296              	.LVL51:
 297 0046 0328     		cmp	r0, #3
 298 0048 0AD9     		bls	.L19
 182:main.c        ****     {
 183:main.c        ****         /*max skier on way*/
 184:main.c        ****      
 185:main.c        ****         Display("Max skier on way");
 299              		.loc 1 185 0
 300 004a 1B48     		ldr	r0, .L28+4
 301 004c FFF7FEFF 		bl	Display
 302              	.LVL52:
 186:main.c        ****         SendFinStatus(FIN_NO_READY);
 303              		.loc 1 186 0
 304 0050 0020     		mov	r0, #0
 305 0052 FFF7FEFF 		bl	SendFinStatus
 306              	.LVL53:
 187:main.c        ****         MyDelay(TIMEOUT_USER_READ_INFO);
 307              		.loc 1 187 0
 308 0056 FA20     		mov	r0, #250
 309 0058 4000     		lsl	r0, r0, #1
 310 005a FFF7FEFF 		bl	MyDelay
 311              	.LVL54:
 312 005e 14E0     		b	.L27
 313              	.LVL55:
 314              	.L19:
 188:main.c        ****         
 189:main.c        ****         result = NO_ERROR;      
 190:main.c        ****     }
 191:main.c        ****     else if(SkierOnWay() == 0)
 315              		.loc 1 191 0
 316 0060 FFF7FEFF 		bl	SkierOnWay
 317              	.LVL56:
 318 0064 154D     		ldr	r5, .L28+8
 319 0066 041E     		sub	r4, r0, #0
 320 0068 09D1     		bne	.L20
 192:main.c        ****     {
 193:main.c        ****         Display("Finish Ready");
ARM GAS  C:\Users\Petro\AppData\Local\Temp\cc2GkQNJ.s 			page 10


 321              		.loc 1 193 0
 322 006a 281C     		mov	r0, r5
 323 006c FFF7FEFF 		bl	Display
 324              	.LVL57:
 194:main.c        ****         SendFinStatus(FIN_READY);
 325              		.loc 1 194 0
 326 0070 0120     		mov	r0, #1
 327 0072 FFF7FEFF 		bl	SendFinStatus
 328              	.LVL58:
 195:main.c        ****         SetLedState(LED_DISABLE);        
 329              		.loc 1 195 0
 330 0076 201C     		mov	r0, r4
 331 0078 FFF7FEFF 		bl	SetLedState
 332              	.LVL59:
 333 007c 06E0     		b	.L17
 334              	.LVL60:
 335              	.L20:
 196:main.c        ****         
 197:main.c        ****         result = ERROR;      
 198:main.c        ****     }
 199:main.c        ****     else
 200:main.c        ****     {
 201:main.c        ****         /*finish ready*/
 202:main.c        ****         SendFinStatus(FIN_READY);
 336              		.loc 1 202 0
 337 007e 0120     		mov	r0, #1
 338 0080 FFF7FEFF 		bl	SendFinStatus
 339              	.LVL61:
 203:main.c        ****         Display("Finish Ready");
 340              		.loc 1 203 0
 341 0084 281C     		mov	r0, r5
 342 0086 FFF7FEFF 		bl	Display
 343              	.LVL62:
 344              	.L27:
 204:main.c        ****         
 205:main.c        ****         result = NO_ERROR;
 345              		.loc 1 205 0
 346 008a 0124     		mov	r4, #1
 347              	.LVL63:
 348              	.L17:
 206:main.c        ****     }
 207:main.c        ****     
 208:main.c        ****     //if(ReadRebootStartFlag() == REBOOT/*IS*/)
 209:main.c        ****     if(IsRebootStartFlag() == REBOOT)
 349              		.loc 1 209 0
 350 008c FFF7FEFF 		bl	IsRebootStartFlag
 351              	.LVL64:
 352 0090 FF28     		cmp	r0, #255
 353 0092 00D1     		bne	.L21
 210:main.c        ****     {
 211:main.c        ****         result = REBOOT;
 354              		.loc 1 211 0
 355 0094 041C     		mov	r4, r0
 356              	.LVL65:
 357              	.L21:
 212:main.c        ****     }
 213:main.c        ****     
ARM GAS  C:\Users\Petro\AppData\Local\Temp\cc2GkQNJ.s 			page 11


 214:main.c        ****     /*if  admin , read skier time from SD card and send bluetooth*/
 215:main.c        ****     if(BLE_getFlagAdminOnly() != 0)
 358              		.loc 1 215 0
 359 0096 FFF7FEFF 		bl	BLE_getFlagAdminOnly
 360              	.LVL66:
 361 009a 0028     		cmp	r0, #0
 362 009c 01D0     		beq	.L22
 216:main.c        ****     {
 217:main.c        ****         ReadSkierResultAndSendBLE();
 363              		.loc 1 217 0
 364 009e FFF7FEFF 		bl	ReadSkierResultAndSendBLE
 365              	.LVL67:
 366              	.L22:
 218:main.c        ****     }
 219:main.c        ****     
 220:main.c        ****     if(ChekTimerForTimeSync() == SYNC_REQUIRES)
 367              		.loc 1 220 0
 368 00a2 FFF7FEFF 		bl	ChekTimerForTimeSync
 369              	.LVL68:
 370 00a6 0128     		cmp	r0, #1
 371 00a8 01D1     		bne	.L23
 221:main.c        ****     {
 222:main.c        ****         SetRebootFlag();
 372              		.loc 1 222 0
 373 00aa FFF7FEFF 		bl	SetRebootFlag
 374              	.LVL69:
 375              	.L23:
 223:main.c        ****     }
 224:main.c        ****            
 225:main.c        ****     return result;
 226:main.c        **** }
 376              		.loc 1 226 0
 377 00ae 201C     		mov	r0, r4
 378              		@ sp needed
 379              	.LVL70:
 380 00b0 38BD     		pop	{r3, r4, r5, pc}
 381              	.L29:
 382 00b2 C046     		.align	2
 383              	.L28:
 384 00b4 65000000 		.word	.LC14
 385 00b8 74000000 		.word	.LC16
 386 00bc 85000000 		.word	.LC18
 387              		.cfi_endproc
 388              	.LFE66:
 389              		.size	CheckReady, .-CheckReady
 390              		.section	.text.CheckGate,"ax",%progbits
 391              		.align	1
 392              		.global	CheckGate
 393              		.code	16
 394              		.thumb_func
 395              		.type	CheckGate, %function
 396              	CheckGate:
 397              	.LFB67:
 227:main.c        **** 
 228:main.c        **** uint32_t CheckGate(void)
 229:main.c        **** {
 398              		.loc 1 229 0
ARM GAS  C:\Users\Petro\AppData\Local\Temp\cc2GkQNJ.s 			page 12


 399              		.cfi_startproc
 400 0000 10B5     		push	{r4, lr}
 401              		.cfi_def_cfa_offset 8
 402              		.cfi_offset 4, -8
 403              		.cfi_offset 14, -4
 230:main.c        ****     uint32_t result;
 231:main.c        ****     
 232:main.c        ****     SetLedState(LED_ENABLE);
 404              		.loc 1 232 0
 405 0002 0120     		mov	r0, #1
 406 0004 FFF7FEFF 		bl	SetLedState
 407              	.LVL71:
 233:main.c        ****     result = GateIsOpen();/*IsGateOpen(), CheckGateStatus()*/
 408              		.loc 1 233 0
 409 0008 FFF7FEFF 		bl	GateIsOpen
 410              	.LVL72:
 411 000c 041E     		sub	r4, r0, #0
 412              	.LVL73:
 234:main.c        ****     
 235:main.c        ****     if(result == GATE_OPEN)
 413              		.loc 1 235 0
 414 000e 012C     		cmp	r4, #1
 415 0010 07D1     		bne	.L31
 416              	.LBB12:
 417              	.LBB13:
 236:main.c        ****     {
 237:main.c        ****         Display("Skier Finished");
 418              		.loc 1 237 0
 419 0012 0648     		ldr	r0, .L33
 420              	.LVL74:
 421 0014 FFF7FEFF 		bl	Display
 422              	.LVL75:
 238:main.c        ****         MyDelay(TIMEOUT_USER_READ_INFO);
 423              		.loc 1 238 0
 424 0018 FA20     		mov	r0, #250
 425 001a 4000     		lsl	r0, r0, #1
 426 001c FFF7FEFF 		bl	MyDelay
 427              	.LVL76:
 428 0020 01E0     		b	.L32
 429              	.LVL77:
 430              	.L31:
 431              	.LBE13:
 432              	.LBE12:
 239:main.c        ****     }
 240:main.c        ****     else
 241:main.c        ****     {
 242:main.c        ****         AllowNextSkier();
 433              		.loc 1 242 0
 434 0022 FFF7FEFF 		bl	AllowNextSkier
 435              	.LVL78:
 436              	.L32:
 243:main.c        ****     }
 244:main.c        ****     
 245:main.c        ****     return result;  
 246:main.c        **** }
 437              		.loc 1 246 0
 438 0026 201C     		mov	r0, r4
ARM GAS  C:\Users\Petro\AppData\Local\Temp\cc2GkQNJ.s 			page 13


 439              		@ sp needed
 440              	.LVL79:
 441 0028 10BD     		pop	{r4, pc}
 442              	.L34:
 443 002a C046     		.align	2
 444              	.L33:
 445 002c 92000000 		.word	.LC20
 446              		.cfi_endproc
 447              	.LFE67:
 448              		.size	CheckGate, .-CheckGate
 449              		.section	.text.SaveResult,"ax",%progbits
 450              		.align	1
 451              		.global	SaveResult
 452              		.code	16
 453              		.thumb_func
 454              		.type	SaveResult, %function
 455              	SaveResult:
 456              	.LFB68:
 247:main.c        **** 
 248:main.c        **** void SaveResult(void)
 249:main.c        **** {
 457              		.loc 1 249 0
 458              		.cfi_startproc
 459 0000 1FB5     		push	{r0, r1, r2, r3, r4, lr}
 460              		.cfi_def_cfa_offset 24
 461              		.cfi_offset 0, -24
 462              		.cfi_offset 1, -20
 463              		.cfi_offset 2, -16
 464              		.cfi_offset 3, -12
 465              		.cfi_offset 4, -8
 466              		.cfi_offset 14, -4
 250:main.c        ****     uint64_t finUnixTime;
 251:main.c        ****     uint32_t finRecentMs;
 252:main.c        ****     
 253:main.c        ****     SendFinStatus(FIN_READY);
 467              		.loc 1 253 0
 468 0002 0120     		mov	r0, #1
 469 0004 FFF7FEFF 		bl	SendFinStatus
 470              	.LVL80:
 254:main.c        ****     LedBlink(FREQ_INIT_BLINK);
 471              		.loc 1 254 0
 472 0008 0A20     		mov	r0, #10
 473 000a FFF7FEFF 		bl	LedBlink
 474              	.LVL81:
 255:main.c        ****     Display("Save data");
 475              		.loc 1 255 0
 476 000e 1048     		ldr	r0, .L36
 477 0010 FFF7FEFF 		bl	Display
 478              	.LVL82:
 256:main.c        ****     MyDelay(TIMEOUT_USER_READ_INFO);
 479              		.loc 1 256 0
 480 0014 FA20     		mov	r0, #250
 481 0016 4000     		lsl	r0, r0, #1
 482 0018 FFF7FEFF 		bl	MyDelay
 483              	.LVL83:
 257:main.c        ****     
 258:main.c        ****     /*write time in fifo*/
ARM GAS  C:\Users\Petro\AppData\Local\Temp\cc2GkQNJ.s 			page 14


 259:main.c        ****     GetFinTime(&finUnixTime, &finRecentMs);
 484              		.loc 1 259 0
 485 001c 02A8     		add	r0, sp, #8
 486 001e 01A9     		add	r1, sp, #4
 487 0020 FFF7FEFF 		bl	GetFinTime
 488              	.LVL84:
 260:main.c        ****     WriteFinishTime(finUnixTime,finRecentMs);
 489              		.loc 1 260 0
 490 0024 0298     		ldr	r0, [sp, #8]
 491 0026 0399     		ldr	r1, [sp, #12]
 492 0028 019B     		ldr	r3, [sp, #4]
 261:main.c        ****     
 262:main.c        ****     FifoPushLastFinished();
 263:main.c        ****     
 264:main.c        ****     /*print time result last skier finished*/
 265:main.c        ****     DisplayLastSkierTime(LastSecTimeOnWay(),LastMillsTimeOnWay());/*LastTimeOnWaySecs(), LastTimeOn
 266:main.c        ****     MyDelay(2*TIMEOUT_USER_READ_INFO);
 267:main.c        **** }
 493              		.loc 1 267 0
 494              		@ sp needed
 260:main.c        ****     WriteFinishTime(finUnixTime,finRecentMs);
 495              		.loc 1 260 0
 496 002a 9AB2     		uxth	r2, r3
 497 002c FFF7FEFF 		bl	WriteFinishTime
 498              	.LVL85:
 262:main.c        ****     
 499              		.loc 1 262 0
 500 0030 FFF7FEFF 		bl	FifoPushLastFinished
 501              	.LVL86:
 265:main.c        ****     MyDelay(2*TIMEOUT_USER_READ_INFO);
 502              		.loc 1 265 0
 503 0034 FFF7FEFF 		bl	LastSecTimeOnWay
 504              	.LVL87:
 505 0038 041C     		mov	r4, r0
 506 003a FFF7FEFF 		bl	LastMillsTimeOnWay
 507              	.LVL88:
 508 003e 81B2     		uxth	r1, r0
 509 0040 201C     		mov	r0, r4
 510 0042 FFF7FEFF 		bl	DisplayLastSkierTime
 511              	.LVL89:
 266:main.c        **** }
 512              		.loc 1 266 0
 513 0046 FA20     		mov	r0, #250
 514 0048 8000     		lsl	r0, r0, #2
 515 004a FFF7FEFF 		bl	MyDelay
 516              	.LVL90:
 517              		.loc 1 267 0
 518 004e 1FBD     		pop	{r0, r1, r2, r3, r4, pc}
 519              	.L37:
 520              		.align	2
 521              	.L36:
 522 0050 A1000000 		.word	.LC22
 523              		.cfi_endproc
 524              	.LFE68:
 525              		.size	SaveResult, .-SaveResult
 526              		.section	.text.startup.main,"ax",%progbits
 527              		.align	1
ARM GAS  C:\Users\Petro\AppData\Local\Temp\cc2GkQNJ.s 			page 15


 528              		.global	main
 529              		.code	16
 530              		.thumb_func
 531              		.type	main, %function
 532              	main:
 533              	.LFB63:
   6:main.c        ****     while(SystemInit() == ERROR);
 534              		.loc 1 6 0
 535              		.cfi_startproc
 536 0000 10B5     		push	{r4, lr}
 537              		.cfi_def_cfa_offset 8
 538              		.cfi_offset 4, -8
 539              		.cfi_offset 14, -4
 540              	.L39:
   7:main.c        ****     BLE_start();
 541              		.loc 1 7 0 discriminator 1
 542 0002 FFF7FEFF 		bl	SystemInit
 543              	.LVL91:
 544 0006 0028     		cmp	r0, #0
 545 0008 FBD0     		beq	.L39
   8:main.c        ****     currentState = TIME_SYNC;
 546              		.loc 1 8 0
 547 000a FFF7FEFF 		bl	BLE_start
 548              	.LVL92:
   9:main.c        ****     
 549              		.loc 1 9 0
 550 000e 0023     		mov	r3, #0
 551 0010 154C     		ldr	r4, .L56
 552 0012 2370     		strb	r3, [r4]
 553              	.L49:
  13:main.c        ****         {
 554              		.loc 1 13 0
 555 0014 2078     		ldrb	r0, [r4]
 556 0016 0328     		cmp	r0, #3
 557 0018 21D8     		bhi	.L40
 558 001a FFF7FEFF 		bl	__gnu_thumb1_case_uqi
 559              	.L42:
 560 001e 02       		.byte	(.L41-.L42)/2
 561 001f 09       		.byte	(.L43-.L42)/2
 562 0020 14       		.byte	(.L44-.L42)/2
 563 0021 1C       		.byte	(.L45-.L42)/2
 564              		.p2align 1
 565              	.L41:
  17:main.c        ****                 if(result == TIME_SYNC_OK)
 566              		.loc 1 17 0
 567 0022 FFF7FEFF 		bl	TimeSynchronize
 568              	.LVL93:
 569 0026 114B     		ldr	r3, .L56+4
 570 0028 1860     		str	r0, [r3]
  18:main.c        ****                 {
 571              		.loc 1 18 0
 572 002a 0028     		cmp	r0, #0
 573 002c 17D1     		bne	.L40
 574 002e 14E0     		b	.L54
 575              	.L43:
  26:main.c        ****                 if(result == NO_ERROR)
 576              		.loc 1 26 0
ARM GAS  C:\Users\Petro\AppData\Local\Temp\cc2GkQNJ.s 			page 16


 577 0030 FFF7FEFF 		bl	CheckReady
 578              	.LVL94:
 579 0034 0D4B     		ldr	r3, .L56+4
 580 0036 1860     		str	r0, [r3]
  29:main.c        ****                 }
 581              		.loc 1 29 0
 582 0038 0223     		mov	r3, #2
  27:main.c        ****                 {
 583              		.loc 1 27 0
 584 003a 0128     		cmp	r0, #1
 585 003c 0ED0     		beq	.L55
  33:main.c        ****                 }
 586              		.loc 1 33 0
 587 003e 0023     		mov	r3, #0
  31:main.c        ****                 {
 588              		.loc 1 31 0
 589 0040 FF28     		cmp	r0, #255
 590 0042 0CD1     		bne	.L40
 591 0044 0AE0     		b	.L55
 592              	.L44:
  39:main.c        ****                 if(result == GATE_OPEN)
 593              		.loc 1 39 0
 594 0046 FFF7FEFF 		bl	CheckGate
 595              	.LVL95:
 596 004a 084B     		ldr	r3, .L56+4
 597 004c 1860     		str	r0, [r3]
  42:main.c        ****                 }
 598              		.loc 1 42 0
 599 004e 0323     		mov	r3, #3
  40:main.c        ****                 {
 600              		.loc 1 40 0
 601 0050 0128     		cmp	r0, #1
 602 0052 02D1     		bne	.L54
 603 0054 02E0     		b	.L55
 604              	.L45:
  52:main.c        ****                 currentState = READY;
 605              		.loc 1 52 0
 606 0056 FFF7FEFF 		bl	SaveResult
 607              	.LVL96:
 608              	.L54:
  53:main.c        ****                 break;
 609              		.loc 1 53 0
 610 005a 0123     		mov	r3, #1
 611              	.L55:
 612 005c 2370     		strb	r3, [r4]
 613              	.L40:
  57:main.c        ****     }
 614              		.loc 1 57 0
 615 005e FA20     		mov	r0, #250
 616 0060 4000     		lsl	r0, r0, #1
 617 0062 FFF7FEFF 		bl	MyDelay
 618              	.LVL97:
  58:main.c        **** }
 619              		.loc 1 58 0
 620 0066 D5E7     		b	.L49
 621              	.L57:
 622              		.align	2
ARM GAS  C:\Users\Petro\AppData\Local\Temp\cc2GkQNJ.s 			page 17


 623              	.L56:
 624 0068 00000000 		.word	currentState
 625 006c 00000000 		.word	.LANCHOR0
 626              		.cfi_endproc
 627              	.LFE63:
 628              		.size	main, .-main
 629              		.comm	currentState,1,1
 630              		.section	.rodata.str1.1,"aMS",%progbits,1
 631              	.LC0:
 632 0000 53797374 		.ascii	"System init...\000"
 632      656D2069 
 632      6E69742E 
 632      2E2E00
 633              	.LC2:
 634 000f 506C6561 		.ascii	"Please insert SD\000"
 634      73652069 
 634      6E736572 
 634      74205344 
 634      00
 635              	.LC4:
 636 0020 4572726F 		.ascii	"Error sync time\000"
 636      72207379 
 636      6E632074 
 636      696D6500 
 637              	.LC6:
 638 0030 4E657477 		.ascii	"Network conn...\000"
 638      6F726B20 
 638      636F6E6E 
 638      2E2E2E00 
 639              	.LC8:
 640 0040 53796E63 		.ascii	"Sync time...\000"
 640      2074696D 
 640      652E2E2E 
 640      00
 641              	.LC10:
 642 004d 53796E63 		.ascii	"Sync ok\000"
 642      206F6B00 
 643              	.LC12:
 644 0055 53796E63 		.ascii	"Sync time error\000"
 644      2074696D 
 644      65206572 
 644      726F7200 
 645              	.LC14:
 646 0065 4572726F 		.ascii	"Error SD Card!\000"
 646      72205344 
 646      20436172 
 646      642100
 647              	.LC16:
 648 0074 4D617820 		.ascii	"Max skier on way\000"
 648      736B6965 
 648      72206F6E 
 648      20776179 
 648      00
 649              	.LC18:
 650 0085 46696E69 		.ascii	"Finish Ready\000"
 650      73682052 
 650      65616479 
ARM GAS  C:\Users\Petro\AppData\Local\Temp\cc2GkQNJ.s 			page 18


 650      00
 651              	.LC20:
 652 0092 536B6965 		.ascii	"Skier Finished\000"
 652      72204669 
 652      6E697368 
 652      656400
 653              	.LC22:
 654 00a1 53617665 		.ascii	"Save data\000"
 654      20646174 
 654      6100
 655              		.bss
 656              		.align	2
 657              		.set	.LANCHOR0,. + 0
 658              		.type	result, %object
 659              		.size	result, 4
 660              	result:
 661 0000 00000000 		.space	4
 662              		.text
 663              	.Letext0:
 664              		.file 2 "c:\\program files (x86)\\cypress\\psoc creator\\4.0\\psoc creator\\import\\gnu\\arm\\4.9.
 665              		.file 3 "c:\\program files (x86)\\cypress\\psoc creator\\4.0\\psoc creator\\import\\gnu\\arm\\4.9.
 666              		.file 4 "Generated_Source\\PSoC4/cytypes.h"
 667              		.file 5 "Generated_Source\\PSoC4/ble_Stack.h"
 668              		.file 6 "lib_BLE\\bluetooth.h"
 669              		.file 7 "appGlobal.h"
 670              		.file 8 "lib_Display\\display.h"
 671              		.file 9 "lib_Network\\network.h"
 672              		.file 10 "lib_LED\\LED.h"
 673              		.file 11 "lib_Gate\\gate.h"
 674              		.file 12 "lib_RTC\\RTC_WDT.h"
 675              		.file 13 "lib_DB\\database.h"
 676              		.file 14 "lib_Batt\\batt.h"
 677              		.file 15 "Generated_Source\\PSoC4/RTC.h"
 678              		.file 16 "lib_DS1307\\DS1307.h"
 679              		.file 17 "lib_MyDelay\\myDelay.h"
 680              		.file 18 "./lib_DB\\logResult.h"