ARM GAS  C:\Users\Petro\AppData\Local\Temp\ccOLGOpz.s 			page 1


   1              		.cpu cortex-m0
   2              		.fpu softvfp
   3              		.eabi_attribute 20, 1
   4              		.eabi_attribute 21, 1
   5              		.eabi_attribute 23, 3
   6              		.eabi_attribute 24, 1
   7              		.eabi_attribute 25, 1
   8              		.eabi_attribute 26, 1
   9              		.eabi_attribute 30, 4
  10              		.eabi_attribute 34, 0
  11              		.eabi_attribute 18, 4
  12              		.code	16
  13              		.file	"network.c"
  14              		.text
  15              	.Ltext0:
  16              		.cfi_sections	.debug_frame
  17              		.section	.text.CustomInterruptHandler,"ax",%progbits
  18              		.align	1
  19              		.global	CustomInterruptHandler
  20              		.code	16
  21              		.thumb_func
  22              		.type	CustomInterruptHandler, %function
  23              	CustomInterruptHandler:
  24              	.LFB64:
  25              		.file 1 "network.c"
   1:network.c     **** 
   2:network.c     **** #include "lib_Network/network.h"
   3:network.c     **** #include <lib_BLE/bluetooth.h>
   4:network.c     **** #include <UART_XB.h>
   5:network.c     **** #include <UART_XB_SPI_UART.h>
   6:network.c     **** 
   7:network.c     **** #ifdef DEBUG_INFO
   8:network.c     ****     #include <DEBUG_UART.h>
   9:network.c     **** #endif
  10:network.c     **** #ifdef DEBUG_TIME
  11:network.c     ****     #include <debug.h>
  12:network.c     **** #endif
  13:network.c     **** #ifdef DEBUG_NTP
  14:network.c     ****     #include <debugntp.h>
  15:network.c     **** #endif
  16:network.c     **** #ifdef DEBUGNTP
  17:network.c     ****     #include <pinDebugNtp.h>
  18:network.c     **** #endif
  19:network.c     **** 
  20:network.c     **** #include "lib_Network/svt.h"
  21:network.c     **** #include "lib_DB/database.h"
  22:network.c     **** #include "lib_RTC/RTC_WDT.h"
  23:network.c     **** #include "lib_Network/ntp.h"
  24:network.c     **** #include "lib_Display/display.h"
  25:network.c     **** 
  26:network.c     **** 
  27:network.c     **** /*size buffer*/
  28:network.c     **** #define DATA_BUFFER   50
  29:network.c     ****  
  30:network.c     **** #define ADRESS_READY        8
  31:network.c     **** #define ADRESS_REBOOT       9
  32:network.c     **** #define ADRESS_COUNT_SK     10
ARM GAS  C:\Users\Petro\AppData\Local\Temp\ccOLGOpz.s 			page 2


  33:network.c     **** 
  34:network.c     **** #define NETWORK_TIMEOUT     50
  35:network.c     **** 
  36:network.c     **** /*for NTP protocol*/
  37:network.c     **** #define NTP_TRY_SYNC        14
  38:network.c     **** #define NTP_CONNECT_ATTEMPS 6       //кількість спроб надсилання пакет
  39:network.c     **** #define NTP_SUCCESSFUL_PACKET 5       //кількість пакетів для синхроніз
  40:network.c     **** #define NTP_DELAY_RECEIVED_PACKET 500
  41:network.c     **** 
  42:network.c     **** /*define for result ntp sync*/
  43:network.c     **** #define OK      1
  44:network.c     **** #define ERROR   0
  45:network.c     ****     
  46:network.c     **** /*segment time for NTP*/
  47:network.c     **** #define T1                  0
  48:network.c     **** #define T2                  1
  49:network.c     **** #define T3                  2
  50:network.c     **** #define T4                  3
  51:network.c     **** 
  52:network.c     **** typedef struct
  53:network.c     **** {
  54:network.c     ****     /*data to transmit*/
  55:network.c     ****     uint8_t IDpacket;    
  56:network.c     ****     uint8_t ready;          /*flag readu finish*/
  57:network.c     ****     uint8_t reboot;         /*flag finish reboot*/
  58:network.c     ****     uint8_t countSkiers;
  59:network.c     ****     uint8_t testMode;
  60:network.c     ****     uint64_t tmpTime;
  61:network.c     ****     uint16_t tmpMsTime;
  62:network.c     ****     uint8_t writeStatus;    /*flag transmitt data*/
  63:network.c     **** }FinishData;
  64:network.c     **** 
  65:network.c     **** typedef struct
  66:network.c     **** {
  67:network.c     ****     /*data to receive*/
  68:network.c     ****     uint8_t IDpacket;
  69:network.c     ****     uint64_t unixStartTime;
  70:network.c     ****     uint16_t startMsTime;
  71:network.c     ****     uint8_t newSkier;
  72:network.c     ****     uint8_t testMode;
  73:network.c     ****     uint8_t reboot;     /*reboot=1, no reboot=0*/
  74:network.c     ****     
  75:network.c     ****     uint8_t readStatus;     /*flag successful read data in start*/
  76:network.c     **** }StartData;
  77:network.c     **** 
  78:network.c     **** FinishData outData ;
  79:network.c     **** StartData inData;
  80:network.c     **** uint8_t rebootFlag ;
  81:network.c     **** 
  82:network.c     **** uint16_t numAttemps,noConnect, networkStatus;
  83:network.c     **** uint32_t unixTime[4];
  84:network.c     **** uint16_t millisTime[4];
  85:network.c     **** /*new ntp*/
  86:network.c     **** uint8_t ntpFlagEndReceivePacket;        //indicator end receive packet
  87:network.c     **** uint8_t ntpFlagReadyForReceive;         //indicator ready for receive next packet
  88:network.c     **** NtpResp recvDataNTP;
  89:network.c     **** uint8_t onNtpSync = 0;
ARM GAS  C:\Users\Petro\AppData\Local\Temp\ccOLGOpz.s 			page 3


  90:network.c     **** 
  91:network.c     **** /*timer time sync*/
  92:network.c     **** uint32_t oldUnixTime;
  93:network.c     **** 
  94:network.c     **** 
  95:network.c     **** uint32_t SendRealTimeToStart(void);
  96:network.c     **** void NTPsendTime(uint32_t unixTime1,uint16_t millis1, uint16_t ID);
  97:network.c     **** uint32_t NTPreceiveTime(uint32_t *unixTime2,uint16_t *millis2, uint32_t *unixTime3, uint16_t *milli
  98:network.c     **** uint32_t NTPsetTimeToStart(uint32_t unixTime4,uint16_t millis4,  uint16_t ID);
  99:network.c     **** void NTPcalculateTime(uint32_t unixTime[], uint16_t msTime[], int32_t *sumTime, int32_t *sumMs);
 100:network.c     **** void CustomInterruptHandler(void);
 101:network.c     **** void FuncTake(uint32_t sec1, uint16_t ms1, uint32_t sec2, uint16_t ms2, int32_t *resultSec, int16_t
 102:network.c     **** 
 103:network.c     **** 
 104:network.c     **** 
 105:network.c     **** /*******************************************************************************
 106:network.c     **** * Function Name: InitNetwork
 107:network.c     **** ********************************************************************************
 108:network.c     **** *
 109:network.c     **** * Summary:
 110:network.c     **** *   initialization UART for XBee module
 111:network.c     **** *
 112:network.c     **** *******************************************************************************/
 113:network.c     **** void InitNetwork(void)
 114:network.c     **** {
 115:network.c     ****     UART_XB_Start();
 116:network.c     ****     UART_XB_SetCustomInterruptHandler(&CustomInterruptHandler);
 117:network.c     ****     
 118:network.c     ****     #ifdef DEBUG_INFO
 119:network.c     ****     DEBUG_UART_Start();     
 120:network.c     ****     DEBUG_UART_UartPutString("HElLO, IM READY(fin)\n\r");
 121:network.c     ****     #endif
 122:network.c     ****     
 123:network.c     ****     inData.readStatus = READ_OK;
 124:network.c     ****     outData.writeStatus = NO_WRITE;
 125:network.c     ****     UART_XB_SpiUartClearRxBuffer();
 126:network.c     ****     
 127:network.c     ****     networkStatus = NETWORK_DISCONNECT;
 128:network.c     ****     rebootFlag = REBOOT;
 129:network.c     **** }
 130:network.c     **** 
 131:network.c     **** 
 132:network.c     **** void CustomInterruptHandler(void)
 133:network.c     **** {
  26              		.loc 1 133 0
  27              		.cfi_startproc
  28 0000 70B5     		push	{r4, r5, r6, lr}
  29              		.cfi_def_cfa_offset 16
  30              		.cfi_offset 4, -16
  31              		.cfi_offset 5, -12
  32              		.cfi_offset 6, -8
  33              		.cfi_offset 14, -4
 134:network.c     ****     if(onNtpSync)
  34              		.loc 1 134 0
  35 0002 174B     		ldr	r3, .L18
  36 0004 1B78     		ldrb	r3, [r3]
  37 0006 002B     		cmp	r3, #0
ARM GAS  C:\Users\Petro\AppData\Local\Temp\ccOLGOpz.s 			page 4


  38 0008 29D0     		beq	.L1
  39              	.LVL0:
  40              	.LBB7:
 135:network.c     ****     {
 136:network.c     ****         uint8_t byte = 0;
 137:network.c     ****         
 138:network.c     ****         if(UART_XB_SpiUartGetRxBufferSize() > 0)
  41              		.loc 1 138 0
  42 000a FFF7FEFF 		bl	UART_XB_SpiUartGetRxBufferSize
  43              	.LVL1:
 136:network.c     ****         
  44              		.loc 1 136 0
  45 000e 0021     		mov	r1, #0
  46              		.loc 1 138 0
  47 0010 8842     		cmp	r0, r1
  48 0012 02D0     		beq	.L4
 139:network.c     ****             byte=UART_XB_UartGetChar();
  49              		.loc 1 139 0
  50 0014 FFF7FEFF 		bl	UART_XB_UartGetChar
  51              	.LVL2:
  52 0018 C1B2     		uxtb	r1, r0
  53              	.LVL3:
  54              	.L4:
 140:network.c     ****         
 141:network.c     ****         if(ntpFlagReadyForReceive && byte != 0)
  55              		.loc 1 141 0
  56 001a 124D     		ldr	r5, .L18+4
  57 001c 2B78     		ldrb	r3, [r5]
  58 001e 002B     		cmp	r3, #0
  59 0020 1DD0     		beq	.L1
  60              		.loc 1 141 0 is_stmt 0 discriminator 1
  61 0022 0029     		cmp	r1, #0
  62 0024 1BD0     		beq	.L1
 142:network.c     ****         {
 143:network.c     ****             NtpUnpackData(&recvDataNTP, (uint8_t)(byte & 0xFF));
  63              		.loc 1 143 0 is_stmt 1
  64 0026 104C     		ldr	r4, .L18+8
  65 0028 201C     		mov	r0, r4
  66 002a FFF7FEFF 		bl	NtpUnpackData
  67              	.LVL4:
 144:network.c     ****             
 145:network.c     ****             if(recvDataNTP.EndPacket)
  68              		.loc 1 145 0
  69 002e 237D     		ldrb	r3, [r4, #20]
  70 0030 002B     		cmp	r3, #0
  71 0032 14D0     		beq	.L1
  72              	.LBE7:
  73              	.LBB8:
  74              	.LBB9:
 146:network.c     ****             {
 147:network.c     ****                 unixTime[T4] = RTC_GetUnixTime();
  75              		.loc 1 147 0
  76 0034 FFF7FEFF 		bl	RTC_GetUnixTime
  77              	.LVL5:
  78 0038 0C4E     		ldr	r6, .L18+12
  79 003a F060     		str	r0, [r6, #12]
 148:network.c     ****                 millisTime[T4] = RTCgetRecentMs();
ARM GAS  C:\Users\Petro\AppData\Local\Temp\ccOLGOpz.s 			page 5


  80              		.loc 1 148 0
  81 003c FFF7FEFF 		bl	RTCgetRecentMs
  82              	.LVL6:
  83 0040 0B4B     		ldr	r3, .L18+16
 149:network.c     ****                 unixTime[T2] = recvDataNTP.Data1;
  84              		.loc 1 149 0
  85 0042 6268     		ldr	r2, [r4, #4]
 148:network.c     ****                 millisTime[T4] = RTCgetRecentMs();
  86              		.loc 1 148 0
  87 0044 D880     		strh	r0, [r3, #6]
  88              		.loc 1 149 0
  89 0046 7260     		str	r2, [r6, #4]
 150:network.c     ****                 millisTime[T2] = recvDataNTP.DataMs1;
  90              		.loc 1 150 0
  91 0048 2289     		ldrh	r2, [r4, #8]
  92 004a 5A80     		strh	r2, [r3, #2]
 151:network.c     ****                 unixTime[T3] = recvDataNTP.Data2;
  93              		.loc 1 151 0
  94 004c E268     		ldr	r2, [r4, #12]
  95 004e B260     		str	r2, [r6, #8]
 152:network.c     ****                 millisTime[T3] = recvDataNTP.DataMs2;
  96              		.loc 1 152 0
  97 0050 6289     		ldrh	r2, [r4, #10]
  98 0052 9A80     		strh	r2, [r3, #4]
 153:network.c     ****                 
 154:network.c     ****                 #ifdef DEBUGNTP
 155:network.c     ****                     pinDebugNtp_Write(1);
 156:network.c     ****                     pinDebugNtp_Write(0);
 157:network.c     ****                 #endif
 158:network.c     ****                 
 159:network.c     ****                 ntpFlagEndReceivePacket = 1;
  99              		.loc 1 159 0
 100 0054 0122     		mov	r2, #1
 101 0056 074B     		ldr	r3, .L18+20
 102 0058 1A70     		strb	r2, [r3]
 160:network.c     ****                 ntpFlagReadyForReceive = 0;
 103              		.loc 1 160 0
 104 005a 0023     		mov	r3, #0
 105 005c 2B70     		strb	r3, [r5]
 106              	.L1:
 107              	.LBE9:
 108              	.LBE8:
 161:network.c     ****             }
 162:network.c     ****         }
 163:network.c     ****     }
 164:network.c     ****     
 165:network.c     **** }
 109              		.loc 1 165 0
 110              		@ sp needed
 111 005e 70BD     		pop	{r4, r5, r6, pc}
 112              	.L19:
 113              		.align	2
 114              	.L18:
 115 0060 00000000 		.word	.LANCHOR0
 116 0064 00000000 		.word	ntpFlagReadyForReceive
 117 0068 00000000 		.word	recvDataNTP
 118 006c 00000000 		.word	unixTime
ARM GAS  C:\Users\Petro\AppData\Local\Temp\ccOLGOpz.s 			page 6


 119 0070 00000000 		.word	millisTime
 120 0074 00000000 		.word	ntpFlagEndReceivePacket
 121              		.cfi_endproc
 122              	.LFE64:
 123              		.size	CustomInterruptHandler, .-CustomInterruptHandler
 124              		.section	.text.InitNetwork,"ax",%progbits
 125              		.align	1
 126              		.global	InitNetwork
 127              		.code	16
 128              		.thumb_func
 129              		.type	InitNetwork, %function
 130              	InitNetwork:
 131              	.LFB63:
 114:network.c     ****     UART_XB_Start();
 132              		.loc 1 114 0
 133              		.cfi_startproc
 134 0000 10B5     		push	{r4, lr}
 135              		.cfi_def_cfa_offset 8
 136              		.cfi_offset 4, -8
 137              		.cfi_offset 14, -4
 115:network.c     ****     UART_XB_SetCustomInterruptHandler(&CustomInterruptHandler);
 138              		.loc 1 115 0
 139 0002 FFF7FEFF 		bl	UART_XB_Start
 140              	.LVL7:
 116:network.c     ****     
 141              		.loc 1 116 0
 142 0006 0848     		ldr	r0, .L21
 143 0008 FFF7FEFF 		bl	UART_XB_SetCustomInterruptHandler
 144              	.LVL8:
 123:network.c     ****     outData.writeStatus = NO_WRITE;
 145              		.loc 1 123 0
 146 000c 0122     		mov	r2, #1
 124:network.c     ****     UART_XB_SpiUartClearRxBuffer();
 147              		.loc 1 124 0
 148 000e 0024     		mov	r4, #0
 123:network.c     ****     outData.writeStatus = NO_WRITE;
 149              		.loc 1 123 0
 150 0010 064B     		ldr	r3, .L21+4
 129:network.c     **** 
 151              		.loc 1 129 0
 152              		@ sp needed
 123:network.c     ****     outData.writeStatus = NO_WRITE;
 153              		.loc 1 123 0
 154 0012 5A75     		strb	r2, [r3, #21]
 124:network.c     ****     UART_XB_SpiUartClearRxBuffer();
 155              		.loc 1 124 0
 156 0014 064B     		ldr	r3, .L21+8
 157 0016 9C74     		strb	r4, [r3, #18]
 125:network.c     ****     
 158              		.loc 1 125 0
 159 0018 FFF7FEFF 		bl	UART_XB_SpiUartClearRxBuffer
 160              	.LVL9:
 128:network.c     **** }
 161              		.loc 1 128 0
 162 001c FF22     		mov	r2, #255
 127:network.c     ****     rebootFlag = REBOOT;
 163              		.loc 1 127 0
ARM GAS  C:\Users\Petro\AppData\Local\Temp\ccOLGOpz.s 			page 7


 164 001e 054B     		ldr	r3, .L21+12
 165 0020 1C80     		strh	r4, [r3]
 128:network.c     **** }
 166              		.loc 1 128 0
 167 0022 054B     		ldr	r3, .L21+16
 168 0024 1A70     		strb	r2, [r3]
 129:network.c     **** 
 169              		.loc 1 129 0
 170 0026 10BD     		pop	{r4, pc}
 171              	.L22:
 172              		.align	2
 173              	.L21:
 174 0028 00000000 		.word	CustomInterruptHandler
 175 002c 00000000 		.word	inData
 176 0030 00000000 		.word	outData
 177 0034 00000000 		.word	networkStatus
 178 0038 00000000 		.word	rebootFlag
 179              		.cfi_endproc
 180              	.LFE63:
 181              		.size	InitNetwork, .-InitNetwork
 182              		.section	.text.SendData,"ax",%progbits
 183              		.align	1
 184              		.global	SendData
 185              		.code	16
 186              		.thumb_func
 187              		.type	SendData, %function
 188              	SendData:
 189              	.LFB65:
 166:network.c     **** 
 167:network.c     **** 
 168:network.c     **** /*******************************************************************************
 169:network.c     **** * Function Name: SendData
 170:network.c     **** ********************************************************************************
 171:network.c     **** *
 172:network.c     **** * Summary:
 173:network.c     **** *   send data to start from struct "outData"
 174:network.c     **** *
 175:network.c     **** *******************************************************************************/
 176:network.c     **** void SendData(void)
 177:network.c     **** {   
 190              		.loc 1 177 0
 191              		.cfi_startproc
 192 0000 70B5     		push	{r4, r5, r6, lr}
 193              		.cfi_def_cfa_offset 16
 194              		.cfi_offset 4, -16
 195              		.cfi_offset 5, -12
 196              		.cfi_offset 6, -8
 197              		.cfi_offset 14, -4
 178:network.c     ****     if( outData.writeStatus == NO_WRITE || inData.readStatus == READ_OK)
 198              		.loc 1 178 0
 199 0002 164C     		ldr	r4, .L29
 177:network.c     ****     if( outData.writeStatus == NO_WRITE || inData.readStatus == READ_OK)
 200              		.loc 1 177 0
 201 0004 9EB0     		sub	sp, sp, #120
 202              		.cfi_def_cfa_offset 136
 203              		.loc 1 178 0
 204 0006 A37C     		ldrb	r3, [r4, #18]
ARM GAS  C:\Users\Petro\AppData\Local\Temp\ccOLGOpz.s 			page 8


 205 0008 154E     		ldr	r6, .L29+4
 206 000a 002B     		cmp	r3, #0
 207 000c 02D0     		beq	.L24
 208              		.loc 1 178 0 is_stmt 0 discriminator 1
 209 000e 737D     		ldrb	r3, [r6, #21]
 210 0010 012B     		cmp	r3, #1
 211 0012 20D1     		bne	.L23
 212              	.L24:
 213              	.LBB10:
 179:network.c     ****     {
 180:network.c     ****         char sendBuffer[DATA_BUFFER];
 181:network.c     ****         char sendData[DATA_BUFFER];
 182:network.c     ****         
 183:network.c     ****         outData.countSkiers = SkierOnWay();
 214              		.loc 1 183 0 is_stmt 1
 215 0014 FFF7FEFF 		bl	SkierOnWay
 216              	.LVL10:
 184:network.c     ****         
 185:network.c     ****         /*pack data*/
 186:network.c     ****         sprintf(sendData,"%02X:%016X%02X%02X%02X%02X", outData.testMode, 0u, outData.ready, outData
 217              		.loc 1 186 0
 218 0018 0025     		mov	r5, #0
 219 001a 6378     		ldrb	r3, [r4, #1]
 183:network.c     ****         
 220              		.loc 1 183 0
 221 001c E070     		strb	r0, [r4, #3]
 222              		.loc 1 186 0
 223 001e 2279     		ldrb	r2, [r4, #4]
 224 0020 0093     		str	r3, [sp]
 225 0022 A378     		ldrb	r3, [r4, #2]
 226 0024 C0B2     		uxtb	r0, r0
 227 0026 0193     		str	r3, [sp, #4]
 228 0028 0290     		str	r0, [sp, #8]
 229 002a 2B1C     		mov	r3, r5
 230 002c 0D49     		ldr	r1, .L29+8
 231 002e 0395     		str	r5, [sp, #12]
 232 0030 11A8     		add	r0, sp, #68
 233 0032 FFF7FEFF 		bl	sprintf
 234              	.LVL11:
 187:network.c     ****             outData.countSkiers, 0u);    
 188:network.c     ****         PackData(sendBuffer, (uint8_t *)sendData, outData.IDpacket);
 235              		.loc 1 188 0
 236 0036 2278     		ldrb	r2, [r4]
 237 0038 11A9     		add	r1, sp, #68
 238 003a 04A8     		add	r0, sp, #16
 239 003c FFF7FEFF 		bl	PackData
 240              	.LVL12:
 189:network.c     ****         UART_XB_UartPutString(sendBuffer);
 241              		.loc 1 189 0
 242 0040 04A8     		add	r0, sp, #16
 243 0042 FFF7FEFF 		bl	UART_XB_UartPutString
 244              	.LVL13:
 190:network.c     ****         
 191:network.c     ****         
 192:network.c     ****         /*flag transmit data*/
 193:network.c     ****         outData.writeStatus = WRITE_OK;
 245              		.loc 1 193 0
ARM GAS  C:\Users\Petro\AppData\Local\Temp\ccOLGOpz.s 			page 9


 246 0046 0123     		mov	r3, #1
 247 0048 A374     		strb	r3, [r4, #18]
 194:network.c     ****         inData.readStatus = NO_READ;
 195:network.c     ****         
 196:network.c     ****         /*set timeout*/
 197:network.c     ****         noConnect = 0; 
 248              		.loc 1 197 0
 249 004a 074B     		ldr	r3, .L29+12
 198:network.c     ****         
 199:network.c     ****         CyDelay(50);
 250              		.loc 1 199 0
 251 004c 3220     		mov	r0, #50
 194:network.c     ****         inData.readStatus = NO_READ;
 252              		.loc 1 194 0
 253 004e 7575     		strb	r5, [r6, #21]
 197:network.c     ****         
 254              		.loc 1 197 0
 255 0050 1D80     		strh	r5, [r3]
 256              		.loc 1 199 0
 257 0052 FFF7FEFF 		bl	CyDelay
 258              	.LVL14:
 259              	.L23:
 260              	.LBE10:
 200:network.c     ****     }
 201:network.c     **** }
 261              		.loc 1 201 0
 262 0056 1EB0     		add	sp, sp, #120
 263              		@ sp needed
 264 0058 70BD     		pop	{r4, r5, r6, pc}
 265              	.L30:
 266 005a C046     		.align	2
 267              	.L29:
 268 005c 00000000 		.word	outData
 269 0060 00000000 		.word	inData
 270 0064 00000000 		.word	.LC13
 271 0068 00000000 		.word	noConnect
 272              		.cfi_endproc
 273              	.LFE65:
 274              		.size	SendData, .-SendData
 275              		.section	.text.ReceiveData,"ax",%progbits
 276              		.align	1
 277              		.global	ReceiveData
 278              		.code	16
 279              		.thumb_func
 280              		.type	ReceiveData, %function
 281              	ReceiveData:
 282              	.LFB66:
 202:network.c     **** 
 203:network.c     **** /*******************************************************************************
 204:network.c     **** * Function Name: ReceiveData
 205:network.c     **** ********************************************************************************
 206:network.c     **** *
 207:network.c     **** * Summary:
 208:network.c     **** *   receive data from start in struct "inData"
 209:network.c     **** * Return:
 210:network.c     **** *   NETWORK_CONNECT or NETWORK_DISCONNECT
 211:network.c     **** *
ARM GAS  C:\Users\Petro\AppData\Local\Temp\ccOLGOpz.s 			page 10


 212:network.c     **** *******************************************************************************/
 213:network.c     **** uint32_t  ReceiveData(void)
 214:network.c     **** {   
 283              		.loc 1 214 0
 284              		.cfi_startproc
 285 0000 F0B5     		push	{r4, r5, r6, r7, lr}
 286              		.cfi_def_cfa_offset 20
 287              		.cfi_offset 4, -20
 288              		.cfi_offset 5, -16
 289              		.cfi_offset 6, -12
 290              		.cfi_offset 7, -8
 291              		.cfi_offset 14, -4
 215:network.c     ****     if(inData.readStatus == NO_READ && outData.writeStatus == WRITE_OK)
 216:network.c     ****     {
 217:network.c     ****         uint32_t result = 0;
 218:network.c     ****         int i;
 219:network.c     ****         uint8_t byte;
 220:network.c     ****         struct Resp recvData;
 221:network.c     ****           
 222:network.c     ****         while((UART_XB_SpiUartGetRxBufferSize() > 0) && ((byte=UART_XB_UartGetChar()) != 0))
 223:network.c     ****         { 
 224:network.c     ****             result = UnpackData(&recvData, (uint8_t)(byte & 0xFF));
 225:network.c     ****             CyDelay(2);
 226:network.c     ****             
 227:network.c     ****             
 228:network.c     ****             if(recvData.EndPacket == 1)
 229:network.c     ****             {
 230:network.c     ****                 inData.IDpacket = recvData.Seq;
 231:network.c     ****                 
 232:network.c     ****                 /*id packet ok*/
 233:network.c     ****                 if(outData.IDpacket == inData.IDpacket)
 234:network.c     ****                 {
 235:network.c     ****                     inData.readStatus = READ_OK;
 236:network.c     ****                     outData.writeStatus = NO_WRITE;
 237:network.c     ****                     
 238:network.c     ****                     /*connect network*/
 239:network.c     ****                     networkStatus = NETWORK_CONNECT;
 240:network.c     ****                     noConnect = 0;
 241:network.c     ****                     
 242:network.c     ****                     /*write data*/
 243:network.c     ****                     inData.newSkier = (recvData.Data3 & 0xFF00) >> 8;
 244:network.c     ****                     inData.unixStartTime = recvData.Data1;
 245:network.c     ****                     inData.startMsTime = recvData.Data2;
 246:network.c     ****                     inData.reboot = (recvData.Data3 & 0x00FF);
 247:network.c     ****                     inData.testMode = recvData.Command;
 248:network.c     ****                     
 249:network.c     ****                     /*if new skier on track*/
 250:network.c     ****                     if(inData.newSkier == NEW_SKIER_IN_TARCK )
 251:network.c     ****                     {
 252:network.c     ****                         WriteStartTime(inData.unixStartTime, inData.startMsTime);
 253:network.c     ****                         BLE_sendOneSkierTimeStart(inData.unixStartTime, inData.startMsTime,GetIDski
 254:network.c     ****                         IncrementID();
 255:network.c     ****                     }
 256:network.c     ****                     
 257:network.c     ****                     /*next packet*/
 258:network.c     ****                     outData.IDpacket++;
 259:network.c     ****                     CyDelay(50);
ARM GAS  C:\Users\Petro\AppData\Local\Temp\ccOLGOpz.s 			page 11


 260:network.c     ****                 }  
 261:network.c     ****                 /* if prev packet late*/
 262:network.c     ****                 else if(outData.IDpacket == (inData.IDpacket + 1))
 263:network.c     ****                 {
 264:network.c     ****                     inData.newSkier = recvData.Data3;
 265:network.c     ****                     inData.unixStartTime = recvData.Data1;
 266:network.c     ****                     inData.startMsTime = recvData.Data2;
 267:network.c     ****                     
 268:network.c     ****                     networkStatus = NETWORK_CONNECT;
 269:network.c     ****                     noConnect = 0;
 270:network.c     ****                     CyDelay(50);
 271:network.c     ****                 }
 272:network.c     ****                 return  NETWORK_CONNECT;  
 273:network.c     ****             }
 274:network.c     ****         }
 275:network.c     ****         
 276:network.c     ****         noConnect++;
 277:network.c     ****         if(noConnect >= NETWORK_TIMEOUT)
 278:network.c     ****         {
 279:network.c     ****             outData.writeStatus = NO_WRITE;
 280:network.c     ****             inData.readStatus = NO_READ;
 281:network.c     ****             networkStatus = NETWORK_DISCONNECT;
 282:network.c     ****         }
 283:network.c     ****         
 284:network.c     ****         return  NETWORK_DISCONNECT;
 285:network.c     ****     }
 286:network.c     ****     return 0;
 292              		.loc 1 286 0
 293 0002 0026     		mov	r6, #0
 215:network.c     ****     if(inData.readStatus == NO_READ && outData.writeStatus == WRITE_OK)
 294              		.loc 1 215 0
 295 0004 3B4D     		ldr	r5, .L44
 214:network.c     ****     if(inData.readStatus == NO_READ && outData.writeStatus == WRITE_OK)
 296              		.loc 1 214 0
 297 0006 8DB0     		sub	sp, sp, #52
 298              		.cfi_def_cfa_offset 72
 215:network.c     ****     if(inData.readStatus == NO_READ && outData.writeStatus == WRITE_OK)
 299              		.loc 1 215 0
 300 0008 6B7D     		ldrb	r3, [r5, #21]
 301 000a B342     		cmp	r3, r6
 302 000c 6FD1     		bne	.L32
 215:network.c     ****     if(inData.readStatus == NO_READ && outData.writeStatus == WRITE_OK)
 303              		.loc 1 215 0 is_stmt 0 discriminator 1
 304 000e 3A4C     		ldr	r4, .L44+4
 305 0010 A37C     		ldrb	r3, [r4, #18]
 306 0012 012B     		cmp	r3, #1
 307 0014 6BD1     		bne	.L32
 308              	.L33:
 309              	.LBB11:
 222:network.c     ****         { 
 310              		.loc 1 222 0 is_stmt 1
 311 0016 FFF7FEFF 		bl	UART_XB_SpiUartGetRxBufferSize
 312              	.LVL15:
 313 001a 0028     		cmp	r0, #0
 314 001c 0CD1     		bne	.L37
 315              	.L40:
 276:network.c     ****         if(noConnect >= NETWORK_TIMEOUT)
ARM GAS  C:\Users\Petro\AppData\Local\Temp\ccOLGOpz.s 			page 12


 316              		.loc 1 276 0
 317 001e 374A     		ldr	r2, .L44+8
 318 0020 0026     		mov	r6, #0
 319 0022 1388     		ldrh	r3, [r2]
 320 0024 0133     		add	r3, r3, #1
 321 0026 9BB2     		uxth	r3, r3
 322 0028 1380     		strh	r3, [r2]
 277:network.c     ****         {
 323              		.loc 1 277 0
 324 002a 312B     		cmp	r3, #49
 325 002c 5FD9     		bls	.L32
 281:network.c     ****         }
 326              		.loc 1 281 0
 327 002e 344B     		ldr	r3, .L44+12
 279:network.c     ****             inData.readStatus = NO_READ;
 328              		.loc 1 279 0
 329 0030 A674     		strb	r6, [r4, #18]
 280:network.c     ****             networkStatus = NETWORK_DISCONNECT;
 330              		.loc 1 280 0
 331 0032 6E75     		strb	r6, [r5, #21]
 281:network.c     ****         }
 332              		.loc 1 281 0
 333 0034 1E80     		strh	r6, [r3]
 334 0036 5AE0     		b	.L32
 335              	.L37:
 222:network.c     ****         { 
 336              		.loc 1 222 0 discriminator 1
 337 0038 FFF7FEFF 		bl	UART_XB_UartGetChar
 338              	.LVL16:
 339 003c C1B2     		uxtb	r1, r0
 340              	.LVL17:
 341 003e 0029     		cmp	r1, #0
 342 0040 EDD0     		beq	.L40
 224:network.c     ****             CyDelay(2);
 343              		.loc 1 224 0
 344 0042 04AF     		add	r7, sp, #16
 345 0044 381C     		mov	r0, r7
 346 0046 FFF7FEFF 		bl	UnpackData
 347              	.LVL18:
 225:network.c     ****             
 348              		.loc 1 225 0
 349 004a 0220     		mov	r0, #2
 350 004c FFF7FEFF 		bl	CyDelay
 351              	.LVL19:
 228:network.c     ****             {
 352              		.loc 1 228 0
 353 0050 3E7E     		ldrb	r6, [r7, #24]
 354 0052 012E     		cmp	r6, #1
 355 0054 DFD1     		bne	.L33
 230:network.c     ****                 
 356              		.loc 1 230 0
 357 0056 3B78     		ldrb	r3, [r7]
 233:network.c     ****                 {
 358              		.loc 1 233 0
 359 0058 2278     		ldrb	r2, [r4]
 230:network.c     ****                 
 360              		.loc 1 230 0
ARM GAS  C:\Users\Petro\AppData\Local\Temp\ccOLGOpz.s 			page 13


 361 005a 2B70     		strb	r3, [r5]
 233:network.c     ****                 {
 362              		.loc 1 233 0
 363 005c 9A42     		cmp	r2, r3
 364 005e 33D1     		bne	.L34
 244:network.c     ****                     inData.startMsTime = recvData.Data2;
 365              		.loc 1 244 0
 366 0060 B868     		ldr	r0, [r7, #8]
 367 0062 F968     		ldr	r1, [r7, #12]
 236:network.c     ****                     
 368              		.loc 1 236 0
 369 0064 0023     		mov	r3, #0
 239:network.c     ****                     noConnect = 0;
 370              		.loc 1 239 0
 371 0066 264A     		ldr	r2, .L44+12
 236:network.c     ****                     
 372              		.loc 1 236 0
 373 0068 A374     		strb	r3, [r4, #18]
 239:network.c     ****                     noConnect = 0;
 374              		.loc 1 239 0
 375 006a 1680     		strh	r6, [r2]
 240:network.c     ****                     
 376              		.loc 1 240 0
 377 006c 234A     		ldr	r2, .L44+8
 235:network.c     ****                     outData.writeStatus = NO_WRITE;
 378              		.loc 1 235 0
 379 006e 6E75     		strb	r6, [r5, #21]
 240:network.c     ****                     
 380              		.loc 1 240 0
 381 0070 1380     		strh	r3, [r2]
 243:network.c     ****                     inData.unixStartTime = recvData.Data1;
 382              		.loc 1 243 0
 383 0072 7E8A     		ldrh	r6, [r7, #18]
 244:network.c     ****                     inData.startMsTime = recvData.Data2;
 384              		.loc 1 244 0
 385 0074 A860     		str	r0, [r5, #8]
 386 0076 E960     		str	r1, [r5, #12]
 243:network.c     ****                     inData.unixStartTime = recvData.Data1;
 387              		.loc 1 243 0
 388 0078 330A     		lsr	r3, r6, #8
 389 007a AB74     		strb	r3, [r5, #18]
 245:network.c     ****                     inData.reboot = (recvData.Data3 & 0x00FF);
 390              		.loc 1 245 0
 391 007c 3A8A     		ldrh	r2, [r7, #16]
 246:network.c     ****                     inData.testMode = recvData.Command;
 392              		.loc 1 246 0
 393 007e 2E75     		strb	r6, [r5, #20]
 247:network.c     ****                     
 394              		.loc 1 247 0
 395 0080 7E68     		ldr	r6, [r7, #4]
 245:network.c     ****                     inData.reboot = (recvData.Data3 & 0x00FF);
 396              		.loc 1 245 0
 397 0082 2A82     		strh	r2, [r5, #16]
 247:network.c     ****                     
 398              		.loc 1 247 0
 399 0084 EE74     		strb	r6, [r5, #19]
 250:network.c     ****                     {
ARM GAS  C:\Users\Petro\AppData\Local\Temp\ccOLGOpz.s 			page 14


 400              		.loc 1 250 0
 401 0086 012B     		cmp	r3, #1
 402 0088 16D1     		bne	.L35
 252:network.c     ****                         BLE_sendOneSkierTimeStart(inData.unixStartTime, inData.startMsTime,GetIDski
 403              		.loc 1 252 0
 404 008a FFF7FEFF 		bl	WriteStartTime
 405              	.LVL20:
 253:network.c     ****                         IncrementID();
 406              		.loc 1 253 0
 407 008e AE68     		ldr	r6, [r5, #8]
 408 0090 EF68     		ldr	r7, [r5, #12]
 409 0092 2B8A     		ldrh	r3, [r5, #16]
 410 0094 0393     		str	r3, [sp, #12]
 411 0096 FFF7FEFF 		bl	GetIDskierStarted
 412              	.LVL21:
 413 009a 051C     		mov	r5, r0
 414 009c FFF7FEFF 		bl	SkierOnWay
 415              	.LVL22:
 416 00a0 0422     		mov	r2, #4
 417 00a2 C0B2     		uxtb	r0, r0
 418 00a4 EBB2     		uxtb	r3, r5
 419 00a6 0090     		str	r0, [sp]
 420 00a8 0192     		str	r2, [sp, #4]
 421 00aa 301C     		mov	r0, r6
 422 00ac 391C     		mov	r1, r7
 423 00ae 039A     		ldr	r2, [sp, #12]
 424 00b0 FFF7FEFF 		bl	BLE_sendOneSkierTimeStart
 425              	.LVL23:
 254:network.c     ****                     }
 426              		.loc 1 254 0
 427 00b4 FFF7FEFF 		bl	IncrementID
 428              	.LVL24:
 429              	.L35:
 258:network.c     ****                     CyDelay(50);
 430              		.loc 1 258 0
 431 00b8 2378     		ldrb	r3, [r4]
 259:network.c     ****                 }  
 432              		.loc 1 259 0
 433 00ba 3220     		mov	r0, #50
 258:network.c     ****                     CyDelay(50);
 434              		.loc 1 258 0
 435 00bc 0133     		add	r3, r3, #1
 436 00be 2370     		strb	r3, [r4]
 272:network.c     ****             }
 437              		.loc 1 272 0
 438 00c0 0126     		mov	r6, #1
 259:network.c     ****                 }  
 439              		.loc 1 259 0
 440 00c2 FFF7FEFF 		bl	CyDelay
 441              	.LVL25:
 442 00c6 12E0     		b	.L32
 443              	.L34:
 262:network.c     ****                 {
 444              		.loc 1 262 0
 445 00c8 0133     		add	r3, r3, #1
 446 00ca 9A42     		cmp	r2, r3
 447 00cc 0FD1     		bne	.L32
ARM GAS  C:\Users\Petro\AppData\Local\Temp\ccOLGOpz.s 			page 15


 269:network.c     ****                     CyDelay(50);
 448              		.loc 1 269 0
 449 00ce 0022     		mov	r2, #0
 264:network.c     ****                     inData.unixStartTime = recvData.Data1;
 450              		.loc 1 264 0
 451 00d0 7B8A     		ldrh	r3, [r7, #18]
 270:network.c     ****                 }
 452              		.loc 1 270 0
 453 00d2 3220     		mov	r0, #50
 264:network.c     ****                     inData.unixStartTime = recvData.Data1;
 454              		.loc 1 264 0
 455 00d4 AB74     		strb	r3, [r5, #18]
 265:network.c     ****                     inData.startMsTime = recvData.Data2;
 456              		.loc 1 265 0
 457 00d6 BB68     		ldr	r3, [r7, #8]
 458 00d8 FC68     		ldr	r4, [r7, #12]
 459 00da AB60     		str	r3, [r5, #8]
 460 00dc EC60     		str	r4, [r5, #12]
 266:network.c     ****                     
 461              		.loc 1 266 0
 462 00de 3B8A     		ldrh	r3, [r7, #16]
 463 00e0 2B82     		strh	r3, [r5, #16]
 268:network.c     ****                     noConnect = 0;
 464              		.loc 1 268 0
 465 00e2 074B     		ldr	r3, .L44+12
 466 00e4 1E80     		strh	r6, [r3]
 269:network.c     ****                     CyDelay(50);
 467              		.loc 1 269 0
 468 00e6 054B     		ldr	r3, .L44+8
 469 00e8 1A80     		strh	r2, [r3]
 270:network.c     ****                 }
 470              		.loc 1 270 0
 471 00ea FFF7FEFF 		bl	CyDelay
 472              	.LVL26:
 473              	.L32:
 474              	.LBE11:
 287:network.c     **** }
 475              		.loc 1 287 0 discriminator 1
 476 00ee 301C     		mov	r0, r6
 477 00f0 0DB0     		add	sp, sp, #52
 478              		@ sp needed
 479 00f2 F0BD     		pop	{r4, r5, r6, r7, pc}
 480              	.L45:
 481              		.align	2
 482              	.L44:
 483 00f4 00000000 		.word	inData
 484 00f8 00000000 		.word	outData
 485 00fc 00000000 		.word	noConnect
 486 0100 00000000 		.word	networkStatus
 487              		.cfi_endproc
 488              	.LFE66:
 489              		.size	ReceiveData, .-ReceiveData
 490              		.section	.text.SendFinStatus,"ax",%progbits
 491              		.align	1
 492              		.global	SendFinStatus
 493              		.code	16
 494              		.thumb_func
ARM GAS  C:\Users\Petro\AppData\Local\Temp\ccOLGOpz.s 			page 16


 495              		.type	SendFinStatus, %function
 496              	SendFinStatus:
 497              	.LFB67:
 288:network.c     **** 
 289:network.c     **** 
 290:network.c     **** /*******************************************************************************
 291:network.c     **** * Function Name: SendFinStatus
 292:network.c     **** ********************************************************************************
 293:network.c     **** *
 294:network.c     **** * Summary:
 295:network.c     **** *   set fin status
 296:network.c     **** * Parametrs:
 297:network.c     **** *   FIN_READY or FIN_NO_READY
 298:network.c     **** *
 299:network.c     **** *******************************************************************************/
 300:network.c     **** void SendFinStatus(uint32_t status)
 301:network.c     **** {
 498              		.loc 1 301 0
 499              		.cfi_startproc
 500              	.LVL27:
 302:network.c     ****     outData.ready = status;
 501              		.loc 1 302 0
 502 0000 014B     		ldr	r3, .L47
 303:network.c     **** }
 503              		.loc 1 303 0
 504              		@ sp needed
 302:network.c     ****     outData.ready = status;
 505              		.loc 1 302 0
 506 0002 5870     		strb	r0, [r3, #1]
 507              		.loc 1 303 0
 508 0004 7047     		bx	lr
 509              	.L48:
 510 0006 C046     		.align	2
 511              	.L47:
 512 0008 00000000 		.word	outData
 513              		.cfi_endproc
 514              	.LFE67:
 515              		.size	SendFinStatus, .-SendFinStatus
 516              		.section	.text.NetworkStatus,"ax",%progbits
 517              		.align	1
 518              		.global	NetworkStatus
 519              		.code	16
 520              		.thumb_func
 521              		.type	NetworkStatus, %function
 522              	NetworkStatus:
 523              	.LFB68:
 304:network.c     **** 
 305:network.c     **** /*******************************************************************************
 306:network.c     **** * Function Name: NetworkStatus
 307:network.c     **** ********************************************************************************
 308:network.c     **** *
 309:network.c     **** * Summary:
 310:network.c     **** *   read network status
 311:network.c     **** * Return:
 312:network.c     **** *   NETWORK_CONNECT or NETWORK_DISCONNECT
 313:network.c     **** *
 314:network.c     **** *******************************************************************************/
ARM GAS  C:\Users\Petro\AppData\Local\Temp\ccOLGOpz.s 			page 17


 315:network.c     **** uint32_t NetworkStatus(void)
 316:network.c     **** {
 524              		.loc 1 316 0
 525              		.cfi_startproc
 317:network.c     ****     return networkStatus;
 526              		.loc 1 317 0
 527 0000 014B     		ldr	r3, .L50
 318:network.c     **** }
 528              		.loc 1 318 0
 529              		@ sp needed
 317:network.c     ****     return networkStatus;
 530              		.loc 1 317 0
 531 0002 1888     		ldrh	r0, [r3]
 532              		.loc 1 318 0
 533 0004 7047     		bx	lr
 534              	.L51:
 535 0006 C046     		.align	2
 536              	.L50:
 537 0008 00000000 		.word	networkStatus
 538              		.cfi_endproc
 539              	.LFE68:
 540              		.size	NetworkStatus, .-NetworkStatus
 541              		.section	.text.IsRebootStartFlag,"ax",%progbits
 542              		.align	1
 543              		.global	IsRebootStartFlag
 544              		.code	16
 545              		.thumb_func
 546              		.type	IsRebootStartFlag, %function
 547              	IsRebootStartFlag:
 548              	.LFB69:
 319:network.c     **** 
 320:network.c     **** /*******************************************************************************
 321:network.c     **** * Function Name: ReadRebootStartFlag
 322:network.c     **** ********************************************************************************
 323:network.c     **** *
 324:network.c     **** * Summary:
 325:network.c     **** *   read reboot flag from start
 326:network.c     **** * Return:
 327:network.c     **** *   REBOOT or NO_REBOOT
 328:network.c     **** *
 329:network.c     **** *******************************************************************************/
 330:network.c     **** uint32_t IsRebootStartFlag(void)
 331:network.c     **** {
 549              		.loc 1 331 0
 550              		.cfi_startproc
 332:network.c     ****     uint32_t result;
 333:network.c     ****     
 334:network.c     ****     if((inData.reboot == 1 && outData.reboot == 0) || (rebootFlag == REBOOT))
 551              		.loc 1 334 0
 552 0000 0A4B     		ldr	r3, .L60
 553 0002 1A7D     		ldrb	r2, [r3, #20]
 554 0004 012A     		cmp	r2, #1
 555 0006 03D1     		bne	.L53
 556              		.loc 1 334 0 is_stmt 0 discriminator 1
 557 0008 094A     		ldr	r2, .L60+4
 558 000a 9278     		ldrb	r2, [r2, #2]
 559 000c 002A     		cmp	r2, #0
ARM GAS  C:\Users\Petro\AppData\Local\Temp\ccOLGOpz.s 			page 18


 560 000e 03D0     		beq	.L54
 561              	.L53:
 562              		.loc 1 334 0 discriminator 3
 563 0010 084A     		ldr	r2, .L60+8
 564 0012 1278     		ldrb	r2, [r2]
 565 0014 FF2A     		cmp	r2, #255
 566 0016 03D1     		bne	.L55
 567              	.L54:
 568              	.LVL28:
 335:network.c     ****     {
 336:network.c     ****         result = REBOOT;
 337:network.c     ****         inData.reboot = 0;
 569              		.loc 1 337 0 is_stmt 1
 570 0018 0022     		mov	r2, #0
 336:network.c     ****         inData.reboot = 0;
 571              		.loc 1 336 0
 572 001a FF20     		mov	r0, #255
 573              		.loc 1 337 0
 574 001c 1A75     		strb	r2, [r3, #20]
 575 001e 04E0     		b	.L56
 576              	.LVL29:
 577              	.L55:
 338:network.c     ****     }
 339:network.c     ****     else 
 340:network.c     ****     {
 341:network.c     ****         outData.reboot = 0;
 578              		.loc 1 341 0
 579 0020 0022     		mov	r2, #0
 342:network.c     ****         inData.reboot = 0;
 343:network.c     ****         result = NO_REBOOT;
 580              		.loc 1 343 0
 581 0022 FE20     		mov	r0, #254
 341:network.c     ****         inData.reboot = 0;
 582              		.loc 1 341 0
 583 0024 0249     		ldr	r1, .L60+4
 342:network.c     ****         inData.reboot = 0;
 584              		.loc 1 342 0
 585 0026 1A75     		strb	r2, [r3, #20]
 586              	.LVL30:
 341:network.c     ****         inData.reboot = 0;
 587              		.loc 1 341 0
 588 0028 8A70     		strb	r2, [r1, #2]
 589              	.LVL31:
 590              	.L56:
 344:network.c     ****     }
 345:network.c     ****     return result;
 346:network.c     **** }
 591              		.loc 1 346 0
 592              		@ sp needed
 593 002a 7047     		bx	lr
 594              	.L61:
 595              		.align	2
 596              	.L60:
 597 002c 00000000 		.word	inData
 598 0030 00000000 		.word	outData
 599 0034 00000000 		.word	rebootFlag
 600              		.cfi_endproc
ARM GAS  C:\Users\Petro\AppData\Local\Temp\ccOLGOpz.s 			page 19


 601              	.LFE69:
 602              		.size	IsRebootStartFlag, .-IsRebootStartFlag
 603              		.section	.text.ClearRebootFlag,"ax",%progbits
 604              		.align	1
 605              		.global	ClearRebootFlag
 606              		.code	16
 607              		.thumb_func
 608              		.type	ClearRebootFlag, %function
 609              	ClearRebootFlag:
 610              	.LFB70:
 347:network.c     **** 
 348:network.c     **** void ClearRebootFlag(void)
 349:network.c     **** {
 611              		.loc 1 349 0
 612              		.cfi_startproc
 350:network.c     ****     outData.reboot = 0;
 613              		.loc 1 350 0
 614 0000 0023     		mov	r3, #0
 615 0002 044A     		ldr	r2, .L63
 351:network.c     ****     inData.reboot = 0;
 352:network.c     ****     rebootFlag = NO_REBOOT;
 353:network.c     **** }
 616              		.loc 1 353 0
 617              		@ sp needed
 350:network.c     ****     outData.reboot = 0;
 618              		.loc 1 350 0
 619 0004 9370     		strb	r3, [r2, #2]
 351:network.c     ****     inData.reboot = 0;
 620              		.loc 1 351 0
 621 0006 044A     		ldr	r2, .L63+4
 622 0008 1375     		strb	r3, [r2, #20]
 352:network.c     **** }
 623              		.loc 1 352 0
 624 000a FE22     		mov	r2, #254
 625 000c 034B     		ldr	r3, .L63+8
 626 000e 1A70     		strb	r2, [r3]
 627              		.loc 1 353 0
 628 0010 7047     		bx	lr
 629              	.L64:
 630 0012 C046     		.align	2
 631              	.L63:
 632 0014 00000000 		.word	outData
 633 0018 00000000 		.word	inData
 634 001c 00000000 		.word	rebootFlag
 635              		.cfi_endproc
 636              	.LFE70:
 637              		.size	ClearRebootFlag, .-ClearRebootFlag
 638              		.section	.text.SetRebootFlag,"ax",%progbits
 639              		.align	1
 640              		.global	SetRebootFlag
 641              		.code	16
 642              		.thumb_func
 643              		.type	SetRebootFlag, %function
 644              	SetRebootFlag:
 645              	.LFB71:
 354:network.c     **** 
 355:network.c     **** /*******************************************************************************
ARM GAS  C:\Users\Petro\AppData\Local\Temp\ccOLGOpz.s 			page 20


 356:network.c     **** * Function Name: WriteRebootFlag
 357:network.c     **** ********************************************************************************
 358:network.c     **** *
 359:network.c     **** * Summary:
 360:network.c     **** *   write reboot flag to start
 361:network.c     **** *
 362:network.c     **** *******************************************************************************/
 363:network.c     **** void SetRebootFlag(void)
 364:network.c     **** {
 646              		.loc 1 364 0
 647              		.cfi_startproc
 365:network.c     ****     outData.reboot = 1;
 648              		.loc 1 365 0
 649 0000 0122     		mov	r2, #1
 650 0002 044B     		ldr	r3, .L66
 366:network.c     ****     inData.reboot = 0;
 367:network.c     ****     rebootFlag = REBOOT;
 368:network.c     **** }
 651              		.loc 1 368 0
 652              		@ sp needed
 365:network.c     ****     outData.reboot = 1;
 653              		.loc 1 365 0
 654 0004 9A70     		strb	r2, [r3, #2]
 366:network.c     ****     inData.reboot = 0;
 655              		.loc 1 366 0
 656 0006 0022     		mov	r2, #0
 657 0008 034B     		ldr	r3, .L66+4
 658 000a 1A75     		strb	r2, [r3, #20]
 367:network.c     **** }
 659              		.loc 1 367 0
 660 000c 034B     		ldr	r3, .L66+8
 661 000e FF32     		add	r2, r2, #255
 662 0010 1A70     		strb	r2, [r3]
 663              		.loc 1 368 0
 664 0012 7047     		bx	lr
 665              	.L67:
 666              		.align	2
 667              	.L66:
 668 0014 00000000 		.word	outData
 669 0018 00000000 		.word	inData
 670 001c 00000000 		.word	rebootFlag
 671              		.cfi_endproc
 672              	.LFE71:
 673              		.size	SetRebootFlag, .-SetRebootFlag
 674              		.section	.text.NetworkReadTestModeStatus,"ax",%progbits
 675              		.align	1
 676              		.global	NetworkReadTestModeStatus
 677              		.code	16
 678              		.thumb_func
 679              		.type	NetworkReadTestModeStatus, %function
 680              	NetworkReadTestModeStatus:
 681              	.LFB72:
 369:network.c     **** 
 370:network.c     **** /*******************************************************************************
 371:network.c     **** * Function Name: NetworkReadTestModeStatus
 372:network.c     **** ********************************************************************************
 373:network.c     **** *
ARM GAS  C:\Users\Petro\AppData\Local\Temp\ccOLGOpz.s 			page 21


 374:network.c     **** * Summary:
 375:network.c     **** *   reading adopted flag test mode
 376:network.c     **** *
 377:network.c     **** * Returns:
 378:network.c     **** *   testMode status
 379:network.c     **** *******************************************************************************/
 380:network.c     **** uint8_t NetworkReadTestModeStatus()
 381:network.c     **** {
 682              		.loc 1 381 0
 683              		.cfi_startproc
 382:network.c     ****     return inData.testMode;
 684              		.loc 1 382 0
 685 0000 014B     		ldr	r3, .L69
 383:network.c     **** }
 686              		.loc 1 383 0
 687              		@ sp needed
 382:network.c     ****     return inData.testMode;
 688              		.loc 1 382 0
 689 0002 D87C     		ldrb	r0, [r3, #19]
 690              		.loc 1 383 0
 691 0004 7047     		bx	lr
 692              	.L70:
 693 0006 C046     		.align	2
 694              	.L69:
 695 0008 00000000 		.word	inData
 696              		.cfi_endproc
 697              	.LFE72:
 698              		.size	NetworkReadTestModeStatus, .-NetworkReadTestModeStatus
 699              		.section	.text.NetworkSendTestModeStatus,"ax",%progbits
 700              		.align	1
 701              		.global	NetworkSendTestModeStatus
 702              		.code	16
 703              		.thumb_func
 704              		.type	NetworkSendTestModeStatus, %function
 705              	NetworkSendTestModeStatus:
 706              	.LFB73:
 384:network.c     **** 
 385:network.c     **** /*******************************************************************************
 386:network.c     **** * Function Name: NetworkSendTestModeStatus
 387:network.c     **** ********************************************************************************
 388:network.c     **** *
 389:network.c     **** * Summary:
 390:network.c     **** *   exhibiting a test mode for future shipping
 391:network.c     **** *
 392:network.c     **** * Parametrs:
 393:network.c     **** *   0 - test mode stopped
 394:network.c     **** *   1 - test mode started
 395:network.c     **** *******************************************************************************/
 396:network.c     **** void NetworkSendTestModeStatus(uint8_t testMode)
 397:network.c     **** {
 707              		.loc 1 397 0
 708              		.cfi_startproc
 709              	.LVL32:
 710 0000 034B     		ldr	r3, .L74
 398:network.c     ****     if(testMode > 0)
 711              		.loc 1 398 0
 712 0002 0028     		cmp	r0, #0
ARM GAS  C:\Users\Petro\AppData\Local\Temp\ccOLGOpz.s 			page 22


 713 0004 02D0     		beq	.L72
 399:network.c     ****     {
 400:network.c     ****         outData.testMode = 1;
 714              		.loc 1 400 0
 715 0006 0122     		mov	r2, #1
 716 0008 1A71     		strb	r2, [r3, #4]
 717 000a 00E0     		b	.L71
 718              	.L72:
 401:network.c     ****     }
 402:network.c     ****     else
 403:network.c     ****     {
 404:network.c     ****         outData.testMode = 0;
 719              		.loc 1 404 0
 720 000c 1871     		strb	r0, [r3, #4]
 721              	.L71:
 405:network.c     ****     }
 406:network.c     **** }
 722              		.loc 1 406 0
 723              		@ sp needed
 724 000e 7047     		bx	lr
 725              	.L75:
 726              		.align	2
 727              	.L74:
 728 0010 00000000 		.word	outData
 729              		.cfi_endproc
 730              	.LFE73:
 731              		.size	NetworkSendTestModeStatus, .-NetworkSendTestModeStatus
 732              		.section	.text.NTPsendTime,"ax",%progbits
 733              		.align	1
 734              		.global	NTPsendTime
 735              		.code	16
 736              		.thumb_func
 737              		.type	NTPsendTime, %function
 738              	NTPsendTime:
 739              	.LFB75:
 407:network.c     **** 
 408:network.c     **** 
 409:network.c     **** /*******************************************************************************
 410:network.c     **** * Function Name: NTPsync
 411:network.c     **** ********************************************************************************
 412:network.c     **** *
 413:network.c     **** * Summary:
 414:network.c     **** *   NTP time synchronization protocol on
 415:network.c     **** * Return:
 416:network.c     **** *   TIME_SYNC_OK or TIME_SYNC_ERR
 417:network.c     **** *
 418:network.c     **** *******************************************************************************/
 419:network.c     **** uint32_t NTPsync(void)
 420:network.c     **** {
 421:network.c     ****     uint16_t result;
 422:network.c     ****     uint16_t IDpacket;
 423:network.c     ****     UART_XB_SpiUartClearRxBuffer();
 424:network.c     ****     
 425:network.c     ****     /*----------------------------------------------------------
 426:network.c     ****     send real unix time
 427:network.c     ****     ----------------------------------------------------------*/
 428:network.c     ****     uint16_t delayReceivePacket ;
ARM GAS  C:\Users\Petro\AppData\Local\Temp\ccOLGOpz.s 			page 23


 429:network.c     ****     uint16_t numAttemptSendPacket = NTP_CONNECT_ATTEMPS;
 430:network.c     ****     result = ERROR;
 431:network.c     ****     ntpFlagReadyForReceive = 1;
 432:network.c     ****     onNtpSync = 1;
 433:network.c     ****     
 434:network.c     ****     while(numAttemptSendPacket && result != OK)
 435:network.c     ****     {
 436:network.c     ****         IDpacket = 1;
 437:network.c     ****         unixTime[T1] = RTCGetUnixTime();
 438:network.c     ****         millisTime[T1] = RTCgetRecentMs();
 439:network.c     ****         #ifdef DEBUGNTP
 440:network.c     ****             pinDebugNtp_Write(1);
 441:network.c     ****             pinDebugNtp_Write(0);
 442:network.c     ****             pinDebugNtp_Write(1);
 443:network.c     ****             pinDebugNtp_Write(0);
 444:network.c     ****         #endif 
 445:network.c     ****         
 446:network.c     ****         NTPsendTime(unixTime[T1], millisTime[T1], IDpacket);
 447:network.c     ****         
 448:network.c     ****         delayReceivePacket = NTP_DELAY_RECEIVED_PACKET;
 449:network.c     ****         uint32_t oldUnixTime = RTCGetUnixTime();
 450:network.c     ****         delayReceivePacket += RTCgetRecentMs();
 451:network.c     ****         
 452:network.c     ****         #ifdef DEBUG_INFO
 453:network.c     **** //                DEBUG_UART_UartPutString("send new packet\n\r");
 454:network.c     ****         #endif
 455:network.c     ****         
 456:network.c     ****         while((RTCgetRecentMs() < delayReceivePacket) && (result != OK))
 457:network.c     ****         {
 458:network.c     ****             if(ntpFlagEndReceivePacket)
 459:network.c     ****             {
 460:network.c     ****                 ntpFlagEndReceivePacket = 0;
 461:network.c     ****                 
 462:network.c     ****                 if(recvDataNTP.Id == IDpacket)
 463:network.c     ****                 {
 464:network.c     ****                     result = OK;
 465:network.c     ****                 }
 466:network.c     ****                 
 467:network.c     ****                 #ifdef DEBUG_INFO
 468:network.c     **** //                        sprintf(uartBuff,"idreceive=%d\n\r",recvDataNTP.Id);
 469:network.c     **** //                        DEBUG_UART_UartPutString(uartBuff);
 470:network.c     ****                 #endif
 471:network.c     ****                 
 472:network.c     ****                 ntpFlagReadyForReceive = 1;
 473:network.c     ****             }
 474:network.c     ****             
 475:network.c     ****             if((oldUnixTime<RTCGetUnixTime()) && (delayReceivePacket >= 1000))
 476:network.c     ****             {
 477:network.c     ****                 delayReceivePacket -= 1000;
 478:network.c     ****                 oldUnixTime++;
 479:network.c     ****                 
 480:network.c     ****                 #ifdef DEBUG_INFO
 481:network.c     **** //                        sprintf(uartBuff,"delayReceive=%d, realTimeMs=%d\n\r",delayReceivePacket,
 482:network.c     **** //                        DEBUG_UART_UartPutString(uartBuff);
 483:network.c     **** //                        sprintf(uartBuff,"unix[T1]=%d, realTimeunix=%d\n\r",unixTime[T1],(uint32_
 484:network.c     **** //                        DEBUG_UART_UartPutString(uartBuff);
 485:network.c     ****                 #endif
ARM GAS  C:\Users\Petro\AppData\Local\Temp\ccOLGOpz.s 			page 24


 486:network.c     ****             }
 487:network.c     ****         }
 488:network.c     ****         numAttemptSendPacket--;
 489:network.c     ****     }
 490:network.c     ****     
 491:network.c     ****     
 492:network.c     ****     
 493:network.c     ****     /*----------------------------------------------------------
 494:network.c     ****     calculate difference time
 495:network.c     ****     ----------------------------------------------------------*/
 496:network.c     ****     uint8_t numSuccessuflPacket = 0;
 497:network.c     ****     int32_t unixTimeDifference = 0;
 498:network.c     ****     int32_t msTimeDifference = 0;
 499:network.c     ****     numAttemptSendPacket = 0;
 500:network.c     ****     IDpacket = 2;
 501:network.c     **** 
 502:network.c     ****     if(result == OK)
 503:network.c     ****     {
 504:network.c     ****         numSuccessuflPacket = NTP_SUCCESSFUL_PACKET;
 505:network.c     ****         numAttemptSendPacket = NTP_CONNECT_ATTEMPS;
 506:network.c     ****     }
 507:network.c     ****     
 508:network.c     ****     while(numAttemptSendPacket && numSuccessuflPacket )
 509:network.c     ****     {
 510:network.c     ****         result = ERROR;
 511:network.c     ****         unixTime[T1] = RTCGetUnixTime();
 512:network.c     ****         millisTime[T1] = RTCgetRecentMs();
 513:network.c     ****         #ifdef DEBUGNTP
 514:network.c     ****             pinDebugNtp_Write(1);
 515:network.c     ****             pinDebugNtp_Write(0);
 516:network.c     ****             pinDebugNtp_Write(1);
 517:network.c     ****             pinDebugNtp_Write(0);
 518:network.c     ****         #endif 
 519:network.c     ****         NTPsendTime(unixTime[T1], millisTime[T1], IDpacket);
 520:network.c     ****         
 521:network.c     ****         delayReceivePacket =  2*NTP_DELAY_RECEIVED_PACKET ;
 522:network.c     ****         delayReceivePacket += RTCgetRecentMs();
 523:network.c     ****         uint32_t oldUnixTime = RTCGetUnixTime();
 524:network.c     ****         #ifdef DEBUG_INFO
 525:network.c     **** //                DEBUG_UART_UartPutString("send new packet\n\r");
 526:network.c     **** //                sprintf(uartBuff,"numSuccesful=%d\n\n\r",numSuccessuflPacket);
 527:network.c     **** //                DEBUG_UART_UartPutString(uartBuff);
 528:network.c     ****         #endif
 529:network.c     ****         
 530:network.c     ****         while((RTCgetRecentMs() < delayReceivePacket) && (result != OK) )
 531:network.c     ****         {
 532:network.c     ****             if(ntpFlagEndReceivePacket)
 533:network.c     ****             {
 534:network.c     ****                 ntpFlagEndReceivePacket = 0;
 535:network.c     ****                 
 536:network.c     ****                 if(recvDataNTP.Id == IDpacket)
 537:network.c     ****                 {
 538:network.c     ****                     numSuccessuflPacket--;  
 539:network.c     ****                     numAttemptSendPacket = NTP_CONNECT_ATTEMPS;
 540:network.c     ****                     result = OK;
 541:network.c     ****                     
 542:network.c     ****                     /*calculate difference time*/
ARM GAS  C:\Users\Petro\AppData\Local\Temp\ccOLGOpz.s 			page 25


 543:network.c     ****                     int32_t tmpUnix, tmpMs;
 544:network.c     ****                     NTPcalculateTime(unixTime,millisTime,&tmpUnix,&tmpMs);
 545:network.c     ****                     unixTimeDifference += tmpUnix;
 546:network.c     ****                     msTimeDifference += tmpMs;
 547:network.c     ****                     
 548:network.c     ****                     #ifdef DEBUG_INFO
 549:network.c     **** //                        sprintf(uartBuff,"diff unix=%d, diff ms-%d\n\r",tmpUnix, tmpMs);
 550:network.c     **** //                        DEBUG_UART_UartPutString(uartBuff);
 551:network.c     **** //                        int32_t tmpU;
 552:network.c     **** //                        int16_t tmpms;
 553:network.c     **** //
 554:network.c     **** //                        FuncTake(unixTime[T3],millisTime[T3],unixTime[T2],millisTime[T2],&tmpU,&t
 555:network.c     **** //                        sprintf(uartBuff,"T3-T2=%d.%d\n\r",tmpU, tmpms);
 556:network.c     **** //                        DEBUG_UART_UartPutString(uartBuff);
 557:network.c     **** //                        
 558:network.c     **** //                        FuncTake(unixTime[T4],millisTime[T4],unixTime[T1],millisTime[T1],&tmpU,&t
 559:network.c     **** //                        sprintf(uartBuff,"T4-T1=%d.%d\n\r",tmpU, tmpms);
 560:network.c     **** //                        DEBUG_UART_UartPutString(uartBuff);
 561:network.c     **** //                        
 562:network.c     **** //                        FuncTake(unixTime[T2],millisTime[T2],unixTime[T1],millisTime[T1],&tmpU,&t
 563:network.c     **** //                        sprintf(uartBuff,"T2-T1=%d.%d\n\r",tmpU, tmpms);
 564:network.c     **** //                        DEBUG_UART_UartPutString(uartBuff);
 565:network.c     ****                     #endif
 566:network.c     ****                 }
 567:network.c     ****                 
 568:network.c     ****                 #ifdef DEBUG_INFO
 569:network.c     **** //                        sprintf(uartBuff,"succesful=%d\n\r",numSuccessuflPacket);
 570:network.c     **** //                        DEBUG_UART_UartPutString(uartBuff);
 571:network.c     ****                 #endif
 572:network.c     ****                 
 573:network.c     ****                 ntpFlagReadyForReceive = 1;
 574:network.c     ****             }
 575:network.c     ****             if((oldUnixTime<RTCGetUnixTime()) && (delayReceivePacket >= 1000))
 576:network.c     ****             {
 577:network.c     ****                 delayReceivePacket -= 1000;
 578:network.c     ****                 oldUnixTime++;
 579:network.c     ****             }
 580:network.c     ****         }
 581:network.c     ****         numAttemptSendPacket--;
 582:network.c     ****         IDpacket++;
 583:network.c     ****     }
 584:network.c     ****     
 585:network.c     ****     
 586:network.c     ****     if(result == OK)
 587:network.c     ****     {
 588:network.c     ****         unixTimeDifference /= NTP_SUCCESSFUL_PACKET;
 589:network.c     ****         msTimeDifference /= NTP_SUCCESSFUL_PACKET;
 590:network.c     ****         msTimeDifference += 13; //add static diff time to send packet 
 591:network.c     ****     }
 592:network.c     ****     
 593:network.c     ****     #ifdef DEBUG_INFO
 594:network.c     ****         sprintf(uartBuff,"---------diff_sum=%d.%d\n\r",unixTimeDifference, msTimeDifference);
 595:network.c     ****         DEBUG_UART_UartPutString(uartBuff);
 596:network.c     ****     #endif
 597:network.c     ****     
 598:network.c     ****     
 599:network.c     ****     
ARM GAS  C:\Users\Petro\AppData\Local\Temp\ccOLGOpz.s 			page 26


 600:network.c     ****     /*----------------------------------------------------------
 601:network.c     ****     send to start difference time
 602:network.c     ****     ----------------------------------------------------------*/
 603:network.c     ****     numAttemptSendPacket = 0;
 604:network.c     ****     if(result == OK)
 605:network.c     ****     {
 606:network.c     ****         numAttemptSendPacket = NTP_CONNECT_ATTEMPS;
 607:network.c     ****     }
 608:network.c     ****     ntpFlagReadyForReceive = 1;
 609:network.c     ****     IDpacket = 0;
 610:network.c     ****     
 611:network.c     ****     while(numAttemptSendPacket)
 612:network.c     ****     {
 613:network.c     ****         result = ERROR;
 614:network.c     ****         
 615:network.c     ****         #ifdef DEBUGNTP
 616:network.c     ****             pinDebugNtp_Write(1);
 617:network.c     ****             pinDebugNtp_Write(0);
 618:network.c     ****             pinDebugNtp_Write(1);
 619:network.c     ****             pinDebugNtp_Write(0);
 620:network.c     ****         #endif 
 621:network.c     ****         /*send difference time*/
 622:network.c     ****         NTPsendTime(0, (uint16)-msTimeDifference, IDpacket);
 623:network.c     ****         
 624:network.c     ****         delayReceivePacket = NTP_DELAY_RECEIVED_PACKET;
 625:network.c     ****         uint32_t oldUnixTime = RTCGetUnixTime();       
 626:network.c     ****         delayReceivePacket += RTCgetRecentMs();
 627:network.c     ****         
 628:network.c     ****         #ifdef DEBUG_INFO
 629:network.c     **** //            DEBUG_UART_UartPutString("send new packet\n\r");
 630:network.c     **** //            sprintf(uartBuff, "numAttemptSendPacket=%d\n\r",numAttemptSendPacket);
 631:network.c     **** //            DEBUG_UART_UartPutString(uartBuff);
 632:network.c     ****         #endif
 633:network.c     ****         
 634:network.c     ****         while((RTCgetRecentMs() < delayReceivePacket) && (result != OK))
 635:network.c     ****         {
 636:network.c     ****             if(ntpFlagEndReceivePacket)
 637:network.c     ****             {
 638:network.c     ****                 ntpFlagEndReceivePacket = 0;
 639:network.c     ****                 
 640:network.c     ****                 if(recvDataNTP.Id == IDpacket)
 641:network.c     ****                 {
 642:network.c     ****                     result = OK;
 643:network.c     ****                 }
 644:network.c     ****                 
 645:network.c     ****                 #ifdef DEBUG_INFO
 646:network.c     **** //                        sprintf(uartBuff,"idreceive=%d\n\r",recvDataNTP.Id);
 647:network.c     **** //                        DEBUG_UART_UartPutString(uartBuff);
 648:network.c     ****                 #endif
 649:network.c     ****                 
 650:network.c     ****                 ntpFlagReadyForReceive = 1;
 651:network.c     ****             }
 652:network.c     ****             
 653:network.c     ****             if((oldUnixTime<RTCGetUnixTime()) && (delayReceivePacket >= 1000))
 654:network.c     ****             {
 655:network.c     ****                 delayReceivePacket -= 1000;
 656:network.c     ****                 oldUnixTime++;
ARM GAS  C:\Users\Petro\AppData\Local\Temp\ccOLGOpz.s 			page 27


 657:network.c     ****                 
 658:network.c     ****                 #ifdef DEBUG_INFO
 659:network.c     **** //                        sprintf(uartBuff,"delayReceive=%d, realTimeMs=%d\n\r",delayReceivePacket,
 660:network.c     **** //                        DEBUG_UART_UartPutString(uartBuff);
 661:network.c     **** //                        sprintf(uartBuff,"unix[T1]=%d, realTimeunix=%d\n\r",unixTime[T1],(uint32_
 662:network.c     **** //                        DEBUG_UART_UartPutString(uartBuff);
 663:network.c     ****                 #endif
 664:network.c     ****             }
 665:network.c     ****         }
 666:network.c     ****         numAttemptSendPacket--;
 667:network.c     ****         if(result == OK)
 668:network.c     ****             numAttemptSendPacket = 0;
 669:network.c     ****     }
 670:network.c     ****     
 671:network.c     ****     #ifdef DEBUG_INFO
 672:network.c     ****         if(result == OK)
 673:network.c     ****         DEBUG_UART_UartPutString("okey\n\r");
 674:network.c     ****         else
 675:network.c     ****         DEBUG_UART_UartPutString("error\n\r");
 676:network.c     ****     #endif
 677:network.c     ****     
 678:network.c     ****     if(result == OK)
 679:network.c     ****         result = TIME_SYNC_OK;
 680:network.c     ****     else
 681:network.c     ****         result = TIME_SYNC_ERR;
 682:network.c     ****     
 683:network.c     ****     onNtpSync = 0;
 684:network.c     **** 
 685:network.c     ****     return result;
 686:network.c     **** }
 687:network.c     **** 
 688:network.c     **** 
 689:network.c     **** /*******************************************************************************
 690:network.c     **** * Function Name: NTPsendTime
 691:network.c     **** ********************************************************************************
 692:network.c     **** *
 693:network.c     **** * Summary:
 694:network.c     **** *   send time to NTP protocol
 695:network.c     **** * Parametrs:
 696:network.c     **** *   unixTime - time in unix format
 697:network.c     **** *   millis - millis time
 698:network.c     **** *   ID - ID packet
 699:network.c     **** *
 700:network.c     **** *******************************************************************************/
 701:network.c     **** void NTPsendTime(uint32_t unixTime,uint16_t millis, uint16_t ID)
 702:network.c     **** {
 740              		.loc 1 702 0
 741              		.cfi_startproc
 742              	.LVL33:
 743 0000 30B5     		push	{r4, r5, lr}
 744              		.cfi_def_cfa_offset 12
 745              		.cfi_offset 4, -12
 746              		.cfi_offset 5, -8
 747              		.cfi_offset 14, -4
 748 0002 051C     		mov	r5, r0
 749 0004 141C     		mov	r4, r2
 750 0006 9BB0     		sub	sp, sp, #108
ARM GAS  C:\Users\Petro\AppData\Local\Temp\ccOLGOpz.s 			page 28


 751              		.cfi_def_cfa_offset 120
 752              		.loc 1 702 0
 753 0008 0B1C     		mov	r3, r1
 703:network.c     ****     char sendBuffer[DATA_BUFFER];
 704:network.c     ****     char sendData[DATA_BUFFER];
 705:network.c     ****     
 706:network.c     ****     /*pack data*/
 707:network.c     ****     sprintf(sendData,"%08X%03X", unixTime,millis); 
 754              		.loc 1 707 0
 755 000a 2A1C     		mov	r2, r5
 756              	.LVL34:
 757 000c 0DA8     		add	r0, sp, #52
 758              	.LVL35:
 759 000e 0849     		ldr	r1, .L77
 760              	.LVL36:
 761 0010 FFF7FEFF 		bl	sprintf
 762              	.LVL37:
 708:network.c     ****     PackData(sendBuffer, (uint8_t *)sendData, ID);
 763              		.loc 1 708 0
 764 0014 0DA9     		add	r1, sp, #52
 765 0016 221C     		mov	r2, r4
 766 0018 6846     		mov	r0, sp
 767 001a FFF7FEFF 		bl	PackData
 768              	.LVL38:
 709:network.c     ****     UART_XB_UartPutString(sendBuffer);
 769              		.loc 1 709 0
 770 001e 6846     		mov	r0, sp
 771 0020 FFF7FEFF 		bl	UART_XB_UartPutString
 772              	.LVL39:
 710:network.c     ****     UART_XB_UartPutChar('0');
 773              		.loc 1 710 0
 774 0024 3020     		mov	r0, #48
 775 0026 FFF7FEFF 		bl	UART_XB_SpiUartWriteTxData
 776              	.LVL40:
 711:network.c     ****     
 712:network.c     **** }
 777              		.loc 1 712 0
 778 002a 1BB0     		add	sp, sp, #108
 779              		@ sp needed
 780              	.LVL41:
 781 002c 30BD     		pop	{r4, r5, pc}
 782              	.L78:
 783 002e C046     		.align	2
 784              	.L77:
 785 0030 1B000000 		.word	.LC48
 786              		.cfi_endproc
 787              	.LFE75:
 788              		.size	NTPsendTime, .-NTPsendTime
 789              		.section	.text.FuncTake,"ax",%progbits
 790              		.align	1
 791              		.global	FuncTake
 792              		.code	16
 793              		.thumb_func
 794              		.type	FuncTake, %function
 795              	FuncTake:
 796              	.LFB77:
 713:network.c     **** 
ARM GAS  C:\Users\Petro\AppData\Local\Temp\ccOLGOpz.s 			page 29


 714:network.c     **** 
 715:network.c     **** 
 716:network.c     **** 
 717:network.c     **** void NTPcalculateTime(uint32_t unixTime[], uint16_t msTime[], int32_t *sumTime, int32_t *sumMs)
 718:network.c     **** {
 719:network.c     ****     /*calculate ms time*/
 720:network.c     ****     int16_t tmpMs21;
 721:network.c     ****     int32_t tmpTime21;    
 722:network.c     ****     int16_t tmpMs34;
 723:network.c     ****     int32_t tmpTime34;
 724:network.c     ****     int32_t tmpDiffTime;
 725:network.c     ****     int16_t tmpDiffMs;
 726:network.c     **** 
 727:network.c     ****     FuncTake(unixTime[T2],msTime[T2],unixTime[T1],msTime[T1],&tmpTime21,&tmpMs21);
 728:network.c     ****     FuncTake(unixTime[T3],msTime[T3],unixTime[T4],msTime[T4],&tmpTime34,&tmpMs34);
 729:network.c     **** 
 730:network.c     ****     tmpDiffTime = tmpTime21 + tmpTime34;
 731:network.c     ****     tmpDiffMs = tmpMs21 + tmpMs34;
 732:network.c     ****     if(tmpDiffMs >= 1000)
 733:network.c     ****     {
 734:network.c     ****         tmpDiffTime += 1;
 735:network.c     ****         tmpDiffMs -= 1000;
 736:network.c     ****     }
 737:network.c     ****     else if(tmpDiffMs <= -1000)
 738:network.c     ****     {
 739:network.c     ****         tmpDiffTime -= 1;
 740:network.c     ****         tmpDiffMs += 1000;
 741:network.c     ****     }
 742:network.c     ****     
 743:network.c     ****     tmpDiffMs /= 2;
 744:network.c     ****     if(tmpDiffTime%2 == 1)
 745:network.c     ****     {
 746:network.c     ****         tmpDiffMs += 500;
 747:network.c     ****     }
 748:network.c     ****     tmpDiffTime /= 2;
 749:network.c     ****     
 750:network.c     ****     *sumTime = tmpDiffTime;
 751:network.c     ****     *sumMs = tmpDiffMs; 
 752:network.c     **** 
 753:network.c     **** }
 754:network.c     **** 
 755:network.c     **** void FuncTake(uint32_t sec1, uint16_t ms1, uint32_t sec2, uint16_t ms2, int32_t *resultSec, int16_t
 756:network.c     **** {
 797              		.loc 1 756 0
 798              		.cfi_startproc
 799              	.LVL42:
 800 0000 30B5     		push	{r4, r5, lr}
 801              		.cfi_def_cfa_offset 12
 802              		.cfi_offset 4, -12
 803              		.cfi_offset 5, -8
 804              		.cfi_offset 14, -4
 757:network.c     **** 	*resultSec = sec1 - sec2;
 758:network.c     **** 	*resultMs = ms1 - ms2;
 805              		.loc 1 758 0
 806 0002 CB1A     		sub	r3, r1, r3
 807              	.LVL43:
 756:network.c     **** 	*resultSec = sec1 - sec2;
ARM GAS  C:\Users\Petro\AppData\Local\Temp\ccOLGOpz.s 			page 30


 808              		.loc 1 756 0
 809 0004 039C     		ldr	r4, [sp, #12]
 757:network.c     **** 	*resultSec = sec1 - sec2;
 810              		.loc 1 757 0
 811 0006 821A     		sub	r2, r0, r2
 812              	.LVL44:
 813              		.loc 1 758 0
 814 0008 9BB2     		uxth	r3, r3
 756:network.c     **** 	*resultSec = sec1 - sec2;
 815              		.loc 1 756 0
 816 000a 049D     		ldr	r5, [sp, #16]
 757:network.c     **** 	*resultSec = sec1 - sec2;
 817              		.loc 1 757 0
 818 000c 2260     		str	r2, [r4]
 819              		.loc 1 758 0
 820 000e 99B2     		uxth	r1, r3
 821              	.LVL45:
 759:network.c     **** 	if (*resultSec < 0)
 822              		.loc 1 759 0
 823 0010 002A     		cmp	r2, #0
 824 0012 09DA     		bge	.L80
 760:network.c     **** 	{	
 761:network.c     **** 		if (*resultMs > 0)
 825              		.loc 1 761 0
 826 0014 08B2     		sxth	r0, r1
 827              	.LVL46:
 828 0016 0028     		cmp	r0, #0
 829 0018 01DC     		bgt	.L81
 830              	.L83:
 758:network.c     **** 	if (*resultSec < 0)
 831              		.loc 1 758 0
 832 001a 2980     		strh	r1, [r5]
 833 001c 0FE0     		b	.L79
 834              	.L81:
 762:network.c     **** 		{
 763:network.c     **** 			*resultMs -= 1000;
 835              		.loc 1 763 0
 836 001e 0849     		ldr	r1, .L88
 764:network.c     **** 			*resultSec += 1;
 837              		.loc 1 764 0
 838 0020 0132     		add	r2, r2, #1
 763:network.c     **** 			*resultSec += 1;
 839              		.loc 1 763 0
 840 0022 5B18     		add	r3, r3, r1
 841 0024 2B80     		strh	r3, [r5]
 842 0026 09E0     		b	.L87
 843              	.LVL47:
 844              	.L80:
 765:network.c     **** 		}
 766:network.c     **** 	}
 767:network.c     **** 	else if(*resultSec > 0)
 845              		.loc 1 767 0
 846 0028 002A     		cmp	r2, #0
 847 002a F6D0     		beq	.L83
 768:network.c     **** 	{
 769:network.c     **** 		if (*resultMs < 0)
 848              		.loc 1 769 0
ARM GAS  C:\Users\Petro\AppData\Local\Temp\ccOLGOpz.s 			page 31


 849 002c 08B2     		sxth	r0, r1
 850              	.LVL48:
 851 002e 0028     		cmp	r0, #0
 852 0030 F3DA     		bge	.L83
 770:network.c     **** 		{
 771:network.c     **** 			*resultMs += 1000;
 853              		.loc 1 771 0
 854 0032 FA21     		mov	r1, #250
 855 0034 8900     		lsl	r1, r1, #2
 856 0036 5B18     		add	r3, r3, r1
 857 0038 2B80     		strh	r3, [r5]
 772:network.c     **** 			*resultSec -= 1;
 858              		.loc 1 772 0
 859 003a 013A     		sub	r2, r2, #1
 860              	.L87:
 861 003c 2260     		str	r2, [r4]
 862              	.L79:
 773:network.c     **** 		}
 774:network.c     **** 	}
 775:network.c     **** }
 863              		.loc 1 775 0
 864              		@ sp needed
 865 003e 30BD     		pop	{r4, r5, pc}
 866              	.L89:
 867              		.align	2
 868              	.L88:
 869 0040 18FCFFFF 		.word	-1000
 870              		.cfi_endproc
 871              	.LFE77:
 872              		.size	FuncTake, .-FuncTake
 873              		.section	.text.NTPcalculateTime,"ax",%progbits
 874              		.align	1
 875              		.global	NTPcalculateTime
 876              		.code	16
 877              		.thumb_func
 878              		.type	NTPcalculateTime, %function
 879              	NTPcalculateTime:
 880              	.LFB76:
 718:network.c     ****     /*calculate ms time*/
 881              		.loc 1 718 0
 882              		.cfi_startproc
 883              	.LVL49:
 884 0000 F0B5     		push	{r4, r5, r6, r7, lr}
 885              		.cfi_def_cfa_offset 20
 886              		.cfi_offset 4, -20
 887              		.cfi_offset 5, -16
 888              		.cfi_offset 6, -12
 889              		.cfi_offset 7, -8
 890              		.cfi_offset 14, -4
 891 0002 0D1C     		mov	r5, r1
 892 0004 041C     		mov	r4, r0
 893 0006 87B0     		sub	sp, sp, #28
 894              		.cfi_def_cfa_offset 48
 718:network.c     ****     /*calculate ms time*/
 895              		.loc 1 718 0
 896 0008 171C     		mov	r7, r2
 727:network.c     ****     FuncTake(unixTime[T3],msTime[T3],unixTime[T4],msTime[T4],&tmpTime34,&tmpMs34);
ARM GAS  C:\Users\Petro\AppData\Local\Temp\ccOLGOpz.s 			page 32


 897              		.loc 1 727 0
 898 000a 04AA     		add	r2, sp, #16
 899              	.LVL50:
 900 000c 4988     		ldrh	r1, [r1, #2]
 901              	.LVL51:
 718:network.c     ****     /*calculate ms time*/
 902              		.loc 1 718 0
 903 000e 1E1C     		mov	r6, r3
 727:network.c     ****     FuncTake(unixTime[T3],msTime[T3],unixTime[T4],msTime[T4],&tmpTime34,&tmpMs34);
 904              		.loc 1 727 0
 905 0010 2B88     		ldrh	r3, [r5]
 906              	.LVL52:
 907 0012 0092     		str	r2, [sp]
 908 0014 03AA     		add	r2, sp, #12
 909 0016 0192     		str	r2, [sp, #4]
 910 0018 2268     		ldr	r2, [r4]
 911 001a 4068     		ldr	r0, [r0, #4]
 912              	.LVL53:
 913 001c FFF7FEFF 		bl	FuncTake
 914              	.LVL54:
 728:network.c     **** 
 915              		.loc 1 728 0
 916 0020 A988     		ldrh	r1, [r5, #4]
 917 0022 EB88     		ldrh	r3, [r5, #6]
 918 0024 0E25     		mov	r5, #14
 919              	.LVL55:
 920 0026 05AA     		add	r2, sp, #20
 921 0028 6D44     		add	r5, r5, sp
 922 002a 0092     		str	r2, [sp]
 923 002c 0195     		str	r5, [sp, #4]
 924 002e A068     		ldr	r0, [r4, #8]
 925 0030 E268     		ldr	r2, [r4, #12]
 926 0032 FFF7FEFF 		bl	FuncTake
 927              	.LVL56:
 730:network.c     ****     tmpDiffMs = tmpMs21 + tmpMs34;
 928              		.loc 1 730 0
 929 0036 059A     		ldr	r2, [sp, #20]
 930 0038 049B     		ldr	r3, [sp, #16]
 731:network.c     ****     if(tmpDiffMs >= 1000)
 931              		.loc 1 731 0
 932 003a 2988     		ldrh	r1, [r5]
 730:network.c     ****     tmpDiffMs = tmpMs21 + tmpMs34;
 933              		.loc 1 730 0
 934 003c 9B18     		add	r3, r3, r2
 935              	.LVL57:
 731:network.c     ****     if(tmpDiffMs >= 1000)
 936              		.loc 1 731 0
 937 003e 6A46     		mov	r2, sp
 938 0040 9289     		ldrh	r2, [r2, #12]
 732:network.c     ****     {
 939              		.loc 1 732 0
 940 0042 164C     		ldr	r4, .L96
 941              	.LVL58:
 731:network.c     ****     if(tmpDiffMs >= 1000)
 942              		.loc 1 731 0
 943 0044 8918     		add	r1, r1, r2
 944 0046 89B2     		uxth	r1, r1
ARM GAS  C:\Users\Petro\AppData\Local\Temp\ccOLGOpz.s 			page 33


 945 0048 8AB2     		uxth	r2, r1
 946              	.LVL59:
 732:network.c     ****     {
 947              		.loc 1 732 0
 948 004a 10B2     		sxth	r0, r2
 949 004c A042     		cmp	r0, r4
 950 004e 02DD     		ble	.L91
 734:network.c     ****         tmpDiffMs -= 1000;
 951              		.loc 1 734 0
 952 0050 0133     		add	r3, r3, #1
 953              	.LVL60:
 735:network.c     ****     }
 954              		.loc 1 735 0
 955 0052 134A     		ldr	r2, .L96+4
 956              	.LVL61:
 957 0054 05E0     		b	.L95
 958              	.LVL62:
 959              	.L91:
 737:network.c     ****     {
 960              		.loc 1 737 0
 961 0056 134C     		ldr	r4, .L96+8
 962 0058 A042     		cmp	r0, r4
 963 005a 04DA     		bge	.L92
 740:network.c     ****     }
 964              		.loc 1 740 0
 965 005c FA22     		mov	r2, #250
 966              	.LVL63:
 739:network.c     ****         tmpDiffMs += 1000;
 967              		.loc 1 739 0
 968 005e 013B     		sub	r3, r3, #1
 969              	.LVL64:
 740:network.c     ****     }
 970              		.loc 1 740 0
 971 0060 9200     		lsl	r2, r2, #2
 972              	.L95:
 973 0062 8A18     		add	r2, r1, r2
 974 0064 92B2     		uxth	r2, r2
 975              	.LVL65:
 976              	.L92:
 743:network.c     ****     if(tmpDiffTime%2 == 1)
 977              		.loc 1 743 0
 978 0066 12B2     		sxth	r2, r2
 979 0068 D10F     		lsr	r1, r2, #31
 980 006a 8A18     		add	r2, r1, r2
 981              	.LVL66:
 744:network.c     ****     {
 982              		.loc 1 744 0
 983 006c 0E49     		ldr	r1, .L96+12
 743:network.c     ****     if(tmpDiffTime%2 == 1)
 984              		.loc 1 743 0
 985 006e 5210     		asr	r2, r2, #1
 986 0070 92B2     		uxth	r2, r2
 987              	.LVL67:
 744:network.c     ****     {
 988              		.loc 1 744 0
 989 0072 1940     		and	r1, r3
 990 0074 04D5     		bpl	.L94
ARM GAS  C:\Users\Petro\AppData\Local\Temp\ccOLGOpz.s 			page 34


 991 0076 0220     		mov	r0, #2
 992 0078 0139     		sub	r1, r1, #1
 993 007a 4042     		neg	r0, r0
 994 007c 0143     		orr	r1, r0
 995 007e 0131     		add	r1, r1, #1
 996              	.L94:
 997 0080 0129     		cmp	r1, #1
 998 0082 02D1     		bne	.L93
 746:network.c     ****     }
 999              		.loc 1 746 0
 1000 0084 F532     		add	r2, r2, #245
 1001              	.LVL68:
 1002 0086 FF32     		add	r2, r2, #255
 1003              	.LVL69:
 1004 0088 92B2     		uxth	r2, r2
 1005              	.LVL70:
 1006              	.L93:
 748:network.c     ****     
 1007              		.loc 1 748 0
 1008 008a D90F     		lsr	r1, r3, #31
 1009 008c CB18     		add	r3, r1, r3
 1010              	.LVL71:
 1011 008e 5B10     		asr	r3, r3, #1
 751:network.c     **** 
 1012              		.loc 1 751 0
 1013 0090 12B2     		sxth	r2, r2
 750:network.c     ****     *sumMs = tmpDiffMs; 
 1014              		.loc 1 750 0
 1015 0092 3B60     		str	r3, [r7]
 751:network.c     **** 
 1016              		.loc 1 751 0
 1017 0094 3260     		str	r2, [r6]
 753:network.c     **** 
 1018              		.loc 1 753 0
 1019 0096 07B0     		add	sp, sp, #28
 1020              		@ sp needed
 1021              	.LVL72:
 1022              	.LVL73:
 1023 0098 F0BD     		pop	{r4, r5, r6, r7, pc}
 1024              	.L97:
 1025 009a C046     		.align	2
 1026              	.L96:
 1027 009c E7030000 		.word	999
 1028 00a0 18FCFFFF 		.word	-1000
 1029 00a4 19FCFFFF 		.word	-999
 1030 00a8 01000080 		.word	-2147483647
 1031              		.cfi_endproc
 1032              	.LFE76:
 1033              		.size	NTPcalculateTime, .-NTPcalculateTime
 1034              		.global	__aeabi_idiv
 1035              		.section	.text.NTPsync,"ax",%progbits
 1036              		.align	1
 1037              		.global	NTPsync
 1038              		.code	16
 1039              		.thumb_func
 1040              		.type	NTPsync, %function
 1041              	NTPsync:
ARM GAS  C:\Users\Petro\AppData\Local\Temp\ccOLGOpz.s 			page 35


 1042              	.LFB74:
 420:network.c     ****     uint16_t result;
 1043              		.loc 1 420 0
 1044              		.cfi_startproc
 1045 0000 F0B5     		push	{r4, r5, r6, r7, lr}
 1046              		.cfi_def_cfa_offset 20
 1047              		.cfi_offset 4, -20
 1048              		.cfi_offset 5, -16
 1049              		.cfi_offset 6, -12
 1050              		.cfi_offset 7, -8
 1051              		.cfi_offset 14, -4
 1052 0002 87B0     		sub	sp, sp, #28
 1053              		.cfi_def_cfa_offset 48
 423:network.c     ****     
 1054              		.loc 1 423 0
 1055 0004 FFF7FEFF 		bl	UART_XB_SpiUartClearRxBuffer
 1056              	.LVL74:
 431:network.c     ****     onNtpSync = 1;
 1057              		.loc 1 431 0
 1058 0008 0122     		mov	r2, #1
 432:network.c     ****     
 1059              		.loc 1 432 0
 1060 000a 0625     		mov	r5, #6
 430:network.c     ****     ntpFlagReadyForReceive = 1;
 1061              		.loc 1 430 0
 1062 000c 0024     		mov	r4, #0
 431:network.c     ****     onNtpSync = 1;
 1063              		.loc 1 431 0
 1064 000e 7B4B     		ldr	r3, .L147
 432:network.c     ****     
 1065              		.loc 1 432 0
 1066 0010 7B49     		ldr	r1, .L147+4
 431:network.c     ****     onNtpSync = 1;
 1067              		.loc 1 431 0
 1068 0012 1A70     		strb	r2, [r3]
 432:network.c     ****     
 1069              		.loc 1 432 0
 1070 0014 0A70     		strb	r2, [r1]
 1071 0016 0193     		str	r3, [sp, #4]
 1072              	.LVL75:
 1073              	.L107:
 1074              	.LBB12:
 437:network.c     ****         millisTime[T1] = RTCgetRecentMs();
 1075              		.loc 1 437 0
 1076 0018 FFF7FEFF 		bl	RTCGetUnixTime
 1077              	.LVL76:
 1078 001c 794E     		ldr	r6, .L147+8
 1079 001e 3060     		str	r0, [r6]
 438:network.c     ****         #ifdef DEBUGNTP
 1080              		.loc 1 438 0
 1081 0020 FFF7FEFF 		bl	RTCgetRecentMs
 1082              	.LVL77:
 1083 0024 784B     		ldr	r3, .L147+12
 1084 0026 81B2     		uxth	r1, r0
 446:network.c     ****         
 1085              		.loc 1 446 0
 1086 0028 0122     		mov	r2, #1
ARM GAS  C:\Users\Petro\AppData\Local\Temp\ccOLGOpz.s 			page 36


 1087 002a 3068     		ldr	r0, [r6]
 438:network.c     ****         #ifdef DEBUGNTP
 1088              		.loc 1 438 0
 1089 002c 1980     		strh	r1, [r3]
 446:network.c     ****         
 1090              		.loc 1 446 0
 1091 002e FFF7FEFF 		bl	NTPsendTime
 1092              	.LVL78:
 449:network.c     ****         delayReceivePacket += RTCgetRecentMs();
 1093              		.loc 1 449 0
 1094 0032 FFF7FEFF 		bl	RTCGetUnixTime
 1095              	.LVL79:
 1096 0036 071C     		mov	r7, r0
 1097              	.LVL80:
 450:network.c     ****         
 1098              		.loc 1 450 0
 1099 0038 FFF7FEFF 		bl	RTCgetRecentMs
 1100              	.LVL81:
 1101 003c F530     		add	r0, r0, #245
 1102 003e FF30     		add	r0, r0, #255
 1103 0040 86B2     		uxth	r6, r0
 1104              	.LVL82:
 1105              	.L99:
 456:network.c     ****         {
 1106              		.loc 1 456 0
 1107 0042 FFF7FEFF 		bl	RTCgetRecentMs
 1108              	.LVL83:
 1109 0046 B042     		cmp	r0, r6
 1110 0048 1DD2     		bcs	.L104
 456:network.c     ****         {
 1111              		.loc 1 456 0 is_stmt 0 discriminator 1
 1112 004a 012C     		cmp	r4, #1
 1113 004c 1BD0     		beq	.L104
 458:network.c     ****             {
 1114              		.loc 1 458 0 is_stmt 1
 1115 004e 6F4B     		ldr	r3, .L147+16
 1116 0050 1A78     		ldrb	r2, [r3]
 1117 0052 002A     		cmp	r2, #0
 1118 0054 09D0     		beq	.L100
 460:network.c     ****                 
 1119              		.loc 1 460 0
 1120 0056 0022     		mov	r2, #0
 1121 0058 1A70     		strb	r2, [r3]
 462:network.c     ****                 {
 1122              		.loc 1 462 0
 1123 005a 6D4B     		ldr	r3, .L147+20
 1124 005c 1A88     		ldrh	r2, [r3]
 1125 005e 0123     		mov	r3, #1
 1126 0060 9A42     		cmp	r2, r3
 1127 0062 00D1     		bne	.L101
 464:network.c     ****                 }
 1128              		.loc 1 464 0
 1129 0064 1C1C     		mov	r4, r3
 1130              	.LVL84:
 1131              	.L101:
 472:network.c     ****             }
 1132              		.loc 1 472 0
ARM GAS  C:\Users\Petro\AppData\Local\Temp\ccOLGOpz.s 			page 37


 1133 0066 019A     		ldr	r2, [sp, #4]
 1134 0068 1370     		strb	r3, [r2]
 1135              	.L100:
 475:network.c     ****             {
 1136              		.loc 1 475 0
 1137 006a FFF7FEFF 		bl	RTCGetUnixTime
 1138              	.LVL85:
 1139 006e 0029     		cmp	r1, #0
 1140 0070 01D1     		bne	.L136
 1141 0072 B842     		cmp	r0, r7
 1142 0074 E5D9     		bls	.L99
 1143              	.L136:
 475:network.c     ****             {
 1144              		.loc 1 475 0 is_stmt 0 discriminator 1
 1145 0076 674B     		ldr	r3, .L147+24
 1146 0078 9E42     		cmp	r6, r3
 1147 007a E2D9     		bls	.L99
 477:network.c     ****                 oldUnixTime++;
 1148              		.loc 1 477 0 is_stmt 1
 1149 007c 664B     		ldr	r3, .L147+28
 478:network.c     ****                 
 1150              		.loc 1 478 0
 1151 007e 0137     		add	r7, r7, #1
 1152              	.LVL86:
 477:network.c     ****                 oldUnixTime++;
 1153              		.loc 1 477 0
 1154 0080 F618     		add	r6, r6, r3
 1155              	.LVL87:
 1156 0082 B6B2     		uxth	r6, r6
 1157              	.LVL88:
 1158 0084 DDE7     		b	.L99
 1159              	.L104:
 1160              	.LVL89:
 1161 0086 013D     		sub	r5, r5, #1
 1162              	.LVL90:
 1163 0088 ADB2     		uxth	r5, r5
 1164              	.LBE12:
 434:network.c     ****     {
 1165              		.loc 1 434 0
 1166 008a 002D     		cmp	r5, #0
 1167 008c 02D0     		beq	.L106
 434:network.c     ****     {
 1168              		.loc 1 434 0 is_stmt 0 discriminator 1
 1169 008e 012C     		cmp	r4, #1
 1170 0090 C2D1     		bne	.L107
 1171 0092 02E0     		b	.L131
 1172              	.L106:
 1173              	.LVL91:
 499:network.c     ****     IDpacket = 2;
 1174              		.loc 1 499 0 is_stmt 1
 1175 0094 2E1C     		mov	r6, r5
 1176              	.LVL92:
 502:network.c     ****     {
 1177              		.loc 1 502 0
 1178 0096 012C     		cmp	r4, #1
 1179 0098 01D1     		bne	.L108
 1180              	.LVL93:
ARM GAS  C:\Users\Petro\AppData\Local\Temp\ccOLGOpz.s 			page 38


 1181              	.L131:
 504:network.c     ****         numAttemptSendPacket = NTP_CONNECT_ATTEMPS;
 1182              		.loc 1 504 0
 1183 009a 0525     		mov	r5, #5
 505:network.c     ****     }
 1184              		.loc 1 505 0
 1185 009c 0626     		mov	r6, #6
 1186              	.L108:
 1187              	.LBB13:
 510:network.c     ****         unixTime[T1] = RTCGetUnixTime();
 1188              		.loc 1 510 0
 1189 009e 0027     		mov	r7, #0
 1190              	.LVL94:
 1191 00a0 0223     		mov	r3, #2
 1192              	.L144:
 582:network.c     ****     }
 1193              		.loc 1 582 0
 1194 00a2 0193     		str	r3, [sp, #4]
 1195              	.LVL95:
 1196              	.LBE13:
 508:network.c     ****     {
 1197              		.loc 1 508 0
 1198 00a4 002E     		cmp	r6, #0
 1199 00a6 0BD1     		bne	.L117
 1200              	.L145:
 1201 00a8 0197     		str	r7, [sp, #4]
 1202              	.LVL96:
 603:network.c     ****     if(result == OK)
 1203              		.loc 1 603 0
 1204 00aa 0026     		mov	r6, #0
 1205              	.LVL97:
 586:network.c     ****     {
 1206              		.loc 1 586 0
 1207 00ac 012C     		cmp	r4, #1
 1208 00ae 5DD1     		bne	.L119
 589:network.c     ****         msTimeDifference += 13; //add static diff time to send packet 
 1209              		.loc 1 589 0
 1210 00b0 381C     		mov	r0, r7
 1211 00b2 0521     		mov	r1, #5
 1212 00b4 FFF7FEFF 		bl	__aeabi_idiv
 1213              	.LVL98:
 590:network.c     ****     }
 1214              		.loc 1 590 0
 1215 00b8 0D30     		add	r0, r0, #13
 1216              	.LVL99:
 1217 00ba 0190     		str	r0, [sp, #4]
 1218              	.LVL100:
 606:network.c     ****     }
 1219              		.loc 1 606 0
 1220 00bc 0626     		mov	r6, #6
 1221 00be 55E0     		b	.L119
 1222              	.LVL101:
 1223              	.L117:
 508:network.c     ****     {
 1224              		.loc 1 508 0 discriminator 1
 1225 00c0 002D     		cmp	r5, #0
 1226 00c2 F1D0     		beq	.L145
ARM GAS  C:\Users\Petro\AppData\Local\Temp\ccOLGOpz.s 			page 39


 1227              	.LVL102:
 1228              	.LBB15:
 511:network.c     ****         millisTime[T1] = RTCgetRecentMs();
 1229              		.loc 1 511 0
 1230 00c4 FFF7FEFF 		bl	RTCGetUnixTime
 1231              	.LVL103:
 1232 00c8 4E4C     		ldr	r4, .L147+8
 1233 00ca 2060     		str	r0, [r4]
 512:network.c     ****         #ifdef DEBUGNTP
 1234              		.loc 1 512 0
 1235 00cc FFF7FEFF 		bl	RTCgetRecentMs
 1236              	.LVL104:
 1237 00d0 4D4B     		ldr	r3, .L147+12
 1238 00d2 81B2     		uxth	r1, r0
 519:network.c     ****         
 1239              		.loc 1 519 0
 1240 00d4 019A     		ldr	r2, [sp, #4]
 1241 00d6 2068     		ldr	r0, [r4]
 512:network.c     ****         #ifdef DEBUGNTP
 1242              		.loc 1 512 0
 1243 00d8 1980     		strh	r1, [r3]
 519:network.c     ****         
 1244              		.loc 1 519 0
 1245 00da FFF7FEFF 		bl	NTPsendTime
 1246              	.LVL105:
 522:network.c     ****         uint32_t oldUnixTime = RTCGetUnixTime();
 1247              		.loc 1 522 0
 1248 00de FFF7FEFF 		bl	RTCgetRecentMs
 1249              	.LVL106:
 1250 00e2 FA23     		mov	r3, #250
 1251 00e4 9B00     		lsl	r3, r3, #2
 1252 00e6 C018     		add	r0, r0, r3
 1253 00e8 83B2     		uxth	r3, r0
 1254 00ea 0293     		str	r3, [sp, #8]
 1255              	.LVL107:
 523:network.c     ****         #ifdef DEBUG_INFO
 1256              		.loc 1 523 0
 1257 00ec FFF7FEFF 		bl	RTCGetUnixTime
 1258              	.LVL108:
 510:network.c     ****         unixTime[T1] = RTCGetUnixTime();
 1259              		.loc 1 510 0
 1260 00f0 0024     		mov	r4, #0
 523:network.c     ****         #ifdef DEBUG_INFO
 1261              		.loc 1 523 0
 1262 00f2 0390     		str	r0, [sp, #12]
 1263              	.LVL109:
 1264              	.L110:
 530:network.c     ****         {
 1265              		.loc 1 530 0
 1266 00f4 FFF7FEFF 		bl	RTCgetRecentMs
 1267              	.LVL110:
 1268 00f8 029B     		ldr	r3, [sp, #8]
 1269 00fa 9842     		cmp	r0, r3
 1270 00fc 30D2     		bcs	.L115
 530:network.c     ****         {
 1271              		.loc 1 530 0 is_stmt 0 discriminator 1
 1272 00fe 012C     		cmp	r4, #1
ARM GAS  C:\Users\Petro\AppData\Local\Temp\ccOLGOpz.s 			page 40


 1273 0100 2ED0     		beq	.L115
 1274 0102 0024     		mov	r4, #0
 1275              	.LVL111:
 532:network.c     ****             {
 1276              		.loc 1 532 0 is_stmt 1
 1277 0104 414B     		ldr	r3, .L147+16
 1278 0106 1A78     		ldrb	r2, [r3]
 1279 0108 A242     		cmp	r2, r4
 1280 010a 14D0     		beq	.L111
 534:network.c     ****                 
 1281              		.loc 1 534 0
 1282 010c 1C70     		strb	r4, [r3]
 536:network.c     ****                 {
 1283              		.loc 1 536 0
 1284 010e 404B     		ldr	r3, .L147+20
 1285 0110 019A     		ldr	r2, [sp, #4]
 1286 0112 1B88     		ldrh	r3, [r3]
 1287 0114 9342     		cmp	r3, r2
 1288 0116 0BD1     		bne	.L112
 1289              	.LBB14:
 539:network.c     ****                     result = OK;
 1290              		.loc 1 539 0
 1291 0118 0626     		mov	r6, #6
 1292              	.LVL112:
 544:network.c     ****                     unixTimeDifference += tmpUnix;
 1293              		.loc 1 544 0
 1294 011a 05AB     		add	r3, sp, #20
 1295 011c 3948     		ldr	r0, .L147+8
 1296 011e 3A49     		ldr	r1, .L147+12
 1297 0120 04AA     		add	r2, sp, #16
 1298 0122 FFF7FEFF 		bl	NTPcalculateTime
 1299              	.LVL113:
 546:network.c     ****                     
 1300              		.loc 1 546 0
 1301 0126 059B     		ldr	r3, [sp, #20]
 538:network.c     ****                     numAttemptSendPacket = NTP_CONNECT_ATTEMPS;
 1302              		.loc 1 538 0
 1303 0128 013D     		sub	r5, r5, #1
 1304              	.LVL114:
 1305 012a EDB2     		uxtb	r5, r5
 1306              	.LVL115:
 546:network.c     ****                     
 1307              		.loc 1 546 0
 1308 012c FF18     		add	r7, r7, r3
 1309              	.LVL116:
 540:network.c     ****                     
 1310              		.loc 1 540 0
 1311 012e 0134     		add	r4, r4, #1
 1312              	.LVL117:
 1313              	.L112:
 1314              	.LBE14:
 573:network.c     ****             }
 1315              		.loc 1 573 0
 1316 0130 0122     		mov	r2, #1
 1317 0132 324B     		ldr	r3, .L147
 1318 0134 1A70     		strb	r2, [r3]
 1319              	.LVL118:
ARM GAS  C:\Users\Petro\AppData\Local\Temp\ccOLGOpz.s 			page 41


 1320              	.L111:
 575:network.c     ****             {
 1321              		.loc 1 575 0
 1322 0136 FFF7FEFF 		bl	RTCGetUnixTime
 1323              	.LVL119:
 1324 013a 0029     		cmp	r1, #0
 1325 013c 02D1     		bne	.L137
 1326 013e 039B     		ldr	r3, [sp, #12]
 1327 0140 9842     		cmp	r0, r3
 1328 0142 D7D9     		bls	.L110
 1329              	.L137:
 575:network.c     ****             {
 1330              		.loc 1 575 0 is_stmt 0 discriminator 1
 1331 0144 334B     		ldr	r3, .L147+24
 1332 0146 029A     		ldr	r2, [sp, #8]
 1333 0148 9A42     		cmp	r2, r3
 1334 014a D3D9     		bls	.L110
 577:network.c     ****                 oldUnixTime++;
 1335              		.loc 1 577 0 is_stmt 1
 1336 014c 131C     		mov	r3, r2
 1337 014e 324A     		ldr	r2, .L147+28
 1338 0150 9446     		mov	ip, r2
 1339 0152 6344     		add	r3, r3, ip
 1340 0154 9BB2     		uxth	r3, r3
 1341 0156 0293     		str	r3, [sp, #8]
 1342              	.LVL120:
 578:network.c     ****             }
 1343              		.loc 1 578 0
 1344 0158 039B     		ldr	r3, [sp, #12]
 1345 015a 0133     		add	r3, r3, #1
 1346 015c 0393     		str	r3, [sp, #12]
 1347              	.LVL121:
 1348 015e C9E7     		b	.L110
 1349              	.LVL122:
 1350              	.L115:
 582:network.c     ****     }
 1351              		.loc 1 582 0
 1352 0160 019B     		ldr	r3, [sp, #4]
 581:network.c     ****         IDpacket++;
 1353              		.loc 1 581 0
 1354 0162 013E     		sub	r6, r6, #1
 1355              	.LVL123:
 582:network.c     ****     }
 1356              		.loc 1 582 0
 1357 0164 0133     		add	r3, r3, #1
 581:network.c     ****         IDpacket++;
 1358              		.loc 1 581 0
 1359 0166 B6B2     		uxth	r6, r6
 1360              	.LVL124:
 582:network.c     ****     }
 1361              		.loc 1 582 0
 1362 0168 9BB2     		uxth	r3, r3
 1363 016a 9AE7     		b	.L144
 1364              	.LVL125:
 1365              	.L119:
 1366              	.LBE15:
 608:network.c     ****     IDpacket = 0;
ARM GAS  C:\Users\Petro\AppData\Local\Temp\ccOLGOpz.s 			page 42


 1367              		.loc 1 608 0
 1368 016c 0122     		mov	r2, #1
 1369 016e 234B     		ldr	r3, .L147
 1370 0170 1A70     		strb	r2, [r3]
 1371              	.LVL126:
 1372 0172 0293     		str	r3, [sp, #8]
 1373              	.LVL127:
 1374              	.L122:
 611:network.c     ****     {
 1375              		.loc 1 611 0
 1376 0174 002E     		cmp	r6, #0
 1377 0176 39D0     		beq	.L146
 1378              	.LVL128:
 1379              	.LBB16:
 622:network.c     ****         
 1380              		.loc 1 622 0
 1381 0178 0020     		mov	r0, #0
 1382 017a 019B     		ldr	r3, [sp, #4]
 1383 017c 021C     		mov	r2, r0
 1384 017e 5942     		neg	r1, r3
 1385 0180 89B2     		uxth	r1, r1
 1386 0182 FFF7FEFF 		bl	NTPsendTime
 1387              	.LVL129:
 625:network.c     ****         delayReceivePacket += RTCgetRecentMs();
 1388              		.loc 1 625 0
 1389 0186 FFF7FEFF 		bl	RTCGetUnixTime
 1390              	.LVL130:
 1391 018a 071C     		mov	r7, r0
 1392              	.LVL131:
 626:network.c     ****         
 1393              		.loc 1 626 0
 1394 018c FFF7FEFF 		bl	RTCgetRecentMs
 1395              	.LVL132:
 613:network.c     ****         
 1396              		.loc 1 613 0
 1397 0190 0024     		mov	r4, #0
 626:network.c     ****         
 1398              		.loc 1 626 0
 1399 0192 F530     		add	r0, r0, #245
 1400 0194 FF30     		add	r0, r0, #255
 1401 0196 85B2     		uxth	r5, r0
 1402              	.LVL133:
 1403              	.L123:
 634:network.c     ****         {
 1404              		.loc 1 634 0
 1405 0198 FFF7FEFF 		bl	RTCgetRecentMs
 1406              	.LVL134:
 1407 019c A842     		cmp	r0, r5
 1408 019e 1DD2     		bcs	.L127
 634:network.c     ****         {
 1409              		.loc 1 634 0 is_stmt 0 discriminator 1
 1410 01a0 012C     		cmp	r4, #1
 1411 01a2 21D0     		beq	.L135
 1412 01a4 0024     		mov	r4, #0
 1413              	.LVL135:
 636:network.c     ****             {
 1414              		.loc 1 636 0 is_stmt 1
ARM GAS  C:\Users\Petro\AppData\Local\Temp\ccOLGOpz.s 			page 43


 1415 01a6 194B     		ldr	r3, .L147+16
 1416 01a8 1A78     		ldrb	r2, [r3]
 1417 01aa A242     		cmp	r2, r4
 1418 01ac 08D0     		beq	.L124
 638:network.c     ****                 
 1419              		.loc 1 638 0
 1420 01ae 1C70     		strb	r4, [r3]
 640:network.c     ****                 {
 1421              		.loc 1 640 0
 1422 01b0 174B     		ldr	r3, .L147+20
 650:network.c     ****             }
 1423              		.loc 1 650 0
 1424 01b2 029A     		ldr	r2, [sp, #8]
 640:network.c     ****                 {
 1425              		.loc 1 640 0
 1426 01b4 1C88     		ldrh	r4, [r3]
 650:network.c     ****             }
 1427              		.loc 1 650 0
 1428 01b6 0123     		mov	r3, #1
 640:network.c     ****                 {
 1429              		.loc 1 640 0
 1430 01b8 6042     		neg	r0, r4
 1431 01ba 4441     		adc	r4, r4, r0
 650:network.c     ****             }
 1432              		.loc 1 650 0
 1433 01bc 1370     		strb	r3, [r2]
 642:network.c     ****                 }
 1434              		.loc 1 642 0
 1435 01be A4B2     		uxth	r4, r4
 1436              	.LVL136:
 1437              	.L124:
 653:network.c     ****             {
 1438              		.loc 1 653 0
 1439 01c0 FFF7FEFF 		bl	RTCGetUnixTime
 1440              	.LVL137:
 1441 01c4 0029     		cmp	r1, #0
 1442 01c6 01D1     		bne	.L138
 1443 01c8 B842     		cmp	r0, r7
 1444 01ca E5D9     		bls	.L123
 1445              	.L138:
 653:network.c     ****             {
 1446              		.loc 1 653 0 is_stmt 0 discriminator 1
 1447 01cc 114B     		ldr	r3, .L147+24
 1448 01ce 9D42     		cmp	r5, r3
 1449 01d0 E2D9     		bls	.L123
 655:network.c     ****                 oldUnixTime++;
 1450              		.loc 1 655 0 is_stmt 1
 1451 01d2 114B     		ldr	r3, .L147+28
 656:network.c     ****                 
 1452              		.loc 1 656 0
 1453 01d4 0137     		add	r7, r7, #1
 1454              	.LVL138:
 655:network.c     ****                 oldUnixTime++;
 1455              		.loc 1 655 0
 1456 01d6 ED18     		add	r5, r5, r3
 1457              	.LVL139:
 1458 01d8 ADB2     		uxth	r5, r5
ARM GAS  C:\Users\Petro\AppData\Local\Temp\ccOLGOpz.s 			page 44


 1459              	.LVL140:
 1460 01da DDE7     		b	.L123
 1461              	.L127:
 1462              	.LVL141:
 667:network.c     ****             numAttemptSendPacket = 0;
 1463              		.loc 1 667 0
 1464 01dc 012C     		cmp	r4, #1
 1465 01de 03D0     		beq	.L135
 666:network.c     ****         if(result == OK)
 1466              		.loc 1 666 0
 1467 01e0 013E     		sub	r6, r6, #1
 1468              	.LVL142:
 1469 01e2 B6B2     		uxth	r6, r6
 1470 01e4 0024     		mov	r4, #0
 1471              	.LVL143:
 1472 01e6 C5E7     		b	.L122
 1473              	.LVL144:
 1474              	.L135:
 668:network.c     ****     }
 1475              		.loc 1 668 0
 1476 01e8 0026     		mov	r6, #0
 1477 01ea C3E7     		b	.L122
 1478              	.LVL145:
 1479              	.L146:
 1480              	.LBE16:
 678:network.c     ****         result = TIME_SYNC_OK;
 1481              		.loc 1 678 0
 1482 01ec 601E     		sub	r0, r4, #1
 1483 01ee 441E     		sub	r4, r0, #1
 1484 01f0 A041     		sbc	r0, r0, r4
 1485              	.LVL146:
 683:network.c     **** 
 1486              		.loc 1 683 0
 1487 01f2 034B     		ldr	r3, .L147+4
 1488 01f4 1E70     		strb	r6, [r3]
 686:network.c     **** 
 1489              		.loc 1 686 0
 1490 01f6 07B0     		add	sp, sp, #28
 1491              		@ sp needed
 1492              	.LVL147:
 1493 01f8 F0BD     		pop	{r4, r5, r6, r7, pc}
 1494              	.L148:
 1495 01fa C046     		.align	2
 1496              	.L147:
 1497 01fc 00000000 		.word	ntpFlagReadyForReceive
 1498 0200 00000000 		.word	.LANCHOR0
 1499 0204 00000000 		.word	unixTime
 1500 0208 00000000 		.word	millisTime
 1501 020c 00000000 		.word	ntpFlagEndReceivePacket
 1502 0210 00000000 		.word	recvDataNTP
 1503 0214 E7030000 		.word	999
 1504 0218 18FCFFFF 		.word	-1000
 1505              		.cfi_endproc
 1506              	.LFE74:
 1507              		.size	NTPsync, .-NTPsync
 1508              		.section	.text.ChekTimerForTimeSync,"ax",%progbits
 1509              		.align	1
ARM GAS  C:\Users\Petro\AppData\Local\Temp\ccOLGOpz.s 			page 45


 1510              		.global	ChekTimerForTimeSync
 1511              		.code	16
 1512              		.thumb_func
 1513              		.type	ChekTimerForTimeSync, %function
 1514              	ChekTimerForTimeSync:
 1515              	.LFB78:
 776:network.c     **** 
 777:network.c     **** uint8_t ChekTimerForTimeSync(void)
 778:network.c     **** {
 1516              		.loc 1 778 0
 1517              		.cfi_startproc
 1518              	.LVL148:
 779:network.c     ****     uint8_t result;
 780:network.c     ****     
 781:network.c     ****     result = SYNC_NO_REQUIRES;
 782:network.c     ****     
 783:network.c     ****     if((oldUnixTime + TIME_BY_SYNC) < RTC_GetUnixTime())
 1519              		.loc 1 783 0
 1520 0000 074B     		ldr	r3, .L152
 778:network.c     ****     uint8_t result;
 1521              		.loc 1 778 0
 1522 0002 10B5     		push	{r4, lr}
 1523              		.cfi_def_cfa_offset 8
 1524              		.cfi_offset 4, -8
 1525              		.cfi_offset 14, -4
 1526              		.loc 1 783 0
 1527 0004 1C68     		ldr	r4, [r3]
 1528 0006 E123     		mov	r3, #225
 1529 0008 DB00     		lsl	r3, r3, #3
 1530 000a E418     		add	r4, r4, r3
 1531 000c FFF7FEFF 		bl	RTC_GetUnixTime
 1532              	.LVL149:
 1533 0010 0123     		mov	r3, #1
 1534 0012 0029     		cmp	r1, #0
 1535 0014 02D1     		bne	.L150
 1536 0016 8442     		cmp	r4, r0
 1537 0018 A441     		sbc	r4, r4, r4
 1538              	.LVL150:
 1539 001a 2340     		and	r3, r4
 1540              	.L150:
 784:network.c     ****     {
 785:network.c     ****         result = SYNC_REQUIRES;
 786:network.c     ****     }   
 787:network.c     ****     
 788:network.c     ****     return result;
 1541              		.loc 1 788 0
 1542 001c D8B2     		uxtb	r0, r3
 789:network.c     **** }
 1543              		.loc 1 789 0
 1544              		@ sp needed
 1545 001e 10BD     		pop	{r4, pc}
 1546              	.L153:
 1547              		.align	2
 1548              	.L152:
 1549 0020 00000000 		.word	oldUnixTime
 1550              		.cfi_endproc
 1551              	.LFE78:
ARM GAS  C:\Users\Petro\AppData\Local\Temp\ccOLGOpz.s 			page 46


 1552              		.size	ChekTimerForTimeSync, .-ChekTimerForTimeSync
 1553              		.section	.text.ResetTimerForTimeSync,"ax",%progbits
 1554              		.align	1
 1555              		.global	ResetTimerForTimeSync
 1556              		.code	16
 1557              		.thumb_func
 1558              		.type	ResetTimerForTimeSync, %function
 1559              	ResetTimerForTimeSync:
 1560              	.LFB79:
 790:network.c     **** 
 791:network.c     **** void ResetTimerForTimeSync(void)
 792:network.c     **** {
 1561              		.loc 1 792 0
 1562              		.cfi_startproc
 1563 0000 08B5     		push	{r3, lr}
 1564              		.cfi_def_cfa_offset 8
 1565              		.cfi_offset 3, -8
 1566              		.cfi_offset 14, -4
 793:network.c     ****     oldUnixTime = RTC_GetUnixTime();
 1567              		.loc 1 793 0
 1568 0002 FFF7FEFF 		bl	RTC_GetUnixTime
 1569              	.LVL151:
 1570 0006 014B     		ldr	r3, .L155
 794:network.c     **** }
 1571              		.loc 1 794 0
 1572              		@ sp needed
 793:network.c     ****     oldUnixTime = RTC_GetUnixTime();
 1573              		.loc 1 793 0
 1574 0008 1860     		str	r0, [r3]
 1575              		.loc 1 794 0
 1576 000a 08BD     		pop	{r3, pc}
 1577              	.L156:
 1578              		.align	2
 1579              	.L155:
 1580 000c 00000000 		.word	oldUnixTime
 1581              		.cfi_endproc
 1582              	.LFE79:
 1583              		.size	ResetTimerForTimeSync, .-ResetTimerForTimeSync
 1584              		.comm	oldUnixTime,4,4
 1585              		.global	onNtpSync
 1586              		.comm	recvDataNTP,24,4
 1587              		.comm	ntpFlagReadyForReceive,1,1
 1588              		.comm	ntpFlagEndReceivePacket,1,1
 1589              		.comm	millisTime,8,2
 1590              		.comm	unixTime,16,4
 1591              		.comm	networkStatus,2,2
 1592              		.comm	noConnect,2,2
 1593              		.comm	numAttemps,2,2
 1594              		.comm	rebootFlag,1,1
 1595              		.comm	inData,24,8
 1596              		.comm	outData,24,8
 1597              		.section	.rodata.str1.1,"aMS",%progbits,1
 1598              	.LC13:
 1599 0000 25303258 		.ascii	"%02X:%016X%02X%02X%02X%02X\000"
 1599      3A253031 
 1599      36582530 
 1599      32582530 
ARM GAS  C:\Users\Petro\AppData\Local\Temp\ccOLGOpz.s 			page 47


 1599      32582530 
 1600              	.LC48:
 1601 001b 25303858 		.ascii	"%08X%03X\000"
 1601      25303358 
 1601      00
 1602              		.bss
 1603              		.set	.LANCHOR0,. + 0
 1604              		.type	onNtpSync, %object
 1605              		.size	onNtpSync, 1
 1606              	onNtpSync:
 1607 0000 00       		.space	1
 1608              		.text
 1609              	.Letext0:
 1610              		.file 2 "c:\\program files (x86)\\cypress\\psoc creator\\4.0\\psoc creator\\import\\gnu\\arm\\4.9.
 1611              		.file 3 "c:\\program files (x86)\\cypress\\psoc creator\\4.0\\psoc creator\\import\\gnu\\arm\\4.9.
 1612              		.file 4 "Generated_Source\\PSoC4/cytypes.h"
 1613              		.file 5 "lib_Network/svt.h"
 1614              		.file 6 "lib_Network/ntp.h"
 1615              		.file 7 "Generated_Source\\PSoC4/UART_XB_SPI_UART.h"
 1616              		.file 8 "Generated_Source\\PSoC4/RTC.h"
 1617              		.file 9 "lib_RTC/RTC_WDT.h"
 1618              		.file 10 "Generated_Source\\PSoC4/UART_XB.h"
 1619              		.file 11 "./lib_DB\\database.h"
 1620              		.file 12 "c:\\program files (x86)\\cypress\\psoc creator\\4.0\\psoc creator\\import\\gnu\\arm\\4.9
 1621              		.file 13 "Generated_Source\\PSoC4/CyLib.h"
 1622              		.file 14 "./lib_DB\\logResult.h"
 1623              		.file 15 "./lib_BLE/bluetooth.h"
 1624              		.file 16 "Generated_Source\\PSoC4/ble_Stack.h"