ARM GAS  C:\Users\Petro\AppData\Local\Temp\ccu6AbgO.s 			page 1


   1              		.cpu cortex-m0
   2              		.fpu softvfp
   3              		.eabi_attribute 20, 1
   4              		.eabi_attribute 21, 1
   5              		.eabi_attribute 23, 3
   6              		.eabi_attribute 24, 1
   7              		.eabi_attribute 25, 1
   8              		.eabi_attribute 26, 1
   9              		.eabi_attribute 30, 4
  10              		.eabi_attribute 34, 0
  11              		.eabi_attribute 18, 4
  12              		.code	16
  13              		.file	"rtc_fat.c"
  14              		.text
  15              	.Ltext0:
  16              		.cfi_sections	.debug_frame
  17              		.section	.text.get_fattime,"ax",%progbits
  18              		.align	1
  19              		.global	get_fattime
  20              		.code	16
  21              		.thumb_func
  22              		.type	get_fattime, %function
  23              	get_fattime:
  24              	.LFB63:
  25              		.file 1 "lib_Fat\\rtc_fat.c"
   1:lib_Fat/rtc_fat.c **** /* ========================================
   2:lib_Fat/rtc_fat.c ****  *
   3:lib_Fat/rtc_fat.c ****  * Copyright YOUR COMPANY, THE YEAR
   4:lib_Fat/rtc_fat.c ****  * All Rights Reserved
   5:lib_Fat/rtc_fat.c ****  * UNPUBLISHED, LICENSED SOFTWARE.
   6:lib_Fat/rtc_fat.c ****  *
   7:lib_Fat/rtc_fat.c ****  * CONFIDENTIAL AND PROPRIETARY INFORMATION
   8:lib_Fat/rtc_fat.c ****  * WHICH IS THE PROPERTY OF your company.
   9:lib_Fat/rtc_fat.c ****  *
  10:lib_Fat/rtc_fat.c ****  * ========================================
  11:lib_Fat/rtc_fat.c **** */
  12:lib_Fat/rtc_fat.c **** 
  13:lib_Fat/rtc_fat.c **** #include <project.h>
  14:lib_Fat/rtc_fat.c **** #include "rtc_fat.h"
  15:lib_Fat/rtc_fat.c **** #include "diskio.h"
  16:lib_Fat/rtc_fat.c **** #include "ff.h"
  17:lib_Fat/rtc_fat.c **** 
  18:lib_Fat/rtc_fat.c **** /*---------------------------------------------------------*/
  19:lib_Fat/rtc_fat.c **** /* User Provided RTC Function for FatFs module             */
  20:lib_Fat/rtc_fat.c **** /*---------------------------------------------------------*/
  21:lib_Fat/rtc_fat.c **** /* This is a real time clock service to be called from     */
  22:lib_Fat/rtc_fat.c **** /* FatFs module. Any valid time must be returned even if   */
  23:lib_Fat/rtc_fat.c **** /* the system does not support an RTC.                     */
  24:lib_Fat/rtc_fat.c **** /* This function is not required in read-only cfg.         */
  25:lib_Fat/rtc_fat.c **** #include <RTC.h>
  26:lib_Fat/rtc_fat.c **** 
  27:lib_Fat/rtc_fat.c **** static uint32_t rtcYear = 2016;
  28:lib_Fat/rtc_fat.c **** static uint32_t rtcMonth = 7;
  29:lib_Fat/rtc_fat.c **** static uint32_t rtcDay = 31;
  30:lib_Fat/rtc_fat.c **** static uint32_t rtcHour = 21;
  31:lib_Fat/rtc_fat.c **** static uint32_t rtcMinutes = 15;
  32:lib_Fat/rtc_fat.c **** static uint32_t rtcSeconds = 1;
ARM GAS  C:\Users\Petro\AppData\Local\Temp\ccu6AbgO.s 			page 2


  33:lib_Fat/rtc_fat.c **** static uint32_t rtcTime;
  34:lib_Fat/rtc_fat.c **** static uint32_t rtcDate;
  35:lib_Fat/rtc_fat.c **** 
  36:lib_Fat/rtc_fat.c **** 
  37:lib_Fat/rtc_fat.c **** DWORD get_fattime()
  38:lib_Fat/rtc_fat.c **** {
  26              		.loc 1 38 0
  27              		.cfi_startproc
  28 0000 F8B5     		push	{r3, r4, r5, r6, r7, lr}
  29              		.cfi_def_cfa_offset 24
  30              		.cfi_offset 3, -24
  31              		.cfi_offset 4, -20
  32              		.cfi_offset 5, -16
  33              		.cfi_offset 6, -12
  34              		.cfi_offset 7, -8
  35              		.cfi_offset 14, -4
  39:lib_Fat/rtc_fat.c **** 	rtcTime = RTC_GetTime();
  36              		.loc 1 39 0
  37 0002 FFF7FEFF 		bl	RTC_GetTime
  38              	.LVL0:
  39 0006 324C     		ldr	r4, .L9
  40 0008 2060     		str	r0, [r4]
  40:lib_Fat/rtc_fat.c ****     rtcDate = RTC_GetDate();
  41              		.loc 1 40 0
  42 000a FFF7FEFF 		bl	RTC_GetDate
  43              	.LVL1:
  44              	.LBB25:
  45              	.LBB26:
  46              		.file 2 "Generated_Source\\PSoC4/RTC.h"
   1:Generated_Source\PSoC4/RTC.h **** /***************************************************************************//**
   2:Generated_Source\PSoC4/RTC.h **** * \file Name: RTC.h
   3:Generated_Source\PSoC4/RTC.h **** * \version 1.10
   4:Generated_Source\PSoC4/RTC.h **** *
   5:Generated_Source\PSoC4/RTC.h **** * \brief
   6:Generated_Source\PSoC4/RTC.h **** *  This file provides constants and parameter values for the RTC_P4 Component.
   7:Generated_Source\PSoC4/RTC.h **** *
   8:Generated_Source\PSoC4/RTC.h **** ********************************************************************************
   9:Generated_Source\PSoC4/RTC.h **** * Copyright 2015-2016, Cypress Semiconductor Corporation.  All rights reserved.
  10:Generated_Source\PSoC4/RTC.h **** * You may use this file only in accordance with the license, terms, conditions,
  11:Generated_Source\PSoC4/RTC.h **** * disclaimers, and limitations in the end user license agreement accompanying
  12:Generated_Source\PSoC4/RTC.h **** * the software package with which this file was provided.
  13:Generated_Source\PSoC4/RTC.h **** *******************************************************************************/
  14:Generated_Source\PSoC4/RTC.h **** 
  15:Generated_Source\PSoC4/RTC.h **** #if !defined(CY_RTC_P4_RTC_H)
  16:Generated_Source\PSoC4/RTC.h **** #define CY_RTC_P4_RTC_H
  17:Generated_Source\PSoC4/RTC.h **** 
  18:Generated_Source\PSoC4/RTC.h **** #include <cytypes.h>
  19:Generated_Source\PSoC4/RTC.h **** #include <CyLib.h>
  20:Generated_Source\PSoC4/RTC.h **** 
  21:Generated_Source\PSoC4/RTC.h **** 
  22:Generated_Source\PSoC4/RTC.h **** /*******************************************************************************
  23:Generated_Source\PSoC4/RTC.h **** *    Data types definition
  24:Generated_Source\PSoC4/RTC.h **** *******************************************************************************/
  25:Generated_Source\PSoC4/RTC.h **** 
  26:Generated_Source\PSoC4/RTC.h **** typedef enum
  27:Generated_Source\PSoC4/RTC.h **** {
  28:Generated_Source\PSoC4/RTC.h ****     RTC_DST_DATE_RELATIVE = 0u,
ARM GAS  C:\Users\Petro\AppData\Local\Temp\ccu6AbgO.s 			page 3


  29:Generated_Source\PSoC4/RTC.h ****     RTC_DST_DATE_FIXED = 1u
  30:Generated_Source\PSoC4/RTC.h **** }RTC_DST_DATETYPE_ENUM;
  31:Generated_Source\PSoC4/RTC.h **** 
  32:Generated_Source\PSoC4/RTC.h **** /**
  33:Generated_Source\PSoC4/RTC.h **** * \addtogroup group_structures
  34:Generated_Source\PSoC4/RTC.h **** * @{
  35:Generated_Source\PSoC4/RTC.h **** */
  36:Generated_Source\PSoC4/RTC.h **** 
  37:Generated_Source\PSoC4/RTC.h **** /**
  38:Generated_Source\PSoC4/RTC.h **** * This is the data structure that is used to save the current time and date 
  39:Generated_Source\PSoC4/RTC.h **** * (RTC_currentTimeDate), and Alarm time and date (RTC_alarmCfgTimeDate).
  40:Generated_Source\PSoC4/RTC.h **** */
  41:Generated_Source\PSoC4/RTC.h **** typedef struct
  42:Generated_Source\PSoC4/RTC.h **** {
  43:Generated_Source\PSoC4/RTC.h ****     uint32 time;
  44:Generated_Source\PSoC4/RTC.h ****     uint32 date;
  45:Generated_Source\PSoC4/RTC.h ****     uint32 dayOfWeek;
  46:Generated_Source\PSoC4/RTC.h ****     uint32 status;
  47:Generated_Source\PSoC4/RTC.h **** }RTC_DATE_TIME;
  48:Generated_Source\PSoC4/RTC.h **** 
  49:Generated_Source\PSoC4/RTC.h **** /**
  50:Generated_Source\PSoC4/RTC.h **** * This is the data structure that is used to save time and date values for 
  51:Generated_Source\PSoC4/RTC.h **** * Daylight Savings Time Start and Stop (RTC_dstTimeDateStart and 
  52:Generated_Source\PSoC4/RTC.h **** * RTC_dstTimeDateStop).
  53:Generated_Source\PSoC4/RTC.h **** */
  54:Generated_Source\PSoC4/RTC.h **** typedef struct
  55:Generated_Source\PSoC4/RTC.h **** {
  56:Generated_Source\PSoC4/RTC.h ****     uint32 hour;
  57:Generated_Source\PSoC4/RTC.h ****     uint32 dayOfWeek;
  58:Generated_Source\PSoC4/RTC.h ****     uint32 dayOfMonth;
  59:Generated_Source\PSoC4/RTC.h ****     uint32 weekOfMonth;
  60:Generated_Source\PSoC4/RTC.h ****     uint32 month;
  61:Generated_Source\PSoC4/RTC.h ****     uint8  timeFormat;
  62:Generated_Source\PSoC4/RTC.h **** }RTC_DST_TIME;
  63:Generated_Source\PSoC4/RTC.h **** 
  64:Generated_Source\PSoC4/RTC.h **** /** @} structures */
  65:Generated_Source\PSoC4/RTC.h **** 
  66:Generated_Source\PSoC4/RTC.h **** /*******************************************************************************
  67:Generated_Source\PSoC4/RTC.h **** *    Enumerated Types and Parameters
  68:Generated_Source\PSoC4/RTC.h **** *******************************************************************************/
  69:Generated_Source\PSoC4/RTC.h **** /* Time Format setting constants */
  70:Generated_Source\PSoC4/RTC.h **** #define RTC__HOUR_12 1
  71:Generated_Source\PSoC4/RTC.h **** #define RTC__HOUR_24 0
  72:Generated_Source\PSoC4/RTC.h **** 
  73:Generated_Source\PSoC4/RTC.h **** /*  Date Format setting constants */
  74:Generated_Source\PSoC4/RTC.h **** #define RTC__MM_DD_YYYY 0
  75:Generated_Source\PSoC4/RTC.h **** #define RTC__DD_MM_YYYY 1
  76:Generated_Source\PSoC4/RTC.h **** #define RTC__YYYY_MM_DD 2
  77:Generated_Source\PSoC4/RTC.h **** 
  78:Generated_Source\PSoC4/RTC.h **** /* Date Type setting constants */
  79:Generated_Source\PSoC4/RTC.h **** #define RTC__RELATIVE 0
  80:Generated_Source\PSoC4/RTC.h **** #define RTC__FIXED 1
  81:Generated_Source\PSoC4/RTC.h **** 
  82:Generated_Source\PSoC4/RTC.h **** /* DST Hour setting constants */
  83:Generated_Source\PSoC4/RTC.h **** #define RTC__H0000 0
  84:Generated_Source\PSoC4/RTC.h **** #define RTC__H0100 1
  85:Generated_Source\PSoC4/RTC.h **** #define RTC__H0200 2
ARM GAS  C:\Users\Petro\AppData\Local\Temp\ccu6AbgO.s 			page 4


  86:Generated_Source\PSoC4/RTC.h **** #define RTC__H0300 3
  87:Generated_Source\PSoC4/RTC.h **** #define RTC__H0400 4
  88:Generated_Source\PSoC4/RTC.h **** #define RTC__H0500 5
  89:Generated_Source\PSoC4/RTC.h **** #define RTC__H0600 6
  90:Generated_Source\PSoC4/RTC.h **** #define RTC__H0700 7
  91:Generated_Source\PSoC4/RTC.h **** #define RTC__H0800 8
  92:Generated_Source\PSoC4/RTC.h **** #define RTC__H0900 9
  93:Generated_Source\PSoC4/RTC.h **** #define RTC__H1000 10
  94:Generated_Source\PSoC4/RTC.h **** #define RTC__H1100 11
  95:Generated_Source\PSoC4/RTC.h **** #define RTC__H1200 12
  96:Generated_Source\PSoC4/RTC.h **** #define RTC__H1300 13
  97:Generated_Source\PSoC4/RTC.h **** #define RTC__H1400 14
  98:Generated_Source\PSoC4/RTC.h **** #define RTC__H1500 15
  99:Generated_Source\PSoC4/RTC.h **** #define RTC__H1600 16
 100:Generated_Source\PSoC4/RTC.h **** #define RTC__H1700 17
 101:Generated_Source\PSoC4/RTC.h **** #define RTC__H1800 18
 102:Generated_Source\PSoC4/RTC.h **** #define RTC__H1900 19
 103:Generated_Source\PSoC4/RTC.h **** #define RTC__H2000 20
 104:Generated_Source\PSoC4/RTC.h **** #define RTC__H2100 21
 105:Generated_Source\PSoC4/RTC.h **** #define RTC__H2200 22
 106:Generated_Source\PSoC4/RTC.h **** #define RTC__H2300 23
 107:Generated_Source\PSoC4/RTC.h **** 
 108:Generated_Source\PSoC4/RTC.h **** /* DST DayOfWeek setting constants */
 109:Generated_Source\PSoC4/RTC.h **** #define RTC__SUNDAY 1
 110:Generated_Source\PSoC4/RTC.h **** #define RTC__MONDAY 2
 111:Generated_Source\PSoC4/RTC.h **** #define RTC__TUESDAY 3
 112:Generated_Source\PSoC4/RTC.h **** #define RTC__WEDNESDAY 4
 113:Generated_Source\PSoC4/RTC.h **** #define RTC__THURSDAY 5
 114:Generated_Source\PSoC4/RTC.h **** #define RTC__FRIDAY 6
 115:Generated_Source\PSoC4/RTC.h **** #define RTC__SATURDAY 7
 116:Generated_Source\PSoC4/RTC.h **** 
 117:Generated_Source\PSoC4/RTC.h **** /* DST Month setting constants */
 118:Generated_Source\PSoC4/RTC.h **** #define RTC__JAN 1
 119:Generated_Source\PSoC4/RTC.h **** #define RTC__FEB 2
 120:Generated_Source\PSoC4/RTC.h **** #define RTC__MAR 3
 121:Generated_Source\PSoC4/RTC.h **** #define RTC__APR 4
 122:Generated_Source\PSoC4/RTC.h **** #define RTC__MAY 5
 123:Generated_Source\PSoC4/RTC.h **** #define RTC__JUN 6
 124:Generated_Source\PSoC4/RTC.h **** #define RTC__JUL 7
 125:Generated_Source\PSoC4/RTC.h **** #define RTC__AUG 8
 126:Generated_Source\PSoC4/RTC.h **** #define RTC__SEP 9
 127:Generated_Source\PSoC4/RTC.h **** #define RTC__OCT 10
 128:Generated_Source\PSoC4/RTC.h **** #define RTC__NOV 11
 129:Generated_Source\PSoC4/RTC.h **** #define RTC__DEC 12
 130:Generated_Source\PSoC4/RTC.h **** 
 131:Generated_Source\PSoC4/RTC.h **** /* DST WeekOfMonth setting constants */
 132:Generated_Source\PSoC4/RTC.h **** #define RTC__FIRST 1
 133:Generated_Source\PSoC4/RTC.h **** #define RTC__SECOND 2
 134:Generated_Source\PSoC4/RTC.h **** #define RTC__THIRD 3
 135:Generated_Source\PSoC4/RTC.h **** #define RTC__FOURTH 4
 136:Generated_Source\PSoC4/RTC.h **** #define RTC__FIFTH 5
 137:Generated_Source\PSoC4/RTC.h **** #define RTC__LAST 6
 138:Generated_Source\PSoC4/RTC.h **** 
 139:Generated_Source\PSoC4/RTC.h **** 
 140:Generated_Source\PSoC4/RTC.h **** #define RTC_INITIAL_DATA_FORMAT     (0u)
 141:Generated_Source\PSoC4/RTC.h **** #define RTC_INITIAL_TIME_FORMAT     (0u)
 142:Generated_Source\PSoC4/RTC.h **** #define RTC_INITIAL_UPDATE_MODE     (0u)
ARM GAS  C:\Users\Petro\AppData\Local\Temp\ccu6AbgO.s 			page 5


 143:Generated_Source\PSoC4/RTC.h **** #define RTC_INITIAL_SECOND          (0u)
 144:Generated_Source\PSoC4/RTC.h **** #define RTC_INITIAL_MINUTE          (16u)
 145:Generated_Source\PSoC4/RTC.h **** #define RTC_INITIAL_HOUR            (10u)
 146:Generated_Source\PSoC4/RTC.h **** #define RTC_INITIAL_DAY             (9u)
 147:Generated_Source\PSoC4/RTC.h **** #define RTC_INITIAL_MONTH           (8u)
 148:Generated_Source\PSoC4/RTC.h **** #define RTC_INITIAL_YEAR            (2016u)
 149:Generated_Source\PSoC4/RTC.h **** 
 150:Generated_Source\PSoC4/RTC.h **** #define RTC_INITIAL_ALARM_STATUS    (0u)
 151:Generated_Source\PSoC4/RTC.h **** 
 152:Generated_Source\PSoC4/RTC.h **** #define RTC_INITIAL_DST_STATUS      (0u)
 153:Generated_Source\PSoC4/RTC.h **** #define RTC_INITIAL_DST_DATE_TYPE   (0u)
 154:Generated_Source\PSoC4/RTC.h **** #define RTC_INITIAL_DST_START_MONTH (3uL)
 155:Generated_Source\PSoC4/RTC.h **** #define RTC_INITIAL_DST_START_WOM   (6uL)
 156:Generated_Source\PSoC4/RTC.h **** #define RTC_INITIAL_DST_START_DOM   (22uL)
 157:Generated_Source\PSoC4/RTC.h **** #define RTC_INITIAL_DST_START_DOW   (1uL)
 158:Generated_Source\PSoC4/RTC.h **** #define RTC_INITIAL_DST_START_HRS   (0uL)
 159:Generated_Source\PSoC4/RTC.h **** #define RTC_INITIAL_DST_STOP_MONTH  (10uL)
 160:Generated_Source\PSoC4/RTC.h **** #define RTC_INITIAL_DST_STOP_DOM    (22uL)
 161:Generated_Source\PSoC4/RTC.h **** #define RTC_INITIAL_DST_STOP_DOW    (1uL)
 162:Generated_Source\PSoC4/RTC.h **** #define RTC_INITIAL_DST_STOP_WOM    (6uL)
 163:Generated_Source\PSoC4/RTC.h **** #define RTC_INITIAL_DST_STOP_HRS    (0uL)
 164:Generated_Source\PSoC4/RTC.h **** 
 165:Generated_Source\PSoC4/RTC.h **** /* Day of week definitions */
 166:Generated_Source\PSoC4/RTC.h **** #define RTC_SUNDAY     (RTC__SUNDAY)
 167:Generated_Source\PSoC4/RTC.h **** #define RTC_MONDAY     (RTC__MONDAY)
 168:Generated_Source\PSoC4/RTC.h **** #define RTC_TUESDAY    (RTC__TUESDAY)
 169:Generated_Source\PSoC4/RTC.h **** #define RTC_WEDNESDAY  (RTC__WEDNESDAY)
 170:Generated_Source\PSoC4/RTC.h **** #define RTC_THURSDAY   (RTC__THURSDAY)
 171:Generated_Source\PSoC4/RTC.h **** #define RTC_FRIDAY     (RTC__FRIDAY)
 172:Generated_Source\PSoC4/RTC.h **** #define RTC_SATURDAY   (RTC__SATURDAY)
 173:Generated_Source\PSoC4/RTC.h **** 
 174:Generated_Source\PSoC4/RTC.h **** /* DST WeekOfMonth setting constants definitions */
 175:Generated_Source\PSoC4/RTC.h **** #define RTC_FIRST      (RTC__FIRST)
 176:Generated_Source\PSoC4/RTC.h **** #define RTC_SECOND     (RTC__SECOND)
 177:Generated_Source\PSoC4/RTC.h **** #define RTC_THIRD      (RTC__THIRD)
 178:Generated_Source\PSoC4/RTC.h **** #define RTC_FOURTH     (RTC__FOURTH)
 179:Generated_Source\PSoC4/RTC.h **** #define RTC_FIFTH      (RTC__FIFTH)
 180:Generated_Source\PSoC4/RTC.h **** #define RTC_LAST       (RTC__LAST)
 181:Generated_Source\PSoC4/RTC.h **** 
 182:Generated_Source\PSoC4/RTC.h **** /* Month definitions */
 183:Generated_Source\PSoC4/RTC.h **** #define RTC_JANUARY    (RTC__JAN)
 184:Generated_Source\PSoC4/RTC.h **** #define RTC_FEBRUARY   (RTC__FEB)
 185:Generated_Source\PSoC4/RTC.h **** #define RTC_MARCH      (RTC__MAR)
 186:Generated_Source\PSoC4/RTC.h **** #define RTC_APRIL      (RTC__APR)
 187:Generated_Source\PSoC4/RTC.h **** #define RTC_MAY        (RTC__MAY)
 188:Generated_Source\PSoC4/RTC.h **** #define RTC_JUNE       (RTC__JUN)
 189:Generated_Source\PSoC4/RTC.h **** #define RTC_JULY       (RTC__JUL)
 190:Generated_Source\PSoC4/RTC.h **** #define RTC_AUGUST     (RTC__AUG)
 191:Generated_Source\PSoC4/RTC.h **** #define RTC_SEPTEMBER  (RTC__SEP)
 192:Generated_Source\PSoC4/RTC.h **** #define RTC_OCTOBER    (RTC__OCT)
 193:Generated_Source\PSoC4/RTC.h **** #define RTC_NOVEMBER   (RTC__NOV)
 194:Generated_Source\PSoC4/RTC.h **** #define RTC_DECEMBER   (RTC__DEC)
 195:Generated_Source\PSoC4/RTC.h **** 
 196:Generated_Source\PSoC4/RTC.h **** #define RTC_DAYS_PER_WEEK       (7u)
 197:Generated_Source\PSoC4/RTC.h **** 
 198:Generated_Source\PSoC4/RTC.h **** /* Number of days in month definitions */
 199:Generated_Source\PSoC4/RTC.h **** #define RTC_DAYS_IN_JANUARY     (31u)
ARM GAS  C:\Users\Petro\AppData\Local\Temp\ccu6AbgO.s 			page 6


 200:Generated_Source\PSoC4/RTC.h **** #define RTC_DAYS_IN_FEBRUARY    (28u)
 201:Generated_Source\PSoC4/RTC.h **** #define RTC_DAYS_IN_MARCH       (31u)
 202:Generated_Source\PSoC4/RTC.h **** #define RTC_DAYS_IN_APRIL       (30u)
 203:Generated_Source\PSoC4/RTC.h **** #define RTC_DAYS_IN_MAY         (31u)
 204:Generated_Source\PSoC4/RTC.h **** #define RTC_DAYS_IN_JUNE        (30u)
 205:Generated_Source\PSoC4/RTC.h **** #define RTC_DAYS_IN_JULY        (31u)
 206:Generated_Source\PSoC4/RTC.h **** #define RTC_DAYS_IN_AUGUST      (31u)
 207:Generated_Source\PSoC4/RTC.h **** #define RTC_DAYS_IN_SEPTEMBER   (30u)
 208:Generated_Source\PSoC4/RTC.h **** #define RTC_DAYS_IN_OCTOBER     (31u)
 209:Generated_Source\PSoC4/RTC.h **** #define RTC_DAYS_IN_NOVEMBER    (30u)
 210:Generated_Source\PSoC4/RTC.h **** #define RTC_DAYS_IN_DECEMBER    (31u)
 211:Generated_Source\PSoC4/RTC.h **** 
 212:Generated_Source\PSoC4/RTC.h **** #define RTC_MONTHS_PER_YEAR     (12uL)
 213:Generated_Source\PSoC4/RTC.h **** 
 214:Generated_Source\PSoC4/RTC.h **** #define RTC_HOURS_PER_DAY       (24uL)
 215:Generated_Source\PSoC4/RTC.h **** #define RTC_HOURS_PER_HALF_DAY  (12uL)
 216:Generated_Source\PSoC4/RTC.h **** 
 217:Generated_Source\PSoC4/RTC.h **** #define RTC_SECONDS_PER_MINUTE  (60uL)
 218:Generated_Source\PSoC4/RTC.h **** #define RTC_SECONDS_PER_HOUR    (3600uL)
 219:Generated_Source\PSoC4/RTC.h **** #define RTC_SECONDS_PER_DAY     (24uL * 3600uL)
 220:Generated_Source\PSoC4/RTC.h **** 
 221:Generated_Source\PSoC4/RTC.h **** #define RTC_SECONDS_PER_LEAP_YEAR    (366uL * 24uL * 3600uL)
 222:Generated_Source\PSoC4/RTC.h **** #define RTC_SECONDS_PER_NONLEAP_YEAR (365uL * 24uL * 3600uL)
 223:Generated_Source\PSoC4/RTC.h **** 
 224:Generated_Source\PSoC4/RTC.h **** #define RTC_UNIX_TIME_PM   ((12uL * 3600uL) + 1uL)
 225:Generated_Source\PSoC4/RTC.h **** 
 226:Generated_Source\PSoC4/RTC.h **** /* AM/PM status definitions */
 227:Generated_Source\PSoC4/RTC.h **** #define RTC_AM                 (0u)
 228:Generated_Source\PSoC4/RTC.h **** #define RTC_PM                 (1u)
 229:Generated_Source\PSoC4/RTC.h **** 
 230:Generated_Source\PSoC4/RTC.h **** /* Time format definitions */
 231:Generated_Source\PSoC4/RTC.h **** #define RTC_12_HOURS_FORMAT    (RTC__HOUR_12)
 232:Generated_Source\PSoC4/RTC.h **** #define RTC_24_HOURS_FORMAT    (RTC__HOUR_24)
 233:Generated_Source\PSoC4/RTC.h **** 
 234:Generated_Source\PSoC4/RTC.h **** /* UNIX time begins in 1970 year.  */
 235:Generated_Source\PSoC4/RTC.h **** #define RTC_YEAR_0             (1970u)
 236:Generated_Source\PSoC4/RTC.h **** 
 237:Generated_Source\PSoC4/RTC.h **** /* Definition of date register fields */
 238:Generated_Source\PSoC4/RTC.h **** #if(RTC_INITIAL_DATA_FORMAT == RTC__MM_DD_YYYY)
 239:Generated_Source\PSoC4/RTC.h ****     #define RTC_10_MONTH_OFFSET   (28u)
 240:Generated_Source\PSoC4/RTC.h ****     #define RTC_MONTH_OFFSET      (24u)
 241:Generated_Source\PSoC4/RTC.h ****     #define RTC_10_DAY_OFFSET     (20u)
 242:Generated_Source\PSoC4/RTC.h ****     #define RTC_DAY_OFFSET        (16u)
 243:Generated_Source\PSoC4/RTC.h ****     #define RTC_1000_YEAR_OFFSET  (12u)
 244:Generated_Source\PSoC4/RTC.h ****     #define RTC_100_YEAR_OFFSET   (8u)
 245:Generated_Source\PSoC4/RTC.h ****     #define RTC_10_YEAR_OFFSET    (4u)
 246:Generated_Source\PSoC4/RTC.h ****     #define RTC_YEAR_OFFSET       (0u)
 247:Generated_Source\PSoC4/RTC.h **** #elif(RTC_INITIAL_DATA_FORMAT == RTC__DD_MM_YYYY)
 248:Generated_Source\PSoC4/RTC.h ****     #define RTC_10_MONTH_OFFSET   (20u)
 249:Generated_Source\PSoC4/RTC.h ****     #define RTC_MONTH_OFFSET      (16u)
 250:Generated_Source\PSoC4/RTC.h ****     #define RTC_10_DAY_OFFSET     (28u)
 251:Generated_Source\PSoC4/RTC.h ****     #define RTC_DAY_OFFSET        (24u)
 252:Generated_Source\PSoC4/RTC.h ****     #define RTC_1000_YEAR_OFFSET  (12u)
 253:Generated_Source\PSoC4/RTC.h ****     #define RTC_100_YEAR_OFFSET   (8u)
 254:Generated_Source\PSoC4/RTC.h ****     #define RTC_10_YEAR_OFFSET    (4u)
 255:Generated_Source\PSoC4/RTC.h ****     #define RTC_YEAR_OFFSET       (0u)
 256:Generated_Source\PSoC4/RTC.h **** #else
ARM GAS  C:\Users\Petro\AppData\Local\Temp\ccu6AbgO.s 			page 7


 257:Generated_Source\PSoC4/RTC.h ****     #define RTC_10_MONTH_OFFSET   (12u)
 258:Generated_Source\PSoC4/RTC.h ****     #define RTC_MONTH_OFFSET      (8u)
 259:Generated_Source\PSoC4/RTC.h ****     #define RTC_10_DAY_OFFSET     (4u)
 260:Generated_Source\PSoC4/RTC.h ****     #define RTC_DAY_OFFSET        (0u)
 261:Generated_Source\PSoC4/RTC.h ****     #define RTC_1000_YEAR_OFFSET  (28u)
 262:Generated_Source\PSoC4/RTC.h ****     #define RTC_100_YEAR_OFFSET   (24u)
 263:Generated_Source\PSoC4/RTC.h ****     #define RTC_10_YEAR_OFFSET    (20u)
 264:Generated_Source\PSoC4/RTC.h ****     #define RTC_YEAR_OFFSET       (16u)
 265:Generated_Source\PSoC4/RTC.h **** #endif /* (RTC_INITIAL_DATA_FORMAT == RTC__MM_DD_YYYY) */
 266:Generated_Source\PSoC4/RTC.h **** 
 267:Generated_Source\PSoC4/RTC.h **** #define RTC_10_MONTH_MASK          (0x00000001uL << RTC_10_MONTH_OFFSET)
 268:Generated_Source\PSoC4/RTC.h **** #define RTC_MONTH_MASK             (0x0000000FuL << RTC_MONTH_OFFSET)
 269:Generated_Source\PSoC4/RTC.h **** #define RTC_10_DAY_MASK            (0x00000003uL << RTC_10_DAY_OFFSET)
 270:Generated_Source\PSoC4/RTC.h **** #define RTC_DAY_MASK               (0x0000000FuL << RTC_DAY_OFFSET)
 271:Generated_Source\PSoC4/RTC.h **** #define RTC_1000_YEAR_MASK         (0x00000003uL << RTC_1000_YEAR_OFFSET)
 272:Generated_Source\PSoC4/RTC.h **** #define RTC_100_YEAR_MASK          (0x0000000FuL << RTC_100_YEAR_OFFSET)
 273:Generated_Source\PSoC4/RTC.h **** #define RTC_10_YEAR_MASK           (0x0000000FuL << RTC_10_YEAR_OFFSET)
 274:Generated_Source\PSoC4/RTC.h **** #define RTC_YEAR_MASK              (0x0000000FuL << RTC_YEAR_OFFSET)
 275:Generated_Source\PSoC4/RTC.h **** 
 276:Generated_Source\PSoC4/RTC.h **** #define  RTC_MONTH_FULL_MASK       (RTC_10_MONTH_MASK  | RTC_MONTH_MASK)
 277:Generated_Source\PSoC4/RTC.h **** #define  RTC_DAY_FULL_MASK         (RTC_10_DAY_MASK    | RTC_DAY_MASK)
 278:Generated_Source\PSoC4/RTC.h **** #define  RTC_YEAR_FULL_MASK        (RTC_1000_YEAR_MASK | RTC_100_YEAR_MASK |\
 279:Generated_Source\PSoC4/RTC.h ****                                                  RTC_10_YEAR_MASK   | RTC_YEAR_MASK)
 280:Generated_Source\PSoC4/RTC.h **** 
 281:Generated_Source\PSoC4/RTC.h **** 
 282:Generated_Source\PSoC4/RTC.h **** /* Definition of time register fields */
 283:Generated_Source\PSoC4/RTC.h **** #define RTC_TIME_FORMAT_OFFSET     (23u)
 284:Generated_Source\PSoC4/RTC.h **** #define RTC_PERIOD_OF_DAY_OFFSET   (22u)
 285:Generated_Source\PSoC4/RTC.h **** #define RTC_10_HOURS_OFFSET        (20u)
 286:Generated_Source\PSoC4/RTC.h **** #define RTC_HOURS_OFFSET           (16u)
 287:Generated_Source\PSoC4/RTC.h **** #define RTC_10_MINUTES_OFFSET      (12u)
 288:Generated_Source\PSoC4/RTC.h **** #define RTC_MINUTES_OFFSET         (8u)
 289:Generated_Source\PSoC4/RTC.h **** #define RTC_10_SECONDS_OFFSET      (4u)
 290:Generated_Source\PSoC4/RTC.h **** #define RTC_SECONDS_OFFSET         (0u)
 291:Generated_Source\PSoC4/RTC.h **** 
 292:Generated_Source\PSoC4/RTC.h **** #define RTC_TIME_FORMAT_MASK       (0x00000001uL << RTC_TIME_FORMAT_OFFSET)
 293:Generated_Source\PSoC4/RTC.h **** #define RTC_PERIOD_OF_DAY_MASK     (0x00000001uL << RTC_PERIOD_OF_DAY_OFFSET)
 294:Generated_Source\PSoC4/RTC.h **** #define RTC_10_HOURS_MASK          (0x00000003uL << RTC_10_HOURS_OFFSET)
 295:Generated_Source\PSoC4/RTC.h **** #define RTC_HOURS_MASK             (0x0000000FuL << RTC_HOURS_OFFSET)
 296:Generated_Source\PSoC4/RTC.h **** #define RTC_10_MINUTES_MASK        (0x00000007uL << RTC_10_MINUTES_OFFSET)
 297:Generated_Source\PSoC4/RTC.h **** #define RTC_MINUTES_MASK           (0x0000000FuL << RTC_MINUTES_OFFSET)
 298:Generated_Source\PSoC4/RTC.h **** #define RTC_10_SECONDS_MASK        (0x00000007uL << RTC_10_SECONDS_OFFSET)
 299:Generated_Source\PSoC4/RTC.h **** #define RTC_SECONDS_MASK           (0x0000000FuL << RTC_SECONDS_OFFSET)
 300:Generated_Source\PSoC4/RTC.h **** 
 301:Generated_Source\PSoC4/RTC.h **** #define RTC_HOURS_FULL_MASK        (RTC_10_HOURS_MASK   | RTC_HOURS_MASK)
 302:Generated_Source\PSoC4/RTC.h **** #define RTC_MINUTES_FULL_MASK      (RTC_10_MINUTES_MASK | RTC_MINUTES_MASK)
 303:Generated_Source\PSoC4/RTC.h **** #define RTC_SECONDS_FULL_MASK      (RTC_10_SECONDS_MASK | RTC_SECONDS_MASK)
 304:Generated_Source\PSoC4/RTC.h **** 
 305:Generated_Source\PSoC4/RTC.h **** #define RTC_ALARM_SEC_MASK         (0x00000001uL)
 306:Generated_Source\PSoC4/RTC.h **** #define RTC_ALARM_MIN_MASK         (0x00000002uL)
 307:Generated_Source\PSoC4/RTC.h **** #define RTC_ALARM_HOUR_MASK        (0x00000004uL)
 308:Generated_Source\PSoC4/RTC.h **** #define RTC_ALARM_DAYOFWEEK_MASK   (0x00000008uL)
 309:Generated_Source\PSoC4/RTC.h **** #define RTC_ALARM_DAYOFMONTH_MASK  (0x00000010uL)
 310:Generated_Source\PSoC4/RTC.h **** #define RTC_ALARM_MONTH_MASK       (0x00000020uL)
 311:Generated_Source\PSoC4/RTC.h **** #define RTC_ALARM_YEAR_MASK        (0x00000040uL)
 312:Generated_Source\PSoC4/RTC.h **** 
 313:Generated_Source\PSoC4/RTC.h **** #define RTC_STATUS_DST_OFFSET      (1u)
ARM GAS  C:\Users\Petro\AppData\Local\Temp\ccu6AbgO.s 			page 8


 314:Generated_Source\PSoC4/RTC.h **** #define RTC_STATUS_ALARM_OFFSET    (2u)
 315:Generated_Source\PSoC4/RTC.h **** #define RTC_STATUS_LY_OFFSET       (3u)
 316:Generated_Source\PSoC4/RTC.h **** #define RTC_STATUS_AM_PM_OFFSET    (4u)
 317:Generated_Source\PSoC4/RTC.h **** 
 318:Generated_Source\PSoC4/RTC.h **** /* Definition of the RTC status values. */
 319:Generated_Source\PSoC4/RTC.h **** #define RTC_STATUS_DST             (1uL << RTC_STATUS_DST_OFFSET)
 320:Generated_Source\PSoC4/RTC.h **** #define RTC_STATUS_LY              (1uL << RTC_STATUS_LY_OFFSET)
 321:Generated_Source\PSoC4/RTC.h **** #define RTC_STATUS_AM_PM           (1uL << RTC_STATUS_AM_PM_OFFSET)
 322:Generated_Source\PSoC4/RTC.h **** 
 323:Generated_Source\PSoC4/RTC.h **** /* Number of bits per one BCD digit. */
 324:Generated_Source\PSoC4/RTC.h **** #define RTC_BCD_NUMBER_SIZE        (4u)
 325:Generated_Source\PSoC4/RTC.h **** #define RTC_BCD_ONE_DIGIT_MASK     (0x0000000FuL)
 326:Generated_Source\PSoC4/RTC.h **** 
 327:Generated_Source\PSoC4/RTC.h **** /*******************************************************************************
 328:Generated_Source\PSoC4/RTC.h **** *    Function Prototypes
 329:Generated_Source\PSoC4/RTC.h **** *******************************************************************************/
 330:Generated_Source\PSoC4/RTC.h **** /**
 331:Generated_Source\PSoC4/RTC.h **** * \addtogroup group_api
 332:Generated_Source\PSoC4/RTC.h **** * @{
 333:Generated_Source\PSoC4/RTC.h **** */
 334:Generated_Source\PSoC4/RTC.h **** void   RTC_Start(void);
 335:Generated_Source\PSoC4/RTC.h **** void   RTC_Stop(void);
 336:Generated_Source\PSoC4/RTC.h **** void   RTC_Init(void);
 337:Generated_Source\PSoC4/RTC.h **** void   RTC_SetUnixTime(uint64 unixTime);
 338:Generated_Source\PSoC4/RTC.h **** uint64 RTC_GetUnixTime(void);
 339:Generated_Source\PSoC4/RTC.h **** void   RTC_SetPeriod(uint32 ticks, uint32 refOneSecTicks);
 340:Generated_Source\PSoC4/RTC.h **** uint32 RTC_GetPeriod(void);
 341:Generated_Source\PSoC4/RTC.h **** uint32 RTC_GetRefOneSec(void);
 342:Generated_Source\PSoC4/RTC.h **** void   RTC_SetDateAndTime(uint32 inputTime, uint32 inputDate);
 343:Generated_Source\PSoC4/RTC.h **** void   RTC_GetDateAndTime(RTC_DATE_TIME* dateTime);
 344:Generated_Source\PSoC4/RTC.h **** uint32 RTC_GetTime(void);
 345:Generated_Source\PSoC4/RTC.h **** uint32 RTC_GetDate(void);
 346:Generated_Source\PSoC4/RTC.h **** void   RTC_SetAlarmDateAndTime(const RTC_DATE_TIME* alarmTime);
 347:Generated_Source\PSoC4/RTC.h **** void   RTC_GetAlarmDateAndTime(RTC_DATE_TIME* alarmTimeDate);
 348:Generated_Source\PSoC4/RTC.h **** void   RTC_SetAlarmMask(uint32 mask);
 349:Generated_Source\PSoC4/RTC.h **** uint32 RTC_GetAlarmMask(void);
 350:Generated_Source\PSoC4/RTC.h **** uint32 RTC_ReadStatus(void);
 351:Generated_Source\PSoC4/RTC.h **** uint32 RTC_GetAlarmStatus(void);
 352:Generated_Source\PSoC4/RTC.h **** void   RTC_ClearAlarmStatus(void);
 353:Generated_Source\PSoC4/RTC.h **** void   RTC_SetDSTStartTime(const RTC_DST_TIME* dstStartTime,
 354:Generated_Source\PSoC4/RTC.h ****                                               RTC_DST_DATETYPE_ENUM type);
 355:Generated_Source\PSoC4/RTC.h **** void   RTC_SetDSTStopTime(const RTC_DST_TIME* dstStopTime,
 356:Generated_Source\PSoC4/RTC.h ****                                              RTC_DST_DATETYPE_ENUM type);
 357:Generated_Source\PSoC4/RTC.h **** uint32 RTC_ConvertBCDToDec(uint32 bcdNum);
 358:Generated_Source\PSoC4/RTC.h **** uint32 RTC_ConvertDecToBCD(uint32 decNum);
 359:Generated_Source\PSoC4/RTC.h **** void   RTC_Update(void);
 360:Generated_Source\PSoC4/RTC.h **** void*  RTC_SetAlarmHandler(void (*CallbackFunction)(void));
 361:Generated_Source\PSoC4/RTC.h **** 
 362:Generated_Source\PSoC4/RTC.h **** static uint32 RTC_ConstructDate(uint32 month, uint32 day, uint32 year);
 363:Generated_Source\PSoC4/RTC.h **** static uint32 RTC_ConstructTime(uint32 timeFormat, uint32 stateAmPm, uint32 hour, uint32 min, uint3
 364:Generated_Source\PSoC4/RTC.h **** /** @} api */
 365:Generated_Source\PSoC4/RTC.h **** 
 366:Generated_Source\PSoC4/RTC.h **** static uint32 RTC_GetTimeFormat(uint32 inputTime);
 367:Generated_Source\PSoC4/RTC.h **** static uint32 RTC_SetTimeFormat(uint32 inputTime, uint32 timeFormat);
 368:Generated_Source\PSoC4/RTC.h **** 
 369:Generated_Source\PSoC4/RTC.h **** /**
 370:Generated_Source\PSoC4/RTC.h **** * \addtogroup group_api
ARM GAS  C:\Users\Petro\AppData\Local\Temp\ccu6AbgO.s 			page 9


 371:Generated_Source\PSoC4/RTC.h **** * @{
 372:Generated_Source\PSoC4/RTC.h **** */
 373:Generated_Source\PSoC4/RTC.h **** static uint32 RTC_LeapYear(uint32 year);
 374:Generated_Source\PSoC4/RTC.h **** static uint32 RTC_IsBitSet(uint32 var, uint32 mask);
 375:Generated_Source\PSoC4/RTC.h **** static uint32 RTC_GetSecond(uint32 inputTime);
 376:Generated_Source\PSoC4/RTC.h **** static uint32 RTC_GetMinutes(uint32 inputTime);
 377:Generated_Source\PSoC4/RTC.h **** static uint32 RTC_GetHours(uint32 inputTime);
 378:Generated_Source\PSoC4/RTC.h **** static uint32 RTC_GetAmPm(uint32 inputTime);
 379:Generated_Source\PSoC4/RTC.h **** static uint32 RTC_GetDay(uint32 date);
 380:Generated_Source\PSoC4/RTC.h **** static uint32 RTC_GetMonth(uint32 date);
 381:Generated_Source\PSoC4/RTC.h **** static uint32 RTC_GetYear(uint32 date);
 382:Generated_Source\PSoC4/RTC.h **** /** @} api */
 383:Generated_Source\PSoC4/RTC.h **** 
 384:Generated_Source\PSoC4/RTC.h **** static uint32 RTC_SetSecond(uint32 inputTime, uint32 inputSecond);
 385:Generated_Source\PSoC4/RTC.h **** static uint32 RTC_SetMinutes(uint32 inputTime, uint32 inputMinute);
 386:Generated_Source\PSoC4/RTC.h **** static uint32 RTC_SetHours(uint32 inputTime, uint32 inputHours);
 387:Generated_Source\PSoC4/RTC.h **** static uint32 RTC_SetAmPm(uint32 inputTime, uint32 periodOfDay);
 388:Generated_Source\PSoC4/RTC.h **** static uint32 RTC_SetDay(uint32 inputDate, uint32 inputDay);
 389:Generated_Source\PSoC4/RTC.h **** static uint32 RTC_SetMonth(uint32 inputDate, uint32 inputMonth);
 390:Generated_Source\PSoC4/RTC.h **** static uint32 RTC_SetYear(uint32 inputDate, uint32 inputYear);
 391:Generated_Source\PSoC4/RTC.h **** 
 392:Generated_Source\PSoC4/RTC.h **** uint64 RTC_ConstructUnixAlarmTime(const RTC_DATE_TIME* alarmTime, uint8 alarmCfgMask);
 393:Generated_Source\PSoC4/RTC.h **** uint64 RTC_GetDstUnixTime(const RTC_DST_TIME* dstTime);
 394:Generated_Source\PSoC4/RTC.h **** uint64 RTC_GetNexAlarmTime(uint64 curUnixTime, uint8 alarmCfgMask);
 395:Generated_Source\PSoC4/RTC.h **** 
 396:Generated_Source\PSoC4/RTC.h **** static uint32 RTC_GetNextMinSec(uint32 curVal);
 397:Generated_Source\PSoC4/RTC.h **** static uint32 RTC_GetNextHour(uint32 curVal);
 398:Generated_Source\PSoC4/RTC.h **** static uint32 RTC_GetNextDay(uint32 curYear, uint32 curMonth, uint32 curDay, uint32 alarmCfgMask);
 399:Generated_Source\PSoC4/RTC.h **** static uint32 RTC_GetNextMonth(uint32 curMonth);
 400:Generated_Source\PSoC4/RTC.h **** static uint32 RTC_GetNextYear(uint32 curYear);
 401:Generated_Source\PSoC4/RTC.h **** static uint32 RTC_GetDayOfWeek(uint32 day, uint32 month, uint32 year);
 402:Generated_Source\PSoC4/RTC.h **** 
 403:Generated_Source\PSoC4/RTC.h **** uint32 RTC_DaysInMonth(uint32 month, uint32 year);
 404:Generated_Source\PSoC4/RTC.h **** uint32 RTC_DaysBeforeMonth(uint32 month, uint32 year);
 405:Generated_Source\PSoC4/RTC.h **** 
 406:Generated_Source\PSoC4/RTC.h **** /**
 407:Generated_Source\PSoC4/RTC.h **** * \addtogroup group_api
 408:Generated_Source\PSoC4/RTC.h **** * @{
 409:Generated_Source\PSoC4/RTC.h **** */
 410:Generated_Source\PSoC4/RTC.h **** void   RTC_UnixToDateTime(RTC_DATE_TIME* dateTime, uint64 unixTime, uint32 timeFormat);
 411:Generated_Source\PSoC4/RTC.h **** uint64 RTC_DateTimeToUnix(uint32 inputDate, uint32 inputTime);
 412:Generated_Source\PSoC4/RTC.h **** /** @} api */
 413:Generated_Source\PSoC4/RTC.h **** 
 414:Generated_Source\PSoC4/RTC.h **** uint32 RTC_RelativeToFixed(uint32 dayOfWeek, uint32 weekOfMonth, uint32 month, uint32 year);
 415:Generated_Source\PSoC4/RTC.h **** 
 416:Generated_Source\PSoC4/RTC.h **** 
 417:Generated_Source\PSoC4/RTC.h **** #if defined(CYDEV_RTC_SOURCE_WDT)
 418:Generated_Source\PSoC4/RTC.h ****     #if((0u != CYDEV_WDT_GENERATE_ISR) && (0u == RTC_INITIAL_UPDATE_MODE))
 419:Generated_Source\PSoC4/RTC.h ****         static void RTC_CySysRtcSetCallback(uint32 wdtNumber);
 420:Generated_Source\PSoC4/RTC.h ****         static void RTC_CySysRtcResetCallback(uint32 wdtNumber);
 421:Generated_Source\PSoC4/RTC.h ****     #endif /* ((0u != CYDEV_WDT_GENERATE_ISR) && (0u == RTC_INITIAL_UPDATE_MODE)) */
 422:Generated_Source\PSoC4/RTC.h **** #endif /* (CYDEV_RTC_SOURCE_WDT) */
 423:Generated_Source\PSoC4/RTC.h **** 
 424:Generated_Source\PSoC4/RTC.h **** /*******************************************************************************
 425:Generated_Source\PSoC4/RTC.h **** * Function Name: RTC_IsBitSet
 426:Generated_Source\PSoC4/RTC.h **** ****************************************************************************//**
 427:Generated_Source\PSoC4/RTC.h **** *
ARM GAS  C:\Users\Petro\AppData\Local\Temp\ccu6AbgO.s 			page 10


 428:Generated_Source\PSoC4/RTC.h **** * \brief
 429:Generated_Source\PSoC4/RTC.h **** *  Checks the state of a bit passed through parameter.
 430:Generated_Source\PSoC4/RTC.h **** *
 431:Generated_Source\PSoC4/RTC.h **** * \param
 432:Generated_Source\PSoC4/RTC.h **** *  var The variable to be checked.
 433:Generated_Source\PSoC4/RTC.h **** * \param
 434:Generated_Source\PSoC4/RTC.h **** *  mask The mask for a bit to be checked.
 435:Generated_Source\PSoC4/RTC.h **** *
 436:Generated_Source\PSoC4/RTC.h **** * \return
 437:Generated_Source\PSoC4/RTC.h **** *  0u - Bit is not set.
 438:Generated_Source\PSoC4/RTC.h **** * \return
 439:Generated_Source\PSoC4/RTC.h **** *  1u - Bit is set.
 440:Generated_Source\PSoC4/RTC.h **** *
 441:Generated_Source\PSoC4/RTC.h **** *******************************************************************************/
 442:Generated_Source\PSoC4/RTC.h **** static CY_INLINE uint32 RTC_IsBitSet(uint32 var, uint32 mask)
 443:Generated_Source\PSoC4/RTC.h **** {
 444:Generated_Source\PSoC4/RTC.h ****     return ((mask == (var & mask)) ? 1Lu : 0Lu);
 445:Generated_Source\PSoC4/RTC.h **** }
 446:Generated_Source\PSoC4/RTC.h **** 
 447:Generated_Source\PSoC4/RTC.h **** 
 448:Generated_Source\PSoC4/RTC.h **** /*******************************************************************************
 449:Generated_Source\PSoC4/RTC.h **** * Function Name: RTC_LeapYear
 450:Generated_Source\PSoC4/RTC.h **** ****************************************************************************//**
 451:Generated_Source\PSoC4/RTC.h **** *
 452:Generated_Source\PSoC4/RTC.h **** * \brief
 453:Generated_Source\PSoC4/RTC.h **** * Checks whether the year passed through the parameter is
 454:Generated_Source\PSoC4/RTC.h **** * leap or no.
 455:Generated_Source\PSoC4/RTC.h **** *
 456:Generated_Source\PSoC4/RTC.h **** * \param
 457:Generated_Source\PSoC4/RTC.h **** *  year The year to be checked.
 458:Generated_Source\PSoC4/RTC.h **** *
 459:Generated_Source\PSoC4/RTC.h **** *
 460:Generated_Source\PSoC4/RTC.h **** * \return
 461:Generated_Source\PSoC4/RTC.h **** *  0u - The year is not leap.
 462:Generated_Source\PSoC4/RTC.h **** * \return
 463:Generated_Source\PSoC4/RTC.h **** *  1u - The year is leap.
 464:Generated_Source\PSoC4/RTC.h **** *
 465:Generated_Source\PSoC4/RTC.h **** *******************************************************************************/
 466:Generated_Source\PSoC4/RTC.h **** static CY_INLINE uint32 RTC_LeapYear(uint32 year)
 467:Generated_Source\PSoC4/RTC.h **** {
 468:Generated_Source\PSoC4/RTC.h ****     uint32 retVal;
 469:Generated_Source\PSoC4/RTC.h **** 
 470:Generated_Source\PSoC4/RTC.h ****     if(((0u == (year % 4Lu)) && (0u != (year % 100Lu))) || (0u == (year % 400Lu)))
 471:Generated_Source\PSoC4/RTC.h ****     {
 472:Generated_Source\PSoC4/RTC.h ****         retVal = 1uL;
 473:Generated_Source\PSoC4/RTC.h ****     }
 474:Generated_Source\PSoC4/RTC.h ****     else
 475:Generated_Source\PSoC4/RTC.h ****     {
 476:Generated_Source\PSoC4/RTC.h ****         retVal = 0uL;
 477:Generated_Source\PSoC4/RTC.h ****     }
 478:Generated_Source\PSoC4/RTC.h **** 
 479:Generated_Source\PSoC4/RTC.h ****     return(retVal);
 480:Generated_Source\PSoC4/RTC.h **** }
 481:Generated_Source\PSoC4/RTC.h **** 
 482:Generated_Source\PSoC4/RTC.h **** 
 483:Generated_Source\PSoC4/RTC.h **** /*******************************************************************************
 484:Generated_Source\PSoC4/RTC.h **** * Function Name: RTC_GetSecond
ARM GAS  C:\Users\Petro\AppData\Local\Temp\ccu6AbgO.s 			page 11


 485:Generated_Source\PSoC4/RTC.h **** ****************************************************************************//**
 486:Generated_Source\PSoC4/RTC.h **** *
 487:Generated_Source\PSoC4/RTC.h **** * \brief
 488:Generated_Source\PSoC4/RTC.h **** *  Returns the seconds value from the time value that is passed as a/the parameter.
 489:Generated_Source\PSoC4/RTC.h **** *
 490:Generated_Source\PSoC4/RTC.h **** * \param
 491:Generated_Source\PSoC4/RTC.h **** *  time The time value.
 492:Generated_Source\PSoC4/RTC.h **** *
 493:Generated_Source\PSoC4/RTC.h **** * \return
 494:Generated_Source\PSoC4/RTC.h **** *  The seconds value.
 495:Generated_Source\PSoC4/RTC.h **** *
 496:Generated_Source\PSoC4/RTC.h **** *******************************************************************************/
 497:Generated_Source\PSoC4/RTC.h **** static CY_INLINE uint32 RTC_GetSecond(uint32 inputTime)
 498:Generated_Source\PSoC4/RTC.h **** {
 499:Generated_Source\PSoC4/RTC.h ****     uint32 retVal;
 500:Generated_Source\PSoC4/RTC.h **** 
 501:Generated_Source\PSoC4/RTC.h ****     retVal  = ((inputTime & RTC_10_SECONDS_MASK) >> RTC_10_SECONDS_OFFSET) * 10u;
 502:Generated_Source\PSoC4/RTC.h ****     retVal += (inputTime & RTC_SECONDS_MASK) >> RTC_SECONDS_OFFSET;
 503:Generated_Source\PSoC4/RTC.h **** 
 504:Generated_Source\PSoC4/RTC.h ****     return (retVal);
 505:Generated_Source\PSoC4/RTC.h **** }
 506:Generated_Source\PSoC4/RTC.h **** 
 507:Generated_Source\PSoC4/RTC.h **** 
 508:Generated_Source\PSoC4/RTC.h **** /*******************************************************************************
 509:Generated_Source\PSoC4/RTC.h **** * Function Name: RTC_GetMinutes
 510:Generated_Source\PSoC4/RTC.h **** ****************************************************************************//**
 511:Generated_Source\PSoC4/RTC.h **** *
 512:Generated_Source\PSoC4/RTC.h **** * \brief
 513:Generated_Source\PSoC4/RTC.h **** *  Returns the minutes value from the time value that is passed as a/the 
 514:Generated_Source\PSoC4/RTC.h **** * parameter.
 515:Generated_Source\PSoC4/RTC.h **** *
 516:Generated_Source\PSoC4/RTC.h **** * \param
 517:Generated_Source\PSoC4/RTC.h **** *  time The time value.
 518:Generated_Source\PSoC4/RTC.h **** *
 519:Generated_Source\PSoC4/RTC.h **** * \return
 520:Generated_Source\PSoC4/RTC.h **** *  The minutes value.
 521:Generated_Source\PSoC4/RTC.h **** *
 522:Generated_Source\PSoC4/RTC.h **** *******************************************************************************/
 523:Generated_Source\PSoC4/RTC.h **** static CY_INLINE uint32 RTC_GetMinutes(uint32 inputTime)
 524:Generated_Source\PSoC4/RTC.h **** {
 525:Generated_Source\PSoC4/RTC.h ****     uint32 retVal;
 526:Generated_Source\PSoC4/RTC.h **** 
 527:Generated_Source\PSoC4/RTC.h ****     retVal  = ((inputTime & RTC_10_MINUTES_MASK) >> RTC_10_MINUTES_OFFSET) * 10u;
 528:Generated_Source\PSoC4/RTC.h ****     retVal += (inputTime & RTC_MINUTES_MASK) >> RTC_MINUTES_OFFSET;
 529:Generated_Source\PSoC4/RTC.h **** 
 530:Generated_Source\PSoC4/RTC.h ****     return (retVal);
 531:Generated_Source\PSoC4/RTC.h **** }
 532:Generated_Source\PSoC4/RTC.h **** 
 533:Generated_Source\PSoC4/RTC.h **** 
 534:Generated_Source\PSoC4/RTC.h **** /*******************************************************************************
 535:Generated_Source\PSoC4/RTC.h **** * Function Name: RTC_GetHours
 536:Generated_Source\PSoC4/RTC.h **** ****************************************************************************//**
 537:Generated_Source\PSoC4/RTC.h **** *
 538:Generated_Source\PSoC4/RTC.h **** * \brief
 539:Generated_Source\PSoC4/RTC.h **** *  Returns the hours value from the time value that is passed as a/the parameter.
 540:Generated_Source\PSoC4/RTC.h **** *
 541:Generated_Source\PSoC4/RTC.h **** * \param
ARM GAS  C:\Users\Petro\AppData\Local\Temp\ccu6AbgO.s 			page 12


 542:Generated_Source\PSoC4/RTC.h **** *  time The time value.
 543:Generated_Source\PSoC4/RTC.h **** *
 544:Generated_Source\PSoC4/RTC.h **** * \return
 545:Generated_Source\PSoC4/RTC.h **** *  The hours value.
 546:Generated_Source\PSoC4/RTC.h **** *
 547:Generated_Source\PSoC4/RTC.h **** *******************************************************************************/
 548:Generated_Source\PSoC4/RTC.h **** static CY_INLINE uint32 RTC_GetHours(uint32 inputTime)
 549:Generated_Source\PSoC4/RTC.h **** {
 550:Generated_Source\PSoC4/RTC.h ****     uint32 retVal;
 551:Generated_Source\PSoC4/RTC.h **** 
 552:Generated_Source\PSoC4/RTC.h ****     retVal  = ((inputTime & RTC_10_HOURS_MASK) >> RTC_10_HOURS_OFFSET) * 10u;
 553:Generated_Source\PSoC4/RTC.h ****     retVal += (inputTime & RTC_HOURS_MASK) >> RTC_HOURS_OFFSET;
 554:Generated_Source\PSoC4/RTC.h **** 
 555:Generated_Source\PSoC4/RTC.h ****     return (retVal);
 556:Generated_Source\PSoC4/RTC.h **** }
 557:Generated_Source\PSoC4/RTC.h **** 
 558:Generated_Source\PSoC4/RTC.h **** 
 559:Generated_Source\PSoC4/RTC.h **** /*******************************************************************************
 560:Generated_Source\PSoC4/RTC.h **** * Function Name: RTC_GetAmPm
 561:Generated_Source\PSoC4/RTC.h **** ****************************************************************************//**
 562:Generated_Source\PSoC4/RTC.h **** *
 563:Generated_Source\PSoC4/RTC.h **** * \brief
 564:Generated_Source\PSoC4/RTC.h **** *  Returns the AM/PM status from the time value that is passed as parameter.
 565:Generated_Source\PSoC4/RTC.h **** *
 566:Generated_Source\PSoC4/RTC.h **** * \param
 567:Generated_Source\PSoC4/RTC.h **** *  time The time value.
 568:Generated_Source\PSoC4/RTC.h **** *
 569:Generated_Source\PSoC4/RTC.h **** * \return
 570:Generated_Source\PSoC4/RTC.h **** *  RTC_AM - AM.
 571:Generated_Source\PSoC4/RTC.h **** * \return
 572:Generated_Source\PSoC4/RTC.h **** *  RTC_PM - PM.
 573:Generated_Source\PSoC4/RTC.h **** *
 574:Generated_Source\PSoC4/RTC.h **** *******************************************************************************/
 575:Generated_Source\PSoC4/RTC.h **** static CY_INLINE uint32 RTC_GetAmPm(uint32 inputTime)
 576:Generated_Source\PSoC4/RTC.h **** {
 577:Generated_Source\PSoC4/RTC.h ****     return (RTC_IsBitSet(inputTime, RTC_PERIOD_OF_DAY_MASK));
 578:Generated_Source\PSoC4/RTC.h **** }
 579:Generated_Source\PSoC4/RTC.h **** 
 580:Generated_Source\PSoC4/RTC.h **** 
 581:Generated_Source\PSoC4/RTC.h **** /*******************************************************************************
 582:Generated_Source\PSoC4/RTC.h **** * Function Name: RTC_GetDay
 583:Generated_Source\PSoC4/RTC.h **** ****************************************************************************//**
 584:Generated_Source\PSoC4/RTC.h **** *
 585:Generated_Source\PSoC4/RTC.h **** * \brief
 586:Generated_Source\PSoC4/RTC.h **** *  Returns the day value from the date value that is passed as parameter.
 587:Generated_Source\PSoC4/RTC.h **** *
 588:Generated_Source\PSoC4/RTC.h **** * \param
 589:Generated_Source\PSoC4/RTC.h **** *  date The date value.
 590:Generated_Source\PSoC4/RTC.h **** *
 591:Generated_Source\PSoC4/RTC.h **** * \return
 592:Generated_Source\PSoC4/RTC.h **** *  The day value.
 593:Generated_Source\PSoC4/RTC.h **** *
 594:Generated_Source\PSoC4/RTC.h **** *******************************************************************************/
 595:Generated_Source\PSoC4/RTC.h **** static CY_INLINE uint32 RTC_GetDay(uint32 date)
 596:Generated_Source\PSoC4/RTC.h **** {
 597:Generated_Source\PSoC4/RTC.h ****     uint32 retVal;
 598:Generated_Source\PSoC4/RTC.h **** 
ARM GAS  C:\Users\Petro\AppData\Local\Temp\ccu6AbgO.s 			page 13


 599:Generated_Source\PSoC4/RTC.h ****     retVal  = ((date & RTC_10_DAY_MASK) >> RTC_10_DAY_OFFSET) * 10u;
 600:Generated_Source\PSoC4/RTC.h ****     retVal += (date & RTC_DAY_MASK) >> RTC_DAY_OFFSET;
 601:Generated_Source\PSoC4/RTC.h **** 
 602:Generated_Source\PSoC4/RTC.h ****     return (retVal);
 603:Generated_Source\PSoC4/RTC.h **** }
 604:Generated_Source\PSoC4/RTC.h **** 
 605:Generated_Source\PSoC4/RTC.h **** 
 606:Generated_Source\PSoC4/RTC.h **** /*******************************************************************************
 607:Generated_Source\PSoC4/RTC.h **** * Function Name: RTC_GetMonth
 608:Generated_Source\PSoC4/RTC.h **** ****************************************************************************//**
 609:Generated_Source\PSoC4/RTC.h **** *
 610:Generated_Source\PSoC4/RTC.h **** * \brief
 611:Generated_Source\PSoC4/RTC.h **** *  Returns the month value from the date value that is passed as parameter.
 612:Generated_Source\PSoC4/RTC.h **** *
 613:Generated_Source\PSoC4/RTC.h **** * \param
 614:Generated_Source\PSoC4/RTC.h **** *  date The date value.
 615:Generated_Source\PSoC4/RTC.h **** *
 616:Generated_Source\PSoC4/RTC.h **** * \return
 617:Generated_Source\PSoC4/RTC.h **** *  The month value.
 618:Generated_Source\PSoC4/RTC.h **** *
 619:Generated_Source\PSoC4/RTC.h **** *******************************************************************************/
 620:Generated_Source\PSoC4/RTC.h **** static CY_INLINE uint32 RTC_GetMonth(uint32 date)
 621:Generated_Source\PSoC4/RTC.h **** {
 622:Generated_Source\PSoC4/RTC.h ****     uint32 retVal;
 623:Generated_Source\PSoC4/RTC.h **** 
 624:Generated_Source\PSoC4/RTC.h ****     retVal  = ((date & RTC_10_MONTH_MASK) >> RTC_10_MONTH_OFFSET) * 10u;
 625:Generated_Source\PSoC4/RTC.h ****     retVal += (date & RTC_MONTH_MASK) >> RTC_MONTH_OFFSET;
 626:Generated_Source\PSoC4/RTC.h **** 
 627:Generated_Source\PSoC4/RTC.h ****     return (retVal);
 628:Generated_Source\PSoC4/RTC.h **** }
 629:Generated_Source\PSoC4/RTC.h **** 
 630:Generated_Source\PSoC4/RTC.h **** 
 631:Generated_Source\PSoC4/RTC.h **** /*******************************************************************************
 632:Generated_Source\PSoC4/RTC.h **** * Function Name: RTC_GetYear
 633:Generated_Source\PSoC4/RTC.h **** ****************************************************************************//**
 634:Generated_Source\PSoC4/RTC.h **** *
 635:Generated_Source\PSoC4/RTC.h **** * \brief
 636:Generated_Source\PSoC4/RTC.h **** *  Returns the year value from the date value that is passed as parameter.
 637:Generated_Source\PSoC4/RTC.h **** *
 638:Generated_Source\PSoC4/RTC.h **** * \param
 639:Generated_Source\PSoC4/RTC.h **** *  date The date value.
 640:Generated_Source\PSoC4/RTC.h **** *
 641:Generated_Source\PSoC4/RTC.h **** * \return
 642:Generated_Source\PSoC4/RTC.h **** *  The year value.
 643:Generated_Source\PSoC4/RTC.h **** *
 644:Generated_Source\PSoC4/RTC.h **** *******************************************************************************/
 645:Generated_Source\PSoC4/RTC.h **** static CY_INLINE uint32 RTC_GetYear(uint32 date)
 646:Generated_Source\PSoC4/RTC.h **** {
 647:Generated_Source\PSoC4/RTC.h ****     uint32 retVal;
 648:Generated_Source\PSoC4/RTC.h **** 
 649:Generated_Source\PSoC4/RTC.h ****     retVal  = ((date & RTC_1000_YEAR_MASK) >> RTC_1000_YEAR_OFFSET) * 1000u;
  47              		.loc 2 649 0
  48 000e FA21     		mov	r1, #250
  49 0010 8304     		lsl	r3, r0, #18
  50 0012 9B0F     		lsr	r3, r3, #30
  51 0014 8900     		lsl	r1, r1, #2
  52 0016 5943     		mul	r1, r3
ARM GAS  C:\Users\Petro\AppData\Local\Temp\ccu6AbgO.s 			page 14


  53 0018 0D1C     		mov	r5, r1
 650:Generated_Source\PSoC4/RTC.h ****     retVal += ((date & RTC_100_YEAR_MASK) >> RTC_100_YEAR_OFFSET) * 100u;
  54              		.loc 2 650 0
  55 001a 6421     		mov	r1, #100
 651:Generated_Source\PSoC4/RTC.h ****     retVal += ((date & RTC_10_YEAR_MASK) >> RTC_10_YEAR_OFFSET) * 10u;
 652:Generated_Source\PSoC4/RTC.h ****     retVal += (date & RTC_YEAR_MASK) >> RTC_YEAR_OFFSET;
  56              		.loc 2 652 0
  57 001c 0F22     		mov	r2, #15
 650:Generated_Source\PSoC4/RTC.h ****     retVal += ((date & RTC_100_YEAR_MASK) >> RTC_100_YEAR_OFFSET) * 100u;
  58              		.loc 2 650 0
  59 001e 0305     		lsl	r3, r0, #20
  60 0020 1B0F     		lsr	r3, r3, #28
  61 0022 4B43     		mul	r3, r1
 651:Generated_Source\PSoC4/RTC.h ****     retVal += ((date & RTC_10_YEAR_MASK) >> RTC_10_YEAR_OFFSET) * 10u;
  62              		.loc 2 651 0
  63 0024 5A39     		sub	r1, r1, #90
  64 0026 8C46     		mov	ip, r1
  65              		.loc 2 652 0
  66 0028 0240     		and	r2, r0
 650:Generated_Source\PSoC4/RTC.h ****     retVal += ((date & RTC_100_YEAR_MASK) >> RTC_100_YEAR_OFFSET) * 100u;
  67              		.loc 2 650 0
  68 002a EB18     		add	r3, r5, r3
  69 002c 9B18     		add	r3, r3, r2
 651:Generated_Source\PSoC4/RTC.h ****     retVal += ((date & RTC_10_YEAR_MASK) >> RTC_10_YEAR_OFFSET) * 10u;
  70              		.loc 2 651 0
  71 002e 0206     		lsl	r2, r0, #24
  72 0030 120F     		lsr	r2, r2, #28
  73 0032 4A43     		mul	r2, r1
  74              	.LBE26:
  75              	.LBE25:
  76              	.LBB28:
  77              	.LBB29:
 624:Generated_Source\PSoC4/RTC.h ****     retVal += (date & RTC_MONTH_MASK) >> RTC_MONTH_OFFSET;
  78              		.loc 2 624 0
  79 0034 C700     		lsl	r7, r0, #3
  80 0036 FF0F     		lsr	r7, r7, #31
  81 0038 7943     		mul	r1, r7
  82              	.LBE29:
  83              	.LBE28:
  84              	.LBB32:
  85              	.LBB33:
 599:Generated_Source\PSoC4/RTC.h ****     retVal += (date & RTC_DAY_MASK) >> RTC_DAY_OFFSET;
  86              		.loc 2 599 0
  87 003a C025     		mov	r5, #192
  88              	.LBE33:
  89              	.LBE32:
  90              	.LBB38:
  91              	.LBB27:
  92              		.loc 2 652 0
  93 003c 9A18     		add	r2, r3, r2
  94              	.LBE27:
  95              	.LBE38:
  96              	.LBB39:
  97              	.LBB30:
 625:Generated_Source\PSoC4/RTC.h **** 
  98              		.loc 2 625 0
  99 003e 0701     		lsl	r7, r0, #4
ARM GAS  C:\Users\Petro\AppData\Local\Temp\ccu6AbgO.s 			page 15


 100              	.LBE30:
 101              	.LBE39:
 102              	.LBB40:
 103              	.LBB34:
 599:Generated_Source\PSoC4/RTC.h ****     retVal += (date & RTC_DAY_MASK) >> RTC_DAY_OFFSET;
 104              		.loc 2 599 0
 105 0040 031C     		mov	r3, r0
 106              	.LBE34:
 107              	.LBE40:
 108              	.LBB41:
 109              	.LBB31:
 625:Generated_Source\PSoC4/RTC.h **** 
 110              		.loc 2 625 0
 111 0042 3F0F     		lsr	r7, r7, #28
 112 0044 CF19     		add	r7, r1, r7
 113              	.LBE31:
 114              	.LBE41:
 115              	.LBB42:
 116              	.LBB35:
 599:Generated_Source\PSoC4/RTC.h ****     retVal += (date & RTC_DAY_MASK) >> RTC_DAY_OFFSET;
 117              		.loc 2 599 0
 118 0046 6146     		mov	r1, ip
 119 0048 AD03     		lsl	r5, r5, #14
 120 004a 2B40     		and	r3, r5
 121 004c 1B0D     		lsr	r3, r3, #20
 122 004e 4B43     		mul	r3, r1
 600:Generated_Source\PSoC4/RTC.h **** 
 123              		.loc 2 600 0
 124 0050 F021     		mov	r1, #240
 125 0052 0903     		lsl	r1, r1, #12
 126              	.LBE35:
 127              	.LBE42:
 128              		.loc 1 40 0
 129 0054 6060     		str	r0, [r4, #4]
 130              	.LVL2:
 131              	.LBB43:
 132              	.LBB36:
 600:Generated_Source\PSoC4/RTC.h **** 
 133              		.loc 2 600 0
 134 0056 0840     		and	r0, r1
 135              	.LVL3:
 136 0058 000C     		lsr	r0, r0, #16
 137              	.LBE36:
 138              	.LBE43:
  41:lib_Fat/rtc_fat.c ****     rtcYear = RTC_GetYear(rtcDate);
 139              		.loc 1 41 0
 140 005a 1E4E     		ldr	r6, .L9+4
 141              	.LBB44:
 142              	.LBB37:
 600:Generated_Source\PSoC4/RTC.h **** 
 143              		.loc 2 600 0
 144 005c 1B18     		add	r3, r3, r0
 145              	.LBE37:
 146              	.LBE44:
  42:lib_Fat/rtc_fat.c ****     rtcMonth = RTC_GetMonth(rtcDate);
  43:lib_Fat/rtc_fat.c ****     rtcDay = RTC_GetDay(rtcDate);
  44:lib_Fat/rtc_fat.c ****     if(RTC_GetAmPm(rtcTime) == RTC_AM)
ARM GAS  C:\Users\Petro\AppData\Local\Temp\ccu6AbgO.s 			page 16


 147              		.loc 1 44 0
 148 005e 2068     		ldr	r0, [r4]
  41:lib_Fat/rtc_fat.c ****     rtcYear = RTC_GetYear(rtcDate);
 149              		.loc 1 41 0
 150 0060 3260     		str	r2, [r6]
 151              	.LVL4:
  42:lib_Fat/rtc_fat.c ****     rtcMonth = RTC_GetMonth(rtcDate);
 152              		.loc 1 42 0
 153 0062 7760     		str	r7, [r6, #4]
 154              	.LVL5:
  43:lib_Fat/rtc_fat.c ****     if(RTC_GetAmPm(rtcTime) == RTC_AM)
 155              		.loc 1 43 0
 156 0064 B360     		str	r3, [r6, #8]
 157 0066 0540     		and	r5, r0
 158 0068 0140     		and	r1, r0
 159              	.LBB45:
 160              	.LBB46:
 161              	.LBB47:
 444:Generated_Source\PSoC4/RTC.h **** }
 162              		.loc 2 444 0
 163 006a 4402     		lsl	r4, r0, #9
 164 006c 05D4     		bmi	.L2
 165              	.LVL6:
 166              	.LBE47:
 167              	.LBE46:
 168              	.LBE45:
 169              	.LBB48:
 170              	.LBB49:
 552:Generated_Source\PSoC4/RTC.h ****     retVal += (inputTime & RTC_HOURS_MASK) >> RTC_HOURS_OFFSET;
 171              		.loc 2 552 0
 172 006e 6446     		mov	r4, ip
 173 0070 2D0D     		lsr	r5, r5, #20
 174 0072 6C43     		mul	r4, r5
 553:Generated_Source\PSoC4/RTC.h **** 
 175              		.loc 2 553 0
 176 0074 090C     		lsr	r1, r1, #16
 552:Generated_Source\PSoC4/RTC.h ****     retVal += (inputTime & RTC_HOURS_MASK) >> RTC_HOURS_OFFSET;
 177              		.loc 2 552 0
 178 0076 251C     		mov	r5, r4
 179              	.LVL7:
 180 0078 05E0     		b	.L7
 181              	.LVL8:
 182              	.L2:
 183              	.LBE49:
 184              	.LBE48:
 185              	.LBB50:
 186              	.LBB51:
 187 007a 6446     		mov	r4, ip
 188 007c 2D0D     		lsr	r5, r5, #20
 189 007e 6C43     		mul	r4, r5
 190 0080 251C     		mov	r5, r4
 553:Generated_Source\PSoC4/RTC.h **** 
 191              		.loc 2 553 0
 192 0082 090C     		lsr	r1, r1, #16
 193 0084 0C31     		add	r1, r1, #12
 194              	.LVL9:
 195              	.L7:
ARM GAS  C:\Users\Petro\AppData\Local\Temp\ccu6AbgO.s 			page 17


 196              	.LBE51:
 197              	.LBE50:
  45:lib_Fat/rtc_fat.c ****     {
  46:lib_Fat/rtc_fat.c ****         rtcHour = RTC_GetHours(rtcTime);
  47:lib_Fat/rtc_fat.c ****     }else
  48:lib_Fat/rtc_fat.c ****     {
  49:lib_Fat/rtc_fat.c ****         rtcHour = RTC_GetHours(rtcTime)+12;
 198              		.loc 1 49 0
 199 0086 4D19     		add	r5, r1, r5
 200 0088 7561     		str	r5, [r6, #20]
 201              	.LVL10:
 202              	.LBB52:
 203              	.LBB53:
 527:Generated_Source\PSoC4/RTC.h ****     retVal += (inputTime & RTC_MINUTES_MASK) >> RTC_MINUTES_OFFSET;
 204              		.loc 2 527 0
 205 008a 0A25     		mov	r5, #10
 206 008c 4104     		lsl	r1, r0, #17
 207 008e 490F     		lsr	r1, r1, #29
 208 0090 6943     		mul	r1, r5
 209 0092 0C1C     		mov	r4, r1
 210              	.LVL11:
 528:Generated_Source\PSoC4/RTC.h **** 
 211              		.loc 2 528 0
 212 0094 0105     		lsl	r1, r0, #20
 213              	.LVL12:
 214 0096 090F     		lsr	r1, r1, #28
 215 0098 6118     		add	r1, r4, r1
 216              	.LVL13:
 217              	.LBE53:
 218              	.LBE52:
 219              	.LBB54:
 220              	.LBB55:
 501:Generated_Source\PSoC4/RTC.h ****     retVal += (inputTime & RTC_SECONDS_MASK) >> RTC_SECONDS_OFFSET;
 221              		.loc 2 501 0
 222 009a 4406     		lsl	r4, r0, #25
 223 009c 640F     		lsr	r4, r4, #29
 224 009e 6543     		mul	r5, r4
 502:Generated_Source\PSoC4/RTC.h **** 
 225              		.loc 2 502 0
 226 00a0 0F24     		mov	r4, #15
 227 00a2 2040     		and	r0, r4
 228              	.LVL14:
 229              	.LBE55:
 230              	.LBE54:
  50:lib_Fat/rtc_fat.c ****     }
  51:lib_Fat/rtc_fat.c ****     rtcMinutes = RTC_GetMinutes(rtcTime);
  52:lib_Fat/rtc_fat.c ****     rtcSeconds = RTC_GetSecond(rtcTime);
  53:lib_Fat/rtc_fat.c ****     /* Pack date and time into a DWORD variable */
  54:lib_Fat/rtc_fat.c **** 	return (((DWORD)rtcYear - 1980) << 25) | ((DWORD)rtcMonth << 21) | ((DWORD)rtcDay << 16)| (WORD)(r
 231              		.loc 1 54 0
 232 00a4 7469     		ldr	r4, [r6, #20]
 233              	.LBB57:
 234              	.LBB56:
 502:Generated_Source\PSoC4/RTC.h **** 
 235              		.loc 2 502 0
 236 00a6 2818     		add	r0, r5, r0
 237              	.LBE56:
ARM GAS  C:\Users\Petro\AppData\Local\Temp\ccu6AbgO.s 			page 18


 238              	.LBE57:
 239              		.loc 1 54 0
 240 00a8 E402     		lsl	r4, r4, #11
  52:lib_Fat/rtc_fat.c ****     /* Pack date and time into a DWORD variable */
 241              		.loc 1 52 0
 242 00aa 3061     		str	r0, [r6, #16]
 243              		.loc 1 54 0
 244 00ac A4B2     		uxth	r4, r4
  55:lib_Fat/rtc_fat.c ****             (WORD)(rtcMinutes << 5)	| (WORD)(rtcSeconds >> 1);
 245              		.loc 1 55 0
 246 00ae 4008     		lsr	r0, r0, #1
 247 00b0 2043     		orr	r0, r4
  51:lib_Fat/rtc_fat.c ****     rtcSeconds = RTC_GetSecond(rtcTime);
 248              		.loc 1 51 0
 249 00b2 F160     		str	r1, [r6, #12]
 250              	.LVL15:
 251              		.loc 1 55 0
 252 00b4 4C01     		lsl	r4, r1, #5
 253 00b6 011C     		mov	r1, r0
 254              	.LVL16:
  54:lib_Fat/rtc_fat.c ****             (WORD)(rtcMinutes << 5)	| (WORD)(rtcSeconds >> 1);
 255              		.loc 1 54 0
 256 00b8 A4B2     		uxth	r4, r4
 257 00ba 7805     		lsl	r0, r7, #21
 258 00bc 2143     		orr	r1, r4
 259 00be 0843     		orr	r0, r1
 260 00c0 1B04     		lsl	r3, r3, #16
 261              	.LVL17:
 262 00c2 1843     		orr	r0, r3
 263 00c4 044B     		ldr	r3, .L9+8
  56:lib_Fat/rtc_fat.c **** }
 264              		.loc 1 56 0
 265              		@ sp needed
  54:lib_Fat/rtc_fat.c ****             (WORD)(rtcMinutes << 5)	| (WORD)(rtcSeconds >> 1);
 266              		.loc 1 54 0
 267 00c6 D218     		add	r2, r2, r3
 268              	.LVL18:
 269 00c8 5206     		lsl	r2, r2, #25
 270 00ca 1043     		orr	r0, r2
 271              	.LVL19:
 272              		.loc 1 56 0
 273 00cc F8BD     		pop	{r3, r4, r5, r6, r7, pc}
 274              	.L10:
 275 00ce C046     		.align	2
 276              	.L9:
 277 00d0 00000000 		.word	.LANCHOR0
 278 00d4 00000000 		.word	.LANCHOR1
 279 00d8 44F8FFFF 		.word	-1980
 280              		.cfi_endproc
 281              	.LFE63:
 282              		.size	get_fattime, .-get_fattime
 283              		.data
 284              		.align	2
 285              		.set	.LANCHOR1,. + 0
 286              		.type	rtcYear, %object
 287              		.size	rtcYear, 4
 288              	rtcYear:
ARM GAS  C:\Users\Petro\AppData\Local\Temp\ccu6AbgO.s 			page 19


 289 0000 E0070000 		.word	2016
 290              		.type	rtcMonth, %object
 291              		.size	rtcMonth, 4
 292              	rtcMonth:
 293 0004 07000000 		.word	7
 294              		.type	rtcDay, %object
 295              		.size	rtcDay, 4
 296              	rtcDay:
 297 0008 1F000000 		.word	31
 298              		.type	rtcMinutes, %object
 299              		.size	rtcMinutes, 4
 300              	rtcMinutes:
 301 000c 0F000000 		.word	15
 302              		.type	rtcSeconds, %object
 303              		.size	rtcSeconds, 4
 304              	rtcSeconds:
 305 0010 01000000 		.word	1
 306              		.type	rtcHour, %object
 307              		.size	rtcHour, 4
 308              	rtcHour:
 309 0014 15000000 		.word	21
 310              		.bss
 311              		.align	2
 312              		.set	.LANCHOR0,. + 0
 313              		.type	rtcTime, %object
 314              		.size	rtcTime, 4
 315              	rtcTime:
 316 0000 00000000 		.space	4
 317              		.type	rtcDate, %object
 318              		.size	rtcDate, 4
 319              	rtcDate:
 320 0004 00000000 		.space	4
 321              		.text
 322              	.Letext0:
 323              		.file 3 "c:\\program files (x86)\\cypress\\psoc creator\\4.0\\psoc creator\\import\\gnu\\arm\\4.9.
 324              		.file 4 "c:\\program files (x86)\\cypress\\psoc creator\\4.0\\psoc creator\\import\\gnu\\arm\\4.9.
 325              		.file 5 "Generated_Source\\PSoC4/cytypes.h"
 326              		.file 6 "lib_Fat\\integer.h"
 327              		.file 7 "Generated_Source\\PSoC4/ble_Stack.h"