ARM GAS  C:\Users\Petro\AppData\Local\Temp\ccW66Ab9.s 			page 1


   1              		.cpu cortex-m0
   2              		.fpu softvfp
   3              		.eabi_attribute 20, 1
   4              		.eabi_attribute 21, 1
   5              		.eabi_attribute 23, 3
   6              		.eabi_attribute 24, 1
   7              		.eabi_attribute 25, 1
   8              		.eabi_attribute 26, 1
   9              		.eabi_attribute 30, 4
  10              		.eabi_attribute 34, 0
  11              		.eabi_attribute 18, 4
  12              		.code	16
  13              		.file	"sdcard.c"
  14              		.text
  15              	.Ltext0:
  16              		.cfi_sections	.debug_frame
  17              		.section	.text.rcvr_mmc,"ax",%progbits
  18              		.align	1
  19              		.code	16
  20              		.thumb_func
  21              		.type	rcvr_mmc, %function
  22              	rcvr_mmc:
  23              	.LFB64:
  24              		.file 1 "lib_Fat\\sdcard.c"
   1:lib_Fat/sdcard.c **** /*------------------------------------------------------------------------/
   2:lib_Fat/sdcard.c **** /  Foolproof MMCv3/SDv1/SDv2 (in SPI mode) control module
   3:lib_Fat/sdcard.c **** /-------------------------------------------------------------------------/
   4:lib_Fat/sdcard.c **** /
   5:lib_Fat/sdcard.c **** /  Copyright (C) 2013, ChaN, all right reserved.
   6:lib_Fat/sdcard.c **** /
   7:lib_Fat/sdcard.c **** / * This software is a free software and there is NO WARRANTY.
   8:lib_Fat/sdcard.c **** / * No restriction on use. You can use, modify and redistribute it for
   9:lib_Fat/sdcard.c **** /   personal, non-profit or commercial products UNDER YOUR RESPONSIBILITY.
  10:lib_Fat/sdcard.c **** / * Redistributions of source code must retain the above copyright notice.
  11:lib_Fat/sdcard.c **** /
  12:lib_Fat/sdcard.c **** /-------------------------------------------------------------------------/
  13:lib_Fat/sdcard.c ****   Features and Limitations:
  14:lib_Fat/sdcard.c **** 
  15:lib_Fat/sdcard.c ****   * Easy to Port Bit-banging SPI
  16:lib_Fat/sdcard.c ****     It uses only four GPIO pins. No complex peripheral needs to be used.
  17:lib_Fat/sdcard.c **** 
  18:lib_Fat/sdcard.c ****   * No Media Change Detection
  19:lib_Fat/sdcard.c ****     Application program needs to perform a f_mount() after media change.
  20:lib_Fat/sdcard.c **** 
  21:lib_Fat/sdcard.c **** /-------------------------------------------------------------------------*/
  22:lib_Fat/sdcard.c **** 
  23:lib_Fat/sdcard.c **** 
  24:lib_Fat/sdcard.c **** #include "diskio.h"		/* Common include file for FatFs and disk I/O layer */
  25:lib_Fat/sdcard.c **** 
  26:lib_Fat/sdcard.c **** 
  27:lib_Fat/sdcard.c **** /*-------------------------------------------------------------------------*/
  28:lib_Fat/sdcard.c **** /* Platform dependent macros and functions needed to be modified           */
  29:lib_Fat/sdcard.c **** /*-------------------------------------------------------------------------*/
  30:lib_Fat/sdcard.c **** 
  31:lib_Fat/sdcard.c **** #include <project.h>
  32:lib_Fat/sdcard.c **** #include <cytypes.h>
  33:lib_Fat/sdcard.c **** 
ARM GAS  C:\Users\Petro\AppData\Local\Temp\ccW66Ab9.s 			page 2


  34:lib_Fat/sdcard.c ****     /* Put here the same name of the SPI bus module you have used in schematic. */
  35:lib_Fat/sdcard.c **** #define SPI_NAME                SPI  
  36:lib_Fat/sdcard.c **** #define SPI_HW_NAME             SwSPI_Master
  37:lib_Fat/sdcard.c **** /* Put here function used to control SPI SS line.
  38:lib_Fat/sdcard.c ****        Example: 
  39:lib_Fat/sdcard.c ****         - if using Cypress API macros: SPI_ss0_m_Write
  40:lib_Fat/sdcard.c ****         - if using another gpio pint: SPI_SS_Write. */
  41:lib_Fat/sdcard.c **** #define mmSPI_SS_Write(value)   SPI_ss0_m_Write(value)
  42:lib_Fat/sdcard.c **** //#define mmSPI_SS_Write(value)     SPI_SS_Write(value)       
  43:lib_Fat/sdcard.c **** 
  44:lib_Fat/sdcard.c **** #define CS_DELAY_US             1
  45:lib_Fat/sdcard.c **** #define M_DELAY_US              100
  46:lib_Fat/sdcard.c **** 
  47:lib_Fat/sdcard.c ****     /* Text substitution macros to avoid changing function names related to SPI API
  48:lib_Fat/sdcard.c ****        if SPI module name is changed in schematic. */
  49:lib_Fat/sdcard.c **** 
  50:lib_Fat/sdcard.c **** #define CONCATENATE(name, function)                 CONCAT(name, function)
  51:lib_Fat/sdcard.c **** #define CONCAT(name, function)                      name##function
  52:lib_Fat/sdcard.c **** 
  53:lib_Fat/sdcard.c **** #if (CY_PSOC4)
  54:lib_Fat/sdcard.c **** 
  55:lib_Fat/sdcard.c ****     
  56:lib_Fat/sdcard.c ****     /*
  57:lib_Fat/sdcard.c ****     #define mmSPI_SpiUartClearTxBuffer                  CONCATENATE(SPI_NAME, _SpiUartClearTxBuffer
  58:lib_Fat/sdcard.c ****     #define mmSPI_SpiUartClearRxBuffer                  CONCATENATE(SPI_NAME, _SpiUartClearRxBuffer
  59:lib_Fat/sdcard.c ****     #define mmSPI_SpiUartPutArray(a, b)                 CONCATENATE(SPI_NAME, _SpiUartPutArray(a, b
  60:lib_Fat/sdcard.c ****     #define mmSPI_SpiUartWriteTxData(value)             CONCATENATE(SPI_NAME, _SpiUartWriteTxData(v
  61:lib_Fat/sdcard.c ****     #define mmSPI_SpiUartReadRxData                     CONCATENATE(SPI_NAME, _SpiUartReadRxData)
  62:lib_Fat/sdcard.c ****     #define mmSPI_GetMasterInterruptSource              CONCATENATE(SPI_NAME, _GetMasterInterruptSo
  63:lib_Fat/sdcard.c ****     #define mmSPI_ClearMasterInterruptSource(value)     CONCATENATE(SPI_NAME, _ClearMasterInterrupt
  64:lib_Fat/sdcard.c ****     #define mmSPI_INTR_MASTER_SPI_DONE                  CONCATENATE(SPI_NAME, _INTR_MASTER_SPI_DONE
  65:lib_Fat/sdcard.c ****     */
  66:lib_Fat/sdcard.c ****     
  67:lib_Fat/sdcard.c ****     //#define mmSPI_SpiUartClearTxBuffer                  CONCATENATE(SPI_NAME, _SpiUartClearTxBuff
  68:lib_Fat/sdcard.c ****     //#define mmSPI_SpiUartClearRxBuffer                  CONCATENATE(SPI_NAME, _SpiUartClearRxBuff
  69:lib_Fat/sdcard.c ****     #define mmSPI_SpiUartPutArray(a, b)                 CONCATENATE(SPI_HW_NAME, _SendBuff(a, b)) 
  70:lib_Fat/sdcard.c ****     #define mmSPI_SpiUartWriteTxData(value)             CONCATENATE(SPI_HW_NAME, _SendByte(value))
  71:lib_Fat/sdcard.c ****     #define mmSPI_SpiUartReadRxData                     CONCATENATE(SPI_HW_NAME, _RecvByte)
  72:lib_Fat/sdcard.c ****     
  73:lib_Fat/sdcard.c ****     //#define mmSPI_GetMasterInterruptSource              CONCATENATE(SPI_HW_NAME, _GetMasterInterr
  74:lib_Fat/sdcard.c ****     //#define mmSPI_ClearMasterInterruptSource(value)     CONCATENATE(SPI_HW_NAME, _ClearMasterInte
  75:lib_Fat/sdcard.c ****     //#define mmSPI_INTR_MASTER_SPI_DONE                  CONCATENATE(SPI_HW_NAME, _INTR_MASTER_SPI
  76:lib_Fat/sdcard.c **** 
  77:lib_Fat/sdcard.c ****     
  78:lib_Fat/sdcard.c **** #endif    
  79:lib_Fat/sdcard.c **** 
  80:lib_Fat/sdcard.c **** #if (CY_PSOC5LP) 
  81:lib_Fat/sdcard.c ****     #define mmSPI_SpiUartClearTxBuffer                  CONCATENATE(SPI_NAME, _ClearTxBuffer)
  82:lib_Fat/sdcard.c ****     #define mmSPI_SpiUartClearRxBuffer                  CONCATENATE(SPI_NAME, _ClearRxBuffer)    
  83:lib_Fat/sdcard.c ****     #define mmSPI_SpiUartPutArray(a, b)                 CONCATENATE(SPI_NAME, _PutArray(a, b)) 
  84:lib_Fat/sdcard.c ****     #define mmSPI_SpiUartWriteTxData(value)             CONCATENATE(SPI_NAME, _WriteTxData(value))
  85:lib_Fat/sdcard.c ****     #define mmSPI_SpiUartReadRxData                     CONCATENATE(SPI_NAME, _ReadRxData)
  86:lib_Fat/sdcard.c ****     #define mmSPI_GetMasterInterruptSource              CONCATENATE(SPI_NAME, _GetMasterInterruptSo
  87:lib_Fat/sdcard.c ****     #define mmSPI_ClearMasterInterruptSource(value)     CONCATENATE(SPI_NAME, _ClearMasterInterrupt
  88:lib_Fat/sdcard.c ****     #define mmSPI_INTR_MASTER_SPI_DONE                  CONCATENATE(SPI_NAME, _INTR_MASTER_SPI_DONE
  89:lib_Fat/sdcard.c **** #endif 
  90:lib_Fat/sdcard.c **** 
ARM GAS  C:\Users\Petro\AppData\Local\Temp\ccW66Ab9.s 			page 3


  91:lib_Fat/sdcard.c ****     /* Delays. */
  92:lib_Fat/sdcard.c **** #define dly_us(n)               CyDelayUs(n); /* Delay n microseconds. */
  93:lib_Fat/sdcard.c **** 
  94:lib_Fat/sdcard.c **** /*--------------------------------------------------------------------------
  95:lib_Fat/sdcard.c **** 
  96:lib_Fat/sdcard.c ****    Module Private Functions
  97:lib_Fat/sdcard.c **** 
  98:lib_Fat/sdcard.c **** ---------------------------------------------------------------------------*/
  99:lib_Fat/sdcard.c **** 
 100:lib_Fat/sdcard.c **** /* MMC/SD command (SPI mode) */
 101:lib_Fat/sdcard.c **** #define CMD0	(0)			/* GO_IDLE_STATE */
 102:lib_Fat/sdcard.c **** #define CMD1	(1)			/* SEND_OP_COND */
 103:lib_Fat/sdcard.c **** #define	ACMD41	(0x80+41)	/* SEND_OP_COND (SDC) */
 104:lib_Fat/sdcard.c **** #define CMD8	(8)			/* SEND_IF_COND */
 105:lib_Fat/sdcard.c **** #define CMD9	(9)			/* SEND_CSD */
 106:lib_Fat/sdcard.c **** #define CMD10	(10)		/* SEND_CID */
 107:lib_Fat/sdcard.c **** #define CMD12	(12)		/* STOP_TRANSMISSION */
 108:lib_Fat/sdcard.c **** #define CMD13	(13)		/* SEND_STATUS */
 109:lib_Fat/sdcard.c **** #define ACMD13	(0x80+13)	/* SD_STATUS (SDC) */
 110:lib_Fat/sdcard.c **** #define CMD16	(16)		/* SET_BLOCKLEN */
 111:lib_Fat/sdcard.c **** #define CMD17	(17)		/* READ_SINGLE_BLOCK */
 112:lib_Fat/sdcard.c **** #define CMD18	(18)		/* READ_MULTIPLE_BLOCK */
 113:lib_Fat/sdcard.c **** #define CMD23	(23)		/* SET_BLOCK_COUNT */
 114:lib_Fat/sdcard.c **** #define	ACMD23	(0x80+23)	/* SET_WR_BLK_ERASE_COUNT (SDC) */
 115:lib_Fat/sdcard.c **** #define CMD24	(24)		/* WRITE_BLOCK */
 116:lib_Fat/sdcard.c **** #define CMD25	(25)		/* WRITE_MULTIPLE_BLOCK */
 117:lib_Fat/sdcard.c **** #define CMD32	(32)		/* ERASE_ER_BLK_START */
 118:lib_Fat/sdcard.c **** #define CMD33	(33)		/* ERASE_ER_BLK_END */
 119:lib_Fat/sdcard.c **** #define CMD38	(38)		/* ERASE */
 120:lib_Fat/sdcard.c **** #define CMD55	(55)		/* APP_CMD */
 121:lib_Fat/sdcard.c **** #define CMD58	(58)		/* READ_OCR */
 122:lib_Fat/sdcard.c **** 
 123:lib_Fat/sdcard.c **** 
 124:lib_Fat/sdcard.c **** static DSTATUS Stat = STA_NOINIT;	/* Disk status */
 125:lib_Fat/sdcard.c **** 
 126:lib_Fat/sdcard.c **** static BYTE CardType;			/* b0:MMC, b1:SDv1, b2:SDv2, b3:Block addressing */
 127:lib_Fat/sdcard.c **** 
 128:lib_Fat/sdcard.c **** /*-----------------------------------------------------------------------*/
 129:lib_Fat/sdcard.c **** /* Transmit bytes to the card                                            */
 130:lib_Fat/sdcard.c **** /*-----------------------------------------------------------------------*/
 131:lib_Fat/sdcard.c **** 
 132:lib_Fat/sdcard.c **** static void xmit_mmc(const BYTE* buff, UINT bc)
 133:lib_Fat/sdcard.c **** {
 134:lib_Fat/sdcard.c **** 
 135:lib_Fat/sdcard.c **** #if (CY_PSOC4)
 136:lib_Fat/sdcard.c **** 
 137:lib_Fat/sdcard.c **** //    mmSPI_SpiUartClearTxBuffer();
 138:lib_Fat/sdcard.c **** //    mmSPI_SpiUartClearRxBuffer();
 139:lib_Fat/sdcard.c ****       mmSPI_SpiUartPutArray(buff, bc);
 140:lib_Fat/sdcard.c ****       CyDelay(5);
 141:lib_Fat/sdcard.c ****     //while(0u == (mmSPI_GetMasterInterruptSource() & mmSPI_INTR_MASTER_SPI_DONE));
 142:lib_Fat/sdcard.c ****     
 143:lib_Fat/sdcard.c **** #endif
 144:lib_Fat/sdcard.c **** 
 145:lib_Fat/sdcard.c **** #if (CY_PSOC5LP)
 146:lib_Fat/sdcard.c ****     
 147:lib_Fat/sdcard.c ****     UINT loop;
ARM GAS  C:\Users\Petro\AppData\Local\Temp\ccW66Ab9.s 			page 4


 148:lib_Fat/sdcard.c ****     
 149:lib_Fat/sdcard.c ****     SPI_ClearTxBuffer();
 150:lib_Fat/sdcard.c ****     SPI_ClearRxBuffer();
 151:lib_Fat/sdcard.c ****     
 152:lib_Fat/sdcard.c ****     for (loop = 0; loop < bc; loop++)
 153:lib_Fat/sdcard.c ****         SPI_WriteTxData(buff[loop]);
 154:lib_Fat/sdcard.c ****     
 155:lib_Fat/sdcard.c ****     while (SPI_GetTxBufferSize()) {};
 156:lib_Fat/sdcard.c ****     
 157:lib_Fat/sdcard.c **** #endif    
 158:lib_Fat/sdcard.c **** }
 159:lib_Fat/sdcard.c **** 
 160:lib_Fat/sdcard.c **** 
 161:lib_Fat/sdcard.c **** 
 162:lib_Fat/sdcard.c **** /*-----------------------------------------------------------------------*/
 163:lib_Fat/sdcard.c **** /* Receive bytes from the card                                           */
 164:lib_Fat/sdcard.c **** /*-----------------------------------------------------------------------*/
 165:lib_Fat/sdcard.c **** 
 166:lib_Fat/sdcard.c **** static void rcvr_mmc(BYTE *buff, UINT bc)
 167:lib_Fat/sdcard.c **** {
  25              		.loc 1 167 0
  26              		.cfi_startproc
  27              	.LVL0:
  28 0000 70B5     		push	{r4, r5, r6, lr}
  29              		.cfi_def_cfa_offset 16
  30              		.cfi_offset 4, -16
  31              		.cfi_offset 5, -12
  32              		.cfi_offset 6, -8
  33              		.cfi_offset 14, -4
  34              		.loc 1 167 0
  35 0002 051C     		mov	r5, r0
  36 0004 0E1C     		mov	r6, r1
  37 0006 041C     		mov	r4, r0
  38              	.LVL1:
  39              	.L2:
 168:lib_Fat/sdcard.c **** 
 169:lib_Fat/sdcard.c **** #if (CY_PSOC4) 
 170:lib_Fat/sdcard.c ****     
 171:lib_Fat/sdcard.c ****     //mmSPI_SpiUartClearTxBuffer();
 172:lib_Fat/sdcard.c ****     //mmSPI_SpiUartClearRxBuffer();
 173:lib_Fat/sdcard.c ****     
 174:lib_Fat/sdcard.c ****     do
 175:lib_Fat/sdcard.c ****     {
 176:lib_Fat/sdcard.c **** 
 177:lib_Fat/sdcard.c ****         //while(0u == (mmSPI_GetMasterInterruptSource() & mmSPI_INTR_MASTER_SPI_DONE));
 178:lib_Fat/sdcard.c ****         //CyDelayUs(M_DELAY_US); // <*> adjust, why?
 179:lib_Fat/sdcard.c ****         //mmSPI_SpiUartWriteTxData(0xFF);
 180:lib_Fat/sdcard.c ****         *buff++ = (BYTE)mmSPI_SpiUartReadRxData();
  40              		.loc 1 180 0 discriminator 1
  41 0008 FFF7FEFF 		bl	SwSPI_Master_RecvByte
  42              	.LVL2:
  43 000c 2070     		strb	r0, [r4]
  44              	.LVL3:
  45 000e 0134     		add	r4, r4, #1
  46              	.LVL4:
  47 0010 A31B     		sub	r3, r4, r6
 181:lib_Fat/sdcard.c **** 
ARM GAS  C:\Users\Petro\AppData\Local\Temp\ccW66Ab9.s 			page 5


 182:lib_Fat/sdcard.c ****     } while (--bc);   
  48              		.loc 1 182 0 discriminator 1
  49 0012 AB42     		cmp	r3, r5
  50 0014 F8D1     		bne	.L2
 183:lib_Fat/sdcard.c ****     
 184:lib_Fat/sdcard.c **** #endif    
 185:lib_Fat/sdcard.c ****     
 186:lib_Fat/sdcard.c **** #if (CY_PSOC5LP)
 187:lib_Fat/sdcard.c ****     
 188:lib_Fat/sdcard.c ****     SPI_ClearTxBuffer();
 189:lib_Fat/sdcard.c ****     SPI_ClearRxBuffer();
 190:lib_Fat/sdcard.c ****     
 191:lib_Fat/sdcard.c ****     do
 192:lib_Fat/sdcard.c ****     {
 193:lib_Fat/sdcard.c **** 
 194:lib_Fat/sdcard.c ****         SPI_WriteTxData(0xFF);
 195:lib_Fat/sdcard.c ****         while (SPI_GetTxBufferSize()) {};
 196:lib_Fat/sdcard.c ****         CyDelayUs(M_DELAY_US); // <*> adjust, why?
 197:lib_Fat/sdcard.c ****         *buff++ = (BYTE)SPI_ReadRxData();
 198:lib_Fat/sdcard.c **** 
 199:lib_Fat/sdcard.c ****     } while (--bc);    
 200:lib_Fat/sdcard.c ****     
 201:lib_Fat/sdcard.c **** #endif        
 202:lib_Fat/sdcard.c **** 
 203:lib_Fat/sdcard.c **** }
  51              		.loc 1 203 0
  52              		@ sp needed
  53              	.LVL5:
  54 0016 70BD     		pop	{r4, r5, r6, pc}
  55              		.cfi_endproc
  56              	.LFE64:
  57              		.size	rcvr_mmc, .-rcvr_mmc
  58              		.section	.text.wait_ready,"ax",%progbits
  59              		.align	1
  60              		.code	16
  61              		.thumb_func
  62              		.type	wait_ready, %function
  63              	wait_ready:
  64              	.LFB65:
 204:lib_Fat/sdcard.c **** 
 205:lib_Fat/sdcard.c **** 
 206:lib_Fat/sdcard.c **** 
 207:lib_Fat/sdcard.c **** /*-----------------------------------------------------------------------*/
 208:lib_Fat/sdcard.c **** /* Wait for card ready                                                   */
 209:lib_Fat/sdcard.c **** /*-----------------------------------------------------------------------*/
 210:lib_Fat/sdcard.c **** 
 211:lib_Fat/sdcard.c **** static int wait_ready(void)	/* 1:OK, 0:Timeout */
 212:lib_Fat/sdcard.c **** {
  65              		.loc 1 212 0
  66              		.cfi_startproc
  67              	.LVL6:
  68 0000 37B5     		push	{r0, r1, r2, r4, r5, lr}
  69              		.cfi_def_cfa_offset 24
  70              		.cfi_offset 0, -24
  71              		.cfi_offset 1, -20
  72              		.cfi_offset 2, -16
  73              		.cfi_offset 4, -12
ARM GAS  C:\Users\Petro\AppData\Local\Temp\ccW66Ab9.s 			page 6


  74              		.cfi_offset 5, -8
  75              		.cfi_offset 14, -4
 213:lib_Fat/sdcard.c **** 	BYTE d;
 214:lib_Fat/sdcard.c **** 	UINT tmr;
 215:lib_Fat/sdcard.c **** 
 216:lib_Fat/sdcard.c **** 	for (tmr = 5000; tmr; tmr--) {	/* Wait for ready in timeout of 500ms */
  76              		.loc 1 216 0
  77 0002 0A4C     		ldr	r4, .L10
  78              	.LVL7:
  79              	.L6:
 217:lib_Fat/sdcard.c **** 		rcvr_mmc(&d, 1);
  80              		.loc 1 217 0
  81 0004 6B46     		mov	r3, sp
  82 0006 DD1D     		add	r5, r3, #7
  83 0008 281C     		mov	r0, r5
  84 000a 0121     		mov	r1, #1
  85 000c FFF7FEFF 		bl	rcvr_mmc
  86              	.LVL8:
 218:lib_Fat/sdcard.c **** 		if (d == 0xFF) break;
  87              		.loc 1 218 0
  88 0010 2B78     		ldrb	r3, [r5]
  89 0012 FF2B     		cmp	r3, #255
  90 0014 05D0     		beq	.L5
 219:lib_Fat/sdcard.c **** 		dly_us(100);
  91              		.loc 1 219 0 discriminator 2
  92 0016 6420     		mov	r0, #100
 216:lib_Fat/sdcard.c **** 		rcvr_mmc(&d, 1);
  93              		.loc 1 216 0 discriminator 2
  94 0018 013C     		sub	r4, r4, #1
  95              	.LVL9:
  96              		.loc 1 219 0 discriminator 2
  97 001a FFF7FEFF 		bl	CyDelayUs
  98              	.LVL10:
 216:lib_Fat/sdcard.c **** 		rcvr_mmc(&d, 1);
  99              		.loc 1 216 0 discriminator 2
 100 001e 002C     		cmp	r4, #0
 101 0020 F0D1     		bne	.L6
 102              	.L5:
 220:lib_Fat/sdcard.c **** 	}
 221:lib_Fat/sdcard.c **** 
 222:lib_Fat/sdcard.c **** 	return tmr ? 1 : 0;
 103              		.loc 1 222 0
 104 0022 201C     		mov	r0, r4
 223:lib_Fat/sdcard.c **** }
 105              		.loc 1 223 0
 106              		@ sp needed
 222:lib_Fat/sdcard.c **** }
 107              		.loc 1 222 0
 108 0024 441E     		sub	r4, r0, #1
 109 0026 A041     		sbc	r0, r0, r4
 110              	.LVL11:
 111              		.loc 1 223 0
 112 0028 3EBD     		pop	{r1, r2, r3, r4, r5, pc}
 113              	.L11:
 114 002a C046     		.align	2
 115              	.L10:
 116 002c 88130000 		.word	5000
ARM GAS  C:\Users\Petro\AppData\Local\Temp\ccW66Ab9.s 			page 7


 117              		.cfi_endproc
 118              	.LFE65:
 119              		.size	wait_ready, .-wait_ready
 120              		.section	.text.deselect,"ax",%progbits
 121              		.align	1
 122              		.code	16
 123              		.thumb_func
 124              		.type	deselect, %function
 125              	deselect:
 126              	.LFB66:
 224:lib_Fat/sdcard.c **** 
 225:lib_Fat/sdcard.c **** /*-----------------------------------------------------------------------*/
 226:lib_Fat/sdcard.c **** /* Deselect the card and release SPI bus                                 */
 227:lib_Fat/sdcard.c **** /*-----------------------------------------------------------------------*/
 228:lib_Fat/sdcard.c **** 
 229:lib_Fat/sdcard.c **** static void deselect(void)
 230:lib_Fat/sdcard.c **** {
 127              		.loc 1 230 0
 128              		.cfi_startproc
 129 0000 07B5     		push	{r0, r1, r2, lr}
 130              		.cfi_def_cfa_offset 16
 131              		.cfi_offset 0, -16
 132              		.cfi_offset 1, -12
 133              		.cfi_offset 2, -8
 134              		.cfi_offset 14, -4
 231:lib_Fat/sdcard.c **** 	BYTE d;
 232:lib_Fat/sdcard.c **** 
 233:lib_Fat/sdcard.c ****     CyDelayUs(CS_DELAY_US); // <*> adjust
 135              		.loc 1 233 0
 136 0002 0120     		mov	r0, #1
 137 0004 FFF7FEFF 		bl	CyDelayUs
 138              	.LVL12:
 234:lib_Fat/sdcard.c **** 	rcvr_mmc(&d, 1);	/* Dummy clock (force DO hi-z for multiple slave SPI) */
 139              		.loc 1 234 0
 140 0008 6B46     		mov	r3, sp
 141 000a 0121     		mov	r1, #1
 142 000c D81D     		add	r0, r3, #7
 143 000e FFF7FEFF 		bl	rcvr_mmc
 144              	.LVL13:
 235:lib_Fat/sdcard.c **** }
 145              		.loc 1 235 0
 146              		@ sp needed
 147 0012 07BD     		pop	{r0, r1, r2, pc}
 148              		.cfi_endproc
 149              	.LFE66:
 150              		.size	deselect, .-deselect
 151              		.section	.text.select,"ax",%progbits
 152              		.align	1
 153              		.code	16
 154              		.thumb_func
 155              		.type	select, %function
 156              	select:
 157              	.LFB67:
 236:lib_Fat/sdcard.c **** 
 237:lib_Fat/sdcard.c **** /*-----------------------------------------------------------------------*/
 238:lib_Fat/sdcard.c **** /* Select the card and wait for ready                                    */
 239:lib_Fat/sdcard.c **** /*-----------------------------------------------------------------------*/
ARM GAS  C:\Users\Petro\AppData\Local\Temp\ccW66Ab9.s 			page 8


 240:lib_Fat/sdcard.c **** 
 241:lib_Fat/sdcard.c **** static int select(void)	/* 1:OK, 0:Timeout */
 242:lib_Fat/sdcard.c **** {
 158              		.loc 1 242 0
 159              		.cfi_startproc
 160 0000 13B5     		push	{r0, r1, r4, lr}
 161              		.cfi_def_cfa_offset 16
 162              		.cfi_offset 0, -16
 163              		.cfi_offset 1, -12
 164              		.cfi_offset 4, -8
 165              		.cfi_offset 14, -4
 243:lib_Fat/sdcard.c **** 	BYTE d;
 244:lib_Fat/sdcard.c **** 
 245:lib_Fat/sdcard.c ****     CyDelayUs(CS_DELAY_US); // <*> adjust
 166              		.loc 1 245 0
 167 0002 0120     		mov	r0, #1
 168 0004 FFF7FEFF 		bl	CyDelayUs
 169              	.LVL14:
 246:lib_Fat/sdcard.c **** 	rcvr_mmc(&d, 1);	/* Dummy clock (force DO enabled) */
 170              		.loc 1 246 0
 171 0008 6B46     		mov	r3, sp
 172 000a 0121     		mov	r1, #1
 173 000c D81D     		add	r0, r3, #7
 174 000e FFF7FEFF 		bl	rcvr_mmc
 175              	.LVL15:
 247:lib_Fat/sdcard.c **** 	if (wait_ready()) return 1;	/* Wait for card ready */
 176              		.loc 1 247 0
 177 0012 FFF7FEFF 		bl	wait_ready
 178              	.LVL16:
 179 0016 041E     		sub	r4, r0, #0
 180 0018 02D1     		bne	.L15
 248:lib_Fat/sdcard.c **** 
 249:lib_Fat/sdcard.c **** 	deselect();
 181              		.loc 1 249 0
 182 001a FFF7FEFF 		bl	deselect
 183              	.LVL17:
 250:lib_Fat/sdcard.c **** 	return 0;			/* Failed */
 184              		.loc 1 250 0
 185 001e 00E0     		b	.L14
 186              	.L15:
 247:lib_Fat/sdcard.c **** 	if (wait_ready()) return 1;	/* Wait for card ready */
 187              		.loc 1 247 0
 188 0020 0124     		mov	r4, #1
 189              	.L14:
 251:lib_Fat/sdcard.c **** }
 190              		.loc 1 251 0
 191 0022 201C     		mov	r0, r4
 192              		@ sp needed
 193 0024 16BD     		pop	{r1, r2, r4, pc}
 194              		.cfi_endproc
 195              	.LFE67:
 196              		.size	select, .-select
 197              		.section	.text.rcvr_datablock,"ax",%progbits
 198              		.align	1
 199              		.code	16
 200              		.thumb_func
 201              		.type	rcvr_datablock, %function
ARM GAS  C:\Users\Petro\AppData\Local\Temp\ccW66Ab9.s 			page 9


 202              	rcvr_datablock:
 203              	.LFB68:
 252:lib_Fat/sdcard.c **** 
 253:lib_Fat/sdcard.c **** /*-----------------------------------------------------------------------*/
 254:lib_Fat/sdcard.c **** /* Receive a data packet from the card                                   */
 255:lib_Fat/sdcard.c **** /*-----------------------------------------------------------------------*/
 256:lib_Fat/sdcard.c **** 
 257:lib_Fat/sdcard.c **** static int rcvr_datablock(BYTE *buff, UINT btr) 	/* 1:OK, 0:Failed */
 258:lib_Fat/sdcard.c **** {
 204              		.loc 1 258 0
 205              		.cfi_startproc
 206              	.LVL18:
 207 0000 F7B5     		push	{r0, r1, r2, r4, r5, r6, r7, lr}
 208              		.cfi_def_cfa_offset 32
 209              		.cfi_offset 0, -32
 210              		.cfi_offset 1, -28
 211              		.cfi_offset 2, -24
 212              		.cfi_offset 4, -20
 213              		.cfi_offset 5, -16
 214              		.cfi_offset 6, -12
 215              		.cfi_offset 7, -8
 216              		.cfi_offset 14, -4
 217              		.loc 1 258 0
 218 0002 FA25     		mov	r5, #250
 219 0004 071C     		mov	r7, r0
 220 0006 0E1C     		mov	r6, r1
 221 0008 AD00     		lsl	r5, r5, #2
 222              	.LVL19:
 223              	.L20:
 259:lib_Fat/sdcard.c **** 	BYTE d[2];
 260:lib_Fat/sdcard.c **** 	UINT tmr;
 261:lib_Fat/sdcard.c **** 
 262:lib_Fat/sdcard.c **** 	for (tmr = 1000; tmr; tmr--) {	/* Wait for data packet in timeout of 100ms */
 263:lib_Fat/sdcard.c **** 		rcvr_mmc(d, 1);
 224              		.loc 1 263 0
 225 000a 01AC     		add	r4, sp, #4
 226 000c 201C     		mov	r0, r4
 227 000e 0121     		mov	r1, #1
 228 0010 FFF7FEFF 		bl	rcvr_mmc
 229              	.LVL20:
 264:lib_Fat/sdcard.c **** 		if (d[0] != 0xFF) break;
 230              		.loc 1 264 0
 231 0014 2378     		ldrb	r3, [r4]
 232 0016 FF2B     		cmp	r3, #255
 233 0018 0DD0     		beq	.L17
 234              	.LVL21:
 235              	.L21:
 265:lib_Fat/sdcard.c **** 		dly_us(100);
 266:lib_Fat/sdcard.c **** 	}
 267:lib_Fat/sdcard.c **** 	if (d[0] != 0xFE) return 0;		/* If not valid data token, return with error */
 236              		.loc 1 267 0
 237 001a 2378     		ldrb	r3, [r4]
 238 001c 0020     		mov	r0, #0
 239 001e FE2B     		cmp	r3, #254
 240 0020 10D1     		bne	.L18
 268:lib_Fat/sdcard.c **** 
 269:lib_Fat/sdcard.c **** 	rcvr_mmc(buff, btr);			/* Receive the data block into buffer */
ARM GAS  C:\Users\Petro\AppData\Local\Temp\ccW66Ab9.s 			page 10


 241              		.loc 1 269 0
 242 0022 381C     		mov	r0, r7
 243 0024 311C     		mov	r1, r6
 244 0026 FFF7FEFF 		bl	rcvr_mmc
 245              	.LVL22:
 270:lib_Fat/sdcard.c **** 	rcvr_mmc(d, 2);					/* Discard CRC */
 246              		.loc 1 270 0
 247 002a 201C     		mov	r0, r4
 248 002c 0221     		mov	r1, #2
 249 002e FFF7FEFF 		bl	rcvr_mmc
 250              	.LVL23:
 271:lib_Fat/sdcard.c **** 
 272:lib_Fat/sdcard.c **** 	return 1;						/* Return with success */
 251              		.loc 1 272 0
 252 0032 0120     		mov	r0, #1
 253 0034 06E0     		b	.L18
 254              	.LVL24:
 255              	.L17:
 265:lib_Fat/sdcard.c **** 	}
 256              		.loc 1 265 0 discriminator 2
 257 0036 6420     		mov	r0, #100
 258 0038 013D     		sub	r5, r5, #1
 259              	.LVL25:
 260 003a FFF7FEFF 		bl	CyDelayUs
 261              	.LVL26:
 262:lib_Fat/sdcard.c **** 		rcvr_mmc(d, 1);
 262              		.loc 1 262 0 discriminator 2
 263 003e 002D     		cmp	r5, #0
 264 0040 E3D1     		bne	.L20
 265 0042 EAE7     		b	.L21
 266              	.L18:
 273:lib_Fat/sdcard.c **** }
 267              		.loc 1 273 0
 268              		@ sp needed
 269              	.LVL27:
 270              	.LVL28:
 271 0044 FEBD     		pop	{r1, r2, r3, r4, r5, r6, r7, pc}
 272              		.cfi_endproc
 273              	.LFE68:
 274              		.size	rcvr_datablock, .-rcvr_datablock
 275              		.section	.text.send_cmd,"ax",%progbits
 276              		.align	1
 277              		.code	16
 278              		.thumb_func
 279              		.type	send_cmd, %function
 280              	send_cmd:
 281              	.LFB70:
 274:lib_Fat/sdcard.c **** 
 275:lib_Fat/sdcard.c **** /*-----------------------------------------------------------------------*/
 276:lib_Fat/sdcard.c **** /* Send a data packet to the card                                        */
 277:lib_Fat/sdcard.c **** /*-----------------------------------------------------------------------*/
 278:lib_Fat/sdcard.c **** 
 279:lib_Fat/sdcard.c **** static int xmit_datablock(const BYTE *buff, BYTE token)	/* 1:OK, 0:Failed */
 280:lib_Fat/sdcard.c **** {
 281:lib_Fat/sdcard.c **** 	BYTE d[2];
 282:lib_Fat/sdcard.c **** 
 283:lib_Fat/sdcard.c **** 	if (!wait_ready()) return 0;
ARM GAS  C:\Users\Petro\AppData\Local\Temp\ccW66Ab9.s 			page 11


 284:lib_Fat/sdcard.c **** 
 285:lib_Fat/sdcard.c **** 	d[0] = token;
 286:lib_Fat/sdcard.c **** 	xmit_mmc(d, 1);				/* Xmit a token */
 287:lib_Fat/sdcard.c ****     CyDelayUs(M_DELAY_US); // <*> why?
 288:lib_Fat/sdcard.c **** 	if (token != 0xFD) {		/* Is it data token? */
 289:lib_Fat/sdcard.c **** 		xmit_mmc(buff, 512);	/* Xmit the 512 byte data block to MMC */
 290:lib_Fat/sdcard.c ****         CyDelayUs(M_DELAY_US); // <*> why?
 291:lib_Fat/sdcard.c **** 		rcvr_mmc(d, 2);			/* Xmit dummy CRC (0xFF,0xFF) */
 292:lib_Fat/sdcard.c **** 		rcvr_mmc(d, 1);			/* Receive data response */
 293:lib_Fat/sdcard.c **** 		if ((d[0] & 0x1F) != 0x05)	/* If not accepted, return with error */
 294:lib_Fat/sdcard.c **** 			return 0;
 295:lib_Fat/sdcard.c **** 	}
 296:lib_Fat/sdcard.c **** 
 297:lib_Fat/sdcard.c **** 	return 1;
 298:lib_Fat/sdcard.c **** }
 299:lib_Fat/sdcard.c **** 
 300:lib_Fat/sdcard.c **** /*-----------------------------------------------------------------------*/
 301:lib_Fat/sdcard.c **** /* Send a command packet to the card                                     */
 302:lib_Fat/sdcard.c **** /*-----------------------------------------------------------------------*/
 303:lib_Fat/sdcard.c **** 
 304:lib_Fat/sdcard.c **** static BYTE send_cmd(BYTE cmd,	DWORD arg)		/* Returns command response (bit7==1:Send failed)*/
 305:lib_Fat/sdcard.c **** {
 282              		.loc 1 305 0
 283              		.cfi_startproc
 284              	.LVL29:
 285 0000 30B5     		push	{r4, r5, lr}
 286              		.cfi_def_cfa_offset 12
 287              		.cfi_offset 4, -12
 288              		.cfi_offset 5, -8
 289              		.cfi_offset 14, -4
 306:lib_Fat/sdcard.c **** 	BYTE n, d, buf[6];
 307:lib_Fat/sdcard.c **** 
 308:lib_Fat/sdcard.c **** 
 309:lib_Fat/sdcard.c **** 	if (cmd & 0x80) {	/* ACMD<n> is the command sequense of CMD55-CMD<n> */
 290              		.loc 1 309 0
 291 0002 43B2     		sxtb	r3, r0
 305:lib_Fat/sdcard.c **** 	BYTE n, d, buf[6];
 292              		.loc 1 305 0
 293 0004 85B0     		sub	sp, sp, #20
 294              		.cfi_def_cfa_offset 32
 305:lib_Fat/sdcard.c **** 	BYTE n, d, buf[6];
 295              		.loc 1 305 0
 296 0006 041C     		mov	r4, r0
 297 0008 0D1C     		mov	r5, r1
 298              		.loc 1 309 0
 299 000a 002B     		cmp	r3, #0
 300 000c 07DA     		bge	.L25
 301              	.LVL30:
 310:lib_Fat/sdcard.c **** 		cmd &= 0x7F;
 311:lib_Fat/sdcard.c **** 		n = send_cmd(CMD55, 0);
 302              		.loc 1 311 0
 303 000e 3720     		mov	r0, #55
 304 0010 0021     		mov	r1, #0
 305              	.LVL31:
 306 0012 FFF7F5FF 		bl	send_cmd
 307              	.LVL32:
 312:lib_Fat/sdcard.c **** 		if (n > 1) return n;
ARM GAS  C:\Users\Petro\AppData\Local\Temp\ccW66Ab9.s 			page 12


 308              		.loc 1 312 0
 309 0016 0128     		cmp	r0, #1
 310 0018 3ED8     		bhi	.L26
 310:lib_Fat/sdcard.c **** 		cmd &= 0x7F;
 311              		.loc 1 310 0
 312 001a 7F23     		mov	r3, #127
 313 001c 1C40     		and	r4, r3
 314              	.LVL33:
 315              	.L25:
 313:lib_Fat/sdcard.c **** 	}
 314:lib_Fat/sdcard.c **** 
 315:lib_Fat/sdcard.c **** 	/* Select the card and wait for ready except to stop multiple block read */
 316:lib_Fat/sdcard.c **** 	if (cmd != CMD12) {
 316              		.loc 1 316 0
 317 001e 0C2C     		cmp	r4, #12
 318 0020 0ED1     		bne	.L27
 319              	.L30:
 317:lib_Fat/sdcard.c **** 		deselect();
 318:lib_Fat/sdcard.c **** 		if (!select()) return 0xFF;
 319:lib_Fat/sdcard.c **** 	}
 320:lib_Fat/sdcard.c **** 
 321:lib_Fat/sdcard.c **** 	/* Send a command packet */
 322:lib_Fat/sdcard.c **** 	buf[0] = 0x40 | cmd;			/* Start + Command index */
 320              		.loc 1 322 0
 321 0022 4023     		mov	r3, #64
 322 0024 02A8     		add	r0, sp, #8
 323 0026 2343     		orr	r3, r4
 324 0028 0370     		strb	r3, [r0]
 323:lib_Fat/sdcard.c **** 	buf[1] = (BYTE)(arg >> 24);		/* Argument[31..24] */
 325              		.loc 1 323 0
 326 002a 2B0E     		lsr	r3, r5, #24
 327 002c 4370     		strb	r3, [r0, #1]
 324:lib_Fat/sdcard.c **** 	buf[2] = (BYTE)(arg >> 16);		/* Argument[23..16] */
 328              		.loc 1 324 0
 329 002e 2B0C     		lsr	r3, r5, #16
 330 0030 8370     		strb	r3, [r0, #2]
 325:lib_Fat/sdcard.c **** 	buf[3] = (BYTE)(arg >> 8);		/* Argument[15..8] */
 331              		.loc 1 325 0
 332 0032 2B0A     		lsr	r3, r5, #8
 333 0034 C370     		strb	r3, [r0, #3]
 326:lib_Fat/sdcard.c **** 	buf[4] = (BYTE)arg;				/* Argument[7..0] */
 334              		.loc 1 326 0
 335 0036 0571     		strb	r5, [r0, #4]
 336              	.LVL34:
 327:lib_Fat/sdcard.c **** 	n = 0x01;						/* Dummy CRC + Stop */
 328:lib_Fat/sdcard.c **** 	if (cmd == CMD0) n = 0x95;		/* (valid CRC for CMD0(0)) */
 337              		.loc 1 328 0
 338 0038 9523     		mov	r3, #149
 339 003a 002C     		cmp	r4, #0
 340 003c 0DD0     		beq	.L31
 341 003e 08E0     		b	.L42
 342              	.LVL35:
 343              	.L27:
 317:lib_Fat/sdcard.c **** 		if (!select()) return 0xFF;
 344              		.loc 1 317 0
 345 0040 FFF7FEFF 		bl	deselect
 346              	.LVL36:
ARM GAS  C:\Users\Petro\AppData\Local\Temp\ccW66Ab9.s 			page 13


 318:lib_Fat/sdcard.c **** 	}
 347              		.loc 1 318 0
 348 0044 FFF7FEFF 		bl	select
 349              	.LVL37:
 350 0048 031C     		mov	r3, r0
 351 004a FF20     		mov	r0, #255
 352 004c 002B     		cmp	r3, #0
 353 004e 23D0     		beq	.L26
 354 0050 E7E7     		b	.L30
 355              	.LVL38:
 356              	.L42:
 329:lib_Fat/sdcard.c **** 	if (cmd == CMD8) n = 0x87;		/* (valid CRC for CMD8(0x1AA)) */
 357              		.loc 1 329 0
 358 0052 8723     		mov	r3, #135
 359 0054 082C     		cmp	r4, #8
 360 0056 00D0     		beq	.L31
 327:lib_Fat/sdcard.c **** 	if (cmd == CMD0) n = 0x95;		/* (valid CRC for CMD0(0)) */
 361              		.loc 1 327 0
 362 0058 863B     		sub	r3, r3, #134
 363              	.L31:
 364              	.LVL39:
 365              	.LBB10:
 366              	.LBB11:
 139:lib_Fat/sdcard.c ****       CyDelay(5);
 367              		.loc 1 139 0
 368 005a 0621     		mov	r1, #6
 369              	.LBE11:
 370              	.LBE10:
 330:lib_Fat/sdcard.c **** 	buf[5] = n;
 371              		.loc 1 330 0
 372 005c 4371     		strb	r3, [r0, #5]
 373              	.LVL40:
 374              	.LBB13:
 375              	.LBB12:
 139:lib_Fat/sdcard.c ****       CyDelay(5);
 376              		.loc 1 139 0
 377 005e FFF7FEFF 		bl	SwSPI_Master_SendBuff
 378              	.LVL41:
 140:lib_Fat/sdcard.c ****     //while(0u == (mmSPI_GetMasterInterruptSource() & mmSPI_INTR_MASTER_SPI_DONE));
 379              		.loc 1 140 0
 380 0062 0520     		mov	r0, #5
 381 0064 FFF7FEFF 		bl	CyDelay
 382              	.LVL42:
 383              	.LBE12:
 384              	.LBE13:
 331:lib_Fat/sdcard.c **** 	xmit_mmc(buf, 6);
 332:lib_Fat/sdcard.c ****     CyDelayUs(M_DELAY_US); // <*> why?
 385              		.loc 1 332 0
 386 0068 6420     		mov	r0, #100
 387 006a FFF7FEFF 		bl	CyDelayUs
 388              	.LVL43:
 389 006e 6B46     		mov	r3, sp
 390 0070 DD1D     		add	r5, r3, #7
 391              	.LVL44:
 333:lib_Fat/sdcard.c **** 
 334:lib_Fat/sdcard.c **** 	/* Receive command response */
 335:lib_Fat/sdcard.c **** 	if (cmd == CMD12) rcvr_mmc(&d, 1);	/* Skip a stuff byte when stop reading */
ARM GAS  C:\Users\Petro\AppData\Local\Temp\ccW66Ab9.s 			page 14


 392              		.loc 1 335 0
 393 0072 0C2C     		cmp	r4, #12
 394 0074 03D1     		bne	.L32
 395              		.loc 1 335 0 is_stmt 0 discriminator 1
 396 0076 281C     		mov	r0, r5
 397 0078 0121     		mov	r1, #1
 398 007a FFF7FEFF 		bl	rcvr_mmc
 399              	.LVL45:
 400              	.L32:
 329:lib_Fat/sdcard.c **** 	buf[5] = n;
 401              		.loc 1 329 0 is_stmt 1 discriminator 2
 402 007e 1424     		mov	r4, #20
 403              	.LVL46:
 404              	.L33:
 336:lib_Fat/sdcard.c **** 	n = 20;								/* Wait for a valid response in timeout of 10 attempts */
 337:lib_Fat/sdcard.c **** 	do
 338:lib_Fat/sdcard.c ****     {
 339:lib_Fat/sdcard.c **** 		rcvr_mmc(&d, 1);
 405              		.loc 1 339 0 discriminator 2
 406 0080 281C     		mov	r0, r5
 407 0082 0121     		mov	r1, #1
 408 0084 FFF7FEFF 		bl	rcvr_mmc
 409              	.LVL47:
 340:lib_Fat/sdcard.c ****     }
 341:lib_Fat/sdcard.c **** 	while ((d & 0x80) && --n);
 410              		.loc 1 341 0 discriminator 2
 411 0088 2878     		ldrb	r0, [r5]
 412 008a 43B2     		sxtb	r3, r0
 413 008c 002B     		cmp	r3, #0
 414 008e 03DA     		bge	.L26
 415              	.LVL48:
 416 0090 013C     		sub	r4, r4, #1
 417              	.LVL49:
 418 0092 E4B2     		uxtb	r4, r4
 419              		.loc 1 341 0 is_stmt 0 discriminator 1
 420 0094 002C     		cmp	r4, #0
 421 0096 F3D1     		bne	.L33
 422              	.LVL50:
 423              	.L26:
 342:lib_Fat/sdcard.c **** 
 343:lib_Fat/sdcard.c **** 	return d;			/* Return with the response value */
 344:lib_Fat/sdcard.c **** }
 424              		.loc 1 344 0 is_stmt 1
 425 0098 05B0     		add	sp, sp, #20
 426              		@ sp needed
 427 009a 30BD     		pop	{r4, r5, pc}
 428              		.cfi_endproc
 429              	.LFE70:
 430              		.size	send_cmd, .-send_cmd
 431              		.section	.text.xmit_datablock,"ax",%progbits
 432              		.align	1
 433              		.code	16
 434              		.thumb_func
 435              		.type	xmit_datablock, %function
 436              	xmit_datablock:
 437              	.LFB69:
 280:lib_Fat/sdcard.c **** 	BYTE d[2];
ARM GAS  C:\Users\Petro\AppData\Local\Temp\ccW66Ab9.s 			page 15


 438              		.loc 1 280 0
 439              		.cfi_startproc
 440              	.LVL51:
 441 0000 F7B5     		push	{r0, r1, r2, r4, r5, r6, r7, lr}
 442              		.cfi_def_cfa_offset 32
 443              		.cfi_offset 0, -32
 444              		.cfi_offset 1, -28
 445              		.cfi_offset 2, -24
 446              		.cfi_offset 4, -20
 447              		.cfi_offset 5, -16
 448              		.cfi_offset 6, -12
 449              		.cfi_offset 7, -8
 450              		.cfi_offset 14, -4
 280:lib_Fat/sdcard.c **** 	BYTE d[2];
 451              		.loc 1 280 0
 452 0002 071C     		mov	r7, r0
 453 0004 0E1C     		mov	r6, r1
 283:lib_Fat/sdcard.c **** 
 454              		.loc 1 283 0
 455 0006 FFF7FEFF 		bl	wait_ready
 456              	.LVL52:
 457 000a 041E     		sub	r4, r0, #0
 458 000c 27D0     		beq	.L44
 459              	.LVL53:
 460              	.LBB20:
 461              	.LBB21:
 285:lib_Fat/sdcard.c **** 	xmit_mmc(d, 1);				/* Xmit a token */
 462              		.loc 1 285 0
 463 000e 01AD     		add	r5, sp, #4
 464              	.LBB22:
 465              	.LBB23:
 139:lib_Fat/sdcard.c ****       CyDelay(5);
 466              		.loc 1 139 0
 467 0010 0121     		mov	r1, #1
 468 0012 281C     		mov	r0, r5
 469              	.LBE23:
 470              	.LBE22:
 285:lib_Fat/sdcard.c **** 	xmit_mmc(d, 1);				/* Xmit a token */
 471              		.loc 1 285 0
 472 0014 2E70     		strb	r6, [r5]
 473              	.LVL54:
 474              	.LBB25:
 475              	.LBB24:
 139:lib_Fat/sdcard.c ****       CyDelay(5);
 476              		.loc 1 139 0
 477 0016 FFF7FEFF 		bl	SwSPI_Master_SendBuff
 478              	.LVL55:
 140:lib_Fat/sdcard.c ****     //while(0u == (mmSPI_GetMasterInterruptSource() & mmSPI_INTR_MASTER_SPI_DONE));
 479              		.loc 1 140 0
 480 001a 0520     		mov	r0, #5
 481 001c FFF7FEFF 		bl	CyDelay
 482              	.LVL56:
 483              	.LBE24:
 484              	.LBE25:
 287:lib_Fat/sdcard.c **** 	if (token != 0xFD) {		/* Is it data token? */
 485              		.loc 1 287 0
 486 0020 6420     		mov	r0, #100
ARM GAS  C:\Users\Petro\AppData\Local\Temp\ccW66Ab9.s 			page 16


 487 0022 FFF7FEFF 		bl	CyDelayUs
 488              	.LVL57:
 297:lib_Fat/sdcard.c **** }
 489              		.loc 1 297 0
 490 0026 0124     		mov	r4, #1
 288:lib_Fat/sdcard.c **** 		xmit_mmc(buff, 512);	/* Xmit the 512 byte data block to MMC */
 491              		.loc 1 288 0
 492 0028 FD2E     		cmp	r6, #253
 493 002a 18D0     		beq	.L44
 494              	.LVL58:
 495              	.LBB26:
 496              	.LBB27:
 139:lib_Fat/sdcard.c ****       CyDelay(5);
 497              		.loc 1 139 0
 498 002c 8021     		mov	r1, #128
 499 002e 381C     		mov	r0, r7
 500 0030 8900     		lsl	r1, r1, #2
 501 0032 FFF7FEFF 		bl	SwSPI_Master_SendBuff
 502              	.LVL59:
 140:lib_Fat/sdcard.c ****     //while(0u == (mmSPI_GetMasterInterruptSource() & mmSPI_INTR_MASTER_SPI_DONE));
 503              		.loc 1 140 0
 504 0036 0520     		mov	r0, #5
 505 0038 FFF7FEFF 		bl	CyDelay
 506              	.LVL60:
 507              	.LBE27:
 508              	.LBE26:
 290:lib_Fat/sdcard.c **** 		rcvr_mmc(d, 2);			/* Xmit dummy CRC (0xFF,0xFF) */
 509              		.loc 1 290 0
 510 003c 6420     		mov	r0, #100
 511 003e FFF7FEFF 		bl	CyDelayUs
 512              	.LVL61:
 291:lib_Fat/sdcard.c **** 		rcvr_mmc(d, 1);			/* Receive data response */
 513              		.loc 1 291 0
 514 0042 281C     		mov	r0, r5
 515 0044 0221     		mov	r1, #2
 516 0046 FFF7FEFF 		bl	rcvr_mmc
 517              	.LVL62:
 292:lib_Fat/sdcard.c **** 		if ((d[0] & 0x1F) != 0x05)	/* If not accepted, return with error */
 518              		.loc 1 292 0
 519 004a 281C     		mov	r0, r5
 520 004c 211C     		mov	r1, r4
 521 004e FFF7FEFF 		bl	rcvr_mmc
 522              	.LVL63:
 293:lib_Fat/sdcard.c **** 			return 0;
 523              		.loc 1 293 0
 524 0052 1F23     		mov	r3, #31
 525 0054 2878     		ldrb	r0, [r5]
 526 0056 1840     		and	r0, r3
 527 0058 0538     		sub	r0, r0, #5
 297:lib_Fat/sdcard.c **** }
 528              		.loc 1 297 0
 529 005a 4442     		neg	r4, r0
 530 005c 4441     		adc	r4, r4, r0
 531              	.LVL64:
 532              	.L44:
 533              	.LBE21:
 534              	.LBE20:
ARM GAS  C:\Users\Petro\AppData\Local\Temp\ccW66Ab9.s 			page 17


 298:lib_Fat/sdcard.c **** 
 535              		.loc 1 298 0
 536 005e 201C     		mov	r0, r4
 537              		@ sp needed
 538              	.LVL65:
 539 0060 FEBD     		pop	{r1, r2, r3, r4, r5, r6, r7, pc}
 540              		.cfi_endproc
 541              	.LFE69:
 542              		.size	xmit_datablock, .-xmit_datablock
 543              		.section	.text.disk_status,"ax",%progbits
 544              		.align	1
 545              		.global	disk_status
 546              		.code	16
 547              		.thumb_func
 548              		.type	disk_status, %function
 549              	disk_status:
 550              	.LFB71:
 345:lib_Fat/sdcard.c **** 
 346:lib_Fat/sdcard.c **** /*--------------------------------------------------------------------------
 347:lib_Fat/sdcard.c **** 
 348:lib_Fat/sdcard.c ****    Public Functions
 349:lib_Fat/sdcard.c **** 
 350:lib_Fat/sdcard.c **** ---------------------------------------------------------------------------*/
 351:lib_Fat/sdcard.c **** 
 352:lib_Fat/sdcard.c **** /*-----------------------------------------------------------------------*/
 353:lib_Fat/sdcard.c **** /* Get Disk Status                                                       */
 354:lib_Fat/sdcard.c **** /*-----------------------------------------------------------------------*/
 355:lib_Fat/sdcard.c **** 
 356:lib_Fat/sdcard.c **** DSTATUS disk_status(BYTE drv) /* Drive number (always 0) */
 357:lib_Fat/sdcard.c **** {
 551              		.loc 1 357 0
 552              		.cfi_startproc
 553              	.LVL66:
 358:lib_Fat/sdcard.c **** 	if (drv) return STA_NOINIT;
 554              		.loc 1 358 0
 555 0000 0123     		mov	r3, #1
 556 0002 0028     		cmp	r0, #0
 557 0004 01D1     		bne	.L52
 359:lib_Fat/sdcard.c **** 
 360:lib_Fat/sdcard.c **** 	return Stat;
 558              		.loc 1 360 0
 559 0006 024B     		ldr	r3, .L54
 560 0008 1B78     		ldrb	r3, [r3]
 561              	.L52:
 361:lib_Fat/sdcard.c **** }
 562              		.loc 1 361 0
 563 000a 181C     		mov	r0, r3
 564              	.LVL67:
 565              		@ sp needed
 566 000c 7047     		bx	lr
 567              	.L55:
 568 000e C046     		.align	2
 569              	.L54:
 570 0010 00000000 		.word	.LANCHOR0
 571              		.cfi_endproc
 572              	.LFE71:
 573              		.size	disk_status, .-disk_status
ARM GAS  C:\Users\Petro\AppData\Local\Temp\ccW66Ab9.s 			page 18


 574              		.section	.text.disk_initialize,"ax",%progbits
 575              		.align	1
 576              		.global	disk_initialize
 577              		.code	16
 578              		.thumb_func
 579              		.type	disk_initialize, %function
 580              	disk_initialize:
 581              	.LFB72:
 362:lib_Fat/sdcard.c **** 
 363:lib_Fat/sdcard.c **** /*-----------------------------------------------------------------------*/
 364:lib_Fat/sdcard.c **** /* Initialize Disk Drive                                                 */
 365:lib_Fat/sdcard.c **** /*-----------------------------------------------------------------------*/
 366:lib_Fat/sdcard.c **** 
 367:lib_Fat/sdcard.c **** DSTATUS disk_initialize(BYTE drv) /* Physical drive nmuber (0) */
 368:lib_Fat/sdcard.c **** {
 582              		.loc 1 368 0
 583              		.cfi_startproc
 584              	.LVL68:
 585 0000 73B5     		push	{r0, r1, r4, r5, r6, lr}
 586              		.cfi_def_cfa_offset 24
 587              		.cfi_offset 0, -24
 588              		.cfi_offset 1, -20
 589              		.cfi_offset 4, -16
 590              		.cfi_offset 5, -12
 591              		.cfi_offset 6, -8
 592              		.cfi_offset 14, -4
 369:lib_Fat/sdcard.c **** 	BYTE n, ty, cmd, buf[4];
 370:lib_Fat/sdcard.c **** 	UINT tmr;
 371:lib_Fat/sdcard.c **** 	DSTATUS s;
 372:lib_Fat/sdcard.c **** 
 373:lib_Fat/sdcard.c **** 	if (drv) return RES_NOTRDY;
 593              		.loc 1 373 0
 594 0002 0324     		mov	r4, #3
 595 0004 0028     		cmp	r0, #0
 596 0006 74D1     		bne	.L75
 374:lib_Fat/sdcard.c **** 
 375:lib_Fat/sdcard.c **** 	dly_us(10000);			/* 10ms */
 597              		.loc 1 375 0
 598 0008 3B48     		ldr	r0, .L77
 599              	.LVL69:
 600 000a FFF7FEFF 		bl	CyDelayUs
 601              	.LVL70:
 602 000e 0734     		add	r4, r4, #7
 603              	.LVL71:
 604              	.L58:
 376:lib_Fat/sdcard.c **** 
 377:lib_Fat/sdcard.c **** 	for (n = 10; n; n--) rcvr_mmc(buf, 1);	/* Apply 80 dummy clocks and the card gets ready to receive
 605              		.loc 1 377 0 discriminator 3
 606 0010 01AD     		add	r5, sp, #4
 607 0012 013C     		sub	r4, r4, #1
 608              	.LVL72:
 609 0014 281C     		mov	r0, r5
 610 0016 0121     		mov	r1, #1
 611 0018 E4B2     		uxtb	r4, r4
 612 001a FFF7FEFF 		bl	rcvr_mmc
 613              	.LVL73:
 614 001e 002C     		cmp	r4, #0
ARM GAS  C:\Users\Petro\AppData\Local\Temp\ccW66Ab9.s 			page 19


 615 0020 F6D1     		bne	.L58
 616              	.LVL74:
 378:lib_Fat/sdcard.c **** 
 379:lib_Fat/sdcard.c **** 	ty = 0;
 380:lib_Fat/sdcard.c **** 	if (send_cmd(CMD0, 0) == 1) {			/* Enter Idle state */
 617              		.loc 1 380 0
 618 0022 201C     		mov	r0, r4
 619 0024 211C     		mov	r1, r4
 620 0026 FFF7FEFF 		bl	send_cmd
 621              	.LVL75:
 622 002a 061E     		sub	r6, r0, #0
 623 002c 012E     		cmp	r6, #1
 624 002e 01D0     		beq	.L59
 625              	.LVL76:
 626              	.L62:
 379:lib_Fat/sdcard.c **** 	if (send_cmd(CMD0, 0) == 1) {			/* Enter Idle state */
 627              		.loc 1 379 0
 628 0030 0024     		mov	r4, #0
 629 0032 4AE0     		b	.L60
 630              	.LVL77:
 631              	.L59:
 381:lib_Fat/sdcard.c **** 		if (send_cmd(CMD8, 0x1AA) == 1) {	/* SDv2? */
 632              		.loc 1 381 0
 633 0034 D521     		mov	r1, #213
 634 0036 0820     		mov	r0, #8
 635 0038 4900     		lsl	r1, r1, #1
 636 003a FFF7FEFF 		bl	send_cmd
 637              	.LVL78:
 638 003e 0128     		cmp	r0, #1
 639 0040 1AD1     		bne	.L61
 382:lib_Fat/sdcard.c **** 			rcvr_mmc(buf, 4);							/* Get trailing return value of R7 resp */
 640              		.loc 1 382 0
 641 0042 281C     		mov	r0, r5
 642 0044 0421     		mov	r1, #4
 643 0046 FFF7FEFF 		bl	rcvr_mmc
 644              	.LVL79:
 383:lib_Fat/sdcard.c **** 			if (buf[2] == 0x01 && buf[3] == 0xAA) {		/* The card can work at vdd range of 2.7-3.6V */
 645              		.loc 1 383 0
 646 004a AB78     		ldrb	r3, [r5, #2]
 647 004c 012B     		cmp	r3, #1
 648 004e EFD1     		bne	.L62
 649              		.loc 1 383 0 is_stmt 0 discriminator 1
 650 0050 EB78     		ldrb	r3, [r5, #3]
 651 0052 AA2B     		cmp	r3, #170
 652 0054 ECD1     		bne	.L62
 653 0056 FA24     		mov	r4, #250
 654 0058 A400     		lsl	r4, r4, #2
 655              	.L64:
 656              	.LVL80:
 384:lib_Fat/sdcard.c **** 				for (tmr = 1000; tmr; tmr--) {			/* Wait for leaving idle state (ACMD41 with HCS bit) */
 385:lib_Fat/sdcard.c **** 					if (send_cmd(ACMD41, 1UL << 30) == 0) break;
 657              		.loc 1 385 0 is_stmt 1
 658 005a 8021     		mov	r1, #128
 659 005c A920     		mov	r0, #169
 660 005e C905     		lsl	r1, r1, #23
 661 0060 FFF7FEFF 		bl	send_cmd
 662              	.LVL81:
ARM GAS  C:\Users\Petro\AppData\Local\Temp\ccW66Ab9.s 			page 20


 663 0064 011E     		sub	r1, r0, #0
 664 0066 22D0     		beq	.L63
 386:lib_Fat/sdcard.c **** 					dly_us(1000);
 665              		.loc 1 386 0 discriminator 2
 666 0068 FA20     		mov	r0, #250
 667 006a 013C     		sub	r4, r4, #1
 668              	.LVL82:
 669 006c 8000     		lsl	r0, r0, #2
 670 006e FFF7FEFF 		bl	CyDelayUs
 671              	.LVL83:
 384:lib_Fat/sdcard.c **** 				for (tmr = 1000; tmr; tmr--) {			/* Wait for leaving idle state (ACMD41 with HCS bit) */
 672              		.loc 1 384 0 discriminator 2
 673 0072 002C     		cmp	r4, #0
 674 0074 F1D1     		bne	.L64
 675 0076 DBE7     		b	.L62
 676              	.L61:
 387:lib_Fat/sdcard.c **** 				}
 388:lib_Fat/sdcard.c **** 				if (tmr && send_cmd(CMD58, 0) == 0) {	/* Check CCS bit in the OCR */
 389:lib_Fat/sdcard.c **** 					rcvr_mmc(buf, 4);
 390:lib_Fat/sdcard.c **** 					ty = (buf[0] & 0x40) ? CT_SD2 | CT_BLOCK : CT_SD2;	/* SDv2 */
 391:lib_Fat/sdcard.c **** 				}
 392:lib_Fat/sdcard.c **** 			}
 393:lib_Fat/sdcard.c **** 		} else {							/* SDv1 or MMCv3 */
 394:lib_Fat/sdcard.c **** 			if (send_cmd(ACMD41, 0) <= 1) 	{
 677              		.loc 1 394 0
 678 0078 A920     		mov	r0, #169
 679 007a 211C     		mov	r1, r4
 680 007c FFF7FEFF 		bl	send_cmd
 681              	.LVL84:
 682 0080 0128     		cmp	r0, #1
 683 0082 02D9     		bls	.L72
 395:lib_Fat/sdcard.c **** 				ty = CT_SD1; cmd = ACMD41;	/* SDv1 */
 396:lib_Fat/sdcard.c **** 			} else {
 397:lib_Fat/sdcard.c **** 				ty = CT_MMC; cmd = CMD1;	/* MMCv3 */
 684              		.loc 1 397 0
 685 0084 351C     		mov	r5, r6
 686 0086 341C     		mov	r4, r6
 687 0088 01E0     		b	.L66
 688              	.L72:
 395:lib_Fat/sdcard.c **** 				ty = CT_SD1; cmd = ACMD41;	/* SDv1 */
 689              		.loc 1 395 0
 690 008a A925     		mov	r5, #169
 691 008c 0224     		mov	r4, #2
 692              	.L66:
 693              	.LVL85:
 694              		.loc 1 397 0
 695 008e FA26     		mov	r6, #250
 696 0090 B600     		lsl	r6, r6, #2
 697              	.LVL86:
 698              	.L68:
 398:lib_Fat/sdcard.c **** 			}
 399:lib_Fat/sdcard.c **** 			for (tmr = 1000; tmr; tmr--) {			/* Wait for leaving idle state */
 400:lib_Fat/sdcard.c **** 				if (send_cmd(cmd, 0) == 0) break;
 699              		.loc 1 400 0
 700 0092 281C     		mov	r0, r5
 701 0094 0021     		mov	r1, #0
 702 0096 FFF7FEFF 		bl	send_cmd
ARM GAS  C:\Users\Petro\AppData\Local\Temp\ccW66Ab9.s 			page 21


 703              	.LVL87:
 704 009a 0028     		cmp	r0, #0
 705 009c 1FD0     		beq	.L67
 401:lib_Fat/sdcard.c **** 				dly_us(1000);
 706              		.loc 1 401 0 discriminator 2
 707 009e FA20     		mov	r0, #250
 708 00a0 013E     		sub	r6, r6, #1
 709              	.LVL88:
 710 00a2 8000     		lsl	r0, r0, #2
 711 00a4 FFF7FEFF 		bl	CyDelayUs
 712              	.LVL89:
 399:lib_Fat/sdcard.c **** 				if (send_cmd(cmd, 0) == 0) break;
 713              		.loc 1 399 0 discriminator 2
 714 00a8 002E     		cmp	r6, #0
 715 00aa F2D1     		bne	.L68
 716 00ac C0E7     		b	.L62
 717              	.LVL90:
 718              	.L63:
 388:lib_Fat/sdcard.c **** 					rcvr_mmc(buf, 4);
 719              		.loc 1 388 0
 720 00ae 3A20     		mov	r0, #58
 721 00b0 FFF7FEFF 		bl	send_cmd
 722              	.LVL91:
 723 00b4 0028     		cmp	r0, #0
 724 00b6 BBD1     		bne	.L62
 389:lib_Fat/sdcard.c **** 					ty = (buf[0] & 0x40) ? CT_SD2 | CT_BLOCK : CT_SD2;	/* SDv2 */
 725              		.loc 1 389 0
 726 00b8 281C     		mov	r0, r5
 727 00ba 0421     		mov	r1, #4
 728 00bc FFF7FEFF 		bl	rcvr_mmc
 729              	.LVL92:
 390:lib_Fat/sdcard.c **** 				}
 730              		.loc 1 390 0
 731 00c0 2B78     		ldrb	r3, [r5]
 732 00c2 0C24     		mov	r4, #12
 733              	.LVL93:
 734 00c4 5B06     		lsl	r3, r3, #25
 735 00c6 00D4     		bmi	.L60
 736 00c8 0424     		mov	r4, #4
 737              	.LVL94:
 738              	.L60:
 402:lib_Fat/sdcard.c **** 			}
 403:lib_Fat/sdcard.c **** 			if (!tmr || send_cmd(CMD16, 512) != 0)	/* Set R/W block length to 512 */
 404:lib_Fat/sdcard.c **** 				ty = 0;
 405:lib_Fat/sdcard.c **** 		}
 406:lib_Fat/sdcard.c **** 	}
 407:lib_Fat/sdcard.c **** 	CardType = ty;
 739              		.loc 1 407 0
 740 00ca 0C4B     		ldr	r3, .L77+4
 741 00cc 1C70     		strb	r4, [r3]
 408:lib_Fat/sdcard.c **** 	s = ty ? 0 : STA_NOINIT;
 742              		.loc 1 408 0
 743 00ce 6042     		neg	r0, r4
 744 00d0 4441     		adc	r4, r4, r0
 745              	.LVL95:
 409:lib_Fat/sdcard.c **** 	Stat = s;
 746              		.loc 1 409 0
ARM GAS  C:\Users\Petro\AppData\Local\Temp\ccW66Ab9.s 			page 22


 747 00d2 0B4B     		ldr	r3, .L77+8
 408:lib_Fat/sdcard.c **** 	s = ty ? 0 : STA_NOINIT;
 748              		.loc 1 408 0
 749 00d4 E4B2     		uxtb	r4, r4
 750              	.LVL96:
 751              		.loc 1 409 0
 752 00d6 1C70     		strb	r4, [r3]
 410:lib_Fat/sdcard.c **** 
 411:lib_Fat/sdcard.c **** 	deselect();
 753              		.loc 1 411 0
 754 00d8 FFF7FEFF 		bl	deselect
 755              	.LVL97:
 412:lib_Fat/sdcard.c **** 
 413:lib_Fat/sdcard.c **** 	return s;
 756              		.loc 1 413 0
 757 00dc 09E0     		b	.L75
 758              	.LVL98:
 759              	.L67:
 403:lib_Fat/sdcard.c **** 				ty = 0;
 760              		.loc 1 403 0
 761 00de 8021     		mov	r1, #128
 762 00e0 1020     		mov	r0, #16
 763 00e2 8900     		lsl	r1, r1, #2
 764 00e4 FFF7FEFF 		bl	send_cmd
 765              	.LVL99:
 404:lib_Fat/sdcard.c **** 		}
 766              		.loc 1 404 0
 767 00e8 4342     		neg	r3, r0
 768 00ea 5841     		adc	r0, r0, r3
 769 00ec 4042     		neg	r0, r0
 770 00ee 0440     		and	r4, r0
 771              	.LVL100:
 772 00f0 EBE7     		b	.L60
 773              	.LVL101:
 774              	.L75:
 414:lib_Fat/sdcard.c **** }
 775              		.loc 1 414 0
 776 00f2 201C     		mov	r0, r4
 777              		@ sp needed
 778 00f4 76BD     		pop	{r1, r2, r4, r5, r6, pc}
 779              	.L78:
 780 00f6 C046     		.align	2
 781              	.L77:
 782 00f8 10270000 		.word	10000
 783 00fc 00000000 		.word	.LANCHOR1
 784 0100 00000000 		.word	.LANCHOR0
 785              		.cfi_endproc
 786              	.LFE72:
 787              		.size	disk_initialize, .-disk_initialize
 788              		.section	.text.disk_read,"ax",%progbits
 789              		.align	1
 790              		.global	disk_read
 791              		.code	16
 792              		.thumb_func
 793              		.type	disk_read, %function
 794              	disk_read:
 795              	.LFB73:
ARM GAS  C:\Users\Petro\AppData\Local\Temp\ccW66Ab9.s 			page 23


 415:lib_Fat/sdcard.c **** 
 416:lib_Fat/sdcard.c **** /*-----------------------------------------------------------------------*/
 417:lib_Fat/sdcard.c **** /* Read Sector(s)                                                        */
 418:lib_Fat/sdcard.c **** /*-----------------------------------------------------------------------*/
 419:lib_Fat/sdcard.c **** 
 420:lib_Fat/sdcard.c **** DRESULT disk_read(BYTE drv,	BYTE *buff,	DWORD sector, UINT count) /* Physical drive nmuber (0) */
 421:lib_Fat/sdcard.c **** {
 796              		.loc 1 421 0
 797              		.cfi_startproc
 798              	.LVL102:
 799 0000 70B5     		push	{r4, r5, r6, lr}
 800              		.cfi_def_cfa_offset 16
 801              		.cfi_offset 4, -16
 802              		.cfi_offset 5, -12
 803              		.cfi_offset 6, -8
 804              		.cfi_offset 14, -4
 805              		.loc 1 421 0
 806 0002 1D1C     		mov	r5, r3
 807 0004 0123     		mov	r3, #1
 808              	.LVL103:
 809 0006 0E1C     		mov	r6, r1
 810              	.LBB28:
 811              	.LBB29:
 358:lib_Fat/sdcard.c **** 
 812              		.loc 1 358 0
 813 0008 191C     		mov	r1, r3
 814              	.LVL104:
 815 000a 0028     		cmp	r0, #0
 816 000c 01D1     		bne	.L80
 360:lib_Fat/sdcard.c **** }
 817              		.loc 1 360 0
 818 000e 1749     		ldr	r1, .L93
 819 0010 0978     		ldrb	r1, [r1]
 820              	.L80:
 821              	.LBE29:
 822              	.LBE28:
 422:lib_Fat/sdcard.c **** 	BYTE cmd;
 423:lib_Fat/sdcard.c **** 
 424:lib_Fat/sdcard.c **** 	if (disk_status(drv) & STA_NOINIT) return RES_NOTRDY;
 823              		.loc 1 424 0
 824 0012 0320     		mov	r0, #3
 825              	.LVL105:
 826 0014 1942     		tst	r1, r3
 827 0016 28D1     		bne	.L81
 425:lib_Fat/sdcard.c **** 	if (!(CardType & CT_BLOCK)) sector *= 512;	/* Convert LBA to byte address if needed */
 828              		.loc 1 425 0
 829 0018 154B     		ldr	r3, .L93+4
 830 001a 1B78     		ldrb	r3, [r3]
 831 001c 1B07     		lsl	r3, r3, #28
 832 001e 00D4     		bmi	.L82
 833              		.loc 1 425 0 is_stmt 0 discriminator 1
 834 0020 5202     		lsl	r2, r2, #9
 835              	.LVL106:
 836              	.L82:
 426:lib_Fat/sdcard.c **** 
 427:lib_Fat/sdcard.c **** 	cmd = count > 1 ? CMD18 : CMD17;			/*  READ_MULTIPLE_BLOCK : READ_SINGLE_BLOCK */
 837              		.loc 1 427 0 is_stmt 1
ARM GAS  C:\Users\Petro\AppData\Local\Temp\ccW66Ab9.s 			page 24


 838 0022 0124     		mov	r4, #1
 839 0024 AC42     		cmp	r4, r5
 840 0026 A441     		sbc	r4, r4, r4
 841 0028 6442     		neg	r4, r4
 842 002a 1134     		add	r4, r4, #17
 843              	.LVL107:
 428:lib_Fat/sdcard.c **** 	if (send_cmd(cmd, sector) == 0) {
 844              		.loc 1 428 0
 845 002c 201C     		mov	r0, r4
 846 002e 111C     		mov	r1, r2
 847 0030 FFF7FEFF 		bl	send_cmd
 848              	.LVL108:
 849 0034 0028     		cmp	r0, #0
 850 0036 12D1     		bne	.L84
 851              	.L86:
 429:lib_Fat/sdcard.c **** 		do {
 430:lib_Fat/sdcard.c **** 			if (!rcvr_datablock(buff, 512)) break;
 852              		.loc 1 430 0
 853 0038 8021     		mov	r1, #128
 854 003a 301C     		mov	r0, r6
 855 003c 8900     		lsl	r1, r1, #2
 856 003e FFF7FEFF 		bl	rcvr_datablock
 857              	.LVL109:
 858 0042 0028     		cmp	r0, #0
 859 0044 05D0     		beq	.L85
 431:lib_Fat/sdcard.c **** 			buff += 512;
 860              		.loc 1 431 0
 861 0046 8023     		mov	r3, #128
 432:lib_Fat/sdcard.c **** 		} while (--count);
 862              		.loc 1 432 0
 863 0048 013D     		sub	r5, r5, #1
 864              	.LVL110:
 431:lib_Fat/sdcard.c **** 			buff += 512;
 865              		.loc 1 431 0
 866 004a 9B00     		lsl	r3, r3, #2
 867 004c F618     		add	r6, r6, r3
 868              	.LVL111:
 869              		.loc 1 432 0
 870 004e 002D     		cmp	r5, #0
 871 0050 F2D1     		bne	.L86
 872              	.L85:
 433:lib_Fat/sdcard.c **** 		if (cmd == CMD18) send_cmd(CMD12, 0);	/* STOP_TRANSMISSION */
 873              		.loc 1 433 0
 874 0052 122C     		cmp	r4, #18
 875 0054 03D1     		bne	.L84
 876              		.loc 1 433 0 is_stmt 0 discriminator 1
 877 0056 0C20     		mov	r0, #12
 878 0058 0021     		mov	r1, #0
 879 005a FFF7FEFF 		bl	send_cmd
 880              	.LVL112:
 881              	.L84:
 434:lib_Fat/sdcard.c **** 	}
 435:lib_Fat/sdcard.c **** 	deselect();
 882              		.loc 1 435 0 is_stmt 1
 883 005e FFF7FEFF 		bl	deselect
 884              	.LVL113:
 436:lib_Fat/sdcard.c **** 
ARM GAS  C:\Users\Petro\AppData\Local\Temp\ccW66Ab9.s 			page 25


 437:lib_Fat/sdcard.c **** 	return count ? RES_ERROR : RES_OK;
 885              		.loc 1 437 0
 886 0062 2B1C     		mov	r3, r5
 887 0064 5D1E     		sub	r5, r3, #1
 888 0066 AB41     		sbc	r3, r3, r5
 889              	.LVL114:
 890 0068 D8B2     		uxtb	r0, r3
 891              	.LVL115:
 892              	.L81:
 438:lib_Fat/sdcard.c **** }
 893              		.loc 1 438 0
 894              		@ sp needed
 895              	.LVL116:
 896 006a 70BD     		pop	{r4, r5, r6, pc}
 897              	.L94:
 898              		.align	2
 899              	.L93:
 900 006c 00000000 		.word	.LANCHOR0
 901 0070 00000000 		.word	.LANCHOR1
 902              		.cfi_endproc
 903              	.LFE73:
 904              		.size	disk_read, .-disk_read
 905              		.section	.text.disk_write,"ax",%progbits
 906              		.align	1
 907              		.global	disk_write
 908              		.code	16
 909              		.thumb_func
 910              		.type	disk_write, %function
 911              	disk_write:
 912              	.LFB74:
 439:lib_Fat/sdcard.c **** 
 440:lib_Fat/sdcard.c **** /*-----------------------------------------------------------------------*/
 441:lib_Fat/sdcard.c **** /* Write Sector(s)                                                       */
 442:lib_Fat/sdcard.c **** /*-----------------------------------------------------------------------*/
 443:lib_Fat/sdcard.c **** 
 444:lib_Fat/sdcard.c **** DRESULT disk_write (
 445:lib_Fat/sdcard.c **** 	BYTE drv,			/* Physical drive nmuber (0) */
 446:lib_Fat/sdcard.c **** 	const BYTE *buff,	/* Pointer to the data to be written */
 447:lib_Fat/sdcard.c **** 	DWORD sector,		/* Start sector number (LBA) */
 448:lib_Fat/sdcard.c **** 	UINT count			/* Sector count (1..128) */
 449:lib_Fat/sdcard.c **** )
 450:lib_Fat/sdcard.c **** {
 913              		.loc 1 450 0
 914              		.cfi_startproc
 915              	.LVL117:
 916 0000 70B5     		push	{r4, r5, r6, lr}
 917              		.cfi_def_cfa_offset 16
 918              		.cfi_offset 4, -16
 919              		.cfi_offset 5, -12
 920              		.cfi_offset 6, -8
 921              		.cfi_offset 14, -4
 922              		.loc 1 450 0
 923 0002 1C1C     		mov	r4, r3
 924 0004 0123     		mov	r3, #1
 925              	.LVL118:
 926 0006 161C     		mov	r6, r2
 927 0008 0D1C     		mov	r5, r1
ARM GAS  C:\Users\Petro\AppData\Local\Temp\ccW66Ab9.s 			page 26


 928              	.LBB30:
 929              	.LBB31:
 358:lib_Fat/sdcard.c **** 
 930              		.loc 1 358 0
 931 000a 1A1C     		mov	r2, r3
 932              	.LVL119:
 933 000c 0028     		cmp	r0, #0
 934 000e 01D1     		bne	.L96
 360:lib_Fat/sdcard.c **** }
 935              		.loc 1 360 0
 936 0010 1F4A     		ldr	r2, .L112
 937 0012 1278     		ldrb	r2, [r2]
 938              	.L96:
 939              	.LBE31:
 940              	.LBE30:
 451:lib_Fat/sdcard.c **** 	if (disk_status(drv) & STA_NOINIT) return RES_NOTRDY;
 941              		.loc 1 451 0
 942 0014 0320     		mov	r0, #3
 943              	.LVL120:
 944 0016 1A42     		tst	r2, r3
 945 0018 38D1     		bne	.L97
 452:lib_Fat/sdcard.c **** 	if (!(CardType & CT_BLOCK)) sector *= 512;	/* Convert LBA to byte address if needed */
 946              		.loc 1 452 0
 947 001a 1E4B     		ldr	r3, .L112+4
 948 001c 1B78     		ldrb	r3, [r3]
 949 001e 1A07     		lsl	r2, r3, #28
 950 0020 00D4     		bmi	.L98
 951              		.loc 1 452 0 is_stmt 0 discriminator 1
 952 0022 7602     		lsl	r6, r6, #9
 953              	.LVL121:
 954              	.L98:
 453:lib_Fat/sdcard.c **** 
 454:lib_Fat/sdcard.c **** 	if (count == 1) {	/* Single block write */
 955              		.loc 1 454 0 is_stmt 1
 956 0024 012C     		cmp	r4, #1
 957 0026 0CD1     		bne	.L99
 455:lib_Fat/sdcard.c **** 		if ((send_cmd(CMD24, sector) == 0)	/* WRITE_BLOCK */
 958              		.loc 1 455 0
 959 0028 1820     		mov	r0, #24
 960 002a 311C     		mov	r1, r6
 961              	.LVL122:
 962 002c FFF7FEFF 		bl	send_cmd
 963              	.LVL123:
 964 0030 0028     		cmp	r0, #0
 965 0032 26D1     		bne	.L100
 456:lib_Fat/sdcard.c **** 			&& xmit_datablock(buff, 0xFE))
 966              		.loc 1 456 0
 967 0034 281C     		mov	r0, r5
 968 0036 FE21     		mov	r1, #254
 969 0038 FFF7FEFF 		bl	xmit_datablock
 970              	.LVL124:
 971 003c 4442     		neg	r4, r0
 972 003e 4441     		adc	r4, r4, r0
 973              	.LVL125:
 974 0040 1FE0     		b	.L100
 975              	.LVL126:
 976              	.L99:
ARM GAS  C:\Users\Petro\AppData\Local\Temp\ccW66Ab9.s 			page 27


 457:lib_Fat/sdcard.c **** 			count = 0;
 458:lib_Fat/sdcard.c **** 	}
 459:lib_Fat/sdcard.c **** 	else {				/* Multiple block write */
 460:lib_Fat/sdcard.c **** 		if (CardType & CT_SDC) send_cmd(ACMD23, count);
 977              		.loc 1 460 0
 978 0042 0622     		mov	r2, #6
 979 0044 1342     		tst	r3, r2
 980 0046 03D0     		beq	.L101
 981              		.loc 1 460 0 is_stmt 0 discriminator 1
 982 0048 9720     		mov	r0, #151
 983 004a 211C     		mov	r1, r4
 984              	.LVL127:
 985 004c FFF7FEFF 		bl	send_cmd
 986              	.LVL128:
 987              	.L101:
 461:lib_Fat/sdcard.c **** 		if (send_cmd(CMD25, sector) == 0) {	/* WRITE_MULTIPLE_BLOCK */
 988              		.loc 1 461 0 is_stmt 1
 989 0050 1920     		mov	r0, #25
 990 0052 311C     		mov	r1, r6
 991 0054 FFF7FEFF 		bl	send_cmd
 992              	.LVL129:
 993 0058 0028     		cmp	r0, #0
 994 005a 12D1     		bne	.L100
 995              	.L103:
 462:lib_Fat/sdcard.c **** 			do {
 463:lib_Fat/sdcard.c **** 				if (!xmit_datablock(buff, 0xFC)) break;
 996              		.loc 1 463 0
 997 005c 281C     		mov	r0, r5
 998 005e FC21     		mov	r1, #252
 999 0060 FFF7FEFF 		bl	xmit_datablock
 1000              	.LVL130:
 1001 0064 0028     		cmp	r0, #0
 1002 0066 05D0     		beq	.L102
 464:lib_Fat/sdcard.c **** 				buff += 512;
 1003              		.loc 1 464 0
 1004 0068 8023     		mov	r3, #128
 465:lib_Fat/sdcard.c **** 			} while (--count);
 1005              		.loc 1 465 0
 1006 006a 013C     		sub	r4, r4, #1
 1007              	.LVL131:
 464:lib_Fat/sdcard.c **** 				buff += 512;
 1008              		.loc 1 464 0
 1009 006c 9B00     		lsl	r3, r3, #2
 1010 006e ED18     		add	r5, r5, r3
 1011              	.LVL132:
 1012              		.loc 1 465 0
 1013 0070 002C     		cmp	r4, #0
 1014 0072 F3D1     		bne	.L103
 1015              	.L102:
 466:lib_Fat/sdcard.c **** 			if (!xmit_datablock(0, 0xFD))	/* STOP_TRAN token */
 1016              		.loc 1 466 0
 1017 0074 0020     		mov	r0, #0
 1018 0076 FD21     		mov	r1, #253
 1019 0078 FFF7FEFF 		bl	xmit_datablock
 1020              	.LVL133:
 1021 007c 0028     		cmp	r0, #0
 1022 007e 00D1     		bne	.L100
ARM GAS  C:\Users\Petro\AppData\Local\Temp\ccW66Ab9.s 			page 28


 467:lib_Fat/sdcard.c **** 				count = 1;
 1023              		.loc 1 467 0
 1024 0080 0124     		mov	r4, #1
 1025              	.LVL134:
 1026              	.L100:
 468:lib_Fat/sdcard.c **** 		}
 469:lib_Fat/sdcard.c **** 	}
 470:lib_Fat/sdcard.c **** 	deselect();
 471:lib_Fat/sdcard.c **** 
 472:lib_Fat/sdcard.c **** 	return count ? RES_ERROR : RES_OK;
 1027              		.loc 1 472 0
 1028 0082 601E     		sub	r0, r4, #1
 1029 0084 8441     		sbc	r4, r4, r0
 1030              	.LVL135:
 470:lib_Fat/sdcard.c **** 
 1031              		.loc 1 470 0
 1032 0086 FFF7FEFF 		bl	deselect
 1033              	.LVL136:
 1034              		.loc 1 472 0
 1035 008a E0B2     		uxtb	r0, r4
 1036              	.L97:
 473:lib_Fat/sdcard.c **** }
 1037              		.loc 1 473 0
 1038              		@ sp needed
 1039              	.LVL137:
 1040              	.LVL138:
 1041 008c 70BD     		pop	{r4, r5, r6, pc}
 1042              	.L113:
 1043 008e C046     		.align	2
 1044              	.L112:
 1045 0090 00000000 		.word	.LANCHOR0
 1046 0094 00000000 		.word	.LANCHOR1
 1047              		.cfi_endproc
 1048              	.LFE74:
 1049              		.size	disk_write, .-disk_write
 1050              		.section	.text.disk_ioctl,"ax",%progbits
 1051              		.align	1
 1052              		.global	disk_ioctl
 1053              		.code	16
 1054              		.thumb_func
 1055              		.type	disk_ioctl, %function
 1056              	disk_ioctl:
 1057              	.LFB75:
 474:lib_Fat/sdcard.c **** 
 475:lib_Fat/sdcard.c **** 
 476:lib_Fat/sdcard.c **** /*-----------------------------------------------------------------------*/
 477:lib_Fat/sdcard.c **** /* Miscellaneous Functions                                               */
 478:lib_Fat/sdcard.c **** /*-----------------------------------------------------------------------*/
 479:lib_Fat/sdcard.c **** 
 480:lib_Fat/sdcard.c **** DRESULT disk_ioctl (
 481:lib_Fat/sdcard.c **** 	BYTE drv,		/* Physical drive nmuber (0) */
 482:lib_Fat/sdcard.c **** 	BYTE ctrl,		/* Control code */
 483:lib_Fat/sdcard.c **** 	void *buff		/* Buffer to send/receive control data */
 484:lib_Fat/sdcard.c **** )
 485:lib_Fat/sdcard.c **** {
 1058              		.loc 1 485 0
 1059              		.cfi_startproc
ARM GAS  C:\Users\Petro\AppData\Local\Temp\ccW66Ab9.s 			page 29


 1060              	.LVL139:
 1061 0000 0123     		mov	r3, #1
 1062 0002 F0B5     		push	{r4, r5, r6, r7, lr}
 1063              		.cfi_def_cfa_offset 20
 1064              		.cfi_offset 4, -20
 1065              		.cfi_offset 5, -16
 1066              		.cfi_offset 6, -12
 1067              		.cfi_offset 7, -8
 1068              		.cfi_offset 14, -4
 1069              	.LBB32:
 1070              	.LBB33:
 358:lib_Fat/sdcard.c **** 
 1071              		.loc 1 358 0
 1072 0004 1C1C     		mov	r4, r3
 1073              	.LBE33:
 1074              	.LBE32:
 1075              		.loc 1 485 0
 1076 0006 85B0     		sub	sp, sp, #20
 1077              		.cfi_def_cfa_offset 40
 1078              	.LBB35:
 1079              	.LBB34:
 358:lib_Fat/sdcard.c **** 
 1080              		.loc 1 358 0
 1081 0008 0028     		cmp	r0, #0
 1082 000a 01D1     		bne	.L115
 360:lib_Fat/sdcard.c **** }
 1083              		.loc 1 360 0
 1084 000c 2B48     		ldr	r0, .L133
 1085              	.LVL140:
 1086 000e 0478     		ldrb	r4, [r0]
 1087              	.L115:
 1088              	.LBE34:
 1089              	.LBE35:
 486:lib_Fat/sdcard.c **** 	DRESULT res;
 487:lib_Fat/sdcard.c **** 	BYTE n, csd[16];
 488:lib_Fat/sdcard.c **** 	DWORD cs;
 489:lib_Fat/sdcard.c **** 
 490:lib_Fat/sdcard.c **** 
 491:lib_Fat/sdcard.c **** 	if (disk_status(drv) & STA_NOINIT) return RES_NOTRDY;	/* Check if card is in the socket */
 1090              		.loc 1 491 0
 1091 0010 1C40     		and	r4, r3
 1092 0012 0326     		mov	r6, #3
 1093 0014 002C     		cmp	r4, #0
 1094 0016 4ED1     		bne	.L116
 1095 0018 151C     		mov	r5, r2
 1096              	.LVL141:
 492:lib_Fat/sdcard.c **** 
 493:lib_Fat/sdcard.c **** 	res = RES_ERROR;
 494:lib_Fat/sdcard.c **** 	switch (ctrl) {
 1097              		.loc 1 494 0
 1098 001a 0129     		cmp	r1, #1
 1099 001c 0CD0     		beq	.L118
 1100 001e 0029     		cmp	r1, #0
 1101 0020 04D0     		beq	.L119
 1102 0022 B142     		cmp	r1, r6
 1103 0024 43D1     		bne	.L132
 495:lib_Fat/sdcard.c **** 		case CTRL_SYNC :		/* Make sure that no pending write process */
ARM GAS  C:\Users\Petro\AppData\Local\Temp\ccW66Ab9.s 			page 30


 496:lib_Fat/sdcard.c **** 			if (select()) res = RES_OK;
 497:lib_Fat/sdcard.c **** 			break;
 498:lib_Fat/sdcard.c **** 
 499:lib_Fat/sdcard.c **** 		case GET_SECTOR_COUNT :	/* Get number of sectors on the disk (DWORD) */
 500:lib_Fat/sdcard.c **** 			if ((send_cmd(CMD9, 0) == 0) && rcvr_datablock(csd, 16)) {
 501:lib_Fat/sdcard.c **** 				if ((csd[0] >> 6) == 1) {	/* SDC ver 2.00 */
 502:lib_Fat/sdcard.c **** 					cs = csd[9] + ((WORD)csd[8] << 8) + ((DWORD)(csd[7] & 63) << 16) + 1;
 503:lib_Fat/sdcard.c **** 					*(DWORD*)buff = cs << 10;
 504:lib_Fat/sdcard.c **** 				} else {					/* SDC ver 1.XX or MMC */
 505:lib_Fat/sdcard.c **** 					n = (csd[5] & 15) + ((csd[10] & 128) >> 7) + ((csd[9] & 3) << 1) + 2;
 506:lib_Fat/sdcard.c **** 					cs = (csd[8] >> 6) + ((WORD)csd[7] << 2) + ((WORD)(csd[6] & 3) << 10) + 1;
 507:lib_Fat/sdcard.c **** 					*(DWORD*)buff = cs << (n - 9);
 508:lib_Fat/sdcard.c **** 				}
 509:lib_Fat/sdcard.c **** 				res = RES_OK;
 510:lib_Fat/sdcard.c **** 			}
 511:lib_Fat/sdcard.c **** 			break;
 512:lib_Fat/sdcard.c **** 
 513:lib_Fat/sdcard.c **** 		case GET_BLOCK_SIZE :	/* Get erase block size in unit of sector (DWORD) */
 514:lib_Fat/sdcard.c **** 			*(DWORD*)buff = 128;
 1104              		.loc 1 514 0
 1105 0026 8023     		mov	r3, #128
 1106 0028 1360     		str	r3, [r2]
 1107              	.LVL142:
 515:lib_Fat/sdcard.c **** 			res = RES_OK;
 516:lib_Fat/sdcard.c **** 			break;
 1108              		.loc 1 516 0
 1109 002a 41E0     		b	.L117
 1110              	.LVL143:
 1111              	.L119:
 496:lib_Fat/sdcard.c **** 			break;
 1112              		.loc 1 496 0
 1113 002c FFF7FEFF 		bl	select
 1114              	.LVL144:
 1115 0030 4442     		neg	r4, r0
 1116 0032 4441     		adc	r4, r4, r0
 1117 0034 E4B2     		uxtb	r4, r4
 1118 0036 3BE0     		b	.L117
 1119              	.LVL145:
 1120              	.L118:
 500:lib_Fat/sdcard.c **** 				if ((csd[0] >> 6) == 1) {	/* SDC ver 2.00 */
 1121              		.loc 1 500 0
 1122 0038 211C     		mov	r1, r4
 1123              	.LVL146:
 1124 003a 0920     		mov	r0, #9
 1125 003c FFF7FEFF 		bl	send_cmd
 1126              	.LVL147:
 1127 0040 041E     		sub	r4, r0, #0
 1128 0042 01D0     		beq	.L121
 1129              	.L122:
 493:lib_Fat/sdcard.c **** 	switch (ctrl) {
 1130              		.loc 1 493 0
 1131 0044 0124     		mov	r4, #1
 1132 0046 33E0     		b	.L117
 1133              	.L121:
 500:lib_Fat/sdcard.c **** 				if ((csd[0] >> 6) == 1) {	/* SDC ver 2.00 */
 1134              		.loc 1 500 0 discriminator 1
 1135 0048 6846     		mov	r0, sp
ARM GAS  C:\Users\Petro\AppData\Local\Temp\ccW66Ab9.s 			page 31


 1136 004a 1021     		mov	r1, #16
 1137 004c FFF7FEFF 		bl	rcvr_datablock
 1138              	.LVL148:
 1139 0050 0028     		cmp	r0, #0
 1140 0052 F7D0     		beq	.L122
 501:lib_Fat/sdcard.c **** 					cs = csd[9] + ((WORD)csd[8] << 8) + ((DWORD)(csd[7] & 63) << 16) + 1;
 1141              		.loc 1 501 0
 1142 0054 6B46     		mov	r3, sp
 1143 0056 6A46     		mov	r2, sp
 1144 0058 1878     		ldrb	r0, [r3]
 1145 005a 517A     		ldrb	r1, [r2, #9]
 1146 005c 8009     		lsr	r0, r0, #6
 1147 005e DB79     		ldrb	r3, [r3, #7]
 1148 0060 127A     		ldrb	r2, [r2, #8]
 1149 0062 0128     		cmp	r0, #1
 1150 0064 08D1     		bne	.L123
 1151              	.LVL149:
 502:lib_Fat/sdcard.c **** 					*(DWORD*)buff = cs << 10;
 1152              		.loc 1 502 0
 1153 0066 3E30     		add	r0, r0, #62
 1154 0068 0340     		and	r3, r0
 1155 006a 1E04     		lsl	r6, r3, #16
 1156 006c 1202     		lsl	r2, r2, #8
 1157 006e 0136     		add	r6, r6, #1
 1158 0070 8A18     		add	r2, r1, r2
 1159 0072 B118     		add	r1, r6, r2
 503:lib_Fat/sdcard.c **** 				} else {					/* SDC ver 1.XX or MMC */
 1160              		.loc 1 503 0
 1161 0074 8902     		lsl	r1, r1, #10
 1162 0076 18E0     		b	.L131
 1163              	.LVL150:
 1164              	.L123:
 506:lib_Fat/sdcard.c **** 					*(DWORD*)buff = cs << (n - 9);
 1165              		.loc 1 506 0
 1166 0078 9B00     		lsl	r3, r3, #2
 1167 007a 9209     		lsr	r2, r2, #6
 1168 007c D218     		add	r2, r2, r3
 1169 007e 6B46     		mov	r3, sp
 1170 0080 9B79     		ldrb	r3, [r3, #6]
 505:lib_Fat/sdcard.c **** 					cs = (csd[8] >> 6) + ((WORD)csd[7] << 2) + ((WORD)(csd[6] & 3) << 10) + 1;
 1171              		.loc 1 505 0
 1172 0082 3140     		and	r1, r6
 506:lib_Fat/sdcard.c **** 					*(DWORD*)buff = cs << (n - 9);
 1173              		.loc 1 506 0
 1174 0084 3340     		and	r3, r6
 1175 0086 9B02     		lsl	r3, r3, #10
 1176 0088 D318     		add	r3, r2, r3
 505:lib_Fat/sdcard.c **** 					cs = (csd[8] >> 6) + ((WORD)csd[7] << 2) + ((WORD)(csd[6] & 3) << 10) + 1;
 1177              		.loc 1 505 0
 1178 008a 6A46     		mov	r2, sp
 1179 008c 5779     		ldrb	r7, [r2, #5]
 1180 008e 0F22     		mov	r2, #15
 1181 0090 1740     		and	r7, r2
 1182 0092 6A46     		mov	r2, sp
 1183 0094 927A     		ldrb	r2, [r2, #10]
 1184 0096 4E00     		lsl	r6, r1, #1
 1185 0098 D009     		lsr	r0, r2, #7
ARM GAS  C:\Users\Petro\AppData\Local\Temp\ccW66Ab9.s 			page 32


 1186 009a 3A18     		add	r2, r7, r0
 1187 009c 0232     		add	r2, r2, #2
 1188 009e 9119     		add	r1, r2, r6
 507:lib_Fat/sdcard.c **** 				}
 1189              		.loc 1 507 0
 1190 00a0 C9B2     		uxtb	r1, r1
 1191 00a2 0939     		sub	r1, r1, #9
 506:lib_Fat/sdcard.c **** 					*(DWORD*)buff = cs << (n - 9);
 1192              		.loc 1 506 0
 1193 00a4 0133     		add	r3, r3, #1
 507:lib_Fat/sdcard.c **** 				}
 1194              		.loc 1 507 0
 1195 00a6 8B40     		lsl	r3, r3, r1
 1196 00a8 191C     		mov	r1, r3
 1197              	.LVL151:
 1198              	.L131:
 1199 00aa 2960     		str	r1, [r5]
 1200 00ac 00E0     		b	.L117
 1201              	.LVL152:
 1202              	.L132:
 517:lib_Fat/sdcard.c **** 
 518:lib_Fat/sdcard.c **** 		default:
 519:lib_Fat/sdcard.c **** 			res = RES_PARERR;
 1203              		.loc 1 519 0
 1204 00ae 0424     		mov	r4, #4
 1205              	.LVL153:
 1206              	.L117:
 520:lib_Fat/sdcard.c **** 	}
 521:lib_Fat/sdcard.c **** 
 522:lib_Fat/sdcard.c **** 	deselect();
 1207              		.loc 1 522 0
 1208 00b0 FFF7FEFF 		bl	deselect
 1209              	.LVL154:
 523:lib_Fat/sdcard.c **** 
 524:lib_Fat/sdcard.c **** 	return res;
 1210              		.loc 1 524 0
 1211 00b4 261C     		mov	r6, r4
 1212              	.LVL155:
 1213              	.L116:
 525:lib_Fat/sdcard.c **** }
 1214              		.loc 1 525 0
 1215 00b6 301C     		mov	r0, r6
 1216 00b8 05B0     		add	sp, sp, #20
 1217              		@ sp needed
 1218 00ba F0BD     		pop	{r4, r5, r6, r7, pc}
 1219              	.L134:
 1220              		.align	2
 1221              	.L133:
 1222 00bc 00000000 		.word	.LANCHOR0
 1223              		.cfi_endproc
 1224              	.LFE75:
 1225              		.size	disk_ioctl, .-disk_ioctl
 1226              		.data
 1227              		.set	.LANCHOR0,. + 0
 1228              		.type	Stat, %object
 1229              		.size	Stat, 1
 1230              	Stat:
ARM GAS  C:\Users\Petro\AppData\Local\Temp\ccW66Ab9.s 			page 33


 1231 0000 01       		.byte	1
 1232              		.bss
 1233              		.set	.LANCHOR1,. + 0
 1234              		.type	CardType, %object
 1235              		.size	CardType, 1
 1236              	CardType:
 1237 0000 00       		.space	1
 1238              		.text
 1239              	.Letext0:
 1240              		.file 2 "lib_Fat\\integer.h"
 1241              		.file 3 "lib_Fat\\diskio.h"
 1242              		.file 4 "Generated_Source\\PSoC4/cytypes.h"
 1243              		.file 5 "Generated_Source\\PSoC4/ble_Stack.h"
 1244              		.file 6 "Generated_Source\\PSoC4/CyLib.h"
 1245              		.file 7 "Generated_Source\\PSoC4/SwSPI_Master.h"