ARM GAS  C:\Users\Petro\AppData\Local\Temp\ccpWYAL3.s 			page 1


   1              		.cpu cortex-m0
   2              		.fpu softvfp
   3              		.eabi_attribute 20, 1
   4              		.eabi_attribute 21, 1
   5              		.eabi_attribute 23, 3
   6              		.eabi_attribute 24, 1
   7              		.eabi_attribute 25, 1
   8              		.eabi_attribute 26, 1
   9              		.eabi_attribute 30, 4
  10              		.eabi_attribute 34, 0
  11              		.eabi_attribute 18, 4
  12              		.code	16
  13              		.file	"TimerTestMode.c"
  14              		.text
  15              	.Ltext0:
  16              		.cfi_sections	.debug_frame
  17              		.section	.text.TimerTestMode_Init,"ax",%progbits
  18              		.align	1
  19              		.global	TimerTestMode_Init
  20              		.code	16
  21              		.thumb_func
  22              		.type	TimerTestMode_Init, %function
  23              	TimerTestMode_Init:
  24              	.LFB2:
  25              		.file 1 "Generated_Source\\PSoC4\\TimerTestMode.c"
   1:Generated_Source\PSoC4/TimerTestMode.c **** /*******************************************************************************
   2:Generated_Source\PSoC4/TimerTestMode.c **** * File Name: TimerTestMode.c
   3:Generated_Source\PSoC4/TimerTestMode.c **** * Version 2.10
   4:Generated_Source\PSoC4/TimerTestMode.c **** *
   5:Generated_Source\PSoC4/TimerTestMode.c **** * Description:
   6:Generated_Source\PSoC4/TimerTestMode.c **** *  This file provides the source code to the API for the TimerTestMode
   7:Generated_Source\PSoC4/TimerTestMode.c **** *  component
   8:Generated_Source\PSoC4/TimerTestMode.c **** *
   9:Generated_Source\PSoC4/TimerTestMode.c **** * Note:
  10:Generated_Source\PSoC4/TimerTestMode.c **** *  None
  11:Generated_Source\PSoC4/TimerTestMode.c **** *
  12:Generated_Source\PSoC4/TimerTestMode.c **** ********************************************************************************
  13:Generated_Source\PSoC4/TimerTestMode.c **** * Copyright 2013-2015, Cypress Semiconductor Corporation.  All rights reserved.
  14:Generated_Source\PSoC4/TimerTestMode.c **** * You may use this file only in accordance with the license, terms, conditions,
  15:Generated_Source\PSoC4/TimerTestMode.c **** * disclaimers, and limitations in the end user license agreement accompanying
  16:Generated_Source\PSoC4/TimerTestMode.c **** * the software package with which this file was provided.
  17:Generated_Source\PSoC4/TimerTestMode.c **** *******************************************************************************/
  18:Generated_Source\PSoC4/TimerTestMode.c **** 
  19:Generated_Source\PSoC4/TimerTestMode.c **** #include "TimerTestMode.h"
  20:Generated_Source\PSoC4/TimerTestMode.c **** 
  21:Generated_Source\PSoC4/TimerTestMode.c **** uint8 TimerTestMode_initVar = 0u;
  22:Generated_Source\PSoC4/TimerTestMode.c **** 
  23:Generated_Source\PSoC4/TimerTestMode.c **** 
  24:Generated_Source\PSoC4/TimerTestMode.c **** /*******************************************************************************
  25:Generated_Source\PSoC4/TimerTestMode.c **** * Function Name: TimerTestMode_Init
  26:Generated_Source\PSoC4/TimerTestMode.c **** ********************************************************************************
  27:Generated_Source\PSoC4/TimerTestMode.c **** *
  28:Generated_Source\PSoC4/TimerTestMode.c **** * Summary:
  29:Generated_Source\PSoC4/TimerTestMode.c **** *  Initialize/Restore default TimerTestMode configuration.
  30:Generated_Source\PSoC4/TimerTestMode.c **** *
  31:Generated_Source\PSoC4/TimerTestMode.c **** * Parameters:
  32:Generated_Source\PSoC4/TimerTestMode.c **** *  None
ARM GAS  C:\Users\Petro\AppData\Local\Temp\ccpWYAL3.s 			page 2


  33:Generated_Source\PSoC4/TimerTestMode.c **** *
  34:Generated_Source\PSoC4/TimerTestMode.c **** * Return:
  35:Generated_Source\PSoC4/TimerTestMode.c **** *  None
  36:Generated_Source\PSoC4/TimerTestMode.c **** *
  37:Generated_Source\PSoC4/TimerTestMode.c **** *******************************************************************************/
  38:Generated_Source\PSoC4/TimerTestMode.c **** void TimerTestMode_Init(void)
  39:Generated_Source\PSoC4/TimerTestMode.c **** {
  26              		.loc 1 39 0
  27              		.cfi_startproc
  40:Generated_Source\PSoC4/TimerTestMode.c **** 
  41:Generated_Source\PSoC4/TimerTestMode.c ****     /* Set values from customizer to CTRL */
  42:Generated_Source\PSoC4/TimerTestMode.c ****     #if (TimerTestMode__QUAD == TimerTestMode_CONFIG)
  43:Generated_Source\PSoC4/TimerTestMode.c ****         TimerTestMode_CONTROL_REG = TimerTestMode_CTRL_QUAD_BASE_CONFIG;
  44:Generated_Source\PSoC4/TimerTestMode.c ****         
  45:Generated_Source\PSoC4/TimerTestMode.c ****         /* Set values from customizer to CTRL1 */
  46:Generated_Source\PSoC4/TimerTestMode.c ****         TimerTestMode_TRIG_CONTROL1_REG  = TimerTestMode_QUAD_SIGNALS_MODES;
  47:Generated_Source\PSoC4/TimerTestMode.c **** 
  48:Generated_Source\PSoC4/TimerTestMode.c ****         /* Set values from customizer to INTR */
  49:Generated_Source\PSoC4/TimerTestMode.c ****         TimerTestMode_SetInterruptMode(TimerTestMode_QUAD_INTERRUPT_MASK);
  50:Generated_Source\PSoC4/TimerTestMode.c ****         
  51:Generated_Source\PSoC4/TimerTestMode.c ****          /* Set other values */
  52:Generated_Source\PSoC4/TimerTestMode.c ****         TimerTestMode_SetCounterMode(TimerTestMode_COUNT_DOWN);
  53:Generated_Source\PSoC4/TimerTestMode.c ****         TimerTestMode_WritePeriod(TimerTestMode_QUAD_PERIOD_INIT_VALUE);
  54:Generated_Source\PSoC4/TimerTestMode.c ****         TimerTestMode_WriteCounter(TimerTestMode_QUAD_PERIOD_INIT_VALUE);
  55:Generated_Source\PSoC4/TimerTestMode.c ****     #endif  /* (TimerTestMode__QUAD == TimerTestMode_CONFIG) */
  56:Generated_Source\PSoC4/TimerTestMode.c **** 
  57:Generated_Source\PSoC4/TimerTestMode.c ****     #if (TimerTestMode__TIMER == TimerTestMode_CONFIG)
  58:Generated_Source\PSoC4/TimerTestMode.c ****         TimerTestMode_CONTROL_REG = TimerTestMode_CTRL_TIMER_BASE_CONFIG;
  28              		.loc 1 58 0
  29 0000 C022     		mov	r2, #192
  30 0002 094B     		ldr	r3, .L2
  31 0004 D200     		lsl	r2, r2, #3
  32 0006 1A60     		str	r2, [r3]
  59:Generated_Source\PSoC4/TimerTestMode.c ****         
  60:Generated_Source\PSoC4/TimerTestMode.c ****         /* Set values from customizer to CTRL1 */
  61:Generated_Source\PSoC4/TimerTestMode.c ****         TimerTestMode_TRIG_CONTROL1_REG  = TimerTestMode_TIMER_SIGNALS_MODES;
  33              		.loc 1 61 0
  34 0008 0C22     		mov	r2, #12
  35 000a 084B     		ldr	r3, .L2+4
  62:Generated_Source\PSoC4/TimerTestMode.c ****     
  63:Generated_Source\PSoC4/TimerTestMode.c ****         /* Set values from customizer to INTR */
  64:Generated_Source\PSoC4/TimerTestMode.c ****         TimerTestMode_SetInterruptMode(TimerTestMode_TC_INTERRUPT_MASK);
  65:Generated_Source\PSoC4/TimerTestMode.c ****         
  66:Generated_Source\PSoC4/TimerTestMode.c ****         /* Set other values from customizer */
  67:Generated_Source\PSoC4/TimerTestMode.c ****         TimerTestMode_WritePeriod(TimerTestMode_TC_PERIOD_VALUE );
  68:Generated_Source\PSoC4/TimerTestMode.c **** 
  69:Generated_Source\PSoC4/TimerTestMode.c ****         #if (TimerTestMode__COMPARE == TimerTestMode_TC_COMP_CAP_MODE)
  70:Generated_Source\PSoC4/TimerTestMode.c ****             TimerTestMode_WriteCompare(TimerTestMode_TC_COMPARE_VALUE);
  71:Generated_Source\PSoC4/TimerTestMode.c **** 
  72:Generated_Source\PSoC4/TimerTestMode.c ****             #if (1u == TimerTestMode_TC_COMPARE_SWAP)
  73:Generated_Source\PSoC4/TimerTestMode.c ****                 TimerTestMode_SetCompareSwap(1u);
  74:Generated_Source\PSoC4/TimerTestMode.c ****                 TimerTestMode_WriteCompareBuf(TimerTestMode_TC_COMPARE_BUF_VALUE);
  75:Generated_Source\PSoC4/TimerTestMode.c ****             #endif  /* (1u == TimerTestMode_TC_COMPARE_SWAP) */
  76:Generated_Source\PSoC4/TimerTestMode.c ****         #endif  /* (TimerTestMode__COMPARE == TimerTestMode_TC_COMP_CAP_MODE) */
  77:Generated_Source\PSoC4/TimerTestMode.c **** 
  78:Generated_Source\PSoC4/TimerTestMode.c ****         /* Initialize counter value */
  79:Generated_Source\PSoC4/TimerTestMode.c ****         #if (TimerTestMode_CY_TCPWM_V2 && TimerTestMode_TIMER_UPDOWN_CNT_USED && !TimerTestMode_CY_
ARM GAS  C:\Users\Petro\AppData\Local\Temp\ccpWYAL3.s 			page 3


  80:Generated_Source\PSoC4/TimerTestMode.c ****             TimerTestMode_WriteCounter(1u);
  81:Generated_Source\PSoC4/TimerTestMode.c ****         #elif(TimerTestMode__COUNT_DOWN == TimerTestMode_TC_COUNTER_MODE)
  82:Generated_Source\PSoC4/TimerTestMode.c ****             TimerTestMode_WriteCounter(TimerTestMode_TC_PERIOD_VALUE);
  83:Generated_Source\PSoC4/TimerTestMode.c ****         #else
  84:Generated_Source\PSoC4/TimerTestMode.c ****             TimerTestMode_WriteCounter(0u);
  85:Generated_Source\PSoC4/TimerTestMode.c ****         #endif /* (TimerTestMode_CY_TCPWM_V2 && TimerTestMode_TIMER_UPDOWN_CNT_USED && !TimerTestMo
  86:Generated_Source\PSoC4/TimerTestMode.c ****     #endif  /* (TimerTestMode__TIMER == TimerTestMode_CONFIG) */
  87:Generated_Source\PSoC4/TimerTestMode.c **** 
  88:Generated_Source\PSoC4/TimerTestMode.c ****     #if (TimerTestMode__PWM_SEL == TimerTestMode_CONFIG)
  89:Generated_Source\PSoC4/TimerTestMode.c ****         TimerTestMode_CONTROL_REG = TimerTestMode_CTRL_PWM_BASE_CONFIG;
  90:Generated_Source\PSoC4/TimerTestMode.c **** 
  91:Generated_Source\PSoC4/TimerTestMode.c ****         #if (TimerTestMode__PWM_PR == TimerTestMode_PWM_MODE)
  92:Generated_Source\PSoC4/TimerTestMode.c ****             TimerTestMode_CONTROL_REG |= TimerTestMode_CTRL_PWM_RUN_MODE;
  93:Generated_Source\PSoC4/TimerTestMode.c ****             TimerTestMode_WriteCounter(TimerTestMode_PWM_PR_INIT_VALUE);
  94:Generated_Source\PSoC4/TimerTestMode.c ****         #else
  95:Generated_Source\PSoC4/TimerTestMode.c ****             TimerTestMode_CONTROL_REG |= TimerTestMode_CTRL_PWM_ALIGN | TimerTestMode_CTRL_PWM_KILL
  96:Generated_Source\PSoC4/TimerTestMode.c ****             
  97:Generated_Source\PSoC4/TimerTestMode.c ****             /* Initialize counter value */
  98:Generated_Source\PSoC4/TimerTestMode.c ****             #if (TimerTestMode_CY_TCPWM_V2 && TimerTestMode_PWM_UPDOWN_CNT_USED && !TimerTestMode_C
  99:Generated_Source\PSoC4/TimerTestMode.c ****                 TimerTestMode_WriteCounter(1u);
 100:Generated_Source\PSoC4/TimerTestMode.c ****             #elif (TimerTestMode__RIGHT == TimerTestMode_PWM_ALIGN)
 101:Generated_Source\PSoC4/TimerTestMode.c ****                 TimerTestMode_WriteCounter(TimerTestMode_PWM_PERIOD_VALUE);
 102:Generated_Source\PSoC4/TimerTestMode.c ****             #else 
 103:Generated_Source\PSoC4/TimerTestMode.c ****                 TimerTestMode_WriteCounter(0u);
 104:Generated_Source\PSoC4/TimerTestMode.c ****             #endif  /* (TimerTestMode_CY_TCPWM_V2 && TimerTestMode_PWM_UPDOWN_CNT_USED && !TimerTes
 105:Generated_Source\PSoC4/TimerTestMode.c ****         #endif  /* (TimerTestMode__PWM_PR == TimerTestMode_PWM_MODE) */
 106:Generated_Source\PSoC4/TimerTestMode.c **** 
 107:Generated_Source\PSoC4/TimerTestMode.c ****         #if (TimerTestMode__PWM_DT == TimerTestMode_PWM_MODE)
 108:Generated_Source\PSoC4/TimerTestMode.c ****             TimerTestMode_CONTROL_REG |= TimerTestMode_CTRL_PWM_DEAD_TIME_CYCLE;
 109:Generated_Source\PSoC4/TimerTestMode.c ****         #endif  /* (TimerTestMode__PWM_DT == TimerTestMode_PWM_MODE) */
 110:Generated_Source\PSoC4/TimerTestMode.c **** 
 111:Generated_Source\PSoC4/TimerTestMode.c ****         #if (TimerTestMode__PWM == TimerTestMode_PWM_MODE)
 112:Generated_Source\PSoC4/TimerTestMode.c ****             TimerTestMode_CONTROL_REG |= TimerTestMode_CTRL_PWM_PRESCALER;
 113:Generated_Source\PSoC4/TimerTestMode.c ****         #endif  /* (TimerTestMode__PWM == TimerTestMode_PWM_MODE) */
 114:Generated_Source\PSoC4/TimerTestMode.c **** 
 115:Generated_Source\PSoC4/TimerTestMode.c ****         /* Set values from customizer to CTRL1 */
 116:Generated_Source\PSoC4/TimerTestMode.c ****         TimerTestMode_TRIG_CONTROL1_REG  = TimerTestMode_PWM_SIGNALS_MODES;
 117:Generated_Source\PSoC4/TimerTestMode.c ****     
 118:Generated_Source\PSoC4/TimerTestMode.c ****         /* Set values from customizer to INTR */
 119:Generated_Source\PSoC4/TimerTestMode.c ****         TimerTestMode_SetInterruptMode(TimerTestMode_PWM_INTERRUPT_MASK);
 120:Generated_Source\PSoC4/TimerTestMode.c **** 
 121:Generated_Source\PSoC4/TimerTestMode.c ****         /* Set values from customizer to CTRL2 */
 122:Generated_Source\PSoC4/TimerTestMode.c ****         #if (TimerTestMode__PWM_PR == TimerTestMode_PWM_MODE)
 123:Generated_Source\PSoC4/TimerTestMode.c ****             TimerTestMode_TRIG_CONTROL2_REG =
 124:Generated_Source\PSoC4/TimerTestMode.c ****                     (TimerTestMode_CC_MATCH_NO_CHANGE    |
 125:Generated_Source\PSoC4/TimerTestMode.c ****                     TimerTestMode_OVERLOW_NO_CHANGE      |
 126:Generated_Source\PSoC4/TimerTestMode.c ****                     TimerTestMode_UNDERFLOW_NO_CHANGE);
 127:Generated_Source\PSoC4/TimerTestMode.c ****         #else
 128:Generated_Source\PSoC4/TimerTestMode.c ****             #if (TimerTestMode__LEFT == TimerTestMode_PWM_ALIGN)
 129:Generated_Source\PSoC4/TimerTestMode.c ****                 TimerTestMode_TRIG_CONTROL2_REG = TimerTestMode_PWM_MODE_LEFT;
 130:Generated_Source\PSoC4/TimerTestMode.c ****             #endif  /* ( TimerTestMode_PWM_LEFT == TimerTestMode_PWM_ALIGN) */
 131:Generated_Source\PSoC4/TimerTestMode.c **** 
 132:Generated_Source\PSoC4/TimerTestMode.c ****             #if (TimerTestMode__RIGHT == TimerTestMode_PWM_ALIGN)
 133:Generated_Source\PSoC4/TimerTestMode.c ****                 TimerTestMode_TRIG_CONTROL2_REG = TimerTestMode_PWM_MODE_RIGHT;
 134:Generated_Source\PSoC4/TimerTestMode.c ****             #endif  /* ( TimerTestMode_PWM_RIGHT == TimerTestMode_PWM_ALIGN) */
 135:Generated_Source\PSoC4/TimerTestMode.c **** 
 136:Generated_Source\PSoC4/TimerTestMode.c ****             #if (TimerTestMode__CENTER == TimerTestMode_PWM_ALIGN)
ARM GAS  C:\Users\Petro\AppData\Local\Temp\ccpWYAL3.s 			page 4


 137:Generated_Source\PSoC4/TimerTestMode.c ****                 TimerTestMode_TRIG_CONTROL2_REG = TimerTestMode_PWM_MODE_CENTER;
 138:Generated_Source\PSoC4/TimerTestMode.c ****             #endif  /* ( TimerTestMode_PWM_CENTER == TimerTestMode_PWM_ALIGN) */
 139:Generated_Source\PSoC4/TimerTestMode.c **** 
 140:Generated_Source\PSoC4/TimerTestMode.c ****             #if (TimerTestMode__ASYMMETRIC == TimerTestMode_PWM_ALIGN)
 141:Generated_Source\PSoC4/TimerTestMode.c ****                 TimerTestMode_TRIG_CONTROL2_REG = TimerTestMode_PWM_MODE_ASYM;
 142:Generated_Source\PSoC4/TimerTestMode.c ****             #endif  /* (TimerTestMode__ASYMMETRIC == TimerTestMode_PWM_ALIGN) */
 143:Generated_Source\PSoC4/TimerTestMode.c ****         #endif  /* (TimerTestMode__PWM_PR == TimerTestMode_PWM_MODE) */
 144:Generated_Source\PSoC4/TimerTestMode.c **** 
 145:Generated_Source\PSoC4/TimerTestMode.c ****         /* Set other values from customizer */
 146:Generated_Source\PSoC4/TimerTestMode.c ****         TimerTestMode_WritePeriod(TimerTestMode_PWM_PERIOD_VALUE );
 147:Generated_Source\PSoC4/TimerTestMode.c ****         TimerTestMode_WriteCompare(TimerTestMode_PWM_COMPARE_VALUE);
 148:Generated_Source\PSoC4/TimerTestMode.c **** 
 149:Generated_Source\PSoC4/TimerTestMode.c ****         #if (1u == TimerTestMode_PWM_COMPARE_SWAP)
 150:Generated_Source\PSoC4/TimerTestMode.c ****             TimerTestMode_SetCompareSwap(1u);
 151:Generated_Source\PSoC4/TimerTestMode.c ****             TimerTestMode_WriteCompareBuf(TimerTestMode_PWM_COMPARE_BUF_VALUE);
 152:Generated_Source\PSoC4/TimerTestMode.c ****         #endif  /* (1u == TimerTestMode_PWM_COMPARE_SWAP) */
 153:Generated_Source\PSoC4/TimerTestMode.c **** 
 154:Generated_Source\PSoC4/TimerTestMode.c ****         #if (1u == TimerTestMode_PWM_PERIOD_SWAP)
 155:Generated_Source\PSoC4/TimerTestMode.c ****             TimerTestMode_SetPeriodSwap(1u);
 156:Generated_Source\PSoC4/TimerTestMode.c ****             TimerTestMode_WritePeriodBuf(TimerTestMode_PWM_PERIOD_BUF_VALUE);
 157:Generated_Source\PSoC4/TimerTestMode.c ****         #endif  /* (1u == TimerTestMode_PWM_PERIOD_SWAP) */
 158:Generated_Source\PSoC4/TimerTestMode.c ****     #endif  /* (TimerTestMode__PWM_SEL == TimerTestMode_CONFIG) */
 159:Generated_Source\PSoC4/TimerTestMode.c ****     
 160:Generated_Source\PSoC4/TimerTestMode.c **** }
  36              		.loc 1 160 0
  37              		@ sp needed
  61:Generated_Source\PSoC4/TimerTestMode.c ****     
  38              		.loc 1 61 0
  39 000c 1A60     		str	r2, [r3]
  40              	.LVL0:
  41              	.LBB10:
  42              	.LBB11:
 161:Generated_Source\PSoC4/TimerTestMode.c **** 
 162:Generated_Source\PSoC4/TimerTestMode.c **** 
 163:Generated_Source\PSoC4/TimerTestMode.c **** /*******************************************************************************
 164:Generated_Source\PSoC4/TimerTestMode.c **** * Function Name: TimerTestMode_Enable
 165:Generated_Source\PSoC4/TimerTestMode.c **** ********************************************************************************
 166:Generated_Source\PSoC4/TimerTestMode.c **** *
 167:Generated_Source\PSoC4/TimerTestMode.c **** * Summary:
 168:Generated_Source\PSoC4/TimerTestMode.c **** *  Enables the TimerTestMode.
 169:Generated_Source\PSoC4/TimerTestMode.c **** *
 170:Generated_Source\PSoC4/TimerTestMode.c **** * Parameters:
 171:Generated_Source\PSoC4/TimerTestMode.c **** *  None
 172:Generated_Source\PSoC4/TimerTestMode.c **** *
 173:Generated_Source\PSoC4/TimerTestMode.c **** * Return:
 174:Generated_Source\PSoC4/TimerTestMode.c **** *  None
 175:Generated_Source\PSoC4/TimerTestMode.c **** *
 176:Generated_Source\PSoC4/TimerTestMode.c **** *******************************************************************************/
 177:Generated_Source\PSoC4/TimerTestMode.c **** void TimerTestMode_Enable(void)
 178:Generated_Source\PSoC4/TimerTestMode.c **** {
 179:Generated_Source\PSoC4/TimerTestMode.c ****     uint8 enableInterrupts;
 180:Generated_Source\PSoC4/TimerTestMode.c **** 
 181:Generated_Source\PSoC4/TimerTestMode.c ****     enableInterrupts = CyEnterCriticalSection();
 182:Generated_Source\PSoC4/TimerTestMode.c ****     TimerTestMode_BLOCK_CONTROL_REG |= TimerTestMode_MASK;
 183:Generated_Source\PSoC4/TimerTestMode.c ****     CyExitCriticalSection(enableInterrupts);
 184:Generated_Source\PSoC4/TimerTestMode.c **** 
 185:Generated_Source\PSoC4/TimerTestMode.c ****     /* Start Timer or PWM if start input is absent */
ARM GAS  C:\Users\Petro\AppData\Local\Temp\ccpWYAL3.s 			page 5


 186:Generated_Source\PSoC4/TimerTestMode.c ****     #if (TimerTestMode__PWM_SEL == TimerTestMode_CONFIG)
 187:Generated_Source\PSoC4/TimerTestMode.c ****         #if (0u == TimerTestMode_PWM_START_SIGNAL_PRESENT)
 188:Generated_Source\PSoC4/TimerTestMode.c ****             TimerTestMode_TriggerCommand(TimerTestMode_MASK, TimerTestMode_CMD_START);
 189:Generated_Source\PSoC4/TimerTestMode.c ****         #endif /* (0u == TimerTestMode_PWM_START_SIGNAL_PRESENT) */
 190:Generated_Source\PSoC4/TimerTestMode.c ****     #endif /* (TimerTestMode__PWM_SEL == TimerTestMode_CONFIG) */
 191:Generated_Source\PSoC4/TimerTestMode.c **** 
 192:Generated_Source\PSoC4/TimerTestMode.c ****     #if (TimerTestMode__TIMER == TimerTestMode_CONFIG)
 193:Generated_Source\PSoC4/TimerTestMode.c ****         #if (0u == TimerTestMode_TC_START_SIGNAL_PRESENT)
 194:Generated_Source\PSoC4/TimerTestMode.c ****             TimerTestMode_TriggerCommand(TimerTestMode_MASK, TimerTestMode_CMD_START);
 195:Generated_Source\PSoC4/TimerTestMode.c ****         #endif /* (0u == TimerTestMode_TC_START_SIGNAL_PRESENT) */
 196:Generated_Source\PSoC4/TimerTestMode.c ****     #endif /* (TimerTestMode__TIMER == TimerTestMode_CONFIG) */
 197:Generated_Source\PSoC4/TimerTestMode.c ****     
 198:Generated_Source\PSoC4/TimerTestMode.c ****     #if (TimerTestMode__QUAD == TimerTestMode_CONFIG)
 199:Generated_Source\PSoC4/TimerTestMode.c ****         #if (0u != TimerTestMode_QUAD_AUTO_START)
 200:Generated_Source\PSoC4/TimerTestMode.c ****             TimerTestMode_TriggerCommand(TimerTestMode_MASK, TimerTestMode_CMD_RELOAD);
 201:Generated_Source\PSoC4/TimerTestMode.c ****         #endif /* (0u != TimerTestMode_QUAD_AUTO_START) */
 202:Generated_Source\PSoC4/TimerTestMode.c ****     #endif  /* (TimerTestMode__QUAD == TimerTestMode_CONFIG) */
 203:Generated_Source\PSoC4/TimerTestMode.c **** }
 204:Generated_Source\PSoC4/TimerTestMode.c **** 
 205:Generated_Source\PSoC4/TimerTestMode.c **** 
 206:Generated_Source\PSoC4/TimerTestMode.c **** /*******************************************************************************
 207:Generated_Source\PSoC4/TimerTestMode.c **** * Function Name: TimerTestMode_Start
 208:Generated_Source\PSoC4/TimerTestMode.c **** ********************************************************************************
 209:Generated_Source\PSoC4/TimerTestMode.c **** *
 210:Generated_Source\PSoC4/TimerTestMode.c **** * Summary:
 211:Generated_Source\PSoC4/TimerTestMode.c **** *  Initializes the TimerTestMode with default customizer
 212:Generated_Source\PSoC4/TimerTestMode.c **** *  values when called the first time and enables the TimerTestMode.
 213:Generated_Source\PSoC4/TimerTestMode.c **** *  For subsequent calls the configuration is left unchanged and the component is
 214:Generated_Source\PSoC4/TimerTestMode.c **** *  just enabled.
 215:Generated_Source\PSoC4/TimerTestMode.c **** *
 216:Generated_Source\PSoC4/TimerTestMode.c **** * Parameters:
 217:Generated_Source\PSoC4/TimerTestMode.c **** *  None
 218:Generated_Source\PSoC4/TimerTestMode.c **** *
 219:Generated_Source\PSoC4/TimerTestMode.c **** * Return:
 220:Generated_Source\PSoC4/TimerTestMode.c **** *  None
 221:Generated_Source\PSoC4/TimerTestMode.c **** *
 222:Generated_Source\PSoC4/TimerTestMode.c **** * Global variables:
 223:Generated_Source\PSoC4/TimerTestMode.c **** *  TimerTestMode_initVar: global variable is used to indicate initial
 224:Generated_Source\PSoC4/TimerTestMode.c **** *  configuration of this component.  The variable is initialized to zero and set
 225:Generated_Source\PSoC4/TimerTestMode.c **** *  to 1 the first time TimerTestMode_Start() is called. This allows
 226:Generated_Source\PSoC4/TimerTestMode.c **** *  enabling/disabling a component without re-initialization in all subsequent
 227:Generated_Source\PSoC4/TimerTestMode.c **** *  calls to the TimerTestMode_Start() routine.
 228:Generated_Source\PSoC4/TimerTestMode.c **** *
 229:Generated_Source\PSoC4/TimerTestMode.c **** *******************************************************************************/
 230:Generated_Source\PSoC4/TimerTestMode.c **** void TimerTestMode_Start(void)
 231:Generated_Source\PSoC4/TimerTestMode.c **** {
 232:Generated_Source\PSoC4/TimerTestMode.c ****     if (0u == TimerTestMode_initVar)
 233:Generated_Source\PSoC4/TimerTestMode.c ****     {
 234:Generated_Source\PSoC4/TimerTestMode.c ****         TimerTestMode_Init();
 235:Generated_Source\PSoC4/TimerTestMode.c ****         TimerTestMode_initVar = 1u;
 236:Generated_Source\PSoC4/TimerTestMode.c ****     }
 237:Generated_Source\PSoC4/TimerTestMode.c **** 
 238:Generated_Source\PSoC4/TimerTestMode.c ****     TimerTestMode_Enable();
 239:Generated_Source\PSoC4/TimerTestMode.c **** }
 240:Generated_Source\PSoC4/TimerTestMode.c **** 
 241:Generated_Source\PSoC4/TimerTestMode.c **** 
 242:Generated_Source\PSoC4/TimerTestMode.c **** /*******************************************************************************
ARM GAS  C:\Users\Petro\AppData\Local\Temp\ccpWYAL3.s 			page 6


 243:Generated_Source\PSoC4/TimerTestMode.c **** * Function Name: TimerTestMode_Stop
 244:Generated_Source\PSoC4/TimerTestMode.c **** ********************************************************************************
 245:Generated_Source\PSoC4/TimerTestMode.c **** *
 246:Generated_Source\PSoC4/TimerTestMode.c **** * Summary:
 247:Generated_Source\PSoC4/TimerTestMode.c **** *  Disables the TimerTestMode.
 248:Generated_Source\PSoC4/TimerTestMode.c **** *
 249:Generated_Source\PSoC4/TimerTestMode.c **** * Parameters:
 250:Generated_Source\PSoC4/TimerTestMode.c **** *  None
 251:Generated_Source\PSoC4/TimerTestMode.c **** *
 252:Generated_Source\PSoC4/TimerTestMode.c **** * Return:
 253:Generated_Source\PSoC4/TimerTestMode.c **** *  None
 254:Generated_Source\PSoC4/TimerTestMode.c **** *
 255:Generated_Source\PSoC4/TimerTestMode.c **** *******************************************************************************/
 256:Generated_Source\PSoC4/TimerTestMode.c **** void TimerTestMode_Stop(void)
 257:Generated_Source\PSoC4/TimerTestMode.c **** {
 258:Generated_Source\PSoC4/TimerTestMode.c ****     uint8 enableInterrupts;
 259:Generated_Source\PSoC4/TimerTestMode.c **** 
 260:Generated_Source\PSoC4/TimerTestMode.c ****     enableInterrupts = CyEnterCriticalSection();
 261:Generated_Source\PSoC4/TimerTestMode.c **** 
 262:Generated_Source\PSoC4/TimerTestMode.c ****     TimerTestMode_BLOCK_CONTROL_REG &= (uint32)~TimerTestMode_MASK;
 263:Generated_Source\PSoC4/TimerTestMode.c **** 
 264:Generated_Source\PSoC4/TimerTestMode.c ****     CyExitCriticalSection(enableInterrupts);
 265:Generated_Source\PSoC4/TimerTestMode.c **** }
 266:Generated_Source\PSoC4/TimerTestMode.c **** 
 267:Generated_Source\PSoC4/TimerTestMode.c **** 
 268:Generated_Source\PSoC4/TimerTestMode.c **** /*******************************************************************************
 269:Generated_Source\PSoC4/TimerTestMode.c **** * Function Name: TimerTestMode_SetMode
 270:Generated_Source\PSoC4/TimerTestMode.c **** ********************************************************************************
 271:Generated_Source\PSoC4/TimerTestMode.c **** *
 272:Generated_Source\PSoC4/TimerTestMode.c **** * Summary:
 273:Generated_Source\PSoC4/TimerTestMode.c **** *  Sets the operation mode of the TimerTestMode. This function is used when
 274:Generated_Source\PSoC4/TimerTestMode.c **** *  configured as a generic TimerTestMode and the actual mode of operation is
 275:Generated_Source\PSoC4/TimerTestMode.c **** *  set at runtime. The mode must be set while the component is disabled.
 276:Generated_Source\PSoC4/TimerTestMode.c **** *
 277:Generated_Source\PSoC4/TimerTestMode.c **** * Parameters:
 278:Generated_Source\PSoC4/TimerTestMode.c **** *  mode: Mode for the TimerTestMode to operate in
 279:Generated_Source\PSoC4/TimerTestMode.c **** *   Values:
 280:Generated_Source\PSoC4/TimerTestMode.c **** *   - TimerTestMode_MODE_TIMER_COMPARE - Timer / Counter with
 281:Generated_Source\PSoC4/TimerTestMode.c **** *                                                 compare capability
 282:Generated_Source\PSoC4/TimerTestMode.c **** *         - TimerTestMode_MODE_TIMER_CAPTURE - Timer / Counter with
 283:Generated_Source\PSoC4/TimerTestMode.c **** *                                                 capture capability
 284:Generated_Source\PSoC4/TimerTestMode.c **** *         - TimerTestMode_MODE_QUAD - Quadrature decoder
 285:Generated_Source\PSoC4/TimerTestMode.c **** *         - TimerTestMode_MODE_PWM - PWM
 286:Generated_Source\PSoC4/TimerTestMode.c **** *         - TimerTestMode_MODE_PWM_DT - PWM with dead time
 287:Generated_Source\PSoC4/TimerTestMode.c **** *         - TimerTestMode_MODE_PWM_PR - PWM with pseudo random capability
 288:Generated_Source\PSoC4/TimerTestMode.c **** *
 289:Generated_Source\PSoC4/TimerTestMode.c **** * Return:
 290:Generated_Source\PSoC4/TimerTestMode.c **** *  None
 291:Generated_Source\PSoC4/TimerTestMode.c **** *
 292:Generated_Source\PSoC4/TimerTestMode.c **** *******************************************************************************/
 293:Generated_Source\PSoC4/TimerTestMode.c **** void TimerTestMode_SetMode(uint32 mode)
 294:Generated_Source\PSoC4/TimerTestMode.c **** {
 295:Generated_Source\PSoC4/TimerTestMode.c ****     uint8 enableInterrupts;
 296:Generated_Source\PSoC4/TimerTestMode.c **** 
 297:Generated_Source\PSoC4/TimerTestMode.c ****     enableInterrupts = CyEnterCriticalSection();
 298:Generated_Source\PSoC4/TimerTestMode.c **** 
 299:Generated_Source\PSoC4/TimerTestMode.c ****     TimerTestMode_CONTROL_REG &= (uint32)~TimerTestMode_MODE_MASK;
ARM GAS  C:\Users\Petro\AppData\Local\Temp\ccpWYAL3.s 			page 7


 300:Generated_Source\PSoC4/TimerTestMode.c ****     TimerTestMode_CONTROL_REG |= mode;
 301:Generated_Source\PSoC4/TimerTestMode.c **** 
 302:Generated_Source\PSoC4/TimerTestMode.c ****     CyExitCriticalSection(enableInterrupts);
 303:Generated_Source\PSoC4/TimerTestMode.c **** }
 304:Generated_Source\PSoC4/TimerTestMode.c **** 
 305:Generated_Source\PSoC4/TimerTestMode.c **** 
 306:Generated_Source\PSoC4/TimerTestMode.c **** /*******************************************************************************
 307:Generated_Source\PSoC4/TimerTestMode.c **** * Function Name: TimerTestMode_SetQDMode
 308:Generated_Source\PSoC4/TimerTestMode.c **** ********************************************************************************
 309:Generated_Source\PSoC4/TimerTestMode.c **** *
 310:Generated_Source\PSoC4/TimerTestMode.c **** * Summary:
 311:Generated_Source\PSoC4/TimerTestMode.c **** *  Sets the the Quadrature Decoder to one of the 3 supported modes.
 312:Generated_Source\PSoC4/TimerTestMode.c **** *  Its functionality is only applicable to Quadrature Decoder operation.
 313:Generated_Source\PSoC4/TimerTestMode.c **** *
 314:Generated_Source\PSoC4/TimerTestMode.c **** * Parameters:
 315:Generated_Source\PSoC4/TimerTestMode.c **** *  qdMode: Quadrature Decoder mode
 316:Generated_Source\PSoC4/TimerTestMode.c **** *   Values:
 317:Generated_Source\PSoC4/TimerTestMode.c **** *         - TimerTestMode_MODE_X1 - Counts on phi 1 rising
 318:Generated_Source\PSoC4/TimerTestMode.c **** *         - TimerTestMode_MODE_X2 - Counts on both edges of phi1 (2x faster)
 319:Generated_Source\PSoC4/TimerTestMode.c **** *         - TimerTestMode_MODE_X4 - Counts on both edges of phi1 and phi2
 320:Generated_Source\PSoC4/TimerTestMode.c **** *                                        (4x faster)
 321:Generated_Source\PSoC4/TimerTestMode.c **** *
 322:Generated_Source\PSoC4/TimerTestMode.c **** * Return:
 323:Generated_Source\PSoC4/TimerTestMode.c **** *  None
 324:Generated_Source\PSoC4/TimerTestMode.c **** *
 325:Generated_Source\PSoC4/TimerTestMode.c **** *******************************************************************************/
 326:Generated_Source\PSoC4/TimerTestMode.c **** void TimerTestMode_SetQDMode(uint32 qdMode)
 327:Generated_Source\PSoC4/TimerTestMode.c **** {
 328:Generated_Source\PSoC4/TimerTestMode.c ****     uint8 enableInterrupts;
 329:Generated_Source\PSoC4/TimerTestMode.c **** 
 330:Generated_Source\PSoC4/TimerTestMode.c ****     enableInterrupts = CyEnterCriticalSection();
 331:Generated_Source\PSoC4/TimerTestMode.c **** 
 332:Generated_Source\PSoC4/TimerTestMode.c ****     TimerTestMode_CONTROL_REG &= (uint32)~TimerTestMode_QUAD_MODE_MASK;
 333:Generated_Source\PSoC4/TimerTestMode.c ****     TimerTestMode_CONTROL_REG |= qdMode;
 334:Generated_Source\PSoC4/TimerTestMode.c **** 
 335:Generated_Source\PSoC4/TimerTestMode.c ****     CyExitCriticalSection(enableInterrupts);
 336:Generated_Source\PSoC4/TimerTestMode.c **** }
 337:Generated_Source\PSoC4/TimerTestMode.c **** 
 338:Generated_Source\PSoC4/TimerTestMode.c **** 
 339:Generated_Source\PSoC4/TimerTestMode.c **** /*******************************************************************************
 340:Generated_Source\PSoC4/TimerTestMode.c **** * Function Name: TimerTestMode_SetPrescaler
 341:Generated_Source\PSoC4/TimerTestMode.c **** ********************************************************************************
 342:Generated_Source\PSoC4/TimerTestMode.c **** *
 343:Generated_Source\PSoC4/TimerTestMode.c **** * Summary:
 344:Generated_Source\PSoC4/TimerTestMode.c **** *  Sets the prescaler value that is applied to the clock input.  Not applicable
 345:Generated_Source\PSoC4/TimerTestMode.c **** *  to a PWM with the dead time mode or Quadrature Decoder mode.
 346:Generated_Source\PSoC4/TimerTestMode.c **** *
 347:Generated_Source\PSoC4/TimerTestMode.c **** * Parameters:
 348:Generated_Source\PSoC4/TimerTestMode.c **** *  prescaler: Prescaler divider value
 349:Generated_Source\PSoC4/TimerTestMode.c **** *   Values:
 350:Generated_Source\PSoC4/TimerTestMode.c **** *         - TimerTestMode_PRESCALE_DIVBY1    - Divide by 1 (no prescaling)
 351:Generated_Source\PSoC4/TimerTestMode.c **** *         - TimerTestMode_PRESCALE_DIVBY2    - Divide by 2
 352:Generated_Source\PSoC4/TimerTestMode.c **** *         - TimerTestMode_PRESCALE_DIVBY4    - Divide by 4
 353:Generated_Source\PSoC4/TimerTestMode.c **** *         - TimerTestMode_PRESCALE_DIVBY8    - Divide by 8
 354:Generated_Source\PSoC4/TimerTestMode.c **** *         - TimerTestMode_PRESCALE_DIVBY16   - Divide by 16
 355:Generated_Source\PSoC4/TimerTestMode.c **** *         - TimerTestMode_PRESCALE_DIVBY32   - Divide by 32
 356:Generated_Source\PSoC4/TimerTestMode.c **** *         - TimerTestMode_PRESCALE_DIVBY64   - Divide by 64
ARM GAS  C:\Users\Petro\AppData\Local\Temp\ccpWYAL3.s 			page 8


 357:Generated_Source\PSoC4/TimerTestMode.c **** *         - TimerTestMode_PRESCALE_DIVBY128  - Divide by 128
 358:Generated_Source\PSoC4/TimerTestMode.c **** *
 359:Generated_Source\PSoC4/TimerTestMode.c **** * Return:
 360:Generated_Source\PSoC4/TimerTestMode.c **** *  None
 361:Generated_Source\PSoC4/TimerTestMode.c **** *
 362:Generated_Source\PSoC4/TimerTestMode.c **** *******************************************************************************/
 363:Generated_Source\PSoC4/TimerTestMode.c **** void TimerTestMode_SetPrescaler(uint32 prescaler)
 364:Generated_Source\PSoC4/TimerTestMode.c **** {
 365:Generated_Source\PSoC4/TimerTestMode.c ****     uint8 enableInterrupts;
 366:Generated_Source\PSoC4/TimerTestMode.c **** 
 367:Generated_Source\PSoC4/TimerTestMode.c ****     enableInterrupts = CyEnterCriticalSection();
 368:Generated_Source\PSoC4/TimerTestMode.c **** 
 369:Generated_Source\PSoC4/TimerTestMode.c ****     TimerTestMode_CONTROL_REG &= (uint32)~TimerTestMode_PRESCALER_MASK;
 370:Generated_Source\PSoC4/TimerTestMode.c ****     TimerTestMode_CONTROL_REG |= prescaler;
 371:Generated_Source\PSoC4/TimerTestMode.c **** 
 372:Generated_Source\PSoC4/TimerTestMode.c ****     CyExitCriticalSection(enableInterrupts);
 373:Generated_Source\PSoC4/TimerTestMode.c **** }
 374:Generated_Source\PSoC4/TimerTestMode.c **** 
 375:Generated_Source\PSoC4/TimerTestMode.c **** 
 376:Generated_Source\PSoC4/TimerTestMode.c **** /*******************************************************************************
 377:Generated_Source\PSoC4/TimerTestMode.c **** * Function Name: TimerTestMode_SetOneShot
 378:Generated_Source\PSoC4/TimerTestMode.c **** ********************************************************************************
 379:Generated_Source\PSoC4/TimerTestMode.c **** *
 380:Generated_Source\PSoC4/TimerTestMode.c **** * Summary:
 381:Generated_Source\PSoC4/TimerTestMode.c **** *  Writes the register that controls whether the TimerTestMode runs
 382:Generated_Source\PSoC4/TimerTestMode.c **** *  continuously or stops when terminal count is reached.  By default the
 383:Generated_Source\PSoC4/TimerTestMode.c **** *  TimerTestMode operates in the continuous mode.
 384:Generated_Source\PSoC4/TimerTestMode.c **** *
 385:Generated_Source\PSoC4/TimerTestMode.c **** * Parameters:
 386:Generated_Source\PSoC4/TimerTestMode.c **** *  oneShotEnable
 387:Generated_Source\PSoC4/TimerTestMode.c **** *   Values:
 388:Generated_Source\PSoC4/TimerTestMode.c **** *     - 0 - Continuous
 389:Generated_Source\PSoC4/TimerTestMode.c **** *     - 1 - Enable One Shot
 390:Generated_Source\PSoC4/TimerTestMode.c **** *
 391:Generated_Source\PSoC4/TimerTestMode.c **** * Return:
 392:Generated_Source\PSoC4/TimerTestMode.c **** *  None
 393:Generated_Source\PSoC4/TimerTestMode.c **** *
 394:Generated_Source\PSoC4/TimerTestMode.c **** *******************************************************************************/
 395:Generated_Source\PSoC4/TimerTestMode.c **** void TimerTestMode_SetOneShot(uint32 oneShotEnable)
 396:Generated_Source\PSoC4/TimerTestMode.c **** {
 397:Generated_Source\PSoC4/TimerTestMode.c ****     uint8 enableInterrupts;
 398:Generated_Source\PSoC4/TimerTestMode.c **** 
 399:Generated_Source\PSoC4/TimerTestMode.c ****     enableInterrupts = CyEnterCriticalSection();
 400:Generated_Source\PSoC4/TimerTestMode.c **** 
 401:Generated_Source\PSoC4/TimerTestMode.c ****     TimerTestMode_CONTROL_REG &= (uint32)~TimerTestMode_ONESHOT_MASK;
 402:Generated_Source\PSoC4/TimerTestMode.c ****     TimerTestMode_CONTROL_REG |= ((uint32)((oneShotEnable & TimerTestMode_1BIT_MASK) <<
 403:Generated_Source\PSoC4/TimerTestMode.c ****                                                                TimerTestMode_ONESHOT_SHIFT));
 404:Generated_Source\PSoC4/TimerTestMode.c **** 
 405:Generated_Source\PSoC4/TimerTestMode.c ****     CyExitCriticalSection(enableInterrupts);
 406:Generated_Source\PSoC4/TimerTestMode.c **** }
 407:Generated_Source\PSoC4/TimerTestMode.c **** 
 408:Generated_Source\PSoC4/TimerTestMode.c **** 
 409:Generated_Source\PSoC4/TimerTestMode.c **** /*******************************************************************************
 410:Generated_Source\PSoC4/TimerTestMode.c **** * Function Name: TimerTestMode_SetPWMMode
 411:Generated_Source\PSoC4/TimerTestMode.c **** ********************************************************************************
 412:Generated_Source\PSoC4/TimerTestMode.c **** *
 413:Generated_Source\PSoC4/TimerTestMode.c **** * Summary:
ARM GAS  C:\Users\Petro\AppData\Local\Temp\ccpWYAL3.s 			page 9


 414:Generated_Source\PSoC4/TimerTestMode.c **** *  Writes the control register that determines what mode of operation the PWM
 415:Generated_Source\PSoC4/TimerTestMode.c **** *  output lines are driven in.  There is a setting for what to do on a
 416:Generated_Source\PSoC4/TimerTestMode.c **** *  comparison match (CC_MATCH), on an overflow (OVERFLOW) and on an underflow
 417:Generated_Source\PSoC4/TimerTestMode.c **** *  (UNDERFLOW).  The value for each of the three must be ORed together to form
 418:Generated_Source\PSoC4/TimerTestMode.c **** *  the mode.
 419:Generated_Source\PSoC4/TimerTestMode.c **** *
 420:Generated_Source\PSoC4/TimerTestMode.c **** * Parameters:
 421:Generated_Source\PSoC4/TimerTestMode.c **** *  modeMask: A combination of three mode settings.  Mask must include a value
 422:Generated_Source\PSoC4/TimerTestMode.c **** *  for each of the three or use one of the preconfigured PWM settings.
 423:Generated_Source\PSoC4/TimerTestMode.c **** *   Values:
 424:Generated_Source\PSoC4/TimerTestMode.c **** *     - CC_MATCH_SET        - Set on comparison match
 425:Generated_Source\PSoC4/TimerTestMode.c **** *     - CC_MATCH_CLEAR      - Clear on comparison match
 426:Generated_Source\PSoC4/TimerTestMode.c **** *     - CC_MATCH_INVERT     - Invert on comparison match
 427:Generated_Source\PSoC4/TimerTestMode.c **** *     - CC_MATCH_NO_CHANGE  - No change on comparison match
 428:Generated_Source\PSoC4/TimerTestMode.c **** *     - OVERLOW_SET         - Set on overflow
 429:Generated_Source\PSoC4/TimerTestMode.c **** *     - OVERLOW_CLEAR       - Clear on  overflow
 430:Generated_Source\PSoC4/TimerTestMode.c **** *     - OVERLOW_INVERT      - Invert on overflow
 431:Generated_Source\PSoC4/TimerTestMode.c **** *     - OVERLOW_NO_CHANGE   - No change on overflow
 432:Generated_Source\PSoC4/TimerTestMode.c **** *     - UNDERFLOW_SET       - Set on underflow
 433:Generated_Source\PSoC4/TimerTestMode.c **** *     - UNDERFLOW_CLEAR     - Clear on underflow
 434:Generated_Source\PSoC4/TimerTestMode.c **** *     - UNDERFLOW_INVERT    - Invert on underflow
 435:Generated_Source\PSoC4/TimerTestMode.c **** *     - UNDERFLOW_NO_CHANGE - No change on underflow
 436:Generated_Source\PSoC4/TimerTestMode.c **** *     - PWM_MODE_LEFT       - Setting for left aligned PWM.  Should be combined
 437:Generated_Source\PSoC4/TimerTestMode.c **** *                             with up counting mode
 438:Generated_Source\PSoC4/TimerTestMode.c **** *     - PWM_MODE_RIGHT      - Setting for right aligned PWM.  Should be combined
 439:Generated_Source\PSoC4/TimerTestMode.c **** *                             with down counting mode
 440:Generated_Source\PSoC4/TimerTestMode.c **** *     - PWM_MODE_CENTER     - Setting for center aligned PWM.  Should be
 441:Generated_Source\PSoC4/TimerTestMode.c **** *                             combined with up/down 0 mode
 442:Generated_Source\PSoC4/TimerTestMode.c **** *     - PWM_MODE_ASYM       - Setting for asymmetric PWM.  Should be combined
 443:Generated_Source\PSoC4/TimerTestMode.c **** *                             with up/down 1 mode
 444:Generated_Source\PSoC4/TimerTestMode.c **** *
 445:Generated_Source\PSoC4/TimerTestMode.c **** * Return:
 446:Generated_Source\PSoC4/TimerTestMode.c **** *  None
 447:Generated_Source\PSoC4/TimerTestMode.c **** *
 448:Generated_Source\PSoC4/TimerTestMode.c **** *******************************************************************************/
 449:Generated_Source\PSoC4/TimerTestMode.c **** void TimerTestMode_SetPWMMode(uint32 modeMask)
 450:Generated_Source\PSoC4/TimerTestMode.c **** {
 451:Generated_Source\PSoC4/TimerTestMode.c ****     TimerTestMode_TRIG_CONTROL2_REG = (modeMask & TimerTestMode_6BIT_MASK);
 452:Generated_Source\PSoC4/TimerTestMode.c **** }
 453:Generated_Source\PSoC4/TimerTestMode.c **** 
 454:Generated_Source\PSoC4/TimerTestMode.c **** 
 455:Generated_Source\PSoC4/TimerTestMode.c **** 
 456:Generated_Source\PSoC4/TimerTestMode.c **** /*******************************************************************************
 457:Generated_Source\PSoC4/TimerTestMode.c **** * Function Name: TimerTestMode_SetPWMSyncKill
 458:Generated_Source\PSoC4/TimerTestMode.c **** ********************************************************************************
 459:Generated_Source\PSoC4/TimerTestMode.c **** *
 460:Generated_Source\PSoC4/TimerTestMode.c **** * Summary:
 461:Generated_Source\PSoC4/TimerTestMode.c **** *  Writes the register that controls whether the PWM kill signal (stop input)
 462:Generated_Source\PSoC4/TimerTestMode.c **** *  causes asynchronous or synchronous kill operation.  By default the kill
 463:Generated_Source\PSoC4/TimerTestMode.c **** *  operation is asynchronous.  This functionality is only applicable to the PWM
 464:Generated_Source\PSoC4/TimerTestMode.c **** *  and PWM with dead time modes.
 465:Generated_Source\PSoC4/TimerTestMode.c **** *
 466:Generated_Source\PSoC4/TimerTestMode.c **** *  For Synchronous mode the kill signal disables both the line and line_n
 467:Generated_Source\PSoC4/TimerTestMode.c **** *  signals until the next terminal count.
 468:Generated_Source\PSoC4/TimerTestMode.c **** *
 469:Generated_Source\PSoC4/TimerTestMode.c **** *  For Asynchronous mode the kill signal disables both the line and line_n
 470:Generated_Source\PSoC4/TimerTestMode.c **** *  signals when the kill signal is present.  This mode should only be used
ARM GAS  C:\Users\Petro\AppData\Local\Temp\ccpWYAL3.s 			page 10


 471:Generated_Source\PSoC4/TimerTestMode.c **** *  when the kill signal (stop input) is configured in the pass through mode
 472:Generated_Source\PSoC4/TimerTestMode.c **** *  (Level sensitive signal).
 473:Generated_Source\PSoC4/TimerTestMode.c **** 
 474:Generated_Source\PSoC4/TimerTestMode.c **** *
 475:Generated_Source\PSoC4/TimerTestMode.c **** * Parameters:
 476:Generated_Source\PSoC4/TimerTestMode.c **** *  syncKillEnable
 477:Generated_Source\PSoC4/TimerTestMode.c **** *   Values:
 478:Generated_Source\PSoC4/TimerTestMode.c **** *     - 0 - Asynchronous
 479:Generated_Source\PSoC4/TimerTestMode.c **** *     - 1 - Synchronous
 480:Generated_Source\PSoC4/TimerTestMode.c **** *
 481:Generated_Source\PSoC4/TimerTestMode.c **** * Return:
 482:Generated_Source\PSoC4/TimerTestMode.c **** *  None
 483:Generated_Source\PSoC4/TimerTestMode.c **** *
 484:Generated_Source\PSoC4/TimerTestMode.c **** *******************************************************************************/
 485:Generated_Source\PSoC4/TimerTestMode.c **** void TimerTestMode_SetPWMSyncKill(uint32 syncKillEnable)
 486:Generated_Source\PSoC4/TimerTestMode.c **** {
 487:Generated_Source\PSoC4/TimerTestMode.c ****     uint8 enableInterrupts;
 488:Generated_Source\PSoC4/TimerTestMode.c **** 
 489:Generated_Source\PSoC4/TimerTestMode.c ****     enableInterrupts = CyEnterCriticalSection();
 490:Generated_Source\PSoC4/TimerTestMode.c **** 
 491:Generated_Source\PSoC4/TimerTestMode.c ****     TimerTestMode_CONTROL_REG &= (uint32)~TimerTestMode_PWM_SYNC_KILL_MASK;
 492:Generated_Source\PSoC4/TimerTestMode.c ****     TimerTestMode_CONTROL_REG |= ((uint32)((syncKillEnable & TimerTestMode_1BIT_MASK)  <<
 493:Generated_Source\PSoC4/TimerTestMode.c ****                                                TimerTestMode_PWM_SYNC_KILL_SHIFT));
 494:Generated_Source\PSoC4/TimerTestMode.c **** 
 495:Generated_Source\PSoC4/TimerTestMode.c ****     CyExitCriticalSection(enableInterrupts);
 496:Generated_Source\PSoC4/TimerTestMode.c **** }
 497:Generated_Source\PSoC4/TimerTestMode.c **** 
 498:Generated_Source\PSoC4/TimerTestMode.c **** 
 499:Generated_Source\PSoC4/TimerTestMode.c **** /*******************************************************************************
 500:Generated_Source\PSoC4/TimerTestMode.c **** * Function Name: TimerTestMode_SetPWMStopOnKill
 501:Generated_Source\PSoC4/TimerTestMode.c **** ********************************************************************************
 502:Generated_Source\PSoC4/TimerTestMode.c **** *
 503:Generated_Source\PSoC4/TimerTestMode.c **** * Summary:
 504:Generated_Source\PSoC4/TimerTestMode.c **** *  Writes the register that controls whether the PWM kill signal (stop input)
 505:Generated_Source\PSoC4/TimerTestMode.c **** *  causes the PWM counter to stop.  By default the kill operation does not stop
 506:Generated_Source\PSoC4/TimerTestMode.c **** *  the counter.  This functionality is only applicable to the three PWM modes.
 507:Generated_Source\PSoC4/TimerTestMode.c **** *
 508:Generated_Source\PSoC4/TimerTestMode.c **** *
 509:Generated_Source\PSoC4/TimerTestMode.c **** * Parameters:
 510:Generated_Source\PSoC4/TimerTestMode.c **** *  stopOnKillEnable
 511:Generated_Source\PSoC4/TimerTestMode.c **** *   Values:
 512:Generated_Source\PSoC4/TimerTestMode.c **** *     - 0 - Don't stop
 513:Generated_Source\PSoC4/TimerTestMode.c **** *     - 1 - Stop
 514:Generated_Source\PSoC4/TimerTestMode.c **** *
 515:Generated_Source\PSoC4/TimerTestMode.c **** * Return:
 516:Generated_Source\PSoC4/TimerTestMode.c **** *  None
 517:Generated_Source\PSoC4/TimerTestMode.c **** *
 518:Generated_Source\PSoC4/TimerTestMode.c **** *******************************************************************************/
 519:Generated_Source\PSoC4/TimerTestMode.c **** void TimerTestMode_SetPWMStopOnKill(uint32 stopOnKillEnable)
 520:Generated_Source\PSoC4/TimerTestMode.c **** {
 521:Generated_Source\PSoC4/TimerTestMode.c ****     uint8 enableInterrupts;
 522:Generated_Source\PSoC4/TimerTestMode.c **** 
 523:Generated_Source\PSoC4/TimerTestMode.c ****     enableInterrupts = CyEnterCriticalSection();
 524:Generated_Source\PSoC4/TimerTestMode.c **** 
 525:Generated_Source\PSoC4/TimerTestMode.c ****     TimerTestMode_CONTROL_REG &= (uint32)~TimerTestMode_PWM_STOP_KILL_MASK;
 526:Generated_Source\PSoC4/TimerTestMode.c ****     TimerTestMode_CONTROL_REG |= ((uint32)((stopOnKillEnable & TimerTestMode_1BIT_MASK)  <<
 527:Generated_Source\PSoC4/TimerTestMode.c ****                                                          TimerTestMode_PWM_STOP_KILL_SHIFT));
ARM GAS  C:\Users\Petro\AppData\Local\Temp\ccpWYAL3.s 			page 11


 528:Generated_Source\PSoC4/TimerTestMode.c **** 
 529:Generated_Source\PSoC4/TimerTestMode.c ****     CyExitCriticalSection(enableInterrupts);
 530:Generated_Source\PSoC4/TimerTestMode.c **** }
 531:Generated_Source\PSoC4/TimerTestMode.c **** 
 532:Generated_Source\PSoC4/TimerTestMode.c **** 
 533:Generated_Source\PSoC4/TimerTestMode.c **** /*******************************************************************************
 534:Generated_Source\PSoC4/TimerTestMode.c **** * Function Name: TimerTestMode_SetPWMDeadTime
 535:Generated_Source\PSoC4/TimerTestMode.c **** ********************************************************************************
 536:Generated_Source\PSoC4/TimerTestMode.c **** *
 537:Generated_Source\PSoC4/TimerTestMode.c **** * Summary:
 538:Generated_Source\PSoC4/TimerTestMode.c **** *  Writes the dead time control value.  This value delays the rising edge of
 539:Generated_Source\PSoC4/TimerTestMode.c **** *  both the line and line_n signals the designated number of cycles resulting
 540:Generated_Source\PSoC4/TimerTestMode.c **** *  in both signals being inactive for that many cycles.  This functionality is
 541:Generated_Source\PSoC4/TimerTestMode.c **** *  only applicable to the PWM in the dead time mode.
 542:Generated_Source\PSoC4/TimerTestMode.c **** 
 543:Generated_Source\PSoC4/TimerTestMode.c **** *
 544:Generated_Source\PSoC4/TimerTestMode.c **** * Parameters:
 545:Generated_Source\PSoC4/TimerTestMode.c **** *  Dead time to insert
 546:Generated_Source\PSoC4/TimerTestMode.c **** *   Values: 0 to 255
 547:Generated_Source\PSoC4/TimerTestMode.c **** *
 548:Generated_Source\PSoC4/TimerTestMode.c **** * Return:
 549:Generated_Source\PSoC4/TimerTestMode.c **** *  None
 550:Generated_Source\PSoC4/TimerTestMode.c **** *
 551:Generated_Source\PSoC4/TimerTestMode.c **** *******************************************************************************/
 552:Generated_Source\PSoC4/TimerTestMode.c **** void TimerTestMode_SetPWMDeadTime(uint32 deadTime)
 553:Generated_Source\PSoC4/TimerTestMode.c **** {
 554:Generated_Source\PSoC4/TimerTestMode.c ****     uint8 enableInterrupts;
 555:Generated_Source\PSoC4/TimerTestMode.c **** 
 556:Generated_Source\PSoC4/TimerTestMode.c ****     enableInterrupts = CyEnterCriticalSection();
 557:Generated_Source\PSoC4/TimerTestMode.c **** 
 558:Generated_Source\PSoC4/TimerTestMode.c ****     TimerTestMode_CONTROL_REG &= (uint32)~TimerTestMode_PRESCALER_MASK;
 559:Generated_Source\PSoC4/TimerTestMode.c ****     TimerTestMode_CONTROL_REG |= ((uint32)((deadTime & TimerTestMode_8BIT_MASK) <<
 560:Generated_Source\PSoC4/TimerTestMode.c ****                                                           TimerTestMode_PRESCALER_SHIFT));
 561:Generated_Source\PSoC4/TimerTestMode.c **** 
 562:Generated_Source\PSoC4/TimerTestMode.c ****     CyExitCriticalSection(enableInterrupts);
 563:Generated_Source\PSoC4/TimerTestMode.c **** }
 564:Generated_Source\PSoC4/TimerTestMode.c **** 
 565:Generated_Source\PSoC4/TimerTestMode.c **** 
 566:Generated_Source\PSoC4/TimerTestMode.c **** /*******************************************************************************
 567:Generated_Source\PSoC4/TimerTestMode.c **** * Function Name: TimerTestMode_SetPWMInvert
 568:Generated_Source\PSoC4/TimerTestMode.c **** ********************************************************************************
 569:Generated_Source\PSoC4/TimerTestMode.c **** *
 570:Generated_Source\PSoC4/TimerTestMode.c **** * Summary:
 571:Generated_Source\PSoC4/TimerTestMode.c **** *  Writes the bits that control whether the line and line_n outputs are
 572:Generated_Source\PSoC4/TimerTestMode.c **** *  inverted from their normal output values.  This functionality is only
 573:Generated_Source\PSoC4/TimerTestMode.c **** *  applicable to the three PWM modes.
 574:Generated_Source\PSoC4/TimerTestMode.c **** *
 575:Generated_Source\PSoC4/TimerTestMode.c **** * Parameters:
 576:Generated_Source\PSoC4/TimerTestMode.c **** *  mask: Mask of outputs to invert.
 577:Generated_Source\PSoC4/TimerTestMode.c **** *   Values:
 578:Generated_Source\PSoC4/TimerTestMode.c **** *         - TimerTestMode_INVERT_LINE   - Inverts the line output
 579:Generated_Source\PSoC4/TimerTestMode.c **** *         - TimerTestMode_INVERT_LINE_N - Inverts the line_n output
 580:Generated_Source\PSoC4/TimerTestMode.c **** *
 581:Generated_Source\PSoC4/TimerTestMode.c **** * Return:
 582:Generated_Source\PSoC4/TimerTestMode.c **** *  None
 583:Generated_Source\PSoC4/TimerTestMode.c **** *
 584:Generated_Source\PSoC4/TimerTestMode.c **** *******************************************************************************/
ARM GAS  C:\Users\Petro\AppData\Local\Temp\ccpWYAL3.s 			page 12


 585:Generated_Source\PSoC4/TimerTestMode.c **** void TimerTestMode_SetPWMInvert(uint32 mask)
 586:Generated_Source\PSoC4/TimerTestMode.c **** {
 587:Generated_Source\PSoC4/TimerTestMode.c ****     uint8 enableInterrupts;
 588:Generated_Source\PSoC4/TimerTestMode.c **** 
 589:Generated_Source\PSoC4/TimerTestMode.c ****     enableInterrupts = CyEnterCriticalSection();
 590:Generated_Source\PSoC4/TimerTestMode.c **** 
 591:Generated_Source\PSoC4/TimerTestMode.c ****     TimerTestMode_CONTROL_REG &= (uint32)~TimerTestMode_INV_OUT_MASK;
 592:Generated_Source\PSoC4/TimerTestMode.c ****     TimerTestMode_CONTROL_REG |= mask;
 593:Generated_Source\PSoC4/TimerTestMode.c **** 
 594:Generated_Source\PSoC4/TimerTestMode.c ****     CyExitCriticalSection(enableInterrupts);
 595:Generated_Source\PSoC4/TimerTestMode.c **** }
 596:Generated_Source\PSoC4/TimerTestMode.c **** 
 597:Generated_Source\PSoC4/TimerTestMode.c **** 
 598:Generated_Source\PSoC4/TimerTestMode.c **** 
 599:Generated_Source\PSoC4/TimerTestMode.c **** /*******************************************************************************
 600:Generated_Source\PSoC4/TimerTestMode.c **** * Function Name: TimerTestMode_WriteCounter
 601:Generated_Source\PSoC4/TimerTestMode.c **** ********************************************************************************
 602:Generated_Source\PSoC4/TimerTestMode.c **** *
 603:Generated_Source\PSoC4/TimerTestMode.c **** * Summary:
 604:Generated_Source\PSoC4/TimerTestMode.c **** *  Writes a new 16bit counter value directly into the counter register, thus
 605:Generated_Source\PSoC4/TimerTestMode.c **** *  setting the counter (not the period) to the value written. It is not
 606:Generated_Source\PSoC4/TimerTestMode.c **** *  advised to write to this field when the counter is running.
 607:Generated_Source\PSoC4/TimerTestMode.c **** *
 608:Generated_Source\PSoC4/TimerTestMode.c **** * Parameters:
 609:Generated_Source\PSoC4/TimerTestMode.c **** *  count: value to write
 610:Generated_Source\PSoC4/TimerTestMode.c **** *
 611:Generated_Source\PSoC4/TimerTestMode.c **** * Return:
 612:Generated_Source\PSoC4/TimerTestMode.c **** *  None
 613:Generated_Source\PSoC4/TimerTestMode.c **** *
 614:Generated_Source\PSoC4/TimerTestMode.c **** *******************************************************************************/
 615:Generated_Source\PSoC4/TimerTestMode.c **** void TimerTestMode_WriteCounter(uint32 count)
 616:Generated_Source\PSoC4/TimerTestMode.c **** {
 617:Generated_Source\PSoC4/TimerTestMode.c ****     TimerTestMode_COUNTER_REG = (count & TimerTestMode_16BIT_MASK);
 618:Generated_Source\PSoC4/TimerTestMode.c **** }
 619:Generated_Source\PSoC4/TimerTestMode.c **** 
 620:Generated_Source\PSoC4/TimerTestMode.c **** 
 621:Generated_Source\PSoC4/TimerTestMode.c **** /*******************************************************************************
 622:Generated_Source\PSoC4/TimerTestMode.c **** * Function Name: TimerTestMode_ReadCounter
 623:Generated_Source\PSoC4/TimerTestMode.c **** ********************************************************************************
 624:Generated_Source\PSoC4/TimerTestMode.c **** *
 625:Generated_Source\PSoC4/TimerTestMode.c **** * Summary:
 626:Generated_Source\PSoC4/TimerTestMode.c **** *  Reads the current counter value.
 627:Generated_Source\PSoC4/TimerTestMode.c **** *
 628:Generated_Source\PSoC4/TimerTestMode.c **** * Parameters:
 629:Generated_Source\PSoC4/TimerTestMode.c **** *  None
 630:Generated_Source\PSoC4/TimerTestMode.c **** *
 631:Generated_Source\PSoC4/TimerTestMode.c **** * Return:
 632:Generated_Source\PSoC4/TimerTestMode.c **** *  Current counter value
 633:Generated_Source\PSoC4/TimerTestMode.c **** *
 634:Generated_Source\PSoC4/TimerTestMode.c **** *******************************************************************************/
 635:Generated_Source\PSoC4/TimerTestMode.c **** uint32 TimerTestMode_ReadCounter(void)
 636:Generated_Source\PSoC4/TimerTestMode.c **** {
 637:Generated_Source\PSoC4/TimerTestMode.c ****     return (TimerTestMode_COUNTER_REG & TimerTestMode_16BIT_MASK);
 638:Generated_Source\PSoC4/TimerTestMode.c **** }
 639:Generated_Source\PSoC4/TimerTestMode.c **** 
 640:Generated_Source\PSoC4/TimerTestMode.c **** 
 641:Generated_Source\PSoC4/TimerTestMode.c **** /*******************************************************************************
ARM GAS  C:\Users\Petro\AppData\Local\Temp\ccpWYAL3.s 			page 13


 642:Generated_Source\PSoC4/TimerTestMode.c **** * Function Name: TimerTestMode_SetCounterMode
 643:Generated_Source\PSoC4/TimerTestMode.c **** ********************************************************************************
 644:Generated_Source\PSoC4/TimerTestMode.c **** *
 645:Generated_Source\PSoC4/TimerTestMode.c **** * Summary:
 646:Generated_Source\PSoC4/TimerTestMode.c **** *  Sets the counter mode.  Applicable to all modes except Quadrature Decoder
 647:Generated_Source\PSoC4/TimerTestMode.c **** *  and the PWM with a pseudo random output.
 648:Generated_Source\PSoC4/TimerTestMode.c **** *
 649:Generated_Source\PSoC4/TimerTestMode.c **** * Parameters:
 650:Generated_Source\PSoC4/TimerTestMode.c **** *  counterMode: Enumerated counter type values
 651:Generated_Source\PSoC4/TimerTestMode.c **** *   Values:
 652:Generated_Source\PSoC4/TimerTestMode.c **** *     - TimerTestMode_COUNT_UP       - Counts up
 653:Generated_Source\PSoC4/TimerTestMode.c **** *     - TimerTestMode_COUNT_DOWN     - Counts down
 654:Generated_Source\PSoC4/TimerTestMode.c **** *     - TimerTestMode_COUNT_UPDOWN0  - Counts up and down. Terminal count
 655:Generated_Source\PSoC4/TimerTestMode.c **** *                                         generated when counter reaches 0
 656:Generated_Source\PSoC4/TimerTestMode.c **** *     - TimerTestMode_COUNT_UPDOWN1  - Counts up and down. Terminal count
 657:Generated_Source\PSoC4/TimerTestMode.c **** *                                         generated both when counter reaches 0
 658:Generated_Source\PSoC4/TimerTestMode.c **** *                                         and period
 659:Generated_Source\PSoC4/TimerTestMode.c **** *
 660:Generated_Source\PSoC4/TimerTestMode.c **** * Return:
 661:Generated_Source\PSoC4/TimerTestMode.c **** *  None
 662:Generated_Source\PSoC4/TimerTestMode.c **** *
 663:Generated_Source\PSoC4/TimerTestMode.c **** *******************************************************************************/
 664:Generated_Source\PSoC4/TimerTestMode.c **** void TimerTestMode_SetCounterMode(uint32 counterMode)
 665:Generated_Source\PSoC4/TimerTestMode.c **** {
 666:Generated_Source\PSoC4/TimerTestMode.c ****     uint8 enableInterrupts;
 667:Generated_Source\PSoC4/TimerTestMode.c **** 
 668:Generated_Source\PSoC4/TimerTestMode.c ****     enableInterrupts = CyEnterCriticalSection();
 669:Generated_Source\PSoC4/TimerTestMode.c **** 
 670:Generated_Source\PSoC4/TimerTestMode.c ****     TimerTestMode_CONTROL_REG &= (uint32)~TimerTestMode_UPDOWN_MASK;
 671:Generated_Source\PSoC4/TimerTestMode.c ****     TimerTestMode_CONTROL_REG |= counterMode;
 672:Generated_Source\PSoC4/TimerTestMode.c **** 
 673:Generated_Source\PSoC4/TimerTestMode.c ****     CyExitCriticalSection(enableInterrupts);
 674:Generated_Source\PSoC4/TimerTestMode.c **** }
 675:Generated_Source\PSoC4/TimerTestMode.c **** 
 676:Generated_Source\PSoC4/TimerTestMode.c **** 
 677:Generated_Source\PSoC4/TimerTestMode.c **** /*******************************************************************************
 678:Generated_Source\PSoC4/TimerTestMode.c **** * Function Name: TimerTestMode_WritePeriod
 679:Generated_Source\PSoC4/TimerTestMode.c **** ********************************************************************************
 680:Generated_Source\PSoC4/TimerTestMode.c **** *
 681:Generated_Source\PSoC4/TimerTestMode.c **** * Summary:
 682:Generated_Source\PSoC4/TimerTestMode.c **** *  Writes the 16 bit period register with the new period value.
 683:Generated_Source\PSoC4/TimerTestMode.c **** *  To cause the counter to count for N cycles this register should be written
 684:Generated_Source\PSoC4/TimerTestMode.c **** *  with N-1 (counts from 0 to period inclusive).
 685:Generated_Source\PSoC4/TimerTestMode.c **** *
 686:Generated_Source\PSoC4/TimerTestMode.c **** * Parameters:
 687:Generated_Source\PSoC4/TimerTestMode.c **** *  period: Period value
 688:Generated_Source\PSoC4/TimerTestMode.c **** *
 689:Generated_Source\PSoC4/TimerTestMode.c **** * Return:
 690:Generated_Source\PSoC4/TimerTestMode.c **** *  None
 691:Generated_Source\PSoC4/TimerTestMode.c **** *
 692:Generated_Source\PSoC4/TimerTestMode.c **** *******************************************************************************/
 693:Generated_Source\PSoC4/TimerTestMode.c **** void TimerTestMode_WritePeriod(uint32 period)
 694:Generated_Source\PSoC4/TimerTestMode.c **** {
 695:Generated_Source\PSoC4/TimerTestMode.c ****     TimerTestMode_PERIOD_REG = (period & TimerTestMode_16BIT_MASK);
 696:Generated_Source\PSoC4/TimerTestMode.c **** }
 697:Generated_Source\PSoC4/TimerTestMode.c **** 
 698:Generated_Source\PSoC4/TimerTestMode.c **** 
ARM GAS  C:\Users\Petro\AppData\Local\Temp\ccpWYAL3.s 			page 14


 699:Generated_Source\PSoC4/TimerTestMode.c **** /*******************************************************************************
 700:Generated_Source\PSoC4/TimerTestMode.c **** * Function Name: TimerTestMode_ReadPeriod
 701:Generated_Source\PSoC4/TimerTestMode.c **** ********************************************************************************
 702:Generated_Source\PSoC4/TimerTestMode.c **** *
 703:Generated_Source\PSoC4/TimerTestMode.c **** * Summary:
 704:Generated_Source\PSoC4/TimerTestMode.c **** *  Reads the 16 bit period register.
 705:Generated_Source\PSoC4/TimerTestMode.c **** *
 706:Generated_Source\PSoC4/TimerTestMode.c **** * Parameters:
 707:Generated_Source\PSoC4/TimerTestMode.c **** *  None
 708:Generated_Source\PSoC4/TimerTestMode.c **** *
 709:Generated_Source\PSoC4/TimerTestMode.c **** * Return:
 710:Generated_Source\PSoC4/TimerTestMode.c **** *  Period value
 711:Generated_Source\PSoC4/TimerTestMode.c **** *
 712:Generated_Source\PSoC4/TimerTestMode.c **** *******************************************************************************/
 713:Generated_Source\PSoC4/TimerTestMode.c **** uint32 TimerTestMode_ReadPeriod(void)
 714:Generated_Source\PSoC4/TimerTestMode.c **** {
 715:Generated_Source\PSoC4/TimerTestMode.c ****     return (TimerTestMode_PERIOD_REG & TimerTestMode_16BIT_MASK);
 716:Generated_Source\PSoC4/TimerTestMode.c **** }
 717:Generated_Source\PSoC4/TimerTestMode.c **** 
 718:Generated_Source\PSoC4/TimerTestMode.c **** 
 719:Generated_Source\PSoC4/TimerTestMode.c **** /*******************************************************************************
 720:Generated_Source\PSoC4/TimerTestMode.c **** * Function Name: TimerTestMode_SetCompareSwap
 721:Generated_Source\PSoC4/TimerTestMode.c **** ********************************************************************************
 722:Generated_Source\PSoC4/TimerTestMode.c **** *
 723:Generated_Source\PSoC4/TimerTestMode.c **** * Summary:
 724:Generated_Source\PSoC4/TimerTestMode.c **** *  Writes the register that controls whether the compare registers are
 725:Generated_Source\PSoC4/TimerTestMode.c **** *  swapped. When enabled in the Timer/Counter mode(without capture) the swap
 726:Generated_Source\PSoC4/TimerTestMode.c **** *  occurs at a TC event. In the PWM mode the swap occurs at the next TC event
 727:Generated_Source\PSoC4/TimerTestMode.c **** *  following a hardware switch event.
 728:Generated_Source\PSoC4/TimerTestMode.c **** *
 729:Generated_Source\PSoC4/TimerTestMode.c **** * Parameters:
 730:Generated_Source\PSoC4/TimerTestMode.c **** *  swapEnable
 731:Generated_Source\PSoC4/TimerTestMode.c **** *   Values:
 732:Generated_Source\PSoC4/TimerTestMode.c **** *     - 0 - Disable swap
 733:Generated_Source\PSoC4/TimerTestMode.c **** *     - 1 - Enable swap
 734:Generated_Source\PSoC4/TimerTestMode.c **** *
 735:Generated_Source\PSoC4/TimerTestMode.c **** * Return:
 736:Generated_Source\PSoC4/TimerTestMode.c **** *  None
 737:Generated_Source\PSoC4/TimerTestMode.c **** *
 738:Generated_Source\PSoC4/TimerTestMode.c **** *******************************************************************************/
 739:Generated_Source\PSoC4/TimerTestMode.c **** void TimerTestMode_SetCompareSwap(uint32 swapEnable)
 740:Generated_Source\PSoC4/TimerTestMode.c **** {
 741:Generated_Source\PSoC4/TimerTestMode.c ****     uint8 enableInterrupts;
 742:Generated_Source\PSoC4/TimerTestMode.c **** 
 743:Generated_Source\PSoC4/TimerTestMode.c ****     enableInterrupts = CyEnterCriticalSection();
 744:Generated_Source\PSoC4/TimerTestMode.c **** 
 745:Generated_Source\PSoC4/TimerTestMode.c ****     TimerTestMode_CONTROL_REG &= (uint32)~TimerTestMode_RELOAD_CC_MASK;
 746:Generated_Source\PSoC4/TimerTestMode.c ****     TimerTestMode_CONTROL_REG |= (swapEnable & TimerTestMode_1BIT_MASK);
 747:Generated_Source\PSoC4/TimerTestMode.c **** 
 748:Generated_Source\PSoC4/TimerTestMode.c ****     CyExitCriticalSection(enableInterrupts);
 749:Generated_Source\PSoC4/TimerTestMode.c **** }
 750:Generated_Source\PSoC4/TimerTestMode.c **** 
 751:Generated_Source\PSoC4/TimerTestMode.c **** 
 752:Generated_Source\PSoC4/TimerTestMode.c **** /*******************************************************************************
 753:Generated_Source\PSoC4/TimerTestMode.c **** * Function Name: TimerTestMode_WritePeriodBuf
 754:Generated_Source\PSoC4/TimerTestMode.c **** ********************************************************************************
 755:Generated_Source\PSoC4/TimerTestMode.c **** *
ARM GAS  C:\Users\Petro\AppData\Local\Temp\ccpWYAL3.s 			page 15


 756:Generated_Source\PSoC4/TimerTestMode.c **** * Summary:
 757:Generated_Source\PSoC4/TimerTestMode.c **** *  Writes the 16 bit period buf register with the new period value.
 758:Generated_Source\PSoC4/TimerTestMode.c **** *
 759:Generated_Source\PSoC4/TimerTestMode.c **** * Parameters:
 760:Generated_Source\PSoC4/TimerTestMode.c **** *  periodBuf: Period value
 761:Generated_Source\PSoC4/TimerTestMode.c **** *
 762:Generated_Source\PSoC4/TimerTestMode.c **** * Return:
 763:Generated_Source\PSoC4/TimerTestMode.c **** *  None
 764:Generated_Source\PSoC4/TimerTestMode.c **** *
 765:Generated_Source\PSoC4/TimerTestMode.c **** *******************************************************************************/
 766:Generated_Source\PSoC4/TimerTestMode.c **** void TimerTestMode_WritePeriodBuf(uint32 periodBuf)
 767:Generated_Source\PSoC4/TimerTestMode.c **** {
 768:Generated_Source\PSoC4/TimerTestMode.c ****     TimerTestMode_PERIOD_BUF_REG = (periodBuf & TimerTestMode_16BIT_MASK);
 769:Generated_Source\PSoC4/TimerTestMode.c **** }
 770:Generated_Source\PSoC4/TimerTestMode.c **** 
 771:Generated_Source\PSoC4/TimerTestMode.c **** 
 772:Generated_Source\PSoC4/TimerTestMode.c **** /*******************************************************************************
 773:Generated_Source\PSoC4/TimerTestMode.c **** * Function Name: TimerTestMode_ReadPeriodBuf
 774:Generated_Source\PSoC4/TimerTestMode.c **** ********************************************************************************
 775:Generated_Source\PSoC4/TimerTestMode.c **** *
 776:Generated_Source\PSoC4/TimerTestMode.c **** * Summary:
 777:Generated_Source\PSoC4/TimerTestMode.c **** *  Reads the 16 bit period buf register.
 778:Generated_Source\PSoC4/TimerTestMode.c **** *
 779:Generated_Source\PSoC4/TimerTestMode.c **** * Parameters:
 780:Generated_Source\PSoC4/TimerTestMode.c **** *  None
 781:Generated_Source\PSoC4/TimerTestMode.c **** *
 782:Generated_Source\PSoC4/TimerTestMode.c **** * Return:
 783:Generated_Source\PSoC4/TimerTestMode.c **** *  Period value
 784:Generated_Source\PSoC4/TimerTestMode.c **** *
 785:Generated_Source\PSoC4/TimerTestMode.c **** *******************************************************************************/
 786:Generated_Source\PSoC4/TimerTestMode.c **** uint32 TimerTestMode_ReadPeriodBuf(void)
 787:Generated_Source\PSoC4/TimerTestMode.c **** {
 788:Generated_Source\PSoC4/TimerTestMode.c ****     return (TimerTestMode_PERIOD_BUF_REG & TimerTestMode_16BIT_MASK);
 789:Generated_Source\PSoC4/TimerTestMode.c **** }
 790:Generated_Source\PSoC4/TimerTestMode.c **** 
 791:Generated_Source\PSoC4/TimerTestMode.c **** 
 792:Generated_Source\PSoC4/TimerTestMode.c **** /*******************************************************************************
 793:Generated_Source\PSoC4/TimerTestMode.c **** * Function Name: TimerTestMode_SetPeriodSwap
 794:Generated_Source\PSoC4/TimerTestMode.c **** ********************************************************************************
 795:Generated_Source\PSoC4/TimerTestMode.c **** *
 796:Generated_Source\PSoC4/TimerTestMode.c **** * Summary:
 797:Generated_Source\PSoC4/TimerTestMode.c **** *  Writes the register that controls whether the period registers are
 798:Generated_Source\PSoC4/TimerTestMode.c **** *  swapped. When enabled in Timer/Counter mode the swap occurs at a TC event.
 799:Generated_Source\PSoC4/TimerTestMode.c **** *  In the PWM mode the swap occurs at the next TC event following a hardware
 800:Generated_Source\PSoC4/TimerTestMode.c **** *  switch event.
 801:Generated_Source\PSoC4/TimerTestMode.c **** *
 802:Generated_Source\PSoC4/TimerTestMode.c **** * Parameters:
 803:Generated_Source\PSoC4/TimerTestMode.c **** *  swapEnable
 804:Generated_Source\PSoC4/TimerTestMode.c **** *   Values:
 805:Generated_Source\PSoC4/TimerTestMode.c **** *     - 0 - Disable swap
 806:Generated_Source\PSoC4/TimerTestMode.c **** *     - 1 - Enable swap
 807:Generated_Source\PSoC4/TimerTestMode.c **** *
 808:Generated_Source\PSoC4/TimerTestMode.c **** * Return:
 809:Generated_Source\PSoC4/TimerTestMode.c **** *  None
 810:Generated_Source\PSoC4/TimerTestMode.c **** *
 811:Generated_Source\PSoC4/TimerTestMode.c **** *******************************************************************************/
 812:Generated_Source\PSoC4/TimerTestMode.c **** void TimerTestMode_SetPeriodSwap(uint32 swapEnable)
ARM GAS  C:\Users\Petro\AppData\Local\Temp\ccpWYAL3.s 			page 16


 813:Generated_Source\PSoC4/TimerTestMode.c **** {
 814:Generated_Source\PSoC4/TimerTestMode.c ****     uint8 enableInterrupts;
 815:Generated_Source\PSoC4/TimerTestMode.c **** 
 816:Generated_Source\PSoC4/TimerTestMode.c ****     enableInterrupts = CyEnterCriticalSection();
 817:Generated_Source\PSoC4/TimerTestMode.c **** 
 818:Generated_Source\PSoC4/TimerTestMode.c ****     TimerTestMode_CONTROL_REG &= (uint32)~TimerTestMode_RELOAD_PERIOD_MASK;
 819:Generated_Source\PSoC4/TimerTestMode.c ****     TimerTestMode_CONTROL_REG |= ((uint32)((swapEnable & TimerTestMode_1BIT_MASK) <<
 820:Generated_Source\PSoC4/TimerTestMode.c ****                                                             TimerTestMode_RELOAD_PERIOD_SHIFT));
 821:Generated_Source\PSoC4/TimerTestMode.c **** 
 822:Generated_Source\PSoC4/TimerTestMode.c ****     CyExitCriticalSection(enableInterrupts);
 823:Generated_Source\PSoC4/TimerTestMode.c **** }
 824:Generated_Source\PSoC4/TimerTestMode.c **** 
 825:Generated_Source\PSoC4/TimerTestMode.c **** 
 826:Generated_Source\PSoC4/TimerTestMode.c **** /*******************************************************************************
 827:Generated_Source\PSoC4/TimerTestMode.c **** * Function Name: TimerTestMode_WriteCompare
 828:Generated_Source\PSoC4/TimerTestMode.c **** ********************************************************************************
 829:Generated_Source\PSoC4/TimerTestMode.c **** *
 830:Generated_Source\PSoC4/TimerTestMode.c **** * Summary:
 831:Generated_Source\PSoC4/TimerTestMode.c **** *  Writes the 16 bit compare register with the new compare value. Not
 832:Generated_Source\PSoC4/TimerTestMode.c **** *  applicable for Timer/Counter with Capture or in Quadrature Decoder modes.
 833:Generated_Source\PSoC4/TimerTestMode.c **** *
 834:Generated_Source\PSoC4/TimerTestMode.c **** * Parameters:
 835:Generated_Source\PSoC4/TimerTestMode.c **** *  compare: Compare value
 836:Generated_Source\PSoC4/TimerTestMode.c **** *
 837:Generated_Source\PSoC4/TimerTestMode.c **** * Return:
 838:Generated_Source\PSoC4/TimerTestMode.c **** *  None
 839:Generated_Source\PSoC4/TimerTestMode.c **** *
 840:Generated_Source\PSoC4/TimerTestMode.c **** * Note:
 841:Generated_Source\PSoC4/TimerTestMode.c **** *  It is not recommended to use the value equal to "0" or equal to 
 842:Generated_Source\PSoC4/TimerTestMode.c **** *  "period value" in Center or Asymmetric align PWM modes on the 
 843:Generated_Source\PSoC4/TimerTestMode.c **** *  PSoC 4100/PSoC 4200 devices.
 844:Generated_Source\PSoC4/TimerTestMode.c **** *  PSoC 4000 devices write the 16 bit compare register with the decremented 
 845:Generated_Source\PSoC4/TimerTestMode.c **** *  compare value in the Up counting mode (except 0x0u), and the incremented 
 846:Generated_Source\PSoC4/TimerTestMode.c **** *  compare value in the Down counting mode (except 0xFFFFu).
 847:Generated_Source\PSoC4/TimerTestMode.c **** *
 848:Generated_Source\PSoC4/TimerTestMode.c **** *******************************************************************************/
 849:Generated_Source\PSoC4/TimerTestMode.c **** void TimerTestMode_WriteCompare(uint32 compare)
 850:Generated_Source\PSoC4/TimerTestMode.c **** {
 851:Generated_Source\PSoC4/TimerTestMode.c ****     #if (TimerTestMode_CY_TCPWM_4000)
 852:Generated_Source\PSoC4/TimerTestMode.c ****         uint32 currentMode;
 853:Generated_Source\PSoC4/TimerTestMode.c ****     #endif /* (TimerTestMode_CY_TCPWM_4000) */
 854:Generated_Source\PSoC4/TimerTestMode.c **** 
 855:Generated_Source\PSoC4/TimerTestMode.c ****     #if (TimerTestMode_CY_TCPWM_4000)
 856:Generated_Source\PSoC4/TimerTestMode.c ****         currentMode = ((TimerTestMode_CONTROL_REG & TimerTestMode_UPDOWN_MASK) >> TimerTestMode_UPD
 857:Generated_Source\PSoC4/TimerTestMode.c **** 
 858:Generated_Source\PSoC4/TimerTestMode.c ****         if (((uint32)TimerTestMode__COUNT_DOWN == currentMode) && (0xFFFFu != compare))
 859:Generated_Source\PSoC4/TimerTestMode.c ****         {
 860:Generated_Source\PSoC4/TimerTestMode.c ****             compare++;
 861:Generated_Source\PSoC4/TimerTestMode.c ****         }
 862:Generated_Source\PSoC4/TimerTestMode.c ****         else if (((uint32)TimerTestMode__COUNT_UP == currentMode) && (0u != compare))
 863:Generated_Source\PSoC4/TimerTestMode.c ****         {
 864:Generated_Source\PSoC4/TimerTestMode.c ****             compare--;
 865:Generated_Source\PSoC4/TimerTestMode.c ****         }
 866:Generated_Source\PSoC4/TimerTestMode.c ****         else
 867:Generated_Source\PSoC4/TimerTestMode.c ****         {
 868:Generated_Source\PSoC4/TimerTestMode.c ****         }
 869:Generated_Source\PSoC4/TimerTestMode.c ****         
ARM GAS  C:\Users\Petro\AppData\Local\Temp\ccpWYAL3.s 			page 17


 870:Generated_Source\PSoC4/TimerTestMode.c ****     
 871:Generated_Source\PSoC4/TimerTestMode.c ****     #endif /* (TimerTestMode_CY_TCPWM_4000) */
 872:Generated_Source\PSoC4/TimerTestMode.c ****     
 873:Generated_Source\PSoC4/TimerTestMode.c ****     TimerTestMode_COMP_CAP_REG = (compare & TimerTestMode_16BIT_MASK);
 874:Generated_Source\PSoC4/TimerTestMode.c **** }
 875:Generated_Source\PSoC4/TimerTestMode.c **** 
 876:Generated_Source\PSoC4/TimerTestMode.c **** 
 877:Generated_Source\PSoC4/TimerTestMode.c **** /*******************************************************************************
 878:Generated_Source\PSoC4/TimerTestMode.c **** * Function Name: TimerTestMode_ReadCompare
 879:Generated_Source\PSoC4/TimerTestMode.c **** ********************************************************************************
 880:Generated_Source\PSoC4/TimerTestMode.c **** *
 881:Generated_Source\PSoC4/TimerTestMode.c **** * Summary:
 882:Generated_Source\PSoC4/TimerTestMode.c **** *  Reads the compare register. Not applicable for Timer/Counter with Capture
 883:Generated_Source\PSoC4/TimerTestMode.c **** *  or in Quadrature Decoder modes.
 884:Generated_Source\PSoC4/TimerTestMode.c **** *  PSoC 4000 devices read the incremented compare register value in the 
 885:Generated_Source\PSoC4/TimerTestMode.c **** *  Up counting mode (except 0xFFFFu), and the decremented value in the 
 886:Generated_Source\PSoC4/TimerTestMode.c **** *  Down counting mode (except 0x0u).
 887:Generated_Source\PSoC4/TimerTestMode.c **** *
 888:Generated_Source\PSoC4/TimerTestMode.c **** * Parameters:
 889:Generated_Source\PSoC4/TimerTestMode.c **** *  None
 890:Generated_Source\PSoC4/TimerTestMode.c **** *
 891:Generated_Source\PSoC4/TimerTestMode.c **** * Return:
 892:Generated_Source\PSoC4/TimerTestMode.c **** *  Compare value
 893:Generated_Source\PSoC4/TimerTestMode.c **** *
 894:Generated_Source\PSoC4/TimerTestMode.c **** * Note:
 895:Generated_Source\PSoC4/TimerTestMode.c **** *  PSoC 4000 devices read the incremented compare register value in the 
 896:Generated_Source\PSoC4/TimerTestMode.c **** *  Up counting mode (except 0xFFFFu), and the decremented value in the 
 897:Generated_Source\PSoC4/TimerTestMode.c **** *  Down counting mode (except 0x0u).
 898:Generated_Source\PSoC4/TimerTestMode.c **** *
 899:Generated_Source\PSoC4/TimerTestMode.c **** *******************************************************************************/
 900:Generated_Source\PSoC4/TimerTestMode.c **** uint32 TimerTestMode_ReadCompare(void)
 901:Generated_Source\PSoC4/TimerTestMode.c **** {
 902:Generated_Source\PSoC4/TimerTestMode.c ****     #if (TimerTestMode_CY_TCPWM_4000)
 903:Generated_Source\PSoC4/TimerTestMode.c ****         uint32 currentMode;
 904:Generated_Source\PSoC4/TimerTestMode.c ****         uint32 regVal;
 905:Generated_Source\PSoC4/TimerTestMode.c ****     #endif /* (TimerTestMode_CY_TCPWM_4000) */
 906:Generated_Source\PSoC4/TimerTestMode.c **** 
 907:Generated_Source\PSoC4/TimerTestMode.c ****     #if (TimerTestMode_CY_TCPWM_4000)
 908:Generated_Source\PSoC4/TimerTestMode.c ****         currentMode = ((TimerTestMode_CONTROL_REG & TimerTestMode_UPDOWN_MASK) >> TimerTestMode_UPD
 909:Generated_Source\PSoC4/TimerTestMode.c ****         
 910:Generated_Source\PSoC4/TimerTestMode.c ****         regVal = TimerTestMode_COMP_CAP_REG;
 911:Generated_Source\PSoC4/TimerTestMode.c ****         
 912:Generated_Source\PSoC4/TimerTestMode.c ****         if (((uint32)TimerTestMode__COUNT_DOWN == currentMode) && (0u != regVal))
 913:Generated_Source\PSoC4/TimerTestMode.c ****         {
 914:Generated_Source\PSoC4/TimerTestMode.c ****             regVal--;
 915:Generated_Source\PSoC4/TimerTestMode.c ****         }
 916:Generated_Source\PSoC4/TimerTestMode.c ****         else if (((uint32)TimerTestMode__COUNT_UP == currentMode) && (0xFFFFu != regVal))
 917:Generated_Source\PSoC4/TimerTestMode.c ****         {
 918:Generated_Source\PSoC4/TimerTestMode.c ****             regVal++;
 919:Generated_Source\PSoC4/TimerTestMode.c ****         }
 920:Generated_Source\PSoC4/TimerTestMode.c ****         else
 921:Generated_Source\PSoC4/TimerTestMode.c ****         {
 922:Generated_Source\PSoC4/TimerTestMode.c ****         }
 923:Generated_Source\PSoC4/TimerTestMode.c **** 
 924:Generated_Source\PSoC4/TimerTestMode.c ****         return (regVal & TimerTestMode_16BIT_MASK);
 925:Generated_Source\PSoC4/TimerTestMode.c ****     #else
 926:Generated_Source\PSoC4/TimerTestMode.c ****         return (TimerTestMode_COMP_CAP_REG & TimerTestMode_16BIT_MASK);
ARM GAS  C:\Users\Petro\AppData\Local\Temp\ccpWYAL3.s 			page 18


 927:Generated_Source\PSoC4/TimerTestMode.c ****     #endif /* (TimerTestMode_CY_TCPWM_4000) */
 928:Generated_Source\PSoC4/TimerTestMode.c **** }
 929:Generated_Source\PSoC4/TimerTestMode.c **** 
 930:Generated_Source\PSoC4/TimerTestMode.c **** 
 931:Generated_Source\PSoC4/TimerTestMode.c **** /*******************************************************************************
 932:Generated_Source\PSoC4/TimerTestMode.c **** * Function Name: TimerTestMode_WriteCompareBuf
 933:Generated_Source\PSoC4/TimerTestMode.c **** ********************************************************************************
 934:Generated_Source\PSoC4/TimerTestMode.c **** *
 935:Generated_Source\PSoC4/TimerTestMode.c **** * Summary:
 936:Generated_Source\PSoC4/TimerTestMode.c **** *  Writes the 16 bit compare buffer register with the new compare value. Not
 937:Generated_Source\PSoC4/TimerTestMode.c **** *  applicable for Timer/Counter with Capture or in Quadrature Decoder modes.
 938:Generated_Source\PSoC4/TimerTestMode.c **** *
 939:Generated_Source\PSoC4/TimerTestMode.c **** * Parameters:
 940:Generated_Source\PSoC4/TimerTestMode.c **** *  compareBuf: Compare value
 941:Generated_Source\PSoC4/TimerTestMode.c **** *
 942:Generated_Source\PSoC4/TimerTestMode.c **** * Return:
 943:Generated_Source\PSoC4/TimerTestMode.c **** *  None
 944:Generated_Source\PSoC4/TimerTestMode.c **** *
 945:Generated_Source\PSoC4/TimerTestMode.c **** * Note:
 946:Generated_Source\PSoC4/TimerTestMode.c **** *  It is not recommended to use the value equal to "0" or equal to 
 947:Generated_Source\PSoC4/TimerTestMode.c **** *  "period value" in Center or Asymmetric align PWM modes on the 
 948:Generated_Source\PSoC4/TimerTestMode.c **** *  PSoC 4100/PSoC 4200 devices.
 949:Generated_Source\PSoC4/TimerTestMode.c **** *  PSoC 4000 devices write the 16 bit compare register with the decremented 
 950:Generated_Source\PSoC4/TimerTestMode.c **** *  compare value in the Up counting mode (except 0x0u), and the incremented 
 951:Generated_Source\PSoC4/TimerTestMode.c **** *  compare value in the Down counting mode (except 0xFFFFu).
 952:Generated_Source\PSoC4/TimerTestMode.c **** *
 953:Generated_Source\PSoC4/TimerTestMode.c **** *******************************************************************************/
 954:Generated_Source\PSoC4/TimerTestMode.c **** void TimerTestMode_WriteCompareBuf(uint32 compareBuf)
 955:Generated_Source\PSoC4/TimerTestMode.c **** {
 956:Generated_Source\PSoC4/TimerTestMode.c ****     #if (TimerTestMode_CY_TCPWM_4000)
 957:Generated_Source\PSoC4/TimerTestMode.c ****         uint32 currentMode;
 958:Generated_Source\PSoC4/TimerTestMode.c ****     #endif /* (TimerTestMode_CY_TCPWM_4000) */
 959:Generated_Source\PSoC4/TimerTestMode.c **** 
 960:Generated_Source\PSoC4/TimerTestMode.c ****     #if (TimerTestMode_CY_TCPWM_4000)
 961:Generated_Source\PSoC4/TimerTestMode.c ****         currentMode = ((TimerTestMode_CONTROL_REG & TimerTestMode_UPDOWN_MASK) >> TimerTestMode_UPD
 962:Generated_Source\PSoC4/TimerTestMode.c **** 
 963:Generated_Source\PSoC4/TimerTestMode.c ****         if (((uint32)TimerTestMode__COUNT_DOWN == currentMode) && (0xFFFFu != compareBuf))
 964:Generated_Source\PSoC4/TimerTestMode.c ****         {
 965:Generated_Source\PSoC4/TimerTestMode.c ****             compareBuf++;
 966:Generated_Source\PSoC4/TimerTestMode.c ****         }
 967:Generated_Source\PSoC4/TimerTestMode.c ****         else if (((uint32)TimerTestMode__COUNT_UP == currentMode) && (0u != compareBuf))
 968:Generated_Source\PSoC4/TimerTestMode.c ****         {
 969:Generated_Source\PSoC4/TimerTestMode.c ****             compareBuf --;
 970:Generated_Source\PSoC4/TimerTestMode.c ****         }
 971:Generated_Source\PSoC4/TimerTestMode.c ****         else
 972:Generated_Source\PSoC4/TimerTestMode.c ****         {
 973:Generated_Source\PSoC4/TimerTestMode.c ****         }
 974:Generated_Source\PSoC4/TimerTestMode.c ****     #endif /* (TimerTestMode_CY_TCPWM_4000) */
 975:Generated_Source\PSoC4/TimerTestMode.c ****     
 976:Generated_Source\PSoC4/TimerTestMode.c ****     TimerTestMode_COMP_CAP_BUF_REG = (compareBuf & TimerTestMode_16BIT_MASK);
 977:Generated_Source\PSoC4/TimerTestMode.c **** }
 978:Generated_Source\PSoC4/TimerTestMode.c **** 
 979:Generated_Source\PSoC4/TimerTestMode.c **** 
 980:Generated_Source\PSoC4/TimerTestMode.c **** /*******************************************************************************
 981:Generated_Source\PSoC4/TimerTestMode.c **** * Function Name: TimerTestMode_ReadCompareBuf
 982:Generated_Source\PSoC4/TimerTestMode.c **** ********************************************************************************
 983:Generated_Source\PSoC4/TimerTestMode.c **** *
ARM GAS  C:\Users\Petro\AppData\Local\Temp\ccpWYAL3.s 			page 19


 984:Generated_Source\PSoC4/TimerTestMode.c **** * Summary:
 985:Generated_Source\PSoC4/TimerTestMode.c **** *  Reads the compare buffer register. Not applicable for Timer/Counter with
 986:Generated_Source\PSoC4/TimerTestMode.c **** *  Capture or in Quadrature Decoder modes.
 987:Generated_Source\PSoC4/TimerTestMode.c **** *
 988:Generated_Source\PSoC4/TimerTestMode.c **** * Parameters:
 989:Generated_Source\PSoC4/TimerTestMode.c **** *  None
 990:Generated_Source\PSoC4/TimerTestMode.c **** *
 991:Generated_Source\PSoC4/TimerTestMode.c **** * Return:
 992:Generated_Source\PSoC4/TimerTestMode.c **** *  Compare buffer value
 993:Generated_Source\PSoC4/TimerTestMode.c **** *
 994:Generated_Source\PSoC4/TimerTestMode.c **** * Note:
 995:Generated_Source\PSoC4/TimerTestMode.c **** *  PSoC 4000 devices read the incremented compare register value in the 
 996:Generated_Source\PSoC4/TimerTestMode.c **** *  Up counting mode (except 0xFFFFu), and the decremented value in the 
 997:Generated_Source\PSoC4/TimerTestMode.c **** *  Down counting mode (except 0x0u).
 998:Generated_Source\PSoC4/TimerTestMode.c **** *
 999:Generated_Source\PSoC4/TimerTestMode.c **** *******************************************************************************/
1000:Generated_Source\PSoC4/TimerTestMode.c **** uint32 TimerTestMode_ReadCompareBuf(void)
1001:Generated_Source\PSoC4/TimerTestMode.c **** {
1002:Generated_Source\PSoC4/TimerTestMode.c ****     #if (TimerTestMode_CY_TCPWM_4000)
1003:Generated_Source\PSoC4/TimerTestMode.c ****         uint32 currentMode;
1004:Generated_Source\PSoC4/TimerTestMode.c ****         uint32 regVal;
1005:Generated_Source\PSoC4/TimerTestMode.c ****     #endif /* (TimerTestMode_CY_TCPWM_4000) */
1006:Generated_Source\PSoC4/TimerTestMode.c **** 
1007:Generated_Source\PSoC4/TimerTestMode.c ****     #if (TimerTestMode_CY_TCPWM_4000)
1008:Generated_Source\PSoC4/TimerTestMode.c ****         currentMode = ((TimerTestMode_CONTROL_REG & TimerTestMode_UPDOWN_MASK) >> TimerTestMode_UPD
1009:Generated_Source\PSoC4/TimerTestMode.c **** 
1010:Generated_Source\PSoC4/TimerTestMode.c ****         regVal = TimerTestMode_COMP_CAP_BUF_REG;
1011:Generated_Source\PSoC4/TimerTestMode.c ****         
1012:Generated_Source\PSoC4/TimerTestMode.c ****         if (((uint32)TimerTestMode__COUNT_DOWN == currentMode) && (0u != regVal))
1013:Generated_Source\PSoC4/TimerTestMode.c ****         {
1014:Generated_Source\PSoC4/TimerTestMode.c ****             regVal--;
1015:Generated_Source\PSoC4/TimerTestMode.c ****         }
1016:Generated_Source\PSoC4/TimerTestMode.c ****         else if (((uint32)TimerTestMode__COUNT_UP == currentMode) && (0xFFFFu != regVal))
1017:Generated_Source\PSoC4/TimerTestMode.c ****         {
1018:Generated_Source\PSoC4/TimerTestMode.c ****             regVal++;
1019:Generated_Source\PSoC4/TimerTestMode.c ****         }
1020:Generated_Source\PSoC4/TimerTestMode.c ****         else
1021:Generated_Source\PSoC4/TimerTestMode.c ****         {
1022:Generated_Source\PSoC4/TimerTestMode.c ****         }
1023:Generated_Source\PSoC4/TimerTestMode.c **** 
1024:Generated_Source\PSoC4/TimerTestMode.c ****         return (regVal & TimerTestMode_16BIT_MASK);
1025:Generated_Source\PSoC4/TimerTestMode.c ****     #else
1026:Generated_Source\PSoC4/TimerTestMode.c ****         return (TimerTestMode_COMP_CAP_BUF_REG & TimerTestMode_16BIT_MASK);
1027:Generated_Source\PSoC4/TimerTestMode.c ****     #endif /* (TimerTestMode_CY_TCPWM_4000) */
1028:Generated_Source\PSoC4/TimerTestMode.c **** }
1029:Generated_Source\PSoC4/TimerTestMode.c **** 
1030:Generated_Source\PSoC4/TimerTestMode.c **** 
1031:Generated_Source\PSoC4/TimerTestMode.c **** /*******************************************************************************
1032:Generated_Source\PSoC4/TimerTestMode.c **** * Function Name: TimerTestMode_ReadCapture
1033:Generated_Source\PSoC4/TimerTestMode.c **** ********************************************************************************
1034:Generated_Source\PSoC4/TimerTestMode.c **** *
1035:Generated_Source\PSoC4/TimerTestMode.c **** * Summary:
1036:Generated_Source\PSoC4/TimerTestMode.c **** *  Reads the captured counter value. This API is applicable only for
1037:Generated_Source\PSoC4/TimerTestMode.c **** *  Timer/Counter with the capture mode and Quadrature Decoder modes.
1038:Generated_Source\PSoC4/TimerTestMode.c **** *
1039:Generated_Source\PSoC4/TimerTestMode.c **** * Parameters:
1040:Generated_Source\PSoC4/TimerTestMode.c **** *  None
ARM GAS  C:\Users\Petro\AppData\Local\Temp\ccpWYAL3.s 			page 20


1041:Generated_Source\PSoC4/TimerTestMode.c **** *
1042:Generated_Source\PSoC4/TimerTestMode.c **** * Return:
1043:Generated_Source\PSoC4/TimerTestMode.c **** *  Capture value
1044:Generated_Source\PSoC4/TimerTestMode.c **** *
1045:Generated_Source\PSoC4/TimerTestMode.c **** *******************************************************************************/
1046:Generated_Source\PSoC4/TimerTestMode.c **** uint32 TimerTestMode_ReadCapture(void)
1047:Generated_Source\PSoC4/TimerTestMode.c **** {
1048:Generated_Source\PSoC4/TimerTestMode.c ****     return (TimerTestMode_COMP_CAP_REG & TimerTestMode_16BIT_MASK);
1049:Generated_Source\PSoC4/TimerTestMode.c **** }
1050:Generated_Source\PSoC4/TimerTestMode.c **** 
1051:Generated_Source\PSoC4/TimerTestMode.c **** 
1052:Generated_Source\PSoC4/TimerTestMode.c **** /*******************************************************************************
1053:Generated_Source\PSoC4/TimerTestMode.c **** * Function Name: TimerTestMode_ReadCaptureBuf
1054:Generated_Source\PSoC4/TimerTestMode.c **** ********************************************************************************
1055:Generated_Source\PSoC4/TimerTestMode.c **** *
1056:Generated_Source\PSoC4/TimerTestMode.c **** * Summary:
1057:Generated_Source\PSoC4/TimerTestMode.c **** *  Reads the capture buffer register. This API is applicable only for
1058:Generated_Source\PSoC4/TimerTestMode.c **** *  Timer/Counter with the capture mode and Quadrature Decoder modes.
1059:Generated_Source\PSoC4/TimerTestMode.c **** *
1060:Generated_Source\PSoC4/TimerTestMode.c **** * Parameters:
1061:Generated_Source\PSoC4/TimerTestMode.c **** *  None
1062:Generated_Source\PSoC4/TimerTestMode.c **** *
1063:Generated_Source\PSoC4/TimerTestMode.c **** * Return:
1064:Generated_Source\PSoC4/TimerTestMode.c **** *  Capture buffer value
1065:Generated_Source\PSoC4/TimerTestMode.c **** *
1066:Generated_Source\PSoC4/TimerTestMode.c **** *******************************************************************************/
1067:Generated_Source\PSoC4/TimerTestMode.c **** uint32 TimerTestMode_ReadCaptureBuf(void)
1068:Generated_Source\PSoC4/TimerTestMode.c **** {
1069:Generated_Source\PSoC4/TimerTestMode.c ****     return (TimerTestMode_COMP_CAP_BUF_REG & TimerTestMode_16BIT_MASK);
1070:Generated_Source\PSoC4/TimerTestMode.c **** }
1071:Generated_Source\PSoC4/TimerTestMode.c **** 
1072:Generated_Source\PSoC4/TimerTestMode.c **** 
1073:Generated_Source\PSoC4/TimerTestMode.c **** /*******************************************************************************
1074:Generated_Source\PSoC4/TimerTestMode.c **** * Function Name: TimerTestMode_SetCaptureMode
1075:Generated_Source\PSoC4/TimerTestMode.c **** ********************************************************************************
1076:Generated_Source\PSoC4/TimerTestMode.c **** *
1077:Generated_Source\PSoC4/TimerTestMode.c **** * Summary:
1078:Generated_Source\PSoC4/TimerTestMode.c **** *  Sets the capture trigger mode. For PWM mode this is the switch input.
1079:Generated_Source\PSoC4/TimerTestMode.c **** *  This input is not applicable to the Timer/Counter without Capture and
1080:Generated_Source\PSoC4/TimerTestMode.c **** *  Quadrature Decoder modes.
1081:Generated_Source\PSoC4/TimerTestMode.c **** *
1082:Generated_Source\PSoC4/TimerTestMode.c **** * Parameters:
1083:Generated_Source\PSoC4/TimerTestMode.c **** *  triggerMode: Enumerated trigger mode value
1084:Generated_Source\PSoC4/TimerTestMode.c **** *   Values:
1085:Generated_Source\PSoC4/TimerTestMode.c **** *     - TimerTestMode_TRIG_LEVEL     - Level
1086:Generated_Source\PSoC4/TimerTestMode.c **** *     - TimerTestMode_TRIG_RISING    - Rising edge
1087:Generated_Source\PSoC4/TimerTestMode.c **** *     - TimerTestMode_TRIG_FALLING   - Falling edge
1088:Generated_Source\PSoC4/TimerTestMode.c **** *     - TimerTestMode_TRIG_BOTH      - Both rising and falling edge
1089:Generated_Source\PSoC4/TimerTestMode.c **** *
1090:Generated_Source\PSoC4/TimerTestMode.c **** * Return:
1091:Generated_Source\PSoC4/TimerTestMode.c **** *  None
1092:Generated_Source\PSoC4/TimerTestMode.c **** *
1093:Generated_Source\PSoC4/TimerTestMode.c **** *******************************************************************************/
1094:Generated_Source\PSoC4/TimerTestMode.c **** void TimerTestMode_SetCaptureMode(uint32 triggerMode)
1095:Generated_Source\PSoC4/TimerTestMode.c **** {
1096:Generated_Source\PSoC4/TimerTestMode.c ****     uint8 enableInterrupts;
1097:Generated_Source\PSoC4/TimerTestMode.c **** 
ARM GAS  C:\Users\Petro\AppData\Local\Temp\ccpWYAL3.s 			page 21


1098:Generated_Source\PSoC4/TimerTestMode.c ****     enableInterrupts = CyEnterCriticalSection();
1099:Generated_Source\PSoC4/TimerTestMode.c **** 
1100:Generated_Source\PSoC4/TimerTestMode.c ****     TimerTestMode_TRIG_CONTROL1_REG &= (uint32)~TimerTestMode_CAPTURE_MASK;
1101:Generated_Source\PSoC4/TimerTestMode.c ****     TimerTestMode_TRIG_CONTROL1_REG |= triggerMode;
1102:Generated_Source\PSoC4/TimerTestMode.c **** 
1103:Generated_Source\PSoC4/TimerTestMode.c ****     CyExitCriticalSection(enableInterrupts);
1104:Generated_Source\PSoC4/TimerTestMode.c **** }
1105:Generated_Source\PSoC4/TimerTestMode.c **** 
1106:Generated_Source\PSoC4/TimerTestMode.c **** 
1107:Generated_Source\PSoC4/TimerTestMode.c **** /*******************************************************************************
1108:Generated_Source\PSoC4/TimerTestMode.c **** * Function Name: TimerTestMode_SetReloadMode
1109:Generated_Source\PSoC4/TimerTestMode.c **** ********************************************************************************
1110:Generated_Source\PSoC4/TimerTestMode.c **** *
1111:Generated_Source\PSoC4/TimerTestMode.c **** * Summary:
1112:Generated_Source\PSoC4/TimerTestMode.c **** *  Sets the reload trigger mode. For Quadrature Decoder mode this is the index
1113:Generated_Source\PSoC4/TimerTestMode.c **** *  input.
1114:Generated_Source\PSoC4/TimerTestMode.c **** *
1115:Generated_Source\PSoC4/TimerTestMode.c **** * Parameters:
1116:Generated_Source\PSoC4/TimerTestMode.c **** *  triggerMode: Enumerated trigger mode value
1117:Generated_Source\PSoC4/TimerTestMode.c **** *   Values:
1118:Generated_Source\PSoC4/TimerTestMode.c **** *     - TimerTestMode_TRIG_LEVEL     - Level
1119:Generated_Source\PSoC4/TimerTestMode.c **** *     - TimerTestMode_TRIG_RISING    - Rising edge
1120:Generated_Source\PSoC4/TimerTestMode.c **** *     - TimerTestMode_TRIG_FALLING   - Falling edge
1121:Generated_Source\PSoC4/TimerTestMode.c **** *     - TimerTestMode_TRIG_BOTH      - Both rising and falling edge
1122:Generated_Source\PSoC4/TimerTestMode.c **** *
1123:Generated_Source\PSoC4/TimerTestMode.c **** * Return:
1124:Generated_Source\PSoC4/TimerTestMode.c **** *  None
1125:Generated_Source\PSoC4/TimerTestMode.c **** *
1126:Generated_Source\PSoC4/TimerTestMode.c **** *******************************************************************************/
1127:Generated_Source\PSoC4/TimerTestMode.c **** void TimerTestMode_SetReloadMode(uint32 triggerMode)
1128:Generated_Source\PSoC4/TimerTestMode.c **** {
1129:Generated_Source\PSoC4/TimerTestMode.c ****     uint8 enableInterrupts;
1130:Generated_Source\PSoC4/TimerTestMode.c **** 
1131:Generated_Source\PSoC4/TimerTestMode.c ****     enableInterrupts = CyEnterCriticalSection();
1132:Generated_Source\PSoC4/TimerTestMode.c **** 
1133:Generated_Source\PSoC4/TimerTestMode.c ****     TimerTestMode_TRIG_CONTROL1_REG &= (uint32)~TimerTestMode_RELOAD_MASK;
1134:Generated_Source\PSoC4/TimerTestMode.c ****     TimerTestMode_TRIG_CONTROL1_REG |= ((uint32)(triggerMode << TimerTestMode_RELOAD_SHIFT));
1135:Generated_Source\PSoC4/TimerTestMode.c **** 
1136:Generated_Source\PSoC4/TimerTestMode.c ****     CyExitCriticalSection(enableInterrupts);
1137:Generated_Source\PSoC4/TimerTestMode.c **** }
1138:Generated_Source\PSoC4/TimerTestMode.c **** 
1139:Generated_Source\PSoC4/TimerTestMode.c **** 
1140:Generated_Source\PSoC4/TimerTestMode.c **** /*******************************************************************************
1141:Generated_Source\PSoC4/TimerTestMode.c **** * Function Name: TimerTestMode_SetStartMode
1142:Generated_Source\PSoC4/TimerTestMode.c **** ********************************************************************************
1143:Generated_Source\PSoC4/TimerTestMode.c **** *
1144:Generated_Source\PSoC4/TimerTestMode.c **** * Summary:
1145:Generated_Source\PSoC4/TimerTestMode.c **** *  Sets the start trigger mode. For Quadrature Decoder mode this is the
1146:Generated_Source\PSoC4/TimerTestMode.c **** *  phiB input.
1147:Generated_Source\PSoC4/TimerTestMode.c **** *
1148:Generated_Source\PSoC4/TimerTestMode.c **** * Parameters:
1149:Generated_Source\PSoC4/TimerTestMode.c **** *  triggerMode: Enumerated trigger mode value
1150:Generated_Source\PSoC4/TimerTestMode.c **** *   Values:
1151:Generated_Source\PSoC4/TimerTestMode.c **** *     - TimerTestMode_TRIG_LEVEL     - Level
1152:Generated_Source\PSoC4/TimerTestMode.c **** *     - TimerTestMode_TRIG_RISING    - Rising edge
1153:Generated_Source\PSoC4/TimerTestMode.c **** *     - TimerTestMode_TRIG_FALLING   - Falling edge
1154:Generated_Source\PSoC4/TimerTestMode.c **** *     - TimerTestMode_TRIG_BOTH      - Both rising and falling edge
ARM GAS  C:\Users\Petro\AppData\Local\Temp\ccpWYAL3.s 			page 22


1155:Generated_Source\PSoC4/TimerTestMode.c **** *
1156:Generated_Source\PSoC4/TimerTestMode.c **** * Return:
1157:Generated_Source\PSoC4/TimerTestMode.c **** *  None
1158:Generated_Source\PSoC4/TimerTestMode.c **** *
1159:Generated_Source\PSoC4/TimerTestMode.c **** *******************************************************************************/
1160:Generated_Source\PSoC4/TimerTestMode.c **** void TimerTestMode_SetStartMode(uint32 triggerMode)
1161:Generated_Source\PSoC4/TimerTestMode.c **** {
1162:Generated_Source\PSoC4/TimerTestMode.c ****     uint8 enableInterrupts;
1163:Generated_Source\PSoC4/TimerTestMode.c **** 
1164:Generated_Source\PSoC4/TimerTestMode.c ****     enableInterrupts = CyEnterCriticalSection();
1165:Generated_Source\PSoC4/TimerTestMode.c **** 
1166:Generated_Source\PSoC4/TimerTestMode.c ****     TimerTestMode_TRIG_CONTROL1_REG &= (uint32)~TimerTestMode_START_MASK;
1167:Generated_Source\PSoC4/TimerTestMode.c ****     TimerTestMode_TRIG_CONTROL1_REG |= ((uint32)(triggerMode << TimerTestMode_START_SHIFT));
1168:Generated_Source\PSoC4/TimerTestMode.c **** 
1169:Generated_Source\PSoC4/TimerTestMode.c ****     CyExitCriticalSection(enableInterrupts);
1170:Generated_Source\PSoC4/TimerTestMode.c **** }
1171:Generated_Source\PSoC4/TimerTestMode.c **** 
1172:Generated_Source\PSoC4/TimerTestMode.c **** 
1173:Generated_Source\PSoC4/TimerTestMode.c **** /*******************************************************************************
1174:Generated_Source\PSoC4/TimerTestMode.c **** * Function Name: TimerTestMode_SetStopMode
1175:Generated_Source\PSoC4/TimerTestMode.c **** ********************************************************************************
1176:Generated_Source\PSoC4/TimerTestMode.c **** *
1177:Generated_Source\PSoC4/TimerTestMode.c **** * Summary:
1178:Generated_Source\PSoC4/TimerTestMode.c **** *  Sets the stop trigger mode. For PWM mode this is the kill input.
1179:Generated_Source\PSoC4/TimerTestMode.c **** *
1180:Generated_Source\PSoC4/TimerTestMode.c **** * Parameters:
1181:Generated_Source\PSoC4/TimerTestMode.c **** *  triggerMode: Enumerated trigger mode value
1182:Generated_Source\PSoC4/TimerTestMode.c **** *   Values:
1183:Generated_Source\PSoC4/TimerTestMode.c **** *     - TimerTestMode_TRIG_LEVEL     - Level
1184:Generated_Source\PSoC4/TimerTestMode.c **** *     - TimerTestMode_TRIG_RISING    - Rising edge
1185:Generated_Source\PSoC4/TimerTestMode.c **** *     - TimerTestMode_TRIG_FALLING   - Falling edge
1186:Generated_Source\PSoC4/TimerTestMode.c **** *     - TimerTestMode_TRIG_BOTH      - Both rising and falling edge
1187:Generated_Source\PSoC4/TimerTestMode.c **** *
1188:Generated_Source\PSoC4/TimerTestMode.c **** * Return:
1189:Generated_Source\PSoC4/TimerTestMode.c **** *  None
1190:Generated_Source\PSoC4/TimerTestMode.c **** *
1191:Generated_Source\PSoC4/TimerTestMode.c **** *******************************************************************************/
1192:Generated_Source\PSoC4/TimerTestMode.c **** void TimerTestMode_SetStopMode(uint32 triggerMode)
1193:Generated_Source\PSoC4/TimerTestMode.c **** {
1194:Generated_Source\PSoC4/TimerTestMode.c ****     uint8 enableInterrupts;
1195:Generated_Source\PSoC4/TimerTestMode.c **** 
1196:Generated_Source\PSoC4/TimerTestMode.c ****     enableInterrupts = CyEnterCriticalSection();
1197:Generated_Source\PSoC4/TimerTestMode.c **** 
1198:Generated_Source\PSoC4/TimerTestMode.c ****     TimerTestMode_TRIG_CONTROL1_REG &= (uint32)~TimerTestMode_STOP_MASK;
1199:Generated_Source\PSoC4/TimerTestMode.c ****     TimerTestMode_TRIG_CONTROL1_REG |= ((uint32)(triggerMode << TimerTestMode_STOP_SHIFT));
1200:Generated_Source\PSoC4/TimerTestMode.c **** 
1201:Generated_Source\PSoC4/TimerTestMode.c ****     CyExitCriticalSection(enableInterrupts);
1202:Generated_Source\PSoC4/TimerTestMode.c **** }
1203:Generated_Source\PSoC4/TimerTestMode.c **** 
1204:Generated_Source\PSoC4/TimerTestMode.c **** 
1205:Generated_Source\PSoC4/TimerTestMode.c **** /*******************************************************************************
1206:Generated_Source\PSoC4/TimerTestMode.c **** * Function Name: TimerTestMode_SetCountMode
1207:Generated_Source\PSoC4/TimerTestMode.c **** ********************************************************************************
1208:Generated_Source\PSoC4/TimerTestMode.c **** *
1209:Generated_Source\PSoC4/TimerTestMode.c **** * Summary:
1210:Generated_Source\PSoC4/TimerTestMode.c **** *  Sets the count trigger mode. For Quadrature Decoder mode this is the phiA
1211:Generated_Source\PSoC4/TimerTestMode.c **** *  input.
ARM GAS  C:\Users\Petro\AppData\Local\Temp\ccpWYAL3.s 			page 23


1212:Generated_Source\PSoC4/TimerTestMode.c **** *
1213:Generated_Source\PSoC4/TimerTestMode.c **** * Parameters:
1214:Generated_Source\PSoC4/TimerTestMode.c **** *  triggerMode: Enumerated trigger mode value
1215:Generated_Source\PSoC4/TimerTestMode.c **** *   Values:
1216:Generated_Source\PSoC4/TimerTestMode.c **** *     - TimerTestMode_TRIG_LEVEL     - Level
1217:Generated_Source\PSoC4/TimerTestMode.c **** *     - TimerTestMode_TRIG_RISING    - Rising edge
1218:Generated_Source\PSoC4/TimerTestMode.c **** *     - TimerTestMode_TRIG_FALLING   - Falling edge
1219:Generated_Source\PSoC4/TimerTestMode.c **** *     - TimerTestMode_TRIG_BOTH      - Both rising and falling edge
1220:Generated_Source\PSoC4/TimerTestMode.c **** *
1221:Generated_Source\PSoC4/TimerTestMode.c **** * Return:
1222:Generated_Source\PSoC4/TimerTestMode.c **** *  None
1223:Generated_Source\PSoC4/TimerTestMode.c **** *
1224:Generated_Source\PSoC4/TimerTestMode.c **** *******************************************************************************/
1225:Generated_Source\PSoC4/TimerTestMode.c **** void TimerTestMode_SetCountMode(uint32 triggerMode)
1226:Generated_Source\PSoC4/TimerTestMode.c **** {
1227:Generated_Source\PSoC4/TimerTestMode.c ****     uint8 enableInterrupts;
1228:Generated_Source\PSoC4/TimerTestMode.c **** 
1229:Generated_Source\PSoC4/TimerTestMode.c ****     enableInterrupts = CyEnterCriticalSection();
1230:Generated_Source\PSoC4/TimerTestMode.c **** 
1231:Generated_Source\PSoC4/TimerTestMode.c ****     TimerTestMode_TRIG_CONTROL1_REG &= (uint32)~TimerTestMode_COUNT_MASK;
1232:Generated_Source\PSoC4/TimerTestMode.c ****     TimerTestMode_TRIG_CONTROL1_REG |= ((uint32)(triggerMode << TimerTestMode_COUNT_SHIFT));
1233:Generated_Source\PSoC4/TimerTestMode.c **** 
1234:Generated_Source\PSoC4/TimerTestMode.c ****     CyExitCriticalSection(enableInterrupts);
1235:Generated_Source\PSoC4/TimerTestMode.c **** }
1236:Generated_Source\PSoC4/TimerTestMode.c **** 
1237:Generated_Source\PSoC4/TimerTestMode.c **** 
1238:Generated_Source\PSoC4/TimerTestMode.c **** /*******************************************************************************
1239:Generated_Source\PSoC4/TimerTestMode.c **** * Function Name: TimerTestMode_TriggerCommand
1240:Generated_Source\PSoC4/TimerTestMode.c **** ********************************************************************************
1241:Generated_Source\PSoC4/TimerTestMode.c **** *
1242:Generated_Source\PSoC4/TimerTestMode.c **** * Summary:
1243:Generated_Source\PSoC4/TimerTestMode.c **** *  Triggers the designated command to occur on the designated TCPWM instances.
1244:Generated_Source\PSoC4/TimerTestMode.c **** *  The mask can be used to apply this command simultaneously to more than one
1245:Generated_Source\PSoC4/TimerTestMode.c **** *  instance.  This allows multiple TCPWM instances to be synchronized.
1246:Generated_Source\PSoC4/TimerTestMode.c **** *
1247:Generated_Source\PSoC4/TimerTestMode.c **** * Parameters:
1248:Generated_Source\PSoC4/TimerTestMode.c **** *  mask: A combination of mask bits for each instance of the TCPWM that the
1249:Generated_Source\PSoC4/TimerTestMode.c **** *        command should apply to.  This function from one instance can be used
1250:Generated_Source\PSoC4/TimerTestMode.c **** *        to apply the command to any of the instances in the design.
1251:Generated_Source\PSoC4/TimerTestMode.c **** *        The mask value for a specific instance is available with the MASK
1252:Generated_Source\PSoC4/TimerTestMode.c **** *        define.
1253:Generated_Source\PSoC4/TimerTestMode.c **** *  command: Enumerated command values. Capture command only applicable for
1254:Generated_Source\PSoC4/TimerTestMode.c **** *           Timer/Counter with Capture and PWM modes.
1255:Generated_Source\PSoC4/TimerTestMode.c **** *   Values:
1256:Generated_Source\PSoC4/TimerTestMode.c **** *     - TimerTestMode_CMD_CAPTURE    - Trigger Capture/Switch command
1257:Generated_Source\PSoC4/TimerTestMode.c **** *     - TimerTestMode_CMD_RELOAD     - Trigger Reload/Index command
1258:Generated_Source\PSoC4/TimerTestMode.c **** *     - TimerTestMode_CMD_STOP       - Trigger Stop/Kill command
1259:Generated_Source\PSoC4/TimerTestMode.c **** *     - TimerTestMode_CMD_START      - Trigger Start/phiB command
1260:Generated_Source\PSoC4/TimerTestMode.c **** *
1261:Generated_Source\PSoC4/TimerTestMode.c **** * Return:
1262:Generated_Source\PSoC4/TimerTestMode.c **** *  None
1263:Generated_Source\PSoC4/TimerTestMode.c **** *
1264:Generated_Source\PSoC4/TimerTestMode.c **** *******************************************************************************/
1265:Generated_Source\PSoC4/TimerTestMode.c **** void TimerTestMode_TriggerCommand(uint32 mask, uint32 command)
1266:Generated_Source\PSoC4/TimerTestMode.c **** {
1267:Generated_Source\PSoC4/TimerTestMode.c ****     uint8 enableInterrupts;
1268:Generated_Source\PSoC4/TimerTestMode.c **** 
ARM GAS  C:\Users\Petro\AppData\Local\Temp\ccpWYAL3.s 			page 24


1269:Generated_Source\PSoC4/TimerTestMode.c ****     enableInterrupts = CyEnterCriticalSection();
1270:Generated_Source\PSoC4/TimerTestMode.c **** 
1271:Generated_Source\PSoC4/TimerTestMode.c ****     TimerTestMode_COMMAND_REG = ((uint32)(mask << command));
1272:Generated_Source\PSoC4/TimerTestMode.c **** 
1273:Generated_Source\PSoC4/TimerTestMode.c ****     CyExitCriticalSection(enableInterrupts);
1274:Generated_Source\PSoC4/TimerTestMode.c **** }
1275:Generated_Source\PSoC4/TimerTestMode.c **** 
1276:Generated_Source\PSoC4/TimerTestMode.c **** 
1277:Generated_Source\PSoC4/TimerTestMode.c **** /*******************************************************************************
1278:Generated_Source\PSoC4/TimerTestMode.c **** * Function Name: TimerTestMode_ReadStatus
1279:Generated_Source\PSoC4/TimerTestMode.c **** ********************************************************************************
1280:Generated_Source\PSoC4/TimerTestMode.c **** *
1281:Generated_Source\PSoC4/TimerTestMode.c **** * Summary:
1282:Generated_Source\PSoC4/TimerTestMode.c **** *  Reads the status of the TimerTestMode.
1283:Generated_Source\PSoC4/TimerTestMode.c **** *
1284:Generated_Source\PSoC4/TimerTestMode.c **** * Parameters:
1285:Generated_Source\PSoC4/TimerTestMode.c **** *  None
1286:Generated_Source\PSoC4/TimerTestMode.c **** *
1287:Generated_Source\PSoC4/TimerTestMode.c **** * Return:
1288:Generated_Source\PSoC4/TimerTestMode.c **** *  Status
1289:Generated_Source\PSoC4/TimerTestMode.c **** *   Values:
1290:Generated_Source\PSoC4/TimerTestMode.c **** *     - TimerTestMode_STATUS_DOWN    - Set if counting down
1291:Generated_Source\PSoC4/TimerTestMode.c **** *     - TimerTestMode_STATUS_RUNNING - Set if counter is running
1292:Generated_Source\PSoC4/TimerTestMode.c **** *
1293:Generated_Source\PSoC4/TimerTestMode.c **** *******************************************************************************/
1294:Generated_Source\PSoC4/TimerTestMode.c **** uint32 TimerTestMode_ReadStatus(void)
1295:Generated_Source\PSoC4/TimerTestMode.c **** {
1296:Generated_Source\PSoC4/TimerTestMode.c ****     return ((TimerTestMode_STATUS_REG >> TimerTestMode_RUNNING_STATUS_SHIFT) |
1297:Generated_Source\PSoC4/TimerTestMode.c ****             (TimerTestMode_STATUS_REG & TimerTestMode_STATUS_DOWN));
1298:Generated_Source\PSoC4/TimerTestMode.c **** }
1299:Generated_Source\PSoC4/TimerTestMode.c **** 
1300:Generated_Source\PSoC4/TimerTestMode.c **** 
1301:Generated_Source\PSoC4/TimerTestMode.c **** /*******************************************************************************
1302:Generated_Source\PSoC4/TimerTestMode.c **** * Function Name: TimerTestMode_SetInterruptMode
1303:Generated_Source\PSoC4/TimerTestMode.c **** ********************************************************************************
1304:Generated_Source\PSoC4/TimerTestMode.c **** *
1305:Generated_Source\PSoC4/TimerTestMode.c **** * Summary:
1306:Generated_Source\PSoC4/TimerTestMode.c **** *  Sets the interrupt mask to control which interrupt
1307:Generated_Source\PSoC4/TimerTestMode.c **** *  requests generate the interrupt signal.
1308:Generated_Source\PSoC4/TimerTestMode.c **** *
1309:Generated_Source\PSoC4/TimerTestMode.c **** * Parameters:
1310:Generated_Source\PSoC4/TimerTestMode.c **** *   interruptMask: Mask of bits to be enabled
1311:Generated_Source\PSoC4/TimerTestMode.c **** *   Values:
1312:Generated_Source\PSoC4/TimerTestMode.c **** *     - TimerTestMode_INTR_MASK_TC       - Terminal count mask
1313:Generated_Source\PSoC4/TimerTestMode.c **** *     - TimerTestMode_INTR_MASK_CC_MATCH - Compare count / capture mask
1314:Generated_Source\PSoC4/TimerTestMode.c **** *
1315:Generated_Source\PSoC4/TimerTestMode.c **** * Return:
1316:Generated_Source\PSoC4/TimerTestMode.c **** *  None
1317:Generated_Source\PSoC4/TimerTestMode.c **** *
1318:Generated_Source\PSoC4/TimerTestMode.c **** *******************************************************************************/
1319:Generated_Source\PSoC4/TimerTestMode.c **** void TimerTestMode_SetInterruptMode(uint32 interruptMask)
1320:Generated_Source\PSoC4/TimerTestMode.c **** {
1321:Generated_Source\PSoC4/TimerTestMode.c ****     TimerTestMode_INTERRUPT_MASK_REG =  interruptMask;
  43              		.loc 1 1321 0
  44 000e 084B     		ldr	r3, .L2+8
  45 0010 0A3A     		sub	r2, r2, #10
  46 0012 1A60     		str	r2, [r3]
ARM GAS  C:\Users\Petro\AppData\Local\Temp\ccpWYAL3.s 			page 25


  47              	.LVL1:
  48              	.LBE11:
  49              	.LBE10:
  50              	.LBB12:
  51              	.LBB13:
 695:Generated_Source\PSoC4/TimerTestMode.c **** }
  52              		.loc 1 695 0
  53 0014 074A     		ldr	r2, .L2+12
  54 0016 084B     		ldr	r3, .L2+16
  55 0018 1A60     		str	r2, [r3]
  56              	.LVL2:
  57              	.LBE13:
  58              	.LBE12:
  59              	.LBB14:
  60              	.LBB15:
 873:Generated_Source\PSoC4/TimerTestMode.c **** }
  61              		.loc 1 873 0
  62 001a 084A     		ldr	r2, .L2+20
  63 001c 084B     		ldr	r3, .L2+24
  64 001e 1A60     		str	r2, [r3]
  65              	.LVL3:
  66              	.LBE15:
  67              	.LBE14:
  68              	.LBB16:
  69              	.LBB17:
 617:Generated_Source\PSoC4/TimerTestMode.c **** }
  70              		.loc 1 617 0
  71 0020 0022     		mov	r2, #0
  72 0022 084B     		ldr	r3, .L2+28
  73 0024 1A60     		str	r2, [r3]
  74              	.LBE17:
  75              	.LBE16:
 160:Generated_Source\PSoC4/TimerTestMode.c **** 
  76              		.loc 1 160 0
  77 0026 7047     		bx	lr
  78              	.L3:
  79              		.align	2
  80              	.L2:
  81 0028 40012040 		.word	1075839296
  82 002c 64012040 		.word	1075839332
  83 0030 78012040 		.word	1075839352
  84 0034 FFFF0000 		.word	65535
  85 0038 54012040 		.word	1075839316
  86 003c C4090000 		.word	2500
  87 0040 4C012040 		.word	1075839308
  88 0044 48012040 		.word	1075839304
  89              		.cfi_endproc
  90              	.LFE2:
  91              		.size	TimerTestMode_Init, .-TimerTestMode_Init
  92              		.section	.text.TimerTestMode_Stop,"ax",%progbits
  93              		.align	1
  94              		.global	TimerTestMode_Stop
  95              		.code	16
  96              		.thumb_func
  97              		.type	TimerTestMode_Stop, %function
  98              	TimerTestMode_Stop:
  99              	.LFB5:
ARM GAS  C:\Users\Petro\AppData\Local\Temp\ccpWYAL3.s 			page 26


 257:Generated_Source\PSoC4/TimerTestMode.c ****     uint8 enableInterrupts;
 100              		.loc 1 257 0
 101              		.cfi_startproc
 102 0000 08B5     		push	{r3, lr}
 103              		.cfi_def_cfa_offset 8
 104              		.cfi_offset 3, -8
 105              		.cfi_offset 14, -4
 260:Generated_Source\PSoC4/TimerTestMode.c **** 
 106              		.loc 1 260 0
 107 0002 FFF7FEFF 		bl	CyEnterCriticalSection
 108              	.LVL4:
 262:Generated_Source\PSoC4/TimerTestMode.c **** 
 109              		.loc 1 262 0
 110 0006 0221     		mov	r1, #2
 111 0008 034A     		ldr	r2, .L5
 265:Generated_Source\PSoC4/TimerTestMode.c **** 
 112              		.loc 1 265 0
 113              		@ sp needed
 262:Generated_Source\PSoC4/TimerTestMode.c **** 
 114              		.loc 1 262 0
 115 000a 1368     		ldr	r3, [r2]
 116 000c 8B43     		bic	r3, r1
 117 000e 1360     		str	r3, [r2]
 264:Generated_Source\PSoC4/TimerTestMode.c **** }
 118              		.loc 1 264 0
 119 0010 FFF7FEFF 		bl	CyExitCriticalSection
 120              	.LVL5:
 265:Generated_Source\PSoC4/TimerTestMode.c **** 
 121              		.loc 1 265 0
 122 0014 08BD     		pop	{r3, pc}
 123              	.L6:
 124 0016 C046     		.align	2
 125              	.L5:
 126 0018 00002040 		.word	1075838976
 127              		.cfi_endproc
 128              	.LFE5:
 129              		.size	TimerTestMode_Stop, .-TimerTestMode_Stop
 130              		.section	.text.TimerTestMode_SetMode,"ax",%progbits
 131              		.align	1
 132              		.global	TimerTestMode_SetMode
 133              		.code	16
 134              		.thumb_func
 135              		.type	TimerTestMode_SetMode, %function
 136              	TimerTestMode_SetMode:
 137              	.LFB6:
 294:Generated_Source\PSoC4/TimerTestMode.c ****     uint8 enableInterrupts;
 138              		.loc 1 294 0
 139              		.cfi_startproc
 140              	.LVL6:
 141 0000 10B5     		push	{r4, lr}
 142              		.cfi_def_cfa_offset 8
 143              		.cfi_offset 4, -8
 144              		.cfi_offset 14, -4
 294:Generated_Source\PSoC4/TimerTestMode.c ****     uint8 enableInterrupts;
 145              		.loc 1 294 0
 146 0002 041C     		mov	r4, r0
 297:Generated_Source\PSoC4/TimerTestMode.c **** 
ARM GAS  C:\Users\Petro\AppData\Local\Temp\ccpWYAL3.s 			page 27


 147              		.loc 1 297 0
 148 0004 FFF7FEFF 		bl	CyEnterCriticalSection
 149              	.LVL7:
 299:Generated_Source\PSoC4/TimerTestMode.c ****     TimerTestMode_CONTROL_REG |= mode;
 150              		.loc 1 299 0
 151 0008 054B     		ldr	r3, .L8
 152 000a 064A     		ldr	r2, .L8+4
 153 000c 1968     		ldr	r1, [r3]
 303:Generated_Source\PSoC4/TimerTestMode.c **** 
 154              		.loc 1 303 0
 155              		@ sp needed
 299:Generated_Source\PSoC4/TimerTestMode.c ****     TimerTestMode_CONTROL_REG |= mode;
 156              		.loc 1 299 0
 157 000e 0A40     		and	r2, r1
 158 0010 1A60     		str	r2, [r3]
 300:Generated_Source\PSoC4/TimerTestMode.c **** 
 159              		.loc 1 300 0
 160 0012 1A68     		ldr	r2, [r3]
 161 0014 2243     		orr	r2, r4
 162 0016 1A60     		str	r2, [r3]
 302:Generated_Source\PSoC4/TimerTestMode.c **** }
 163              		.loc 1 302 0
 164 0018 FFF7FEFF 		bl	CyExitCriticalSection
 165              	.LVL8:
 166              	.LVL9:
 303:Generated_Source\PSoC4/TimerTestMode.c **** 
 167              		.loc 1 303 0
 168 001c 10BD     		pop	{r4, pc}
 169              	.L9:
 170 001e C046     		.align	2
 171              	.L8:
 172 0020 40012040 		.word	1075839296
 173 0024 FFFFFFF8 		.word	-117440513
 174              		.cfi_endproc
 175              	.LFE6:
 176              		.size	TimerTestMode_SetMode, .-TimerTestMode_SetMode
 177              		.section	.text.TimerTestMode_SetQDMode,"ax",%progbits
 178              		.align	1
 179              		.global	TimerTestMode_SetQDMode
 180              		.code	16
 181              		.thumb_func
 182              		.type	TimerTestMode_SetQDMode, %function
 183              	TimerTestMode_SetQDMode:
 184              	.LFB7:
 327:Generated_Source\PSoC4/TimerTestMode.c ****     uint8 enableInterrupts;
 185              		.loc 1 327 0
 186              		.cfi_startproc
 187              	.LVL10:
 188 0000 10B5     		push	{r4, lr}
 189              		.cfi_def_cfa_offset 8
 190              		.cfi_offset 4, -8
 191              		.cfi_offset 14, -4
 327:Generated_Source\PSoC4/TimerTestMode.c ****     uint8 enableInterrupts;
 192              		.loc 1 327 0
 193 0002 041C     		mov	r4, r0
 330:Generated_Source\PSoC4/TimerTestMode.c **** 
 194              		.loc 1 330 0
ARM GAS  C:\Users\Petro\AppData\Local\Temp\ccpWYAL3.s 			page 28


 195 0004 FFF7FEFF 		bl	CyEnterCriticalSection
 196              	.LVL11:
 332:Generated_Source\PSoC4/TimerTestMode.c ****     TimerTestMode_CONTROL_REG |= qdMode;
 197              		.loc 1 332 0
 198 0008 054B     		ldr	r3, .L11
 199 000a 064A     		ldr	r2, .L11+4
 200 000c 1968     		ldr	r1, [r3]
 336:Generated_Source\PSoC4/TimerTestMode.c **** 
 201              		.loc 1 336 0
 202              		@ sp needed
 332:Generated_Source\PSoC4/TimerTestMode.c ****     TimerTestMode_CONTROL_REG |= qdMode;
 203              		.loc 1 332 0
 204 000e 0A40     		and	r2, r1
 205 0010 1A60     		str	r2, [r3]
 333:Generated_Source\PSoC4/TimerTestMode.c **** 
 206              		.loc 1 333 0
 207 0012 1A68     		ldr	r2, [r3]
 208 0014 2243     		orr	r2, r4
 209 0016 1A60     		str	r2, [r3]
 335:Generated_Source\PSoC4/TimerTestMode.c **** }
 210              		.loc 1 335 0
 211 0018 FFF7FEFF 		bl	CyExitCriticalSection
 212              	.LVL12:
 213              	.LVL13:
 336:Generated_Source\PSoC4/TimerTestMode.c **** 
 214              		.loc 1 336 0
 215 001c 10BD     		pop	{r4, pc}
 216              	.L12:
 217 001e C046     		.align	2
 218              	.L11:
 219 0020 40012040 		.word	1075839296
 220 0024 FFFF8FFF 		.word	-7340033
 221              		.cfi_endproc
 222              	.LFE7:
 223              		.size	TimerTestMode_SetQDMode, .-TimerTestMode_SetQDMode
 224              		.section	.text.TimerTestMode_SetPrescaler,"ax",%progbits
 225              		.align	1
 226              		.global	TimerTestMode_SetPrescaler
 227              		.code	16
 228              		.thumb_func
 229              		.type	TimerTestMode_SetPrescaler, %function
 230              	TimerTestMode_SetPrescaler:
 231              	.LFB8:
 364:Generated_Source\PSoC4/TimerTestMode.c ****     uint8 enableInterrupts;
 232              		.loc 1 364 0
 233              		.cfi_startproc
 234              	.LVL14:
 235 0000 10B5     		push	{r4, lr}
 236              		.cfi_def_cfa_offset 8
 237              		.cfi_offset 4, -8
 238              		.cfi_offset 14, -4
 364:Generated_Source\PSoC4/TimerTestMode.c ****     uint8 enableInterrupts;
 239              		.loc 1 364 0
 240 0002 041C     		mov	r4, r0
 367:Generated_Source\PSoC4/TimerTestMode.c **** 
 241              		.loc 1 367 0
 242 0004 FFF7FEFF 		bl	CyEnterCriticalSection
ARM GAS  C:\Users\Petro\AppData\Local\Temp\ccpWYAL3.s 			page 29


 243              	.LVL15:
 369:Generated_Source\PSoC4/TimerTestMode.c ****     TimerTestMode_CONTROL_REG |= prescaler;
 244              		.loc 1 369 0
 245 0008 054B     		ldr	r3, .L14
 246 000a 064A     		ldr	r2, .L14+4
 247 000c 1968     		ldr	r1, [r3]
 373:Generated_Source\PSoC4/TimerTestMode.c **** 
 248              		.loc 1 373 0
 249              		@ sp needed
 369:Generated_Source\PSoC4/TimerTestMode.c ****     TimerTestMode_CONTROL_REG |= prescaler;
 250              		.loc 1 369 0
 251 000e 0A40     		and	r2, r1
 252 0010 1A60     		str	r2, [r3]
 370:Generated_Source\PSoC4/TimerTestMode.c **** 
 253              		.loc 1 370 0
 254 0012 1A68     		ldr	r2, [r3]
 255 0014 2243     		orr	r2, r4
 256 0016 1A60     		str	r2, [r3]
 372:Generated_Source\PSoC4/TimerTestMode.c **** }
 257              		.loc 1 372 0
 258 0018 FFF7FEFF 		bl	CyExitCriticalSection
 259              	.LVL16:
 260              	.LVL17:
 373:Generated_Source\PSoC4/TimerTestMode.c **** 
 261              		.loc 1 373 0
 262 001c 10BD     		pop	{r4, pc}
 263              	.L15:
 264 001e C046     		.align	2
 265              	.L14:
 266 0020 40012040 		.word	1075839296
 267 0024 FF00FFFF 		.word	-65281
 268              		.cfi_endproc
 269              	.LFE8:
 270              		.size	TimerTestMode_SetPrescaler, .-TimerTestMode_SetPrescaler
 271              		.section	.text.TimerTestMode_SetOneShot,"ax",%progbits
 272              		.align	1
 273              		.global	TimerTestMode_SetOneShot
 274              		.code	16
 275              		.thumb_func
 276              		.type	TimerTestMode_SetOneShot, %function
 277              	TimerTestMode_SetOneShot:
 278              	.LFB9:
 396:Generated_Source\PSoC4/TimerTestMode.c ****     uint8 enableInterrupts;
 279              		.loc 1 396 0
 280              		.cfi_startproc
 281              	.LVL18:
 282 0000 10B5     		push	{r4, lr}
 283              		.cfi_def_cfa_offset 8
 284              		.cfi_offset 4, -8
 285              		.cfi_offset 14, -4
 396:Generated_Source\PSoC4/TimerTestMode.c ****     uint8 enableInterrupts;
 286              		.loc 1 396 0
 287 0002 041C     		mov	r4, r0
 399:Generated_Source\PSoC4/TimerTestMode.c **** 
 288              		.loc 1 399 0
 289 0004 FFF7FEFF 		bl	CyEnterCriticalSection
 290              	.LVL19:
ARM GAS  C:\Users\Petro\AppData\Local\Temp\ccpWYAL3.s 			page 30


 401:Generated_Source\PSoC4/TimerTestMode.c ****     TimerTestMode_CONTROL_REG |= ((uint32)((oneShotEnable & TimerTestMode_1BIT_MASK) <<
 291              		.loc 1 401 0
 292 0008 064A     		ldr	r2, .L17
 293 000a 074B     		ldr	r3, .L17+4
 294 000c 1168     		ldr	r1, [r2]
 406:Generated_Source\PSoC4/TimerTestMode.c **** 
 295              		.loc 1 406 0
 296              		@ sp needed
 401:Generated_Source\PSoC4/TimerTestMode.c ****     TimerTestMode_CONTROL_REG |= ((uint32)((oneShotEnable & TimerTestMode_1BIT_MASK) <<
 297              		.loc 1 401 0
 298 000e 0B40     		and	r3, r1
 299 0010 1360     		str	r3, [r2]
 402:Generated_Source\PSoC4/TimerTestMode.c ****                                                                TimerTestMode_ONESHOT_SHIFT));
 300              		.loc 1 402 0
 301 0012 0123     		mov	r3, #1
 302 0014 1168     		ldr	r1, [r2]
 303 0016 2340     		and	r3, r4
 304 0018 9B04     		lsl	r3, r3, #18
 305 001a 0B43     		orr	r3, r1
 306 001c 1360     		str	r3, [r2]
 405:Generated_Source\PSoC4/TimerTestMode.c **** }
 307              		.loc 1 405 0
 308 001e FFF7FEFF 		bl	CyExitCriticalSection
 309              	.LVL20:
 310              	.LVL21:
 406:Generated_Source\PSoC4/TimerTestMode.c **** 
 311              		.loc 1 406 0
 312 0022 10BD     		pop	{r4, pc}
 313              	.L18:
 314              		.align	2
 315              	.L17:
 316 0024 40012040 		.word	1075839296
 317 0028 FFFFFBFF 		.word	-262145
 318              		.cfi_endproc
 319              	.LFE9:
 320              		.size	TimerTestMode_SetOneShot, .-TimerTestMode_SetOneShot
 321              		.section	.text.TimerTestMode_SetPWMMode,"ax",%progbits
 322              		.align	1
 323              		.global	TimerTestMode_SetPWMMode
 324              		.code	16
 325              		.thumb_func
 326              		.type	TimerTestMode_SetPWMMode, %function
 327              	TimerTestMode_SetPWMMode:
 328              	.LFB10:
 450:Generated_Source\PSoC4/TimerTestMode.c ****     TimerTestMode_TRIG_CONTROL2_REG = (modeMask & TimerTestMode_6BIT_MASK);
 329              		.loc 1 450 0
 330              		.cfi_startproc
 331              	.LVL22:
 451:Generated_Source\PSoC4/TimerTestMode.c **** }
 332              		.loc 1 451 0
 333 0000 3F23     		mov	r3, #63
 334 0002 1840     		and	r0, r3
 335              	.LVL23:
 336 0004 014B     		ldr	r3, .L20
 452:Generated_Source\PSoC4/TimerTestMode.c **** 
 337              		.loc 1 452 0
 338              		@ sp needed
ARM GAS  C:\Users\Petro\AppData\Local\Temp\ccpWYAL3.s 			page 31


 451:Generated_Source\PSoC4/TimerTestMode.c **** }
 339              		.loc 1 451 0
 340 0006 1860     		str	r0, [r3]
 452:Generated_Source\PSoC4/TimerTestMode.c **** 
 341              		.loc 1 452 0
 342 0008 7047     		bx	lr
 343              	.L21:
 344 000a C046     		.align	2
 345              	.L20:
 346 000c 68012040 		.word	1075839336
 347              		.cfi_endproc
 348              	.LFE10:
 349              		.size	TimerTestMode_SetPWMMode, .-TimerTestMode_SetPWMMode
 350              		.section	.text.TimerTestMode_SetPWMSyncKill,"ax",%progbits
 351              		.align	1
 352              		.global	TimerTestMode_SetPWMSyncKill
 353              		.code	16
 354              		.thumb_func
 355              		.type	TimerTestMode_SetPWMSyncKill, %function
 356              	TimerTestMode_SetPWMSyncKill:
 357              	.LFB11:
 486:Generated_Source\PSoC4/TimerTestMode.c ****     uint8 enableInterrupts;
 358              		.loc 1 486 0
 359              		.cfi_startproc
 360              	.LVL24:
 361 0000 10B5     		push	{r4, lr}
 362              		.cfi_def_cfa_offset 8
 363              		.cfi_offset 4, -8
 364              		.cfi_offset 14, -4
 486:Generated_Source\PSoC4/TimerTestMode.c ****     uint8 enableInterrupts;
 365              		.loc 1 486 0
 366 0002 041C     		mov	r4, r0
 489:Generated_Source\PSoC4/TimerTestMode.c **** 
 367              		.loc 1 489 0
 368 0004 FFF7FEFF 		bl	CyEnterCriticalSection
 369              	.LVL25:
 491:Generated_Source\PSoC4/TimerTestMode.c ****     TimerTestMode_CONTROL_REG |= ((uint32)((syncKillEnable & TimerTestMode_1BIT_MASK)  <<
 370              		.loc 1 491 0
 371 0008 0421     		mov	r1, #4
 372 000a 064A     		ldr	r2, .L23
 496:Generated_Source\PSoC4/TimerTestMode.c **** 
 373              		.loc 1 496 0
 374              		@ sp needed
 491:Generated_Source\PSoC4/TimerTestMode.c ****     TimerTestMode_CONTROL_REG |= ((uint32)((syncKillEnable & TimerTestMode_1BIT_MASK)  <<
 375              		.loc 1 491 0
 376 000c 1368     		ldr	r3, [r2]
 377 000e 8B43     		bic	r3, r1
 378 0010 1360     		str	r3, [r2]
 492:Generated_Source\PSoC4/TimerTestMode.c ****                                                TimerTestMode_PWM_SYNC_KILL_SHIFT));
 379              		.loc 1 492 0
 380 0012 0123     		mov	r3, #1
 381 0014 1168     		ldr	r1, [r2]
 382 0016 2340     		and	r3, r4
 383 0018 9B00     		lsl	r3, r3, #2
 384 001a 0B43     		orr	r3, r1
 385 001c 1360     		str	r3, [r2]
 495:Generated_Source\PSoC4/TimerTestMode.c **** }
ARM GAS  C:\Users\Petro\AppData\Local\Temp\ccpWYAL3.s 			page 32


 386              		.loc 1 495 0
 387 001e FFF7FEFF 		bl	CyExitCriticalSection
 388              	.LVL26:
 389              	.LVL27:
 496:Generated_Source\PSoC4/TimerTestMode.c **** 
 390              		.loc 1 496 0
 391 0022 10BD     		pop	{r4, pc}
 392              	.L24:
 393              		.align	2
 394              	.L23:
 395 0024 40012040 		.word	1075839296
 396              		.cfi_endproc
 397              	.LFE11:
 398              		.size	TimerTestMode_SetPWMSyncKill, .-TimerTestMode_SetPWMSyncKill
 399              		.section	.text.TimerTestMode_SetPWMStopOnKill,"ax",%progbits
 400              		.align	1
 401              		.global	TimerTestMode_SetPWMStopOnKill
 402              		.code	16
 403              		.thumb_func
 404              		.type	TimerTestMode_SetPWMStopOnKill, %function
 405              	TimerTestMode_SetPWMStopOnKill:
 406              	.LFB12:
 520:Generated_Source\PSoC4/TimerTestMode.c ****     uint8 enableInterrupts;
 407              		.loc 1 520 0
 408              		.cfi_startproc
 409              	.LVL28:
 410 0000 10B5     		push	{r4, lr}
 411              		.cfi_def_cfa_offset 8
 412              		.cfi_offset 4, -8
 413              		.cfi_offset 14, -4
 520:Generated_Source\PSoC4/TimerTestMode.c ****     uint8 enableInterrupts;
 414              		.loc 1 520 0
 415 0002 041C     		mov	r4, r0
 523:Generated_Source\PSoC4/TimerTestMode.c **** 
 416              		.loc 1 523 0
 417 0004 FFF7FEFF 		bl	CyEnterCriticalSection
 418              	.LVL29:
 525:Generated_Source\PSoC4/TimerTestMode.c ****     TimerTestMode_CONTROL_REG |= ((uint32)((stopOnKillEnable & TimerTestMode_1BIT_MASK)  <<
 419              		.loc 1 525 0
 420 0008 0821     		mov	r1, #8
 421 000a 064A     		ldr	r2, .L26
 530:Generated_Source\PSoC4/TimerTestMode.c **** 
 422              		.loc 1 530 0
 423              		@ sp needed
 525:Generated_Source\PSoC4/TimerTestMode.c ****     TimerTestMode_CONTROL_REG |= ((uint32)((stopOnKillEnable & TimerTestMode_1BIT_MASK)  <<
 424              		.loc 1 525 0
 425 000c 1368     		ldr	r3, [r2]
 426 000e 8B43     		bic	r3, r1
 427 0010 1360     		str	r3, [r2]
 526:Generated_Source\PSoC4/TimerTestMode.c ****                                                          TimerTestMode_PWM_STOP_KILL_SHIFT));
 428              		.loc 1 526 0
 429 0012 0123     		mov	r3, #1
 430 0014 1168     		ldr	r1, [r2]
 431 0016 2340     		and	r3, r4
 432 0018 DB00     		lsl	r3, r3, #3
 433 001a 0B43     		orr	r3, r1
 434 001c 1360     		str	r3, [r2]
ARM GAS  C:\Users\Petro\AppData\Local\Temp\ccpWYAL3.s 			page 33


 529:Generated_Source\PSoC4/TimerTestMode.c **** }
 435              		.loc 1 529 0
 436 001e FFF7FEFF 		bl	CyExitCriticalSection
 437              	.LVL30:
 438              	.LVL31:
 530:Generated_Source\PSoC4/TimerTestMode.c **** 
 439              		.loc 1 530 0
 440 0022 10BD     		pop	{r4, pc}
 441              	.L27:
 442              		.align	2
 443              	.L26:
 444 0024 40012040 		.word	1075839296
 445              		.cfi_endproc
 446              	.LFE12:
 447              		.size	TimerTestMode_SetPWMStopOnKill, .-TimerTestMode_SetPWMStopOnKill
 448              		.section	.text.TimerTestMode_SetPWMDeadTime,"ax",%progbits
 449              		.align	1
 450              		.global	TimerTestMode_SetPWMDeadTime
 451              		.code	16
 452              		.thumb_func
 453              		.type	TimerTestMode_SetPWMDeadTime, %function
 454              	TimerTestMode_SetPWMDeadTime:
 455              	.LFB13:
 553:Generated_Source\PSoC4/TimerTestMode.c ****     uint8 enableInterrupts;
 456              		.loc 1 553 0
 457              		.cfi_startproc
 458              	.LVL32:
 459 0000 10B5     		push	{r4, lr}
 460              		.cfi_def_cfa_offset 8
 461              		.cfi_offset 4, -8
 462              		.cfi_offset 14, -4
 553:Generated_Source\PSoC4/TimerTestMode.c ****     uint8 enableInterrupts;
 463              		.loc 1 553 0
 464 0002 041C     		mov	r4, r0
 556:Generated_Source\PSoC4/TimerTestMode.c **** 
 465              		.loc 1 556 0
 466 0004 FFF7FEFF 		bl	CyEnterCriticalSection
 467              	.LVL33:
 558:Generated_Source\PSoC4/TimerTestMode.c ****     TimerTestMode_CONTROL_REG |= ((uint32)((deadTime & TimerTestMode_8BIT_MASK) <<
 468              		.loc 1 558 0
 469 0008 064B     		ldr	r3, .L29
 470 000a 074A     		ldr	r2, .L29+4
 471 000c 1968     		ldr	r1, [r3]
 559:Generated_Source\PSoC4/TimerTestMode.c ****                                                           TimerTestMode_PRESCALER_SHIFT));
 472              		.loc 1 559 0
 473 000e 2406     		lsl	r4, r4, #24
 474              	.LVL34:
 558:Generated_Source\PSoC4/TimerTestMode.c ****     TimerTestMode_CONTROL_REG |= ((uint32)((deadTime & TimerTestMode_8BIT_MASK) <<
 475              		.loc 1 558 0
 476 0010 0A40     		and	r2, r1
 477 0012 1A60     		str	r2, [r3]
 559:Generated_Source\PSoC4/TimerTestMode.c ****                                                           TimerTestMode_PRESCALER_SHIFT));
 478              		.loc 1 559 0
 479 0014 1A68     		ldr	r2, [r3]
 480 0016 240C     		lsr	r4, r4, #16
 481 0018 1443     		orr	r4, r2
 482 001a 1C60     		str	r4, [r3]
ARM GAS  C:\Users\Petro\AppData\Local\Temp\ccpWYAL3.s 			page 34


 562:Generated_Source\PSoC4/TimerTestMode.c **** }
 483              		.loc 1 562 0
 484 001c FFF7FEFF 		bl	CyExitCriticalSection
 485              	.LVL35:
 563:Generated_Source\PSoC4/TimerTestMode.c **** 
 486              		.loc 1 563 0
 487              		@ sp needed
 488 0020 10BD     		pop	{r4, pc}
 489              	.L30:
 490 0022 C046     		.align	2
 491              	.L29:
 492 0024 40012040 		.word	1075839296
 493 0028 FF00FFFF 		.word	-65281
 494              		.cfi_endproc
 495              	.LFE13:
 496              		.size	TimerTestMode_SetPWMDeadTime, .-TimerTestMode_SetPWMDeadTime
 497              		.section	.text.TimerTestMode_SetPWMInvert,"ax",%progbits
 498              		.align	1
 499              		.global	TimerTestMode_SetPWMInvert
 500              		.code	16
 501              		.thumb_func
 502              		.type	TimerTestMode_SetPWMInvert, %function
 503              	TimerTestMode_SetPWMInvert:
 504              	.LFB14:
 586:Generated_Source\PSoC4/TimerTestMode.c ****     uint8 enableInterrupts;
 505              		.loc 1 586 0
 506              		.cfi_startproc
 507              	.LVL36:
 508 0000 10B5     		push	{r4, lr}
 509              		.cfi_def_cfa_offset 8
 510              		.cfi_offset 4, -8
 511              		.cfi_offset 14, -4
 586:Generated_Source\PSoC4/TimerTestMode.c ****     uint8 enableInterrupts;
 512              		.loc 1 586 0
 513 0002 041C     		mov	r4, r0
 589:Generated_Source\PSoC4/TimerTestMode.c **** 
 514              		.loc 1 589 0
 515 0004 FFF7FEFF 		bl	CyEnterCriticalSection
 516              	.LVL37:
 591:Generated_Source\PSoC4/TimerTestMode.c ****     TimerTestMode_CONTROL_REG |= mask;
 517              		.loc 1 591 0
 518 0008 054B     		ldr	r3, .L32
 519 000a 064A     		ldr	r2, .L32+4
 520 000c 1968     		ldr	r1, [r3]
 595:Generated_Source\PSoC4/TimerTestMode.c **** 
 521              		.loc 1 595 0
 522              		@ sp needed
 591:Generated_Source\PSoC4/TimerTestMode.c ****     TimerTestMode_CONTROL_REG |= mask;
 523              		.loc 1 591 0
 524 000e 0A40     		and	r2, r1
 525 0010 1A60     		str	r2, [r3]
 592:Generated_Source\PSoC4/TimerTestMode.c **** 
 526              		.loc 1 592 0
 527 0012 1A68     		ldr	r2, [r3]
 528 0014 2243     		orr	r2, r4
 529 0016 1A60     		str	r2, [r3]
 594:Generated_Source\PSoC4/TimerTestMode.c **** }
ARM GAS  C:\Users\Petro\AppData\Local\Temp\ccpWYAL3.s 			page 35


 530              		.loc 1 594 0
 531 0018 FFF7FEFF 		bl	CyExitCriticalSection
 532              	.LVL38:
 533              	.LVL39:
 595:Generated_Source\PSoC4/TimerTestMode.c **** 
 534              		.loc 1 595 0
 535 001c 10BD     		pop	{r4, pc}
 536              	.L33:
 537 001e C046     		.align	2
 538              	.L32:
 539 0020 40012040 		.word	1075839296
 540 0024 FFFFCFFF 		.word	-3145729
 541              		.cfi_endproc
 542              	.LFE14:
 543              		.size	TimerTestMode_SetPWMInvert, .-TimerTestMode_SetPWMInvert
 544              		.section	.text.TimerTestMode_WriteCounter,"ax",%progbits
 545              		.align	1
 546              		.global	TimerTestMode_WriteCounter
 547              		.code	16
 548              		.thumb_func
 549              		.type	TimerTestMode_WriteCounter, %function
 550              	TimerTestMode_WriteCounter:
 551              	.LFB15:
 616:Generated_Source\PSoC4/TimerTestMode.c ****     TimerTestMode_COUNTER_REG = (count & TimerTestMode_16BIT_MASK);
 552              		.loc 1 616 0
 553              		.cfi_startproc
 554              	.LVL40:
 617:Generated_Source\PSoC4/TimerTestMode.c **** }
 555              		.loc 1 617 0
 556 0000 014B     		ldr	r3, .L35
 557 0002 80B2     		uxth	r0, r0
 558              	.LVL41:
 559 0004 1860     		str	r0, [r3]
 618:Generated_Source\PSoC4/TimerTestMode.c **** 
 560              		.loc 1 618 0
 561              		@ sp needed
 562 0006 7047     		bx	lr
 563              	.L36:
 564              		.align	2
 565              	.L35:
 566 0008 48012040 		.word	1075839304
 567              		.cfi_endproc
 568              	.LFE15:
 569              		.size	TimerTestMode_WriteCounter, .-TimerTestMode_WriteCounter
 570              		.section	.text.TimerTestMode_ReadCounter,"ax",%progbits
 571              		.align	1
 572              		.global	TimerTestMode_ReadCounter
 573              		.code	16
 574              		.thumb_func
 575              		.type	TimerTestMode_ReadCounter, %function
 576              	TimerTestMode_ReadCounter:
 577              	.LFB16:
 636:Generated_Source\PSoC4/TimerTestMode.c ****     return (TimerTestMode_COUNTER_REG & TimerTestMode_16BIT_MASK);
 578              		.loc 1 636 0
 579              		.cfi_startproc
 637:Generated_Source\PSoC4/TimerTestMode.c **** }
 580              		.loc 1 637 0
ARM GAS  C:\Users\Petro\AppData\Local\Temp\ccpWYAL3.s 			page 36


 581 0000 014B     		ldr	r3, .L38
 638:Generated_Source\PSoC4/TimerTestMode.c **** 
 582              		.loc 1 638 0
 583              		@ sp needed
 637:Generated_Source\PSoC4/TimerTestMode.c **** }
 584              		.loc 1 637 0
 585 0002 1868     		ldr	r0, [r3]
 586 0004 80B2     		uxth	r0, r0
 638:Generated_Source\PSoC4/TimerTestMode.c **** 
 587              		.loc 1 638 0
 588 0006 7047     		bx	lr
 589              	.L39:
 590              		.align	2
 591              	.L38:
 592 0008 48012040 		.word	1075839304
 593              		.cfi_endproc
 594              	.LFE16:
 595              		.size	TimerTestMode_ReadCounter, .-TimerTestMode_ReadCounter
 596              		.section	.text.TimerTestMode_SetCounterMode,"ax",%progbits
 597              		.align	1
 598              		.global	TimerTestMode_SetCounterMode
 599              		.code	16
 600              		.thumb_func
 601              		.type	TimerTestMode_SetCounterMode, %function
 602              	TimerTestMode_SetCounterMode:
 603              	.LFB17:
 665:Generated_Source\PSoC4/TimerTestMode.c ****     uint8 enableInterrupts;
 604              		.loc 1 665 0
 605              		.cfi_startproc
 606              	.LVL42:
 607 0000 10B5     		push	{r4, lr}
 608              		.cfi_def_cfa_offset 8
 609              		.cfi_offset 4, -8
 610              		.cfi_offset 14, -4
 665:Generated_Source\PSoC4/TimerTestMode.c ****     uint8 enableInterrupts;
 611              		.loc 1 665 0
 612 0002 041C     		mov	r4, r0
 668:Generated_Source\PSoC4/TimerTestMode.c **** 
 613              		.loc 1 668 0
 614 0004 FFF7FEFF 		bl	CyEnterCriticalSection
 615              	.LVL43:
 670:Generated_Source\PSoC4/TimerTestMode.c ****     TimerTestMode_CONTROL_REG |= counterMode;
 616              		.loc 1 670 0
 617 0008 054B     		ldr	r3, .L41
 618 000a 064A     		ldr	r2, .L41+4
 619 000c 1968     		ldr	r1, [r3]
 674:Generated_Source\PSoC4/TimerTestMode.c **** 
 620              		.loc 1 674 0
 621              		@ sp needed
 670:Generated_Source\PSoC4/TimerTestMode.c ****     TimerTestMode_CONTROL_REG |= counterMode;
 622              		.loc 1 670 0
 623 000e 0A40     		and	r2, r1
 624 0010 1A60     		str	r2, [r3]
 671:Generated_Source\PSoC4/TimerTestMode.c **** 
 625              		.loc 1 671 0
 626 0012 1A68     		ldr	r2, [r3]
 627 0014 2243     		orr	r2, r4
ARM GAS  C:\Users\Petro\AppData\Local\Temp\ccpWYAL3.s 			page 37


 628 0016 1A60     		str	r2, [r3]
 673:Generated_Source\PSoC4/TimerTestMode.c **** }
 629              		.loc 1 673 0
 630 0018 FFF7FEFF 		bl	CyExitCriticalSection
 631              	.LVL44:
 632              	.LVL45:
 674:Generated_Source\PSoC4/TimerTestMode.c **** 
 633              		.loc 1 674 0
 634 001c 10BD     		pop	{r4, pc}
 635              	.L42:
 636 001e C046     		.align	2
 637              	.L41:
 638 0020 40012040 		.word	1075839296
 639 0024 FFFFFCFF 		.word	-196609
 640              		.cfi_endproc
 641              	.LFE17:
 642              		.size	TimerTestMode_SetCounterMode, .-TimerTestMode_SetCounterMode
 643              		.section	.text.TimerTestMode_WritePeriod,"ax",%progbits
 644              		.align	1
 645              		.global	TimerTestMode_WritePeriod
 646              		.code	16
 647              		.thumb_func
 648              		.type	TimerTestMode_WritePeriod, %function
 649              	TimerTestMode_WritePeriod:
 650              	.LFB18:
 694:Generated_Source\PSoC4/TimerTestMode.c ****     TimerTestMode_PERIOD_REG = (period & TimerTestMode_16BIT_MASK);
 651              		.loc 1 694 0
 652              		.cfi_startproc
 653              	.LVL46:
 695:Generated_Source\PSoC4/TimerTestMode.c **** }
 654              		.loc 1 695 0
 655 0000 014B     		ldr	r3, .L44
 656 0002 80B2     		uxth	r0, r0
 657              	.LVL47:
 658 0004 1860     		str	r0, [r3]
 696:Generated_Source\PSoC4/TimerTestMode.c **** 
 659              		.loc 1 696 0
 660              		@ sp needed
 661 0006 7047     		bx	lr
 662              	.L45:
 663              		.align	2
 664              	.L44:
 665 0008 54012040 		.word	1075839316
 666              		.cfi_endproc
 667              	.LFE18:
 668              		.size	TimerTestMode_WritePeriod, .-TimerTestMode_WritePeriod
 669              		.section	.text.TimerTestMode_ReadPeriod,"ax",%progbits
 670              		.align	1
 671              		.global	TimerTestMode_ReadPeriod
 672              		.code	16
 673              		.thumb_func
 674              		.type	TimerTestMode_ReadPeriod, %function
 675              	TimerTestMode_ReadPeriod:
 676              	.LFB19:
 714:Generated_Source\PSoC4/TimerTestMode.c ****     return (TimerTestMode_PERIOD_REG & TimerTestMode_16BIT_MASK);
 677              		.loc 1 714 0
 678              		.cfi_startproc
ARM GAS  C:\Users\Petro\AppData\Local\Temp\ccpWYAL3.s 			page 38


 715:Generated_Source\PSoC4/TimerTestMode.c **** }
 679              		.loc 1 715 0
 680 0000 014B     		ldr	r3, .L47
 716:Generated_Source\PSoC4/TimerTestMode.c **** 
 681              		.loc 1 716 0
 682              		@ sp needed
 715:Generated_Source\PSoC4/TimerTestMode.c **** }
 683              		.loc 1 715 0
 684 0002 1868     		ldr	r0, [r3]
 685 0004 80B2     		uxth	r0, r0
 716:Generated_Source\PSoC4/TimerTestMode.c **** 
 686              		.loc 1 716 0
 687 0006 7047     		bx	lr
 688              	.L48:
 689              		.align	2
 690              	.L47:
 691 0008 54012040 		.word	1075839316
 692              		.cfi_endproc
 693              	.LFE19:
 694              		.size	TimerTestMode_ReadPeriod, .-TimerTestMode_ReadPeriod
 695              		.section	.text.TimerTestMode_SetCompareSwap,"ax",%progbits
 696              		.align	1
 697              		.global	TimerTestMode_SetCompareSwap
 698              		.code	16
 699              		.thumb_func
 700              		.type	TimerTestMode_SetCompareSwap, %function
 701              	TimerTestMode_SetCompareSwap:
 702              	.LFB20:
 740:Generated_Source\PSoC4/TimerTestMode.c ****     uint8 enableInterrupts;
 703              		.loc 1 740 0
 704              		.cfi_startproc
 705              	.LVL48:
 706 0000 10B5     		push	{r4, lr}
 707              		.cfi_def_cfa_offset 8
 708              		.cfi_offset 4, -8
 709              		.cfi_offset 14, -4
 740:Generated_Source\PSoC4/TimerTestMode.c ****     uint8 enableInterrupts;
 710              		.loc 1 740 0
 711 0002 041C     		mov	r4, r0
 743:Generated_Source\PSoC4/TimerTestMode.c **** 
 712              		.loc 1 743 0
 713 0004 FFF7FEFF 		bl	CyEnterCriticalSection
 714              	.LVL49:
 745:Generated_Source\PSoC4/TimerTestMode.c ****     TimerTestMode_CONTROL_REG |= (swapEnable & TimerTestMode_1BIT_MASK);
 715              		.loc 1 745 0
 716 0008 0122     		mov	r2, #1
 717 000a 054B     		ldr	r3, .L50
 749:Generated_Source\PSoC4/TimerTestMode.c **** 
 718              		.loc 1 749 0
 719              		@ sp needed
 745:Generated_Source\PSoC4/TimerTestMode.c ****     TimerTestMode_CONTROL_REG |= (swapEnable & TimerTestMode_1BIT_MASK);
 720              		.loc 1 745 0
 721 000c 1968     		ldr	r1, [r3]
 722 000e 9143     		bic	r1, r2
 723 0010 1960     		str	r1, [r3]
 746:Generated_Source\PSoC4/TimerTestMode.c **** 
 724              		.loc 1 746 0
ARM GAS  C:\Users\Petro\AppData\Local\Temp\ccpWYAL3.s 			page 39


 725 0012 1968     		ldr	r1, [r3]
 726 0014 2240     		and	r2, r4
 727 0016 0A43     		orr	r2, r1
 728 0018 1A60     		str	r2, [r3]
 748:Generated_Source\PSoC4/TimerTestMode.c **** }
 729              		.loc 1 748 0
 730 001a FFF7FEFF 		bl	CyExitCriticalSection
 731              	.LVL50:
 732              	.LVL51:
 749:Generated_Source\PSoC4/TimerTestMode.c **** 
 733              		.loc 1 749 0
 734 001e 10BD     		pop	{r4, pc}
 735              	.L51:
 736              		.align	2
 737              	.L50:
 738 0020 40012040 		.word	1075839296
 739              		.cfi_endproc
 740              	.LFE20:
 741              		.size	TimerTestMode_SetCompareSwap, .-TimerTestMode_SetCompareSwap
 742              		.section	.text.TimerTestMode_WritePeriodBuf,"ax",%progbits
 743              		.align	1
 744              		.global	TimerTestMode_WritePeriodBuf
 745              		.code	16
 746              		.thumb_func
 747              		.type	TimerTestMode_WritePeriodBuf, %function
 748              	TimerTestMode_WritePeriodBuf:
 749              	.LFB21:
 767:Generated_Source\PSoC4/TimerTestMode.c ****     TimerTestMode_PERIOD_BUF_REG = (periodBuf & TimerTestMode_16BIT_MASK);
 750              		.loc 1 767 0
 751              		.cfi_startproc
 752              	.LVL52:
 768:Generated_Source\PSoC4/TimerTestMode.c **** }
 753              		.loc 1 768 0
 754 0000 014B     		ldr	r3, .L53
 755 0002 80B2     		uxth	r0, r0
 756              	.LVL53:
 757 0004 1860     		str	r0, [r3]
 769:Generated_Source\PSoC4/TimerTestMode.c **** 
 758              		.loc 1 769 0
 759              		@ sp needed
 760 0006 7047     		bx	lr
 761              	.L54:
 762              		.align	2
 763              	.L53:
 764 0008 58012040 		.word	1075839320
 765              		.cfi_endproc
 766              	.LFE21:
 767              		.size	TimerTestMode_WritePeriodBuf, .-TimerTestMode_WritePeriodBuf
 768              		.section	.text.TimerTestMode_ReadPeriodBuf,"ax",%progbits
 769              		.align	1
 770              		.global	TimerTestMode_ReadPeriodBuf
 771              		.code	16
 772              		.thumb_func
 773              		.type	TimerTestMode_ReadPeriodBuf, %function
 774              	TimerTestMode_ReadPeriodBuf:
 775              	.LFB22:
 787:Generated_Source\PSoC4/TimerTestMode.c ****     return (TimerTestMode_PERIOD_BUF_REG & TimerTestMode_16BIT_MASK);
ARM GAS  C:\Users\Petro\AppData\Local\Temp\ccpWYAL3.s 			page 40


 776              		.loc 1 787 0
 777              		.cfi_startproc
 788:Generated_Source\PSoC4/TimerTestMode.c **** }
 778              		.loc 1 788 0
 779 0000 014B     		ldr	r3, .L56
 789:Generated_Source\PSoC4/TimerTestMode.c **** 
 780              		.loc 1 789 0
 781              		@ sp needed
 788:Generated_Source\PSoC4/TimerTestMode.c **** }
 782              		.loc 1 788 0
 783 0002 1868     		ldr	r0, [r3]
 784 0004 80B2     		uxth	r0, r0
 789:Generated_Source\PSoC4/TimerTestMode.c **** 
 785              		.loc 1 789 0
 786 0006 7047     		bx	lr
 787              	.L57:
 788              		.align	2
 789              	.L56:
 790 0008 58012040 		.word	1075839320
 791              		.cfi_endproc
 792              	.LFE22:
 793              		.size	TimerTestMode_ReadPeriodBuf, .-TimerTestMode_ReadPeriodBuf
 794              		.section	.text.TimerTestMode_SetPeriodSwap,"ax",%progbits
 795              		.align	1
 796              		.global	TimerTestMode_SetPeriodSwap
 797              		.code	16
 798              		.thumb_func
 799              		.type	TimerTestMode_SetPeriodSwap, %function
 800              	TimerTestMode_SetPeriodSwap:
 801              	.LFB23:
 813:Generated_Source\PSoC4/TimerTestMode.c ****     uint8 enableInterrupts;
 802              		.loc 1 813 0
 803              		.cfi_startproc
 804              	.LVL54:
 805 0000 10B5     		push	{r4, lr}
 806              		.cfi_def_cfa_offset 8
 807              		.cfi_offset 4, -8
 808              		.cfi_offset 14, -4
 813:Generated_Source\PSoC4/TimerTestMode.c ****     uint8 enableInterrupts;
 809              		.loc 1 813 0
 810 0002 041C     		mov	r4, r0
 816:Generated_Source\PSoC4/TimerTestMode.c **** 
 811              		.loc 1 816 0
 812 0004 FFF7FEFF 		bl	CyEnterCriticalSection
 813              	.LVL55:
 818:Generated_Source\PSoC4/TimerTestMode.c ****     TimerTestMode_CONTROL_REG |= ((uint32)((swapEnable & TimerTestMode_1BIT_MASK) <<
 814              		.loc 1 818 0
 815 0008 0221     		mov	r1, #2
 816 000a 064A     		ldr	r2, .L59
 823:Generated_Source\PSoC4/TimerTestMode.c **** 
 817              		.loc 1 823 0
 818              		@ sp needed
 818:Generated_Source\PSoC4/TimerTestMode.c ****     TimerTestMode_CONTROL_REG |= ((uint32)((swapEnable & TimerTestMode_1BIT_MASK) <<
 819              		.loc 1 818 0
 820 000c 1368     		ldr	r3, [r2]
 821 000e 8B43     		bic	r3, r1
 822 0010 1360     		str	r3, [r2]
ARM GAS  C:\Users\Petro\AppData\Local\Temp\ccpWYAL3.s 			page 41


 819:Generated_Source\PSoC4/TimerTestMode.c ****                                                             TimerTestMode_RELOAD_PERIOD_SHIFT));
 823              		.loc 1 819 0
 824 0012 0123     		mov	r3, #1
 825 0014 1168     		ldr	r1, [r2]
 826 0016 2340     		and	r3, r4
 827 0018 5B00     		lsl	r3, r3, #1
 828 001a 0B43     		orr	r3, r1
 829 001c 1360     		str	r3, [r2]
 822:Generated_Source\PSoC4/TimerTestMode.c **** }
 830              		.loc 1 822 0
 831 001e FFF7FEFF 		bl	CyExitCriticalSection
 832              	.LVL56:
 833              	.LVL57:
 823:Generated_Source\PSoC4/TimerTestMode.c **** 
 834              		.loc 1 823 0
 835 0022 10BD     		pop	{r4, pc}
 836              	.L60:
 837              		.align	2
 838              	.L59:
 839 0024 40012040 		.word	1075839296
 840              		.cfi_endproc
 841              	.LFE23:
 842              		.size	TimerTestMode_SetPeriodSwap, .-TimerTestMode_SetPeriodSwap
 843              		.section	.text.TimerTestMode_WriteCompare,"ax",%progbits
 844              		.align	1
 845              		.global	TimerTestMode_WriteCompare
 846              		.code	16
 847              		.thumb_func
 848              		.type	TimerTestMode_WriteCompare, %function
 849              	TimerTestMode_WriteCompare:
 850              	.LFB24:
 850:Generated_Source\PSoC4/TimerTestMode.c ****     #if (TimerTestMode_CY_TCPWM_4000)
 851              		.loc 1 850 0
 852              		.cfi_startproc
 853              	.LVL58:
 873:Generated_Source\PSoC4/TimerTestMode.c **** }
 854              		.loc 1 873 0
 855 0000 014B     		ldr	r3, .L62
 856 0002 80B2     		uxth	r0, r0
 857              	.LVL59:
 858 0004 1860     		str	r0, [r3]
 874:Generated_Source\PSoC4/TimerTestMode.c **** 
 859              		.loc 1 874 0
 860              		@ sp needed
 861 0006 7047     		bx	lr
 862              	.L63:
 863              		.align	2
 864              	.L62:
 865 0008 4C012040 		.word	1075839308
 866              		.cfi_endproc
 867              	.LFE24:
 868              		.size	TimerTestMode_WriteCompare, .-TimerTestMode_WriteCompare
 869              		.section	.text.TimerTestMode_ReadCompare,"ax",%progbits
 870              		.align	1
 871              		.global	TimerTestMode_ReadCompare
 872              		.code	16
 873              		.thumb_func
ARM GAS  C:\Users\Petro\AppData\Local\Temp\ccpWYAL3.s 			page 42


 874              		.type	TimerTestMode_ReadCompare, %function
 875              	TimerTestMode_ReadCompare:
 876              	.LFB25:
 901:Generated_Source\PSoC4/TimerTestMode.c ****     #if (TimerTestMode_CY_TCPWM_4000)
 877              		.loc 1 901 0
 878              		.cfi_startproc
 926:Generated_Source\PSoC4/TimerTestMode.c ****     #endif /* (TimerTestMode_CY_TCPWM_4000) */
 879              		.loc 1 926 0
 880 0000 014B     		ldr	r3, .L65
 928:Generated_Source\PSoC4/TimerTestMode.c **** 
 881              		.loc 1 928 0
 882              		@ sp needed
 926:Generated_Source\PSoC4/TimerTestMode.c ****     #endif /* (TimerTestMode_CY_TCPWM_4000) */
 883              		.loc 1 926 0
 884 0002 1868     		ldr	r0, [r3]
 885 0004 80B2     		uxth	r0, r0
 928:Generated_Source\PSoC4/TimerTestMode.c **** 
 886              		.loc 1 928 0
 887 0006 7047     		bx	lr
 888              	.L66:
 889              		.align	2
 890              	.L65:
 891 0008 4C012040 		.word	1075839308
 892              		.cfi_endproc
 893              	.LFE25:
 894              		.size	TimerTestMode_ReadCompare, .-TimerTestMode_ReadCompare
 895              		.section	.text.TimerTestMode_WriteCompareBuf,"ax",%progbits
 896              		.align	1
 897              		.global	TimerTestMode_WriteCompareBuf
 898              		.code	16
 899              		.thumb_func
 900              		.type	TimerTestMode_WriteCompareBuf, %function
 901              	TimerTestMode_WriteCompareBuf:
 902              	.LFB26:
 955:Generated_Source\PSoC4/TimerTestMode.c ****     #if (TimerTestMode_CY_TCPWM_4000)
 903              		.loc 1 955 0
 904              		.cfi_startproc
 905              	.LVL60:
 976:Generated_Source\PSoC4/TimerTestMode.c **** }
 906              		.loc 1 976 0
 907 0000 014B     		ldr	r3, .L68
 908 0002 80B2     		uxth	r0, r0
 909              	.LVL61:
 910 0004 1860     		str	r0, [r3]
 977:Generated_Source\PSoC4/TimerTestMode.c **** 
 911              		.loc 1 977 0
 912              		@ sp needed
 913 0006 7047     		bx	lr
 914              	.L69:
 915              		.align	2
 916              	.L68:
 917 0008 50012040 		.word	1075839312
 918              		.cfi_endproc
 919              	.LFE26:
 920              		.size	TimerTestMode_WriteCompareBuf, .-TimerTestMode_WriteCompareBuf
 921              		.section	.text.TimerTestMode_ReadCompareBuf,"ax",%progbits
 922              		.align	1
ARM GAS  C:\Users\Petro\AppData\Local\Temp\ccpWYAL3.s 			page 43


 923              		.global	TimerTestMode_ReadCompareBuf
 924              		.code	16
 925              		.thumb_func
 926              		.type	TimerTestMode_ReadCompareBuf, %function
 927              	TimerTestMode_ReadCompareBuf:
 928              	.LFB27:
1001:Generated_Source\PSoC4/TimerTestMode.c ****     #if (TimerTestMode_CY_TCPWM_4000)
 929              		.loc 1 1001 0
 930              		.cfi_startproc
1026:Generated_Source\PSoC4/TimerTestMode.c ****     #endif /* (TimerTestMode_CY_TCPWM_4000) */
 931              		.loc 1 1026 0
 932 0000 014B     		ldr	r3, .L71
1028:Generated_Source\PSoC4/TimerTestMode.c **** 
 933              		.loc 1 1028 0
 934              		@ sp needed
1026:Generated_Source\PSoC4/TimerTestMode.c ****     #endif /* (TimerTestMode_CY_TCPWM_4000) */
 935              		.loc 1 1026 0
 936 0002 1868     		ldr	r0, [r3]
 937 0004 80B2     		uxth	r0, r0
1028:Generated_Source\PSoC4/TimerTestMode.c **** 
 938              		.loc 1 1028 0
 939 0006 7047     		bx	lr
 940              	.L72:
 941              		.align	2
 942              	.L71:
 943 0008 50012040 		.word	1075839312
 944              		.cfi_endproc
 945              	.LFE27:
 946              		.size	TimerTestMode_ReadCompareBuf, .-TimerTestMode_ReadCompareBuf
 947              		.section	.text.TimerTestMode_ReadCapture,"ax",%progbits
 948              		.align	1
 949              		.global	TimerTestMode_ReadCapture
 950              		.code	16
 951              		.thumb_func
 952              		.type	TimerTestMode_ReadCapture, %function
 953              	TimerTestMode_ReadCapture:
 954              	.LFB28:
1047:Generated_Source\PSoC4/TimerTestMode.c ****     return (TimerTestMode_COMP_CAP_REG & TimerTestMode_16BIT_MASK);
 955              		.loc 1 1047 0
 956              		.cfi_startproc
1048:Generated_Source\PSoC4/TimerTestMode.c **** }
 957              		.loc 1 1048 0
 958 0000 014B     		ldr	r3, .L74
1049:Generated_Source\PSoC4/TimerTestMode.c **** 
 959              		.loc 1 1049 0
 960              		@ sp needed
1048:Generated_Source\PSoC4/TimerTestMode.c **** }
 961              		.loc 1 1048 0
 962 0002 1868     		ldr	r0, [r3]
 963 0004 80B2     		uxth	r0, r0
1049:Generated_Source\PSoC4/TimerTestMode.c **** 
 964              		.loc 1 1049 0
 965 0006 7047     		bx	lr
 966              	.L75:
 967              		.align	2
 968              	.L74:
 969 0008 4C012040 		.word	1075839308
ARM GAS  C:\Users\Petro\AppData\Local\Temp\ccpWYAL3.s 			page 44


 970              		.cfi_endproc
 971              	.LFE28:
 972              		.size	TimerTestMode_ReadCapture, .-TimerTestMode_ReadCapture
 973              		.section	.text.TimerTestMode_ReadCaptureBuf,"ax",%progbits
 974              		.align	1
 975              		.global	TimerTestMode_ReadCaptureBuf
 976              		.code	16
 977              		.thumb_func
 978              		.type	TimerTestMode_ReadCaptureBuf, %function
 979              	TimerTestMode_ReadCaptureBuf:
 980              	.LFB29:
1068:Generated_Source\PSoC4/TimerTestMode.c ****     return (TimerTestMode_COMP_CAP_BUF_REG & TimerTestMode_16BIT_MASK);
 981              		.loc 1 1068 0
 982              		.cfi_startproc
1069:Generated_Source\PSoC4/TimerTestMode.c **** }
 983              		.loc 1 1069 0
 984 0000 014B     		ldr	r3, .L77
1070:Generated_Source\PSoC4/TimerTestMode.c **** 
 985              		.loc 1 1070 0
 986              		@ sp needed
1069:Generated_Source\PSoC4/TimerTestMode.c **** }
 987              		.loc 1 1069 0
 988 0002 1868     		ldr	r0, [r3]
 989 0004 80B2     		uxth	r0, r0
1070:Generated_Source\PSoC4/TimerTestMode.c **** 
 990              		.loc 1 1070 0
 991 0006 7047     		bx	lr
 992              	.L78:
 993              		.align	2
 994              	.L77:
 995 0008 50012040 		.word	1075839312
 996              		.cfi_endproc
 997              	.LFE29:
 998              		.size	TimerTestMode_ReadCaptureBuf, .-TimerTestMode_ReadCaptureBuf
 999              		.section	.text.TimerTestMode_SetCaptureMode,"ax",%progbits
 1000              		.align	1
 1001              		.global	TimerTestMode_SetCaptureMode
 1002              		.code	16
 1003              		.thumb_func
 1004              		.type	TimerTestMode_SetCaptureMode, %function
 1005              	TimerTestMode_SetCaptureMode:
 1006              	.LFB30:
1095:Generated_Source\PSoC4/TimerTestMode.c ****     uint8 enableInterrupts;
 1007              		.loc 1 1095 0
 1008              		.cfi_startproc
 1009              	.LVL62:
 1010 0000 10B5     		push	{r4, lr}
 1011              		.cfi_def_cfa_offset 8
 1012              		.cfi_offset 4, -8
 1013              		.cfi_offset 14, -4
1095:Generated_Source\PSoC4/TimerTestMode.c ****     uint8 enableInterrupts;
 1014              		.loc 1 1095 0
 1015 0002 041C     		mov	r4, r0
1098:Generated_Source\PSoC4/TimerTestMode.c **** 
 1016              		.loc 1 1098 0
 1017 0004 FFF7FEFF 		bl	CyEnterCriticalSection
 1018              	.LVL63:
ARM GAS  C:\Users\Petro\AppData\Local\Temp\ccpWYAL3.s 			page 45


1100:Generated_Source\PSoC4/TimerTestMode.c ****     TimerTestMode_TRIG_CONTROL1_REG |= triggerMode;
 1019              		.loc 1 1100 0
 1020 0008 0321     		mov	r1, #3
 1021 000a 054B     		ldr	r3, .L80
1104:Generated_Source\PSoC4/TimerTestMode.c **** 
 1022              		.loc 1 1104 0
 1023              		@ sp needed
1100:Generated_Source\PSoC4/TimerTestMode.c ****     TimerTestMode_TRIG_CONTROL1_REG |= triggerMode;
 1024              		.loc 1 1100 0
 1025 000c 1A68     		ldr	r2, [r3]
 1026 000e 8A43     		bic	r2, r1
 1027 0010 1A60     		str	r2, [r3]
1101:Generated_Source\PSoC4/TimerTestMode.c **** 
 1028              		.loc 1 1101 0
 1029 0012 1A68     		ldr	r2, [r3]
 1030 0014 2243     		orr	r2, r4
 1031 0016 1A60     		str	r2, [r3]
1103:Generated_Source\PSoC4/TimerTestMode.c **** }
 1032              		.loc 1 1103 0
 1033 0018 FFF7FEFF 		bl	CyExitCriticalSection
 1034              	.LVL64:
 1035              	.LVL65:
1104:Generated_Source\PSoC4/TimerTestMode.c **** 
 1036              		.loc 1 1104 0
 1037 001c 10BD     		pop	{r4, pc}
 1038              	.L81:
 1039 001e C046     		.align	2
 1040              	.L80:
 1041 0020 64012040 		.word	1075839332
 1042              		.cfi_endproc
 1043              	.LFE30:
 1044              		.size	TimerTestMode_SetCaptureMode, .-TimerTestMode_SetCaptureMode
 1045              		.section	.text.TimerTestMode_SetReloadMode,"ax",%progbits
 1046              		.align	1
 1047              		.global	TimerTestMode_SetReloadMode
 1048              		.code	16
 1049              		.thumb_func
 1050              		.type	TimerTestMode_SetReloadMode, %function
 1051              	TimerTestMode_SetReloadMode:
 1052              	.LFB31:
1128:Generated_Source\PSoC4/TimerTestMode.c ****     uint8 enableInterrupts;
 1053              		.loc 1 1128 0
 1054              		.cfi_startproc
 1055              	.LVL66:
 1056 0000 10B5     		push	{r4, lr}
 1057              		.cfi_def_cfa_offset 8
 1058              		.cfi_offset 4, -8
 1059              		.cfi_offset 14, -4
1128:Generated_Source\PSoC4/TimerTestMode.c ****     uint8 enableInterrupts;
 1060              		.loc 1 1128 0
 1061 0002 041C     		mov	r4, r0
1131:Generated_Source\PSoC4/TimerTestMode.c **** 
 1062              		.loc 1 1131 0
 1063 0004 FFF7FEFF 		bl	CyEnterCriticalSection
 1064              	.LVL67:
1133:Generated_Source\PSoC4/TimerTestMode.c ****     TimerTestMode_TRIG_CONTROL1_REG |= ((uint32)(triggerMode << TimerTestMode_RELOAD_SHIFT));
 1065              		.loc 1 1133 0
ARM GAS  C:\Users\Petro\AppData\Local\Temp\ccpWYAL3.s 			page 46


 1066 0008 3021     		mov	r1, #48
 1067 000a 054B     		ldr	r3, .L83
1137:Generated_Source\PSoC4/TimerTestMode.c **** 
 1068              		.loc 1 1137 0
 1069              		@ sp needed
1133:Generated_Source\PSoC4/TimerTestMode.c ****     TimerTestMode_TRIG_CONTROL1_REG |= ((uint32)(triggerMode << TimerTestMode_RELOAD_SHIFT));
 1070              		.loc 1 1133 0
 1071 000c 1A68     		ldr	r2, [r3]
 1072 000e 8A43     		bic	r2, r1
 1073 0010 1A60     		str	r2, [r3]
1134:Generated_Source\PSoC4/TimerTestMode.c **** 
 1074              		.loc 1 1134 0
 1075 0012 1968     		ldr	r1, [r3]
 1076 0014 2201     		lsl	r2, r4, #4
 1077 0016 0A43     		orr	r2, r1
 1078 0018 1A60     		str	r2, [r3]
1136:Generated_Source\PSoC4/TimerTestMode.c **** }
 1079              		.loc 1 1136 0
 1080 001a FFF7FEFF 		bl	CyExitCriticalSection
 1081              	.LVL68:
 1082              	.LVL69:
1137:Generated_Source\PSoC4/TimerTestMode.c **** 
 1083              		.loc 1 1137 0
 1084 001e 10BD     		pop	{r4, pc}
 1085              	.L84:
 1086              		.align	2
 1087              	.L83:
 1088 0020 64012040 		.word	1075839332
 1089              		.cfi_endproc
 1090              	.LFE31:
 1091              		.size	TimerTestMode_SetReloadMode, .-TimerTestMode_SetReloadMode
 1092              		.section	.text.TimerTestMode_SetStartMode,"ax",%progbits
 1093              		.align	1
 1094              		.global	TimerTestMode_SetStartMode
 1095              		.code	16
 1096              		.thumb_func
 1097              		.type	TimerTestMode_SetStartMode, %function
 1098              	TimerTestMode_SetStartMode:
 1099              	.LFB32:
1161:Generated_Source\PSoC4/TimerTestMode.c ****     uint8 enableInterrupts;
 1100              		.loc 1 1161 0
 1101              		.cfi_startproc
 1102              	.LVL70:
 1103 0000 10B5     		push	{r4, lr}
 1104              		.cfi_def_cfa_offset 8
 1105              		.cfi_offset 4, -8
 1106              		.cfi_offset 14, -4
1161:Generated_Source\PSoC4/TimerTestMode.c ****     uint8 enableInterrupts;
 1107              		.loc 1 1161 0
 1108 0002 041C     		mov	r4, r0
1164:Generated_Source\PSoC4/TimerTestMode.c **** 
 1109              		.loc 1 1164 0
 1110 0004 FFF7FEFF 		bl	CyEnterCriticalSection
 1111              	.LVL71:
1166:Generated_Source\PSoC4/TimerTestMode.c ****     TimerTestMode_TRIG_CONTROL1_REG |= ((uint32)(triggerMode << TimerTestMode_START_SHIFT));
 1112              		.loc 1 1166 0
 1113 0008 054B     		ldr	r3, .L86
ARM GAS  C:\Users\Petro\AppData\Local\Temp\ccpWYAL3.s 			page 47


 1114 000a 064A     		ldr	r2, .L86+4
 1115 000c 1968     		ldr	r1, [r3]
1170:Generated_Source\PSoC4/TimerTestMode.c **** 
 1116              		.loc 1 1170 0
 1117              		@ sp needed
1166:Generated_Source\PSoC4/TimerTestMode.c ****     TimerTestMode_TRIG_CONTROL1_REG |= ((uint32)(triggerMode << TimerTestMode_START_SHIFT));
 1118              		.loc 1 1166 0
 1119 000e 0A40     		and	r2, r1
 1120 0010 1A60     		str	r2, [r3]
1167:Generated_Source\PSoC4/TimerTestMode.c **** 
 1121              		.loc 1 1167 0
 1122 0012 1968     		ldr	r1, [r3]
 1123 0014 2202     		lsl	r2, r4, #8
 1124 0016 0A43     		orr	r2, r1
 1125 0018 1A60     		str	r2, [r3]
1169:Generated_Source\PSoC4/TimerTestMode.c **** }
 1126              		.loc 1 1169 0
 1127 001a FFF7FEFF 		bl	CyExitCriticalSection
 1128              	.LVL72:
 1129              	.LVL73:
1170:Generated_Source\PSoC4/TimerTestMode.c **** 
 1130              		.loc 1 1170 0
 1131 001e 10BD     		pop	{r4, pc}
 1132              	.L87:
 1133              		.align	2
 1134              	.L86:
 1135 0020 64012040 		.word	1075839332
 1136 0024 FFFCFFFF 		.word	-769
 1137              		.cfi_endproc
 1138              	.LFE32:
 1139              		.size	TimerTestMode_SetStartMode, .-TimerTestMode_SetStartMode
 1140              		.section	.text.TimerTestMode_SetStopMode,"ax",%progbits
 1141              		.align	1
 1142              		.global	TimerTestMode_SetStopMode
 1143              		.code	16
 1144              		.thumb_func
 1145              		.type	TimerTestMode_SetStopMode, %function
 1146              	TimerTestMode_SetStopMode:
 1147              	.LFB33:
1193:Generated_Source\PSoC4/TimerTestMode.c ****     uint8 enableInterrupts;
 1148              		.loc 1 1193 0
 1149              		.cfi_startproc
 1150              	.LVL74:
 1151 0000 10B5     		push	{r4, lr}
 1152              		.cfi_def_cfa_offset 8
 1153              		.cfi_offset 4, -8
 1154              		.cfi_offset 14, -4
1193:Generated_Source\PSoC4/TimerTestMode.c ****     uint8 enableInterrupts;
 1155              		.loc 1 1193 0
 1156 0002 041C     		mov	r4, r0
1196:Generated_Source\PSoC4/TimerTestMode.c **** 
 1157              		.loc 1 1196 0
 1158 0004 FFF7FEFF 		bl	CyEnterCriticalSection
 1159              	.LVL75:
1198:Generated_Source\PSoC4/TimerTestMode.c ****     TimerTestMode_TRIG_CONTROL1_REG |= ((uint32)(triggerMode << TimerTestMode_STOP_SHIFT));
 1160              		.loc 1 1198 0
 1161 0008 C021     		mov	r1, #192
ARM GAS  C:\Users\Petro\AppData\Local\Temp\ccpWYAL3.s 			page 48


 1162 000a 054B     		ldr	r3, .L89
1202:Generated_Source\PSoC4/TimerTestMode.c **** 
 1163              		.loc 1 1202 0
 1164              		@ sp needed
1198:Generated_Source\PSoC4/TimerTestMode.c ****     TimerTestMode_TRIG_CONTROL1_REG |= ((uint32)(triggerMode << TimerTestMode_STOP_SHIFT));
 1165              		.loc 1 1198 0
 1166 000c 1A68     		ldr	r2, [r3]
 1167 000e 8A43     		bic	r2, r1
 1168 0010 1A60     		str	r2, [r3]
1199:Generated_Source\PSoC4/TimerTestMode.c **** 
 1169              		.loc 1 1199 0
 1170 0012 1968     		ldr	r1, [r3]
 1171 0014 A201     		lsl	r2, r4, #6
 1172 0016 0A43     		orr	r2, r1
 1173 0018 1A60     		str	r2, [r3]
1201:Generated_Source\PSoC4/TimerTestMode.c **** }
 1174              		.loc 1 1201 0
 1175 001a FFF7FEFF 		bl	CyExitCriticalSection
 1176              	.LVL76:
 1177              	.LVL77:
1202:Generated_Source\PSoC4/TimerTestMode.c **** 
 1178              		.loc 1 1202 0
 1179 001e 10BD     		pop	{r4, pc}
 1180              	.L90:
 1181              		.align	2
 1182              	.L89:
 1183 0020 64012040 		.word	1075839332
 1184              		.cfi_endproc
 1185              	.LFE33:
 1186              		.size	TimerTestMode_SetStopMode, .-TimerTestMode_SetStopMode
 1187              		.section	.text.TimerTestMode_SetCountMode,"ax",%progbits
 1188              		.align	1
 1189              		.global	TimerTestMode_SetCountMode
 1190              		.code	16
 1191              		.thumb_func
 1192              		.type	TimerTestMode_SetCountMode, %function
 1193              	TimerTestMode_SetCountMode:
 1194              	.LFB34:
1226:Generated_Source\PSoC4/TimerTestMode.c ****     uint8 enableInterrupts;
 1195              		.loc 1 1226 0
 1196              		.cfi_startproc
 1197              	.LVL78:
 1198 0000 10B5     		push	{r4, lr}
 1199              		.cfi_def_cfa_offset 8
 1200              		.cfi_offset 4, -8
 1201              		.cfi_offset 14, -4
1226:Generated_Source\PSoC4/TimerTestMode.c ****     uint8 enableInterrupts;
 1202              		.loc 1 1226 0
 1203 0002 041C     		mov	r4, r0
1229:Generated_Source\PSoC4/TimerTestMode.c **** 
 1204              		.loc 1 1229 0
 1205 0004 FFF7FEFF 		bl	CyEnterCriticalSection
 1206              	.LVL79:
1231:Generated_Source\PSoC4/TimerTestMode.c ****     TimerTestMode_TRIG_CONTROL1_REG |= ((uint32)(triggerMode << TimerTestMode_COUNT_SHIFT));
 1207              		.loc 1 1231 0
 1208 0008 0C21     		mov	r1, #12
 1209 000a 054B     		ldr	r3, .L92
ARM GAS  C:\Users\Petro\AppData\Local\Temp\ccpWYAL3.s 			page 49


1235:Generated_Source\PSoC4/TimerTestMode.c **** 
 1210              		.loc 1 1235 0
 1211              		@ sp needed
1231:Generated_Source\PSoC4/TimerTestMode.c ****     TimerTestMode_TRIG_CONTROL1_REG |= ((uint32)(triggerMode << TimerTestMode_COUNT_SHIFT));
 1212              		.loc 1 1231 0
 1213 000c 1A68     		ldr	r2, [r3]
 1214 000e 8A43     		bic	r2, r1
 1215 0010 1A60     		str	r2, [r3]
1232:Generated_Source\PSoC4/TimerTestMode.c **** 
 1216              		.loc 1 1232 0
 1217 0012 1968     		ldr	r1, [r3]
 1218 0014 A200     		lsl	r2, r4, #2
 1219 0016 0A43     		orr	r2, r1
 1220 0018 1A60     		str	r2, [r3]
1234:Generated_Source\PSoC4/TimerTestMode.c **** }
 1221              		.loc 1 1234 0
 1222 001a FFF7FEFF 		bl	CyExitCriticalSection
 1223              	.LVL80:
 1224              	.LVL81:
1235:Generated_Source\PSoC4/TimerTestMode.c **** 
 1225              		.loc 1 1235 0
 1226 001e 10BD     		pop	{r4, pc}
 1227              	.L93:
 1228              		.align	2
 1229              	.L92:
 1230 0020 64012040 		.word	1075839332
 1231              		.cfi_endproc
 1232              	.LFE34:
 1233              		.size	TimerTestMode_SetCountMode, .-TimerTestMode_SetCountMode
 1234              		.section	.text.TimerTestMode_TriggerCommand,"ax",%progbits
 1235              		.align	1
 1236              		.global	TimerTestMode_TriggerCommand
 1237              		.code	16
 1238              		.thumb_func
 1239              		.type	TimerTestMode_TriggerCommand, %function
 1240              	TimerTestMode_TriggerCommand:
 1241              	.LFB35:
1266:Generated_Source\PSoC4/TimerTestMode.c ****     uint8 enableInterrupts;
 1242              		.loc 1 1266 0
 1243              		.cfi_startproc
 1244              	.LVL82:
 1245 0000 38B5     		push	{r3, r4, r5, lr}
 1246              		.cfi_def_cfa_offset 16
 1247              		.cfi_offset 3, -16
 1248              		.cfi_offset 4, -12
 1249              		.cfi_offset 5, -8
 1250              		.cfi_offset 14, -4
1266:Generated_Source\PSoC4/TimerTestMode.c ****     uint8 enableInterrupts;
 1251              		.loc 1 1266 0
 1252 0002 0D1C     		mov	r5, r1
 1253 0004 041C     		mov	r4, r0
1271:Generated_Source\PSoC4/TimerTestMode.c **** 
 1254              		.loc 1 1271 0
 1255 0006 AC40     		lsl	r4, r4, r5
1269:Generated_Source\PSoC4/TimerTestMode.c **** 
 1256              		.loc 1 1269 0
 1257 0008 FFF7FEFF 		bl	CyEnterCriticalSection
ARM GAS  C:\Users\Petro\AppData\Local\Temp\ccpWYAL3.s 			page 50


 1258              	.LVL83:
1271:Generated_Source\PSoC4/TimerTestMode.c **** 
 1259              		.loc 1 1271 0
 1260 000c 024B     		ldr	r3, .L95
1274:Generated_Source\PSoC4/TimerTestMode.c **** 
 1261              		.loc 1 1274 0
 1262              		@ sp needed
1271:Generated_Source\PSoC4/TimerTestMode.c **** 
 1263              		.loc 1 1271 0
 1264 000e 1C60     		str	r4, [r3]
1273:Generated_Source\PSoC4/TimerTestMode.c **** }
 1265              		.loc 1 1273 0
 1266 0010 FFF7FEFF 		bl	CyExitCriticalSection
 1267              	.LVL84:
 1268              	.LVL85:
1274:Generated_Source\PSoC4/TimerTestMode.c **** 
 1269              		.loc 1 1274 0
 1270 0014 38BD     		pop	{r3, r4, r5, pc}
 1271              	.L96:
 1272 0016 C046     		.align	2
 1273              	.L95:
 1274 0018 08002040 		.word	1075838984
 1275              		.cfi_endproc
 1276              	.LFE35:
 1277              		.size	TimerTestMode_TriggerCommand, .-TimerTestMode_TriggerCommand
 1278              		.section	.text.TimerTestMode_Enable,"ax",%progbits
 1279              		.align	1
 1280              		.global	TimerTestMode_Enable
 1281              		.code	16
 1282              		.thumb_func
 1283              		.type	TimerTestMode_Enable, %function
 1284              	TimerTestMode_Enable:
 1285              	.LFB3:
 178:Generated_Source\PSoC4/TimerTestMode.c ****     uint8 enableInterrupts;
 1286              		.loc 1 178 0
 1287              		.cfi_startproc
 1288 0000 10B5     		push	{r4, lr}
 1289              		.cfi_def_cfa_offset 8
 1290              		.cfi_offset 4, -8
 1291              		.cfi_offset 14, -4
 182:Generated_Source\PSoC4/TimerTestMode.c ****     CyExitCriticalSection(enableInterrupts);
 1292              		.loc 1 182 0
 1293 0002 0224     		mov	r4, #2
 181:Generated_Source\PSoC4/TimerTestMode.c ****     TimerTestMode_BLOCK_CONTROL_REG |= TimerTestMode_MASK;
 1294              		.loc 1 181 0
 1295 0004 FFF7FEFF 		bl	CyEnterCriticalSection
 1296              	.LVL86:
 182:Generated_Source\PSoC4/TimerTestMode.c ****     CyExitCriticalSection(enableInterrupts);
 1297              		.loc 1 182 0
 1298 0008 054A     		ldr	r2, .L98
 203:Generated_Source\PSoC4/TimerTestMode.c **** 
 1299              		.loc 1 203 0
 1300              		@ sp needed
 182:Generated_Source\PSoC4/TimerTestMode.c ****     CyExitCriticalSection(enableInterrupts);
 1301              		.loc 1 182 0
 1302 000a 1368     		ldr	r3, [r2]
 1303 000c 2343     		orr	r3, r4
ARM GAS  C:\Users\Petro\AppData\Local\Temp\ccpWYAL3.s 			page 51


 1304 000e 1360     		str	r3, [r2]
 183:Generated_Source\PSoC4/TimerTestMode.c **** 
 1305              		.loc 1 183 0
 1306 0010 FFF7FEFF 		bl	CyExitCriticalSection
 1307              	.LVL87:
 194:Generated_Source\PSoC4/TimerTestMode.c ****         #endif /* (0u == TimerTestMode_TC_START_SIGNAL_PRESENT) */
 1308              		.loc 1 194 0
 1309 0014 201C     		mov	r0, r4
 1310 0016 1821     		mov	r1, #24
 1311 0018 FFF7FEFF 		bl	TimerTestMode_TriggerCommand
 1312              	.LVL88:
 203:Generated_Source\PSoC4/TimerTestMode.c **** 
 1313              		.loc 1 203 0
 1314 001c 10BD     		pop	{r4, pc}
 1315              	.L99:
 1316 001e C046     		.align	2
 1317              	.L98:
 1318 0020 00002040 		.word	1075838976
 1319              		.cfi_endproc
 1320              	.LFE3:
 1321              		.size	TimerTestMode_Enable, .-TimerTestMode_Enable
 1322              		.section	.text.TimerTestMode_Start,"ax",%progbits
 1323              		.align	1
 1324              		.global	TimerTestMode_Start
 1325              		.code	16
 1326              		.thumb_func
 1327              		.type	TimerTestMode_Start, %function
 1328              	TimerTestMode_Start:
 1329              	.LFB4:
 231:Generated_Source\PSoC4/TimerTestMode.c ****     if (0u == TimerTestMode_initVar)
 1330              		.loc 1 231 0
 1331              		.cfi_startproc
 1332 0000 10B5     		push	{r4, lr}
 1333              		.cfi_def_cfa_offset 8
 1334              		.cfi_offset 4, -8
 1335              		.cfi_offset 14, -4
 232:Generated_Source\PSoC4/TimerTestMode.c ****     {
 1336              		.loc 1 232 0
 1337 0002 054C     		ldr	r4, .L103
 1338 0004 2378     		ldrb	r3, [r4]
 1339 0006 002B     		cmp	r3, #0
 1340 0008 03D1     		bne	.L101
 234:Generated_Source\PSoC4/TimerTestMode.c ****         TimerTestMode_initVar = 1u;
 1341              		.loc 1 234 0
 1342 000a FFF7FEFF 		bl	TimerTestMode_Init
 1343              	.LVL89:
 235:Generated_Source\PSoC4/TimerTestMode.c ****     }
 1344              		.loc 1 235 0
 1345 000e 0123     		mov	r3, #1
 1346 0010 2370     		strb	r3, [r4]
 1347              	.L101:
 238:Generated_Source\PSoC4/TimerTestMode.c **** }
 1348              		.loc 1 238 0
 1349 0012 FFF7FEFF 		bl	TimerTestMode_Enable
 1350              	.LVL90:
 239:Generated_Source\PSoC4/TimerTestMode.c **** 
 1351              		.loc 1 239 0
ARM GAS  C:\Users\Petro\AppData\Local\Temp\ccpWYAL3.s 			page 52


 1352              		@ sp needed
 1353 0016 10BD     		pop	{r4, pc}
 1354              	.L104:
 1355              		.align	2
 1356              	.L103:
 1357 0018 00000000 		.word	.LANCHOR0
 1358              		.cfi_endproc
 1359              	.LFE4:
 1360              		.size	TimerTestMode_Start, .-TimerTestMode_Start
 1361              		.section	.text.TimerTestMode_ReadStatus,"ax",%progbits
 1362              		.align	1
 1363              		.global	TimerTestMode_ReadStatus
 1364              		.code	16
 1365              		.thumb_func
 1366              		.type	TimerTestMode_ReadStatus, %function
 1367              	TimerTestMode_ReadStatus:
 1368              	.LFB36:
1295:Generated_Source\PSoC4/TimerTestMode.c ****     return ((TimerTestMode_STATUS_REG >> TimerTestMode_RUNNING_STATUS_SHIFT) |
 1369              		.loc 1 1295 0
 1370              		.cfi_startproc
1296:Generated_Source\PSoC4/TimerTestMode.c ****             (TimerTestMode_STATUS_REG & TimerTestMode_STATUS_DOWN));
 1371              		.loc 1 1296 0
 1372 0000 034A     		ldr	r2, .L106
1298:Generated_Source\PSoC4/TimerTestMode.c **** 
 1373              		.loc 1 1298 0
 1374              		@ sp needed
1296:Generated_Source\PSoC4/TimerTestMode.c ****             (TimerTestMode_STATUS_REG & TimerTestMode_STATUS_DOWN));
 1375              		.loc 1 1296 0
 1376 0002 1368     		ldr	r3, [r2]
1297:Generated_Source\PSoC4/TimerTestMode.c **** }
 1377              		.loc 1 1297 0
 1378 0004 1068     		ldr	r0, [r2]
 1379 0006 0122     		mov	r2, #1
1296:Generated_Source\PSoC4/TimerTestMode.c ****             (TimerTestMode_STATUS_REG & TimerTestMode_STATUS_DOWN));
 1380              		.loc 1 1296 0
 1381 0008 9B0F     		lsr	r3, r3, #30
1297:Generated_Source\PSoC4/TimerTestMode.c **** }
 1382              		.loc 1 1297 0
 1383 000a 1040     		and	r0, r2
1296:Generated_Source\PSoC4/TimerTestMode.c ****             (TimerTestMode_STATUS_REG & TimerTestMode_STATUS_DOWN));
 1384              		.loc 1 1296 0
 1385 000c 1843     		orr	r0, r3
1298:Generated_Source\PSoC4/TimerTestMode.c **** 
 1386              		.loc 1 1298 0
 1387 000e 7047     		bx	lr
 1388              	.L107:
 1389              		.align	2
 1390              	.L106:
 1391 0010 44012040 		.word	1075839300
 1392              		.cfi_endproc
 1393              	.LFE36:
 1394              		.size	TimerTestMode_ReadStatus, .-TimerTestMode_ReadStatus
 1395              		.section	.text.TimerTestMode_SetInterruptMode,"ax",%progbits
 1396              		.align	1
 1397              		.global	TimerTestMode_SetInterruptMode
 1398              		.code	16
 1399              		.thumb_func
ARM GAS  C:\Users\Petro\AppData\Local\Temp\ccpWYAL3.s 			page 53


 1400              		.type	TimerTestMode_SetInterruptMode, %function
 1401              	TimerTestMode_SetInterruptMode:
 1402              	.LFB37:
1320:Generated_Source\PSoC4/TimerTestMode.c ****     TimerTestMode_INTERRUPT_MASK_REG =  interruptMask;
 1403              		.loc 1 1320 0
 1404              		.cfi_startproc
 1405              	.LVL91:
 1406              		.loc 1 1321 0
 1407 0000 014B     		ldr	r3, .L109
1322:Generated_Source\PSoC4/TimerTestMode.c **** }
 1408              		.loc 1 1322 0
 1409              		@ sp needed
1321:Generated_Source\PSoC4/TimerTestMode.c **** }
 1410              		.loc 1 1321 0
 1411 0002 1860     		str	r0, [r3]
 1412              		.loc 1 1322 0
 1413 0004 7047     		bx	lr
 1414              	.L110:
 1415 0006 C046     		.align	2
 1416              	.L109:
 1417 0008 78012040 		.word	1075839352
 1418              		.cfi_endproc
 1419              	.LFE37:
 1420              		.size	TimerTestMode_SetInterruptMode, .-TimerTestMode_SetInterruptMode
 1421              		.section	.text.TimerTestMode_GetInterruptSourceMasked,"ax",%progbits
 1422              		.align	1
 1423              		.global	TimerTestMode_GetInterruptSourceMasked
 1424              		.code	16
 1425              		.thumb_func
 1426              		.type	TimerTestMode_GetInterruptSourceMasked, %function
 1427              	TimerTestMode_GetInterruptSourceMasked:
 1428              	.LFB38:
1323:Generated_Source\PSoC4/TimerTestMode.c **** 
1324:Generated_Source\PSoC4/TimerTestMode.c **** 
1325:Generated_Source\PSoC4/TimerTestMode.c **** /*******************************************************************************
1326:Generated_Source\PSoC4/TimerTestMode.c **** * Function Name: TimerTestMode_GetInterruptSourceMasked
1327:Generated_Source\PSoC4/TimerTestMode.c **** ********************************************************************************
1328:Generated_Source\PSoC4/TimerTestMode.c **** *
1329:Generated_Source\PSoC4/TimerTestMode.c **** * Summary:
1330:Generated_Source\PSoC4/TimerTestMode.c **** *  Gets the interrupt requests masked by the interrupt mask.
1331:Generated_Source\PSoC4/TimerTestMode.c **** *
1332:Generated_Source\PSoC4/TimerTestMode.c **** * Parameters:
1333:Generated_Source\PSoC4/TimerTestMode.c **** *   None
1334:Generated_Source\PSoC4/TimerTestMode.c **** *
1335:Generated_Source\PSoC4/TimerTestMode.c **** * Return:
1336:Generated_Source\PSoC4/TimerTestMode.c **** *  Masked interrupt source
1337:Generated_Source\PSoC4/TimerTestMode.c **** *   Values:
1338:Generated_Source\PSoC4/TimerTestMode.c **** *     - TimerTestMode_INTR_MASK_TC       - Terminal count mask
1339:Generated_Source\PSoC4/TimerTestMode.c **** *     - TimerTestMode_INTR_MASK_CC_MATCH - Compare count / capture mask
1340:Generated_Source\PSoC4/TimerTestMode.c **** *
1341:Generated_Source\PSoC4/TimerTestMode.c **** *******************************************************************************/
1342:Generated_Source\PSoC4/TimerTestMode.c **** uint32 TimerTestMode_GetInterruptSourceMasked(void)
1343:Generated_Source\PSoC4/TimerTestMode.c **** {
 1429              		.loc 1 1343 0
 1430              		.cfi_startproc
1344:Generated_Source\PSoC4/TimerTestMode.c ****     return (TimerTestMode_INTERRUPT_MASKED_REG);
 1431              		.loc 1 1344 0
ARM GAS  C:\Users\Petro\AppData\Local\Temp\ccpWYAL3.s 			page 54


 1432 0000 014B     		ldr	r3, .L112
1345:Generated_Source\PSoC4/TimerTestMode.c **** }
 1433              		.loc 1 1345 0
 1434              		@ sp needed
1344:Generated_Source\PSoC4/TimerTestMode.c ****     return (TimerTestMode_INTERRUPT_MASKED_REG);
 1435              		.loc 1 1344 0
 1436 0002 1868     		ldr	r0, [r3]
 1437              		.loc 1 1345 0
 1438 0004 7047     		bx	lr
 1439              	.L113:
 1440 0006 C046     		.align	2
 1441              	.L112:
 1442 0008 7C012040 		.word	1075839356
 1443              		.cfi_endproc
 1444              	.LFE38:
 1445              		.size	TimerTestMode_GetInterruptSourceMasked, .-TimerTestMode_GetInterruptSourceMasked
 1446              		.section	.text.TimerTestMode_GetInterruptSource,"ax",%progbits
 1447              		.align	1
 1448              		.global	TimerTestMode_GetInterruptSource
 1449              		.code	16
 1450              		.thumb_func
 1451              		.type	TimerTestMode_GetInterruptSource, %function
 1452              	TimerTestMode_GetInterruptSource:
 1453              	.LFB39:
1346:Generated_Source\PSoC4/TimerTestMode.c **** 
1347:Generated_Source\PSoC4/TimerTestMode.c **** 
1348:Generated_Source\PSoC4/TimerTestMode.c **** /*******************************************************************************
1349:Generated_Source\PSoC4/TimerTestMode.c **** * Function Name: TimerTestMode_GetInterruptSource
1350:Generated_Source\PSoC4/TimerTestMode.c **** ********************************************************************************
1351:Generated_Source\PSoC4/TimerTestMode.c **** *
1352:Generated_Source\PSoC4/TimerTestMode.c **** * Summary:
1353:Generated_Source\PSoC4/TimerTestMode.c **** *  Gets the interrupt requests (without masking).
1354:Generated_Source\PSoC4/TimerTestMode.c **** *
1355:Generated_Source\PSoC4/TimerTestMode.c **** * Parameters:
1356:Generated_Source\PSoC4/TimerTestMode.c **** *  None
1357:Generated_Source\PSoC4/TimerTestMode.c **** *
1358:Generated_Source\PSoC4/TimerTestMode.c **** * Return:
1359:Generated_Source\PSoC4/TimerTestMode.c **** *  Interrupt request value
1360:Generated_Source\PSoC4/TimerTestMode.c **** *   Values:
1361:Generated_Source\PSoC4/TimerTestMode.c **** *     - TimerTestMode_INTR_MASK_TC       - Terminal count mask
1362:Generated_Source\PSoC4/TimerTestMode.c **** *     - TimerTestMode_INTR_MASK_CC_MATCH - Compare count / capture mask
1363:Generated_Source\PSoC4/TimerTestMode.c **** *
1364:Generated_Source\PSoC4/TimerTestMode.c **** *******************************************************************************/
1365:Generated_Source\PSoC4/TimerTestMode.c **** uint32 TimerTestMode_GetInterruptSource(void)
1366:Generated_Source\PSoC4/TimerTestMode.c **** {
 1454              		.loc 1 1366 0
 1455              		.cfi_startproc
1367:Generated_Source\PSoC4/TimerTestMode.c ****     return (TimerTestMode_INTERRUPT_REQ_REG);
 1456              		.loc 1 1367 0
 1457 0000 014B     		ldr	r3, .L115
1368:Generated_Source\PSoC4/TimerTestMode.c **** }
 1458              		.loc 1 1368 0
 1459              		@ sp needed
1367:Generated_Source\PSoC4/TimerTestMode.c ****     return (TimerTestMode_INTERRUPT_REQ_REG);
 1460              		.loc 1 1367 0
 1461 0002 1868     		ldr	r0, [r3]
 1462              		.loc 1 1368 0
ARM GAS  C:\Users\Petro\AppData\Local\Temp\ccpWYAL3.s 			page 55


 1463 0004 7047     		bx	lr
 1464              	.L116:
 1465 0006 C046     		.align	2
 1466              	.L115:
 1467 0008 70012040 		.word	1075839344
 1468              		.cfi_endproc
 1469              	.LFE39:
 1470              		.size	TimerTestMode_GetInterruptSource, .-TimerTestMode_GetInterruptSource
 1471              		.section	.text.TimerTestMode_ClearInterrupt,"ax",%progbits
 1472              		.align	1
 1473              		.global	TimerTestMode_ClearInterrupt
 1474              		.code	16
 1475              		.thumb_func
 1476              		.type	TimerTestMode_ClearInterrupt, %function
 1477              	TimerTestMode_ClearInterrupt:
 1478              	.LFB40:
1369:Generated_Source\PSoC4/TimerTestMode.c **** 
1370:Generated_Source\PSoC4/TimerTestMode.c **** 
1371:Generated_Source\PSoC4/TimerTestMode.c **** /*******************************************************************************
1372:Generated_Source\PSoC4/TimerTestMode.c **** * Function Name: TimerTestMode_ClearInterrupt
1373:Generated_Source\PSoC4/TimerTestMode.c **** ********************************************************************************
1374:Generated_Source\PSoC4/TimerTestMode.c **** *
1375:Generated_Source\PSoC4/TimerTestMode.c **** * Summary:
1376:Generated_Source\PSoC4/TimerTestMode.c **** *  Clears the interrupt request.
1377:Generated_Source\PSoC4/TimerTestMode.c **** *
1378:Generated_Source\PSoC4/TimerTestMode.c **** * Parameters:
1379:Generated_Source\PSoC4/TimerTestMode.c **** *   interruptMask: Mask of interrupts to clear
1380:Generated_Source\PSoC4/TimerTestMode.c **** *   Values:
1381:Generated_Source\PSoC4/TimerTestMode.c **** *     - TimerTestMode_INTR_MASK_TC       - Terminal count mask
1382:Generated_Source\PSoC4/TimerTestMode.c **** *     - TimerTestMode_INTR_MASK_CC_MATCH - Compare count / capture mask
1383:Generated_Source\PSoC4/TimerTestMode.c **** *
1384:Generated_Source\PSoC4/TimerTestMode.c **** * Return:
1385:Generated_Source\PSoC4/TimerTestMode.c **** *  None
1386:Generated_Source\PSoC4/TimerTestMode.c **** *
1387:Generated_Source\PSoC4/TimerTestMode.c **** *******************************************************************************/
1388:Generated_Source\PSoC4/TimerTestMode.c **** void TimerTestMode_ClearInterrupt(uint32 interruptMask)
1389:Generated_Source\PSoC4/TimerTestMode.c **** {
 1479              		.loc 1 1389 0
 1480              		.cfi_startproc
 1481              	.LVL92:
1390:Generated_Source\PSoC4/TimerTestMode.c ****     TimerTestMode_INTERRUPT_REQ_REG = interruptMask;
 1482              		.loc 1 1390 0
 1483 0000 014B     		ldr	r3, .L118
1391:Generated_Source\PSoC4/TimerTestMode.c **** }
 1484              		.loc 1 1391 0
 1485              		@ sp needed
1390:Generated_Source\PSoC4/TimerTestMode.c ****     TimerTestMode_INTERRUPT_REQ_REG = interruptMask;
 1486              		.loc 1 1390 0
 1487 0002 1860     		str	r0, [r3]
 1488              		.loc 1 1391 0
 1489 0004 7047     		bx	lr
 1490              	.L119:
 1491 0006 C046     		.align	2
 1492              	.L118:
 1493 0008 70012040 		.word	1075839344
 1494              		.cfi_endproc
 1495              	.LFE40:
ARM GAS  C:\Users\Petro\AppData\Local\Temp\ccpWYAL3.s 			page 56


 1496              		.size	TimerTestMode_ClearInterrupt, .-TimerTestMode_ClearInterrupt
 1497              		.section	.text.TimerTestMode_SetInterrupt,"ax",%progbits
 1498              		.align	1
 1499              		.global	TimerTestMode_SetInterrupt
 1500              		.code	16
 1501              		.thumb_func
 1502              		.type	TimerTestMode_SetInterrupt, %function
 1503              	TimerTestMode_SetInterrupt:
 1504              	.LFB41:
1392:Generated_Source\PSoC4/TimerTestMode.c **** 
1393:Generated_Source\PSoC4/TimerTestMode.c **** 
1394:Generated_Source\PSoC4/TimerTestMode.c **** /*******************************************************************************
1395:Generated_Source\PSoC4/TimerTestMode.c **** * Function Name: TimerTestMode_SetInterrupt
1396:Generated_Source\PSoC4/TimerTestMode.c **** ********************************************************************************
1397:Generated_Source\PSoC4/TimerTestMode.c **** *
1398:Generated_Source\PSoC4/TimerTestMode.c **** * Summary:
1399:Generated_Source\PSoC4/TimerTestMode.c **** *  Sets a software interrupt request.
1400:Generated_Source\PSoC4/TimerTestMode.c **** *
1401:Generated_Source\PSoC4/TimerTestMode.c **** * Parameters:
1402:Generated_Source\PSoC4/TimerTestMode.c **** *   interruptMask: Mask of interrupts to set
1403:Generated_Source\PSoC4/TimerTestMode.c **** *   Values:
1404:Generated_Source\PSoC4/TimerTestMode.c **** *     - TimerTestMode_INTR_MASK_TC       - Terminal count mask
1405:Generated_Source\PSoC4/TimerTestMode.c **** *     - TimerTestMode_INTR_MASK_CC_MATCH - Compare count / capture mask
1406:Generated_Source\PSoC4/TimerTestMode.c **** *
1407:Generated_Source\PSoC4/TimerTestMode.c **** * Return:
1408:Generated_Source\PSoC4/TimerTestMode.c **** *  None
1409:Generated_Source\PSoC4/TimerTestMode.c **** *
1410:Generated_Source\PSoC4/TimerTestMode.c **** *******************************************************************************/
1411:Generated_Source\PSoC4/TimerTestMode.c **** void TimerTestMode_SetInterrupt(uint32 interruptMask)
1412:Generated_Source\PSoC4/TimerTestMode.c **** {
 1505              		.loc 1 1412 0
 1506              		.cfi_startproc
 1507              	.LVL93:
1413:Generated_Source\PSoC4/TimerTestMode.c ****     TimerTestMode_INTERRUPT_SET_REG = interruptMask;
 1508              		.loc 1 1413 0
 1509 0000 014B     		ldr	r3, .L121
1414:Generated_Source\PSoC4/TimerTestMode.c **** }
 1510              		.loc 1 1414 0
 1511              		@ sp needed
1413:Generated_Source\PSoC4/TimerTestMode.c ****     TimerTestMode_INTERRUPT_SET_REG = interruptMask;
 1512              		.loc 1 1413 0
 1513 0002 1860     		str	r0, [r3]
 1514              		.loc 1 1414 0
 1515 0004 7047     		bx	lr
 1516              	.L122:
 1517 0006 C046     		.align	2
 1518              	.L121:
 1519 0008 74012040 		.word	1075839348
 1520              		.cfi_endproc
 1521              	.LFE41:
 1522              		.size	TimerTestMode_SetInterrupt, .-TimerTestMode_SetInterrupt
 1523              		.global	TimerTestMode_initVar
 1524              		.bss
 1525              		.set	.LANCHOR0,. + 0
 1526              		.type	TimerTestMode_initVar, %object
 1527              		.size	TimerTestMode_initVar, 1
 1528              	TimerTestMode_initVar:
ARM GAS  C:\Users\Petro\AppData\Local\Temp\ccpWYAL3.s 			page 57


 1529 0000 00       		.space	1
 1530              		.text
 1531              	.Letext0:
 1532              		.file 2 "Generated_Source\\PSoC4\\cytypes.h"
 1533              		.file 3 "Generated_Source\\PSoC4\\CyLib.h"
 1534              		.section	.debug_info,"",%progbits
 1535              	.Ldebug_info0:
 1536 0000 5D090000 		.4byte	0x95d
 1537 0004 0400     		.2byte	0x4
 1538 0006 00000000 		.4byte	.Ldebug_abbrev0
 1539 000a 04       		.byte	0x4
 1540 000b 01       		.uleb128 0x1
 1541 000c 06000000 		.4byte	.LASF76
 1542 0010 01       		.byte	0x1
 1543 0011 0A020000 		.4byte	.LASF77
 1544 0015 C7040000 		.4byte	.LASF78
 1545 0019 00000000 		.4byte	.Ldebug_ranges0+0
 1546 001d 00000000 		.4byte	0
 1547 0021 00000000 		.4byte	.Ldebug_line0
 1548 0025 02       		.uleb128 0x2
 1549 0026 01       		.byte	0x1
 1550 0027 06       		.byte	0x6
 1551 0028 6C010000 		.4byte	.LASF0
 1552 002c 02       		.uleb128 0x2
 1553 002d 01       		.byte	0x1
 1554 002e 08       		.byte	0x8
 1555 002f 6B060000 		.4byte	.LASF1
 1556 0033 02       		.uleb128 0x2
 1557 0034 02       		.byte	0x2
 1558 0035 05       		.byte	0x5
 1559 0036 83050000 		.4byte	.LASF2
 1560 003a 02       		.uleb128 0x2
 1561 003b 02       		.byte	0x2
 1562 003c 07       		.byte	0x7
 1563 003d B8020000 		.4byte	.LASF3
 1564 0041 02       		.uleb128 0x2
 1565 0042 04       		.byte	0x4
 1566 0043 05       		.byte	0x5
 1567 0044 C2010000 		.4byte	.LASF4
 1568 0048 02       		.uleb128 0x2
 1569 0049 04       		.byte	0x4
 1570 004a 07       		.byte	0x7
 1571 004b 6A020000 		.4byte	.LASF5
 1572 004f 02       		.uleb128 0x2
 1573 0050 08       		.byte	0x8
 1574 0051 05       		.byte	0x5
 1575 0052 5E010000 		.4byte	.LASF6
 1576 0056 02       		.uleb128 0x2
 1577 0057 08       		.byte	0x8
 1578 0058 07       		.byte	0x7
 1579 0059 05010000 		.4byte	.LASF7
 1580 005d 03       		.uleb128 0x3
 1581 005e 04       		.byte	0x4
 1582 005f 05       		.byte	0x5
 1583 0060 696E7400 		.ascii	"int\000"
 1584 0064 02       		.uleb128 0x2
 1585 0065 04       		.byte	0x4
ARM GAS  C:\Users\Petro\AppData\Local\Temp\ccpWYAL3.s 			page 58


 1586 0066 07       		.byte	0x7
 1587 0067 3A020000 		.4byte	.LASF8
 1588 006b 04       		.uleb128 0x4
 1589 006c CB010000 		.4byte	.LASF9
 1590 0070 02       		.byte	0x2
 1591 0071 9801     		.2byte	0x198
 1592 0073 2C000000 		.4byte	0x2c
 1593 0077 04       		.uleb128 0x4
 1594 0078 F2010000 		.4byte	.LASF10
 1595 007c 02       		.byte	0x2
 1596 007d 9A01     		.2byte	0x19a
 1597 007f 48000000 		.4byte	0x48
 1598 0083 02       		.uleb128 0x2
 1599 0084 04       		.byte	0x4
 1600 0085 04       		.byte	0x4
 1601 0086 56040000 		.4byte	.LASF11
 1602 008a 02       		.uleb128 0x2
 1603 008b 08       		.byte	0x8
 1604 008c 04       		.byte	0x4
 1605 008d D1010000 		.4byte	.LASF12
 1606 0091 02       		.uleb128 0x2
 1607 0092 01       		.byte	0x1
 1608 0093 08       		.byte	0x8
 1609 0094 21060000 		.4byte	.LASF13
 1610 0098 04       		.uleb128 0x4
 1611 0099 92030000 		.4byte	.LASF14
 1612 009d 02       		.byte	0x2
 1613 009e 4402     		.2byte	0x244
 1614 00a0 A4000000 		.4byte	0xa4
 1615 00a4 05       		.uleb128 0x5
 1616 00a5 77000000 		.4byte	0x77
 1617 00a9 02       		.uleb128 0x2
 1618 00aa 04       		.byte	0x4
 1619 00ab 07       		.byte	0x7
 1620 00ac B5030000 		.4byte	.LASF15
 1621 00b0 06       		.uleb128 0x6
 1622 00b1 02060000 		.4byte	.LASF16
 1623 00b5 01       		.byte	0x1
 1624 00b6 2705     		.2byte	0x527
 1625 00b8 01       		.byte	0x1
 1626 00b9 CA000000 		.4byte	0xca
 1627 00bd 07       		.uleb128 0x7
 1628 00be 8D050000 		.4byte	.LASF18
 1629 00c2 01       		.byte	0x1
 1630 00c3 2705     		.2byte	0x527
 1631 00c5 77000000 		.4byte	0x77
 1632 00c9 00       		.byte	0
 1633 00ca 06       		.uleb128 0x6
 1634 00cb 24040000 		.4byte	.LASF17
 1635 00cf 01       		.byte	0x1
 1636 00d0 B502     		.2byte	0x2b5
 1637 00d2 01       		.byte	0x1
 1638 00d3 E4000000 		.4byte	0xe4
 1639 00d7 07       		.uleb128 0x7
 1640 00d8 FE000000 		.4byte	.LASF19
 1641 00dc 01       		.byte	0x1
 1642 00dd B502     		.2byte	0x2b5
ARM GAS  C:\Users\Petro\AppData\Local\Temp\ccpWYAL3.s 			page 59


 1643 00df 77000000 		.4byte	0x77
 1644 00e3 00       		.byte	0
 1645 00e4 06       		.uleb128 0x6
 1646 00e5 C8060000 		.4byte	.LASF20
 1647 00e9 01       		.byte	0x1
 1648 00ea 5103     		.2byte	0x351
 1649 00ec 01       		.byte	0x1
 1650 00ed FE000000 		.4byte	0xfe
 1651 00f1 07       		.uleb128 0x7
 1652 00f2 1C040000 		.4byte	.LASF21
 1653 00f6 01       		.byte	0x1
 1654 00f7 5103     		.2byte	0x351
 1655 00f9 77000000 		.4byte	0x77
 1656 00fd 00       		.byte	0
 1657 00fe 06       		.uleb128 0x6
 1658 00ff AA000000 		.4byte	.LASF22
 1659 0103 01       		.byte	0x1
 1660 0104 6702     		.2byte	0x267
 1661 0106 01       		.byte	0x1
 1662 0107 18010000 		.4byte	0x118
 1663 010b 07       		.uleb128 0x7
 1664 010c 00000000 		.4byte	.LASF23
 1665 0110 01       		.byte	0x1
 1666 0111 6702     		.2byte	0x267
 1667 0113 77000000 		.4byte	0x77
 1668 0117 00       		.byte	0
 1669 0118 08       		.uleb128 0x8
 1670 0119 EE060000 		.4byte	.LASF24
 1671 011d 01       		.byte	0x1
 1672 011e 26       		.byte	0x26
 1673 011f 00000000 		.4byte	.LFB2
 1674 0123 48000000 		.4byte	.LFE2-.LFB2
 1675 0127 01       		.uleb128 0x1
 1676 0128 9C       		.byte	0x9c
 1677 0129 94010000 		.4byte	0x194
 1678 012d 09       		.uleb128 0x9
 1679 012e B0000000 		.4byte	0xb0
 1680 0132 0E000000 		.4byte	.LBB10
 1681 0136 06000000 		.4byte	.LBE10-.LBB10
 1682 013a 01       		.byte	0x1
 1683 013b 40       		.byte	0x40
 1684 013c 47010000 		.4byte	0x147
 1685 0140 0A       		.uleb128 0xa
 1686 0141 BD000000 		.4byte	0xbd
 1687 0145 02       		.byte	0x2
 1688 0146 00       		.byte	0
 1689 0147 09       		.uleb128 0x9
 1690 0148 CA000000 		.4byte	0xca
 1691 014c 14000000 		.4byte	.LBB12
 1692 0150 06000000 		.4byte	.LBE12-.LBB12
 1693 0154 01       		.byte	0x1
 1694 0155 43       		.byte	0x43
 1695 0156 62010000 		.4byte	0x162
 1696 015a 0B       		.uleb128 0xb
 1697 015b D7000000 		.4byte	0xd7
 1698 015f FFFF     		.2byte	0xffff
 1699 0161 00       		.byte	0
ARM GAS  C:\Users\Petro\AppData\Local\Temp\ccpWYAL3.s 			page 60


 1700 0162 09       		.uleb128 0x9
 1701 0163 E4000000 		.4byte	0xe4
 1702 0167 1A000000 		.4byte	.LBB14
 1703 016b 06000000 		.4byte	.LBE14-.LBB14
 1704 016f 01       		.byte	0x1
 1705 0170 46       		.byte	0x46
 1706 0171 7D010000 		.4byte	0x17d
 1707 0175 0B       		.uleb128 0xb
 1708 0176 F1000000 		.4byte	0xf1
 1709 017a C409     		.2byte	0x9c4
 1710 017c 00       		.byte	0
 1711 017d 0C       		.uleb128 0xc
 1712 017e FE000000 		.4byte	0xfe
 1713 0182 20000000 		.4byte	.LBB16
 1714 0186 06000000 		.4byte	.LBE16-.LBB16
 1715 018a 01       		.byte	0x1
 1716 018b 54       		.byte	0x54
 1717 018c 0A       		.uleb128 0xa
 1718 018d 0B010000 		.4byte	0x10b
 1719 0191 00       		.byte	0
 1720 0192 00       		.byte	0
 1721 0193 00       		.byte	0
 1722 0194 0D       		.uleb128 0xd
 1723 0195 09040000 		.4byte	.LASF25
 1724 0199 01       		.byte	0x1
 1725 019a 0001     		.2byte	0x100
 1726 019c 00000000 		.4byte	.LFB5
 1727 01a0 1C000000 		.4byte	.LFE5-.LFB5
 1728 01a4 01       		.uleb128 0x1
 1729 01a5 9C       		.byte	0x9c
 1730 01a6 CD010000 		.4byte	0x1cd
 1731 01aa 0E       		.uleb128 0xe
 1732 01ab B7060000 		.4byte	.LASF27
 1733 01af 01       		.byte	0x1
 1734 01b0 0201     		.2byte	0x102
 1735 01b2 6B000000 		.4byte	0x6b
 1736 01b6 00000000 		.4byte	.LLST0
 1737 01ba 0F       		.uleb128 0xf
 1738 01bb 06000000 		.4byte	.LVL4
 1739 01bf 48090000 		.4byte	0x948
 1740 01c3 0F       		.uleb128 0xf
 1741 01c4 14000000 		.4byte	.LVL5
 1742 01c8 53090000 		.4byte	0x953
 1743 01cc 00       		.byte	0
 1744 01cd 0D       		.uleb128 0xd
 1745 01ce A1060000 		.4byte	.LASF26
 1746 01d2 01       		.byte	0x1
 1747 01d3 2501     		.2byte	0x125
 1748 01d5 00000000 		.4byte	.LFB6
 1749 01d9 28000000 		.4byte	.LFE6-.LFB6
 1750 01dd 01       		.uleb128 0x1
 1751 01de 9C       		.byte	0x9c
 1752 01df 16020000 		.4byte	0x216
 1753 01e3 10       		.uleb128 0x10
 1754 01e4 26060000 		.4byte	.LASF29
 1755 01e8 01       		.byte	0x1
 1756 01e9 2501     		.2byte	0x125
ARM GAS  C:\Users\Petro\AppData\Local\Temp\ccpWYAL3.s 			page 61


 1757 01eb 77000000 		.4byte	0x77
 1758 01ef 13000000 		.4byte	.LLST1
 1759 01f3 0E       		.uleb128 0xe
 1760 01f4 B7060000 		.4byte	.LASF27
 1761 01f8 01       		.byte	0x1
 1762 01f9 2701     		.2byte	0x127
 1763 01fb 6B000000 		.4byte	0x6b
 1764 01ff 3F000000 		.4byte	.LLST2
 1765 0203 0F       		.uleb128 0xf
 1766 0204 08000000 		.4byte	.LVL7
 1767 0208 48090000 		.4byte	0x948
 1768 020c 0F       		.uleb128 0xf
 1769 020d 1C000000 		.4byte	.LVL8
 1770 0211 53090000 		.4byte	0x953
 1771 0215 00       		.byte	0
 1772 0216 0D       		.uleb128 0xd
 1773 0217 3E040000 		.4byte	.LASF28
 1774 021b 01       		.byte	0x1
 1775 021c 4601     		.2byte	0x146
 1776 021e 00000000 		.4byte	.LFB7
 1777 0222 28000000 		.4byte	.LFE7-.LFB7
 1778 0226 01       		.uleb128 0x1
 1779 0227 9C       		.byte	0x9c
 1780 0228 5F020000 		.4byte	0x25f
 1781 022c 10       		.uleb128 0x10
 1782 022d 36010000 		.4byte	.LASF30
 1783 0231 01       		.byte	0x1
 1784 0232 4601     		.2byte	0x146
 1785 0234 77000000 		.4byte	0x77
 1786 0238 52000000 		.4byte	.LLST3
 1787 023c 0E       		.uleb128 0xe
 1788 023d B7060000 		.4byte	.LASF27
 1789 0241 01       		.byte	0x1
 1790 0242 4801     		.2byte	0x148
 1791 0244 6B000000 		.4byte	0x6b
 1792 0248 7E000000 		.4byte	.LLST4
 1793 024c 0F       		.uleb128 0xf
 1794 024d 08000000 		.4byte	.LVL11
 1795 0251 48090000 		.4byte	0x948
 1796 0255 0F       		.uleb128 0xf
 1797 0256 1C000000 		.4byte	.LVL12
 1798 025a 53090000 		.4byte	0x953
 1799 025e 00       		.byte	0
 1800 025f 0D       		.uleb128 0xd
 1801 0260 47020000 		.4byte	.LASF31
 1802 0264 01       		.byte	0x1
 1803 0265 6B01     		.2byte	0x16b
 1804 0267 00000000 		.4byte	.LFB8
 1805 026b 28000000 		.4byte	.LFE8-.LFB8
 1806 026f 01       		.uleb128 0x1
 1807 0270 9C       		.byte	0x9c
 1808 0271 A8020000 		.4byte	0x2a8
 1809 0275 10       		.uleb128 0x10
 1810 0276 5C040000 		.4byte	.LASF32
 1811 027a 01       		.byte	0x1
 1812 027b 6B01     		.2byte	0x16b
 1813 027d 77000000 		.4byte	0x77
ARM GAS  C:\Users\Petro\AppData\Local\Temp\ccpWYAL3.s 			page 62


 1814 0281 91000000 		.4byte	.LLST5
 1815 0285 0E       		.uleb128 0xe
 1816 0286 B7060000 		.4byte	.LASF27
 1817 028a 01       		.byte	0x1
 1818 028b 6D01     		.2byte	0x16d
 1819 028d 6B000000 		.4byte	0x6b
 1820 0291 BD000000 		.4byte	.LLST6
 1821 0295 0F       		.uleb128 0xf
 1822 0296 08000000 		.4byte	.LVL15
 1823 029a 48090000 		.4byte	0x948
 1824 029e 0F       		.uleb128 0xf
 1825 029f 1C000000 		.4byte	.LVL16
 1826 02a3 53090000 		.4byte	0x953
 1827 02a7 00       		.byte	0
 1828 02a8 0D       		.uleb128 0xd
 1829 02a9 CB020000 		.4byte	.LASF33
 1830 02ad 01       		.byte	0x1
 1831 02ae 8B01     		.2byte	0x18b
 1832 02b0 00000000 		.4byte	.LFB9
 1833 02b4 2C000000 		.4byte	.LFE9-.LFB9
 1834 02b8 01       		.uleb128 0x1
 1835 02b9 9C       		.byte	0x9c
 1836 02ba F1020000 		.4byte	0x2f1
 1837 02be 10       		.uleb128 0x10
 1838 02bf E4020000 		.4byte	.LASF34
 1839 02c3 01       		.byte	0x1
 1840 02c4 8B01     		.2byte	0x18b
 1841 02c6 77000000 		.4byte	0x77
 1842 02ca D0000000 		.4byte	.LLST7
 1843 02ce 0E       		.uleb128 0xe
 1844 02cf B7060000 		.4byte	.LASF27
 1845 02d3 01       		.byte	0x1
 1846 02d4 8D01     		.2byte	0x18d
 1847 02d6 6B000000 		.4byte	0x6b
 1848 02da FC000000 		.4byte	.LLST8
 1849 02de 0F       		.uleb128 0xf
 1850 02df 08000000 		.4byte	.LVL19
 1851 02e3 48090000 		.4byte	0x948
 1852 02e7 0F       		.uleb128 0xf
 1853 02e8 22000000 		.4byte	.LVL20
 1854 02ec 53090000 		.4byte	0x953
 1855 02f0 00       		.byte	0
 1856 02f1 0D       		.uleb128 0xd
 1857 02f2 52060000 		.4byte	.LASF35
 1858 02f6 01       		.byte	0x1
 1859 02f7 C101     		.2byte	0x1c1
 1860 02f9 00000000 		.4byte	.LFB10
 1861 02fd 10000000 		.4byte	.LFE10-.LFB10
 1862 0301 01       		.uleb128 0x1
 1863 0302 9C       		.byte	0x9c
 1864 0303 18030000 		.4byte	0x318
 1865 0307 10       		.uleb128 0x10
 1866 0308 7C020000 		.4byte	.LASF36
 1867 030c 01       		.byte	0x1
 1868 030d C101     		.2byte	0x1c1
 1869 030f 77000000 		.4byte	0x77
 1870 0313 0F010000 		.4byte	.LLST9
ARM GAS  C:\Users\Petro\AppData\Local\Temp\ccpWYAL3.s 			page 63


 1871 0317 00       		.byte	0
 1872 0318 0D       		.uleb128 0xd
 1873 0319 EC030000 		.4byte	.LASF37
 1874 031d 01       		.byte	0x1
 1875 031e E501     		.2byte	0x1e5
 1876 0320 00000000 		.4byte	.LFB11
 1877 0324 28000000 		.4byte	.LFE11-.LFB11
 1878 0328 01       		.uleb128 0x1
 1879 0329 9C       		.byte	0x9c
 1880 032a 61030000 		.4byte	0x361
 1881 032e 10       		.uleb128 0x10
 1882 032f DD030000 		.4byte	.LASF38
 1883 0333 01       		.byte	0x1
 1884 0334 E501     		.2byte	0x1e5
 1885 0336 77000000 		.4byte	0x77
 1886 033a 30010000 		.4byte	.LLST10
 1887 033e 0E       		.uleb128 0xe
 1888 033f B7060000 		.4byte	.LASF27
 1889 0343 01       		.byte	0x1
 1890 0344 E701     		.2byte	0x1e7
 1891 0346 6B000000 		.4byte	0x6b
 1892 034a 5C010000 		.4byte	.LLST11
 1893 034e 0F       		.uleb128 0xf
 1894 034f 08000000 		.4byte	.LVL25
 1895 0353 48090000 		.4byte	0x948
 1896 0357 0F       		.uleb128 0xf
 1897 0358 22000000 		.4byte	.LVL26
 1898 035c 53090000 		.4byte	0x953
 1899 0360 00       		.byte	0
 1900 0361 0D       		.uleb128 0xd
 1901 0362 BE030000 		.4byte	.LASF39
 1902 0366 01       		.byte	0x1
 1903 0367 0702     		.2byte	0x207
 1904 0369 00000000 		.4byte	.LFB12
 1905 036d 28000000 		.4byte	.LFE12-.LFB12
 1906 0371 01       		.uleb128 0x1
 1907 0372 9C       		.byte	0x9c
 1908 0373 AA030000 		.4byte	0x3aa
 1909 0377 10       		.uleb128 0x10
 1910 0378 55050000 		.4byte	.LASF40
 1911 037c 01       		.byte	0x1
 1912 037d 0702     		.2byte	0x207
 1913 037f 77000000 		.4byte	0x77
 1914 0383 6F010000 		.4byte	.LLST12
 1915 0387 0E       		.uleb128 0xe
 1916 0388 B7060000 		.4byte	.LASF27
 1917 038c 01       		.byte	0x1
 1918 038d 0902     		.2byte	0x209
 1919 038f 6B000000 		.4byte	0x6b
 1920 0393 9B010000 		.4byte	.LLST13
 1921 0397 0F       		.uleb128 0xf
 1922 0398 08000000 		.4byte	.LVL29
 1923 039c 48090000 		.4byte	0x948
 1924 03a0 0F       		.uleb128 0xf
 1925 03a1 22000000 		.4byte	.LVL30
 1926 03a5 53090000 		.4byte	0x953
 1927 03a9 00       		.byte	0
ARM GAS  C:\Users\Petro\AppData\Local\Temp\ccpWYAL3.s 			page 64


 1928 03aa 0D       		.uleb128 0xd
 1929 03ab 8D040000 		.4byte	.LASF41
 1930 03af 01       		.byte	0x1
 1931 03b0 2802     		.2byte	0x228
 1932 03b2 00000000 		.4byte	.LFB13
 1933 03b6 2C000000 		.4byte	.LFE13-.LFB13
 1934 03ba 01       		.uleb128 0x1
 1935 03bb 9C       		.byte	0x9c
 1936 03bc F3030000 		.4byte	0x3f3
 1937 03c0 10       		.uleb128 0x10
 1938 03c1 31020000 		.4byte	.LASF42
 1939 03c5 01       		.byte	0x1
 1940 03c6 2802     		.2byte	0x228
 1941 03c8 77000000 		.4byte	0x77
 1942 03cc AE010000 		.4byte	.LLST14
 1943 03d0 0E       		.uleb128 0xe
 1944 03d1 B7060000 		.4byte	.LASF27
 1945 03d5 01       		.byte	0x1
 1946 03d6 2A02     		.2byte	0x22a
 1947 03d8 6B000000 		.4byte	0x6b
 1948 03dc DA010000 		.4byte	.LLST15
 1949 03e0 0F       		.uleb128 0xf
 1950 03e1 08000000 		.4byte	.LVL33
 1951 03e5 48090000 		.4byte	0x948
 1952 03e9 0F       		.uleb128 0xf
 1953 03ea 20000000 		.4byte	.LVL35
 1954 03ee 53090000 		.4byte	0x953
 1955 03f2 00       		.byte	0
 1956 03f3 0D       		.uleb128 0xd
 1957 03f4 78010000 		.4byte	.LASF43
 1958 03f8 01       		.byte	0x1
 1959 03f9 4902     		.2byte	0x249
 1960 03fb 00000000 		.4byte	.LFB14
 1961 03ff 28000000 		.4byte	.LFE14-.LFB14
 1962 0403 01       		.uleb128 0x1
 1963 0404 9C       		.byte	0x9c
 1964 0405 3C040000 		.4byte	0x43c
 1965 0409 10       		.uleb128 0x10
 1966 040a 05020000 		.4byte	.LASF44
 1967 040e 01       		.byte	0x1
 1968 040f 4902     		.2byte	0x249
 1969 0411 77000000 		.4byte	0x77
 1970 0415 ED010000 		.4byte	.LLST16
 1971 0419 0E       		.uleb128 0xe
 1972 041a B7060000 		.4byte	.LASF27
 1973 041e 01       		.byte	0x1
 1974 041f 4B02     		.2byte	0x24b
 1975 0421 6B000000 		.4byte	0x6b
 1976 0425 19020000 		.4byte	.LLST17
 1977 0429 0F       		.uleb128 0xf
 1978 042a 08000000 		.4byte	.LVL37
 1979 042e 48090000 		.4byte	0x948
 1980 0432 0F       		.uleb128 0xf
 1981 0433 1C000000 		.4byte	.LVL38
 1982 0437 53090000 		.4byte	0x953
 1983 043b 00       		.byte	0
 1984 043c 11       		.uleb128 0x11
ARM GAS  C:\Users\Petro\AppData\Local\Temp\ccpWYAL3.s 			page 65


 1985 043d FE000000 		.4byte	0xfe
 1986 0441 00000000 		.4byte	.LFB15
 1987 0445 0C000000 		.4byte	.LFE15-.LFB15
 1988 0449 01       		.uleb128 0x1
 1989 044a 9C       		.byte	0x9c
 1990 044b 59040000 		.4byte	0x459
 1991 044f 12       		.uleb128 0x12
 1992 0450 0B010000 		.4byte	0x10b
 1993 0454 2C020000 		.4byte	.LLST18
 1994 0458 00       		.byte	0
 1995 0459 13       		.uleb128 0x13
 1996 045a D8010000 		.4byte	.LASF47
 1997 045e 01       		.byte	0x1
 1998 045f 7B02     		.2byte	0x27b
 1999 0461 77000000 		.4byte	0x77
 2000 0465 00000000 		.4byte	.LFB16
 2001 0469 0C000000 		.4byte	.LFE16-.LFB16
 2002 046d 01       		.uleb128 0x1
 2003 046e 9C       		.byte	0x9c
 2004 046f 0D       		.uleb128 0xd
 2005 0470 98030000 		.4byte	.LASF45
 2006 0474 01       		.byte	0x1
 2007 0475 9802     		.2byte	0x298
 2008 0477 00000000 		.4byte	.LFB17
 2009 047b 28000000 		.4byte	.LFE17-.LFB17
 2010 047f 01       		.uleb128 0x1
 2011 0480 9C       		.byte	0x9c
 2012 0481 B8040000 		.4byte	0x4b8
 2013 0485 10       		.uleb128 0x10
 2014 0486 2B060000 		.4byte	.LASF46
 2015 048a 01       		.byte	0x1
 2016 048b 9802     		.2byte	0x298
 2017 048d 77000000 		.4byte	0x77
 2018 0491 4D020000 		.4byte	.LLST19
 2019 0495 0E       		.uleb128 0xe
 2020 0496 B7060000 		.4byte	.LASF27
 2021 049a 01       		.byte	0x1
 2022 049b 9A02     		.2byte	0x29a
 2023 049d 6B000000 		.4byte	0x6b
 2024 04a1 79020000 		.4byte	.LLST20
 2025 04a5 0F       		.uleb128 0xf
 2026 04a6 08000000 		.4byte	.LVL43
 2027 04aa 48090000 		.4byte	0x948
 2028 04ae 0F       		.uleb128 0xf
 2029 04af 1C000000 		.4byte	.LVL44
 2030 04b3 53090000 		.4byte	0x953
 2031 04b7 00       		.byte	0
 2032 04b8 11       		.uleb128 0x11
 2033 04b9 CA000000 		.4byte	0xca
 2034 04bd 00000000 		.4byte	.LFB18
 2035 04c1 0C000000 		.4byte	.LFE18-.LFB18
 2036 04c5 01       		.uleb128 0x1
 2037 04c6 9C       		.byte	0x9c
 2038 04c7 D5040000 		.4byte	0x4d5
 2039 04cb 12       		.uleb128 0x12
 2040 04cc D7000000 		.4byte	0xd7
 2041 04d0 8C020000 		.4byte	.LLST21
ARM GAS  C:\Users\Petro\AppData\Local\Temp\ccpWYAL3.s 			page 66


 2042 04d4 00       		.byte	0
 2043 04d5 13       		.uleb128 0x13
 2044 04d6 3C050000 		.4byte	.LASF48
 2045 04da 01       		.byte	0x1
 2046 04db C902     		.2byte	0x2c9
 2047 04dd 77000000 		.4byte	0x77
 2048 04e1 00000000 		.4byte	.LFB19
 2049 04e5 0C000000 		.4byte	.LFE19-.LFB19
 2050 04e9 01       		.uleb128 0x1
 2051 04ea 9C       		.byte	0x9c
 2052 04eb 0D       		.uleb128 0xd
 2053 04ec 22030000 		.4byte	.LASF49
 2054 04f0 01       		.byte	0x1
 2055 04f1 E302     		.2byte	0x2e3
 2056 04f3 00000000 		.4byte	.LFB20
 2057 04f7 24000000 		.4byte	.LFE20-.LFB20
 2058 04fb 01       		.uleb128 0x1
 2059 04fc 9C       		.byte	0x9c
 2060 04fd 34050000 		.4byte	0x534
 2061 0501 10       		.uleb128 0x10
 2062 0502 E3060000 		.4byte	.LASF50
 2063 0506 01       		.byte	0x1
 2064 0507 E302     		.2byte	0x2e3
 2065 0509 77000000 		.4byte	0x77
 2066 050d AD020000 		.4byte	.LLST22
 2067 0511 0E       		.uleb128 0xe
 2068 0512 B7060000 		.4byte	.LASF27
 2069 0516 01       		.byte	0x1
 2070 0517 E502     		.2byte	0x2e5
 2071 0519 6B000000 		.4byte	0x6b
 2072 051d D9020000 		.4byte	.LLST23
 2073 0521 0F       		.uleb128 0xf
 2074 0522 08000000 		.4byte	.LVL49
 2075 0526 48090000 		.4byte	0x948
 2076 052a 0F       		.uleb128 0xf
 2077 052b 1E000000 		.4byte	.LVL50
 2078 052f 53090000 		.4byte	0x953
 2079 0533 00       		.byte	0
 2080 0534 0D       		.uleb128 0xd
 2081 0535 01070000 		.4byte	.LASF51
 2082 0539 01       		.byte	0x1
 2083 053a FE02     		.2byte	0x2fe
 2084 053c 00000000 		.4byte	.LFB21
 2085 0540 0C000000 		.4byte	.LFE21-.LFB21
 2086 0544 01       		.uleb128 0x1
 2087 0545 9C       		.byte	0x9c
 2088 0546 5B050000 		.4byte	0x55b
 2089 054a 10       		.uleb128 0x10
 2090 054b 1E070000 		.4byte	.LASF52
 2091 054f 01       		.byte	0x1
 2092 0550 FE02     		.2byte	0x2fe
 2093 0552 77000000 		.4byte	0x77
 2094 0556 EC020000 		.4byte	.LLST24
 2095 055a 00       		.byte	0
 2096 055b 13       		.uleb128 0x13
 2097 055c 9C020000 		.4byte	.LASF53
 2098 0560 01       		.byte	0x1
ARM GAS  C:\Users\Petro\AppData\Local\Temp\ccpWYAL3.s 			page 67


 2099 0561 1203     		.2byte	0x312
 2100 0563 77000000 		.4byte	0x77
 2101 0567 00000000 		.4byte	.LFB22
 2102 056b 0C000000 		.4byte	.LFE22-.LFB22
 2103 056f 01       		.uleb128 0x1
 2104 0570 9C       		.byte	0x9c
 2105 0571 0D       		.uleb128 0xd
 2106 0572 3F030000 		.4byte	.LASF54
 2107 0576 01       		.byte	0x1
 2108 0577 2C03     		.2byte	0x32c
 2109 0579 00000000 		.4byte	.LFB23
 2110 057d 28000000 		.4byte	.LFE23-.LFB23
 2111 0581 01       		.uleb128 0x1
 2112 0582 9C       		.byte	0x9c
 2113 0583 BA050000 		.4byte	0x5ba
 2114 0587 10       		.uleb128 0x10
 2115 0588 E3060000 		.4byte	.LASF50
 2116 058c 01       		.byte	0x1
 2117 058d 2C03     		.2byte	0x32c
 2118 058f 77000000 		.4byte	0x77
 2119 0593 0D030000 		.4byte	.LLST25
 2120 0597 0E       		.uleb128 0xe
 2121 0598 B7060000 		.4byte	.LASF27
 2122 059c 01       		.byte	0x1
 2123 059d 2E03     		.2byte	0x32e
 2124 059f 6B000000 		.4byte	0x6b
 2125 05a3 39030000 		.4byte	.LLST26
 2126 05a7 0F       		.uleb128 0xf
 2127 05a8 08000000 		.4byte	.LVL55
 2128 05ac 48090000 		.4byte	0x948
 2129 05b0 0F       		.uleb128 0xf
 2130 05b1 22000000 		.4byte	.LVL56
 2131 05b5 53090000 		.4byte	0x953
 2132 05b9 00       		.byte	0
 2133 05ba 11       		.uleb128 0x11
 2134 05bb E4000000 		.4byte	0xe4
 2135 05bf 00000000 		.4byte	.LFB24
 2136 05c3 0C000000 		.4byte	.LFE24-.LFB24
 2137 05c7 01       		.uleb128 0x1
 2138 05c8 9C       		.byte	0x9c
 2139 05c9 D7050000 		.4byte	0x5d7
 2140 05cd 12       		.uleb128 0x12
 2141 05ce F1000000 		.4byte	0xf1
 2142 05d2 4C030000 		.4byte	.LLST27
 2143 05d6 00       		.byte	0
 2144 05d7 13       		.uleb128 0x13
 2145 05d8 1C010000 		.4byte	.LASF55
 2146 05dc 01       		.byte	0x1
 2147 05dd 8403     		.2byte	0x384
 2148 05df 77000000 		.4byte	0x77
 2149 05e3 00000000 		.4byte	.LFB25
 2150 05e7 0C000000 		.4byte	.LFE25-.LFB25
 2151 05eb 01       		.uleb128 0x1
 2152 05ec 9C       		.byte	0x9c
 2153 05ed 0D       		.uleb128 0xd
 2154 05ee 74030000 		.4byte	.LASF56
 2155 05f2 01       		.byte	0x1
ARM GAS  C:\Users\Petro\AppData\Local\Temp\ccpWYAL3.s 			page 68


 2156 05f3 BA03     		.2byte	0x3ba
 2157 05f5 00000000 		.4byte	.LFB26
 2158 05f9 0C000000 		.4byte	.LFE26-.LFB26
 2159 05fd 01       		.uleb128 0x1
 2160 05fe 9C       		.byte	0x9c
 2161 05ff 14060000 		.4byte	0x614
 2162 0603 10       		.uleb128 0x10
 2163 0604 79060000 		.4byte	.LASF57
 2164 0608 01       		.byte	0x1
 2165 0609 BA03     		.2byte	0x3ba
 2166 060b 77000000 		.4byte	0x77
 2167 060f 6D030000 		.4byte	.LLST28
 2168 0613 00       		.byte	0
 2169 0614 13       		.uleb128 0x13
 2170 0615 E5050000 		.4byte	.LASF58
 2171 0619 01       		.byte	0x1
 2172 061a E803     		.2byte	0x3e8
 2173 061c 77000000 		.4byte	0x77
 2174 0620 00000000 		.4byte	.LFB27
 2175 0624 0C000000 		.4byte	.LFE27-.LFB27
 2176 0628 01       		.uleb128 0x1
 2177 0629 9C       		.byte	0x9c
 2178 062a 13       		.uleb128 0x13
 2179 062b CB050000 		.4byte	.LASF59
 2180 062f 01       		.byte	0x1
 2181 0630 1604     		.2byte	0x416
 2182 0632 77000000 		.4byte	0x77
 2183 0636 00000000 		.4byte	.LFB28
 2184 063a 0C000000 		.4byte	.LFE28-.LFB28
 2185 063e 01       		.uleb128 0x1
 2186 063f 9C       		.byte	0x9c
 2187 0640 13       		.uleb128 0x13
 2188 0641 C5000000 		.4byte	.LASF60
 2189 0645 01       		.byte	0x1
 2190 0646 2B04     		.2byte	0x42b
 2191 0648 77000000 		.4byte	0x77
 2192 064c 00000000 		.4byte	.LFB29
 2193 0650 0C000000 		.4byte	.LFE29-.LFB29
 2194 0654 01       		.uleb128 0x1
 2195 0655 9C       		.byte	0x9c
 2196 0656 0D       		.uleb128 0xd
 2197 0657 84060000 		.4byte	.LASF61
 2198 065b 01       		.byte	0x1
 2199 065c 4604     		.2byte	0x446
 2200 065e 00000000 		.4byte	.LFB30
 2201 0662 24000000 		.4byte	.LFE30-.LFB30
 2202 0666 01       		.uleb128 0x1
 2203 0667 9C       		.byte	0x9c
 2204 0668 9F060000 		.4byte	0x69f
 2205 066c 10       		.uleb128 0x10
 2206 066d F9010000 		.4byte	.LASF62
 2207 0671 01       		.byte	0x1
 2208 0672 4604     		.2byte	0x446
 2209 0674 77000000 		.4byte	0x77
 2210 0678 8E030000 		.4byte	.LLST29
 2211 067c 0E       		.uleb128 0xe
 2212 067d B7060000 		.4byte	.LASF27
ARM GAS  C:\Users\Petro\AppData\Local\Temp\ccpWYAL3.s 			page 69


 2213 0681 01       		.byte	0x1
 2214 0682 4804     		.2byte	0x448
 2215 0684 6B000000 		.4byte	0x6b
 2216 0688 BA030000 		.4byte	.LLST30
 2217 068c 0F       		.uleb128 0xf
 2218 068d 08000000 		.4byte	.LVL63
 2219 0691 48090000 		.4byte	0x948
 2220 0695 0F       		.uleb128 0xf
 2221 0696 1C000000 		.4byte	.LVL64
 2222 069a 53090000 		.4byte	0x953
 2223 069e 00       		.byte	0
 2224 069f 0D       		.uleb128 0xd
 2225 06a0 E2000000 		.4byte	.LASF63
 2226 06a4 01       		.byte	0x1
 2227 06a5 6704     		.2byte	0x467
 2228 06a7 00000000 		.4byte	.LFB31
 2229 06ab 24000000 		.4byte	.LFE31-.LFB31
 2230 06af 01       		.uleb128 0x1
 2231 06b0 9C       		.byte	0x9c
 2232 06b1 E8060000 		.4byte	0x6e8
 2233 06b5 10       		.uleb128 0x10
 2234 06b6 F9010000 		.4byte	.LASF62
 2235 06ba 01       		.byte	0x1
 2236 06bb 6704     		.2byte	0x467
 2237 06bd 77000000 		.4byte	0x77
 2238 06c1 CD030000 		.4byte	.LLST31
 2239 06c5 0E       		.uleb128 0xe
 2240 06c6 B7060000 		.4byte	.LASF27
 2241 06ca 01       		.byte	0x1
 2242 06cb 6904     		.2byte	0x469
 2243 06cd 6B000000 		.4byte	0x6b
 2244 06d1 F9030000 		.4byte	.LLST32
 2245 06d5 0F       		.uleb128 0xf
 2246 06d6 08000000 		.4byte	.LVL67
 2247 06da 48090000 		.4byte	0x948
 2248 06de 0F       		.uleb128 0xf
 2249 06df 1E000000 		.4byte	.LVL68
 2250 06e3 53090000 		.4byte	0x953
 2251 06e7 00       		.byte	0
 2252 06e8 0D       		.uleb128 0xd
 2253 06e9 A7010000 		.4byte	.LASF64
 2254 06ed 01       		.byte	0x1
 2255 06ee 8804     		.2byte	0x488
 2256 06f0 00000000 		.4byte	.LFB32
 2257 06f4 28000000 		.4byte	.LFE32-.LFB32
 2258 06f8 01       		.uleb128 0x1
 2259 06f9 9C       		.byte	0x9c
 2260 06fa 31070000 		.4byte	0x731
 2261 06fe 10       		.uleb128 0x10
 2262 06ff F9010000 		.4byte	.LASF62
 2263 0703 01       		.byte	0x1
 2264 0704 8804     		.2byte	0x488
 2265 0706 77000000 		.4byte	0x77
 2266 070a 0C040000 		.4byte	.LLST33
 2267 070e 0E       		.uleb128 0xe
 2268 070f B7060000 		.4byte	.LASF27
 2269 0713 01       		.byte	0x1
ARM GAS  C:\Users\Petro\AppData\Local\Temp\ccpWYAL3.s 			page 70


 2270 0714 8A04     		.2byte	0x48a
 2271 0716 6B000000 		.4byte	0x6b
 2272 071a 38040000 		.4byte	.LLST34
 2273 071e 0F       		.uleb128 0xf
 2274 071f 08000000 		.4byte	.LVL71
 2275 0723 48090000 		.4byte	0x948
 2276 0727 0F       		.uleb128 0xf
 2277 0728 1E000000 		.4byte	.LVL72
 2278 072c 53090000 		.4byte	0x953
 2279 0730 00       		.byte	0
 2280 0731 0D       		.uleb128 0xd
 2281 0732 F2020000 		.4byte	.LASF65
 2282 0736 01       		.byte	0x1
 2283 0737 A804     		.2byte	0x4a8
 2284 0739 00000000 		.4byte	.LFB33
 2285 073d 24000000 		.4byte	.LFE33-.LFB33
 2286 0741 01       		.uleb128 0x1
 2287 0742 9C       		.byte	0x9c
 2288 0743 7A070000 		.4byte	0x77a
 2289 0747 10       		.uleb128 0x10
 2290 0748 F9010000 		.4byte	.LASF62
 2291 074c 01       		.byte	0x1
 2292 074d A804     		.2byte	0x4a8
 2293 074f 77000000 		.4byte	0x77
 2294 0753 4B040000 		.4byte	.LLST35
 2295 0757 0E       		.uleb128 0xe
 2296 0758 B7060000 		.4byte	.LASF27
 2297 075c 01       		.byte	0x1
 2298 075d AA04     		.2byte	0x4aa
 2299 075f 6B000000 		.4byte	0x6b
 2300 0763 77040000 		.4byte	.LLST36
 2301 0767 0F       		.uleb128 0xf
 2302 0768 08000000 		.4byte	.LVL75
 2303 076c 48090000 		.4byte	0x948
 2304 0770 0F       		.uleb128 0xf
 2305 0771 1E000000 		.4byte	.LVL76
 2306 0775 53090000 		.4byte	0x953
 2307 0779 00       		.byte	0
 2308 077a 0D       		.uleb128 0xd
 2309 077b 37060000 		.4byte	.LASF66
 2310 077f 01       		.byte	0x1
 2311 0780 C904     		.2byte	0x4c9
 2312 0782 00000000 		.4byte	.LFB34
 2313 0786 24000000 		.4byte	.LFE34-.LFB34
 2314 078a 01       		.uleb128 0x1
 2315 078b 9C       		.byte	0x9c
 2316 078c C3070000 		.4byte	0x7c3
 2317 0790 10       		.uleb128 0x10
 2318 0791 F9010000 		.4byte	.LASF62
 2319 0795 01       		.byte	0x1
 2320 0796 C904     		.2byte	0x4c9
 2321 0798 77000000 		.4byte	0x77
 2322 079c 8A040000 		.4byte	.LLST37
 2323 07a0 0E       		.uleb128 0xe
 2324 07a1 B7060000 		.4byte	.LASF27
 2325 07a5 01       		.byte	0x1
 2326 07a6 CB04     		.2byte	0x4cb
ARM GAS  C:\Users\Petro\AppData\Local\Temp\ccpWYAL3.s 			page 71


 2327 07a8 6B000000 		.4byte	0x6b
 2328 07ac B6040000 		.4byte	.LLST38
 2329 07b0 0F       		.uleb128 0xf
 2330 07b1 08000000 		.4byte	.LVL79
 2331 07b5 48090000 		.4byte	0x948
 2332 07b9 0F       		.uleb128 0xf
 2333 07ba 1E000000 		.4byte	.LVL80
 2334 07be 53090000 		.4byte	0x953
 2335 07c2 00       		.byte	0
 2336 07c3 0D       		.uleb128 0xd
 2337 07c4 AA040000 		.4byte	.LASF67
 2338 07c8 01       		.byte	0x1
 2339 07c9 F104     		.2byte	0x4f1
 2340 07cb 00000000 		.4byte	.LFB35
 2341 07cf 1C000000 		.4byte	.LFE35-.LFB35
 2342 07d3 01       		.uleb128 0x1
 2343 07d4 9C       		.byte	0x9c
 2344 07d5 1C080000 		.4byte	0x81c
 2345 07d9 10       		.uleb128 0x10
 2346 07da 05020000 		.4byte	.LASF44
 2347 07de 01       		.byte	0x1
 2348 07df F104     		.2byte	0x4f1
 2349 07e1 77000000 		.4byte	0x77
 2350 07e5 C9040000 		.4byte	.LLST39
 2351 07e9 10       		.uleb128 0x10
 2352 07ea 62020000 		.4byte	.LASF68
 2353 07ee 01       		.byte	0x1
 2354 07ef F104     		.2byte	0x4f1
 2355 07f1 77000000 		.4byte	0x77
 2356 07f5 EA040000 		.4byte	.LLST40
 2357 07f9 0E       		.uleb128 0xe
 2358 07fa B7060000 		.4byte	.LASF27
 2359 07fe 01       		.byte	0x1
 2360 07ff F304     		.2byte	0x4f3
 2361 0801 6B000000 		.4byte	0x6b
 2362 0805 16050000 		.4byte	.LLST41
 2363 0809 0F       		.uleb128 0xf
 2364 080a 0C000000 		.4byte	.LVL83
 2365 080e 48090000 		.4byte	0x948
 2366 0812 0F       		.uleb128 0xf
 2367 0813 14000000 		.4byte	.LVL84
 2368 0817 53090000 		.4byte	0x953
 2369 081b 00       		.byte	0
 2370 081c 08       		.uleb128 0x8
 2371 081d B6050000 		.4byte	.LASF69
 2372 0821 01       		.byte	0x1
 2373 0822 B1       		.byte	0xb1
 2374 0823 00000000 		.4byte	.LFB3
 2375 0827 24000000 		.4byte	.LFE3-.LFB3
 2376 082b 01       		.uleb128 0x1
 2377 082c 9C       		.byte	0x9c
 2378 082d 68080000 		.4byte	0x868
 2379 0831 14       		.uleb128 0x14
 2380 0832 B7060000 		.4byte	.LASF27
 2381 0836 01       		.byte	0x1
 2382 0837 B3       		.byte	0xb3
 2383 0838 6B000000 		.4byte	0x6b
ARM GAS  C:\Users\Petro\AppData\Local\Temp\ccpWYAL3.s 			page 72


 2384 083c 29050000 		.4byte	.LLST42
 2385 0840 0F       		.uleb128 0xf
 2386 0841 08000000 		.4byte	.LVL86
 2387 0845 48090000 		.4byte	0x948
 2388 0849 0F       		.uleb128 0xf
 2389 084a 14000000 		.4byte	.LVL87
 2390 084e 53090000 		.4byte	0x953
 2391 0852 15       		.uleb128 0x15
 2392 0853 1C000000 		.4byte	.LVL88
 2393 0857 C3070000 		.4byte	0x7c3
 2394 085b 16       		.uleb128 0x16
 2395 085c 01       		.uleb128 0x1
 2396 085d 51       		.byte	0x51
 2397 085e 01       		.uleb128 0x1
 2398 085f 48       		.byte	0x48
 2399 0860 16       		.uleb128 0x16
 2400 0861 01       		.uleb128 0x1
 2401 0862 50       		.byte	0x50
 2402 0863 02       		.uleb128 0x2
 2403 0864 74       		.byte	0x74
 2404 0865 00       		.sleb128 0
 2405 0866 00       		.byte	0
 2406 0867 00       		.byte	0
 2407 0868 08       		.uleb128 0x8
 2408 0869 93010000 		.4byte	.LASF70
 2409 086d 01       		.byte	0x1
 2410 086e E6       		.byte	0xe6
 2411 086f 00000000 		.4byte	.LFB4
 2412 0873 1C000000 		.4byte	.LFE4-.LFB4
 2413 0877 01       		.uleb128 0x1
 2414 0878 9C       		.byte	0x9c
 2415 0879 90080000 		.4byte	0x890
 2416 087d 0F       		.uleb128 0xf
 2417 087e 0E000000 		.4byte	.LVL89
 2418 0882 18010000 		.4byte	0x118
 2419 0886 0F       		.uleb128 0xf
 2420 0887 16000000 		.4byte	.LVL90
 2421 088b 1C080000 		.4byte	0x81c
 2422 088f 00       		.byte	0
 2423 0890 13       		.uleb128 0x13
 2424 0891 5B030000 		.4byte	.LASF71
 2425 0895 01       		.byte	0x1
 2426 0896 0E05     		.2byte	0x50e
 2427 0898 77000000 		.4byte	0x77
 2428 089c 00000000 		.4byte	.LFB36
 2429 08a0 14000000 		.4byte	.LFE36-.LFB36
 2430 08a4 01       		.uleb128 0x1
 2431 08a5 9C       		.byte	0x9c
 2432 08a6 11       		.uleb128 0x11
 2433 08a7 B0000000 		.4byte	0xb0
 2434 08ab 00000000 		.4byte	.LFB37
 2435 08af 0C000000 		.4byte	.LFE37-.LFB37
 2436 08b3 01       		.uleb128 0x1
 2437 08b4 9C       		.byte	0x9c
 2438 08b5 C1080000 		.4byte	0x8c1
 2439 08b9 17       		.uleb128 0x17
 2440 08ba BD000000 		.4byte	0xbd
ARM GAS  C:\Users\Petro\AppData\Local\Temp\ccpWYAL3.s 			page 73


 2441 08be 01       		.uleb128 0x1
 2442 08bf 50       		.byte	0x50
 2443 08c0 00       		.byte	0
 2444 08c1 13       		.uleb128 0x13
 2445 08c2 66040000 		.4byte	.LASF72
 2446 08c6 01       		.byte	0x1
 2447 08c7 3E05     		.2byte	0x53e
 2448 08c9 77000000 		.4byte	0x77
 2449 08cd 00000000 		.4byte	.LFB38
 2450 08d1 0C000000 		.4byte	.LFE38-.LFB38
 2451 08d5 01       		.uleb128 0x1
 2452 08d6 9C       		.byte	0x9c
 2453 08d7 13       		.uleb128 0x13
 2454 08d8 3D010000 		.4byte	.LASF73
 2455 08dc 01       		.byte	0x1
 2456 08dd 5505     		.2byte	0x555
 2457 08df 77000000 		.4byte	0x77
 2458 08e3 00000000 		.4byte	.LFB39
 2459 08e7 0C000000 		.4byte	.LFE39-.LFB39
 2460 08eb 01       		.uleb128 0x1
 2461 08ec 9C       		.byte	0x9c
 2462 08ed 0D       		.uleb128 0xd
 2463 08ee 66050000 		.4byte	.LASF74
 2464 08f2 01       		.byte	0x1
 2465 08f3 6C05     		.2byte	0x56c
 2466 08f5 00000000 		.4byte	.LFB40
 2467 08f9 0C000000 		.4byte	.LFE40-.LFB40
 2468 08fd 01       		.uleb128 0x1
 2469 08fe 9C       		.byte	0x9c
 2470 08ff 12090000 		.4byte	0x912
 2471 0903 18       		.uleb128 0x18
 2472 0904 8D050000 		.4byte	.LASF18
 2473 0908 01       		.byte	0x1
 2474 0909 6C05     		.2byte	0x56c
 2475 090b 77000000 		.4byte	0x77
 2476 090f 01       		.uleb128 0x1
 2477 0910 50       		.byte	0x50
 2478 0911 00       		.byte	0
 2479 0912 0D       		.uleb128 0xd
 2480 0913 9B050000 		.4byte	.LASF75
 2481 0917 01       		.byte	0x1
 2482 0918 8305     		.2byte	0x583
 2483 091a 00000000 		.4byte	.LFB41
 2484 091e 0C000000 		.4byte	.LFE41-.LFB41
 2485 0922 01       		.uleb128 0x1
 2486 0923 9C       		.byte	0x9c
 2487 0924 37090000 		.4byte	0x937
 2488 0928 18       		.uleb128 0x18
 2489 0929 8D050000 		.4byte	.LASF18
 2490 092d 01       		.byte	0x1
 2491 092e 8305     		.2byte	0x583
 2492 0930 77000000 		.4byte	0x77
 2493 0934 01       		.uleb128 0x1
 2494 0935 50       		.byte	0x50
 2495 0936 00       		.byte	0
 2496 0937 19       		.uleb128 0x19
 2497 0938 0C030000 		.4byte	.LASF79
ARM GAS  C:\Users\Petro\AppData\Local\Temp\ccpWYAL3.s 			page 74


 2498 093c 01       		.byte	0x1
 2499 093d 15       		.byte	0x15
 2500 093e 6B000000 		.4byte	0x6b
 2501 0942 05       		.uleb128 0x5
 2502 0943 03       		.byte	0x3
 2503 0944 00000000 		.4byte	TimerTestMode_initVar
 2504 0948 1A       		.uleb128 0x1a
 2505 0949 85020000 		.4byte	.LASF80
 2506 094d 03       		.byte	0x3
 2507 094e E3       		.byte	0xe3
 2508 094f 6B000000 		.4byte	0x6b
 2509 0953 1B       		.uleb128 0x1b
 2510 0954 94000000 		.4byte	.LASF81
 2511 0958 03       		.byte	0x3
 2512 0959 E4       		.byte	0xe4
 2513 095a 1C       		.uleb128 0x1c
 2514 095b 6B000000 		.4byte	0x6b
 2515 095f 00       		.byte	0
 2516 0960 00       		.byte	0
 2517              		.section	.debug_abbrev,"",%progbits
 2518              	.Ldebug_abbrev0:
 2519 0000 01       		.uleb128 0x1
 2520 0001 11       		.uleb128 0x11
 2521 0002 01       		.byte	0x1
 2522 0003 25       		.uleb128 0x25
 2523 0004 0E       		.uleb128 0xe
 2524 0005 13       		.uleb128 0x13
 2525 0006 0B       		.uleb128 0xb
 2526 0007 03       		.uleb128 0x3
 2527 0008 0E       		.uleb128 0xe
 2528 0009 1B       		.uleb128 0x1b
 2529 000a 0E       		.uleb128 0xe
 2530 000b 55       		.uleb128 0x55
 2531 000c 17       		.uleb128 0x17
 2532 000d 11       		.uleb128 0x11
 2533 000e 01       		.uleb128 0x1
 2534 000f 10       		.uleb128 0x10
 2535 0010 17       		.uleb128 0x17
 2536 0011 00       		.byte	0
 2537 0012 00       		.byte	0
 2538 0013 02       		.uleb128 0x2
 2539 0014 24       		.uleb128 0x24
 2540 0015 00       		.byte	0
 2541 0016 0B       		.uleb128 0xb
 2542 0017 0B       		.uleb128 0xb
 2543 0018 3E       		.uleb128 0x3e
 2544 0019 0B       		.uleb128 0xb
 2545 001a 03       		.uleb128 0x3
 2546 001b 0E       		.uleb128 0xe
 2547 001c 00       		.byte	0
 2548 001d 00       		.byte	0
 2549 001e 03       		.uleb128 0x3
 2550 001f 24       		.uleb128 0x24
 2551 0020 00       		.byte	0
 2552 0021 0B       		.uleb128 0xb
 2553 0022 0B       		.uleb128 0xb
 2554 0023 3E       		.uleb128 0x3e
ARM GAS  C:\Users\Petro\AppData\Local\Temp\ccpWYAL3.s 			page 75


 2555 0024 0B       		.uleb128 0xb
 2556 0025 03       		.uleb128 0x3
 2557 0026 08       		.uleb128 0x8
 2558 0027 00       		.byte	0
 2559 0028 00       		.byte	0
 2560 0029 04       		.uleb128 0x4
 2561 002a 16       		.uleb128 0x16
 2562 002b 00       		.byte	0
 2563 002c 03       		.uleb128 0x3
 2564 002d 0E       		.uleb128 0xe
 2565 002e 3A       		.uleb128 0x3a
 2566 002f 0B       		.uleb128 0xb
 2567 0030 3B       		.uleb128 0x3b
 2568 0031 05       		.uleb128 0x5
 2569 0032 49       		.uleb128 0x49
 2570 0033 13       		.uleb128 0x13
 2571 0034 00       		.byte	0
 2572 0035 00       		.byte	0
 2573 0036 05       		.uleb128 0x5
 2574 0037 35       		.uleb128 0x35
 2575 0038 00       		.byte	0
 2576 0039 49       		.uleb128 0x49
 2577 003a 13       		.uleb128 0x13
 2578 003b 00       		.byte	0
 2579 003c 00       		.byte	0
 2580 003d 06       		.uleb128 0x6
 2581 003e 2E       		.uleb128 0x2e
 2582 003f 01       		.byte	0x1
 2583 0040 3F       		.uleb128 0x3f
 2584 0041 19       		.uleb128 0x19
 2585 0042 03       		.uleb128 0x3
 2586 0043 0E       		.uleb128 0xe
 2587 0044 3A       		.uleb128 0x3a
 2588 0045 0B       		.uleb128 0xb
 2589 0046 3B       		.uleb128 0x3b
 2590 0047 05       		.uleb128 0x5
 2591 0048 27       		.uleb128 0x27
 2592 0049 19       		.uleb128 0x19
 2593 004a 20       		.uleb128 0x20
 2594 004b 0B       		.uleb128 0xb
 2595 004c 01       		.uleb128 0x1
 2596 004d 13       		.uleb128 0x13
 2597 004e 00       		.byte	0
 2598 004f 00       		.byte	0
 2599 0050 07       		.uleb128 0x7
 2600 0051 05       		.uleb128 0x5
 2601 0052 00       		.byte	0
 2602 0053 03       		.uleb128 0x3
 2603 0054 0E       		.uleb128 0xe
 2604 0055 3A       		.uleb128 0x3a
 2605 0056 0B       		.uleb128 0xb
 2606 0057 3B       		.uleb128 0x3b
 2607 0058 05       		.uleb128 0x5
 2608 0059 49       		.uleb128 0x49
 2609 005a 13       		.uleb128 0x13
 2610 005b 00       		.byte	0
 2611 005c 00       		.byte	0
ARM GAS  C:\Users\Petro\AppData\Local\Temp\ccpWYAL3.s 			page 76


 2612 005d 08       		.uleb128 0x8
 2613 005e 2E       		.uleb128 0x2e
 2614 005f 01       		.byte	0x1
 2615 0060 3F       		.uleb128 0x3f
 2616 0061 19       		.uleb128 0x19
 2617 0062 03       		.uleb128 0x3
 2618 0063 0E       		.uleb128 0xe
 2619 0064 3A       		.uleb128 0x3a
 2620 0065 0B       		.uleb128 0xb
 2621 0066 3B       		.uleb128 0x3b
 2622 0067 0B       		.uleb128 0xb
 2623 0068 27       		.uleb128 0x27
 2624 0069 19       		.uleb128 0x19
 2625 006a 11       		.uleb128 0x11
 2626 006b 01       		.uleb128 0x1
 2627 006c 12       		.uleb128 0x12
 2628 006d 06       		.uleb128 0x6
 2629 006e 40       		.uleb128 0x40
 2630 006f 18       		.uleb128 0x18
 2631 0070 9742     		.uleb128 0x2117
 2632 0072 19       		.uleb128 0x19
 2633 0073 01       		.uleb128 0x1
 2634 0074 13       		.uleb128 0x13
 2635 0075 00       		.byte	0
 2636 0076 00       		.byte	0
 2637 0077 09       		.uleb128 0x9
 2638 0078 1D       		.uleb128 0x1d
 2639 0079 01       		.byte	0x1
 2640 007a 31       		.uleb128 0x31
 2641 007b 13       		.uleb128 0x13
 2642 007c 11       		.uleb128 0x11
 2643 007d 01       		.uleb128 0x1
 2644 007e 12       		.uleb128 0x12
 2645 007f 06       		.uleb128 0x6
 2646 0080 58       		.uleb128 0x58
 2647 0081 0B       		.uleb128 0xb
 2648 0082 59       		.uleb128 0x59
 2649 0083 0B       		.uleb128 0xb
 2650 0084 01       		.uleb128 0x1
 2651 0085 13       		.uleb128 0x13
 2652 0086 00       		.byte	0
 2653 0087 00       		.byte	0
 2654 0088 0A       		.uleb128 0xa
 2655 0089 05       		.uleb128 0x5
 2656 008a 00       		.byte	0
 2657 008b 31       		.uleb128 0x31
 2658 008c 13       		.uleb128 0x13
 2659 008d 1C       		.uleb128 0x1c
 2660 008e 0B       		.uleb128 0xb
 2661 008f 00       		.byte	0
 2662 0090 00       		.byte	0
 2663 0091 0B       		.uleb128 0xb
 2664 0092 05       		.uleb128 0x5
 2665 0093 00       		.byte	0
 2666 0094 31       		.uleb128 0x31
 2667 0095 13       		.uleb128 0x13
 2668 0096 1C       		.uleb128 0x1c
ARM GAS  C:\Users\Petro\AppData\Local\Temp\ccpWYAL3.s 			page 77


 2669 0097 05       		.uleb128 0x5
 2670 0098 00       		.byte	0
 2671 0099 00       		.byte	0
 2672 009a 0C       		.uleb128 0xc
 2673 009b 1D       		.uleb128 0x1d
 2674 009c 01       		.byte	0x1
 2675 009d 31       		.uleb128 0x31
 2676 009e 13       		.uleb128 0x13
 2677 009f 11       		.uleb128 0x11
 2678 00a0 01       		.uleb128 0x1
 2679 00a1 12       		.uleb128 0x12
 2680 00a2 06       		.uleb128 0x6
 2681 00a3 58       		.uleb128 0x58
 2682 00a4 0B       		.uleb128 0xb
 2683 00a5 59       		.uleb128 0x59
 2684 00a6 0B       		.uleb128 0xb
 2685 00a7 00       		.byte	0
 2686 00a8 00       		.byte	0
 2687 00a9 0D       		.uleb128 0xd
 2688 00aa 2E       		.uleb128 0x2e
 2689 00ab 01       		.byte	0x1
 2690 00ac 3F       		.uleb128 0x3f
 2691 00ad 19       		.uleb128 0x19
 2692 00ae 03       		.uleb128 0x3
 2693 00af 0E       		.uleb128 0xe
 2694 00b0 3A       		.uleb128 0x3a
 2695 00b1 0B       		.uleb128 0xb
 2696 00b2 3B       		.uleb128 0x3b
 2697 00b3 05       		.uleb128 0x5
 2698 00b4 27       		.uleb128 0x27
 2699 00b5 19       		.uleb128 0x19
 2700 00b6 11       		.uleb128 0x11
 2701 00b7 01       		.uleb128 0x1
 2702 00b8 12       		.uleb128 0x12
 2703 00b9 06       		.uleb128 0x6
 2704 00ba 40       		.uleb128 0x40
 2705 00bb 18       		.uleb128 0x18
 2706 00bc 9742     		.uleb128 0x2117
 2707 00be 19       		.uleb128 0x19
 2708 00bf 01       		.uleb128 0x1
 2709 00c0 13       		.uleb128 0x13
 2710 00c1 00       		.byte	0
 2711 00c2 00       		.byte	0
 2712 00c3 0E       		.uleb128 0xe
 2713 00c4 34       		.uleb128 0x34
 2714 00c5 00       		.byte	0
 2715 00c6 03       		.uleb128 0x3
 2716 00c7 0E       		.uleb128 0xe
 2717 00c8 3A       		.uleb128 0x3a
 2718 00c9 0B       		.uleb128 0xb
 2719 00ca 3B       		.uleb128 0x3b
 2720 00cb 05       		.uleb128 0x5
 2721 00cc 49       		.uleb128 0x49
 2722 00cd 13       		.uleb128 0x13
 2723 00ce 02       		.uleb128 0x2
 2724 00cf 17       		.uleb128 0x17
 2725 00d0 00       		.byte	0
ARM GAS  C:\Users\Petro\AppData\Local\Temp\ccpWYAL3.s 			page 78


 2726 00d1 00       		.byte	0
 2727 00d2 0F       		.uleb128 0xf
 2728 00d3 898201   		.uleb128 0x4109
 2729 00d6 00       		.byte	0
 2730 00d7 11       		.uleb128 0x11
 2731 00d8 01       		.uleb128 0x1
 2732 00d9 31       		.uleb128 0x31
 2733 00da 13       		.uleb128 0x13
 2734 00db 00       		.byte	0
 2735 00dc 00       		.byte	0
 2736 00dd 10       		.uleb128 0x10
 2737 00de 05       		.uleb128 0x5
 2738 00df 00       		.byte	0
 2739 00e0 03       		.uleb128 0x3
 2740 00e1 0E       		.uleb128 0xe
 2741 00e2 3A       		.uleb128 0x3a
 2742 00e3 0B       		.uleb128 0xb
 2743 00e4 3B       		.uleb128 0x3b
 2744 00e5 05       		.uleb128 0x5
 2745 00e6 49       		.uleb128 0x49
 2746 00e7 13       		.uleb128 0x13
 2747 00e8 02       		.uleb128 0x2
 2748 00e9 17       		.uleb128 0x17
 2749 00ea 00       		.byte	0
 2750 00eb 00       		.byte	0
 2751 00ec 11       		.uleb128 0x11
 2752 00ed 2E       		.uleb128 0x2e
 2753 00ee 01       		.byte	0x1
 2754 00ef 31       		.uleb128 0x31
 2755 00f0 13       		.uleb128 0x13
 2756 00f1 11       		.uleb128 0x11
 2757 00f2 01       		.uleb128 0x1
 2758 00f3 12       		.uleb128 0x12
 2759 00f4 06       		.uleb128 0x6
 2760 00f5 40       		.uleb128 0x40
 2761 00f6 18       		.uleb128 0x18
 2762 00f7 9742     		.uleb128 0x2117
 2763 00f9 19       		.uleb128 0x19
 2764 00fa 01       		.uleb128 0x1
 2765 00fb 13       		.uleb128 0x13
 2766 00fc 00       		.byte	0
 2767 00fd 00       		.byte	0
 2768 00fe 12       		.uleb128 0x12
 2769 00ff 05       		.uleb128 0x5
 2770 0100 00       		.byte	0
 2771 0101 31       		.uleb128 0x31
 2772 0102 13       		.uleb128 0x13
 2773 0103 02       		.uleb128 0x2
 2774 0104 17       		.uleb128 0x17
 2775 0105 00       		.byte	0
 2776 0106 00       		.byte	0
 2777 0107 13       		.uleb128 0x13
 2778 0108 2E       		.uleb128 0x2e
 2779 0109 00       		.byte	0
 2780 010a 3F       		.uleb128 0x3f
 2781 010b 19       		.uleb128 0x19
 2782 010c 03       		.uleb128 0x3
ARM GAS  C:\Users\Petro\AppData\Local\Temp\ccpWYAL3.s 			page 79


 2783 010d 0E       		.uleb128 0xe
 2784 010e 3A       		.uleb128 0x3a
 2785 010f 0B       		.uleb128 0xb
 2786 0110 3B       		.uleb128 0x3b
 2787 0111 05       		.uleb128 0x5
 2788 0112 27       		.uleb128 0x27
 2789 0113 19       		.uleb128 0x19
 2790 0114 49       		.uleb128 0x49
 2791 0115 13       		.uleb128 0x13
 2792 0116 11       		.uleb128 0x11
 2793 0117 01       		.uleb128 0x1
 2794 0118 12       		.uleb128 0x12
 2795 0119 06       		.uleb128 0x6
 2796 011a 40       		.uleb128 0x40
 2797 011b 18       		.uleb128 0x18
 2798 011c 9742     		.uleb128 0x2117
 2799 011e 19       		.uleb128 0x19
 2800 011f 00       		.byte	0
 2801 0120 00       		.byte	0
 2802 0121 14       		.uleb128 0x14
 2803 0122 34       		.uleb128 0x34
 2804 0123 00       		.byte	0
 2805 0124 03       		.uleb128 0x3
 2806 0125 0E       		.uleb128 0xe
 2807 0126 3A       		.uleb128 0x3a
 2808 0127 0B       		.uleb128 0xb
 2809 0128 3B       		.uleb128 0x3b
 2810 0129 0B       		.uleb128 0xb
 2811 012a 49       		.uleb128 0x49
 2812 012b 13       		.uleb128 0x13
 2813 012c 02       		.uleb128 0x2
 2814 012d 17       		.uleb128 0x17
 2815 012e 00       		.byte	0
 2816 012f 00       		.byte	0
 2817 0130 15       		.uleb128 0x15
 2818 0131 898201   		.uleb128 0x4109
 2819 0134 01       		.byte	0x1
 2820 0135 11       		.uleb128 0x11
 2821 0136 01       		.uleb128 0x1
 2822 0137 31       		.uleb128 0x31
 2823 0138 13       		.uleb128 0x13
 2824 0139 00       		.byte	0
 2825 013a 00       		.byte	0
 2826 013b 16       		.uleb128 0x16
 2827 013c 8A8201   		.uleb128 0x410a
 2828 013f 00       		.byte	0
 2829 0140 02       		.uleb128 0x2
 2830 0141 18       		.uleb128 0x18
 2831 0142 9142     		.uleb128 0x2111
 2832 0144 18       		.uleb128 0x18
 2833 0145 00       		.byte	0
 2834 0146 00       		.byte	0
 2835 0147 17       		.uleb128 0x17
 2836 0148 05       		.uleb128 0x5
 2837 0149 00       		.byte	0
 2838 014a 31       		.uleb128 0x31
 2839 014b 13       		.uleb128 0x13
ARM GAS  C:\Users\Petro\AppData\Local\Temp\ccpWYAL3.s 			page 80


 2840 014c 02       		.uleb128 0x2
 2841 014d 18       		.uleb128 0x18
 2842 014e 00       		.byte	0
 2843 014f 00       		.byte	0
 2844 0150 18       		.uleb128 0x18
 2845 0151 05       		.uleb128 0x5
 2846 0152 00       		.byte	0
 2847 0153 03       		.uleb128 0x3
 2848 0154 0E       		.uleb128 0xe
 2849 0155 3A       		.uleb128 0x3a
 2850 0156 0B       		.uleb128 0xb
 2851 0157 3B       		.uleb128 0x3b
 2852 0158 05       		.uleb128 0x5
 2853 0159 49       		.uleb128 0x49
 2854 015a 13       		.uleb128 0x13
 2855 015b 02       		.uleb128 0x2
 2856 015c 18       		.uleb128 0x18
 2857 015d 00       		.byte	0
 2858 015e 00       		.byte	0
 2859 015f 19       		.uleb128 0x19
 2860 0160 34       		.uleb128 0x34
 2861 0161 00       		.byte	0
 2862 0162 03       		.uleb128 0x3
 2863 0163 0E       		.uleb128 0xe
 2864 0164 3A       		.uleb128 0x3a
 2865 0165 0B       		.uleb128 0xb
 2866 0166 3B       		.uleb128 0x3b
 2867 0167 0B       		.uleb128 0xb
 2868 0168 49       		.uleb128 0x49
 2869 0169 13       		.uleb128 0x13
 2870 016a 3F       		.uleb128 0x3f
 2871 016b 19       		.uleb128 0x19
 2872 016c 02       		.uleb128 0x2
 2873 016d 18       		.uleb128 0x18
 2874 016e 00       		.byte	0
 2875 016f 00       		.byte	0
 2876 0170 1A       		.uleb128 0x1a
 2877 0171 2E       		.uleb128 0x2e
 2878 0172 00       		.byte	0
 2879 0173 3F       		.uleb128 0x3f
 2880 0174 19       		.uleb128 0x19
 2881 0175 03       		.uleb128 0x3
 2882 0176 0E       		.uleb128 0xe
 2883 0177 3A       		.uleb128 0x3a
 2884 0178 0B       		.uleb128 0xb
 2885 0179 3B       		.uleb128 0x3b
 2886 017a 0B       		.uleb128 0xb
 2887 017b 27       		.uleb128 0x27
 2888 017c 19       		.uleb128 0x19
 2889 017d 49       		.uleb128 0x49
 2890 017e 13       		.uleb128 0x13
 2891 017f 3C       		.uleb128 0x3c
 2892 0180 19       		.uleb128 0x19
 2893 0181 00       		.byte	0
 2894 0182 00       		.byte	0
 2895 0183 1B       		.uleb128 0x1b
 2896 0184 2E       		.uleb128 0x2e
ARM GAS  C:\Users\Petro\AppData\Local\Temp\ccpWYAL3.s 			page 81


 2897 0185 01       		.byte	0x1
 2898 0186 3F       		.uleb128 0x3f
 2899 0187 19       		.uleb128 0x19
 2900 0188 03       		.uleb128 0x3
 2901 0189 0E       		.uleb128 0xe
 2902 018a 3A       		.uleb128 0x3a
 2903 018b 0B       		.uleb128 0xb
 2904 018c 3B       		.uleb128 0x3b
 2905 018d 0B       		.uleb128 0xb
 2906 018e 27       		.uleb128 0x27
 2907 018f 19       		.uleb128 0x19
 2908 0190 3C       		.uleb128 0x3c
 2909 0191 19       		.uleb128 0x19
 2910 0192 00       		.byte	0
 2911 0193 00       		.byte	0
 2912 0194 1C       		.uleb128 0x1c
 2913 0195 05       		.uleb128 0x5
 2914 0196 00       		.byte	0
 2915 0197 49       		.uleb128 0x49
 2916 0198 13       		.uleb128 0x13
 2917 0199 00       		.byte	0
 2918 019a 00       		.byte	0
 2919 019b 00       		.byte	0
 2920              		.section	.debug_loc,"",%progbits
 2921              	.Ldebug_loc0:
 2922              	.LLST0:
 2923 0000 06000000 		.4byte	.LVL4
 2924 0004 13000000 		.4byte	.LVL5-1
 2925 0008 0100     		.2byte	0x1
 2926 000a 50       		.byte	0x50
 2927 000b 00000000 		.4byte	0
 2928 000f 00000000 		.4byte	0
 2929              	.LLST1:
 2930 0013 00000000 		.4byte	.LVL6
 2931 0017 07000000 		.4byte	.LVL7-1
 2932 001b 0100     		.2byte	0x1
 2933 001d 50       		.byte	0x50
 2934 001e 07000000 		.4byte	.LVL7-1
 2935 0022 1C000000 		.4byte	.LVL9
 2936 0026 0100     		.2byte	0x1
 2937 0028 54       		.byte	0x54
 2938 0029 1C000000 		.4byte	.LVL9
 2939 002d 28000000 		.4byte	.LFE6
 2940 0031 0400     		.2byte	0x4
 2941 0033 F3       		.byte	0xf3
 2942 0034 01       		.uleb128 0x1
 2943 0035 50       		.byte	0x50
 2944 0036 9F       		.byte	0x9f
 2945 0037 00000000 		.4byte	0
 2946 003b 00000000 		.4byte	0
 2947              	.LLST2:
 2948 003f 08000000 		.4byte	.LVL7
 2949 0043 1B000000 		.4byte	.LVL8-1
 2950 0047 0100     		.2byte	0x1
 2951 0049 50       		.byte	0x50
 2952 004a 00000000 		.4byte	0
 2953 004e 00000000 		.4byte	0
ARM GAS  C:\Users\Petro\AppData\Local\Temp\ccpWYAL3.s 			page 82


 2954              	.LLST3:
 2955 0052 00000000 		.4byte	.LVL10
 2956 0056 07000000 		.4byte	.LVL11-1
 2957 005a 0100     		.2byte	0x1
 2958 005c 50       		.byte	0x50
 2959 005d 07000000 		.4byte	.LVL11-1
 2960 0061 1C000000 		.4byte	.LVL13
 2961 0065 0100     		.2byte	0x1
 2962 0067 54       		.byte	0x54
 2963 0068 1C000000 		.4byte	.LVL13
 2964 006c 28000000 		.4byte	.LFE7
 2965 0070 0400     		.2byte	0x4
 2966 0072 F3       		.byte	0xf3
 2967 0073 01       		.uleb128 0x1
 2968 0074 50       		.byte	0x50
 2969 0075 9F       		.byte	0x9f
 2970 0076 00000000 		.4byte	0
 2971 007a 00000000 		.4byte	0
 2972              	.LLST4:
 2973 007e 08000000 		.4byte	.LVL11
 2974 0082 1B000000 		.4byte	.LVL12-1
 2975 0086 0100     		.2byte	0x1
 2976 0088 50       		.byte	0x50
 2977 0089 00000000 		.4byte	0
 2978 008d 00000000 		.4byte	0
 2979              	.LLST5:
 2980 0091 00000000 		.4byte	.LVL14
 2981 0095 07000000 		.4byte	.LVL15-1
 2982 0099 0100     		.2byte	0x1
 2983 009b 50       		.byte	0x50
 2984 009c 07000000 		.4byte	.LVL15-1
 2985 00a0 1C000000 		.4byte	.LVL17
 2986 00a4 0100     		.2byte	0x1
 2987 00a6 54       		.byte	0x54
 2988 00a7 1C000000 		.4byte	.LVL17
 2989 00ab 28000000 		.4byte	.LFE8
 2990 00af 0400     		.2byte	0x4
 2991 00b1 F3       		.byte	0xf3
 2992 00b2 01       		.uleb128 0x1
 2993 00b3 50       		.byte	0x50
 2994 00b4 9F       		.byte	0x9f
 2995 00b5 00000000 		.4byte	0
 2996 00b9 00000000 		.4byte	0
 2997              	.LLST6:
 2998 00bd 08000000 		.4byte	.LVL15
 2999 00c1 1B000000 		.4byte	.LVL16-1
 3000 00c5 0100     		.2byte	0x1
 3001 00c7 50       		.byte	0x50
 3002 00c8 00000000 		.4byte	0
 3003 00cc 00000000 		.4byte	0
 3004              	.LLST7:
 3005 00d0 00000000 		.4byte	.LVL18
 3006 00d4 07000000 		.4byte	.LVL19-1
 3007 00d8 0100     		.2byte	0x1
 3008 00da 50       		.byte	0x50
 3009 00db 07000000 		.4byte	.LVL19-1
 3010 00df 22000000 		.4byte	.LVL21
ARM GAS  C:\Users\Petro\AppData\Local\Temp\ccpWYAL3.s 			page 83


 3011 00e3 0100     		.2byte	0x1
 3012 00e5 54       		.byte	0x54
 3013 00e6 22000000 		.4byte	.LVL21
 3014 00ea 2C000000 		.4byte	.LFE9
 3015 00ee 0400     		.2byte	0x4
 3016 00f0 F3       		.byte	0xf3
 3017 00f1 01       		.uleb128 0x1
 3018 00f2 50       		.byte	0x50
 3019 00f3 9F       		.byte	0x9f
 3020 00f4 00000000 		.4byte	0
 3021 00f8 00000000 		.4byte	0
 3022              	.LLST8:
 3023 00fc 08000000 		.4byte	.LVL19
 3024 0100 21000000 		.4byte	.LVL20-1
 3025 0104 0100     		.2byte	0x1
 3026 0106 50       		.byte	0x50
 3027 0107 00000000 		.4byte	0
 3028 010b 00000000 		.4byte	0
 3029              	.LLST9:
 3030 010f 00000000 		.4byte	.LVL22
 3031 0113 04000000 		.4byte	.LVL23
 3032 0117 0100     		.2byte	0x1
 3033 0119 50       		.byte	0x50
 3034 011a 04000000 		.4byte	.LVL23
 3035 011e 10000000 		.4byte	.LFE10
 3036 0122 0400     		.2byte	0x4
 3037 0124 F3       		.byte	0xf3
 3038 0125 01       		.uleb128 0x1
 3039 0126 50       		.byte	0x50
 3040 0127 9F       		.byte	0x9f
 3041 0128 00000000 		.4byte	0
 3042 012c 00000000 		.4byte	0
 3043              	.LLST10:
 3044 0130 00000000 		.4byte	.LVL24
 3045 0134 07000000 		.4byte	.LVL25-1
 3046 0138 0100     		.2byte	0x1
 3047 013a 50       		.byte	0x50
 3048 013b 07000000 		.4byte	.LVL25-1
 3049 013f 22000000 		.4byte	.LVL27
 3050 0143 0100     		.2byte	0x1
 3051 0145 54       		.byte	0x54
 3052 0146 22000000 		.4byte	.LVL27
 3053 014a 28000000 		.4byte	.LFE11
 3054 014e 0400     		.2byte	0x4
 3055 0150 F3       		.byte	0xf3
 3056 0151 01       		.uleb128 0x1
 3057 0152 50       		.byte	0x50
 3058 0153 9F       		.byte	0x9f
 3059 0154 00000000 		.4byte	0
 3060 0158 00000000 		.4byte	0
 3061              	.LLST11:
 3062 015c 08000000 		.4byte	.LVL25
 3063 0160 21000000 		.4byte	.LVL26-1
 3064 0164 0100     		.2byte	0x1
 3065 0166 50       		.byte	0x50
 3066 0167 00000000 		.4byte	0
 3067 016b 00000000 		.4byte	0
ARM GAS  C:\Users\Petro\AppData\Local\Temp\ccpWYAL3.s 			page 84


 3068              	.LLST12:
 3069 016f 00000000 		.4byte	.LVL28
 3070 0173 07000000 		.4byte	.LVL29-1
 3071 0177 0100     		.2byte	0x1
 3072 0179 50       		.byte	0x50
 3073 017a 07000000 		.4byte	.LVL29-1
 3074 017e 22000000 		.4byte	.LVL31
 3075 0182 0100     		.2byte	0x1
 3076 0184 54       		.byte	0x54
 3077 0185 22000000 		.4byte	.LVL31
 3078 0189 28000000 		.4byte	.LFE12
 3079 018d 0400     		.2byte	0x4
 3080 018f F3       		.byte	0xf3
 3081 0190 01       		.uleb128 0x1
 3082 0191 50       		.byte	0x50
 3083 0192 9F       		.byte	0x9f
 3084 0193 00000000 		.4byte	0
 3085 0197 00000000 		.4byte	0
 3086              	.LLST13:
 3087 019b 08000000 		.4byte	.LVL29
 3088 019f 21000000 		.4byte	.LVL30-1
 3089 01a3 0100     		.2byte	0x1
 3090 01a5 50       		.byte	0x50
 3091 01a6 00000000 		.4byte	0
 3092 01aa 00000000 		.4byte	0
 3093              	.LLST14:
 3094 01ae 00000000 		.4byte	.LVL32
 3095 01b2 07000000 		.4byte	.LVL33-1
 3096 01b6 0100     		.2byte	0x1
 3097 01b8 50       		.byte	0x50
 3098 01b9 07000000 		.4byte	.LVL33-1
 3099 01bd 10000000 		.4byte	.LVL34
 3100 01c1 0100     		.2byte	0x1
 3101 01c3 54       		.byte	0x54
 3102 01c4 10000000 		.4byte	.LVL34
 3103 01c8 2C000000 		.4byte	.LFE13
 3104 01cc 0400     		.2byte	0x4
 3105 01ce F3       		.byte	0xf3
 3106 01cf 01       		.uleb128 0x1
 3107 01d0 50       		.byte	0x50
 3108 01d1 9F       		.byte	0x9f
 3109 01d2 00000000 		.4byte	0
 3110 01d6 00000000 		.4byte	0
 3111              	.LLST15:
 3112 01da 08000000 		.4byte	.LVL33
 3113 01de 1F000000 		.4byte	.LVL35-1
 3114 01e2 0100     		.2byte	0x1
 3115 01e4 50       		.byte	0x50
 3116 01e5 00000000 		.4byte	0
 3117 01e9 00000000 		.4byte	0
 3118              	.LLST16:
 3119 01ed 00000000 		.4byte	.LVL36
 3120 01f1 07000000 		.4byte	.LVL37-1
 3121 01f5 0100     		.2byte	0x1
 3122 01f7 50       		.byte	0x50
 3123 01f8 07000000 		.4byte	.LVL37-1
 3124 01fc 1C000000 		.4byte	.LVL39
ARM GAS  C:\Users\Petro\AppData\Local\Temp\ccpWYAL3.s 			page 85


 3125 0200 0100     		.2byte	0x1
 3126 0202 54       		.byte	0x54
 3127 0203 1C000000 		.4byte	.LVL39
 3128 0207 28000000 		.4byte	.LFE14
 3129 020b 0400     		.2byte	0x4
 3130 020d F3       		.byte	0xf3
 3131 020e 01       		.uleb128 0x1
 3132 020f 50       		.byte	0x50
 3133 0210 9F       		.byte	0x9f
 3134 0211 00000000 		.4byte	0
 3135 0215 00000000 		.4byte	0
 3136              	.LLST17:
 3137 0219 08000000 		.4byte	.LVL37
 3138 021d 1B000000 		.4byte	.LVL38-1
 3139 0221 0100     		.2byte	0x1
 3140 0223 50       		.byte	0x50
 3141 0224 00000000 		.4byte	0
 3142 0228 00000000 		.4byte	0
 3143              	.LLST18:
 3144 022c 00000000 		.4byte	.LVL40
 3145 0230 04000000 		.4byte	.LVL41
 3146 0234 0100     		.2byte	0x1
 3147 0236 50       		.byte	0x50
 3148 0237 04000000 		.4byte	.LVL41
 3149 023b 0C000000 		.4byte	.LFE15
 3150 023f 0400     		.2byte	0x4
 3151 0241 F3       		.byte	0xf3
 3152 0242 01       		.uleb128 0x1
 3153 0243 50       		.byte	0x50
 3154 0244 9F       		.byte	0x9f
 3155 0245 00000000 		.4byte	0
 3156 0249 00000000 		.4byte	0
 3157              	.LLST19:
 3158 024d 00000000 		.4byte	.LVL42
 3159 0251 07000000 		.4byte	.LVL43-1
 3160 0255 0100     		.2byte	0x1
 3161 0257 50       		.byte	0x50
 3162 0258 07000000 		.4byte	.LVL43-1
 3163 025c 1C000000 		.4byte	.LVL45
 3164 0260 0100     		.2byte	0x1
 3165 0262 54       		.byte	0x54
 3166 0263 1C000000 		.4byte	.LVL45
 3167 0267 28000000 		.4byte	.LFE17
 3168 026b 0400     		.2byte	0x4
 3169 026d F3       		.byte	0xf3
 3170 026e 01       		.uleb128 0x1
 3171 026f 50       		.byte	0x50
 3172 0270 9F       		.byte	0x9f
 3173 0271 00000000 		.4byte	0
 3174 0275 00000000 		.4byte	0
 3175              	.LLST20:
 3176 0279 08000000 		.4byte	.LVL43
 3177 027d 1B000000 		.4byte	.LVL44-1
 3178 0281 0100     		.2byte	0x1
 3179 0283 50       		.byte	0x50
 3180 0284 00000000 		.4byte	0
 3181 0288 00000000 		.4byte	0
ARM GAS  C:\Users\Petro\AppData\Local\Temp\ccpWYAL3.s 			page 86


 3182              	.LLST21:
 3183 028c 00000000 		.4byte	.LVL46
 3184 0290 04000000 		.4byte	.LVL47
 3185 0294 0100     		.2byte	0x1
 3186 0296 50       		.byte	0x50
 3187 0297 04000000 		.4byte	.LVL47
 3188 029b 0C000000 		.4byte	.LFE18
 3189 029f 0400     		.2byte	0x4
 3190 02a1 F3       		.byte	0xf3
 3191 02a2 01       		.uleb128 0x1
 3192 02a3 50       		.byte	0x50
 3193 02a4 9F       		.byte	0x9f
 3194 02a5 00000000 		.4byte	0
 3195 02a9 00000000 		.4byte	0
 3196              	.LLST22:
 3197 02ad 00000000 		.4byte	.LVL48
 3198 02b1 07000000 		.4byte	.LVL49-1
 3199 02b5 0100     		.2byte	0x1
 3200 02b7 50       		.byte	0x50
 3201 02b8 07000000 		.4byte	.LVL49-1
 3202 02bc 1E000000 		.4byte	.LVL51
 3203 02c0 0100     		.2byte	0x1
 3204 02c2 54       		.byte	0x54
 3205 02c3 1E000000 		.4byte	.LVL51
 3206 02c7 24000000 		.4byte	.LFE20
 3207 02cb 0400     		.2byte	0x4
 3208 02cd F3       		.byte	0xf3
 3209 02ce 01       		.uleb128 0x1
 3210 02cf 50       		.byte	0x50
 3211 02d0 9F       		.byte	0x9f
 3212 02d1 00000000 		.4byte	0
 3213 02d5 00000000 		.4byte	0
 3214              	.LLST23:
 3215 02d9 08000000 		.4byte	.LVL49
 3216 02dd 1D000000 		.4byte	.LVL50-1
 3217 02e1 0100     		.2byte	0x1
 3218 02e3 50       		.byte	0x50
 3219 02e4 00000000 		.4byte	0
 3220 02e8 00000000 		.4byte	0
 3221              	.LLST24:
 3222 02ec 00000000 		.4byte	.LVL52
 3223 02f0 04000000 		.4byte	.LVL53
 3224 02f4 0100     		.2byte	0x1
 3225 02f6 50       		.byte	0x50
 3226 02f7 04000000 		.4byte	.LVL53
 3227 02fb 0C000000 		.4byte	.LFE21
 3228 02ff 0400     		.2byte	0x4
 3229 0301 F3       		.byte	0xf3
 3230 0302 01       		.uleb128 0x1
 3231 0303 50       		.byte	0x50
 3232 0304 9F       		.byte	0x9f
 3233 0305 00000000 		.4byte	0
 3234 0309 00000000 		.4byte	0
 3235              	.LLST25:
 3236 030d 00000000 		.4byte	.LVL54
 3237 0311 07000000 		.4byte	.LVL55-1
 3238 0315 0100     		.2byte	0x1
ARM GAS  C:\Users\Petro\AppData\Local\Temp\ccpWYAL3.s 			page 87


 3239 0317 50       		.byte	0x50
 3240 0318 07000000 		.4byte	.LVL55-1
 3241 031c 22000000 		.4byte	.LVL57
 3242 0320 0100     		.2byte	0x1
 3243 0322 54       		.byte	0x54
 3244 0323 22000000 		.4byte	.LVL57
 3245 0327 28000000 		.4byte	.LFE23
 3246 032b 0400     		.2byte	0x4
 3247 032d F3       		.byte	0xf3
 3248 032e 01       		.uleb128 0x1
 3249 032f 50       		.byte	0x50
 3250 0330 9F       		.byte	0x9f
 3251 0331 00000000 		.4byte	0
 3252 0335 00000000 		.4byte	0
 3253              	.LLST26:
 3254 0339 08000000 		.4byte	.LVL55
 3255 033d 21000000 		.4byte	.LVL56-1
 3256 0341 0100     		.2byte	0x1
 3257 0343 50       		.byte	0x50
 3258 0344 00000000 		.4byte	0
 3259 0348 00000000 		.4byte	0
 3260              	.LLST27:
 3261 034c 00000000 		.4byte	.LVL58
 3262 0350 04000000 		.4byte	.LVL59
 3263 0354 0100     		.2byte	0x1
 3264 0356 50       		.byte	0x50
 3265 0357 04000000 		.4byte	.LVL59
 3266 035b 0C000000 		.4byte	.LFE24
 3267 035f 0400     		.2byte	0x4
 3268 0361 F3       		.byte	0xf3
 3269 0362 01       		.uleb128 0x1
 3270 0363 50       		.byte	0x50
 3271 0364 9F       		.byte	0x9f
 3272 0365 00000000 		.4byte	0
 3273 0369 00000000 		.4byte	0
 3274              	.LLST28:
 3275 036d 00000000 		.4byte	.LVL60
 3276 0371 04000000 		.4byte	.LVL61
 3277 0375 0100     		.2byte	0x1
 3278 0377 50       		.byte	0x50
 3279 0378 04000000 		.4byte	.LVL61
 3280 037c 0C000000 		.4byte	.LFE26
 3281 0380 0400     		.2byte	0x4
 3282 0382 F3       		.byte	0xf3
 3283 0383 01       		.uleb128 0x1
 3284 0384 50       		.byte	0x50
 3285 0385 9F       		.byte	0x9f
 3286 0386 00000000 		.4byte	0
 3287 038a 00000000 		.4byte	0
 3288              	.LLST29:
 3289 038e 00000000 		.4byte	.LVL62
 3290 0392 07000000 		.4byte	.LVL63-1
 3291 0396 0100     		.2byte	0x1
 3292 0398 50       		.byte	0x50
 3293 0399 07000000 		.4byte	.LVL63-1
 3294 039d 1C000000 		.4byte	.LVL65
 3295 03a1 0100     		.2byte	0x1
ARM GAS  C:\Users\Petro\AppData\Local\Temp\ccpWYAL3.s 			page 88


 3296 03a3 54       		.byte	0x54
 3297 03a4 1C000000 		.4byte	.LVL65
 3298 03a8 24000000 		.4byte	.LFE30
 3299 03ac 0400     		.2byte	0x4
 3300 03ae F3       		.byte	0xf3
 3301 03af 01       		.uleb128 0x1
 3302 03b0 50       		.byte	0x50
 3303 03b1 9F       		.byte	0x9f
 3304 03b2 00000000 		.4byte	0
 3305 03b6 00000000 		.4byte	0
 3306              	.LLST30:
 3307 03ba 08000000 		.4byte	.LVL63
 3308 03be 1B000000 		.4byte	.LVL64-1
 3309 03c2 0100     		.2byte	0x1
 3310 03c4 50       		.byte	0x50
 3311 03c5 00000000 		.4byte	0
 3312 03c9 00000000 		.4byte	0
 3313              	.LLST31:
 3314 03cd 00000000 		.4byte	.LVL66
 3315 03d1 07000000 		.4byte	.LVL67-1
 3316 03d5 0100     		.2byte	0x1
 3317 03d7 50       		.byte	0x50
 3318 03d8 07000000 		.4byte	.LVL67-1
 3319 03dc 1E000000 		.4byte	.LVL69
 3320 03e0 0100     		.2byte	0x1
 3321 03e2 54       		.byte	0x54
 3322 03e3 1E000000 		.4byte	.LVL69
 3323 03e7 24000000 		.4byte	.LFE31
 3324 03eb 0400     		.2byte	0x4
 3325 03ed F3       		.byte	0xf3
 3326 03ee 01       		.uleb128 0x1
 3327 03ef 50       		.byte	0x50
 3328 03f0 9F       		.byte	0x9f
 3329 03f1 00000000 		.4byte	0
 3330 03f5 00000000 		.4byte	0
 3331              	.LLST32:
 3332 03f9 08000000 		.4byte	.LVL67
 3333 03fd 1D000000 		.4byte	.LVL68-1
 3334 0401 0100     		.2byte	0x1
 3335 0403 50       		.byte	0x50
 3336 0404 00000000 		.4byte	0
 3337 0408 00000000 		.4byte	0
 3338              	.LLST33:
 3339 040c 00000000 		.4byte	.LVL70
 3340 0410 07000000 		.4byte	.LVL71-1
 3341 0414 0100     		.2byte	0x1
 3342 0416 50       		.byte	0x50
 3343 0417 07000000 		.4byte	.LVL71-1
 3344 041b 1E000000 		.4byte	.LVL73
 3345 041f 0100     		.2byte	0x1
 3346 0421 54       		.byte	0x54
 3347 0422 1E000000 		.4byte	.LVL73
 3348 0426 28000000 		.4byte	.LFE32
 3349 042a 0400     		.2byte	0x4
 3350 042c F3       		.byte	0xf3
 3351 042d 01       		.uleb128 0x1
 3352 042e 50       		.byte	0x50
ARM GAS  C:\Users\Petro\AppData\Local\Temp\ccpWYAL3.s 			page 89


 3353 042f 9F       		.byte	0x9f
 3354 0430 00000000 		.4byte	0
 3355 0434 00000000 		.4byte	0
 3356              	.LLST34:
 3357 0438 08000000 		.4byte	.LVL71
 3358 043c 1D000000 		.4byte	.LVL72-1
 3359 0440 0100     		.2byte	0x1
 3360 0442 50       		.byte	0x50
 3361 0443 00000000 		.4byte	0
 3362 0447 00000000 		.4byte	0
 3363              	.LLST35:
 3364 044b 00000000 		.4byte	.LVL74
 3365 044f 07000000 		.4byte	.LVL75-1
 3366 0453 0100     		.2byte	0x1
 3367 0455 50       		.byte	0x50
 3368 0456 07000000 		.4byte	.LVL75-1
 3369 045a 1E000000 		.4byte	.LVL77
 3370 045e 0100     		.2byte	0x1
 3371 0460 54       		.byte	0x54
 3372 0461 1E000000 		.4byte	.LVL77
 3373 0465 24000000 		.4byte	.LFE33
 3374 0469 0400     		.2byte	0x4
 3375 046b F3       		.byte	0xf3
 3376 046c 01       		.uleb128 0x1
 3377 046d 50       		.byte	0x50
 3378 046e 9F       		.byte	0x9f
 3379 046f 00000000 		.4byte	0
 3380 0473 00000000 		.4byte	0
 3381              	.LLST36:
 3382 0477 08000000 		.4byte	.LVL75
 3383 047b 1D000000 		.4byte	.LVL76-1
 3384 047f 0100     		.2byte	0x1
 3385 0481 50       		.byte	0x50
 3386 0482 00000000 		.4byte	0
 3387 0486 00000000 		.4byte	0
 3388              	.LLST37:
 3389 048a 00000000 		.4byte	.LVL78
 3390 048e 07000000 		.4byte	.LVL79-1
 3391 0492 0100     		.2byte	0x1
 3392 0494 50       		.byte	0x50
 3393 0495 07000000 		.4byte	.LVL79-1
 3394 0499 1E000000 		.4byte	.LVL81
 3395 049d 0100     		.2byte	0x1
 3396 049f 54       		.byte	0x54
 3397 04a0 1E000000 		.4byte	.LVL81
 3398 04a4 24000000 		.4byte	.LFE34
 3399 04a8 0400     		.2byte	0x4
 3400 04aa F3       		.byte	0xf3
 3401 04ab 01       		.uleb128 0x1
 3402 04ac 50       		.byte	0x50
 3403 04ad 9F       		.byte	0x9f
 3404 04ae 00000000 		.4byte	0
 3405 04b2 00000000 		.4byte	0
 3406              	.LLST38:
 3407 04b6 08000000 		.4byte	.LVL79
 3408 04ba 1D000000 		.4byte	.LVL80-1
 3409 04be 0100     		.2byte	0x1
ARM GAS  C:\Users\Petro\AppData\Local\Temp\ccpWYAL3.s 			page 90


 3410 04c0 50       		.byte	0x50
 3411 04c1 00000000 		.4byte	0
 3412 04c5 00000000 		.4byte	0
 3413              	.LLST39:
 3414 04c9 00000000 		.4byte	.LVL82
 3415 04cd 0B000000 		.4byte	.LVL83-1
 3416 04d1 0100     		.2byte	0x1
 3417 04d3 50       		.byte	0x50
 3418 04d4 0B000000 		.4byte	.LVL83-1
 3419 04d8 1C000000 		.4byte	.LFE35
 3420 04dc 0400     		.2byte	0x4
 3421 04de F3       		.byte	0xf3
 3422 04df 01       		.uleb128 0x1
 3423 04e0 50       		.byte	0x50
 3424 04e1 9F       		.byte	0x9f
 3425 04e2 00000000 		.4byte	0
 3426 04e6 00000000 		.4byte	0
 3427              	.LLST40:
 3428 04ea 00000000 		.4byte	.LVL82
 3429 04ee 0B000000 		.4byte	.LVL83-1
 3430 04f2 0100     		.2byte	0x1
 3431 04f4 51       		.byte	0x51
 3432 04f5 0B000000 		.4byte	.LVL83-1
 3433 04f9 14000000 		.4byte	.LVL85
 3434 04fd 0100     		.2byte	0x1
 3435 04ff 55       		.byte	0x55
 3436 0500 14000000 		.4byte	.LVL85
 3437 0504 1C000000 		.4byte	.LFE35
 3438 0508 0400     		.2byte	0x4
 3439 050a F3       		.byte	0xf3
 3440 050b 01       		.uleb128 0x1
 3441 050c 51       		.byte	0x51
 3442 050d 9F       		.byte	0x9f
 3443 050e 00000000 		.4byte	0
 3444 0512 00000000 		.4byte	0
 3445              	.LLST41:
 3446 0516 0C000000 		.4byte	.LVL83
 3447 051a 13000000 		.4byte	.LVL84-1
 3448 051e 0100     		.2byte	0x1
 3449 0520 50       		.byte	0x50
 3450 0521 00000000 		.4byte	0
 3451 0525 00000000 		.4byte	0
 3452              	.LLST42:
 3453 0529 08000000 		.4byte	.LVL86
 3454 052d 13000000 		.4byte	.LVL87-1
 3455 0531 0100     		.2byte	0x1
 3456 0533 50       		.byte	0x50
 3457 0534 00000000 		.4byte	0
 3458 0538 00000000 		.4byte	0
 3459              		.section	.debug_aranges,"",%progbits
 3460 0000 54010000 		.4byte	0x154
 3461 0004 0200     		.2byte	0x2
 3462 0006 00000000 		.4byte	.Ldebug_info0
 3463 000a 04       		.byte	0x4
 3464 000b 00       		.byte	0
 3465 000c 0000     		.2byte	0
 3466 000e 0000     		.2byte	0
ARM GAS  C:\Users\Petro\AppData\Local\Temp\ccpWYAL3.s 			page 91


 3467 0010 00000000 		.4byte	.LFB2
 3468 0014 48000000 		.4byte	.LFE2-.LFB2
 3469 0018 00000000 		.4byte	.LFB5
 3470 001c 1C000000 		.4byte	.LFE5-.LFB5
 3471 0020 00000000 		.4byte	.LFB6
 3472 0024 28000000 		.4byte	.LFE6-.LFB6
 3473 0028 00000000 		.4byte	.LFB7
 3474 002c 28000000 		.4byte	.LFE7-.LFB7
 3475 0030 00000000 		.4byte	.LFB8
 3476 0034 28000000 		.4byte	.LFE8-.LFB8
 3477 0038 00000000 		.4byte	.LFB9
 3478 003c 2C000000 		.4byte	.LFE9-.LFB9
 3479 0040 00000000 		.4byte	.LFB10
 3480 0044 10000000 		.4byte	.LFE10-.LFB10
 3481 0048 00000000 		.4byte	.LFB11
 3482 004c 28000000 		.4byte	.LFE11-.LFB11
 3483 0050 00000000 		.4byte	.LFB12
 3484 0054 28000000 		.4byte	.LFE12-.LFB12
 3485 0058 00000000 		.4byte	.LFB13
 3486 005c 2C000000 		.4byte	.LFE13-.LFB13
 3487 0060 00000000 		.4byte	.LFB14
 3488 0064 28000000 		.4byte	.LFE14-.LFB14
 3489 0068 00000000 		.4byte	.LFB15
 3490 006c 0C000000 		.4byte	.LFE15-.LFB15
 3491 0070 00000000 		.4byte	.LFB16
 3492 0074 0C000000 		.4byte	.LFE16-.LFB16
 3493 0078 00000000 		.4byte	.LFB17
 3494 007c 28000000 		.4byte	.LFE17-.LFB17
 3495 0080 00000000 		.4byte	.LFB18
 3496 0084 0C000000 		.4byte	.LFE18-.LFB18
 3497 0088 00000000 		.4byte	.LFB19
 3498 008c 0C000000 		.4byte	.LFE19-.LFB19
 3499 0090 00000000 		.4byte	.LFB20
 3500 0094 24000000 		.4byte	.LFE20-.LFB20
 3501 0098 00000000 		.4byte	.LFB21
 3502 009c 0C000000 		.4byte	.LFE21-.LFB21
 3503 00a0 00000000 		.4byte	.LFB22
 3504 00a4 0C000000 		.4byte	.LFE22-.LFB22
 3505 00a8 00000000 		.4byte	.LFB23
 3506 00ac 28000000 		.4byte	.LFE23-.LFB23
 3507 00b0 00000000 		.4byte	.LFB24
 3508 00b4 0C000000 		.4byte	.LFE24-.LFB24
 3509 00b8 00000000 		.4byte	.LFB25
 3510 00bc 0C000000 		.4byte	.LFE25-.LFB25
 3511 00c0 00000000 		.4byte	.LFB26
 3512 00c4 0C000000 		.4byte	.LFE26-.LFB26
 3513 00c8 00000000 		.4byte	.LFB27
 3514 00cc 0C000000 		.4byte	.LFE27-.LFB27
 3515 00d0 00000000 		.4byte	.LFB28
 3516 00d4 0C000000 		.4byte	.LFE28-.LFB28
 3517 00d8 00000000 		.4byte	.LFB29
 3518 00dc 0C000000 		.4byte	.LFE29-.LFB29
 3519 00e0 00000000 		.4byte	.LFB30
 3520 00e4 24000000 		.4byte	.LFE30-.LFB30
 3521 00e8 00000000 		.4byte	.LFB31
 3522 00ec 24000000 		.4byte	.LFE31-.LFB31
 3523 00f0 00000000 		.4byte	.LFB32
ARM GAS  C:\Users\Petro\AppData\Local\Temp\ccpWYAL3.s 			page 92


 3524 00f4 28000000 		.4byte	.LFE32-.LFB32
 3525 00f8 00000000 		.4byte	.LFB33
 3526 00fc 24000000 		.4byte	.LFE33-.LFB33
 3527 0100 00000000 		.4byte	.LFB34
 3528 0104 24000000 		.4byte	.LFE34-.LFB34
 3529 0108 00000000 		.4byte	.LFB35
 3530 010c 1C000000 		.4byte	.LFE35-.LFB35
 3531 0110 00000000 		.4byte	.LFB3
 3532 0114 24000000 		.4byte	.LFE3-.LFB3
 3533 0118 00000000 		.4byte	.LFB4
 3534 011c 1C000000 		.4byte	.LFE4-.LFB4
 3535 0120 00000000 		.4byte	.LFB36
 3536 0124 14000000 		.4byte	.LFE36-.LFB36
 3537 0128 00000000 		.4byte	.LFB37
 3538 012c 0C000000 		.4byte	.LFE37-.LFB37
 3539 0130 00000000 		.4byte	.LFB38
 3540 0134 0C000000 		.4byte	.LFE38-.LFB38
 3541 0138 00000000 		.4byte	.LFB39
 3542 013c 0C000000 		.4byte	.LFE39-.LFB39
 3543 0140 00000000 		.4byte	.LFB40
 3544 0144 0C000000 		.4byte	.LFE40-.LFB40
 3545 0148 00000000 		.4byte	.LFB41
 3546 014c 0C000000 		.4byte	.LFE41-.LFB41
 3547 0150 00000000 		.4byte	0
 3548 0154 00000000 		.4byte	0
 3549              		.section	.debug_ranges,"",%progbits
 3550              	.Ldebug_ranges0:
 3551 0000 00000000 		.4byte	.LFB2
 3552 0004 48000000 		.4byte	.LFE2
 3553 0008 00000000 		.4byte	.LFB5
 3554 000c 1C000000 		.4byte	.LFE5
 3555 0010 00000000 		.4byte	.LFB6
 3556 0014 28000000 		.4byte	.LFE6
 3557 0018 00000000 		.4byte	.LFB7
 3558 001c 28000000 		.4byte	.LFE7
 3559 0020 00000000 		.4byte	.LFB8
 3560 0024 28000000 		.4byte	.LFE8
 3561 0028 00000000 		.4byte	.LFB9
 3562 002c 2C000000 		.4byte	.LFE9
 3563 0030 00000000 		.4byte	.LFB10
 3564 0034 10000000 		.4byte	.LFE10
 3565 0038 00000000 		.4byte	.LFB11
 3566 003c 28000000 		.4byte	.LFE11
 3567 0040 00000000 		.4byte	.LFB12
 3568 0044 28000000 		.4byte	.LFE12
 3569 0048 00000000 		.4byte	.LFB13
 3570 004c 2C000000 		.4byte	.LFE13
 3571 0050 00000000 		.4byte	.LFB14
 3572 0054 28000000 		.4byte	.LFE14
 3573 0058 00000000 		.4byte	.LFB15
 3574 005c 0C000000 		.4byte	.LFE15
 3575 0060 00000000 		.4byte	.LFB16
 3576 0064 0C000000 		.4byte	.LFE16
 3577 0068 00000000 		.4byte	.LFB17
 3578 006c 28000000 		.4byte	.LFE17
 3579 0070 00000000 		.4byte	.LFB18
 3580 0074 0C000000 		.4byte	.LFE18
ARM GAS  C:\Users\Petro\AppData\Local\Temp\ccpWYAL3.s 			page 93


 3581 0078 00000000 		.4byte	.LFB19
 3582 007c 0C000000 		.4byte	.LFE19
 3583 0080 00000000 		.4byte	.LFB20
 3584 0084 24000000 		.4byte	.LFE20
 3585 0088 00000000 		.4byte	.LFB21
 3586 008c 0C000000 		.4byte	.LFE21
 3587 0090 00000000 		.4byte	.LFB22
 3588 0094 0C000000 		.4byte	.LFE22
 3589 0098 00000000 		.4byte	.LFB23
 3590 009c 28000000 		.4byte	.LFE23
 3591 00a0 00000000 		.4byte	.LFB24
 3592 00a4 0C000000 		.4byte	.LFE24
 3593 00a8 00000000 		.4byte	.LFB25
 3594 00ac 0C000000 		.4byte	.LFE25
 3595 00b0 00000000 		.4byte	.LFB26
 3596 00b4 0C000000 		.4byte	.LFE26
 3597 00b8 00000000 		.4byte	.LFB27
 3598 00bc 0C000000 		.4byte	.LFE27
 3599 00c0 00000000 		.4byte	.LFB28
 3600 00c4 0C000000 		.4byte	.LFE28
 3601 00c8 00000000 		.4byte	.LFB29
 3602 00cc 0C000000 		.4byte	.LFE29
 3603 00d0 00000000 		.4byte	.LFB30
 3604 00d4 24000000 		.4byte	.LFE30
 3605 00d8 00000000 		.4byte	.LFB31
 3606 00dc 24000000 		.4byte	.LFE31
 3607 00e0 00000000 		.4byte	.LFB32
 3608 00e4 28000000 		.4byte	.LFE32
 3609 00e8 00000000 		.4byte	.LFB33
 3610 00ec 24000000 		.4byte	.LFE33
 3611 00f0 00000000 		.4byte	.LFB34
 3612 00f4 24000000 		.4byte	.LFE34
 3613 00f8 00000000 		.4byte	.LFB35
 3614 00fc 1C000000 		.4byte	.LFE35
 3615 0100 00000000 		.4byte	.LFB3
 3616 0104 24000000 		.4byte	.LFE3
 3617 0108 00000000 		.4byte	.LFB4
 3618 010c 1C000000 		.4byte	.LFE4
 3619 0110 00000000 		.4byte	.LFB36
 3620 0114 14000000 		.4byte	.LFE36
 3621 0118 00000000 		.4byte	.LFB37
 3622 011c 0C000000 		.4byte	.LFE37
 3623 0120 00000000 		.4byte	.LFB38
 3624 0124 0C000000 		.4byte	.LFE38
 3625 0128 00000000 		.4byte	.LFB39
 3626 012c 0C000000 		.4byte	.LFE39
 3627 0130 00000000 		.4byte	.LFB40
 3628 0134 0C000000 		.4byte	.LFE40
 3629 0138 00000000 		.4byte	.LFB41
 3630 013c 0C000000 		.4byte	.LFE41
 3631 0140 00000000 		.4byte	0
 3632 0144 00000000 		.4byte	0
 3633              		.section	.debug_line,"",%progbits
 3634              	.Ldebug_line0:
 3635 0000 EA030000 		.section	.debug_str,"MS",%progbits,1
 3635      02005500 
 3635      00000201 
ARM GAS  C:\Users\Petro\AppData\Local\Temp\ccpWYAL3.s 			page 94


 3635      FB0E0D00 
 3635      01010101 
 3636              	.LASF23:
 3637 0000 636F756E 		.ascii	"count\000"
 3637      7400
 3638              	.LASF76:
 3639 0006 474E5520 		.ascii	"GNU C 4.9.3 20150303 (release) [ARM/embedded-4_9-br"
 3639      4320342E 
 3639      392E3320 
 3639      32303135 
 3639      30333033 
 3640 0039 616E6368 		.ascii	"anch revision 221220] -mcpu=cortex-m0 -mthumb -g -O"
 3640      20726576 
 3640      6973696F 
 3640      6E203232 
 3640      31323230 
 3641 006c 73202D66 		.ascii	"s -ffunction-sections -ffat-lto-objects\000"
 3641      66756E63 
 3641      74696F6E 
 3641      2D736563 
 3641      74696F6E 
 3642              	.LASF81:
 3643 0094 43794578 		.ascii	"CyExitCriticalSection\000"
 3643      69744372 
 3643      69746963 
 3643      616C5365 
 3643      6374696F 
 3644              	.LASF22:
 3645 00aa 54696D65 		.ascii	"TimerTestMode_WriteCounter\000"
 3645      72546573 
 3645      744D6F64 
 3645      655F5772 
 3645      69746543 
 3646              	.LASF60:
 3647 00c5 54696D65 		.ascii	"TimerTestMode_ReadCaptureBuf\000"
 3647      72546573 
 3647      744D6F64 
 3647      655F5265 
 3647      61644361 
 3648              	.LASF63:
 3649 00e2 54696D65 		.ascii	"TimerTestMode_SetReloadMode\000"
 3649      72546573 
 3649      744D6F64 
 3649      655F5365 
 3649      7452656C 
 3650              	.LASF19:
 3651 00fe 70657269 		.ascii	"period\000"
 3651      6F6400
 3652              	.LASF7:
 3653 0105 6C6F6E67 		.ascii	"long long unsigned int\000"
 3653      206C6F6E 
 3653      6720756E 
 3653      7369676E 
 3653      65642069 
 3654              	.LASF55:
 3655 011c 54696D65 		.ascii	"TimerTestMode_ReadCompare\000"
 3655      72546573 
ARM GAS  C:\Users\Petro\AppData\Local\Temp\ccpWYAL3.s 			page 95


 3655      744D6F64 
 3655      655F5265 
 3655      6164436F 
 3656              	.LASF30:
 3657 0136 71644D6F 		.ascii	"qdMode\000"
 3657      646500
 3658              	.LASF73:
 3659 013d 54696D65 		.ascii	"TimerTestMode_GetInterruptSource\000"
 3659      72546573 
 3659      744D6F64 
 3659      655F4765 
 3659      74496E74 
 3660              	.LASF6:
 3661 015e 6C6F6E67 		.ascii	"long long int\000"
 3661      206C6F6E 
 3661      6720696E 
 3661      7400
 3662              	.LASF0:
 3663 016c 7369676E 		.ascii	"signed char\000"
 3663      65642063 
 3663      68617200 
 3664              	.LASF43:
 3665 0178 54696D65 		.ascii	"TimerTestMode_SetPWMInvert\000"
 3665      72546573 
 3665      744D6F64 
 3665      655F5365 
 3665      7450574D 
 3666              	.LASF70:
 3667 0193 54696D65 		.ascii	"TimerTestMode_Start\000"
 3667      72546573 
 3667      744D6F64 
 3667      655F5374 
 3667      61727400 
 3668              	.LASF64:
 3669 01a7 54696D65 		.ascii	"TimerTestMode_SetStartMode\000"
 3669      72546573 
 3669      744D6F64 
 3669      655F5365 
 3669      74537461 
 3670              	.LASF4:
 3671 01c2 6C6F6E67 		.ascii	"long int\000"
 3671      20696E74 
 3671      00
 3672              	.LASF9:
 3673 01cb 75696E74 		.ascii	"uint8\000"
 3673      3800
 3674              	.LASF12:
 3675 01d1 646F7562 		.ascii	"double\000"
 3675      6C6500
 3676              	.LASF47:
 3677 01d8 54696D65 		.ascii	"TimerTestMode_ReadCounter\000"
 3677      72546573 
 3677      744D6F64 
 3677      655F5265 
 3677      6164436F 
 3678              	.LASF10:
 3679 01f2 75696E74 		.ascii	"uint32\000"
ARM GAS  C:\Users\Petro\AppData\Local\Temp\ccpWYAL3.s 			page 96


 3679      333200
 3680              	.LASF62:
 3681 01f9 74726967 		.ascii	"triggerMode\000"
 3681      6765724D 
 3681      6F646500 
 3682              	.LASF44:
 3683 0205 6D61736B 		.ascii	"mask\000"
 3683      00
 3684              	.LASF77:
 3685 020a 47656E65 		.ascii	"Generated_Source\\PSoC4\\TimerTestMode.c\000"
 3685      72617465 
 3685      645F536F 
 3685      75726365 
 3685      5C50536F 
 3686              	.LASF42:
 3687 0231 64656164 		.ascii	"deadTime\000"
 3687      54696D65 
 3687      00
 3688              	.LASF8:
 3689 023a 756E7369 		.ascii	"unsigned int\000"
 3689      676E6564 
 3689      20696E74 
 3689      00
 3690              	.LASF31:
 3691 0247 54696D65 		.ascii	"TimerTestMode_SetPrescaler\000"
 3691      72546573 
 3691      744D6F64 
 3691      655F5365 
 3691      74507265 
 3692              	.LASF68:
 3693 0262 636F6D6D 		.ascii	"command\000"
 3693      616E6400 
 3694              	.LASF5:
 3695 026a 6C6F6E67 		.ascii	"long unsigned int\000"
 3695      20756E73 
 3695      69676E65 
 3695      6420696E 
 3695      7400
 3696              	.LASF36:
 3697 027c 6D6F6465 		.ascii	"modeMask\000"
 3697      4D61736B 
 3697      00
 3698              	.LASF80:
 3699 0285 4379456E 		.ascii	"CyEnterCriticalSection\000"
 3699      74657243 
 3699      72697469 
 3699      63616C53 
 3699      65637469 
 3700              	.LASF53:
 3701 029c 54696D65 		.ascii	"TimerTestMode_ReadPeriodBuf\000"
 3701      72546573 
 3701      744D6F64 
 3701      655F5265 
 3701      61645065 
 3702              	.LASF3:
 3703 02b8 73686F72 		.ascii	"short unsigned int\000"
 3703      7420756E 
ARM GAS  C:\Users\Petro\AppData\Local\Temp\ccpWYAL3.s 			page 97


 3703      7369676E 
 3703      65642069 
 3703      6E7400
 3704              	.LASF33:
 3705 02cb 54696D65 		.ascii	"TimerTestMode_SetOneShot\000"
 3705      72546573 
 3705      744D6F64 
 3705      655F5365 
 3705      744F6E65 
 3706              	.LASF34:
 3707 02e4 6F6E6553 		.ascii	"oneShotEnable\000"
 3707      686F7445 
 3707      6E61626C 
 3707      6500
 3708              	.LASF65:
 3709 02f2 54696D65 		.ascii	"TimerTestMode_SetStopMode\000"
 3709      72546573 
 3709      744D6F64 
 3709      655F5365 
 3709      7453746F 
 3710              	.LASF79:
 3711 030c 54696D65 		.ascii	"TimerTestMode_initVar\000"
 3711      72546573 
 3711      744D6F64 
 3711      655F696E 
 3711      69745661 
 3712              	.LASF49:
 3713 0322 54696D65 		.ascii	"TimerTestMode_SetCompareSwap\000"
 3713      72546573 
 3713      744D6F64 
 3713      655F5365 
 3713      74436F6D 
 3714              	.LASF54:
 3715 033f 54696D65 		.ascii	"TimerTestMode_SetPeriodSwap\000"
 3715      72546573 
 3715      744D6F64 
 3715      655F5365 
 3715      74506572 
 3716              	.LASF71:
 3717 035b 54696D65 		.ascii	"TimerTestMode_ReadStatus\000"
 3717      72546573 
 3717      744D6F64 
 3717      655F5265 
 3717      61645374 
 3718              	.LASF56:
 3719 0374 54696D65 		.ascii	"TimerTestMode_WriteCompareBuf\000"
 3719      72546573 
 3719      744D6F64 
 3719      655F5772 
 3719      69746543 
 3720              	.LASF14:
 3721 0392 72656733 		.ascii	"reg32\000"
 3721      3200
 3722              	.LASF45:
 3723 0398 54696D65 		.ascii	"TimerTestMode_SetCounterMode\000"
 3723      72546573 
 3723      744D6F64 
ARM GAS  C:\Users\Petro\AppData\Local\Temp\ccpWYAL3.s 			page 98


 3723      655F5365 
 3723      74436F75 
 3724              	.LASF15:
 3725 03b5 73697A65 		.ascii	"sizetype\000"
 3725      74797065 
 3725      00
 3726              	.LASF39:
 3727 03be 54696D65 		.ascii	"TimerTestMode_SetPWMStopOnKill\000"
 3727      72546573 
 3727      744D6F64 
 3727      655F5365 
 3727      7450574D 
 3728              	.LASF38:
 3729 03dd 73796E63 		.ascii	"syncKillEnable\000"
 3729      4B696C6C 
 3729      456E6162 
 3729      6C6500
 3730              	.LASF37:
 3731 03ec 54696D65 		.ascii	"TimerTestMode_SetPWMSyncKill\000"
 3731      72546573 
 3731      744D6F64 
 3731      655F5365 
 3731      7450574D 
 3732              	.LASF25:
 3733 0409 54696D65 		.ascii	"TimerTestMode_Stop\000"
 3733      72546573 
 3733      744D6F64 
 3733      655F5374 
 3733      6F7000
 3734              	.LASF21:
 3735 041c 636F6D70 		.ascii	"compare\000"
 3735      61726500 
 3736              	.LASF17:
 3737 0424 54696D65 		.ascii	"TimerTestMode_WritePeriod\000"
 3737      72546573 
 3737      744D6F64 
 3737      655F5772 
 3737      69746550 
 3738              	.LASF28:
 3739 043e 54696D65 		.ascii	"TimerTestMode_SetQDMode\000"
 3739      72546573 
 3739      744D6F64 
 3739      655F5365 
 3739      7451444D 
 3740              	.LASF11:
 3741 0456 666C6F61 		.ascii	"float\000"
 3741      7400
 3742              	.LASF32:
 3743 045c 70726573 		.ascii	"prescaler\000"
 3743      63616C65 
 3743      7200
 3744              	.LASF72:
 3745 0466 54696D65 		.ascii	"TimerTestMode_GetInterruptSourceMasked\000"
 3745      72546573 
 3745      744D6F64 
 3745      655F4765 
 3745      74496E74 
ARM GAS  C:\Users\Petro\AppData\Local\Temp\ccpWYAL3.s 			page 99


 3746              	.LASF41:
 3747 048d 54696D65 		.ascii	"TimerTestMode_SetPWMDeadTime\000"
 3747      72546573 
 3747      744D6F64 
 3747      655F5365 
 3747      7450574D 
 3748              	.LASF67:
 3749 04aa 54696D65 		.ascii	"TimerTestMode_TriggerCommand\000"
 3749      72546573 
 3749      744D6F64 
 3749      655F5472 
 3749      69676765 
 3750              	.LASF78:
 3751 04c7 443A5C43 		.ascii	"D:\\Cypress\\system-start-finish\\vesion 2\\fw\\fin"
 3751      79707265 
 3751      73735C73 
 3751      79737465 
 3751      6D2D7374 
 3752 04f5 6973685C 		.ascii	"ish\\sandbox\\v9_testmode_1602display\\Finish(state"
 3752      73616E64 
 3752      626F785C 
 3752      76395F74 
 3752      6573746D 
 3753 0525 206D6163 		.ascii	" machine)\\fin_v0.cydsn\000"
 3753      68696E65 
 3753      295C6669 
 3753      6E5F7630 
 3753      2E637964 
 3754              	.LASF48:
 3755 053c 54696D65 		.ascii	"TimerTestMode_ReadPeriod\000"
 3755      72546573 
 3755      744D6F64 
 3755      655F5265 
 3755      61645065 
 3756              	.LASF40:
 3757 0555 73746F70 		.ascii	"stopOnKillEnable\000"
 3757      4F6E4B69 
 3757      6C6C456E 
 3757      61626C65 
 3757      00
 3758              	.LASF74:
 3759 0566 54696D65 		.ascii	"TimerTestMode_ClearInterrupt\000"
 3759      72546573 
 3759      744D6F64 
 3759      655F436C 
 3759      65617249 
 3760              	.LASF2:
 3761 0583 73686F72 		.ascii	"short int\000"
 3761      7420696E 
 3761      7400
 3762              	.LASF18:
 3763 058d 696E7465 		.ascii	"interruptMask\000"
 3763      72727570 
 3763      744D6173 
 3763      6B00
 3764              	.LASF75:
 3765 059b 54696D65 		.ascii	"TimerTestMode_SetInterrupt\000"
ARM GAS  C:\Users\Petro\AppData\Local\Temp\ccpWYAL3.s 			page 100


 3765      72546573 
 3765      744D6F64 
 3765      655F5365 
 3765      74496E74 
 3766              	.LASF69:
 3767 05b6 54696D65 		.ascii	"TimerTestMode_Enable\000"
 3767      72546573 
 3767      744D6F64 
 3767      655F456E 
 3767      61626C65 
 3768              	.LASF59:
 3769 05cb 54696D65 		.ascii	"TimerTestMode_ReadCapture\000"
 3769      72546573 
 3769      744D6F64 
 3769      655F5265 
 3769      61644361 
 3770              	.LASF58:
 3771 05e5 54696D65 		.ascii	"TimerTestMode_ReadCompareBuf\000"
 3771      72546573 
 3771      744D6F64 
 3771      655F5265 
 3771      6164436F 
 3772              	.LASF16:
 3773 0602 54696D65 		.ascii	"TimerTestMode_SetInterruptMode\000"
 3773      72546573 
 3773      744D6F64 
 3773      655F5365 
 3773      74496E74 
 3774              	.LASF13:
 3775 0621 63686172 		.ascii	"char\000"
 3775      00
 3776              	.LASF29:
 3777 0626 6D6F6465 		.ascii	"mode\000"
 3777      00
 3778              	.LASF46:
 3779 062b 636F756E 		.ascii	"counterMode\000"
 3779      7465724D 
 3779      6F646500 
 3780              	.LASF66:
 3781 0637 54696D65 		.ascii	"TimerTestMode_SetCountMode\000"
 3781      72546573 
 3781      744D6F64 
 3781      655F5365 
 3781      74436F75 
 3782              	.LASF35:
 3783 0652 54696D65 		.ascii	"TimerTestMode_SetPWMMode\000"
 3783      72546573 
 3783      744D6F64 
 3783      655F5365 
 3783      7450574D 
 3784              	.LASF1:
 3785 066b 756E7369 		.ascii	"unsigned char\000"
 3785      676E6564 
 3785      20636861 
 3785      7200
 3786              	.LASF57:
 3787 0679 636F6D70 		.ascii	"compareBuf\000"
ARM GAS  C:\Users\Petro\AppData\Local\Temp\ccpWYAL3.s 			page 101


 3787      61726542 
 3787      756600
 3788              	.LASF61:
 3789 0684 54696D65 		.ascii	"TimerTestMode_SetCaptureMode\000"
 3789      72546573 
 3789      744D6F64 
 3789      655F5365 
 3789      74436170 
 3790              	.LASF26:
 3791 06a1 54696D65 		.ascii	"TimerTestMode_SetMode\000"
 3791      72546573 
 3791      744D6F64 
 3791      655F5365 
 3791      744D6F64 
 3792              	.LASF27:
 3793 06b7 656E6162 		.ascii	"enableInterrupts\000"
 3793      6C65496E 
 3793      74657272 
 3793      75707473 
 3793      00
 3794              	.LASF20:
 3795 06c8 54696D65 		.ascii	"TimerTestMode_WriteCompare\000"
 3795      72546573 
 3795      744D6F64 
 3795      655F5772 
 3795      69746543 
 3796              	.LASF50:
 3797 06e3 73776170 		.ascii	"swapEnable\000"
 3797      456E6162 
 3797      6C6500
 3798              	.LASF24:
 3799 06ee 54696D65 		.ascii	"TimerTestMode_Init\000"
 3799      72546573 
 3799      744D6F64 
 3799      655F496E 
 3799      697400
 3800              	.LASF51:
 3801 0701 54696D65 		.ascii	"TimerTestMode_WritePeriodBuf\000"
 3801      72546573 
 3801      744D6F64 
 3801      655F5772 
 3801      69746550 
 3802              	.LASF52:
 3803 071e 70657269 		.ascii	"periodBuf\000"
 3803      6F644275 
 3803      6600
 3804              		.ident	"GCC: (GNU Tools for ARM Embedded Processors) 4.9.3 20150303 (release) [ARM/embedded-4_9-br
