ARM GAS  C:\Users\Petro\AppData\Local\Temp\ccBe4H2c.s 			page 1


   1              		.cpu cortex-m0
   2              		.fpu softvfp
   3              		.eabi_attribute 20, 1
   4              		.eabi_attribute 21, 1
   5              		.eabi_attribute 23, 3
   6              		.eabi_attribute 24, 1
   7              		.eabi_attribute 25, 1
   8              		.eabi_attribute 26, 1
   9              		.eabi_attribute 30, 6
  10              		.eabi_attribute 34, 0
  11              		.eabi_attribute 18, 4
  12              		.code	16
  13              		.file	"cyfitter_cfg.c"
  14              		.text
  15              	.Ltext0:
  16              		.cfi_sections	.debug_frame
  17              		.section	.text.CYMEMZERO,"ax",%progbits
  18              		.align	2
  19              		.code	16
  20              		.thumb_func
  21              		.type	CYMEMZERO, %function
  22              	CYMEMZERO:
  23              	.LFB2:
  24              		.file 1 "Generated_Source\\PSoC4\\cyfitter_cfg.c"
   1:Generated_Source\PSoC4/cyfitter_cfg.c **** /*******************************************************************************
   2:Generated_Source\PSoC4/cyfitter_cfg.c **** * File Name: cyfitter_cfg.c
   3:Generated_Source\PSoC4/cyfitter_cfg.c **** * 
   4:Generated_Source\PSoC4/cyfitter_cfg.c **** * PSoC Creator  4.0
   5:Generated_Source\PSoC4/cyfitter_cfg.c **** *
   6:Generated_Source\PSoC4/cyfitter_cfg.c **** * Description:
   7:Generated_Source\PSoC4/cyfitter_cfg.c **** * This file contains device initialization code.
   8:Generated_Source\PSoC4/cyfitter_cfg.c **** * Except for the user defined sections in CyClockStartupError(), this file should not be modified.
   9:Generated_Source\PSoC4/cyfitter_cfg.c **** * This file is automatically generated by PSoC Creator.
  10:Generated_Source\PSoC4/cyfitter_cfg.c **** *
  11:Generated_Source\PSoC4/cyfitter_cfg.c **** ********************************************************************************
  12:Generated_Source\PSoC4/cyfitter_cfg.c **** * Copyright (c) 2007-2016 Cypress Semiconductor.  All rights reserved.
  13:Generated_Source\PSoC4/cyfitter_cfg.c **** * You may use this file only in accordance with the license, terms, conditions, 
  14:Generated_Source\PSoC4/cyfitter_cfg.c **** * disclaimers, and limitations in the end user license agreement accompanying 
  15:Generated_Source\PSoC4/cyfitter_cfg.c **** * the software package with which this file was provided.
  16:Generated_Source\PSoC4/cyfitter_cfg.c **** ********************************************************************************/
  17:Generated_Source\PSoC4/cyfitter_cfg.c **** 
  18:Generated_Source\PSoC4/cyfitter_cfg.c **** #include <string.h>
  19:Generated_Source\PSoC4/cyfitter_cfg.c **** #include "cytypes.h"
  20:Generated_Source\PSoC4/cyfitter_cfg.c **** #include "cydevice_trm.h"
  21:Generated_Source\PSoC4/cyfitter_cfg.c **** #include "cyfitter.h"
  22:Generated_Source\PSoC4/cyfitter_cfg.c **** #include "CyLib.h"
  23:Generated_Source\PSoC4/cyfitter_cfg.c **** #include "CyLFClk.h"
  24:Generated_Source\PSoC4/cyfitter_cfg.c **** #include "cyfitter_cfg.h"
  25:Generated_Source\PSoC4/cyfitter_cfg.c **** #include "cyapicallbacks.h"
  26:Generated_Source\PSoC4/cyfitter_cfg.c **** 
  27:Generated_Source\PSoC4/cyfitter_cfg.c **** 
  28:Generated_Source\PSoC4/cyfitter_cfg.c **** #if defined(__GNUC__) || defined(__ARMCC_VERSION)
  29:Generated_Source\PSoC4/cyfitter_cfg.c ****     #define CYPACKED 
  30:Generated_Source\PSoC4/cyfitter_cfg.c ****     #define CYPACKED_ATTR __attribute__ ((packed))
  31:Generated_Source\PSoC4/cyfitter_cfg.c ****     #define CYALIGNED __attribute__ ((aligned))
  32:Generated_Source\PSoC4/cyfitter_cfg.c ****     #define CY_CFG_UNUSED __attribute__ ((unused))
  33:Generated_Source\PSoC4/cyfitter_cfg.c ****     #ifndef CY_CFG_SECTION
ARM GAS  C:\Users\Petro\AppData\Local\Temp\ccBe4H2c.s 			page 2


  34:Generated_Source\PSoC4/cyfitter_cfg.c ****         #define CY_CFG_SECTION __attribute__ ((section(".psocinit")))
  35:Generated_Source\PSoC4/cyfitter_cfg.c ****     #endif
  36:Generated_Source\PSoC4/cyfitter_cfg.c ****     
  37:Generated_Source\PSoC4/cyfitter_cfg.c ****     #if defined(__ARMCC_VERSION)
  38:Generated_Source\PSoC4/cyfitter_cfg.c ****         #define CY_CFG_MEMORY_BARRIER() __memory_changed()
  39:Generated_Source\PSoC4/cyfitter_cfg.c ****     #else
  40:Generated_Source\PSoC4/cyfitter_cfg.c ****         #define CY_CFG_MEMORY_BARRIER() __sync_synchronize()
  41:Generated_Source\PSoC4/cyfitter_cfg.c ****     #endif
  42:Generated_Source\PSoC4/cyfitter_cfg.c ****     
  43:Generated_Source\PSoC4/cyfitter_cfg.c **** #elif defined(__ICCARM__)
  44:Generated_Source\PSoC4/cyfitter_cfg.c ****     #include <intrinsics.h>
  45:Generated_Source\PSoC4/cyfitter_cfg.c **** 
  46:Generated_Source\PSoC4/cyfitter_cfg.c ****     #define CYPACKED __packed
  47:Generated_Source\PSoC4/cyfitter_cfg.c ****     #define CYPACKED_ATTR 
  48:Generated_Source\PSoC4/cyfitter_cfg.c ****     #define CYALIGNED _Pragma("data_alignment=4")
  49:Generated_Source\PSoC4/cyfitter_cfg.c ****     #define CY_CFG_UNUSED _Pragma("diag_suppress=Pe177")
  50:Generated_Source\PSoC4/cyfitter_cfg.c ****     #define CY_CFG_SECTION _Pragma("location=\".psocinit\"")
  51:Generated_Source\PSoC4/cyfitter_cfg.c ****     
  52:Generated_Source\PSoC4/cyfitter_cfg.c ****     #define CY_CFG_MEMORY_BARRIER() __DMB()
  53:Generated_Source\PSoC4/cyfitter_cfg.c ****     
  54:Generated_Source\PSoC4/cyfitter_cfg.c **** #else
  55:Generated_Source\PSoC4/cyfitter_cfg.c ****     #error Unsupported toolchain
  56:Generated_Source\PSoC4/cyfitter_cfg.c **** #endif
  57:Generated_Source\PSoC4/cyfitter_cfg.c **** 
  58:Generated_Source\PSoC4/cyfitter_cfg.c **** 
  59:Generated_Source\PSoC4/cyfitter_cfg.c **** CY_CFG_UNUSED
  60:Generated_Source\PSoC4/cyfitter_cfg.c **** static void CYMEMZERO(void *s, size_t n);
  61:Generated_Source\PSoC4/cyfitter_cfg.c **** CY_CFG_UNUSED
  62:Generated_Source\PSoC4/cyfitter_cfg.c **** static void CYMEMZERO(void *s, size_t n)
  63:Generated_Source\PSoC4/cyfitter_cfg.c **** {
  25              		.loc 1 63 0
  26              		.cfi_startproc
  27 0000 80B5     		push	{r7, lr}
  28              		.cfi_def_cfa_offset 8
  29              		.cfi_offset 7, -8
  30              		.cfi_offset 14, -4
  31 0002 82B0     		sub	sp, sp, #8
  32              		.cfi_def_cfa_offset 16
  33 0004 00AF     		add	r7, sp, #0
  34              		.cfi_def_cfa_register 7
  35 0006 7860     		str	r0, [r7, #4]
  36 0008 3960     		str	r1, [r7]
  64:Generated_Source\PSoC4/cyfitter_cfg.c **** 	(void)memset(s, 0, n);
  37              		.loc 1 64 0
  38 000a 7A68     		ldr	r2, [r7, #4]
  39 000c 3B68     		ldr	r3, [r7]
  40 000e 101C     		mov	r0, r2
  41 0010 0021     		mov	r1, #0
  42 0012 1A1C     		mov	r2, r3
  43 0014 FFF7FEFF 		bl	memset
  65:Generated_Source\PSoC4/cyfitter_cfg.c **** }
  44              		.loc 1 65 0
  45 0018 BD46     		mov	sp, r7
  46 001a 02B0     		add	sp, sp, #8
  47              		@ sp needed
  48 001c 80BD     		pop	{r7, pc}
  49              		.cfi_endproc
ARM GAS  C:\Users\Petro\AppData\Local\Temp\ccBe4H2c.s 			page 3


  50              	.LFE2:
  51              		.size	CYMEMZERO, .-CYMEMZERO
  52 001e C046     		.section	.text.CYCONFIGCPY,"ax",%progbits
  53              		.align	2
  54              		.code	16
  55              		.thumb_func
  56              		.type	CYCONFIGCPY, %function
  57              	CYCONFIGCPY:
  58              	.LFB3:
  66:Generated_Source\PSoC4/cyfitter_cfg.c **** CY_CFG_UNUSED
  67:Generated_Source\PSoC4/cyfitter_cfg.c **** static void CYCONFIGCPY(void *dest, const void *src, size_t n);
  68:Generated_Source\PSoC4/cyfitter_cfg.c **** CY_CFG_UNUSED
  69:Generated_Source\PSoC4/cyfitter_cfg.c **** static void CYCONFIGCPY(void *dest, const void *src, size_t n)
  70:Generated_Source\PSoC4/cyfitter_cfg.c **** {
  59              		.loc 1 70 0
  60              		.cfi_startproc
  61 0000 80B5     		push	{r7, lr}
  62              		.cfi_def_cfa_offset 8
  63              		.cfi_offset 7, -8
  64              		.cfi_offset 14, -4
  65 0002 84B0     		sub	sp, sp, #16
  66              		.cfi_def_cfa_offset 24
  67 0004 00AF     		add	r7, sp, #0
  68              		.cfi_def_cfa_register 7
  69 0006 F860     		str	r0, [r7, #12]
  70 0008 B960     		str	r1, [r7, #8]
  71 000a 7A60     		str	r2, [r7, #4]
  71:Generated_Source\PSoC4/cyfitter_cfg.c **** 	(void)memcpy(dest, src, n);
  72              		.loc 1 71 0
  73 000c F968     		ldr	r1, [r7, #12]
  74 000e BA68     		ldr	r2, [r7, #8]
  75 0010 7B68     		ldr	r3, [r7, #4]
  76 0012 081C     		mov	r0, r1
  77 0014 111C     		mov	r1, r2
  78 0016 1A1C     		mov	r2, r3
  79 0018 FFF7FEFF 		bl	memcpy
  72:Generated_Source\PSoC4/cyfitter_cfg.c **** }
  80              		.loc 1 72 0
  81 001c BD46     		mov	sp, r7
  82 001e 04B0     		add	sp, sp, #16
  83              		@ sp needed
  84 0020 80BD     		pop	{r7, pc}
  85              		.cfi_endproc
  86              	.LFE3:
  87              		.size	CYCONFIGCPY, .-CYCONFIGCPY
  88 0022 C046     		.section	.text.CYCONFIGCPYCODE,"ax",%progbits
  89              		.align	2
  90              		.code	16
  91              		.thumb_func
  92              		.type	CYCONFIGCPYCODE, %function
  93              	CYCONFIGCPYCODE:
  94              	.LFB4:
  73:Generated_Source\PSoC4/cyfitter_cfg.c **** CY_CFG_UNUSED
  74:Generated_Source\PSoC4/cyfitter_cfg.c **** static void CYCONFIGCPYCODE(void *dest, const void *src, size_t n);
  75:Generated_Source\PSoC4/cyfitter_cfg.c **** CY_CFG_UNUSED
  76:Generated_Source\PSoC4/cyfitter_cfg.c **** static void CYCONFIGCPYCODE(void *dest, const void *src, size_t n)
  77:Generated_Source\PSoC4/cyfitter_cfg.c **** {
ARM GAS  C:\Users\Petro\AppData\Local\Temp\ccBe4H2c.s 			page 4


  95              		.loc 1 77 0
  96              		.cfi_startproc
  97 0000 80B5     		push	{r7, lr}
  98              		.cfi_def_cfa_offset 8
  99              		.cfi_offset 7, -8
 100              		.cfi_offset 14, -4
 101 0002 84B0     		sub	sp, sp, #16
 102              		.cfi_def_cfa_offset 24
 103 0004 00AF     		add	r7, sp, #0
 104              		.cfi_def_cfa_register 7
 105 0006 F860     		str	r0, [r7, #12]
 106 0008 B960     		str	r1, [r7, #8]
 107 000a 7A60     		str	r2, [r7, #4]
  78:Generated_Source\PSoC4/cyfitter_cfg.c **** 	(void)memcpy(dest, src, n);
 108              		.loc 1 78 0
 109 000c F968     		ldr	r1, [r7, #12]
 110 000e BA68     		ldr	r2, [r7, #8]
 111 0010 7B68     		ldr	r3, [r7, #4]
 112 0012 081C     		mov	r0, r1
 113 0014 111C     		mov	r1, r2
 114 0016 1A1C     		mov	r2, r3
 115 0018 FFF7FEFF 		bl	memcpy
  79:Generated_Source\PSoC4/cyfitter_cfg.c **** }
 116              		.loc 1 79 0
 117 001c BD46     		mov	sp, r7
 118 001e 04B0     		add	sp, sp, #16
 119              		@ sp needed
 120 0020 80BD     		pop	{r7, pc}
 121              		.cfi_endproc
 122              	.LFE4:
 123              		.size	CYCONFIGCPYCODE, .-CYCONFIGCPYCODE
 124 0022 C046     		.section	.text.cfg_write_bytes32,"ax",%progbits
 125              		.align	2
 126              		.code	16
 127              		.thumb_func
 128              		.type	cfg_write_bytes32, %function
 129              	cfg_write_bytes32:
 130              	.LFB5:
  80:Generated_Source\PSoC4/cyfitter_cfg.c **** 
  81:Generated_Source\PSoC4/cyfitter_cfg.c **** 
  82:Generated_Source\PSoC4/cyfitter_cfg.c **** 
  83:Generated_Source\PSoC4/cyfitter_cfg.c **** 
  84:Generated_Source\PSoC4/cyfitter_cfg.c **** /* Clock startup error codes                                                   */
  85:Generated_Source\PSoC4/cyfitter_cfg.c **** #define CYCLOCKSTART_NO_ERROR    0u
  86:Generated_Source\PSoC4/cyfitter_cfg.c **** #define CYCLOCKSTART_XTAL_ERROR  1u
  87:Generated_Source\PSoC4/cyfitter_cfg.c **** #define CYCLOCKSTART_32KHZ_ERROR 2u
  88:Generated_Source\PSoC4/cyfitter_cfg.c **** #define CYCLOCKSTART_PLL_ERROR   3u
  89:Generated_Source\PSoC4/cyfitter_cfg.c **** 
  90:Generated_Source\PSoC4/cyfitter_cfg.c **** 
  91:Generated_Source\PSoC4/cyfitter_cfg.c **** #ifdef CY_NEED_CYCLOCKSTARTUPERROR
  92:Generated_Source\PSoC4/cyfitter_cfg.c **** /*******************************************************************************
  93:Generated_Source\PSoC4/cyfitter_cfg.c **** * Function Name: CyClockStartupError
  94:Generated_Source\PSoC4/cyfitter_cfg.c **** ********************************************************************************
  95:Generated_Source\PSoC4/cyfitter_cfg.c **** * Summary:
  96:Generated_Source\PSoC4/cyfitter_cfg.c **** *  If an error is encountered during clock configuration (crystal startup error,
  97:Generated_Source\PSoC4/cyfitter_cfg.c **** *  PLL lock error, etc.), the system will end up here.  Unless reimplemented by
  98:Generated_Source\PSoC4/cyfitter_cfg.c **** *  the customer, this function will stop in an infinite loop.
ARM GAS  C:\Users\Petro\AppData\Local\Temp\ccBe4H2c.s 			page 5


  99:Generated_Source\PSoC4/cyfitter_cfg.c **** *
 100:Generated_Source\PSoC4/cyfitter_cfg.c **** * Parameters:
 101:Generated_Source\PSoC4/cyfitter_cfg.c **** *   void
 102:Generated_Source\PSoC4/cyfitter_cfg.c **** *
 103:Generated_Source\PSoC4/cyfitter_cfg.c **** * Return:
 104:Generated_Source\PSoC4/cyfitter_cfg.c **** *   void
 105:Generated_Source\PSoC4/cyfitter_cfg.c **** *
 106:Generated_Source\PSoC4/cyfitter_cfg.c **** *******************************************************************************/
 107:Generated_Source\PSoC4/cyfitter_cfg.c **** CY_CFG_UNUSED
 108:Generated_Source\PSoC4/cyfitter_cfg.c **** static void CyClockStartupError(uint8 errorCode);
 109:Generated_Source\PSoC4/cyfitter_cfg.c **** CY_CFG_UNUSED
 110:Generated_Source\PSoC4/cyfitter_cfg.c **** static void CyClockStartupError(uint8 errorCode)
 111:Generated_Source\PSoC4/cyfitter_cfg.c **** {
 112:Generated_Source\PSoC4/cyfitter_cfg.c ****     /* To remove the compiler warning if errorCode not used.                */
 113:Generated_Source\PSoC4/cyfitter_cfg.c ****     errorCode = errorCode;
 114:Generated_Source\PSoC4/cyfitter_cfg.c **** 
 115:Generated_Source\PSoC4/cyfitter_cfg.c ****     /* If we have a clock startup error (bad MHz crystal, PLL lock, etc.),  */
 116:Generated_Source\PSoC4/cyfitter_cfg.c ****     /* we will end up here to allow the customer to implement something to  */
 117:Generated_Source\PSoC4/cyfitter_cfg.c ****     /* deal with the clock condition.                                       */
 118:Generated_Source\PSoC4/cyfitter_cfg.c **** 
 119:Generated_Source\PSoC4/cyfitter_cfg.c **** #ifdef CY_CFG_CLOCK_STARTUP_ERROR_CALLBACK
 120:Generated_Source\PSoC4/cyfitter_cfg.c **** 	CY_CFG_Clock_Startup_ErrorCallback();
 121:Generated_Source\PSoC4/cyfitter_cfg.c **** #else
 122:Generated_Source\PSoC4/cyfitter_cfg.c **** 	/*  If not using CY_CFG_CLOCK_STARTUP_ERROR_CALLBACK, place your clock startup code here. */
 123:Generated_Source\PSoC4/cyfitter_cfg.c ****     /* `#START CyClockStartupError` */
 124:Generated_Source\PSoC4/cyfitter_cfg.c **** 
 125:Generated_Source\PSoC4/cyfitter_cfg.c ****     /* If we have a clock startup error (bad MHz crystal, PLL lock, etc.),  */
 126:Generated_Source\PSoC4/cyfitter_cfg.c ****     /* we will end up here to allow the customer to implement something to  */
 127:Generated_Source\PSoC4/cyfitter_cfg.c ****     /* deal with the clock condition.                                       */
 128:Generated_Source\PSoC4/cyfitter_cfg.c **** 
 129:Generated_Source\PSoC4/cyfitter_cfg.c ****     /* `#END` */
 130:Generated_Source\PSoC4/cyfitter_cfg.c **** 
 131:Generated_Source\PSoC4/cyfitter_cfg.c ****     /* If nothing else, stop here since the clocks have not started         */
 132:Generated_Source\PSoC4/cyfitter_cfg.c ****     /* correctly.                                                           */
 133:Generated_Source\PSoC4/cyfitter_cfg.c ****     while(1) {}
 134:Generated_Source\PSoC4/cyfitter_cfg.c **** #endif /* CY_CFG_CLOCK_STARTUP_ERROR_CALLBACK */ 
 135:Generated_Source\PSoC4/cyfitter_cfg.c **** }
 136:Generated_Source\PSoC4/cyfitter_cfg.c **** #endif
 137:Generated_Source\PSoC4/cyfitter_cfg.c **** 
 138:Generated_Source\PSoC4/cyfitter_cfg.c **** #define CY_CFG_BASE_ADDR_COUNT 4u
 139:Generated_Source\PSoC4/cyfitter_cfg.c **** CYPACKED typedef struct
 140:Generated_Source\PSoC4/cyfitter_cfg.c **** {
 141:Generated_Source\PSoC4/cyfitter_cfg.c **** 	uint8 offset;
 142:Generated_Source\PSoC4/cyfitter_cfg.c **** 	uint8 value;
 143:Generated_Source\PSoC4/cyfitter_cfg.c **** } CYPACKED_ATTR cy_cfg_addrvalue_t;
 144:Generated_Source\PSoC4/cyfitter_cfg.c **** 
 145:Generated_Source\PSoC4/cyfitter_cfg.c **** 
 146:Generated_Source\PSoC4/cyfitter_cfg.c **** 
 147:Generated_Source\PSoC4/cyfitter_cfg.c **** /*******************************************************************************
 148:Generated_Source\PSoC4/cyfitter_cfg.c **** * Function Name: cfg_write_bytes32
 149:Generated_Source\PSoC4/cyfitter_cfg.c **** ********************************************************************************
 150:Generated_Source\PSoC4/cyfitter_cfg.c **** * Summary:
 151:Generated_Source\PSoC4/cyfitter_cfg.c **** *  This function is used for setting up the chip configuration areas that
 152:Generated_Source\PSoC4/cyfitter_cfg.c **** *  contain relatively sparse data.
 153:Generated_Source\PSoC4/cyfitter_cfg.c **** *
 154:Generated_Source\PSoC4/cyfitter_cfg.c **** * Parameters:
 155:Generated_Source\PSoC4/cyfitter_cfg.c **** *   void
ARM GAS  C:\Users\Petro\AppData\Local\Temp\ccBe4H2c.s 			page 6


 156:Generated_Source\PSoC4/cyfitter_cfg.c **** *
 157:Generated_Source\PSoC4/cyfitter_cfg.c **** * Return:
 158:Generated_Source\PSoC4/cyfitter_cfg.c **** *   void
 159:Generated_Source\PSoC4/cyfitter_cfg.c **** *
 160:Generated_Source\PSoC4/cyfitter_cfg.c **** *******************************************************************************/
 161:Generated_Source\PSoC4/cyfitter_cfg.c **** static void cfg_write_bytes32(const uint32 addr_table[], const cy_cfg_addrvalue_t data_table[]);
 162:Generated_Source\PSoC4/cyfitter_cfg.c **** static void cfg_write_bytes32(const uint32 addr_table[], const cy_cfg_addrvalue_t data_table[])
 163:Generated_Source\PSoC4/cyfitter_cfg.c **** {
 131              		.loc 1 163 0
 132              		.cfi_startproc
 133 0000 80B5     		push	{r7, lr}
 134              		.cfi_def_cfa_offset 8
 135              		.cfi_offset 7, -8
 136              		.cfi_offset 14, -4
 137 0002 86B0     		sub	sp, sp, #24
 138              		.cfi_def_cfa_offset 32
 139 0004 00AF     		add	r7, sp, #0
 140              		.cfi_def_cfa_register 7
 141 0006 7860     		str	r0, [r7, #4]
 142 0008 3960     		str	r1, [r7]
 164:Generated_Source\PSoC4/cyfitter_cfg.c **** 	/* For 32-bit little-endian architectures */
 165:Generated_Source\PSoC4/cyfitter_cfg.c **** 	uint32 i, j = 0u;
 143              		.loc 1 165 0
 144 000a 0023     		mov	r3, #0
 145 000c 3B61     		str	r3, [r7, #16]
 166:Generated_Source\PSoC4/cyfitter_cfg.c **** 	for (i = 0u; i < CY_CFG_BASE_ADDR_COUNT; i++)
 146              		.loc 1 166 0
 147 000e 0023     		mov	r3, #0
 148 0010 7B61     		str	r3, [r7, #20]
 149 0012 2FE0     		b	.L5
 150              	.L8:
 151              	.LBB2:
 167:Generated_Source\PSoC4/cyfitter_cfg.c **** 	{
 168:Generated_Source\PSoC4/cyfitter_cfg.c **** 		uint32 baseAddr = addr_table[i];
 152              		.loc 1 168 0
 153 0014 7B69     		ldr	r3, [r7, #20]
 154 0016 9B00     		lsl	r3, r3, #2
 155 0018 7A68     		ldr	r2, [r7, #4]
 156 001a D318     		add	r3, r2, r3
 157 001c 1B68     		ldr	r3, [r3]
 158 001e BB60     		str	r3, [r7, #8]
 169:Generated_Source\PSoC4/cyfitter_cfg.c **** 		uint8 count = (uint8)baseAddr;
 159              		.loc 1 169 0
 160 0020 0F23     		mov	r3, #15
 161 0022 FB18     		add	r3, r7, r3
 162 0024 BA68     		ldr	r2, [r7, #8]
 163 0026 1A70     		strb	r2, [r3]
 170:Generated_Source\PSoC4/cyfitter_cfg.c **** 		baseAddr &= 0xFFFFFF00u;
 164              		.loc 1 170 0
 165 0028 BB68     		ldr	r3, [r7, #8]
 166 002a FF22     		mov	r2, #255
 167 002c 9343     		bic	r3, r2
 168 002e BB60     		str	r3, [r7, #8]
 171:Generated_Source\PSoC4/cyfitter_cfg.c **** 		while (count != 0u)
 169              		.loc 1 171 0
 170 0030 18E0     		b	.L6
 171              	.L7:
ARM GAS  C:\Users\Petro\AppData\Local\Temp\ccBe4H2c.s 			page 7


 172:Generated_Source\PSoC4/cyfitter_cfg.c **** 		{
 173:Generated_Source\PSoC4/cyfitter_cfg.c **** 			CY_SET_XTND_REG8((void CYFAR *)(baseAddr + data_table[j].offset), data_table[j].value);
 172              		.loc 1 173 0
 173 0032 3B69     		ldr	r3, [r7, #16]
 174 0034 5B00     		lsl	r3, r3, #1
 175 0036 3A68     		ldr	r2, [r7]
 176 0038 D318     		add	r3, r2, r3
 177 003a 1B78     		ldrb	r3, [r3]
 178 003c 1A1C     		mov	r2, r3
 179 003e BB68     		ldr	r3, [r7, #8]
 180 0040 D318     		add	r3, r2, r3
 181 0042 191C     		mov	r1, r3
 182 0044 3B69     		ldr	r3, [r7, #16]
 183 0046 5B00     		lsl	r3, r3, #1
 184 0048 3A68     		ldr	r2, [r7]
 185 004a D318     		add	r3, r2, r3
 186 004c 5B78     		ldrb	r3, [r3, #1]
 187 004e 0B70     		strb	r3, [r1]
 174:Generated_Source\PSoC4/cyfitter_cfg.c **** 			j++;
 188              		.loc 1 174 0
 189 0050 3B69     		ldr	r3, [r7, #16]
 190 0052 0133     		add	r3, r3, #1
 191 0054 3B61     		str	r3, [r7, #16]
 175:Generated_Source\PSoC4/cyfitter_cfg.c **** 			count--;
 192              		.loc 1 175 0
 193 0056 0F23     		mov	r3, #15
 194 0058 FB18     		add	r3, r7, r3
 195 005a 1A78     		ldrb	r2, [r3]
 196 005c 0F23     		mov	r3, #15
 197 005e FB18     		add	r3, r7, r3
 198 0060 013A     		sub	r2, r2, #1
 199 0062 1A70     		strb	r2, [r3]
 200              	.L6:
 171:Generated_Source\PSoC4/cyfitter_cfg.c **** 		{
 201              		.loc 1 171 0
 202 0064 0F23     		mov	r3, #15
 203 0066 FB18     		add	r3, r7, r3
 204 0068 1B78     		ldrb	r3, [r3]
 205 006a 002B     		cmp	r3, #0
 206 006c E1D1     		bne	.L7
 207              	.LBE2:
 166:Generated_Source\PSoC4/cyfitter_cfg.c **** 	{
 208              		.loc 1 166 0 discriminator 2
 209 006e 7B69     		ldr	r3, [r7, #20]
 210 0070 0133     		add	r3, r3, #1
 211 0072 7B61     		str	r3, [r7, #20]
 212              	.L5:
 166:Generated_Source\PSoC4/cyfitter_cfg.c **** 	{
 213              		.loc 1 166 0 is_stmt 0 discriminator 1
 214 0074 7B69     		ldr	r3, [r7, #20]
 215 0076 032B     		cmp	r3, #3
 216 0078 CCD9     		bls	.L8
 176:Generated_Source\PSoC4/cyfitter_cfg.c **** 		}
 177:Generated_Source\PSoC4/cyfitter_cfg.c **** 	}
 178:Generated_Source\PSoC4/cyfitter_cfg.c **** }
 217              		.loc 1 178 0 is_stmt 1
 218 007a BD46     		mov	sp, r7
ARM GAS  C:\Users\Petro\AppData\Local\Temp\ccBe4H2c.s 			page 8


 219 007c 06B0     		add	sp, sp, #24
 220              		@ sp needed
 221 007e 80BD     		pop	{r7, pc}
 222              		.cfi_endproc
 223              	.LFE5:
 224              		.size	cfg_write_bytes32, .-cfg_write_bytes32
 225              		.section	.psocinit,"ax",%progbits
 226              		.align	2
 227              		.code	16
 228              		.thumb_func
 229              		.type	ClockSetup, %function
 230              	ClockSetup:
 231              	.LFB6:
 179:Generated_Source\PSoC4/cyfitter_cfg.c **** 
 180:Generated_Source\PSoC4/cyfitter_cfg.c **** 
 181:Generated_Source\PSoC4/cyfitter_cfg.c **** /*******************************************************************************
 182:Generated_Source\PSoC4/cyfitter_cfg.c **** * Function Name: ClockSetup
 183:Generated_Source\PSoC4/cyfitter_cfg.c **** ********************************************************************************
 184:Generated_Source\PSoC4/cyfitter_cfg.c **** *
 185:Generated_Source\PSoC4/cyfitter_cfg.c **** * Summary:
 186:Generated_Source\PSoC4/cyfitter_cfg.c **** *   Performs the initialization of all of the clocks in the device based on the
 187:Generated_Source\PSoC4/cyfitter_cfg.c **** *   settings in the Clock tab of the DWR.  This includes enabling the requested
 188:Generated_Source\PSoC4/cyfitter_cfg.c **** *   clocks and setting the necessary dividers to produce the desired frequency. 
 189:Generated_Source\PSoC4/cyfitter_cfg.c **** *
 190:Generated_Source\PSoC4/cyfitter_cfg.c **** * Parameters:
 191:Generated_Source\PSoC4/cyfitter_cfg.c **** *   void
 192:Generated_Source\PSoC4/cyfitter_cfg.c **** *
 193:Generated_Source\PSoC4/cyfitter_cfg.c **** * Return:
 194:Generated_Source\PSoC4/cyfitter_cfg.c **** *   void
 195:Generated_Source\PSoC4/cyfitter_cfg.c **** *
 196:Generated_Source\PSoC4/cyfitter_cfg.c **** *******************************************************************************/
 197:Generated_Source\PSoC4/cyfitter_cfg.c **** static void ClockSetup(void);
 198:Generated_Source\PSoC4/cyfitter_cfg.c **** CY_CFG_SECTION
 199:Generated_Source\PSoC4/cyfitter_cfg.c **** static void ClockSetup(void)
 200:Generated_Source\PSoC4/cyfitter_cfg.c **** {
 232              		.loc 1 200 0
 233              		.cfi_startproc
 234 0000 80B5     		push	{r7, lr}
 235              		.cfi_def_cfa_offset 8
 236              		.cfi_offset 7, -8
 237              		.cfi_offset 14, -4
 238 0002 00AF     		add	r7, sp, #0
 239              		.cfi_def_cfa_register 7
 201:Generated_Source\PSoC4/cyfitter_cfg.c **** 
 202:Generated_Source\PSoC4/cyfitter_cfg.c **** 	/* Set Flash Cycles based on max possible frequency in case a glitch occurs during ClockSetup(). *
 203:Generated_Source\PSoC4/cyfitter_cfg.c **** 	CY_SET_REG32((void CYXDATA *)(CYREG_CPUSS_FLASH_CTL), (0x0012u));
 240              		.loc 1 203 0
 241 0004 404B     		ldr	r3, .L11
 242 0006 1222     		mov	r2, #18
 243 0008 1A60     		str	r2, [r3]
 204:Generated_Source\PSoC4/cyfitter_cfg.c **** 
 205:Generated_Source\PSoC4/cyfitter_cfg.c **** 	/* Start the WCO */
 206:Generated_Source\PSoC4/cyfitter_cfg.c **** 	CySysClkWcoStart();
 244              		.loc 1 206 0
 245 000a FFF7FEFF 		bl	CySysClkWcoStart
 207:Generated_Source\PSoC4/cyfitter_cfg.c **** 	CyDelayCycles(12000000u); /* WCO may take up to 500ms to start */
 246              		.loc 1 207 0
ARM GAS  C:\Users\Petro\AppData\Local\Temp\ccBe4H2c.s 			page 9


 247 000e 3F4B     		ldr	r3, .L11+4
 248 0010 181C     		mov	r0, r3
 249 0012 FFF7FEFF 		bl	CyDelayCycles
 208:Generated_Source\PSoC4/cyfitter_cfg.c **** 	(void)CySysClkWcoSetPowerMode(CY_SYS_CLK_WCO_LPM);    /* Switch to the low power mode */
 250              		.loc 1 208 0
 251 0016 0120     		mov	r0, #1
 252 0018 FFF7FEFF 		bl	CySysClkWcoSetPowerMode
 209:Generated_Source\PSoC4/cyfitter_cfg.c **** 
 210:Generated_Source\PSoC4/cyfitter_cfg.c **** 	/* Setup and trim IMO based on desired frequency. */
 211:Generated_Source\PSoC4/cyfitter_cfg.c **** 	CySysClkWriteImoFreq(48u);
 253              		.loc 1 211 0
 254 001c 3020     		mov	r0, #48
 255 001e FFF7FEFF 		bl	CySysClkWriteImoFreq
 212:Generated_Source\PSoC4/cyfitter_cfg.c **** 	/* CYDEV_WDT_CONFIG Starting address: CYDEV_WDT_CONFIG */
 213:Generated_Source\PSoC4/cyfitter_cfg.c **** 	CY_SET_XTND_REG32((void CYFAR *)(CYREG_WDT_CONFIG), 0x40000000u);
 256              		.loc 1 213 0
 257 0022 3B4B     		ldr	r3, .L11+8
 258 0024 8022     		mov	r2, #128
 259 0026 D205     		lsl	r2, r2, #23
 260 0028 1A60     		str	r2, [r3]
 214:Generated_Source\PSoC4/cyfitter_cfg.c **** 
 215:Generated_Source\PSoC4/cyfitter_cfg.c **** 
 216:Generated_Source\PSoC4/cyfitter_cfg.c **** 	/* Enable fast start mode for XO */
 217:Generated_Source\PSoC4/cyfitter_cfg.c **** 	CY_SET_REG32((void*)CYREG_BLE_BLERD_BB_XO, CY_GET_REG32((void*)CYREG_BLE_BLERD_BB_XO) | (uint32)0x
 261              		.loc 1 217 0
 262 002a 3A4B     		ldr	r3, .L11+12
 263 002c 394A     		ldr	r2, .L11+12
 264 002e 1268     		ldr	r2, [r2]
 265 0030 0221     		mov	r1, #2
 266 0032 0A43     		orr	r2, r1
 267 0034 1A60     		str	r2, [r3]
 218:Generated_Source\PSoC4/cyfitter_cfg.c **** 	CY_SET_XTND_REG32((void CYFAR *)(CYREG_BLE_BLERD_BB_XO_CAPTRIM), 0x00003E2Du);
 268              		.loc 1 218 0
 269 0036 384B     		ldr	r3, .L11+16
 270 0038 384A     		ldr	r2, .L11+20
 271 003a 1A60     		str	r2, [r3]
 219:Generated_Source\PSoC4/cyfitter_cfg.c **** 	/*Set XTAL(ECO) divider*/
 220:Generated_Source\PSoC4/cyfitter_cfg.c **** 	CY_SET_XTND_REG32((void CYFAR *)(CYREG_BLE_BLESS_XTAL_CLK_DIV_CONFIG), 0x00000000u);
 272              		.loc 1 220 0
 273 003c 384B     		ldr	r3, .L11+24
 274 003e 0022     		mov	r2, #0
 275 0040 1A60     		str	r2, [r3]
 221:Generated_Source\PSoC4/cyfitter_cfg.c **** 	/* Disable Crystal Stable Interrupt before enabling ECO */
 222:Generated_Source\PSoC4/cyfitter_cfg.c **** 	CY_SET_REG32((void*)CYREG_BLE_BLESS_LL_DSM_CTRL, CY_GET_REG32((void*)CYREG_BLE_BLESS_LL_DSM_CTRL) 
 276              		.loc 1 222 0
 277 0042 384B     		ldr	r3, .L11+28
 278 0044 374A     		ldr	r2, .L11+28
 279 0046 1268     		ldr	r2, [r2]
 280 0048 0821     		mov	r1, #8
 281 004a 8A43     		bic	r2, r1
 282 004c 1A60     		str	r2, [r3]
 223:Generated_Source\PSoC4/cyfitter_cfg.c **** 	/* Start the ECO and do not check status since it is not needed for HFCLK */
 224:Generated_Source\PSoC4/cyfitter_cfg.c **** 	(void)CySysClkEcoStart(2000u);
 283              		.loc 1 224 0
 284 004e FA23     		mov	r3, #250
 285 0050 DB00     		lsl	r3, r3, #3
 286 0052 181C     		mov	r0, r3
ARM GAS  C:\Users\Petro\AppData\Local\Temp\ccBe4H2c.s 			page 10


 287 0054 FFF7FEFF 		bl	CySysClkEcoStart
 225:Generated_Source\PSoC4/cyfitter_cfg.c **** 	CyDelayUs(1500u); /* Wait to stabalize */
 288              		.loc 1 225 0
 289 0058 334B     		ldr	r3, .L11+32
 290 005a 181C     		mov	r0, r3
 291 005c FFF7FEFF 		bl	CyDelayUs
 226:Generated_Source\PSoC4/cyfitter_cfg.c **** 
 227:Generated_Source\PSoC4/cyfitter_cfg.c **** 	/* Setup phase aligned clocks */
 228:Generated_Source\PSoC4/cyfitter_cfg.c **** 	CY_SET_REG32((void *)CYREG_PERI_DIV_16_CTL2, 0x0005B800u);
 292              		.loc 1 228 0
 293 0060 324B     		ldr	r3, .L11+36
 294 0062 B722     		mov	r2, #183
 295 0064 D202     		lsl	r2, r2, #11
 296 0066 1A60     		str	r2, [r3]
 229:Generated_Source\PSoC4/cyfitter_cfg.c **** 	CY_SET_REG32((void *)CYREG_PERI_DIV_CMD, 0x8000FF42u);
 297              		.loc 1 229 0
 298 0068 314B     		ldr	r3, .L11+40
 299 006a 324A     		ldr	r2, .L11+44
 300 006c 1A60     		str	r2, [r3]
 230:Generated_Source\PSoC4/cyfitter_cfg.c **** 	CY_SET_REG32((void *)CYREG_PERI_DIV_16_CTL4, 0x00BB7F00u);
 301              		.loc 1 230 0
 302 006e 324B     		ldr	r3, .L11+48
 303 0070 324A     		ldr	r2, .L11+52
 304 0072 1A60     		str	r2, [r3]
 231:Generated_Source\PSoC4/cyfitter_cfg.c **** 	CY_SET_REG32((void *)CYREG_PERI_DIV_CMD, 0x8000FF44u);
 305              		.loc 1 231 0
 306 0074 2E4B     		ldr	r3, .L11+40
 307 0076 324A     		ldr	r2, .L11+56
 308 0078 1A60     		str	r2, [r3]
 232:Generated_Source\PSoC4/cyfitter_cfg.c **** 	CY_SET_REG32((void *)CYREG_PERI_DIV_16_CTL3, 0x00BB7F00u);
 309              		.loc 1 232 0
 310 007a 324B     		ldr	r3, .L11+60
 311 007c 2F4A     		ldr	r2, .L11+52
 312 007e 1A60     		str	r2, [r3]
 233:Generated_Source\PSoC4/cyfitter_cfg.c **** 	CY_SET_REG32((void *)CYREG_PERI_DIV_CMD, 0x8000FF43u);
 313              		.loc 1 233 0
 314 0080 2B4B     		ldr	r3, .L11+40
 315 0082 314A     		ldr	r2, .L11+64
 316 0084 1A60     		str	r2, [r3]
 234:Generated_Source\PSoC4/cyfitter_cfg.c **** 	CY_SET_REG32((void *)CYREG_PERI_DIV_16_CTL0, 0x00000F00u);
 317              		.loc 1 234 0
 318 0086 314B     		ldr	r3, .L11+68
 319 0088 F022     		mov	r2, #240
 320 008a 1201     		lsl	r2, r2, #4
 321 008c 1A60     		str	r2, [r3]
 235:Generated_Source\PSoC4/cyfitter_cfg.c **** 	CY_SET_REG32((void *)CYREG_PERI_DIV_CMD, 0x8000FF40u);
 322              		.loc 1 235 0
 323 008e 284B     		ldr	r3, .L11+40
 324 0090 2F4A     		ldr	r2, .L11+72
 325 0092 1A60     		str	r2, [r3]
 236:Generated_Source\PSoC4/cyfitter_cfg.c **** 	CY_SET_REG32((void *)CYREG_PERI_DIV_16_CTL1, 0x0001A000u);
 326              		.loc 1 236 0
 327 0094 2F4B     		ldr	r3, .L11+76
 328 0096 D022     		mov	r2, #208
 329 0098 5202     		lsl	r2, r2, #9
 330 009a 1A60     		str	r2, [r3]
 237:Generated_Source\PSoC4/cyfitter_cfg.c **** 	CY_SET_REG32((void *)CYREG_PERI_DIV_CMD, 0x8000FF41u);
ARM GAS  C:\Users\Petro\AppData\Local\Temp\ccBe4H2c.s 			page 11


 331              		.loc 1 237 0
 332 009c 244B     		ldr	r3, .L11+40
 333 009e 2E4A     		ldr	r2, .L11+80
 334 00a0 1A60     		str	r2, [r3]
 238:Generated_Source\PSoC4/cyfitter_cfg.c **** 
 239:Generated_Source\PSoC4/cyfitter_cfg.c **** 	/* CYDEV_CLK_IMO_CONFIG Starting address: CYDEV_CLK_IMO_CONFIG */
 240:Generated_Source\PSoC4/cyfitter_cfg.c **** 	CY_SET_XTND_REG32((void CYFAR *)(CYREG_CLK_IMO_CONFIG), 0x82000000u);
 335              		.loc 1 240 0
 336 00a2 2E4B     		ldr	r3, .L11+84
 337 00a4 8222     		mov	r2, #130
 338 00a6 1206     		lsl	r2, r2, #24
 339 00a8 1A60     		str	r2, [r3]
 241:Generated_Source\PSoC4/cyfitter_cfg.c **** 
 242:Generated_Source\PSoC4/cyfitter_cfg.c **** 	/* CYDEV_CLK_SELECT Starting address: CYDEV_CLK_SELECT */
 243:Generated_Source\PSoC4/cyfitter_cfg.c **** 	CY_SET_XTND_REG32((void CYFAR *)(CYREG_CLK_SELECT), 0x00040000u);
 340              		.loc 1 243 0
 341 00aa 2D4B     		ldr	r3, .L11+88
 342 00ac 8022     		mov	r2, #128
 343 00ae D202     		lsl	r2, r2, #11
 344 00b0 1A60     		str	r2, [r3]
 244:Generated_Source\PSoC4/cyfitter_cfg.c **** 
 245:Generated_Source\PSoC4/cyfitter_cfg.c **** 	/* CYDEV_PERI_PCLK_CTL9 Starting address: CYDEV_PERI_PCLK_CTL9 */
 246:Generated_Source\PSoC4/cyfitter_cfg.c **** 	CY_SET_XTND_REG32((void CYFAR *)(CYREG_PERI_PCLK_CTL9), 0x00000042u);
 345              		.loc 1 246 0
 346 00b2 2C4B     		ldr	r3, .L11+92
 347 00b4 4222     		mov	r2, #66
 348 00b6 1A60     		str	r2, [r3]
 247:Generated_Source\PSoC4/cyfitter_cfg.c **** 
 248:Generated_Source\PSoC4/cyfitter_cfg.c **** 	/* CYDEV_PERI_PCLK_CTL8 Starting address: CYDEV_PERI_PCLK_CTL8 */
 249:Generated_Source\PSoC4/cyfitter_cfg.c **** 	CY_SET_XTND_REG32((void CYFAR *)(CYREG_PERI_PCLK_CTL8), 0x00000044u);
 349              		.loc 1 249 0
 350 00b8 2B4B     		ldr	r3, .L11+96
 351 00ba 4422     		mov	r2, #68
 352 00bc 1A60     		str	r2, [r3]
 250:Generated_Source\PSoC4/cyfitter_cfg.c **** 
 251:Generated_Source\PSoC4/cyfitter_cfg.c **** 	/* CYDEV_PERI_PCLK_CTL7 Starting address: CYDEV_PERI_PCLK_CTL7 */
 252:Generated_Source\PSoC4/cyfitter_cfg.c **** 	CY_SET_XTND_REG32((void CYFAR *)(CYREG_PERI_PCLK_CTL7), 0x00000043u);
 353              		.loc 1 252 0
 354 00be 2B4B     		ldr	r3, .L11+100
 355 00c0 4322     		mov	r2, #67
 356 00c2 1A60     		str	r2, [r3]
 253:Generated_Source\PSoC4/cyfitter_cfg.c **** 
 254:Generated_Source\PSoC4/cyfitter_cfg.c **** 	/* CYDEV_PERI_PCLK_CTL6 Starting address: CYDEV_PERI_PCLK_CTL6 */
 255:Generated_Source\PSoC4/cyfitter_cfg.c **** 	CY_SET_XTND_REG32((void CYFAR *)(CYREG_PERI_PCLK_CTL6), 0x00000040u);
 357              		.loc 1 255 0
 358 00c4 2A4B     		ldr	r3, .L11+104
 359 00c6 4022     		mov	r2, #64
 360 00c8 1A60     		str	r2, [r3]
 256:Generated_Source\PSoC4/cyfitter_cfg.c **** 
 257:Generated_Source\PSoC4/cyfitter_cfg.c **** 	/* CYDEV_PERI_PCLK_CTL1 Starting address: CYDEV_PERI_PCLK_CTL1 */
 258:Generated_Source\PSoC4/cyfitter_cfg.c **** 	CY_SET_XTND_REG32((void CYFAR *)(CYREG_PERI_PCLK_CTL1), 0x00000041u);
 361              		.loc 1 258 0
 362 00ca 2A4B     		ldr	r3, .L11+108
 363 00cc 4122     		mov	r2, #65
 364 00ce 1A60     		str	r2, [r3]
 259:Generated_Source\PSoC4/cyfitter_cfg.c **** 
 260:Generated_Source\PSoC4/cyfitter_cfg.c **** 	(void)CyIntSetVector(8u, &CySysWdtIsr);
ARM GAS  C:\Users\Petro\AppData\Local\Temp\ccBe4H2c.s 			page 12


 365              		.loc 1 260 0
 366 00d0 294B     		ldr	r3, .L11+112
 367 00d2 0820     		mov	r0, #8
 368 00d4 191C     		mov	r1, r3
 369 00d6 FFF7FEFF 		bl	CyIntSetVector
 261:Generated_Source\PSoC4/cyfitter_cfg.c **** 	CyIntEnable(8u);
 370              		.loc 1 261 0
 371 00da 0820     		mov	r0, #8
 372 00dc FFF7FEFF 		bl	CyIntEnable
 262:Generated_Source\PSoC4/cyfitter_cfg.c **** 	CY_SET_XTND_REG32((void CYFAR *)(CYREG_WDT_MATCH), 0x00000020u);
 373              		.loc 1 262 0
 374 00e0 264B     		ldr	r3, .L11+116
 375 00e2 2022     		mov	r2, #32
 376 00e4 1A60     		str	r2, [r3]
 263:Generated_Source\PSoC4/cyfitter_cfg.c **** 	CY_SET_XTND_REG32((void CYFAR *)(CYREG_WDT_CONFIG), 0x40000005u);
 377              		.loc 1 263 0
 378 00e6 0A4B     		ldr	r3, .L11+8
 379 00e8 254A     		ldr	r2, .L11+120
 380 00ea 1A60     		str	r2, [r3]
 264:Generated_Source\PSoC4/cyfitter_cfg.c **** 	CY_SET_XTND_REG32((void CYFAR *)(CYREG_WDT_CONTROL), 0x00000008u);
 381              		.loc 1 264 0
 382 00ec 254B     		ldr	r3, .L11+124
 383 00ee 0822     		mov	r2, #8
 384 00f0 1A60     		str	r2, [r3]
 265:Generated_Source\PSoC4/cyfitter_cfg.c **** 	while ((CY_GET_XTND_REG32((void CYFAR *)(CYREG_WDT_CONTROL)) & 0x00000008u) != 0u) { }
 385              		.loc 1 265 0
 386 00f2 C046     		mov	r8, r8
 387              	.L10:
 388              		.loc 1 265 0 is_stmt 0 discriminator 1
 389 00f4 234B     		ldr	r3, .L11+124
 390 00f6 1B68     		ldr	r3, [r3]
 391 00f8 0822     		mov	r2, #8
 392 00fa 1340     		and	r3, r2
 393 00fc FAD1     		bne	.L10
 266:Generated_Source\PSoC4/cyfitter_cfg.c **** 	CY_SET_XTND_REG32((void CYFAR *)(CYREG_WDT_CONTROL), 0x00000001u);
 394              		.loc 1 266 0 is_stmt 1
 395 00fe 214B     		ldr	r3, .L11+124
 396 0100 0122     		mov	r2, #1
 397 0102 1A60     		str	r2, [r3]
 267:Generated_Source\PSoC4/cyfitter_cfg.c **** }
 398              		.loc 1 267 0
 399 0104 BD46     		mov	sp, r7
 400              		@ sp needed
 401 0106 80BD     		pop	{r7, pc}
 402              	.L12:
 403              		.align	2
 404              	.L11:
 405 0108 30001040 		.word	1074790448
 406 010c 001BB700 		.word	12000000
 407 0110 0C020B40 		.word	1074463244
 408 0114 78002E40 		.word	1076756600
 409 0118 7C002E40 		.word	1076756604
 410 011c 2D3E0000 		.word	15917
 411 0120 64F02E40 		.word	1076818020
 412 0124 6CF02E40 		.word	1076818028
 413 0128 DC050000 		.word	1500
 414 012c 08030140 		.word	1073808136
ARM GAS  C:\Users\Petro\AppData\Local\Temp\ccBe4H2c.s 			page 13


 415 0130 00000140 		.word	1073807360
 416 0134 42FF0080 		.word	-2147418302
 417 0138 10030140 		.word	1073808144
 418 013c 007FBB00 		.word	12287744
 419 0140 44FF0080 		.word	-2147418300
 420 0144 0C030140 		.word	1073808140
 421 0148 43FF0080 		.word	-2147418301
 422 014c 00030140 		.word	1073808128
 423 0150 40FF0080 		.word	-2147418304
 424 0154 04030140 		.word	1073808132
 425 0158 41FF0080 		.word	-2147418303
 426 015c 08010B40 		.word	1074462984
 427 0160 00010B40 		.word	1074462976
 428 0164 24010140 		.word	1073807652
 429 0168 20010140 		.word	1073807648
 430 016c 1C010140 		.word	1073807644
 431 0170 18010140 		.word	1073807640
 432 0174 04010140 		.word	1073807620
 433 0178 00000000 		.word	CySysWdtIsr
 434 017c 08020B40 		.word	1074463240
 435 0180 05000040 		.word	1073741829
 436 0184 10020B40 		.word	1074463248
 437              		.cfi_endproc
 438              	.LFE6:
 439              		.size	ClockSetup, .-ClockSetup
 440              		.section	.text.AnalogSetDefault,"ax",%progbits
 441              		.align	2
 442              		.code	16
 443              		.thumb_func
 444              		.type	AnalogSetDefault, %function
 445              	AnalogSetDefault:
 446              	.LFB7:
 268:Generated_Source\PSoC4/cyfitter_cfg.c **** 
 269:Generated_Source\PSoC4/cyfitter_cfg.c **** 
 270:Generated_Source\PSoC4/cyfitter_cfg.c **** /* Analog API Functions */
 271:Generated_Source\PSoC4/cyfitter_cfg.c **** 
 272:Generated_Source\PSoC4/cyfitter_cfg.c **** 
 273:Generated_Source\PSoC4/cyfitter_cfg.c **** /*******************************************************************************
 274:Generated_Source\PSoC4/cyfitter_cfg.c **** * Function Name: AnalogSetDefault
 275:Generated_Source\PSoC4/cyfitter_cfg.c **** ********************************************************************************
 276:Generated_Source\PSoC4/cyfitter_cfg.c **** *
 277:Generated_Source\PSoC4/cyfitter_cfg.c **** * Summary:
 278:Generated_Source\PSoC4/cyfitter_cfg.c **** *  Sets up the analog portions of the chip to default values based on chip
 279:Generated_Source\PSoC4/cyfitter_cfg.c **** *  configuration options from the project.
 280:Generated_Source\PSoC4/cyfitter_cfg.c **** *
 281:Generated_Source\PSoC4/cyfitter_cfg.c **** * Parameters:
 282:Generated_Source\PSoC4/cyfitter_cfg.c **** *  void
 283:Generated_Source\PSoC4/cyfitter_cfg.c **** *
 284:Generated_Source\PSoC4/cyfitter_cfg.c **** * Return:
 285:Generated_Source\PSoC4/cyfitter_cfg.c **** *  void
 286:Generated_Source\PSoC4/cyfitter_cfg.c **** *
 287:Generated_Source\PSoC4/cyfitter_cfg.c **** *******************************************************************************/
 288:Generated_Source\PSoC4/cyfitter_cfg.c **** static void AnalogSetDefault(void);
 289:Generated_Source\PSoC4/cyfitter_cfg.c **** static void AnalogSetDefault(void)
 290:Generated_Source\PSoC4/cyfitter_cfg.c **** {
 447              		.loc 1 290 0
 448              		.cfi_startproc
ARM GAS  C:\Users\Petro\AppData\Local\Temp\ccBe4H2c.s 			page 14


 449 0000 80B5     		push	{r7, lr}
 450              		.cfi_def_cfa_offset 8
 451              		.cfi_offset 7, -8
 452              		.cfi_offset 14, -4
 453 0002 00AF     		add	r7, sp, #0
 454              		.cfi_def_cfa_register 7
 291:Generated_Source\PSoC4/cyfitter_cfg.c **** 	CY_SET_XTND_REG32((void CYFAR *)CYREG_CTBM0_DFT_CTRL, 0x00000003u);
 455              		.loc 1 291 0
 456 0004 0A4B     		ldr	r3, .L14
 457 0006 0322     		mov	r2, #3
 458 0008 1A60     		str	r2, [r3]
 292:Generated_Source\PSoC4/cyfitter_cfg.c **** 	CY_SET_XTND_REG32((void CYFAR *)CYREG_CTBM1_DFT_CTRL, 0x00000003u);
 459              		.loc 1 292 0
 460 000a 0A4B     		ldr	r3, .L14+4
 461 000c 0322     		mov	r2, #3
 462 000e 1A60     		str	r2, [r3]
 293:Generated_Source\PSoC4/cyfitter_cfg.c **** 	CY_SET_XTND_REG32((void CYFAR *)CYREG_SAR_CTRL, 0x80000000u);
 463              		.loc 1 293 0
 464 0010 094B     		ldr	r3, .L14+8
 465 0012 8022     		mov	r2, #128
 466 0014 1206     		lsl	r2, r2, #24
 467 0016 1A60     		str	r2, [r3]
 294:Generated_Source\PSoC4/cyfitter_cfg.c **** 	CY_SET_XTND_REG32((void CYFAR *)CYREG_SAR_MUX_SWITCH0, 0x00000001u);
 468              		.loc 1 294 0
 469 0018 084B     		ldr	r3, .L14+12
 470 001a 0122     		mov	r2, #1
 471 001c 1A60     		str	r2, [r3]
 295:Generated_Source\PSoC4/cyfitter_cfg.c **** 	CY_SET_XTND_REG32((void CYFAR *)CYREG_PASS_DSAB_DSAB_CTRL, 0x00000000u);
 472              		.loc 1 295 0
 473 001e 084B     		ldr	r3, .L14+16
 474 0020 0022     		mov	r2, #0
 475 0022 1A60     		str	r2, [r3]
 296:Generated_Source\PSoC4/cyfitter_cfg.c **** 	SetAnalogRoutingPumps(1);
 476              		.loc 1 296 0
 477 0024 0120     		mov	r0, #1
 478 0026 FFF7FEFF 		bl	SetAnalogRoutingPumps
 297:Generated_Source\PSoC4/cyfitter_cfg.c **** }
 479              		.loc 1 297 0
 480 002a BD46     		mov	sp, r7
 481              		@ sp needed
 482 002c 80BD     		pop	{r7, pc}
 483              	.L15:
 484 002e C046     		.align	2
 485              	.L14:
 486 0030 30003040 		.word	1076887600
 487 0034 30003140 		.word	1076953136
 488 0038 00003A40 		.word	1077542912
 489 003c 00033A40 		.word	1077543680
 490 0040 000E3F40 		.word	1077874176
 491              		.cfi_endproc
 492              	.LFE7:
 493              		.size	AnalogSetDefault, .-AnalogSetDefault
 494              		.section	.text.SetAnalogRoutingPumps,"ax",%progbits
 495              		.align	2
 496              		.global	SetAnalogRoutingPumps
 497              		.code	16
 498              		.thumb_func
ARM GAS  C:\Users\Petro\AppData\Local\Temp\ccBe4H2c.s 			page 15


 499              		.type	SetAnalogRoutingPumps, %function
 500              	SetAnalogRoutingPumps:
 501              	.LFB8:
 298:Generated_Source\PSoC4/cyfitter_cfg.c **** 
 299:Generated_Source\PSoC4/cyfitter_cfg.c **** 
 300:Generated_Source\PSoC4/cyfitter_cfg.c **** /*******************************************************************************
 301:Generated_Source\PSoC4/cyfitter_cfg.c **** * Function Name: SetAnalogRoutingPumps
 302:Generated_Source\PSoC4/cyfitter_cfg.c **** ********************************************************************************
 303:Generated_Source\PSoC4/cyfitter_cfg.c **** *
 304:Generated_Source\PSoC4/cyfitter_cfg.c **** * Summary:
 305:Generated_Source\PSoC4/cyfitter_cfg.c **** * Enables or disables the analog pumps feeding analog routing switches.
 306:Generated_Source\PSoC4/cyfitter_cfg.c **** * Intended to be called at startup, based on the Vdda system configuration;
 307:Generated_Source\PSoC4/cyfitter_cfg.c **** * may be called during operation when the user informs us that the Vdda voltage crossed the pump th
 308:Generated_Source\PSoC4/cyfitter_cfg.c **** *
 309:Generated_Source\PSoC4/cyfitter_cfg.c **** * Parameters:
 310:Generated_Source\PSoC4/cyfitter_cfg.c **** *  enabled - 1 to enable the pumps, 0 to disable the pumps
 311:Generated_Source\PSoC4/cyfitter_cfg.c **** *
 312:Generated_Source\PSoC4/cyfitter_cfg.c **** * Return:
 313:Generated_Source\PSoC4/cyfitter_cfg.c **** *  void
 314:Generated_Source\PSoC4/cyfitter_cfg.c **** *
 315:Generated_Source\PSoC4/cyfitter_cfg.c **** *******************************************************************************/
 316:Generated_Source\PSoC4/cyfitter_cfg.c **** void SetAnalogRoutingPumps(uint8 enabled)
 317:Generated_Source\PSoC4/cyfitter_cfg.c **** {
 502              		.loc 1 317 0
 503              		.cfi_startproc
 504 0000 80B5     		push	{r7, lr}
 505              		.cfi_def_cfa_offset 8
 506              		.cfi_offset 7, -8
 507              		.cfi_offset 14, -4
 508 0002 84B0     		sub	sp, sp, #16
 509              		.cfi_def_cfa_offset 24
 510 0004 00AF     		add	r7, sp, #0
 511              		.cfi_def_cfa_register 7
 512 0006 021C     		mov	r2, r0
 513 0008 FB1D     		add	r3, r7, #7
 514 000a 1A70     		strb	r2, [r3]
 318:Generated_Source\PSoC4/cyfitter_cfg.c **** 	uint32 regValue = CY_GET_XTND_REG32((void *)(CYREG_SAR_PUMP_CTRL));
 515              		.loc 1 318 0
 516 000c 0B4B     		ldr	r3, .L19
 517 000e 1B68     		ldr	r3, [r3]
 518 0010 FB60     		str	r3, [r7, #12]
 319:Generated_Source\PSoC4/cyfitter_cfg.c **** 	if (enabled != 0u)
 519              		.loc 1 319 0
 520 0012 FB1D     		add	r3, r7, #7
 521 0014 1B78     		ldrb	r3, [r3]
 522 0016 002B     		cmp	r3, #0
 523 0018 05D0     		beq	.L17
 320:Generated_Source\PSoC4/cyfitter_cfg.c **** 	{
 321:Generated_Source\PSoC4/cyfitter_cfg.c **** 		regValue |= 0x80000000u;
 524              		.loc 1 321 0
 525 001a FB68     		ldr	r3, [r7, #12]
 526 001c 8022     		mov	r2, #128
 527 001e 1206     		lsl	r2, r2, #24
 528 0020 1343     		orr	r3, r2
 529 0022 FB60     		str	r3, [r7, #12]
 530 0024 03E0     		b	.L18
 531              	.L17:
ARM GAS  C:\Users\Petro\AppData\Local\Temp\ccBe4H2c.s 			page 16


 322:Generated_Source\PSoC4/cyfitter_cfg.c **** 	}
 323:Generated_Source\PSoC4/cyfitter_cfg.c **** 	else
 324:Generated_Source\PSoC4/cyfitter_cfg.c **** 	{
 325:Generated_Source\PSoC4/cyfitter_cfg.c **** 		regValue &= ~0x80000000u;
 532              		.loc 1 325 0
 533 0026 FB68     		ldr	r3, [r7, #12]
 534 0028 5B00     		lsl	r3, r3, #1
 535 002a 5B08     		lsr	r3, r3, #1
 536 002c FB60     		str	r3, [r7, #12]
 537              	.L18:
 326:Generated_Source\PSoC4/cyfitter_cfg.c **** 	}
 327:Generated_Source\PSoC4/cyfitter_cfg.c **** 	CY_SET_XTND_REG32((void *)(CYREG_SAR_PUMP_CTRL), regValue);
 538              		.loc 1 327 0
 539 002e 034B     		ldr	r3, .L19
 540 0030 FA68     		ldr	r2, [r7, #12]
 541 0032 1A60     		str	r2, [r3]
 328:Generated_Source\PSoC4/cyfitter_cfg.c **** }
 542              		.loc 1 328 0
 543 0034 BD46     		mov	sp, r7
 544 0036 04B0     		add	sp, sp, #16
 545              		@ sp needed
 546 0038 80BD     		pop	{r7, pc}
 547              	.L20:
 548 003a C046     		.align	2
 549              	.L19:
 550 003c 80033A40 		.word	1077543808
 551              		.cfi_endproc
 552              	.LFE8:
 553              		.size	SetAnalogRoutingPumps, .-SetAnalogRoutingPumps
 554              		.section	.psocinit
 555              		.align	2
 556              		.global	cyfitter_cfg
 557              		.code	16
 558              		.thumb_func
 559              		.type	cyfitter_cfg, %function
 560              	cyfitter_cfg:
 561              	.LFB9:
 329:Generated_Source\PSoC4/cyfitter_cfg.c **** 
 330:Generated_Source\PSoC4/cyfitter_cfg.c **** #define CY_AMUX_UNUSED CYREG_CM0_ROM_DWT
 331:Generated_Source\PSoC4/cyfitter_cfg.c **** 
 332:Generated_Source\PSoC4/cyfitter_cfg.c **** 
 333:Generated_Source\PSoC4/cyfitter_cfg.c **** /*******************************************************************************
 334:Generated_Source\PSoC4/cyfitter_cfg.c **** * Function Name: cyfitter_cfg
 335:Generated_Source\PSoC4/cyfitter_cfg.c **** ********************************************************************************
 336:Generated_Source\PSoC4/cyfitter_cfg.c **** * Summary:
 337:Generated_Source\PSoC4/cyfitter_cfg.c **** *  This function is called by the start-up code for the selected device. It
 338:Generated_Source\PSoC4/cyfitter_cfg.c **** *  performs all of the necessary device configuration based on the design
 339:Generated_Source\PSoC4/cyfitter_cfg.c **** *  settings.  This includes settings from the Design Wide Resources (DWR) such
 340:Generated_Source\PSoC4/cyfitter_cfg.c **** *  as Clocks and Pins as well as any component configuration that is necessary.
 341:Generated_Source\PSoC4/cyfitter_cfg.c **** *
 342:Generated_Source\PSoC4/cyfitter_cfg.c **** * Parameters:  
 343:Generated_Source\PSoC4/cyfitter_cfg.c **** *   void
 344:Generated_Source\PSoC4/cyfitter_cfg.c **** *
 345:Generated_Source\PSoC4/cyfitter_cfg.c **** * Return:
 346:Generated_Source\PSoC4/cyfitter_cfg.c **** *   void
 347:Generated_Source\PSoC4/cyfitter_cfg.c **** *
 348:Generated_Source\PSoC4/cyfitter_cfg.c **** *******************************************************************************/
ARM GAS  C:\Users\Petro\AppData\Local\Temp\ccBe4H2c.s 			page 17


 349:Generated_Source\PSoC4/cyfitter_cfg.c **** CY_CFG_SECTION
 350:Generated_Source\PSoC4/cyfitter_cfg.c **** void cyfitter_cfg(void)
 351:Generated_Source\PSoC4/cyfitter_cfg.c **** {
 562              		.loc 1 351 0
 563              		.cfi_startproc
 564 0188 80B5     		push	{r7, lr}
 565              		.cfi_def_cfa_offset 8
 566              		.cfi_offset 7, -8
 567              		.cfi_offset 14, -4
 568 018a 82B0     		sub	sp, sp, #8
 569              		.cfi_def_cfa_offset 16
 570 018c 00AF     		add	r7, sp, #0
 571              		.cfi_def_cfa_register 7
 352:Generated_Source\PSoC4/cyfitter_cfg.c **** 	/* Disable interrupts by default. Let user enable if/when they want. */
 353:Generated_Source\PSoC4/cyfitter_cfg.c **** 	CyGlobalIntDisable;
 572              		.loc 1 353 0
 573              	@ 353 "Generated_Source\PSoC4\cyfitter_cfg.c" 1
 574 018e 72B6     		CPSID   i
 575              	@ 0 "" 2
 354:Generated_Source\PSoC4/cyfitter_cfg.c **** 
 355:Generated_Source\PSoC4/cyfitter_cfg.c **** 	CY_SET_XTND_REG32((void CYFAR *)(CYREG_BLE_BLESS_LL_DSM_CTRL), 0x00000000u);
 576              		.loc 1 355 0
 577              		.code	16
 578 0190 474B     		ldr	r3, .L24
 579 0192 0022     		mov	r2, #0
 580 0194 1A60     		str	r2, [r3]
 356:Generated_Source\PSoC4/cyfitter_cfg.c **** 
 357:Generated_Source\PSoC4/cyfitter_cfg.c **** 	/* Enable the clock in the interrupt controller for the routed interrupts */
 358:Generated_Source\PSoC4/cyfitter_cfg.c **** 	CY_SET_REG8((void *)CYREG_UDB_UDBIF_INT_CLK_CTL, 0x01u);
 581              		.loc 1 358 0
 582 0196 474B     		ldr	r3, .L24+4
 583 0198 0122     		mov	r2, #1
 584 019a 1A70     		strb	r2, [r3]
 585              	.LBB3:
 359:Generated_Source\PSoC4/cyfitter_cfg.c **** 	{
 360:Generated_Source\PSoC4/cyfitter_cfg.c **** 		static const uint32 CYCODE cy_cfg_addr_table[] = {
 361:Generated_Source\PSoC4/cyfitter_cfg.c **** 			0x400F3205u, /* Base address: 0x400F3200 Count: 5 */
 362:Generated_Source\PSoC4/cyfitter_cfg.c **** 			0x400F3305u, /* Base address: 0x400F3300 Count: 5 */
 363:Generated_Source\PSoC4/cyfitter_cfg.c **** 			0x400F4104u, /* Base address: 0x400F4100 Count: 4 */
 364:Generated_Source\PSoC4/cyfitter_cfg.c **** 			0x400F4304u, /* Base address: 0x400F4300 Count: 4 */
 365:Generated_Source\PSoC4/cyfitter_cfg.c **** 		};
 366:Generated_Source\PSoC4/cyfitter_cfg.c **** 
 367:Generated_Source\PSoC4/cyfitter_cfg.c **** 		static const cy_cfg_addrvalue_t CYCODE cy_cfg_data_table[] = {
 368:Generated_Source\PSoC4/cyfitter_cfg.c **** 			{0xACu, 0x01u},
 369:Generated_Source\PSoC4/cyfitter_cfg.c **** 			{0xB6u, 0x01u},
 370:Generated_Source\PSoC4/cyfitter_cfg.c **** 			{0xBEu, 0x40u},
 371:Generated_Source\PSoC4/cyfitter_cfg.c **** 			{0xD8u, 0x04u},
 372:Generated_Source\PSoC4/cyfitter_cfg.c **** 			{0xDFu, 0x01u},
 373:Generated_Source\PSoC4/cyfitter_cfg.c **** 			{0x10u, 0x01u},
 374:Generated_Source\PSoC4/cyfitter_cfg.c **** 			{0x1Bu, 0x40u},
 375:Generated_Source\PSoC4/cyfitter_cfg.c **** 			{0x83u, 0x40u},
 376:Generated_Source\PSoC4/cyfitter_cfg.c **** 			{0x88u, 0x01u},
 377:Generated_Source\PSoC4/cyfitter_cfg.c **** 			{0xC4u, 0x01u},
 378:Generated_Source\PSoC4/cyfitter_cfg.c **** 			{0x6Fu, 0x10u},
 379:Generated_Source\PSoC4/cyfitter_cfg.c **** 			{0x83u, 0x10u},
 380:Generated_Source\PSoC4/cyfitter_cfg.c **** 			{0xDAu, 0x80u},
 381:Generated_Source\PSoC4/cyfitter_cfg.c **** 			{0xE2u, 0x20u},
ARM GAS  C:\Users\Petro\AppData\Local\Temp\ccBe4H2c.s 			page 18


 382:Generated_Source\PSoC4/cyfitter_cfg.c **** 			{0x06u, 0x80u},
 383:Generated_Source\PSoC4/cyfitter_cfg.c **** 			{0x8Au, 0x80u},
 384:Generated_Source\PSoC4/cyfitter_cfg.c **** 			{0xC0u, 0x04u},
 385:Generated_Source\PSoC4/cyfitter_cfg.c **** 			{0xE6u, 0x04u},
 386:Generated_Source\PSoC4/cyfitter_cfg.c **** 		};
 387:Generated_Source\PSoC4/cyfitter_cfg.c **** 
 388:Generated_Source\PSoC4/cyfitter_cfg.c **** 
 389:Generated_Source\PSoC4/cyfitter_cfg.c **** 
 390:Generated_Source\PSoC4/cyfitter_cfg.c **** 		CYPACKED typedef struct {
 391:Generated_Source\PSoC4/cyfitter_cfg.c **** 			void CYFAR *address;
 392:Generated_Source\PSoC4/cyfitter_cfg.c **** 			uint16 size;
 393:Generated_Source\PSoC4/cyfitter_cfg.c **** 		} CYPACKED_ATTR cfg_memset_t;
 394:Generated_Source\PSoC4/cyfitter_cfg.c **** 
 395:Generated_Source\PSoC4/cyfitter_cfg.c **** 		static const cfg_memset_t CYCODE cfg_memset_list [] = {
 396:Generated_Source\PSoC4/cyfitter_cfg.c **** 			/* address, size */
 397:Generated_Source\PSoC4/cyfitter_cfg.c **** 			{(void CYFAR *)(CYDEV_UDB_P0_U0_BASE), 1024u},
 398:Generated_Source\PSoC4/cyfitter_cfg.c **** 			{(void CYFAR *)(CYDEV_UDB_DSI0_BASE), 1024u},
 399:Generated_Source\PSoC4/cyfitter_cfg.c **** 		};
 400:Generated_Source\PSoC4/cyfitter_cfg.c **** 
 401:Generated_Source\PSoC4/cyfitter_cfg.c **** 		uint8 CYDATA i;
 402:Generated_Source\PSoC4/cyfitter_cfg.c **** 
 403:Generated_Source\PSoC4/cyfitter_cfg.c **** 		/* Zero out critical memory blocks before beginning configuration */
 404:Generated_Source\PSoC4/cyfitter_cfg.c **** 		for (i = 0u; i < (sizeof(cfg_memset_list)/sizeof(cfg_memset_list[0])); i++)
 586              		.loc 1 404 0
 587 019c FB1D     		add	r3, r7, #7
 588 019e 0022     		mov	r2, #0
 589 01a0 1A70     		strb	r2, [r3]
 590 01a2 23E0     		b	.L22
 591              	.L23:
 592              	.LBB4:
 405:Generated_Source\PSoC4/cyfitter_cfg.c **** 		{
 406:Generated_Source\PSoC4/cyfitter_cfg.c **** 			const cfg_memset_t CYCODE * CYDATA ms = &cfg_memset_list[i];
 593              		.loc 1 406 0 discriminator 3
 594 01a4 FB1D     		add	r3, r7, #7
 595 01a6 1A78     		ldrb	r2, [r3]
 596 01a8 131C     		mov	r3, r2
 597 01aa 5B00     		lsl	r3, r3, #1
 598 01ac 9B18     		add	r3, r3, r2
 599 01ae 5B00     		lsl	r3, r3, #1
 600 01b0 414A     		ldr	r2, .L24+8
 601 01b2 9B18     		add	r3, r3, r2
 602 01b4 3B60     		str	r3, [r7]
 407:Generated_Source\PSoC4/cyfitter_cfg.c **** 			CYMEMZERO(ms->address, (size_t)(uint32)(ms->size));
 603              		.loc 1 407 0 discriminator 3
 604 01b6 3B68     		ldr	r3, [r7]
 605 01b8 1A78     		ldrb	r2, [r3]
 606 01ba 5978     		ldrb	r1, [r3, #1]
 607 01bc 0902     		lsl	r1, r1, #8
 608 01be 0A43     		orr	r2, r1
 609 01c0 9978     		ldrb	r1, [r3, #2]
 610 01c2 0904     		lsl	r1, r1, #16
 611 01c4 0A43     		orr	r2, r1
 612 01c6 DB78     		ldrb	r3, [r3, #3]
 613 01c8 1B06     		lsl	r3, r3, #24
 614 01ca 1343     		orr	r3, r2
 615 01cc 191C     		mov	r1, r3
 616 01ce 3B68     		ldr	r3, [r7]
ARM GAS  C:\Users\Petro\AppData\Local\Temp\ccBe4H2c.s 			page 19


 617 01d0 1A79     		ldrb	r2, [r3, #4]
 618 01d2 5B79     		ldrb	r3, [r3, #5]
 619 01d4 1B02     		lsl	r3, r3, #8
 620 01d6 1343     		orr	r3, r2
 621 01d8 9BB2     		uxth	r3, r3
 622 01da 081C     		mov	r0, r1
 623 01dc 191C     		mov	r1, r3
 624 01de FFF7FEFF 		bl	CYMEMZERO
 625              	.LBE4:
 404:Generated_Source\PSoC4/cyfitter_cfg.c **** 		{
 626              		.loc 1 404 0 discriminator 3
 627 01e2 FB1D     		add	r3, r7, #7
 628 01e4 1A78     		ldrb	r2, [r3]
 629 01e6 FB1D     		add	r3, r7, #7
 630 01e8 0132     		add	r2, r2, #1
 631 01ea 1A70     		strb	r2, [r3]
 632              	.L22:
 404:Generated_Source\PSoC4/cyfitter_cfg.c **** 		{
 633              		.loc 1 404 0 is_stmt 0 discriminator 1
 634 01ec FB1D     		add	r3, r7, #7
 635 01ee 1B78     		ldrb	r3, [r3]
 636 01f0 012B     		cmp	r3, #1
 637 01f2 D7D9     		bls	.L23
 408:Generated_Source\PSoC4/cyfitter_cfg.c **** 		}
 409:Generated_Source\PSoC4/cyfitter_cfg.c **** 
 410:Generated_Source\PSoC4/cyfitter_cfg.c **** 		cfg_write_bytes32(cy_cfg_addr_table, cy_cfg_data_table);
 638              		.loc 1 410 0 is_stmt 1
 639 01f4 314A     		ldr	r2, .L24+12
 640 01f6 324B     		ldr	r3, .L24+16
 641 01f8 101C     		mov	r0, r2
 642 01fa 191C     		mov	r1, r3
 643 01fc FFF7FEFF 		bl	cfg_write_bytes32
 411:Generated_Source\PSoC4/cyfitter_cfg.c **** 
 412:Generated_Source\PSoC4/cyfitter_cfg.c **** 		/* HSIOM Starting address: CYDEV_HSIOM_BASE */
 413:Generated_Source\PSoC4/cyfitter_cfg.c **** 		CY_SET_XTND_REG32((void CYFAR *)(CYDEV_HSIOM_BASE), 0xEE990000u);
 644              		.loc 1 413 0
 645 0200 304B     		ldr	r3, .L24+20
 646 0202 314A     		ldr	r2, .L24+24
 647 0204 1A60     		str	r2, [r3]
 414:Generated_Source\PSoC4/cyfitter_cfg.c **** 
 415:Generated_Source\PSoC4/cyfitter_cfg.c **** 		/* UDB_PA_0 Starting address: CYDEV_UDB_PA0_BASE */
 416:Generated_Source\PSoC4/cyfitter_cfg.c **** 		CY_SET_XTND_REG32((void CYFAR *)(CYDEV_UDB_PA0_BASE), 0x00990000u);
 648              		.loc 1 416 0
 649 0206 314B     		ldr	r3, .L24+28
 650 0208 9922     		mov	r2, #153
 651 020a 1204     		lsl	r2, r2, #16
 652 020c 1A60     		str	r2, [r3]
 417:Generated_Source\PSoC4/cyfitter_cfg.c **** 
 418:Generated_Source\PSoC4/cyfitter_cfg.c **** 		/* UDB_PA_1 Starting address: CYDEV_UDB_PA1_BASE */
 419:Generated_Source\PSoC4/cyfitter_cfg.c **** 		CY_SET_XTND_REG32((void CYFAR *)(CYDEV_UDB_PA1_BASE), 0x00990000u);
 653              		.loc 1 419 0
 654 020e 304B     		ldr	r3, .L24+32
 655 0210 9922     		mov	r2, #153
 656 0212 1204     		lsl	r2, r2, #16
 657 0214 1A60     		str	r2, [r3]
 420:Generated_Source\PSoC4/cyfitter_cfg.c **** 
 421:Generated_Source\PSoC4/cyfitter_cfg.c **** 		/* UDB_PA_2 Starting address: CYDEV_UDB_PA2_BASE */
ARM GAS  C:\Users\Petro\AppData\Local\Temp\ccBe4H2c.s 			page 20


 422:Generated_Source\PSoC4/cyfitter_cfg.c **** 		CY_SET_XTND_REG32((void CYFAR *)(CYDEV_UDB_PA2_BASE), 0x00990000u);
 658              		.loc 1 422 0
 659 0216 2F4B     		ldr	r3, .L24+36
 660 0218 9922     		mov	r2, #153
 661 021a 1204     		lsl	r2, r2, #16
 662 021c 1A60     		str	r2, [r3]
 423:Generated_Source\PSoC4/cyfitter_cfg.c **** 
 424:Generated_Source\PSoC4/cyfitter_cfg.c **** 		/* UDB_PA_3 Starting address: CYDEV_UDB_PA3_BASE */
 425:Generated_Source\PSoC4/cyfitter_cfg.c **** 		CY_SET_XTND_REG32((void CYFAR *)(CYDEV_UDB_PA3_BASE), 0x00990000u);
 663              		.loc 1 425 0
 664 021e 2E4B     		ldr	r3, .L24+40
 665 0220 9922     		mov	r2, #153
 666 0222 1204     		lsl	r2, r2, #16
 667 0224 1A60     		str	r2, [r3]
 426:Generated_Source\PSoC4/cyfitter_cfg.c **** 
 427:Generated_Source\PSoC4/cyfitter_cfg.c **** 		/* INT_SELECT Starting address: CYDEV_CPUSS_INT_SEL */
 428:Generated_Source\PSoC4/cyfitter_cfg.c **** 		CY_SET_XTND_REG32((void CYFAR *)(CYREG_CPUSS_INT_SEL), 0x00000002u);
 668              		.loc 1 428 0
 669 0226 2D4B     		ldr	r3, .L24+44
 670 0228 0222     		mov	r2, #2
 671 022a 1A60     		str	r2, [r3]
 429:Generated_Source\PSoC4/cyfitter_cfg.c **** 
 430:Generated_Source\PSoC4/cyfitter_cfg.c **** 		/* INT_CONFIG Starting address: CYDEV_UDB_INT_CFG */
 431:Generated_Source\PSoC4/cyfitter_cfg.c **** 		CY_SET_XTND_REG32((void CYFAR *)(CYREG_UDB_INT_CFG), 0x00000002u);
 672              		.loc 1 431 0
 673 022c 2C4B     		ldr	r3, .L24+48
 674 022e 0222     		mov	r2, #2
 675 0230 1A60     		str	r2, [r3]
 432:Generated_Source\PSoC4/cyfitter_cfg.c **** 
 433:Generated_Source\PSoC4/cyfitter_cfg.c **** 		/* Enable digital routing */
 434:Generated_Source\PSoC4/cyfitter_cfg.c **** 		CY_SET_XTND_REG8((void *)CYREG_UDB_UDBIF_BANK_CTL, CY_GET_XTND_REG8((void *)CYREG_UDB_UDBIF_BANK_
 676              		.loc 1 434 0
 677 0232 2C4A     		ldr	r2, .L24+52
 678 0234 2B4B     		ldr	r3, .L24+52
 679 0236 1B78     		ldrb	r3, [r3]
 680 0238 DBB2     		uxtb	r3, r3
 681 023a 0221     		mov	r1, #2
 682 023c 0B43     		orr	r3, r1
 683 023e DBB2     		uxtb	r3, r3
 684 0240 1370     		strb	r3, [r2]
 435:Generated_Source\PSoC4/cyfitter_cfg.c **** 
 436:Generated_Source\PSoC4/cyfitter_cfg.c **** 		/* Enable UDB array */
 437:Generated_Source\PSoC4/cyfitter_cfg.c **** 		CY_SET_XTND_REG8((void *)CYREG_UDB_UDBIF_WAIT_CFG, (uint8)((CY_GET_XTND_REG8((void *)CYREG_UDB_UD
 685              		.loc 1 437 0
 686 0242 294A     		ldr	r2, .L24+56
 687 0244 284B     		ldr	r3, .L24+56
 688 0246 1B78     		ldrb	r3, [r3]
 689 0248 DBB2     		uxtb	r3, r3
 690 024a 3C21     		mov	r1, #60
 691 024c 8B43     		bic	r3, r1
 692 024e DBB2     		uxtb	r3, r3
 693 0250 1421     		mov	r1, #20
 694 0252 0B43     		orr	r3, r1
 695 0254 DBB2     		uxtb	r3, r3
 696 0256 1370     		strb	r3, [r2]
 438:Generated_Source\PSoC4/cyfitter_cfg.c **** 		CY_SET_XTND_REG8((void *)CYREG_UDB_UDBIF_BANK_CTL, (uint8)(CY_GET_XTND_REG8((void *)CYREG_UDB_UDB
 697              		.loc 1 438 0
ARM GAS  C:\Users\Petro\AppData\Local\Temp\ccBe4H2c.s 			page 21


 698 0258 224A     		ldr	r2, .L24+52
 699 025a 224B     		ldr	r3, .L24+52
 700 025c 1B78     		ldrb	r3, [r3]
 701 025e DBB2     		uxtb	r3, r3
 702 0260 1621     		mov	r1, #22
 703 0262 0B43     		orr	r3, r1
 704 0264 DBB2     		uxtb	r3, r3
 705 0266 1370     		strb	r3, [r2]
 706              	.LBE3:
 439:Generated_Source\PSoC4/cyfitter_cfg.c **** 	}
 440:Generated_Source\PSoC4/cyfitter_cfg.c **** 
 441:Generated_Source\PSoC4/cyfitter_cfg.c **** 	/* Perform second pass device configuration. These items must be configured in specific order afte
 442:Generated_Source\PSoC4/cyfitter_cfg.c **** 	/* IOPINS0_0 Starting address: CYDEV_GPIO_PRT0_BASE */
 443:Generated_Source\PSoC4/cyfitter_cfg.c **** 	CY_SET_XTND_REG32((void CYFAR *)(CYDEV_GPIO_PRT0_BASE), 0x00000020u);
 707              		.loc 1 443 0
 708 0268 204B     		ldr	r3, .L24+60
 709 026a 2022     		mov	r2, #32
 710 026c 1A60     		str	r2, [r3]
 444:Generated_Source\PSoC4/cyfitter_cfg.c **** 	CY_SET_XTND_REG32((void CYFAR *)(CYREG_GPIO_PRT0_PC), 0x00DB1036u);
 711              		.loc 1 444 0
 712 026e 204B     		ldr	r3, .L24+64
 713 0270 204A     		ldr	r2, .L24+68
 714 0272 1A60     		str	r2, [r3]
 445:Generated_Source\PSoC4/cyfitter_cfg.c **** 	CY_SET_XTND_REG32((void CYFAR *)(CYREG_GPIO_PRT0_PC2), 0x00000020u);
 715              		.loc 1 445 0
 716 0274 204B     		ldr	r3, .L24+72
 717 0276 2022     		mov	r2, #32
 718 0278 1A60     		str	r2, [r3]
 446:Generated_Source\PSoC4/cyfitter_cfg.c **** 
 447:Generated_Source\PSoC4/cyfitter_cfg.c **** 	/* IOPINS0_1 Starting address: CYDEV_GPIO_PRT1_BASE */
 448:Generated_Source\PSoC4/cyfitter_cfg.c **** 	CY_SET_XTND_REG32((void CYFAR *)(CYDEV_GPIO_PRT1_BASE), 0x00000084u);
 719              		.loc 1 448 0
 720 027a 204B     		ldr	r3, .L24+76
 721 027c 8422     		mov	r2, #132
 722 027e 1A60     		str	r2, [r3]
 449:Generated_Source\PSoC4/cyfitter_cfg.c **** 	CY_SET_XTND_REG32((void CYFAR *)(CYREG_GPIO_PRT1_PC), 0x009B6086u);
 723              		.loc 1 449 0
 724 0280 1F4B     		ldr	r3, .L24+80
 725 0282 204A     		ldr	r2, .L24+84
 726 0284 1A60     		str	r2, [r3]
 450:Generated_Source\PSoC4/cyfitter_cfg.c **** 
 451:Generated_Source\PSoC4/cyfitter_cfg.c **** 	/* IOPINS0_2 Starting address: CYDEV_GPIO_PRT2_BASE */
 452:Generated_Source\PSoC4/cyfitter_cfg.c **** 	CY_SET_XTND_REG32((void CYFAR *)(CYREG_GPIO_PRT2_PC), 0x00006180u);
 727              		.loc 1 452 0
 728 0286 204B     		ldr	r3, .L24+88
 729 0288 C322     		mov	r2, #195
 730 028a D201     		lsl	r2, r2, #7
 731 028c 1A60     		str	r2, [r3]
 453:Generated_Source\PSoC4/cyfitter_cfg.c **** 
 454:Generated_Source\PSoC4/cyfitter_cfg.c **** 	/* IOPINS0_3 Starting address: CYDEV_GPIO_PRT3_BASE */
 455:Generated_Source\PSoC4/cyfitter_cfg.c **** 	CY_SET_XTND_REG32((void CYFAR *)(CYDEV_GPIO_PRT3_BASE), 0x00000007u);
 732              		.loc 1 455 0
 733 028e 1F4B     		ldr	r3, .L24+92
 734 0290 0722     		mov	r2, #7
 735 0292 1A60     		str	r2, [r3]
 456:Generated_Source\PSoC4/cyfitter_cfg.c **** 	CY_SET_XTND_REG32((void CYFAR *)(CYREG_GPIO_PRT3_PC), 0x00036C90u);
 736              		.loc 1 456 0
ARM GAS  C:\Users\Petro\AppData\Local\Temp\ccBe4H2c.s 			page 22


 737 0294 1E4B     		ldr	r3, .L24+96
 738 0296 1F4A     		ldr	r2, .L24+100
 739 0298 1A60     		str	r2, [r3]
 457:Generated_Source\PSoC4/cyfitter_cfg.c **** 	CY_SET_XTND_REG32((void CYFAR *)(CYREG_GPIO_PRT3_PC2), 0x00000001u);
 740              		.loc 1 457 0
 741 029a 1F4B     		ldr	r3, .L24+104
 742 029c 0122     		mov	r2, #1
 743 029e 1A60     		str	r2, [r3]
 458:Generated_Source\PSoC4/cyfitter_cfg.c **** 
 459:Generated_Source\PSoC4/cyfitter_cfg.c **** 
 460:Generated_Source\PSoC4/cyfitter_cfg.c **** 	/* Setup clocks based on selections from Clock DWR */
 461:Generated_Source\PSoC4/cyfitter_cfg.c **** 	ClockSetup();
 744              		.loc 1 461 0
 745 02a0 FFF7AEFE 		bl	ClockSetup
 462:Generated_Source\PSoC4/cyfitter_cfg.c **** 
 463:Generated_Source\PSoC4/cyfitter_cfg.c **** 	/* Perform basic analog initialization to defaults */
 464:Generated_Source\PSoC4/cyfitter_cfg.c **** 	AnalogSetDefault();
 746              		.loc 1 464 0
 747 02a4 FFF7FEFF 		bl	AnalogSetDefault
 465:Generated_Source\PSoC4/cyfitter_cfg.c **** 
 466:Generated_Source\PSoC4/cyfitter_cfg.c **** }
 748              		.loc 1 466 0
 749 02a8 BD46     		mov	sp, r7
 750 02aa 02B0     		add	sp, sp, #8
 751              		@ sp needed
 752 02ac 80BD     		pop	{r7, pc}
 753              	.L25:
 754 02ae C046     		.align	2
 755              	.L24:
 756 02b0 6CF02E40 		.word	1076818028
 757 02b4 1C700F40 		.word	1074753564
 758 02b8 00000000 		.word	cfg_memset_list.4790
 759 02bc 0C000000 		.word	cy_cfg_addr_table.4784
 760 02c0 1C000000 		.word	cy_cfg_data_table.4785
 761 02c4 00000240 		.word	1073872896
 762 02c8 000099EE 		.word	-291962880
 763 02cc 00500F40 		.word	1074745344
 764 02d0 10500F40 		.word	1074745360
 765 02d4 20500F40 		.word	1074745376
 766 02d8 30500F40 		.word	1074745392
 767 02dc 20001040 		.word	1074790432
 768 02e0 00800F40 		.word	1074757632
 769 02e4 00700F40 		.word	1074753536
 770 02e8 01700F40 		.word	1074753537
 771 02ec 00000440 		.word	1074003968
 772 02f0 08000440 		.word	1074003976
 773 02f4 3610DB00 		.word	14356534
 774 02f8 18000440 		.word	1074003992
 775 02fc 00010440 		.word	1074004224
 776 0300 08010440 		.word	1074004232
 777 0304 86609B00 		.word	10182790
 778 0308 08020440 		.word	1074004488
 779 030c 00030440 		.word	1074004736
 780 0310 08030440 		.word	1074004744
 781 0314 906C0300 		.word	224400
 782 0318 18030440 		.word	1074004760
 783              		.cfi_endproc
ARM GAS  C:\Users\Petro\AppData\Local\Temp\ccBe4H2c.s 			page 23


 784              	.LFE9:
 785              		.size	cyfitter_cfg, .-cyfitter_cfg
 786              		.section	.rodata
 787              		.align	2
 788              		.type	cfg_memset_list.4790, %object
 789              		.size	cfg_memset_list.4790, 12
 790              	cfg_memset_list.4790:
 791 0000 00300F40 		.word	1074737152
 792 0004 0004     		.short	1024
 793 0006 00400F40 		.4byte	1074741248
 794 000a 0004     		.short	1024
 795              		.align	2
 796              		.type	cy_cfg_addr_table.4784, %object
 797              		.size	cy_cfg_addr_table.4784, 16
 798              	cy_cfg_addr_table.4784:
 799 000c 05320F40 		.word	1074737669
 800 0010 05330F40 		.word	1074737925
 801 0014 04410F40 		.word	1074741508
 802 0018 04430F40 		.word	1074742020
 803              		.align	2
 804              		.type	cy_cfg_data_table.4785, %object
 805              		.size	cy_cfg_data_table.4785, 36
 806              	cy_cfg_data_table.4785:
 807 001c AC       		.byte	-84
 808 001d 01       		.byte	1
 809 001e B6       		.byte	-74
 810 001f 01       		.byte	1
 811 0020 BE       		.byte	-66
 812 0021 40       		.byte	64
 813 0022 D8       		.byte	-40
 814 0023 04       		.byte	4
 815 0024 DF       		.byte	-33
 816 0025 01       		.byte	1
 817 0026 10       		.byte	16
 818 0027 01       		.byte	1
 819 0028 1B       		.byte	27
 820 0029 40       		.byte	64
 821 002a 83       		.byte	-125
 822 002b 40       		.byte	64
 823 002c 88       		.byte	-120
 824 002d 01       		.byte	1
 825 002e C4       		.byte	-60
 826 002f 01       		.byte	1
 827 0030 6F       		.byte	111
 828 0031 10       		.byte	16
 829 0032 83       		.byte	-125
 830 0033 10       		.byte	16
 831 0034 DA       		.byte	-38
 832 0035 80       		.byte	-128
 833 0036 E2       		.byte	-30
 834 0037 20       		.byte	32
 835 0038 06       		.byte	6
 836 0039 80       		.byte	-128
 837 003a 8A       		.byte	-118
 838 003b 80       		.byte	-128
 839 003c C0       		.byte	-64
 840 003d 04       		.byte	4
ARM GAS  C:\Users\Petro\AppData\Local\Temp\ccBe4H2c.s 			page 24


 841 003e E6       		.byte	-26
 842 003f 04       		.byte	4
 843              		.text
 844              	.Letext0:
 845              		.file 2 "c:\\program files (x86)\\cypress\\psoc creator\\4.0\\psoc creator\\import\\gnu\\arm\\4.9.
 846              		.file 3 "Generated_Source\\PSoC4\\cytypes.h"
 847              		.section	.debug_info,"",%progbits
 848              	.Ldebug_info0:
 849 0000 88030000 		.4byte	0x388
 850 0004 0400     		.2byte	0x4
 851 0006 00000000 		.4byte	.Ldebug_abbrev0
 852 000a 04       		.byte	0x4
 853 000b 01       		.uleb128 0x1
 854 000c 31010000 		.4byte	.LASF43
 855 0010 01       		.byte	0x1
 856 0011 BA020000 		.4byte	.LASF44
 857 0015 30020000 		.4byte	.LASF45
 858 0019 00000000 		.4byte	.Ldebug_ranges0+0
 859 001d 00000000 		.4byte	0
 860 0021 00000000 		.4byte	.Ldebug_line0
 861 0025 02       		.uleb128 0x2
 862 0026 04       		.byte	0x4
 863 0027 05       		.byte	0x5
 864 0028 696E7400 		.ascii	"int\000"
 865 002c 03       		.uleb128 0x3
 866 002d 16000000 		.4byte	.LASF11
 867 0031 02       		.byte	0x2
 868 0032 D4       		.byte	0xd4
 869 0033 37000000 		.4byte	0x37
 870 0037 04       		.uleb128 0x4
 871 0038 04       		.byte	0x4
 872 0039 07       		.byte	0x7
 873 003a BF010000 		.4byte	.LASF0
 874 003e 04       		.uleb128 0x4
 875 003f 01       		.byte	0x1
 876 0040 06       		.byte	0x6
 877 0041 AE020000 		.4byte	.LASF1
 878 0045 04       		.uleb128 0x4
 879 0046 01       		.byte	0x1
 880 0047 08       		.byte	0x8
 881 0048 D9000000 		.4byte	.LASF2
 882 004c 04       		.uleb128 0x4
 883 004d 02       		.byte	0x2
 884 004e 05       		.byte	0x5
 885 004f 93020000 		.4byte	.LASF3
 886 0053 04       		.uleb128 0x4
 887 0054 02       		.byte	0x2
 888 0055 07       		.byte	0x7
 889 0056 0A020000 		.4byte	.LASF4
 890 005a 04       		.uleb128 0x4
 891 005b 04       		.byte	0x4
 892 005c 05       		.byte	0x5
 893 005d A5020000 		.4byte	.LASF5
 894 0061 04       		.uleb128 0x4
 895 0062 04       		.byte	0x4
 896 0063 07       		.byte	0x7
 897 0064 A1000000 		.4byte	.LASF6
ARM GAS  C:\Users\Petro\AppData\Local\Temp\ccBe4H2c.s 			page 25


 898 0068 04       		.uleb128 0x4
 899 0069 08       		.byte	0x8
 900 006a 05       		.byte	0x5
 901 006b 1D020000 		.4byte	.LASF7
 902 006f 04       		.uleb128 0x4
 903 0070 08       		.byte	0x8
 904 0071 07       		.byte	0x7
 905 0072 D4010000 		.4byte	.LASF8
 906 0076 04       		.uleb128 0x4
 907 0077 04       		.byte	0x4
 908 0078 07       		.byte	0x7
 909 0079 01020000 		.4byte	.LASF9
 910 007d 05       		.uleb128 0x5
 911 007e 04       		.byte	0x4
 912 007f 04       		.uleb128 0x4
 913 0080 01       		.byte	0x1
 914 0081 08       		.byte	0x8
 915 0082 2B020000 		.4byte	.LASF10
 916 0086 06       		.uleb128 0x6
 917 0087 B3000000 		.4byte	.LASF12
 918 008b 03       		.byte	0x3
 919 008c 9801     		.2byte	0x198
 920 008e 45000000 		.4byte	0x45
 921 0092 06       		.uleb128 0x6
 922 0093 18010000 		.4byte	.LASF13
 923 0097 03       		.byte	0x3
 924 0098 9901     		.2byte	0x199
 925 009a 53000000 		.4byte	0x53
 926 009e 06       		.uleb128 0x6
 927 009f 2A010000 		.4byte	.LASF14
 928 00a3 03       		.byte	0x3
 929 00a4 9A01     		.2byte	0x19a
 930 00a6 61000000 		.4byte	0x61
 931 00aa 04       		.uleb128 0x4
 932 00ab 04       		.byte	0x4
 933 00ac 04       		.byte	0x4
 934 00ad 7C000000 		.4byte	.LASF15
 935 00b1 04       		.uleb128 0x4
 936 00b2 08       		.byte	0x8
 937 00b3 04       		.byte	0x4
 938 00b4 E7000000 		.4byte	.LASF16
 939 00b8 06       		.uleb128 0x6
 940 00b9 9C000000 		.4byte	.LASF17
 941 00bd 03       		.byte	0x3
 942 00be 4202     		.2byte	0x242
 943 00c0 C4000000 		.4byte	0xc4
 944 00c4 07       		.uleb128 0x7
 945 00c5 86000000 		.4byte	0x86
 946 00c9 06       		.uleb128 0x6
 947 00ca 10000000 		.4byte	.LASF18
 948 00ce 03       		.byte	0x3
 949 00cf 4402     		.2byte	0x244
 950 00d1 D5000000 		.4byte	0xd5
 951 00d5 07       		.uleb128 0x7
 952 00d6 9E000000 		.4byte	0x9e
 953 00da 08       		.uleb128 0x8
 954 00db 02       		.byte	0x2
ARM GAS  C:\Users\Petro\AppData\Local\Temp\ccBe4H2c.s 			page 26


 955 00dc 01       		.byte	0x1
 956 00dd 8B       		.byte	0x8b
 957 00de FB000000 		.4byte	0xfb
 958 00e2 09       		.uleb128 0x9
 959 00e3 8C020000 		.4byte	.LASF19
 960 00e7 01       		.byte	0x1
 961 00e8 8D       		.byte	0x8d
 962 00e9 86000000 		.4byte	0x86
 963 00ed 00       		.byte	0
 964 00ee 09       		.uleb128 0x9
 965 00ef 2E000000 		.4byte	.LASF20
 966 00f3 01       		.byte	0x1
 967 00f4 8E       		.byte	0x8e
 968 00f5 86000000 		.4byte	0x86
 969 00f9 01       		.byte	0x1
 970 00fa 00       		.byte	0
 971 00fb 03       		.uleb128 0x3
 972 00fc 69000000 		.4byte	.LASF21
 973 0100 01       		.byte	0x1
 974 0101 8F       		.byte	0x8f
 975 0102 DA000000 		.4byte	0xda
 976 0106 0A       		.uleb128 0xa
 977 0107 B9000000 		.4byte	.LASF22
 978 010b 01       		.byte	0x1
 979 010c 3E       		.byte	0x3e
 980 010d 00000000 		.4byte	.LFB2
 981 0111 1E000000 		.4byte	.LFE2-.LFB2
 982 0115 01       		.uleb128 0x1
 983 0116 9C       		.byte	0x9c
 984 0117 34010000 		.4byte	0x134
 985 011b 0B       		.uleb128 0xb
 986 011c 7300     		.ascii	"s\000"
 987 011e 01       		.byte	0x1
 988 011f 3E       		.byte	0x3e
 989 0120 7D000000 		.4byte	0x7d
 990 0124 02       		.uleb128 0x2
 991 0125 91       		.byte	0x91
 992 0126 74       		.sleb128 -12
 993 0127 0B       		.uleb128 0xb
 994 0128 6E00     		.ascii	"n\000"
 995 012a 01       		.byte	0x1
 996 012b 3E       		.byte	0x3e
 997 012c 2C000000 		.4byte	0x2c
 998 0130 02       		.uleb128 0x2
 999 0131 91       		.byte	0x91
 1000 0132 70       		.sleb128 -16
 1001 0133 00       		.byte	0
 1002 0134 0A       		.uleb128 0xa
 1003 0135 E9020000 		.4byte	.LASF23
 1004 0139 01       		.byte	0x1
 1005 013a 45       		.byte	0x45
 1006 013b 00000000 		.4byte	.LFB3
 1007 013f 22000000 		.4byte	.LFE3-.LFB3
 1008 0143 01       		.uleb128 0x1
 1009 0144 9C       		.byte	0x9c
 1010 0145 72010000 		.4byte	0x172
 1011 0149 0C       		.uleb128 0xc
ARM GAS  C:\Users\Petro\AppData\Local\Temp\ccBe4H2c.s 			page 27


 1012 014a 82000000 		.4byte	.LASF24
 1013 014e 01       		.byte	0x1
 1014 014f 45       		.byte	0x45
 1015 0150 7D000000 		.4byte	0x7d
 1016 0154 02       		.uleb128 0x2
 1017 0155 91       		.byte	0x91
 1018 0156 74       		.sleb128 -12
 1019 0157 0B       		.uleb128 0xb
 1020 0158 73726300 		.ascii	"src\000"
 1021 015c 01       		.byte	0x1
 1022 015d 45       		.byte	0x45
 1023 015e 72010000 		.4byte	0x172
 1024 0162 02       		.uleb128 0x2
 1025 0163 91       		.byte	0x91
 1026 0164 70       		.sleb128 -16
 1027 0165 0B       		.uleb128 0xb
 1028 0166 6E00     		.ascii	"n\000"
 1029 0168 01       		.byte	0x1
 1030 0169 45       		.byte	0x45
 1031 016a 2C000000 		.4byte	0x2c
 1032 016e 02       		.uleb128 0x2
 1033 016f 91       		.byte	0x91
 1034 0170 6C       		.sleb128 -20
 1035 0171 00       		.byte	0
 1036 0172 0D       		.uleb128 0xd
 1037 0173 04       		.byte	0x4
 1038 0174 78010000 		.4byte	0x178
 1039 0178 0E       		.uleb128 0xe
 1040 0179 0A       		.uleb128 0xa
 1041 017a 00000000 		.4byte	.LASF25
 1042 017e 01       		.byte	0x1
 1043 017f 4C       		.byte	0x4c
 1044 0180 00000000 		.4byte	.LFB4
 1045 0184 22000000 		.4byte	.LFE4-.LFB4
 1046 0188 01       		.uleb128 0x1
 1047 0189 9C       		.byte	0x9c
 1048 018a B7010000 		.4byte	0x1b7
 1049 018e 0C       		.uleb128 0xc
 1050 018f 82000000 		.4byte	.LASF24
 1051 0193 01       		.byte	0x1
 1052 0194 4C       		.byte	0x4c
 1053 0195 7D000000 		.4byte	0x7d
 1054 0199 02       		.uleb128 0x2
 1055 019a 91       		.byte	0x91
 1056 019b 74       		.sleb128 -12
 1057 019c 0B       		.uleb128 0xb
 1058 019d 73726300 		.ascii	"src\000"
 1059 01a1 01       		.byte	0x1
 1060 01a2 4C       		.byte	0x4c
 1061 01a3 72010000 		.4byte	0x172
 1062 01a7 02       		.uleb128 0x2
 1063 01a8 91       		.byte	0x91
 1064 01a9 70       		.sleb128 -16
 1065 01aa 0B       		.uleb128 0xb
 1066 01ab 6E00     		.ascii	"n\000"
 1067 01ad 01       		.byte	0x1
 1068 01ae 4C       		.byte	0x4c
ARM GAS  C:\Users\Petro\AppData\Local\Temp\ccBe4H2c.s 			page 28


 1069 01af 2C000000 		.4byte	0x2c
 1070 01b3 02       		.uleb128 0x2
 1071 01b4 91       		.byte	0x91
 1072 01b5 6C       		.sleb128 -20
 1073 01b6 00       		.byte	0
 1074 01b7 0F       		.uleb128 0xf
 1075 01b8 EE000000 		.4byte	.LASF26
 1076 01bc 01       		.byte	0x1
 1077 01bd A2       		.byte	0xa2
 1078 01be 00000000 		.4byte	.LFB5
 1079 01c2 80000000 		.4byte	.LFE5-.LFB5
 1080 01c6 01       		.uleb128 0x1
 1081 01c7 9C       		.byte	0x9c
 1082 01c8 27020000 		.4byte	0x227
 1083 01cc 0C       		.uleb128 0xc
 1084 01cd 0D010000 		.4byte	.LASF27
 1085 01d1 01       		.byte	0x1
 1086 01d2 A2       		.byte	0xa2
 1087 01d3 27020000 		.4byte	0x227
 1088 01d7 02       		.uleb128 0x2
 1089 01d8 91       		.byte	0x91
 1090 01d9 64       		.sleb128 -28
 1091 01da 0C       		.uleb128 0xc
 1092 01db 1F010000 		.4byte	.LASF28
 1093 01df 01       		.byte	0x1
 1094 01e0 A2       		.byte	0xa2
 1095 01e1 32020000 		.4byte	0x232
 1096 01e5 02       		.uleb128 0x2
 1097 01e6 91       		.byte	0x91
 1098 01e7 60       		.sleb128 -32
 1099 01e8 10       		.uleb128 0x10
 1100 01e9 6900     		.ascii	"i\000"
 1101 01eb 01       		.byte	0x1
 1102 01ec A5       		.byte	0xa5
 1103 01ed 9E000000 		.4byte	0x9e
 1104 01f1 02       		.uleb128 0x2
 1105 01f2 91       		.byte	0x91
 1106 01f3 74       		.sleb128 -12
 1107 01f4 10       		.uleb128 0x10
 1108 01f5 6A00     		.ascii	"j\000"
 1109 01f7 01       		.byte	0x1
 1110 01f8 A5       		.byte	0xa5
 1111 01f9 9E000000 		.4byte	0x9e
 1112 01fd 02       		.uleb128 0x2
 1113 01fe 91       		.byte	0x91
 1114 01ff 70       		.sleb128 -16
 1115 0200 11       		.uleb128 0x11
 1116 0201 14000000 		.4byte	.LBB2
 1117 0205 5A000000 		.4byte	.LBE2-.LBB2
 1118 0209 12       		.uleb128 0x12
 1119 020a F8010000 		.4byte	.LASF29
 1120 020e 01       		.byte	0x1
 1121 020f A8       		.byte	0xa8
 1122 0210 9E000000 		.4byte	0x9e
 1123 0214 02       		.uleb128 0x2
 1124 0215 91       		.byte	0x91
 1125 0216 68       		.sleb128 -24
ARM GAS  C:\Users\Petro\AppData\Local\Temp\ccBe4H2c.s 			page 29


 1126 0217 12       		.uleb128 0x12
 1127 0218 34000000 		.4byte	.LASF30
 1128 021c 01       		.byte	0x1
 1129 021d A9       		.byte	0xa9
 1130 021e 86000000 		.4byte	0x86
 1131 0222 02       		.uleb128 0x2
 1132 0223 91       		.byte	0x91
 1133 0224 6F       		.sleb128 -17
 1134 0225 00       		.byte	0
 1135 0226 00       		.byte	0
 1136 0227 0D       		.uleb128 0xd
 1137 0228 04       		.byte	0x4
 1138 0229 2D020000 		.4byte	0x22d
 1139 022d 13       		.uleb128 0x13
 1140 022e 9E000000 		.4byte	0x9e
 1141 0232 0D       		.uleb128 0xd
 1142 0233 04       		.byte	0x4
 1143 0234 38020000 		.4byte	0x238
 1144 0238 13       		.uleb128 0x13
 1145 0239 FB000000 		.4byte	0xfb
 1146 023d 14       		.uleb128 0x14
 1147 023e 3A000000 		.4byte	.LASF31
 1148 0242 01       		.byte	0x1
 1149 0243 C7       		.byte	0xc7
 1150 0244 00000000 		.4byte	.LFB6
 1151 0248 88010000 		.4byte	.LFE6-.LFB6
 1152 024c 01       		.uleb128 0x1
 1153 024d 9C       		.byte	0x9c
 1154 024e 15       		.uleb128 0x15
 1155 024f 1D000000 		.4byte	.LASF32
 1156 0253 01       		.byte	0x1
 1157 0254 2101     		.2byte	0x121
 1158 0256 00000000 		.4byte	.LFB7
 1159 025a 44000000 		.4byte	.LFE7-.LFB7
 1160 025e 01       		.uleb128 0x1
 1161 025f 9C       		.byte	0x9c
 1162 0260 16       		.uleb128 0x16
 1163 0261 C3000000 		.4byte	.LASF35
 1164 0265 01       		.byte	0x1
 1165 0266 3C01     		.2byte	0x13c
 1166 0268 00000000 		.4byte	.LFB8
 1167 026c 40000000 		.4byte	.LFE8-.LFB8
 1168 0270 01       		.uleb128 0x1
 1169 0271 9C       		.byte	0x9c
 1170 0272 95020000 		.4byte	0x295
 1171 0276 17       		.uleb128 0x17
 1172 0277 9D020000 		.4byte	.LASF33
 1173 027b 01       		.byte	0x1
 1174 027c 3C01     		.2byte	0x13c
 1175 027e 86000000 		.4byte	0x86
 1176 0282 02       		.uleb128 0x2
 1177 0283 91       		.byte	0x91
 1178 0284 6F       		.sleb128 -17
 1179 0285 18       		.uleb128 0x18
 1180 0286 E0020000 		.4byte	.LASF34
 1181 028a 01       		.byte	0x1
 1182 028b 3E01     		.2byte	0x13e
ARM GAS  C:\Users\Petro\AppData\Local\Temp\ccBe4H2c.s 			page 30


 1183 028d 9E000000 		.4byte	0x9e
 1184 0291 02       		.uleb128 0x2
 1185 0292 91       		.byte	0x91
 1186 0293 74       		.sleb128 -12
 1187 0294 00       		.byte	0
 1188 0295 19       		.uleb128 0x19
 1189 0296 00010000 		.4byte	.LASF36
 1190 029a 01       		.byte	0x1
 1191 029b 5E01     		.2byte	0x15e
 1192 029d 88010000 		.4byte	.LFB9
 1193 02a1 94010000 		.4byte	.LFE9-.LFB9
 1194 02a5 01       		.uleb128 0x1
 1195 02a6 9C       		.byte	0x9c
 1196 02a7 61030000 		.4byte	0x361
 1197 02ab 11       		.uleb128 0x11
 1198 02ac 9C010000 		.4byte	.LBB3
 1199 02b0 CC000000 		.4byte	.LBE3-.LBB3
 1200 02b4 18       		.uleb128 0x18
 1201 02b5 45000000 		.4byte	.LASF37
 1202 02b9 01       		.byte	0x1
 1203 02ba 6801     		.2byte	0x168
 1204 02bc 71030000 		.4byte	0x371
 1205 02c0 05       		.uleb128 0x5
 1206 02c1 03       		.byte	0x3
 1207 02c2 0C000000 		.4byte	cy_cfg_addr_table.4784
 1208 02c6 18       		.uleb128 0x18
 1209 02c7 57000000 		.4byte	.LASF38
 1210 02cb 01       		.byte	0x1
 1211 02cc 6F01     		.2byte	0x16f
 1212 02ce 86030000 		.4byte	0x386
 1213 02d2 05       		.uleb128 0x5
 1214 02d3 03       		.byte	0x3
 1215 02d4 1C000000 		.4byte	cy_cfg_data_table.4785
 1216 02d8 1A       		.uleb128 0x1a
 1217 02d9 06       		.byte	0x6
 1218 02da 01       		.byte	0x1
 1219 02db 8601     		.2byte	0x186
 1220 02dd FC020000 		.4byte	0x2fc
 1221 02e1 1B       		.uleb128 0x1b
 1222 02e2 CC010000 		.4byte	.LASF39
 1223 02e6 01       		.byte	0x1
 1224 02e7 8701     		.2byte	0x187
 1225 02e9 7D000000 		.4byte	0x7d
 1226 02ed 00       		.byte	0
 1227 02ee 1B       		.uleb128 0x1b
 1228 02ef 97000000 		.4byte	.LASF40
 1229 02f3 01       		.byte	0x1
 1230 02f4 8801     		.2byte	0x188
 1231 02f6 92000000 		.4byte	0x92
 1232 02fa 04       		.byte	0x4
 1233 02fb 00       		.byte	0
 1234 02fc 06       		.uleb128 0x6
 1235 02fd EB010000 		.4byte	.LASF41
 1236 0301 01       		.byte	0x1
 1237 0302 8901     		.2byte	0x189
 1238 0304 D8020000 		.4byte	0x2d8
 1239 0308 1C       		.uleb128 0x1c
ARM GAS  C:\Users\Petro\AppData\Local\Temp\ccBe4H2c.s 			page 31


 1240 0309 FC020000 		.4byte	0x2fc
 1241 030d 18030000 		.4byte	0x318
 1242 0311 1D       		.uleb128 0x1d
 1243 0312 76000000 		.4byte	0x76
 1244 0316 01       		.byte	0x1
 1245 0317 00       		.byte	0
 1246 0318 18       		.uleb128 0x18
 1247 0319 87000000 		.4byte	.LASF42
 1248 031d 01       		.byte	0x1
 1249 031e 8B01     		.2byte	0x18b
 1250 0320 2A030000 		.4byte	0x32a
 1251 0324 05       		.uleb128 0x5
 1252 0325 03       		.byte	0x3
 1253 0326 00000000 		.4byte	cfg_memset_list.4790
 1254 032a 13       		.uleb128 0x13
 1255 032b 08030000 		.4byte	0x308
 1256 032f 1E       		.uleb128 0x1e
 1257 0330 6900     		.ascii	"i\000"
 1258 0332 01       		.byte	0x1
 1259 0333 9101     		.2byte	0x191
 1260 0335 86000000 		.4byte	0x86
 1261 0339 02       		.uleb128 0x2
 1262 033a 91       		.byte	0x91
 1263 033b 77       		.sleb128 -9
 1264 033c 11       		.uleb128 0x11
 1265 033d A4010000 		.4byte	.LBB4
 1266 0341 3E000000 		.4byte	.LBE4-.LBB4
 1267 0345 1E       		.uleb128 0x1e
 1268 0346 6D7300   		.ascii	"ms\000"
 1269 0349 01       		.byte	0x1
 1270 034a 9601     		.2byte	0x196
 1271 034c 53030000 		.4byte	0x353
 1272 0350 02       		.uleb128 0x2
 1273 0351 91       		.byte	0x91
 1274 0352 70       		.sleb128 -16
 1275 0353 0D       		.uleb128 0xd
 1276 0354 04       		.byte	0x4
 1277 0355 59030000 		.4byte	0x359
 1278 0359 13       		.uleb128 0x13
 1279 035a FC020000 		.4byte	0x2fc
 1280 035e 00       		.byte	0
 1281 035f 00       		.byte	0
 1282 0360 00       		.byte	0
 1283 0361 1C       		.uleb128 0x1c
 1284 0362 9E000000 		.4byte	0x9e
 1285 0366 71030000 		.4byte	0x371
 1286 036a 1D       		.uleb128 0x1d
 1287 036b 76000000 		.4byte	0x76
 1288 036f 03       		.byte	0x3
 1289 0370 00       		.byte	0
 1290 0371 13       		.uleb128 0x13
 1291 0372 61030000 		.4byte	0x361
 1292 0376 1C       		.uleb128 0x1c
 1293 0377 FB000000 		.4byte	0xfb
 1294 037b 86030000 		.4byte	0x386
 1295 037f 1D       		.uleb128 0x1d
 1296 0380 76000000 		.4byte	0x76
ARM GAS  C:\Users\Petro\AppData\Local\Temp\ccBe4H2c.s 			page 32


 1297 0384 11       		.byte	0x11
 1298 0385 00       		.byte	0
 1299 0386 13       		.uleb128 0x13
 1300 0387 76030000 		.4byte	0x376
 1301 038b 00       		.byte	0
 1302              		.section	.debug_abbrev,"",%progbits
 1303              	.Ldebug_abbrev0:
 1304 0000 01       		.uleb128 0x1
 1305 0001 11       		.uleb128 0x11
 1306 0002 01       		.byte	0x1
 1307 0003 25       		.uleb128 0x25
 1308 0004 0E       		.uleb128 0xe
 1309 0005 13       		.uleb128 0x13
 1310 0006 0B       		.uleb128 0xb
 1311 0007 03       		.uleb128 0x3
 1312 0008 0E       		.uleb128 0xe
 1313 0009 1B       		.uleb128 0x1b
 1314 000a 0E       		.uleb128 0xe
 1315 000b 55       		.uleb128 0x55
 1316 000c 17       		.uleb128 0x17
 1317 000d 11       		.uleb128 0x11
 1318 000e 01       		.uleb128 0x1
 1319 000f 10       		.uleb128 0x10
 1320 0010 17       		.uleb128 0x17
 1321 0011 00       		.byte	0
 1322 0012 00       		.byte	0
 1323 0013 02       		.uleb128 0x2
 1324 0014 24       		.uleb128 0x24
 1325 0015 00       		.byte	0
 1326 0016 0B       		.uleb128 0xb
 1327 0017 0B       		.uleb128 0xb
 1328 0018 3E       		.uleb128 0x3e
 1329 0019 0B       		.uleb128 0xb
 1330 001a 03       		.uleb128 0x3
 1331 001b 08       		.uleb128 0x8
 1332 001c 00       		.byte	0
 1333 001d 00       		.byte	0
 1334 001e 03       		.uleb128 0x3
 1335 001f 16       		.uleb128 0x16
 1336 0020 00       		.byte	0
 1337 0021 03       		.uleb128 0x3
 1338 0022 0E       		.uleb128 0xe
 1339 0023 3A       		.uleb128 0x3a
 1340 0024 0B       		.uleb128 0xb
 1341 0025 3B       		.uleb128 0x3b
 1342 0026 0B       		.uleb128 0xb
 1343 0027 49       		.uleb128 0x49
 1344 0028 13       		.uleb128 0x13
 1345 0029 00       		.byte	0
 1346 002a 00       		.byte	0
 1347 002b 04       		.uleb128 0x4
 1348 002c 24       		.uleb128 0x24
 1349 002d 00       		.byte	0
 1350 002e 0B       		.uleb128 0xb
 1351 002f 0B       		.uleb128 0xb
 1352 0030 3E       		.uleb128 0x3e
 1353 0031 0B       		.uleb128 0xb
ARM GAS  C:\Users\Petro\AppData\Local\Temp\ccBe4H2c.s 			page 33


 1354 0032 03       		.uleb128 0x3
 1355 0033 0E       		.uleb128 0xe
 1356 0034 00       		.byte	0
 1357 0035 00       		.byte	0
 1358 0036 05       		.uleb128 0x5
 1359 0037 0F       		.uleb128 0xf
 1360 0038 00       		.byte	0
 1361 0039 0B       		.uleb128 0xb
 1362 003a 0B       		.uleb128 0xb
 1363 003b 00       		.byte	0
 1364 003c 00       		.byte	0
 1365 003d 06       		.uleb128 0x6
 1366 003e 16       		.uleb128 0x16
 1367 003f 00       		.byte	0
 1368 0040 03       		.uleb128 0x3
 1369 0041 0E       		.uleb128 0xe
 1370 0042 3A       		.uleb128 0x3a
 1371 0043 0B       		.uleb128 0xb
 1372 0044 3B       		.uleb128 0x3b
 1373 0045 05       		.uleb128 0x5
 1374 0046 49       		.uleb128 0x49
 1375 0047 13       		.uleb128 0x13
 1376 0048 00       		.byte	0
 1377 0049 00       		.byte	0
 1378 004a 07       		.uleb128 0x7
 1379 004b 35       		.uleb128 0x35
 1380 004c 00       		.byte	0
 1381 004d 49       		.uleb128 0x49
 1382 004e 13       		.uleb128 0x13
 1383 004f 00       		.byte	0
 1384 0050 00       		.byte	0
 1385 0051 08       		.uleb128 0x8
 1386 0052 13       		.uleb128 0x13
 1387 0053 01       		.byte	0x1
 1388 0054 0B       		.uleb128 0xb
 1389 0055 0B       		.uleb128 0xb
 1390 0056 3A       		.uleb128 0x3a
 1391 0057 0B       		.uleb128 0xb
 1392 0058 3B       		.uleb128 0x3b
 1393 0059 0B       		.uleb128 0xb
 1394 005a 01       		.uleb128 0x1
 1395 005b 13       		.uleb128 0x13
 1396 005c 00       		.byte	0
 1397 005d 00       		.byte	0
 1398 005e 09       		.uleb128 0x9
 1399 005f 0D       		.uleb128 0xd
 1400 0060 00       		.byte	0
 1401 0061 03       		.uleb128 0x3
 1402 0062 0E       		.uleb128 0xe
 1403 0063 3A       		.uleb128 0x3a
 1404 0064 0B       		.uleb128 0xb
 1405 0065 3B       		.uleb128 0x3b
 1406 0066 0B       		.uleb128 0xb
 1407 0067 49       		.uleb128 0x49
 1408 0068 13       		.uleb128 0x13
 1409 0069 38       		.uleb128 0x38
 1410 006a 0B       		.uleb128 0xb
ARM GAS  C:\Users\Petro\AppData\Local\Temp\ccBe4H2c.s 			page 34


 1411 006b 00       		.byte	0
 1412 006c 00       		.byte	0
 1413 006d 0A       		.uleb128 0xa
 1414 006e 2E       		.uleb128 0x2e
 1415 006f 01       		.byte	0x1
 1416 0070 03       		.uleb128 0x3
 1417 0071 0E       		.uleb128 0xe
 1418 0072 3A       		.uleb128 0x3a
 1419 0073 0B       		.uleb128 0xb
 1420 0074 3B       		.uleb128 0x3b
 1421 0075 0B       		.uleb128 0xb
 1422 0076 27       		.uleb128 0x27
 1423 0077 19       		.uleb128 0x19
 1424 0078 11       		.uleb128 0x11
 1425 0079 01       		.uleb128 0x1
 1426 007a 12       		.uleb128 0x12
 1427 007b 06       		.uleb128 0x6
 1428 007c 40       		.uleb128 0x40
 1429 007d 18       		.uleb128 0x18
 1430 007e 9642     		.uleb128 0x2116
 1431 0080 19       		.uleb128 0x19
 1432 0081 01       		.uleb128 0x1
 1433 0082 13       		.uleb128 0x13
 1434 0083 00       		.byte	0
 1435 0084 00       		.byte	0
 1436 0085 0B       		.uleb128 0xb
 1437 0086 05       		.uleb128 0x5
 1438 0087 00       		.byte	0
 1439 0088 03       		.uleb128 0x3
 1440 0089 08       		.uleb128 0x8
 1441 008a 3A       		.uleb128 0x3a
 1442 008b 0B       		.uleb128 0xb
 1443 008c 3B       		.uleb128 0x3b
 1444 008d 0B       		.uleb128 0xb
 1445 008e 49       		.uleb128 0x49
 1446 008f 13       		.uleb128 0x13
 1447 0090 02       		.uleb128 0x2
 1448 0091 18       		.uleb128 0x18
 1449 0092 00       		.byte	0
 1450 0093 00       		.byte	0
 1451 0094 0C       		.uleb128 0xc
 1452 0095 05       		.uleb128 0x5
 1453 0096 00       		.byte	0
 1454 0097 03       		.uleb128 0x3
 1455 0098 0E       		.uleb128 0xe
 1456 0099 3A       		.uleb128 0x3a
 1457 009a 0B       		.uleb128 0xb
 1458 009b 3B       		.uleb128 0x3b
 1459 009c 0B       		.uleb128 0xb
 1460 009d 49       		.uleb128 0x49
 1461 009e 13       		.uleb128 0x13
 1462 009f 02       		.uleb128 0x2
 1463 00a0 18       		.uleb128 0x18
 1464 00a1 00       		.byte	0
 1465 00a2 00       		.byte	0
 1466 00a3 0D       		.uleb128 0xd
 1467 00a4 0F       		.uleb128 0xf
ARM GAS  C:\Users\Petro\AppData\Local\Temp\ccBe4H2c.s 			page 35


 1468 00a5 00       		.byte	0
 1469 00a6 0B       		.uleb128 0xb
 1470 00a7 0B       		.uleb128 0xb
 1471 00a8 49       		.uleb128 0x49
 1472 00a9 13       		.uleb128 0x13
 1473 00aa 00       		.byte	0
 1474 00ab 00       		.byte	0
 1475 00ac 0E       		.uleb128 0xe
 1476 00ad 26       		.uleb128 0x26
 1477 00ae 00       		.byte	0
 1478 00af 00       		.byte	0
 1479 00b0 00       		.byte	0
 1480 00b1 0F       		.uleb128 0xf
 1481 00b2 2E       		.uleb128 0x2e
 1482 00b3 01       		.byte	0x1
 1483 00b4 03       		.uleb128 0x3
 1484 00b5 0E       		.uleb128 0xe
 1485 00b6 3A       		.uleb128 0x3a
 1486 00b7 0B       		.uleb128 0xb
 1487 00b8 3B       		.uleb128 0x3b
 1488 00b9 0B       		.uleb128 0xb
 1489 00ba 27       		.uleb128 0x27
 1490 00bb 19       		.uleb128 0x19
 1491 00bc 11       		.uleb128 0x11
 1492 00bd 01       		.uleb128 0x1
 1493 00be 12       		.uleb128 0x12
 1494 00bf 06       		.uleb128 0x6
 1495 00c0 40       		.uleb128 0x40
 1496 00c1 18       		.uleb128 0x18
 1497 00c2 9742     		.uleb128 0x2117
 1498 00c4 19       		.uleb128 0x19
 1499 00c5 01       		.uleb128 0x1
 1500 00c6 13       		.uleb128 0x13
 1501 00c7 00       		.byte	0
 1502 00c8 00       		.byte	0
 1503 00c9 10       		.uleb128 0x10
 1504 00ca 34       		.uleb128 0x34
 1505 00cb 00       		.byte	0
 1506 00cc 03       		.uleb128 0x3
 1507 00cd 08       		.uleb128 0x8
 1508 00ce 3A       		.uleb128 0x3a
 1509 00cf 0B       		.uleb128 0xb
 1510 00d0 3B       		.uleb128 0x3b
 1511 00d1 0B       		.uleb128 0xb
 1512 00d2 49       		.uleb128 0x49
 1513 00d3 13       		.uleb128 0x13
 1514 00d4 02       		.uleb128 0x2
 1515 00d5 18       		.uleb128 0x18
 1516 00d6 00       		.byte	0
 1517 00d7 00       		.byte	0
 1518 00d8 11       		.uleb128 0x11
 1519 00d9 0B       		.uleb128 0xb
 1520 00da 01       		.byte	0x1
 1521 00db 11       		.uleb128 0x11
 1522 00dc 01       		.uleb128 0x1
 1523 00dd 12       		.uleb128 0x12
 1524 00de 06       		.uleb128 0x6
ARM GAS  C:\Users\Petro\AppData\Local\Temp\ccBe4H2c.s 			page 36


 1525 00df 00       		.byte	0
 1526 00e0 00       		.byte	0
 1527 00e1 12       		.uleb128 0x12
 1528 00e2 34       		.uleb128 0x34
 1529 00e3 00       		.byte	0
 1530 00e4 03       		.uleb128 0x3
 1531 00e5 0E       		.uleb128 0xe
 1532 00e6 3A       		.uleb128 0x3a
 1533 00e7 0B       		.uleb128 0xb
 1534 00e8 3B       		.uleb128 0x3b
 1535 00e9 0B       		.uleb128 0xb
 1536 00ea 49       		.uleb128 0x49
 1537 00eb 13       		.uleb128 0x13
 1538 00ec 02       		.uleb128 0x2
 1539 00ed 18       		.uleb128 0x18
 1540 00ee 00       		.byte	0
 1541 00ef 00       		.byte	0
 1542 00f0 13       		.uleb128 0x13
 1543 00f1 26       		.uleb128 0x26
 1544 00f2 00       		.byte	0
 1545 00f3 49       		.uleb128 0x49
 1546 00f4 13       		.uleb128 0x13
 1547 00f5 00       		.byte	0
 1548 00f6 00       		.byte	0
 1549 00f7 14       		.uleb128 0x14
 1550 00f8 2E       		.uleb128 0x2e
 1551 00f9 00       		.byte	0
 1552 00fa 03       		.uleb128 0x3
 1553 00fb 0E       		.uleb128 0xe
 1554 00fc 3A       		.uleb128 0x3a
 1555 00fd 0B       		.uleb128 0xb
 1556 00fe 3B       		.uleb128 0x3b
 1557 00ff 0B       		.uleb128 0xb
 1558 0100 27       		.uleb128 0x27
 1559 0101 19       		.uleb128 0x19
 1560 0102 11       		.uleb128 0x11
 1561 0103 01       		.uleb128 0x1
 1562 0104 12       		.uleb128 0x12
 1563 0105 06       		.uleb128 0x6
 1564 0106 40       		.uleb128 0x40
 1565 0107 18       		.uleb128 0x18
 1566 0108 9642     		.uleb128 0x2116
 1567 010a 19       		.uleb128 0x19
 1568 010b 00       		.byte	0
 1569 010c 00       		.byte	0
 1570 010d 15       		.uleb128 0x15
 1571 010e 2E       		.uleb128 0x2e
 1572 010f 00       		.byte	0
 1573 0110 03       		.uleb128 0x3
 1574 0111 0E       		.uleb128 0xe
 1575 0112 3A       		.uleb128 0x3a
 1576 0113 0B       		.uleb128 0xb
 1577 0114 3B       		.uleb128 0x3b
 1578 0115 05       		.uleb128 0x5
 1579 0116 27       		.uleb128 0x27
 1580 0117 19       		.uleb128 0x19
 1581 0118 11       		.uleb128 0x11
ARM GAS  C:\Users\Petro\AppData\Local\Temp\ccBe4H2c.s 			page 37


 1582 0119 01       		.uleb128 0x1
 1583 011a 12       		.uleb128 0x12
 1584 011b 06       		.uleb128 0x6
 1585 011c 40       		.uleb128 0x40
 1586 011d 18       		.uleb128 0x18
 1587 011e 9642     		.uleb128 0x2116
 1588 0120 19       		.uleb128 0x19
 1589 0121 00       		.byte	0
 1590 0122 00       		.byte	0
 1591 0123 16       		.uleb128 0x16
 1592 0124 2E       		.uleb128 0x2e
 1593 0125 01       		.byte	0x1
 1594 0126 3F       		.uleb128 0x3f
 1595 0127 19       		.uleb128 0x19
 1596 0128 03       		.uleb128 0x3
 1597 0129 0E       		.uleb128 0xe
 1598 012a 3A       		.uleb128 0x3a
 1599 012b 0B       		.uleb128 0xb
 1600 012c 3B       		.uleb128 0x3b
 1601 012d 05       		.uleb128 0x5
 1602 012e 27       		.uleb128 0x27
 1603 012f 19       		.uleb128 0x19
 1604 0130 11       		.uleb128 0x11
 1605 0131 01       		.uleb128 0x1
 1606 0132 12       		.uleb128 0x12
 1607 0133 06       		.uleb128 0x6
 1608 0134 40       		.uleb128 0x40
 1609 0135 18       		.uleb128 0x18
 1610 0136 9742     		.uleb128 0x2117
 1611 0138 19       		.uleb128 0x19
 1612 0139 01       		.uleb128 0x1
 1613 013a 13       		.uleb128 0x13
 1614 013b 00       		.byte	0
 1615 013c 00       		.byte	0
 1616 013d 17       		.uleb128 0x17
 1617 013e 05       		.uleb128 0x5
 1618 013f 00       		.byte	0
 1619 0140 03       		.uleb128 0x3
 1620 0141 0E       		.uleb128 0xe
 1621 0142 3A       		.uleb128 0x3a
 1622 0143 0B       		.uleb128 0xb
 1623 0144 3B       		.uleb128 0x3b
 1624 0145 05       		.uleb128 0x5
 1625 0146 49       		.uleb128 0x49
 1626 0147 13       		.uleb128 0x13
 1627 0148 02       		.uleb128 0x2
 1628 0149 18       		.uleb128 0x18
 1629 014a 00       		.byte	0
 1630 014b 00       		.byte	0
 1631 014c 18       		.uleb128 0x18
 1632 014d 34       		.uleb128 0x34
 1633 014e 00       		.byte	0
 1634 014f 03       		.uleb128 0x3
 1635 0150 0E       		.uleb128 0xe
 1636 0151 3A       		.uleb128 0x3a
 1637 0152 0B       		.uleb128 0xb
 1638 0153 3B       		.uleb128 0x3b
ARM GAS  C:\Users\Petro\AppData\Local\Temp\ccBe4H2c.s 			page 38


 1639 0154 05       		.uleb128 0x5
 1640 0155 49       		.uleb128 0x49
 1641 0156 13       		.uleb128 0x13
 1642 0157 02       		.uleb128 0x2
 1643 0158 18       		.uleb128 0x18
 1644 0159 00       		.byte	0
 1645 015a 00       		.byte	0
 1646 015b 19       		.uleb128 0x19
 1647 015c 2E       		.uleb128 0x2e
 1648 015d 01       		.byte	0x1
 1649 015e 3F       		.uleb128 0x3f
 1650 015f 19       		.uleb128 0x19
 1651 0160 03       		.uleb128 0x3
 1652 0161 0E       		.uleb128 0xe
 1653 0162 3A       		.uleb128 0x3a
 1654 0163 0B       		.uleb128 0xb
 1655 0164 3B       		.uleb128 0x3b
 1656 0165 05       		.uleb128 0x5
 1657 0166 27       		.uleb128 0x27
 1658 0167 19       		.uleb128 0x19
 1659 0168 11       		.uleb128 0x11
 1660 0169 01       		.uleb128 0x1
 1661 016a 12       		.uleb128 0x12
 1662 016b 06       		.uleb128 0x6
 1663 016c 40       		.uleb128 0x40
 1664 016d 18       		.uleb128 0x18
 1665 016e 9642     		.uleb128 0x2116
 1666 0170 19       		.uleb128 0x19
 1667 0171 01       		.uleb128 0x1
 1668 0172 13       		.uleb128 0x13
 1669 0173 00       		.byte	0
 1670 0174 00       		.byte	0
 1671 0175 1A       		.uleb128 0x1a
 1672 0176 13       		.uleb128 0x13
 1673 0177 01       		.byte	0x1
 1674 0178 0B       		.uleb128 0xb
 1675 0179 0B       		.uleb128 0xb
 1676 017a 3A       		.uleb128 0x3a
 1677 017b 0B       		.uleb128 0xb
 1678 017c 3B       		.uleb128 0x3b
 1679 017d 05       		.uleb128 0x5
 1680 017e 01       		.uleb128 0x1
 1681 017f 13       		.uleb128 0x13
 1682 0180 00       		.byte	0
 1683 0181 00       		.byte	0
 1684 0182 1B       		.uleb128 0x1b
 1685 0183 0D       		.uleb128 0xd
 1686 0184 00       		.byte	0
 1687 0185 03       		.uleb128 0x3
 1688 0186 0E       		.uleb128 0xe
 1689 0187 3A       		.uleb128 0x3a
 1690 0188 0B       		.uleb128 0xb
 1691 0189 3B       		.uleb128 0x3b
 1692 018a 05       		.uleb128 0x5
 1693 018b 49       		.uleb128 0x49
 1694 018c 13       		.uleb128 0x13
 1695 018d 38       		.uleb128 0x38
ARM GAS  C:\Users\Petro\AppData\Local\Temp\ccBe4H2c.s 			page 39


 1696 018e 0B       		.uleb128 0xb
 1697 018f 00       		.byte	0
 1698 0190 00       		.byte	0
 1699 0191 1C       		.uleb128 0x1c
 1700 0192 01       		.uleb128 0x1
 1701 0193 01       		.byte	0x1
 1702 0194 49       		.uleb128 0x49
 1703 0195 13       		.uleb128 0x13
 1704 0196 01       		.uleb128 0x1
 1705 0197 13       		.uleb128 0x13
 1706 0198 00       		.byte	0
 1707 0199 00       		.byte	0
 1708 019a 1D       		.uleb128 0x1d
 1709 019b 21       		.uleb128 0x21
 1710 019c 00       		.byte	0
 1711 019d 49       		.uleb128 0x49
 1712 019e 13       		.uleb128 0x13
 1713 019f 2F       		.uleb128 0x2f
 1714 01a0 0B       		.uleb128 0xb
 1715 01a1 00       		.byte	0
 1716 01a2 00       		.byte	0
 1717 01a3 1E       		.uleb128 0x1e
 1718 01a4 34       		.uleb128 0x34
 1719 01a5 00       		.byte	0
 1720 01a6 03       		.uleb128 0x3
 1721 01a7 08       		.uleb128 0x8
 1722 01a8 3A       		.uleb128 0x3a
 1723 01a9 0B       		.uleb128 0xb
 1724 01aa 3B       		.uleb128 0x3b
 1725 01ab 05       		.uleb128 0x5
 1726 01ac 49       		.uleb128 0x49
 1727 01ad 13       		.uleb128 0x13
 1728 01ae 02       		.uleb128 0x2
 1729 01af 18       		.uleb128 0x18
 1730 01b0 00       		.byte	0
 1731 01b1 00       		.byte	0
 1732 01b2 00       		.byte	0
 1733              		.section	.debug_aranges,"",%progbits
 1734 0000 54000000 		.4byte	0x54
 1735 0004 0200     		.2byte	0x2
 1736 0006 00000000 		.4byte	.Ldebug_info0
 1737 000a 04       		.byte	0x4
 1738 000b 00       		.byte	0
 1739 000c 0000     		.2byte	0
 1740 000e 0000     		.2byte	0
 1741 0010 00000000 		.4byte	.LFB2
 1742 0014 1E000000 		.4byte	.LFE2-.LFB2
 1743 0018 00000000 		.4byte	.LFB3
 1744 001c 22000000 		.4byte	.LFE3-.LFB3
 1745 0020 00000000 		.4byte	.LFB4
 1746 0024 22000000 		.4byte	.LFE4-.LFB4
 1747 0028 00000000 		.4byte	.LFB5
 1748 002c 80000000 		.4byte	.LFE5-.LFB5
 1749 0030 00000000 		.4byte	.LFB6
 1750 0034 88010000 		.4byte	.LFE6-.LFB6
 1751 0038 00000000 		.4byte	.LFB7
 1752 003c 44000000 		.4byte	.LFE7-.LFB7
ARM GAS  C:\Users\Petro\AppData\Local\Temp\ccBe4H2c.s 			page 40


 1753 0040 00000000 		.4byte	.LFB8
 1754 0044 40000000 		.4byte	.LFE8-.LFB8
 1755 0048 88010000 		.4byte	.LFB9
 1756 004c 94010000 		.4byte	.LFE9-.LFB9
 1757 0050 00000000 		.4byte	0
 1758 0054 00000000 		.4byte	0
 1759              		.section	.debug_ranges,"",%progbits
 1760              	.Ldebug_ranges0:
 1761 0000 00000000 		.4byte	.LFB2
 1762 0004 1E000000 		.4byte	.LFE2
 1763 0008 00000000 		.4byte	.LFB3
 1764 000c 22000000 		.4byte	.LFE3
 1765 0010 00000000 		.4byte	.LFB4
 1766 0014 22000000 		.4byte	.LFE4
 1767 0018 00000000 		.4byte	.LFB5
 1768 001c 80000000 		.4byte	.LFE5
 1769 0020 00000000 		.4byte	.LFB6
 1770 0024 88010000 		.4byte	.LFE6
 1771 0028 00000000 		.4byte	.LFB7
 1772 002c 44000000 		.4byte	.LFE7
 1773 0030 00000000 		.4byte	.LFB8
 1774 0034 40000000 		.4byte	.LFE8
 1775 0038 88010000 		.4byte	.LFB9
 1776 003c 1C030000 		.4byte	.LFE9
 1777 0040 00000000 		.4byte	0
 1778 0044 00000000 		.4byte	0
 1779              		.section	.debug_line,"",%progbits
 1780              	.Ldebug_line0:
 1781 0000 D2010000 		.section	.debug_str,"MS",%progbits,1
 1781      0200CB00 
 1781      00000201 
 1781      FB0E0D00 
 1781      01010101 
 1782              	.LASF25:
 1783 0000 4359434F 		.ascii	"CYCONFIGCPYCODE\000"
 1783      4E464947 
 1783      43505943 
 1783      4F444500 
 1784              	.LASF18:
 1785 0010 72656733 		.ascii	"reg32\000"
 1785      3200
 1786              	.LASF11:
 1787 0016 73697A65 		.ascii	"size_t\000"
 1787      5F7400
 1788              	.LASF32:
 1789 001d 416E616C 		.ascii	"AnalogSetDefault\000"
 1789      6F675365 
 1789      74446566 
 1789      61756C74 
 1789      00
 1790              	.LASF20:
 1791 002e 76616C75 		.ascii	"value\000"
 1791      6500
 1792              	.LASF30:
 1793 0034 636F756E 		.ascii	"count\000"
 1793      7400
 1794              	.LASF31:
ARM GAS  C:\Users\Petro\AppData\Local\Temp\ccBe4H2c.s 			page 41


 1795 003a 436C6F63 		.ascii	"ClockSetup\000"
 1795      6B536574 
 1795      757000
 1796              	.LASF37:
 1797 0045 63795F63 		.ascii	"cy_cfg_addr_table\000"
 1797      66675F61 
 1797      6464725F 
 1797      7461626C 
 1797      6500
 1798              	.LASF38:
 1799 0057 63795F63 		.ascii	"cy_cfg_data_table\000"
 1799      66675F64 
 1799      6174615F 
 1799      7461626C 
 1799      6500
 1800              	.LASF21:
 1801 0069 63795F63 		.ascii	"cy_cfg_addrvalue_t\000"
 1801      66675F61 
 1801      64647276 
 1801      616C7565 
 1801      5F7400
 1802              	.LASF15:
 1803 007c 666C6F61 		.ascii	"float\000"
 1803      7400
 1804              	.LASF24:
 1805 0082 64657374 		.ascii	"dest\000"
 1805      00
 1806              	.LASF42:
 1807 0087 6366675F 		.ascii	"cfg_memset_list\000"
 1807      6D656D73 
 1807      65745F6C 
 1807      69737400 
 1808              	.LASF40:
 1809 0097 73697A65 		.ascii	"size\000"
 1809      00
 1810              	.LASF17:
 1811 009c 72656738 		.ascii	"reg8\000"
 1811      00
 1812              	.LASF6:
 1813 00a1 6C6F6E67 		.ascii	"long unsigned int\000"
 1813      20756E73 
 1813      69676E65 
 1813      6420696E 
 1813      7400
 1814              	.LASF12:
 1815 00b3 75696E74 		.ascii	"uint8\000"
 1815      3800
 1816              	.LASF22:
 1817 00b9 43594D45 		.ascii	"CYMEMZERO\000"
 1817      4D5A4552 
 1817      4F00
 1818              	.LASF35:
 1819 00c3 53657441 		.ascii	"SetAnalogRoutingPumps\000"
 1819      6E616C6F 
 1819      67526F75 
 1819      74696E67 
 1819      50756D70 
ARM GAS  C:\Users\Petro\AppData\Local\Temp\ccBe4H2c.s 			page 42


 1820              	.LASF2:
 1821 00d9 756E7369 		.ascii	"unsigned char\000"
 1821      676E6564 
 1821      20636861 
 1821      7200
 1822              	.LASF16:
 1823 00e7 646F7562 		.ascii	"double\000"
 1823      6C6500
 1824              	.LASF26:
 1825 00ee 6366675F 		.ascii	"cfg_write_bytes32\000"
 1825      77726974 
 1825      655F6279 
 1825      74657333 
 1825      3200
 1826              	.LASF36:
 1827 0100 63796669 		.ascii	"cyfitter_cfg\000"
 1827      74746572 
 1827      5F636667 
 1827      00
 1828              	.LASF27:
 1829 010d 61646472 		.ascii	"addr_table\000"
 1829      5F746162 
 1829      6C6500
 1830              	.LASF13:
 1831 0118 75696E74 		.ascii	"uint16\000"
 1831      313600
 1832              	.LASF28:
 1833 011f 64617461 		.ascii	"data_table\000"
 1833      5F746162 
 1833      6C6500
 1834              	.LASF14:
 1835 012a 75696E74 		.ascii	"uint32\000"
 1835      333200
 1836              	.LASF43:
 1837 0131 474E5520 		.ascii	"GNU C 4.9.3 20150303 (release) [ARM/embedded-4_9-br"
 1837      4320342E 
 1837      392E3320 
 1837      32303135 
 1837      30333033 
 1838 0164 616E6368 		.ascii	"anch revision 221220] -mcpu=cortex-m0 -mthumb -g -O"
 1838      20726576 
 1838      6973696F 
 1838      6E203232 
 1838      31323230 
 1839 0197 30202D66 		.ascii	"0 -ffunction-sections -ffat-lto-objects\000"
 1839      66756E63 
 1839      74696F6E 
 1839      2D736563 
 1839      74696F6E 
 1840              	.LASF0:
 1841 01bf 756E7369 		.ascii	"unsigned int\000"
 1841      676E6564 
 1841      20696E74 
 1841      00
 1842              	.LASF39:
 1843 01cc 61646472 		.ascii	"address\000"
 1843      65737300 
ARM GAS  C:\Users\Petro\AppData\Local\Temp\ccBe4H2c.s 			page 43


 1844              	.LASF8:
 1845 01d4 6C6F6E67 		.ascii	"long long unsigned int\000"
 1845      206C6F6E 
 1845      6720756E 
 1845      7369676E 
 1845      65642069 
 1846              	.LASF41:
 1847 01eb 6366675F 		.ascii	"cfg_memset_t\000"
 1847      6D656D73 
 1847      65745F74 
 1847      00
 1848              	.LASF29:
 1849 01f8 62617365 		.ascii	"baseAddr\000"
 1849      41646472 
 1849      00
 1850              	.LASF9:
 1851 0201 73697A65 		.ascii	"sizetype\000"
 1851      74797065 
 1851      00
 1852              	.LASF4:
 1853 020a 73686F72 		.ascii	"short unsigned int\000"
 1853      7420756E 
 1853      7369676E 
 1853      65642069 
 1853      6E7400
 1854              	.LASF7:
 1855 021d 6C6F6E67 		.ascii	"long long int\000"
 1855      206C6F6E 
 1855      6720696E 
 1855      7400
 1856              	.LASF10:
 1857 022b 63686172 		.ascii	"char\000"
 1857      00
 1858              	.LASF45:
 1859 0230 443A5C43 		.ascii	"D:\\Cypress\\system-start-finish\\vesion 2\\fw\\sta"
 1859      79707265 
 1859      73735C73 
 1859      79737465 
 1859      6D2D7374 
 1860 025e 72745C73 		.ascii	"rt\\sandbox\\v9_testmode\\start_v9testmode.cydsn\000"
 1860      616E6462 
 1860      6F785C76 
 1860      395F7465 
 1860      73746D6F 
 1861              	.LASF19:
 1862 028c 6F666673 		.ascii	"offset\000"
 1862      657400
 1863              	.LASF3:
 1864 0293 73686F72 		.ascii	"short int\000"
 1864      7420696E 
 1864      7400
 1865              	.LASF33:
 1866 029d 656E6162 		.ascii	"enabled\000"
 1866      6C656400 
 1867              	.LASF5:
 1868 02a5 6C6F6E67 		.ascii	"long int\000"
 1868      20696E74 
ARM GAS  C:\Users\Petro\AppData\Local\Temp\ccBe4H2c.s 			page 44


 1868      00
 1869              	.LASF1:
 1870 02ae 7369676E 		.ascii	"signed char\000"
 1870      65642063 
 1870      68617200 
 1871              	.LASF44:
 1872 02ba 47656E65 		.ascii	"Generated_Source\\PSoC4\\cyfitter_cfg.c\000"
 1872      72617465 
 1872      645F536F 
 1872      75726365 
 1872      5C50536F 
 1873              	.LASF34:
 1874 02e0 72656756 		.ascii	"regValue\000"
 1874      616C7565 
 1874      00
 1875              	.LASF23:
 1876 02e9 4359434F 		.ascii	"CYCONFIGCPY\000"
 1876      4E464947 
 1876      43505900 
 1877              		.ident	"GCC: (GNU Tools for ARM Embedded Processors) 4.9.3 20150303 (release) [ARM/embedded-4_9-br
