ARM GAS  C:\Users\Petro\AppData\Local\Temp\ccBe4H2c.s 			page 1


   1              		.cpu cortex-m0
   2              		.fpu softvfp
   3              		.eabi_attribute 20, 1
   4              		.eabi_attribute 21, 1
   5              		.eabi_attribute 23, 3
   6              		.eabi_attribute 24, 1
   7              		.eabi_attribute 25, 1
   8              		.eabi_attribute 26, 1
   9              		.eabi_attribute 30, 6
  10              		.eabi_attribute 34, 0
  11              		.eabi_attribute 18, 4
  12              		.code	16
  13              		.file	"cyfitter_cfg.c"
  14              		.text
  15              	.Ltext0:
  16              		.cfi_sections	.debug_frame
  17              		.section	.text.CYMEMZERO,"ax",%progbits
  18              		.align	2
  19              		.code	16
  20              		.thumb_func
  21              		.type	CYMEMZERO, %function
  22              	CYMEMZERO:
  23              	.LFB2:
  24              		.file 1 "Generated_Source\\PSoC4\\cyfitter_cfg.c"
   1:Generated_Source\PSoC4/cyfitter_cfg.c **** /*******************************************************************************
   2:Generated_Source\PSoC4/cyfitter_cfg.c **** * File Name: cyfitter_cfg.c
   3:Generated_Source\PSoC4/cyfitter_cfg.c **** * 
   4:Generated_Source\PSoC4/cyfitter_cfg.c **** * PSoC Creator  4.0
   5:Generated_Source\PSoC4/cyfitter_cfg.c **** *
   6:Generated_Source\PSoC4/cyfitter_cfg.c **** * Description:
   7:Generated_Source\PSoC4/cyfitter_cfg.c **** * This file contains device initialization code.
   8:Generated_Source\PSoC4/cyfitter_cfg.c **** * Except for the user defined sections in CyClockStartupError(), this file should not be modified.
   9:Generated_Source\PSoC4/cyfitter_cfg.c **** * This file is automatically generated by PSoC Creator.
  10:Generated_Source\PSoC4/cyfitter_cfg.c **** *
  11:Generated_Source\PSoC4/cyfitter_cfg.c **** ********************************************************************************
  12:Generated_Source\PSoC4/cyfitter_cfg.c **** * Copyright (c) 2007-2016 Cypress Semiconductor.  All rights reserved.
  13:Generated_Source\PSoC4/cyfitter_cfg.c **** * You may use this file only in accordance with the license, terms, conditions, 
  14:Generated_Source\PSoC4/cyfitter_cfg.c **** * disclaimers, and limitations in the end user license agreement accompanying 
  15:Generated_Source\PSoC4/cyfitter_cfg.c **** * the software package with which this file was provided.
  16:Generated_Source\PSoC4/cyfitter_cfg.c **** ********************************************************************************/
  17:Generated_Source\PSoC4/cyfitter_cfg.c **** 
  18:Generated_Source\PSoC4/cyfitter_cfg.c **** #include <string.h>
  19:Generated_Source\PSoC4/cyfitter_cfg.c **** #include "cytypes.h"
  20:Generated_Source\PSoC4/cyfitter_cfg.c **** #include "cydevice_trm.h"
  21:Generated_Source\PSoC4/cyfitter_cfg.c **** #include "cyfitter.h"
  22:Generated_Source\PSoC4/cyfitter_cfg.c **** #include "CyLib.h"
  23:Generated_Source\PSoC4/cyfitter_cfg.c **** #include "CyLFClk.h"
  24:Generated_Source\PSoC4/cyfitter_cfg.c **** #include "cyfitter_cfg.h"
  25:Generated_Source\PSoC4/cyfitter_cfg.c **** #include "cyapicallbacks.h"
  26:Generated_Source\PSoC4/cyfitter_cfg.c **** 
  27:Generated_Source\PSoC4/cyfitter_cfg.c **** 
  28:Generated_Source\PSoC4/cyfitter_cfg.c **** #if defined(__GNUC__) || defined(__ARMCC_VERSION)
  29:Generated_Source\PSoC4/cyfitter_cfg.c ****     #define CYPACKED 
  30:Generated_Source\PSoC4/cyfitter_cfg.c ****     #define CYPACKED_ATTR __attribute__ ((packed))
  31:Generated_Source\PSoC4/cyfitter_cfg.c ****     #define CYALIGNED __attribute__ ((aligned))
  32:Generated_Source\PSoC4/cyfitter_cfg.c ****     #define CY_CFG_UNUSED __attribute__ ((unused))
  33:Generated_Source\PSoC4/cyfitter_cfg.c ****     #ifndef CY_CFG_SECTION
ARM GAS  C:\Users\Petro\AppData\Local\Temp\ccBe4H2c.s 			page 2


  34:Generated_Source\PSoC4/cyfitter_cfg.c ****         #define CY_CFG_SECTION __attribute__ ((section(".psocinit")))
  35:Generated_Source\PSoC4/cyfitter_cfg.c ****     #endif
  36:Generated_Source\PSoC4/cyfitter_cfg.c ****     
  37:Generated_Source\PSoC4/cyfitter_cfg.c ****     #if defined(__ARMCC_VERSION)
  38:Generated_Source\PSoC4/cyfitter_cfg.c ****         #define CY_CFG_MEMORY_BARRIER() __memory_changed()
  39:Generated_Source\PSoC4/cyfitter_cfg.c ****     #else
  40:Generated_Source\PSoC4/cyfitter_cfg.c ****         #define CY_CFG_MEMORY_BARRIER() __sync_synchronize()
  41:Generated_Source\PSoC4/cyfitter_cfg.c ****     #endif
  42:Generated_Source\PSoC4/cyfitter_cfg.c ****     
  43:Generated_Source\PSoC4/cyfitter_cfg.c **** #elif defined(__ICCARM__)
  44:Generated_Source\PSoC4/cyfitter_cfg.c ****     #include <intrinsics.h>
  45:Generated_Source\PSoC4/cyfitter_cfg.c **** 
  46:Generated_Source\PSoC4/cyfitter_cfg.c ****     #define CYPACKED __packed
  47:Generated_Source\PSoC4/cyfitter_cfg.c ****     #define CYPACKED_ATTR 
  48:Generated_Source\PSoC4/cyfitter_cfg.c ****     #define CYALIGNED _Pragma("data_alignment=4")
  49:Generated_Source\PSoC4/cyfitter_cfg.c ****     #define CY_CFG_UNUSED _Pragma("diag_suppress=Pe177")
  50:Generated_Source\PSoC4/cyfitter_cfg.c ****     #define CY_CFG_SECTION _Pragma("location=\".psocinit\"")
  51:Generated_Source\PSoC4/cyfitter_cfg.c ****     
  52:Generated_Source\PSoC4/cyfitter_cfg.c ****     #define CY_CFG_MEMORY_BARRIER() __DMB()
  53:Generated_Source\PSoC4/cyfitter_cfg.c ****     
  54:Generated_Source\PSoC4/cyfitter_cfg.c **** #else
  55:Generated_Source\PSoC4/cyfitter_cfg.c ****     #error Unsupported toolchain
  56:Generated_Source\PSoC4/cyfitter_cfg.c **** #endif
  57:Generated_Source\PSoC4/cyfitter_cfg.c **** 
  58:Generated_Source\PSoC4/cyfitter_cfg.c **** 
  59:Generated_Source\PSoC4/cyfitter_cfg.c **** CY_CFG_UNUSED
  60:Generated_Source\PSoC4/cyfitter_cfg.c **** static void CYMEMZERO(void *s, size_t n);
  61:Generated_Source\PSoC4/cyfitter_cfg.c **** CY_CFG_UNUSED
  62:Generated_Source\PSoC4/cyfitter_cfg.c **** static void CYMEMZERO(void *s, size_t n)
  63:Generated_Source\PSoC4/cyfitter_cfg.c **** {
  25              		.loc 1 63 0
  26              		.cfi_startproc
  27 0000 80B5     		push	{r7, lr}
  28              		.cfi_def_cfa_offset 8
  29              		.cfi_offset 7, -8
  30              		.cfi_offset 14, -4
  31 0002 82B0     		sub	sp, sp, #8
  32              		.cfi_def_cfa_offset 16
  33 0004 00AF     		add	r7, sp, #0
  34              		.cfi_def_cfa_register 7
  35 0006 7860     		str	r0, [r7, #4]
  36 0008 3960     		str	r1, [r7]
  64:Generated_Source\PSoC4/cyfitter_cfg.c **** 	(void)memset(s, 0, n);
  37              		.loc 1 64 0
  38 000a 7A68     		ldr	r2, [r7, #4]
  39 000c 3B68     		ldr	r3, [r7]
  40 000e 101C     		mov	r0, r2
  41 0010 0021     		mov	r1, #0
  42 0012 1A1C     		mov	r2, r3
  43 0014 FFF7FEFF 		bl	memset
  65:Generated_Source\PSoC4/cyfitter_cfg.c **** }
  44              		.loc 1 65 0
  45 0018 BD46     		mov	sp, r7
  46 001a 02B0     		add	sp, sp, #8
  47              		@ sp needed
  48 001c 80BD     		pop	{r7, pc}
  49              		.cfi_endproc
ARM GAS  C:\Users\Petro\AppData\Local\Temp\ccBe4H2c.s 			page 3


  50              	.LFE2:
  51              		.size	CYMEMZERO, .-CYMEMZERO
  52 001e C046     		.section	.text.CYCONFIGCPY,"ax",%progbits
  53              		.align	2
  54              		.code	16
  55              		.thumb_func
  56              		.type	CYCONFIGCPY, %function
  57              	CYCONFIGCPY:
  58              	.LFB3:
  66:Generated_Source\PSoC4/cyfitter_cfg.c **** CY_CFG_UNUSED
  67:Generated_Source\PSoC4/cyfitter_cfg.c **** static void CYCONFIGCPY(void *dest, const void *src, size_t n);
  68:Generated_Source\PSoC4/cyfitter_cfg.c **** CY_CFG_UNUSED
  69:Generated_Source\PSoC4/cyfitter_cfg.c **** static void CYCONFIGCPY(void *dest, const void *src, size_t n)
  70:Generated_Source\PSoC4/cyfitter_cfg.c **** {
  59              		.loc 1 70 0
  60              		.cfi_startproc
  61 0000 80B5     		push	{r7, lr}
  62              		.cfi_def_cfa_offset 8
  63              		.cfi_offset 7, -8
  64              		.cfi_offset 14, -4
  65 0002 84B0     		sub	sp, sp, #16
  66              		.cfi_def_cfa_offset 24
  67 0004 00AF     		add	r7, sp, #0
  68              		.cfi_def_cfa_register 7
  69 0006 F860     		str	r0, [r7, #12]
  70 0008 B960     		str	r1, [r7, #8]
  71 000a 7A60     		str	r2, [r7, #4]
  71:Generated_Source\PSoC4/cyfitter_cfg.c **** 	(void)memcpy(dest, src, n);
  72              		.loc 1 71 0
  73 000c F968     		ldr	r1, [r7, #12]
  74 000e BA68     		ldr	r2, [r7, #8]
  75 0010 7B68     		ldr	r3, [r7, #4]
  76 0012 081C     		mov	r0, r1
  77 0014 111C     		mov	r1, r2
  78 0016 1A1C     		mov	r2, r3
  79 0018 FFF7FEFF 		bl	memcpy
  72:Generated_Source\PSoC4/cyfitter_cfg.c **** }
  80              		.loc 1 72 0
  81 001c BD46     		mov	sp, r7
  82 001e 04B0     		add	sp, sp, #16
  83              		@ sp needed
  84 0020 80BD     		pop	{r7, pc}
  85              		.cfi_endproc
  86              	.LFE3:
  87              		.size	CYCONFIGCPY, .-CYCONFIGCPY
  88 0022 C046     		.section	.text.CYCONFIGCPYCODE,"ax",%progbits
  89              		.align	2
  90              		.code	16
  91              		.thumb_func
  92              		.type	CYCONFIGCPYCODE, %function
  93              	CYCONFIGCPYCODE:
  94              	.LFB4:
  73:Generated_Source\PSoC4/cyfitter_cfg.c **** CY_CFG_UNUSED
  74:Generated_Source\PSoC4/cyfitter_cfg.c **** static void CYCONFIGCPYCODE(void *dest, const void *src, size_t n);
  75:Generated_Source\PSoC4/cyfitter_cfg.c **** CY_CFG_UNUSED
  76:Generated_Source\PSoC4/cyfitter_cfg.c **** static void CYCONFIGCPYCODE(void *dest, const void *src, size_t n)
  77:Generated_Source\PSoC4/cyfitter_cfg.c **** {
ARM GAS  C:\Users\Petro\AppData\Local\Temp\ccBe4H2c.s 			page 4


  95              		.loc 1 77 0
  96              		.cfi_startproc
  97 0000 80B5     		push	{r7, lr}
  98              		.cfi_def_cfa_offset 8
  99              		.cfi_offset 7, -8
 100              		.cfi_offset 14, -4
 101 0002 84B0     		sub	sp, sp, #16
 102              		.cfi_def_cfa_offset 24
 103 0004 00AF     		add	r7, sp, #0
 104              		.cfi_def_cfa_register 7
 105 0006 F860     		str	r0, [r7, #12]
 106 0008 B960     		str	r1, [r7, #8]
 107 000a 7A60     		str	r2, [r7, #4]
  78:Generated_Source\PSoC4/cyfitter_cfg.c **** 	(void)memcpy(dest, src, n);
 108              		.loc 1 78 0
 109 000c F968     		ldr	r1, [r7, #12]
 110 000e BA68     		ldr	r2, [r7, #8]
 111 0010 7B68     		ldr	r3, [r7, #4]
 112 0012 081C     		mov	r0, r1
 113 0014 111C     		mov	r1, r2
 114 0016 1A1C     		mov	r2, r3
 115 0018 FFF7FEFF 		bl	memcpy
  79:Generated_Source\PSoC4/cyfitter_cfg.c **** }
 116              		.loc 1 79 0
 117 001c BD46     		mov	sp, r7
 118 001e 04B0     		add	sp, sp, #16
 119              		@ sp needed
 120 0020 80BD     		pop	{r7, pc}
 121              		.cfi_endproc
 122              	.LFE4:
 123              		.size	CYCONFIGCPYCODE, .-CYCONFIGCPYCODE
 124 0022 C046     		.section	.text.cfg_write_bytes32,"ax",%progbits
 125              		.align	2
 126              		.code	16
 127              		.thumb_func
 128              		.type	cfg_write_bytes32, %function
 129              	cfg_write_bytes32:
 130              	.LFB5:
  80:Generated_Source\PSoC4/cyfitter_cfg.c **** 
  81:Generated_Source\PSoC4/cyfitter_cfg.c **** 
  82:Generated_Source\PSoC4/cyfitter_cfg.c **** 
  83:Generated_Source\PSoC4/cyfitter_cfg.c **** 
  84:Generated_Source\PSoC4/cyfitter_cfg.c **** /* Clock startup error codes                                                   */
  85:Generated_Source\PSoC4/cyfitter_cfg.c **** #define CYCLOCKSTART_NO_ERROR    0u
  86:Generated_Source\PSoC4/cyfitter_cfg.c **** #define CYCLOCKSTART_XTAL_ERROR  1u
  87:Generated_Source\PSoC4/cyfitter_cfg.c **** #define CYCLOCKSTART_32KHZ_ERROR 2u
  88:Generated_Source\PSoC4/cyfitter_cfg.c **** #define CYCLOCKSTART_PLL_ERROR   3u
  89:Generated_Source\PSoC4/cyfitter_cfg.c **** 
  90:Generated_Source\PSoC4/cyfitter_cfg.c **** 
  91:Generated_Source\PSoC4/cyfitter_cfg.c **** #ifdef CY_NEED_CYCLOCKSTARTUPERROR
  92:Generated_Source\PSoC4/cyfitter_cfg.c **** /*******************************************************************************
  93:Generated_Source\PSoC4/cyfitter_cfg.c **** * Function Name: CyClockStartupError
  94:Generated_Source\PSoC4/cyfitter_cfg.c **** ********************************************************************************
  95:Generated_Source\PSoC4/cyfitter_cfg.c **** * Summary:
  96:Generated_Source\PSoC4/cyfitter_cfg.c **** *  If an error is encountered during clock configuration (crystal startup error,
  97:Generated_Source\PSoC4/cyfitter_cfg.c **** *  PLL lock error, etc.), the system will end up here.  Unless reimplemented by
  98:Generated_Source\PSoC4/cyfitter_cfg.c **** *  the customer, this function will stop in an infinite loop.
ARM GAS  C:\Users\Petro\AppData\Local\Temp\ccBe4H2c.s 			page 5


  99:Generated_Source\PSoC4/cyfitter_cfg.c **** *
 100:Generated_Source\PSoC4/cyfitter_cfg.c **** * Parameters:
 101:Generated_Source\PSoC4/cyfitter_cfg.c **** *   void
 102:Generated_Source\PSoC4/cyfitter_cfg.c **** *
 103:Generated_Source\PSoC4/cyfitter_cfg.c **** * Return:
 104:Generated_Source\PSoC4/cyfitter_cfg.c **** *   void
 105:Generated_Source\PSoC4/cyfitter_cfg.c **** *
 106:Generated_Source\PSoC4/cyfitter_cfg.c **** *******************************************************************************/
 107:Generated_Source\PSoC4/cyfitter_cfg.c **** CY_CFG_UNUSED
 108:Generated_Source\PSoC4/cyfitter_cfg.c **** static void CyClockStartupError(uint8 errorCode);
 109:Generated_Source\PSoC4/cyfitter_cfg.c **** CY_CFG_UNUSED
 110:Generated_Source\PSoC4/cyfitter_cfg.c **** static void CyClockStartupError(uint8 errorCode)
 111:Generated_Source\PSoC4/cyfitter_cfg.c **** {
 112:Generated_Source\PSoC4/cyfitter_cfg.c ****     /* To remove the compiler warning if errorCode not used.                */
 113:Generated_Source\PSoC4/cyfitter_cfg.c ****     errorCode = errorCode;
 114:Generated_Source\PSoC4/cyfitter_cfg.c **** 
 115:Generated_Source\PSoC4/cyfitter_cfg.c ****     /* If we have a clock startup error (bad MHz crystal, PLL lock, etc.),  */
 116:Generated_Source\PSoC4/cyfitter_cfg.c ****     /* we will end up here to allow the customer to implement something to  */
 117:Generated_Source\PSoC4/cyfitter_cfg.c ****     /* deal with the clock condition.                                       */
 118:Generated_Source\PSoC4/cyfitter_cfg.c **** 
 119:Generated_Source\PSoC4/cyfitter_cfg.c **** #ifdef CY_CFG_CLOCK_STARTUP_ERROR_CALLBACK
 120:Generated_Source\PSoC4/cyfitter_cfg.c **** 	CY_CFG_Clock_Startup_ErrorCallback();
 121:Generated_Source\PSoC4/cyfitter_cfg.c **** #else
 122:Generated_Source\PSoC4/cyfitter_cfg.c **** 	/*  If not using CY_CFG_CLOCK_STARTUP_ERROR_CALLBACK, place your clock startup code here. */
 123:Generated_Source\PSoC4/cyfitter_cfg.c ****     /* `#START CyClockStartupError` */
 124:Generated_Source\PSoC4/cyfitter_cfg.c **** 
 125:Generated_Source\PSoC4/cyfitter_cfg.c ****     /* If we have a clock startup error (bad MHz crystal, PLL lock, etc.),  */
 126:Generated_Source\PSoC4/cyfitter_cfg.c ****     /* we will end up here to allow the customer to implement something to  */
 127:Generated_Source\PSoC4/cyfitter_cfg.c ****     /* deal with the clock condition.                                       */
 128:Generated_Source\PSoC4/cyfitter_cfg.c **** 
 129:Generated_Source\PSoC4/cyfitter_cfg.c ****     /* `#END` */
 130:Generated_Source\PSoC4/cyfitter_cfg.c **** 
 131:Generated_Source\PSoC4/cyfitter_cfg.c ****     /* If nothing else, stop here since the clocks have not started         */
 132:Generated_Source\PSoC4/cyfitter_cfg.c ****     /* correctly.                                                           */
 133:Generated_Source\PSoC4/cyfitter_cfg.c ****     while(1) {}
 134:Generated_Source\PSoC4/cyfitter_cfg.c **** #endif /* CY_CFG_CLOCK_STARTUP_ERROR_CALLBACK */ 
 135:Generated_Source\PSoC4/cyfitter_cfg.c **** }
 136:Generated_Source\PSoC4/cyfitter_cfg.c **** #endif
 137:Generated_Source\PSoC4/cyfitter_cfg.c **** 
 138:Generated_Source\PSoC4/cyfitter_cfg.c **** #define CY_CFG_BASE_ADDR_COUNT 4u
 139:Generated_Source\PSoC4/cyfitter_cfg.c **** CYPACKED typedef struct
 140:Generated_Source\PSoC4/cyfitter_cfg.c **** {
 141:Generated_Source\PSoC4/cyfitter_cfg.c **** 	uint8 offset;
 142:Generated_Source\PSoC4/cyfitter_cfg.c **** 	uint8 value;
 143:Generated_Source\PSoC4/cyfitter_cfg.c **** } CYPACKED_ATTR cy_cfg_addrvalue_t;
 144:Generated_Source\PSoC4/cyfitter_cfg.c **** 
 145:Generated_Source\PSoC4/cyfitter_cfg.c **** 
 146:Generated_Source\PSoC4/cyfitter_cfg.c **** 
 147:Generated_Source\PSoC4/cyfitter_cfg.c **** /*******************************************************************************
 148:Generated_Source\PSoC4/cyfitter_cfg.c **** * Function Name: cfg_write_bytes32
 149:Generated_Source\PSoC4/cyfitter_cfg.c **** ********************************************************************************
 150:Generated_Source\PSoC4/cyfitter_cfg.c **** * Summary:
 151:Generated_Source\PSoC4/cyfitter_cfg.c **** *  This function is used for setting up the chip configuration areas that
 152:Generated_Source\PSoC4/cyfitter_cfg.c **** *  contain relatively sparse data.
 153:Generated_Source\PSoC4/cyfitter_cfg.c **** *
 154:Generated_Source\PSoC4/cyfitter_cfg.c **** * Parameters:
 155:Generated_Source\PSoC4/cyfitter_cfg.c **** *   void
ARM GAS  C:\Users\Petro\AppData\Local\Temp\ccBe4H2c.s 			page 6


 156:Generated_Source\PSoC4/cyfitter_cfg.c **** *
 157:Generated_Source\PSoC4/cyfitter_cfg.c **** * Return:
 158:Generated_Source\PSoC4/cyfitter_cfg.c **** *   void
 159:Generated_Source\PSoC4/cyfitter_cfg.c **** *
 160:Generated_Source\PSoC4/cyfitter_cfg.c **** *******************************************************************************/
 161:Generated_Source\PSoC4/cyfitter_cfg.c **** static void cfg_write_bytes32(const uint32 addr_table[], const cy_cfg_addrvalue_t data_table[]);
 162:Generated_Source\PSoC4/cyfitter_cfg.c **** static void cfg_write_bytes32(const uint32 addr_table[], const cy_cfg_addrvalue_t data_table[])
 163:Generated_Source\PSoC4/cyfitter_cfg.c **** {
 131              		.loc 1 163 0
 132              		.cfi_startproc
 133 0000 80B5     		push	{r7, lr}
 134              		.cfi_def_cfa_offset 8
 135              		.cfi_offset 7, -8
 136              		.cfi_offset 14, -4
 137 0002 86B0     		sub	sp, sp, #24
 138              		.cfi_def_cfa_offset 32
 139 0004 00AF     		add	r7, sp, #0
 140              		.cfi_def_cfa_register 7
 141 0006 7860     		str	r0, [r7, #4]
 142 0008 3960     		str	r1, [r7]
 164:Generated_Source\PSoC4/cyfitter_cfg.c **** 	/* For 32-bit little-endian architectures */
 165:Generated_Source\PSoC4/cyfitter_cfg.c **** 	uint32 i, j = 0u;
 143              		.loc 1 165 0
 144 000a 0023     		mov	r3, #0
 145 000c 3B61     		str	r3, [r7, #16]
 166:Generated_Source\PSoC4/cyfitter_cfg.c **** 	for (i = 0u; i < CY_CFG_BASE_ADDR_COUNT; i++)
 146              		.loc 1 166 0
 147 000e 0023     		mov	r3, #0
 148 0010 7B61     		str	r3, [r7, #20]
 149 0012 2FE0     		b	.L5
 150              	.L8:
 151              	.LBB2:
 167:Generated_Source\PSoC4/cyfitter_cfg.c **** 	{
 168:Generated_Source\PSoC4/cyfitter_cfg.c **** 		uint32 baseAddr = addr_table[i];
 152              		.loc 1 168 0
 153 0014 7B69     		ldr	r3, [r7, #20]
 154 0016 9B00     		lsl	r3, r3, #2
 155 0018 7A68     		ldr	r2, [r7, #4]
 156 001a D318     		add	r3, r2, r3
 157 001c 1B68     		ldr	r3, [r3]
 158 001e BB60     		str	r3, [r7, #8]
 169:Generated_Source\PSoC4/cyfitter_cfg.c **** 		uint8 count = (uint8)baseAddr;
 159              		.loc 1 169 0
 160 0020 0F23     		mov	r3, #15
 161 0022 FB18     		add	r3, r7, r3
 162 0024 BA68     		ldr	r2, [r7, #8]
 163 0026 1A70     		strb	r2, [r3]
 170:Generated_Source\PSoC4/cyfitter_cfg.c **** 		baseAddr &= 0xFFFFFF00u;
 164              		.loc 1 170 0
 165 0028 BB68     		ldr	r3, [r7, #8]
 166 002a FF22     		mov	r2, #255
 167 002c 9343     		bic	r3, r2
 168 002e BB60     		str	r3, [r7, #8]
 171:Generated_Source\PSoC4/cyfitter_cfg.c **** 		while (count != 0u)
 169              		.loc 1 171 0
 170 0030 18E0     		b	.L6
 171              	.L7:
ARM GAS  C:\Users\Petro\AppData\Local\Temp\ccBe4H2c.s 			page 7


 172:Generated_Source\PSoC4/cyfitter_cfg.c **** 		{
 173:Generated_Source\PSoC4/cyfitter_cfg.c **** 			CY_SET_XTND_REG8((void CYFAR *)(baseAddr + data_table[j].offset), data_table[j].value);
 172              		.loc 1 173 0
 173 0032 3B69     		ldr	r3, [r7, #16]
 174 0034 5B00     		lsl	r3, r3, #1
 175 0036 3A68     		ldr	r2, [r7]
 176 0038 D318     		add	r3, r2, r3
 177 003a 1B78     		ldrb	r3, [r3]
 178 003c 1A1C     		mov	r2, r3
 179 003e BB68     		ldr	r3, [r7, #8]
 180 0040 D318     		add	r3, r2, r3
 181 0042 191C     		mov	r1, r3
 182 0044 3B69     		ldr	r3, [r7, #16]
 183 0046 5B00     		lsl	r3, r3, #1
 184 0048 3A68     		ldr	r2, [r7]
 185 004a D318     		add	r3, r2, r3
 186 004c 5B78     		ldrb	r3, [r3, #1]
 187 004e 0B70     		strb	r3, [r1]
 174:Generated_Source\PSoC4/cyfitter_cfg.c **** 			j++;
 188              		.loc 1 174 0
 189 0050 3B69     		ldr	r3, [r7, #16]
 190 0052 0133     		add	r3, r3, #1
 191 0054 3B61     		str	r3, [r7, #16]
 175:Generated_Source\PSoC4/cyfitter_cfg.c **** 			count--;
 192              		.loc 1 175 0
 193 0056 0F23     		mov	r3, #15
 194 0058 FB18     		add	r3, r7, r3
 195 005a 1A78     		ldrb	r2, [r3]
 196 005c 0F23     		mov	r3, #15
 197 005e FB18     		add	r3, r7, r3
 198 0060 013A     		sub	r2, r2, #1
 199 0062 1A70     		strb	r2, [r3]
 200              	.L6:
 171:Generated_Source\PSoC4/cyfitter_cfg.c **** 		{
 201              		.loc 1 171 0
 202 0064 0F23     		mov	r3, #15
 203 0066 FB18     		add	r3, r7, r3
 204 0068 1B78     		ldrb	r3, [r3]
 205 006a 002B     		cmp	r3, #0
 206 006c E1D1     		bne	.L7
 207              	.LBE2:
 166:Generated_Source\PSoC4/cyfitter_cfg.c **** 	{
 208              		.loc 1 166 0 discriminator 2
 209 006e 7B69     		ldr	r3, [r7, #20]
 210 0070 0133     		add	r3, r3, #1
 211 0072 7B61     		str	r3, [r7, #20]
 212              	.L5:
 166:Generated_Source\PSoC4/cyfitter_cfg.c **** 	{
 213              		.loc 1 166 0 is_stmt 0 discriminator 1
 214 0074 7B69     		ldr	r3, [r7, #20]
 215 0076 032B     		cmp	r3, #3
 216 0078 CCD9     		bls	.L8
 176:Generated_Source\PSoC4/cyfitter_cfg.c **** 		}
 177:Generated_Source\PSoC4/cyfitter_cfg.c **** 	}
 178:Generated_Source\PSoC4/cyfitter_cfg.c **** }
 217              		.loc 1 178 0 is_stmt 1
 218 007a BD46     		mov	sp, r7
ARM GAS  C:\Users\Petro\AppData\Local\Temp\ccBe4H2c.s 			page 8


 219 007c 06B0     		add	sp, sp, #24
 220              		@ sp needed
 221 007e 80BD     		pop	{r7, pc}
 222              		.cfi_endproc
 223              	.LFE5:
 224              		.size	cfg_write_bytes32, .-cfg_write_bytes32
 225              		.section	.psocinit,"ax",%progbits
 226              		.align	2
 227              		.code	16
 228              		.thumb_func
 229              		.type	ClockSetup, %function
 230              	ClockSetup:
 231              	.LFB6:
 179:Generated_Source\PSoC4/cyfitter_cfg.c **** 
 180:Generated_Source\PSoC4/cyfitter_cfg.c **** 
 181:Generated_Source\PSoC4/cyfitter_cfg.c **** /*******************************************************************************
 182:Generated_Source\PSoC4/cyfitter_cfg.c **** * Function Name: ClockSetup
 183:Generated_Source\PSoC4/cyfitter_cfg.c **** ********************************************************************************
 184:Generated_Source\PSoC4/cyfitter_cfg.c **** *
 185:Generated_Source\PSoC4/cyfitter_cfg.c **** * Summary:
 186:Generated_Source\PSoC4/cyfitter_cfg.c **** *   Performs the initialization of all of the clocks in the device based on the
 187:Generated_Source\PSoC4/cyfitter_cfg.c **** *   settings in the Clock tab of the DWR.  This includes enabling the requested
 188:Generated_Source\PSoC4/cyfitter_cfg.c **** *   clocks and setting the necessary dividers to produce the desired frequency. 
 189:Generated_Source\PSoC4/cyfitter_cfg.c **** *
 190:Generated_Source\PSoC4/cyfitter_cfg.c **** * Parameters:
 191:Generated_Source\PSoC4/cyfitter_cfg.c **** *   void
 192:Generated_Source\PSoC4/cyfitter_cfg.c **** *
 193:Generated_Source\PSoC4/cyfitter_cfg.c **** * Return:
 194:Generated_Source\PSoC4/cyfitter_cfg.c **** *   void
 195:Generated_Source\PSoC4/cyfitter_cfg.c **** *
 196:Generated_Source\PSoC4/cyfitter_cfg.c **** *******************************************************************************/
 197:Generated_Source\PSoC4/cyfitter_cfg.c **** static void ClockSetup(void);
 198:Generated_Source\PSoC4/cyfitter_cfg.c **** CY_CFG_SECTION
 199:Generated_Source\PSoC4/cyfitter_cfg.c **** static void ClockSetup(void)
 200:Generated_Source\PSoC4/cyfitter_cfg.c **** {
 232              		.loc 1 200 0
 233              		.cfi_startproc
 234 0000 80B5     		push	{r7, lr}
 235              		.cfi_def_cfa_offset 8
 236              		.cfi_offset 7, -8
 237              		.cfi_offset 14, -4
 238 0002 00AF     		add	r7, sp, #0
 239              		.cfi_def_cfa_register 7
 201:Generated_Source\PSoC4/cyfitter_cfg.c **** 
 202:Generated_Source\PSoC4/cyfitter_cfg.c **** 	/* Set Flash Cycles based on max possible frequency in case a glitch occurs during ClockSetup(). *
 203:Generated_Source\PSoC4/cyfitter_cfg.c **** 	CY_SET_REG32((void CYXDATA *)(CYREG_CPUSS_FLASH_CTL), (0x0012u));
 240              		.loc 1 203 0
 241 0004 404B     		ldr	r3, .L11
 242 0006 1222     		mov	r2, #18
 243 0008 1A60     		str	r2, [r3]
 204:Generated_Source\PSoC4/cyfitter_cfg.c **** 
 205:Generated_Source\PSoC4/cyfitter_cfg.c **** 	/* Start the WCO */
 206:Generated_Source\PSoC4/cyfitter_cfg.c **** 	CySysClkWcoStart();
 244              		.loc 1 206 0
 245 000a FFF7FEFF 		bl	CySysClkWcoStart
 207:Generated_Source\PSoC4/cyfitter_cfg.c **** 	CyDelayCycles(12000000u); /* WCO may take up to 500ms to start */
 246              		.loc 1 207 0
ARM GAS  C:\Users\Petro\AppData\Local\Temp\ccBe4H2c.s 			page 9


 247 000e 3F4B     		ldr	r3, .L11+4
 248 0010 181C     		mov	r0, r3
 249 0012 FFF7FEFF 		bl	CyDelayCycles
 208:Generated_Source\PSoC4/cyfitter_cfg.c **** 	(void)CySysClkWcoSetPowerMode(CY_SYS_CLK_WCO_LPM);    /* Switch to the low power mode */
 250              		.loc 1 208 0
 251 0016 0120     		mov	r0, #1
 252 0018 FFF7FEFF 		bl	CySysClkWcoSetPowerMode
 209:Generated_Source\PSoC4/cyfitter_cfg.c **** 
 210:Generated_Source\PSoC4/cyfitter_cfg.c **** 	/* Setup and trim IMO based on desired frequency. */
 211:Generated_Source\PSoC4/cyfitter_cfg.c **** 	CySysClkWriteImoFreq(48u);
 253              		.loc 1 211 0
 254 001c 3020     		mov	r0, #48
 255 001e FFF7FEFF 		bl	CySysClkWriteImoFreq
 212:Generated_Source\PSoC4/cyfitter_cfg.c **** 	/* CYDEV_WDT_CONFIG Starting address: CYDEV_WDT_CONFIG */
 213:Generated_Source\PSoC4/cyfitter_cfg.c **** 	CY_SET_XTND_REG32((void CYFAR *)(CYREG_WDT_CONFIG), 0x40000000u);
 256              		.loc 1 213 0
 257 0022 3B4B     		ldr	r3, .L11+8
 258 0024 8022     		mov	r2, #128
 259 0026 D205     		lsl	r2, r2, #23
 260 0028 1A60     		str	r2, [r3]
 214:Generated_Source\PSoC4/cyfitter_cfg.c **** 
 215:Generated_Source\PSoC4/cyfitter_cfg.c **** 
 216:Generated_Source\PSoC4/cyfitter_cfg.c **** 	/* Enable fast start mode for XO */
 217:Generated_Source\PSoC4/cyfitter_cfg.c **** 	CY_SET_REG32((void*)CYREG_BLE_BLERD_BB_XO, CY_GET_REG32((void*)CYREG_BLE_BLERD_BB_XO) | (uint32)0x
 261              		.loc 1 217 0
 262 002a 3A4B     		ldr	r3, .L11+12
 263 002c 394A     		ldr	r2, .L11+12
 264 002e 1268     		ldr	r2, [r2]
 265 0030 0221     		mov	r1, #2
 266 0032 0A43     		orr	r2, r1
 267 0034 1A60     		str	r2, [r3]
 218:Generated_Source\PSoC4/cyfitter_cfg.c **** 	CY_SET_XTND_REG32((void CYFAR *)(CYREG_BLE_BLERD_BB_XO_CAPTRIM), 0x00003E2Du);
 268              		.loc 1 218 0
 269 0036 384B     		ldr	r3, .L11+16
 270 0038 384A     		ldr	r2, .L11+20
 271 003a 1A60     		str	r2, [r3]
 219:Generated_Source\PSoC4/cyfitter_cfg.c **** 	/*Set XTAL(ECO) divider*/
 220:Generated_Source\PSoC4/cyfitter_cfg.c **** 	CY_SET_XTND_REG32((void CYFAR *)(CYREG_BLE_BLESS_XTAL_CLK_DIV_CONFIG), 0x00000000u);
 272              		.loc 1 220 0
 273 003c 384B     		ldr	r3, .L11+24
 274 003e 0022     		mov	r2, #0
 275 0040 1A60     		str	r2, [r3]
 221:Generated_Source\PSoC4/cyfitter_cfg.c **** 	/* Disable Crystal Stable Interrupt before enabling ECO */
 222:Generated_Source\PSoC4/cyfitter_cfg.c **** 	CY_SET_REG32((void*)CYREG_BLE_BLESS_LL_DSM_CTRL, CY_GET_REG32((void*)CYREG_BLE_BLESS_LL_DSM_CTRL) 
 276              		.loc 1 222 0
 277 0042 384B     		ldr	r3, .L11+28
 278 0044 374A     		ldr	r2, .L11+28
 279 0046 1268     		ldr	r2, [r2]
 280 0048 0821     		mov	r1, #8
 281 004a 8A43     		bic	r2, r1
 282 004c 1A60     		str	r2, [r3]
 223:Generated_Source\PSoC4/cyfitter_cfg.c **** 	/* Start the ECO and do not check status since it is not needed for HFCLK */
 224:Generated_Source\PSoC4/cyfitter_cfg.c **** 	(void)CySysClkEcoStart(2000u);
 283              		.loc 1 224 0
 284 004e FA23     		mov	r3, #250
 285 0050 DB00     		lsl	r3, r3, #3
 286 0052 181C     		mov	r0, r3
ARM GAS  C:\Users\Petro\AppData\Local\Temp\ccBe4H2c.s 			page 10


 287 0054 FFF7FEFF 		bl	CySysClkEcoStart
 225:Generated_Source\PSoC4/cyfitter_cfg.c **** 	CyDelayUs(1500u); /* Wait to stabalize */
 288              		.loc 1 225 0
 289 0058 334B     		ldr	r3, .L11+32
 290 005a 181C     		mov	r0, r3
 291 005c FFF7FEFF 		bl	CyDelayUs
 226:Generated_Source\PSoC4/cyfitter_cfg.c **** 
 227:Generated_Source\PSoC4/cyfitter_cfg.c **** 	/* Setup phase aligned clocks */
 228:Generated_Source\PSoC4/cyfitter_cfg.c **** 	CY_SET_REG32((void *)CYREG_PERI_DIV_16_CTL2, 0x0005B800u);
 292              		.loc 1 228 0
 293 0060 324B     		ldr	r3, .L11+36
 294 0062 B722     		mov	r2, #183
 295 0064 D202     		lsl	r2, r2, #11
 296 0066 1A60     		str	r2, [r3]
 229:Generated_Source\PSoC4/cyfitter_cfg.c **** 	CY_SET_REG32((void *)CYREG_PERI_DIV_CMD, 0x8000FF42u);
 297              		.loc 1 229 0
 298 0068 314B     		ldr	r3, .L11+40
 299 006a 324A     		ldr	r2, .L11+44
 300 006c 1A60     		str	r2, [r3]
 230:Generated_Source\PSoC4/cyfitter_cfg.c **** 	CY_SET_REG32((void *)CYREG_PERI_DIV_16_CTL4, 0x00BB7F00u);
 301              		.loc 1 230 0
 302 006e 324B     		ldr	r3, .L11+48
 303 0070 324A     		ldr	r2, .L11+52
 304 0072 1A60     		str	r2, [r3]
 231:Generated_Source\PSoC4/cyfitter_cfg.c **** 	CY_SET_REG32((void *)CYREG_PERI_DIV_CMD, 0x8000FF44u);
 305              		.loc 1 231 0
 306 0074 2E4B     		ldr	r3, .L11+40
 307 0076 324A     		ldr	r2, .L11+56
 308 0078 1A60     		str	r2, [r3]
 232:Generated_Source\PSoC4/cyfitter_cfg.c **** 	CY_SET_REG32((void *)CYREG_PERI_DIV_16_CTL3, 0x00BB7F00u);
 309              		.loc 1 232 0
 310 007a 324B     		ldr	r3, .L11+60
 311 007c 2F4A     		ldr	r2, .L11+52
 312 007e 1A60     		str	r2, [r3]
 233:Generated_Source\PSoC4/cyfitter_cfg.c **** 	CY_SET_REG32((void *)CYREG_PERI_DIV_CMD, 0x8000FF43u);
 313              		.loc 1 233 0
 314 0080 2B4B     		ldr	r3, .L11+40
 315 0082 314A     		ldr	r2, .L11+64
 316 0084 1A60     		str	r2, [r3]
 234:Generated_Source\PSoC4/cyfitter_cfg.c **** 	CY_SET_REG32((void *)CYREG_PERI_DIV_16_CTL0, 0x00000F00u);
 317              		.loc 1 234 0
 318 0086 314B     		ldr	r3, .L11+68
 319 0088 F022     		mov	r2, #240
 320 008a 1201     		lsl	r2, r2, #4
 321 008c 1A60     		str	r2, [r3]
 235:Generated_Source\PSoC4/cyfitter_cfg.c **** 	CY_SET_REG32((void *)CYREG_PERI_DIV_CMD, 0x8000FF40u);
 322              		.loc 1 235 0
 323 008e 284B     		ldr	r3, .L11+40
 324 0090 2F4A     		ldr	r2, .L11+72
 325 0092 1A60     		str	r2, [r3]
 236:Generated_Source\PSoC4/cyfitter_cfg.c **** 	CY_SET_REG32((void *)CYREG_PERI_DIV_16_CTL1, 0x0001A000u);
 326              		.loc 1 236 0
 327 0094 2F4B     		ldr	r3, .L11+76
 328 0096 D022     		mov	r2, #208
 329 0098 5202     		lsl	r2, r2, #9
 330 009a 1A60     		str	r2, [r3]
 237:Generated_Source\PSoC4/cyfitter_cfg.c **** 	CY_SET_REG32((void *)CYREG_PERI_DIV_CMD, 0x8000FF41u);
ARM GAS  C:\Users\Petro\AppData\Local\Temp\ccBe4H2c.s 			page 11


 331              		.loc 1 237 0
 332 009c 244B     		ldr	r3, .L11+40
 333 009e 2E4A     		ldr	r2, .L11+80
 334 00a0 1A60     		str	r2, [r3]
 238:Generated_Source\PSoC4/cyfitter_cfg.c **** 
 239:Generated_Source\PSoC4/cyfitter_cfg.c **** 	/* CYDEV_CLK_IMO_CONFIG Starting address: CYDEV_CLK_IMO_CONFIG */
 240:Generated_Source\PSoC4/cyfitter_cfg.c **** 	CY_SET_XTND_REG32((void CYFAR *)(CYREG_CLK_IMO_CONFIG), 0x82000000u);
 335              		.loc 1 240 0
 336 00a2 2E4B     		ldr	r3, .L11+84
 337 00a4 8222     		mov	r2, #130
 338 00a6 1206     		lsl	r2, r2, #24
 339 00a8 1A60     		str	r2, [r3]
 241:Generated_Source\PSoC4/cyfitter_cfg.c **** 
 242:Generated_Source\PSoC4/cyfitter_cfg.c **** 	/* CYDEV_CLK_SELECT Starting address: CYDEV_CLK_SELECT */
 243:Generated_Source\PSoC4/cyfitter_cfg.c **** 	CY_SET_XTND_REG32((void CYFAR *)(CYREG_CLK_SELECT), 0x00040000u);
 340              		.loc 1 243 0
 341 00aa 2D4B     		ldr	r3, .L11+88
 342 00ac 8022     		mov	r2, #128
 343 00ae D202     		lsl	r2, r2, #11
 344 00b0 1A60     		str	r2, [r3]
 244:Generated_Source\PSoC4/cyfitter_cfg.c **** 
 245:Generated_Source\PSoC4/cyfitter_cfg.c **** 	/* CYDEV_PERI_PCLK_CTL9 Starting address: CYDEV_PERI_PCLK_CTL9 */
 246:Generated_Source\PSoC4/cyfitter_cfg.c **** 	CY_SET_XTND_REG32((void CYFAR *)(CYREG_PERI_PCLK_CTL9), 0x00000042u);
 345              		.loc 1 246 0
 346 00b2 2C4B     		ldr	r3, .L11+92
 347 00b4 4222     		mov	r2, #66
 348 00b6 1A60     		str	r2, [r3]
 247:Generated_Source\PSoC4/cyfitter_cfg.c **** 
 248:Generated_Source\PSoC4/cyfitter_cfg.c **** 	/* CYDEV_PERI_PCLK_CTL8 Starting address: CYDEV_PERI_PCLK_CTL8 */
 249:Generated_Source\PSoC4/cyfitter_cfg.c **** 	CY_SET_XTND_REG32((void CYFAR *)(CYREG_PERI_PCLK_CTL8), 0x00000044u);
 349              		.loc 1 249 0
 350 00b8 2B4B     		ldr	r3, .L11+96
 351 00ba 4422     		mov	r2, #68
 352 00bc 1A60     		str	r2, [r3]
 250:Generated_Source\PSoC4/cyfitter_cfg.c **** 
 251:Generated_Source\PSoC4/cyfitter_cfg.c **** 	/* CYDEV_PERI_PCLK_CTL7 Starting address: CYDEV_PERI_PCLK_CTL7 */
 252:Generated_Source\PSoC4/cyfitter_cfg.c **** 	CY_SET_XTND_REG32((void CYFAR *)(CYREG_PERI_PCLK_CTL7), 0x00000043u);
 353              		.loc 1 252 0
 354 00be 2B4B     		ldr	r3, .L11+100
 355 00c0 4322     		mov	r2, #67
 356 00c2 1A60     		str	r2, [r3]
 253:Generated_Source\PSoC4/cyfitter_cfg.c **** 
 254:Generated_Source\PSoC4/cyfitter_cfg.c **** 	/* CYDEV_PERI_PCLK_CTL6 Starting address: CYDEV_PERI_PCLK_CTL6 */
 255:Generated_Source\PSoC4/cyfitter_cfg.c **** 	CY_SET_XTND_REG32((void CYFAR *)(CYREG_PERI_PCLK_CTL6), 0x00000040u);
 357              		.loc 1 255 0
 358 00c4 2A4B     		ldr	r3, .L11+104
 359 00c6 4022     		mov	r2, #64
 360 00c8 1A60     		str	r2, [r3]
 256:Generated_Source\PSoC4/cyfitter_cfg.c **** 
 257:Generated_Source\PSoC4/cyfitter_cfg.c **** 	/* CYDEV_PERI_PCLK_CTL1 Starting address: CYDEV_PERI_PCLK_CTL1 */
 258:Generated_Source\PSoC4/cyfitter_cfg.c **** 	CY_SET_XTND_REG32((void CYFAR *)(CYREG_PERI_PCLK_CTL1), 0x00000041u);
 361              		.loc 1 258 0
 362 00ca 2A4B     		ldr	r3, .L11+108
 363 00cc 4122     		mov	r2, #65
 364 00ce 1A60     		str	r2, [r3]
 259:Generated_Source\PSoC4/cyfitter_cfg.c **** 
 260:Generated_Source\PSoC4/cyfitter_cfg.c **** 	(void)CyIntSetVector(8u, &CySysWdtIsr);
ARM GAS  C:\Users\Petro\AppData\Local\Temp\ccBe4H2c.s 			page 12


 365              		.loc 1 260 0
 366 00d0 294B     		ldr	r3, .L11+112
 367 00d2 0820     		mov	r0, #8
 368 00d4 191C     		mov	r1, r3
 369 00d6 FFF7FEFF 		bl	CyIntSetVector
 261:Generated_Source\PSoC4/cyfitter_cfg.c **** 	CyIntEnable(8u);
 370              		.loc 1 261 0
 371 00da 0820     		mov	r0, #8
 372 00dc FFF7FEFF 		bl	CyIntEnable
 262:Generated_Source\PSoC4/cyfitter_cfg.c **** 	CY_SET_XTND_REG32((void CYFAR *)(CYREG_WDT_MATCH), 0x00000020u);
 373              		.loc 1 262 0
 374 00e0 264B     		ldr	r3, .L11+116
 375 00e2 2022     		mov	r2, #32
 376 00e4 1A60     		str	r2, [r3]
 263:Generated_Source\PSoC4/cyfitter_cfg.c **** 	CY_SET_XTND_REG32((void CYFAR *)(CYREG_WDT_CONFIG), 0x40000005u);
 377              		.loc 1 263 0
 378 00e6 0A4B     		ldr	r3, .L11+8
 379 00e8 254A     		ldr	r2, .L11+120
 380 00ea 1A60     		str	r2, [r3]
 264:Generated_Source\PSoC4/cyfitter_cfg.c **** 	CY_SET_XTND_REG32((void CYFAR *)(CYREG_WDT_CONTROL), 0x00000008u);
 381              		.loc 1 264 0
 382 00ec 254B     		ldr	r3, .L11+124
 383 00ee 0822     		mov	r2, #8
 384 00f0 1A60     		str	r2, [r3]
 265:Generated_Source\PSoC4/cyfitter_cfg.c **** 	while ((CY_GET_XTND_REG32((void CYFAR *)(CYREG_WDT_CONTROL)) & 0x00000008u) != 0u) { }
 385              		.loc 1 265 0
 386 00f2 C046     		mov	r8, r8
 387              	.L10:
 388              		.loc 1 265 0 is_stmt 0 discriminator 1
 389 00f4 234B     		ldr	r3, .L11+124
 390 00f6 1B68     		ldr	r3, [r3]
 391 00f8 0822     		mov	r2, #8
 392 00fa 1340     		and	r3, r2
 393 00fc FAD1     		bne	.L10
 266:Generated_Source\PSoC4/cyfitter_cfg.c **** 	CY_SET_XTND_REG32((void CYFAR *)(CYREG_WDT_CONTROL), 0x00000001u);
 394              		.loc 1 266 0 is_stmt 1
 395 00fe 214B     		ldr	r3, .L11+124
 396 0100 0122     		mov	r2, #1
 397 0102 1A60     		str	r2, [r3]
 267:Generated_Source\PSoC4/cyfitter_cfg.c **** }
 398              		.loc 1 267 0
 399 0104 BD46     		mov	sp, r7
 400              		@ sp needed
 401 0106 80BD     		pop	{r7, pc}
 402              	.L12:
 403              		.align	2
 404              	.L11:
 405 0108 30001040 		.word	1074790448
 406 010c 001BB700 		.word	12000000
 407 0110 0C020B40 		.word	1074463244
 408 0114 78002E40 		.word	1076756600
 409 0118 7C002E40 		.word	1076756604
 410 011c 2D3E0000 		.word	15917
 411 0120 64F02E40 		.word	1076818020
 412 0124 6CF02E40 		.word	1076818028
 413 0128 DC050000 		.word	1500
 414 012c 08030140 		.word	1073808136
ARM GAS  C:\Users\Petro\AppData\Local\Temp\ccBe4H2c.s 			page 13


 415 0130 00000140 		.word	1073807360
 416 0134 42FF0080 		.word	-2147418302
 417 0138 10030140 		.word	1073808144
 418 013c 007FBB00 		.word	12287744
 419 0140 44FF0080 		.word	-2147418300
 420 0144 0C030140 		.word	1073808140
 421 0148 43FF0080 		.word	-2147418301
 422 014c 00030140 		.word	1073808128
 423 0150 40FF0080 		.word	-2147418304
 424 0154 04030140 		.word	1073808132
 425 0158 41FF0080 		.word	-2147418303
 426 015c 08010B40 		.word	1074462984
 427 0160 00010B40 		.word	1074462976
 428 0164 24010140 		.word	1073807652
 429 0168 20010140 		.word	1073807648
 430 016c 1C010140 		.word	1073807644
 431 0170 18010140 		.word	1073807640
 432 0174 04010140 		.word	1073807620
 433 0178 00000000 		.word	CySysWdtIsr
 434 017c 08020B40 		.word	1074463240
 435 0180 05000040 		.word	1073741829
 436 0184 10020B40 		.word	1074463248
 437              		.cfi_endproc
 438              	.LFE6:
 439              		.size	ClockSetup, .-ClockSetup
 440              		.section	.text.AnalogSetDefault,"ax",%progbits
 441              		.align	2
 442              		.code	16
 443              		.thumb_func
 444              		.type	AnalogSetDefault, %function
 445              	AnalogSetDefault:
 446              	.LFB7:
 268:Generated_Source\PSoC4/cyfitter_cfg.c **** 
 269:Generated_Source\PSoC4/cyfitter_cfg.c **** 
 270:Generated_Source\PSoC4/cyfitter_cfg.c **** /* Analog API Functions */
 271:Generated_Source\PSoC4/cyfitter_cfg.c **** 
 272:Generated_Source\PSoC4/cyfitter_cfg.c **** 
 273:Generated_Source\PSoC4/cyfitter_cfg.c **** /*******************************************************************************
 274:Generated_Source\PSoC4/cyfitter_cfg.c **** * Function Name: AnalogSetDefault
 275:Generated_Source\PSoC4/cyfitter_cfg.c **** ********************************************************************************
 276:Generated_Source\PSoC4/cyfitter_cfg.c **** *
 277:Generated_Source\PSoC4/cyfitter_cfg.c **** * Summary:
 278:Generated_Source\PSoC4/cyfitter_cfg.c **** *  Sets up the analog portions of the chip to default values based on chip
 279:Generated_Source\PSoC4/cyfitter_cfg.c **** *  configuration options from the project.
 280:Generated_Source\PSoC4/cyfitter_cfg.c **** *
 281:Generated_Source\PSoC4/cyfitter_cfg.c **** * Parameters:
 282:Generated_Source\PSoC4/cyfitter_cfg.c **** *  void
 283:Generated_Source\PSoC4/cyfitter_cfg.c **** *
 284:Generated_Source\PSoC4/cyfitter_cfg.c **** * Return:
 285:Generated_Source\PSoC4/cyfitter_cfg.c **** *  void
 286:Generated_Source\PSoC4/cyfitter_cfg.c **** *
 287:Generated_Source\PSoC4/cyfitter_cfg.c **** *******************************************************************************/
 288:Generated_Source\PSoC4/cyfitter_cfg.c **** static void AnalogSetDefault(void);
 289:Generated_Source\PSoC4/cyfitter_cfg.c **** static void AnalogSetDefault(void)
 290:Generated_Source\PSoC4/cyfitter_cfg.c **** {
 447              		.loc 1 290 0
 448              		.cfi_startproc
ARM GAS  C:\Users\Petro\AppData\Local\Temp\ccBe4H2c.s 			page 14


 449 0000 80B5     		push	{r7, lr}
 450              		.cfi_def_cfa_offset 8
 451              		.cfi_offset 7, -8
 452              		.cfi_offset 14, -4
 453 0002 00AF     		add	r7, sp, #0
 454              		.cfi_def_cfa_register 7
 291:Generated_Source\PSoC4/cyfitter_cfg.c **** 	CY_SET_XTND_REG32((void CYFAR *)CYREG_CTBM0_DFT_CTRL, 0x00000003u);
 455              		.loc 1 291 0
 456 0004 0A4B     		ldr	r3, .L14
 457 0006 0322     		mov	r2, #3
 458 0008 1A60     		str	r2, [r3]
 292:Generated_Source\PSoC4/cyfitter_cfg.c **** 	CY_SET_XTND_REG32((void CYFAR *)CYREG_CTBM1_DFT_CTRL, 0x00000003u);
 459              		.loc 1 292 0
 460 000a 0A4B     		ldr	r3, .L14+4
 461 000c 0322     		mov	r2, #3
 462 000e 1A60     		str	r2, [r3]
 293:Generated_Source\PSoC4/cyfitter_cfg.c **** 	CY_SET_XTND_REG32((void CYFAR *)CYREG_SAR_CTRL, 0x80000000u);
 463              		.loc 1 293 0
 464 0010 094B     		ldr	r3, .L14+8
 465 0012 8022     		mov	r2, #128
 466 0014 1206     		lsl	r2, r2, #24
 467 0016 1A60     		str	r2, [r3]
 294:Generated_Source\PSoC4/cyfitter_cfg.c **** 	CY_SET_XTND_REG32((void CYFAR *)CYREG_SAR_MUX_SWITCH0, 0x00000001u);
 468              		.loc 1 294 0
 469 0018 084B     		ldr	r3, .L14+12
 470 001a 0122     		mov	r2, #1
 471 001c 1A60     		str	r2, [r3]
 295:Generated_Source\PSoC4/cyfitter_cfg.c **** 	CY_SET_XTND_REG32((void CYFAR *)CYREG_PASS_DSAB_DSAB_CTRL, 0x00000000u);
 472              		.loc 1 295 0
 473 001e 084B     		ldr	r3, .L14+16
 474 0020 0022     		mov	r2, #0
 475 0022 1A60     		str	r2, [r3]
 296:Generated_Source\PSoC4/cyfitter_cfg.c **** 	SetAnalogRoutingPumps(1);
 476              		.loc 1 296 0
 477 0024 0120     		mov	r0, #1
 478 0026 FFF7FEFF 		bl	SetAnalogRoutingPumps
 297:Generated_Source\PSoC4/cyfitter_cfg.c **** }
 479              		.loc 1 297 0
 480 002a BD46     		mov	sp, r7
 481              		@ sp needed
 482 002c 80BD     		pop	{r7, pc}
 483              	.L15:
 484 002e C046     		.align	2
 485              	.L14:
 486 0030 30003040 		.word	1076887600
 487 0034 30003140 		.word	1076953136
 488 0038 00003A40 		.word	1077542912
 489 003c 00033A40 		.word	1077543680
 490 0040 000E3F40 		.word	1077874176
 491              		.cfi_endproc
 492              	.LFE7:
 493              		.size	AnalogSetDefault, .-AnalogSetDefault
 494              		.section	.text.SetAnalogRoutingPumps,"ax",%progbits
 495              		.align	2
 496              		.global	SetAnalogRoutingPumps
 497              		.code	16
 498              		.thumb_func
ARM GAS  C:\Users\Petro\AppData\Local\Temp\ccBe4H2c.s 			page 15


 499              		.type	SetAnalogRoutingPumps, %function
 500              	SetAnalogRoutingPumps:
 501              	.LFB8:
 298:Generated_Source\PSoC4/cyfitter_cfg.c **** 
 299:Generated_Source\PSoC4/cyfitter_cfg.c **** 
 300:Generated_Source\PSoC4/cyfitter_cfg.c **** /*******************************************************************************
 301:Generated_Source\PSoC4/cyfitter_cfg.c **** * Function Name: SetAnalogRoutingPumps
 302:Generated_Source\PSoC4/cyfitter_cfg.c **** ********************************************************************************
 303:Generated_Source\PSoC4/cyfitter_cfg.c **** *
 304:Generated_Source\PSoC4/cyfitter_cfg.c **** * Summary:
 305:Generated_Source\PSoC4/cyfitter_cfg.c **** * Enables or disables the analog pumps feeding analog routing switches.
 306:Generated_Source\PSoC4/cyfitter_cfg.c **** * Intended to be called at startup, based on the Vdda system configuration;
 307:Generated_Source\PSoC4/cyfitter_cfg.c **** * may be called during operation when the user informs us that the Vdda voltage crossed the pump th
 308:Generated_Source\PSoC4/cyfitter_cfg.c **** *
 309:Generated_Source\PSoC4/cyfitter_cfg.c **** * Parameters:
 310:Generated_Source\PSoC4/cyfitter_cfg.c **** *  enabled - 1 to enable the pumps, 0 to disable the pumps
 311:Generated_Source\PSoC4/cyfitter_cfg.c **** *
 312:Generated_Source\PSoC4/cyfitter_cfg.c **** * Return:
 313:Generated_Source\PSoC4/cyfitter_cfg.c **** *  void
 314:Generated_Source\PSoC4/cyfitter_cfg.c **** *
 315:Generated_Source\PSoC4/cyfitter_cfg.c **** *******************************************************************************/
 316:Generated_Source\PSoC4/cyfitter_cfg.c **** void SetAnalogRoutingPumps(uint8 enabled)
 317:Generated_Source\PSoC4/cyfitter_cfg.c **** {
 502              		.loc 1 317 0
 503              		.cfi_startproc
 504 0000 80B5     		push	{r7, lr}
 505              		.cfi_def_cfa_offset 8
 506              		.cfi_offset 7, -8
 507              		.cfi_offset 14, -4
 508 0002 84B0     		sub	sp, sp, #16
 509              		.cfi_def_cfa_offset 24
 510 0004 00AF     		add	r7, sp, #0
 511              		.cfi_def_cfa_register 7
 512 0006 021C     		mov	r2, r0
 513 0008 FB1D     		add	r3, r7, #7
 514 000a 1A70     		strb	r2, [r3]
 318:Generated_Source\PSoC4/cyfitter_cfg.c **** 	uint32 regValue = CY_GET_XTND_REG32((void *)(CYREG_SAR_PUMP_CTRL));
 515              		.loc 1 318 0
 516 000c 0B4B     		ldr	r3, .L19
 517 000e 1B68     		ldr	r3, [r3]
 518 0010 FB60     		str	r3, [r7, #12]
 319:Generated_Source\PSoC4/cyfitter_cfg.c **** 	if (enabled != 0u)
 519              		.loc 1 319 0
 520 0012 FB1D     		add	r3, r7, #7
 521 0014 1B78     		ldrb	r3, [r3]
 522 0016 002B     		cmp	r3, #0
 523 0018 05D0     		beq	.L17
 320:Generated_Source\PSoC4/cyfitter_cfg.c **** 	{
 321:Generated_Source\PSoC4/cyfitter_cfg.c **** 		regValue |= 0x80000000u;
 524              		.loc 1 321 0
 525 001a FB68     		ldr	r3, [r7, #12]
 526 001c 8022     		mov	r2, #128
 527 001e 1206     		lsl	r2, r2, #24
 528 0020 1343     		orr	r3, r2
 529 0022 FB60     		str	r3, [r7, #12]
 530 0024 03E0     		b	.L18
 531              	.L17:
ARM GAS  C:\Users\Petro\AppData\Local\Temp\ccBe4H2c.s 			page 16


 322:Generated_Source\PSoC4/cyfitter_cfg.c **** 	}
 323:Generated_Source\PSoC4/cyfitter_cfg.c **** 	else
 324:Generated_Source\PSoC4/cyfitter_cfg.c **** 	{
 325:Generated_Source\PSoC4/cyfitter_cfg.c **** 		regValue &= ~0x80000000u;
 532              		.loc 1 325 0
 533 0026 FB68     		ldr	r3, [r7, #12]
 534 0028 5B00     		lsl	r3, r3, #1
 535 002a 5B08     		lsr	r3, r3, #1
 536 002c FB60     		str	r3, [r7, #12]
 537              	.L18:
 326:Generated_Source\PSoC4/cyfitter_cfg.c **** 	}
 327:Generated_Source\PSoC4/cyfitter_cfg.c **** 	CY_SET_XTND_REG32((void *)(CYREG_SAR_PUMP_CTRL), regValue);
 538              		.loc 1 327 0
 539 002e 034B     		ldr	r3, .L19
 540 0030 FA68     		ldr	r2, [r7, #12]
 541 0032 1A60     		str	r2, [r3]
 328:Generated_Source\PSoC4/cyfitter_cfg.c **** }
 542              		.loc 1 328 0
 543 0034 BD46     		mov	sp, r7
 544 0036 04B0     		add	sp, sp, #16
 545              		@ sp needed
 546 0038 80BD     		pop	{r7, pc}
 547              	.L20:
 548 003a C046     		.align	2
 549              	.L19:
 550 003c 80033A40 		.word	1077543808
 551              		.cfi_endproc
 552              	.LFE8:
 553              		.size	SetAnalogRoutingPumps, .-SetAnalogRoutingPumps
 554              		.section	.psocinit
 555              		.align	2
 556              		.global	cyfitter_cfg
 557              		.code	16
 558              		.thumb_func
 559              		.type	cyfitter_cfg, %function
 560              	cyfitter_cfg:
 561              	.LFB9:
 329:Generated_Source\PSoC4/cyfitter_cfg.c **** 
 330:Generated_Source\PSoC4/cyfitter_cfg.c **** #define CY_AMUX_UNUSED CYREG_CM0_ROM_DWT
 331:Generated_Source\PSoC4/cyfitter_cfg.c **** 
 332:Generated_Source\PSoC4/cyfitter_cfg.c **** 
 333:Generated_Source\PSoC4/cyfitter_cfg.c **** /*******************************************************************************
 334:Generated_Source\PSoC4/cyfitter_cfg.c **** * Function Name: cyfitter_cfg
 335:Generated_Source\PSoC4/cyfitter_cfg.c **** ********************************************************************************
 336:Generated_Source\PSoC4/cyfitter_cfg.c **** * Summary:
 337:Generated_Source\PSoC4/cyfitter_cfg.c **** *  This function is called by the start-up code for the selected device. It
 338:Generated_Source\PSoC4/cyfitter_cfg.c **** *  performs all of the necessary device configuration based on the design
 339:Generated_Source\PSoC4/cyfitter_cfg.c **** *  settings.  This includes settings from the Design Wide Resources (DWR) such
 340:Generated_Source\PSoC4/cyfitter_cfg.c **** *  as Clocks and Pins as well as any component configuration that is necessary.
 341:Generated_Source\PSoC4/cyfitter_cfg.c **** *
 342:Generated_Source\PSoC4/cyfitter_cfg.c **** * Parameters:  
 343:Generated_Source\PSoC4/cyfitter_cfg.c **** *   void
 344:Generated_Source\PSoC4/cyfitter_cfg.c **** *
 345:Generated_Source\PSoC4/cyfitter_cfg.c **** * Return:
 346:Generated_Source\PSoC4/cyfitter_cfg.c **** *   void
 347:Generated_Source\PSoC4/cyfitter_cfg.c **** *
 348:Generated_Source\PSoC4/cyfitter_cfg.c **** *******************************************************************************/
ARM GAS  C:\Users\Petro\AppData\Local\Temp\ccBe4H2c.s 			page 17


 349:Generated_Source\PSoC4/cyfitter_cfg.c **** CY_CFG_SECTION
 350:Generated_Source\PSoC4/cyfitter_cfg.c **** void cyfitter_cfg(void)
 351:Generated_Source\PSoC4/cyfitter_cfg.c **** {
 562              		.loc 1 351 0
 563              		.cfi_startproc
 564 0188 80B5     		push	{r7, lr}
 565              		.cfi_def_cfa_offset 8
 566              		.cfi_offset 7, -8
 567              		.cfi_offset 14, -4
 568 018a 82B0     		sub	sp, sp, #8
 569              		.cfi_def_cfa_offset 16
 570 018c 00AF     		add	r7, sp, #0
 571              		.cfi_def_cfa_register 7
 352:Generated_Source\PSoC4/cyfitter_cfg.c **** 	/* Disable interrupts by default. Let user enable if/when they want. */
 353:Generated_Source\PSoC4/cyfitter_cfg.c **** 	CyGlobalIntDisable;
 572              		.loc 1 353 0
 573              	@ 353 "Generated_Source\PSoC4\cyfitter_cfg.c" 1
 574 018e 72B6     		CPSID   i
 575              	@ 0 "" 2
 354:Generated_Source\PSoC4/cyfitter_cfg.c **** 
 355:Generated_Source\PSoC4/cyfitter_cfg.c **** 	CY_SET_XTND_REG32((void CYFAR *)(CYREG_BLE_BLESS_LL_DSM_CTRL), 0x00000000u);
 576              		.loc 1 355 0
 577              		.code	16
 578 0190 474B     		ldr	r3, .L24
 579 0192 0022     		mov	r2, #0
 580 0194 1A60     		str	r2, [r3]
 356:Generated_Source\PSoC4/cyfitter_cfg.c **** 
 357:Generated_Source\PSoC4/cyfitter_cfg.c **** 	/* Enable the clock in the interrupt controller for the routed interrupts */
 358:Generated_Source\PSoC4/cyfitter_cfg.c **** 	CY_SET_REG8((void *)CYREG_UDB_UDBIF_INT_CLK_CTL, 0x01u);
 581              		.loc 1 358 0
 582 0196 474B     		ldr	r3, .L24+4
 583 0198 0122     		mov	r2, #1
 584 019a 1A70     		strb	r2, [r3]
 585              	.LBB3:
 359:Generated_Source\PSoC4/cyfitter_cfg.c **** 	{
 360:Generated_Source\PSoC4/cyfitter_cfg.c **** 		static const uint32 CYCODE cy_cfg_addr_table[] = {
 361:Generated_Source\PSoC4/cyfitter_cfg.c **** 			0x400F3205u, /* Base address: 0x400F3200 Count: 5 */
 362:Generated_Source\PSoC4/cyfitter_cfg.c **** 			0x400F3305u, /* Base address: 0x400F3300 Count: 5 */
 363:Generated_Source\PSoC4/cyfitter_cfg.c **** 			0x400F4104u, /* Base address: 0x400F4100 Count: 4 */
 364:Generated_Source\PSoC4/cyfitter_cfg.c **** 			0x400F4304u, /* Base address: 0x400F4300 Count: 4 */
 365:Generated_Source\PSoC4/cyfitter_cfg.c **** 		};
 366:Generated_Source\PSoC4/cyfitter_cfg.c **** 
 367:Generated_Source\PSoC4/cyfitter_cfg.c **** 		static const cy_cfg_addrvalue_t CYCODE cy_cfg_data_table[] = {
 368:Generated_Source\PSoC4/cyfitter_cfg.c **** 			{0xACu, 0x01u},
 369:Generated_Source\PSoC4/cyfitter_cfg.c **** 			{0xB6u, 0x01u},
 370:Generated_Source\PSoC4/cyfitter_cfg.c **** 			{0xBEu, 0x40u},
 371:Generated_Source\PSoC4/cyfitter_cfg.c **** 			{0xD8u, 0x04u},
 372:Generated_Source\PSoC4/cyfitter_cfg.c **** 			{0xDFu, 0x01u},
 373:Generated_Source\PSoC4/cyfitter_cfg.c **** 			{0x10u, 0x01u},
 374:Generated_Source\PSoC4/cyfitter_cfg.c **** 			{0x1Bu, 0x40u},
 375:Generated_Source\PSoC4/cyfitter_cfg.c **** 			{0x83u, 0x40u},
 376:Generated_Source\PSoC4/cyfitter_cfg.c **** 			{0x88u, 0x01u},
 377:Generated_Source\PSoC4/cyfitter_cfg.c **** 			{0xC4u, 0x01u},
 378:Generated_Source\PSoC4/cyfitter_cfg.c **** 			{0x6Fu, 0x10u},
 379:Generated_Source\PSoC4/cyfitter_cfg.c **** 			{0x83u, 0x10u},
 380:Generated_Source\PSoC4/cyfitter_cfg.c **** 			{0xDAu, 0x80u},
 381:Generated_Source\PSoC4/cyfitter_cfg.c **** 			{0xE2u, 0x20u},
ARM GAS  C:\Users\Petro\AppData\Local\Temp\ccBe4H2c.s 			page 18


 382:Generated_Source\PSoC4/cyfitter_cfg.c **** 			{0x06u, 0x80u},
 383:Generated_Source\PSoC4/cyfitter_cfg.c **** 			{0x8Au, 0x80u},
 384:Generated_Source\PSoC4/cyfitter_cfg.c **** 			{0xC0u, 0x04u},
 385:Generated_Source\PSoC4/cyfitter_cfg.c **** 			{0xE6u, 0x04u},
 386:Generated_Source\PSoC4/cyfitter_cfg.c **** 		};
 387:Generated_Source\PSoC4/cyfitter_cfg.c **** 
 388:Generated_Source\PSoC4/cyfitter_cfg.c **** 
 389:Generated_Source\PSoC4/cyfitter_cfg.c **** 
 390:Generated_Source\PSoC4/cyfitter_cfg.c **** 		CYPACKED typedef struct {
 391:Generated_Source\PSoC4/cyfitter_cfg.c **** 			void CYFAR *address;
 392:Generated_Source\PSoC4/cyfitter_cfg.c **** 			uint16 size;
 393:Generated_Source\PSoC4/cyfitter_cfg.c **** 		} CYPACKED_ATTR cfg_memset_t;
 394:Generated_Source\PSoC4/cyfitter_cfg.c **** 
 395:Generated_Source\PSoC4/cyfitter_cfg.c **** 		static const cfg_memset_t CYCODE cfg_memset_list [] = {
 396:Generated_Source\PSoC4/cyfitter_cfg.c **** 			/* address, size */
 397:Generated_Source\PSoC4/cyfitter_cfg.c **** 			{(void CYFAR *)(CYDEV_UDB_P0_U0_BASE), 1024u},
 398:Generated_Source\PSoC4/cyfitter_cfg.c **** 			{(void CYFAR *)(CYDEV_UDB_DSI0_BASE), 1024u},
 399:Generated_Source\PSoC4/cyfitter_cfg.c **** 		};
 400:Generated_Source\PSoC4/cyfitter_cfg.c **** 
 401:Generated_Source\PSoC4/cyfitter_cfg.c **** 		uint8 CYDATA i;
 402:Generated_Source\PSoC4/cyfitter_cfg.c **** 
 403:Generated_Source\PSoC4/cyfitter_cfg.c **** 		/* Zero out critical memory blocks before beginning configuration */
 404:Generated_Source\PSoC4/cyfitter_cfg.c **** 		for (i = 0u; i < (sizeof(cfg_memset_list)/sizeof(cfg_memset_list[0])); i++)
 586              		.loc 1 404 0
 587 019c FB1D     		add	r3, r7, #7
 588 019e 0022     		mov	r2, #0
 589 01a0 1A70     		strb	r2, [r3]
 590 01a2 23E0     		b	.L22
 591              	.L23:
 592              	.LBB4:
 405:Generated_Source\PSoC4/cyfitter_cfg.c **** 		{
 406:Generated_Source\PSoC4/cyfitter_cfg.c **** 			const cfg_memset_t CYCODE * CYDATA ms = &cfg_memset_list[i];
 593              		.loc 1 406 0 discriminator 3
 594 01a4 FB1D     		add	r3, r7, #7
 595 01a6 1A78     		ldrb	r2, [r3]
 596 01a8 131C     		mov	r3, r2
 597 01aa 5B00     		lsl	r3, r3, #1
 598 01ac 9B18     		add	r3, r3, r2
 599 01ae 5B00     		lsl	r3, r3, #1
 600 01b0 414A     		ldr	r2, .L24+8
 601 01b2 9B18     		add	r3, r3, r2
 602 01b4 3B60     		str	r3, [r7]
 407:Generated_Source\PSoC4/cyfitter_cfg.c **** 			CYMEMZERO(ms->address, (size_t)(uint32)(ms->size));
 603              		.loc 1 407 0 discriminator 3
 604 01b6 3B68     		ldr	r3, [r7]
 605 01b8 1A78     		ldrb	r2, [r3]
 606 01ba 5978     		ldrb	r1, [r3, #1]
 607 01bc 0902     		lsl	r1, r1, #8
 608 01be 0A43     		orr	r2, r1
 609 01c0 9978     		ldrb	r1, [r3, #2]
 610 01c2 0904     		lsl	r1, r1, #16
 611 01c4 0A43     		orr	r2, r1
 612 01c6 DB78     		ldrb	r3, [r3, #3]
 613 01c8 1B06     		lsl	r3, r3, #24
 614 01ca 1343     		orr	r3, r2
 615 01cc 191C     		mov	r1, r3
 616 01ce 3B68     		ldr	r3, [r7]
ARM GAS  C:\Users\Petro\AppData\Local\Temp\ccBe4H2c.s 			page 19


 617 01d0 1A79     		ldrb	r2, [r3, #4]
 618 01d2 5B79     		ldrb	r3, [r3, #5]
 619 01d4 1B02     		lsl	r3, r3, #8
 620 01d6 1343     		orr	r3, r2
 621 01d8 9BB2     		uxth	r3, r3
 622 01da 081C     		mov	r0, r1
 623 01dc 191C     		mov	r1, r3
 624 01de FFF7FEFF 		bl	CYMEMZERO
 625              	.LBE4:
 404:Generated_Source\PSoC4/cyfitter_cfg.c **** 		{
 626              		.loc 1 404 0 discriminator 3
 627 01e2 FB1D     		add	r3, r7, #7
 628 01e4 1A78     		ldrb	r2, [r3]
 629 01e6 FB1D     		add	r3, r7, #7
 630 01e8 0132     		add	r2, r2, #1
 631 01ea 1A70     		strb	r2, [r3]
 632              	.L22:
 404:Generated_Source\PSoC4/cyfitter_cfg.c **** 		{
 633              		.loc 1 404 0 is_stmt 0 discriminator 1
 634 01ec FB1D     		add	r3, r7, #7
 635 01ee 1B78     		ldrb	r3, [r3]
 636 01f0 012B     		cmp	r3, #1
 637 01f2 D7D9     		bls	.L23
 408:Generated_Source\PSoC4/cyfitter_cfg.c **** 		}
 409:Generated_Source\PSoC4/cyfitter_cfg.c **** 
 410:Generated_Source\PSoC4/cyfitter_cfg.c **** 		cfg_write_bytes32(cy_cfg_addr_table, cy_cfg_data_table);
 638              		.loc 1 410 0 is_stmt 1
 639 01f4 314A     		ldr	r2, .L24+12
 640 01f6 324B     		ldr	r3, .L24+16
 641 01f8 101C     		mov	r0, r2
 642 01fa 191C     		mov	r1, r3
 643 01fc FFF7FEFF 		bl	cfg_write_bytes32
 411:Generated_Source\PSoC4/cyfitter_cfg.c **** 
 412:Generated_Source\PSoC4/cyfitter_cfg.c **** 		/* HSIOM Starting address: CYDEV_HSIOM_BASE */
 413:Generated_Source\PSoC4/cyfitter_cfg.c **** 		CY_SET_XTND_REG32((void CYFAR *)(CYDEV_HSIOM_BASE), 0xEE990000u);
 644              		.loc 1 413 0
 645 0200 304B     		ldr	r3, .L24+20
 646 0202 314A     		ldr	r2, .L24+24
 647 0204 1A60     		str	r2, [r3]
 414:Generated_Source\PSoC4/cyfitter_cfg.c **** 
 415:Generated_Source\PSoC4/cyfitter_cfg.c **** 		/* UDB_PA_0 Starting address: CYDEV_UDB_PA0_BASE */
 416:Generated_Source\PSoC4/cyfitter_cfg.c **** 		CY_SET_XTND_REG32((void CYFAR *)(CYDEV_UDB_PA0_BASE), 0x00990000u);
 648              		.loc 1 416 0
 649 0206 314B     		ldr	r3, .L24+28
 650 0208 9922     		mov	r2, #153
 651 020a 1204     		lsl	r2, r2, #16
 652 020c 1A60     		str	r2, [r3]
 417:Generated_Source\PSoC4/cyfitter_cfg.c **** 
 418:Generated_Source\PSoC4/cyfitter_cfg.c **** 		/* UDB_PA_1 Starting address: CYDEV_UDB_PA1_BASE */
 419:Generated_Source\PSoC4/cyfitter_cfg.c **** 		CY_SET_XTND_REG32((void CYFAR *)(CYDEV_UDB_PA1_BASE), 0x00990000u);
 653              		.loc 1 419 0
 654 020e 304B     		ldr	r3, .L24+32
 655 0210 9922     		mov	r2, #153
 656 0212 1204     		lsl	r2, r2, #16
 657 0214 1A60     		str	r2, [r3]
 420:Generated_Source\PSoC4/cyfitter_cfg.c **** 
 421:Generated_Source\PSoC4/cyfitter_cfg.c **** 		/* UDB_PA_2 Starting address: CYDEV_UDB_PA2_BASE */
ARM GAS  C:\Users\Petro\AppData\Local\Temp\ccBe4H2c.s 			page 20


 422:Generated_Source\PSoC4/cyfitter_cfg.c **** 		CY_SET_XTND_REG32((void CYFAR *)(CYDEV_UDB_PA2_BASE), 0x00990000u);
 658              		.loc 1 422 0
 659 0216 2F4B     		ldr	r3, .L24+36
 660 0218 9922     		mov	r2, #153
 661 021a 1204     		lsl	r2, r2, #16
 662 021c 1A60     		str	r2, [r3]
 423:Generated_Source\PSoC4/cyfitter_cfg.c **** 
 424:Generated_Source\PSoC4/cyfitter_cfg.c **** 		/* UDB_PA_3 Starting address: CYDEV_UDB_PA3_BASE */
 425:Generated_Source\PSoC4/cyfitter_cfg.c **** 		CY_SET_XTND_REG32((void CYFAR *)(CYDEV_UDB_PA3_BASE), 0x00990000u);
 663              		.loc 1 425 0
 664 021e 2E4B     		ldr	r3, .L24+40
 665 0220 9922     		mov	r2, #153
 666 0222 1204     		lsl	r2, r2, #16
 667 0224 1A60     		str	r2, [r3]
 426:Generated_Source\PSoC4/cyfitter_cfg.c **** 
 427:Generated_Source\PSoC4/cyfitter_cfg.c **** 		/* INT_SELECT Starting address: CYDEV_CPUSS_INT_SEL */
 428:Generated_Source\PSoC4/cyfitter_cfg.c **** 		CY_SET_XTND_REG32((void CYFAR *)(CYREG_CPUSS_INT_SEL), 0x00000002u);
 668              		.loc 1 428 0
 669 0226 2D4B     		ldr	r3, .L24+44
 670 0228 0222     		mov	r2, #2
 671 022a 1A60     		str	r2, [r3]
 429:Generated_Source\PSoC4/cyfitter_cfg.c **** 
 430:Generated_Source\PSoC4/cyfitter_cfg.c **** 		/* INT_CONFIG Starting address: CYDEV_UDB_INT_CFG */
 431:Generated_Source\PSoC4/cyfitter_cfg.c **** 		CY_SET_XTND_REG32((void CYFAR *)(CYREG_UDB_INT_CFG), 0x00000002u);
 672              		.loc 1 431 0
 673 022c 2C4B     		ldr	r3, .L24+48
 674 022e 0222     		mov	r2, #2
 675 0230 1A60     		str	r2, [r3]
 432:Generated_Source\PSoC4/cyfitter_cfg.c **** 
 433:Generated_Source\PSoC4/cyfitter_cfg.c **** 		/* Enable digital routing */
 434:Generated_Source\PSoC4/cyfitter_cfg.c **** 		CY_SET_XTND_REG8((void *)CYREG_UDB_UDBIF_BANK_CTL, CY_GET_XTND_REG8((void *)CYREG_UDB_UDBIF_BANK_
 676              		.loc 1 434 0
 677 0232 2C4A     		ldr	r2, .L24+52
 678 0234 2B4B     		ldr	r3, .L24+52
 679 0236 1B78     		ldrb	r3, [r3]
 680 0238 DBB2     		uxtb	r3, r3
 681 023a 0221     		mov	r1, #2
 682 023c 0B43     		orr	r3, r1
 683 023e DBB2     		uxtb	r3, r3
 684 0240 1370     		strb	r3, [r2]
 435:Generated_Source\PSoC4/cyfitter_cfg.c **** 
 436:Generated_Source\PSoC4/cyfitter_cfg.c **** 		/* Enable UDB array */
 437:Generated_Source\PSoC4/cyfitter_cfg.c **** 		CY_SET_XTND_REG8((void *)CYREG_UDB_UDBIF_WAIT_CFG, (uint8)((CY_GET_XTND_REG8((void *)CYREG_UDB_UD
 685              		.loc 1 437 0
 686 0242 294A     		ldr	r2, .L24+56
 687 0244 284B     		ldr	r3, .L24+56
 688 0246 1B78     		ldrb	r3, [r3]
 689 0248 DBB2     		uxtb	r3, r3
 690 024a 3C21     		mov	r1, #60
 691 024c 8B43     		bic	r3, r1
 692 024e DBB2     		uxtb	r3, r3
 693 0250 1421     		mov	r1, #20
 694 0252 0B43     		orr	r3, r1
 695 0254 DBB2     		uxtb	r3, r3
 696 0256 1370     		strb	r3, [r2]
 438:Generated_Source\PSoC4/cyfitter_cfg.c **** 		CY_SET_XTND_REG8((void *)CYREG_UDB_UDBIF_BANK_CTL, (uint8)(CY_GET_XTND_REG8((void *)CYREG_UDB_UDB
 697              		.loc 1 438 0
ARM GAS  C:\Users\Petro\AppData\Local\Temp\ccBe4H2c.s 			page 21


 698 0258 224A     		ldr	r2, .L24+52
 699 025a 224B     		ldr	r3, .L24+52
 700 025c 1B78     		ldrb	r3, [r3]
 701 025e DBB2     		uxtb	r3, r3
 702 0260 1621     		mov	r1, #22
 703 0262 0B43     		orr	r3, r1
 704 0264 DBB2     		uxtb	r3, r3
 705 0266 1370     		strb	r3, [r2]
 706              	.LBE3:
 439:Generated_Source\PSoC4/cyfitter_cfg.c **** 	}
 440:Generated_Source\PSoC4/cyfitter_cfg.c **** 
 441:Generated_Source\PSoC4/cyfitter_cfg.c **** 	/* Perform second pass device configuration. These items must be configured in specific order afte
 442:Generated_Source\PSoC4/cyfitter_cfg.c **** 	/* IOPINS0_0 Starting address: CYDEV_GPIO_PRT0_BASE */
 443:Generated_Source\PSoC4/cyfitter_cfg.c **** 	CY_SET_XTND_REG32((void CYFAR *)(CYDEV_GPIO_PRT0_BASE), 0x00000020u);
 707              		.loc 1 443 0
 708 0268 204B     		ldr	r3, .L24+60
 709 026a 2022     		mov	r2, #32
 710 026c 1A60     		str	r2, [r3]
 444:Generated_Source\PSoC4/cyfitter_cfg.c **** 	CY_SET_XTND_REG32((void CYFAR *)(CYREG_GPIO_PRT0_PC), 0x00DB1036u);
 711              		.loc 1 444 0
 712 026e 204B     		ldr	r3, .L24+64
 713 0270 204A     		ldr	r2, .L24+68
 714 0272 1A60     		str	r2, [r3]
 445:Generated_Source\PSoC4/cyfitter_cfg.c **** 	CY_SET_XTND_REG32((void CYFAR *)(CYREG_GPIO_PRT0_PC2), 0x00000020u);
 715              		.loc 1 445 0
 716 0274 204B     		ldr	r3, .L24+72
 717 0276 2022     		mov	r2, #32
 718 0278 1A60     		str	r2, [r3]
 446:Generated_Source\PSoC4/cyfitter_cfg.c **** 
 447:Generated_Source\PSoC4/cyfitter_cfg.c **** 	/* IOPINS0_1 Starting address: CYDEV_GPIO_PRT1_BASE */
 448:Generated_Source\PSoC4/cyfitter_cfg.c **** 	CY_SET_XTND_REG32((void CYFAR *)(CYDEV_GPIO_PRT1_BASE), 0x00000084u);
 719              		.loc 1 448 0
 720 027a 204B     		ldr	r3, .L24+76
 721 027c 8422     		mov	r2, #132
 722 027e 1A60     		str	r2, [r3]
 449:Generated_Source\PSoC4/cyfitter_cfg.c **** 	CY_SET_XTND_REG32((void CYFAR *)(CYREG_GPIO_PRT1_PC), 0x009B6086u);
 723              		.loc 1 449 0
 724 0280 1F4B     		ldr	r3, .L24+80
 725 0282 204A     		ldr	r2, .L24+84
 726 0284 1A60     		str	r2, [r3]
 450:Generated_Source\PSoC4/cyfitter_cfg.c **** 
 451:Generated_Source\PSoC4/cyfitter_cfg.c **** 	/* IOPINS0_2 Starting address: CYDEV_GPIO_PRT2_BASE */
 452:Generated_Source\PSoC4/cyfitter_cfg.c **** 	CY_SET_XTND_REG32((void CYFAR *)(CYREG_GPIO_PRT2_PC), 0x00006180u);
 727              		.loc 1 452 0
 728 0286 204B     		ldr	r3, .L24+88
 729 0288 C322     		mov	r2, #195
 730 028a D201     		lsl	r2, r2, #7
 731 028c 1A60     		str	r2, [r3]
 453:Generated_Source\PSoC4/cyfitter_cfg.c **** 
 454:Generated_Source\PSoC4/cyfitter_cfg.c **** 	/* IOPINS0_3 Starting address: CYDEV_GPIO_PRT3_BASE */
 455:Generated_Source\PSoC4/cyfitter_cfg.c **** 	CY_SET_XTND_REG32((void CYFAR *)(CYDEV_GPIO_PRT3_BASE), 0x00000007u);
 732              		.loc 1 455 0
 733 028e 1F4B     		ldr	r3, .L24+92
 734 0290 0722     		mov	r2, #7
 735 0292 1A60     		str	r2, [r3]
 456:Generated_Source\PSoC4/cyfitter_cfg.c **** 	CY_SET_XTND_REG32((void CYFAR *)(CYREG_GPIO_PRT3_PC), 0x00036C90u);
 736              		.loc 1 456 0
ARM GAS  C:\Users\Petro\AppData\Local\Temp\ccBe4H2c.s 			page 22


 737 0294 1E4B     		ldr	r3, .L24+96
 738 0296 1F4A     		ldr	r2, .L24+100
 739 0298 1A60     		str	r2, [r3]
 457:Generated_Source\PSoC4/cyfitter_cfg.c **** 	CY_SET_XTND_REG32((void CYFAR *)(CYREG_GPIO_PRT3_PC2), 0x00000001u);
 740              		.loc 1 457 0
 741 029a 1F4B     		ldr	r3, .L24+104
 742 029c 0122     		mov	r2, #1
 743 029e 1A60     		str	r2, [r3]
 458:Generated_Source\PSoC4/cyfitter_cfg.c **** 
 459:Generated_Source\PSoC4/cyfitter_cfg.c **** 
 460:Generated_Source\PSoC4/cyfitter_cfg.c **** 	/* Setup clocks based on selections from Clock DWR */
 461:Generated_Source\PSoC4/cyfitter_cfg.c **** 	ClockSetup();
 744              		.loc 1 461 0
 745 02a0 FFF7AEFE 		bl	ClockSetup
 462:Generated_Source\PSoC4/cyfitter_cfg.c **** 
 463:Generated_Source\PSoC4/cyfitter_cfg.c **** 	/* Perform basic analog initialization to defaults */
 464:Generated_Source\PSoC4/cyfitter_cfg.c **** 	AnalogSetDefault();
 746              		.loc 1 464 0
 747 02a4 FFF7FEFF 		bl	AnalogSetDefault
 465:Generated_Source\PSoC4/cyfitter_cfg.c **** 
 466:Generated_Source\PSoC4/cyfitter_cfg.c **** }
 748              		.loc 1 466 0
 749 02a8 BD46     		mov	sp, r7
 750 02aa 02B0     		add	sp, sp, #8
 751              		@ sp needed
 752 02ac 80BD     		pop	{r7, pc}
 753              	.L25:
 754 02ae C046     		.align	2
 755              	.L24:
 756 02b0 6CF02E40 		.word	1076818028
 757 02b4 1C700F40 		.word	1074753564
 758 02b8 00000000 		.word	cfg_memset_list.4790
 759 02bc 0C000000 		.word	cy_cfg_addr_table.4784
 760 02c0 1C000000 		.word	cy_cfg_data_table.4785
 761 02c4 00000240 		.word	1073872896
 762 02c8 000099EE 		.word	-291962880
 763 02cc 00500F40 		.word	1074745344
 764 02d0 10500F40 		.word	1074745360
 765 02d4 20500F40 		.word	1074745376
 766 02d8 30500F40 		.word	1074745392
 767 02dc 20001040 		.word	1074790432
 768 02e0 00800F40 		.word	1074757632
 769 02e4 00700F40 		.word	1074753536
 770 02e8 01700F40 		.word	1074753537
 771 02ec 00000440 		.word	1074003968
 772 02f0 08000440 		.word	1074003976
 773 02f4 3610DB00 		.word	14356534
 774 02f8 18000440 		.word	1074003992
 775 02fc 00010440 		.word	1074004224
 776 0300 08010440 		.word	1074004232
 777 0304 86609B00 		.word	10182790
 778 0308 08020440 		.word	1074004488
 779 030c 00030440 		.word	1074004736
 780 0310 08030440 		.word	1074004744
 781 0314 906C0300 		.word	224400
 782 0318 18030440 		.word	1074004760
 783              		.cfi_endproc
ARM GAS  C:\Users\Petro\AppData\Local\Temp\ccBe4H2c.s 			page 23


 784              	.LFE9:
 785              		.size	cyfitter_cfg, .-cyfitter_cfg
 786              		.section	.rodata
 787              		.align	2
 788              		.type	cfg_memset_list.4790, %object
 789              		.size	cfg_memset_list.4790, 12
 790              	cfg_memset_list.4790:
 791 0000 00300F40 		.word	1074737152
 792 0004 0004     		.short	1024
 793 0006 00400F40 		.4byte	1074741248
 794 000a 0004     		.short	1024
 795              		.align	2
 796              		.type	cy_cfg_addr_table.4784, %object
 797              		.size	cy_cfg_addr_table.4784, 16
 798              	cy_cfg_addr_table.4784:
 799 000c 05320F40 		.word	1074737669
 800 0010 05330F40 		.word	1074737925
 801 0014 04410F40 		.word	1074741508
 802 0018 04430F40 		.word	1074742020
 803              		.align	2
 804              		.type	cy_cfg_data_table.4785, %object
 805              		.size	cy_cfg_data_table.4785, 36
 806              	cy_cfg_data_table.4785:
 807 001c AC       		.byte	-84
 808 001d 01       		.byte	1
 809 001e B6       		.byte	-74
 810 001f 01       		.byte	1
 811 0020 BE       		.byte	-66
 812 0021 40       		.byte	64
 813 0022 D8       		.byte	-40
 814 0023 04       		.byte	4
 815 0024 DF       		.byte	-33
 816 0025 01       		.byte	1
 817 0026 10       		.byte	16
 818 0027 01       		.byte	1
 819 0028 1B       		.byte	27
 820 0029 40       		.byte	64
 821 002a 83       		.byte	-125
 822 002b 40       		.byte	64
 823 002c 88       		.byte	-120
 824 002d 01       		.byte	1
 825 002e C4       		.byte	-60
 826 002f 01       		.byte	1
 827 0030 6F       		.byte	111
 828 0031 10       		.byte	16
 829 0032 83       		.byte	-125
 830 0033 10       		.byte	16
 831 0034 DA       		.byte	-38
 832 0035 80       		.byte	-128
 833 0036 E2       		.byte	-30
 834 0037 20       		.byte	32
 835 0038 06       		.byte	6
 836 0039 80       		.byte	-128
 837 003a 8A       		.byte	-118
 838 003b 80       		.byte	-128
 839 003c C0       		.byte	-64
 840 003d 04       		.byte	4
ARM GAS  C:\Users\Petro\AppData\Local\Temp\ccBe4H2c.s 			page 24


 841 003e E6       		.byte	-26
 842 003f 04       		.byte	4
 843              		.text
 844              	.Letext0:
 845              		.file 2 "c:\\program files (x86)\\cypress\\psoc creator\\4.0\\psoc creator\\import\\gnu\\arm\\4.9.
 846              		.file 3 "Generated_Source\\PSoC4\\cytypes.h"