ARM GAS  C:\Users\Petro\AppData\Local\Temp\ccxzvnq1.s 			page 1


   1              		.cpu cortex-m0
   2              		.fpu softvfp
   3              		.eabi_attribute 20, 1
   4              		.eabi_attribute 21, 1
   5              		.eabi_attribute 23, 3
   6              		.eabi_attribute 24, 1
   7              		.eabi_attribute 25, 1
   8              		.eabi_attribute 26, 1
   9              		.eabi_attribute 30, 6
  10              		.eabi_attribute 34, 0
  11              		.eabi_attribute 18, 4
  12              		.code	16
  13              		.file	"LCD5110_Graph.c"
  14              		.text
  15              	.Ltext0:
  16              		.cfi_sections	.debug_frame
  17              		.comm	cfont,12,4
  18              		.comm	scrbuf,504,4
  19              		.comm	_sleep,1,1
  20              		.comm	_contrast,4,4
  21              		.section	.rodata
  22              		.align	2
  23              	.LC0:
  24 0000 25252569 		.ascii	"%%%i.%if\000"
  24      2E256966 
  24      00
  25 0009 000000   		.section	.text._convert_float,"ax",%progbits
  26              		.align	2
  27              		.global	_convert_float
  28              		.code	16
  29              		.thumb_func
  30              		.type	_convert_float, %function
  31              	_convert_float:
  32              	.LFB63:
  33              		.file 1 "./nokia5110/HW_ARM.h"
   1:./nokia5110/HW_ARM.h **** #include "stdio.h"
   2:./nokia5110/HW_ARM.h **** #include "stdint.h"
   3:./nokia5110/HW_ARM.h **** 
   4:./nokia5110/HW_ARM.h **** void _convert_float(char *buf, double num, int width, uint8_t prec)
   5:./nokia5110/HW_ARM.h **** {
  34              		.loc 1 5 0
  35              		.cfi_startproc
  36 0000 90B5     		push	{r4, r7, lr}
  37              		.cfi_def_cfa_offset 12
  38              		.cfi_offset 4, -12
  39              		.cfi_offset 7, -8
  40              		.cfi_offset 14, -4
  41 0002 89B0     		sub	sp, sp, #36
  42              		.cfi_def_cfa_offset 48
  43 0004 00AF     		add	r7, sp, #0
  44              		.cfi_def_cfa_register 7
  45 0006 F860     		str	r0, [r7, #12]
  46 0008 3A60     		str	r2, [r7]
  47 000a 7B60     		str	r3, [r7, #4]
   6:./nokia5110/HW_ARM.h **** 	char format[10];
   7:./nokia5110/HW_ARM.h **** 	
   8:./nokia5110/HW_ARM.h **** 	sprintf(format, "%%%i.%if", width, prec);
ARM GAS  C:\Users\Petro\AppData\Local\Temp\ccxzvnq1.s 			page 2


  48              		.loc 1 8 0
  49 000c 3423     		mov	r3, #52
  50 000e FB18     		add	r3, r7, r3
  51 0010 1B78     		ldrb	r3, [r3]
  52 0012 1422     		mov	r2, #20
  53 0014 B818     		add	r0, r7, r2
  54 0016 0949     		ldr	r1, .L2
  55 0018 3A6B     		ldr	r2, [r7, #48]
  56 001a FFF7FEFF 		bl	sprintf
   9:./nokia5110/HW_ARM.h **** 	sprintf(buf, format, num);
  57              		.loc 1 9 0
  58 001e F968     		ldr	r1, [r7, #12]
  59 0020 1423     		mov	r3, #20
  60 0022 FA18     		add	r2, r7, r3
  61 0024 3B68     		ldr	r3, [r7]
  62 0026 7C68     		ldr	r4, [r7, #4]
  63 0028 081C     		mov	r0, r1
  64 002a 111C     		mov	r1, r2
  65 002c 1A1C     		mov	r2, r3
  66 002e 231C     		mov	r3, r4
  67 0030 FFF7FEFF 		bl	sprintf
  10:./nokia5110/HW_ARM.h **** }
  68              		.loc 1 10 0
  69 0034 BD46     		mov	sp, r7
  70 0036 09B0     		add	sp, sp, #36
  71              		@ sp needed
  72 0038 90BD     		pop	{r4, r7, pc}
  73              	.L3:
  74 003a C046     		.align	2
  75              	.L2:
  76 003c 00000000 		.word	.LC0
  77              		.cfi_endproc
  78              	.LFE63:
  79              		.size	_convert_float, .-_convert_float
  80              		.section	.text._LCD_Write,"ax",%progbits
  81              		.align	2
  82              		.global	_LCD_Write
  83              		.code	16
  84              		.thumb_func
  85              		.type	_LCD_Write, %function
  86              	_LCD_Write:
  87              	.LFB64:
  88              		.file 2 "nokia5110\\LCD5110_Graph.c"
   1:nokia5110/LCD5110_Graph.c **** /*
   2:nokia5110/LCD5110_Graph.c ****   LCD5110_Graph.cpp - Arduino/chipKit library support for Nokia 5110 compatible LCDs
   3:nokia5110/LCD5110_Graph.c ****   Copyright (C)2015 Rinky-Dink Electronics, Henning Karlsen. All right reserved
   4:nokia5110/LCD5110_Graph.c ****   
   5:nokia5110/LCD5110_Graph.c ****   Basic functionality of this library are based on the demo-code provided by
   6:nokia5110/LCD5110_Graph.c ****   ITead studio. You can find the latest version of the library at
   7:nokia5110/LCD5110_Graph.c ****   http://www.RinkyDinkElectronics.com/
   8:nokia5110/LCD5110_Graph.c **** 
   9:nokia5110/LCD5110_Graph.c ****   This library has been made to make it easy to use the Nokia 5110 LCD module 
  10:nokia5110/LCD5110_Graph.c ****   as a graphics display on an Arduino or a chipKit.
  11:nokia5110/LCD5110_Graph.c **** 
  12:nokia5110/LCD5110_Graph.c ****   This library is free software; you can redistribute it and/or
  13:nokia5110/LCD5110_Graph.c ****   modify it under the terms of the CC BY-NC-SA 3.0 license.
  14:nokia5110/LCD5110_Graph.c ****   Please see the included documents for further information.
ARM GAS  C:\Users\Petro\AppData\Local\Temp\ccxzvnq1.s 			page 3


  15:nokia5110/LCD5110_Graph.c **** 
  16:nokia5110/LCD5110_Graph.c ****   Commercial use of this library requires you to buy a license that
  17:nokia5110/LCD5110_Graph.c ****   will allow commercial use. This includes using the library,
  18:nokia5110/LCD5110_Graph.c ****   modified or not, as a tool to sell products.
  19:nokia5110/LCD5110_Graph.c **** 
  20:nokia5110/LCD5110_Graph.c ****   The license applies to all part of the library including the 
  21:nokia5110/LCD5110_Graph.c ****   examples and tools supplied with the library.
  22:nokia5110/LCD5110_Graph.c **** */
  23:nokia5110/LCD5110_Graph.c **** 
  24:nokia5110/LCD5110_Graph.c **** #include "LCD5110_Graph.h"
  25:nokia5110/LCD5110_Graph.c **** #include "stdlib.h"
  26:nokia5110/LCD5110_Graph.c **** 
  27:nokia5110/LCD5110_Graph.c **** #if defined(__AVR__)
  28:nokia5110/LCD5110_Graph.c **** 	#include <avr/pgmspace.h>
  29:nokia5110/LCD5110_Graph.c **** 	#include "hardware/avr/HW_AVR.h"
  30:nokia5110/LCD5110_Graph.c **** #elif defined(__PIC32MX__)
  31:nokia5110/LCD5110_Graph.c **** 	#pragma message("Compiling for PIC32 Architecture...")
  32:nokia5110/LCD5110_Graph.c **** 	#include "hardware/pic32/HW_PIC32.h"
  33:nokia5110/LCD5110_Graph.c **** #elif defined(__arm__)
  34:nokia5110/LCD5110_Graph.c **** 	//#pragma message("Compiling for ARM Architecture...")
  35:nokia5110/LCD5110_Graph.c **** 	#include "nokia5110/HW_ARM.h"
  36:nokia5110/LCD5110_Graph.c **** #endif
  37:nokia5110/LCD5110_Graph.c **** 
  38:nokia5110/LCD5110_Graph.c **** //void LCD5110(int SCK, int MOSI, int DC, int RST, int CS)
  39:nokia5110/LCD5110_Graph.c **** //{ 
  40:nokia5110/LCD5110_Graph.c **** //	P_SCK	= portOutputRegister(digitalPinToPort(SCK));
  41:nokia5110/LCD5110_Graph.c **** //	B_SCK	= digitalPinToBitMask(SCK);
  42:nokia5110/LCD5110_Graph.c **** //	P_MOSI	= portOutputRegister(digitalPinToPort(MOSI));
  43:nokia5110/LCD5110_Graph.c **** //	B_MOSI	= digitalPinToBitMask(MOSI);
  44:nokia5110/LCD5110_Graph.c **** //	P_DC	= portOutputRegister(digitalPinToPort(DC));
  45:nokia5110/LCD5110_Graph.c **** //	B_DC	= digitalPinToBitMask(DC);
  46:nokia5110/LCD5110_Graph.c **** //	P_RST	= portOutputRegister(digitalPinToPort(RST));
  47:nokia5110/LCD5110_Graph.c **** //	B_RST	= digitalPinToBitMask(RST);
  48:nokia5110/LCD5110_Graph.c **** //	P_CS	= portOutputRegister(digitalPinToPort(CS));
  49:nokia5110/LCD5110_Graph.c **** //	B_CS	= digitalPinToBitMask(CS);
  50:nokia5110/LCD5110_Graph.c **** //	pinMode(SCK,OUTPUT);
  51:nokia5110/LCD5110_Graph.c **** //	pinMode(MOSI,OUTPUT);
  52:nokia5110/LCD5110_Graph.c **** //	pinMode(DC,OUTPUT);
  53:nokia5110/LCD5110_Graph.c **** //	pinMode(RST,OUTPUT);
  54:nokia5110/LCD5110_Graph.c **** //	pinMode(CS,OUTPUT);
  55:nokia5110/LCD5110_Graph.c **** //	SCK_Pin=SCK;
  56:nokia5110/LCD5110_Graph.c **** //	RST_Pin=RST;
  57:nokia5110/LCD5110_Graph.c **** //}
  58:nokia5110/LCD5110_Graph.c **** 
  59:nokia5110/LCD5110_Graph.c **** void _LCD_Write(unsigned char data, unsigned char mode)
  60:nokia5110/LCD5110_Graph.c **** {   
  89              		.loc 2 60 0
  90              		.cfi_startproc
  91 0000 80B5     		push	{r7, lr}
  92              		.cfi_def_cfa_offset 8
  93              		.cfi_offset 7, -8
  94              		.cfi_offset 14, -4
  95 0002 82B0     		sub	sp, sp, #8
  96              		.cfi_def_cfa_offset 16
  97 0004 00AF     		add	r7, sp, #0
  98              		.cfi_def_cfa_register 7
  99 0006 021C     		mov	r2, r0
ARM GAS  C:\Users\Petro\AppData\Local\Temp\ccxzvnq1.s 			page 4


 100 0008 FB1D     		add	r3, r7, #7
 101 000a 1A70     		strb	r2, [r3]
 102 000c BB1D     		add	r3, r7, #6
 103 000e 0A1C     		add	r2, r1, #0
 104 0010 1A70     		strb	r2, [r3]
  61:nokia5110/LCD5110_Graph.c ****     //cbi(P_CS, B_CS);
  62:nokia5110/LCD5110_Graph.c **** 
  63:nokia5110/LCD5110_Graph.c **** 	if (mode==LCD_COMMAND)
 105              		.loc 2 63 0
 106 0012 BB1D     		add	r3, r7, #6
 107 0014 1B78     		ldrb	r3, [r3]
 108 0016 002B     		cmp	r3, #0
 109 0018 03D1     		bne	.L5
  64:nokia5110/LCD5110_Graph.c **** 		//cbi(P_DC, B_DC);
  65:nokia5110/LCD5110_Graph.c ****         DC_Write(0);
 110              		.loc 2 65 0
 111 001a 0020     		mov	r0, #0
 112 001c FFF7FEFF 		bl	DC_Write
 113 0020 02E0     		b	.L6
 114              	.L5:
  66:nokia5110/LCD5110_Graph.c **** 	else
  67:nokia5110/LCD5110_Graph.c **** 		//sbi(P_DC, B_DC);
  68:nokia5110/LCD5110_Graph.c ****         DC_Write(1);
 115              		.loc 2 68 0
 116 0022 0120     		mov	r0, #1
 117 0024 FFF7FEFF 		bl	DC_Write
 118              	.L6:
  69:nokia5110/LCD5110_Graph.c **** 
  70:nokia5110/LCD5110_Graph.c **** //    char c;
  71:nokia5110/LCD5110_Graph.c **** //	for (c=0; c<8; c++)
  72:nokia5110/LCD5110_Graph.c **** //	{
  73:nokia5110/LCD5110_Graph.c **** //		if (data & 0x80)
  74:nokia5110/LCD5110_Graph.c **** //			sbi(P_MOSI, B_MOSI);
  75:nokia5110/LCD5110_Graph.c **** //		else
  76:nokia5110/LCD5110_Graph.c **** //			cbi(P_MOSI, B_MOSI);
  77:nokia5110/LCD5110_Graph.c **** //		data = data<<1;
  78:nokia5110/LCD5110_Graph.c **** //		pulseClock;
  79:nokia5110/LCD5110_Graph.c **** //	}
  80:nokia5110/LCD5110_Graph.c ****     SPIM_WriteTxData(data);
 119              		.loc 2 80 0
 120 0028 FB1D     		add	r3, r7, #7
 121 002a 1B78     		ldrb	r3, [r3]
 122 002c 181C     		mov	r0, r3
 123 002e FFF7FEFF 		bl	SPIM_WriteTxData
  81:nokia5110/LCD5110_Graph.c **** 
  82:nokia5110/LCD5110_Graph.c **** 	//sbi(P_CS, B_CS);
  83:nokia5110/LCD5110_Graph.c **** }
 124              		.loc 2 83 0
 125 0032 BD46     		mov	sp, r7
 126 0034 02B0     		add	sp, sp, #8
 127              		@ sp needed
 128 0036 80BD     		pop	{r7, pc}
 129              		.cfi_endproc
 130              	.LFE64:
 131              		.size	_LCD_Write, .-_LCD_Write
 132              		.section	.text.InitLCD,"ax",%progbits
 133              		.align	2
ARM GAS  C:\Users\Petro\AppData\Local\Temp\ccxzvnq1.s 			page 5


 134              		.global	InitLCD
 135              		.code	16
 136              		.thumb_func
 137              		.type	InitLCD, %function
 138              	InitLCD:
 139              	.LFB65:
  84:nokia5110/LCD5110_Graph.c **** 
  85:nokia5110/LCD5110_Graph.c **** void InitLCD(int contrast)
  86:nokia5110/LCD5110_Graph.c **** {
 140              		.loc 2 86 0
 141              		.cfi_startproc
 142 0000 80B5     		push	{r7, lr}
 143              		.cfi_def_cfa_offset 8
 144              		.cfi_offset 7, -8
 145              		.cfi_offset 14, -4
 146 0002 82B0     		sub	sp, sp, #8
 147              		.cfi_def_cfa_offset 16
 148 0004 00AF     		add	r7, sp, #0
 149              		.cfi_def_cfa_register 7
 150 0006 7860     		str	r0, [r7, #4]
  87:nokia5110/LCD5110_Graph.c ****     SPIM_Start();
 151              		.loc 2 87 0
 152 0008 FFF7FEFF 		bl	SPIM_Start
  88:nokia5110/LCD5110_Graph.c ****     
  89:nokia5110/LCD5110_Graph.c **** 	if (contrast>0x7F)
 153              		.loc 2 89 0
 154 000c 7B68     		ldr	r3, [r7, #4]
 155 000e 7F2B     		cmp	r3, #127
 156 0010 01DD     		ble	.L8
  90:nokia5110/LCD5110_Graph.c **** 		contrast=0x7F;
 157              		.loc 2 90 0
 158 0012 7F23     		mov	r3, #127
 159 0014 7B60     		str	r3, [r7, #4]
 160              	.L8:
  91:nokia5110/LCD5110_Graph.c **** 	if (contrast<0)
 161              		.loc 2 91 0
 162 0016 7B68     		ldr	r3, [r7, #4]
 163 0018 002B     		cmp	r3, #0
 164 001a 01DA     		bge	.L9
  92:nokia5110/LCD5110_Graph.c **** 		contrast=0;
 165              		.loc 2 92 0
 166 001c 0023     		mov	r3, #0
 167 001e 7B60     		str	r3, [r7, #4]
 168              	.L9:
  93:nokia5110/LCD5110_Graph.c **** 
  94:nokia5110/LCD5110_Graph.c **** 	resetLCD;
 169              		.loc 2 94 0
 170 0020 0020     		mov	r0, #0
 171 0022 FFF7FEFF 		bl	RST_Write
 172 0026 0120     		mov	r0, #1
 173 0028 FFF7FEFF 		bl	RST_Write
  95:nokia5110/LCD5110_Graph.c **** 
  96:nokia5110/LCD5110_Graph.c **** 	_LCD_Write(PCD8544_FUNCTIONSET | PCD8544_EXTENDEDINSTRUCTION, LCD_COMMAND);
 174              		.loc 2 96 0
 175 002c 2120     		mov	r0, #33
 176 002e 0021     		mov	r1, #0
 177 0030 FFF7FEFF 		bl	_LCD_Write
ARM GAS  C:\Users\Petro\AppData\Local\Temp\ccxzvnq1.s 			page 6


  97:nokia5110/LCD5110_Graph.c **** 	_LCD_Write(PCD8544_SETVOP | contrast, LCD_COMMAND);
 178              		.loc 2 97 0
 179 0034 7B68     		ldr	r3, [r7, #4]
 180 0036 DBB2     		uxtb	r3, r3
 181 0038 1A1C     		add	r2, r3, #0
 182 003a 8023     		mov	r3, #128
 183 003c 5B42     		neg	r3, r3
 184 003e 1343     		orr	r3, r2
 185 0040 DBB2     		uxtb	r3, r3
 186 0042 DBB2     		uxtb	r3, r3
 187 0044 181C     		mov	r0, r3
 188 0046 0021     		mov	r1, #0
 189 0048 FFF7FEFF 		bl	_LCD_Write
  98:nokia5110/LCD5110_Graph.c **** 	_LCD_Write(PCD8544_SETTEMP | LCD_TEMP, LCD_COMMAND);
 190              		.loc 2 98 0
 191 004c 0620     		mov	r0, #6
 192 004e 0021     		mov	r1, #0
 193 0050 FFF7FEFF 		bl	_LCD_Write
  99:nokia5110/LCD5110_Graph.c **** 	_LCD_Write(PCD8544_SETBIAS | LCD_BIAS, LCD_COMMAND);
 194              		.loc 2 99 0
 195 0054 1320     		mov	r0, #19
 196 0056 0021     		mov	r1, #0
 197 0058 FFF7FEFF 		bl	_LCD_Write
 100:nokia5110/LCD5110_Graph.c **** 	_LCD_Write(PCD8544_FUNCTIONSET, LCD_COMMAND);
 198              		.loc 2 100 0
 199 005c 2020     		mov	r0, #32
 200 005e 0021     		mov	r1, #0
 201 0060 FFF7FEFF 		bl	_LCD_Write
 101:nokia5110/LCD5110_Graph.c **** 	_LCD_Write(PCD8544_SETYADDR, LCD_COMMAND);
 202              		.loc 2 101 0
 203 0064 4020     		mov	r0, #64
 204 0066 0021     		mov	r1, #0
 205 0068 FFF7FEFF 		bl	_LCD_Write
 102:nokia5110/LCD5110_Graph.c **** 	_LCD_Write(PCD8544_SETXADDR, LCD_COMMAND);
 206              		.loc 2 102 0
 207 006c 8020     		mov	r0, #128
 208 006e 0021     		mov	r1, #0
 209 0070 FFF7FEFF 		bl	_LCD_Write
 103:nokia5110/LCD5110_Graph.c **** 	_LCD_Write(PCD8544_DISPLAYCONTROL | PCD8544_DISPLAYNORMAL, LCD_COMMAND);
 210              		.loc 2 103 0
 211 0074 0C20     		mov	r0, #12
 212 0076 0021     		mov	r1, #0
 213 0078 FFF7FEFF 		bl	_LCD_Write
 104:nokia5110/LCD5110_Graph.c **** 
 105:nokia5110/LCD5110_Graph.c **** 	clrScr();
 214              		.loc 2 105 0
 215 007c FFF7FEFF 		bl	clrScr
 106:nokia5110/LCD5110_Graph.c **** 	update();
 216              		.loc 2 106 0
 217 0080 FFF7FEFF 		bl	update
 107:nokia5110/LCD5110_Graph.c **** 	cfont.font=0;
 218              		.loc 2 107 0
 219 0084 054B     		ldr	r3, .L10
 220 0086 0022     		mov	r2, #0
 221 0088 1A60     		str	r2, [r3]
 108:nokia5110/LCD5110_Graph.c **** 	_sleep=false;
 222              		.loc 2 108 0
ARM GAS  C:\Users\Petro\AppData\Local\Temp\ccxzvnq1.s 			page 7


 223 008a 054B     		ldr	r3, .L10+4
 224 008c 0022     		mov	r2, #0
 225 008e 1A70     		strb	r2, [r3]
 109:nokia5110/LCD5110_Graph.c **** 	_contrast=contrast;
 226              		.loc 2 109 0
 227 0090 044B     		ldr	r3, .L10+8
 228 0092 7A68     		ldr	r2, [r7, #4]
 229 0094 1A60     		str	r2, [r3]
 110:nokia5110/LCD5110_Graph.c **** }
 230              		.loc 2 110 0
 231 0096 BD46     		mov	sp, r7
 232 0098 02B0     		add	sp, sp, #8
 233              		@ sp needed
 234 009a 80BD     		pop	{r7, pc}
 235              	.L11:
 236              		.align	2
 237              	.L10:
 238 009c 00000000 		.word	cfont
 239 00a0 00000000 		.word	_sleep
 240 00a4 00000000 		.word	_contrast
 241              		.cfi_endproc
 242              	.LFE65:
 243              		.size	InitLCD, .-InitLCD
 244              		.section	.text.setContrast,"ax",%progbits
 245              		.align	2
 246              		.global	setContrast
 247              		.code	16
 248              		.thumb_func
 249              		.type	setContrast, %function
 250              	setContrast:
 251              	.LFB66:
 111:nokia5110/LCD5110_Graph.c **** 
 112:nokia5110/LCD5110_Graph.c **** void setContrast(int contrast)
 113:nokia5110/LCD5110_Graph.c **** {
 252              		.loc 2 113 0
 253              		.cfi_startproc
 254 0000 80B5     		push	{r7, lr}
 255              		.cfi_def_cfa_offset 8
 256              		.cfi_offset 7, -8
 257              		.cfi_offset 14, -4
 258 0002 82B0     		sub	sp, sp, #8
 259              		.cfi_def_cfa_offset 16
 260 0004 00AF     		add	r7, sp, #0
 261              		.cfi_def_cfa_register 7
 262 0006 7860     		str	r0, [r7, #4]
 114:nokia5110/LCD5110_Graph.c **** 	if (contrast>0x7F)
 263              		.loc 2 114 0
 264 0008 7B68     		ldr	r3, [r7, #4]
 265 000a 7F2B     		cmp	r3, #127
 266 000c 01DD     		ble	.L13
 115:nokia5110/LCD5110_Graph.c **** 		contrast=0x7F;
 267              		.loc 2 115 0
 268 000e 7F23     		mov	r3, #127
 269 0010 7B60     		str	r3, [r7, #4]
 270              	.L13:
 116:nokia5110/LCD5110_Graph.c **** 	if (contrast<0)
 271              		.loc 2 116 0
ARM GAS  C:\Users\Petro\AppData\Local\Temp\ccxzvnq1.s 			page 8


 272 0012 7B68     		ldr	r3, [r7, #4]
 273 0014 002B     		cmp	r3, #0
 274 0016 01DA     		bge	.L14
 117:nokia5110/LCD5110_Graph.c **** 		contrast=0;
 275              		.loc 2 117 0
 276 0018 0023     		mov	r3, #0
 277 001a 7B60     		str	r3, [r7, #4]
 278              	.L14:
 118:nokia5110/LCD5110_Graph.c **** 	_LCD_Write(PCD8544_FUNCTIONSET | PCD8544_EXTENDEDINSTRUCTION, LCD_COMMAND);
 279              		.loc 2 118 0
 280 001c 2120     		mov	r0, #33
 281 001e 0021     		mov	r1, #0
 282 0020 FFF7FEFF 		bl	_LCD_Write
 119:nokia5110/LCD5110_Graph.c **** 	_LCD_Write(PCD8544_SETVOP | contrast, LCD_COMMAND);
 283              		.loc 2 119 0
 284 0024 7B68     		ldr	r3, [r7, #4]
 285 0026 DBB2     		uxtb	r3, r3
 286 0028 1A1C     		add	r2, r3, #0
 287 002a 8023     		mov	r3, #128
 288 002c 5B42     		neg	r3, r3
 289 002e 1343     		orr	r3, r2
 290 0030 DBB2     		uxtb	r3, r3
 291 0032 DBB2     		uxtb	r3, r3
 292 0034 181C     		mov	r0, r3
 293 0036 0021     		mov	r1, #0
 294 0038 FFF7FEFF 		bl	_LCD_Write
 120:nokia5110/LCD5110_Graph.c **** 	_LCD_Write(PCD8544_FUNCTIONSET, LCD_COMMAND);
 295              		.loc 2 120 0
 296 003c 2020     		mov	r0, #32
 297 003e 0021     		mov	r1, #0
 298 0040 FFF7FEFF 		bl	_LCD_Write
 121:nokia5110/LCD5110_Graph.c **** 	_contrast=contrast;
 299              		.loc 2 121 0
 300 0044 024B     		ldr	r3, .L15
 301 0046 7A68     		ldr	r2, [r7, #4]
 302 0048 1A60     		str	r2, [r3]
 122:nokia5110/LCD5110_Graph.c **** }
 303              		.loc 2 122 0
 304 004a BD46     		mov	sp, r7
 305 004c 02B0     		add	sp, sp, #8
 306              		@ sp needed
 307 004e 80BD     		pop	{r7, pc}
 308              	.L16:
 309              		.align	2
 310              	.L15:
 311 0050 00000000 		.word	_contrast
 312              		.cfi_endproc
 313              	.LFE66:
 314              		.size	setContrast, .-setContrast
 315              		.section	.text.enableSleep,"ax",%progbits
 316              		.align	2
 317              		.global	enableSleep
 318              		.code	16
 319              		.thumb_func
 320              		.type	enableSleep, %function
 321              	enableSleep:
 322              	.LFB67:
ARM GAS  C:\Users\Petro\AppData\Local\Temp\ccxzvnq1.s 			page 9


 123:nokia5110/LCD5110_Graph.c **** 
 124:nokia5110/LCD5110_Graph.c **** void enableSleep()
 125:nokia5110/LCD5110_Graph.c **** {
 323              		.loc 2 125 0
 324              		.cfi_startproc
 325 0000 80B5     		push	{r7, lr}
 326              		.cfi_def_cfa_offset 8
 327              		.cfi_offset 7, -8
 328              		.cfi_offset 14, -4
 329 0002 82B0     		sub	sp, sp, #8
 330              		.cfi_def_cfa_offset 16
 331 0004 00AF     		add	r7, sp, #0
 332              		.cfi_def_cfa_register 7
 126:nokia5110/LCD5110_Graph.c **** 	_sleep = true;
 333              		.loc 2 126 0
 334 0006 104B     		ldr	r3, .L20
 335 0008 0122     		mov	r2, #1
 336 000a 1A70     		strb	r2, [r3]
 127:nokia5110/LCD5110_Graph.c **** 	_LCD_Write(PCD8544_SETYADDR, LCD_COMMAND);
 337              		.loc 2 127 0
 338 000c 4020     		mov	r0, #64
 339 000e 0021     		mov	r1, #0
 340 0010 FFF7FEFF 		bl	_LCD_Write
 128:nokia5110/LCD5110_Graph.c **** 	_LCD_Write(PCD8544_SETXADDR, LCD_COMMAND);
 341              		.loc 2 128 0
 342 0014 8020     		mov	r0, #128
 343 0016 0021     		mov	r1, #0
 344 0018 FFF7FEFF 		bl	_LCD_Write
 129:nokia5110/LCD5110_Graph.c ****     int b;
 130:nokia5110/LCD5110_Graph.c **** 	for (b=0; b<504; b++)
 345              		.loc 2 130 0
 346 001c 0023     		mov	r3, #0
 347 001e 7B60     		str	r3, [r7, #4]
 348 0020 06E0     		b	.L18
 349              	.L19:
 131:nokia5110/LCD5110_Graph.c **** 		_LCD_Write(0, LCD_DATA);
 350              		.loc 2 131 0 discriminator 3
 351 0022 0020     		mov	r0, #0
 352 0024 0121     		mov	r1, #1
 353 0026 FFF7FEFF 		bl	_LCD_Write
 130:nokia5110/LCD5110_Graph.c **** 		_LCD_Write(0, LCD_DATA);
 354              		.loc 2 130 0 discriminator 3
 355 002a 7B68     		ldr	r3, [r7, #4]
 356 002c 0133     		add	r3, r3, #1
 357 002e 7B60     		str	r3, [r7, #4]
 358              	.L18:
 130:nokia5110/LCD5110_Graph.c **** 		_LCD_Write(0, LCD_DATA);
 359              		.loc 2 130 0 is_stmt 0 discriminator 1
 360 0030 7A68     		ldr	r2, [r7, #4]
 361 0032 F823     		mov	r3, #248
 362 0034 FF33     		add	r3, r3, #255
 363 0036 9A42     		cmp	r2, r3
 364 0038 F3DD     		ble	.L19
 132:nokia5110/LCD5110_Graph.c **** 	_LCD_Write(PCD8544_FUNCTIONSET | PCD8544_POWERDOWN, LCD_COMMAND);
 365              		.loc 2 132 0 is_stmt 1
 366 003a 2420     		mov	r0, #36
 367 003c 0021     		mov	r1, #0
ARM GAS  C:\Users\Petro\AppData\Local\Temp\ccxzvnq1.s 			page 10


 368 003e FFF7FEFF 		bl	_LCD_Write
 133:nokia5110/LCD5110_Graph.c **** }
 369              		.loc 2 133 0
 370 0042 BD46     		mov	sp, r7
 371 0044 02B0     		add	sp, sp, #8
 372              		@ sp needed
 373 0046 80BD     		pop	{r7, pc}
 374              	.L21:
 375              		.align	2
 376              	.L20:
 377 0048 00000000 		.word	_sleep
 378              		.cfi_endproc
 379              	.LFE67:
 380              		.size	enableSleep, .-enableSleep
 381              		.section	.text.disableSleep,"ax",%progbits
 382              		.align	2
 383              		.global	disableSleep
 384              		.code	16
 385              		.thumb_func
 386              		.type	disableSleep, %function
 387              	disableSleep:
 388              	.LFB68:
 134:nokia5110/LCD5110_Graph.c **** 
 135:nokia5110/LCD5110_Graph.c **** void disableSleep()
 136:nokia5110/LCD5110_Graph.c **** {
 389              		.loc 2 136 0
 390              		.cfi_startproc
 391 0000 80B5     		push	{r7, lr}
 392              		.cfi_def_cfa_offset 8
 393              		.cfi_offset 7, -8
 394              		.cfi_offset 14, -4
 395 0002 00AF     		add	r7, sp, #0
 396              		.cfi_def_cfa_register 7
 137:nokia5110/LCD5110_Graph.c **** 	_sleep = false;
 397              		.loc 2 137 0
 398 0004 134B     		ldr	r3, .L23
 399 0006 0022     		mov	r2, #0
 400 0008 1A70     		strb	r2, [r3]
 138:nokia5110/LCD5110_Graph.c **** 	_LCD_Write(PCD8544_FUNCTIONSET | PCD8544_EXTENDEDINSTRUCTION, LCD_COMMAND);
 401              		.loc 2 138 0
 402 000a 2120     		mov	r0, #33
 403 000c 0021     		mov	r1, #0
 404 000e FFF7FEFF 		bl	_LCD_Write
 139:nokia5110/LCD5110_Graph.c **** 	_LCD_Write(PCD8544_SETVOP | _contrast, LCD_COMMAND);
 405              		.loc 2 139 0
 406 0012 114B     		ldr	r3, .L23+4
 407 0014 1B68     		ldr	r3, [r3]
 408 0016 DBB2     		uxtb	r3, r3
 409 0018 1A1C     		add	r2, r3, #0
 410 001a 8023     		mov	r3, #128
 411 001c 5B42     		neg	r3, r3
 412 001e 1343     		orr	r3, r2
 413 0020 DBB2     		uxtb	r3, r3
 414 0022 DBB2     		uxtb	r3, r3
 415 0024 181C     		mov	r0, r3
 416 0026 0021     		mov	r1, #0
 417 0028 FFF7FEFF 		bl	_LCD_Write
ARM GAS  C:\Users\Petro\AppData\Local\Temp\ccxzvnq1.s 			page 11


 140:nokia5110/LCD5110_Graph.c **** 	_LCD_Write(PCD8544_SETTEMP | LCD_TEMP, LCD_COMMAND);
 418              		.loc 2 140 0
 419 002c 0620     		mov	r0, #6
 420 002e 0021     		mov	r1, #0
 421 0030 FFF7FEFF 		bl	_LCD_Write
 141:nokia5110/LCD5110_Graph.c **** 	_LCD_Write(PCD8544_SETBIAS | LCD_BIAS, LCD_COMMAND);
 422              		.loc 2 141 0
 423 0034 1320     		mov	r0, #19
 424 0036 0021     		mov	r1, #0
 425 0038 FFF7FEFF 		bl	_LCD_Write
 142:nokia5110/LCD5110_Graph.c **** 	_LCD_Write(PCD8544_FUNCTIONSET, LCD_COMMAND);
 426              		.loc 2 142 0
 427 003c 2020     		mov	r0, #32
 428 003e 0021     		mov	r1, #0
 429 0040 FFF7FEFF 		bl	_LCD_Write
 143:nokia5110/LCD5110_Graph.c **** 	_LCD_Write(PCD8544_DISPLAYCONTROL | PCD8544_DISPLAYNORMAL, LCD_COMMAND);
 430              		.loc 2 143 0
 431 0044 0C20     		mov	r0, #12
 432 0046 0021     		mov	r1, #0
 433 0048 FFF7FEFF 		bl	_LCD_Write
 144:nokia5110/LCD5110_Graph.c **** 	update();
 434              		.loc 2 144 0
 435 004c FFF7FEFF 		bl	update
 145:nokia5110/LCD5110_Graph.c **** }
 436              		.loc 2 145 0
 437 0050 BD46     		mov	sp, r7
 438              		@ sp needed
 439 0052 80BD     		pop	{r7, pc}
 440              	.L24:
 441              		.align	2
 442              	.L23:
 443 0054 00000000 		.word	_sleep
 444 0058 00000000 		.word	_contrast
 445              		.cfi_endproc
 446              	.LFE68:
 447              		.size	disableSleep, .-disableSleep
 448              		.section	.text.update,"ax",%progbits
 449              		.align	2
 450              		.global	update
 451              		.code	16
 452              		.thumb_func
 453              		.type	update, %function
 454              	update:
 455              	.LFB69:
 146:nokia5110/LCD5110_Graph.c **** 
 147:nokia5110/LCD5110_Graph.c **** void update()
 148:nokia5110/LCD5110_Graph.c **** {
 456              		.loc 2 148 0
 457              		.cfi_startproc
 458 0000 80B5     		push	{r7, lr}
 459              		.cfi_def_cfa_offset 8
 460              		.cfi_offset 7, -8
 461              		.cfi_offset 14, -4
 462 0002 82B0     		sub	sp, sp, #8
 463              		.cfi_def_cfa_offset 16
 464 0004 00AF     		add	r7, sp, #0
 465              		.cfi_def_cfa_register 7
ARM GAS  C:\Users\Petro\AppData\Local\Temp\ccxzvnq1.s 			page 12


 149:nokia5110/LCD5110_Graph.c **** 	if (_sleep==false)
 466              		.loc 2 149 0
 467 0006 124B     		ldr	r3, .L29
 468 0008 1B78     		ldrb	r3, [r3]
 469 000a 0122     		mov	r2, #1
 470 000c 5340     		eor	r3, r2
 471 000e DBB2     		uxtb	r3, r3
 472 0010 002B     		cmp	r3, #0
 473 0012 1AD0     		beq	.L25
 474              	.LBB2:
 150:nokia5110/LCD5110_Graph.c **** 	{
 151:nokia5110/LCD5110_Graph.c **** 		_LCD_Write(PCD8544_SETYADDR, LCD_COMMAND);
 475              		.loc 2 151 0
 476 0014 4020     		mov	r0, #64
 477 0016 0021     		mov	r1, #0
 478 0018 FFF7FEFF 		bl	_LCD_Write
 152:nokia5110/LCD5110_Graph.c **** 		_LCD_Write(PCD8544_SETXADDR, LCD_COMMAND);
 479              		.loc 2 152 0
 480 001c 8020     		mov	r0, #128
 481 001e 0021     		mov	r1, #0
 482 0020 FFF7FEFF 		bl	_LCD_Write
 153:nokia5110/LCD5110_Graph.c ****         int b;
 154:nokia5110/LCD5110_Graph.c **** 		for (b=0; b<504; b++)
 483              		.loc 2 154 0
 484 0024 0023     		mov	r3, #0
 485 0026 7B60     		str	r3, [r7, #4]
 486 0028 0AE0     		b	.L27
 487              	.L28:
 155:nokia5110/LCD5110_Graph.c **** 			_LCD_Write(scrbuf[b], LCD_DATA);
 488              		.loc 2 155 0 discriminator 3
 489 002a 0A4A     		ldr	r2, .L29+4
 490 002c 7B68     		ldr	r3, [r7, #4]
 491 002e D318     		add	r3, r2, r3
 492 0030 1B78     		ldrb	r3, [r3]
 493 0032 181C     		mov	r0, r3
 494 0034 0121     		mov	r1, #1
 495 0036 FFF7FEFF 		bl	_LCD_Write
 154:nokia5110/LCD5110_Graph.c **** 			_LCD_Write(scrbuf[b], LCD_DATA);
 496              		.loc 2 154 0 discriminator 3
 497 003a 7B68     		ldr	r3, [r7, #4]
 498 003c 0133     		add	r3, r3, #1
 499 003e 7B60     		str	r3, [r7, #4]
 500              	.L27:
 154:nokia5110/LCD5110_Graph.c **** 			_LCD_Write(scrbuf[b], LCD_DATA);
 501              		.loc 2 154 0 is_stmt 0 discriminator 1
 502 0040 7A68     		ldr	r2, [r7, #4]
 503 0042 F823     		mov	r3, #248
 504 0044 FF33     		add	r3, r3, #255
 505 0046 9A42     		cmp	r2, r3
 506 0048 EFDD     		ble	.L28
 507              	.L25:
 508              	.LBE2:
 156:nokia5110/LCD5110_Graph.c **** 	}
 157:nokia5110/LCD5110_Graph.c **** }
 509              		.loc 2 157 0 is_stmt 1
 510 004a BD46     		mov	sp, r7
 511 004c 02B0     		add	sp, sp, #8
ARM GAS  C:\Users\Petro\AppData\Local\Temp\ccxzvnq1.s 			page 13


 512              		@ sp needed
 513 004e 80BD     		pop	{r7, pc}
 514              	.L30:
 515              		.align	2
 516              	.L29:
 517 0050 00000000 		.word	_sleep
 518 0054 00000000 		.word	scrbuf
 519              		.cfi_endproc
 520              	.LFE69:
 521              		.size	update, .-update
 522              		.section	.text.clrScr,"ax",%progbits
 523              		.align	2
 524              		.global	clrScr
 525              		.code	16
 526              		.thumb_func
 527              		.type	clrScr, %function
 528              	clrScr:
 529              	.LFB70:
 158:nokia5110/LCD5110_Graph.c **** 
 159:nokia5110/LCD5110_Graph.c **** void clrScr()
 160:nokia5110/LCD5110_Graph.c **** {
 530              		.loc 2 160 0
 531              		.cfi_startproc
 532 0000 80B5     		push	{r7, lr}
 533              		.cfi_def_cfa_offset 8
 534              		.cfi_offset 7, -8
 535              		.cfi_offset 14, -4
 536 0002 82B0     		sub	sp, sp, #8
 537              		.cfi_def_cfa_offset 16
 538 0004 00AF     		add	r7, sp, #0
 539              		.cfi_def_cfa_register 7
 161:nokia5110/LCD5110_Graph.c ****     int c;
 162:nokia5110/LCD5110_Graph.c **** 	for (c=0; c<504; c++)
 540              		.loc 2 162 0
 541 0006 0023     		mov	r3, #0
 542 0008 7B60     		str	r3, [r7, #4]
 543 000a 07E0     		b	.L32
 544              	.L33:
 163:nokia5110/LCD5110_Graph.c **** 		scrbuf[c]=0;
 545              		.loc 2 163 0 discriminator 3
 546 000c 074A     		ldr	r2, .L34
 547 000e 7B68     		ldr	r3, [r7, #4]
 548 0010 D318     		add	r3, r2, r3
 549 0012 0022     		mov	r2, #0
 550 0014 1A70     		strb	r2, [r3]
 162:nokia5110/LCD5110_Graph.c **** 		scrbuf[c]=0;
 551              		.loc 2 162 0 discriminator 3
 552 0016 7B68     		ldr	r3, [r7, #4]
 553 0018 0133     		add	r3, r3, #1
 554 001a 7B60     		str	r3, [r7, #4]
 555              	.L32:
 162:nokia5110/LCD5110_Graph.c **** 		scrbuf[c]=0;
 556              		.loc 2 162 0 is_stmt 0 discriminator 1
 557 001c 7A68     		ldr	r2, [r7, #4]
 558 001e F823     		mov	r3, #248
 559 0020 FF33     		add	r3, r3, #255
 560 0022 9A42     		cmp	r2, r3
ARM GAS  C:\Users\Petro\AppData\Local\Temp\ccxzvnq1.s 			page 14


 561 0024 F2DD     		ble	.L33
 164:nokia5110/LCD5110_Graph.c **** }
 562              		.loc 2 164 0 is_stmt 1
 563 0026 BD46     		mov	sp, r7
 564 0028 02B0     		add	sp, sp, #8
 565              		@ sp needed
 566 002a 80BD     		pop	{r7, pc}
 567              	.L35:
 568              		.align	2
 569              	.L34:
 570 002c 00000000 		.word	scrbuf
 571              		.cfi_endproc
 572              	.LFE70:
 573              		.size	clrScr, .-clrScr
 574              		.section	.text.fillScr,"ax",%progbits
 575              		.align	2
 576              		.global	fillScr
 577              		.code	16
 578              		.thumb_func
 579              		.type	fillScr, %function
 580              	fillScr:
 581              	.LFB71:
 165:nokia5110/LCD5110_Graph.c **** 
 166:nokia5110/LCD5110_Graph.c **** void fillScr()
 167:nokia5110/LCD5110_Graph.c **** {
 582              		.loc 2 167 0
 583              		.cfi_startproc
 584 0000 80B5     		push	{r7, lr}
 585              		.cfi_def_cfa_offset 8
 586              		.cfi_offset 7, -8
 587              		.cfi_offset 14, -4
 588 0002 82B0     		sub	sp, sp, #8
 589              		.cfi_def_cfa_offset 16
 590 0004 00AF     		add	r7, sp, #0
 591              		.cfi_def_cfa_register 7
 168:nokia5110/LCD5110_Graph.c ****     int c;
 169:nokia5110/LCD5110_Graph.c **** 	for (c=0; c<504; c++)
 592              		.loc 2 169 0
 593 0006 0023     		mov	r3, #0
 594 0008 7B60     		str	r3, [r7, #4]
 595 000a 07E0     		b	.L37
 596              	.L38:
 170:nokia5110/LCD5110_Graph.c **** 		scrbuf[c]=255;
 597              		.loc 2 170 0 discriminator 3
 598 000c 074A     		ldr	r2, .L39
 599 000e 7B68     		ldr	r3, [r7, #4]
 600 0010 D318     		add	r3, r2, r3
 601 0012 FF22     		mov	r2, #255
 602 0014 1A70     		strb	r2, [r3]
 169:nokia5110/LCD5110_Graph.c **** 		scrbuf[c]=255;
 603              		.loc 2 169 0 discriminator 3
 604 0016 7B68     		ldr	r3, [r7, #4]
 605 0018 0133     		add	r3, r3, #1
 606 001a 7B60     		str	r3, [r7, #4]
 607              	.L37:
 169:nokia5110/LCD5110_Graph.c **** 		scrbuf[c]=255;
 608              		.loc 2 169 0 is_stmt 0 discriminator 1
ARM GAS  C:\Users\Petro\AppData\Local\Temp\ccxzvnq1.s 			page 15


 609 001c 7A68     		ldr	r2, [r7, #4]
 610 001e F823     		mov	r3, #248
 611 0020 FF33     		add	r3, r3, #255
 612 0022 9A42     		cmp	r2, r3
 613 0024 F2DD     		ble	.L38
 171:nokia5110/LCD5110_Graph.c **** }
 614              		.loc 2 171 0 is_stmt 1
 615 0026 BD46     		mov	sp, r7
 616 0028 02B0     		add	sp, sp, #8
 617              		@ sp needed
 618 002a 80BD     		pop	{r7, pc}
 619              	.L40:
 620              		.align	2
 621              	.L39:
 622 002c 00000000 		.word	scrbuf
 623              		.cfi_endproc
 624              	.LFE71:
 625              		.size	fillScr, .-fillScr
 626              		.section	.text.invert,"ax",%progbits
 627              		.align	2
 628              		.global	invert
 629              		.code	16
 630              		.thumb_func
 631              		.type	invert, %function
 632              	invert:
 633              	.LFB72:
 172:nokia5110/LCD5110_Graph.c **** 
 173:nokia5110/LCD5110_Graph.c **** void invert(bool mode)
 174:nokia5110/LCD5110_Graph.c **** {
 634              		.loc 2 174 0
 635              		.cfi_startproc
 636 0000 80B5     		push	{r7, lr}
 637              		.cfi_def_cfa_offset 8
 638              		.cfi_offset 7, -8
 639              		.cfi_offset 14, -4
 640 0002 82B0     		sub	sp, sp, #8
 641              		.cfi_def_cfa_offset 16
 642 0004 00AF     		add	r7, sp, #0
 643              		.cfi_def_cfa_register 7
 644 0006 021C     		mov	r2, r0
 645 0008 FB1D     		add	r3, r7, #7
 646 000a 1A70     		strb	r2, [r3]
 175:nokia5110/LCD5110_Graph.c **** 	if (mode==true)
 647              		.loc 2 175 0
 648 000c FB1D     		add	r3, r7, #7
 649 000e 1B78     		ldrb	r3, [r3]
 650 0010 002B     		cmp	r3, #0
 651 0012 04D0     		beq	.L42
 176:nokia5110/LCD5110_Graph.c **** 		_LCD_Write(PCD8544_DISPLAYCONTROL | PCD8544_DISPLAYINVERTED, LCD_COMMAND);
 652              		.loc 2 176 0
 653 0014 0D20     		mov	r0, #13
 654 0016 0021     		mov	r1, #0
 655 0018 FFF7FEFF 		bl	_LCD_Write
 656 001c 03E0     		b	.L41
 657              	.L42:
 177:nokia5110/LCD5110_Graph.c **** 	else
 178:nokia5110/LCD5110_Graph.c **** 		_LCD_Write(PCD8544_DISPLAYCONTROL | PCD8544_DISPLAYNORMAL, LCD_COMMAND);
ARM GAS  C:\Users\Petro\AppData\Local\Temp\ccxzvnq1.s 			page 16


 658              		.loc 2 178 0
 659 001e 0C20     		mov	r0, #12
 660 0020 0021     		mov	r1, #0
 661 0022 FFF7FEFF 		bl	_LCD_Write
 662              	.L41:
 179:nokia5110/LCD5110_Graph.c **** }
 663              		.loc 2 179 0
 664 0026 BD46     		mov	sp, r7
 665 0028 02B0     		add	sp, sp, #8
 666              		@ sp needed
 667 002a 80BD     		pop	{r7, pc}
 668              		.cfi_endproc
 669              	.LFE72:
 670              		.size	invert, .-invert
 671              		.section	.text.setPixel,"ax",%progbits
 672              		.align	2
 673              		.global	setPixel
 674              		.code	16
 675              		.thumb_func
 676              		.type	setPixel, %function
 677              	setPixel:
 678              	.LFB73:
 180:nokia5110/LCD5110_Graph.c **** 
 181:nokia5110/LCD5110_Graph.c **** void setPixel(uint16_t x, uint16_t y)
 182:nokia5110/LCD5110_Graph.c **** {
 679              		.loc 2 182 0
 680              		.cfi_startproc
 681 0000 80B5     		push	{r7, lr}
 682              		.cfi_def_cfa_offset 8
 683              		.cfi_offset 7, -8
 684              		.cfi_offset 14, -4
 685 0002 84B0     		sub	sp, sp, #16
 686              		.cfi_def_cfa_offset 24
 687 0004 00AF     		add	r7, sp, #0
 688              		.cfi_def_cfa_register 7
 689 0006 021C     		mov	r2, r0
 690 0008 BB1D     		add	r3, r7, #6
 691 000a 1A80     		strh	r2, [r3]
 692 000c 3B1D     		add	r3, r7, #4
 693 000e 0A1C     		add	r2, r1, #0
 694 0010 1A80     		strh	r2, [r3]
 183:nokia5110/LCD5110_Graph.c **** 	int by, bi;
 184:nokia5110/LCD5110_Graph.c **** 
 185:nokia5110/LCD5110_Graph.c **** 	if ((x>=0) && (x<84) && (y>=0) && (y<48))
 695              		.loc 2 185 0
 696 0012 BB1D     		add	r3, r7, #6
 697 0014 1B88     		ldrh	r3, [r3]
 698 0016 532B     		cmp	r3, #83
 699 0018 26D8     		bhi	.L44
 700              		.loc 2 185 0 is_stmt 0 discriminator 1
 701 001a 3B1D     		add	r3, r7, #4
 702 001c 1B88     		ldrh	r3, [r3]
 703 001e 2F2B     		cmp	r3, #47
 704 0020 22D8     		bhi	.L44
 186:nokia5110/LCD5110_Graph.c **** 	{
 187:nokia5110/LCD5110_Graph.c **** 		by=((y/8)*84)+x;
 705              		.loc 2 187 0 is_stmt 1
ARM GAS  C:\Users\Petro\AppData\Local\Temp\ccxzvnq1.s 			page 17


 706 0022 3B1D     		add	r3, r7, #4
 707 0024 1B88     		ldrh	r3, [r3]
 708 0026 DB08     		lsr	r3, r3, #3
 709 0028 9BB2     		uxth	r3, r3
 710 002a 1A1C     		mov	r2, r3
 711 002c 5423     		mov	r3, #84
 712 002e 5A43     		mul	r2, r3
 713 0030 BB1D     		add	r3, r7, #6
 714 0032 1B88     		ldrh	r3, [r3]
 715 0034 D318     		add	r3, r2, r3
 716 0036 FB60     		str	r3, [r7, #12]
 188:nokia5110/LCD5110_Graph.c **** 		bi=y % 8;
 717              		.loc 2 188 0
 718 0038 3B1D     		add	r3, r7, #4
 719 003a 1B88     		ldrh	r3, [r3]
 720 003c 0722     		mov	r2, #7
 721 003e 1340     		and	r3, r2
 722 0040 BB60     		str	r3, [r7, #8]
 189:nokia5110/LCD5110_Graph.c **** 
 190:nokia5110/LCD5110_Graph.c **** 		scrbuf[by]=scrbuf[by] | (1<<bi);
 723              		.loc 2 190 0
 724 0042 0B4A     		ldr	r2, .L46
 725 0044 FB68     		ldr	r3, [r7, #12]
 726 0046 D318     		add	r3, r2, r3
 727 0048 1B78     		ldrb	r3, [r3]
 728 004a D9B2     		uxtb	r1, r3
 729 004c 0122     		mov	r2, #1
 730 004e BB68     		ldr	r3, [r7, #8]
 731 0050 9A40     		lsl	r2, r2, r3
 732 0052 131C     		mov	r3, r2
 733 0054 DBB2     		uxtb	r3, r3
 734 0056 0A1C     		add	r2, r1, #0
 735 0058 1343     		orr	r3, r2
 736 005a DBB2     		uxtb	r3, r3
 737 005c D9B2     		uxtb	r1, r3
 738 005e 044A     		ldr	r2, .L46
 739 0060 FB68     		ldr	r3, [r7, #12]
 740 0062 D318     		add	r3, r2, r3
 741 0064 0A1C     		add	r2, r1, #0
 742 0066 1A70     		strb	r2, [r3]
 743              	.L44:
 191:nokia5110/LCD5110_Graph.c **** 	}
 192:nokia5110/LCD5110_Graph.c **** }
 744              		.loc 2 192 0
 745 0068 BD46     		mov	sp, r7
 746 006a 04B0     		add	sp, sp, #16
 747              		@ sp needed
 748 006c 80BD     		pop	{r7, pc}
 749              	.L47:
 750 006e C046     		.align	2
 751              	.L46:
 752 0070 00000000 		.word	scrbuf
 753              		.cfi_endproc
 754              	.LFE73:
 755              		.size	setPixel, .-setPixel
 756              		.section	.text.clrPixel,"ax",%progbits
 757              		.align	2
ARM GAS  C:\Users\Petro\AppData\Local\Temp\ccxzvnq1.s 			page 18


 758              		.global	clrPixel
 759              		.code	16
 760              		.thumb_func
 761              		.type	clrPixel, %function
 762              	clrPixel:
 763              	.LFB74:
 193:nokia5110/LCD5110_Graph.c **** 
 194:nokia5110/LCD5110_Graph.c **** void clrPixel(uint16_t x, uint16_t y)
 195:nokia5110/LCD5110_Graph.c **** {
 764              		.loc 2 195 0
 765              		.cfi_startproc
 766 0000 80B5     		push	{r7, lr}
 767              		.cfi_def_cfa_offset 8
 768              		.cfi_offset 7, -8
 769              		.cfi_offset 14, -4
 770 0002 84B0     		sub	sp, sp, #16
 771              		.cfi_def_cfa_offset 24
 772 0004 00AF     		add	r7, sp, #0
 773              		.cfi_def_cfa_register 7
 774 0006 021C     		mov	r2, r0
 775 0008 BB1D     		add	r3, r7, #6
 776 000a 1A80     		strh	r2, [r3]
 777 000c 3B1D     		add	r3, r7, #4
 778 000e 0A1C     		add	r2, r1, #0
 779 0010 1A80     		strh	r2, [r3]
 196:nokia5110/LCD5110_Graph.c **** 	int by, bi;
 197:nokia5110/LCD5110_Graph.c **** 
 198:nokia5110/LCD5110_Graph.c **** 	if ((x>=0) && (x<84) && (y>=0) && (y<48))
 780              		.loc 2 198 0
 781 0012 BB1D     		add	r3, r7, #6
 782 0014 1B88     		ldrh	r3, [r3]
 783 0016 532B     		cmp	r3, #83
 784 0018 28D8     		bhi	.L48
 785              		.loc 2 198 0 is_stmt 0 discriminator 1
 786 001a 3B1D     		add	r3, r7, #4
 787 001c 1B88     		ldrh	r3, [r3]
 788 001e 2F2B     		cmp	r3, #47
 789 0020 24D8     		bhi	.L48
 199:nokia5110/LCD5110_Graph.c **** 	{
 200:nokia5110/LCD5110_Graph.c **** 		by=((y/8)*84)+x;
 790              		.loc 2 200 0 is_stmt 1
 791 0022 3B1D     		add	r3, r7, #4
 792 0024 1B88     		ldrh	r3, [r3]
 793 0026 DB08     		lsr	r3, r3, #3
 794 0028 9BB2     		uxth	r3, r3
 795 002a 1A1C     		mov	r2, r3
 796 002c 5423     		mov	r3, #84
 797 002e 5A43     		mul	r2, r3
 798 0030 BB1D     		add	r3, r7, #6
 799 0032 1B88     		ldrh	r3, [r3]
 800 0034 D318     		add	r3, r2, r3
 801 0036 FB60     		str	r3, [r7, #12]
 201:nokia5110/LCD5110_Graph.c **** 		bi=y % 8;
 802              		.loc 2 201 0
 803 0038 3B1D     		add	r3, r7, #4
 804 003a 1B88     		ldrh	r3, [r3]
 805 003c 0722     		mov	r2, #7
ARM GAS  C:\Users\Petro\AppData\Local\Temp\ccxzvnq1.s 			page 19


 806 003e 1340     		and	r3, r2
 807 0040 BB60     		str	r3, [r7, #8]
 202:nokia5110/LCD5110_Graph.c **** 
 203:nokia5110/LCD5110_Graph.c **** 		scrbuf[by]=scrbuf[by] & ~(1<<bi);
 808              		.loc 2 203 0
 809 0042 0C4A     		ldr	r2, .L50
 810 0044 FB68     		ldr	r3, [r7, #12]
 811 0046 D318     		add	r3, r2, r3
 812 0048 1B78     		ldrb	r3, [r3]
 813 004a D9B2     		uxtb	r1, r3
 814 004c 0122     		mov	r2, #1
 815 004e BB68     		ldr	r3, [r7, #8]
 816 0050 9A40     		lsl	r2, r2, r3
 817 0052 131C     		mov	r3, r2
 818 0054 DBB2     		uxtb	r3, r3
 819 0056 DB43     		mvn	r3, r3
 820 0058 DAB2     		uxtb	r2, r3
 821 005a 0B1C     		add	r3, r1, #0
 822 005c 1340     		and	r3, r2
 823 005e DBB2     		uxtb	r3, r3
 824 0060 D9B2     		uxtb	r1, r3
 825 0062 044A     		ldr	r2, .L50
 826 0064 FB68     		ldr	r3, [r7, #12]
 827 0066 D318     		add	r3, r2, r3
 828 0068 0A1C     		add	r2, r1, #0
 829 006a 1A70     		strb	r2, [r3]
 830              	.L48:
 204:nokia5110/LCD5110_Graph.c **** 	}
 205:nokia5110/LCD5110_Graph.c **** }
 831              		.loc 2 205 0
 832 006c BD46     		mov	sp, r7
 833 006e 04B0     		add	sp, sp, #16
 834              		@ sp needed
 835 0070 80BD     		pop	{r7, pc}
 836              	.L51:
 837 0072 C046     		.align	2
 838              	.L50:
 839 0074 00000000 		.word	scrbuf
 840              		.cfi_endproc
 841              	.LFE74:
 842              		.size	clrPixel, .-clrPixel
 843              		.section	.text.invPixel,"ax",%progbits
 844              		.align	2
 845              		.global	invPixel
 846              		.code	16
 847              		.thumb_func
 848              		.type	invPixel, %function
 849              	invPixel:
 850              	.LFB75:
 206:nokia5110/LCD5110_Graph.c **** 
 207:nokia5110/LCD5110_Graph.c **** void invPixel(uint16_t x, uint16_t y)
 208:nokia5110/LCD5110_Graph.c **** {
 851              		.loc 2 208 0
 852              		.cfi_startproc
 853 0000 80B5     		push	{r7, lr}
 854              		.cfi_def_cfa_offset 8
 855              		.cfi_offset 7, -8
ARM GAS  C:\Users\Petro\AppData\Local\Temp\ccxzvnq1.s 			page 20


 856              		.cfi_offset 14, -4
 857 0002 84B0     		sub	sp, sp, #16
 858              		.cfi_def_cfa_offset 24
 859 0004 00AF     		add	r7, sp, #0
 860              		.cfi_def_cfa_register 7
 861 0006 021C     		mov	r2, r0
 862 0008 BB1D     		add	r3, r7, #6
 863 000a 1A80     		strh	r2, [r3]
 864 000c 3B1D     		add	r3, r7, #4
 865 000e 0A1C     		add	r2, r1, #0
 866 0010 1A80     		strh	r2, [r3]
 209:nokia5110/LCD5110_Graph.c **** 	int by, bi;
 210:nokia5110/LCD5110_Graph.c **** 
 211:nokia5110/LCD5110_Graph.c **** 	if ((x>=0) && (x<84) && (y>=0) && (y<48))
 867              		.loc 2 211 0
 868 0012 BB1D     		add	r3, r7, #6
 869 0014 1B88     		ldrh	r3, [r3]
 870 0016 532B     		cmp	r3, #83
 871 0018 47D8     		bhi	.L52
 872              		.loc 2 211 0 is_stmt 0 discriminator 1
 873 001a 3B1D     		add	r3, r7, #4
 874 001c 1B88     		ldrh	r3, [r3]
 875 001e 2F2B     		cmp	r3, #47
 876 0020 43D8     		bhi	.L52
 212:nokia5110/LCD5110_Graph.c **** 	{
 213:nokia5110/LCD5110_Graph.c **** 		by=((y/8)*84)+x;
 877              		.loc 2 213 0 is_stmt 1
 878 0022 3B1D     		add	r3, r7, #4
 879 0024 1B88     		ldrh	r3, [r3]
 880 0026 DB08     		lsr	r3, r3, #3
 881 0028 9BB2     		uxth	r3, r3
 882 002a 1A1C     		mov	r2, r3
 883 002c 5423     		mov	r3, #84
 884 002e 5A43     		mul	r2, r3
 885 0030 BB1D     		add	r3, r7, #6
 886 0032 1B88     		ldrh	r3, [r3]
 887 0034 D318     		add	r3, r2, r3
 888 0036 FB60     		str	r3, [r7, #12]
 214:nokia5110/LCD5110_Graph.c **** 		bi=y % 8;
 889              		.loc 2 214 0
 890 0038 3B1D     		add	r3, r7, #4
 891 003a 1B88     		ldrh	r3, [r3]
 892 003c 0722     		mov	r2, #7
 893 003e 1340     		and	r3, r2
 894 0040 BB60     		str	r3, [r7, #8]
 215:nokia5110/LCD5110_Graph.c **** 
 216:nokia5110/LCD5110_Graph.c **** 		if ((scrbuf[by] & (1<<bi))==0)
 895              		.loc 2 216 0
 896 0042 1B4A     		ldr	r2, .L55
 897 0044 FB68     		ldr	r3, [r7, #12]
 898 0046 D318     		add	r3, r2, r3
 899 0048 1B78     		ldrb	r3, [r3]
 900 004a 1A1C     		mov	r2, r3
 901 004c BB68     		ldr	r3, [r7, #8]
 902 004e 1A41     		asr	r2, r2, r3
 903 0050 131C     		mov	r3, r2
 904 0052 0122     		mov	r2, #1
ARM GAS  C:\Users\Petro\AppData\Local\Temp\ccxzvnq1.s 			page 21


 905 0054 1340     		and	r3, r2
 906 0056 13D1     		bne	.L54
 217:nokia5110/LCD5110_Graph.c **** 			scrbuf[by]=scrbuf[by] | (1<<bi);
 907              		.loc 2 217 0
 908 0058 154A     		ldr	r2, .L55
 909 005a FB68     		ldr	r3, [r7, #12]
 910 005c D318     		add	r3, r2, r3
 911 005e 1B78     		ldrb	r3, [r3]
 912 0060 D9B2     		uxtb	r1, r3
 913 0062 0122     		mov	r2, #1
 914 0064 BB68     		ldr	r3, [r7, #8]
 915 0066 9A40     		lsl	r2, r2, r3
 916 0068 131C     		mov	r3, r2
 917 006a DBB2     		uxtb	r3, r3
 918 006c 0A1C     		add	r2, r1, #0
 919 006e 1343     		orr	r3, r2
 920 0070 DBB2     		uxtb	r3, r3
 921 0072 D9B2     		uxtb	r1, r3
 922 0074 0E4A     		ldr	r2, .L55
 923 0076 FB68     		ldr	r3, [r7, #12]
 924 0078 D318     		add	r3, r2, r3
 925 007a 0A1C     		add	r2, r1, #0
 926 007c 1A70     		strb	r2, [r3]
 927 007e 14E0     		b	.L52
 928              	.L54:
 218:nokia5110/LCD5110_Graph.c **** 		else
 219:nokia5110/LCD5110_Graph.c **** 			scrbuf[by]=scrbuf[by] & ~(1<<bi);
 929              		.loc 2 219 0
 930 0080 0B4A     		ldr	r2, .L55
 931 0082 FB68     		ldr	r3, [r7, #12]
 932 0084 D318     		add	r3, r2, r3
 933 0086 1B78     		ldrb	r3, [r3]
 934 0088 D9B2     		uxtb	r1, r3
 935 008a 0122     		mov	r2, #1
 936 008c BB68     		ldr	r3, [r7, #8]
 937 008e 9A40     		lsl	r2, r2, r3
 938 0090 131C     		mov	r3, r2
 939 0092 DBB2     		uxtb	r3, r3
 940 0094 DB43     		mvn	r3, r3
 941 0096 DAB2     		uxtb	r2, r3
 942 0098 0B1C     		add	r3, r1, #0
 943 009a 1340     		and	r3, r2
 944 009c DBB2     		uxtb	r3, r3
 945 009e D9B2     		uxtb	r1, r3
 946 00a0 034A     		ldr	r2, .L55
 947 00a2 FB68     		ldr	r3, [r7, #12]
 948 00a4 D318     		add	r3, r2, r3
 949 00a6 0A1C     		add	r2, r1, #0
 950 00a8 1A70     		strb	r2, [r3]
 951              	.L52:
 220:nokia5110/LCD5110_Graph.c **** 	}
 221:nokia5110/LCD5110_Graph.c **** }
 952              		.loc 2 221 0
 953 00aa BD46     		mov	sp, r7
 954 00ac 04B0     		add	sp, sp, #16
 955              		@ sp needed
 956 00ae 80BD     		pop	{r7, pc}
ARM GAS  C:\Users\Petro\AppData\Local\Temp\ccxzvnq1.s 			page 22


 957              	.L56:
 958              		.align	2
 959              	.L55:
 960 00b0 00000000 		.word	scrbuf
 961              		.cfi_endproc
 962              	.LFE75:
 963              		.size	invPixel, .-invPixel
 964              		.section	.text.invertText,"ax",%progbits
 965              		.align	2
 966              		.global	invertText
 967              		.code	16
 968              		.thumb_func
 969              		.type	invertText, %function
 970              	invertText:
 971              	.LFB76:
 222:nokia5110/LCD5110_Graph.c **** 
 223:nokia5110/LCD5110_Graph.c **** void invertText(bool mode)
 224:nokia5110/LCD5110_Graph.c **** {
 972              		.loc 2 224 0
 973              		.cfi_startproc
 974 0000 80B5     		push	{r7, lr}
 975              		.cfi_def_cfa_offset 8
 976              		.cfi_offset 7, -8
 977              		.cfi_offset 14, -4
 978 0002 82B0     		sub	sp, sp, #8
 979              		.cfi_def_cfa_offset 16
 980 0004 00AF     		add	r7, sp, #0
 981              		.cfi_def_cfa_register 7
 982 0006 021C     		mov	r2, r0
 983 0008 FB1D     		add	r3, r7, #7
 984 000a 1A70     		strb	r2, [r3]
 225:nokia5110/LCD5110_Graph.c **** 	if (mode==true)
 985              		.loc 2 225 0
 986 000c FB1D     		add	r3, r7, #7
 987 000e 1B78     		ldrb	r3, [r3]
 988 0010 002B     		cmp	r3, #0
 989 0012 03D0     		beq	.L58
 226:nokia5110/LCD5110_Graph.c **** 		cfont.inverted=1;
 990              		.loc 2 226 0
 991 0014 044B     		ldr	r3, .L60
 992 0016 0122     		mov	r2, #1
 993 0018 1A72     		strb	r2, [r3, #8]
 994 001a 02E0     		b	.L57
 995              	.L58:
 227:nokia5110/LCD5110_Graph.c **** 	else
 228:nokia5110/LCD5110_Graph.c **** 		cfont.inverted=0;
 996              		.loc 2 228 0
 997 001c 024B     		ldr	r3, .L60
 998 001e 0022     		mov	r2, #0
 999 0020 1A72     		strb	r2, [r3, #8]
 1000              	.L57:
 229:nokia5110/LCD5110_Graph.c **** }
 1001              		.loc 2 229 0
 1002 0022 BD46     		mov	sp, r7
 1003 0024 02B0     		add	sp, sp, #8
 1004              		@ sp needed
 1005 0026 80BD     		pop	{r7, pc}
ARM GAS  C:\Users\Petro\AppData\Local\Temp\ccxzvnq1.s 			page 23


 1006              	.L61:
 1007              		.align	2
 1008              	.L60:
 1009 0028 00000000 		.word	cfont
 1010              		.cfi_endproc
 1011              	.LFE76:
 1012              		.size	invertText, .-invertText
 1013              		.section	.text.print,"ax",%progbits
 1014              		.align	2
 1015              		.global	print
 1016              		.code	16
 1017              		.thumb_func
 1018              		.type	print, %function
 1019              	print:
 1020              	.LFB77:
 230:nokia5110/LCD5110_Graph.c **** 
 231:nokia5110/LCD5110_Graph.c **** void print(char *st, int x, int y)
 232:nokia5110/LCD5110_Graph.c **** {
 1021              		.loc 2 232 0
 1022              		.cfi_startproc
 1023 0000 80B5     		push	{r7, lr}
 1024              		.cfi_def_cfa_offset 8
 1025              		.cfi_offset 7, -8
 1026              		.cfi_offset 14, -4
 1027 0002 86B0     		sub	sp, sp, #24
 1028              		.cfi_def_cfa_offset 32
 1029 0004 00AF     		add	r7, sp, #0
 1030              		.cfi_def_cfa_register 7
 1031 0006 F860     		str	r0, [r7, #12]
 1032 0008 B960     		str	r1, [r7, #8]
 1033 000a 7A60     		str	r2, [r7, #4]
 233:nokia5110/LCD5110_Graph.c **** 	unsigned char ch;
 234:nokia5110/LCD5110_Graph.c **** 	int stl;
 235:nokia5110/LCD5110_Graph.c **** 
 236:nokia5110/LCD5110_Graph.c **** 	stl = strlen(st);
 1034              		.loc 2 236 0
 1035 000c FB68     		ldr	r3, [r7, #12]
 1036 000e 181C     		mov	r0, r3
 1037 0010 FFF7FEFF 		bl	strlen
 1038 0014 031C     		mov	r3, r0
 1039 0016 3B61     		str	r3, [r7, #16]
 237:nokia5110/LCD5110_Graph.c **** 	if (x == RIGHT)
 1040              		.loc 2 237 0
 1041 0018 BB68     		ldr	r3, [r7, #8]
 1042 001a 1C4A     		ldr	r2, .L68
 1043 001c 9342     		cmp	r3, r2
 1044 001e 07D1     		bne	.L63
 238:nokia5110/LCD5110_Graph.c **** 		x = 84-(stl*cfont.x_size);
 1045              		.loc 2 238 0
 1046 0020 1B4B     		ldr	r3, .L68+4
 1047 0022 1B79     		ldrb	r3, [r3, #4]
 1048 0024 1A1C     		mov	r2, r3
 1049 0026 3B69     		ldr	r3, [r7, #16]
 1050 0028 5343     		mul	r3, r2
 1051 002a 5422     		mov	r2, #84
 1052 002c D31A     		sub	r3, r2, r3
 1053 002e BB60     		str	r3, [r7, #8]
ARM GAS  C:\Users\Petro\AppData\Local\Temp\ccxzvnq1.s 			page 24


 1054              	.L63:
 239:nokia5110/LCD5110_Graph.c **** 	if (x == CENTER)
 1055              		.loc 2 239 0
 1056 0030 BB68     		ldr	r3, [r7, #8]
 1057 0032 184A     		ldr	r2, .L68+8
 1058 0034 9342     		cmp	r3, r2
 1059 0036 0AD1     		bne	.L64
 240:nokia5110/LCD5110_Graph.c **** 		x = (84-(stl*cfont.x_size))/2;
 1060              		.loc 2 240 0
 1061 0038 154B     		ldr	r3, .L68+4
 1062 003a 1B79     		ldrb	r3, [r3, #4]
 1063 003c 1A1C     		mov	r2, r3
 1064 003e 3B69     		ldr	r3, [r7, #16]
 1065 0040 5343     		mul	r3, r2
 1066 0042 5422     		mov	r2, #84
 1067 0044 D31A     		sub	r3, r2, r3
 1068 0046 00D5     		bpl	.L65
 1069 0048 0133     		add	r3, r3, #1
 1070              	.L65:
 1071 004a 5B10     		asr	r3, r3, #1
 1072 004c BB60     		str	r3, [r7, #8]
 1073              	.L64:
 241:nokia5110/LCD5110_Graph.c **** 
 242:nokia5110/LCD5110_Graph.c ****     int cnt;
 243:nokia5110/LCD5110_Graph.c **** 	for (cnt=0; cnt<stl; cnt++)
 1074              		.loc 2 243 0
 1075 004e 0023     		mov	r3, #0
 1076 0050 7B61     		str	r3, [r7, #20]
 1077 0052 13E0     		b	.L66
 1078              	.L67:
 244:nokia5110/LCD5110_Graph.c **** 			_print_char(*st++, x + (cnt*(cfont.x_size)), y);
 1079              		.loc 2 244 0 discriminator 3
 1080 0054 FB68     		ldr	r3, [r7, #12]
 1081 0056 5A1C     		add	r2, r3, #1
 1082 0058 FA60     		str	r2, [r7, #12]
 1083 005a 1978     		ldrb	r1, [r3]
 1084 005c 0C4B     		ldr	r3, .L68+4
 1085 005e 1B79     		ldrb	r3, [r3, #4]
 1086 0060 1A1C     		mov	r2, r3
 1087 0062 7B69     		ldr	r3, [r7, #20]
 1088 0064 5A43     		mul	r2, r3
 1089 0066 BB68     		ldr	r3, [r7, #8]
 1090 0068 D218     		add	r2, r2, r3
 1091 006a 7B68     		ldr	r3, [r7, #4]
 1092 006c 081C     		mov	r0, r1
 1093 006e 111C     		mov	r1, r2
 1094 0070 1A1C     		mov	r2, r3
 1095 0072 FFF7FEFF 		bl	_print_char
 243:nokia5110/LCD5110_Graph.c **** 			_print_char(*st++, x + (cnt*(cfont.x_size)), y);
 1096              		.loc 2 243 0 discriminator 3
 1097 0076 7B69     		ldr	r3, [r7, #20]
 1098 0078 0133     		add	r3, r3, #1
 1099 007a 7B61     		str	r3, [r7, #20]
 1100              	.L66:
 243:nokia5110/LCD5110_Graph.c **** 			_print_char(*st++, x + (cnt*(cfont.x_size)), y);
 1101              		.loc 2 243 0 is_stmt 0 discriminator 1
 1102 007c 7A69     		ldr	r2, [r7, #20]
ARM GAS  C:\Users\Petro\AppData\Local\Temp\ccxzvnq1.s 			page 25


 1103 007e 3B69     		ldr	r3, [r7, #16]
 1104 0080 9A42     		cmp	r2, r3
 1105 0082 E7DB     		blt	.L67
 245:nokia5110/LCD5110_Graph.c **** }
 1106              		.loc 2 245 0 is_stmt 1
 1107 0084 BD46     		mov	sp, r7
 1108 0086 06B0     		add	sp, sp, #24
 1109              		@ sp needed
 1110 0088 80BD     		pop	{r7, pc}
 1111              	.L69:
 1112 008a C046     		.align	2
 1113              	.L68:
 1114 008c 0F270000 		.word	9999
 1115 0090 00000000 		.word	cfont
 1116 0094 0E270000 		.word	9998
 1117              		.cfi_endproc
 1118              	.LFE77:
 1119              		.size	print, .-print
 1120              		.section	.text.prints,"ax",%progbits
 1121              		.align	2
 1122              		.global	prints
 1123              		.code	16
 1124              		.thumb_func
 1125              		.type	prints, %function
 1126              	prints:
 1127              	.LFB78:
 246:nokia5110/LCD5110_Graph.c **** 
 247:nokia5110/LCD5110_Graph.c **** void prints(char *st, int x, int y)
 248:nokia5110/LCD5110_Graph.c **** {
 1128              		.loc 2 248 0
 1129              		.cfi_startproc
 1130 0000 80B5     		push	{r7, lr}
 1131              		.cfi_def_cfa_offset 8
 1132              		.cfi_offset 7, -8
 1133              		.cfi_offset 14, -4
 1134 0002 84B0     		sub	sp, sp, #16
 1135              		.cfi_def_cfa_offset 24
 1136 0004 00AF     		add	r7, sp, #0
 1137              		.cfi_def_cfa_register 7
 1138 0006 F860     		str	r0, [r7, #12]
 1139 0008 B960     		str	r1, [r7, #8]
 1140 000a 7A60     		str	r2, [r7, #4]
 249:nokia5110/LCD5110_Graph.c **** //	char buf[st.length()+1];
 250:nokia5110/LCD5110_Graph.c **** //
 251:nokia5110/LCD5110_Graph.c **** //	st.toCharArray(buf, st.length()+1);
 252:nokia5110/LCD5110_Graph.c **** 	print(st, x, y);
 1141              		.loc 2 252 0
 1142 000c F968     		ldr	r1, [r7, #12]
 1143 000e BA68     		ldr	r2, [r7, #8]
 1144 0010 7B68     		ldr	r3, [r7, #4]
 1145 0012 081C     		mov	r0, r1
 1146 0014 111C     		mov	r1, r2
 1147 0016 1A1C     		mov	r2, r3
 1148 0018 FFF7FEFF 		bl	print
 253:nokia5110/LCD5110_Graph.c **** }
 1149              		.loc 2 253 0
 1150 001c BD46     		mov	sp, r7
ARM GAS  C:\Users\Petro\AppData\Local\Temp\ccxzvnq1.s 			page 26


 1151 001e 04B0     		add	sp, sp, #16
 1152              		@ sp needed
 1153 0020 80BD     		pop	{r7, pc}
 1154              		.cfi_endproc
 1155              	.LFE78:
 1156              		.size	prints, .-prints
 1157              		.global	__aeabi_idivmod
 1158              		.global	__aeabi_idiv
 1159 0022 C046     		.section	.text.printNumI,"ax",%progbits
 1160              		.align	2
 1161              		.global	printNumI
 1162              		.code	16
 1163              		.thumb_func
 1164              		.type	printNumI, %function
 1165              	printNumI:
 1166              	.LFB79:
 254:nokia5110/LCD5110_Graph.c **** 
 255:nokia5110/LCD5110_Graph.c **** void printNumI(long num, int x, int y, int length, char filler)
 256:nokia5110/LCD5110_Graph.c **** {
 1167              		.loc 2 256 0
 1168              		.cfi_startproc
 1169 0000 80B5     		push	{r7, lr}
 1170              		.cfi_def_cfa_offset 8
 1171              		.cfi_offset 7, -8
 1172              		.cfi_offset 14, -4
 1173 0002 98B0     		sub	sp, sp, #96
 1174              		.cfi_def_cfa_offset 104
 1175 0004 00AF     		add	r7, sp, #0
 1176              		.cfi_def_cfa_register 7
 1177 0006 F860     		str	r0, [r7, #12]
 1178 0008 B960     		str	r1, [r7, #8]
 1179 000a 7A60     		str	r2, [r7, #4]
 1180 000c 3B60     		str	r3, [r7]
 257:nokia5110/LCD5110_Graph.c **** 	char buf[25];
 258:nokia5110/LCD5110_Graph.c **** 	char st[27];
 259:nokia5110/LCD5110_Graph.c **** 	bool neg=false;
 1181              		.loc 2 259 0
 1182 000e 5F23     		mov	r3, #95
 1183 0010 FB18     		add	r3, r7, r3
 1184 0012 0022     		mov	r2, #0
 1185 0014 1A70     		strb	r2, [r3]
 260:nokia5110/LCD5110_Graph.c **** 	int c=0, f=0;
 1186              		.loc 2 260 0
 1187 0016 0023     		mov	r3, #0
 1188 0018 BB65     		str	r3, [r7, #88]
 1189 001a 0023     		mov	r3, #0
 1190 001c 7B65     		str	r3, [r7, #84]
 261:nokia5110/LCD5110_Graph.c ****   
 262:nokia5110/LCD5110_Graph.c **** 	if (num==0)
 1191              		.loc 2 262 0
 1192 001e FB68     		ldr	r3, [r7, #12]
 1193 0020 002B     		cmp	r3, #0
 1194 0022 2BD1     		bne	.L72
 263:nokia5110/LCD5110_Graph.c **** 	{
 264:nokia5110/LCD5110_Graph.c **** 		if (length!=0)
 1195              		.loc 2 264 0
 1196 0024 3B68     		ldr	r3, [r7]
ARM GAS  C:\Users\Petro\AppData\Local\Temp\ccxzvnq1.s 			page 27


 1197 0026 002B     		cmp	r3, #0
 1198 0028 1FD0     		beq	.L73
 265:nokia5110/LCD5110_Graph.c **** 		{
 266:nokia5110/LCD5110_Graph.c **** 			for (c=0; c<(length-1); c++)
 1199              		.loc 2 266 0
 1200 002a 0023     		mov	r3, #0
 1201 002c BB65     		str	r3, [r7, #88]
 1202 002e 0AE0     		b	.L74
 1203              	.L75:
 267:nokia5110/LCD5110_Graph.c **** 				st[c]=filler;
 1204              		.loc 2 267 0 discriminator 3
 1205 0030 1423     		mov	r3, #20
 1206 0032 FA18     		add	r2, r7, r3
 1207 0034 BB6D     		ldr	r3, [r7, #88]
 1208 0036 D318     		add	r3, r2, r3
 1209 0038 6822     		mov	r2, #104
 1210 003a BA18     		add	r2, r7, r2
 1211 003c 1278     		ldrb	r2, [r2]
 1212 003e 1A70     		strb	r2, [r3]
 266:nokia5110/LCD5110_Graph.c **** 				st[c]=filler;
 1213              		.loc 2 266 0 discriminator 3
 1214 0040 BB6D     		ldr	r3, [r7, #88]
 1215 0042 0133     		add	r3, r3, #1
 1216 0044 BB65     		str	r3, [r7, #88]
 1217              	.L74:
 266:nokia5110/LCD5110_Graph.c **** 				st[c]=filler;
 1218              		.loc 2 266 0 is_stmt 0 discriminator 1
 1219 0046 3B68     		ldr	r3, [r7]
 1220 0048 5A1E     		sub	r2, r3, #1
 1221 004a BB6D     		ldr	r3, [r7, #88]
 1222 004c 9A42     		cmp	r2, r3
 1223 004e EFDC     		bgt	.L75
 268:nokia5110/LCD5110_Graph.c **** 			st[c]=48;
 1224              		.loc 2 268 0 is_stmt 1
 1225 0050 1423     		mov	r3, #20
 1226 0052 FA18     		add	r2, r7, r3
 1227 0054 BB6D     		ldr	r3, [r7, #88]
 1228 0056 D318     		add	r3, r2, r3
 1229 0058 3022     		mov	r2, #48
 1230 005a 1A70     		strb	r2, [r3]
 269:nokia5110/LCD5110_Graph.c **** 			st[c+1]=0;
 1231              		.loc 2 269 0
 1232 005c BB6D     		ldr	r3, [r7, #88]
 1233 005e 0133     		add	r3, r3, #1
 1234 0060 1422     		mov	r2, #20
 1235 0062 BA18     		add	r2, r7, r2
 1236 0064 0021     		mov	r1, #0
 1237 0066 D154     		strb	r1, [r2, r3]
 1238 0068 92E0     		b	.L77
 1239              	.L73:
 270:nokia5110/LCD5110_Graph.c **** 		}
 271:nokia5110/LCD5110_Graph.c **** 		else
 272:nokia5110/LCD5110_Graph.c **** 		{
 273:nokia5110/LCD5110_Graph.c **** 			st[0]=48;
 1240              		.loc 2 273 0
 1241 006a 1423     		mov	r3, #20
 1242 006c FB18     		add	r3, r7, r3
ARM GAS  C:\Users\Petro\AppData\Local\Temp\ccxzvnq1.s 			page 28


 1243 006e 3022     		mov	r2, #48
 1244 0070 1A70     		strb	r2, [r3]
 274:nokia5110/LCD5110_Graph.c **** 			st[1]=0;
 1245              		.loc 2 274 0
 1246 0072 1423     		mov	r3, #20
 1247 0074 FB18     		add	r3, r7, r3
 1248 0076 0022     		mov	r2, #0
 1249 0078 5A70     		strb	r2, [r3, #1]
 1250 007a 89E0     		b	.L77
 1251              	.L72:
 1252              	.LBB3:
 275:nokia5110/LCD5110_Graph.c **** 		}
 276:nokia5110/LCD5110_Graph.c **** 	}
 277:nokia5110/LCD5110_Graph.c **** 	else
 278:nokia5110/LCD5110_Graph.c **** 	{
 279:nokia5110/LCD5110_Graph.c **** 		if (num<0)
 1253              		.loc 2 279 0
 1254 007c FB68     		ldr	r3, [r7, #12]
 1255 007e 002B     		cmp	r3, #0
 1256 0080 06DA     		bge	.L78
 280:nokia5110/LCD5110_Graph.c **** 		{
 281:nokia5110/LCD5110_Graph.c **** 			neg=true;
 1257              		.loc 2 281 0
 1258 0082 5F23     		mov	r3, #95
 1259 0084 FB18     		add	r3, r7, r3
 1260 0086 0122     		mov	r2, #1
 1261 0088 1A70     		strb	r2, [r3]
 282:nokia5110/LCD5110_Graph.c **** 			num=-num;
 1262              		.loc 2 282 0
 1263 008a FB68     		ldr	r3, [r7, #12]
 1264 008c 5B42     		neg	r3, r3
 1265 008e FB60     		str	r3, [r7, #12]
 1266              	.L78:
 283:nokia5110/LCD5110_Graph.c **** 		}
 284:nokia5110/LCD5110_Graph.c **** 	  
 285:nokia5110/LCD5110_Graph.c **** 		while (num>0)
 1267              		.loc 2 285 0
 1268 0090 20E0     		b	.L79
 1269              	.L80:
 286:nokia5110/LCD5110_Graph.c **** 		{
 287:nokia5110/LCD5110_Graph.c **** 			buf[c]=48+(num % 10);
 1270              		.loc 2 287 0
 1271 0092 FB68     		ldr	r3, [r7, #12]
 1272 0094 181C     		mov	r0, r3
 1273 0096 0A21     		mov	r1, #10
 1274 0098 FFF7FEFF 		bl	__aeabi_idivmod
 1275 009c 0B1C     		mov	r3, r1
 1276 009e DBB2     		uxtb	r3, r3
 1277 00a0 3033     		add	r3, r3, #48
 1278 00a2 D9B2     		uxtb	r1, r3
 1279 00a4 3023     		mov	r3, #48
 1280 00a6 FA18     		add	r2, r7, r3
 1281 00a8 BB6D     		ldr	r3, [r7, #88]
 1282 00aa D318     		add	r3, r2, r3
 1283 00ac 0A1C     		add	r2, r1, #0
 1284 00ae 1A70     		strb	r2, [r3]
 288:nokia5110/LCD5110_Graph.c **** 			c++;
ARM GAS  C:\Users\Petro\AppData\Local\Temp\ccxzvnq1.s 			page 29


 1285              		.loc 2 288 0
 1286 00b0 BB6D     		ldr	r3, [r7, #88]
 1287 00b2 0133     		add	r3, r3, #1
 1288 00b4 BB65     		str	r3, [r7, #88]
 289:nokia5110/LCD5110_Graph.c **** 			num=(num-(num % 10))/10;
 1289              		.loc 2 289 0
 1290 00b6 FB68     		ldr	r3, [r7, #12]
 1291 00b8 181C     		mov	r0, r3
 1292 00ba 0A21     		mov	r1, #10
 1293 00bc FFF7FEFF 		bl	__aeabi_idivmod
 1294 00c0 0B1C     		mov	r3, r1
 1295 00c2 1A1C     		mov	r2, r3
 1296 00c4 FB68     		ldr	r3, [r7, #12]
 1297 00c6 9B1A     		sub	r3, r3, r2
 1298 00c8 181C     		mov	r0, r3
 1299 00ca 0A21     		mov	r1, #10
 1300 00cc FFF7FEFF 		bl	__aeabi_idiv
 1301 00d0 031C     		mov	r3, r0
 1302 00d2 FB60     		str	r3, [r7, #12]
 1303              	.L79:
 285:nokia5110/LCD5110_Graph.c **** 		{
 1304              		.loc 2 285 0
 1305 00d4 FB68     		ldr	r3, [r7, #12]
 1306 00d6 002B     		cmp	r3, #0
 1307 00d8 DBDC     		bgt	.L80
 290:nokia5110/LCD5110_Graph.c **** 		}
 291:nokia5110/LCD5110_Graph.c **** 		buf[c]=0;
 1308              		.loc 2 291 0
 1309 00da 3023     		mov	r3, #48
 1310 00dc FA18     		add	r2, r7, r3
 1311 00de BB6D     		ldr	r3, [r7, #88]
 1312 00e0 D318     		add	r3, r2, r3
 1313 00e2 0022     		mov	r2, #0
 1314 00e4 1A70     		strb	r2, [r3]
 292:nokia5110/LCD5110_Graph.c **** 	  
 293:nokia5110/LCD5110_Graph.c **** 		if (neg)
 1315              		.loc 2 293 0
 1316 00e6 5F23     		mov	r3, #95
 1317 00e8 FB18     		add	r3, r7, r3
 1318 00ea 1B78     		ldrb	r3, [r3]
 1319 00ec 002B     		cmp	r3, #0
 1320 00ee 03D0     		beq	.L81
 294:nokia5110/LCD5110_Graph.c **** 		{
 295:nokia5110/LCD5110_Graph.c **** 			st[0]=45;
 1321              		.loc 2 295 0
 1322 00f0 1423     		mov	r3, #20
 1323 00f2 FB18     		add	r3, r7, r3
 1324 00f4 2D22     		mov	r2, #45
 1325 00f6 1A70     		strb	r2, [r3]
 1326              	.L81:
 296:nokia5110/LCD5110_Graph.c **** 		}
 297:nokia5110/LCD5110_Graph.c **** 	  
 298:nokia5110/LCD5110_Graph.c **** 		if (length>(c+neg))
 1327              		.loc 2 298 0
 1328 00f8 5F23     		mov	r3, #95
 1329 00fa FB18     		add	r3, r7, r3
 1330 00fc 1A78     		ldrb	r2, [r3]
ARM GAS  C:\Users\Petro\AppData\Local\Temp\ccxzvnq1.s 			page 30


 1331 00fe BB6D     		ldr	r3, [r7, #88]
 1332 0100 D218     		add	r2, r2, r3
 1333 0102 3B68     		ldr	r3, [r7]
 1334 0104 9A42     		cmp	r2, r3
 1335 0106 1DDA     		bge	.L82
 1336              	.LBB4:
 299:nokia5110/LCD5110_Graph.c **** 		{
 300:nokia5110/LCD5110_Graph.c ****             int i;
 301:nokia5110/LCD5110_Graph.c **** 			for (i=0; i<(length-c-neg); i++)
 1337              		.loc 2 301 0
 1338 0108 0023     		mov	r3, #0
 1339 010a 3B65     		str	r3, [r7, #80]
 1340 010c 10E0     		b	.L83
 1341              	.L84:
 302:nokia5110/LCD5110_Graph.c **** 			{
 303:nokia5110/LCD5110_Graph.c **** 				st[i+neg]=filler;
 1342              		.loc 2 303 0 discriminator 3
 1343 010e 5F23     		mov	r3, #95
 1344 0110 FB18     		add	r3, r7, r3
 1345 0112 1A78     		ldrb	r2, [r3]
 1346 0114 3B6D     		ldr	r3, [r7, #80]
 1347 0116 D318     		add	r3, r2, r3
 1348 0118 1422     		mov	r2, #20
 1349 011a BA18     		add	r2, r7, r2
 1350 011c 6821     		mov	r1, #104
 1351 011e 7918     		add	r1, r7, r1
 1352 0120 0978     		ldrb	r1, [r1]
 1353 0122 D154     		strb	r1, [r2, r3]
 304:nokia5110/LCD5110_Graph.c **** 				f++;
 1354              		.loc 2 304 0 discriminator 3
 1355 0124 7B6D     		ldr	r3, [r7, #84]
 1356 0126 0133     		add	r3, r3, #1
 1357 0128 7B65     		str	r3, [r7, #84]
 301:nokia5110/LCD5110_Graph.c **** 			{
 1358              		.loc 2 301 0 discriminator 3
 1359 012a 3B6D     		ldr	r3, [r7, #80]
 1360 012c 0133     		add	r3, r3, #1
 1361 012e 3B65     		str	r3, [r7, #80]
 1362              	.L83:
 301:nokia5110/LCD5110_Graph.c **** 			{
 1363              		.loc 2 301 0 is_stmt 0 discriminator 1
 1364 0130 3A68     		ldr	r2, [r7]
 1365 0132 BB6D     		ldr	r3, [r7, #88]
 1366 0134 D21A     		sub	r2, r2, r3
 1367 0136 5F23     		mov	r3, #95
 1368 0138 FB18     		add	r3, r7, r3
 1369 013a 1B78     		ldrb	r3, [r3]
 1370 013c D21A     		sub	r2, r2, r3
 1371 013e 3B6D     		ldr	r3, [r7, #80]
 1372 0140 9A42     		cmp	r2, r3
 1373 0142 E4DC     		bgt	.L84
 1374              	.L82:
 1375              	.LBE4:
 305:nokia5110/LCD5110_Graph.c **** 			}
 306:nokia5110/LCD5110_Graph.c **** 		}
 307:nokia5110/LCD5110_Graph.c **** 
 308:nokia5110/LCD5110_Graph.c ****         int i;
ARM GAS  C:\Users\Petro\AppData\Local\Temp\ccxzvnq1.s 			page 31


 309:nokia5110/LCD5110_Graph.c **** 		for (i=0; i<c; i++)
 1376              		.loc 2 309 0 is_stmt 1
 1377 0144 0023     		mov	r3, #0
 1378 0146 FB64     		str	r3, [r7, #76]
 1379 0148 13E0     		b	.L85
 1380              	.L86:
 310:nokia5110/LCD5110_Graph.c **** 		{
 311:nokia5110/LCD5110_Graph.c **** 			st[i+neg+f]=buf[c-i-1];
 1381              		.loc 2 311 0 discriminator 3
 1382 014a 5F23     		mov	r3, #95
 1383 014c FB18     		add	r3, r7, r3
 1384 014e 1A78     		ldrb	r2, [r3]
 1385 0150 FB6C     		ldr	r3, [r7, #76]
 1386 0152 D218     		add	r2, r2, r3
 1387 0154 7B6D     		ldr	r3, [r7, #84]
 1388 0156 D318     		add	r3, r2, r3
 1389 0158 B96D     		ldr	r1, [r7, #88]
 1390 015a FA6C     		ldr	r2, [r7, #76]
 1391 015c 8A1A     		sub	r2, r1, r2
 1392 015e 013A     		sub	r2, r2, #1
 1393 0160 3021     		mov	r1, #48
 1394 0162 7918     		add	r1, r7, r1
 1395 0164 895C     		ldrb	r1, [r1, r2]
 1396 0166 1422     		mov	r2, #20
 1397 0168 BA18     		add	r2, r7, r2
 1398 016a D154     		strb	r1, [r2, r3]
 309:nokia5110/LCD5110_Graph.c **** 		{
 1399              		.loc 2 309 0 discriminator 3
 1400 016c FB6C     		ldr	r3, [r7, #76]
 1401 016e 0133     		add	r3, r3, #1
 1402 0170 FB64     		str	r3, [r7, #76]
 1403              	.L85:
 309:nokia5110/LCD5110_Graph.c **** 		{
 1404              		.loc 2 309 0 is_stmt 0 discriminator 1
 1405 0172 FA6C     		ldr	r2, [r7, #76]
 1406 0174 BB6D     		ldr	r3, [r7, #88]
 1407 0176 9A42     		cmp	r2, r3
 1408 0178 E7DB     		blt	.L86
 312:nokia5110/LCD5110_Graph.c **** 		}
 313:nokia5110/LCD5110_Graph.c **** 		st[c+neg+f]=0;
 1409              		.loc 2 313 0 is_stmt 1
 1410 017a 5F23     		mov	r3, #95
 1411 017c FB18     		add	r3, r7, r3
 1412 017e 1A78     		ldrb	r2, [r3]
 1413 0180 BB6D     		ldr	r3, [r7, #88]
 1414 0182 D218     		add	r2, r2, r3
 1415 0184 7B6D     		ldr	r3, [r7, #84]
 1416 0186 D318     		add	r3, r2, r3
 1417 0188 1422     		mov	r2, #20
 1418 018a BA18     		add	r2, r7, r2
 1419 018c 0021     		mov	r1, #0
 1420 018e D154     		strb	r1, [r2, r3]
 1421              	.L77:
 1422              	.LBE3:
 314:nokia5110/LCD5110_Graph.c **** 
 315:nokia5110/LCD5110_Graph.c **** 	}
 316:nokia5110/LCD5110_Graph.c **** 
ARM GAS  C:\Users\Petro\AppData\Local\Temp\ccxzvnq1.s 			page 32


 317:nokia5110/LCD5110_Graph.c **** 	print(st,x,y);
 1423              		.loc 2 317 0
 1424 0190 1423     		mov	r3, #20
 1425 0192 F918     		add	r1, r7, r3
 1426 0194 BA68     		ldr	r2, [r7, #8]
 1427 0196 7B68     		ldr	r3, [r7, #4]
 1428 0198 081C     		mov	r0, r1
 1429 019a 111C     		mov	r1, r2
 1430 019c 1A1C     		mov	r2, r3
 1431 019e FFF7FEFF 		bl	print
 318:nokia5110/LCD5110_Graph.c **** }
 1432              		.loc 2 318 0
 1433 01a2 BD46     		mov	sp, r7
 1434 01a4 18B0     		add	sp, sp, #96
 1435              		@ sp needed
 1436 01a6 80BD     		pop	{r7, pc}
 1437              		.cfi_endproc
 1438              	.LFE79:
 1439              		.size	printNumI, .-printNumI
 1440              		.global	__aeabi_dcmplt
 1441              		.section	.text.printNumF,"ax",%progbits
 1442              		.align	2
 1443              		.global	printNumF
 1444              		.code	16
 1445              		.thumb_func
 1446              		.type	printNumF, %function
 1447              	printNumF:
 1448              	.LFB80:
 319:nokia5110/LCD5110_Graph.c **** 
 320:nokia5110/LCD5110_Graph.c **** void printNumF(double num, uint8 dec, int x, int y, char divider, int length, char filler)
 321:nokia5110/LCD5110_Graph.c **** {
 1449              		.loc 2 321 0
 1450              		.cfi_startproc
 1451 0000 90B5     		push	{r4, r7, lr}
 1452              		.cfi_def_cfa_offset 12
 1453              		.cfi_offset 4, -12
 1454              		.cfi_offset 7, -8
 1455              		.cfi_offset 14, -4
 1456 0002 93B0     		sub	sp, sp, #76
 1457              		.cfi_def_cfa_offset 88
 1458 0004 02AF     		add	r7, sp, #8
 1459              		.cfi_def_cfa 7, 80
 1460 0006 B860     		str	r0, [r7, #8]
 1461 0008 F960     		str	r1, [r7, #12]
 1462 000a 3B60     		str	r3, [r7]
 1463 000c FB1D     		add	r3, r7, #7
 1464 000e 1A70     		strb	r2, [r3]
 322:nokia5110/LCD5110_Graph.c **** 	char st[27];
 323:nokia5110/LCD5110_Graph.c ****     uint8_t size;
 324:nokia5110/LCD5110_Graph.c **** 	bool neg=false;
 1465              		.loc 2 324 0
 1466 0010 3F23     		mov	r3, #63
 1467 0012 FB18     		add	r3, r7, r3
 1468 0014 0022     		mov	r2, #0
 1469 0016 1A70     		strb	r2, [r3]
 325:nokia5110/LCD5110_Graph.c **** 
 326:nokia5110/LCD5110_Graph.c **** 	if (num<0)
ARM GAS  C:\Users\Petro\AppData\Local\Temp\ccxzvnq1.s 			page 33


 1470              		.loc 2 326 0
 1471 0018 B868     		ldr	r0, [r7, #8]
 1472 001a F968     		ldr	r1, [r7, #12]
 1473 001c 0022     		mov	r2, #0
 1474 001e 0023     		mov	r3, #0
 1475 0020 FFF7FEFF 		bl	__aeabi_dcmplt
 1476 0024 031E     		sub	r3, r0, #0
 1477 0026 03D0     		beq	.L88
 327:nokia5110/LCD5110_Graph.c **** 		neg = true;
 1478              		.loc 2 327 0
 1479 0028 3F23     		mov	r3, #63
 1480 002a FB18     		add	r3, r7, r3
 1481 002c 0122     		mov	r2, #1
 1482 002e 1A70     		strb	r2, [r3]
 1483              	.L88:
 328:nokia5110/LCD5110_Graph.c **** 
 329:nokia5110/LCD5110_Graph.c **** 	_convert_float(st, num, length, dec);
 1484              		.loc 2 329 0
 1485 0030 1423     		mov	r3, #20
 1486 0032 F918     		add	r1, r7, r3
 1487 0034 BB68     		ldr	r3, [r7, #8]
 1488 0036 FC68     		ldr	r4, [r7, #12]
 1489 0038 BA6D     		ldr	r2, [r7, #88]
 1490 003a 0092     		str	r2, [sp]
 1491 003c FA1D     		add	r2, r7, #7
 1492 003e 1278     		ldrb	r2, [r2]
 1493 0040 0192     		str	r2, [sp, #4]
 1494 0042 081C     		mov	r0, r1
 1495 0044 1A1C     		mov	r2, r3
 1496 0046 231C     		mov	r3, r4
 1497 0048 FFF7FEFF 		bl	_convert_float
 330:nokia5110/LCD5110_Graph.c **** 
 331:nokia5110/LCD5110_Graph.c **** 	if (divider != '.')
 1498              		.loc 2 331 0
 1499 004c 5423     		mov	r3, #84
 1500 004e FB18     		add	r3, r7, r3
 1501 0050 1B78     		ldrb	r3, [r3]
 1502 0052 2E2B     		cmp	r3, #46
 1503 0054 1ED0     		beq	.L90
 1504              	.LBB5:
 332:nokia5110/LCD5110_Graph.c **** 	{
 333:nokia5110/LCD5110_Graph.c ****         size = sizeof st;
 1505              		.loc 2 333 0
 1506 0056 2F23     		mov	r3, #47
 1507 0058 FB18     		add	r3, r7, r3
 1508 005a 1B22     		mov	r2, #27
 1509 005c 1A70     		strb	r2, [r3]
 334:nokia5110/LCD5110_Graph.c ****         int i;
 335:nokia5110/LCD5110_Graph.c **** 		for (i=0; i<size; i++)
 1510              		.loc 2 335 0
 1511 005e 0023     		mov	r3, #0
 1512 0060 BB63     		str	r3, [r7, #56]
 1513 0062 11E0     		b	.L91
 1514              	.L93:
 336:nokia5110/LCD5110_Graph.c **** 			if (st[i]=='.')
 1515              		.loc 2 336 0
 1516 0064 1423     		mov	r3, #20
ARM GAS  C:\Users\Petro\AppData\Local\Temp\ccxzvnq1.s 			page 34


 1517 0066 FA18     		add	r2, r7, r3
 1518 0068 BB6B     		ldr	r3, [r7, #56]
 1519 006a D318     		add	r3, r2, r3
 1520 006c 1B78     		ldrb	r3, [r3]
 1521 006e 2E2B     		cmp	r3, #46
 1522 0070 07D1     		bne	.L92
 337:nokia5110/LCD5110_Graph.c **** 				st[i]=divider;
 1523              		.loc 2 337 0
 1524 0072 1423     		mov	r3, #20
 1525 0074 FA18     		add	r2, r7, r3
 1526 0076 BB6B     		ldr	r3, [r7, #56]
 1527 0078 D318     		add	r3, r2, r3
 1528 007a 5422     		mov	r2, #84
 1529 007c BA18     		add	r2, r7, r2
 1530 007e 1278     		ldrb	r2, [r2]
 1531 0080 1A70     		strb	r2, [r3]
 1532              	.L92:
 335:nokia5110/LCD5110_Graph.c **** 			if (st[i]=='.')
 1533              		.loc 2 335 0 discriminator 2
 1534 0082 BB6B     		ldr	r3, [r7, #56]
 1535 0084 0133     		add	r3, r3, #1
 1536 0086 BB63     		str	r3, [r7, #56]
 1537              	.L91:
 335:nokia5110/LCD5110_Graph.c **** 			if (st[i]=='.')
 1538              		.loc 2 335 0 is_stmt 0 discriminator 1
 1539 0088 2F23     		mov	r3, #47
 1540 008a FB18     		add	r3, r7, r3
 1541 008c 1A78     		ldrb	r2, [r3]
 1542 008e BB6B     		ldr	r3, [r7, #56]
 1543 0090 9A42     		cmp	r2, r3
 1544 0092 E7DC     		bgt	.L93
 1545              	.L90:
 1546              	.LBE5:
 338:nokia5110/LCD5110_Graph.c **** 	}
 339:nokia5110/LCD5110_Graph.c **** 
 340:nokia5110/LCD5110_Graph.c **** 	if (filler != ' ')
 1547              		.loc 2 340 0 is_stmt 1
 1548 0094 5C23     		mov	r3, #92
 1549 0096 FB18     		add	r3, r7, r3
 1550 0098 1B78     		ldrb	r3, [r3]
 1551 009a 202B     		cmp	r3, #32
 1552 009c 4ED0     		beq	.L94
 341:nokia5110/LCD5110_Graph.c **** 	{
 342:nokia5110/LCD5110_Graph.c **** 		if (neg)
 1553              		.loc 2 342 0
 1554 009e 3F23     		mov	r3, #63
 1555 00a0 FB18     		add	r3, r7, r3
 1556 00a2 1B78     		ldrb	r3, [r3]
 1557 00a4 002B     		cmp	r3, #0
 1558 00a6 2AD0     		beq	.L95
 1559              	.LBB6:
 343:nokia5110/LCD5110_Graph.c **** 		{
 344:nokia5110/LCD5110_Graph.c **** 			st[0]='-';
 1560              		.loc 2 344 0
 1561 00a8 1423     		mov	r3, #20
 1562 00aa FB18     		add	r3, r7, r3
 1563 00ac 2D22     		mov	r2, #45
ARM GAS  C:\Users\Petro\AppData\Local\Temp\ccxzvnq1.s 			page 35


 1564 00ae 1A70     		strb	r2, [r3]
 345:nokia5110/LCD5110_Graph.c ****             size = sizeof st;
 1565              		.loc 2 345 0
 1566 00b0 2F23     		mov	r3, #47
 1567 00b2 FB18     		add	r3, r7, r3
 1568 00b4 1B22     		mov	r2, #27
 1569 00b6 1A70     		strb	r2, [r3]
 346:nokia5110/LCD5110_Graph.c ****             int i;
 347:nokia5110/LCD5110_Graph.c **** 			for (i=1; i<size; i++)
 1570              		.loc 2 347 0
 1571 00b8 0123     		mov	r3, #1
 1572 00ba 7B63     		str	r3, [r7, #52]
 1573 00bc 18E0     		b	.L96
 1574              	.L99:
 348:nokia5110/LCD5110_Graph.c **** 				if ((st[i]==' ') || (st[i]=='-'))
 1575              		.loc 2 348 0
 1576 00be 1423     		mov	r3, #20
 1577 00c0 FA18     		add	r2, r7, r3
 1578 00c2 7B6B     		ldr	r3, [r7, #52]
 1579 00c4 D318     		add	r3, r2, r3
 1580 00c6 1B78     		ldrb	r3, [r3]
 1581 00c8 202B     		cmp	r3, #32
 1582 00ca 06D0     		beq	.L97
 1583              		.loc 2 348 0 is_stmt 0 discriminator 1
 1584 00cc 1423     		mov	r3, #20
 1585 00ce FA18     		add	r2, r7, r3
 1586 00d0 7B6B     		ldr	r3, [r7, #52]
 1587 00d2 D318     		add	r3, r2, r3
 1588 00d4 1B78     		ldrb	r3, [r3]
 1589 00d6 2D2B     		cmp	r3, #45
 1590 00d8 07D1     		bne	.L98
 1591              	.L97:
 349:nokia5110/LCD5110_Graph.c **** 					st[i]=filler;
 1592              		.loc 2 349 0 is_stmt 1
 1593 00da 1423     		mov	r3, #20
 1594 00dc FA18     		add	r2, r7, r3
 1595 00de 7B6B     		ldr	r3, [r7, #52]
 1596 00e0 D318     		add	r3, r2, r3
 1597 00e2 5C22     		mov	r2, #92
 1598 00e4 BA18     		add	r2, r7, r2
 1599 00e6 1278     		ldrb	r2, [r2]
 1600 00e8 1A70     		strb	r2, [r3]
 1601              	.L98:
 347:nokia5110/LCD5110_Graph.c **** 				if ((st[i]==' ') || (st[i]=='-'))
 1602              		.loc 2 347 0 discriminator 2
 1603 00ea 7B6B     		ldr	r3, [r7, #52]
 1604 00ec 0133     		add	r3, r3, #1
 1605 00ee 7B63     		str	r3, [r7, #52]
 1606              	.L96:
 347:nokia5110/LCD5110_Graph.c **** 				if ((st[i]==' ') || (st[i]=='-'))
 1607              		.loc 2 347 0 is_stmt 0 discriminator 1
 1608 00f0 2F23     		mov	r3, #47
 1609 00f2 FB18     		add	r3, r7, r3
 1610 00f4 1A78     		ldrb	r2, [r3]
 1611 00f6 7B6B     		ldr	r3, [r7, #52]
 1612 00f8 9A42     		cmp	r2, r3
 1613 00fa E0DC     		bgt	.L99
ARM GAS  C:\Users\Petro\AppData\Local\Temp\ccxzvnq1.s 			page 36


 1614              	.LBE6:
 1615 00fc 1EE0     		b	.L94
 1616              	.L95:
 1617              	.LBB7:
 350:nokia5110/LCD5110_Graph.c **** 		}
 351:nokia5110/LCD5110_Graph.c **** 		else
 352:nokia5110/LCD5110_Graph.c **** 		{
 353:nokia5110/LCD5110_Graph.c ****             size = sizeof st;
 1618              		.loc 2 353 0 is_stmt 1
 1619 00fe 2F23     		mov	r3, #47
 1620 0100 FB18     		add	r3, r7, r3
 1621 0102 1B22     		mov	r2, #27
 1622 0104 1A70     		strb	r2, [r3]
 354:nokia5110/LCD5110_Graph.c ****             int i;
 355:nokia5110/LCD5110_Graph.c **** 			for (i=0; i<size; i++)
 1623              		.loc 2 355 0
 1624 0106 0023     		mov	r3, #0
 1625 0108 3B63     		str	r3, [r7, #48]
 1626 010a 11E0     		b	.L100
 1627              	.L102:
 356:nokia5110/LCD5110_Graph.c **** 				if (st[i]==' ')
 1628              		.loc 2 356 0
 1629 010c 1423     		mov	r3, #20
 1630 010e FA18     		add	r2, r7, r3
 1631 0110 3B6B     		ldr	r3, [r7, #48]
 1632 0112 D318     		add	r3, r2, r3
 1633 0114 1B78     		ldrb	r3, [r3]
 1634 0116 202B     		cmp	r3, #32
 1635 0118 07D1     		bne	.L101
 357:nokia5110/LCD5110_Graph.c **** 					st[i]=filler;
 1636              		.loc 2 357 0
 1637 011a 1423     		mov	r3, #20
 1638 011c FA18     		add	r2, r7, r3
 1639 011e 3B6B     		ldr	r3, [r7, #48]
 1640 0120 D318     		add	r3, r2, r3
 1641 0122 5C22     		mov	r2, #92
 1642 0124 BA18     		add	r2, r7, r2
 1643 0126 1278     		ldrb	r2, [r2]
 1644 0128 1A70     		strb	r2, [r3]
 1645              	.L101:
 355:nokia5110/LCD5110_Graph.c **** 				if (st[i]==' ')
 1646              		.loc 2 355 0 discriminator 2
 1647 012a 3B6B     		ldr	r3, [r7, #48]
 1648 012c 0133     		add	r3, r3, #1
 1649 012e 3B63     		str	r3, [r7, #48]
 1650              	.L100:
 355:nokia5110/LCD5110_Graph.c **** 				if (st[i]==' ')
 1651              		.loc 2 355 0 is_stmt 0 discriminator 1
 1652 0130 2F23     		mov	r3, #47
 1653 0132 FB18     		add	r3, r7, r3
 1654 0134 1A78     		ldrb	r2, [r3]
 1655 0136 3B6B     		ldr	r3, [r7, #48]
 1656 0138 9A42     		cmp	r2, r3
 1657 013a E7DC     		bgt	.L102
 1658              	.L94:
 1659              	.LBE7:
 358:nokia5110/LCD5110_Graph.c **** 		}
ARM GAS  C:\Users\Petro\AppData\Local\Temp\ccxzvnq1.s 			page 37


 359:nokia5110/LCD5110_Graph.c **** 	}
 360:nokia5110/LCD5110_Graph.c **** 
 361:nokia5110/LCD5110_Graph.c **** 	print(st,x,y);
 1660              		.loc 2 361 0 is_stmt 1
 1661 013c 1423     		mov	r3, #20
 1662 013e F918     		add	r1, r7, r3
 1663 0140 3A68     		ldr	r2, [r7]
 1664 0142 3B6D     		ldr	r3, [r7, #80]
 1665 0144 081C     		mov	r0, r1
 1666 0146 111C     		mov	r1, r2
 1667 0148 1A1C     		mov	r2, r3
 1668 014a FFF7FEFF 		bl	print
 362:nokia5110/LCD5110_Graph.c **** }
 1669              		.loc 2 362 0
 1670 014e BD46     		mov	sp, r7
 1671 0150 11B0     		add	sp, sp, #68
 1672              		@ sp needed
 1673 0152 90BD     		pop	{r4, r7, pc}
 1674              		.cfi_endproc
 1675              	.LFE80:
 1676              		.size	printNumF, .-printNumF
 1677              		.section	.text._print_char,"ax",%progbits
 1678              		.align	2
 1679              		.global	_print_char
 1680              		.code	16
 1681              		.thumb_func
 1682              		.type	_print_char, %function
 1683              	_print_char:
 1684              	.LFB81:
 363:nokia5110/LCD5110_Graph.c **** 
 364:nokia5110/LCD5110_Graph.c **** void _print_char(unsigned char c, int x, int y)
 365:nokia5110/LCD5110_Graph.c **** {
 1685              		.loc 2 365 0
 1686              		.cfi_startproc
 1687 0000 80B5     		push	{r7, lr}
 1688              		.cfi_def_cfa_offset 8
 1689              		.cfi_offset 7, -8
 1690              		.cfi_offset 14, -4
 1691 0002 8EB0     		sub	sp, sp, #56
 1692              		.cfi_def_cfa_offset 64
 1693 0004 00AF     		add	r7, sp, #0
 1694              		.cfi_def_cfa_register 7
 1695 0006 B960     		str	r1, [r7, #8]
 1696 0008 7A60     		str	r2, [r7, #4]
 1697 000a 0F23     		mov	r3, #15
 1698 000c FB18     		add	r3, r7, r3
 1699 000e 021C     		add	r2, r0, #0
 1700 0010 1A70     		strb	r2, [r3]
 366:nokia5110/LCD5110_Graph.c **** 	if ((cfont.y_size % 8) == 0)
 1701              		.loc 2 366 0
 1702 0012 A74B     		ldr	r3, .L129
 1703 0014 5B79     		ldrb	r3, [r3, #5]
 1704 0016 0722     		mov	r2, #7
 1705 0018 1340     		and	r3, r2
 1706 001a DBB2     		uxtb	r3, r3
 1707 001c 002B     		cmp	r3, #0
 1708 001e 00D0     		beq	.LCB1522
ARM GAS  C:\Users\Petro\AppData\Local\Temp\ccxzvnq1.s 			page 38


 1709 0020 ADE0     		b	.L105	@long jump
 1710              	.LCB1522:
 1711              	.LBB8:
 367:nokia5110/LCD5110_Graph.c **** 	{
 368:nokia5110/LCD5110_Graph.c **** 		int font_idx = ((c - cfont.offset)*(cfont.x_size*(cfont.y_size/8)))+4;
 1712              		.loc 2 368 0
 1713 0022 0F23     		mov	r3, #15
 1714 0024 FB18     		add	r3, r7, r3
 1715 0026 1B78     		ldrb	r3, [r3]
 1716 0028 A14A     		ldr	r2, .L129
 1717 002a 9279     		ldrb	r2, [r2, #6]
 1718 002c 9B1A     		sub	r3, r3, r2
 1719 002e A04A     		ldr	r2, .L129
 1720 0030 1279     		ldrb	r2, [r2, #4]
 1721 0032 111C     		mov	r1, r2
 1722 0034 9E4A     		ldr	r2, .L129
 1723 0036 5279     		ldrb	r2, [r2, #5]
 1724 0038 D208     		lsr	r2, r2, #3
 1725 003a D2B2     		uxtb	r2, r2
 1726 003c 4A43     		mul	r2, r1
 1727 003e 5343     		mul	r3, r2
 1728 0040 0433     		add	r3, r3, #4
 1729 0042 7B61     		str	r3, [r7, #20]
 369:nokia5110/LCD5110_Graph.c ****         int rowcnt;
 370:nokia5110/LCD5110_Graph.c **** 		for (rowcnt=0; rowcnt<(cfont.y_size/8); rowcnt++)
 1730              		.loc 2 370 0
 1731 0044 0023     		mov	r3, #0
 1732 0046 7B63     		str	r3, [r7, #52]
 1733 0048 8FE0     		b	.L106
 1734              	.L116:
 1735              	.LBB9:
 371:nokia5110/LCD5110_Graph.c **** 		{
 372:nokia5110/LCD5110_Graph.c ****             int cnt;
 373:nokia5110/LCD5110_Graph.c **** 			for(cnt=0; cnt<cfont.x_size; cnt++)
 1736              		.loc 2 373 0
 1737 004a 0023     		mov	r3, #0
 1738 004c 3B63     		str	r3, [r7, #48]
 1739 004e 82E0     		b	.L107
 1740              	.L115:
 1741              	.LBB10:
 374:nokia5110/LCD5110_Graph.c **** 			{
 375:nokia5110/LCD5110_Graph.c ****                 int b;
 376:nokia5110/LCD5110_Graph.c **** 				for (b=0; b<8; b++)
 1742              		.loc 2 376 0
 1743 0050 0023     		mov	r3, #0
 1744 0052 FB62     		str	r3, [r7, #44]
 1745 0054 79E0     		b	.L108
 1746              	.L114:
 377:nokia5110/LCD5110_Graph.c **** 					if ((fontbyte(font_idx+cnt+(rowcnt*cfont.x_size)) & (1<<b))!=0)
 1747              		.loc 2 377 0
 1748 0056 964B     		ldr	r3, .L129
 1749 0058 1B68     		ldr	r3, [r3]
 1750 005a 7969     		ldr	r1, [r7, #20]
 1751 005c 3A6B     		ldr	r2, [r7, #48]
 1752 005e 8918     		add	r1, r1, r2
 1753 0060 934A     		ldr	r2, .L129
 1754 0062 1279     		ldrb	r2, [r2, #4]
ARM GAS  C:\Users\Petro\AppData\Local\Temp\ccxzvnq1.s 			page 39


 1755 0064 101C     		mov	r0, r2
 1756 0066 7A6B     		ldr	r2, [r7, #52]
 1757 0068 4243     		mul	r2, r0
 1758 006a 8A18     		add	r2, r1, r2
 1759 006c 9B18     		add	r3, r3, r2
 1760 006e 1B78     		ldrb	r3, [r3]
 1761 0070 1A1C     		mov	r2, r3
 1762 0072 FB6A     		ldr	r3, [r7, #44]
 1763 0074 1A41     		asr	r2, r2, r3
 1764 0076 131C     		mov	r3, r2
 1765 0078 0122     		mov	r2, #1
 1766 007a 1340     		and	r3, r2
 1767 007c 31D0     		beq	.L109
 378:nokia5110/LCD5110_Graph.c **** 						if (cfont.inverted==0)
 1768              		.loc 2 378 0
 1769 007e 8C4B     		ldr	r3, .L129
 1770 0080 1B7A     		ldrb	r3, [r3, #8]
 1771 0082 002B     		cmp	r3, #0
 1772 0084 16D1     		bne	.L110
 379:nokia5110/LCD5110_Graph.c **** 							setPixel(x+cnt, y+(rowcnt*8)+b);
 1773              		.loc 2 379 0
 1774 0086 BB68     		ldr	r3, [r7, #8]
 1775 0088 9AB2     		uxth	r2, r3
 1776 008a 3B6B     		ldr	r3, [r7, #48]
 1777 008c 9BB2     		uxth	r3, r3
 1778 008e D318     		add	r3, r2, r3
 1779 0090 99B2     		uxth	r1, r3
 1780 0092 7B6B     		ldr	r3, [r7, #52]
 1781 0094 9BB2     		uxth	r3, r3
 1782 0096 DB00     		lsl	r3, r3, #3
 1783 0098 9AB2     		uxth	r2, r3
 1784 009a 7B68     		ldr	r3, [r7, #4]
 1785 009c 9BB2     		uxth	r3, r3
 1786 009e D318     		add	r3, r2, r3
 1787 00a0 9AB2     		uxth	r2, r3
 1788 00a2 FB6A     		ldr	r3, [r7, #44]
 1789 00a4 9BB2     		uxth	r3, r3
 1790 00a6 D318     		add	r3, r2, r3
 1791 00a8 9BB2     		uxth	r3, r3
 1792 00aa 081C     		mov	r0, r1
 1793 00ac 191C     		mov	r1, r3
 1794 00ae FFF7FEFF 		bl	setPixel
 1795 00b2 47E0     		b	.L112
 1796              	.L110:
 380:nokia5110/LCD5110_Graph.c **** 						else
 381:nokia5110/LCD5110_Graph.c **** 							clrPixel(x+cnt, y+(rowcnt*8)+b);
 1797              		.loc 2 381 0
 1798 00b4 BB68     		ldr	r3, [r7, #8]
 1799 00b6 9AB2     		uxth	r2, r3
 1800 00b8 3B6B     		ldr	r3, [r7, #48]
 1801 00ba 9BB2     		uxth	r3, r3
 1802 00bc D318     		add	r3, r2, r3
 1803 00be 99B2     		uxth	r1, r3
 1804 00c0 7B6B     		ldr	r3, [r7, #52]
 1805 00c2 9BB2     		uxth	r3, r3
 1806 00c4 DB00     		lsl	r3, r3, #3
 1807 00c6 9AB2     		uxth	r2, r3
ARM GAS  C:\Users\Petro\AppData\Local\Temp\ccxzvnq1.s 			page 40


 1808 00c8 7B68     		ldr	r3, [r7, #4]
 1809 00ca 9BB2     		uxth	r3, r3
 1810 00cc D318     		add	r3, r2, r3
 1811 00ce 9AB2     		uxth	r2, r3
 1812 00d0 FB6A     		ldr	r3, [r7, #44]
 1813 00d2 9BB2     		uxth	r3, r3
 1814 00d4 D318     		add	r3, r2, r3
 1815 00d6 9BB2     		uxth	r3, r3
 1816 00d8 081C     		mov	r0, r1
 1817 00da 191C     		mov	r1, r3
 1818 00dc FFF7FEFF 		bl	clrPixel
 1819 00e0 30E0     		b	.L112
 1820              	.L109:
 382:nokia5110/LCD5110_Graph.c **** 					else
 383:nokia5110/LCD5110_Graph.c **** 						if (cfont.inverted==0)
 1821              		.loc 2 383 0
 1822 00e2 734B     		ldr	r3, .L129
 1823 00e4 1B7A     		ldrb	r3, [r3, #8]
 1824 00e6 002B     		cmp	r3, #0
 1825 00e8 16D1     		bne	.L113
 384:nokia5110/LCD5110_Graph.c **** 							clrPixel(x+cnt, y+(rowcnt*8)+b);
 1826              		.loc 2 384 0
 1827 00ea BB68     		ldr	r3, [r7, #8]
 1828 00ec 9AB2     		uxth	r2, r3
 1829 00ee 3B6B     		ldr	r3, [r7, #48]
 1830 00f0 9BB2     		uxth	r3, r3
 1831 00f2 D318     		add	r3, r2, r3
 1832 00f4 99B2     		uxth	r1, r3
 1833 00f6 7B6B     		ldr	r3, [r7, #52]
 1834 00f8 9BB2     		uxth	r3, r3
 1835 00fa DB00     		lsl	r3, r3, #3
 1836 00fc 9AB2     		uxth	r2, r3
 1837 00fe 7B68     		ldr	r3, [r7, #4]
 1838 0100 9BB2     		uxth	r3, r3
 1839 0102 D318     		add	r3, r2, r3
 1840 0104 9AB2     		uxth	r2, r3
 1841 0106 FB6A     		ldr	r3, [r7, #44]
 1842 0108 9BB2     		uxth	r3, r3
 1843 010a D318     		add	r3, r2, r3
 1844 010c 9BB2     		uxth	r3, r3
 1845 010e 081C     		mov	r0, r1
 1846 0110 191C     		mov	r1, r3
 1847 0112 FFF7FEFF 		bl	clrPixel
 1848 0116 15E0     		b	.L112
 1849              	.L113:
 385:nokia5110/LCD5110_Graph.c **** 						else
 386:nokia5110/LCD5110_Graph.c **** 							setPixel(x+cnt, y+(rowcnt*8)+b);
 1850              		.loc 2 386 0
 1851 0118 BB68     		ldr	r3, [r7, #8]
 1852 011a 9AB2     		uxth	r2, r3
 1853 011c 3B6B     		ldr	r3, [r7, #48]
 1854 011e 9BB2     		uxth	r3, r3
 1855 0120 D318     		add	r3, r2, r3
 1856 0122 99B2     		uxth	r1, r3
 1857 0124 7B6B     		ldr	r3, [r7, #52]
 1858 0126 9BB2     		uxth	r3, r3
 1859 0128 DB00     		lsl	r3, r3, #3
ARM GAS  C:\Users\Petro\AppData\Local\Temp\ccxzvnq1.s 			page 41


 1860 012a 9AB2     		uxth	r2, r3
 1861 012c 7B68     		ldr	r3, [r7, #4]
 1862 012e 9BB2     		uxth	r3, r3
 1863 0130 D318     		add	r3, r2, r3
 1864 0132 9AB2     		uxth	r2, r3
 1865 0134 FB6A     		ldr	r3, [r7, #44]
 1866 0136 9BB2     		uxth	r3, r3
 1867 0138 D318     		add	r3, r2, r3
 1868 013a 9BB2     		uxth	r3, r3
 1869 013c 081C     		mov	r0, r1
 1870 013e 191C     		mov	r1, r3
 1871 0140 FFF7FEFF 		bl	setPixel
 1872              	.L112:
 376:nokia5110/LCD5110_Graph.c **** 					if ((fontbyte(font_idx+cnt+(rowcnt*cfont.x_size)) & (1<<b))!=0)
 1873              		.loc 2 376 0 discriminator 2
 1874 0144 FB6A     		ldr	r3, [r7, #44]
 1875 0146 0133     		add	r3, r3, #1
 1876 0148 FB62     		str	r3, [r7, #44]
 1877              	.L108:
 376:nokia5110/LCD5110_Graph.c **** 					if ((fontbyte(font_idx+cnt+(rowcnt*cfont.x_size)) & (1<<b))!=0)
 1878              		.loc 2 376 0 is_stmt 0 discriminator 1
 1879 014a FB6A     		ldr	r3, [r7, #44]
 1880 014c 072B     		cmp	r3, #7
 1881 014e 82DD     		ble	.L114
 1882              	.LBE10:
 373:nokia5110/LCD5110_Graph.c **** 			{
 1883              		.loc 2 373 0 is_stmt 1 discriminator 2
 1884 0150 3B6B     		ldr	r3, [r7, #48]
 1885 0152 0133     		add	r3, r3, #1
 1886 0154 3B63     		str	r3, [r7, #48]
 1887              	.L107:
 373:nokia5110/LCD5110_Graph.c **** 			{
 1888              		.loc 2 373 0 is_stmt 0 discriminator 1
 1889 0156 564B     		ldr	r3, .L129
 1890 0158 1B79     		ldrb	r3, [r3, #4]
 1891 015a 1A1E     		sub	r2, r3, #0
 1892 015c 3B6B     		ldr	r3, [r7, #48]
 1893 015e 9A42     		cmp	r2, r3
 1894 0160 00DD     		ble	.LCB1707
 1895 0162 75E7     		b	.L115	@long jump
 1896              	.LCB1707:
 1897              	.LBE9:
 370:nokia5110/LCD5110_Graph.c **** 		{
 1898              		.loc 2 370 0 is_stmt 1 discriminator 2
 1899 0164 7B6B     		ldr	r3, [r7, #52]
 1900 0166 0133     		add	r3, r3, #1
 1901 0168 7B63     		str	r3, [r7, #52]
 1902              	.L106:
 370:nokia5110/LCD5110_Graph.c **** 		{
 1903              		.loc 2 370 0 is_stmt 0 discriminator 1
 1904 016a 514B     		ldr	r3, .L129
 1905 016c 5B79     		ldrb	r3, [r3, #5]
 1906 016e DB08     		lsr	r3, r3, #3
 1907 0170 DBB2     		uxtb	r3, r3
 1908 0172 1A1E     		sub	r2, r3, #0
 1909 0174 7B6B     		ldr	r3, [r7, #52]
 1910 0176 9A42     		cmp	r2, r3
ARM GAS  C:\Users\Petro\AppData\Local\Temp\ccxzvnq1.s 			page 42


 1911 0178 00DD     		ble	.LCB1721
 1912 017a 66E7     		b	.L116	@long jump
 1913              	.LCB1721:
 1914              	.LBE8:
 1915 017c 95E0     		b	.L104
 1916              	.L105:
 1917              	.LBB11:
 387:nokia5110/LCD5110_Graph.c **** 			}
 388:nokia5110/LCD5110_Graph.c **** 		}
 389:nokia5110/LCD5110_Graph.c **** 	}
 390:nokia5110/LCD5110_Graph.c **** 	else
 391:nokia5110/LCD5110_Graph.c **** 	{
 392:nokia5110/LCD5110_Graph.c **** 		int font_idx = ((c - cfont.offset)*((cfont.x_size*cfont.y_size/8)))+4;
 1918              		.loc 2 392 0 is_stmt 1
 1919 017e 0F23     		mov	r3, #15
 1920 0180 FB18     		add	r3, r7, r3
 1921 0182 1B78     		ldrb	r3, [r3]
 1922 0184 4A4A     		ldr	r2, .L129
 1923 0186 9279     		ldrb	r2, [r2, #6]
 1924 0188 9A1A     		sub	r2, r3, r2
 1925 018a 494B     		ldr	r3, .L129
 1926 018c 1B79     		ldrb	r3, [r3, #4]
 1927 018e 191C     		mov	r1, r3
 1928 0190 474B     		ldr	r3, .L129
 1929 0192 5B79     		ldrb	r3, [r3, #5]
 1930 0194 4B43     		mul	r3, r1
 1931 0196 002B     		cmp	r3, #0
 1932 0198 00DA     		bge	.L118
 1933 019a 0733     		add	r3, r3, #7
 1934              	.L118:
 1935 019c DB10     		asr	r3, r3, #3
 1936 019e 5343     		mul	r3, r2
 1937 01a0 0433     		add	r3, r3, #4
 1938 01a2 BB62     		str	r3, [r7, #40]
 393:nokia5110/LCD5110_Graph.c **** 		int cbyte=fontbyte(font_idx);
 1939              		.loc 2 393 0
 1940 01a4 424B     		ldr	r3, .L129
 1941 01a6 1A68     		ldr	r2, [r3]
 1942 01a8 BB6A     		ldr	r3, [r7, #40]
 1943 01aa D318     		add	r3, r2, r3
 1944 01ac 1B78     		ldrb	r3, [r3]
 1945 01ae 7B62     		str	r3, [r7, #36]
 394:nokia5110/LCD5110_Graph.c **** 		int cbit=7;
 1946              		.loc 2 394 0
 1947 01b0 0723     		mov	r3, #7
 1948 01b2 3B62     		str	r3, [r7, #32]
 395:nokia5110/LCD5110_Graph.c ****         int cx;
 396:nokia5110/LCD5110_Graph.c **** 		for (cx=0; cx<cfont.x_size; cx++)
 1949              		.loc 2 396 0
 1950 01b4 0023     		mov	r3, #0
 1951 01b6 FB61     		str	r3, [r7, #28]
 1952 01b8 71E0     		b	.L119
 1953              	.L128:
 1954              	.LBB12:
 397:nokia5110/LCD5110_Graph.c **** 		{
 398:nokia5110/LCD5110_Graph.c ****             int cy;
 399:nokia5110/LCD5110_Graph.c **** 			for (cy=0; cy<cfont.y_size; cy++)
ARM GAS  C:\Users\Petro\AppData\Local\Temp\ccxzvnq1.s 			page 43


 1955              		.loc 2 399 0
 1956 01ba 0023     		mov	r3, #0
 1957 01bc BB61     		str	r3, [r7, #24]
 1958 01be 65E0     		b	.L120
 1959              	.L127:
 400:nokia5110/LCD5110_Graph.c **** 			{
 401:nokia5110/LCD5110_Graph.c **** 				if ((cbyte & (1<<cbit)) != 0)
 1960              		.loc 2 401 0
 1961 01c0 7A6A     		ldr	r2, [r7, #36]
 1962 01c2 3B6A     		ldr	r3, [r7, #32]
 1963 01c4 1A41     		asr	r2, r2, r3
 1964 01c6 131C     		mov	r3, r2
 1965 01c8 0122     		mov	r2, #1
 1966 01ca 1340     		and	r3, r2
 1967 01cc 25D0     		beq	.L121
 402:nokia5110/LCD5110_Graph.c **** 					if (cfont.inverted==0)
 1968              		.loc 2 402 0
 1969 01ce 384B     		ldr	r3, .L129
 1970 01d0 1B7A     		ldrb	r3, [r3, #8]
 1971 01d2 002B     		cmp	r3, #0
 1972 01d4 10D1     		bne	.L122
 403:nokia5110/LCD5110_Graph.c **** 						setPixel(x+cx, y+cy);
 1973              		.loc 2 403 0
 1974 01d6 BB68     		ldr	r3, [r7, #8]
 1975 01d8 9AB2     		uxth	r2, r3
 1976 01da FB69     		ldr	r3, [r7, #28]
 1977 01dc 9BB2     		uxth	r3, r3
 1978 01de D318     		add	r3, r2, r3
 1979 01e0 99B2     		uxth	r1, r3
 1980 01e2 7B68     		ldr	r3, [r7, #4]
 1981 01e4 9AB2     		uxth	r2, r3
 1982 01e6 BB69     		ldr	r3, [r7, #24]
 1983 01e8 9BB2     		uxth	r3, r3
 1984 01ea D318     		add	r3, r2, r3
 1985 01ec 9BB2     		uxth	r3, r3
 1986 01ee 081C     		mov	r0, r1
 1987 01f0 191C     		mov	r1, r3
 1988 01f2 FFF7FEFF 		bl	setPixel
 1989 01f6 35E0     		b	.L124
 1990              	.L122:
 404:nokia5110/LCD5110_Graph.c **** 					else
 405:nokia5110/LCD5110_Graph.c **** 						clrPixel(x+cx, y+cy);
 1991              		.loc 2 405 0
 1992 01f8 BB68     		ldr	r3, [r7, #8]
 1993 01fa 9AB2     		uxth	r2, r3
 1994 01fc FB69     		ldr	r3, [r7, #28]
 1995 01fe 9BB2     		uxth	r3, r3
 1996 0200 D318     		add	r3, r2, r3
 1997 0202 99B2     		uxth	r1, r3
 1998 0204 7B68     		ldr	r3, [r7, #4]
 1999 0206 9AB2     		uxth	r2, r3
 2000 0208 BB69     		ldr	r3, [r7, #24]
 2001 020a 9BB2     		uxth	r3, r3
 2002 020c D318     		add	r3, r2, r3
 2003 020e 9BB2     		uxth	r3, r3
 2004 0210 081C     		mov	r0, r1
 2005 0212 191C     		mov	r1, r3
ARM GAS  C:\Users\Petro\AppData\Local\Temp\ccxzvnq1.s 			page 44


 2006 0214 FFF7FEFF 		bl	clrPixel
 2007 0218 24E0     		b	.L124
 2008              	.L121:
 406:nokia5110/LCD5110_Graph.c **** 				else
 407:nokia5110/LCD5110_Graph.c **** 					if (cfont.inverted==0)
 2009              		.loc 2 407 0
 2010 021a 254B     		ldr	r3, .L129
 2011 021c 1B7A     		ldrb	r3, [r3, #8]
 2012 021e 002B     		cmp	r3, #0
 2013 0220 10D1     		bne	.L125
 408:nokia5110/LCD5110_Graph.c **** 						clrPixel(x+cx, y+cy);
 2014              		.loc 2 408 0
 2015 0222 BB68     		ldr	r3, [r7, #8]
 2016 0224 9AB2     		uxth	r2, r3
 2017 0226 FB69     		ldr	r3, [r7, #28]
 2018 0228 9BB2     		uxth	r3, r3
 2019 022a D318     		add	r3, r2, r3
 2020 022c 99B2     		uxth	r1, r3
 2021 022e 7B68     		ldr	r3, [r7, #4]
 2022 0230 9AB2     		uxth	r2, r3
 2023 0232 BB69     		ldr	r3, [r7, #24]
 2024 0234 9BB2     		uxth	r3, r3
 2025 0236 D318     		add	r3, r2, r3
 2026 0238 9BB2     		uxth	r3, r3
 2027 023a 081C     		mov	r0, r1
 2028 023c 191C     		mov	r1, r3
 2029 023e FFF7FEFF 		bl	clrPixel
 2030 0242 0FE0     		b	.L124
 2031              	.L125:
 409:nokia5110/LCD5110_Graph.c **** 					else
 410:nokia5110/LCD5110_Graph.c **** 						setPixel(x+cx, y+cy);
 2032              		.loc 2 410 0
 2033 0244 BB68     		ldr	r3, [r7, #8]
 2034 0246 9AB2     		uxth	r2, r3
 2035 0248 FB69     		ldr	r3, [r7, #28]
 2036 024a 9BB2     		uxth	r3, r3
 2037 024c D318     		add	r3, r2, r3
 2038 024e 99B2     		uxth	r1, r3
 2039 0250 7B68     		ldr	r3, [r7, #4]
 2040 0252 9AB2     		uxth	r2, r3
 2041 0254 BB69     		ldr	r3, [r7, #24]
 2042 0256 9BB2     		uxth	r3, r3
 2043 0258 D318     		add	r3, r2, r3
 2044 025a 9BB2     		uxth	r3, r3
 2045 025c 081C     		mov	r0, r1
 2046 025e 191C     		mov	r1, r3
 2047 0260 FFF7FEFF 		bl	setPixel
 2048              	.L124:
 411:nokia5110/LCD5110_Graph.c **** 				cbit--;
 2049              		.loc 2 411 0
 2050 0264 3B6A     		ldr	r3, [r7, #32]
 2051 0266 013B     		sub	r3, r3, #1
 2052 0268 3B62     		str	r3, [r7, #32]
 412:nokia5110/LCD5110_Graph.c **** 				if (cbit<0)
 2053              		.loc 2 412 0
 2054 026a 3B6A     		ldr	r3, [r7, #32]
 2055 026c 002B     		cmp	r3, #0
ARM GAS  C:\Users\Petro\AppData\Local\Temp\ccxzvnq1.s 			page 45


 2056 026e 0ADA     		bge	.L126
 413:nokia5110/LCD5110_Graph.c **** 				{
 414:nokia5110/LCD5110_Graph.c **** 					cbit=7;
 2057              		.loc 2 414 0
 2058 0270 0723     		mov	r3, #7
 2059 0272 3B62     		str	r3, [r7, #32]
 415:nokia5110/LCD5110_Graph.c **** 					font_idx++;
 2060              		.loc 2 415 0
 2061 0274 BB6A     		ldr	r3, [r7, #40]
 2062 0276 0133     		add	r3, r3, #1
 2063 0278 BB62     		str	r3, [r7, #40]
 416:nokia5110/LCD5110_Graph.c **** 					cbyte=fontbyte(font_idx);
 2064              		.loc 2 416 0
 2065 027a 0D4B     		ldr	r3, .L129
 2066 027c 1A68     		ldr	r2, [r3]
 2067 027e BB6A     		ldr	r3, [r7, #40]
 2068 0280 D318     		add	r3, r2, r3
 2069 0282 1B78     		ldrb	r3, [r3]
 2070 0284 7B62     		str	r3, [r7, #36]
 2071              	.L126:
 399:nokia5110/LCD5110_Graph.c **** 			{
 2072              		.loc 2 399 0 discriminator 2
 2073 0286 BB69     		ldr	r3, [r7, #24]
 2074 0288 0133     		add	r3, r3, #1
 2075 028a BB61     		str	r3, [r7, #24]
 2076              	.L120:
 399:nokia5110/LCD5110_Graph.c **** 			{
 2077              		.loc 2 399 0 is_stmt 0 discriminator 1
 2078 028c 084B     		ldr	r3, .L129
 2079 028e 5B79     		ldrb	r3, [r3, #5]
 2080 0290 1A1E     		sub	r2, r3, #0
 2081 0292 BB69     		ldr	r3, [r7, #24]
 2082 0294 9A42     		cmp	r2, r3
 2083 0296 93DC     		bgt	.L127
 2084              	.LBE12:
 396:nokia5110/LCD5110_Graph.c **** 		{
 2085              		.loc 2 396 0 is_stmt 1 discriminator 2
 2086 0298 FB69     		ldr	r3, [r7, #28]
 2087 029a 0133     		add	r3, r3, #1
 2088 029c FB61     		str	r3, [r7, #28]
 2089              	.L119:
 396:nokia5110/LCD5110_Graph.c **** 		{
 2090              		.loc 2 396 0 is_stmt 0 discriminator 1
 2091 029e 044B     		ldr	r3, .L129
 2092 02a0 1B79     		ldrb	r3, [r3, #4]
 2093 02a2 1A1E     		sub	r2, r3, #0
 2094 02a4 FB69     		ldr	r3, [r7, #28]
 2095 02a6 9A42     		cmp	r2, r3
 2096 02a8 87DC     		bgt	.L128
 2097              	.L104:
 2098              	.LBE11:
 417:nokia5110/LCD5110_Graph.c **** 				}
 418:nokia5110/LCD5110_Graph.c **** 			}
 419:nokia5110/LCD5110_Graph.c **** 		}
 420:nokia5110/LCD5110_Graph.c **** 	}
 421:nokia5110/LCD5110_Graph.c **** }
 2099              		.loc 2 421 0 is_stmt 1
ARM GAS  C:\Users\Petro\AppData\Local\Temp\ccxzvnq1.s 			page 46


 2100 02aa BD46     		mov	sp, r7
 2101 02ac 0EB0     		add	sp, sp, #56
 2102              		@ sp needed
 2103 02ae 80BD     		pop	{r7, pc}
 2104              	.L130:
 2105              		.align	2
 2106              	.L129:
 2107 02b0 00000000 		.word	cfont
 2108              		.cfi_endproc
 2109              	.LFE81:
 2110              		.size	_print_char, .-_print_char
 2111              		.section	.text.setFont,"ax",%progbits
 2112              		.align	2
 2113              		.global	setFont
 2114              		.code	16
 2115              		.thumb_func
 2116              		.type	setFont, %function
 2117              	setFont:
 2118              	.LFB82:
 422:nokia5110/LCD5110_Graph.c **** 
 423:nokia5110/LCD5110_Graph.c **** void setFont(uint8_t* font)
 424:nokia5110/LCD5110_Graph.c **** {
 2119              		.loc 2 424 0
 2120              		.cfi_startproc
 2121 0000 80B5     		push	{r7, lr}
 2122              		.cfi_def_cfa_offset 8
 2123              		.cfi_offset 7, -8
 2124              		.cfi_offset 14, -4
 2125 0002 82B0     		sub	sp, sp, #8
 2126              		.cfi_def_cfa_offset 16
 2127 0004 00AF     		add	r7, sp, #0
 2128              		.cfi_def_cfa_register 7
 2129 0006 7860     		str	r0, [r7, #4]
 425:nokia5110/LCD5110_Graph.c **** 	cfont.font=font;
 2130              		.loc 2 425 0
 2131 0008 0E4B     		ldr	r3, .L132
 2132 000a 7A68     		ldr	r2, [r7, #4]
 2133 000c 1A60     		str	r2, [r3]
 426:nokia5110/LCD5110_Graph.c **** 	cfont.x_size=fontbyte(0);
 2134              		.loc 2 426 0
 2135 000e 0D4B     		ldr	r3, .L132
 2136 0010 1B68     		ldr	r3, [r3]
 2137 0012 1A78     		ldrb	r2, [r3]
 2138 0014 0B4B     		ldr	r3, .L132
 2139 0016 1A71     		strb	r2, [r3, #4]
 427:nokia5110/LCD5110_Graph.c **** 	cfont.y_size=fontbyte(1);
 2140              		.loc 2 427 0
 2141 0018 0A4B     		ldr	r3, .L132
 2142 001a 1B68     		ldr	r3, [r3]
 2143 001c 5A78     		ldrb	r2, [r3, #1]
 2144 001e 094B     		ldr	r3, .L132
 2145 0020 5A71     		strb	r2, [r3, #5]
 428:nokia5110/LCD5110_Graph.c **** 	cfont.offset=fontbyte(2);
 2146              		.loc 2 428 0
 2147 0022 084B     		ldr	r3, .L132
 2148 0024 1B68     		ldr	r3, [r3]
 2149 0026 9A78     		ldrb	r2, [r3, #2]
ARM GAS  C:\Users\Petro\AppData\Local\Temp\ccxzvnq1.s 			page 47


 2150 0028 064B     		ldr	r3, .L132
 2151 002a 9A71     		strb	r2, [r3, #6]
 429:nokia5110/LCD5110_Graph.c **** 	cfont.numchars=fontbyte(3);
 2152              		.loc 2 429 0
 2153 002c 054B     		ldr	r3, .L132
 2154 002e 1B68     		ldr	r3, [r3]
 2155 0030 DA78     		ldrb	r2, [r3, #3]
 2156 0032 044B     		ldr	r3, .L132
 2157 0034 DA71     		strb	r2, [r3, #7]
 430:nokia5110/LCD5110_Graph.c **** 	cfont.inverted=0;
 2158              		.loc 2 430 0
 2159 0036 034B     		ldr	r3, .L132
 2160 0038 0022     		mov	r2, #0
 2161 003a 1A72     		strb	r2, [r3, #8]
 431:nokia5110/LCD5110_Graph.c **** }
 2162              		.loc 2 431 0
 2163 003c BD46     		mov	sp, r7
 2164 003e 02B0     		add	sp, sp, #8
 2165              		@ sp needed
 2166 0040 80BD     		pop	{r7, pc}
 2167              	.L133:
 2168 0042 C046     		.align	2
 2169              	.L132:
 2170 0044 00000000 		.word	cfont
 2171              		.cfi_endproc
 2172              	.LFE82:
 2173              		.size	setFont, .-setFont
 2174              		.section	.text.drawHLine,"ax",%progbits
 2175              		.align	2
 2176              		.global	drawHLine
 2177              		.code	16
 2178              		.thumb_func
 2179              		.type	drawHLine, %function
 2180              	drawHLine:
 2181              	.LFB83:
 432:nokia5110/LCD5110_Graph.c **** 
 433:nokia5110/LCD5110_Graph.c **** void drawHLine(int x, int y, int l)
 434:nokia5110/LCD5110_Graph.c **** {
 2182              		.loc 2 434 0
 2183              		.cfi_startproc
 2184 0000 80B5     		push	{r7, lr}
 2185              		.cfi_def_cfa_offset 8
 2186              		.cfi_offset 7, -8
 2187              		.cfi_offset 14, -4
 2188 0002 88B0     		sub	sp, sp, #32
 2189              		.cfi_def_cfa_offset 40
 2190 0004 00AF     		add	r7, sp, #0
 2191              		.cfi_def_cfa_register 7
 2192 0006 F860     		str	r0, [r7, #12]
 2193 0008 B960     		str	r1, [r7, #8]
 2194 000a 7A60     		str	r2, [r7, #4]
 435:nokia5110/LCD5110_Graph.c **** 	int by, bi;
 436:nokia5110/LCD5110_Graph.c **** 
 437:nokia5110/LCD5110_Graph.c **** 	if ((x>=0) && (x<84) && (y>=0) && (y<48))
 2195              		.loc 2 437 0
 2196 000c FB68     		ldr	r3, [r7, #12]
 2197 000e 002B     		cmp	r3, #0
ARM GAS  C:\Users\Petro\AppData\Local\Temp\ccxzvnq1.s 			page 48


 2198 0010 3BDB     		blt	.L134
 2199              		.loc 2 437 0 is_stmt 0 discriminator 1
 2200 0012 FB68     		ldr	r3, [r7, #12]
 2201 0014 532B     		cmp	r3, #83
 2202 0016 38DC     		bgt	.L134
 2203              		.loc 2 437 0 discriminator 2
 2204 0018 BB68     		ldr	r3, [r7, #8]
 2205 001a 002B     		cmp	r3, #0
 2206 001c 35DB     		blt	.L134
 2207              		.loc 2 437 0 discriminator 3
 2208 001e BB68     		ldr	r3, [r7, #8]
 2209 0020 2F2B     		cmp	r3, #47
 2210 0022 32DC     		bgt	.L134
 2211              	.LBB13:
 438:nokia5110/LCD5110_Graph.c **** 	{
 439:nokia5110/LCD5110_Graph.c ****         int cx;
 440:nokia5110/LCD5110_Graph.c **** 		for (cx=0; cx<l; cx++)
 2212              		.loc 2 440 0 is_stmt 1
 2213 0024 0023     		mov	r3, #0
 2214 0026 FB61     		str	r3, [r7, #28]
 2215 0028 2BE0     		b	.L136
 2216              	.L139:
 441:nokia5110/LCD5110_Graph.c **** 		{
 442:nokia5110/LCD5110_Graph.c **** 			by=((y/8)*84)+x;
 2217              		.loc 2 442 0 discriminator 3
 2218 002a BB68     		ldr	r3, [r7, #8]
 2219 002c 002B     		cmp	r3, #0
 2220 002e 00DA     		bge	.L137
 2221 0030 0733     		add	r3, r3, #7
 2222              	.L137:
 2223 0032 DB10     		asr	r3, r3, #3
 2224 0034 1A1C     		mov	r2, r3
 2225 0036 5423     		mov	r3, #84
 2226 0038 5A43     		mul	r2, r3
 2227 003a FB68     		ldr	r3, [r7, #12]
 2228 003c D318     		add	r3, r2, r3
 2229 003e BB61     		str	r3, [r7, #24]
 443:nokia5110/LCD5110_Graph.c **** 			bi=y % 8;
 2230              		.loc 2 443 0 discriminator 3
 2231 0040 BB68     		ldr	r3, [r7, #8]
 2232 0042 134A     		ldr	r2, .L140
 2233 0044 1340     		and	r3, r2
 2234 0046 04D5     		bpl	.L138
 2235 0048 013B     		sub	r3, r3, #1
 2236 004a 0822     		mov	r2, #8
 2237 004c 5242     		neg	r2, r2
 2238 004e 1343     		orr	r3, r2
 2239 0050 0133     		add	r3, r3, #1
 2240              	.L138:
 2241 0052 7B61     		str	r3, [r7, #20]
 444:nokia5110/LCD5110_Graph.c **** 
 445:nokia5110/LCD5110_Graph.c **** 			scrbuf[by+cx] |= (1<<bi);
 2242              		.loc 2 445 0 discriminator 3
 2243 0054 BA69     		ldr	r2, [r7, #24]
 2244 0056 FB69     		ldr	r3, [r7, #28]
 2245 0058 D318     		add	r3, r2, r3
 2246 005a B969     		ldr	r1, [r7, #24]
ARM GAS  C:\Users\Petro\AppData\Local\Temp\ccxzvnq1.s 			page 49


 2247 005c FA69     		ldr	r2, [r7, #28]
 2248 005e 8A18     		add	r2, r1, r2
 2249 0060 0C49     		ldr	r1, .L140+4
 2250 0062 8A5C     		ldrb	r2, [r1, r2]
 2251 0064 D0B2     		uxtb	r0, r2
 2252 0066 0121     		mov	r1, #1
 2253 0068 7A69     		ldr	r2, [r7, #20]
 2254 006a 9140     		lsl	r1, r1, r2
 2255 006c 0A1C     		mov	r2, r1
 2256 006e D2B2     		uxtb	r2, r2
 2257 0070 011C     		add	r1, r0, #0
 2258 0072 0A43     		orr	r2, r1
 2259 0074 D2B2     		uxtb	r2, r2
 2260 0076 D1B2     		uxtb	r1, r2
 2261 0078 064A     		ldr	r2, .L140+4
 2262 007a D154     		strb	r1, [r2, r3]
 440:nokia5110/LCD5110_Graph.c **** 		{
 2263              		.loc 2 440 0 discriminator 3
 2264 007c FB69     		ldr	r3, [r7, #28]
 2265 007e 0133     		add	r3, r3, #1
 2266 0080 FB61     		str	r3, [r7, #28]
 2267              	.L136:
 440:nokia5110/LCD5110_Graph.c **** 		{
 2268              		.loc 2 440 0 is_stmt 0 discriminator 1
 2269 0082 FA69     		ldr	r2, [r7, #28]
 2270 0084 7B68     		ldr	r3, [r7, #4]
 2271 0086 9A42     		cmp	r2, r3
 2272 0088 CFDB     		blt	.L139
 2273              	.L134:
 2274              	.LBE13:
 446:nokia5110/LCD5110_Graph.c **** 		}
 447:nokia5110/LCD5110_Graph.c **** 	}
 448:nokia5110/LCD5110_Graph.c **** }
 2275              		.loc 2 448 0 is_stmt 1
 2276 008a BD46     		mov	sp, r7
 2277 008c 08B0     		add	sp, sp, #32
 2278              		@ sp needed
 2279 008e 80BD     		pop	{r7, pc}
 2280              	.L141:
 2281              		.align	2
 2282              	.L140:
 2283 0090 07000080 		.word	-2147483641
 2284 0094 00000000 		.word	scrbuf
 2285              		.cfi_endproc
 2286              	.LFE83:
 2287              		.size	drawHLine, .-drawHLine
 2288              		.section	.text.clrHLine,"ax",%progbits
 2289              		.align	2
 2290              		.global	clrHLine
 2291              		.code	16
 2292              		.thumb_func
 2293              		.type	clrHLine, %function
 2294              	clrHLine:
 2295              	.LFB84:
 449:nokia5110/LCD5110_Graph.c **** 
 450:nokia5110/LCD5110_Graph.c **** void clrHLine(int x, int y, int l)
 451:nokia5110/LCD5110_Graph.c **** {
ARM GAS  C:\Users\Petro\AppData\Local\Temp\ccxzvnq1.s 			page 50


 2296              		.loc 2 451 0
 2297              		.cfi_startproc
 2298 0000 80B5     		push	{r7, lr}
 2299              		.cfi_def_cfa_offset 8
 2300              		.cfi_offset 7, -8
 2301              		.cfi_offset 14, -4
 2302 0002 88B0     		sub	sp, sp, #32
 2303              		.cfi_def_cfa_offset 40
 2304 0004 00AF     		add	r7, sp, #0
 2305              		.cfi_def_cfa_register 7
 2306 0006 F860     		str	r0, [r7, #12]
 2307 0008 B960     		str	r1, [r7, #8]
 2308 000a 7A60     		str	r2, [r7, #4]
 452:nokia5110/LCD5110_Graph.c **** 	int by, bi;
 453:nokia5110/LCD5110_Graph.c **** 
 454:nokia5110/LCD5110_Graph.c **** 	if ((x>=0) && (x<84) && (y>=0) && (y<48))
 2309              		.loc 2 454 0
 2310 000c FB68     		ldr	r3, [r7, #12]
 2311 000e 002B     		cmp	r3, #0
 2312 0010 3DDB     		blt	.L142
 2313              		.loc 2 454 0 is_stmt 0 discriminator 1
 2314 0012 FB68     		ldr	r3, [r7, #12]
 2315 0014 532B     		cmp	r3, #83
 2316 0016 3ADC     		bgt	.L142
 2317              		.loc 2 454 0 discriminator 2
 2318 0018 BB68     		ldr	r3, [r7, #8]
 2319 001a 002B     		cmp	r3, #0
 2320 001c 37DB     		blt	.L142
 2321              		.loc 2 454 0 discriminator 3
 2322 001e BB68     		ldr	r3, [r7, #8]
 2323 0020 2F2B     		cmp	r3, #47
 2324 0022 34DC     		bgt	.L142
 2325              	.LBB14:
 455:nokia5110/LCD5110_Graph.c **** 	{
 456:nokia5110/LCD5110_Graph.c ****         int cx;
 457:nokia5110/LCD5110_Graph.c **** 		for (cx=0; cx<l; cx++)
 2326              		.loc 2 457 0 is_stmt 1
 2327 0024 0023     		mov	r3, #0
 2328 0026 FB61     		str	r3, [r7, #28]
 2329 0028 2DE0     		b	.L144
 2330              	.L147:
 458:nokia5110/LCD5110_Graph.c **** 		{
 459:nokia5110/LCD5110_Graph.c **** 			by=((y/8)*84)+x;
 2331              		.loc 2 459 0 discriminator 3
 2332 002a BB68     		ldr	r3, [r7, #8]
 2333 002c 002B     		cmp	r3, #0
 2334 002e 00DA     		bge	.L145
 2335 0030 0733     		add	r3, r3, #7
 2336              	.L145:
 2337 0032 DB10     		asr	r3, r3, #3
 2338 0034 1A1C     		mov	r2, r3
 2339 0036 5423     		mov	r3, #84
 2340 0038 5A43     		mul	r2, r3
 2341 003a FB68     		ldr	r3, [r7, #12]
 2342 003c D318     		add	r3, r2, r3
 2343 003e BB61     		str	r3, [r7, #24]
 460:nokia5110/LCD5110_Graph.c **** 			bi=y % 8;
ARM GAS  C:\Users\Petro\AppData\Local\Temp\ccxzvnq1.s 			page 51


 2344              		.loc 2 460 0 discriminator 3
 2345 0040 BB68     		ldr	r3, [r7, #8]
 2346 0042 144A     		ldr	r2, .L148
 2347 0044 1340     		and	r3, r2
 2348 0046 04D5     		bpl	.L146
 2349 0048 013B     		sub	r3, r3, #1
 2350 004a 0822     		mov	r2, #8
 2351 004c 5242     		neg	r2, r2
 2352 004e 1343     		orr	r3, r2
 2353 0050 0133     		add	r3, r3, #1
 2354              	.L146:
 2355 0052 7B61     		str	r3, [r7, #20]
 461:nokia5110/LCD5110_Graph.c **** 
 462:nokia5110/LCD5110_Graph.c **** 			scrbuf[by+cx] &= ~(1<<bi);
 2356              		.loc 2 462 0 discriminator 3
 2357 0054 BA69     		ldr	r2, [r7, #24]
 2358 0056 FB69     		ldr	r3, [r7, #28]
 2359 0058 D318     		add	r3, r2, r3
 2360 005a B969     		ldr	r1, [r7, #24]
 2361 005c FA69     		ldr	r2, [r7, #28]
 2362 005e 8A18     		add	r2, r1, r2
 2363 0060 0D49     		ldr	r1, .L148+4
 2364 0062 8A5C     		ldrb	r2, [r1, r2]
 2365 0064 D0B2     		uxtb	r0, r2
 2366 0066 0121     		mov	r1, #1
 2367 0068 7A69     		ldr	r2, [r7, #20]
 2368 006a 9140     		lsl	r1, r1, r2
 2369 006c 0A1C     		mov	r2, r1
 2370 006e D2B2     		uxtb	r2, r2
 2371 0070 D243     		mvn	r2, r2
 2372 0072 D1B2     		uxtb	r1, r2
 2373 0074 021C     		add	r2, r0, #0
 2374 0076 0A40     		and	r2, r1
 2375 0078 D2B2     		uxtb	r2, r2
 2376 007a D1B2     		uxtb	r1, r2
 2377 007c 064A     		ldr	r2, .L148+4
 2378 007e D154     		strb	r1, [r2, r3]
 457:nokia5110/LCD5110_Graph.c **** 		{
 2379              		.loc 2 457 0 discriminator 3
 2380 0080 FB69     		ldr	r3, [r7, #28]
 2381 0082 0133     		add	r3, r3, #1
 2382 0084 FB61     		str	r3, [r7, #28]
 2383              	.L144:
 457:nokia5110/LCD5110_Graph.c **** 		{
 2384              		.loc 2 457 0 is_stmt 0 discriminator 1
 2385 0086 FA69     		ldr	r2, [r7, #28]
 2386 0088 7B68     		ldr	r3, [r7, #4]
 2387 008a 9A42     		cmp	r2, r3
 2388 008c CDDB     		blt	.L147
 2389              	.L142:
 2390              	.LBE14:
 463:nokia5110/LCD5110_Graph.c **** 		}
 464:nokia5110/LCD5110_Graph.c **** 	}
 465:nokia5110/LCD5110_Graph.c **** }
 2391              		.loc 2 465 0 is_stmt 1
 2392 008e BD46     		mov	sp, r7
 2393 0090 08B0     		add	sp, sp, #32
ARM GAS  C:\Users\Petro\AppData\Local\Temp\ccxzvnq1.s 			page 52


 2394              		@ sp needed
 2395 0092 80BD     		pop	{r7, pc}
 2396              	.L149:
 2397              		.align	2
 2398              	.L148:
 2399 0094 07000080 		.word	-2147483641
 2400 0098 00000000 		.word	scrbuf
 2401              		.cfi_endproc
 2402              	.LFE84:
 2403              		.size	clrHLine, .-clrHLine
 2404              		.section	.text.drawVLine,"ax",%progbits
 2405              		.align	2
 2406              		.global	drawVLine
 2407              		.code	16
 2408              		.thumb_func
 2409              		.type	drawVLine, %function
 2410              	drawVLine:
 2411              	.LFB85:
 466:nokia5110/LCD5110_Graph.c **** 
 467:nokia5110/LCD5110_Graph.c **** void drawVLine(int x, int y, int l)
 468:nokia5110/LCD5110_Graph.c **** {
 2412              		.loc 2 468 0
 2413              		.cfi_startproc
 2414 0000 80B5     		push	{r7, lr}
 2415              		.cfi_def_cfa_offset 8
 2416              		.cfi_offset 7, -8
 2417              		.cfi_offset 14, -4
 2418 0002 86B0     		sub	sp, sp, #24
 2419              		.cfi_def_cfa_offset 32
 2420 0004 00AF     		add	r7, sp, #0
 2421              		.cfi_def_cfa_register 7
 2422 0006 F860     		str	r0, [r7, #12]
 2423 0008 B960     		str	r1, [r7, #8]
 2424 000a 7A60     		str	r2, [r7, #4]
 469:nokia5110/LCD5110_Graph.c **** 	int by, bi;
 470:nokia5110/LCD5110_Graph.c **** 
 471:nokia5110/LCD5110_Graph.c **** 	if ((x>=0) && (x<84) && (y>=0) && (y<48))
 2425              		.loc 2 471 0
 2426 000c FB68     		ldr	r3, [r7, #12]
 2427 000e 002B     		cmp	r3, #0
 2428 0010 1EDB     		blt	.L150
 2429              		.loc 2 471 0 is_stmt 0 discriminator 1
 2430 0012 FB68     		ldr	r3, [r7, #12]
 2431 0014 532B     		cmp	r3, #83
 2432 0016 1BDC     		bgt	.L150
 2433              		.loc 2 471 0 discriminator 2
 2434 0018 BB68     		ldr	r3, [r7, #8]
 2435 001a 002B     		cmp	r3, #0
 2436 001c 18DB     		blt	.L150
 2437              		.loc 2 471 0 discriminator 3
 2438 001e BB68     		ldr	r3, [r7, #8]
 2439 0020 2F2B     		cmp	r3, #47
 2440 0022 15DC     		bgt	.L150
 2441              	.LBB15:
 472:nokia5110/LCD5110_Graph.c **** 	{
 473:nokia5110/LCD5110_Graph.c ****         int cy;
 474:nokia5110/LCD5110_Graph.c **** 		for (cy=0; cy<l; cy++)
ARM GAS  C:\Users\Petro\AppData\Local\Temp\ccxzvnq1.s 			page 53


 2442              		.loc 2 474 0 is_stmt 1
 2443 0024 0023     		mov	r3, #0
 2444 0026 7B61     		str	r3, [r7, #20]
 2445 0028 0EE0     		b	.L152
 2446              	.L153:
 475:nokia5110/LCD5110_Graph.c **** 		{
 476:nokia5110/LCD5110_Graph.c **** 			setPixel(x, y+cy);
 2447              		.loc 2 476 0 discriminator 3
 2448 002a FB68     		ldr	r3, [r7, #12]
 2449 002c 99B2     		uxth	r1, r3
 2450 002e BB68     		ldr	r3, [r7, #8]
 2451 0030 9AB2     		uxth	r2, r3
 2452 0032 7B69     		ldr	r3, [r7, #20]
 2453 0034 9BB2     		uxth	r3, r3
 2454 0036 D318     		add	r3, r2, r3
 2455 0038 9BB2     		uxth	r3, r3
 2456 003a 081C     		mov	r0, r1
 2457 003c 191C     		mov	r1, r3
 2458 003e FFF7FEFF 		bl	setPixel
 474:nokia5110/LCD5110_Graph.c **** 		{
 2459              		.loc 2 474 0 discriminator 3
 2460 0042 7B69     		ldr	r3, [r7, #20]
 2461 0044 0133     		add	r3, r3, #1
 2462 0046 7B61     		str	r3, [r7, #20]
 2463              	.L152:
 474:nokia5110/LCD5110_Graph.c **** 		{
 2464              		.loc 2 474 0 is_stmt 0 discriminator 1
 2465 0048 7A69     		ldr	r2, [r7, #20]
 2466 004a 7B68     		ldr	r3, [r7, #4]
 2467 004c 9A42     		cmp	r2, r3
 2468 004e ECDB     		blt	.L153
 2469              	.L150:
 2470              	.LBE15:
 477:nokia5110/LCD5110_Graph.c **** 		}
 478:nokia5110/LCD5110_Graph.c **** 	}
 479:nokia5110/LCD5110_Graph.c **** }
 2471              		.loc 2 479 0 is_stmt 1
 2472 0050 BD46     		mov	sp, r7
 2473 0052 06B0     		add	sp, sp, #24
 2474              		@ sp needed
 2475 0054 80BD     		pop	{r7, pc}
 2476              		.cfi_endproc
 2477              	.LFE85:
 2478              		.size	drawVLine, .-drawVLine
 2479 0056 C046     		.section	.text.clrVLine,"ax",%progbits
 2480              		.align	2
 2481              		.global	clrVLine
 2482              		.code	16
 2483              		.thumb_func
 2484              		.type	clrVLine, %function
 2485              	clrVLine:
 2486              	.LFB86:
 480:nokia5110/LCD5110_Graph.c **** 
 481:nokia5110/LCD5110_Graph.c **** void clrVLine(int x, int y, int l)
 482:nokia5110/LCD5110_Graph.c **** {
 2487              		.loc 2 482 0
 2488              		.cfi_startproc
ARM GAS  C:\Users\Petro\AppData\Local\Temp\ccxzvnq1.s 			page 54


 2489 0000 80B5     		push	{r7, lr}
 2490              		.cfi_def_cfa_offset 8
 2491              		.cfi_offset 7, -8
 2492              		.cfi_offset 14, -4
 2493 0002 86B0     		sub	sp, sp, #24
 2494              		.cfi_def_cfa_offset 32
 2495 0004 00AF     		add	r7, sp, #0
 2496              		.cfi_def_cfa_register 7
 2497 0006 F860     		str	r0, [r7, #12]
 2498 0008 B960     		str	r1, [r7, #8]
 2499 000a 7A60     		str	r2, [r7, #4]
 483:nokia5110/LCD5110_Graph.c **** 	int by, bi;
 484:nokia5110/LCD5110_Graph.c **** 
 485:nokia5110/LCD5110_Graph.c **** 	if ((x>=0) && (x<84) && (y>=0) && (y<48))
 2500              		.loc 2 485 0
 2501 000c FB68     		ldr	r3, [r7, #12]
 2502 000e 002B     		cmp	r3, #0
 2503 0010 1EDB     		blt	.L154
 2504              		.loc 2 485 0 is_stmt 0 discriminator 1
 2505 0012 FB68     		ldr	r3, [r7, #12]
 2506 0014 532B     		cmp	r3, #83
 2507 0016 1BDC     		bgt	.L154
 2508              		.loc 2 485 0 discriminator 2
 2509 0018 BB68     		ldr	r3, [r7, #8]
 2510 001a 002B     		cmp	r3, #0
 2511 001c 18DB     		blt	.L154
 2512              		.loc 2 485 0 discriminator 3
 2513 001e BB68     		ldr	r3, [r7, #8]
 2514 0020 2F2B     		cmp	r3, #47
 2515 0022 15DC     		bgt	.L154
 2516              	.LBB16:
 486:nokia5110/LCD5110_Graph.c **** 	{
 487:nokia5110/LCD5110_Graph.c ****         int cy;
 488:nokia5110/LCD5110_Graph.c **** 		for (cy=0; cy<l; cy++)
 2517              		.loc 2 488 0 is_stmt 1
 2518 0024 0023     		mov	r3, #0
 2519 0026 7B61     		str	r3, [r7, #20]
 2520 0028 0EE0     		b	.L156
 2521              	.L157:
 489:nokia5110/LCD5110_Graph.c **** 		{
 490:nokia5110/LCD5110_Graph.c **** 			clrPixel(x, y+cy);
 2522              		.loc 2 490 0 discriminator 3
 2523 002a FB68     		ldr	r3, [r7, #12]
 2524 002c 99B2     		uxth	r1, r3
 2525 002e BB68     		ldr	r3, [r7, #8]
 2526 0030 9AB2     		uxth	r2, r3
 2527 0032 7B69     		ldr	r3, [r7, #20]
 2528 0034 9BB2     		uxth	r3, r3
 2529 0036 D318     		add	r3, r2, r3
 2530 0038 9BB2     		uxth	r3, r3
 2531 003a 081C     		mov	r0, r1
 2532 003c 191C     		mov	r1, r3
 2533 003e FFF7FEFF 		bl	clrPixel
 488:nokia5110/LCD5110_Graph.c **** 		{
 2534              		.loc 2 488 0 discriminator 3
 2535 0042 7B69     		ldr	r3, [r7, #20]
 2536 0044 0133     		add	r3, r3, #1
ARM GAS  C:\Users\Petro\AppData\Local\Temp\ccxzvnq1.s 			page 55


 2537 0046 7B61     		str	r3, [r7, #20]
 2538              	.L156:
 488:nokia5110/LCD5110_Graph.c **** 		{
 2539              		.loc 2 488 0 is_stmt 0 discriminator 1
 2540 0048 7A69     		ldr	r2, [r7, #20]
 2541 004a 7B68     		ldr	r3, [r7, #4]
 2542 004c 9A42     		cmp	r2, r3
 2543 004e ECDB     		blt	.L157
 2544              	.L154:
 2545              	.LBE16:
 491:nokia5110/LCD5110_Graph.c **** 		}
 492:nokia5110/LCD5110_Graph.c **** 	}
 493:nokia5110/LCD5110_Graph.c **** }
 2546              		.loc 2 493 0 is_stmt 1
 2547 0050 BD46     		mov	sp, r7
 2548 0052 06B0     		add	sp, sp, #24
 2549              		@ sp needed
 2550 0054 80BD     		pop	{r7, pc}
 2551              		.cfi_endproc
 2552              	.LFE86:
 2553              		.size	clrVLine, .-clrVLine
 2554              		.global	__aeabi_i2d
 2555              		.global	__aeabi_ddiv
 2556              		.global	__aeabi_dadd
 2557              		.global	__aeabi_d2iz
 2558              		.global	__aeabi_dsub
 2559              		.global	__aeabi_i2f
 2560              		.global	__aeabi_fdiv
 2561              		.global	__aeabi_f2d
 2562 0056 C046     		.section	.text.drawLine,"ax",%progbits
 2563              		.align	2
 2564              		.global	drawLine
 2565              		.code	16
 2566              		.thumb_func
 2567              		.type	drawLine, %function
 2568              	drawLine:
 2569              	.LFB87:
 494:nokia5110/LCD5110_Graph.c **** 
 495:nokia5110/LCD5110_Graph.c **** void drawLine(int x1, int y1, int x2, int y2)
 496:nokia5110/LCD5110_Graph.c **** {
 2570              		.loc 2 496 0
 2571              		.cfi_startproc
 2572 0000 F0B5     		push	{r4, r5, r6, r7, lr}
 2573              		.cfi_def_cfa_offset 20
 2574              		.cfi_offset 4, -20
 2575              		.cfi_offset 5, -16
 2576              		.cfi_offset 6, -12
 2577              		.cfi_offset 7, -8
 2578              		.cfi_offset 14, -4
 2579 0002 91B0     		sub	sp, sp, #68
 2580              		.cfi_def_cfa_offset 88
 2581 0004 00AF     		add	r7, sp, #0
 2582              		.cfi_def_cfa_register 7
 2583 0006 F860     		str	r0, [r7, #12]
 2584 0008 B960     		str	r1, [r7, #8]
 2585 000a 7A60     		str	r2, [r7, #4]
 2586 000c 3B60     		str	r3, [r7]
ARM GAS  C:\Users\Petro\AppData\Local\Temp\ccxzvnq1.s 			page 56


 497:nokia5110/LCD5110_Graph.c **** 	int tmp;
 498:nokia5110/LCD5110_Graph.c **** 	double delta, tx, ty;
 499:nokia5110/LCD5110_Graph.c **** 	double m, b, dx, dy;
 500:nokia5110/LCD5110_Graph.c **** 	
 501:nokia5110/LCD5110_Graph.c **** 	if (((x2-x1)<0))
 2587              		.loc 2 501 0
 2588 000e 7A68     		ldr	r2, [r7, #4]
 2589 0010 FB68     		ldr	r3, [r7, #12]
 2590 0012 D31A     		sub	r3, r2, r3
 2591 0014 0BD5     		bpl	.L159
 502:nokia5110/LCD5110_Graph.c **** 	{
 503:nokia5110/LCD5110_Graph.c **** 		tmp=x1;
 2592              		.loc 2 503 0
 2593 0016 FB68     		ldr	r3, [r7, #12]
 2594 0018 FB61     		str	r3, [r7, #28]
 504:nokia5110/LCD5110_Graph.c **** 		x1=x2;
 2595              		.loc 2 504 0
 2596 001a 7B68     		ldr	r3, [r7, #4]
 2597 001c FB60     		str	r3, [r7, #12]
 505:nokia5110/LCD5110_Graph.c **** 		x2=tmp;
 2598              		.loc 2 505 0
 2599 001e FB69     		ldr	r3, [r7, #28]
 2600 0020 7B60     		str	r3, [r7, #4]
 506:nokia5110/LCD5110_Graph.c **** 		tmp=y1;
 2601              		.loc 2 506 0
 2602 0022 BB68     		ldr	r3, [r7, #8]
 2603 0024 FB61     		str	r3, [r7, #28]
 507:nokia5110/LCD5110_Graph.c **** 		y1=y2;
 2604              		.loc 2 507 0
 2605 0026 3B68     		ldr	r3, [r7]
 2606 0028 BB60     		str	r3, [r7, #8]
 508:nokia5110/LCD5110_Graph.c **** 		y2=tmp;
 2607              		.loc 2 508 0
 2608 002a FB69     		ldr	r3, [r7, #28]
 2609 002c 3B60     		str	r3, [r7]
 2610              	.L159:
 509:nokia5110/LCD5110_Graph.c **** 	}
 510:nokia5110/LCD5110_Graph.c ****     if (((y2-y1)<0))
 2611              		.loc 2 510 0
 2612 002e 3A68     		ldr	r2, [r7]
 2613 0030 BB68     		ldr	r3, [r7, #8]
 2614 0032 D31A     		sub	r3, r2, r3
 2615 0034 0BD5     		bpl	.L160
 511:nokia5110/LCD5110_Graph.c **** 	{
 512:nokia5110/LCD5110_Graph.c **** 		tmp=x1;
 2616              		.loc 2 512 0
 2617 0036 FB68     		ldr	r3, [r7, #12]
 2618 0038 FB61     		str	r3, [r7, #28]
 513:nokia5110/LCD5110_Graph.c **** 		x1=x2;
 2619              		.loc 2 513 0
 2620 003a 7B68     		ldr	r3, [r7, #4]
 2621 003c FB60     		str	r3, [r7, #12]
 514:nokia5110/LCD5110_Graph.c **** 		x2=tmp;
 2622              		.loc 2 514 0
 2623 003e FB69     		ldr	r3, [r7, #28]
 2624 0040 7B60     		str	r3, [r7, #4]
 515:nokia5110/LCD5110_Graph.c **** 		tmp=y1;
ARM GAS  C:\Users\Petro\AppData\Local\Temp\ccxzvnq1.s 			page 57


 2625              		.loc 2 515 0
 2626 0042 BB68     		ldr	r3, [r7, #8]
 2627 0044 FB61     		str	r3, [r7, #28]
 516:nokia5110/LCD5110_Graph.c **** 		y1=y2;
 2628              		.loc 2 516 0
 2629 0046 3B68     		ldr	r3, [r7]
 2630 0048 BB60     		str	r3, [r7, #8]
 517:nokia5110/LCD5110_Graph.c **** 		y2=tmp;
 2631              		.loc 2 517 0
 2632 004a FB69     		ldr	r3, [r7, #28]
 2633 004c 3B60     		str	r3, [r7]
 2634              	.L160:
 518:nokia5110/LCD5110_Graph.c **** 	}
 519:nokia5110/LCD5110_Graph.c **** 
 520:nokia5110/LCD5110_Graph.c **** 	if (y1==y2)
 2635              		.loc 2 520 0
 2636 004e BA68     		ldr	r2, [r7, #8]
 2637 0050 3B68     		ldr	r3, [r7]
 2638 0052 9A42     		cmp	r2, r3
 2639 0054 14D1     		bne	.L161
 521:nokia5110/LCD5110_Graph.c **** 	{
 522:nokia5110/LCD5110_Graph.c **** 		if (x1>x2)
 2640              		.loc 2 522 0
 2641 0056 FA68     		ldr	r2, [r7, #12]
 2642 0058 7B68     		ldr	r3, [r7, #4]
 2643 005a 9A42     		cmp	r2, r3
 2644 005c 05DD     		ble	.L162
 523:nokia5110/LCD5110_Graph.c **** 		{
 524:nokia5110/LCD5110_Graph.c **** 			tmp=x1;
 2645              		.loc 2 524 0
 2646 005e FB68     		ldr	r3, [r7, #12]
 2647 0060 FB61     		str	r3, [r7, #28]
 525:nokia5110/LCD5110_Graph.c **** 			x1=x2;
 2648              		.loc 2 525 0
 2649 0062 7B68     		ldr	r3, [r7, #4]
 2650 0064 FB60     		str	r3, [r7, #12]
 526:nokia5110/LCD5110_Graph.c **** 			x2=tmp;
 2651              		.loc 2 526 0
 2652 0066 FB69     		ldr	r3, [r7, #28]
 2653 0068 7B60     		str	r3, [r7, #4]
 2654              	.L162:
 527:nokia5110/LCD5110_Graph.c **** 		}
 528:nokia5110/LCD5110_Graph.c **** 		drawHLine(x1, y1, x2-x1);
 2655              		.loc 2 528 0
 2656 006a 7A68     		ldr	r2, [r7, #4]
 2657 006c FB68     		ldr	r3, [r7, #12]
 2658 006e D31A     		sub	r3, r2, r3
 2659 0070 F968     		ldr	r1, [r7, #12]
 2660 0072 BA68     		ldr	r2, [r7, #8]
 2661 0074 081C     		mov	r0, r1
 2662 0076 111C     		mov	r1, r2
 2663 0078 1A1C     		mov	r2, r3
 2664 007a FFF7FEFF 		bl	drawHLine
 2665 007e 1AE1     		b	.L158
 2666              	.L161:
 529:nokia5110/LCD5110_Graph.c **** 	}
 530:nokia5110/LCD5110_Graph.c **** 	else if (x1==x2)
ARM GAS  C:\Users\Petro\AppData\Local\Temp\ccxzvnq1.s 			page 58


 2667              		.loc 2 530 0
 2668 0080 FA68     		ldr	r2, [r7, #12]
 2669 0082 7B68     		ldr	r3, [r7, #4]
 2670 0084 9A42     		cmp	r2, r3
 2671 0086 14D1     		bne	.L164
 531:nokia5110/LCD5110_Graph.c **** 	{
 532:nokia5110/LCD5110_Graph.c **** 		if (y1>y2)
 2672              		.loc 2 532 0
 2673 0088 BA68     		ldr	r2, [r7, #8]
 2674 008a 3B68     		ldr	r3, [r7]
 2675 008c 9A42     		cmp	r2, r3
 2676 008e 05DD     		ble	.L165
 533:nokia5110/LCD5110_Graph.c **** 		{
 534:nokia5110/LCD5110_Graph.c **** 			tmp=y1;
 2677              		.loc 2 534 0
 2678 0090 BB68     		ldr	r3, [r7, #8]
 2679 0092 FB61     		str	r3, [r7, #28]
 535:nokia5110/LCD5110_Graph.c **** 			y1=y2;
 2680              		.loc 2 535 0
 2681 0094 3B68     		ldr	r3, [r7]
 2682 0096 BB60     		str	r3, [r7, #8]
 536:nokia5110/LCD5110_Graph.c **** 			y2=tmp;
 2683              		.loc 2 536 0
 2684 0098 FB69     		ldr	r3, [r7, #28]
 2685 009a 3B60     		str	r3, [r7]
 2686              	.L165:
 537:nokia5110/LCD5110_Graph.c **** 		}
 538:nokia5110/LCD5110_Graph.c **** 		drawVLine(x1, y1, y2-y1);
 2687              		.loc 2 538 0
 2688 009c 3A68     		ldr	r2, [r7]
 2689 009e BB68     		ldr	r3, [r7, #8]
 2690 00a0 D31A     		sub	r3, r2, r3
 2691 00a2 F968     		ldr	r1, [r7, #12]
 2692 00a4 BA68     		ldr	r2, [r7, #8]
 2693 00a6 081C     		mov	r0, r1
 2694 00a8 111C     		mov	r1, r2
 2695 00aa 1A1C     		mov	r2, r3
 2696 00ac FFF7FEFF 		bl	drawVLine
 2697 00b0 01E1     		b	.L158
 2698              	.L164:
 539:nokia5110/LCD5110_Graph.c **** 	}
 540:nokia5110/LCD5110_Graph.c **** 	else if (abs(x2-x1)>abs(y2-y1))
 2699              		.loc 2 540 0
 2700 00b2 7A68     		ldr	r2, [r7, #4]
 2701 00b4 FB68     		ldr	r3, [r7, #12]
 2702 00b6 D31A     		sub	r3, r2, r3
 2703 00b8 D917     		asr	r1, r3, #31
 2704 00ba 5A18     		add	r2, r3, r1
 2705 00bc 4A40     		eor	r2, r1
 2706 00be 3968     		ldr	r1, [r7]
 2707 00c0 BB68     		ldr	r3, [r7, #8]
 2708 00c2 CB1A     		sub	r3, r1, r3
 2709 00c4 D917     		asr	r1, r3, #31
 2710 00c6 5B18     		add	r3, r3, r1
 2711 00c8 4B40     		eor	r3, r1
 2712 00ca 9A42     		cmp	r2, r3
 2713 00cc 00DC     		bgt	.LCB2450
ARM GAS  C:\Users\Petro\AppData\Local\Temp\ccxzvnq1.s 			page 59


 2714 00ce 76E0     		b	.L166	@long jump
 2715              	.LCB2450:
 541:nokia5110/LCD5110_Graph.c **** 	{
 542:nokia5110/LCD5110_Graph.c **** 		delta=((double)(y2-y1)/(double)(x2-x1));
 2716              		.loc 2 542 0
 2717 00d0 3A68     		ldr	r2, [r7]
 2718 00d2 BB68     		ldr	r3, [r7, #8]
 2719 00d4 D31A     		sub	r3, r2, r3
 2720 00d6 181C     		mov	r0, r3
 2721 00d8 FFF7FEFF 		bl	__aeabi_i2d
 2722 00dc 051C     		mov	r5, r0
 2723 00de 0E1C     		mov	r6, r1
 2724 00e0 7A68     		ldr	r2, [r7, #4]
 2725 00e2 FB68     		ldr	r3, [r7, #12]
 2726 00e4 D31A     		sub	r3, r2, r3
 2727 00e6 181C     		mov	r0, r3
 2728 00e8 FFF7FEFF 		bl	__aeabi_i2d
 2729 00ec 031C     		mov	r3, r0
 2730 00ee 0C1C     		mov	r4, r1
 2731 00f0 281C     		mov	r0, r5
 2732 00f2 311C     		mov	r1, r6
 2733 00f4 1A1C     		mov	r2, r3
 2734 00f6 231C     		mov	r3, r4
 2735 00f8 FFF7FEFF 		bl	__aeabi_ddiv
 2736 00fc 031C     		mov	r3, r0
 2737 00fe 0C1C     		mov	r4, r1
 2738 0100 3B61     		str	r3, [r7, #16]
 2739 0102 7C61     		str	r4, [r7, #20]
 543:nokia5110/LCD5110_Graph.c **** 		ty=(double)(y1);
 2740              		.loc 2 543 0
 2741 0104 B868     		ldr	r0, [r7, #8]
 2742 0106 FFF7FEFF 		bl	__aeabi_i2d
 2743 010a 031C     		mov	r3, r0
 2744 010c 0C1C     		mov	r4, r1
 2745 010e 3B63     		str	r3, [r7, #48]
 2746 0110 7C63     		str	r4, [r7, #52]
 544:nokia5110/LCD5110_Graph.c **** 		if (x1>x2)
 2747              		.loc 2 544 0
 2748 0112 FA68     		ldr	r2, [r7, #12]
 2749 0114 7B68     		ldr	r3, [r7, #4]
 2750 0116 9A42     		cmp	r2, r3
 2751 0118 28DD     		ble	.L167
 2752              	.LBB17:
 545:nokia5110/LCD5110_Graph.c **** 		{
 546:nokia5110/LCD5110_Graph.c ****             int i;
 547:nokia5110/LCD5110_Graph.c **** 			for (i=x1; i>=x2; i--)
 2753              		.loc 2 547 0
 2754 011a FB68     		ldr	r3, [r7, #12]
 2755 011c FB62     		str	r3, [r7, #44]
 2756 011e 20E0     		b	.L168
 2757              	.L169:
 548:nokia5110/LCD5110_Graph.c **** 			{
 549:nokia5110/LCD5110_Graph.c **** 				setPixel(i, (int)(ty+0.5));
 2758              		.loc 2 549 0 discriminator 3
 2759 0120 FB6A     		ldr	r3, [r7, #44]
 2760 0122 9CB2     		uxth	r4, r3
 2761 0124 386B     		ldr	r0, [r7, #48]
ARM GAS  C:\Users\Petro\AppData\Local\Temp\ccxzvnq1.s 			page 60


 2762 0126 796B     		ldr	r1, [r7, #52]
 2763 0128 0022     		mov	r2, #0
 2764 012a 644B     		ldr	r3, .L178
 2765 012c FFF7FEFF 		bl	__aeabi_dadd
 2766 0130 021C     		mov	r2, r0
 2767 0132 0B1C     		mov	r3, r1
 2768 0134 101C     		mov	r0, r2
 2769 0136 191C     		mov	r1, r3
 2770 0138 FFF7FEFF 		bl	__aeabi_d2iz
 2771 013c 031C     		mov	r3, r0
 2772 013e 9BB2     		uxth	r3, r3
 2773 0140 201C     		mov	r0, r4
 2774 0142 191C     		mov	r1, r3
 2775 0144 FFF7FEFF 		bl	setPixel
 550:nokia5110/LCD5110_Graph.c ****         		ty=ty-delta;
 2776              		.loc 2 550 0 discriminator 3
 2777 0148 386B     		ldr	r0, [r7, #48]
 2778 014a 796B     		ldr	r1, [r7, #52]
 2779 014c 3A69     		ldr	r2, [r7, #16]
 2780 014e 7B69     		ldr	r3, [r7, #20]
 2781 0150 FFF7FEFF 		bl	__aeabi_dsub
 2782 0154 031C     		mov	r3, r0
 2783 0156 0C1C     		mov	r4, r1
 2784 0158 3B63     		str	r3, [r7, #48]
 2785 015a 7C63     		str	r4, [r7, #52]
 547:nokia5110/LCD5110_Graph.c **** 			{
 2786              		.loc 2 547 0 discriminator 3
 2787 015c FB6A     		ldr	r3, [r7, #44]
 2788 015e 013B     		sub	r3, r3, #1
 2789 0160 FB62     		str	r3, [r7, #44]
 2790              	.L168:
 547:nokia5110/LCD5110_Graph.c **** 			{
 2791              		.loc 2 547 0 is_stmt 0 discriminator 1
 2792 0162 FA6A     		ldr	r2, [r7, #44]
 2793 0164 7B68     		ldr	r3, [r7, #4]
 2794 0166 9A42     		cmp	r2, r3
 2795 0168 DADA     		bge	.L169
 2796              	.LBE17:
 2797 016a A4E0     		b	.L158
 2798              	.L167:
 2799              	.LBB18:
 551:nokia5110/LCD5110_Graph.c **** 			}
 552:nokia5110/LCD5110_Graph.c **** 		}
 553:nokia5110/LCD5110_Graph.c **** 		else
 554:nokia5110/LCD5110_Graph.c **** 		{
 555:nokia5110/LCD5110_Graph.c ****             int i;
 556:nokia5110/LCD5110_Graph.c **** 			for (i=x1; i<=x2; i++)
 2800              		.loc 2 556 0 is_stmt 1
 2801 016c FB68     		ldr	r3, [r7, #12]
 2802 016e BB62     		str	r3, [r7, #40]
 2803 0170 20E0     		b	.L171
 2804              	.L172:
 557:nokia5110/LCD5110_Graph.c **** 			{
 558:nokia5110/LCD5110_Graph.c **** 				setPixel(i, (int)(ty+0.5));
 2805              		.loc 2 558 0 discriminator 3
 2806 0172 BB6A     		ldr	r3, [r7, #40]
 2807 0174 9CB2     		uxth	r4, r3
ARM GAS  C:\Users\Petro\AppData\Local\Temp\ccxzvnq1.s 			page 61


 2808 0176 386B     		ldr	r0, [r7, #48]
 2809 0178 796B     		ldr	r1, [r7, #52]
 2810 017a 0022     		mov	r2, #0
 2811 017c 4F4B     		ldr	r3, .L178
 2812 017e FFF7FEFF 		bl	__aeabi_dadd
 2813 0182 021C     		mov	r2, r0
 2814 0184 0B1C     		mov	r3, r1
 2815 0186 101C     		mov	r0, r2
 2816 0188 191C     		mov	r1, r3
 2817 018a FFF7FEFF 		bl	__aeabi_d2iz
 2818 018e 031C     		mov	r3, r0
 2819 0190 9BB2     		uxth	r3, r3
 2820 0192 201C     		mov	r0, r4
 2821 0194 191C     		mov	r1, r3
 2822 0196 FFF7FEFF 		bl	setPixel
 559:nokia5110/LCD5110_Graph.c ****         		ty=ty+delta;
 2823              		.loc 2 559 0 discriminator 3
 2824 019a 386B     		ldr	r0, [r7, #48]
 2825 019c 796B     		ldr	r1, [r7, #52]
 2826 019e 3A69     		ldr	r2, [r7, #16]
 2827 01a0 7B69     		ldr	r3, [r7, #20]
 2828 01a2 FFF7FEFF 		bl	__aeabi_dadd
 2829 01a6 031C     		mov	r3, r0
 2830 01a8 0C1C     		mov	r4, r1
 2831 01aa 3B63     		str	r3, [r7, #48]
 2832 01ac 7C63     		str	r4, [r7, #52]
 556:nokia5110/LCD5110_Graph.c **** 			{
 2833              		.loc 2 556 0 discriminator 3
 2834 01ae BB6A     		ldr	r3, [r7, #40]
 2835 01b0 0133     		add	r3, r3, #1
 2836 01b2 BB62     		str	r3, [r7, #40]
 2837              	.L171:
 556:nokia5110/LCD5110_Graph.c **** 			{
 2838              		.loc 2 556 0 is_stmt 0 discriminator 1
 2839 01b4 BA6A     		ldr	r2, [r7, #40]
 2840 01b6 7B68     		ldr	r3, [r7, #4]
 2841 01b8 9A42     		cmp	r2, r3
 2842 01ba DADD     		ble	.L172
 2843              	.LBE18:
 2844 01bc 7BE0     		b	.L158
 2845              	.L166:
 560:nokia5110/LCD5110_Graph.c **** 			}
 561:nokia5110/LCD5110_Graph.c **** 		}
 562:nokia5110/LCD5110_Graph.c **** 	}
 563:nokia5110/LCD5110_Graph.c **** 	else
 564:nokia5110/LCD5110_Graph.c **** 	{
 565:nokia5110/LCD5110_Graph.c **** 		delta=((float)(x2-x1)/(float)(y2-y1));
 2846              		.loc 2 565 0 is_stmt 1
 2847 01be 7A68     		ldr	r2, [r7, #4]
 2848 01c0 FB68     		ldr	r3, [r7, #12]
 2849 01c2 D31A     		sub	r3, r2, r3
 2850 01c4 181C     		mov	r0, r3
 2851 01c6 FFF7FEFF 		bl	__aeabi_i2f
 2852 01ca 041C     		add	r4, r0, #0
 2853 01cc 3A68     		ldr	r2, [r7]
 2854 01ce BB68     		ldr	r3, [r7, #8]
 2855 01d0 D31A     		sub	r3, r2, r3
ARM GAS  C:\Users\Petro\AppData\Local\Temp\ccxzvnq1.s 			page 62


 2856 01d2 181C     		mov	r0, r3
 2857 01d4 FFF7FEFF 		bl	__aeabi_i2f
 2858 01d8 031C     		add	r3, r0, #0
 2859 01da 201C     		add	r0, r4, #0
 2860 01dc 191C     		add	r1, r3, #0
 2861 01de FFF7FEFF 		bl	__aeabi_fdiv
 2862 01e2 031C     		add	r3, r0, #0
 2863 01e4 181C     		add	r0, r3, #0
 2864 01e6 FFF7FEFF 		bl	__aeabi_f2d
 2865 01ea 031C     		mov	r3, r0
 2866 01ec 0C1C     		mov	r4, r1
 2867 01ee 3B61     		str	r3, [r7, #16]
 2868 01f0 7C61     		str	r4, [r7, #20]
 566:nokia5110/LCD5110_Graph.c **** 		tx=(float)(x1);
 2869              		.loc 2 566 0
 2870 01f2 F868     		ldr	r0, [r7, #12]
 2871 01f4 FFF7FEFF 		bl	__aeabi_i2f
 2872 01f8 031C     		add	r3, r0, #0
 2873 01fa 181C     		add	r0, r3, #0
 2874 01fc FFF7FEFF 		bl	__aeabi_f2d
 2875 0200 031C     		mov	r3, r0
 2876 0202 0C1C     		mov	r4, r1
 2877 0204 BB63     		str	r3, [r7, #56]
 2878 0206 FC63     		str	r4, [r7, #60]
 567:nokia5110/LCD5110_Graph.c ****         if (y1>y2)
 2879              		.loc 2 567 0
 2880 0208 BA68     		ldr	r2, [r7, #8]
 2881 020a 3B68     		ldr	r3, [r7]
 2882 020c 9A42     		cmp	r2, r3
 2883 020e 29DD     		ble	.L173
 2884              	.LBB19:
 568:nokia5110/LCD5110_Graph.c ****         {
 569:nokia5110/LCD5110_Graph.c ****             int i;
 570:nokia5110/LCD5110_Graph.c **** 			for (i=y2+1; i>y1; i--)
 2885              		.loc 2 570 0
 2886 0210 3B68     		ldr	r3, [r7]
 2887 0212 0133     		add	r3, r3, #1
 2888 0214 7B62     		str	r3, [r7, #36]
 2889 0216 20E0     		b	.L174
 2890              	.L175:
 571:nokia5110/LCD5110_Graph.c **** 			{
 572:nokia5110/LCD5110_Graph.c **** 		 		setPixel((int)(tx+0.5), i);
 2891              		.loc 2 572 0 discriminator 3
 2892 0218 B86B     		ldr	r0, [r7, #56]
 2893 021a F96B     		ldr	r1, [r7, #60]
 2894 021c 0022     		mov	r2, #0
 2895 021e 274B     		ldr	r3, .L178
 2896 0220 FFF7FEFF 		bl	__aeabi_dadd
 2897 0224 031C     		mov	r3, r0
 2898 0226 0C1C     		mov	r4, r1
 2899 0228 181C     		mov	r0, r3
 2900 022a 211C     		mov	r1, r4
 2901 022c FFF7FEFF 		bl	__aeabi_d2iz
 2902 0230 031C     		mov	r3, r0
 2903 0232 9AB2     		uxth	r2, r3
 2904 0234 7B6A     		ldr	r3, [r7, #36]
 2905 0236 9BB2     		uxth	r3, r3
ARM GAS  C:\Users\Petro\AppData\Local\Temp\ccxzvnq1.s 			page 63


 2906 0238 101C     		mov	r0, r2
 2907 023a 191C     		mov	r1, r3
 2908 023c FFF7FEFF 		bl	setPixel
 573:nokia5110/LCD5110_Graph.c ****         		tx=tx+delta;
 2909              		.loc 2 573 0 discriminator 3
 2910 0240 B86B     		ldr	r0, [r7, #56]
 2911 0242 F96B     		ldr	r1, [r7, #60]
 2912 0244 3A69     		ldr	r2, [r7, #16]
 2913 0246 7B69     		ldr	r3, [r7, #20]
 2914 0248 FFF7FEFF 		bl	__aeabi_dadd
 2915 024c 031C     		mov	r3, r0
 2916 024e 0C1C     		mov	r4, r1
 2917 0250 BB63     		str	r3, [r7, #56]
 2918 0252 FC63     		str	r4, [r7, #60]
 570:nokia5110/LCD5110_Graph.c **** 			{
 2919              		.loc 2 570 0 discriminator 3
 2920 0254 7B6A     		ldr	r3, [r7, #36]
 2921 0256 013B     		sub	r3, r3, #1
 2922 0258 7B62     		str	r3, [r7, #36]
 2923              	.L174:
 570:nokia5110/LCD5110_Graph.c **** 			{
 2924              		.loc 2 570 0 is_stmt 0 discriminator 1
 2925 025a 7A6A     		ldr	r2, [r7, #36]
 2926 025c BB68     		ldr	r3, [r7, #8]
 2927 025e 9A42     		cmp	r2, r3
 2928 0260 DADC     		bgt	.L175
 2929              	.LBE19:
 2930 0262 28E0     		b	.L158
 2931              	.L173:
 2932              	.LBB20:
 574:nokia5110/LCD5110_Graph.c **** 			}
 575:nokia5110/LCD5110_Graph.c ****         }
 576:nokia5110/LCD5110_Graph.c ****         else
 577:nokia5110/LCD5110_Graph.c ****         {
 578:nokia5110/LCD5110_Graph.c ****             int i;
 579:nokia5110/LCD5110_Graph.c **** 			for (i=y1; i<y2+1; i++)
 2933              		.loc 2 579 0 is_stmt 1
 2934 0264 BB68     		ldr	r3, [r7, #8]
 2935 0266 3B62     		str	r3, [r7, #32]
 2936 0268 20E0     		b	.L176
 2937              	.L177:
 580:nokia5110/LCD5110_Graph.c **** 			{
 581:nokia5110/LCD5110_Graph.c **** 		 		setPixel((int)(tx+0.5), i);
 2938              		.loc 2 581 0 discriminator 3
 2939 026a B86B     		ldr	r0, [r7, #56]
 2940 026c F96B     		ldr	r1, [r7, #60]
 2941 026e 0022     		mov	r2, #0
 2942 0270 124B     		ldr	r3, .L178
 2943 0272 FFF7FEFF 		bl	__aeabi_dadd
 2944 0276 031C     		mov	r3, r0
 2945 0278 0C1C     		mov	r4, r1
 2946 027a 181C     		mov	r0, r3
 2947 027c 211C     		mov	r1, r4
 2948 027e FFF7FEFF 		bl	__aeabi_d2iz
 2949 0282 031C     		mov	r3, r0
 2950 0284 9AB2     		uxth	r2, r3
 2951 0286 3B6A     		ldr	r3, [r7, #32]
ARM GAS  C:\Users\Petro\AppData\Local\Temp\ccxzvnq1.s 			page 64


 2952 0288 9BB2     		uxth	r3, r3
 2953 028a 101C     		mov	r0, r2
 2954 028c 191C     		mov	r1, r3
 2955 028e FFF7FEFF 		bl	setPixel
 582:nokia5110/LCD5110_Graph.c ****         		tx=tx+delta;
 2956              		.loc 2 582 0 discriminator 3
 2957 0292 B86B     		ldr	r0, [r7, #56]
 2958 0294 F96B     		ldr	r1, [r7, #60]
 2959 0296 3A69     		ldr	r2, [r7, #16]
 2960 0298 7B69     		ldr	r3, [r7, #20]
 2961 029a FFF7FEFF 		bl	__aeabi_dadd
 2962 029e 031C     		mov	r3, r0
 2963 02a0 0C1C     		mov	r4, r1
 2964 02a2 BB63     		str	r3, [r7, #56]
 2965 02a4 FC63     		str	r4, [r7, #60]
 579:nokia5110/LCD5110_Graph.c **** 			{
 2966              		.loc 2 579 0 discriminator 3
 2967 02a6 3B6A     		ldr	r3, [r7, #32]
 2968 02a8 0133     		add	r3, r3, #1
 2969 02aa 3B62     		str	r3, [r7, #32]
 2970              	.L176:
 579:nokia5110/LCD5110_Graph.c **** 			{
 2971              		.loc 2 579 0 is_stmt 0 discriminator 1
 2972 02ac 3B68     		ldr	r3, [r7]
 2973 02ae 5A1C     		add	r2, r3, #1
 2974 02b0 3B6A     		ldr	r3, [r7, #32]
 2975 02b2 9A42     		cmp	r2, r3
 2976 02b4 D9DC     		bgt	.L177
 2977              	.L158:
 2978              	.LBE20:
 583:nokia5110/LCD5110_Graph.c **** 			}
 584:nokia5110/LCD5110_Graph.c ****         }
 585:nokia5110/LCD5110_Graph.c **** 	}
 586:nokia5110/LCD5110_Graph.c **** 
 587:nokia5110/LCD5110_Graph.c **** }
 2979              		.loc 2 587 0 is_stmt 1
 2980 02b6 BD46     		mov	sp, r7
 2981 02b8 11B0     		add	sp, sp, #68
 2982              		@ sp needed
 2983 02ba F0BD     		pop	{r4, r5, r6, r7, pc}
 2984              	.L179:
 2985              		.align	2
 2986              	.L178:
 2987 02bc 0000E03F 		.word	1071644672
 2988              		.cfi_endproc
 2989              	.LFE87:
 2990              		.size	drawLine, .-drawLine
 2991              		.section	.text.clrLine,"ax",%progbits
 2992              		.align	2
 2993              		.global	clrLine
 2994              		.code	16
 2995              		.thumb_func
 2996              		.type	clrLine, %function
 2997              	clrLine:
 2998              	.LFB88:
 588:nokia5110/LCD5110_Graph.c **** 
 589:nokia5110/LCD5110_Graph.c **** void clrLine(int x1, int y1, int x2, int y2)
ARM GAS  C:\Users\Petro\AppData\Local\Temp\ccxzvnq1.s 			page 65


 590:nokia5110/LCD5110_Graph.c **** {
 2999              		.loc 2 590 0
 3000              		.cfi_startproc
 3001 0000 F0B5     		push	{r4, r5, r6, r7, lr}
 3002              		.cfi_def_cfa_offset 20
 3003              		.cfi_offset 4, -20
 3004              		.cfi_offset 5, -16
 3005              		.cfi_offset 6, -12
 3006              		.cfi_offset 7, -8
 3007              		.cfi_offset 14, -4
 3008 0002 91B0     		sub	sp, sp, #68
 3009              		.cfi_def_cfa_offset 88
 3010 0004 00AF     		add	r7, sp, #0
 3011              		.cfi_def_cfa_register 7
 3012 0006 F860     		str	r0, [r7, #12]
 3013 0008 B960     		str	r1, [r7, #8]
 3014 000a 7A60     		str	r2, [r7, #4]
 3015 000c 3B60     		str	r3, [r7]
 591:nokia5110/LCD5110_Graph.c **** 	int tmp;
 592:nokia5110/LCD5110_Graph.c **** 	double delta, tx, ty;
 593:nokia5110/LCD5110_Graph.c **** 	double m, b, dx, dy;
 594:nokia5110/LCD5110_Graph.c **** 	
 595:nokia5110/LCD5110_Graph.c **** 	if (((x2-x1)<0))
 3016              		.loc 2 595 0
 3017 000e 7A68     		ldr	r2, [r7, #4]
 3018 0010 FB68     		ldr	r3, [r7, #12]
 3019 0012 D31A     		sub	r3, r2, r3
 3020 0014 0BD5     		bpl	.L181
 596:nokia5110/LCD5110_Graph.c **** 	{
 597:nokia5110/LCD5110_Graph.c **** 		tmp=x1;
 3021              		.loc 2 597 0
 3022 0016 FB68     		ldr	r3, [r7, #12]
 3023 0018 FB61     		str	r3, [r7, #28]
 598:nokia5110/LCD5110_Graph.c **** 		x1=x2;
 3024              		.loc 2 598 0
 3025 001a 7B68     		ldr	r3, [r7, #4]
 3026 001c FB60     		str	r3, [r7, #12]
 599:nokia5110/LCD5110_Graph.c **** 		x2=tmp;
 3027              		.loc 2 599 0
 3028 001e FB69     		ldr	r3, [r7, #28]
 3029 0020 7B60     		str	r3, [r7, #4]
 600:nokia5110/LCD5110_Graph.c **** 		tmp=y1;
 3030              		.loc 2 600 0
 3031 0022 BB68     		ldr	r3, [r7, #8]
 3032 0024 FB61     		str	r3, [r7, #28]
 601:nokia5110/LCD5110_Graph.c **** 		y1=y2;
 3033              		.loc 2 601 0
 3034 0026 3B68     		ldr	r3, [r7]
 3035 0028 BB60     		str	r3, [r7, #8]
 602:nokia5110/LCD5110_Graph.c **** 		y2=tmp;
 3036              		.loc 2 602 0
 3037 002a FB69     		ldr	r3, [r7, #28]
 3038 002c 3B60     		str	r3, [r7]
 3039              	.L181:
 603:nokia5110/LCD5110_Graph.c **** 	}
 604:nokia5110/LCD5110_Graph.c ****     if (((y2-y1)<0))
 3040              		.loc 2 604 0
ARM GAS  C:\Users\Petro\AppData\Local\Temp\ccxzvnq1.s 			page 66


 3041 002e 3A68     		ldr	r2, [r7]
 3042 0030 BB68     		ldr	r3, [r7, #8]
 3043 0032 D31A     		sub	r3, r2, r3
 3044 0034 0BD5     		bpl	.L182
 605:nokia5110/LCD5110_Graph.c **** 	{
 606:nokia5110/LCD5110_Graph.c **** 		tmp=x1;
 3045              		.loc 2 606 0
 3046 0036 FB68     		ldr	r3, [r7, #12]
 3047 0038 FB61     		str	r3, [r7, #28]
 607:nokia5110/LCD5110_Graph.c **** 		x1=x2;
 3048              		.loc 2 607 0
 3049 003a 7B68     		ldr	r3, [r7, #4]
 3050 003c FB60     		str	r3, [r7, #12]
 608:nokia5110/LCD5110_Graph.c **** 		x2=tmp;
 3051              		.loc 2 608 0
 3052 003e FB69     		ldr	r3, [r7, #28]
 3053 0040 7B60     		str	r3, [r7, #4]
 609:nokia5110/LCD5110_Graph.c **** 		tmp=y1;
 3054              		.loc 2 609 0
 3055 0042 BB68     		ldr	r3, [r7, #8]
 3056 0044 FB61     		str	r3, [r7, #28]
 610:nokia5110/LCD5110_Graph.c **** 		y1=y2;
 3057              		.loc 2 610 0
 3058 0046 3B68     		ldr	r3, [r7]
 3059 0048 BB60     		str	r3, [r7, #8]
 611:nokia5110/LCD5110_Graph.c **** 		y2=tmp;
 3060              		.loc 2 611 0
 3061 004a FB69     		ldr	r3, [r7, #28]
 3062 004c 3B60     		str	r3, [r7]
 3063              	.L182:
 612:nokia5110/LCD5110_Graph.c **** 	}
 613:nokia5110/LCD5110_Graph.c **** 
 614:nokia5110/LCD5110_Graph.c **** 	if (y1==y2)
 3064              		.loc 2 614 0
 3065 004e BA68     		ldr	r2, [r7, #8]
 3066 0050 3B68     		ldr	r3, [r7]
 3067 0052 9A42     		cmp	r2, r3
 3068 0054 14D1     		bne	.L183
 615:nokia5110/LCD5110_Graph.c **** 	{
 616:nokia5110/LCD5110_Graph.c **** 		if (x1>x2)
 3069              		.loc 2 616 0
 3070 0056 FA68     		ldr	r2, [r7, #12]
 3071 0058 7B68     		ldr	r3, [r7, #4]
 3072 005a 9A42     		cmp	r2, r3
 3073 005c 05DD     		ble	.L184
 617:nokia5110/LCD5110_Graph.c **** 		{
 618:nokia5110/LCD5110_Graph.c **** 			tmp=x1;
 3074              		.loc 2 618 0
 3075 005e FB68     		ldr	r3, [r7, #12]
 3076 0060 FB61     		str	r3, [r7, #28]
 619:nokia5110/LCD5110_Graph.c **** 			x1=x2;
 3077              		.loc 2 619 0
 3078 0062 7B68     		ldr	r3, [r7, #4]
 3079 0064 FB60     		str	r3, [r7, #12]
 620:nokia5110/LCD5110_Graph.c **** 			x2=tmp;
 3080              		.loc 2 620 0
 3081 0066 FB69     		ldr	r3, [r7, #28]
ARM GAS  C:\Users\Petro\AppData\Local\Temp\ccxzvnq1.s 			page 67


 3082 0068 7B60     		str	r3, [r7, #4]
 3083              	.L184:
 621:nokia5110/LCD5110_Graph.c **** 		}
 622:nokia5110/LCD5110_Graph.c **** 		clrHLine(x1, y1, x2-x1);
 3084              		.loc 2 622 0
 3085 006a 7A68     		ldr	r2, [r7, #4]
 3086 006c FB68     		ldr	r3, [r7, #12]
 3087 006e D31A     		sub	r3, r2, r3
 3088 0070 F968     		ldr	r1, [r7, #12]
 3089 0072 BA68     		ldr	r2, [r7, #8]
 3090 0074 081C     		mov	r0, r1
 3091 0076 111C     		mov	r1, r2
 3092 0078 1A1C     		mov	r2, r3
 3093 007a FFF7FEFF 		bl	clrHLine
 3094 007e 1AE1     		b	.L180
 3095              	.L183:
 623:nokia5110/LCD5110_Graph.c **** 	}
 624:nokia5110/LCD5110_Graph.c **** 	else if (x1==x2)
 3096              		.loc 2 624 0
 3097 0080 FA68     		ldr	r2, [r7, #12]
 3098 0082 7B68     		ldr	r3, [r7, #4]
 3099 0084 9A42     		cmp	r2, r3
 3100 0086 14D1     		bne	.L186
 625:nokia5110/LCD5110_Graph.c **** 	{
 626:nokia5110/LCD5110_Graph.c **** 		if (y1>y2)
 3101              		.loc 2 626 0
 3102 0088 BA68     		ldr	r2, [r7, #8]
 3103 008a 3B68     		ldr	r3, [r7]
 3104 008c 9A42     		cmp	r2, r3
 3105 008e 05DD     		ble	.L187
 627:nokia5110/LCD5110_Graph.c **** 		{
 628:nokia5110/LCD5110_Graph.c **** 			tmp=y1;
 3106              		.loc 2 628 0
 3107 0090 BB68     		ldr	r3, [r7, #8]
 3108 0092 FB61     		str	r3, [r7, #28]
 629:nokia5110/LCD5110_Graph.c **** 			y1=y2;
 3109              		.loc 2 629 0
 3110 0094 3B68     		ldr	r3, [r7]
 3111 0096 BB60     		str	r3, [r7, #8]
 630:nokia5110/LCD5110_Graph.c **** 			y2=tmp;
 3112              		.loc 2 630 0
 3113 0098 FB69     		ldr	r3, [r7, #28]
 3114 009a 3B60     		str	r3, [r7]
 3115              	.L187:
 631:nokia5110/LCD5110_Graph.c **** 		}
 632:nokia5110/LCD5110_Graph.c **** 		clrVLine(x1, y1, y2-y1);
 3116              		.loc 2 632 0
 3117 009c 3A68     		ldr	r2, [r7]
 3118 009e BB68     		ldr	r3, [r7, #8]
 3119 00a0 D31A     		sub	r3, r2, r3
 3120 00a2 F968     		ldr	r1, [r7, #12]
 3121 00a4 BA68     		ldr	r2, [r7, #8]
 3122 00a6 081C     		mov	r0, r1
 3123 00a8 111C     		mov	r1, r2
 3124 00aa 1A1C     		mov	r2, r3
 3125 00ac FFF7FEFF 		bl	clrVLine
 3126 00b0 01E1     		b	.L180
ARM GAS  C:\Users\Petro\AppData\Local\Temp\ccxzvnq1.s 			page 68


 3127              	.L186:
 633:nokia5110/LCD5110_Graph.c **** 	}
 634:nokia5110/LCD5110_Graph.c **** 	else if (abs(x2-x1)>abs(y2-y1))
 3128              		.loc 2 634 0
 3129 00b2 7A68     		ldr	r2, [r7, #4]
 3130 00b4 FB68     		ldr	r3, [r7, #12]
 3131 00b6 D31A     		sub	r3, r2, r3
 3132 00b8 D917     		asr	r1, r3, #31
 3133 00ba 5A18     		add	r2, r3, r1
 3134 00bc 4A40     		eor	r2, r1
 3135 00be 3968     		ldr	r1, [r7]
 3136 00c0 BB68     		ldr	r3, [r7, #8]
 3137 00c2 CB1A     		sub	r3, r1, r3
 3138 00c4 D917     		asr	r1, r3, #31
 3139 00c6 5B18     		add	r3, r3, r1
 3140 00c8 4B40     		eor	r3, r1
 3141 00ca 9A42     		cmp	r2, r3
 3142 00cc 00DC     		bgt	.LCB2832
 3143 00ce 76E0     		b	.L188	@long jump
 3144              	.LCB2832:
 635:nokia5110/LCD5110_Graph.c **** 	{
 636:nokia5110/LCD5110_Graph.c **** 		delta=((double)(y2-y1))/((double)(x2-x1));
 3145              		.loc 2 636 0
 3146 00d0 3A68     		ldr	r2, [r7]
 3147 00d2 BB68     		ldr	r3, [r7, #8]
 3148 00d4 D31A     		sub	r3, r2, r3
 3149 00d6 181C     		mov	r0, r3
 3150 00d8 FFF7FEFF 		bl	__aeabi_i2d
 3151 00dc 051C     		mov	r5, r0
 3152 00de 0E1C     		mov	r6, r1
 3153 00e0 7A68     		ldr	r2, [r7, #4]
 3154 00e2 FB68     		ldr	r3, [r7, #12]
 3155 00e4 D31A     		sub	r3, r2, r3
 3156 00e6 181C     		mov	r0, r3
 3157 00e8 FFF7FEFF 		bl	__aeabi_i2d
 3158 00ec 031C     		mov	r3, r0
 3159 00ee 0C1C     		mov	r4, r1
 3160 00f0 281C     		mov	r0, r5
 3161 00f2 311C     		mov	r1, r6
 3162 00f4 1A1C     		mov	r2, r3
 3163 00f6 231C     		mov	r3, r4
 3164 00f8 FFF7FEFF 		bl	__aeabi_ddiv
 3165 00fc 031C     		mov	r3, r0
 3166 00fe 0C1C     		mov	r4, r1
 3167 0100 3B61     		str	r3, [r7, #16]
 3168 0102 7C61     		str	r4, [r7, #20]
 637:nokia5110/LCD5110_Graph.c **** 		ty=(double)(y1);
 3169              		.loc 2 637 0
 3170 0104 B868     		ldr	r0, [r7, #8]
 3171 0106 FFF7FEFF 		bl	__aeabi_i2d
 3172 010a 031C     		mov	r3, r0
 3173 010c 0C1C     		mov	r4, r1
 3174 010e 3B63     		str	r3, [r7, #48]
 3175 0110 7C63     		str	r4, [r7, #52]
 638:nokia5110/LCD5110_Graph.c **** 		if (x1>x2)
 3176              		.loc 2 638 0
 3177 0112 FA68     		ldr	r2, [r7, #12]
ARM GAS  C:\Users\Petro\AppData\Local\Temp\ccxzvnq1.s 			page 69


 3178 0114 7B68     		ldr	r3, [r7, #4]
 3179 0116 9A42     		cmp	r2, r3
 3180 0118 28DD     		ble	.L189
 3181              	.LBB21:
 639:nokia5110/LCD5110_Graph.c **** 		{
 640:nokia5110/LCD5110_Graph.c ****             int i;
 641:nokia5110/LCD5110_Graph.c **** 			for ( i=x1; i>=x2; i--)
 3182              		.loc 2 641 0
 3183 011a FB68     		ldr	r3, [r7, #12]
 3184 011c FB62     		str	r3, [r7, #44]
 3185 011e 20E0     		b	.L190
 3186              	.L191:
 642:nokia5110/LCD5110_Graph.c **** 			{
 643:nokia5110/LCD5110_Graph.c **** 				clrPixel(i, (int)(ty+0.5));
 3187              		.loc 2 643 0 discriminator 3
 3188 0120 FB6A     		ldr	r3, [r7, #44]
 3189 0122 9CB2     		uxth	r4, r3
 3190 0124 386B     		ldr	r0, [r7, #48]
 3191 0126 796B     		ldr	r1, [r7, #52]
 3192 0128 0022     		mov	r2, #0
 3193 012a 644B     		ldr	r3, .L200
 3194 012c FFF7FEFF 		bl	__aeabi_dadd
 3195 0130 021C     		mov	r2, r0
 3196 0132 0B1C     		mov	r3, r1
 3197 0134 101C     		mov	r0, r2
 3198 0136 191C     		mov	r1, r3
 3199 0138 FFF7FEFF 		bl	__aeabi_d2iz
 3200 013c 031C     		mov	r3, r0
 3201 013e 9BB2     		uxth	r3, r3
 3202 0140 201C     		mov	r0, r4
 3203 0142 191C     		mov	r1, r3
 3204 0144 FFF7FEFF 		bl	clrPixel
 644:nokia5110/LCD5110_Graph.c ****         		ty=ty-delta;
 3205              		.loc 2 644 0 discriminator 3
 3206 0148 386B     		ldr	r0, [r7, #48]
 3207 014a 796B     		ldr	r1, [r7, #52]
 3208 014c 3A69     		ldr	r2, [r7, #16]
 3209 014e 7B69     		ldr	r3, [r7, #20]
 3210 0150 FFF7FEFF 		bl	__aeabi_dsub
 3211 0154 031C     		mov	r3, r0
 3212 0156 0C1C     		mov	r4, r1
 3213 0158 3B63     		str	r3, [r7, #48]
 3214 015a 7C63     		str	r4, [r7, #52]
 641:nokia5110/LCD5110_Graph.c **** 			{
 3215              		.loc 2 641 0 discriminator 3
 3216 015c FB6A     		ldr	r3, [r7, #44]
 3217 015e 013B     		sub	r3, r3, #1
 3218 0160 FB62     		str	r3, [r7, #44]
 3219              	.L190:
 641:nokia5110/LCD5110_Graph.c **** 			{
 3220              		.loc 2 641 0 is_stmt 0 discriminator 1
 3221 0162 FA6A     		ldr	r2, [r7, #44]
 3222 0164 7B68     		ldr	r3, [r7, #4]
 3223 0166 9A42     		cmp	r2, r3
 3224 0168 DADA     		bge	.L191
 3225              	.LBE21:
 3226 016a A4E0     		b	.L180
ARM GAS  C:\Users\Petro\AppData\Local\Temp\ccxzvnq1.s 			page 70


 3227              	.L189:
 3228              	.LBB22:
 645:nokia5110/LCD5110_Graph.c **** 			}
 646:nokia5110/LCD5110_Graph.c **** 		}
 647:nokia5110/LCD5110_Graph.c **** 		else
 648:nokia5110/LCD5110_Graph.c **** 		{
 649:nokia5110/LCD5110_Graph.c ****             int i;
 650:nokia5110/LCD5110_Graph.c **** 			for (i=x1; i<=x2; i++)
 3229              		.loc 2 650 0 is_stmt 1
 3230 016c FB68     		ldr	r3, [r7, #12]
 3231 016e BB62     		str	r3, [r7, #40]
 3232 0170 20E0     		b	.L193
 3233              	.L194:
 651:nokia5110/LCD5110_Graph.c **** 			{
 652:nokia5110/LCD5110_Graph.c **** 				clrPixel(i, (int)(ty+0.5));
 3234              		.loc 2 652 0 discriminator 3
 3235 0172 BB6A     		ldr	r3, [r7, #40]
 3236 0174 9CB2     		uxth	r4, r3
 3237 0176 386B     		ldr	r0, [r7, #48]
 3238 0178 796B     		ldr	r1, [r7, #52]
 3239 017a 0022     		mov	r2, #0
 3240 017c 4F4B     		ldr	r3, .L200
 3241 017e FFF7FEFF 		bl	__aeabi_dadd
 3242 0182 021C     		mov	r2, r0
 3243 0184 0B1C     		mov	r3, r1
 3244 0186 101C     		mov	r0, r2
 3245 0188 191C     		mov	r1, r3
 3246 018a FFF7FEFF 		bl	__aeabi_d2iz
 3247 018e 031C     		mov	r3, r0
 3248 0190 9BB2     		uxth	r3, r3
 3249 0192 201C     		mov	r0, r4
 3250 0194 191C     		mov	r1, r3
 3251 0196 FFF7FEFF 		bl	clrPixel
 653:nokia5110/LCD5110_Graph.c ****         		ty=ty+delta;
 3252              		.loc 2 653 0 discriminator 3
 3253 019a 386B     		ldr	r0, [r7, #48]
 3254 019c 796B     		ldr	r1, [r7, #52]
 3255 019e 3A69     		ldr	r2, [r7, #16]
 3256 01a0 7B69     		ldr	r3, [r7, #20]
 3257 01a2 FFF7FEFF 		bl	__aeabi_dadd
 3258 01a6 031C     		mov	r3, r0
 3259 01a8 0C1C     		mov	r4, r1
 3260 01aa 3B63     		str	r3, [r7, #48]
 3261 01ac 7C63     		str	r4, [r7, #52]
 650:nokia5110/LCD5110_Graph.c **** 			{
 3262              		.loc 2 650 0 discriminator 3
 3263 01ae BB6A     		ldr	r3, [r7, #40]
 3264 01b0 0133     		add	r3, r3, #1
 3265 01b2 BB62     		str	r3, [r7, #40]
 3266              	.L193:
 650:nokia5110/LCD5110_Graph.c **** 			{
 3267              		.loc 2 650 0 is_stmt 0 discriminator 1
 3268 01b4 BA6A     		ldr	r2, [r7, #40]
 3269 01b6 7B68     		ldr	r3, [r7, #4]
 3270 01b8 9A42     		cmp	r2, r3
 3271 01ba DADD     		ble	.L194
 3272              	.LBE22:
ARM GAS  C:\Users\Petro\AppData\Local\Temp\ccxzvnq1.s 			page 71


 3273 01bc 7BE0     		b	.L180
 3274              	.L188:
 654:nokia5110/LCD5110_Graph.c **** 			}
 655:nokia5110/LCD5110_Graph.c **** 		}
 656:nokia5110/LCD5110_Graph.c **** 	}
 657:nokia5110/LCD5110_Graph.c **** 	else
 658:nokia5110/LCD5110_Graph.c **** 	{
 659:nokia5110/LCD5110_Graph.c **** 		delta=((float)(x2-x1)/(float)(y2-y1));
 3275              		.loc 2 659 0 is_stmt 1
 3276 01be 7A68     		ldr	r2, [r7, #4]
 3277 01c0 FB68     		ldr	r3, [r7, #12]
 3278 01c2 D31A     		sub	r3, r2, r3
 3279 01c4 181C     		mov	r0, r3
 3280 01c6 FFF7FEFF 		bl	__aeabi_i2f
 3281 01ca 041C     		add	r4, r0, #0
 3282 01cc 3A68     		ldr	r2, [r7]
 3283 01ce BB68     		ldr	r3, [r7, #8]
 3284 01d0 D31A     		sub	r3, r2, r3
 3285 01d2 181C     		mov	r0, r3
 3286 01d4 FFF7FEFF 		bl	__aeabi_i2f
 3287 01d8 031C     		add	r3, r0, #0
 3288 01da 201C     		add	r0, r4, #0
 3289 01dc 191C     		add	r1, r3, #0
 3290 01de FFF7FEFF 		bl	__aeabi_fdiv
 3291 01e2 031C     		add	r3, r0, #0
 3292 01e4 181C     		add	r0, r3, #0
 3293 01e6 FFF7FEFF 		bl	__aeabi_f2d
 3294 01ea 031C     		mov	r3, r0
 3295 01ec 0C1C     		mov	r4, r1
 3296 01ee 3B61     		str	r3, [r7, #16]
 3297 01f0 7C61     		str	r4, [r7, #20]
 660:nokia5110/LCD5110_Graph.c **** 		tx=(float)(x1);
 3298              		.loc 2 660 0
 3299 01f2 F868     		ldr	r0, [r7, #12]
 3300 01f4 FFF7FEFF 		bl	__aeabi_i2f
 3301 01f8 031C     		add	r3, r0, #0
 3302 01fa 181C     		add	r0, r3, #0
 3303 01fc FFF7FEFF 		bl	__aeabi_f2d
 3304 0200 031C     		mov	r3, r0
 3305 0202 0C1C     		mov	r4, r1
 3306 0204 BB63     		str	r3, [r7, #56]
 3307 0206 FC63     		str	r4, [r7, #60]
 661:nokia5110/LCD5110_Graph.c ****         if (y1>y2)
 3308              		.loc 2 661 0
 3309 0208 BA68     		ldr	r2, [r7, #8]
 3310 020a 3B68     		ldr	r3, [r7]
 3311 020c 9A42     		cmp	r2, r3
 3312 020e 29DD     		ble	.L195
 3313              	.LBB23:
 662:nokia5110/LCD5110_Graph.c ****         {
 663:nokia5110/LCD5110_Graph.c ****             int i;
 664:nokia5110/LCD5110_Graph.c **** 			for (i=y2+1; i>y1; i--)
 3314              		.loc 2 664 0
 3315 0210 3B68     		ldr	r3, [r7]
 3316 0212 0133     		add	r3, r3, #1
 3317 0214 7B62     		str	r3, [r7, #36]
 3318 0216 20E0     		b	.L196
ARM GAS  C:\Users\Petro\AppData\Local\Temp\ccxzvnq1.s 			page 72


 3319              	.L197:
 665:nokia5110/LCD5110_Graph.c **** 			{
 666:nokia5110/LCD5110_Graph.c **** 		 		clrPixel((int)(tx+0.5), i);
 3320              		.loc 2 666 0 discriminator 3
 3321 0218 B86B     		ldr	r0, [r7, #56]
 3322 021a F96B     		ldr	r1, [r7, #60]
 3323 021c 0022     		mov	r2, #0
 3324 021e 274B     		ldr	r3, .L200
 3325 0220 FFF7FEFF 		bl	__aeabi_dadd
 3326 0224 031C     		mov	r3, r0
 3327 0226 0C1C     		mov	r4, r1
 3328 0228 181C     		mov	r0, r3
 3329 022a 211C     		mov	r1, r4
 3330 022c FFF7FEFF 		bl	__aeabi_d2iz
 3331 0230 031C     		mov	r3, r0
 3332 0232 9AB2     		uxth	r2, r3
 3333 0234 7B6A     		ldr	r3, [r7, #36]
 3334 0236 9BB2     		uxth	r3, r3
 3335 0238 101C     		mov	r0, r2
 3336 023a 191C     		mov	r1, r3
 3337 023c FFF7FEFF 		bl	clrPixel
 667:nokia5110/LCD5110_Graph.c ****         		tx=tx+delta;
 3338              		.loc 2 667 0 discriminator 3
 3339 0240 B86B     		ldr	r0, [r7, #56]
 3340 0242 F96B     		ldr	r1, [r7, #60]
 3341 0244 3A69     		ldr	r2, [r7, #16]
 3342 0246 7B69     		ldr	r3, [r7, #20]
 3343 0248 FFF7FEFF 		bl	__aeabi_dadd
 3344 024c 031C     		mov	r3, r0
 3345 024e 0C1C     		mov	r4, r1
 3346 0250 BB63     		str	r3, [r7, #56]
 3347 0252 FC63     		str	r4, [r7, #60]
 664:nokia5110/LCD5110_Graph.c **** 			{
 3348              		.loc 2 664 0 discriminator 3
 3349 0254 7B6A     		ldr	r3, [r7, #36]
 3350 0256 013B     		sub	r3, r3, #1
 3351 0258 7B62     		str	r3, [r7, #36]
 3352              	.L196:
 664:nokia5110/LCD5110_Graph.c **** 			{
 3353              		.loc 2 664 0 is_stmt 0 discriminator 1
 3354 025a 7A6A     		ldr	r2, [r7, #36]
 3355 025c BB68     		ldr	r3, [r7, #8]
 3356 025e 9A42     		cmp	r2, r3
 3357 0260 DADC     		bgt	.L197
 3358              	.LBE23:
 3359 0262 28E0     		b	.L180
 3360              	.L195:
 3361              	.LBB24:
 668:nokia5110/LCD5110_Graph.c **** 			}
 669:nokia5110/LCD5110_Graph.c ****         }
 670:nokia5110/LCD5110_Graph.c ****         else
 671:nokia5110/LCD5110_Graph.c ****         {
 672:nokia5110/LCD5110_Graph.c ****             int i;
 673:nokia5110/LCD5110_Graph.c **** 			for (i=y1; i<y2+1; i++)
 3362              		.loc 2 673 0 is_stmt 1
 3363 0264 BB68     		ldr	r3, [r7, #8]
 3364 0266 3B62     		str	r3, [r7, #32]
ARM GAS  C:\Users\Petro\AppData\Local\Temp\ccxzvnq1.s 			page 73


 3365 0268 20E0     		b	.L198
 3366              	.L199:
 674:nokia5110/LCD5110_Graph.c **** 			{
 675:nokia5110/LCD5110_Graph.c **** 		 		clrPixel((int)(tx+0.5), i);
 3367              		.loc 2 675 0 discriminator 3
 3368 026a B86B     		ldr	r0, [r7, #56]
 3369 026c F96B     		ldr	r1, [r7, #60]
 3370 026e 0022     		mov	r2, #0
 3371 0270 124B     		ldr	r3, .L200
 3372 0272 FFF7FEFF 		bl	__aeabi_dadd
 3373 0276 031C     		mov	r3, r0
 3374 0278 0C1C     		mov	r4, r1
 3375 027a 181C     		mov	r0, r3
 3376 027c 211C     		mov	r1, r4
 3377 027e FFF7FEFF 		bl	__aeabi_d2iz
 3378 0282 031C     		mov	r3, r0
 3379 0284 9AB2     		uxth	r2, r3
 3380 0286 3B6A     		ldr	r3, [r7, #32]
 3381 0288 9BB2     		uxth	r3, r3
 3382 028a 101C     		mov	r0, r2
 3383 028c 191C     		mov	r1, r3
 3384 028e FFF7FEFF 		bl	clrPixel
 676:nokia5110/LCD5110_Graph.c ****         		tx=tx+delta;
 3385              		.loc 2 676 0 discriminator 3
 3386 0292 B86B     		ldr	r0, [r7, #56]
 3387 0294 F96B     		ldr	r1, [r7, #60]
 3388 0296 3A69     		ldr	r2, [r7, #16]
 3389 0298 7B69     		ldr	r3, [r7, #20]
 3390 029a FFF7FEFF 		bl	__aeabi_dadd
 3391 029e 031C     		mov	r3, r0
 3392 02a0 0C1C     		mov	r4, r1
 3393 02a2 BB63     		str	r3, [r7, #56]
 3394 02a4 FC63     		str	r4, [r7, #60]
 673:nokia5110/LCD5110_Graph.c **** 			{
 3395              		.loc 2 673 0 discriminator 3
 3396 02a6 3B6A     		ldr	r3, [r7, #32]
 3397 02a8 0133     		add	r3, r3, #1
 3398 02aa 3B62     		str	r3, [r7, #32]
 3399              	.L198:
 673:nokia5110/LCD5110_Graph.c **** 			{
 3400              		.loc 2 673 0 is_stmt 0 discriminator 1
 3401 02ac 3B68     		ldr	r3, [r7]
 3402 02ae 5A1C     		add	r2, r3, #1
 3403 02b0 3B6A     		ldr	r3, [r7, #32]
 3404 02b2 9A42     		cmp	r2, r3
 3405 02b4 D9DC     		bgt	.L199
 3406              	.L180:
 3407              	.LBE24:
 677:nokia5110/LCD5110_Graph.c **** 			}
 678:nokia5110/LCD5110_Graph.c ****         }
 679:nokia5110/LCD5110_Graph.c **** 	}
 680:nokia5110/LCD5110_Graph.c **** 
 681:nokia5110/LCD5110_Graph.c **** }
 3408              		.loc 2 681 0 is_stmt 1
 3409 02b6 BD46     		mov	sp, r7
 3410 02b8 11B0     		add	sp, sp, #68
 3411              		@ sp needed
ARM GAS  C:\Users\Petro\AppData\Local\Temp\ccxzvnq1.s 			page 74


 3412 02ba F0BD     		pop	{r4, r5, r6, r7, pc}
 3413              	.L201:
 3414              		.align	2
 3415              	.L200:
 3416 02bc 0000E03F 		.word	1071644672
 3417              		.cfi_endproc
 3418              	.LFE88:
 3419              		.size	clrLine, .-clrLine
 3420              		.section	.text.drawRect,"ax",%progbits
 3421              		.align	2
 3422              		.global	drawRect
 3423              		.code	16
 3424              		.thumb_func
 3425              		.type	drawRect, %function
 3426              	drawRect:
 3427              	.LFB89:
 682:nokia5110/LCD5110_Graph.c **** 
 683:nokia5110/LCD5110_Graph.c **** void drawRect(int x1, int y1, int x2, int y2)
 684:nokia5110/LCD5110_Graph.c **** {
 3428              		.loc 2 684 0
 3429              		.cfi_startproc
 3430 0000 80B5     		push	{r7, lr}
 3431              		.cfi_def_cfa_offset 8
 3432              		.cfi_offset 7, -8
 3433              		.cfi_offset 14, -4
 3434 0002 86B0     		sub	sp, sp, #24
 3435              		.cfi_def_cfa_offset 32
 3436 0004 00AF     		add	r7, sp, #0
 3437              		.cfi_def_cfa_register 7
 3438 0006 F860     		str	r0, [r7, #12]
 3439 0008 B960     		str	r1, [r7, #8]
 3440 000a 7A60     		str	r2, [r7, #4]
 3441 000c 3B60     		str	r3, [r7]
 685:nokia5110/LCD5110_Graph.c **** 	int tmp;
 686:nokia5110/LCD5110_Graph.c **** 
 687:nokia5110/LCD5110_Graph.c **** 	if (x1>x2)
 3442              		.loc 2 687 0
 3443 000e FA68     		ldr	r2, [r7, #12]
 3444 0010 7B68     		ldr	r3, [r7, #4]
 3445 0012 9A42     		cmp	r2, r3
 3446 0014 05DD     		ble	.L203
 688:nokia5110/LCD5110_Graph.c **** 	{
 689:nokia5110/LCD5110_Graph.c **** 		tmp=x1;
 3447              		.loc 2 689 0
 3448 0016 FB68     		ldr	r3, [r7, #12]
 3449 0018 7B61     		str	r3, [r7, #20]
 690:nokia5110/LCD5110_Graph.c **** 		x1=x2;
 3450              		.loc 2 690 0
 3451 001a 7B68     		ldr	r3, [r7, #4]
 3452 001c FB60     		str	r3, [r7, #12]
 691:nokia5110/LCD5110_Graph.c **** 		x2=tmp;
 3453              		.loc 2 691 0
 3454 001e 7B69     		ldr	r3, [r7, #20]
 3455 0020 7B60     		str	r3, [r7, #4]
 3456              	.L203:
 692:nokia5110/LCD5110_Graph.c **** 	}
 693:nokia5110/LCD5110_Graph.c **** 	if (y1>y2)
ARM GAS  C:\Users\Petro\AppData\Local\Temp\ccxzvnq1.s 			page 75


 3457              		.loc 2 693 0
 3458 0022 BA68     		ldr	r2, [r7, #8]
 3459 0024 3B68     		ldr	r3, [r7]
 3460 0026 9A42     		cmp	r2, r3
 3461 0028 05DD     		ble	.L204
 694:nokia5110/LCD5110_Graph.c **** 	{
 695:nokia5110/LCD5110_Graph.c **** 		tmp=y1;
 3462              		.loc 2 695 0
 3463 002a BB68     		ldr	r3, [r7, #8]
 3464 002c 7B61     		str	r3, [r7, #20]
 696:nokia5110/LCD5110_Graph.c **** 		y1=y2;
 3465              		.loc 2 696 0
 3466 002e 3B68     		ldr	r3, [r7]
 3467 0030 BB60     		str	r3, [r7, #8]
 697:nokia5110/LCD5110_Graph.c **** 		y2=tmp;
 3468              		.loc 2 697 0
 3469 0032 7B69     		ldr	r3, [r7, #20]
 3470 0034 3B60     		str	r3, [r7]
 3471              	.L204:
 698:nokia5110/LCD5110_Graph.c **** 	}
 699:nokia5110/LCD5110_Graph.c **** 
 700:nokia5110/LCD5110_Graph.c **** 	drawHLine(x1, y1, x2-x1);
 3472              		.loc 2 700 0
 3473 0036 7A68     		ldr	r2, [r7, #4]
 3474 0038 FB68     		ldr	r3, [r7, #12]
 3475 003a D31A     		sub	r3, r2, r3
 3476 003c F968     		ldr	r1, [r7, #12]
 3477 003e BA68     		ldr	r2, [r7, #8]
 3478 0040 081C     		mov	r0, r1
 3479 0042 111C     		mov	r1, r2
 3480 0044 1A1C     		mov	r2, r3
 3481 0046 FFF7FEFF 		bl	drawHLine
 701:nokia5110/LCD5110_Graph.c **** 	drawHLine(x1, y2, x2-x1);
 3482              		.loc 2 701 0
 3483 004a 7A68     		ldr	r2, [r7, #4]
 3484 004c FB68     		ldr	r3, [r7, #12]
 3485 004e D31A     		sub	r3, r2, r3
 3486 0050 F968     		ldr	r1, [r7, #12]
 3487 0052 3A68     		ldr	r2, [r7]
 3488 0054 081C     		mov	r0, r1
 3489 0056 111C     		mov	r1, r2
 3490 0058 1A1C     		mov	r2, r3
 3491 005a FFF7FEFF 		bl	drawHLine
 702:nokia5110/LCD5110_Graph.c **** 	drawVLine(x1, y1, y2-y1);
 3492              		.loc 2 702 0
 3493 005e 3A68     		ldr	r2, [r7]
 3494 0060 BB68     		ldr	r3, [r7, #8]
 3495 0062 D31A     		sub	r3, r2, r3
 3496 0064 F968     		ldr	r1, [r7, #12]
 3497 0066 BA68     		ldr	r2, [r7, #8]
 3498 0068 081C     		mov	r0, r1
 3499 006a 111C     		mov	r1, r2
 3500 006c 1A1C     		mov	r2, r3
 3501 006e FFF7FEFF 		bl	drawVLine
 703:nokia5110/LCD5110_Graph.c **** 	drawVLine(x2, y1, y2-y1+1);
 3502              		.loc 2 703 0
 3503 0072 3A68     		ldr	r2, [r7]
ARM GAS  C:\Users\Petro\AppData\Local\Temp\ccxzvnq1.s 			page 76


 3504 0074 BB68     		ldr	r3, [r7, #8]
 3505 0076 D31A     		sub	r3, r2, r3
 3506 0078 0133     		add	r3, r3, #1
 3507 007a 7968     		ldr	r1, [r7, #4]
 3508 007c BA68     		ldr	r2, [r7, #8]
 3509 007e 081C     		mov	r0, r1
 3510 0080 111C     		mov	r1, r2
 3511 0082 1A1C     		mov	r2, r3
 3512 0084 FFF7FEFF 		bl	drawVLine
 704:nokia5110/LCD5110_Graph.c **** }
 3513              		.loc 2 704 0
 3514 0088 BD46     		mov	sp, r7
 3515 008a 06B0     		add	sp, sp, #24
 3516              		@ sp needed
 3517 008c 80BD     		pop	{r7, pc}
 3518              		.cfi_endproc
 3519              	.LFE89:
 3520              		.size	drawRect, .-drawRect
 3521              		.section	.text.clrRect,"ax",%progbits
 3522              		.align	2
 3523              		.global	clrRect
 3524              		.code	16
 3525              		.thumb_func
 3526              		.type	clrRect, %function
 3527              	clrRect:
 3528              	.LFB90:
 705:nokia5110/LCD5110_Graph.c **** 
 706:nokia5110/LCD5110_Graph.c **** void clrRect(int x1, int y1, int x2, int y2)
 707:nokia5110/LCD5110_Graph.c **** {
 3529              		.loc 2 707 0
 3530              		.cfi_startproc
 3531 0000 80B5     		push	{r7, lr}
 3532              		.cfi_def_cfa_offset 8
 3533              		.cfi_offset 7, -8
 3534              		.cfi_offset 14, -4
 3535 0002 86B0     		sub	sp, sp, #24
 3536              		.cfi_def_cfa_offset 32
 3537 0004 00AF     		add	r7, sp, #0
 3538              		.cfi_def_cfa_register 7
 3539 0006 F860     		str	r0, [r7, #12]
 3540 0008 B960     		str	r1, [r7, #8]
 3541 000a 7A60     		str	r2, [r7, #4]
 3542 000c 3B60     		str	r3, [r7]
 708:nokia5110/LCD5110_Graph.c **** 	int tmp;
 709:nokia5110/LCD5110_Graph.c **** 
 710:nokia5110/LCD5110_Graph.c **** 	if (x1>x2)
 3543              		.loc 2 710 0
 3544 000e FA68     		ldr	r2, [r7, #12]
 3545 0010 7B68     		ldr	r3, [r7, #4]
 3546 0012 9A42     		cmp	r2, r3
 3547 0014 05DD     		ble	.L206
 711:nokia5110/LCD5110_Graph.c **** 	{
 712:nokia5110/LCD5110_Graph.c **** 		tmp=x1;
 3548              		.loc 2 712 0
 3549 0016 FB68     		ldr	r3, [r7, #12]
 3550 0018 7B61     		str	r3, [r7, #20]
 713:nokia5110/LCD5110_Graph.c **** 		x1=x2;
ARM GAS  C:\Users\Petro\AppData\Local\Temp\ccxzvnq1.s 			page 77


 3551              		.loc 2 713 0
 3552 001a 7B68     		ldr	r3, [r7, #4]
 3553 001c FB60     		str	r3, [r7, #12]
 714:nokia5110/LCD5110_Graph.c **** 		x2=tmp;
 3554              		.loc 2 714 0
 3555 001e 7B69     		ldr	r3, [r7, #20]
 3556 0020 7B60     		str	r3, [r7, #4]
 3557              	.L206:
 715:nokia5110/LCD5110_Graph.c **** 	}
 716:nokia5110/LCD5110_Graph.c **** 	if (y1>y2)
 3558              		.loc 2 716 0
 3559 0022 BA68     		ldr	r2, [r7, #8]
 3560 0024 3B68     		ldr	r3, [r7]
 3561 0026 9A42     		cmp	r2, r3
 3562 0028 05DD     		ble	.L207
 717:nokia5110/LCD5110_Graph.c **** 	{
 718:nokia5110/LCD5110_Graph.c **** 		tmp=y1;
 3563              		.loc 2 718 0
 3564 002a BB68     		ldr	r3, [r7, #8]
 3565 002c 7B61     		str	r3, [r7, #20]
 719:nokia5110/LCD5110_Graph.c **** 		y1=y2;
 3566              		.loc 2 719 0
 3567 002e 3B68     		ldr	r3, [r7]
 3568 0030 BB60     		str	r3, [r7, #8]
 720:nokia5110/LCD5110_Graph.c **** 		y2=tmp;
 3569              		.loc 2 720 0
 3570 0032 7B69     		ldr	r3, [r7, #20]
 3571 0034 3B60     		str	r3, [r7]
 3572              	.L207:
 721:nokia5110/LCD5110_Graph.c **** 	}
 722:nokia5110/LCD5110_Graph.c **** 
 723:nokia5110/LCD5110_Graph.c **** 	clrHLine(x1, y1, x2-x1);
 3573              		.loc 2 723 0
 3574 0036 7A68     		ldr	r2, [r7, #4]
 3575 0038 FB68     		ldr	r3, [r7, #12]
 3576 003a D31A     		sub	r3, r2, r3
 3577 003c F968     		ldr	r1, [r7, #12]
 3578 003e BA68     		ldr	r2, [r7, #8]
 3579 0040 081C     		mov	r0, r1
 3580 0042 111C     		mov	r1, r2
 3581 0044 1A1C     		mov	r2, r3
 3582 0046 FFF7FEFF 		bl	clrHLine
 724:nokia5110/LCD5110_Graph.c **** 	clrHLine(x1, y2, x2-x1);
 3583              		.loc 2 724 0
 3584 004a 7A68     		ldr	r2, [r7, #4]
 3585 004c FB68     		ldr	r3, [r7, #12]
 3586 004e D31A     		sub	r3, r2, r3
 3587 0050 F968     		ldr	r1, [r7, #12]
 3588 0052 3A68     		ldr	r2, [r7]
 3589 0054 081C     		mov	r0, r1
 3590 0056 111C     		mov	r1, r2
 3591 0058 1A1C     		mov	r2, r3
 3592 005a FFF7FEFF 		bl	clrHLine
 725:nokia5110/LCD5110_Graph.c **** 	clrVLine(x1, y1, y2-y1);
 3593              		.loc 2 725 0
 3594 005e 3A68     		ldr	r2, [r7]
 3595 0060 BB68     		ldr	r3, [r7, #8]
ARM GAS  C:\Users\Petro\AppData\Local\Temp\ccxzvnq1.s 			page 78


 3596 0062 D31A     		sub	r3, r2, r3
 3597 0064 F968     		ldr	r1, [r7, #12]
 3598 0066 BA68     		ldr	r2, [r7, #8]
 3599 0068 081C     		mov	r0, r1
 3600 006a 111C     		mov	r1, r2
 3601 006c 1A1C     		mov	r2, r3
 3602 006e FFF7FEFF 		bl	clrVLine
 726:nokia5110/LCD5110_Graph.c **** 	clrVLine(x2, y1, y2-y1+1);
 3603              		.loc 2 726 0
 3604 0072 3A68     		ldr	r2, [r7]
 3605 0074 BB68     		ldr	r3, [r7, #8]
 3606 0076 D31A     		sub	r3, r2, r3
 3607 0078 0133     		add	r3, r3, #1
 3608 007a 7968     		ldr	r1, [r7, #4]
 3609 007c BA68     		ldr	r2, [r7, #8]
 3610 007e 081C     		mov	r0, r1
 3611 0080 111C     		mov	r1, r2
 3612 0082 1A1C     		mov	r2, r3
 3613 0084 FFF7FEFF 		bl	clrVLine
 727:nokia5110/LCD5110_Graph.c **** }
 3614              		.loc 2 727 0
 3615 0088 BD46     		mov	sp, r7
 3616 008a 06B0     		add	sp, sp, #24
 3617              		@ sp needed
 3618 008c 80BD     		pop	{r7, pc}
 3619              		.cfi_endproc
 3620              	.LFE90:
 3621              		.size	clrRect, .-clrRect
 3622              		.section	.text.drawRoundRect,"ax",%progbits
 3623              		.align	2
 3624              		.global	drawRoundRect
 3625              		.code	16
 3626              		.thumb_func
 3627              		.type	drawRoundRect, %function
 3628              	drawRoundRect:
 3629              	.LFB91:
 728:nokia5110/LCD5110_Graph.c **** 
 729:nokia5110/LCD5110_Graph.c **** void drawRoundRect(int x1, int y1, int x2, int y2)
 730:nokia5110/LCD5110_Graph.c **** {
 3630              		.loc 2 730 0
 3631              		.cfi_startproc
 3632 0000 80B5     		push	{r7, lr}
 3633              		.cfi_def_cfa_offset 8
 3634              		.cfi_offset 7, -8
 3635              		.cfi_offset 14, -4
 3636 0002 86B0     		sub	sp, sp, #24
 3637              		.cfi_def_cfa_offset 32
 3638 0004 00AF     		add	r7, sp, #0
 3639              		.cfi_def_cfa_register 7
 3640 0006 F860     		str	r0, [r7, #12]
 3641 0008 B960     		str	r1, [r7, #8]
 3642 000a 7A60     		str	r2, [r7, #4]
 3643 000c 3B60     		str	r3, [r7]
 731:nokia5110/LCD5110_Graph.c **** 	int tmp;
 732:nokia5110/LCD5110_Graph.c **** 
 733:nokia5110/LCD5110_Graph.c **** 	if (x1>x2)
 3644              		.loc 2 733 0
ARM GAS  C:\Users\Petro\AppData\Local\Temp\ccxzvnq1.s 			page 79


 3645 000e FA68     		ldr	r2, [r7, #12]
 3646 0010 7B68     		ldr	r3, [r7, #4]
 3647 0012 9A42     		cmp	r2, r3
 3648 0014 05DD     		ble	.L209
 734:nokia5110/LCD5110_Graph.c **** 	{
 735:nokia5110/LCD5110_Graph.c **** 		tmp=x1;
 3649              		.loc 2 735 0
 3650 0016 FB68     		ldr	r3, [r7, #12]
 3651 0018 7B61     		str	r3, [r7, #20]
 736:nokia5110/LCD5110_Graph.c **** 		x1=x2;
 3652              		.loc 2 736 0
 3653 001a 7B68     		ldr	r3, [r7, #4]
 3654 001c FB60     		str	r3, [r7, #12]
 737:nokia5110/LCD5110_Graph.c **** 		x2=tmp;
 3655              		.loc 2 737 0
 3656 001e 7B69     		ldr	r3, [r7, #20]
 3657 0020 7B60     		str	r3, [r7, #4]
 3658              	.L209:
 738:nokia5110/LCD5110_Graph.c **** 	}
 739:nokia5110/LCD5110_Graph.c **** 	if (y1>y2)
 3659              		.loc 2 739 0
 3660 0022 BA68     		ldr	r2, [r7, #8]
 3661 0024 3B68     		ldr	r3, [r7]
 3662 0026 9A42     		cmp	r2, r3
 3663 0028 05DD     		ble	.L210
 740:nokia5110/LCD5110_Graph.c **** 	{
 741:nokia5110/LCD5110_Graph.c **** 		tmp=y1;
 3664              		.loc 2 741 0
 3665 002a BB68     		ldr	r3, [r7, #8]
 3666 002c 7B61     		str	r3, [r7, #20]
 742:nokia5110/LCD5110_Graph.c **** 		y1=y2;
 3667              		.loc 2 742 0
 3668 002e 3B68     		ldr	r3, [r7]
 3669 0030 BB60     		str	r3, [r7, #8]
 743:nokia5110/LCD5110_Graph.c **** 		y2=tmp;
 3670              		.loc 2 743 0
 3671 0032 7B69     		ldr	r3, [r7, #20]
 3672 0034 3B60     		str	r3, [r7]
 3673              	.L210:
 744:nokia5110/LCD5110_Graph.c **** 	}
 745:nokia5110/LCD5110_Graph.c **** 	if ((x2-x1)>4 && (y2-y1)>4)
 3674              		.loc 2 745 0
 3675 0036 7A68     		ldr	r2, [r7, #4]
 3676 0038 FB68     		ldr	r3, [r7, #12]
 3677 003a D31A     		sub	r3, r2, r3
 3678 003c 042B     		cmp	r3, #4
 3679 003e 62DD     		ble	.L208
 3680              		.loc 2 745 0 is_stmt 0 discriminator 1
 3681 0040 3A68     		ldr	r2, [r7]
 3682 0042 BB68     		ldr	r3, [r7, #8]
 3683 0044 D31A     		sub	r3, r2, r3
 3684 0046 042B     		cmp	r3, #4
 3685 0048 5DDD     		ble	.L208
 746:nokia5110/LCD5110_Graph.c **** 	{
 747:nokia5110/LCD5110_Graph.c **** 		setPixel(x1+1,y1+1);
 3686              		.loc 2 747 0 is_stmt 1
 3687 004a FB68     		ldr	r3, [r7, #12]
ARM GAS  C:\Users\Petro\AppData\Local\Temp\ccxzvnq1.s 			page 80


 3688 004c 9BB2     		uxth	r3, r3
 3689 004e 0133     		add	r3, r3, #1
 3690 0050 9AB2     		uxth	r2, r3
 3691 0052 BB68     		ldr	r3, [r7, #8]
 3692 0054 9BB2     		uxth	r3, r3
 3693 0056 0133     		add	r3, r3, #1
 3694 0058 9BB2     		uxth	r3, r3
 3695 005a 101C     		mov	r0, r2
 3696 005c 191C     		mov	r1, r3
 3697 005e FFF7FEFF 		bl	setPixel
 748:nokia5110/LCD5110_Graph.c **** 		setPixel(x2-1,y1+1);
 3698              		.loc 2 748 0
 3699 0062 7B68     		ldr	r3, [r7, #4]
 3700 0064 9BB2     		uxth	r3, r3
 3701 0066 013B     		sub	r3, r3, #1
 3702 0068 9AB2     		uxth	r2, r3
 3703 006a BB68     		ldr	r3, [r7, #8]
 3704 006c 9BB2     		uxth	r3, r3
 3705 006e 0133     		add	r3, r3, #1
 3706 0070 9BB2     		uxth	r3, r3
 3707 0072 101C     		mov	r0, r2
 3708 0074 191C     		mov	r1, r3
 3709 0076 FFF7FEFF 		bl	setPixel
 749:nokia5110/LCD5110_Graph.c **** 		setPixel(x1+1,y2-1);
 3710              		.loc 2 749 0
 3711 007a FB68     		ldr	r3, [r7, #12]
 3712 007c 9BB2     		uxth	r3, r3
 3713 007e 0133     		add	r3, r3, #1
 3714 0080 9AB2     		uxth	r2, r3
 3715 0082 3B68     		ldr	r3, [r7]
 3716 0084 9BB2     		uxth	r3, r3
 3717 0086 013B     		sub	r3, r3, #1
 3718 0088 9BB2     		uxth	r3, r3
 3719 008a 101C     		mov	r0, r2
 3720 008c 191C     		mov	r1, r3
 3721 008e FFF7FEFF 		bl	setPixel
 750:nokia5110/LCD5110_Graph.c **** 		setPixel(x2-1,y2-1);
 3722              		.loc 2 750 0
 3723 0092 7B68     		ldr	r3, [r7, #4]
 3724 0094 9BB2     		uxth	r3, r3
 3725 0096 013B     		sub	r3, r3, #1
 3726 0098 9AB2     		uxth	r2, r3
 3727 009a 3B68     		ldr	r3, [r7]
 3728 009c 9BB2     		uxth	r3, r3
 3729 009e 013B     		sub	r3, r3, #1
 3730 00a0 9BB2     		uxth	r3, r3
 3731 00a2 101C     		mov	r0, r2
 3732 00a4 191C     		mov	r1, r3
 3733 00a6 FFF7FEFF 		bl	setPixel
 751:nokia5110/LCD5110_Graph.c **** 		drawHLine(x1+2, y1, x2-x1-3);
 3734              		.loc 2 751 0
 3735 00aa FB68     		ldr	r3, [r7, #12]
 3736 00ac 991C     		add	r1, r3, #2
 3737 00ae 7A68     		ldr	r2, [r7, #4]
 3738 00b0 FB68     		ldr	r3, [r7, #12]
 3739 00b2 D31A     		sub	r3, r2, r3
 3740 00b4 033B     		sub	r3, r3, #3
ARM GAS  C:\Users\Petro\AppData\Local\Temp\ccxzvnq1.s 			page 81


 3741 00b6 BA68     		ldr	r2, [r7, #8]
 3742 00b8 081C     		mov	r0, r1
 3743 00ba 111C     		mov	r1, r2
 3744 00bc 1A1C     		mov	r2, r3
 3745 00be FFF7FEFF 		bl	drawHLine
 752:nokia5110/LCD5110_Graph.c **** 		drawHLine(x1+2, y2, x2-x1-3);
 3746              		.loc 2 752 0
 3747 00c2 FB68     		ldr	r3, [r7, #12]
 3748 00c4 991C     		add	r1, r3, #2
 3749 00c6 7A68     		ldr	r2, [r7, #4]
 3750 00c8 FB68     		ldr	r3, [r7, #12]
 3751 00ca D31A     		sub	r3, r2, r3
 3752 00cc 033B     		sub	r3, r3, #3
 3753 00ce 3A68     		ldr	r2, [r7]
 3754 00d0 081C     		mov	r0, r1
 3755 00d2 111C     		mov	r1, r2
 3756 00d4 1A1C     		mov	r2, r3
 3757 00d6 FFF7FEFF 		bl	drawHLine
 753:nokia5110/LCD5110_Graph.c **** 		drawVLine(x1, y1+2, y2-y1-3);
 3758              		.loc 2 753 0
 3759 00da BB68     		ldr	r3, [r7, #8]
 3760 00dc 991C     		add	r1, r3, #2
 3761 00de 3A68     		ldr	r2, [r7]
 3762 00e0 BB68     		ldr	r3, [r7, #8]
 3763 00e2 D31A     		sub	r3, r2, r3
 3764 00e4 033B     		sub	r3, r3, #3
 3765 00e6 FA68     		ldr	r2, [r7, #12]
 3766 00e8 101C     		mov	r0, r2
 3767 00ea 1A1C     		mov	r2, r3
 3768 00ec FFF7FEFF 		bl	drawVLine
 754:nokia5110/LCD5110_Graph.c **** 		drawVLine(x2, y1+2, y2-y1-3);
 3769              		.loc 2 754 0
 3770 00f0 BB68     		ldr	r3, [r7, #8]
 3771 00f2 991C     		add	r1, r3, #2
 3772 00f4 3A68     		ldr	r2, [r7]
 3773 00f6 BB68     		ldr	r3, [r7, #8]
 3774 00f8 D31A     		sub	r3, r2, r3
 3775 00fa 033B     		sub	r3, r3, #3
 3776 00fc 7A68     		ldr	r2, [r7, #4]
 3777 00fe 101C     		mov	r0, r2
 3778 0100 1A1C     		mov	r2, r3
 3779 0102 FFF7FEFF 		bl	drawVLine
 3780              	.L208:
 755:nokia5110/LCD5110_Graph.c **** 	}
 756:nokia5110/LCD5110_Graph.c **** }
 3781              		.loc 2 756 0
 3782 0106 BD46     		mov	sp, r7
 3783 0108 06B0     		add	sp, sp, #24
 3784              		@ sp needed
 3785 010a 80BD     		pop	{r7, pc}
 3786              		.cfi_endproc
 3787              	.LFE91:
 3788              		.size	drawRoundRect, .-drawRoundRect
 3789              		.section	.text.clrRoundRect,"ax",%progbits
 3790              		.align	2
 3791              		.global	clrRoundRect
 3792              		.code	16
ARM GAS  C:\Users\Petro\AppData\Local\Temp\ccxzvnq1.s 			page 82


 3793              		.thumb_func
 3794              		.type	clrRoundRect, %function
 3795              	clrRoundRect:
 3796              	.LFB92:
 757:nokia5110/LCD5110_Graph.c **** 
 758:nokia5110/LCD5110_Graph.c **** void clrRoundRect(int x1, int y1, int x2, int y2)
 759:nokia5110/LCD5110_Graph.c **** {
 3797              		.loc 2 759 0
 3798              		.cfi_startproc
 3799 0000 80B5     		push	{r7, lr}
 3800              		.cfi_def_cfa_offset 8
 3801              		.cfi_offset 7, -8
 3802              		.cfi_offset 14, -4
 3803 0002 86B0     		sub	sp, sp, #24
 3804              		.cfi_def_cfa_offset 32
 3805 0004 00AF     		add	r7, sp, #0
 3806              		.cfi_def_cfa_register 7
 3807 0006 F860     		str	r0, [r7, #12]
 3808 0008 B960     		str	r1, [r7, #8]
 3809 000a 7A60     		str	r2, [r7, #4]
 3810 000c 3B60     		str	r3, [r7]
 760:nokia5110/LCD5110_Graph.c **** 	int tmp;
 761:nokia5110/LCD5110_Graph.c **** 
 762:nokia5110/LCD5110_Graph.c **** 	if (x1>x2)
 3811              		.loc 2 762 0
 3812 000e FA68     		ldr	r2, [r7, #12]
 3813 0010 7B68     		ldr	r3, [r7, #4]
 3814 0012 9A42     		cmp	r2, r3
 3815 0014 05DD     		ble	.L213
 763:nokia5110/LCD5110_Graph.c **** 	{
 764:nokia5110/LCD5110_Graph.c **** 		tmp=x1;
 3816              		.loc 2 764 0
 3817 0016 FB68     		ldr	r3, [r7, #12]
 3818 0018 7B61     		str	r3, [r7, #20]
 765:nokia5110/LCD5110_Graph.c **** 		x1=x2;
 3819              		.loc 2 765 0
 3820 001a 7B68     		ldr	r3, [r7, #4]
 3821 001c FB60     		str	r3, [r7, #12]
 766:nokia5110/LCD5110_Graph.c **** 		x2=tmp;
 3822              		.loc 2 766 0
 3823 001e 7B69     		ldr	r3, [r7, #20]
 3824 0020 7B60     		str	r3, [r7, #4]
 3825              	.L213:
 767:nokia5110/LCD5110_Graph.c **** 	}
 768:nokia5110/LCD5110_Graph.c **** 	if (y1>y2)
 3826              		.loc 2 768 0
 3827 0022 BA68     		ldr	r2, [r7, #8]
 3828 0024 3B68     		ldr	r3, [r7]
 3829 0026 9A42     		cmp	r2, r3
 3830 0028 05DD     		ble	.L214
 769:nokia5110/LCD5110_Graph.c **** 	{
 770:nokia5110/LCD5110_Graph.c **** 		tmp=y1;
 3831              		.loc 2 770 0
 3832 002a BB68     		ldr	r3, [r7, #8]
 3833 002c 7B61     		str	r3, [r7, #20]
 771:nokia5110/LCD5110_Graph.c **** 		y1=y2;
 3834              		.loc 2 771 0
ARM GAS  C:\Users\Petro\AppData\Local\Temp\ccxzvnq1.s 			page 83


 3835 002e 3B68     		ldr	r3, [r7]
 3836 0030 BB60     		str	r3, [r7, #8]
 772:nokia5110/LCD5110_Graph.c **** 		y2=tmp;
 3837              		.loc 2 772 0
 3838 0032 7B69     		ldr	r3, [r7, #20]
 3839 0034 3B60     		str	r3, [r7]
 3840              	.L214:
 773:nokia5110/LCD5110_Graph.c **** 	}
 774:nokia5110/LCD5110_Graph.c **** 	if ((x2-x1)>4 && (y2-y1)>4)
 3841              		.loc 2 774 0
 3842 0036 7A68     		ldr	r2, [r7, #4]
 3843 0038 FB68     		ldr	r3, [r7, #12]
 3844 003a D31A     		sub	r3, r2, r3
 3845 003c 042B     		cmp	r3, #4
 3846 003e 62DD     		ble	.L212
 3847              		.loc 2 774 0 is_stmt 0 discriminator 1
 3848 0040 3A68     		ldr	r2, [r7]
 3849 0042 BB68     		ldr	r3, [r7, #8]
 3850 0044 D31A     		sub	r3, r2, r3
 3851 0046 042B     		cmp	r3, #4
 3852 0048 5DDD     		ble	.L212
 775:nokia5110/LCD5110_Graph.c **** 	{
 776:nokia5110/LCD5110_Graph.c **** 		clrPixel(x1+1,y1+1);
 3853              		.loc 2 776 0 is_stmt 1
 3854 004a FB68     		ldr	r3, [r7, #12]
 3855 004c 9BB2     		uxth	r3, r3
 3856 004e 0133     		add	r3, r3, #1
 3857 0050 9AB2     		uxth	r2, r3
 3858 0052 BB68     		ldr	r3, [r7, #8]
 3859 0054 9BB2     		uxth	r3, r3
 3860 0056 0133     		add	r3, r3, #1
 3861 0058 9BB2     		uxth	r3, r3
 3862 005a 101C     		mov	r0, r2
 3863 005c 191C     		mov	r1, r3
 3864 005e FFF7FEFF 		bl	clrPixel
 777:nokia5110/LCD5110_Graph.c **** 		clrPixel(x2-1,y1+1);
 3865              		.loc 2 777 0
 3866 0062 7B68     		ldr	r3, [r7, #4]
 3867 0064 9BB2     		uxth	r3, r3
 3868 0066 013B     		sub	r3, r3, #1
 3869 0068 9AB2     		uxth	r2, r3
 3870 006a BB68     		ldr	r3, [r7, #8]
 3871 006c 9BB2     		uxth	r3, r3
 3872 006e 0133     		add	r3, r3, #1
 3873 0070 9BB2     		uxth	r3, r3
 3874 0072 101C     		mov	r0, r2
 3875 0074 191C     		mov	r1, r3
 3876 0076 FFF7FEFF 		bl	clrPixel
 778:nokia5110/LCD5110_Graph.c **** 		clrPixel(x1+1,y2-1);
 3877              		.loc 2 778 0
 3878 007a FB68     		ldr	r3, [r7, #12]
 3879 007c 9BB2     		uxth	r3, r3
 3880 007e 0133     		add	r3, r3, #1
 3881 0080 9AB2     		uxth	r2, r3
 3882 0082 3B68     		ldr	r3, [r7]
 3883 0084 9BB2     		uxth	r3, r3
 3884 0086 013B     		sub	r3, r3, #1
ARM GAS  C:\Users\Petro\AppData\Local\Temp\ccxzvnq1.s 			page 84


 3885 0088 9BB2     		uxth	r3, r3
 3886 008a 101C     		mov	r0, r2
 3887 008c 191C     		mov	r1, r3
 3888 008e FFF7FEFF 		bl	clrPixel
 779:nokia5110/LCD5110_Graph.c **** 		clrPixel(x2-1,y2-1);
 3889              		.loc 2 779 0
 3890 0092 7B68     		ldr	r3, [r7, #4]
 3891 0094 9BB2     		uxth	r3, r3
 3892 0096 013B     		sub	r3, r3, #1
 3893 0098 9AB2     		uxth	r2, r3
 3894 009a 3B68     		ldr	r3, [r7]
 3895 009c 9BB2     		uxth	r3, r3
 3896 009e 013B     		sub	r3, r3, #1
 3897 00a0 9BB2     		uxth	r3, r3
 3898 00a2 101C     		mov	r0, r2
 3899 00a4 191C     		mov	r1, r3
 3900 00a6 FFF7FEFF 		bl	clrPixel
 780:nokia5110/LCD5110_Graph.c **** 		clrHLine(x1+2, y1, x2-x1-3);
 3901              		.loc 2 780 0
 3902 00aa FB68     		ldr	r3, [r7, #12]
 3903 00ac 991C     		add	r1, r3, #2
 3904 00ae 7A68     		ldr	r2, [r7, #4]
 3905 00b0 FB68     		ldr	r3, [r7, #12]
 3906 00b2 D31A     		sub	r3, r2, r3
 3907 00b4 033B     		sub	r3, r3, #3
 3908 00b6 BA68     		ldr	r2, [r7, #8]
 3909 00b8 081C     		mov	r0, r1
 3910 00ba 111C     		mov	r1, r2
 3911 00bc 1A1C     		mov	r2, r3
 3912 00be FFF7FEFF 		bl	clrHLine
 781:nokia5110/LCD5110_Graph.c **** 		clrHLine(x1+2, y2, x2-x1-3);
 3913              		.loc 2 781 0
 3914 00c2 FB68     		ldr	r3, [r7, #12]
 3915 00c4 991C     		add	r1, r3, #2
 3916 00c6 7A68     		ldr	r2, [r7, #4]
 3917 00c8 FB68     		ldr	r3, [r7, #12]
 3918 00ca D31A     		sub	r3, r2, r3
 3919 00cc 033B     		sub	r3, r3, #3
 3920 00ce 3A68     		ldr	r2, [r7]
 3921 00d0 081C     		mov	r0, r1
 3922 00d2 111C     		mov	r1, r2
 3923 00d4 1A1C     		mov	r2, r3
 3924 00d6 FFF7FEFF 		bl	clrHLine
 782:nokia5110/LCD5110_Graph.c **** 		clrVLine(x1, y1+2, y2-y1-3);
 3925              		.loc 2 782 0
 3926 00da BB68     		ldr	r3, [r7, #8]
 3927 00dc 991C     		add	r1, r3, #2
 3928 00de 3A68     		ldr	r2, [r7]
 3929 00e0 BB68     		ldr	r3, [r7, #8]
 3930 00e2 D31A     		sub	r3, r2, r3
 3931 00e4 033B     		sub	r3, r3, #3
 3932 00e6 FA68     		ldr	r2, [r7, #12]
 3933 00e8 101C     		mov	r0, r2
 3934 00ea 1A1C     		mov	r2, r3
 3935 00ec FFF7FEFF 		bl	clrVLine
 783:nokia5110/LCD5110_Graph.c **** 		clrVLine(x2, y1+2, y2-y1-3);
 3936              		.loc 2 783 0
ARM GAS  C:\Users\Petro\AppData\Local\Temp\ccxzvnq1.s 			page 85


 3937 00f0 BB68     		ldr	r3, [r7, #8]
 3938 00f2 991C     		add	r1, r3, #2
 3939 00f4 3A68     		ldr	r2, [r7]
 3940 00f6 BB68     		ldr	r3, [r7, #8]
 3941 00f8 D31A     		sub	r3, r2, r3
 3942 00fa 033B     		sub	r3, r3, #3
 3943 00fc 7A68     		ldr	r2, [r7, #4]
 3944 00fe 101C     		mov	r0, r2
 3945 0100 1A1C     		mov	r2, r3
 3946 0102 FFF7FEFF 		bl	clrVLine
 3947              	.L212:
 784:nokia5110/LCD5110_Graph.c **** 	}
 785:nokia5110/LCD5110_Graph.c **** }
 3948              		.loc 2 785 0
 3949 0106 BD46     		mov	sp, r7
 3950 0108 06B0     		add	sp, sp, #24
 3951              		@ sp needed
 3952 010a 80BD     		pop	{r7, pc}
 3953              		.cfi_endproc
 3954              	.LFE92:
 3955              		.size	clrRoundRect, .-clrRoundRect
 3956              		.section	.text.drawCircle,"ax",%progbits
 3957              		.align	2
 3958              		.global	drawCircle
 3959              		.code	16
 3960              		.thumb_func
 3961              		.type	drawCircle, %function
 3962              	drawCircle:
 3963              	.LFB93:
 786:nokia5110/LCD5110_Graph.c **** 
 787:nokia5110/LCD5110_Graph.c **** void drawCircle(int x, int y, int radius)
 788:nokia5110/LCD5110_Graph.c **** {
 3964              		.loc 2 788 0
 3965              		.cfi_startproc
 3966 0000 80B5     		push	{r7, lr}
 3967              		.cfi_def_cfa_offset 8
 3968              		.cfi_offset 7, -8
 3969              		.cfi_offset 14, -4
 3970 0002 8AB0     		sub	sp, sp, #40
 3971              		.cfi_def_cfa_offset 48
 3972 0004 00AF     		add	r7, sp, #0
 3973              		.cfi_def_cfa_register 7
 3974 0006 F860     		str	r0, [r7, #12]
 3975 0008 B960     		str	r1, [r7, #8]
 3976 000a 7A60     		str	r2, [r7, #4]
 789:nokia5110/LCD5110_Graph.c **** 	int f = 1 - radius;
 3977              		.loc 2 789 0
 3978 000c 7B68     		ldr	r3, [r7, #4]
 3979 000e 0122     		mov	r2, #1
 3980 0010 D31A     		sub	r3, r2, r3
 3981 0012 7B62     		str	r3, [r7, #36]
 790:nokia5110/LCD5110_Graph.c **** 	int ddF_x = 1;
 3982              		.loc 2 790 0
 3983 0014 0123     		mov	r3, #1
 3984 0016 3B62     		str	r3, [r7, #32]
 791:nokia5110/LCD5110_Graph.c **** 	int ddF_y = -2 * radius;
 3985              		.loc 2 791 0
ARM GAS  C:\Users\Petro\AppData\Local\Temp\ccxzvnq1.s 			page 86


 3986 0018 7A68     		ldr	r2, [r7, #4]
 3987 001a 131C     		mov	r3, r2
 3988 001c DB07     		lsl	r3, r3, #31
 3989 001e 9B1A     		sub	r3, r3, r2
 3990 0020 5B00     		lsl	r3, r3, #1
 3991 0022 FB61     		str	r3, [r7, #28]
 792:nokia5110/LCD5110_Graph.c **** 	int x1 = 0;
 3992              		.loc 2 792 0
 3993 0024 0023     		mov	r3, #0
 3994 0026 BB61     		str	r3, [r7, #24]
 793:nokia5110/LCD5110_Graph.c **** 	int y1 = radius;
 3995              		.loc 2 793 0
 3996 0028 7B68     		ldr	r3, [r7, #4]
 3997 002a 7B61     		str	r3, [r7, #20]
 794:nokia5110/LCD5110_Graph.c **** 	char ch, cl;
 795:nokia5110/LCD5110_Graph.c **** 	
 796:nokia5110/LCD5110_Graph.c **** 	setPixel(x, y + radius);
 3998              		.loc 2 796 0
 3999 002c FB68     		ldr	r3, [r7, #12]
 4000 002e 99B2     		uxth	r1, r3
 4001 0030 BB68     		ldr	r3, [r7, #8]
 4002 0032 9AB2     		uxth	r2, r3
 4003 0034 7B68     		ldr	r3, [r7, #4]
 4004 0036 9BB2     		uxth	r3, r3
 4005 0038 D318     		add	r3, r2, r3
 4006 003a 9BB2     		uxth	r3, r3
 4007 003c 081C     		mov	r0, r1
 4008 003e 191C     		mov	r1, r3
 4009 0040 FFF7FEFF 		bl	setPixel
 797:nokia5110/LCD5110_Graph.c **** 	setPixel(x, y - radius);
 4010              		.loc 2 797 0
 4011 0044 FB68     		ldr	r3, [r7, #12]
 4012 0046 99B2     		uxth	r1, r3
 4013 0048 BB68     		ldr	r3, [r7, #8]
 4014 004a 9AB2     		uxth	r2, r3
 4015 004c 7B68     		ldr	r3, [r7, #4]
 4016 004e 9BB2     		uxth	r3, r3
 4017 0050 D31A     		sub	r3, r2, r3
 4018 0052 9BB2     		uxth	r3, r3
 4019 0054 081C     		mov	r0, r1
 4020 0056 191C     		mov	r1, r3
 4021 0058 FFF7FEFF 		bl	setPixel
 798:nokia5110/LCD5110_Graph.c **** 	setPixel(x + radius, y);
 4022              		.loc 2 798 0
 4023 005c FB68     		ldr	r3, [r7, #12]
 4024 005e 9AB2     		uxth	r2, r3
 4025 0060 7B68     		ldr	r3, [r7, #4]
 4026 0062 9BB2     		uxth	r3, r3
 4027 0064 D318     		add	r3, r2, r3
 4028 0066 9AB2     		uxth	r2, r3
 4029 0068 BB68     		ldr	r3, [r7, #8]
 4030 006a 9BB2     		uxth	r3, r3
 4031 006c 101C     		mov	r0, r2
 4032 006e 191C     		mov	r1, r3
 4033 0070 FFF7FEFF 		bl	setPixel
 799:nokia5110/LCD5110_Graph.c **** 	setPixel(x - radius, y);
 4034              		.loc 2 799 0
ARM GAS  C:\Users\Petro\AppData\Local\Temp\ccxzvnq1.s 			page 87


 4035 0074 FB68     		ldr	r3, [r7, #12]
 4036 0076 9AB2     		uxth	r2, r3
 4037 0078 7B68     		ldr	r3, [r7, #4]
 4038 007a 9BB2     		uxth	r3, r3
 4039 007c D31A     		sub	r3, r2, r3
 4040 007e 9AB2     		uxth	r2, r3
 4041 0080 BB68     		ldr	r3, [r7, #8]
 4042 0082 9BB2     		uxth	r3, r3
 4043 0084 101C     		mov	r0, r2
 4044 0086 191C     		mov	r1, r3
 4045 0088 FFF7FEFF 		bl	setPixel
 800:nokia5110/LCD5110_Graph.c ****  
 801:nokia5110/LCD5110_Graph.c **** 	while(x1 < y1)
 4046              		.loc 2 801 0
 4047 008c 96E0     		b	.L217
 4048              	.L219:
 802:nokia5110/LCD5110_Graph.c **** 	{
 803:nokia5110/LCD5110_Graph.c **** 		if(f >= 0) 
 4049              		.loc 2 803 0
 4050 008e 7B6A     		ldr	r3, [r7, #36]
 4051 0090 002B     		cmp	r3, #0
 4052 0092 09DB     		blt	.L218
 804:nokia5110/LCD5110_Graph.c **** 		{
 805:nokia5110/LCD5110_Graph.c **** 			y1--;
 4053              		.loc 2 805 0
 4054 0094 7B69     		ldr	r3, [r7, #20]
 4055 0096 013B     		sub	r3, r3, #1
 4056 0098 7B61     		str	r3, [r7, #20]
 806:nokia5110/LCD5110_Graph.c **** 			ddF_y += 2;
 4057              		.loc 2 806 0
 4058 009a FB69     		ldr	r3, [r7, #28]
 4059 009c 0233     		add	r3, r3, #2
 4060 009e FB61     		str	r3, [r7, #28]
 807:nokia5110/LCD5110_Graph.c **** 			f += ddF_y;
 4061              		.loc 2 807 0
 4062 00a0 7A6A     		ldr	r2, [r7, #36]
 4063 00a2 FB69     		ldr	r3, [r7, #28]
 4064 00a4 D318     		add	r3, r2, r3
 4065 00a6 7B62     		str	r3, [r7, #36]
 4066              	.L218:
 808:nokia5110/LCD5110_Graph.c **** 		}
 809:nokia5110/LCD5110_Graph.c **** 		x1++;
 4067              		.loc 2 809 0
 4068 00a8 BB69     		ldr	r3, [r7, #24]
 4069 00aa 0133     		add	r3, r3, #1
 4070 00ac BB61     		str	r3, [r7, #24]
 810:nokia5110/LCD5110_Graph.c **** 		ddF_x += 2;
 4071              		.loc 2 810 0
 4072 00ae 3B6A     		ldr	r3, [r7, #32]
 4073 00b0 0233     		add	r3, r3, #2
 4074 00b2 3B62     		str	r3, [r7, #32]
 811:nokia5110/LCD5110_Graph.c **** 		f += ddF_x;    
 4075              		.loc 2 811 0
 4076 00b4 7A6A     		ldr	r2, [r7, #36]
 4077 00b6 3B6A     		ldr	r3, [r7, #32]
 4078 00b8 D318     		add	r3, r2, r3
 4079 00ba 7B62     		str	r3, [r7, #36]
ARM GAS  C:\Users\Petro\AppData\Local\Temp\ccxzvnq1.s 			page 88


 812:nokia5110/LCD5110_Graph.c **** 		setPixel(x + x1, y + y1);
 4080              		.loc 2 812 0
 4081 00bc FB68     		ldr	r3, [r7, #12]
 4082 00be 9AB2     		uxth	r2, r3
 4083 00c0 BB69     		ldr	r3, [r7, #24]
 4084 00c2 9BB2     		uxth	r3, r3
 4085 00c4 D318     		add	r3, r2, r3
 4086 00c6 99B2     		uxth	r1, r3
 4087 00c8 BB68     		ldr	r3, [r7, #8]
 4088 00ca 9AB2     		uxth	r2, r3
 4089 00cc 7B69     		ldr	r3, [r7, #20]
 4090 00ce 9BB2     		uxth	r3, r3
 4091 00d0 D318     		add	r3, r2, r3
 4092 00d2 9BB2     		uxth	r3, r3
 4093 00d4 081C     		mov	r0, r1
 4094 00d6 191C     		mov	r1, r3
 4095 00d8 FFF7FEFF 		bl	setPixel
 813:nokia5110/LCD5110_Graph.c **** 		setPixel(x - x1, y + y1);
 4096              		.loc 2 813 0
 4097 00dc FB68     		ldr	r3, [r7, #12]
 4098 00de 9AB2     		uxth	r2, r3
 4099 00e0 BB69     		ldr	r3, [r7, #24]
 4100 00e2 9BB2     		uxth	r3, r3
 4101 00e4 D31A     		sub	r3, r2, r3
 4102 00e6 99B2     		uxth	r1, r3
 4103 00e8 BB68     		ldr	r3, [r7, #8]
 4104 00ea 9AB2     		uxth	r2, r3
 4105 00ec 7B69     		ldr	r3, [r7, #20]
 4106 00ee 9BB2     		uxth	r3, r3
 4107 00f0 D318     		add	r3, r2, r3
 4108 00f2 9BB2     		uxth	r3, r3
 4109 00f4 081C     		mov	r0, r1
 4110 00f6 191C     		mov	r1, r3
 4111 00f8 FFF7FEFF 		bl	setPixel
 814:nokia5110/LCD5110_Graph.c **** 		setPixel(x + x1, y - y1);
 4112              		.loc 2 814 0
 4113 00fc FB68     		ldr	r3, [r7, #12]
 4114 00fe 9AB2     		uxth	r2, r3
 4115 0100 BB69     		ldr	r3, [r7, #24]
 4116 0102 9BB2     		uxth	r3, r3
 4117 0104 D318     		add	r3, r2, r3
 4118 0106 99B2     		uxth	r1, r3
 4119 0108 BB68     		ldr	r3, [r7, #8]
 4120 010a 9AB2     		uxth	r2, r3
 4121 010c 7B69     		ldr	r3, [r7, #20]
 4122 010e 9BB2     		uxth	r3, r3
 4123 0110 D31A     		sub	r3, r2, r3
 4124 0112 9BB2     		uxth	r3, r3
 4125 0114 081C     		mov	r0, r1
 4126 0116 191C     		mov	r1, r3
 4127 0118 FFF7FEFF 		bl	setPixel
 815:nokia5110/LCD5110_Graph.c **** 		setPixel(x - x1, y - y1);
 4128              		.loc 2 815 0
 4129 011c FB68     		ldr	r3, [r7, #12]
 4130 011e 9AB2     		uxth	r2, r3
 4131 0120 BB69     		ldr	r3, [r7, #24]
 4132 0122 9BB2     		uxth	r3, r3
ARM GAS  C:\Users\Petro\AppData\Local\Temp\ccxzvnq1.s 			page 89


 4133 0124 D31A     		sub	r3, r2, r3
 4134 0126 99B2     		uxth	r1, r3
 4135 0128 BB68     		ldr	r3, [r7, #8]
 4136 012a 9AB2     		uxth	r2, r3
 4137 012c 7B69     		ldr	r3, [r7, #20]
 4138 012e 9BB2     		uxth	r3, r3
 4139 0130 D31A     		sub	r3, r2, r3
 4140 0132 9BB2     		uxth	r3, r3
 4141 0134 081C     		mov	r0, r1
 4142 0136 191C     		mov	r1, r3
 4143 0138 FFF7FEFF 		bl	setPixel
 816:nokia5110/LCD5110_Graph.c **** 		setPixel(x + y1, y + x1);
 4144              		.loc 2 816 0
 4145 013c FB68     		ldr	r3, [r7, #12]
 4146 013e 9AB2     		uxth	r2, r3
 4147 0140 7B69     		ldr	r3, [r7, #20]
 4148 0142 9BB2     		uxth	r3, r3
 4149 0144 D318     		add	r3, r2, r3
 4150 0146 99B2     		uxth	r1, r3
 4151 0148 BB68     		ldr	r3, [r7, #8]
 4152 014a 9AB2     		uxth	r2, r3
 4153 014c BB69     		ldr	r3, [r7, #24]
 4154 014e 9BB2     		uxth	r3, r3
 4155 0150 D318     		add	r3, r2, r3
 4156 0152 9BB2     		uxth	r3, r3
 4157 0154 081C     		mov	r0, r1
 4158 0156 191C     		mov	r1, r3
 4159 0158 FFF7FEFF 		bl	setPixel
 817:nokia5110/LCD5110_Graph.c **** 		setPixel(x - y1, y + x1);
 4160              		.loc 2 817 0
 4161 015c FB68     		ldr	r3, [r7, #12]
 4162 015e 9AB2     		uxth	r2, r3
 4163 0160 7B69     		ldr	r3, [r7, #20]
 4164 0162 9BB2     		uxth	r3, r3
 4165 0164 D31A     		sub	r3, r2, r3
 4166 0166 99B2     		uxth	r1, r3
 4167 0168 BB68     		ldr	r3, [r7, #8]
 4168 016a 9AB2     		uxth	r2, r3
 4169 016c BB69     		ldr	r3, [r7, #24]
 4170 016e 9BB2     		uxth	r3, r3
 4171 0170 D318     		add	r3, r2, r3
 4172 0172 9BB2     		uxth	r3, r3
 4173 0174 081C     		mov	r0, r1
 4174 0176 191C     		mov	r1, r3
 4175 0178 FFF7FEFF 		bl	setPixel
 818:nokia5110/LCD5110_Graph.c **** 		setPixel(x + y1, y - x1);
 4176              		.loc 2 818 0
 4177 017c FB68     		ldr	r3, [r7, #12]
 4178 017e 9AB2     		uxth	r2, r3
 4179 0180 7B69     		ldr	r3, [r7, #20]
 4180 0182 9BB2     		uxth	r3, r3
 4181 0184 D318     		add	r3, r2, r3
 4182 0186 99B2     		uxth	r1, r3
 4183 0188 BB68     		ldr	r3, [r7, #8]
 4184 018a 9AB2     		uxth	r2, r3
 4185 018c BB69     		ldr	r3, [r7, #24]
 4186 018e 9BB2     		uxth	r3, r3
ARM GAS  C:\Users\Petro\AppData\Local\Temp\ccxzvnq1.s 			page 90


 4187 0190 D31A     		sub	r3, r2, r3
 4188 0192 9BB2     		uxth	r3, r3
 4189 0194 081C     		mov	r0, r1
 4190 0196 191C     		mov	r1, r3
 4191 0198 FFF7FEFF 		bl	setPixel
 819:nokia5110/LCD5110_Graph.c **** 		setPixel(x - y1, y - x1);
 4192              		.loc 2 819 0
 4193 019c FB68     		ldr	r3, [r7, #12]
 4194 019e 9AB2     		uxth	r2, r3
 4195 01a0 7B69     		ldr	r3, [r7, #20]
 4196 01a2 9BB2     		uxth	r3, r3
 4197 01a4 D31A     		sub	r3, r2, r3
 4198 01a6 99B2     		uxth	r1, r3
 4199 01a8 BB68     		ldr	r3, [r7, #8]
 4200 01aa 9AB2     		uxth	r2, r3
 4201 01ac BB69     		ldr	r3, [r7, #24]
 4202 01ae 9BB2     		uxth	r3, r3
 4203 01b0 D31A     		sub	r3, r2, r3
 4204 01b2 9BB2     		uxth	r3, r3
 4205 01b4 081C     		mov	r0, r1
 4206 01b6 191C     		mov	r1, r3
 4207 01b8 FFF7FEFF 		bl	setPixel
 4208              	.L217:
 801:nokia5110/LCD5110_Graph.c **** 	{
 4209              		.loc 2 801 0
 4210 01bc BA69     		ldr	r2, [r7, #24]
 4211 01be 7B69     		ldr	r3, [r7, #20]
 4212 01c0 9A42     		cmp	r2, r3
 4213 01c2 00DA     		bge	.LCB3781
 4214 01c4 63E7     		b	.L219	@long jump
 4215              	.LCB3781:
 820:nokia5110/LCD5110_Graph.c **** 	}
 821:nokia5110/LCD5110_Graph.c **** }
 4216              		.loc 2 821 0
 4217 01c6 BD46     		mov	sp, r7
 4218 01c8 0AB0     		add	sp, sp, #40
 4219              		@ sp needed
 4220 01ca 80BD     		pop	{r7, pc}
 4221              		.cfi_endproc
 4222              	.LFE93:
 4223              		.size	drawCircle, .-drawCircle
 4224              		.section	.text.clrCircle,"ax",%progbits
 4225              		.align	2
 4226              		.global	clrCircle
 4227              		.code	16
 4228              		.thumb_func
 4229              		.type	clrCircle, %function
 4230              	clrCircle:
 4231              	.LFB94:
 822:nokia5110/LCD5110_Graph.c **** 
 823:nokia5110/LCD5110_Graph.c **** void clrCircle(int x, int y, int radius)
 824:nokia5110/LCD5110_Graph.c **** {
 4232              		.loc 2 824 0
 4233              		.cfi_startproc
 4234 0000 80B5     		push	{r7, lr}
 4235              		.cfi_def_cfa_offset 8
 4236              		.cfi_offset 7, -8
ARM GAS  C:\Users\Petro\AppData\Local\Temp\ccxzvnq1.s 			page 91


 4237              		.cfi_offset 14, -4
 4238 0002 8AB0     		sub	sp, sp, #40
 4239              		.cfi_def_cfa_offset 48
 4240 0004 00AF     		add	r7, sp, #0
 4241              		.cfi_def_cfa_register 7
 4242 0006 F860     		str	r0, [r7, #12]
 4243 0008 B960     		str	r1, [r7, #8]
 4244 000a 7A60     		str	r2, [r7, #4]
 825:nokia5110/LCD5110_Graph.c **** 	int f = 1 - radius;
 4245              		.loc 2 825 0
 4246 000c 7B68     		ldr	r3, [r7, #4]
 4247 000e 0122     		mov	r2, #1
 4248 0010 D31A     		sub	r3, r2, r3
 4249 0012 7B62     		str	r3, [r7, #36]
 826:nokia5110/LCD5110_Graph.c **** 	int ddF_x = 1;
 4250              		.loc 2 826 0
 4251 0014 0123     		mov	r3, #1
 4252 0016 3B62     		str	r3, [r7, #32]
 827:nokia5110/LCD5110_Graph.c **** 	int ddF_y = -2 * radius;
 4253              		.loc 2 827 0
 4254 0018 7A68     		ldr	r2, [r7, #4]
 4255 001a 131C     		mov	r3, r2
 4256 001c DB07     		lsl	r3, r3, #31
 4257 001e 9B1A     		sub	r3, r3, r2
 4258 0020 5B00     		lsl	r3, r3, #1
 4259 0022 FB61     		str	r3, [r7, #28]
 828:nokia5110/LCD5110_Graph.c **** 	int x1 = 0;
 4260              		.loc 2 828 0
 4261 0024 0023     		mov	r3, #0
 4262 0026 BB61     		str	r3, [r7, #24]
 829:nokia5110/LCD5110_Graph.c **** 	int y1 = radius;
 4263              		.loc 2 829 0
 4264 0028 7B68     		ldr	r3, [r7, #4]
 4265 002a 7B61     		str	r3, [r7, #20]
 830:nokia5110/LCD5110_Graph.c **** 	char ch, cl;
 831:nokia5110/LCD5110_Graph.c **** 	
 832:nokia5110/LCD5110_Graph.c **** 	clrPixel(x, y + radius);
 4266              		.loc 2 832 0
 4267 002c FB68     		ldr	r3, [r7, #12]
 4268 002e 99B2     		uxth	r1, r3
 4269 0030 BB68     		ldr	r3, [r7, #8]
 4270 0032 9AB2     		uxth	r2, r3
 4271 0034 7B68     		ldr	r3, [r7, #4]
 4272 0036 9BB2     		uxth	r3, r3
 4273 0038 D318     		add	r3, r2, r3
 4274 003a 9BB2     		uxth	r3, r3
 4275 003c 081C     		mov	r0, r1
 4276 003e 191C     		mov	r1, r3
 4277 0040 FFF7FEFF 		bl	clrPixel
 833:nokia5110/LCD5110_Graph.c **** 	clrPixel(x, y - radius);
 4278              		.loc 2 833 0
 4279 0044 FB68     		ldr	r3, [r7, #12]
 4280 0046 99B2     		uxth	r1, r3
 4281 0048 BB68     		ldr	r3, [r7, #8]
 4282 004a 9AB2     		uxth	r2, r3
 4283 004c 7B68     		ldr	r3, [r7, #4]
 4284 004e 9BB2     		uxth	r3, r3
ARM GAS  C:\Users\Petro\AppData\Local\Temp\ccxzvnq1.s 			page 92


 4285 0050 D31A     		sub	r3, r2, r3
 4286 0052 9BB2     		uxth	r3, r3
 4287 0054 081C     		mov	r0, r1
 4288 0056 191C     		mov	r1, r3
 4289 0058 FFF7FEFF 		bl	clrPixel
 834:nokia5110/LCD5110_Graph.c **** 	clrPixel(x + radius, y);
 4290              		.loc 2 834 0
 4291 005c FB68     		ldr	r3, [r7, #12]
 4292 005e 9AB2     		uxth	r2, r3
 4293 0060 7B68     		ldr	r3, [r7, #4]
 4294 0062 9BB2     		uxth	r3, r3
 4295 0064 D318     		add	r3, r2, r3
 4296 0066 9AB2     		uxth	r2, r3
 4297 0068 BB68     		ldr	r3, [r7, #8]
 4298 006a 9BB2     		uxth	r3, r3
 4299 006c 101C     		mov	r0, r2
 4300 006e 191C     		mov	r1, r3
 4301 0070 FFF7FEFF 		bl	clrPixel
 835:nokia5110/LCD5110_Graph.c **** 	clrPixel(x - radius, y);
 4302              		.loc 2 835 0
 4303 0074 FB68     		ldr	r3, [r7, #12]
 4304 0076 9AB2     		uxth	r2, r3
 4305 0078 7B68     		ldr	r3, [r7, #4]
 4306 007a 9BB2     		uxth	r3, r3
 4307 007c D31A     		sub	r3, r2, r3
 4308 007e 9AB2     		uxth	r2, r3
 4309 0080 BB68     		ldr	r3, [r7, #8]
 4310 0082 9BB2     		uxth	r3, r3
 4311 0084 101C     		mov	r0, r2
 4312 0086 191C     		mov	r1, r3
 4313 0088 FFF7FEFF 		bl	clrPixel
 836:nokia5110/LCD5110_Graph.c ****  
 837:nokia5110/LCD5110_Graph.c **** 	while(x1 < y1)
 4314              		.loc 2 837 0
 4315 008c 96E0     		b	.L221
 4316              	.L223:
 838:nokia5110/LCD5110_Graph.c **** 	{
 839:nokia5110/LCD5110_Graph.c **** 		if(f >= 0) 
 4317              		.loc 2 839 0
 4318 008e 7B6A     		ldr	r3, [r7, #36]
 4319 0090 002B     		cmp	r3, #0
 4320 0092 09DB     		blt	.L222
 840:nokia5110/LCD5110_Graph.c **** 		{
 841:nokia5110/LCD5110_Graph.c **** 			y1--;
 4321              		.loc 2 841 0
 4322 0094 7B69     		ldr	r3, [r7, #20]
 4323 0096 013B     		sub	r3, r3, #1
 4324 0098 7B61     		str	r3, [r7, #20]
 842:nokia5110/LCD5110_Graph.c **** 			ddF_y += 2;
 4325              		.loc 2 842 0
 4326 009a FB69     		ldr	r3, [r7, #28]
 4327 009c 0233     		add	r3, r3, #2
 4328 009e FB61     		str	r3, [r7, #28]
 843:nokia5110/LCD5110_Graph.c **** 			f += ddF_y;
 4329              		.loc 2 843 0
 4330 00a0 7A6A     		ldr	r2, [r7, #36]
 4331 00a2 FB69     		ldr	r3, [r7, #28]
ARM GAS  C:\Users\Petro\AppData\Local\Temp\ccxzvnq1.s 			page 93


 4332 00a4 D318     		add	r3, r2, r3
 4333 00a6 7B62     		str	r3, [r7, #36]
 4334              	.L222:
 844:nokia5110/LCD5110_Graph.c **** 		}
 845:nokia5110/LCD5110_Graph.c **** 		x1++;
 4335              		.loc 2 845 0
 4336 00a8 BB69     		ldr	r3, [r7, #24]
 4337 00aa 0133     		add	r3, r3, #1
 4338 00ac BB61     		str	r3, [r7, #24]
 846:nokia5110/LCD5110_Graph.c **** 		ddF_x += 2;
 4339              		.loc 2 846 0
 4340 00ae 3B6A     		ldr	r3, [r7, #32]
 4341 00b0 0233     		add	r3, r3, #2
 4342 00b2 3B62     		str	r3, [r7, #32]
 847:nokia5110/LCD5110_Graph.c **** 		f += ddF_x;    
 4343              		.loc 2 847 0
 4344 00b4 7A6A     		ldr	r2, [r7, #36]
 4345 00b6 3B6A     		ldr	r3, [r7, #32]
 4346 00b8 D318     		add	r3, r2, r3
 4347 00ba 7B62     		str	r3, [r7, #36]
 848:nokia5110/LCD5110_Graph.c **** 		clrPixel(x + x1, y + y1);
 4348              		.loc 2 848 0
 4349 00bc FB68     		ldr	r3, [r7, #12]
 4350 00be 9AB2     		uxth	r2, r3
 4351 00c0 BB69     		ldr	r3, [r7, #24]
 4352 00c2 9BB2     		uxth	r3, r3
 4353 00c4 D318     		add	r3, r2, r3
 4354 00c6 99B2     		uxth	r1, r3
 4355 00c8 BB68     		ldr	r3, [r7, #8]
 4356 00ca 9AB2     		uxth	r2, r3
 4357 00cc 7B69     		ldr	r3, [r7, #20]
 4358 00ce 9BB2     		uxth	r3, r3
 4359 00d0 D318     		add	r3, r2, r3
 4360 00d2 9BB2     		uxth	r3, r3
 4361 00d4 081C     		mov	r0, r1
 4362 00d6 191C     		mov	r1, r3
 4363 00d8 FFF7FEFF 		bl	clrPixel
 849:nokia5110/LCD5110_Graph.c **** 		clrPixel(x - x1, y + y1);
 4364              		.loc 2 849 0
 4365 00dc FB68     		ldr	r3, [r7, #12]
 4366 00de 9AB2     		uxth	r2, r3
 4367 00e0 BB69     		ldr	r3, [r7, #24]
 4368 00e2 9BB2     		uxth	r3, r3
 4369 00e4 D31A     		sub	r3, r2, r3
 4370 00e6 99B2     		uxth	r1, r3
 4371 00e8 BB68     		ldr	r3, [r7, #8]
 4372 00ea 9AB2     		uxth	r2, r3
 4373 00ec 7B69     		ldr	r3, [r7, #20]
 4374 00ee 9BB2     		uxth	r3, r3
 4375 00f0 D318     		add	r3, r2, r3
 4376 00f2 9BB2     		uxth	r3, r3
 4377 00f4 081C     		mov	r0, r1
 4378 00f6 191C     		mov	r1, r3
 4379 00f8 FFF7FEFF 		bl	clrPixel
 850:nokia5110/LCD5110_Graph.c **** 		clrPixel(x + x1, y - y1);
 4380              		.loc 2 850 0
 4381 00fc FB68     		ldr	r3, [r7, #12]
ARM GAS  C:\Users\Petro\AppData\Local\Temp\ccxzvnq1.s 			page 94


 4382 00fe 9AB2     		uxth	r2, r3
 4383 0100 BB69     		ldr	r3, [r7, #24]
 4384 0102 9BB2     		uxth	r3, r3
 4385 0104 D318     		add	r3, r2, r3
 4386 0106 99B2     		uxth	r1, r3
 4387 0108 BB68     		ldr	r3, [r7, #8]
 4388 010a 9AB2     		uxth	r2, r3
 4389 010c 7B69     		ldr	r3, [r7, #20]
 4390 010e 9BB2     		uxth	r3, r3
 4391 0110 D31A     		sub	r3, r2, r3
 4392 0112 9BB2     		uxth	r3, r3
 4393 0114 081C     		mov	r0, r1
 4394 0116 191C     		mov	r1, r3
 4395 0118 FFF7FEFF 		bl	clrPixel
 851:nokia5110/LCD5110_Graph.c **** 		clrPixel(x - x1, y - y1);
 4396              		.loc 2 851 0
 4397 011c FB68     		ldr	r3, [r7, #12]
 4398 011e 9AB2     		uxth	r2, r3
 4399 0120 BB69     		ldr	r3, [r7, #24]
 4400 0122 9BB2     		uxth	r3, r3
 4401 0124 D31A     		sub	r3, r2, r3
 4402 0126 99B2     		uxth	r1, r3
 4403 0128 BB68     		ldr	r3, [r7, #8]
 4404 012a 9AB2     		uxth	r2, r3
 4405 012c 7B69     		ldr	r3, [r7, #20]
 4406 012e 9BB2     		uxth	r3, r3
 4407 0130 D31A     		sub	r3, r2, r3
 4408 0132 9BB2     		uxth	r3, r3
 4409 0134 081C     		mov	r0, r1
 4410 0136 191C     		mov	r1, r3
 4411 0138 FFF7FEFF 		bl	clrPixel
 852:nokia5110/LCD5110_Graph.c **** 		clrPixel(x + y1, y + x1);
 4412              		.loc 2 852 0
 4413 013c FB68     		ldr	r3, [r7, #12]
 4414 013e 9AB2     		uxth	r2, r3
 4415 0140 7B69     		ldr	r3, [r7, #20]
 4416 0142 9BB2     		uxth	r3, r3
 4417 0144 D318     		add	r3, r2, r3
 4418 0146 99B2     		uxth	r1, r3
 4419 0148 BB68     		ldr	r3, [r7, #8]
 4420 014a 9AB2     		uxth	r2, r3
 4421 014c BB69     		ldr	r3, [r7, #24]
 4422 014e 9BB2     		uxth	r3, r3
 4423 0150 D318     		add	r3, r2, r3
 4424 0152 9BB2     		uxth	r3, r3
 4425 0154 081C     		mov	r0, r1
 4426 0156 191C     		mov	r1, r3
 4427 0158 FFF7FEFF 		bl	clrPixel
 853:nokia5110/LCD5110_Graph.c **** 		clrPixel(x - y1, y + x1);
 4428              		.loc 2 853 0
 4429 015c FB68     		ldr	r3, [r7, #12]
 4430 015e 9AB2     		uxth	r2, r3
 4431 0160 7B69     		ldr	r3, [r7, #20]
 4432 0162 9BB2     		uxth	r3, r3
 4433 0164 D31A     		sub	r3, r2, r3
 4434 0166 99B2     		uxth	r1, r3
 4435 0168 BB68     		ldr	r3, [r7, #8]
ARM GAS  C:\Users\Petro\AppData\Local\Temp\ccxzvnq1.s 			page 95


 4436 016a 9AB2     		uxth	r2, r3
 4437 016c BB69     		ldr	r3, [r7, #24]
 4438 016e 9BB2     		uxth	r3, r3
 4439 0170 D318     		add	r3, r2, r3
 4440 0172 9BB2     		uxth	r3, r3
 4441 0174 081C     		mov	r0, r1
 4442 0176 191C     		mov	r1, r3
 4443 0178 FFF7FEFF 		bl	clrPixel
 854:nokia5110/LCD5110_Graph.c **** 		clrPixel(x + y1, y - x1);
 4444              		.loc 2 854 0
 4445 017c FB68     		ldr	r3, [r7, #12]
 4446 017e 9AB2     		uxth	r2, r3
 4447 0180 7B69     		ldr	r3, [r7, #20]
 4448 0182 9BB2     		uxth	r3, r3
 4449 0184 D318     		add	r3, r2, r3
 4450 0186 99B2     		uxth	r1, r3
 4451 0188 BB68     		ldr	r3, [r7, #8]
 4452 018a 9AB2     		uxth	r2, r3
 4453 018c BB69     		ldr	r3, [r7, #24]
 4454 018e 9BB2     		uxth	r3, r3
 4455 0190 D31A     		sub	r3, r2, r3
 4456 0192 9BB2     		uxth	r3, r3
 4457 0194 081C     		mov	r0, r1
 4458 0196 191C     		mov	r1, r3
 4459 0198 FFF7FEFF 		bl	clrPixel
 855:nokia5110/LCD5110_Graph.c **** 		clrPixel(x - y1, y - x1);
 4460              		.loc 2 855 0
 4461 019c FB68     		ldr	r3, [r7, #12]
 4462 019e 9AB2     		uxth	r2, r3
 4463 01a0 7B69     		ldr	r3, [r7, #20]
 4464 01a2 9BB2     		uxth	r3, r3
 4465 01a4 D31A     		sub	r3, r2, r3
 4466 01a6 99B2     		uxth	r1, r3
 4467 01a8 BB68     		ldr	r3, [r7, #8]
 4468 01aa 9AB2     		uxth	r2, r3
 4469 01ac BB69     		ldr	r3, [r7, #24]
 4470 01ae 9BB2     		uxth	r3, r3
 4471 01b0 D31A     		sub	r3, r2, r3
 4472 01b2 9BB2     		uxth	r3, r3
 4473 01b4 081C     		mov	r0, r1
 4474 01b6 191C     		mov	r1, r3
 4475 01b8 FFF7FEFF 		bl	clrPixel
 4476              	.L221:
 837:nokia5110/LCD5110_Graph.c **** 	{
 4477              		.loc 2 837 0
 4478 01bc BA69     		ldr	r2, [r7, #24]
 4479 01be 7B69     		ldr	r3, [r7, #20]
 4480 01c0 9A42     		cmp	r2, r3
 4481 01c2 00DA     		bge	.LCB4020
 4482 01c4 63E7     		b	.L223	@long jump
 4483              	.LCB4020:
 856:nokia5110/LCD5110_Graph.c **** 	}
 857:nokia5110/LCD5110_Graph.c **** }
 4484              		.loc 2 857 0
 4485 01c6 BD46     		mov	sp, r7
 4486 01c8 0AB0     		add	sp, sp, #40
 4487              		@ sp needed
ARM GAS  C:\Users\Petro\AppData\Local\Temp\ccxzvnq1.s 			page 96


 4488 01ca 80BD     		pop	{r7, pc}
 4489              		.cfi_endproc
 4490              	.LFE94:
 4491              		.size	clrCircle, .-clrCircle
 4492              		.section	.text.drawBitmap,"ax",%progbits
 4493              		.align	2
 4494              		.global	drawBitmap
 4495              		.code	16
 4496              		.thumb_func
 4497              		.type	drawBitmap, %function
 4498              	drawBitmap:
 4499              	.LFB95:
 858:nokia5110/LCD5110_Graph.c **** 
 859:nokia5110/LCD5110_Graph.c **** void drawBitmap(int x, int y, uint8_t* bitmap, int sx, int sy)
 860:nokia5110/LCD5110_Graph.c **** {
 4500              		.loc 2 860 0
 4501              		.cfi_startproc
 4502 0000 80B5     		push	{r7, lr}
 4503              		.cfi_def_cfa_offset 8
 4504              		.cfi_offset 7, -8
 4505              		.cfi_offset 14, -4
 4506 0002 88B0     		sub	sp, sp, #32
 4507              		.cfi_def_cfa_offset 40
 4508 0004 00AF     		add	r7, sp, #0
 4509              		.cfi_def_cfa_register 7
 4510 0006 F860     		str	r0, [r7, #12]
 4511 0008 B960     		str	r1, [r7, #8]
 4512 000a 7A60     		str	r2, [r7, #4]
 4513 000c 3B60     		str	r3, [r7]
 861:nokia5110/LCD5110_Graph.c **** 	int bit;
 862:nokia5110/LCD5110_Graph.c **** 	uint8_t data;
 863:nokia5110/LCD5110_Graph.c **** 
 864:nokia5110/LCD5110_Graph.c ****     int cy;
 865:nokia5110/LCD5110_Graph.c **** 	for (cy=0; cy<sy; cy++)
 4514              		.loc 2 865 0
 4515 000e 0023     		mov	r3, #0
 4516 0010 FB61     		str	r3, [r7, #28]
 4517 0012 52E0     		b	.L225
 4518              	.L232:
 4519              	.LBB25:
 866:nokia5110/LCD5110_Graph.c **** 	{
 867:nokia5110/LCD5110_Graph.c **** 		bit= cy % 8;
 4520              		.loc 2 867 0
 4521 0014 FB69     		ldr	r3, [r7, #28]
 4522 0016 2C4A     		ldr	r2, .L233
 4523 0018 1340     		and	r3, r2
 4524 001a 04D5     		bpl	.L226
 4525 001c 013B     		sub	r3, r3, #1
 4526 001e 0822     		mov	r2, #8
 4527 0020 5242     		neg	r2, r2
 4528 0022 1343     		orr	r3, r2
 4529 0024 0133     		add	r3, r3, #1
 4530              	.L226:
 4531 0026 7B61     		str	r3, [r7, #20]
 868:nokia5110/LCD5110_Graph.c ****         int cx;
 869:nokia5110/LCD5110_Graph.c **** 		for(cx=0; cx<sx; cx++)
 4532              		.loc 2 869 0
ARM GAS  C:\Users\Petro\AppData\Local\Temp\ccxzvnq1.s 			page 97


 4533 0028 0023     		mov	r3, #0
 4534 002a BB61     		str	r3, [r7, #24]
 4535 002c 3EE0     		b	.L227
 4536              	.L231:
 870:nokia5110/LCD5110_Graph.c **** 		{
 871:nokia5110/LCD5110_Graph.c **** 			data=bitmapbyte(cx+((cy/8)*sx));
 4537              		.loc 2 871 0
 4538 002e FB69     		ldr	r3, [r7, #28]
 4539 0030 002B     		cmp	r3, #0
 4540 0032 00DA     		bge	.L228
 4541 0034 0733     		add	r3, r3, #7
 4542              	.L228:
 4543 0036 DB10     		asr	r3, r3, #3
 4544 0038 1A1C     		mov	r2, r3
 4545 003a 3B68     		ldr	r3, [r7]
 4546 003c 5A43     		mul	r2, r3
 4547 003e BB69     		ldr	r3, [r7, #24]
 4548 0040 D318     		add	r3, r2, r3
 4549 0042 1A1C     		mov	r2, r3
 4550 0044 7B68     		ldr	r3, [r7, #4]
 4551 0046 9A18     		add	r2, r3, r2
 4552 0048 1323     		mov	r3, #19
 4553 004a FB18     		add	r3, r7, r3
 4554 004c 1278     		ldrb	r2, [r2]
 4555 004e 1A70     		strb	r2, [r3]
 872:nokia5110/LCD5110_Graph.c **** 			if ((data & (1<<bit))>0)
 4556              		.loc 2 872 0
 4557 0050 1323     		mov	r3, #19
 4558 0052 FB18     		add	r3, r7, r3
 4559 0054 1B78     		ldrb	r3, [r3]
 4560 0056 0121     		mov	r1, #1
 4561 0058 7A69     		ldr	r2, [r7, #20]
 4562 005a 9140     		lsl	r1, r1, r2
 4563 005c 0A1C     		mov	r2, r1
 4564 005e 1340     		and	r3, r2
 4565 0060 002B     		cmp	r3, #0
 4566 0062 10DD     		ble	.L229
 873:nokia5110/LCD5110_Graph.c **** 				setPixel(x+cx, y+cy);
 4567              		.loc 2 873 0
 4568 0064 FB68     		ldr	r3, [r7, #12]
 4569 0066 9AB2     		uxth	r2, r3
 4570 0068 BB69     		ldr	r3, [r7, #24]
 4571 006a 9BB2     		uxth	r3, r3
 4572 006c D318     		add	r3, r2, r3
 4573 006e 99B2     		uxth	r1, r3
 4574 0070 BB68     		ldr	r3, [r7, #8]
 4575 0072 9AB2     		uxth	r2, r3
 4576 0074 FB69     		ldr	r3, [r7, #28]
 4577 0076 9BB2     		uxth	r3, r3
 4578 0078 D318     		add	r3, r2, r3
 4579 007a 9BB2     		uxth	r3, r3
 4580 007c 081C     		mov	r0, r1
 4581 007e 191C     		mov	r1, r3
 4582 0080 FFF7FEFF 		bl	setPixel
 4583 0084 0FE0     		b	.L230
 4584              	.L229:
 874:nokia5110/LCD5110_Graph.c **** 			else
ARM GAS  C:\Users\Petro\AppData\Local\Temp\ccxzvnq1.s 			page 98


 875:nokia5110/LCD5110_Graph.c **** 				clrPixel(x+cx, y+cy);
 4585              		.loc 2 875 0
 4586 0086 FB68     		ldr	r3, [r7, #12]
 4587 0088 9AB2     		uxth	r2, r3
 4588 008a BB69     		ldr	r3, [r7, #24]
 4589 008c 9BB2     		uxth	r3, r3
 4590 008e D318     		add	r3, r2, r3
 4591 0090 99B2     		uxth	r1, r3
 4592 0092 BB68     		ldr	r3, [r7, #8]
 4593 0094 9AB2     		uxth	r2, r3
 4594 0096 FB69     		ldr	r3, [r7, #28]
 4595 0098 9BB2     		uxth	r3, r3
 4596 009a D318     		add	r3, r2, r3
 4597 009c 9BB2     		uxth	r3, r3
 4598 009e 081C     		mov	r0, r1
 4599 00a0 191C     		mov	r1, r3
 4600 00a2 FFF7FEFF 		bl	clrPixel
 4601              	.L230:
 869:nokia5110/LCD5110_Graph.c **** 		{
 4602              		.loc 2 869 0 discriminator 2
 4603 00a6 BB69     		ldr	r3, [r7, #24]
 4604 00a8 0133     		add	r3, r3, #1
 4605 00aa BB61     		str	r3, [r7, #24]
 4606              	.L227:
 869:nokia5110/LCD5110_Graph.c **** 		{
 4607              		.loc 2 869 0 is_stmt 0 discriminator 1
 4608 00ac BA69     		ldr	r2, [r7, #24]
 4609 00ae 3B68     		ldr	r3, [r7]
 4610 00b0 9A42     		cmp	r2, r3
 4611 00b2 BCDB     		blt	.L231
 4612              	.LBE25:
 865:nokia5110/LCD5110_Graph.c **** 	{
 4613              		.loc 2 865 0 is_stmt 1 discriminator 2
 4614 00b4 FB69     		ldr	r3, [r7, #28]
 4615 00b6 0133     		add	r3, r3, #1
 4616 00b8 FB61     		str	r3, [r7, #28]
 4617              	.L225:
 865:nokia5110/LCD5110_Graph.c **** 	{
 4618              		.loc 2 865 0 is_stmt 0 discriminator 1
 4619 00ba FA69     		ldr	r2, [r7, #28]
 4620 00bc BB6A     		ldr	r3, [r7, #40]
 4621 00be 9A42     		cmp	r2, r3
 4622 00c0 A8DB     		blt	.L232
 876:nokia5110/LCD5110_Graph.c **** 		}
 877:nokia5110/LCD5110_Graph.c **** 	}      
 878:nokia5110/LCD5110_Graph.c **** }
 4623              		.loc 2 878 0 is_stmt 1
 4624 00c2 BD46     		mov	sp, r7
 4625 00c4 08B0     		add	sp, sp, #32
 4626              		@ sp needed
 4627 00c6 80BD     		pop	{r7, pc}
 4628              	.L234:
 4629              		.align	2
 4630              	.L233:
 4631 00c8 07000080 		.word	-2147483641
 4632              		.cfi_endproc
 4633              	.LFE95:
ARM GAS  C:\Users\Petro\AppData\Local\Temp\ccxzvnq1.s 			page 99


 4634              		.size	drawBitmap, .-drawBitmap
 4635              		.text
 4636              	.Letext0:
 4637              		.file 3 "c:\\program files (x86)\\cypress\\psoc creator\\4.0\\psoc creator\\import\\gnu\\arm\\4.9.
 4638              		.file 4 "c:\\program files (x86)\\cypress\\psoc creator\\4.0\\psoc creator\\import\\gnu\\arm\\4.9.
 4639              		.file 5 "Generated_Source\\PSoC4/cytypes.h"
 4640              		.file 6 "nokia5110\\LCD5110_Graph.h"
 4641              		.section	.debug_info,"",%progbits
 4642              	.Ldebug_info0:
 4643 0000 190F0000 		.4byte	0xf19
 4644 0004 0400     		.2byte	0x4
 4645 0006 00000000 		.4byte	.Ldebug_abbrev0
 4646 000a 04       		.byte	0x4
 4647 000b 01       		.uleb128 0x1
 4648 000c 05030000 		.4byte	.LASF81
 4649 0010 01       		.byte	0x1
 4650 0011 AC030000 		.4byte	.LASF82
 4651 0015 9F000000 		.4byte	.LASF83
 4652 0019 00000000 		.4byte	.Ldebug_ranges0+0
 4653 001d 00000000 		.4byte	0
 4654 0021 00000000 		.4byte	.Ldebug_line0
 4655 0025 02       		.uleb128 0x2
 4656 0026 01       		.byte	0x1
 4657 0027 06       		.byte	0x6
 4658 0028 26010000 		.4byte	.LASF0
 4659 002c 03       		.uleb128 0x3
 4660 002d 9F010000 		.4byte	.LASF3
 4661 0031 03       		.byte	0x3
 4662 0032 1D       		.byte	0x1d
 4663 0033 37000000 		.4byte	0x37
 4664 0037 02       		.uleb128 0x2
 4665 0038 01       		.byte	0x1
 4666 0039 08       		.byte	0x8
 4667 003a DF010000 		.4byte	.LASF1
 4668 003e 02       		.uleb128 0x2
 4669 003f 02       		.byte	0x2
 4670 0040 05       		.byte	0x5
 4671 0041 2D000000 		.4byte	.LASF2
 4672 0045 03       		.uleb128 0x3
 4673 0046 81000000 		.4byte	.LASF4
 4674 004a 03       		.byte	0x3
 4675 004b 2B       		.byte	0x2b
 4676 004c 50000000 		.4byte	0x50
 4677 0050 02       		.uleb128 0x2
 4678 0051 02       		.byte	0x2
 4679 0052 07       		.byte	0x7
 4680 0053 73020000 		.4byte	.LASF5
 4681 0057 02       		.uleb128 0x2
 4682 0058 04       		.byte	0x4
 4683 0059 05       		.byte	0x5
 4684 005a 70010000 		.4byte	.LASF6
 4685 005e 02       		.uleb128 0x2
 4686 005f 04       		.byte	0x4
 4687 0060 07       		.byte	0x7
 4688 0061 8D010000 		.4byte	.LASF7
 4689 0065 02       		.uleb128 0x2
 4690 0066 08       		.byte	0x8
ARM GAS  C:\Users\Petro\AppData\Local\Temp\ccxzvnq1.s 			page 100


 4691 0067 05       		.byte	0x5
 4692 0068 58000000 		.4byte	.LASF8
 4693 006c 02       		.uleb128 0x2
 4694 006d 08       		.byte	0x8
 4695 006e 07       		.byte	0x7
 4696 006f 08020000 		.4byte	.LASF9
 4697 0073 04       		.uleb128 0x4
 4698 0074 04       		.byte	0x4
 4699 0075 05       		.byte	0x5
 4700 0076 696E7400 		.ascii	"int\000"
 4701 007a 02       		.uleb128 0x2
 4702 007b 04       		.byte	0x4
 4703 007c 07       		.byte	0x7
 4704 007d 33020000 		.4byte	.LASF10
 4705 0081 03       		.uleb128 0x3
 4706 0082 97000000 		.4byte	.LASF11
 4707 0086 04       		.byte	0x4
 4708 0087 15       		.byte	0x15
 4709 0088 2C000000 		.4byte	0x2c
 4710 008c 03       		.uleb128 0x3
 4711 008d 4A020000 		.4byte	.LASF12
 4712 0091 04       		.byte	0x4
 4713 0092 21       		.byte	0x21
 4714 0093 45000000 		.4byte	0x45
 4715 0097 05       		.uleb128 0x5
 4716 0098 93030000 		.4byte	.LASF13
 4717 009c 05       		.byte	0x5
 4718 009d 9801     		.2byte	0x198
 4719 009f 37000000 		.4byte	0x37
 4720 00a3 02       		.uleb128 0x2
 4721 00a4 04       		.byte	0x4
 4722 00a5 04       		.byte	0x4
 4723 00a6 44010000 		.4byte	.LASF14
 4724 00aa 02       		.uleb128 0x2
 4725 00ab 08       		.byte	0x8
 4726 00ac 04       		.byte	0x4
 4727 00ad 99030000 		.4byte	.LASF15
 4728 00b1 02       		.uleb128 0x2
 4729 00b2 01       		.byte	0x1
 4730 00b3 08       		.byte	0x8
 4731 00b4 86020000 		.4byte	.LASF16
 4732 00b8 02       		.uleb128 0x2
 4733 00b9 04       		.byte	0x4
 4734 00ba 07       		.byte	0x7
 4735 00bb 37000000 		.4byte	.LASF17
 4736 00bf 06       		.uleb128 0x6
 4737 00c0 04       		.byte	0x4
 4738 00c1 B1000000 		.4byte	0xb1
 4739 00c5 07       		.uleb128 0x7
 4740 00c6 B1000000 		.4byte	0xb1
 4741 00ca D5000000 		.4byte	0xd5
 4742 00ce 08       		.uleb128 0x8
 4743 00cf B8000000 		.4byte	0xb8
 4744 00d3 18       		.byte	0x18
 4745 00d4 00       		.byte	0
 4746 00d5 09       		.uleb128 0x9
 4747 00d6 0C       		.byte	0xc
ARM GAS  C:\Users\Petro\AppData\Local\Temp\ccxzvnq1.s 			page 101


 4748 00d7 06       		.byte	0x6
 4749 00d8 3F       		.byte	0x3f
 4750 00d9 26010000 		.4byte	0x126
 4751 00dd 0A       		.uleb128 0xa
 4752 00de 66000000 		.4byte	.LASF18
 4753 00e2 06       		.byte	0x6
 4754 00e3 41       		.byte	0x41
 4755 00e4 26010000 		.4byte	0x126
 4756 00e8 00       		.byte	0
 4757 00e9 0A       		.uleb128 0xa
 4758 00ea C6030000 		.4byte	.LASF19
 4759 00ee 06       		.byte	0x6
 4760 00ef 42       		.byte	0x42
 4761 00f0 81000000 		.4byte	0x81
 4762 00f4 04       		.byte	0x4
 4763 00f5 0A       		.uleb128 0xa
 4764 00f6 C3010000 		.4byte	.LASF20
 4765 00fa 06       		.byte	0x6
 4766 00fb 43       		.byte	0x43
 4767 00fc 81000000 		.4byte	0x81
 4768 0100 05       		.byte	0x5
 4769 0101 0A       		.uleb128 0xa
 4770 0102 86010000 		.4byte	.LASF21
 4771 0106 06       		.byte	0x6
 4772 0107 44       		.byte	0x44
 4773 0108 81000000 		.4byte	0x81
 4774 010c 06       		.byte	0x6
 4775 010d 0A       		.uleb128 0xa
 4776 010e 09000000 		.4byte	.LASF22
 4777 0112 06       		.byte	0x6
 4778 0113 45       		.byte	0x45
 4779 0114 81000000 		.4byte	0x81
 4780 0118 07       		.byte	0x7
 4781 0119 0A       		.uleb128 0xa
 4782 011a 1F020000 		.4byte	.LASF23
 4783 011e 06       		.byte	0x6
 4784 011f 46       		.byte	0x46
 4785 0120 81000000 		.4byte	0x81
 4786 0124 08       		.byte	0x8
 4787 0125 00       		.byte	0
 4788 0126 06       		.uleb128 0x6
 4789 0127 04       		.byte	0x4
 4790 0128 81000000 		.4byte	0x81
 4791 012c 03       		.uleb128 0x3
 4792 012d 5B010000 		.4byte	.LASF24
 4793 0131 06       		.byte	0x6
 4794 0132 47       		.byte	0x47
 4795 0133 D5000000 		.4byte	0xd5
 4796 0137 0B       		.uleb128 0xb
 4797 0138 5C020000 		.4byte	.LASF27
 4798 013c 01       		.byte	0x1
 4799 013d 04       		.byte	0x4
 4800 013e 00000000 		.4byte	.LFB63
 4801 0142 40000000 		.4byte	.LFE63-.LFB63
 4802 0146 01       		.uleb128 0x1
 4803 0147 9C       		.byte	0x9c
 4804 0148 93010000 		.4byte	0x193
ARM GAS  C:\Users\Petro\AppData\Local\Temp\ccxzvnq1.s 			page 102


 4805 014c 0C       		.uleb128 0xc
 4806 014d 62756600 		.ascii	"buf\000"
 4807 0151 01       		.byte	0x1
 4808 0152 04       		.byte	0x4
 4809 0153 BF000000 		.4byte	0xbf
 4810 0157 02       		.uleb128 0x2
 4811 0158 91       		.byte	0x91
 4812 0159 5C       		.sleb128 -36
 4813 015a 0C       		.uleb128 0xc
 4814 015b 6E756D00 		.ascii	"num\000"
 4815 015f 01       		.byte	0x1
 4816 0160 04       		.byte	0x4
 4817 0161 AA000000 		.4byte	0xaa
 4818 0165 02       		.uleb128 0x2
 4819 0166 91       		.byte	0x91
 4820 0167 50       		.sleb128 -48
 4821 0168 0D       		.uleb128 0xd
 4822 0169 32010000 		.4byte	.LASF25
 4823 016d 01       		.byte	0x1
 4824 016e 04       		.byte	0x4
 4825 016f 73000000 		.4byte	0x73
 4826 0173 02       		.uleb128 0x2
 4827 0174 91       		.byte	0x91
 4828 0175 00       		.sleb128 0
 4829 0176 0D       		.uleb128 0xd
 4830 0177 00030000 		.4byte	.LASF26
 4831 017b 01       		.byte	0x1
 4832 017c 04       		.byte	0x4
 4833 017d 81000000 		.4byte	0x81
 4834 0181 02       		.uleb128 0x2
 4835 0182 91       		.byte	0x91
 4836 0183 04       		.sleb128 4
 4837 0184 0E       		.uleb128 0xe
 4838 0185 54010000 		.4byte	.LASF34
 4839 0189 01       		.byte	0x1
 4840 018a 06       		.byte	0x6
 4841 018b 93010000 		.4byte	0x193
 4842 018f 02       		.uleb128 0x2
 4843 0190 91       		.byte	0x91
 4844 0191 64       		.sleb128 -28
 4845 0192 00       		.byte	0
 4846 0193 07       		.uleb128 0x7
 4847 0194 B1000000 		.4byte	0xb1
 4848 0198 A3010000 		.4byte	0x1a3
 4849 019c 08       		.uleb128 0x8
 4850 019d B8000000 		.4byte	0xb8
 4851 01a1 09       		.byte	0x9
 4852 01a2 00       		.byte	0
 4853 01a3 0B       		.uleb128 0xb
 4854 01a4 8B020000 		.4byte	.LASF28
 4855 01a8 02       		.byte	0x2
 4856 01a9 3B       		.byte	0x3b
 4857 01aa 00000000 		.4byte	.LFB64
 4858 01ae 38000000 		.4byte	.LFE64-.LFB64
 4859 01b2 01       		.uleb128 0x1
 4860 01b3 9C       		.byte	0x9c
 4861 01b4 D5010000 		.4byte	0x1d5
ARM GAS  C:\Users\Petro\AppData\Local\Temp\ccxzvnq1.s 			page 103


 4862 01b8 0D       		.uleb128 0xd
 4863 01b9 AA020000 		.4byte	.LASF29
 4864 01bd 02       		.byte	0x2
 4865 01be 3B       		.byte	0x3b
 4866 01bf 37000000 		.4byte	0x37
 4867 01c3 02       		.uleb128 0x2
 4868 01c4 91       		.byte	0x91
 4869 01c5 77       		.sleb128 -9
 4870 01c6 0D       		.uleb128 0xd
 4871 01c7 6B000000 		.4byte	.LASF30
 4872 01cb 02       		.byte	0x2
 4873 01cc 3B       		.byte	0x3b
 4874 01cd 37000000 		.4byte	0x37
 4875 01d1 02       		.uleb128 0x2
 4876 01d2 91       		.byte	0x91
 4877 01d3 76       		.sleb128 -10
 4878 01d4 00       		.byte	0
 4879 01d5 0B       		.uleb128 0xb
 4880 01d6 6B020000 		.4byte	.LASF31
 4881 01da 02       		.byte	0x2
 4882 01db 55       		.byte	0x55
 4883 01dc 00000000 		.4byte	.LFB65
 4884 01e0 A8000000 		.4byte	.LFE65-.LFB65
 4885 01e4 01       		.uleb128 0x1
 4886 01e5 9C       		.byte	0x9c
 4887 01e6 F9010000 		.4byte	0x1f9
 4888 01ea 0D       		.uleb128 0xd
 4889 01eb E3020000 		.4byte	.LASF32
 4890 01ef 02       		.byte	0x2
 4891 01f0 55       		.byte	0x55
 4892 01f1 73000000 		.4byte	0x73
 4893 01f5 02       		.uleb128 0x2
 4894 01f6 91       		.byte	0x91
 4895 01f7 74       		.sleb128 -12
 4896 01f8 00       		.byte	0
 4897 01f9 0B       		.uleb128 0xb
 4898 01fa A0030000 		.4byte	.LASF33
 4899 01fe 02       		.byte	0x2
 4900 01ff 70       		.byte	0x70
 4901 0200 00000000 		.4byte	.LFB66
 4902 0204 54000000 		.4byte	.LFE66-.LFB66
 4903 0208 01       		.uleb128 0x1
 4904 0209 9C       		.byte	0x9c
 4905 020a 1D020000 		.4byte	0x21d
 4906 020e 0D       		.uleb128 0xd
 4907 020f E3020000 		.4byte	.LASF32
 4908 0213 02       		.byte	0x2
 4909 0214 70       		.byte	0x70
 4910 0215 73000000 		.4byte	0x73
 4911 0219 02       		.uleb128 0x2
 4912 021a 91       		.byte	0x91
 4913 021b 74       		.sleb128 -12
 4914 021c 00       		.byte	0
 4915 021d 0F       		.uleb128 0xf
 4916 021e CD030000 		.4byte	.LASF35
 4917 0222 02       		.byte	0x2
 4918 0223 7C       		.byte	0x7c
ARM GAS  C:\Users\Petro\AppData\Local\Temp\ccxzvnq1.s 			page 104


 4919 0224 00000000 		.4byte	.LFB67
 4920 0228 4C000000 		.4byte	.LFE67-.LFB67
 4921 022c 01       		.uleb128 0x1
 4922 022d 9C       		.byte	0x9c
 4923 022e 3F020000 		.4byte	0x23f
 4924 0232 10       		.uleb128 0x10
 4925 0233 6200     		.ascii	"b\000"
 4926 0235 02       		.byte	0x2
 4927 0236 81       		.byte	0x81
 4928 0237 73000000 		.4byte	0x73
 4929 023b 02       		.uleb128 0x2
 4930 023c 91       		.byte	0x91
 4931 023d 74       		.sleb128 -12
 4932 023e 00       		.byte	0
 4933 023f 11       		.uleb128 0x11
 4934 0240 40000000 		.4byte	.LASF84
 4935 0244 02       		.byte	0x2
 4936 0245 87       		.byte	0x87
 4937 0246 00000000 		.4byte	.LFB68
 4938 024a 5C000000 		.4byte	.LFE68-.LFB68
 4939 024e 01       		.uleb128 0x1
 4940 024f 9C       		.byte	0x9c
 4941 0250 0F       		.uleb128 0xf
 4942 0251 69010000 		.4byte	.LASF36
 4943 0255 02       		.byte	0x2
 4944 0256 93       		.byte	0x93
 4945 0257 00000000 		.4byte	.LFB69
 4946 025b 58000000 		.4byte	.LFE69-.LFB69
 4947 025f 01       		.uleb128 0x1
 4948 0260 9C       		.byte	0x9c
 4949 0261 7C020000 		.4byte	0x27c
 4950 0265 12       		.uleb128 0x12
 4951 0266 14000000 		.4byte	.LBB2
 4952 026a 36000000 		.4byte	.LBE2-.LBB2
 4953 026e 10       		.uleb128 0x10
 4954 026f 6200     		.ascii	"b\000"
 4955 0271 02       		.byte	0x2
 4956 0272 99       		.byte	0x99
 4957 0273 73000000 		.4byte	0x73
 4958 0277 02       		.uleb128 0x2
 4959 0278 91       		.byte	0x91
 4960 0279 74       		.sleb128 -12
 4961 027a 00       		.byte	0
 4962 027b 00       		.byte	0
 4963 027c 13       		.uleb128 0x13
 4964 027d EC020000 		.4byte	.LASF37
 4965 0281 02       		.byte	0x2
 4966 0282 9F       		.byte	0x9f
 4967 0283 00000000 		.4byte	.LFB70
 4968 0287 30000000 		.4byte	.LFE70-.LFB70
 4969 028b 01       		.uleb128 0x1
 4970 028c 9C       		.byte	0x9c
 4971 028d 9E020000 		.4byte	0x29e
 4972 0291 10       		.uleb128 0x10
 4973 0292 6300     		.ascii	"c\000"
 4974 0294 02       		.byte	0x2
 4975 0295 A1       		.byte	0xa1
ARM GAS  C:\Users\Petro\AppData\Local\Temp\ccxzvnq1.s 			page 105


 4976 0296 73000000 		.4byte	0x73
 4977 029a 02       		.uleb128 0x2
 4978 029b 91       		.byte	0x91
 4979 029c 74       		.sleb128 -12
 4980 029d 00       		.byte	0
 4981 029e 13       		.uleb128 0x13
 4982 029f C2020000 		.4byte	.LASF38
 4983 02a3 02       		.byte	0x2
 4984 02a4 A6       		.byte	0xa6
 4985 02a5 00000000 		.4byte	.LFB71
 4986 02a9 30000000 		.4byte	.LFE71-.LFB71
 4987 02ad 01       		.uleb128 0x1
 4988 02ae 9C       		.byte	0x9c
 4989 02af C0020000 		.4byte	0x2c0
 4990 02b3 10       		.uleb128 0x10
 4991 02b4 6300     		.ascii	"c\000"
 4992 02b6 02       		.byte	0x2
 4993 02b7 A8       		.byte	0xa8
 4994 02b8 73000000 		.4byte	0x73
 4995 02bc 02       		.uleb128 0x2
 4996 02bd 91       		.byte	0x91
 4997 02be 74       		.sleb128 -12
 4998 02bf 00       		.byte	0
 4999 02c0 0B       		.uleb128 0xb
 5000 02c1 96020000 		.4byte	.LASF39
 5001 02c5 02       		.byte	0x2
 5002 02c6 AD       		.byte	0xad
 5003 02c7 00000000 		.4byte	.LFB72
 5004 02cb 2C000000 		.4byte	.LFE72-.LFB72
 5005 02cf 01       		.uleb128 0x1
 5006 02d0 9C       		.byte	0x9c
 5007 02d1 E4020000 		.4byte	0x2e4
 5008 02d5 0D       		.uleb128 0xd
 5009 02d6 6B000000 		.4byte	.LASF30
 5010 02da 02       		.byte	0x2
 5011 02db AD       		.byte	0xad
 5012 02dc E4020000 		.4byte	0x2e4
 5013 02e0 02       		.uleb128 0x2
 5014 02e1 91       		.byte	0x91
 5015 02e2 77       		.sleb128 -9
 5016 02e3 00       		.byte	0
 5017 02e4 02       		.uleb128 0x2
 5018 02e5 01       		.byte	0x1
 5019 02e6 02       		.byte	0x2
 5020 02e7 9D020000 		.4byte	.LASF40
 5021 02eb 14       		.uleb128 0x14
 5022 02ec 53020000 		.4byte	.LASF41
 5023 02f0 02       		.byte	0x2
 5024 02f1 B5       		.byte	0xb5
 5025 02f2 00000000 		.4byte	.LFB73
 5026 02f6 74000000 		.4byte	.LFE73-.LFB73
 5027 02fa 01       		.uleb128 0x1
 5028 02fb 9C       		.byte	0x9c
 5029 02fc 33030000 		.4byte	0x333
 5030 0300 0C       		.uleb128 0xc
 5031 0301 7800     		.ascii	"x\000"
 5032 0303 02       		.byte	0x2
ARM GAS  C:\Users\Petro\AppData\Local\Temp\ccxzvnq1.s 			page 106


 5033 0304 B5       		.byte	0xb5
 5034 0305 8C000000 		.4byte	0x8c
 5035 0309 02       		.uleb128 0x2
 5036 030a 91       		.byte	0x91
 5037 030b 6E       		.sleb128 -18
 5038 030c 0C       		.uleb128 0xc
 5039 030d 7900     		.ascii	"y\000"
 5040 030f 02       		.byte	0x2
 5041 0310 B5       		.byte	0xb5
 5042 0311 8C000000 		.4byte	0x8c
 5043 0315 02       		.uleb128 0x2
 5044 0316 91       		.byte	0x91
 5045 0317 6C       		.sleb128 -20
 5046 0318 10       		.uleb128 0x10
 5047 0319 627900   		.ascii	"by\000"
 5048 031c 02       		.byte	0x2
 5049 031d B7       		.byte	0xb7
 5050 031e 73000000 		.4byte	0x73
 5051 0322 02       		.uleb128 0x2
 5052 0323 91       		.byte	0x91
 5053 0324 74       		.sleb128 -12
 5054 0325 10       		.uleb128 0x10
 5055 0326 626900   		.ascii	"bi\000"
 5056 0329 02       		.byte	0x2
 5057 032a B7       		.byte	0xb7
 5058 032b 73000000 		.4byte	0x73
 5059 032f 02       		.uleb128 0x2
 5060 0330 91       		.byte	0x91
 5061 0331 70       		.sleb128 -16
 5062 0332 00       		.byte	0
 5063 0333 14       		.uleb128 0x14
 5064 0334 1D010000 		.4byte	.LASF42
 5065 0338 02       		.byte	0x2
 5066 0339 C2       		.byte	0xc2
 5067 033a 00000000 		.4byte	.LFB74
 5068 033e 78000000 		.4byte	.LFE74-.LFB74
 5069 0342 01       		.uleb128 0x1
 5070 0343 9C       		.byte	0x9c
 5071 0344 7B030000 		.4byte	0x37b
 5072 0348 0C       		.uleb128 0xc
 5073 0349 7800     		.ascii	"x\000"
 5074 034b 02       		.byte	0x2
 5075 034c C2       		.byte	0xc2
 5076 034d 8C000000 		.4byte	0x8c
 5077 0351 02       		.uleb128 0x2
 5078 0352 91       		.byte	0x91
 5079 0353 6E       		.sleb128 -18
 5080 0354 0C       		.uleb128 0xc
 5081 0355 7900     		.ascii	"y\000"
 5082 0357 02       		.byte	0x2
 5083 0358 C2       		.byte	0xc2
 5084 0359 8C000000 		.4byte	0x8c
 5085 035d 02       		.uleb128 0x2
 5086 035e 91       		.byte	0x91
 5087 035f 6C       		.sleb128 -20
 5088 0360 10       		.uleb128 0x10
 5089 0361 627900   		.ascii	"by\000"
ARM GAS  C:\Users\Petro\AppData\Local\Temp\ccxzvnq1.s 			page 107


 5090 0364 02       		.byte	0x2
 5091 0365 C4       		.byte	0xc4
 5092 0366 73000000 		.4byte	0x73
 5093 036a 02       		.uleb128 0x2
 5094 036b 91       		.byte	0x91
 5095 036c 74       		.sleb128 -12
 5096 036d 10       		.uleb128 0x10
 5097 036e 626900   		.ascii	"bi\000"
 5098 0371 02       		.byte	0x2
 5099 0372 C4       		.byte	0xc4
 5100 0373 73000000 		.4byte	0x73
 5101 0377 02       		.uleb128 0x2
 5102 0378 91       		.byte	0x91
 5103 0379 70       		.sleb128 -16
 5104 037a 00       		.byte	0
 5105 037b 14       		.uleb128 0x14
 5106 037c A9010000 		.4byte	.LASF43
 5107 0380 02       		.byte	0x2
 5108 0381 CF       		.byte	0xcf
 5109 0382 00000000 		.4byte	.LFB75
 5110 0386 B4000000 		.4byte	.LFE75-.LFB75
 5111 038a 01       		.uleb128 0x1
 5112 038b 9C       		.byte	0x9c
 5113 038c C3030000 		.4byte	0x3c3
 5114 0390 0C       		.uleb128 0xc
 5115 0391 7800     		.ascii	"x\000"
 5116 0393 02       		.byte	0x2
 5117 0394 CF       		.byte	0xcf
 5118 0395 8C000000 		.4byte	0x8c
 5119 0399 02       		.uleb128 0x2
 5120 039a 91       		.byte	0x91
 5121 039b 6E       		.sleb128 -18
 5122 039c 0C       		.uleb128 0xc
 5123 039d 7900     		.ascii	"y\000"
 5124 039f 02       		.byte	0x2
 5125 03a0 CF       		.byte	0xcf
 5126 03a1 8C000000 		.4byte	0x8c
 5127 03a5 02       		.uleb128 0x2
 5128 03a6 91       		.byte	0x91
 5129 03a7 6C       		.sleb128 -20
 5130 03a8 10       		.uleb128 0x10
 5131 03a9 627900   		.ascii	"by\000"
 5132 03ac 02       		.byte	0x2
 5133 03ad D1       		.byte	0xd1
 5134 03ae 73000000 		.4byte	0x73
 5135 03b2 02       		.uleb128 0x2
 5136 03b3 91       		.byte	0x91
 5137 03b4 74       		.sleb128 -12
 5138 03b5 10       		.uleb128 0x10
 5139 03b6 626900   		.ascii	"bi\000"
 5140 03b9 02       		.byte	0x2
 5141 03ba D1       		.byte	0xd1
 5142 03bb 73000000 		.4byte	0x73
 5143 03bf 02       		.uleb128 0x2
 5144 03c0 91       		.byte	0x91
 5145 03c1 70       		.sleb128 -16
 5146 03c2 00       		.byte	0
ARM GAS  C:\Users\Petro\AppData\Local\Temp\ccxzvnq1.s 			page 108


 5147 03c3 14       		.uleb128 0x14
 5148 03c4 4D000000 		.4byte	.LASF44
 5149 03c8 02       		.byte	0x2
 5150 03c9 DF       		.byte	0xdf
 5151 03ca 00000000 		.4byte	.LFB76
 5152 03ce 2C000000 		.4byte	.LFE76-.LFB76
 5153 03d2 01       		.uleb128 0x1
 5154 03d3 9C       		.byte	0x9c
 5155 03d4 E7030000 		.4byte	0x3e7
 5156 03d8 0D       		.uleb128 0xd
 5157 03d9 6B000000 		.4byte	.LASF30
 5158 03dd 02       		.byte	0x2
 5159 03de DF       		.byte	0xdf
 5160 03df E4020000 		.4byte	0x2e4
 5161 03e3 02       		.uleb128 0x2
 5162 03e4 91       		.byte	0x91
 5163 03e5 77       		.sleb128 -9
 5164 03e6 00       		.byte	0
 5165 03e7 0B       		.uleb128 0xb
 5166 03e8 F3020000 		.4byte	.LASF45
 5167 03ec 02       		.byte	0x2
 5168 03ed E7       		.byte	0xe7
 5169 03ee 00000000 		.4byte	.LFB77
 5170 03f2 98000000 		.4byte	.LFE77-.LFB77
 5171 03f6 01       		.uleb128 0x1
 5172 03f7 9C       		.byte	0x9c
 5173 03f8 48040000 		.4byte	0x448
 5174 03fc 0C       		.uleb128 0xc
 5175 03fd 737400   		.ascii	"st\000"
 5176 0400 02       		.byte	0x2
 5177 0401 E7       		.byte	0xe7
 5178 0402 BF000000 		.4byte	0xbf
 5179 0406 02       		.uleb128 0x2
 5180 0407 91       		.byte	0x91
 5181 0408 6C       		.sleb128 -20
 5182 0409 0C       		.uleb128 0xc
 5183 040a 7800     		.ascii	"x\000"
 5184 040c 02       		.byte	0x2
 5185 040d E7       		.byte	0xe7
 5186 040e 73000000 		.4byte	0x73
 5187 0412 02       		.uleb128 0x2
 5188 0413 91       		.byte	0x91
 5189 0414 68       		.sleb128 -24
 5190 0415 0C       		.uleb128 0xc
 5191 0416 7900     		.ascii	"y\000"
 5192 0418 02       		.byte	0x2
 5193 0419 E7       		.byte	0xe7
 5194 041a 73000000 		.4byte	0x73
 5195 041e 02       		.uleb128 0x2
 5196 041f 91       		.byte	0x91
 5197 0420 64       		.sleb128 -28
 5198 0421 15       		.uleb128 0x15
 5199 0422 636800   		.ascii	"ch\000"
 5200 0425 02       		.byte	0x2
 5201 0426 E9       		.byte	0xe9
 5202 0427 37000000 		.4byte	0x37
 5203 042b 10       		.uleb128 0x10
ARM GAS  C:\Users\Petro\AppData\Local\Temp\ccxzvnq1.s 			page 109


 5204 042c 73746C00 		.ascii	"stl\000"
 5205 0430 02       		.byte	0x2
 5206 0431 EA       		.byte	0xea
 5207 0432 73000000 		.4byte	0x73
 5208 0436 02       		.uleb128 0x2
 5209 0437 91       		.byte	0x91
 5210 0438 70       		.sleb128 -16
 5211 0439 10       		.uleb128 0x10
 5212 043a 636E7400 		.ascii	"cnt\000"
 5213 043e 02       		.byte	0x2
 5214 043f F2       		.byte	0xf2
 5215 0440 73000000 		.4byte	0x73
 5216 0444 02       		.uleb128 0x2
 5217 0445 91       		.byte	0x91
 5218 0446 74       		.sleb128 -12
 5219 0447 00       		.byte	0
 5220 0448 0B       		.uleb128 0xb
 5221 0449 AF020000 		.4byte	.LASF46
 5222 044d 02       		.byte	0x2
 5223 044e F7       		.byte	0xf7
 5224 044f 00000000 		.4byte	.LFB78
 5225 0453 22000000 		.4byte	.LFE78-.LFB78
 5226 0457 01       		.uleb128 0x1
 5227 0458 9C       		.byte	0x9c
 5228 0459 83040000 		.4byte	0x483
 5229 045d 0C       		.uleb128 0xc
 5230 045e 737400   		.ascii	"st\000"
 5231 0461 02       		.byte	0x2
 5232 0462 F7       		.byte	0xf7
 5233 0463 BF000000 		.4byte	0xbf
 5234 0467 02       		.uleb128 0x2
 5235 0468 91       		.byte	0x91
 5236 0469 74       		.sleb128 -12
 5237 046a 0C       		.uleb128 0xc
 5238 046b 7800     		.ascii	"x\000"
 5239 046d 02       		.byte	0x2
 5240 046e F7       		.byte	0xf7
 5241 046f 73000000 		.4byte	0x73
 5242 0473 02       		.uleb128 0x2
 5243 0474 91       		.byte	0x91
 5244 0475 70       		.sleb128 -16
 5245 0476 0C       		.uleb128 0xc
 5246 0477 7900     		.ascii	"y\000"
 5247 0479 02       		.byte	0x2
 5248 047a F7       		.byte	0xf7
 5249 047b 73000000 		.4byte	0x73
 5250 047f 02       		.uleb128 0x2
 5251 0480 91       		.byte	0x91
 5252 0481 6C       		.sleb128 -20
 5253 0482 00       		.byte	0
 5254 0483 0B       		.uleb128 0xb
 5255 0484 D4020000 		.4byte	.LASF47
 5256 0488 02       		.byte	0x2
 5257 0489 FF       		.byte	0xff
 5258 048a 00000000 		.4byte	.LFB79
 5259 048e A8010000 		.4byte	.LFE79-.LFB79
 5260 0492 01       		.uleb128 0x1
ARM GAS  C:\Users\Petro\AppData\Local\Temp\ccxzvnq1.s 			page 110


 5261 0493 9C       		.byte	0x9c
 5262 0494 54050000 		.4byte	0x554
 5263 0498 0C       		.uleb128 0xc
 5264 0499 6E756D00 		.ascii	"num\000"
 5265 049d 02       		.byte	0x2
 5266 049e FF       		.byte	0xff
 5267 049f 57000000 		.4byte	0x57
 5268 04a3 03       		.uleb128 0x3
 5269 04a4 91       		.byte	0x91
 5270 04a5 A47F     		.sleb128 -92
 5271 04a7 0C       		.uleb128 0xc
 5272 04a8 7800     		.ascii	"x\000"
 5273 04aa 02       		.byte	0x2
 5274 04ab FF       		.byte	0xff
 5275 04ac 73000000 		.4byte	0x73
 5276 04b0 03       		.uleb128 0x3
 5277 04b1 91       		.byte	0x91
 5278 04b2 A07F     		.sleb128 -96
 5279 04b4 0C       		.uleb128 0xc
 5280 04b5 7900     		.ascii	"y\000"
 5281 04b7 02       		.byte	0x2
 5282 04b8 FF       		.byte	0xff
 5283 04b9 73000000 		.4byte	0x73
 5284 04bd 03       		.uleb128 0x3
 5285 04be 91       		.byte	0x91
 5286 04bf 9C7F     		.sleb128 -100
 5287 04c1 0D       		.uleb128 0xd
 5288 04c2 CA010000 		.4byte	.LASF48
 5289 04c6 02       		.byte	0x2
 5290 04c7 FF       		.byte	0xff
 5291 04c8 73000000 		.4byte	0x73
 5292 04cc 03       		.uleb128 0x3
 5293 04cd 91       		.byte	0x91
 5294 04ce 987F     		.sleb128 -104
 5295 04d0 0D       		.uleb128 0xd
 5296 04d1 F9020000 		.4byte	.LASF49
 5297 04d5 02       		.byte	0x2
 5298 04d6 FF       		.byte	0xff
 5299 04d7 B1000000 		.4byte	0xb1
 5300 04db 02       		.uleb128 0x2
 5301 04dc 91       		.byte	0x91
 5302 04dd 00       		.sleb128 0
 5303 04de 16       		.uleb128 0x16
 5304 04df 62756600 		.ascii	"buf\000"
 5305 04e3 02       		.byte	0x2
 5306 04e4 0101     		.2byte	0x101
 5307 04e6 C5000000 		.4byte	0xc5
 5308 04ea 02       		.uleb128 0x2
 5309 04eb 91       		.byte	0x91
 5310 04ec 48       		.sleb128 -56
 5311 04ed 16       		.uleb128 0x16
 5312 04ee 737400   		.ascii	"st\000"
 5313 04f1 02       		.byte	0x2
 5314 04f2 0201     		.2byte	0x102
 5315 04f4 54050000 		.4byte	0x554
 5316 04f8 03       		.uleb128 0x3
 5317 04f9 91       		.byte	0x91
ARM GAS  C:\Users\Petro\AppData\Local\Temp\ccxzvnq1.s 			page 111


 5318 04fa AC7F     		.sleb128 -84
 5319 04fc 16       		.uleb128 0x16
 5320 04fd 6E656700 		.ascii	"neg\000"
 5321 0501 02       		.byte	0x2
 5322 0502 0301     		.2byte	0x103
 5323 0504 E4020000 		.4byte	0x2e4
 5324 0508 02       		.uleb128 0x2
 5325 0509 91       		.byte	0x91
 5326 050a 77       		.sleb128 -9
 5327 050b 16       		.uleb128 0x16
 5328 050c 6300     		.ascii	"c\000"
 5329 050e 02       		.byte	0x2
 5330 050f 0401     		.2byte	0x104
 5331 0511 73000000 		.4byte	0x73
 5332 0515 02       		.uleb128 0x2
 5333 0516 91       		.byte	0x91
 5334 0517 70       		.sleb128 -16
 5335 0518 16       		.uleb128 0x16
 5336 0519 6600     		.ascii	"f\000"
 5337 051b 02       		.byte	0x2
 5338 051c 0401     		.2byte	0x104
 5339 051e 73000000 		.4byte	0x73
 5340 0522 02       		.uleb128 0x2
 5341 0523 91       		.byte	0x91
 5342 0524 6C       		.sleb128 -20
 5343 0525 12       		.uleb128 0x12
 5344 0526 7C000000 		.4byte	.LBB3
 5345 052a 14010000 		.4byte	.LBE3-.LBB3
 5346 052e 16       		.uleb128 0x16
 5347 052f 6900     		.ascii	"i\000"
 5348 0531 02       		.byte	0x2
 5349 0532 3401     		.2byte	0x134
 5350 0534 73000000 		.4byte	0x73
 5351 0538 02       		.uleb128 0x2
 5352 0539 91       		.byte	0x91
 5353 053a 64       		.sleb128 -28
 5354 053b 12       		.uleb128 0x12
 5355 053c 08010000 		.4byte	.LBB4
 5356 0540 3C000000 		.4byte	.LBE4-.LBB4
 5357 0544 16       		.uleb128 0x16
 5358 0545 6900     		.ascii	"i\000"
 5359 0547 02       		.byte	0x2
 5360 0548 2C01     		.2byte	0x12c
 5361 054a 73000000 		.4byte	0x73
 5362 054e 02       		.uleb128 0x2
 5363 054f 91       		.byte	0x91
 5364 0550 68       		.sleb128 -24
 5365 0551 00       		.byte	0
 5366 0552 00       		.byte	0
 5367 0553 00       		.byte	0
 5368 0554 07       		.uleb128 0x7
 5369 0555 B1000000 		.4byte	0xb1
 5370 0559 64050000 		.4byte	0x564
 5371 055d 08       		.uleb128 0x8
 5372 055e B8000000 		.4byte	0xb8
 5373 0562 1A       		.byte	0x1a
 5374 0563 00       		.byte	0
ARM GAS  C:\Users\Petro\AppData\Local\Temp\ccxzvnq1.s 			page 112


 5375 0564 17       		.uleb128 0x17
 5376 0565 CA020000 		.4byte	.LASF50
 5377 0569 02       		.byte	0x2
 5378 056a 4001     		.2byte	0x140
 5379 056c 00000000 		.4byte	.LFB80
 5380 0570 54010000 		.4byte	.LFE80-.LFB80
 5381 0574 01       		.uleb128 0x1
 5382 0575 9C       		.byte	0x9c
 5383 0576 5C060000 		.4byte	0x65c
 5384 057a 18       		.uleb128 0x18
 5385 057b 6E756D00 		.ascii	"num\000"
 5386 057f 02       		.byte	0x2
 5387 0580 4001     		.2byte	0x140
 5388 0582 AA000000 		.4byte	0xaa
 5389 0586 03       		.uleb128 0x3
 5390 0587 91       		.byte	0x91
 5391 0588 B87F     		.sleb128 -72
 5392 058a 18       		.uleb128 0x18
 5393 058b 64656300 		.ascii	"dec\000"
 5394 058f 02       		.byte	0x2
 5395 0590 4001     		.2byte	0x140
 5396 0592 97000000 		.4byte	0x97
 5397 0596 03       		.uleb128 0x3
 5398 0597 91       		.byte	0x91
 5399 0598 B77F     		.sleb128 -73
 5400 059a 18       		.uleb128 0x18
 5401 059b 7800     		.ascii	"x\000"
 5402 059d 02       		.byte	0x2
 5403 059e 4001     		.2byte	0x140
 5404 05a0 73000000 		.4byte	0x73
 5405 05a4 03       		.uleb128 0x3
 5406 05a5 91       		.byte	0x91
 5407 05a6 B07F     		.sleb128 -80
 5408 05a8 18       		.uleb128 0x18
 5409 05a9 7900     		.ascii	"y\000"
 5410 05ab 02       		.byte	0x2
 5411 05ac 4001     		.2byte	0x140
 5412 05ae 73000000 		.4byte	0x73
 5413 05b2 02       		.uleb128 0x2
 5414 05b3 91       		.byte	0x91
 5415 05b4 00       		.sleb128 0
 5416 05b5 19       		.uleb128 0x19
 5417 05b6 D9030000 		.4byte	.LASF51
 5418 05ba 02       		.byte	0x2
 5419 05bb 4001     		.2byte	0x140
 5420 05bd B1000000 		.4byte	0xb1
 5421 05c1 02       		.uleb128 0x2
 5422 05c2 91       		.byte	0x91
 5423 05c3 04       		.sleb128 4
 5424 05c4 19       		.uleb128 0x19
 5425 05c5 CA010000 		.4byte	.LASF48
 5426 05c9 02       		.byte	0x2
 5427 05ca 4001     		.2byte	0x140
 5428 05cc 73000000 		.4byte	0x73
 5429 05d0 02       		.uleb128 0x2
 5430 05d1 91       		.byte	0x91
 5431 05d2 08       		.sleb128 8
ARM GAS  C:\Users\Petro\AppData\Local\Temp\ccxzvnq1.s 			page 113


 5432 05d3 19       		.uleb128 0x19
 5433 05d4 F9020000 		.4byte	.LASF49
 5434 05d8 02       		.byte	0x2
 5435 05d9 4001     		.2byte	0x140
 5436 05db B1000000 		.4byte	0xb1
 5437 05df 02       		.uleb128 0x2
 5438 05e0 91       		.byte	0x91
 5439 05e1 0C       		.sleb128 12
 5440 05e2 16       		.uleb128 0x16
 5441 05e3 737400   		.ascii	"st\000"
 5442 05e6 02       		.byte	0x2
 5443 05e7 4201     		.2byte	0x142
 5444 05e9 54050000 		.4byte	0x554
 5445 05ed 02       		.uleb128 0x2
 5446 05ee 91       		.byte	0x91
 5447 05ef 44       		.sleb128 -60
 5448 05f0 1A       		.uleb128 0x1a
 5449 05f1 DE020000 		.4byte	.LASF52
 5450 05f5 02       		.byte	0x2
 5451 05f6 4301     		.2byte	0x143
 5452 05f8 81000000 		.4byte	0x81
 5453 05fc 02       		.uleb128 0x2
 5454 05fd 91       		.byte	0x91
 5455 05fe 5F       		.sleb128 -33
 5456 05ff 16       		.uleb128 0x16
 5457 0600 6E656700 		.ascii	"neg\000"
 5458 0604 02       		.byte	0x2
 5459 0605 4401     		.2byte	0x144
 5460 0607 E4020000 		.4byte	0x2e4
 5461 060b 02       		.uleb128 0x2
 5462 060c 91       		.byte	0x91
 5463 060d 6F       		.sleb128 -17
 5464 060e 1B       		.uleb128 0x1b
 5465 060f 56000000 		.4byte	.LBB5
 5466 0613 3E000000 		.4byte	.LBE5-.LBB5
 5467 0617 29060000 		.4byte	0x629
 5468 061b 16       		.uleb128 0x16
 5469 061c 6900     		.ascii	"i\000"
 5470 061e 02       		.byte	0x2
 5471 061f 4E01     		.2byte	0x14e
 5472 0621 73000000 		.4byte	0x73
 5473 0625 02       		.uleb128 0x2
 5474 0626 91       		.byte	0x91
 5475 0627 68       		.sleb128 -24
 5476 0628 00       		.byte	0
 5477 0629 1B       		.uleb128 0x1b
 5478 062a A8000000 		.4byte	.LBB6
 5479 062e 54000000 		.4byte	.LBE6-.LBB6
 5480 0632 44060000 		.4byte	0x644
 5481 0636 16       		.uleb128 0x16
 5482 0637 6900     		.ascii	"i\000"
 5483 0639 02       		.byte	0x2
 5484 063a 5A01     		.2byte	0x15a
 5485 063c 73000000 		.4byte	0x73
 5486 0640 02       		.uleb128 0x2
 5487 0641 91       		.byte	0x91
 5488 0642 64       		.sleb128 -28
ARM GAS  C:\Users\Petro\AppData\Local\Temp\ccxzvnq1.s 			page 114


 5489 0643 00       		.byte	0
 5490 0644 12       		.uleb128 0x12
 5491 0645 FE000000 		.4byte	.LBB7
 5492 0649 3E000000 		.4byte	.LBE7-.LBB7
 5493 064d 16       		.uleb128 0x16
 5494 064e 6900     		.ascii	"i\000"
 5495 0650 02       		.byte	0x2
 5496 0651 6201     		.2byte	0x162
 5497 0653 73000000 		.4byte	0x73
 5498 0657 02       		.uleb128 0x2
 5499 0658 91       		.byte	0x91
 5500 0659 60       		.sleb128 -32
 5501 065a 00       		.byte	0
 5502 065b 00       		.byte	0
 5503 065c 17       		.uleb128 0x17
 5504 065d 38010000 		.4byte	.LASF53
 5505 0661 02       		.byte	0x2
 5506 0662 6C01     		.2byte	0x16c
 5507 0664 00000000 		.4byte	.LFB81
 5508 0668 B4020000 		.4byte	.LFE81-.LFB81
 5509 066c 01       		.uleb128 0x1
 5510 066d 9C       		.byte	0x9c
 5511 066e 53070000 		.4byte	0x753
 5512 0672 18       		.uleb128 0x18
 5513 0673 6300     		.ascii	"c\000"
 5514 0675 02       		.byte	0x2
 5515 0676 6C01     		.2byte	0x16c
 5516 0678 37000000 		.4byte	0x37
 5517 067c 02       		.uleb128 0x2
 5518 067d 91       		.byte	0x91
 5519 067e 4F       		.sleb128 -49
 5520 067f 18       		.uleb128 0x18
 5521 0680 7800     		.ascii	"x\000"
 5522 0682 02       		.byte	0x2
 5523 0683 6C01     		.2byte	0x16c
 5524 0685 73000000 		.4byte	0x73
 5525 0689 02       		.uleb128 0x2
 5526 068a 91       		.byte	0x91
 5527 068b 48       		.sleb128 -56
 5528 068c 18       		.uleb128 0x18
 5529 068d 7900     		.ascii	"y\000"
 5530 068f 02       		.byte	0x2
 5531 0690 6C01     		.2byte	0x16c
 5532 0692 73000000 		.4byte	0x73
 5533 0696 02       		.uleb128 0x2
 5534 0697 91       		.byte	0x91
 5535 0698 44       		.sleb128 -60
 5536 0699 1B       		.uleb128 0x1b
 5537 069a 22000000 		.4byte	.LBB8
 5538 069e 5A010000 		.4byte	.LBE8-.LBB8
 5539 06a2 F5060000 		.4byte	0x6f5
 5540 06a6 1A       		.uleb128 0x1a
 5541 06a7 00000000 		.4byte	.LASF54
 5542 06ab 02       		.byte	0x2
 5543 06ac 7001     		.2byte	0x170
 5544 06ae 73000000 		.4byte	0x73
 5545 06b2 02       		.uleb128 0x2
ARM GAS  C:\Users\Petro\AppData\Local\Temp\ccxzvnq1.s 			page 115


 5546 06b3 91       		.byte	0x91
 5547 06b4 54       		.sleb128 -44
 5548 06b5 1A       		.uleb128 0x1a
 5549 06b6 70000000 		.4byte	.LASF55
 5550 06ba 02       		.byte	0x2
 5551 06bb 7101     		.2byte	0x171
 5552 06bd 73000000 		.4byte	0x73
 5553 06c1 02       		.uleb128 0x2
 5554 06c2 91       		.byte	0x91
 5555 06c3 74       		.sleb128 -12
 5556 06c4 12       		.uleb128 0x12
 5557 06c5 4A000000 		.4byte	.LBB9
 5558 06c9 1A010000 		.4byte	.LBE9-.LBB9
 5559 06cd 16       		.uleb128 0x16
 5560 06ce 636E7400 		.ascii	"cnt\000"
 5561 06d2 02       		.byte	0x2
 5562 06d3 7401     		.2byte	0x174
 5563 06d5 73000000 		.4byte	0x73
 5564 06d9 02       		.uleb128 0x2
 5565 06da 91       		.byte	0x91
 5566 06db 70       		.sleb128 -16
 5567 06dc 12       		.uleb128 0x12
 5568 06dd 50000000 		.4byte	.LBB10
 5569 06e1 00010000 		.4byte	.LBE10-.LBB10
 5570 06e5 16       		.uleb128 0x16
 5571 06e6 6200     		.ascii	"b\000"
 5572 06e8 02       		.byte	0x2
 5573 06e9 7701     		.2byte	0x177
 5574 06eb 73000000 		.4byte	0x73
 5575 06ef 02       		.uleb128 0x2
 5576 06f0 91       		.byte	0x91
 5577 06f1 6C       		.sleb128 -20
 5578 06f2 00       		.byte	0
 5579 06f3 00       		.byte	0
 5580 06f4 00       		.byte	0
 5581 06f5 12       		.uleb128 0x12
 5582 06f6 7E010000 		.4byte	.LBB11
 5583 06fa 2C010000 		.4byte	.LBE11-.LBB11
 5584 06fe 1A       		.uleb128 0x1a
 5585 06ff 00000000 		.4byte	.LASF54
 5586 0703 02       		.byte	0x2
 5587 0704 8801     		.2byte	0x188
 5588 0706 73000000 		.4byte	0x73
 5589 070a 02       		.uleb128 0x2
 5590 070b 91       		.byte	0x91
 5591 070c 68       		.sleb128 -24
 5592 070d 1A       		.uleb128 0x1a
 5593 070e 02020000 		.4byte	.LASF56
 5594 0712 02       		.byte	0x2
 5595 0713 8901     		.2byte	0x189
 5596 0715 73000000 		.4byte	0x73
 5597 0719 02       		.uleb128 0x2
 5598 071a 91       		.byte	0x91
 5599 071b 64       		.sleb128 -28
 5600 071c 1A       		.uleb128 0x1a
 5601 071d 8C000000 		.4byte	.LASF57
 5602 0721 02       		.byte	0x2
ARM GAS  C:\Users\Petro\AppData\Local\Temp\ccxzvnq1.s 			page 116


 5603 0722 8A01     		.2byte	0x18a
 5604 0724 73000000 		.4byte	0x73
 5605 0728 02       		.uleb128 0x2
 5606 0729 91       		.byte	0x91
 5607 072a 60       		.sleb128 -32
 5608 072b 16       		.uleb128 0x16
 5609 072c 637800   		.ascii	"cx\000"
 5610 072f 02       		.byte	0x2
 5611 0730 8B01     		.2byte	0x18b
 5612 0732 73000000 		.4byte	0x73
 5613 0736 02       		.uleb128 0x2
 5614 0737 91       		.byte	0x91
 5615 0738 5C       		.sleb128 -36
 5616 0739 12       		.uleb128 0x12
 5617 073a BA010000 		.4byte	.LBB12
 5618 073e DE000000 		.4byte	.LBE12-.LBB12
 5619 0742 16       		.uleb128 0x16
 5620 0743 637900   		.ascii	"cy\000"
 5621 0746 02       		.byte	0x2
 5622 0747 8E01     		.2byte	0x18e
 5623 0749 73000000 		.4byte	0x73
 5624 074d 02       		.uleb128 0x2
 5625 074e 91       		.byte	0x91
 5626 074f 58       		.sleb128 -40
 5627 0750 00       		.byte	0
 5628 0751 00       		.byte	0
 5629 0752 00       		.byte	0
 5630 0753 1C       		.uleb128 0x1c
 5631 0754 FA010000 		.4byte	.LASF58
 5632 0758 02       		.byte	0x2
 5633 0759 A701     		.2byte	0x1a7
 5634 075b 00000000 		.4byte	.LFB82
 5635 075f 48000000 		.4byte	.LFE82-.LFB82
 5636 0763 01       		.uleb128 0x1
 5637 0764 9C       		.byte	0x9c
 5638 0765 79070000 		.4byte	0x779
 5639 0769 19       		.uleb128 0x19
 5640 076a 66000000 		.4byte	.LASF18
 5641 076e 02       		.byte	0x2
 5642 076f A701     		.2byte	0x1a7
 5643 0771 26010000 		.4byte	0x126
 5644 0775 02       		.uleb128 0x2
 5645 0776 91       		.byte	0x91
 5646 0777 74       		.sleb128 -12
 5647 0778 00       		.byte	0
 5648 0779 1C       		.uleb128 0x1c
 5649 077a 02010000 		.4byte	.LASF59
 5650 077e 02       		.byte	0x2
 5651 077f B101     		.2byte	0x1b1
 5652 0781 00000000 		.4byte	.LFB83
 5653 0785 98000000 		.4byte	.LFE83-.LFB83
 5654 0789 01       		.uleb128 0x1
 5655 078a 9C       		.byte	0x9c
 5656 078b EB070000 		.4byte	0x7eb
 5657 078f 18       		.uleb128 0x18
 5658 0790 7800     		.ascii	"x\000"
 5659 0792 02       		.byte	0x2
ARM GAS  C:\Users\Petro\AppData\Local\Temp\ccxzvnq1.s 			page 117


 5660 0793 B101     		.2byte	0x1b1
 5661 0795 73000000 		.4byte	0x73
 5662 0799 02       		.uleb128 0x2
 5663 079a 91       		.byte	0x91
 5664 079b 64       		.sleb128 -28
 5665 079c 18       		.uleb128 0x18
 5666 079d 7900     		.ascii	"y\000"
 5667 079f 02       		.byte	0x2
 5668 07a0 B101     		.2byte	0x1b1
 5669 07a2 73000000 		.4byte	0x73
 5670 07a6 02       		.uleb128 0x2
 5671 07a7 91       		.byte	0x91
 5672 07a8 60       		.sleb128 -32
 5673 07a9 18       		.uleb128 0x18
 5674 07aa 6C00     		.ascii	"l\000"
 5675 07ac 02       		.byte	0x2
 5676 07ad B101     		.2byte	0x1b1
 5677 07af 73000000 		.4byte	0x73
 5678 07b3 02       		.uleb128 0x2
 5679 07b4 91       		.byte	0x91
 5680 07b5 5C       		.sleb128 -36
 5681 07b6 16       		.uleb128 0x16
 5682 07b7 627900   		.ascii	"by\000"
 5683 07ba 02       		.byte	0x2
 5684 07bb B301     		.2byte	0x1b3
 5685 07bd 73000000 		.4byte	0x73
 5686 07c1 02       		.uleb128 0x2
 5687 07c2 91       		.byte	0x91
 5688 07c3 70       		.sleb128 -16
 5689 07c4 16       		.uleb128 0x16
 5690 07c5 626900   		.ascii	"bi\000"
 5691 07c8 02       		.byte	0x2
 5692 07c9 B301     		.2byte	0x1b3
 5693 07cb 73000000 		.4byte	0x73
 5694 07cf 02       		.uleb128 0x2
 5695 07d0 91       		.byte	0x91
 5696 07d1 6C       		.sleb128 -20
 5697 07d2 12       		.uleb128 0x12
 5698 07d3 24000000 		.4byte	.LBB13
 5699 07d7 66000000 		.4byte	.LBE13-.LBB13
 5700 07db 16       		.uleb128 0x16
 5701 07dc 637800   		.ascii	"cx\000"
 5702 07df 02       		.byte	0x2
 5703 07e0 B701     		.2byte	0x1b7
 5704 07e2 73000000 		.4byte	0x73
 5705 07e6 02       		.uleb128 0x2
 5706 07e7 91       		.byte	0x91
 5707 07e8 74       		.sleb128 -12
 5708 07e9 00       		.byte	0
 5709 07ea 00       		.byte	0
 5710 07eb 1C       		.uleb128 0x1c
 5711 07ec 1D000000 		.4byte	.LASF60
 5712 07f0 02       		.byte	0x2
 5713 07f1 C201     		.2byte	0x1c2
 5714 07f3 00000000 		.4byte	.LFB84
 5715 07f7 9C000000 		.4byte	.LFE84-.LFB84
 5716 07fb 01       		.uleb128 0x1
ARM GAS  C:\Users\Petro\AppData\Local\Temp\ccxzvnq1.s 			page 118


 5717 07fc 9C       		.byte	0x9c
 5718 07fd 5D080000 		.4byte	0x85d
 5719 0801 18       		.uleb128 0x18
 5720 0802 7800     		.ascii	"x\000"
 5721 0804 02       		.byte	0x2
 5722 0805 C201     		.2byte	0x1c2
 5723 0807 73000000 		.4byte	0x73
 5724 080b 02       		.uleb128 0x2
 5725 080c 91       		.byte	0x91
 5726 080d 64       		.sleb128 -28
 5727 080e 18       		.uleb128 0x18
 5728 080f 7900     		.ascii	"y\000"
 5729 0811 02       		.byte	0x2
 5730 0812 C201     		.2byte	0x1c2
 5731 0814 73000000 		.4byte	0x73
 5732 0818 02       		.uleb128 0x2
 5733 0819 91       		.byte	0x91
 5734 081a 60       		.sleb128 -32
 5735 081b 18       		.uleb128 0x18
 5736 081c 6C00     		.ascii	"l\000"
 5737 081e 02       		.byte	0x2
 5738 081f C201     		.2byte	0x1c2
 5739 0821 73000000 		.4byte	0x73
 5740 0825 02       		.uleb128 0x2
 5741 0826 91       		.byte	0x91
 5742 0827 5C       		.sleb128 -36
 5743 0828 16       		.uleb128 0x16
 5744 0829 627900   		.ascii	"by\000"
 5745 082c 02       		.byte	0x2
 5746 082d C401     		.2byte	0x1c4
 5747 082f 73000000 		.4byte	0x73
 5748 0833 02       		.uleb128 0x2
 5749 0834 91       		.byte	0x91
 5750 0835 70       		.sleb128 -16
 5751 0836 16       		.uleb128 0x16
 5752 0837 626900   		.ascii	"bi\000"
 5753 083a 02       		.byte	0x2
 5754 083b C401     		.2byte	0x1c4
 5755 083d 73000000 		.4byte	0x73
 5756 0841 02       		.uleb128 0x2
 5757 0842 91       		.byte	0x91
 5758 0843 6C       		.sleb128 -20
 5759 0844 12       		.uleb128 0x12
 5760 0845 24000000 		.4byte	.LBB14
 5761 0849 6A000000 		.4byte	.LBE14-.LBB14
 5762 084d 16       		.uleb128 0x16
 5763 084e 637800   		.ascii	"cx\000"
 5764 0851 02       		.byte	0x2
 5765 0852 C801     		.2byte	0x1c8
 5766 0854 73000000 		.4byte	0x73
 5767 0858 02       		.uleb128 0x2
 5768 0859 91       		.byte	0x91
 5769 085a 74       		.sleb128 -12
 5770 085b 00       		.byte	0
 5771 085c 00       		.byte	0
 5772 085d 17       		.uleb128 0x17
 5773 085e 77000000 		.4byte	.LASF61
ARM GAS  C:\Users\Petro\AppData\Local\Temp\ccxzvnq1.s 			page 119


 5774 0862 02       		.byte	0x2
 5775 0863 D301     		.2byte	0x1d3
 5776 0865 00000000 		.4byte	.LFB85
 5777 0869 56000000 		.4byte	.LFE85-.LFB85
 5778 086d 01       		.uleb128 0x1
 5779 086e 9C       		.byte	0x9c
 5780 086f C9080000 		.4byte	0x8c9
 5781 0873 18       		.uleb128 0x18
 5782 0874 7800     		.ascii	"x\000"
 5783 0876 02       		.byte	0x2
 5784 0877 D301     		.2byte	0x1d3
 5785 0879 73000000 		.4byte	0x73
 5786 087d 02       		.uleb128 0x2
 5787 087e 91       		.byte	0x91
 5788 087f 6C       		.sleb128 -20
 5789 0880 18       		.uleb128 0x18
 5790 0881 7900     		.ascii	"y\000"
 5791 0883 02       		.byte	0x2
 5792 0884 D301     		.2byte	0x1d3
 5793 0886 73000000 		.4byte	0x73
 5794 088a 02       		.uleb128 0x2
 5795 088b 91       		.byte	0x91
 5796 088c 68       		.sleb128 -24
 5797 088d 18       		.uleb128 0x18
 5798 088e 6C00     		.ascii	"l\000"
 5799 0890 02       		.byte	0x2
 5800 0891 D301     		.2byte	0x1d3
 5801 0893 73000000 		.4byte	0x73
 5802 0897 02       		.uleb128 0x2
 5803 0898 91       		.byte	0x91
 5804 0899 64       		.sleb128 -28
 5805 089a 1D       		.uleb128 0x1d
 5806 089b 627900   		.ascii	"by\000"
 5807 089e 02       		.byte	0x2
 5808 089f D501     		.2byte	0x1d5
 5809 08a1 73000000 		.4byte	0x73
 5810 08a5 1D       		.uleb128 0x1d
 5811 08a6 626900   		.ascii	"bi\000"
 5812 08a9 02       		.byte	0x2
 5813 08aa D501     		.2byte	0x1d5
 5814 08ac 73000000 		.4byte	0x73
 5815 08b0 12       		.uleb128 0x12
 5816 08b1 24000000 		.4byte	.LBB15
 5817 08b5 2C000000 		.4byte	.LBE15-.LBB15
 5818 08b9 16       		.uleb128 0x16
 5819 08ba 637900   		.ascii	"cy\000"
 5820 08bd 02       		.byte	0x2
 5821 08be D901     		.2byte	0x1d9
 5822 08c0 73000000 		.4byte	0x73
 5823 08c4 02       		.uleb128 0x2
 5824 08c5 91       		.byte	0x91
 5825 08c6 74       		.sleb128 -12
 5826 08c7 00       		.byte	0
 5827 08c8 00       		.byte	0
 5828 08c9 17       		.uleb128 0x17
 5829 08ca E1030000 		.4byte	.LASF62
 5830 08ce 02       		.byte	0x2
ARM GAS  C:\Users\Petro\AppData\Local\Temp\ccxzvnq1.s 			page 120


 5831 08cf E101     		.2byte	0x1e1
 5832 08d1 00000000 		.4byte	.LFB86
 5833 08d5 56000000 		.4byte	.LFE86-.LFB86
 5834 08d9 01       		.uleb128 0x1
 5835 08da 9C       		.byte	0x9c
 5836 08db 35090000 		.4byte	0x935
 5837 08df 18       		.uleb128 0x18
 5838 08e0 7800     		.ascii	"x\000"
 5839 08e2 02       		.byte	0x2
 5840 08e3 E101     		.2byte	0x1e1
 5841 08e5 73000000 		.4byte	0x73
 5842 08e9 02       		.uleb128 0x2
 5843 08ea 91       		.byte	0x91
 5844 08eb 6C       		.sleb128 -20
 5845 08ec 18       		.uleb128 0x18
 5846 08ed 7900     		.ascii	"y\000"
 5847 08ef 02       		.byte	0x2
 5848 08f0 E101     		.2byte	0x1e1
 5849 08f2 73000000 		.4byte	0x73
 5850 08f6 02       		.uleb128 0x2
 5851 08f7 91       		.byte	0x91
 5852 08f8 68       		.sleb128 -24
 5853 08f9 18       		.uleb128 0x18
 5854 08fa 6C00     		.ascii	"l\000"
 5855 08fc 02       		.byte	0x2
 5856 08fd E101     		.2byte	0x1e1
 5857 08ff 73000000 		.4byte	0x73
 5858 0903 02       		.uleb128 0x2
 5859 0904 91       		.byte	0x91
 5860 0905 64       		.sleb128 -28
 5861 0906 1D       		.uleb128 0x1d
 5862 0907 627900   		.ascii	"by\000"
 5863 090a 02       		.byte	0x2
 5864 090b E301     		.2byte	0x1e3
 5865 090d 73000000 		.4byte	0x73
 5866 0911 1D       		.uleb128 0x1d
 5867 0912 626900   		.ascii	"bi\000"
 5868 0915 02       		.byte	0x2
 5869 0916 E301     		.2byte	0x1e3
 5870 0918 73000000 		.4byte	0x73
 5871 091c 12       		.uleb128 0x12
 5872 091d 24000000 		.4byte	.LBB16
 5873 0921 2C000000 		.4byte	.LBE16-.LBB16
 5874 0925 16       		.uleb128 0x16
 5875 0926 637900   		.ascii	"cy\000"
 5876 0929 02       		.byte	0x2
 5877 092a E701     		.2byte	0x1e7
 5878 092c 73000000 		.4byte	0x73
 5879 0930 02       		.uleb128 0x2
 5880 0931 91       		.byte	0x91
 5881 0932 74       		.sleb128 -12
 5882 0933 00       		.byte	0
 5883 0934 00       		.byte	0
 5884 0935 17       		.uleb128 0x17
 5885 0936 0C010000 		.4byte	.LASF63
 5886 093a 02       		.byte	0x2
 5887 093b EF01     		.2byte	0x1ef
ARM GAS  C:\Users\Petro\AppData\Local\Temp\ccxzvnq1.s 			page 121


 5888 093d 00000000 		.4byte	.LFB87
 5889 0941 C0020000 		.4byte	.LFE87-.LFB87
 5890 0945 01       		.uleb128 0x1
 5891 0946 9C       		.byte	0x9c
 5892 0947 550A0000 		.4byte	0xa55
 5893 094b 18       		.uleb128 0x18
 5894 094c 783100   		.ascii	"x1\000"
 5895 094f 02       		.byte	0x2
 5896 0950 EF01     		.2byte	0x1ef
 5897 0952 73000000 		.4byte	0x73
 5898 0956 03       		.uleb128 0x3
 5899 0957 91       		.byte	0x91
 5900 0958 B47F     		.sleb128 -76
 5901 095a 18       		.uleb128 0x18
 5902 095b 793100   		.ascii	"y1\000"
 5903 095e 02       		.byte	0x2
 5904 095f EF01     		.2byte	0x1ef
 5905 0961 73000000 		.4byte	0x73
 5906 0965 03       		.uleb128 0x3
 5907 0966 91       		.byte	0x91
 5908 0967 B07F     		.sleb128 -80
 5909 0969 18       		.uleb128 0x18
 5910 096a 783200   		.ascii	"x2\000"
 5911 096d 02       		.byte	0x2
 5912 096e EF01     		.2byte	0x1ef
 5913 0970 73000000 		.4byte	0x73
 5914 0974 03       		.uleb128 0x3
 5915 0975 91       		.byte	0x91
 5916 0976 AC7F     		.sleb128 -84
 5917 0978 18       		.uleb128 0x18
 5918 0979 793200   		.ascii	"y2\000"
 5919 097c 02       		.byte	0x2
 5920 097d EF01     		.2byte	0x1ef
 5921 097f 73000000 		.4byte	0x73
 5922 0983 03       		.uleb128 0x3
 5923 0984 91       		.byte	0x91
 5924 0985 A87F     		.sleb128 -88
 5925 0987 16       		.uleb128 0x16
 5926 0988 746D7000 		.ascii	"tmp\000"
 5927 098c 02       		.byte	0x2
 5928 098d F101     		.2byte	0x1f1
 5929 098f 73000000 		.4byte	0x73
 5930 0993 02       		.uleb128 0x2
 5931 0994 91       		.byte	0x91
 5932 0995 44       		.sleb128 -60
 5933 0996 1A       		.uleb128 0x1a
 5934 0997 91000000 		.4byte	.LASF64
 5935 099b 02       		.byte	0x2
 5936 099c F201     		.2byte	0x1f2
 5937 099e AA000000 		.4byte	0xaa
 5938 09a2 03       		.uleb128 0x3
 5939 09a3 91       		.byte	0x91
 5940 09a4 B87F     		.sleb128 -72
 5941 09a6 16       		.uleb128 0x16
 5942 09a7 747800   		.ascii	"tx\000"
 5943 09aa 02       		.byte	0x2
 5944 09ab F201     		.2byte	0x1f2
ARM GAS  C:\Users\Petro\AppData\Local\Temp\ccxzvnq1.s 			page 122


 5945 09ad AA000000 		.4byte	0xaa
 5946 09b1 02       		.uleb128 0x2
 5947 09b2 91       		.byte	0x91
 5948 09b3 60       		.sleb128 -32
 5949 09b4 16       		.uleb128 0x16
 5950 09b5 747900   		.ascii	"ty\000"
 5951 09b8 02       		.byte	0x2
 5952 09b9 F201     		.2byte	0x1f2
 5953 09bb AA000000 		.4byte	0xaa
 5954 09bf 02       		.uleb128 0x2
 5955 09c0 91       		.byte	0x91
 5956 09c1 58       		.sleb128 -40
 5957 09c2 1D       		.uleb128 0x1d
 5958 09c3 6D00     		.ascii	"m\000"
 5959 09c5 02       		.byte	0x2
 5960 09c6 F301     		.2byte	0x1f3
 5961 09c8 AA000000 		.4byte	0xaa
 5962 09cc 1D       		.uleb128 0x1d
 5963 09cd 6200     		.ascii	"b\000"
 5964 09cf 02       		.byte	0x2
 5965 09d0 F301     		.2byte	0x1f3
 5966 09d2 AA000000 		.4byte	0xaa
 5967 09d6 1D       		.uleb128 0x1d
 5968 09d7 647800   		.ascii	"dx\000"
 5969 09da 02       		.byte	0x2
 5970 09db F301     		.2byte	0x1f3
 5971 09dd AA000000 		.4byte	0xaa
 5972 09e1 1D       		.uleb128 0x1d
 5973 09e2 647900   		.ascii	"dy\000"
 5974 09e5 02       		.byte	0x2
 5975 09e6 F301     		.2byte	0x1f3
 5976 09e8 AA000000 		.4byte	0xaa
 5977 09ec 1B       		.uleb128 0x1b
 5978 09ed 1A010000 		.4byte	.LBB17
 5979 09f1 50000000 		.4byte	.LBE17-.LBB17
 5980 09f5 070A0000 		.4byte	0xa07
 5981 09f9 16       		.uleb128 0x16
 5982 09fa 6900     		.ascii	"i\000"
 5983 09fc 02       		.byte	0x2
 5984 09fd 2202     		.2byte	0x222
 5985 09ff 73000000 		.4byte	0x73
 5986 0a03 02       		.uleb128 0x2
 5987 0a04 91       		.byte	0x91
 5988 0a05 54       		.sleb128 -44
 5989 0a06 00       		.byte	0
 5990 0a07 1B       		.uleb128 0x1b
 5991 0a08 6C010000 		.4byte	.LBB18
 5992 0a0c 50000000 		.4byte	.LBE18-.LBB18
 5993 0a10 220A0000 		.4byte	0xa22
 5994 0a14 16       		.uleb128 0x16
 5995 0a15 6900     		.ascii	"i\000"
 5996 0a17 02       		.byte	0x2
 5997 0a18 2B02     		.2byte	0x22b
 5998 0a1a 73000000 		.4byte	0x73
 5999 0a1e 02       		.uleb128 0x2
 6000 0a1f 91       		.byte	0x91
 6001 0a20 50       		.sleb128 -48
ARM GAS  C:\Users\Petro\AppData\Local\Temp\ccxzvnq1.s 			page 123


 6002 0a21 00       		.byte	0
 6003 0a22 1B       		.uleb128 0x1b
 6004 0a23 10020000 		.4byte	.LBB19
 6005 0a27 52000000 		.4byte	.LBE19-.LBB19
 6006 0a2b 3D0A0000 		.4byte	0xa3d
 6007 0a2f 16       		.uleb128 0x16
 6008 0a30 6900     		.ascii	"i\000"
 6009 0a32 02       		.byte	0x2
 6010 0a33 3902     		.2byte	0x239
 6011 0a35 73000000 		.4byte	0x73
 6012 0a39 02       		.uleb128 0x2
 6013 0a3a 91       		.byte	0x91
 6014 0a3b 4C       		.sleb128 -52
 6015 0a3c 00       		.byte	0
 6016 0a3d 12       		.uleb128 0x12
 6017 0a3e 64020000 		.4byte	.LBB20
 6018 0a42 52000000 		.4byte	.LBE20-.LBB20
 6019 0a46 16       		.uleb128 0x16
 6020 0a47 6900     		.ascii	"i\000"
 6021 0a49 02       		.byte	0x2
 6022 0a4a 4202     		.2byte	0x242
 6023 0a4c 73000000 		.4byte	0x73
 6024 0a50 02       		.uleb128 0x2
 6025 0a51 91       		.byte	0x91
 6026 0a52 48       		.sleb128 -56
 6027 0a53 00       		.byte	0
 6028 0a54 00       		.byte	0
 6029 0a55 17       		.uleb128 0x17
 6030 0a56 15010000 		.4byte	.LASF65
 6031 0a5a 02       		.byte	0x2
 6032 0a5b 4D02     		.2byte	0x24d
 6033 0a5d 00000000 		.4byte	.LFB88
 6034 0a61 C0020000 		.4byte	.LFE88-.LFB88
 6035 0a65 01       		.uleb128 0x1
 6036 0a66 9C       		.byte	0x9c
 6037 0a67 750B0000 		.4byte	0xb75
 6038 0a6b 18       		.uleb128 0x18
 6039 0a6c 783100   		.ascii	"x1\000"
 6040 0a6f 02       		.byte	0x2
 6041 0a70 4D02     		.2byte	0x24d
 6042 0a72 73000000 		.4byte	0x73
 6043 0a76 03       		.uleb128 0x3
 6044 0a77 91       		.byte	0x91
 6045 0a78 B47F     		.sleb128 -76
 6046 0a7a 18       		.uleb128 0x18
 6047 0a7b 793100   		.ascii	"y1\000"
 6048 0a7e 02       		.byte	0x2
 6049 0a7f 4D02     		.2byte	0x24d
 6050 0a81 73000000 		.4byte	0x73
 6051 0a85 03       		.uleb128 0x3
 6052 0a86 91       		.byte	0x91
 6053 0a87 B07F     		.sleb128 -80
 6054 0a89 18       		.uleb128 0x18
 6055 0a8a 783200   		.ascii	"x2\000"
 6056 0a8d 02       		.byte	0x2
 6057 0a8e 4D02     		.2byte	0x24d
 6058 0a90 73000000 		.4byte	0x73
ARM GAS  C:\Users\Petro\AppData\Local\Temp\ccxzvnq1.s 			page 124


 6059 0a94 03       		.uleb128 0x3
 6060 0a95 91       		.byte	0x91
 6061 0a96 AC7F     		.sleb128 -84
 6062 0a98 18       		.uleb128 0x18
 6063 0a99 793200   		.ascii	"y2\000"
 6064 0a9c 02       		.byte	0x2
 6065 0a9d 4D02     		.2byte	0x24d
 6066 0a9f 73000000 		.4byte	0x73
 6067 0aa3 03       		.uleb128 0x3
 6068 0aa4 91       		.byte	0x91
 6069 0aa5 A87F     		.sleb128 -88
 6070 0aa7 16       		.uleb128 0x16
 6071 0aa8 746D7000 		.ascii	"tmp\000"
 6072 0aac 02       		.byte	0x2
 6073 0aad 4F02     		.2byte	0x24f
 6074 0aaf 73000000 		.4byte	0x73
 6075 0ab3 02       		.uleb128 0x2
 6076 0ab4 91       		.byte	0x91
 6077 0ab5 44       		.sleb128 -60
 6078 0ab6 1A       		.uleb128 0x1a
 6079 0ab7 91000000 		.4byte	.LASF64
 6080 0abb 02       		.byte	0x2
 6081 0abc 5002     		.2byte	0x250
 6082 0abe AA000000 		.4byte	0xaa
 6083 0ac2 03       		.uleb128 0x3
 6084 0ac3 91       		.byte	0x91
 6085 0ac4 B87F     		.sleb128 -72
 6086 0ac6 16       		.uleb128 0x16
 6087 0ac7 747800   		.ascii	"tx\000"
 6088 0aca 02       		.byte	0x2
 6089 0acb 5002     		.2byte	0x250
 6090 0acd AA000000 		.4byte	0xaa
 6091 0ad1 02       		.uleb128 0x2
 6092 0ad2 91       		.byte	0x91
 6093 0ad3 60       		.sleb128 -32
 6094 0ad4 16       		.uleb128 0x16
 6095 0ad5 747900   		.ascii	"ty\000"
 6096 0ad8 02       		.byte	0x2
 6097 0ad9 5002     		.2byte	0x250
 6098 0adb AA000000 		.4byte	0xaa
 6099 0adf 02       		.uleb128 0x2
 6100 0ae0 91       		.byte	0x91
 6101 0ae1 58       		.sleb128 -40
 6102 0ae2 1D       		.uleb128 0x1d
 6103 0ae3 6D00     		.ascii	"m\000"
 6104 0ae5 02       		.byte	0x2
 6105 0ae6 5102     		.2byte	0x251
 6106 0ae8 AA000000 		.4byte	0xaa
 6107 0aec 1D       		.uleb128 0x1d
 6108 0aed 6200     		.ascii	"b\000"
 6109 0aef 02       		.byte	0x2
 6110 0af0 5102     		.2byte	0x251
 6111 0af2 AA000000 		.4byte	0xaa
 6112 0af6 1D       		.uleb128 0x1d
 6113 0af7 647800   		.ascii	"dx\000"
 6114 0afa 02       		.byte	0x2
 6115 0afb 5102     		.2byte	0x251
ARM GAS  C:\Users\Petro\AppData\Local\Temp\ccxzvnq1.s 			page 125


 6116 0afd AA000000 		.4byte	0xaa
 6117 0b01 1D       		.uleb128 0x1d
 6118 0b02 647900   		.ascii	"dy\000"
 6119 0b05 02       		.byte	0x2
 6120 0b06 5102     		.2byte	0x251
 6121 0b08 AA000000 		.4byte	0xaa
 6122 0b0c 1B       		.uleb128 0x1b
 6123 0b0d 1A010000 		.4byte	.LBB21
 6124 0b11 50000000 		.4byte	.LBE21-.LBB21
 6125 0b15 270B0000 		.4byte	0xb27
 6126 0b19 16       		.uleb128 0x16
 6127 0b1a 6900     		.ascii	"i\000"
 6128 0b1c 02       		.byte	0x2
 6129 0b1d 8002     		.2byte	0x280
 6130 0b1f 73000000 		.4byte	0x73
 6131 0b23 02       		.uleb128 0x2
 6132 0b24 91       		.byte	0x91
 6133 0b25 54       		.sleb128 -44
 6134 0b26 00       		.byte	0
 6135 0b27 1B       		.uleb128 0x1b
 6136 0b28 6C010000 		.4byte	.LBB22
 6137 0b2c 50000000 		.4byte	.LBE22-.LBB22
 6138 0b30 420B0000 		.4byte	0xb42
 6139 0b34 16       		.uleb128 0x16
 6140 0b35 6900     		.ascii	"i\000"
 6141 0b37 02       		.byte	0x2
 6142 0b38 8902     		.2byte	0x289
 6143 0b3a 73000000 		.4byte	0x73
 6144 0b3e 02       		.uleb128 0x2
 6145 0b3f 91       		.byte	0x91
 6146 0b40 50       		.sleb128 -48
 6147 0b41 00       		.byte	0
 6148 0b42 1B       		.uleb128 0x1b
 6149 0b43 10020000 		.4byte	.LBB23
 6150 0b47 52000000 		.4byte	.LBE23-.LBB23
 6151 0b4b 5D0B0000 		.4byte	0xb5d
 6152 0b4f 16       		.uleb128 0x16
 6153 0b50 6900     		.ascii	"i\000"
 6154 0b52 02       		.byte	0x2
 6155 0b53 9702     		.2byte	0x297
 6156 0b55 73000000 		.4byte	0x73
 6157 0b59 02       		.uleb128 0x2
 6158 0b5a 91       		.byte	0x91
 6159 0b5b 4C       		.sleb128 -52
 6160 0b5c 00       		.byte	0
 6161 0b5d 12       		.uleb128 0x12
 6162 0b5e 64020000 		.4byte	.LBB24
 6163 0b62 52000000 		.4byte	.LBE24-.LBB24
 6164 0b66 16       		.uleb128 0x16
 6165 0b67 6900     		.ascii	"i\000"
 6166 0b69 02       		.byte	0x2
 6167 0b6a A002     		.2byte	0x2a0
 6168 0b6c 73000000 		.4byte	0x73
 6169 0b70 02       		.uleb128 0x2
 6170 0b71 91       		.byte	0x91
 6171 0b72 48       		.sleb128 -56
 6172 0b73 00       		.byte	0
ARM GAS  C:\Users\Petro\AppData\Local\Temp\ccxzvnq1.s 			page 126


 6173 0b74 00       		.byte	0
 6174 0b75 17       		.uleb128 0x17
 6175 0b76 B2010000 		.4byte	.LASF66
 6176 0b7a 02       		.byte	0x2
 6177 0b7b AB02     		.2byte	0x2ab
 6178 0b7d 00000000 		.4byte	.LFB89
 6179 0b81 8E000000 		.4byte	.LFE89-.LFB89
 6180 0b85 01       		.uleb128 0x1
 6181 0b86 9C       		.byte	0x9c
 6182 0b87 D30B0000 		.4byte	0xbd3
 6183 0b8b 18       		.uleb128 0x18
 6184 0b8c 783100   		.ascii	"x1\000"
 6185 0b8f 02       		.byte	0x2
 6186 0b90 AB02     		.2byte	0x2ab
 6187 0b92 73000000 		.4byte	0x73
 6188 0b96 02       		.uleb128 0x2
 6189 0b97 91       		.byte	0x91
 6190 0b98 6C       		.sleb128 -20
 6191 0b99 18       		.uleb128 0x18
 6192 0b9a 793100   		.ascii	"y1\000"
 6193 0b9d 02       		.byte	0x2
 6194 0b9e AB02     		.2byte	0x2ab
 6195 0ba0 73000000 		.4byte	0x73
 6196 0ba4 02       		.uleb128 0x2
 6197 0ba5 91       		.byte	0x91
 6198 0ba6 68       		.sleb128 -24
 6199 0ba7 18       		.uleb128 0x18
 6200 0ba8 783200   		.ascii	"x2\000"
 6201 0bab 02       		.byte	0x2
 6202 0bac AB02     		.2byte	0x2ab
 6203 0bae 73000000 		.4byte	0x73
 6204 0bb2 02       		.uleb128 0x2
 6205 0bb3 91       		.byte	0x91
 6206 0bb4 64       		.sleb128 -28
 6207 0bb5 18       		.uleb128 0x18
 6208 0bb6 793200   		.ascii	"y2\000"
 6209 0bb9 02       		.byte	0x2
 6210 0bba AB02     		.2byte	0x2ab
 6211 0bbc 73000000 		.4byte	0x73
 6212 0bc0 02       		.uleb128 0x2
 6213 0bc1 91       		.byte	0x91
 6214 0bc2 60       		.sleb128 -32
 6215 0bc3 16       		.uleb128 0x16
 6216 0bc4 746D7000 		.ascii	"tmp\000"
 6217 0bc8 02       		.byte	0x2
 6218 0bc9 AD02     		.2byte	0x2ad
 6219 0bcb 73000000 		.4byte	0x73
 6220 0bcf 02       		.uleb128 0x2
 6221 0bd0 91       		.byte	0x91
 6222 0bd1 74       		.sleb128 -12
 6223 0bd2 00       		.byte	0
 6224 0bd3 17       		.uleb128 0x17
 6225 0bd4 BB010000 		.4byte	.LASF67
 6226 0bd8 02       		.byte	0x2
 6227 0bd9 C202     		.2byte	0x2c2
 6228 0bdb 00000000 		.4byte	.LFB90
 6229 0bdf 8E000000 		.4byte	.LFE90-.LFB90
ARM GAS  C:\Users\Petro\AppData\Local\Temp\ccxzvnq1.s 			page 127


 6230 0be3 01       		.uleb128 0x1
 6231 0be4 9C       		.byte	0x9c
 6232 0be5 310C0000 		.4byte	0xc31
 6233 0be9 18       		.uleb128 0x18
 6234 0bea 783100   		.ascii	"x1\000"
 6235 0bed 02       		.byte	0x2
 6236 0bee C202     		.2byte	0x2c2
 6237 0bf0 73000000 		.4byte	0x73
 6238 0bf4 02       		.uleb128 0x2
 6239 0bf5 91       		.byte	0x91
 6240 0bf6 6C       		.sleb128 -20
 6241 0bf7 18       		.uleb128 0x18
 6242 0bf8 793100   		.ascii	"y1\000"
 6243 0bfb 02       		.byte	0x2
 6244 0bfc C202     		.2byte	0x2c2
 6245 0bfe 73000000 		.4byte	0x73
 6246 0c02 02       		.uleb128 0x2
 6247 0c03 91       		.byte	0x91
 6248 0c04 68       		.sleb128 -24
 6249 0c05 18       		.uleb128 0x18
 6250 0c06 783200   		.ascii	"x2\000"
 6251 0c09 02       		.byte	0x2
 6252 0c0a C202     		.2byte	0x2c2
 6253 0c0c 73000000 		.4byte	0x73
 6254 0c10 02       		.uleb128 0x2
 6255 0c11 91       		.byte	0x91
 6256 0c12 64       		.sleb128 -28
 6257 0c13 18       		.uleb128 0x18
 6258 0c14 793200   		.ascii	"y2\000"
 6259 0c17 02       		.byte	0x2
 6260 0c18 C202     		.2byte	0x2c2
 6261 0c1a 73000000 		.4byte	0x73
 6262 0c1e 02       		.uleb128 0x2
 6263 0c1f 91       		.byte	0x91
 6264 0c20 60       		.sleb128 -32
 6265 0c21 16       		.uleb128 0x16
 6266 0c22 746D7000 		.ascii	"tmp\000"
 6267 0c26 02       		.byte	0x2
 6268 0c27 C402     		.2byte	0x2c4
 6269 0c29 73000000 		.4byte	0x73
 6270 0c2d 02       		.uleb128 0x2
 6271 0c2e 91       		.byte	0x91
 6272 0c2f 74       		.sleb128 -12
 6273 0c30 00       		.byte	0
 6274 0c31 17       		.uleb128 0x17
 6275 0c32 D1010000 		.4byte	.LASF68
 6276 0c36 02       		.byte	0x2
 6277 0c37 D902     		.2byte	0x2d9
 6278 0c39 00000000 		.4byte	.LFB91
 6279 0c3d 0C010000 		.4byte	.LFE91-.LFB91
 6280 0c41 01       		.uleb128 0x1
 6281 0c42 9C       		.byte	0x9c
 6282 0c43 8F0C0000 		.4byte	0xc8f
 6283 0c47 18       		.uleb128 0x18
 6284 0c48 783100   		.ascii	"x1\000"
 6285 0c4b 02       		.byte	0x2
 6286 0c4c D902     		.2byte	0x2d9
ARM GAS  C:\Users\Petro\AppData\Local\Temp\ccxzvnq1.s 			page 128


 6287 0c4e 73000000 		.4byte	0x73
 6288 0c52 02       		.uleb128 0x2
 6289 0c53 91       		.byte	0x91
 6290 0c54 6C       		.sleb128 -20
 6291 0c55 18       		.uleb128 0x18
 6292 0c56 793100   		.ascii	"y1\000"
 6293 0c59 02       		.byte	0x2
 6294 0c5a D902     		.2byte	0x2d9
 6295 0c5c 73000000 		.4byte	0x73
 6296 0c60 02       		.uleb128 0x2
 6297 0c61 91       		.byte	0x91
 6298 0c62 68       		.sleb128 -24
 6299 0c63 18       		.uleb128 0x18
 6300 0c64 783200   		.ascii	"x2\000"
 6301 0c67 02       		.byte	0x2
 6302 0c68 D902     		.2byte	0x2d9
 6303 0c6a 73000000 		.4byte	0x73
 6304 0c6e 02       		.uleb128 0x2
 6305 0c6f 91       		.byte	0x91
 6306 0c70 64       		.sleb128 -28
 6307 0c71 18       		.uleb128 0x18
 6308 0c72 793200   		.ascii	"y2\000"
 6309 0c75 02       		.byte	0x2
 6310 0c76 D902     		.2byte	0x2d9
 6311 0c78 73000000 		.4byte	0x73
 6312 0c7c 02       		.uleb128 0x2
 6313 0c7d 91       		.byte	0x91
 6314 0c7e 60       		.sleb128 -32
 6315 0c7f 16       		.uleb128 0x16
 6316 0c80 746D7000 		.ascii	"tmp\000"
 6317 0c84 02       		.byte	0x2
 6318 0c85 DB02     		.2byte	0x2db
 6319 0c87 73000000 		.4byte	0x73
 6320 0c8b 02       		.uleb128 0x2
 6321 0c8c 91       		.byte	0x91
 6322 0c8d 74       		.sleb128 -12
 6323 0c8e 00       		.byte	0
 6324 0c8f 17       		.uleb128 0x17
 6325 0c90 79010000 		.4byte	.LASF69
 6326 0c94 02       		.byte	0x2
 6327 0c95 F602     		.2byte	0x2f6
 6328 0c97 00000000 		.4byte	.LFB92
 6329 0c9b 0C010000 		.4byte	.LFE92-.LFB92
 6330 0c9f 01       		.uleb128 0x1
 6331 0ca0 9C       		.byte	0x9c
 6332 0ca1 ED0C0000 		.4byte	0xced
 6333 0ca5 18       		.uleb128 0x18
 6334 0ca6 783100   		.ascii	"x1\000"
 6335 0ca9 02       		.byte	0x2
 6336 0caa F602     		.2byte	0x2f6
 6337 0cac 73000000 		.4byte	0x73
 6338 0cb0 02       		.uleb128 0x2
 6339 0cb1 91       		.byte	0x91
 6340 0cb2 6C       		.sleb128 -20
 6341 0cb3 18       		.uleb128 0x18
 6342 0cb4 793100   		.ascii	"y1\000"
 6343 0cb7 02       		.byte	0x2
ARM GAS  C:\Users\Petro\AppData\Local\Temp\ccxzvnq1.s 			page 129


 6344 0cb8 F602     		.2byte	0x2f6
 6345 0cba 73000000 		.4byte	0x73
 6346 0cbe 02       		.uleb128 0x2
 6347 0cbf 91       		.byte	0x91
 6348 0cc0 68       		.sleb128 -24
 6349 0cc1 18       		.uleb128 0x18
 6350 0cc2 783200   		.ascii	"x2\000"
 6351 0cc5 02       		.byte	0x2
 6352 0cc6 F602     		.2byte	0x2f6
 6353 0cc8 73000000 		.4byte	0x73
 6354 0ccc 02       		.uleb128 0x2
 6355 0ccd 91       		.byte	0x91
 6356 0cce 64       		.sleb128 -28
 6357 0ccf 18       		.uleb128 0x18
 6358 0cd0 793200   		.ascii	"y2\000"
 6359 0cd3 02       		.byte	0x2
 6360 0cd4 F602     		.2byte	0x2f6
 6361 0cd6 73000000 		.4byte	0x73
 6362 0cda 02       		.uleb128 0x2
 6363 0cdb 91       		.byte	0x91
 6364 0cdc 60       		.sleb128 -32
 6365 0cdd 16       		.uleb128 0x16
 6366 0cde 746D7000 		.ascii	"tmp\000"
 6367 0ce2 02       		.byte	0x2
 6368 0ce3 F802     		.2byte	0x2f8
 6369 0ce5 73000000 		.4byte	0x73
 6370 0ce9 02       		.uleb128 0x2
 6371 0cea 91       		.byte	0x91
 6372 0ceb 74       		.sleb128 -12
 6373 0cec 00       		.byte	0
 6374 0ced 17       		.uleb128 0x17
 6375 0cee 12000000 		.4byte	.LASF70
 6376 0cf2 02       		.byte	0x2
 6377 0cf3 1303     		.2byte	0x313
 6378 0cf5 00000000 		.4byte	.LFB93
 6379 0cf9 CC010000 		.4byte	.LFE93-.LFB93
 6380 0cfd 01       		.uleb128 0x1
 6381 0cfe 9C       		.byte	0x9c
 6382 0cff 8A0D0000 		.4byte	0xd8a
 6383 0d03 18       		.uleb128 0x18
 6384 0d04 7800     		.ascii	"x\000"
 6385 0d06 02       		.byte	0x2
 6386 0d07 1303     		.2byte	0x313
 6387 0d09 73000000 		.4byte	0x73
 6388 0d0d 02       		.uleb128 0x2
 6389 0d0e 91       		.byte	0x91
 6390 0d0f 5C       		.sleb128 -36
 6391 0d10 18       		.uleb128 0x18
 6392 0d11 7900     		.ascii	"y\000"
 6393 0d13 02       		.byte	0x2
 6394 0d14 1303     		.2byte	0x313
 6395 0d16 73000000 		.4byte	0x73
 6396 0d1a 02       		.uleb128 0x2
 6397 0d1b 91       		.byte	0x91
 6398 0d1c 58       		.sleb128 -40
 6399 0d1d 19       		.uleb128 0x19
 6400 0d1e F3010000 		.4byte	.LASF71
ARM GAS  C:\Users\Petro\AppData\Local\Temp\ccxzvnq1.s 			page 130


 6401 0d22 02       		.byte	0x2
 6402 0d23 1303     		.2byte	0x313
 6403 0d25 73000000 		.4byte	0x73
 6404 0d29 02       		.uleb128 0x2
 6405 0d2a 91       		.byte	0x91
 6406 0d2b 54       		.sleb128 -44
 6407 0d2c 16       		.uleb128 0x16
 6408 0d2d 6600     		.ascii	"f\000"
 6409 0d2f 02       		.byte	0x2
 6410 0d30 1503     		.2byte	0x315
 6411 0d32 73000000 		.4byte	0x73
 6412 0d36 02       		.uleb128 0x2
 6413 0d37 91       		.byte	0x91
 6414 0d38 74       		.sleb128 -12
 6415 0d39 1A       		.uleb128 0x1a
 6416 0d3a B6020000 		.4byte	.LASF72
 6417 0d3e 02       		.byte	0x2
 6418 0d3f 1603     		.2byte	0x316
 6419 0d41 73000000 		.4byte	0x73
 6420 0d45 02       		.uleb128 0x2
 6421 0d46 91       		.byte	0x91
 6422 0d47 70       		.sleb128 -16
 6423 0d48 1A       		.uleb128 0x1a
 6424 0d49 BC020000 		.4byte	.LASF73
 6425 0d4d 02       		.byte	0x2
 6426 0d4e 1703     		.2byte	0x317
 6427 0d50 73000000 		.4byte	0x73
 6428 0d54 02       		.uleb128 0x2
 6429 0d55 91       		.byte	0x91
 6430 0d56 6C       		.sleb128 -20
 6431 0d57 16       		.uleb128 0x16
 6432 0d58 783100   		.ascii	"x1\000"
 6433 0d5b 02       		.byte	0x2
 6434 0d5c 1803     		.2byte	0x318
 6435 0d5e 73000000 		.4byte	0x73
 6436 0d62 02       		.uleb128 0x2
 6437 0d63 91       		.byte	0x91
 6438 0d64 68       		.sleb128 -24
 6439 0d65 16       		.uleb128 0x16
 6440 0d66 793100   		.ascii	"y1\000"
 6441 0d69 02       		.byte	0x2
 6442 0d6a 1903     		.2byte	0x319
 6443 0d6c 73000000 		.4byte	0x73
 6444 0d70 02       		.uleb128 0x2
 6445 0d71 91       		.byte	0x91
 6446 0d72 64       		.sleb128 -28
 6447 0d73 1D       		.uleb128 0x1d
 6448 0d74 636800   		.ascii	"ch\000"
 6449 0d77 02       		.byte	0x2
 6450 0d78 1A03     		.2byte	0x31a
 6451 0d7a B1000000 		.4byte	0xb1
 6452 0d7e 1D       		.uleb128 0x1d
 6453 0d7f 636C00   		.ascii	"cl\000"
 6454 0d82 02       		.byte	0x2
 6455 0d83 1A03     		.2byte	0x31a
 6456 0d85 B1000000 		.4byte	0xb1
 6457 0d89 00       		.byte	0
ARM GAS  C:\Users\Petro\AppData\Local\Temp\ccxzvnq1.s 			page 131


 6458 0d8a 17       		.uleb128 0x17
 6459 0d8b 4A010000 		.4byte	.LASF74
 6460 0d8f 02       		.byte	0x2
 6461 0d90 3703     		.2byte	0x337
 6462 0d92 00000000 		.4byte	.LFB94
 6463 0d96 CC010000 		.4byte	.LFE94-.LFB94
 6464 0d9a 01       		.uleb128 0x1
 6465 0d9b 9C       		.byte	0x9c
 6466 0d9c 270E0000 		.4byte	0xe27
 6467 0da0 18       		.uleb128 0x18
 6468 0da1 7800     		.ascii	"x\000"
 6469 0da3 02       		.byte	0x2
 6470 0da4 3703     		.2byte	0x337
 6471 0da6 73000000 		.4byte	0x73
 6472 0daa 02       		.uleb128 0x2
 6473 0dab 91       		.byte	0x91
 6474 0dac 5C       		.sleb128 -36
 6475 0dad 18       		.uleb128 0x18
 6476 0dae 7900     		.ascii	"y\000"
 6477 0db0 02       		.byte	0x2
 6478 0db1 3703     		.2byte	0x337
 6479 0db3 73000000 		.4byte	0x73
 6480 0db7 02       		.uleb128 0x2
 6481 0db8 91       		.byte	0x91
 6482 0db9 58       		.sleb128 -40
 6483 0dba 19       		.uleb128 0x19
 6484 0dbb F3010000 		.4byte	.LASF71
 6485 0dbf 02       		.byte	0x2
 6486 0dc0 3703     		.2byte	0x337
 6487 0dc2 73000000 		.4byte	0x73
 6488 0dc6 02       		.uleb128 0x2
 6489 0dc7 91       		.byte	0x91
 6490 0dc8 54       		.sleb128 -44
 6491 0dc9 16       		.uleb128 0x16
 6492 0dca 6600     		.ascii	"f\000"
 6493 0dcc 02       		.byte	0x2
 6494 0dcd 3903     		.2byte	0x339
 6495 0dcf 73000000 		.4byte	0x73
 6496 0dd3 02       		.uleb128 0x2
 6497 0dd4 91       		.byte	0x91
 6498 0dd5 74       		.sleb128 -12
 6499 0dd6 1A       		.uleb128 0x1a
 6500 0dd7 B6020000 		.4byte	.LASF72
 6501 0ddb 02       		.byte	0x2
 6502 0ddc 3A03     		.2byte	0x33a
 6503 0dde 73000000 		.4byte	0x73
 6504 0de2 02       		.uleb128 0x2
 6505 0de3 91       		.byte	0x91
 6506 0de4 70       		.sleb128 -16
 6507 0de5 1A       		.uleb128 0x1a
 6508 0de6 BC020000 		.4byte	.LASF73
 6509 0dea 02       		.byte	0x2
 6510 0deb 3B03     		.2byte	0x33b
 6511 0ded 73000000 		.4byte	0x73
 6512 0df1 02       		.uleb128 0x2
 6513 0df2 91       		.byte	0x91
 6514 0df3 6C       		.sleb128 -20
ARM GAS  C:\Users\Petro\AppData\Local\Temp\ccxzvnq1.s 			page 132


 6515 0df4 16       		.uleb128 0x16
 6516 0df5 783100   		.ascii	"x1\000"
 6517 0df8 02       		.byte	0x2
 6518 0df9 3C03     		.2byte	0x33c
 6519 0dfb 73000000 		.4byte	0x73
 6520 0dff 02       		.uleb128 0x2
 6521 0e00 91       		.byte	0x91
 6522 0e01 68       		.sleb128 -24
 6523 0e02 16       		.uleb128 0x16
 6524 0e03 793100   		.ascii	"y1\000"
 6525 0e06 02       		.byte	0x2
 6526 0e07 3D03     		.2byte	0x33d
 6527 0e09 73000000 		.4byte	0x73
 6528 0e0d 02       		.uleb128 0x2
 6529 0e0e 91       		.byte	0x91
 6530 0e0f 64       		.sleb128 -28
 6531 0e10 1D       		.uleb128 0x1d
 6532 0e11 636800   		.ascii	"ch\000"
 6533 0e14 02       		.byte	0x2
 6534 0e15 3E03     		.2byte	0x33e
 6535 0e17 B1000000 		.4byte	0xb1
 6536 0e1b 1D       		.uleb128 0x1d
 6537 0e1c 636C00   		.ascii	"cl\000"
 6538 0e1f 02       		.byte	0x2
 6539 0e20 3E03     		.2byte	0x33e
 6540 0e22 B1000000 		.4byte	0xb1
 6541 0e26 00       		.byte	0
 6542 0e27 17       		.uleb128 0x17
 6543 0e28 28020000 		.4byte	.LASF75
 6544 0e2c 02       		.byte	0x2
 6545 0e2d 5B03     		.2byte	0x35b
 6546 0e2f 00000000 		.4byte	.LFB95
 6547 0e33 CC000000 		.4byte	.LFE95-.LFB95
 6548 0e37 01       		.uleb128 0x1
 6549 0e38 9C       		.byte	0x9c
 6550 0e39 C70E0000 		.4byte	0xec7
 6551 0e3d 18       		.uleb128 0x18
 6552 0e3e 7800     		.ascii	"x\000"
 6553 0e40 02       		.byte	0x2
 6554 0e41 5B03     		.2byte	0x35b
 6555 0e43 73000000 		.4byte	0x73
 6556 0e47 02       		.uleb128 0x2
 6557 0e48 91       		.byte	0x91
 6558 0e49 64       		.sleb128 -28
 6559 0e4a 18       		.uleb128 0x18
 6560 0e4b 7900     		.ascii	"y\000"
 6561 0e4d 02       		.byte	0x2
 6562 0e4e 5B03     		.2byte	0x35b
 6563 0e50 73000000 		.4byte	0x73
 6564 0e54 02       		.uleb128 0x2
 6565 0e55 91       		.byte	0x91
 6566 0e56 60       		.sleb128 -32
 6567 0e57 19       		.uleb128 0x19
 6568 0e58 FB000000 		.4byte	.LASF76
 6569 0e5c 02       		.byte	0x2
 6570 0e5d 5B03     		.2byte	0x35b
 6571 0e5f 26010000 		.4byte	0x126
ARM GAS  C:\Users\Petro\AppData\Local\Temp\ccxzvnq1.s 			page 133


 6572 0e63 02       		.uleb128 0x2
 6573 0e64 91       		.byte	0x91
 6574 0e65 5C       		.sleb128 -36
 6575 0e66 18       		.uleb128 0x18
 6576 0e67 737800   		.ascii	"sx\000"
 6577 0e6a 02       		.byte	0x2
 6578 0e6b 5B03     		.2byte	0x35b
 6579 0e6d 73000000 		.4byte	0x73
 6580 0e71 02       		.uleb128 0x2
 6581 0e72 91       		.byte	0x91
 6582 0e73 58       		.sleb128 -40
 6583 0e74 18       		.uleb128 0x18
 6584 0e75 737900   		.ascii	"sy\000"
 6585 0e78 02       		.byte	0x2
 6586 0e79 5B03     		.2byte	0x35b
 6587 0e7b 73000000 		.4byte	0x73
 6588 0e7f 02       		.uleb128 0x2
 6589 0e80 91       		.byte	0x91
 6590 0e81 00       		.sleb128 0
 6591 0e82 16       		.uleb128 0x16
 6592 0e83 62697400 		.ascii	"bit\000"
 6593 0e87 02       		.byte	0x2
 6594 0e88 5D03     		.2byte	0x35d
 6595 0e8a 73000000 		.4byte	0x73
 6596 0e8e 02       		.uleb128 0x2
 6597 0e8f 91       		.byte	0x91
 6598 0e90 6C       		.sleb128 -20
 6599 0e91 1A       		.uleb128 0x1a
 6600 0e92 AA020000 		.4byte	.LASF29
 6601 0e96 02       		.byte	0x2
 6602 0e97 5E03     		.2byte	0x35e
 6603 0e99 81000000 		.4byte	0x81
 6604 0e9d 02       		.uleb128 0x2
 6605 0e9e 91       		.byte	0x91
 6606 0e9f 6B       		.sleb128 -21
 6607 0ea0 16       		.uleb128 0x16
 6608 0ea1 637900   		.ascii	"cy\000"
 6609 0ea4 02       		.byte	0x2
 6610 0ea5 6003     		.2byte	0x360
 6611 0ea7 73000000 		.4byte	0x73
 6612 0eab 02       		.uleb128 0x2
 6613 0eac 91       		.byte	0x91
 6614 0ead 74       		.sleb128 -12
 6615 0eae 12       		.uleb128 0x12
 6616 0eaf 14000000 		.4byte	.LBB25
 6617 0eb3 A0000000 		.4byte	.LBE25-.LBB25
 6618 0eb7 16       		.uleb128 0x16
 6619 0eb8 637800   		.ascii	"cx\000"
 6620 0ebb 02       		.byte	0x2
 6621 0ebc 6403     		.2byte	0x364
 6622 0ebe 73000000 		.4byte	0x73
 6623 0ec2 02       		.uleb128 0x2
 6624 0ec3 91       		.byte	0x91
 6625 0ec4 70       		.sleb128 -16
 6626 0ec5 00       		.byte	0
 6627 0ec6 00       		.byte	0
 6628 0ec7 1E       		.uleb128 0x1e
ARM GAS  C:\Users\Petro\AppData\Local\Temp\ccxzvnq1.s 			page 134


 6629 0ec8 ED010000 		.4byte	.LASF77
 6630 0ecc 06       		.byte	0x6
 6631 0ecd 66       		.byte	0x66
 6632 0ece 2C010000 		.4byte	0x12c
 6633 0ed2 05       		.uleb128 0x5
 6634 0ed3 03       		.byte	0x3
 6635 0ed4 00000000 		.4byte	cfont
 6636 0ed8 07       		.uleb128 0x7
 6637 0ed9 81000000 		.4byte	0x81
 6638 0edd E90E0000 		.4byte	0xee9
 6639 0ee1 1F       		.uleb128 0x1f
 6640 0ee2 B8000000 		.4byte	0xb8
 6641 0ee6 F701     		.2byte	0x1f7
 6642 0ee8 00       		.byte	0
 6643 0ee9 1E       		.uleb128 0x1e
 6644 0eea 26000000 		.4byte	.LASF78
 6645 0eee 06       		.byte	0x6
 6646 0eef 67       		.byte	0x67
 6647 0ef0 D80E0000 		.4byte	0xed8
 6648 0ef4 05       		.uleb128 0x5
 6649 0ef5 03       		.byte	0x3
 6650 0ef6 00000000 		.4byte	scrbuf
 6651 0efa 1E       		.uleb128 0x1e
 6652 0efb A3020000 		.4byte	.LASF79
 6653 0eff 06       		.byte	0x6
 6654 0f00 68       		.byte	0x68
 6655 0f01 E4020000 		.4byte	0x2e4
 6656 0f05 05       		.uleb128 0x5
 6657 0f06 03       		.byte	0x3
 6658 0f07 00000000 		.4byte	_sleep
 6659 0f0b 1E       		.uleb128 0x1e
 6660 0f0c 40020000 		.4byte	.LASF80
 6661 0f10 06       		.byte	0x6
 6662 0f11 69       		.byte	0x69
 6663 0f12 73000000 		.4byte	0x73
 6664 0f16 05       		.uleb128 0x5
 6665 0f17 03       		.byte	0x3
 6666 0f18 00000000 		.4byte	_contrast
 6667 0f1c 00       		.byte	0
 6668              		.section	.debug_abbrev,"",%progbits
 6669              	.Ldebug_abbrev0:
 6670 0000 01       		.uleb128 0x1
 6671 0001 11       		.uleb128 0x11
 6672 0002 01       		.byte	0x1
 6673 0003 25       		.uleb128 0x25
 6674 0004 0E       		.uleb128 0xe
 6675 0005 13       		.uleb128 0x13
 6676 0006 0B       		.uleb128 0xb
 6677 0007 03       		.uleb128 0x3
 6678 0008 0E       		.uleb128 0xe
 6679 0009 1B       		.uleb128 0x1b
 6680 000a 0E       		.uleb128 0xe
 6681 000b 55       		.uleb128 0x55
 6682 000c 17       		.uleb128 0x17
 6683 000d 11       		.uleb128 0x11
 6684 000e 01       		.uleb128 0x1
 6685 000f 10       		.uleb128 0x10
ARM GAS  C:\Users\Petro\AppData\Local\Temp\ccxzvnq1.s 			page 135


 6686 0010 17       		.uleb128 0x17
 6687 0011 00       		.byte	0
 6688 0012 00       		.byte	0
 6689 0013 02       		.uleb128 0x2
 6690 0014 24       		.uleb128 0x24
 6691 0015 00       		.byte	0
 6692 0016 0B       		.uleb128 0xb
 6693 0017 0B       		.uleb128 0xb
 6694 0018 3E       		.uleb128 0x3e
 6695 0019 0B       		.uleb128 0xb
 6696 001a 03       		.uleb128 0x3
 6697 001b 0E       		.uleb128 0xe
 6698 001c 00       		.byte	0
 6699 001d 00       		.byte	0
 6700 001e 03       		.uleb128 0x3
 6701 001f 16       		.uleb128 0x16
 6702 0020 00       		.byte	0
 6703 0021 03       		.uleb128 0x3
 6704 0022 0E       		.uleb128 0xe
 6705 0023 3A       		.uleb128 0x3a
 6706 0024 0B       		.uleb128 0xb
 6707 0025 3B       		.uleb128 0x3b
 6708 0026 0B       		.uleb128 0xb
 6709 0027 49       		.uleb128 0x49
 6710 0028 13       		.uleb128 0x13
 6711 0029 00       		.byte	0
 6712 002a 00       		.byte	0
 6713 002b 04       		.uleb128 0x4
 6714 002c 24       		.uleb128 0x24
 6715 002d 00       		.byte	0
 6716 002e 0B       		.uleb128 0xb
 6717 002f 0B       		.uleb128 0xb
 6718 0030 3E       		.uleb128 0x3e
 6719 0031 0B       		.uleb128 0xb
 6720 0032 03       		.uleb128 0x3
 6721 0033 08       		.uleb128 0x8
 6722 0034 00       		.byte	0
 6723 0035 00       		.byte	0
 6724 0036 05       		.uleb128 0x5
 6725 0037 16       		.uleb128 0x16
 6726 0038 00       		.byte	0
 6727 0039 03       		.uleb128 0x3
 6728 003a 0E       		.uleb128 0xe
 6729 003b 3A       		.uleb128 0x3a
 6730 003c 0B       		.uleb128 0xb
 6731 003d 3B       		.uleb128 0x3b
 6732 003e 05       		.uleb128 0x5
 6733 003f 49       		.uleb128 0x49
 6734 0040 13       		.uleb128 0x13
 6735 0041 00       		.byte	0
 6736 0042 00       		.byte	0
 6737 0043 06       		.uleb128 0x6
 6738 0044 0F       		.uleb128 0xf
 6739 0045 00       		.byte	0
 6740 0046 0B       		.uleb128 0xb
 6741 0047 0B       		.uleb128 0xb
 6742 0048 49       		.uleb128 0x49
ARM GAS  C:\Users\Petro\AppData\Local\Temp\ccxzvnq1.s 			page 136


 6743 0049 13       		.uleb128 0x13
 6744 004a 00       		.byte	0
 6745 004b 00       		.byte	0
 6746 004c 07       		.uleb128 0x7
 6747 004d 01       		.uleb128 0x1
 6748 004e 01       		.byte	0x1
 6749 004f 49       		.uleb128 0x49
 6750 0050 13       		.uleb128 0x13
 6751 0051 01       		.uleb128 0x1
 6752 0052 13       		.uleb128 0x13
 6753 0053 00       		.byte	0
 6754 0054 00       		.byte	0
 6755 0055 08       		.uleb128 0x8
 6756 0056 21       		.uleb128 0x21
 6757 0057 00       		.byte	0
 6758 0058 49       		.uleb128 0x49
 6759 0059 13       		.uleb128 0x13
 6760 005a 2F       		.uleb128 0x2f
 6761 005b 0B       		.uleb128 0xb
 6762 005c 00       		.byte	0
 6763 005d 00       		.byte	0
 6764 005e 09       		.uleb128 0x9
 6765 005f 13       		.uleb128 0x13
 6766 0060 01       		.byte	0x1
 6767 0061 0B       		.uleb128 0xb
 6768 0062 0B       		.uleb128 0xb
 6769 0063 3A       		.uleb128 0x3a
 6770 0064 0B       		.uleb128 0xb
 6771 0065 3B       		.uleb128 0x3b
 6772 0066 0B       		.uleb128 0xb
 6773 0067 01       		.uleb128 0x1
 6774 0068 13       		.uleb128 0x13
 6775 0069 00       		.byte	0
 6776 006a 00       		.byte	0
 6777 006b 0A       		.uleb128 0xa
 6778 006c 0D       		.uleb128 0xd
 6779 006d 00       		.byte	0
 6780 006e 03       		.uleb128 0x3
 6781 006f 0E       		.uleb128 0xe
 6782 0070 3A       		.uleb128 0x3a
 6783 0071 0B       		.uleb128 0xb
 6784 0072 3B       		.uleb128 0x3b
 6785 0073 0B       		.uleb128 0xb
 6786 0074 49       		.uleb128 0x49
 6787 0075 13       		.uleb128 0x13
 6788 0076 38       		.uleb128 0x38
 6789 0077 0B       		.uleb128 0xb
 6790 0078 00       		.byte	0
 6791 0079 00       		.byte	0
 6792 007a 0B       		.uleb128 0xb
 6793 007b 2E       		.uleb128 0x2e
 6794 007c 01       		.byte	0x1
 6795 007d 3F       		.uleb128 0x3f
 6796 007e 19       		.uleb128 0x19
 6797 007f 03       		.uleb128 0x3
 6798 0080 0E       		.uleb128 0xe
 6799 0081 3A       		.uleb128 0x3a
ARM GAS  C:\Users\Petro\AppData\Local\Temp\ccxzvnq1.s 			page 137


 6800 0082 0B       		.uleb128 0xb
 6801 0083 3B       		.uleb128 0x3b
 6802 0084 0B       		.uleb128 0xb
 6803 0085 27       		.uleb128 0x27
 6804 0086 19       		.uleb128 0x19
 6805 0087 11       		.uleb128 0x11
 6806 0088 01       		.uleb128 0x1
 6807 0089 12       		.uleb128 0x12
 6808 008a 06       		.uleb128 0x6
 6809 008b 40       		.uleb128 0x40
 6810 008c 18       		.uleb128 0x18
 6811 008d 9642     		.uleb128 0x2116
 6812 008f 19       		.uleb128 0x19
 6813 0090 01       		.uleb128 0x1
 6814 0091 13       		.uleb128 0x13
 6815 0092 00       		.byte	0
 6816 0093 00       		.byte	0
 6817 0094 0C       		.uleb128 0xc
 6818 0095 05       		.uleb128 0x5
 6819 0096 00       		.byte	0
 6820 0097 03       		.uleb128 0x3
 6821 0098 08       		.uleb128 0x8
 6822 0099 3A       		.uleb128 0x3a
 6823 009a 0B       		.uleb128 0xb
 6824 009b 3B       		.uleb128 0x3b
 6825 009c 0B       		.uleb128 0xb
 6826 009d 49       		.uleb128 0x49
 6827 009e 13       		.uleb128 0x13
 6828 009f 02       		.uleb128 0x2
 6829 00a0 18       		.uleb128 0x18
 6830 00a1 00       		.byte	0
 6831 00a2 00       		.byte	0
 6832 00a3 0D       		.uleb128 0xd
 6833 00a4 05       		.uleb128 0x5
 6834 00a5 00       		.byte	0
 6835 00a6 03       		.uleb128 0x3
 6836 00a7 0E       		.uleb128 0xe
 6837 00a8 3A       		.uleb128 0x3a
 6838 00a9 0B       		.uleb128 0xb
 6839 00aa 3B       		.uleb128 0x3b
 6840 00ab 0B       		.uleb128 0xb
 6841 00ac 49       		.uleb128 0x49
 6842 00ad 13       		.uleb128 0x13
 6843 00ae 02       		.uleb128 0x2
 6844 00af 18       		.uleb128 0x18
 6845 00b0 00       		.byte	0
 6846 00b1 00       		.byte	0
 6847 00b2 0E       		.uleb128 0xe
 6848 00b3 34       		.uleb128 0x34
 6849 00b4 00       		.byte	0
 6850 00b5 03       		.uleb128 0x3
 6851 00b6 0E       		.uleb128 0xe
 6852 00b7 3A       		.uleb128 0x3a
 6853 00b8 0B       		.uleb128 0xb
 6854 00b9 3B       		.uleb128 0x3b
 6855 00ba 0B       		.uleb128 0xb
 6856 00bb 49       		.uleb128 0x49
ARM GAS  C:\Users\Petro\AppData\Local\Temp\ccxzvnq1.s 			page 138


 6857 00bc 13       		.uleb128 0x13
 6858 00bd 02       		.uleb128 0x2
 6859 00be 18       		.uleb128 0x18
 6860 00bf 00       		.byte	0
 6861 00c0 00       		.byte	0
 6862 00c1 0F       		.uleb128 0xf
 6863 00c2 2E       		.uleb128 0x2e
 6864 00c3 01       		.byte	0x1
 6865 00c4 3F       		.uleb128 0x3f
 6866 00c5 19       		.uleb128 0x19
 6867 00c6 03       		.uleb128 0x3
 6868 00c7 0E       		.uleb128 0xe
 6869 00c8 3A       		.uleb128 0x3a
 6870 00c9 0B       		.uleb128 0xb
 6871 00ca 3B       		.uleb128 0x3b
 6872 00cb 0B       		.uleb128 0xb
 6873 00cc 11       		.uleb128 0x11
 6874 00cd 01       		.uleb128 0x1
 6875 00ce 12       		.uleb128 0x12
 6876 00cf 06       		.uleb128 0x6
 6877 00d0 40       		.uleb128 0x40
 6878 00d1 18       		.uleb128 0x18
 6879 00d2 9642     		.uleb128 0x2116
 6880 00d4 19       		.uleb128 0x19
 6881 00d5 01       		.uleb128 0x1
 6882 00d6 13       		.uleb128 0x13
 6883 00d7 00       		.byte	0
 6884 00d8 00       		.byte	0
 6885 00d9 10       		.uleb128 0x10
 6886 00da 34       		.uleb128 0x34
 6887 00db 00       		.byte	0
 6888 00dc 03       		.uleb128 0x3
 6889 00dd 08       		.uleb128 0x8
 6890 00de 3A       		.uleb128 0x3a
 6891 00df 0B       		.uleb128 0xb
 6892 00e0 3B       		.uleb128 0x3b
 6893 00e1 0B       		.uleb128 0xb
 6894 00e2 49       		.uleb128 0x49
 6895 00e3 13       		.uleb128 0x13
 6896 00e4 02       		.uleb128 0x2
 6897 00e5 18       		.uleb128 0x18
 6898 00e6 00       		.byte	0
 6899 00e7 00       		.byte	0
 6900 00e8 11       		.uleb128 0x11
 6901 00e9 2E       		.uleb128 0x2e
 6902 00ea 00       		.byte	0
 6903 00eb 3F       		.uleb128 0x3f
 6904 00ec 19       		.uleb128 0x19
 6905 00ed 03       		.uleb128 0x3
 6906 00ee 0E       		.uleb128 0xe
 6907 00ef 3A       		.uleb128 0x3a
 6908 00f0 0B       		.uleb128 0xb
 6909 00f1 3B       		.uleb128 0x3b
 6910 00f2 0B       		.uleb128 0xb
 6911 00f3 11       		.uleb128 0x11
 6912 00f4 01       		.uleb128 0x1
 6913 00f5 12       		.uleb128 0x12
ARM GAS  C:\Users\Petro\AppData\Local\Temp\ccxzvnq1.s 			page 139


 6914 00f6 06       		.uleb128 0x6
 6915 00f7 40       		.uleb128 0x40
 6916 00f8 18       		.uleb128 0x18
 6917 00f9 9642     		.uleb128 0x2116
 6918 00fb 19       		.uleb128 0x19
 6919 00fc 00       		.byte	0
 6920 00fd 00       		.byte	0
 6921 00fe 12       		.uleb128 0x12
 6922 00ff 0B       		.uleb128 0xb
 6923 0100 01       		.byte	0x1
 6924 0101 11       		.uleb128 0x11
 6925 0102 01       		.uleb128 0x1
 6926 0103 12       		.uleb128 0x12
 6927 0104 06       		.uleb128 0x6
 6928 0105 00       		.byte	0
 6929 0106 00       		.byte	0
 6930 0107 13       		.uleb128 0x13
 6931 0108 2E       		.uleb128 0x2e
 6932 0109 01       		.byte	0x1
 6933 010a 3F       		.uleb128 0x3f
 6934 010b 19       		.uleb128 0x19
 6935 010c 03       		.uleb128 0x3
 6936 010d 0E       		.uleb128 0xe
 6937 010e 3A       		.uleb128 0x3a
 6938 010f 0B       		.uleb128 0xb
 6939 0110 3B       		.uleb128 0x3b
 6940 0111 0B       		.uleb128 0xb
 6941 0112 11       		.uleb128 0x11
 6942 0113 01       		.uleb128 0x1
 6943 0114 12       		.uleb128 0x12
 6944 0115 06       		.uleb128 0x6
 6945 0116 40       		.uleb128 0x40
 6946 0117 18       		.uleb128 0x18
 6947 0118 9742     		.uleb128 0x2117
 6948 011a 19       		.uleb128 0x19
 6949 011b 01       		.uleb128 0x1
 6950 011c 13       		.uleb128 0x13
 6951 011d 00       		.byte	0
 6952 011e 00       		.byte	0
 6953 011f 14       		.uleb128 0x14
 6954 0120 2E       		.uleb128 0x2e
 6955 0121 01       		.byte	0x1
 6956 0122 3F       		.uleb128 0x3f
 6957 0123 19       		.uleb128 0x19
 6958 0124 03       		.uleb128 0x3
 6959 0125 0E       		.uleb128 0xe
 6960 0126 3A       		.uleb128 0x3a
 6961 0127 0B       		.uleb128 0xb
 6962 0128 3B       		.uleb128 0x3b
 6963 0129 0B       		.uleb128 0xb
 6964 012a 27       		.uleb128 0x27
 6965 012b 19       		.uleb128 0x19
 6966 012c 11       		.uleb128 0x11
 6967 012d 01       		.uleb128 0x1
 6968 012e 12       		.uleb128 0x12
 6969 012f 06       		.uleb128 0x6
 6970 0130 40       		.uleb128 0x40
ARM GAS  C:\Users\Petro\AppData\Local\Temp\ccxzvnq1.s 			page 140


 6971 0131 18       		.uleb128 0x18
 6972 0132 9742     		.uleb128 0x2117
 6973 0134 19       		.uleb128 0x19
 6974 0135 01       		.uleb128 0x1
 6975 0136 13       		.uleb128 0x13
 6976 0137 00       		.byte	0
 6977 0138 00       		.byte	0
 6978 0139 15       		.uleb128 0x15
 6979 013a 34       		.uleb128 0x34
 6980 013b 00       		.byte	0
 6981 013c 03       		.uleb128 0x3
 6982 013d 08       		.uleb128 0x8
 6983 013e 3A       		.uleb128 0x3a
 6984 013f 0B       		.uleb128 0xb
 6985 0140 3B       		.uleb128 0x3b
 6986 0141 0B       		.uleb128 0xb
 6987 0142 49       		.uleb128 0x49
 6988 0143 13       		.uleb128 0x13
 6989 0144 00       		.byte	0
 6990 0145 00       		.byte	0
 6991 0146 16       		.uleb128 0x16
 6992 0147 34       		.uleb128 0x34
 6993 0148 00       		.byte	0
 6994 0149 03       		.uleb128 0x3
 6995 014a 08       		.uleb128 0x8
 6996 014b 3A       		.uleb128 0x3a
 6997 014c 0B       		.uleb128 0xb
 6998 014d 3B       		.uleb128 0x3b
 6999 014e 05       		.uleb128 0x5
 7000 014f 49       		.uleb128 0x49
 7001 0150 13       		.uleb128 0x13
 7002 0151 02       		.uleb128 0x2
 7003 0152 18       		.uleb128 0x18
 7004 0153 00       		.byte	0
 7005 0154 00       		.byte	0
 7006 0155 17       		.uleb128 0x17
 7007 0156 2E       		.uleb128 0x2e
 7008 0157 01       		.byte	0x1
 7009 0158 3F       		.uleb128 0x3f
 7010 0159 19       		.uleb128 0x19
 7011 015a 03       		.uleb128 0x3
 7012 015b 0E       		.uleb128 0xe
 7013 015c 3A       		.uleb128 0x3a
 7014 015d 0B       		.uleb128 0xb
 7015 015e 3B       		.uleb128 0x3b
 7016 015f 05       		.uleb128 0x5
 7017 0160 27       		.uleb128 0x27
 7018 0161 19       		.uleb128 0x19
 7019 0162 11       		.uleb128 0x11
 7020 0163 01       		.uleb128 0x1
 7021 0164 12       		.uleb128 0x12
 7022 0165 06       		.uleb128 0x6
 7023 0166 40       		.uleb128 0x40
 7024 0167 18       		.uleb128 0x18
 7025 0168 9642     		.uleb128 0x2116
 7026 016a 19       		.uleb128 0x19
 7027 016b 01       		.uleb128 0x1
ARM GAS  C:\Users\Petro\AppData\Local\Temp\ccxzvnq1.s 			page 141


 7028 016c 13       		.uleb128 0x13
 7029 016d 00       		.byte	0
 7030 016e 00       		.byte	0
 7031 016f 18       		.uleb128 0x18
 7032 0170 05       		.uleb128 0x5
 7033 0171 00       		.byte	0
 7034 0172 03       		.uleb128 0x3
 7035 0173 08       		.uleb128 0x8
 7036 0174 3A       		.uleb128 0x3a
 7037 0175 0B       		.uleb128 0xb
 7038 0176 3B       		.uleb128 0x3b
 7039 0177 05       		.uleb128 0x5
 7040 0178 49       		.uleb128 0x49
 7041 0179 13       		.uleb128 0x13
 7042 017a 02       		.uleb128 0x2
 7043 017b 18       		.uleb128 0x18
 7044 017c 00       		.byte	0
 7045 017d 00       		.byte	0
 7046 017e 19       		.uleb128 0x19
 7047 017f 05       		.uleb128 0x5
 7048 0180 00       		.byte	0
 7049 0181 03       		.uleb128 0x3
 7050 0182 0E       		.uleb128 0xe
 7051 0183 3A       		.uleb128 0x3a
 7052 0184 0B       		.uleb128 0xb
 7053 0185 3B       		.uleb128 0x3b
 7054 0186 05       		.uleb128 0x5
 7055 0187 49       		.uleb128 0x49
 7056 0188 13       		.uleb128 0x13
 7057 0189 02       		.uleb128 0x2
 7058 018a 18       		.uleb128 0x18
 7059 018b 00       		.byte	0
 7060 018c 00       		.byte	0
 7061 018d 1A       		.uleb128 0x1a
 7062 018e 34       		.uleb128 0x34
 7063 018f 00       		.byte	0
 7064 0190 03       		.uleb128 0x3
 7065 0191 0E       		.uleb128 0xe
 7066 0192 3A       		.uleb128 0x3a
 7067 0193 0B       		.uleb128 0xb
 7068 0194 3B       		.uleb128 0x3b
 7069 0195 05       		.uleb128 0x5
 7070 0196 49       		.uleb128 0x49
 7071 0197 13       		.uleb128 0x13
 7072 0198 02       		.uleb128 0x2
 7073 0199 18       		.uleb128 0x18
 7074 019a 00       		.byte	0
 7075 019b 00       		.byte	0
 7076 019c 1B       		.uleb128 0x1b
 7077 019d 0B       		.uleb128 0xb
 7078 019e 01       		.byte	0x1
 7079 019f 11       		.uleb128 0x11
 7080 01a0 01       		.uleb128 0x1
 7081 01a1 12       		.uleb128 0x12
 7082 01a2 06       		.uleb128 0x6
 7083 01a3 01       		.uleb128 0x1
 7084 01a4 13       		.uleb128 0x13
ARM GAS  C:\Users\Petro\AppData\Local\Temp\ccxzvnq1.s 			page 142


 7085 01a5 00       		.byte	0
 7086 01a6 00       		.byte	0
 7087 01a7 1C       		.uleb128 0x1c
 7088 01a8 2E       		.uleb128 0x2e
 7089 01a9 01       		.byte	0x1
 7090 01aa 3F       		.uleb128 0x3f
 7091 01ab 19       		.uleb128 0x19
 7092 01ac 03       		.uleb128 0x3
 7093 01ad 0E       		.uleb128 0xe
 7094 01ae 3A       		.uleb128 0x3a
 7095 01af 0B       		.uleb128 0xb
 7096 01b0 3B       		.uleb128 0x3b
 7097 01b1 05       		.uleb128 0x5
 7098 01b2 27       		.uleb128 0x27
 7099 01b3 19       		.uleb128 0x19
 7100 01b4 11       		.uleb128 0x11
 7101 01b5 01       		.uleb128 0x1
 7102 01b6 12       		.uleb128 0x12
 7103 01b7 06       		.uleb128 0x6
 7104 01b8 40       		.uleb128 0x40
 7105 01b9 18       		.uleb128 0x18
 7106 01ba 9742     		.uleb128 0x2117
 7107 01bc 19       		.uleb128 0x19
 7108 01bd 01       		.uleb128 0x1
 7109 01be 13       		.uleb128 0x13
 7110 01bf 00       		.byte	0
 7111 01c0 00       		.byte	0
 7112 01c1 1D       		.uleb128 0x1d
 7113 01c2 34       		.uleb128 0x34
 7114 01c3 00       		.byte	0
 7115 01c4 03       		.uleb128 0x3
 7116 01c5 08       		.uleb128 0x8
 7117 01c6 3A       		.uleb128 0x3a
 7118 01c7 0B       		.uleb128 0xb
 7119 01c8 3B       		.uleb128 0x3b
 7120 01c9 05       		.uleb128 0x5
 7121 01ca 49       		.uleb128 0x49
 7122 01cb 13       		.uleb128 0x13
 7123 01cc 00       		.byte	0
 7124 01cd 00       		.byte	0
 7125 01ce 1E       		.uleb128 0x1e
 7126 01cf 34       		.uleb128 0x34
 7127 01d0 00       		.byte	0
 7128 01d1 03       		.uleb128 0x3
 7129 01d2 0E       		.uleb128 0xe
 7130 01d3 3A       		.uleb128 0x3a
 7131 01d4 0B       		.uleb128 0xb
 7132 01d5 3B       		.uleb128 0x3b
 7133 01d6 0B       		.uleb128 0xb
 7134 01d7 49       		.uleb128 0x49
 7135 01d8 13       		.uleb128 0x13
 7136 01d9 3F       		.uleb128 0x3f
 7137 01da 19       		.uleb128 0x19
 7138 01db 02       		.uleb128 0x2
 7139 01dc 18       		.uleb128 0x18
 7140 01dd 00       		.byte	0
 7141 01de 00       		.byte	0
ARM GAS  C:\Users\Petro\AppData\Local\Temp\ccxzvnq1.s 			page 143


 7142 01df 1F       		.uleb128 0x1f
 7143 01e0 21       		.uleb128 0x21
 7144 01e1 00       		.byte	0
 7145 01e2 49       		.uleb128 0x49
 7146 01e3 13       		.uleb128 0x13
 7147 01e4 2F       		.uleb128 0x2f
 7148 01e5 05       		.uleb128 0x5
 7149 01e6 00       		.byte	0
 7150 01e7 00       		.byte	0
 7151 01e8 00       		.byte	0
 7152              		.section	.debug_aranges,"",%progbits
 7153 0000 1C010000 		.4byte	0x11c
 7154 0004 0200     		.2byte	0x2
 7155 0006 00000000 		.4byte	.Ldebug_info0
 7156 000a 04       		.byte	0x4
 7157 000b 00       		.byte	0
 7158 000c 0000     		.2byte	0
 7159 000e 0000     		.2byte	0
 7160 0010 00000000 		.4byte	.LFB63
 7161 0014 40000000 		.4byte	.LFE63-.LFB63
 7162 0018 00000000 		.4byte	.LFB64
 7163 001c 38000000 		.4byte	.LFE64-.LFB64
 7164 0020 00000000 		.4byte	.LFB65
 7165 0024 A8000000 		.4byte	.LFE65-.LFB65
 7166 0028 00000000 		.4byte	.LFB66
 7167 002c 54000000 		.4byte	.LFE66-.LFB66
 7168 0030 00000000 		.4byte	.LFB67
 7169 0034 4C000000 		.4byte	.LFE67-.LFB67
 7170 0038 00000000 		.4byte	.LFB68
 7171 003c 5C000000 		.4byte	.LFE68-.LFB68
 7172 0040 00000000 		.4byte	.LFB69
 7173 0044 58000000 		.4byte	.LFE69-.LFB69
 7174 0048 00000000 		.4byte	.LFB70
 7175 004c 30000000 		.4byte	.LFE70-.LFB70
 7176 0050 00000000 		.4byte	.LFB71
 7177 0054 30000000 		.4byte	.LFE71-.LFB71
 7178 0058 00000000 		.4byte	.LFB72
 7179 005c 2C000000 		.4byte	.LFE72-.LFB72
 7180 0060 00000000 		.4byte	.LFB73
 7181 0064 74000000 		.4byte	.LFE73-.LFB73
 7182 0068 00000000 		.4byte	.LFB74
 7183 006c 78000000 		.4byte	.LFE74-.LFB74
 7184 0070 00000000 		.4byte	.LFB75
 7185 0074 B4000000 		.4byte	.LFE75-.LFB75
 7186 0078 00000000 		.4byte	.LFB76
 7187 007c 2C000000 		.4byte	.LFE76-.LFB76
 7188 0080 00000000 		.4byte	.LFB77
 7189 0084 98000000 		.4byte	.LFE77-.LFB77
 7190 0088 00000000 		.4byte	.LFB78
 7191 008c 22000000 		.4byte	.LFE78-.LFB78
 7192 0090 00000000 		.4byte	.LFB79
 7193 0094 A8010000 		.4byte	.LFE79-.LFB79
 7194 0098 00000000 		.4byte	.LFB80
 7195 009c 54010000 		.4byte	.LFE80-.LFB80
 7196 00a0 00000000 		.4byte	.LFB81
 7197 00a4 B4020000 		.4byte	.LFE81-.LFB81
 7198 00a8 00000000 		.4byte	.LFB82
ARM GAS  C:\Users\Petro\AppData\Local\Temp\ccxzvnq1.s 			page 144


 7199 00ac 48000000 		.4byte	.LFE82-.LFB82
 7200 00b0 00000000 		.4byte	.LFB83
 7201 00b4 98000000 		.4byte	.LFE83-.LFB83
 7202 00b8 00000000 		.4byte	.LFB84
 7203 00bc 9C000000 		.4byte	.LFE84-.LFB84
 7204 00c0 00000000 		.4byte	.LFB85
 7205 00c4 56000000 		.4byte	.LFE85-.LFB85
 7206 00c8 00000000 		.4byte	.LFB86
 7207 00cc 56000000 		.4byte	.LFE86-.LFB86
 7208 00d0 00000000 		.4byte	.LFB87
 7209 00d4 C0020000 		.4byte	.LFE87-.LFB87
 7210 00d8 00000000 		.4byte	.LFB88
 7211 00dc C0020000 		.4byte	.LFE88-.LFB88
 7212 00e0 00000000 		.4byte	.LFB89
 7213 00e4 8E000000 		.4byte	.LFE89-.LFB89
 7214 00e8 00000000 		.4byte	.LFB90
 7215 00ec 8E000000 		.4byte	.LFE90-.LFB90
 7216 00f0 00000000 		.4byte	.LFB91
 7217 00f4 0C010000 		.4byte	.LFE91-.LFB91
 7218 00f8 00000000 		.4byte	.LFB92
 7219 00fc 0C010000 		.4byte	.LFE92-.LFB92
 7220 0100 00000000 		.4byte	.LFB93
 7221 0104 CC010000 		.4byte	.LFE93-.LFB93
 7222 0108 00000000 		.4byte	.LFB94
 7223 010c CC010000 		.4byte	.LFE94-.LFB94
 7224 0110 00000000 		.4byte	.LFB95
 7225 0114 CC000000 		.4byte	.LFE95-.LFB95
 7226 0118 00000000 		.4byte	0
 7227 011c 00000000 		.4byte	0
 7228              		.section	.debug_ranges,"",%progbits
 7229              	.Ldebug_ranges0:
 7230 0000 00000000 		.4byte	.LFB63
 7231 0004 40000000 		.4byte	.LFE63
 7232 0008 00000000 		.4byte	.LFB64
 7233 000c 38000000 		.4byte	.LFE64
 7234 0010 00000000 		.4byte	.LFB65
 7235 0014 A8000000 		.4byte	.LFE65
 7236 0018 00000000 		.4byte	.LFB66
 7237 001c 54000000 		.4byte	.LFE66
 7238 0020 00000000 		.4byte	.LFB67
 7239 0024 4C000000 		.4byte	.LFE67
 7240 0028 00000000 		.4byte	.LFB68
 7241 002c 5C000000 		.4byte	.LFE68
 7242 0030 00000000 		.4byte	.LFB69
 7243 0034 58000000 		.4byte	.LFE69
 7244 0038 00000000 		.4byte	.LFB70
 7245 003c 30000000 		.4byte	.LFE70
 7246 0040 00000000 		.4byte	.LFB71
 7247 0044 30000000 		.4byte	.LFE71
 7248 0048 00000000 		.4byte	.LFB72
 7249 004c 2C000000 		.4byte	.LFE72
 7250 0050 00000000 		.4byte	.LFB73
 7251 0054 74000000 		.4byte	.LFE73
 7252 0058 00000000 		.4byte	.LFB74
 7253 005c 78000000 		.4byte	.LFE74
 7254 0060 00000000 		.4byte	.LFB75
 7255 0064 B4000000 		.4byte	.LFE75
ARM GAS  C:\Users\Petro\AppData\Local\Temp\ccxzvnq1.s 			page 145


 7256 0068 00000000 		.4byte	.LFB76
 7257 006c 2C000000 		.4byte	.LFE76
 7258 0070 00000000 		.4byte	.LFB77
 7259 0074 98000000 		.4byte	.LFE77
 7260 0078 00000000 		.4byte	.LFB78
 7261 007c 22000000 		.4byte	.LFE78
 7262 0080 00000000 		.4byte	.LFB79
 7263 0084 A8010000 		.4byte	.LFE79
 7264 0088 00000000 		.4byte	.LFB80
 7265 008c 54010000 		.4byte	.LFE80
 7266 0090 00000000 		.4byte	.LFB81
 7267 0094 B4020000 		.4byte	.LFE81
 7268 0098 00000000 		.4byte	.LFB82
 7269 009c 48000000 		.4byte	.LFE82
 7270 00a0 00000000 		.4byte	.LFB83
 7271 00a4 98000000 		.4byte	.LFE83
 7272 00a8 00000000 		.4byte	.LFB84
 7273 00ac 9C000000 		.4byte	.LFE84
 7274 00b0 00000000 		.4byte	.LFB85
 7275 00b4 56000000 		.4byte	.LFE85
 7276 00b8 00000000 		.4byte	.LFB86
 7277 00bc 56000000 		.4byte	.LFE86
 7278 00c0 00000000 		.4byte	.LFB87
 7279 00c4 C0020000 		.4byte	.LFE87
 7280 00c8 00000000 		.4byte	.LFB88
 7281 00cc C0020000 		.4byte	.LFE88
 7282 00d0 00000000 		.4byte	.LFB89
 7283 00d4 8E000000 		.4byte	.LFE89
 7284 00d8 00000000 		.4byte	.LFB90
 7285 00dc 8E000000 		.4byte	.LFE90
 7286 00e0 00000000 		.4byte	.LFB91
 7287 00e4 0C010000 		.4byte	.LFE91
 7288 00e8 00000000 		.4byte	.LFB92
 7289 00ec 0C010000 		.4byte	.LFE92
 7290 00f0 00000000 		.4byte	.LFB93
 7291 00f4 CC010000 		.4byte	.LFE93
 7292 00f8 00000000 		.4byte	.LFB94
 7293 00fc CC010000 		.4byte	.LFE94
 7294 0100 00000000 		.4byte	.LFB95
 7295 0104 CC000000 		.4byte	.LFE95
 7296 0108 00000000 		.4byte	0
 7297 010c 00000000 		.4byte	0
 7298              		.section	.debug_line,"",%progbits
 7299              	.Ldebug_line0:
 7300 0000 0C080000 		.section	.debug_str,"MS",%progbits,1
 7300      02007701 
 7300      00000201 
 7300      FB0E0D00 
 7300      01010101 
 7301              	.LASF54:
 7302 0000 666F6E74 		.ascii	"font_idx\000"
 7302      5F696478 
 7302      00
 7303              	.LASF22:
 7304 0009 6E756D63 		.ascii	"numchars\000"
 7304      68617273 
 7304      00
ARM GAS  C:\Users\Petro\AppData\Local\Temp\ccxzvnq1.s 			page 146


 7305              	.LASF70:
 7306 0012 64726177 		.ascii	"drawCircle\000"
 7306      43697263 
 7306      6C6500
 7307              	.LASF60:
 7308 001d 636C7248 		.ascii	"clrHLine\000"
 7308      4C696E65 
 7308      00
 7309              	.LASF78:
 7310 0026 73637262 		.ascii	"scrbuf\000"
 7310      756600
 7311              	.LASF2:
 7312 002d 73686F72 		.ascii	"short int\000"
 7312      7420696E 
 7312      7400
 7313              	.LASF17:
 7314 0037 73697A65 		.ascii	"sizetype\000"
 7314      74797065 
 7314      00
 7315              	.LASF84:
 7316 0040 64697361 		.ascii	"disableSleep\000"
 7316      626C6553 
 7316      6C656570 
 7316      00
 7317              	.LASF44:
 7318 004d 696E7665 		.ascii	"invertText\000"
 7318      72745465 
 7318      787400
 7319              	.LASF8:
 7320 0058 6C6F6E67 		.ascii	"long long int\000"
 7320      206C6F6E 
 7320      6720696E 
 7320      7400
 7321              	.LASF18:
 7322 0066 666F6E74 		.ascii	"font\000"
 7322      00
 7323              	.LASF30:
 7324 006b 6D6F6465 		.ascii	"mode\000"
 7324      00
 7325              	.LASF55:
 7326 0070 726F7763 		.ascii	"rowcnt\000"
 7326      6E7400
 7327              	.LASF61:
 7328 0077 64726177 		.ascii	"drawVLine\000"
 7328      564C696E 
 7328      6500
 7329              	.LASF4:
 7330 0081 5F5F7569 		.ascii	"__uint16_t\000"
 7330      6E743136 
 7330      5F7400
 7331              	.LASF57:
 7332 008c 63626974 		.ascii	"cbit\000"
 7332      00
 7333              	.LASF64:
 7334 0091 64656C74 		.ascii	"delta\000"
 7334      6100
 7335              	.LASF11:
ARM GAS  C:\Users\Petro\AppData\Local\Temp\ccxzvnq1.s 			page 147


 7336 0097 75696E74 		.ascii	"uint8_t\000"
 7336      385F7400 
 7337              	.LASF83:
 7338 009f 443A5C43 		.ascii	"D:\\Cypress\\system-start-finish\\vesion 2\\fw\\sta"
 7338      79707265 
 7338      73735C73 
 7338      79737465 
 7338      6D2D7374 
 7339 00cd 72745C73 		.ascii	"rt\\sandbox\\v9_testmode\\start_v9testmode.cydsn\000"
 7339      616E6462 
 7339      6F785C76 
 7339      395F7465 
 7339      73746D6F 
 7340              	.LASF76:
 7341 00fb 6269746D 		.ascii	"bitmap\000"
 7341      617000
 7342              	.LASF59:
 7343 0102 64726177 		.ascii	"drawHLine\000"
 7343      484C696E 
 7343      6500
 7344              	.LASF63:
 7345 010c 64726177 		.ascii	"drawLine\000"
 7345      4C696E65 
 7345      00
 7346              	.LASF65:
 7347 0115 636C724C 		.ascii	"clrLine\000"
 7347      696E6500 
 7348              	.LASF42:
 7349 011d 636C7250 		.ascii	"clrPixel\000"
 7349      6978656C 
 7349      00
 7350              	.LASF0:
 7351 0126 7369676E 		.ascii	"signed char\000"
 7351      65642063 
 7351      68617200 
 7352              	.LASF25:
 7353 0132 77696474 		.ascii	"width\000"
 7353      6800
 7354              	.LASF53:
 7355 0138 5F707269 		.ascii	"_print_char\000"
 7355      6E745F63 
 7355      68617200 
 7356              	.LASF14:
 7357 0144 666C6F61 		.ascii	"float\000"
 7357      7400
 7358              	.LASF74:
 7359 014a 636C7243 		.ascii	"clrCircle\000"
 7359      6972636C 
 7359      6500
 7360              	.LASF34:
 7361 0154 666F726D 		.ascii	"format\000"
 7361      617400
 7362              	.LASF24:
 7363 015b 5F637572 		.ascii	"_current_font\000"
 7363      72656E74 
 7363      5F666F6E 
 7363      7400
ARM GAS  C:\Users\Petro\AppData\Local\Temp\ccxzvnq1.s 			page 148


 7364              	.LASF36:
 7365 0169 75706461 		.ascii	"update\000"
 7365      746500
 7366              	.LASF6:
 7367 0170 6C6F6E67 		.ascii	"long int\000"
 7367      20696E74 
 7367      00
 7368              	.LASF69:
 7369 0179 636C7252 		.ascii	"clrRoundRect\000"
 7369      6F756E64 
 7369      52656374 
 7369      00
 7370              	.LASF21:
 7371 0186 6F666673 		.ascii	"offset\000"
 7371      657400
 7372              	.LASF7:
 7373 018d 6C6F6E67 		.ascii	"long unsigned int\000"
 7373      20756E73 
 7373      69676E65 
 7373      6420696E 
 7373      7400
 7374              	.LASF3:
 7375 019f 5F5F7569 		.ascii	"__uint8_t\000"
 7375      6E74385F 
 7375      7400
 7376              	.LASF43:
 7377 01a9 696E7650 		.ascii	"invPixel\000"
 7377      6978656C 
 7377      00
 7378              	.LASF66:
 7379 01b2 64726177 		.ascii	"drawRect\000"
 7379      52656374 
 7379      00
 7380              	.LASF67:
 7381 01bb 636C7252 		.ascii	"clrRect\000"
 7381      65637400 
 7382              	.LASF20:
 7383 01c3 795F7369 		.ascii	"y_size\000"
 7383      7A6500
 7384              	.LASF48:
 7385 01ca 6C656E67 		.ascii	"length\000"
 7385      746800
 7386              	.LASF68:
 7387 01d1 64726177 		.ascii	"drawRoundRect\000"
 7387      526F756E 
 7387      64526563 
 7387      7400
 7388              	.LASF1:
 7389 01df 756E7369 		.ascii	"unsigned char\000"
 7389      676E6564 
 7389      20636861 
 7389      7200
 7390              	.LASF77:
 7391 01ed 63666F6E 		.ascii	"cfont\000"
 7391      7400
 7392              	.LASF71:
 7393 01f3 72616469 		.ascii	"radius\000"
ARM GAS  C:\Users\Petro\AppData\Local\Temp\ccxzvnq1.s 			page 149


 7393      757300
 7394              	.LASF58:
 7395 01fa 73657446 		.ascii	"setFont\000"
 7395      6F6E7400 
 7396              	.LASF56:
 7397 0202 63627974 		.ascii	"cbyte\000"
 7397      6500
 7398              	.LASF9:
 7399 0208 6C6F6E67 		.ascii	"long long unsigned int\000"
 7399      206C6F6E 
 7399      6720756E 
 7399      7369676E 
 7399      65642069 
 7400              	.LASF23:
 7401 021f 696E7665 		.ascii	"inverted\000"
 7401      72746564 
 7401      00
 7402              	.LASF75:
 7403 0228 64726177 		.ascii	"drawBitmap\000"
 7403      4269746D 
 7403      617000
 7404              	.LASF10:
 7405 0233 756E7369 		.ascii	"unsigned int\000"
 7405      676E6564 
 7405      20696E74 
 7405      00
 7406              	.LASF80:
 7407 0240 5F636F6E 		.ascii	"_contrast\000"
 7407      74726173 
 7407      7400
 7408              	.LASF12:
 7409 024a 75696E74 		.ascii	"uint16_t\000"
 7409      31365F74 
 7409      00
 7410              	.LASF41:
 7411 0253 73657450 		.ascii	"setPixel\000"
 7411      6978656C 
 7411      00
 7412              	.LASF27:
 7413 025c 5F636F6E 		.ascii	"_convert_float\000"
 7413      76657274 
 7413      5F666C6F 
 7413      617400
 7414              	.LASF31:
 7415 026b 496E6974 		.ascii	"InitLCD\000"
 7415      4C434400 
 7416              	.LASF5:
 7417 0273 73686F72 		.ascii	"short unsigned int\000"
 7417      7420756E 
 7417      7369676E 
 7417      65642069 
 7417      6E7400
 7418              	.LASF16:
 7419 0286 63686172 		.ascii	"char\000"
 7419      00
 7420              	.LASF28:
 7421 028b 5F4C4344 		.ascii	"_LCD_Write\000"
ARM GAS  C:\Users\Petro\AppData\Local\Temp\ccxzvnq1.s 			page 150


 7421      5F577269 
 7421      746500
 7422              	.LASF39:
 7423 0296 696E7665 		.ascii	"invert\000"
 7423      727400
 7424              	.LASF40:
 7425 029d 5F426F6F 		.ascii	"_Bool\000"
 7425      6C00
 7426              	.LASF79:
 7427 02a3 5F736C65 		.ascii	"_sleep\000"
 7427      657000
 7428              	.LASF29:
 7429 02aa 64617461 		.ascii	"data\000"
 7429      00
 7430              	.LASF46:
 7431 02af 7072696E 		.ascii	"prints\000"
 7431      747300
 7432              	.LASF72:
 7433 02b6 6464465F 		.ascii	"ddF_x\000"
 7433      7800
 7434              	.LASF73:
 7435 02bc 6464465F 		.ascii	"ddF_y\000"
 7435      7900
 7436              	.LASF38:
 7437 02c2 66696C6C 		.ascii	"fillScr\000"
 7437      53637200 
 7438              	.LASF50:
 7439 02ca 7072696E 		.ascii	"printNumF\000"
 7439      744E756D 
 7439      4600
 7440              	.LASF47:
 7441 02d4 7072696E 		.ascii	"printNumI\000"
 7441      744E756D 
 7441      4900
 7442              	.LASF52:
 7443 02de 73697A65 		.ascii	"size\000"
 7443      00
 7444              	.LASF32:
 7445 02e3 636F6E74 		.ascii	"contrast\000"
 7445      72617374 
 7445      00
 7446              	.LASF37:
 7447 02ec 636C7253 		.ascii	"clrScr\000"
 7447      637200
 7448              	.LASF45:
 7449 02f3 7072696E 		.ascii	"print\000"
 7449      7400
 7450              	.LASF49:
 7451 02f9 66696C6C 		.ascii	"filler\000"
 7451      657200
 7452              	.LASF26:
 7453 0300 70726563 		.ascii	"prec\000"
 7453      00
 7454              	.LASF81:
 7455 0305 474E5520 		.ascii	"GNU C 4.9.3 20150303 (release) [ARM/embedded-4_9-br"
 7455      4320342E 
 7455      392E3320 
ARM GAS  C:\Users\Petro\AppData\Local\Temp\ccxzvnq1.s 			page 151


 7455      32303135 
 7455      30333033 
 7456 0338 616E6368 		.ascii	"anch revision 221220] -mcpu=cortex-m0 -mthumb -g -O"
 7456      20726576 
 7456      6973696F 
 7456      6E203232 
 7456      31323230 
 7457 036b 30202D66 		.ascii	"0 -ffunction-sections -ffat-lto-objects\000"
 7457      66756E63 
 7457      74696F6E 
 7457      2D736563 
 7457      74696F6E 
 7458              	.LASF13:
 7459 0393 75696E74 		.ascii	"uint8\000"
 7459      3800
 7460              	.LASF15:
 7461 0399 646F7562 		.ascii	"double\000"
 7461      6C6500
 7462              	.LASF33:
 7463 03a0 73657443 		.ascii	"setContrast\000"
 7463      6F6E7472 
 7463      61737400 
 7464              	.LASF82:
 7465 03ac 6E6F6B69 		.ascii	"nokia5110\\LCD5110_Graph.c\000"
 7465      61353131 
 7465      305C4C43 
 7465      44353131 
 7465      305F4772 
 7466              	.LASF19:
 7467 03c6 785F7369 		.ascii	"x_size\000"
 7467      7A6500
 7468              	.LASF35:
 7469 03cd 656E6162 		.ascii	"enableSleep\000"
 7469      6C65536C 
 7469      65657000 
 7470              	.LASF51:
 7471 03d9 64697669 		.ascii	"divider\000"
 7471      64657200 
 7472              	.LASF62:
 7473 03e1 636C7256 		.ascii	"clrVLine\000"
 7473      4C696E65 
 7473      00
 7474              		.ident	"GCC: (GNU Tools for ARM Embedded Processors) 4.9.3 20150303 (release) [ARM/embedded-4_9-br
