ARM GAS  C:\Users\Petro\AppData\Local\Temp\ccg2lrAX.s 			page 1


   1              		.cpu cortex-m0
   2              		.fpu softvfp
   3              		.eabi_attribute 20, 1
   4              		.eabi_attribute 21, 1
   5              		.eabi_attribute 23, 3
   6              		.eabi_attribute 24, 1
   7              		.eabi_attribute 25, 1
   8              		.eabi_attribute 26, 1
   9              		.eabi_attribute 30, 6
  10              		.eabi_attribute 34, 0
  11              		.eabi_attribute 18, 4
  12              		.code	16
  13              		.file	"LED.c"
  14              		.text
  15              	.Ltext0:
  16              		.cfi_sections	.debug_frame
  17              		.comm	LED_InitValue,1,1
  18              		.section	.text.LedInit,"ax",%progbits
  19              		.align	2
  20              		.global	LedInit
  21              		.code	16
  22              		.thumb_func
  23              		.type	LedInit, %function
  24              	LedInit:
  25              	.LFB2:
  26              		.file 1 "lib_LED\\LED.c"
   1:lib_LED/LED.c **** /* ========================================
   2:lib_LED/LED.c ****  *
   3:lib_LED/LED.c ****  * Copyright YOUR COMPANY, THE YEAR
   4:lib_LED/LED.c ****  * All Rights Reserved
   5:lib_LED/LED.c ****  * UNPUBLISHED, LICENSED SOFTWARE.
   6:lib_LED/LED.c ****  *
   7:lib_LED/LED.c ****  * CONFIDENTIAL AND PROPRIETARY INFORMATION
   8:lib_LED/LED.c ****  * WHICH IS THE PROPERTY OF your company.
   9:lib_LED/LED.c ****  *
  10:lib_LED/LED.c ****  * ========================================
  11:lib_LED/LED.c **** */
  12:lib_LED/LED.c **** #include "LED.h"
  13:lib_LED/LED.c **** #include <Timer_LED.h>
  14:lib_LED/LED.c **** #include <LED_RED_PIN.h>
  15:lib_LED/LED.c **** #include <LED_GREEN_PIN.h>
  16:lib_LED/LED.c **** #include <Int_Timer_Led.h>
  17:lib_LED/LED.c **** 
  18:lib_LED/LED.c **** // Max pulses in 16-Bit Resolution
  19:lib_LED/LED.c **** #define MAX_TICKS_16BIT                      (65535)
  20:lib_LED/LED.c **** 
  21:lib_LED/LED.c **** // Frequency Timer for Led in Hz. 
  22:lib_LED/LED.c **** #define FREQ_TIMER_LED                       (1000u)
  23:lib_LED/LED.c **** 
  24:lib_LED/LED.c **** /*******************************************
  25:lib_LED/LED.c ****     Change Frequency value to count pulses
  26:lib_LED/LED.c ****     Macros which value count pulses
  27:lib_LED/LED.c ****     Arguments
  28:lib_LED/LED.c ****                 Freq: Frequency with which want 
  29:lib_LED/LED.c ****                     light LED indicator
  30:lib_LED/LED.c ****     Macro
  31:lib_LED/LED.c ****                 FREQ_TIMER_LED : 
ARM GAS  C:\Users\Petro\AppData\Local\Temp\ccg2lrAX.s 			page 2


  32:lib_LED/LED.c ****                     Input Clock Timer_LED Frequency
  33:lib_LED/LED.c ****     Result 
  34:lib_LED/LED.c ****                 Count pulses which need 
  35:lib_LED/LED.c ****                     upload as Period in Timer
  36:lib_LED/LED.c ****                 
  37:lib_LED/LED.c ****                 Diving 2 because One Period have Low 
  38:lib_LED/LED.c ****                     and Hidh Levels
  39:lib_LED/LED.c ****     
  40:lib_LED/LED.c **** *******************************************/
  41:lib_LED/LED.c **** 
  42:lib_LED/LED.c **** #define FreqToTicks(Freq)        FREQ_TIMER_LED/(2*Freq)  
  43:lib_LED/LED.c **** CY_ISR_PROTO(LedHandler); /* Interrupt Timer */
  44:lib_LED/LED.c **** 
  45:lib_LED/LED.c **** uint8_t LED_InitValue;
  46:lib_LED/LED.c **** 
  47:lib_LED/LED.c **** 
  48:lib_LED/LED.c **** /*
  49:lib_LED/LED.c ****     Initialization timer and add interrupt to him 
  50:lib_LED/LED.c **** */
  51:lib_LED/LED.c **** void LedInit(void)
  52:lib_LED/LED.c **** {
  27              		.loc 1 52 0
  28              		.cfi_startproc
  29 0000 80B5     		push	{r7, lr}
  30              		.cfi_def_cfa_offset 8
  31              		.cfi_offset 7, -8
  32              		.cfi_offset 14, -4
  33 0002 00AF     		add	r7, sp, #0
  34              		.cfi_def_cfa_register 7
  53:lib_LED/LED.c ****     Timer_LED_Init();
  35              		.loc 1 53 0
  36 0004 FFF7FEFF 		bl	Timer_LED_Init
  54:lib_LED/LED.c ****     if (!LED_InitValue)
  37              		.loc 1 54 0
  38 0008 064B     		ldr	r3, .L3
  39 000a 1B78     		ldrb	r3, [r3]
  40 000c 002B     		cmp	r3, #0
  41 000e 03D1     		bne	.L2
  55:lib_LED/LED.c ****     {
  56:lib_LED/LED.c ****         Int_Timer_Led_StartEx(LedHandler);
  42              		.loc 1 56 0
  43 0010 054B     		ldr	r3, .L3+4
  44 0012 181C     		mov	r0, r3
  45 0014 FFF7FEFF 		bl	Int_Timer_Led_StartEx
  46              	.L2:
  57:lib_LED/LED.c ****     }
  58:lib_LED/LED.c ****     LED_InitValue = 1;
  47              		.loc 1 58 0
  48 0018 024B     		ldr	r3, .L3
  49 001a 0122     		mov	r2, #1
  50 001c 1A70     		strb	r2, [r3]
  59:lib_LED/LED.c **** }
  51              		.loc 1 59 0
  52 001e BD46     		mov	sp, r7
  53              		@ sp needed
  54 0020 80BD     		pop	{r7, pc}
  55              	.L4:
ARM GAS  C:\Users\Petro\AppData\Local\Temp\ccg2lrAX.s 			page 3


  56 0022 C046     		.align	2
  57              	.L3:
  58 0024 00000000 		.word	LED_InitValue
  59 0028 00000000 		.word	LedHandler
  60              		.cfi_endproc
  61              	.LFE2:
  62              		.size	LedInit, .-LedInit
  63              		.section	.text.LedHandler,"ax",%progbits
  64              		.align	2
  65              		.global	LedHandler
  66              		.code	16
  67              		.thumb_func
  68              		.type	LedHandler, %function
  69              	LedHandler:
  70              	.LFB3:
  60:lib_LED/LED.c **** 
  61:lib_LED/LED.c **** /*
  62:lib_LED/LED.c ****     Interrupt handler after lefting time one period light
  63:lib_LED/LED.c **** */
  64:lib_LED/LED.c **** CY_ISR(LedHandler)
  65:lib_LED/LED.c **** {
  71              		.loc 1 65 0
  72              		.cfi_startproc
  73 0000 80B5     		push	{r7, lr}
  74              		.cfi_def_cfa_offset 8
  75              		.cfi_offset 7, -8
  76              		.cfi_offset 14, -4
  77 0002 00AF     		add	r7, sp, #0
  78              		.cfi_def_cfa_register 7
  66:lib_LED/LED.c ****     LED_RED_PIN_Write(~LED_RED_PIN_Read());
  79              		.loc 1 66 0
  80 0004 FFF7FEFF 		bl	LED_RED_PIN_Read
  81 0008 031C     		mov	r3, r0
  82 000a DB43     		mvn	r3, r3
  83 000c DBB2     		uxtb	r3, r3
  84 000e 181C     		mov	r0, r3
  85 0010 FFF7FEFF 		bl	LED_RED_PIN_Write
  67:lib_LED/LED.c ****     Timer_LED_ClearInterrupt(Timer_LED_INTR_MASK_CC_MATCH);
  86              		.loc 1 67 0
  87 0014 0220     		mov	r0, #2
  88 0016 FFF7FEFF 		bl	Timer_LED_ClearInterrupt
  68:lib_LED/LED.c **** }
  89              		.loc 1 68 0
  90 001a BD46     		mov	sp, r7
  91              		@ sp needed
  92 001c 80BD     		pop	{r7, pc}
  93              		.cfi_endproc
  94              	.LFE3:
  95              		.size	LedHandler, .-LedHandler
  96              		.global	__aeabi_uidiv
  97 001e C046     		.section	.text.LedRedBlink,"ax",%progbits
  98              		.align	2
  99              		.global	LedRedBlink
 100              		.code	16
 101              		.thumb_func
 102              		.type	LedRedBlink, %function
 103              	LedRedBlink:
ARM GAS  C:\Users\Petro\AppData\Local\Temp\ccg2lrAX.s 			page 4


 104              	.LFB4:
  69:lib_LED/LED.c **** 
  70:lib_LED/LED.c **** /* 
  71:lib_LED/LED.c ****     Blinking Led with Frequency
  72:lib_LED/LED.c ****     Arguments: 
  73:lib_LED/LED.c ****         uint16_t Frequency: 
  74:lib_LED/LED.c ****         Frequency with which LED will blinking
  75:lib_LED/LED.c ****         Value in Hz
  76:lib_LED/LED.c **** */
  77:lib_LED/LED.c **** void LedRedBlink(uint16_t Frequency)
  78:lib_LED/LED.c **** {
 105              		.loc 1 78 0
 106              		.cfi_startproc
 107 0000 80B5     		push	{r7, lr}
 108              		.cfi_def_cfa_offset 8
 109              		.cfi_offset 7, -8
 110              		.cfi_offset 14, -4
 111 0002 84B0     		sub	sp, sp, #16
 112              		.cfi_def_cfa_offset 24
 113 0004 00AF     		add	r7, sp, #0
 114              		.cfi_def_cfa_register 7
 115 0006 021C     		mov	r2, r0
 116 0008 BB1D     		add	r3, r7, #6
 117 000a 1A80     		strh	r2, [r3]
  79:lib_LED/LED.c ****     uint32_t time_l;
  80:lib_LED/LED.c ****     time_l = FreqToTicks(Frequency);
 118              		.loc 1 80 0
 119 000c BB1D     		add	r3, r7, #6
 120 000e 1B88     		ldrh	r3, [r3]
 121 0010 5B00     		lsl	r3, r3, #1
 122 0012 1A1C     		mov	r2, r3
 123 0014 FA23     		mov	r3, #250
 124 0016 9800     		lsl	r0, r3, #2
 125 0018 111C     		mov	r1, r2
 126 001a FFF7FEFF 		bl	__aeabi_uidiv
 127 001e 031C     		mov	r3, r0
 128 0020 FB60     		str	r3, [r7, #12]
  81:lib_LED/LED.c ****     Timer_LED_WritePeriod(time_l);
 129              		.loc 1 81 0
 130 0022 FB68     		ldr	r3, [r7, #12]
 131 0024 181C     		mov	r0, r3
 132 0026 FFF7FEFF 		bl	Timer_LED_WritePeriod
  82:lib_LED/LED.c ****     Timer_LED_Enable();
 133              		.loc 1 82 0
 134 002a FFF7FEFF 		bl	Timer_LED_Enable
  83:lib_LED/LED.c **** }
 135              		.loc 1 83 0
 136 002e BD46     		mov	sp, r7
 137 0030 04B0     		add	sp, sp, #16
 138              		@ sp needed
 139 0032 80BD     		pop	{r7, pc}
 140              		.cfi_endproc
 141              	.LFE4:
 142              		.size	LedRedBlink, .-LedRedBlink
 143              		.section	.text.SetLedsState,"ax",%progbits
 144              		.align	2
 145              		.global	SetLedsState
ARM GAS  C:\Users\Petro\AppData\Local\Temp\ccg2lrAX.s 			page 5


 146              		.code	16
 147              		.thumb_func
 148              		.type	SetLedsState, %function
 149              	SetLedsState:
 150              	.LFB5:
  84:lib_LED/LED.c **** 
  85:lib_LED/LED.c **** /* 
  86:lib_LED/LED.c ****     Set static state LED indicator
  87:lib_LED/LED.c ****     Arguments: 
  88:lib_LED/LED.c ****         uint8_t State: 
  89:lib_LED/LED.c ****         High or low state.
  90:lib_LED/LED.c ****         High - ENABLE (1u), Low - Disable(0u)
  91:lib_LED/LED.c **** */
  92:lib_LED/LED.c **** void SetLedsState(uint8_t stateRed, uint8_t stateGreen)
  93:lib_LED/LED.c **** {
 151              		.loc 1 93 0
 152              		.cfi_startproc
 153 0000 80B5     		push	{r7, lr}
 154              		.cfi_def_cfa_offset 8
 155              		.cfi_offset 7, -8
 156              		.cfi_offset 14, -4
 157 0002 82B0     		sub	sp, sp, #8
 158              		.cfi_def_cfa_offset 16
 159 0004 00AF     		add	r7, sp, #0
 160              		.cfi_def_cfa_register 7
 161 0006 021C     		mov	r2, r0
 162 0008 FB1D     		add	r3, r7, #7
 163 000a 1A70     		strb	r2, [r3]
 164 000c BB1D     		add	r3, r7, #6
 165 000e 0A1C     		add	r2, r1, #0
 166 0010 1A70     		strb	r2, [r3]
  94:lib_LED/LED.c ****     Timer_LED_Stop();
 167              		.loc 1 94 0
 168 0012 FFF7FEFF 		bl	Timer_LED_Stop
  95:lib_LED/LED.c ****     LED_RED_PIN_Write(stateRed);
 169              		.loc 1 95 0
 170 0016 FB1D     		add	r3, r7, #7
 171 0018 1B78     		ldrb	r3, [r3]
 172 001a 181C     		mov	r0, r3
 173 001c FFF7FEFF 		bl	LED_RED_PIN_Write
  96:lib_LED/LED.c ****     LED_GREEN_PIN_Write(stateGreen);
 174              		.loc 1 96 0
 175 0020 BB1D     		add	r3, r7, #6
 176 0022 1B78     		ldrb	r3, [r3]
 177 0024 181C     		mov	r0, r3
 178 0026 FFF7FEFF 		bl	LED_GREEN_PIN_Write
  97:lib_LED/LED.c **** }
 179              		.loc 1 97 0
 180 002a BD46     		mov	sp, r7
 181 002c 02B0     		add	sp, sp, #8
 182              		@ sp needed
 183 002e 80BD     		pop	{r7, pc}
 184              		.cfi_endproc
 185              	.LFE5:
 186              		.size	SetLedsState, .-SetLedsState
 187              		.text
 188              	.Letext0:
ARM GAS  C:\Users\Petro\AppData\Local\Temp\ccg2lrAX.s 			page 6


 189              		.file 2 "c:\\program files (x86)\\cypress\\psoc creator\\4.0\\psoc creator\\import\\gnu\\arm\\4.9.
 190              		.file 3 "c:\\program files (x86)\\cypress\\psoc creator\\4.0\\psoc creator\\import\\gnu\\arm\\4.9.
 191              		.file 4 "Generated_Source\\PSoC4/cytypes.h"