ARM GAS  C:\Users\Petro\AppData\Local\Temp\cc2RmzAL.s 			page 1


   1              		.cpu cortex-m0
   2              		.fpu softvfp
   3              		.eabi_attribute 20, 1
   4              		.eabi_attribute 21, 1
   5              		.eabi_attribute 23, 3
   6              		.eabi_attribute 24, 1
   7              		.eabi_attribute 25, 1
   8              		.eabi_attribute 26, 1
   9              		.eabi_attribute 30, 6
  10              		.eabi_attribute 34, 0
  11              		.eabi_attribute 18, 4
  12              		.code	16
  13              		.file	"testMode.c"
  14              		.text
  15              	.Ltext0:
  16              		.cfi_sections	.debug_frame
  17              		.global	statusTestMode
  18              		.bss
  19              		.type	statusTestMode, %object
  20              		.size	statusTestMode, 1
  21              	statusTestMode:
  22 0000 00       		.space	1
  23              		.global	switchState
  24              		.data
  25              		.type	switchState, %object
  26              		.size	switchState, 1
  27              	switchState:
  28 0000 03       		.byte	3
  29              		.global	networkState
  30              		.type	networkState, %object
  31              		.size	networkState, 1
  32              	networkState:
  33 0001 03       		.byte	3
  34              		.bss
  35              	enableTestMode:
  36 0001 00       		.space	1
  37              		.section	.text.testModeHandler,"ax",%progbits
  38              		.align	2
  39              		.global	testModeHandler
  40              		.code	16
  41              		.thumb_func
  42              		.type	testModeHandler, %function
  43              	testModeHandler:
  44              	.LFB63:
  45              		.file 1 "lib_testMode\\testMode.c"
   1:lib_testMode/testMode.c **** #include "project.h"
   2:lib_testMode/testMode.c **** #include <stdlib.h>
   3:lib_testMode/testMode.c **** 
   4:lib_testMode/testMode.c **** #include <stdio.h>
   5:lib_testMode/testMode.c **** #include <lib_Display\Display.h>
   6:lib_testMode/testMode.c **** #include <lib_Network\network.h>
   7:lib_testMode/testMode.c **** #include <lib_Testmode\testMode.h>
   8:lib_testMode/testMode.c **** 
   9:lib_testMode/testMode.c **** #define COUNTER_TEST_MODE_ON   5
  10:lib_testMode/testMode.c **** #define COUNTER_TEST_MODE_OFF  7
  11:lib_testMode/testMode.c **** #define MAX_DELAY_CYCLES_IN_READING 2
  12:lib_testMode/testMode.c **** 
ARM GAS  C:\Users\Petro\AppData\Local\Temp\cc2RmzAL.s 			page 2


  13:lib_testMode/testMode.c **** enum status {STOPPED=0, RUN};
  14:lib_testMode/testMode.c **** typedef enum {HIGH_LEVEL, RISING_EDGE, FALLING_EDGE, LOW_LEVEL}funcReturnValue;
  15:lib_testMode/testMode.c **** 
  16:lib_testMode/testMode.c **** uint8_t statusTestMode = STOPPED;
  17:lib_testMode/testMode.c **** 
  18:lib_testMode/testMode.c **** funcReturnValue switchState = LOW_LEVEL;
  19:lib_testMode/testMode.c **** funcReturnValue networkState = LOW_LEVEL;
  20:lib_testMode/testMode.c **** 
  21:lib_testMode/testMode.c **** funcReturnValue ReadSwitchState();
  22:lib_testMode/testMode.c **** funcReturnValue ReadNetworkState();
  23:lib_testMode/testMode.c **** 
  24:lib_testMode/testMode.c **** static uint8_t enableTestMode;
  25:lib_testMode/testMode.c **** 
  26:lib_testMode/testMode.c **** CY_ISR(testModeHandler)
  27:lib_testMode/testMode.c **** {
  46              		.loc 1 27 0
  47              		.cfi_startproc
  48 0000 80B5     		push	{r7, lr}
  49              		.cfi_def_cfa_offset 8
  50              		.cfi_offset 7, -8
  51              		.cfi_offset 14, -4
  52 0002 00AF     		add	r7, sp, #0
  53              		.cfi_def_cfa_register 7
  28:lib_testMode/testMode.c ****     Pin_testMode_Write(0);
  54              		.loc 1 28 0
  55 0004 0020     		mov	r0, #0
  56 0006 FFF7FEFF 		bl	Pin_testMode_Write
  29:lib_testMode/testMode.c ****     Pin_testMode_Write(1);
  57              		.loc 1 29 0
  58 000a 0120     		mov	r0, #1
  59 000c FFF7FEFF 		bl	Pin_testMode_Write
  30:lib_testMode/testMode.c ****     
  31:lib_testMode/testMode.c ****     TimerTestMode_ClearInterrupt(TimerTestMode_INTR_MASK_CC_MATCH);
  60              		.loc 1 31 0
  61 0010 0220     		mov	r0, #2
  62 0012 FFF7FEFF 		bl	TimerTestMode_ClearInterrupt
  32:lib_testMode/testMode.c ****     statusTestMode = STOPPED;
  63              		.loc 1 32 0
  64 0016 024B     		ldr	r3, .L2
  65 0018 0022     		mov	r2, #0
  66 001a 1A70     		strb	r2, [r3]
  33:lib_testMode/testMode.c **** }
  67              		.loc 1 33 0
  68 001c BD46     		mov	sp, r7
  69              		@ sp needed
  70 001e 80BD     		pop	{r7, pc}
  71              	.L3:
  72              		.align	2
  73              	.L2:
  74 0020 00000000 		.word	statusTestMode
  75              		.cfi_endproc
  76              	.LFE63:
  77              		.size	testModeHandler, .-testModeHandler
  78              		.section	.text.newFuncTestMode,"ax",%progbits
  79              		.align	2
  80              		.global	newFuncTestMode
  81              		.code	16
ARM GAS  C:\Users\Petro\AppData\Local\Temp\cc2RmzAL.s 			page 3


  82              		.thumb_func
  83              		.type	newFuncTestMode, %function
  84              	newFuncTestMode:
  85              	.LFB64:
  34:lib_testMode/testMode.c **** 
  35:lib_testMode/testMode.c **** 
  36:lib_testMode/testMode.c **** void newFuncTestMode()
  37:lib_testMode/testMode.c **** {   
  86              		.loc 1 37 0
  87              		.cfi_startproc
  88 0000 80B5     		push	{r7, lr}
  89              		.cfi_def_cfa_offset 8
  90              		.cfi_offset 7, -8
  91              		.cfi_offset 14, -4
  92 0002 00AF     		add	r7, sp, #0
  93              		.cfi_def_cfa_register 7
  38:lib_testMode/testMode.c ****     ReadSwitchState();
  94              		.loc 1 38 0
  95 0004 FFF7FEFF 		bl	ReadSwitchState
  39:lib_testMode/testMode.c ****     ReadNetworkState();
  96              		.loc 1 39 0
  97 0008 FFF7FEFF 		bl	ReadNetworkState
  40:lib_testMode/testMode.c ****     
  41:lib_testMode/testMode.c ****     if(switchState == RISING_EDGE || networkState == RISING_EDGE)   //enable test mode
  98              		.loc 1 41 0
  99 000c 374B     		ldr	r3, .L12
 100 000e 1B78     		ldrb	r3, [r3]
 101 0010 012B     		cmp	r3, #1
 102 0012 03D0     		beq	.L5
 103              		.loc 1 41 0 is_stmt 0 discriminator 1
 104 0014 364B     		ldr	r3, .L12+4
 105 0016 1B78     		ldrb	r3, [r3]
 106 0018 012B     		cmp	r3, #1
 107 001a 1ED1     		bne	.L6
 108              	.L5:
  42:lib_testMode/testMode.c ****     {
  43:lib_testMode/testMode.c ****         DisplayTestMode(1);
 109              		.loc 1 43 0 is_stmt 1
 110 001c 0120     		mov	r0, #1
 111 001e FFF7FEFF 		bl	DisplayTestMode
  44:lib_testMode/testMode.c ****         NetworkSendTestModeStatus(1);
 112              		.loc 1 44 0
 113 0022 0120     		mov	r0, #1
 114 0024 FFF7FEFF 		bl	NetworkSendTestModeStatus
  45:lib_testMode/testMode.c ****         statusTestMode = STOPPED;
 115              		.loc 1 45 0
 116 0028 324B     		ldr	r3, .L12+8
 117 002a 0022     		mov	r2, #0
 118 002c 1A70     		strb	r2, [r3]
  46:lib_testMode/testMode.c ****         if(networkState == RISING_EDGE && switchState == LOW_LEVEL)
 119              		.loc 1 46 0
 120 002e 304B     		ldr	r3, .L12+4
 121 0030 1B78     		ldrb	r3, [r3]
 122 0032 012B     		cmp	r3, #1
 123 0034 06D1     		bne	.L7
 124              		.loc 1 46 0 is_stmt 0 discriminator 1
 125 0036 2D4B     		ldr	r3, .L12
ARM GAS  C:\Users\Petro\AppData\Local\Temp\cc2RmzAL.s 			page 4


 126 0038 1B78     		ldrb	r3, [r3]
 127 003a 032B     		cmp	r3, #3
 128 003c 02D1     		bne	.L7
  47:lib_testMode/testMode.c ****             switchState = RISING_EDGE;
 129              		.loc 1 47 0 is_stmt 1
 130 003e 2B4B     		ldr	r3, .L12
 131 0040 0122     		mov	r2, #1
 132 0042 1A70     		strb	r2, [r3]
 133              	.L7:
  48:lib_testMode/testMode.c ****         if(networkState == LOW_LEVEL && switchState == RISING_EDGE)
 134              		.loc 1 48 0
 135 0044 2A4B     		ldr	r3, .L12+4
 136 0046 1B78     		ldrb	r3, [r3]
 137 0048 032B     		cmp	r3, #3
 138 004a 06D1     		bne	.L6
 139              		.loc 1 48 0 is_stmt 0 discriminator 1
 140 004c 274B     		ldr	r3, .L12
 141 004e 1B78     		ldrb	r3, [r3]
 142 0050 012B     		cmp	r3, #1
 143 0052 02D1     		bne	.L6
  49:lib_testMode/testMode.c ****             networkState = RISING_EDGE;
 144              		.loc 1 49 0 is_stmt 1
 145 0054 264B     		ldr	r3, .L12+4
 146 0056 0122     		mov	r2, #1
 147 0058 1A70     		strb	r2, [r3]
 148              	.L6:
  50:lib_testMode/testMode.c ****     }
  51:lib_testMode/testMode.c ****     if(switchState == FALLING_EDGE || networkState == FALLING_EDGE)        //disable test mode
 149              		.loc 1 51 0
 150 005a 244B     		ldr	r3, .L12
 151 005c 1B78     		ldrb	r3, [r3]
 152 005e 022B     		cmp	r3, #2
 153 0060 03D0     		beq	.L8
 154              		.loc 1 51 0 is_stmt 0 discriminator 1
 155 0062 234B     		ldr	r3, .L12+4
 156 0064 1B78     		ldrb	r3, [r3]
 157 0066 022B     		cmp	r3, #2
 158 0068 20D1     		bne	.L9
 159              	.L8:
  52:lib_testMode/testMode.c ****     {
  53:lib_testMode/testMode.c ****         TimerTestMode_Stop();
 160              		.loc 1 53 0 is_stmt 1
 161 006a FFF7FEFF 		bl	TimerTestMode_Stop
  54:lib_testMode/testMode.c ****         DisplayTestMode(0);
 162              		.loc 1 54 0
 163 006e 0020     		mov	r0, #0
 164 0070 FFF7FEFF 		bl	DisplayTestMode
  55:lib_testMode/testMode.c ****         NetworkSendTestModeStatus(0);
 165              		.loc 1 55 0
 166 0074 0020     		mov	r0, #0
 167 0076 FFF7FEFF 		bl	NetworkSendTestModeStatus
  56:lib_testMode/testMode.c ****         statusTestMode = STOPPED;
 168              		.loc 1 56 0
 169 007a 1E4B     		ldr	r3, .L12+8
 170 007c 0022     		mov	r2, #0
 171 007e 1A70     		strb	r2, [r3]
  57:lib_testMode/testMode.c ****         if(networkState == FALLING_EDGE && switchState != FALLING_EDGE)
ARM GAS  C:\Users\Petro\AppData\Local\Temp\cc2RmzAL.s 			page 5


 172              		.loc 1 57 0
 173 0080 1B4B     		ldr	r3, .L12+4
 174 0082 1B78     		ldrb	r3, [r3]
 175 0084 022B     		cmp	r3, #2
 176 0086 06D1     		bne	.L10
 177              		.loc 1 57 0 is_stmt 0 discriminator 1
 178 0088 184B     		ldr	r3, .L12
 179 008a 1B78     		ldrb	r3, [r3]
 180 008c 022B     		cmp	r3, #2
 181 008e 02D0     		beq	.L10
  58:lib_testMode/testMode.c ****             switchState = LOW_LEVEL;
 182              		.loc 1 58 0 is_stmt 1
 183 0090 164B     		ldr	r3, .L12
 184 0092 0322     		mov	r2, #3
 185 0094 1A70     		strb	r2, [r3]
 186              	.L10:
  59:lib_testMode/testMode.c ****         if(networkState != FALLING_EDGE && switchState == FALLING_EDGE)
 187              		.loc 1 59 0
 188 0096 164B     		ldr	r3, .L12+4
 189 0098 1B78     		ldrb	r3, [r3]
 190 009a 022B     		cmp	r3, #2
 191 009c 06D0     		beq	.L9
 192              		.loc 1 59 0 is_stmt 0 discriminator 1
 193 009e 134B     		ldr	r3, .L12
 194 00a0 1B78     		ldrb	r3, [r3]
 195 00a2 022B     		cmp	r3, #2
 196 00a4 02D1     		bne	.L9
  60:lib_testMode/testMode.c ****             networkState = LOW_LEVEL;
 197              		.loc 1 60 0 is_stmt 1
 198 00a6 124B     		ldr	r3, .L12+4
 199 00a8 0322     		mov	r2, #3
 200 00aa 1A70     		strb	r2, [r3]
 201              	.L9:
  61:lib_testMode/testMode.c ****     }
  62:lib_testMode/testMode.c ****     //else    
  63:lib_testMode/testMode.c ****     //{
  64:lib_testMode/testMode.c ****     /*update test mode*/
  65:lib_testMode/testMode.c ****     if(networkState == HIGH_LEVEL && switchState == HIGH_LEVEL )
 202              		.loc 1 65 0
 203 00ac 104B     		ldr	r3, .L12+4
 204 00ae 1B78     		ldrb	r3, [r3]
 205 00b0 002B     		cmp	r3, #0
 206 00b2 18D1     		bne	.L4
 207              		.loc 1 65 0 is_stmt 0 discriminator 1
 208 00b4 0D4B     		ldr	r3, .L12
 209 00b6 1B78     		ldrb	r3, [r3]
 210 00b8 002B     		cmp	r3, #0
 211 00ba 14D1     		bne	.L4
  66:lib_testMode/testMode.c ****     {
  67:lib_testMode/testMode.c ****         if(NetworkStatus() != NETWORK_DISCONN && FinWriteInDB() != NO_WRITE && FinReady() != NO_REA
 212              		.loc 1 67 0 is_stmt 1
 213 00bc FFF7FEFF 		bl	NetworkStatus
 214 00c0 031E     		sub	r3, r0, #0
 215 00c2 10D0     		beq	.L4
 216              		.loc 1 67 0 is_stmt 0 discriminator 1
 217 00c4 FFF7FEFF 		bl	FinWriteInDB
 218 00c8 031E     		sub	r3, r0, #0
ARM GAS  C:\Users\Petro\AppData\Local\Temp\cc2RmzAL.s 			page 6


 219 00ca 0CD0     		beq	.L4
 220              		.loc 1 67 0 discriminator 2
 221 00cc FFF7FEFF 		bl	FinReady
 222 00d0 031E     		sub	r3, r0, #0
 223 00d2 08D0     		beq	.L4
  68:lib_testMode/testMode.c ****         {
  69:lib_testMode/testMode.c ****             /*start timer*/
  70:lib_testMode/testMode.c ****             TestMode_UpdateNewRandomTime();
 224              		.loc 1 70 0 is_stmt 1
 225 00d4 FFF7FEFF 		bl	TestMode_UpdateNewRandomTime
  71:lib_testMode/testMode.c ****             Int_timerTestMode_StartEx(testModeHandler);
 226              		.loc 1 71 0
 227 00d8 074B     		ldr	r3, .L12+12
 228 00da 181C     		mov	r0, r3
 229 00dc FFF7FEFF 		bl	Int_timerTestMode_StartEx
  72:lib_testMode/testMode.c ****             statusTestMode = RUN;
 230              		.loc 1 72 0
 231 00e0 044B     		ldr	r3, .L12+8
 232 00e2 0122     		mov	r2, #1
 233 00e4 1A70     		strb	r2, [r3]
 234              	.L4:
  73:lib_testMode/testMode.c ****         }
  74:lib_testMode/testMode.c ****     }
  75:lib_testMode/testMode.c ****     //}
  76:lib_testMode/testMode.c **** }
 235              		.loc 1 76 0
 236 00e6 BD46     		mov	sp, r7
 237              		@ sp needed
 238 00e8 80BD     		pop	{r7, pc}
 239              	.L13:
 240 00ea C046     		.align	2
 241              	.L12:
 242 00ec 00000000 		.word	switchState
 243 00f0 00000000 		.word	networkState
 244 00f4 00000000 		.word	statusTestMode
 245 00f8 00000000 		.word	testModeHandler
 246              		.cfi_endproc
 247              	.LFE64:
 248              		.size	newFuncTestMode, .-newFuncTestMode
 249              		.global	__aeabi_idivmod
 250              		.section	.rodata
 251              		.align	2
 252              	.LC5:
 253 0000 256400   		.ascii	"%d\000"
 254 0003 00       		.section	.text.TestMode_UpdateNewRandomTime,"ax",%progbits
 255              		.align	2
 256              		.global	TestMode_UpdateNewRandomTime
 257              		.code	16
 258              		.thumb_func
 259              		.type	TestMode_UpdateNewRandomTime, %function
 260              	TestMode_UpdateNewRandomTime:
 261              	.LFB65:
  77:lib_testMode/testMode.c **** 
  78:lib_testMode/testMode.c **** 
  79:lib_testMode/testMode.c **** void TestMode_UpdateNewRandomTime()
  80:lib_testMode/testMode.c **** {
 262              		.loc 1 80 0
ARM GAS  C:\Users\Petro\AppData\Local\Temp\cc2RmzAL.s 			page 7


 263              		.cfi_startproc
 264 0000 80B5     		push	{r7, lr}
 265              		.cfi_def_cfa_offset 8
 266              		.cfi_offset 7, -8
 267              		.cfi_offset 14, -4
 268 0002 84B0     		sub	sp, sp, #16
 269              		.cfi_def_cfa_offset 24
 270 0004 00AF     		add	r7, sp, #0
 271              		.cfi_def_cfa_register 7
  81:lib_testMode/testMode.c ****     uint8_t num;
  82:lib_testMode/testMode.c ****     
  83:lib_testMode/testMode.c ****     num = 30+rand()%60;
 272              		.loc 1 83 0
 273 0006 FFF7FEFF 		bl	rand
 274 000a 031C     		mov	r3, r0
 275 000c 181C     		mov	r0, r3
 276 000e 3C21     		mov	r1, #60
 277 0010 FFF7FEFF 		bl	__aeabi_idivmod
 278 0014 0B1C     		mov	r3, r1
 279 0016 DAB2     		uxtb	r2, r3
 280 0018 0F23     		mov	r3, #15
 281 001a FB18     		add	r3, r7, r3
 282 001c 1E32     		add	r2, r2, #30
 283 001e 1A70     		strb	r2, [r3]
  84:lib_testMode/testMode.c ****     
  85:lib_testMode/testMode.c ****     char buff[11];
  86:lib_testMode/testMode.c ****     sprintf(buff,"%d",num);
 284              		.loc 1 86 0
 285 0020 0F23     		mov	r3, #15
 286 0022 FB18     		add	r3, r7, r3
 287 0024 1B78     		ldrb	r3, [r3]
 288 0026 391D     		add	r1, r7, #4
 289 0028 0C4A     		ldr	r2, .L15
 290 002a 081C     		mov	r0, r1
 291 002c 111C     		mov	r1, r2
 292 002e 1A1C     		mov	r2, r3
 293 0030 FFF7FEFF 		bl	sprintf
  87:lib_testMode/testMode.c ****     Display(buff);
 294              		.loc 1 87 0
 295 0034 3B1D     		add	r3, r7, #4
 296 0036 181C     		mov	r0, r3
 297 0038 FFF7FEFF 		bl	Display
  88:lib_testMode/testMode.c ****     
  89:lib_testMode/testMode.c ****     TimerTestMode_WriteCounter(0);
 298              		.loc 1 89 0
 299 003c 0020     		mov	r0, #0
 300 003e FFF7FEFF 		bl	TimerTestMode_WriteCounter
  90:lib_testMode/testMode.c ****     TimerTestMode_WriteCompare(num*100);
 301              		.loc 1 90 0
 302 0042 0F23     		mov	r3, #15
 303 0044 FB18     		add	r3, r7, r3
 304 0046 1B78     		ldrb	r3, [r3]
 305 0048 6422     		mov	r2, #100
 306 004a 5343     		mul	r3, r2
 307 004c 181C     		mov	r0, r3
 308 004e FFF7FEFF 		bl	TimerTestMode_WriteCompare
  91:lib_testMode/testMode.c ****     TimerTestMode_Start();   
ARM GAS  C:\Users\Petro\AppData\Local\Temp\cc2RmzAL.s 			page 8


 309              		.loc 1 91 0
 310 0052 FFF7FEFF 		bl	TimerTestMode_Start
  92:lib_testMode/testMode.c **** }
 311              		.loc 1 92 0
 312 0056 BD46     		mov	sp, r7
 313 0058 04B0     		add	sp, sp, #16
 314              		@ sp needed
 315 005a 80BD     		pop	{r7, pc}
 316              	.L16:
 317              		.align	2
 318              	.L15:
 319 005c 00000000 		.word	.LC5
 320              		.cfi_endproc
 321              	.LFE65:
 322              		.size	TestMode_UpdateNewRandomTime, .-TestMode_UpdateNewRandomTime
 323              		.section	.text.ReadSwitchState,"ax",%progbits
 324              		.align	2
 325              		.global	ReadSwitchState
 326              		.code	16
 327              		.thumb_func
 328              		.type	ReadSwitchState, %function
 329              	ReadSwitchState:
 330              	.LFB66:
  93:lib_testMode/testMode.c **** 
  94:lib_testMode/testMode.c **** funcReturnValue ReadSwitchState()
  95:lib_testMode/testMode.c **** {  
 331              		.loc 1 95 0
 332              		.cfi_startproc
 333 0000 80B5     		push	{r7, lr}
 334              		.cfi_def_cfa_offset 8
 335              		.cfi_offset 7, -8
 336              		.cfi_offset 14, -4
 337 0002 00AF     		add	r7, sp, #0
 338              		.cfi_def_cfa_register 7
  96:lib_testMode/testMode.c ****     static uint8_t tmpCounter;
  97:lib_testMode/testMode.c ****     
  98:lib_testMode/testMode.c ****     if(SW_RunTestMode_Read() == 0)
 339              		.loc 1 98 0
 340 0004 FFF7FEFF 		bl	SW_RunTestMode_Read
 341 0008 031E     		sub	r3, r0, #0
 342 000a 06D1     		bne	.L18
  99:lib_testMode/testMode.c ****         tmpCounter++;
 343              		.loc 1 99 0
 344 000c 184B     		ldr	r3, .L26
 345 000e 1B78     		ldrb	r3, [r3]
 346 0010 0133     		add	r3, r3, #1
 347 0012 DAB2     		uxtb	r2, r3
 348 0014 164B     		ldr	r3, .L26
 349 0016 1A70     		strb	r2, [r3]
 350 0018 02E0     		b	.L19
 351              	.L18:
 100:lib_testMode/testMode.c ****     else
 101:lib_testMode/testMode.c ****         tmpCounter = 0;
 352              		.loc 1 101 0
 353 001a 154B     		ldr	r3, .L26
 354 001c 0022     		mov	r2, #0
 355 001e 1A70     		strb	r2, [r3]
ARM GAS  C:\Users\Petro\AppData\Local\Temp\cc2RmzAL.s 			page 9


 356              	.L19:
 102:lib_testMode/testMode.c ****     
 103:lib_testMode/testMode.c ****     if(tmpCounter > COUNTER_TEST_MODE_ON)
 357              		.loc 1 103 0
 358 0020 134B     		ldr	r3, .L26
 359 0022 1B78     		ldrb	r3, [r3]
 360 0024 052B     		cmp	r3, #5
 361 0026 0FD9     		bls	.L20
 104:lib_testMode/testMode.c ****     {
 105:lib_testMode/testMode.c ****         if(switchState == LOW_LEVEL)switchState = RISING_EDGE;
 362              		.loc 1 105 0
 363 0028 124B     		ldr	r3, .L26+4
 364 002a 1B78     		ldrb	r3, [r3]
 365 002c 032B     		cmp	r3, #3
 366 002e 03D1     		bne	.L21
 367              		.loc 1 105 0 is_stmt 0 discriminator 1
 368 0030 104B     		ldr	r3, .L26+4
 369 0032 0122     		mov	r2, #1
 370 0034 1A70     		strb	r2, [r3]
 371 0036 16E0     		b	.L23
 372              	.L21:
 106:lib_testMode/testMode.c ****         else if(switchState == HIGH_LEVEL)switchState = FALLING_EDGE;
 373              		.loc 1 106 0 is_stmt 1
 374 0038 0E4B     		ldr	r3, .L26+4
 375 003a 1B78     		ldrb	r3, [r3]
 376 003c 002B     		cmp	r3, #0
 377 003e 12D1     		bne	.L23
 378              		.loc 1 106 0 is_stmt 0 discriminator 1
 379 0040 0C4B     		ldr	r3, .L26+4
 380 0042 0222     		mov	r2, #2
 381 0044 1A70     		strb	r2, [r3]
 382 0046 0EE0     		b	.L23
 383              	.L20:
 107:lib_testMode/testMode.c ****     }
 108:lib_testMode/testMode.c ****     else
 109:lib_testMode/testMode.c ****     {
 110:lib_testMode/testMode.c ****         if(switchState == RISING_EDGE)switchState = HIGH_LEVEL;
 384              		.loc 1 110 0 is_stmt 1
 385 0048 0A4B     		ldr	r3, .L26+4
 386 004a 1B78     		ldrb	r3, [r3]
 387 004c 012B     		cmp	r3, #1
 388 004e 03D1     		bne	.L24
 389              		.loc 1 110 0 is_stmt 0 discriminator 1
 390 0050 084B     		ldr	r3, .L26+4
 391 0052 0022     		mov	r2, #0
 392 0054 1A70     		strb	r2, [r3]
 393 0056 06E0     		b	.L23
 394              	.L24:
 111:lib_testMode/testMode.c ****         else if(switchState == FALLING_EDGE)switchState = LOW_LEVEL;
 395              		.loc 1 111 0 is_stmt 1
 396 0058 064B     		ldr	r3, .L26+4
 397 005a 1B78     		ldrb	r3, [r3]
 398 005c 022B     		cmp	r3, #2
 399 005e 02D1     		bne	.L23
 400              		.loc 1 111 0 is_stmt 0 discriminator 1
 401 0060 044B     		ldr	r3, .L26+4
 402 0062 0322     		mov	r2, #3
ARM GAS  C:\Users\Petro\AppData\Local\Temp\cc2RmzAL.s 			page 10


 403 0064 1A70     		strb	r2, [r3]
 404              	.L23:
 112:lib_testMode/testMode.c ****     }
 113:lib_testMode/testMode.c **** 
 114:lib_testMode/testMode.c ****       
 115:lib_testMode/testMode.c ****     return switchState;
 405              		.loc 1 115 0 is_stmt 1
 406 0066 034B     		ldr	r3, .L26+4
 407 0068 1B78     		ldrb	r3, [r3]
 116:lib_testMode/testMode.c **** }
 408              		.loc 1 116 0
 409 006a 181C     		mov	r0, r3
 410 006c BD46     		mov	sp, r7
 411              		@ sp needed
 412 006e 80BD     		pop	{r7, pc}
 413              	.L27:
 414              		.align	2
 415              	.L26:
 416 0070 02000000 		.word	tmpCounter.7620
 417 0074 00000000 		.word	switchState
 418              		.cfi_endproc
 419              	.LFE66:
 420              		.size	ReadSwitchState, .-ReadSwitchState
 421              		.section	.text.ReadNetworkState,"ax",%progbits
 422              		.align	2
 423              		.global	ReadNetworkState
 424              		.code	16
 425              		.thumb_func
 426              		.type	ReadNetworkState, %function
 427              	ReadNetworkState:
 428              	.LFB67:
 117:lib_testMode/testMode.c **** 
 118:lib_testMode/testMode.c **** 
 119:lib_testMode/testMode.c **** funcReturnValue ReadNetworkState()
 120:lib_testMode/testMode.c **** {
 429              		.loc 1 120 0
 430              		.cfi_startproc
 431 0000 80B5     		push	{r7, lr}
 432              		.cfi_def_cfa_offset 8
 433              		.cfi_offset 7, -8
 434              		.cfi_offset 14, -4
 435 0002 00AF     		add	r7, sp, #0
 436              		.cfi_def_cfa_register 7
 121:lib_testMode/testMode.c ****     if(networkState == LOW_LEVEL && NetworkReadTestModeStatus()==1)  networkState = RISING_EDGE;
 437              		.loc 1 121 0
 438 0004 1A4B     		ldr	r3, .L34
 439 0006 1B78     		ldrb	r3, [r3]
 440 0008 032B     		cmp	r3, #3
 441 000a 08D1     		bne	.L29
 442              		.loc 1 121 0 is_stmt 0 discriminator 1
 443 000c FFF7FEFF 		bl	NetworkReadTestModeStatus
 444 0010 031E     		sub	r3, r0, #0
 445 0012 012B     		cmp	r3, #1
 446 0014 03D1     		bne	.L29
 447              		.loc 1 121 0 discriminator 2
 448 0016 164B     		ldr	r3, .L34
 449 0018 0122     		mov	r2, #1
ARM GAS  C:\Users\Petro\AppData\Local\Temp\cc2RmzAL.s 			page 11


 450 001a 1A70     		strb	r2, [r3]
 451 001c 23E0     		b	.L30
 452              	.L29:
 122:lib_testMode/testMode.c ****     else if(networkState == HIGH_LEVEL && NetworkReadTestModeStatus() == 0)  networkState = FALLING
 453              		.loc 1 122 0 is_stmt 1
 454 001e 144B     		ldr	r3, .L34
 455 0020 1B78     		ldrb	r3, [r3]
 456 0022 002B     		cmp	r3, #0
 457 0024 07D1     		bne	.L31
 458              		.loc 1 122 0 is_stmt 0 discriminator 1
 459 0026 FFF7FEFF 		bl	NetworkReadTestModeStatus
 460 002a 031E     		sub	r3, r0, #0
 461 002c 03D1     		bne	.L31
 462              		.loc 1 122 0 discriminator 2
 463 002e 104B     		ldr	r3, .L34
 464 0030 0222     		mov	r2, #2
 465 0032 1A70     		strb	r2, [r3]
 466 0034 17E0     		b	.L30
 467              	.L31:
 123:lib_testMode/testMode.c ****     else if(networkState == RISING_EDGE && NetworkReadTestModeStatus() ==1)  networkState = HIGH_LE
 468              		.loc 1 123 0 is_stmt 1
 469 0036 0E4B     		ldr	r3, .L34
 470 0038 1B78     		ldrb	r3, [r3]
 471 003a 012B     		cmp	r3, #1
 472 003c 08D1     		bne	.L32
 473              		.loc 1 123 0 is_stmt 0 discriminator 1
 474 003e FFF7FEFF 		bl	NetworkReadTestModeStatus
 475 0042 031E     		sub	r3, r0, #0
 476 0044 012B     		cmp	r3, #1
 477 0046 03D1     		bne	.L32
 478              		.loc 1 123 0 discriminator 2
 479 0048 094B     		ldr	r3, .L34
 480 004a 0022     		mov	r2, #0
 481 004c 1A70     		strb	r2, [r3]
 482 004e 0AE0     		b	.L30
 483              	.L32:
 124:lib_testMode/testMode.c ****     else if(networkState == FALLING_EDGE && NetworkReadTestModeStatus() == 0)  networkState = LOW_L
 484              		.loc 1 124 0 is_stmt 1
 485 0050 074B     		ldr	r3, .L34
 486 0052 1B78     		ldrb	r3, [r3]
 487 0054 022B     		cmp	r3, #2
 488 0056 06D1     		bne	.L30
 489              		.loc 1 124 0 is_stmt 0 discriminator 1
 490 0058 FFF7FEFF 		bl	NetworkReadTestModeStatus
 491 005c 031E     		sub	r3, r0, #0
 492 005e 02D1     		bne	.L30
 493              		.loc 1 124 0 discriminator 2
 494 0060 034B     		ldr	r3, .L34
 495 0062 0322     		mov	r2, #3
 496 0064 1A70     		strb	r2, [r3]
 497              	.L30:
 125:lib_testMode/testMode.c **** 
 126:lib_testMode/testMode.c ****     return networkState;   
 498              		.loc 1 126 0 is_stmt 1
 499 0066 024B     		ldr	r3, .L34
 500 0068 1B78     		ldrb	r3, [r3]
 127:lib_testMode/testMode.c **** }...
ARM GAS  C:\Users\Petro\AppData\Local\Temp\cc2RmzAL.s 			page 12


 501              		.loc 1 127 0
 502 006a 181C     		mov	r0, r3
 503 006c BD46     		mov	sp, r7
 504              		@ sp needed
 505 006e 80BD     		pop	{r7, pc}
 506              	.L35:
 507              		.align	2
 508              	.L34:
 509 0070 00000000 		.word	networkState
 510              		.cfi_endproc
 511              	.LFE67:
 512              		.size	ReadNetworkState, .-ReadNetworkState
 513              		.bss
 514              	tmpCounter.7620:
 515 0002 00       		.space	1
 516              		.text
 517              	.Letext0:
 518              		.file 2 "c:\\program files (x86)\\cypress\\psoc creator\\4.0\\psoc creator\\import\\gnu\\arm\\4.9.
 519              		.file 3 "c:\\program files (x86)\\cypress\\psoc creator\\4.0\\psoc creator\\import\\gnu\\arm\\4.9.
 520              		.file 4 "Generated_Source\\PSoC4/cytypes.h"
 521              		.section	.debug_info,"",%progbits
 522              	.Ldebug_info0:
 523 0000 D3010000 		.4byte	0x1d3
 524 0004 0400     		.2byte	0x4
 525 0006 00000000 		.4byte	.Ldebug_abbrev0
 526 000a 04       		.byte	0x4
 527 000b 01       		.uleb128 0x1
 528 000c 47010000 		.4byte	.LASF30
 529 0010 01       		.byte	0x1
 530 0011 BB000000 		.4byte	.LASF31
 531 0015 32000000 		.4byte	.LASF32
 532 0019 00000000 		.4byte	.Ldebug_ranges0+0
 533 001d 00000000 		.4byte	0
 534 0021 00000000 		.4byte	.Ldebug_line0
 535 0025 02       		.uleb128 0x2
 536 0026 01       		.byte	0x1
 537 0027 06       		.byte	0x6
 538 0028 81020000 		.4byte	.LASF0
 539 002c 03       		.uleb128 0x3
 540 002d 0C000000 		.4byte	.LASF9
 541 0031 02       		.byte	0x2
 542 0032 1D       		.byte	0x1d
 543 0033 37000000 		.4byte	0x37
 544 0037 02       		.uleb128 0x2
 545 0038 01       		.byte	0x1
 546 0039 08       		.byte	0x8
 547 003a AD000000 		.4byte	.LASF1
 548 003e 02       		.uleb128 0x2
 549 003f 02       		.byte	0x2
 550 0040 05       		.byte	0x5
 551 0041 4E020000 		.4byte	.LASF2
 552 0045 02       		.uleb128 0x2
 553 0046 02       		.byte	0x2
 554 0047 07       		.byte	0x7
 555 0048 E5000000 		.4byte	.LASF3
 556 004c 02       		.uleb128 0x2
 557 004d 04       		.byte	0x4
ARM GAS  C:\Users\Petro\AppData\Local\Temp\cc2RmzAL.s 			page 13


 558 004e 05       		.byte	0x5
 559 004f 78020000 		.4byte	.LASF4
 560 0053 02       		.uleb128 0x2
 561 0054 04       		.byte	0x4
 562 0055 07       		.byte	0x7
 563 0056 D3000000 		.4byte	.LASF5
 564 005a 02       		.uleb128 0x2
 565 005b 08       		.byte	0x8
 566 005c 05       		.byte	0x5
 567 005d 2B020000 		.4byte	.LASF6
 568 0061 02       		.uleb128 0x2
 569 0062 08       		.byte	0x8
 570 0063 07       		.byte	0x7
 571 0064 E9010000 		.4byte	.LASF7
 572 0068 04       		.uleb128 0x4
 573 0069 04       		.byte	0x4
 574 006a 05       		.byte	0x5
 575 006b 696E7400 		.ascii	"int\000"
 576 006f 02       		.uleb128 0x2
 577 0070 04       		.byte	0x4
 578 0071 07       		.byte	0x7
 579 0072 DC010000 		.4byte	.LASF8
 580 0076 03       		.uleb128 0x3
 581 0077 00020000 		.4byte	.LASF10
 582 007b 03       		.byte	0x3
 583 007c 15       		.byte	0x15
 584 007d 2C000000 		.4byte	0x2c
 585 0081 05       		.uleb128 0x5
 586 0082 D5010000 		.4byte	.LASF11
 587 0086 04       		.byte	0x4
 588 0087 9A01     		.2byte	0x19a
 589 0089 53000000 		.4byte	0x53
 590 008d 02       		.uleb128 0x2
 591 008e 04       		.byte	0x4
 592 008f 04       		.byte	0x4
 593 0090 A7000000 		.4byte	.LASF12
 594 0094 02       		.uleb128 0x2
 595 0095 08       		.byte	0x8
 596 0096 04       		.byte	0x4
 597 0097 12010000 		.4byte	.LASF13
 598 009b 02       		.uleb128 0x2
 599 009c 01       		.byte	0x1
 600 009d 08       		.byte	0x8
 601 009e 39020000 		.4byte	.LASF14
 602 00a2 02       		.uleb128 0x2
 603 00a3 04       		.byte	0x4
 604 00a4 07       		.byte	0x7
 605 00a5 22020000 		.4byte	.LASF15
 606 00a9 06       		.uleb128 0x6
 607 00aa 16000000 		.4byte	.LASF33
 608 00ae 01       		.byte	0x1
 609 00af 01       		.byte	0x1
 610 00b0 0D       		.byte	0xd
 611 00b1 C2000000 		.4byte	0xc2
 612 00b5 07       		.uleb128 0x7
 613 00b6 1D000000 		.4byte	.LASF16
 614 00ba 00       		.sleb128 0
ARM GAS  C:\Users\Petro\AppData\Local\Temp\cc2RmzAL.s 			page 14


 615 00bb 08       		.uleb128 0x8
 616 00bc 52554E00 		.ascii	"RUN\000"
 617 00c0 01       		.sleb128 1
 618 00c1 00       		.byte	0
 619 00c2 09       		.uleb128 0x9
 620 00c3 01       		.byte	0x1
 621 00c4 01       		.byte	0x1
 622 00c5 0E       		.byte	0xe
 623 00c6 E3000000 		.4byte	0xe3
 624 00ca 07       		.uleb128 0x7
 625 00cb 02010000 		.4byte	.LASF17
 626 00cf 00       		.sleb128 0
 627 00d0 07       		.uleb128 0x7
 628 00d1 00000000 		.4byte	.LASF18
 629 00d5 01       		.sleb128 1
 630 00d6 07       		.uleb128 0x7
 631 00d7 9A000000 		.4byte	.LASF19
 632 00db 02       		.sleb128 2
 633 00dc 07       		.uleb128 0x7
 634 00dd F8000000 		.4byte	.LASF20
 635 00e1 03       		.sleb128 3
 636 00e2 00       		.byte	0
 637 00e3 03       		.uleb128 0x3
 638 00e4 9C020000 		.4byte	.LASF21
 639 00e8 01       		.byte	0x1
 640 00e9 0E       		.byte	0xe
 641 00ea C2000000 		.4byte	0xc2
 642 00ee 0A       		.uleb128 0xa
 643 00ef 3E020000 		.4byte	.LASF24
 644 00f3 01       		.byte	0x1
 645 00f4 1A       		.byte	0x1a
 646 00f5 00000000 		.4byte	.LFB63
 647 00f9 24000000 		.4byte	.LFE63-.LFB63
 648 00fd 01       		.uleb128 0x1
 649 00fe 9C       		.byte	0x9c
 650 00ff 0B       		.uleb128 0xb
 651 0100 68020000 		.4byte	.LASF34
 652 0104 01       		.byte	0x1
 653 0105 24       		.byte	0x24
 654 0106 00000000 		.4byte	.LFB64
 655 010a FC000000 		.4byte	.LFE64-.LFB64
 656 010e 01       		.uleb128 0x1
 657 010f 9C       		.byte	0x9c
 658 0110 0C       		.uleb128 0xc
 659 0111 19010000 		.4byte	.LASF35
 660 0115 01       		.byte	0x1
 661 0116 4F       		.byte	0x4f
 662 0117 00000000 		.4byte	.LFB65
 663 011b 60000000 		.4byte	.LFE65-.LFB65
 664 011f 01       		.uleb128 0x1
 665 0120 9C       		.byte	0x9c
 666 0121 42010000 		.4byte	0x142
 667 0125 0D       		.uleb128 0xd
 668 0126 6E756D00 		.ascii	"num\000"
 669 012a 01       		.byte	0x1
 670 012b 51       		.byte	0x51
 671 012c 76000000 		.4byte	0x76
ARM GAS  C:\Users\Petro\AppData\Local\Temp\cc2RmzAL.s 			page 15


 672 0130 02       		.uleb128 0x2
 673 0131 91       		.byte	0x91
 674 0132 77       		.sleb128 -9
 675 0133 0E       		.uleb128 0xe
 676 0134 0D010000 		.4byte	.LASF22
 677 0138 01       		.byte	0x1
 678 0139 55       		.byte	0x55
 679 013a 42010000 		.4byte	0x142
 680 013e 02       		.uleb128 0x2
 681 013f 91       		.byte	0x91
 682 0140 6C       		.sleb128 -20
 683 0141 00       		.byte	0
 684 0142 0F       		.uleb128 0xf
 685 0143 9B000000 		.4byte	0x9b
 686 0147 52010000 		.4byte	0x152
 687 014b 10       		.uleb128 0x10
 688 014c A2000000 		.4byte	0xa2
 689 0150 0A       		.byte	0xa
 690 0151 00       		.byte	0
 691 0152 11       		.uleb128 0x11
 692 0153 58020000 		.4byte	.LASF36
 693 0157 01       		.byte	0x1
 694 0158 5E       		.byte	0x5e
 695 0159 E3000000 		.4byte	0xe3
 696 015d 00000000 		.4byte	.LFB66
 697 0161 78000000 		.4byte	.LFE66-.LFB66
 698 0165 01       		.uleb128 0x1
 699 0166 9C       		.byte	0x9c
 700 0167 7D010000 		.4byte	0x17d
 701 016b 0E       		.uleb128 0xe
 702 016c 17020000 		.4byte	.LASF23
 703 0170 01       		.byte	0x1
 704 0171 60       		.byte	0x60
 705 0172 76000000 		.4byte	0x76
 706 0176 05       		.uleb128 0x5
 707 0177 03       		.byte	0x3
 708 0178 02000000 		.4byte	tmpCounter.7620
 709 017c 00       		.byte	0
 710 017d 12       		.uleb128 0x12
 711 017e 36010000 		.4byte	.LASF25
 712 0182 01       		.byte	0x1
 713 0183 77       		.byte	0x77
 714 0184 E3000000 		.4byte	0xe3
 715 0188 00000000 		.4byte	.LFB67
 716 018c 74000000 		.4byte	.LFE67-.LFB67
 717 0190 01       		.uleb128 0x1
 718 0191 9C       		.byte	0x9c
 719 0192 0E       		.uleb128 0xe
 720 0193 08020000 		.4byte	.LASF26
 721 0197 01       		.byte	0x1
 722 0198 18       		.byte	0x18
 723 0199 76000000 		.4byte	0x76
 724 019d 05       		.uleb128 0x5
 725 019e 03       		.byte	0x3
 726 019f 01000000 		.4byte	enableTestMode
 727 01a3 13       		.uleb128 0x13
 728 01a4 8D020000 		.4byte	.LASF27
ARM GAS  C:\Users\Petro\AppData\Local\Temp\cc2RmzAL.s 			page 16


 729 01a8 01       		.byte	0x1
 730 01a9 10       		.byte	0x10
 731 01aa 76000000 		.4byte	0x76
 732 01ae 05       		.uleb128 0x5
 733 01af 03       		.byte	0x3
 734 01b0 00000000 		.4byte	statusTestMode
 735 01b4 13       		.uleb128 0x13
 736 01b5 8E000000 		.4byte	.LASF28
 737 01b9 01       		.byte	0x1
 738 01ba 12       		.byte	0x12
 739 01bb E3000000 		.4byte	0xe3
 740 01bf 05       		.uleb128 0x5
 741 01c0 03       		.byte	0x3
 742 01c1 00000000 		.4byte	switchState
 743 01c5 13       		.uleb128 0x13
 744 01c6 25000000 		.4byte	.LASF29
 745 01ca 01       		.byte	0x1
 746 01cb 13       		.byte	0x13
 747 01cc E3000000 		.4byte	0xe3
 748 01d0 05       		.uleb128 0x5
 749 01d1 03       		.byte	0x3
 750 01d2 00000000 		.4byte	networkState
 751 01d6 00       		.byte	0
 752              		.section	.debug_abbrev,"",%progbits
 753              	.Ldebug_abbrev0:
 754 0000 01       		.uleb128 0x1
 755 0001 11       		.uleb128 0x11
 756 0002 01       		.byte	0x1
 757 0003 25       		.uleb128 0x25
 758 0004 0E       		.uleb128 0xe
 759 0005 13       		.uleb128 0x13
 760 0006 0B       		.uleb128 0xb
 761 0007 03       		.uleb128 0x3
 762 0008 0E       		.uleb128 0xe
 763 0009 1B       		.uleb128 0x1b
 764 000a 0E       		.uleb128 0xe
 765 000b 55       		.uleb128 0x55
 766 000c 17       		.uleb128 0x17
 767 000d 11       		.uleb128 0x11
 768 000e 01       		.uleb128 0x1
 769 000f 10       		.uleb128 0x10
 770 0010 17       		.uleb128 0x17
 771 0011 00       		.byte	0
 772 0012 00       		.byte	0
 773 0013 02       		.uleb128 0x2
 774 0014 24       		.uleb128 0x24
 775 0015 00       		.byte	0
 776 0016 0B       		.uleb128 0xb
 777 0017 0B       		.uleb128 0xb
 778 0018 3E       		.uleb128 0x3e
 779 0019 0B       		.uleb128 0xb
 780 001a 03       		.uleb128 0x3
 781 001b 0E       		.uleb128 0xe
 782 001c 00       		.byte	0
 783 001d 00       		.byte	0
 784 001e 03       		.uleb128 0x3
 785 001f 16       		.uleb128 0x16
ARM GAS  C:\Users\Petro\AppData\Local\Temp\cc2RmzAL.s 			page 17


 786 0020 00       		.byte	0
 787 0021 03       		.uleb128 0x3
 788 0022 0E       		.uleb128 0xe
 789 0023 3A       		.uleb128 0x3a
 790 0024 0B       		.uleb128 0xb
 791 0025 3B       		.uleb128 0x3b
 792 0026 0B       		.uleb128 0xb
 793 0027 49       		.uleb128 0x49
 794 0028 13       		.uleb128 0x13
 795 0029 00       		.byte	0
 796 002a 00       		.byte	0
 797 002b 04       		.uleb128 0x4
 798 002c 24       		.uleb128 0x24
 799 002d 00       		.byte	0
 800 002e 0B       		.uleb128 0xb
 801 002f 0B       		.uleb128 0xb
 802 0030 3E       		.uleb128 0x3e
 803 0031 0B       		.uleb128 0xb
 804 0032 03       		.uleb128 0x3
 805 0033 08       		.uleb128 0x8
 806 0034 00       		.byte	0
 807 0035 00       		.byte	0
 808 0036 05       		.uleb128 0x5
 809 0037 16       		.uleb128 0x16
 810 0038 00       		.byte	0
 811 0039 03       		.uleb128 0x3
 812 003a 0E       		.uleb128 0xe
 813 003b 3A       		.uleb128 0x3a
 814 003c 0B       		.uleb128 0xb
 815 003d 3B       		.uleb128 0x3b
 816 003e 05       		.uleb128 0x5
 817 003f 49       		.uleb128 0x49
 818 0040 13       		.uleb128 0x13
 819 0041 00       		.byte	0
 820 0042 00       		.byte	0
 821 0043 06       		.uleb128 0x6
 822 0044 04       		.uleb128 0x4
 823 0045 01       		.byte	0x1
 824 0046 03       		.uleb128 0x3
 825 0047 0E       		.uleb128 0xe
 826 0048 0B       		.uleb128 0xb
 827 0049 0B       		.uleb128 0xb
 828 004a 3A       		.uleb128 0x3a
 829 004b 0B       		.uleb128 0xb
 830 004c 3B       		.uleb128 0x3b
 831 004d 0B       		.uleb128 0xb
 832 004e 01       		.uleb128 0x1
 833 004f 13       		.uleb128 0x13
 834 0050 00       		.byte	0
 835 0051 00       		.byte	0
 836 0052 07       		.uleb128 0x7
 837 0053 28       		.uleb128 0x28
 838 0054 00       		.byte	0
 839 0055 03       		.uleb128 0x3
 840 0056 0E       		.uleb128 0xe
 841 0057 1C       		.uleb128 0x1c
 842 0058 0D       		.uleb128 0xd
ARM GAS  C:\Users\Petro\AppData\Local\Temp\cc2RmzAL.s 			page 18


 843 0059 00       		.byte	0
 844 005a 00       		.byte	0
 845 005b 08       		.uleb128 0x8
 846 005c 28       		.uleb128 0x28
 847 005d 00       		.byte	0
 848 005e 03       		.uleb128 0x3
 849 005f 08       		.uleb128 0x8
 850 0060 1C       		.uleb128 0x1c
 851 0061 0D       		.uleb128 0xd
 852 0062 00       		.byte	0
 853 0063 00       		.byte	0
 854 0064 09       		.uleb128 0x9
 855 0065 04       		.uleb128 0x4
 856 0066 01       		.byte	0x1
 857 0067 0B       		.uleb128 0xb
 858 0068 0B       		.uleb128 0xb
 859 0069 3A       		.uleb128 0x3a
 860 006a 0B       		.uleb128 0xb
 861 006b 3B       		.uleb128 0x3b
 862 006c 0B       		.uleb128 0xb
 863 006d 01       		.uleb128 0x1
 864 006e 13       		.uleb128 0x13
 865 006f 00       		.byte	0
 866 0070 00       		.byte	0
 867 0071 0A       		.uleb128 0xa
 868 0072 2E       		.uleb128 0x2e
 869 0073 00       		.byte	0
 870 0074 3F       		.uleb128 0x3f
 871 0075 19       		.uleb128 0x19
 872 0076 03       		.uleb128 0x3
 873 0077 0E       		.uleb128 0xe
 874 0078 3A       		.uleb128 0x3a
 875 0079 0B       		.uleb128 0xb
 876 007a 3B       		.uleb128 0x3b
 877 007b 0B       		.uleb128 0xb
 878 007c 27       		.uleb128 0x27
 879 007d 19       		.uleb128 0x19
 880 007e 11       		.uleb128 0x11
 881 007f 01       		.uleb128 0x1
 882 0080 12       		.uleb128 0x12
 883 0081 06       		.uleb128 0x6
 884 0082 40       		.uleb128 0x40
 885 0083 18       		.uleb128 0x18
 886 0084 9642     		.uleb128 0x2116
 887 0086 19       		.uleb128 0x19
 888 0087 00       		.byte	0
 889 0088 00       		.byte	0
 890 0089 0B       		.uleb128 0xb
 891 008a 2E       		.uleb128 0x2e
 892 008b 00       		.byte	0
 893 008c 3F       		.uleb128 0x3f
 894 008d 19       		.uleb128 0x19
 895 008e 03       		.uleb128 0x3
 896 008f 0E       		.uleb128 0xe
 897 0090 3A       		.uleb128 0x3a
 898 0091 0B       		.uleb128 0xb
 899 0092 3B       		.uleb128 0x3b
ARM GAS  C:\Users\Petro\AppData\Local\Temp\cc2RmzAL.s 			page 19


 900 0093 0B       		.uleb128 0xb
 901 0094 11       		.uleb128 0x11
 902 0095 01       		.uleb128 0x1
 903 0096 12       		.uleb128 0x12
 904 0097 06       		.uleb128 0x6
 905 0098 40       		.uleb128 0x40
 906 0099 18       		.uleb128 0x18
 907 009a 9642     		.uleb128 0x2116
 908 009c 19       		.uleb128 0x19
 909 009d 00       		.byte	0
 910 009e 00       		.byte	0
 911 009f 0C       		.uleb128 0xc
 912 00a0 2E       		.uleb128 0x2e
 913 00a1 01       		.byte	0x1
 914 00a2 3F       		.uleb128 0x3f
 915 00a3 19       		.uleb128 0x19
 916 00a4 03       		.uleb128 0x3
 917 00a5 0E       		.uleb128 0xe
 918 00a6 3A       		.uleb128 0x3a
 919 00a7 0B       		.uleb128 0xb
 920 00a8 3B       		.uleb128 0x3b
 921 00a9 0B       		.uleb128 0xb
 922 00aa 11       		.uleb128 0x11
 923 00ab 01       		.uleb128 0x1
 924 00ac 12       		.uleb128 0x12
 925 00ad 06       		.uleb128 0x6
 926 00ae 40       		.uleb128 0x40
 927 00af 18       		.uleb128 0x18
 928 00b0 9642     		.uleb128 0x2116
 929 00b2 19       		.uleb128 0x19
 930 00b3 01       		.uleb128 0x1
 931 00b4 13       		.uleb128 0x13
 932 00b5 00       		.byte	0
 933 00b6 00       		.byte	0
 934 00b7 0D       		.uleb128 0xd
 935 00b8 34       		.uleb128 0x34
 936 00b9 00       		.byte	0
 937 00ba 03       		.uleb128 0x3
 938 00bb 08       		.uleb128 0x8
 939 00bc 3A       		.uleb128 0x3a
 940 00bd 0B       		.uleb128 0xb
 941 00be 3B       		.uleb128 0x3b
 942 00bf 0B       		.uleb128 0xb
 943 00c0 49       		.uleb128 0x49
 944 00c1 13       		.uleb128 0x13
 945 00c2 02       		.uleb128 0x2
 946 00c3 18       		.uleb128 0x18
 947 00c4 00       		.byte	0
 948 00c5 00       		.byte	0
 949 00c6 0E       		.uleb128 0xe
 950 00c7 34       		.uleb128 0x34
 951 00c8 00       		.byte	0
 952 00c9 03       		.uleb128 0x3
 953 00ca 0E       		.uleb128 0xe
 954 00cb 3A       		.uleb128 0x3a
 955 00cc 0B       		.uleb128 0xb
 956 00cd 3B       		.uleb128 0x3b
ARM GAS  C:\Users\Petro\AppData\Local\Temp\cc2RmzAL.s 			page 20


 957 00ce 0B       		.uleb128 0xb
 958 00cf 49       		.uleb128 0x49
 959 00d0 13       		.uleb128 0x13
 960 00d1 02       		.uleb128 0x2
 961 00d2 18       		.uleb128 0x18
 962 00d3 00       		.byte	0
 963 00d4 00       		.byte	0
 964 00d5 0F       		.uleb128 0xf
 965 00d6 01       		.uleb128 0x1
 966 00d7 01       		.byte	0x1
 967 00d8 49       		.uleb128 0x49
 968 00d9 13       		.uleb128 0x13
 969 00da 01       		.uleb128 0x1
 970 00db 13       		.uleb128 0x13
 971 00dc 00       		.byte	0
 972 00dd 00       		.byte	0
 973 00de 10       		.uleb128 0x10
 974 00df 21       		.uleb128 0x21
 975 00e0 00       		.byte	0
 976 00e1 49       		.uleb128 0x49
 977 00e2 13       		.uleb128 0x13
 978 00e3 2F       		.uleb128 0x2f
 979 00e4 0B       		.uleb128 0xb
 980 00e5 00       		.byte	0
 981 00e6 00       		.byte	0
 982 00e7 11       		.uleb128 0x11
 983 00e8 2E       		.uleb128 0x2e
 984 00e9 01       		.byte	0x1
 985 00ea 3F       		.uleb128 0x3f
 986 00eb 19       		.uleb128 0x19
 987 00ec 03       		.uleb128 0x3
 988 00ed 0E       		.uleb128 0xe
 989 00ee 3A       		.uleb128 0x3a
 990 00ef 0B       		.uleb128 0xb
 991 00f0 3B       		.uleb128 0x3b
 992 00f1 0B       		.uleb128 0xb
 993 00f2 49       		.uleb128 0x49
 994 00f3 13       		.uleb128 0x13
 995 00f4 11       		.uleb128 0x11
 996 00f5 01       		.uleb128 0x1
 997 00f6 12       		.uleb128 0x12
 998 00f7 06       		.uleb128 0x6
 999 00f8 40       		.uleb128 0x40
 1000 00f9 18       		.uleb128 0x18
 1001 00fa 9642     		.uleb128 0x2116
 1002 00fc 19       		.uleb128 0x19
 1003 00fd 01       		.uleb128 0x1
 1004 00fe 13       		.uleb128 0x13
 1005 00ff 00       		.byte	0
 1006 0100 00       		.byte	0
 1007 0101 12       		.uleb128 0x12
 1008 0102 2E       		.uleb128 0x2e
 1009 0103 00       		.byte	0
 1010 0104 3F       		.uleb128 0x3f
 1011 0105 19       		.uleb128 0x19
 1012 0106 03       		.uleb128 0x3
 1013 0107 0E       		.uleb128 0xe
ARM GAS  C:\Users\Petro\AppData\Local\Temp\cc2RmzAL.s 			page 21


 1014 0108 3A       		.uleb128 0x3a
 1015 0109 0B       		.uleb128 0xb
 1016 010a 3B       		.uleb128 0x3b
 1017 010b 0B       		.uleb128 0xb
 1018 010c 49       		.uleb128 0x49
 1019 010d 13       		.uleb128 0x13
 1020 010e 11       		.uleb128 0x11
 1021 010f 01       		.uleb128 0x1
 1022 0110 12       		.uleb128 0x12
 1023 0111 06       		.uleb128 0x6
 1024 0112 40       		.uleb128 0x40
 1025 0113 18       		.uleb128 0x18
 1026 0114 9642     		.uleb128 0x2116
 1027 0116 19       		.uleb128 0x19
 1028 0117 00       		.byte	0
 1029 0118 00       		.byte	0
 1030 0119 13       		.uleb128 0x13
 1031 011a 34       		.uleb128 0x34
 1032 011b 00       		.byte	0
 1033 011c 03       		.uleb128 0x3
 1034 011d 0E       		.uleb128 0xe
 1035 011e 3A       		.uleb128 0x3a
 1036 011f 0B       		.uleb128 0xb
 1037 0120 3B       		.uleb128 0x3b
 1038 0121 0B       		.uleb128 0xb
 1039 0122 49       		.uleb128 0x49
 1040 0123 13       		.uleb128 0x13
 1041 0124 3F       		.uleb128 0x3f
 1042 0125 19       		.uleb128 0x19
 1043 0126 02       		.uleb128 0x2
 1044 0127 18       		.uleb128 0x18
 1045 0128 00       		.byte	0
 1046 0129 00       		.byte	0
 1047 012a 00       		.byte	0
 1048              		.section	.debug_aranges,"",%progbits
 1049 0000 3C000000 		.4byte	0x3c
 1050 0004 0200     		.2byte	0x2
 1051 0006 00000000 		.4byte	.Ldebug_info0
 1052 000a 04       		.byte	0x4
 1053 000b 00       		.byte	0
 1054 000c 0000     		.2byte	0
 1055 000e 0000     		.2byte	0
 1056 0010 00000000 		.4byte	.LFB63
 1057 0014 24000000 		.4byte	.LFE63-.LFB63
 1058 0018 00000000 		.4byte	.LFB64
 1059 001c FC000000 		.4byte	.LFE64-.LFB64
 1060 0020 00000000 		.4byte	.LFB65
 1061 0024 60000000 		.4byte	.LFE65-.LFB65
 1062 0028 00000000 		.4byte	.LFB66
 1063 002c 78000000 		.4byte	.LFE66-.LFB66
 1064 0030 00000000 		.4byte	.LFB67
 1065 0034 74000000 		.4byte	.LFE67-.LFB67
 1066 0038 00000000 		.4byte	0
 1067 003c 00000000 		.4byte	0
 1068              		.section	.debug_ranges,"",%progbits
 1069              	.Ldebug_ranges0:
 1070 0000 00000000 		.4byte	.LFB63
ARM GAS  C:\Users\Petro\AppData\Local\Temp\cc2RmzAL.s 			page 22


 1071 0004 24000000 		.4byte	.LFE63
 1072 0008 00000000 		.4byte	.LFB64
 1073 000c FC000000 		.4byte	.LFE64
 1074 0010 00000000 		.4byte	.LFB65
 1075 0014 60000000 		.4byte	.LFE65
 1076 0018 00000000 		.4byte	.LFB66
 1077 001c 78000000 		.4byte	.LFE66
 1078 0020 00000000 		.4byte	.LFB67
 1079 0024 74000000 		.4byte	.LFE67
 1080 0028 00000000 		.4byte	0
 1081 002c 00000000 		.4byte	0
 1082              		.section	.debug_line,"",%progbits
 1083              	.Ldebug_line0:
 1084 0000 5C020000 		.section	.debug_str,"MS",%progbits,1
 1084      02004A01 
 1084      00000201 
 1084      FB0E0D00 
 1084      01010101 
 1085              	.LASF18:
 1086 0000 52495349 		.ascii	"RISING_EDGE\000"
 1086      4E475F45 
 1086      44474500 
 1087              	.LASF9:
 1088 000c 5F5F7569 		.ascii	"__uint8_t\000"
 1088      6E74385F 
 1088      7400
 1089              	.LASF33:
 1090 0016 73746174 		.ascii	"status\000"
 1090      757300
 1091              	.LASF16:
 1092 001d 53544F50 		.ascii	"STOPPED\000"
 1092      50454400 
 1093              	.LASF29:
 1094 0025 6E657477 		.ascii	"networkState\000"
 1094      6F726B53 
 1094      74617465 
 1094      00
 1095              	.LASF32:
 1096 0032 443A5C43 		.ascii	"D:\\Cypress\\system-start-finish\\vesion 2\\fw\\sta"
 1096      79707265 
 1096      73735C73 
 1096      79737465 
 1096      6D2D7374 
 1097 0060 72745C73 		.ascii	"rt\\sandbox\\v9_testmode\\start_v9testmode.cydsn\000"
 1097      616E6462 
 1097      6F785C76 
 1097      395F7465 
 1097      73746D6F 
 1098              	.LASF28:
 1099 008e 73776974 		.ascii	"switchState\000"
 1099      63685374 
 1099      61746500 
 1100              	.LASF19:
 1101 009a 46414C4C 		.ascii	"FALLING_EDGE\000"
 1101      494E475F 
 1101      45444745 
 1101      00
ARM GAS  C:\Users\Petro\AppData\Local\Temp\cc2RmzAL.s 			page 23


 1102              	.LASF12:
 1103 00a7 666C6F61 		.ascii	"float\000"
 1103      7400
 1104              	.LASF1:
 1105 00ad 756E7369 		.ascii	"unsigned char\000"
 1105      676E6564 
 1105      20636861 
 1105      7200
 1106              	.LASF31:
 1107 00bb 6C69625F 		.ascii	"lib_testMode\\testMode.c\000"
 1107      74657374 
 1107      4D6F6465 
 1107      5C746573 
 1107      744D6F64 
 1108              	.LASF5:
 1109 00d3 6C6F6E67 		.ascii	"long unsigned int\000"
 1109      20756E73 
 1109      69676E65 
 1109      6420696E 
 1109      7400
 1110              	.LASF3:
 1111 00e5 73686F72 		.ascii	"short unsigned int\000"
 1111      7420756E 
 1111      7369676E 
 1111      65642069 
 1111      6E7400
 1112              	.LASF20:
 1113 00f8 4C4F575F 		.ascii	"LOW_LEVEL\000"
 1113      4C455645 
 1113      4C00
 1114              	.LASF17:
 1115 0102 48494748 		.ascii	"HIGH_LEVEL\000"
 1115      5F4C4556 
 1115      454C00
 1116              	.LASF22:
 1117 010d 62756666 		.ascii	"buff\000"
 1117      00
 1118              	.LASF13:
 1119 0112 646F7562 		.ascii	"double\000"
 1119      6C6500
 1120              	.LASF35:
 1121 0119 54657374 		.ascii	"TestMode_UpdateNewRandomTime\000"
 1121      4D6F6465 
 1121      5F557064 
 1121      6174654E 
 1121      65775261 
 1122              	.LASF25:
 1123 0136 52656164 		.ascii	"ReadNetworkState\000"
 1123      4E657477 
 1123      6F726B53 
 1123      74617465 
 1123      00
 1124              	.LASF30:
 1125 0147 474E5520 		.ascii	"GNU C 4.9.3 20150303 (release) [ARM/embedded-4_9-br"
 1125      4320342E 
 1125      392E3320 
 1125      32303135 
ARM GAS  C:\Users\Petro\AppData\Local\Temp\cc2RmzAL.s 			page 24


 1125      30333033 
 1126 017a 616E6368 		.ascii	"anch revision 221220] -mcpu=cortex-m0 -mthumb -g -O"
 1126      20726576 
 1126      6973696F 
 1126      6E203232 
 1126      31323230 
 1127 01ad 30202D66 		.ascii	"0 -ffunction-sections -ffat-lto-objects\000"
 1127      66756E63 
 1127      74696F6E 
 1127      2D736563 
 1127      74696F6E 
 1128              	.LASF11:
 1129 01d5 75696E74 		.ascii	"uint32\000"
 1129      333200
 1130              	.LASF8:
 1131 01dc 756E7369 		.ascii	"unsigned int\000"
 1131      676E6564 
 1131      20696E74 
 1131      00
 1132              	.LASF7:
 1133 01e9 6C6F6E67 		.ascii	"long long unsigned int\000"
 1133      206C6F6E 
 1133      6720756E 
 1133      7369676E 
 1133      65642069 
 1134              	.LASF10:
 1135 0200 75696E74 		.ascii	"uint8_t\000"
 1135      385F7400 
 1136              	.LASF26:
 1137 0208 656E6162 		.ascii	"enableTestMode\000"
 1137      6C655465 
 1137      73744D6F 
 1137      646500
 1138              	.LASF23:
 1139 0217 746D7043 		.ascii	"tmpCounter\000"
 1139      6F756E74 
 1139      657200
 1140              	.LASF15:
 1141 0222 73697A65 		.ascii	"sizetype\000"
 1141      74797065 
 1141      00
 1142              	.LASF6:
 1143 022b 6C6F6E67 		.ascii	"long long int\000"
 1143      206C6F6E 
 1143      6720696E 
 1143      7400
 1144              	.LASF14:
 1145 0239 63686172 		.ascii	"char\000"
 1145      00
 1146              	.LASF24:
 1147 023e 74657374 		.ascii	"testModeHandler\000"
 1147      4D6F6465 
 1147      48616E64 
 1147      6C657200 
 1148              	.LASF2:
 1149 024e 73686F72 		.ascii	"short int\000"
 1149      7420696E 
ARM GAS  C:\Users\Petro\AppData\Local\Temp\cc2RmzAL.s 			page 25


 1149      7400
 1150              	.LASF36:
 1151 0258 52656164 		.ascii	"ReadSwitchState\000"
 1151      53776974 
 1151      63685374 
 1151      61746500 
 1152              	.LASF34:
 1153 0268 6E657746 		.ascii	"newFuncTestMode\000"
 1153      756E6354 
 1153      6573744D 
 1153      6F646500 
 1154              	.LASF4:
 1155 0278 6C6F6E67 		.ascii	"long int\000"
 1155      20696E74 
 1155      00
 1156              	.LASF0:
 1157 0281 7369676E 		.ascii	"signed char\000"
 1157      65642063 
 1157      68617200 
 1158              	.LASF27:
 1159 028d 73746174 		.ascii	"statusTestMode\000"
 1159      75735465 
 1159      73744D6F 
 1159      646500
 1160              	.LASF21:
 1161 029c 66756E63 		.ascii	"funcReturnValue\000"
 1161      52657475 
 1161      726E5661 
 1161      6C756500 
 1162              		.ident	"GCC: (GNU Tools for ARM Embedded Processors) 4.9.3 20150303 (release) [ARM/embedded-4_9-br
