ARM GAS  C:\Users\Petro\AppData\Local\Temp\ccEghf62.s 			page 1


   1              		.cpu cortex-m0
   2              		.fpu softvfp
   3              		.eabi_attribute 20, 1
   4              		.eabi_attribute 21, 1
   5              		.eabi_attribute 23, 3
   6              		.eabi_attribute 24, 1
   7              		.eabi_attribute 25, 1
   8              		.eabi_attribute 26, 1
   9              		.eabi_attribute 30, 6
  10              		.eabi_attribute 34, 0
  11              		.eabi_attribute 18, 4
  12              		.code	16
  13              		.file	"testMode.c"
  14              		.text
  15              	.Ltext0:
  16              		.cfi_sections	.debug_frame
  17              		.global	statusTestMode
  18              		.bss
  19              		.type	statusTestMode, %object
  20              		.size	statusTestMode, 1
  21              	statusTestMode:
  22 0000 00       		.space	1
  23              		.global	switchState
  24              		.data
  25              		.type	switchState, %object
  26              		.size	switchState, 1
  27              	switchState:
  28 0000 03       		.byte	3
  29              		.global	networkState
  30              		.type	networkState, %object
  31              		.size	networkState, 1
  32              	networkState:
  33 0001 03       		.byte	3
  34              		.bss
  35              	enableTestMode:
  36 0001 00       		.space	1
  37              		.section	.text.testModeHandler,"ax",%progbits
  38              		.align	2
  39              		.global	testModeHandler
  40              		.code	16
  41              		.thumb_func
  42              		.type	testModeHandler, %function
  43              	testModeHandler:
  44              	.LFB63:
  45              		.file 1 "lib_testMode\\testMode.c"
   1:lib_testMode/testMode.c **** #include "project.h"
   2:lib_testMode/testMode.c **** #include <stdlib.h>
   3:lib_testMode/testMode.c **** 
   4:lib_testMode/testMode.c **** #include <stdio.h>
   5:lib_testMode/testMode.c **** #include <lib_Display\Display.h>
   6:lib_testMode/testMode.c **** #include <lib_Network\network.h>
   7:lib_testMode/testMode.c **** #include <lib_Testmode\testMode.h>
   8:lib_testMode/testMode.c **** 
   9:lib_testMode/testMode.c **** #define COUNTER_TEST_MODE_ON   5
  10:lib_testMode/testMode.c **** #define COUNTER_TEST_MODE_OFF  7
  11:lib_testMode/testMode.c **** #define MAX_DELAY_CYCLES_IN_READING 2
  12:lib_testMode/testMode.c **** 
ARM GAS  C:\Users\Petro\AppData\Local\Temp\ccEghf62.s 			page 2


  13:lib_testMode/testMode.c **** enum status {STOPPED=0, RUN};
  14:lib_testMode/testMode.c **** typedef enum {HIGH_LEVEL, RISING_EDGE, FALLING_EDGE, LOW_LEVEL}funcReturnValue;
  15:lib_testMode/testMode.c **** 
  16:lib_testMode/testMode.c **** uint8_t statusTestMode = STOPPED;
  17:lib_testMode/testMode.c **** 
  18:lib_testMode/testMode.c **** funcReturnValue switchState = LOW_LEVEL;
  19:lib_testMode/testMode.c **** funcReturnValue networkState = LOW_LEVEL;
  20:lib_testMode/testMode.c **** 
  21:lib_testMode/testMode.c **** funcReturnValue ReadSwitchState();
  22:lib_testMode/testMode.c **** funcReturnValue ReadNetworkState();
  23:lib_testMode/testMode.c **** 
  24:lib_testMode/testMode.c **** static uint8_t enableTestMode;
  25:lib_testMode/testMode.c **** 
  26:lib_testMode/testMode.c **** CY_ISR(testModeHandler)
  27:lib_testMode/testMode.c **** {
  46              		.loc 1 27 0
  47              		.cfi_startproc
  48 0000 80B5     		push	{r7, lr}
  49              		.cfi_def_cfa_offset 8
  50              		.cfi_offset 7, -8
  51              		.cfi_offset 14, -4
  52 0002 00AF     		add	r7, sp, #0
  53              		.cfi_def_cfa_register 7
  28:lib_testMode/testMode.c ****     Pin_testMode_Write(0);
  54              		.loc 1 28 0
  55 0004 0020     		mov	r0, #0
  56 0006 FFF7FEFF 		bl	Pin_testMode_Write
  29:lib_testMode/testMode.c ****     Pin_testMode_Write(1);
  57              		.loc 1 29 0
  58 000a 0120     		mov	r0, #1
  59 000c FFF7FEFF 		bl	Pin_testMode_Write
  30:lib_testMode/testMode.c ****     
  31:lib_testMode/testMode.c ****     TimerTestMode_ClearInterrupt(TimerTestMode_INTR_MASK_CC_MATCH);
  60              		.loc 1 31 0
  61 0010 0220     		mov	r0, #2
  62 0012 FFF7FEFF 		bl	TimerTestMode_ClearInterrupt
  32:lib_testMode/testMode.c ****     statusTestMode = STOPPED;
  63              		.loc 1 32 0
  64 0016 024B     		ldr	r3, .L2
  65 0018 0022     		mov	r2, #0
  66 001a 1A70     		strb	r2, [r3]
  33:lib_testMode/testMode.c **** }
  67              		.loc 1 33 0
  68 001c BD46     		mov	sp, r7
  69              		@ sp needed
  70 001e 80BD     		pop	{r7, pc}
  71              	.L3:
  72              		.align	2
  73              	.L2:
  74 0020 00000000 		.word	statusTestMode
  75              		.cfi_endproc
  76              	.LFE63:
  77              		.size	testModeHandler, .-testModeHandler
  78              		.section	.text.newFuncTestMode,"ax",%progbits
  79              		.align	2
  80              		.global	newFuncTestMode
  81              		.code	16
ARM GAS  C:\Users\Petro\AppData\Local\Temp\ccEghf62.s 			page 3


  82              		.thumb_func
  83              		.type	newFuncTestMode, %function
  84              	newFuncTestMode:
  85              	.LFB64:
  34:lib_testMode/testMode.c **** 
  35:lib_testMode/testMode.c **** 
  36:lib_testMode/testMode.c **** void newFuncTestMode()
  37:lib_testMode/testMode.c **** {   
  86              		.loc 1 37 0
  87              		.cfi_startproc
  88 0000 80B5     		push	{r7, lr}
  89              		.cfi_def_cfa_offset 8
  90              		.cfi_offset 7, -8
  91              		.cfi_offset 14, -4
  92 0002 00AF     		add	r7, sp, #0
  93              		.cfi_def_cfa_register 7
  38:lib_testMode/testMode.c ****     ReadSwitchState();
  94              		.loc 1 38 0
  95 0004 FFF7FEFF 		bl	ReadSwitchState
  39:lib_testMode/testMode.c ****     ReadNetworkState();
  96              		.loc 1 39 0
  97 0008 FFF7FEFF 		bl	ReadNetworkState
  40:lib_testMode/testMode.c ****     
  41:lib_testMode/testMode.c ****     if(switchState == RISING_EDGE || networkState == RISING_EDGE)   //enable test mode
  98              		.loc 1 41 0
  99 000c 394B     		ldr	r3, .L12
 100 000e 1B78     		ldrb	r3, [r3]
 101 0010 012B     		cmp	r3, #1
 102 0012 03D0     		beq	.L5
 103              		.loc 1 41 0 is_stmt 0 discriminator 1
 104 0014 384B     		ldr	r3, .L12+4
 105 0016 1B78     		ldrb	r3, [r3]
 106 0018 012B     		cmp	r3, #1
 107 001a 1ED1     		bne	.L6
 108              	.L5:
  42:lib_testMode/testMode.c ****     {
  43:lib_testMode/testMode.c ****         DisplayTestMode(1);
 109              		.loc 1 43 0 is_stmt 1
 110 001c 0120     		mov	r0, #1
 111 001e FFF7FEFF 		bl	DisplayTestMode
  44:lib_testMode/testMode.c ****         NetworkSendTestModeStatus(1);
 112              		.loc 1 44 0
 113 0022 0120     		mov	r0, #1
 114 0024 FFF7FEFF 		bl	NetworkSendTestModeStatus
  45:lib_testMode/testMode.c ****         statusTestMode = STOPPED;
 115              		.loc 1 45 0
 116 0028 344B     		ldr	r3, .L12+8
 117 002a 0022     		mov	r2, #0
 118 002c 1A70     		strb	r2, [r3]
  46:lib_testMode/testMode.c ****         if(networkState == RISING_EDGE && switchState == LOW_LEVEL)
 119              		.loc 1 46 0
 120 002e 324B     		ldr	r3, .L12+4
 121 0030 1B78     		ldrb	r3, [r3]
 122 0032 012B     		cmp	r3, #1
 123 0034 06D1     		bne	.L7
 124              		.loc 1 46 0 is_stmt 0 discriminator 1
 125 0036 2F4B     		ldr	r3, .L12
ARM GAS  C:\Users\Petro\AppData\Local\Temp\ccEghf62.s 			page 4


 126 0038 1B78     		ldrb	r3, [r3]
 127 003a 032B     		cmp	r3, #3
 128 003c 02D1     		bne	.L7
  47:lib_testMode/testMode.c ****             switchState = RISING_EDGE;
 129              		.loc 1 47 0 is_stmt 1
 130 003e 2D4B     		ldr	r3, .L12
 131 0040 0122     		mov	r2, #1
 132 0042 1A70     		strb	r2, [r3]
 133              	.L7:
  48:lib_testMode/testMode.c ****         if(networkState == LOW_LEVEL && switchState == RISING_EDGE)
 134              		.loc 1 48 0
 135 0044 2C4B     		ldr	r3, .L12+4
 136 0046 1B78     		ldrb	r3, [r3]
 137 0048 032B     		cmp	r3, #3
 138 004a 06D1     		bne	.L6
 139              		.loc 1 48 0 is_stmt 0 discriminator 1
 140 004c 294B     		ldr	r3, .L12
 141 004e 1B78     		ldrb	r3, [r3]
 142 0050 012B     		cmp	r3, #1
 143 0052 02D1     		bne	.L6
  49:lib_testMode/testMode.c ****             networkState = RISING_EDGE;
 144              		.loc 1 49 0 is_stmt 1
 145 0054 284B     		ldr	r3, .L12+4
 146 0056 0122     		mov	r2, #1
 147 0058 1A70     		strb	r2, [r3]
 148              	.L6:
  50:lib_testMode/testMode.c ****     }
  51:lib_testMode/testMode.c ****     if(switchState == FALLING_EDGE || networkState == FALLING_EDGE)        //disable test mode
 149              		.loc 1 51 0
 150 005a 264B     		ldr	r3, .L12
 151 005c 1B78     		ldrb	r3, [r3]
 152 005e 022B     		cmp	r3, #2
 153 0060 03D0     		beq	.L8
 154              		.loc 1 51 0 is_stmt 0 discriminator 1
 155 0062 254B     		ldr	r3, .L12+4
 156 0064 1B78     		ldrb	r3, [r3]
 157 0066 022B     		cmp	r3, #2
 158 0068 20D1     		bne	.L9
 159              	.L8:
  52:lib_testMode/testMode.c ****     {
  53:lib_testMode/testMode.c ****         TimerTestMode_Stop();
 160              		.loc 1 53 0 is_stmt 1
 161 006a FFF7FEFF 		bl	TimerTestMode_Stop
  54:lib_testMode/testMode.c ****         DisplayTestMode(0);
 162              		.loc 1 54 0
 163 006e 0020     		mov	r0, #0
 164 0070 FFF7FEFF 		bl	DisplayTestMode
  55:lib_testMode/testMode.c ****         NetworkSendTestModeStatus(0);
 165              		.loc 1 55 0
 166 0074 0020     		mov	r0, #0
 167 0076 FFF7FEFF 		bl	NetworkSendTestModeStatus
  56:lib_testMode/testMode.c ****         statusTestMode = STOPPED;
 168              		.loc 1 56 0
 169 007a 204B     		ldr	r3, .L12+8
 170 007c 0022     		mov	r2, #0
 171 007e 1A70     		strb	r2, [r3]
  57:lib_testMode/testMode.c ****         if(networkState == FALLING_EDGE && switchState != FALLING_EDGE)
ARM GAS  C:\Users\Petro\AppData\Local\Temp\ccEghf62.s 			page 5


 172              		.loc 1 57 0
 173 0080 1D4B     		ldr	r3, .L12+4
 174 0082 1B78     		ldrb	r3, [r3]
 175 0084 022B     		cmp	r3, #2
 176 0086 06D1     		bne	.L10
 177              		.loc 1 57 0 is_stmt 0 discriminator 1
 178 0088 1A4B     		ldr	r3, .L12
 179 008a 1B78     		ldrb	r3, [r3]
 180 008c 022B     		cmp	r3, #2
 181 008e 02D0     		beq	.L10
  58:lib_testMode/testMode.c ****             switchState = LOW_LEVEL;
 182              		.loc 1 58 0 is_stmt 1
 183 0090 184B     		ldr	r3, .L12
 184 0092 0322     		mov	r2, #3
 185 0094 1A70     		strb	r2, [r3]
 186              	.L10:
  59:lib_testMode/testMode.c ****         if(networkState != FALLING_EDGE && switchState == FALLING_EDGE)
 187              		.loc 1 59 0
 188 0096 184B     		ldr	r3, .L12+4
 189 0098 1B78     		ldrb	r3, [r3]
 190 009a 022B     		cmp	r3, #2
 191 009c 06D0     		beq	.L9
 192              		.loc 1 59 0 is_stmt 0 discriminator 1
 193 009e 154B     		ldr	r3, .L12
 194 00a0 1B78     		ldrb	r3, [r3]
 195 00a2 022B     		cmp	r3, #2
 196 00a4 02D1     		bne	.L9
  60:lib_testMode/testMode.c ****             networkState = LOW_LEVEL;
 197              		.loc 1 60 0 is_stmt 1
 198 00a6 144B     		ldr	r3, .L12+4
 199 00a8 0322     		mov	r2, #3
 200 00aa 1A70     		strb	r2, [r3]
 201              	.L9:
  61:lib_testMode/testMode.c ****     }
  62:lib_testMode/testMode.c ****     //else    
  63:lib_testMode/testMode.c ****     //{
  64:lib_testMode/testMode.c ****     /*update test mode*/
  65:lib_testMode/testMode.c ****     if(networkState == HIGH_LEVEL && switchState == HIGH_LEVEL )
 202              		.loc 1 65 0
 203 00ac 124B     		ldr	r3, .L12+4
 204 00ae 1B78     		ldrb	r3, [r3]
 205 00b0 002B     		cmp	r3, #0
 206 00b2 1CD1     		bne	.L4
 207              		.loc 1 65 0 is_stmt 0 discriminator 1
 208 00b4 0F4B     		ldr	r3, .L12
 209 00b6 1B78     		ldrb	r3, [r3]
 210 00b8 002B     		cmp	r3, #0
 211 00ba 18D1     		bne	.L4
  66:lib_testMode/testMode.c ****     {
  67:lib_testMode/testMode.c ****         if(NetworkStatus() != NETWORK_DISCONN && FinWriteInDB() != NO_WRITE && FinReady() != NO_REA
 212              		.loc 1 67 0 is_stmt 1
 213 00bc FFF7FEFF 		bl	NetworkStatus
 214 00c0 031E     		sub	r3, r0, #0
 215 00c2 14D0     		beq	.L4
 216              		.loc 1 67 0 is_stmt 0 discriminator 1
 217 00c4 FFF7FEFF 		bl	FinWriteInDB
 218 00c8 031E     		sub	r3, r0, #0
ARM GAS  C:\Users\Petro\AppData\Local\Temp\ccEghf62.s 			page 6


 219 00ca 10D0     		beq	.L4
 220              		.loc 1 67 0 discriminator 2
 221 00cc FFF7FEFF 		bl	FinReady
 222 00d0 031E     		sub	r3, r0, #0
 223 00d2 0CD0     		beq	.L4
 224              		.loc 1 67 0 discriminator 3
 225 00d4 094B     		ldr	r3, .L12+8
 226 00d6 1B78     		ldrb	r3, [r3]
 227 00d8 002B     		cmp	r3, #0
 228 00da 08D1     		bne	.L4
  68:lib_testMode/testMode.c ****         {
  69:lib_testMode/testMode.c ****             /*start timer*/
  70:lib_testMode/testMode.c ****             TestMode_UpdateNewRandomTime();
 229              		.loc 1 70 0 is_stmt 1
 230 00dc FFF7FEFF 		bl	TestMode_UpdateNewRandomTime
  71:lib_testMode/testMode.c ****             Int_timerTestMode_StartEx(testModeHandler);
 231              		.loc 1 71 0
 232 00e0 074B     		ldr	r3, .L12+12
 233 00e2 181C     		mov	r0, r3
 234 00e4 FFF7FEFF 		bl	Int_timerTestMode_StartEx
  72:lib_testMode/testMode.c ****             statusTestMode = RUN;
 235              		.loc 1 72 0
 236 00e8 044B     		ldr	r3, .L12+8
 237 00ea 0122     		mov	r2, #1
 238 00ec 1A70     		strb	r2, [r3]
 239              	.L4:
  73:lib_testMode/testMode.c ****         }
  74:lib_testMode/testMode.c ****     }
  75:lib_testMode/testMode.c ****     //}
  76:lib_testMode/testMode.c **** }
 240              		.loc 1 76 0
 241 00ee BD46     		mov	sp, r7
 242              		@ sp needed
 243 00f0 80BD     		pop	{r7, pc}
 244              	.L13:
 245 00f2 C046     		.align	2
 246              	.L12:
 247 00f4 00000000 		.word	switchState
 248 00f8 00000000 		.word	networkState
 249 00fc 00000000 		.word	statusTestMode
 250 0100 00000000 		.word	testModeHandler
 251              		.cfi_endproc
 252              	.LFE64:
 253              		.size	newFuncTestMode, .-newFuncTestMode
 254              		.global	__aeabi_idivmod
 255              		.section	.rodata
 256              		.align	2
 257              	.LC5:
 258 0000 256400   		.ascii	"%d\000"
 259 0003 00       		.section	.text.TestMode_UpdateNewRandomTime,"ax",%progbits
 260              		.align	2
 261              		.global	TestMode_UpdateNewRandomTime
 262              		.code	16
 263              		.thumb_func
 264              		.type	TestMode_UpdateNewRandomTime, %function
 265              	TestMode_UpdateNewRandomTime:
 266              	.LFB65:
ARM GAS  C:\Users\Petro\AppData\Local\Temp\ccEghf62.s 			page 7


  77:lib_testMode/testMode.c **** 
  78:lib_testMode/testMode.c **** 
  79:lib_testMode/testMode.c **** void TestMode_UpdateNewRandomTime()
  80:lib_testMode/testMode.c **** {
 267              		.loc 1 80 0
 268              		.cfi_startproc
 269 0000 80B5     		push	{r7, lr}
 270              		.cfi_def_cfa_offset 8
 271              		.cfi_offset 7, -8
 272              		.cfi_offset 14, -4
 273 0002 84B0     		sub	sp, sp, #16
 274              		.cfi_def_cfa_offset 24
 275 0004 00AF     		add	r7, sp, #0
 276              		.cfi_def_cfa_register 7
  81:lib_testMode/testMode.c ****     uint8_t num;
  82:lib_testMode/testMode.c ****     
  83:lib_testMode/testMode.c ****     num = 30+rand()%60;
 277              		.loc 1 83 0
 278 0006 FFF7FEFF 		bl	rand
 279 000a 031C     		mov	r3, r0
 280 000c 181C     		mov	r0, r3
 281 000e 3C21     		mov	r1, #60
 282 0010 FFF7FEFF 		bl	__aeabi_idivmod
 283 0014 0B1C     		mov	r3, r1
 284 0016 DAB2     		uxtb	r2, r3
 285 0018 0F23     		mov	r3, #15
 286 001a FB18     		add	r3, r7, r3
 287 001c 1E32     		add	r2, r2, #30
 288 001e 1A70     		strb	r2, [r3]
  84:lib_testMode/testMode.c ****     
  85:lib_testMode/testMode.c ****     char buff[11];
  86:lib_testMode/testMode.c ****     sprintf(buff,"%d",num);
 289              		.loc 1 86 0
 290 0020 0F23     		mov	r3, #15
 291 0022 FB18     		add	r3, r7, r3
 292 0024 1B78     		ldrb	r3, [r3]
 293 0026 391D     		add	r1, r7, #4
 294 0028 0C4A     		ldr	r2, .L15
 295 002a 081C     		mov	r0, r1
 296 002c 111C     		mov	r1, r2
 297 002e 1A1C     		mov	r2, r3
 298 0030 FFF7FEFF 		bl	sprintf
  87:lib_testMode/testMode.c ****     Display(buff);
 299              		.loc 1 87 0
 300 0034 3B1D     		add	r3, r7, #4
 301 0036 181C     		mov	r0, r3
 302 0038 FFF7FEFF 		bl	Display
  88:lib_testMode/testMode.c ****     
  89:lib_testMode/testMode.c ****     TimerTestMode_WriteCounter(0);
 303              		.loc 1 89 0
 304 003c 0020     		mov	r0, #0
 305 003e FFF7FEFF 		bl	TimerTestMode_WriteCounter
  90:lib_testMode/testMode.c ****     TimerTestMode_WriteCompare(num*100);
 306              		.loc 1 90 0
 307 0042 0F23     		mov	r3, #15
 308 0044 FB18     		add	r3, r7, r3
 309 0046 1B78     		ldrb	r3, [r3]
ARM GAS  C:\Users\Petro\AppData\Local\Temp\ccEghf62.s 			page 8


 310 0048 6422     		mov	r2, #100
 311 004a 5343     		mul	r3, r2
 312 004c 181C     		mov	r0, r3
 313 004e FFF7FEFF 		bl	TimerTestMode_WriteCompare
  91:lib_testMode/testMode.c ****     TimerTestMode_Start();   
 314              		.loc 1 91 0
 315 0052 FFF7FEFF 		bl	TimerTestMode_Start
  92:lib_testMode/testMode.c **** }
 316              		.loc 1 92 0
 317 0056 BD46     		mov	sp, r7
 318 0058 04B0     		add	sp, sp, #16
 319              		@ sp needed
 320 005a 80BD     		pop	{r7, pc}
 321              	.L16:
 322              		.align	2
 323              	.L15:
 324 005c 00000000 		.word	.LC5
 325              		.cfi_endproc
 326              	.LFE65:
 327              		.size	TestMode_UpdateNewRandomTime, .-TestMode_UpdateNewRandomTime
 328              		.section	.text.ReadSwitchState,"ax",%progbits
 329              		.align	2
 330              		.global	ReadSwitchState
 331              		.code	16
 332              		.thumb_func
 333              		.type	ReadSwitchState, %function
 334              	ReadSwitchState:
 335              	.LFB66:
  93:lib_testMode/testMode.c **** 
  94:lib_testMode/testMode.c **** funcReturnValue ReadSwitchState()
  95:lib_testMode/testMode.c **** {  
 336              		.loc 1 95 0
 337              		.cfi_startproc
 338 0000 80B5     		push	{r7, lr}
 339              		.cfi_def_cfa_offset 8
 340              		.cfi_offset 7, -8
 341              		.cfi_offset 14, -4
 342 0002 00AF     		add	r7, sp, #0
 343              		.cfi_def_cfa_register 7
  96:lib_testMode/testMode.c ****     static uint8_t tmpCounter;
  97:lib_testMode/testMode.c ****     
  98:lib_testMode/testMode.c ****     if(SW_RunTestMode_Read() == 0)
 344              		.loc 1 98 0
 345 0004 FFF7FEFF 		bl	SW_RunTestMode_Read
 346 0008 031E     		sub	r3, r0, #0
 347 000a 06D1     		bne	.L18
  99:lib_testMode/testMode.c ****         tmpCounter++;
 348              		.loc 1 99 0
 349 000c 184B     		ldr	r3, .L26
 350 000e 1B78     		ldrb	r3, [r3]
 351 0010 0133     		add	r3, r3, #1
 352 0012 DAB2     		uxtb	r2, r3
 353 0014 164B     		ldr	r3, .L26
 354 0016 1A70     		strb	r2, [r3]
 355 0018 02E0     		b	.L19
 356              	.L18:
 100:lib_testMode/testMode.c ****     else
ARM GAS  C:\Users\Petro\AppData\Local\Temp\ccEghf62.s 			page 9


 101:lib_testMode/testMode.c ****         tmpCounter = 0;
 357              		.loc 1 101 0
 358 001a 154B     		ldr	r3, .L26
 359 001c 0022     		mov	r2, #0
 360 001e 1A70     		strb	r2, [r3]
 361              	.L19:
 102:lib_testMode/testMode.c ****     
 103:lib_testMode/testMode.c ****     if(tmpCounter > COUNTER_TEST_MODE_ON)
 362              		.loc 1 103 0
 363 0020 134B     		ldr	r3, .L26
 364 0022 1B78     		ldrb	r3, [r3]
 365 0024 052B     		cmp	r3, #5
 366 0026 0FD9     		bls	.L20
 104:lib_testMode/testMode.c ****     {
 105:lib_testMode/testMode.c ****         if(switchState == LOW_LEVEL)switchState = RISING_EDGE;
 367              		.loc 1 105 0
 368 0028 124B     		ldr	r3, .L26+4
 369 002a 1B78     		ldrb	r3, [r3]
 370 002c 032B     		cmp	r3, #3
 371 002e 03D1     		bne	.L21
 372              		.loc 1 105 0 is_stmt 0 discriminator 1
 373 0030 104B     		ldr	r3, .L26+4
 374 0032 0122     		mov	r2, #1
 375 0034 1A70     		strb	r2, [r3]
 376 0036 16E0     		b	.L23
 377              	.L21:
 106:lib_testMode/testMode.c ****         else if(switchState == HIGH_LEVEL)switchState = FALLING_EDGE;
 378              		.loc 1 106 0 is_stmt 1
 379 0038 0E4B     		ldr	r3, .L26+4
 380 003a 1B78     		ldrb	r3, [r3]
 381 003c 002B     		cmp	r3, #0
 382 003e 12D1     		bne	.L23
 383              		.loc 1 106 0 is_stmt 0 discriminator 1
 384 0040 0C4B     		ldr	r3, .L26+4
 385 0042 0222     		mov	r2, #2
 386 0044 1A70     		strb	r2, [r3]
 387 0046 0EE0     		b	.L23
 388              	.L20:
 107:lib_testMode/testMode.c ****     }
 108:lib_testMode/testMode.c ****     else
 109:lib_testMode/testMode.c ****     {
 110:lib_testMode/testMode.c ****         if(switchState == RISING_EDGE)switchState = HIGH_LEVEL;
 389              		.loc 1 110 0 is_stmt 1
 390 0048 0A4B     		ldr	r3, .L26+4
 391 004a 1B78     		ldrb	r3, [r3]
 392 004c 012B     		cmp	r3, #1
 393 004e 03D1     		bne	.L24
 394              		.loc 1 110 0 is_stmt 0 discriminator 1
 395 0050 084B     		ldr	r3, .L26+4
 396 0052 0022     		mov	r2, #0
 397 0054 1A70     		strb	r2, [r3]
 398 0056 06E0     		b	.L23
 399              	.L24:
 111:lib_testMode/testMode.c ****         else if(switchState == FALLING_EDGE)switchState = LOW_LEVEL;
 400              		.loc 1 111 0 is_stmt 1
 401 0058 064B     		ldr	r3, .L26+4
 402 005a 1B78     		ldrb	r3, [r3]
ARM GAS  C:\Users\Petro\AppData\Local\Temp\ccEghf62.s 			page 10


 403 005c 022B     		cmp	r3, #2
 404 005e 02D1     		bne	.L23
 405              		.loc 1 111 0 is_stmt 0 discriminator 1
 406 0060 044B     		ldr	r3, .L26+4
 407 0062 0322     		mov	r2, #3
 408 0064 1A70     		strb	r2, [r3]
 409              	.L23:
 112:lib_testMode/testMode.c ****     }
 113:lib_testMode/testMode.c **** 
 114:lib_testMode/testMode.c ****       
 115:lib_testMode/testMode.c ****     return switchState;
 410              		.loc 1 115 0 is_stmt 1
 411 0066 034B     		ldr	r3, .L26+4
 412 0068 1B78     		ldrb	r3, [r3]
 116:lib_testMode/testMode.c **** }
 413              		.loc 1 116 0
 414 006a 181C     		mov	r0, r3
 415 006c BD46     		mov	sp, r7
 416              		@ sp needed
 417 006e 80BD     		pop	{r7, pc}
 418              	.L27:
 419              		.align	2
 420              	.L26:
 421 0070 02000000 		.word	tmpCounter.7646
 422 0074 00000000 		.word	switchState
 423              		.cfi_endproc
 424              	.LFE66:
 425              		.size	ReadSwitchState, .-ReadSwitchState
 426              		.section	.text.ReadNetworkState,"ax",%progbits
 427              		.align	2
 428              		.global	ReadNetworkState
 429              		.code	16
 430              		.thumb_func
 431              		.type	ReadNetworkState, %function
 432              	ReadNetworkState:
 433              	.LFB67:
 117:lib_testMode/testMode.c **** 
 118:lib_testMode/testMode.c **** 
 119:lib_testMode/testMode.c **** funcReturnValue ReadNetworkState()
 120:lib_testMode/testMode.c **** {
 434              		.loc 1 120 0
 435              		.cfi_startproc
 436 0000 80B5     		push	{r7, lr}
 437              		.cfi_def_cfa_offset 8
 438              		.cfi_offset 7, -8
 439              		.cfi_offset 14, -4
 440 0002 00AF     		add	r7, sp, #0
 441              		.cfi_def_cfa_register 7
 121:lib_testMode/testMode.c ****     if(networkState == LOW_LEVEL && NetworkReadTestModeStatus()==1)  networkState = RISING_EDGE;
 442              		.loc 1 121 0
 443 0004 1A4B     		ldr	r3, .L34
 444 0006 1B78     		ldrb	r3, [r3]
 445 0008 032B     		cmp	r3, #3
 446 000a 08D1     		bne	.L29
 447              		.loc 1 121 0 is_stmt 0 discriminator 1
 448 000c FFF7FEFF 		bl	NetworkReadTestModeStatus
 449 0010 031E     		sub	r3, r0, #0
ARM GAS  C:\Users\Petro\AppData\Local\Temp\ccEghf62.s 			page 11


 450 0012 012B     		cmp	r3, #1
 451 0014 03D1     		bne	.L29
 452              		.loc 1 121 0 discriminator 2
 453 0016 164B     		ldr	r3, .L34
 454 0018 0122     		mov	r2, #1
 455 001a 1A70     		strb	r2, [r3]
 456 001c 23E0     		b	.L30
 457              	.L29:
 122:lib_testMode/testMode.c ****     else if(networkState == HIGH_LEVEL && NetworkReadTestModeStatus() == 0)  networkState = FALLING
 458              		.loc 1 122 0 is_stmt 1
 459 001e 144B     		ldr	r3, .L34
 460 0020 1B78     		ldrb	r3, [r3]
 461 0022 002B     		cmp	r3, #0
 462 0024 07D1     		bne	.L31
 463              		.loc 1 122 0 is_stmt 0 discriminator 1
 464 0026 FFF7FEFF 		bl	NetworkReadTestModeStatus
 465 002a 031E     		sub	r3, r0, #0
 466 002c 03D1     		bne	.L31
 467              		.loc 1 122 0 discriminator 2
 468 002e 104B     		ldr	r3, .L34
 469 0030 0222     		mov	r2, #2
 470 0032 1A70     		strb	r2, [r3]
 471 0034 17E0     		b	.L30
 472              	.L31:
 123:lib_testMode/testMode.c ****     else if(networkState == RISING_EDGE && NetworkReadTestModeStatus() ==1)  networkState = HIGH_LE
 473              		.loc 1 123 0 is_stmt 1
 474 0036 0E4B     		ldr	r3, .L34
 475 0038 1B78     		ldrb	r3, [r3]
 476 003a 012B     		cmp	r3, #1
 477 003c 08D1     		bne	.L32
 478              		.loc 1 123 0 is_stmt 0 discriminator 1
 479 003e FFF7FEFF 		bl	NetworkReadTestModeStatus
 480 0042 031E     		sub	r3, r0, #0
 481 0044 012B     		cmp	r3, #1
 482 0046 03D1     		bne	.L32
 483              		.loc 1 123 0 discriminator 2
 484 0048 094B     		ldr	r3, .L34
 485 004a 0022     		mov	r2, #0
 486 004c 1A70     		strb	r2, [r3]
 487 004e 0AE0     		b	.L30
 488              	.L32:
 124:lib_testMode/testMode.c ****     else if(networkState == FALLING_EDGE && NetworkReadTestModeStatus() == 0)  networkState = LOW_L
 489              		.loc 1 124 0 is_stmt 1
 490 0050 074B     		ldr	r3, .L34
 491 0052 1B78     		ldrb	r3, [r3]
 492 0054 022B     		cmp	r3, #2
 493 0056 06D1     		bne	.L30
 494              		.loc 1 124 0 is_stmt 0 discriminator 1
 495 0058 FFF7FEFF 		bl	NetworkReadTestModeStatus
 496 005c 031E     		sub	r3, r0, #0
 497 005e 02D1     		bne	.L30
 498              		.loc 1 124 0 discriminator 2
 499 0060 034B     		ldr	r3, .L34
 500 0062 0322     		mov	r2, #3
 501 0064 1A70     		strb	r2, [r3]
 502              	.L30:
 125:lib_testMode/testMode.c **** 
ARM GAS  C:\Users\Petro\AppData\Local\Temp\ccEghf62.s 			page 12


 126:lib_testMode/testMode.c ****     return networkState;   
 503              		.loc 1 126 0 is_stmt 1
 504 0066 024B     		ldr	r3, .L34
 505 0068 1B78     		ldrb	r3, [r3]
 127:lib_testMode/testMode.c **** }...
 506              		.loc 1 127 0
 507 006a 181C     		mov	r0, r3
 508 006c BD46     		mov	sp, r7
 509              		@ sp needed
 510 006e 80BD     		pop	{r7, pc}
 511              	.L35:
 512              		.align	2
 513              	.L34:
 514 0070 00000000 		.word	networkState
 515              		.cfi_endproc
 516              	.LFE67:
 517              		.size	ReadNetworkState, .-ReadNetworkState
 518              		.bss
 519              	tmpCounter.7646:
 520 0002 00       		.space	1
 521              		.text
 522              	.Letext0:
 523              		.file 2 "c:\\program files (x86)\\cypress\\psoc creator\\4.0\\psoc creator\\import\\gnu\\arm\\4.9.
 524              		.file 3 "c:\\program files (x86)\\cypress\\psoc creator\\4.0\\psoc creator\\import\\gnu\\arm\\4.9.
 525              		.file 4 "Generated_Source\\PSoC4/cytypes.h"