ARM GAS  C:\Users\Petro\AppData\Local\Temp\cc4GPyUf.s 			page 1


   1              		.cpu cortex-m0
   2              		.fpu softvfp
   3              		.eabi_attribute 20, 1
   4              		.eabi_attribute 21, 1
   5              		.eabi_attribute 23, 3
   6              		.eabi_attribute 24, 1
   7              		.eabi_attribute 25, 1
   8              		.eabi_attribute 26, 1
   9              		.eabi_attribute 30, 6
  10              		.eabi_attribute 34, 0
  11              		.eabi_attribute 18, 4
  12              		.code	16
  13              		.file	"BLE_cps.c"
  14              		.text
  15              	.Ltext0:
  16              		.cfi_sections	.debug_frame
  17              		.bss
  18              		.align	2
  19              	CyBle_CpsApplCallback:
  20 0000 00000000 		.space	4
  21              		.global	cyBle_cpss
  22              		.section	.rodata
  23              		.align	2
  24              		.type	cyBle_cpss, %object
  25              		.size	cyBle_cpss, 32
  26              	cyBle_cpss:
  27 0000 0C00     		.short	12
  28 0002 0E00     		.short	14
  29 0004 0F00     		.short	15
  30 0006 1000     		.short	16
  31 0008 1200     		.short	18
  32 000a 0000     		.short	0
  33 000c 0000     		.short	0
  34 000e 1400     		.short	20
  35 0010 0000     		.short	0
  36 0012 0000     		.short	0
  37 0014 1600     		.short	22
  38 0016 1700     		.short	23
  39 0018 0000     		.short	0
  40 001a 1900     		.short	25
  41 001c 1A00     		.short	26
  42 001e 0000     		.short	0
  43              		.comm	cyBle_cpssAdjustment,18,4
  44              		.bss
  45              		.align	1
  46              	cyBle_cpssReqHandle:
  47 0004 0000     		.space	2
  48              	cyBle_cpssFlag:
  49 0006 00       		.space	1
  50 0007 00       		.align	2
  51              	cyBle_cpssConnParam:
  52 0008 00000000 		.space	8
  52      00000000 
  53              		.comm	cyBle_cpssBroadcastParam,16,4
  54              		.global	cyBle_cpssBroadcastData
  55              		.data
  56              		.align	2
ARM GAS  C:\Users\Petro\AppData\Local\Temp\cc4GPyUf.s 			page 2


  57              		.type	cyBle_cpssBroadcastData, %object
  58              		.size	cyBle_cpssBroadcastData, 32
  59              	cyBle_cpssBroadcastData:
  60 0000 02       		.byte	2
  61 0001 01       		.byte	1
  62 0002 04       		.byte	4
  63 0003 03       		.byte	3
  64 0004 1A       		.byte	26
  65 0005 A0       		.byte	-96
  66 0006 00       		.byte	0
  67 0007 07       		.byte	7
  68 0008 16       		.byte	22
  69 0009 18       		.byte	24
  70 000a 18       		.byte	24
  71 000b 00       		.byte	0
  72 000c 00       		.byte	0
  73 000d 11       		.byte	17
  74 000e 11       		.byte	17
  75 000f 00       		.byte	0
  76 0010 00       		.byte	0
  77 0011 00       		.byte	0
  78 0012 00       		.byte	0
  79 0013 00       		.byte	0
  80 0014 00       		.byte	0
  81 0015 00       		.byte	0
  82 0016 00       		.byte	0
  83 0017 00       		.byte	0
  84 0018 00       		.byte	0
  85 0019 00       		.byte	0
  86 001a 00       		.byte	0
  87 001b 00       		.byte	0
  88 001c 00       		.byte	0
  89 001d 00       		.byte	0
  90 001e 00       		.byte	0
  91 001f 12       		.byte	18
  92              		.global	cyBle_cpssBroadcastModeInfo
  93              		.align	2
  94              		.type	cyBle_cpssBroadcastModeInfo, %object
  95              		.size	cyBle_cpssBroadcastModeInfo, 20
  96              	cyBle_cpssBroadcastModeInfo:
  97 0020 00       		.byte	0
  98 0021 000000   		.space	3
  99 0024 00000000 		.word	cyBle_cpssBroadcastParam
 100 0028 00000000 		.word	cyBle_cpssBroadcastData
 101 002c 00000000 		.word	0
 102 0030 0000     		.short	0
 103 0032 0000     		.space	2
 104              		.section	.text.CyBle_CpssInit,"ax",%progbits
 105              		.align	2
 106              		.global	CyBle_CpssInit
 107              		.code	16
 108              		.thumb_func
 109              		.type	CyBle_CpssInit, %function
 110              	CyBle_CpssInit:
 111              	.LFB2:
 112              		.file 1 ".\\Generated_Source\\PSoC4\\BLE_cps.c"
   1:.\Generated_Source\PSoC4/BLE_cps.c **** /***************************************************************************//**
ARM GAS  C:\Users\Petro\AppData\Local\Temp\cc4GPyUf.s 			page 3


   2:.\Generated_Source\PSoC4/BLE_cps.c **** * \file CYBLE_cps.c
   3:.\Generated_Source\PSoC4/BLE_cps.c **** * \version 2.30
   4:.\Generated_Source\PSoC4/BLE_cps.c **** * 
   5:.\Generated_Source\PSoC4/BLE_cps.c **** * \brief
   6:.\Generated_Source\PSoC4/BLE_cps.c **** *  Contains the source code for Cycling Power Service.
   7:.\Generated_Source\PSoC4/BLE_cps.c **** * 
   8:.\Generated_Source\PSoC4/BLE_cps.c **** ********************************************************************************
   9:.\Generated_Source\PSoC4/BLE_cps.c **** * \copyright
  10:.\Generated_Source\PSoC4/BLE_cps.c **** * Copyright 2014-2015, Cypress Semiconductor Corporation.  All rights reserved.
  11:.\Generated_Source\PSoC4/BLE_cps.c **** * You may use this file only in accordance with the license, terms, conditions,
  12:.\Generated_Source\PSoC4/BLE_cps.c **** * disclaimers, and limitations in the end user license agreement accompanying
  13:.\Generated_Source\PSoC4/BLE_cps.c **** * the software package with which this file was provided.
  14:.\Generated_Source\PSoC4/BLE_cps.c **** *******************************************************************************/
  15:.\Generated_Source\PSoC4/BLE_cps.c **** 
  16:.\Generated_Source\PSoC4/BLE_cps.c **** #include "BLE_eventHandler.h"
  17:.\Generated_Source\PSoC4/BLE_cps.c **** 
  18:.\Generated_Source\PSoC4/BLE_cps.c **** static CYBLE_CALLBACK_T CyBle_CpsApplCallback = NULL;
  19:.\Generated_Source\PSoC4/BLE_cps.c **** 
  20:.\Generated_Source\PSoC4/BLE_cps.c **** #ifdef CYBLE_CPS_SERVER
  21:.\Generated_Source\PSoC4/BLE_cps.c **** 
  22:.\Generated_Source\PSoC4/BLE_cps.c **** const CYBLE_CPSS_T cyBle_cpss =
  23:.\Generated_Source\PSoC4/BLE_cps.c **** {
  24:.\Generated_Source\PSoC4/BLE_cps.c ****     0x000Cu,    /* Handle of the CPS service */
  25:.\Generated_Source\PSoC4/BLE_cps.c ****     {
  26:.\Generated_Source\PSoC4/BLE_cps.c ****         
  27:.\Generated_Source\PSoC4/BLE_cps.c ****         /* Cycling Power Measurement characteristic */
  28:.\Generated_Source\PSoC4/BLE_cps.c ****         {
  29:.\Generated_Source\PSoC4/BLE_cps.c ****             0x000Eu, /* Handle of the Cycling Power Measurement characteristic */ 
  30:.\Generated_Source\PSoC4/BLE_cps.c ****             
  31:.\Generated_Source\PSoC4/BLE_cps.c ****             /* Array of Descriptors handles */
  32:.\Generated_Source\PSoC4/BLE_cps.c ****             {
  33:.\Generated_Source\PSoC4/BLE_cps.c ****                 0x000Fu, /* Handle of the Client Characteristic Configuration descriptor */ 
  34:.\Generated_Source\PSoC4/BLE_cps.c ****                 0x0010u, /* Handle of the Server Characteristic Configuration descriptor */ 
  35:.\Generated_Source\PSoC4/BLE_cps.c ****             }, 
  36:.\Generated_Source\PSoC4/BLE_cps.c ****         }, 
  37:.\Generated_Source\PSoC4/BLE_cps.c ****         
  38:.\Generated_Source\PSoC4/BLE_cps.c ****         /* Cycling Power Feature characteristic */
  39:.\Generated_Source\PSoC4/BLE_cps.c ****         {
  40:.\Generated_Source\PSoC4/BLE_cps.c ****             0x0012u, /* Handle of the Cycling Power Feature characteristic */ 
  41:.\Generated_Source\PSoC4/BLE_cps.c ****             
  42:.\Generated_Source\PSoC4/BLE_cps.c ****             /* Array of Descriptors handles */
  43:.\Generated_Source\PSoC4/BLE_cps.c ****             {
  44:.\Generated_Source\PSoC4/BLE_cps.c ****                 CYBLE_GATT_INVALID_ATTR_HANDLE_VALUE, 
  45:.\Generated_Source\PSoC4/BLE_cps.c ****                 CYBLE_GATT_INVALID_ATTR_HANDLE_VALUE, 
  46:.\Generated_Source\PSoC4/BLE_cps.c ****             }, 
  47:.\Generated_Source\PSoC4/BLE_cps.c ****         }, 
  48:.\Generated_Source\PSoC4/BLE_cps.c ****         
  49:.\Generated_Source\PSoC4/BLE_cps.c ****         /* Sensor Location characteristic */
  50:.\Generated_Source\PSoC4/BLE_cps.c ****         {
  51:.\Generated_Source\PSoC4/BLE_cps.c ****             0x0014u, /* Handle of the Sensor Location characteristic */ 
  52:.\Generated_Source\PSoC4/BLE_cps.c ****             
  53:.\Generated_Source\PSoC4/BLE_cps.c ****             /* Array of Descriptors handles */
  54:.\Generated_Source\PSoC4/BLE_cps.c ****             {
  55:.\Generated_Source\PSoC4/BLE_cps.c ****                 CYBLE_GATT_INVALID_ATTR_HANDLE_VALUE, 
  56:.\Generated_Source\PSoC4/BLE_cps.c ****                 CYBLE_GATT_INVALID_ATTR_HANDLE_VALUE, 
  57:.\Generated_Source\PSoC4/BLE_cps.c ****             }, 
  58:.\Generated_Source\PSoC4/BLE_cps.c ****         }, 
ARM GAS  C:\Users\Petro\AppData\Local\Temp\cc4GPyUf.s 			page 4


  59:.\Generated_Source\PSoC4/BLE_cps.c ****         
  60:.\Generated_Source\PSoC4/BLE_cps.c ****         /* Cycling Power Vector characteristic */
  61:.\Generated_Source\PSoC4/BLE_cps.c ****         {
  62:.\Generated_Source\PSoC4/BLE_cps.c ****             0x0016u, /* Handle of the Cycling Power Vector characteristic */ 
  63:.\Generated_Source\PSoC4/BLE_cps.c ****             
  64:.\Generated_Source\PSoC4/BLE_cps.c ****             /* Array of Descriptors handles */
  65:.\Generated_Source\PSoC4/BLE_cps.c ****             {
  66:.\Generated_Source\PSoC4/BLE_cps.c ****                 0x0017u, /* Handle of the Client Characteristic Configuration descriptor */ 
  67:.\Generated_Source\PSoC4/BLE_cps.c ****                 CYBLE_GATT_INVALID_ATTR_HANDLE_VALUE, 
  68:.\Generated_Source\PSoC4/BLE_cps.c ****             }, 
  69:.\Generated_Source\PSoC4/BLE_cps.c ****         }, 
  70:.\Generated_Source\PSoC4/BLE_cps.c ****         
  71:.\Generated_Source\PSoC4/BLE_cps.c ****         /* Cycling Power Control Point characteristic */
  72:.\Generated_Source\PSoC4/BLE_cps.c ****         {
  73:.\Generated_Source\PSoC4/BLE_cps.c ****             0x0019u, /* Handle of the Cycling Power Control Point characteristic */ 
  74:.\Generated_Source\PSoC4/BLE_cps.c ****             
  75:.\Generated_Source\PSoC4/BLE_cps.c ****             /* Array of Descriptors handles */
  76:.\Generated_Source\PSoC4/BLE_cps.c ****             {
  77:.\Generated_Source\PSoC4/BLE_cps.c ****                 0x001Au, /* Handle of the Client Characteristic Configuration descriptor */ 
  78:.\Generated_Source\PSoC4/BLE_cps.c ****                 CYBLE_GATT_INVALID_ATTR_HANDLE_VALUE, 
  79:.\Generated_Source\PSoC4/BLE_cps.c ****             }, 
  80:.\Generated_Source\PSoC4/BLE_cps.c ****         }, 
  81:.\Generated_Source\PSoC4/BLE_cps.c ****     },
  82:.\Generated_Source\PSoC4/BLE_cps.c **** };
  83:.\Generated_Source\PSoC4/BLE_cps.c **** CYBLE_CPS_CP_ADJUSTMENT_T cyBle_cpssAdjustment;
  84:.\Generated_Source\PSoC4/BLE_cps.c **** static CYBLE_GATT_DB_ATTR_HANDLE_T cyBle_cpssReqHandle;
  85:.\Generated_Source\PSoC4/BLE_cps.c **** static uint8 cyBle_cpssFlag;
  86:.\Generated_Source\PSoC4/BLE_cps.c **** static CYBLE_GAP_CONN_PARAM_UPDATED_IN_CONTROLLER_T cyBle_cpssConnParam;
  87:.\Generated_Source\PSoC4/BLE_cps.c ****     
  88:.\Generated_Source\PSoC4/BLE_cps.c **** #endif /* CYBLE_CPS_SERVER */
  89:.\Generated_Source\PSoC4/BLE_cps.c **** 
  90:.\Generated_Source\PSoC4/BLE_cps.c **** #ifdef CYBLE_CPS_CLIENT
  91:.\Generated_Source\PSoC4/BLE_cps.c **** 
  92:.\Generated_Source\PSoC4/BLE_cps.c **** CYBLE_CPSC_T cyBle_cpsc;
  93:.\Generated_Source\PSoC4/BLE_cps.c **** static CYBLE_GATT_DB_ATTR_HANDLE_T cyBle_cpscReqHandle;
  94:.\Generated_Source\PSoC4/BLE_cps.c **** static uint8 cyBle_cpscFlag;
  95:.\Generated_Source\PSoC4/BLE_cps.c **** 
  96:.\Generated_Source\PSoC4/BLE_cps.c **** #endif /* (CYBLE_CPS_CLIENT) */
  97:.\Generated_Source\PSoC4/BLE_cps.c **** 
  98:.\Generated_Source\PSoC4/BLE_cps.c **** #if CYBLE_GAP_ROLE_BROADCASTER
  99:.\Generated_Source\PSoC4/BLE_cps.c **** 
 100:.\Generated_Source\PSoC4/BLE_cps.c **** CYBLE_GAPP_DISC_PARAM_T cyBle_cpssBroadcastParam;
 101:.\Generated_Source\PSoC4/BLE_cps.c **** CYBLE_GAPP_DISC_DATA_T cyBle_cpssBroadcastData =
 102:.\Generated_Source\PSoC4/BLE_cps.c **** {
 103:.\Generated_Source\PSoC4/BLE_cps.c ****     {   /* Length, FLAGS, BR/EDR NOT Supported */
 104:.\Generated_Source\PSoC4/BLE_cps.c ****         CYBLE_GAP_ADV_FLAGS_PACKET_LENGTH, CYBLE_GAP_ADV_FLAGS, CYBLE_GAP_ADV_FLAG_BR_EDR_NOT_SUPPO
 105:.\Generated_Source\PSoC4/BLE_cps.c ****         /* Advertising Interval data type contains the advInterval value */
 106:.\Generated_Source\PSoC4/BLE_cps.c ****         CYBLE_GAP_ADV_ADVERT_INTERVAL_PACKET_LENGTH, CYBLE_GAP_ADV_ADVERT_INTERVAL,
 107:.\Generated_Source\PSoC4/BLE_cps.c ****         LO8(CYBLE_GAP_ADV_ADVERT_INTERVAL_NONCON_MIN), HI8(CYBLE_GAP_ADV_ADVERT_INTERVAL_NONCON_MIN
 108:.\Generated_Source\PSoC4/BLE_cps.c ****         /* The Service Data data type consists of a CPS service UUID with the Cycling Power Measure
 109:.\Generated_Source\PSoC4/BLE_cps.c ****            characteristic value */
 110:.\Generated_Source\PSoC4/BLE_cps.c ****         CYBLE_CPSS_BROADCAST_DATA_LEN_MIN,                          /* Packet length */
 111:.\Generated_Source\PSoC4/BLE_cps.c ****         CYBLE_GAP_ADV_SRVC_DATA_16UUID,                             /* Service Data */
 112:.\Generated_Source\PSoC4/BLE_cps.c ****         LO8(CYBLE_UUID_CPS_SERVICE), HI8(CYBLE_UUID_CPS_SERVICE),   /* CPS service UUID */
 113:.\Generated_Source\PSoC4/BLE_cps.c ****         0x00u, 0x00u,                                               /* Flags */
 114:.\Generated_Source\PSoC4/BLE_cps.c ****         0x11u, 0x11u,                                               /* Instantaneous Power */
 115:.\Generated_Source\PSoC4/BLE_cps.c ****         0x00u, 0x00u, 0x00u, 0x00u, 0x00u, 0x00u, 0x00u,
ARM GAS  C:\Users\Petro\AppData\Local\Temp\cc4GPyUf.s 			page 5


 116:.\Generated_Source\PSoC4/BLE_cps.c ****         0x00u, 0x00u, 0x00u, 0x00u, 0x00u, 0x00u, 0x00u, 0x00u, 0x00u }, 
 117:.\Generated_Source\PSoC4/BLE_cps.c ****     /* Advertising data length */
 118:.\Generated_Source\PSoC4/BLE_cps.c ****     CYBLE_CPSS_BROADCAST_DATA_LEN_MIN + CYBLE_CPSS_BROADCAST_HEADER_LEN,
 119:.\Generated_Source\PSoC4/BLE_cps.c **** };
 120:.\Generated_Source\PSoC4/BLE_cps.c **** 
 121:.\Generated_Source\PSoC4/BLE_cps.c **** CYBLE_GAPP_DISC_MODE_INFO_T cyBle_cpssBroadcastModeInfo =
 122:.\Generated_Source\PSoC4/BLE_cps.c **** {
 123:.\Generated_Source\PSoC4/BLE_cps.c ****     CYBLE_GAPP_NONE_DISC_BROADCAST_MODE,        /* discMode */
 124:.\Generated_Source\PSoC4/BLE_cps.c ****     &cyBle_cpssBroadcastParam,
 125:.\Generated_Source\PSoC4/BLE_cps.c ****     &cyBle_cpssBroadcastData,
 126:.\Generated_Source\PSoC4/BLE_cps.c ****     NULL,                                       
 127:.\Generated_Source\PSoC4/BLE_cps.c ****     0u,                                         /* advTo */
 128:.\Generated_Source\PSoC4/BLE_cps.c **** };
 129:.\Generated_Source\PSoC4/BLE_cps.c **** 
 130:.\Generated_Source\PSoC4/BLE_cps.c **** #endif /* CYBLE_GAP_ROLE_BROADCASTER */
 131:.\Generated_Source\PSoC4/BLE_cps.c **** 
 132:.\Generated_Source\PSoC4/BLE_cps.c **** /** \cond IGNORE */
 133:.\Generated_Source\PSoC4/BLE_cps.c **** #ifdef CYBLE_CPS_SERVER
 134:.\Generated_Source\PSoC4/BLE_cps.c **** 
 135:.\Generated_Source\PSoC4/BLE_cps.c ****     
 136:.\Generated_Source\PSoC4/BLE_cps.c **** /****************************************************************************** 
 137:.\Generated_Source\PSoC4/BLE_cps.c **** * Function Name: CyBle_CpssInit
 138:.\Generated_Source\PSoC4/BLE_cps.c **** ***************************************************************************//**
 139:.\Generated_Source\PSoC4/BLE_cps.c **** * 
 140:.\Generated_Source\PSoC4/BLE_cps.c **** *  This function initializes CPS Service in Server role.
 141:.\Generated_Source\PSoC4/BLE_cps.c **** * 
 142:.\Generated_Source\PSoC4/BLE_cps.c **** * \return
 143:.\Generated_Source\PSoC4/BLE_cps.c **** *  None
 144:.\Generated_Source\PSoC4/BLE_cps.c **** * 
 145:.\Generated_Source\PSoC4/BLE_cps.c **** ******************************************************************************/
 146:.\Generated_Source\PSoC4/BLE_cps.c **** void CyBle_CpssInit(void)
 147:.\Generated_Source\PSoC4/BLE_cps.c **** {
 113              		.loc 1 147 0
 114              		.cfi_startproc
 115 0000 80B5     		push	{r7, lr}
 116              		.cfi_def_cfa_offset 8
 117              		.cfi_offset 7, -8
 118              		.cfi_offset 14, -4
 119 0002 00AF     		add	r7, sp, #0
 120              		.cfi_def_cfa_register 7
 148:.\Generated_Source\PSoC4/BLE_cps.c ****     cyBle_cpssReqHandle = CYBLE_GATT_INVALID_ATTR_HANDLE_VALUE;
 121              		.loc 1 148 0
 122 0004 034B     		ldr	r3, .L2
 123 0006 0022     		mov	r2, #0
 124 0008 1A80     		strh	r2, [r3]
 149:.\Generated_Source\PSoC4/BLE_cps.c ****     cyBle_cpssFlag = 0u;
 125              		.loc 1 149 0
 126 000a 034B     		ldr	r3, .L2+4
 127 000c 0022     		mov	r2, #0
 128 000e 1A70     		strb	r2, [r3]
 150:.\Generated_Source\PSoC4/BLE_cps.c **** }
 129              		.loc 1 150 0
 130 0010 BD46     		mov	sp, r7
 131              		@ sp needed
 132 0012 80BD     		pop	{r7, pc}
 133              	.L3:
 134              		.align	2
ARM GAS  C:\Users\Petro\AppData\Local\Temp\cc4GPyUf.s 			page 6


 135              	.L2:
 136 0014 04000000 		.word	cyBle_cpssReqHandle
 137 0018 06000000 		.word	cyBle_cpssFlag
 138              		.cfi_endproc
 139              	.LFE2:
 140              		.size	CyBle_CpssInit, .-CyBle_CpssInit
 141              		.section	.text.CyBle_CpsInit,"ax",%progbits
 142              		.align	2
 143              		.global	CyBle_CpsInit
 144              		.code	16
 145              		.thumb_func
 146              		.type	CyBle_CpsInit, %function
 147              	CyBle_CpsInit:
 148              	.LFB3:
 151:.\Generated_Source\PSoC4/BLE_cps.c **** 
 152:.\Generated_Source\PSoC4/BLE_cps.c **** #endif /* CYBLE_CPS_SERVER */
 153:.\Generated_Source\PSoC4/BLE_cps.c **** 
 154:.\Generated_Source\PSoC4/BLE_cps.c **** /****************************************************************************** 
 155:.\Generated_Source\PSoC4/BLE_cps.c **** * Function Name: CyBle_CpsInit
 156:.\Generated_Source\PSoC4/BLE_cps.c **** ***************************************************************************//**
 157:.\Generated_Source\PSoC4/BLE_cps.c **** * 
 158:.\Generated_Source\PSoC4/BLE_cps.c **** *  This function initializes CPS Service.
 159:.\Generated_Source\PSoC4/BLE_cps.c **** * 
 160:.\Generated_Source\PSoC4/BLE_cps.c **** * \return
 161:.\Generated_Source\PSoC4/BLE_cps.c **** *  None
 162:.\Generated_Source\PSoC4/BLE_cps.c **** * 
 163:.\Generated_Source\PSoC4/BLE_cps.c **** ******************************************************************************/
 164:.\Generated_Source\PSoC4/BLE_cps.c **** void CyBle_CpsInit(void)
 165:.\Generated_Source\PSoC4/BLE_cps.c **** {
 149              		.loc 1 165 0
 150              		.cfi_startproc
 151 0000 80B5     		push	{r7, lr}
 152              		.cfi_def_cfa_offset 8
 153              		.cfi_offset 7, -8
 154              		.cfi_offset 14, -4
 155 0002 00AF     		add	r7, sp, #0
 156              		.cfi_def_cfa_register 7
 166:.\Generated_Source\PSoC4/BLE_cps.c **** 
 167:.\Generated_Source\PSoC4/BLE_cps.c **** #ifdef CYBLE_CPS_SERVER
 168:.\Generated_Source\PSoC4/BLE_cps.c ****     CyBle_CpssInit();
 157              		.loc 1 168 0
 158 0004 FFF7FEFF 		bl	CyBle_CpssInit
 169:.\Generated_Source\PSoC4/BLE_cps.c ****     cyBle_cpssAdjustment.samplingRate = CYBLE_CPS_SAMLING_RATE_DEFAULT;
 159              		.loc 1 169 0
 160 0008 024B     		ldr	r3, .L5
 161 000a 1922     		mov	r2, #25
 162 000c DA73     		strb	r2, [r3, #15]
 170:.\Generated_Source\PSoC4/BLE_cps.c **** #endif /* CYBLE_CPS_SERVER */
 171:.\Generated_Source\PSoC4/BLE_cps.c **** 
 172:.\Generated_Source\PSoC4/BLE_cps.c **** #ifdef CYBLE_CPS_CLIENT
 173:.\Generated_Source\PSoC4/BLE_cps.c **** 
 174:.\Generated_Source\PSoC4/BLE_cps.c ****     (void)memset(&cyBle_cpsc, 0, sizeof(cyBle_cpsc));
 175:.\Generated_Source\PSoC4/BLE_cps.c ****     cyBle_cpscReqHandle = CYBLE_GATT_INVALID_ATTR_HANDLE_VALUE;
 176:.\Generated_Source\PSoC4/BLE_cps.c ****     cyBle_cpscFlag = 0u;
 177:.\Generated_Source\PSoC4/BLE_cps.c **** 
 178:.\Generated_Source\PSoC4/BLE_cps.c **** #endif /* CYBLE_CPS_CLIENT */
 179:.\Generated_Source\PSoC4/BLE_cps.c **** }
ARM GAS  C:\Users\Petro\AppData\Local\Temp\cc4GPyUf.s 			page 7


 163              		.loc 1 179 0
 164 000e BD46     		mov	sp, r7
 165              		@ sp needed
 166 0010 80BD     		pop	{r7, pc}
 167              	.L6:
 168 0012 C046     		.align	2
 169              	.L5:
 170 0014 00000000 		.word	cyBle_cpssAdjustment
 171              		.cfi_endproc
 172              	.LFE3:
 173              		.size	CyBle_CpsInit, .-CyBle_CpsInit
 174              		.section	.text.CyBle_CpsRegisterAttrCallback,"ax",%progbits
 175              		.align	2
 176              		.global	CyBle_CpsRegisterAttrCallback
 177              		.code	16
 178              		.thumb_func
 179              		.type	CyBle_CpsRegisterAttrCallback, %function
 180              	CyBle_CpsRegisterAttrCallback:
 181              	.LFB4:
 180:.\Generated_Source\PSoC4/BLE_cps.c **** /** \endcond */
 181:.\Generated_Source\PSoC4/BLE_cps.c **** 
 182:.\Generated_Source\PSoC4/BLE_cps.c **** 
 183:.\Generated_Source\PSoC4/BLE_cps.c **** /****************************************************************************** 
 184:.\Generated_Source\PSoC4/BLE_cps.c **** * Function Name: CyBle_CpsRegisterAttrCallback
 185:.\Generated_Source\PSoC4/BLE_cps.c **** ***************************************************************************//**
 186:.\Generated_Source\PSoC4/BLE_cps.c **** * 
 187:.\Generated_Source\PSoC4/BLE_cps.c **** *  Registers a callback function for service specific attribute operations.
 188:.\Generated_Source\PSoC4/BLE_cps.c **** *  Service specific write requests from peer device will not be handled with
 189:.\Generated_Source\PSoC4/BLE_cps.c **** *  unregistered callback function.
 190:.\Generated_Source\PSoC4/BLE_cps.c **** * 
 191:.\Generated_Source\PSoC4/BLE_cps.c **** * \param callbackFunc:   An application layer event callback function to receive 
 192:.\Generated_Source\PSoC4/BLE_cps.c **** *                 events from the BLE Component. The definition of 
 193:.\Generated_Source\PSoC4/BLE_cps.c **** *                 CYBLE_CALLBACK_T for CPS is: \n
 194:.\Generated_Source\PSoC4/BLE_cps.c **** *                 typedef void (* CYBLE_CALLBACK_T) (uint32 eventCode, 
 195:.\Generated_Source\PSoC4/BLE_cps.c **** *                                                   void *eventParam)
 196:.\Generated_Source\PSoC4/BLE_cps.c **** *                 * eventCode indicates the event that triggered this 
 197:.\Generated_Source\PSoC4/BLE_cps.c **** *                   callback.
 198:.\Generated_Source\PSoC4/BLE_cps.c **** *                 * eventParam contains the parameters corresponding to the 
 199:.\Generated_Source\PSoC4/BLE_cps.c **** *                   current event.
 200:.\Generated_Source\PSoC4/BLE_cps.c **** * 
 201:.\Generated_Source\PSoC4/BLE_cps.c **** * \return
 202:.\Generated_Source\PSoC4/BLE_cps.c **** *  None.
 203:.\Generated_Source\PSoC4/BLE_cps.c **** *
 204:.\Generated_Source\PSoC4/BLE_cps.c **** * \events
 205:.\Generated_Source\PSoC4/BLE_cps.c **** *  None
 206:.\Generated_Source\PSoC4/BLE_cps.c **** *
 207:.\Generated_Source\PSoC4/BLE_cps.c **** ******************************************************************************/
 208:.\Generated_Source\PSoC4/BLE_cps.c **** void CyBle_CpsRegisterAttrCallback(CYBLE_CALLBACK_T callbackFunc)
 209:.\Generated_Source\PSoC4/BLE_cps.c **** {
 182              		.loc 1 209 0
 183              		.cfi_startproc
 184 0000 80B5     		push	{r7, lr}
 185              		.cfi_def_cfa_offset 8
 186              		.cfi_offset 7, -8
 187              		.cfi_offset 14, -4
 188 0002 82B0     		sub	sp, sp, #8
 189              		.cfi_def_cfa_offset 16
ARM GAS  C:\Users\Petro\AppData\Local\Temp\cc4GPyUf.s 			page 8


 190 0004 00AF     		add	r7, sp, #0
 191              		.cfi_def_cfa_register 7
 192 0006 7860     		str	r0, [r7, #4]
 210:.\Generated_Source\PSoC4/BLE_cps.c ****     CyBle_CpsApplCallback = callbackFunc;
 193              		.loc 1 210 0
 194 0008 024B     		ldr	r3, .L8
 195 000a 7A68     		ldr	r2, [r7, #4]
 196 000c 1A60     		str	r2, [r3]
 211:.\Generated_Source\PSoC4/BLE_cps.c **** }
 197              		.loc 1 211 0
 198 000e BD46     		mov	sp, r7
 199 0010 02B0     		add	sp, sp, #8
 200              		@ sp needed
 201 0012 80BD     		pop	{r7, pc}
 202              	.L9:
 203              		.align	2
 204              	.L8:
 205 0014 00000000 		.word	CyBle_CpsApplCallback
 206              		.cfi_endproc
 207              	.LFE4:
 208              		.size	CyBle_CpsRegisterAttrCallback, .-CyBle_CpsRegisterAttrCallback
 209              		.section	.text.CyBle_CpssSetCharacteristicValue,"ax",%progbits
 210              		.align	2
 211              		.global	CyBle_CpssSetCharacteristicValue
 212              		.code	16
 213              		.thumb_func
 214              		.type	CyBle_CpssSetCharacteristicValue, %function
 215              	CyBle_CpssSetCharacteristicValue:
 216              	.LFB5:
 212:.\Generated_Source\PSoC4/BLE_cps.c **** 
 213:.\Generated_Source\PSoC4/BLE_cps.c **** #ifdef CYBLE_CPS_SERVER
 214:.\Generated_Source\PSoC4/BLE_cps.c **** 
 215:.\Generated_Source\PSoC4/BLE_cps.c **** /****************************************************************************** 
 216:.\Generated_Source\PSoC4/BLE_cps.c **** * Function Name: CyBle_CpssSetCharacteristicValue
 217:.\Generated_Source\PSoC4/BLE_cps.c **** ***************************************************************************//**
 218:.\Generated_Source\PSoC4/BLE_cps.c **** * 
 219:.\Generated_Source\PSoC4/BLE_cps.c **** *  Sets a characteristic value of the service in the local database.
 220:.\Generated_Source\PSoC4/BLE_cps.c **** * 
 221:.\Generated_Source\PSoC4/BLE_cps.c **** *  \param charIndex:       The index of a service characteristic of type 
 222:.\Generated_Source\PSoC4/BLE_cps.c **** *                   CYBLE_CPS_CHAR_INDEX_T.
 223:.\Generated_Source\PSoC4/BLE_cps.c **** *  \param attrSize:        The size of the characteristic value attribute.
 224:.\Generated_Source\PSoC4/BLE_cps.c **** *  \param attrValue:      The pointer to the characteristic value data that should be
 225:.\Generated_Source\PSoC4/BLE_cps.c **** *                   stored to the GATT database.
 226:.\Generated_Source\PSoC4/BLE_cps.c **** * 
 227:.\Generated_Source\PSoC4/BLE_cps.c **** * \return
 228:.\Generated_Source\PSoC4/BLE_cps.c **** *  Return value is of type CYBLE_API_RESULT_T.
 229:.\Generated_Source\PSoC4/BLE_cps.c **** *  * CYBLE_ERROR_OK - The request is handled successfully
 230:.\Generated_Source\PSoC4/BLE_cps.c **** *  * CYBLE_ERROR_INVALID_PARAMETER - Validation of the input parameter failed
 231:.\Generated_Source\PSoC4/BLE_cps.c **** *
 232:.\Generated_Source\PSoC4/BLE_cps.c **** * \events
 233:.\Generated_Source\PSoC4/BLE_cps.c **** *  None
 234:.\Generated_Source\PSoC4/BLE_cps.c **** *
 235:.\Generated_Source\PSoC4/BLE_cps.c **** ******************************************************************************/
 236:.\Generated_Source\PSoC4/BLE_cps.c **** CYBLE_API_RESULT_T CyBle_CpssSetCharacteristicValue(CYBLE_CPS_CHAR_INDEX_T charIndex,
 237:.\Generated_Source\PSoC4/BLE_cps.c ****     uint8 attrSize, uint8 *attrValue)
 238:.\Generated_Source\PSoC4/BLE_cps.c **** {
 217              		.loc 1 238 0
ARM GAS  C:\Users\Petro\AppData\Local\Temp\cc4GPyUf.s 			page 9


 218              		.cfi_startproc
 219 0000 80B5     		push	{r7, lr}
 220              		.cfi_def_cfa_offset 8
 221              		.cfi_offset 7, -8
 222              		.cfi_offset 14, -4
 223 0002 86B0     		sub	sp, sp, #24
 224              		.cfi_def_cfa_offset 32
 225 0004 00AF     		add	r7, sp, #0
 226              		.cfi_def_cfa_register 7
 227 0006 3A60     		str	r2, [r7]
 228 0008 FB1D     		add	r3, r7, #7
 229 000a 021C     		add	r2, r0, #0
 230 000c 1A70     		strb	r2, [r3]
 231 000e BB1D     		add	r3, r7, #6
 232 0010 0A1C     		add	r2, r1, #0
 233 0012 1A70     		strb	r2, [r3]
 239:.\Generated_Source\PSoC4/BLE_cps.c ****     CYBLE_API_RESULT_T apiResult = CYBLE_ERROR_OK;
 234              		.loc 1 239 0
 235 0014 1623     		mov	r3, #22
 236 0016 FB18     		add	r3, r7, r3
 237 0018 0022     		mov	r2, #0
 238 001a 1A80     		strh	r2, [r3]
 240:.\Generated_Source\PSoC4/BLE_cps.c ****     CYBLE_GATT_HANDLE_VALUE_PAIR_T locHandleValuePair;
 241:.\Generated_Source\PSoC4/BLE_cps.c **** 
 242:.\Generated_Source\PSoC4/BLE_cps.c ****     if(charIndex >= CYBLE_CPS_CHAR_COUNT)
 239              		.loc 1 242 0
 240 001c FB1D     		add	r3, r7, #7
 241 001e 1B78     		ldrb	r3, [r3]
 242 0020 042B     		cmp	r3, #4
 243 0022 04D9     		bls	.L11
 243:.\Generated_Source\PSoC4/BLE_cps.c ****     {
 244:.\Generated_Source\PSoC4/BLE_cps.c ****         apiResult = CYBLE_ERROR_INVALID_PARAMETER;
 244              		.loc 1 244 0
 245 0024 1623     		mov	r3, #22
 246 0026 FB18     		add	r3, r7, r3
 247 0028 0122     		mov	r2, #1
 248 002a 1A80     		strh	r2, [r3]
 249 002c 23E0     		b	.L12
 250              	.L11:
 245:.\Generated_Source\PSoC4/BLE_cps.c ****     }
 246:.\Generated_Source\PSoC4/BLE_cps.c ****     else
 247:.\Generated_Source\PSoC4/BLE_cps.c ****     {
 248:.\Generated_Source\PSoC4/BLE_cps.c ****         /* Store data in database */
 249:.\Generated_Source\PSoC4/BLE_cps.c ****         locHandleValuePair.attrHandle = cyBle_cpss.charInfo[charIndex].charHandle;
 251              		.loc 1 249 0
 252 002e FB1D     		add	r3, r7, #7
 253 0030 1A78     		ldrb	r2, [r3]
 254 0032 1449     		ldr	r1, .L14
 255 0034 131C     		mov	r3, r2
 256 0036 5B00     		lsl	r3, r3, #1
 257 0038 9B18     		add	r3, r3, r2
 258 003a 5B00     		lsl	r3, r3, #1
 259 003c CB18     		add	r3, r1, r3
 260 003e 5A88     		ldrh	r2, [r3, #2]
 261 0040 0823     		mov	r3, #8
 262 0042 FB18     		add	r3, r7, r3
 263 0044 1A81     		strh	r2, [r3, #8]
ARM GAS  C:\Users\Petro\AppData\Local\Temp\cc4GPyUf.s 			page 10


 250:.\Generated_Source\PSoC4/BLE_cps.c ****         locHandleValuePair.value.len = attrSize;
 264              		.loc 1 250 0
 265 0046 BB1D     		add	r3, r7, #6
 266 0048 1B78     		ldrb	r3, [r3]
 267 004a 9AB2     		uxth	r2, r3
 268 004c 0823     		mov	r3, #8
 269 004e FB18     		add	r3, r7, r3
 270 0050 9A80     		strh	r2, [r3, #4]
 251:.\Generated_Source\PSoC4/BLE_cps.c ****         locHandleValuePair.value.val = attrValue;
 271              		.loc 1 251 0
 272 0052 0823     		mov	r3, #8
 273 0054 FB18     		add	r3, r7, r3
 274 0056 3A68     		ldr	r2, [r7]
 275 0058 1A60     		str	r2, [r3]
 252:.\Generated_Source\PSoC4/BLE_cps.c ****         if(CYBLE_GATT_ERR_NONE !=
 253:.\Generated_Source\PSoC4/BLE_cps.c ****             CyBle_GattsWriteAttributeValue(&locHandleValuePair, 0u, NULL, CYBLE_GATT_DB_LOCALLY_INI
 276              		.loc 1 253 0
 277 005a 0823     		mov	r3, #8
 278 005c FB18     		add	r3, r7, r3
 279 005e 181C     		mov	r0, r3
 280 0060 0021     		mov	r1, #0
 281 0062 0022     		mov	r2, #0
 282 0064 0023     		mov	r3, #0
 283 0066 FFF7FEFF 		bl	CyBle_GattsWriteAttributeValue
 284 006a 031E     		sub	r3, r0, #0
 252:.\Generated_Source\PSoC4/BLE_cps.c ****         if(CYBLE_GATT_ERR_NONE !=
 285              		.loc 1 252 0
 286 006c 03D0     		beq	.L12
 254:.\Generated_Source\PSoC4/BLE_cps.c ****         {
 255:.\Generated_Source\PSoC4/BLE_cps.c ****             apiResult = CYBLE_ERROR_INVALID_PARAMETER;
 287              		.loc 1 255 0
 288 006e 1623     		mov	r3, #22
 289 0070 FB18     		add	r3, r7, r3
 290 0072 0122     		mov	r2, #1
 291 0074 1A80     		strh	r2, [r3]
 292              	.L12:
 256:.\Generated_Source\PSoC4/BLE_cps.c ****         }
 257:.\Generated_Source\PSoC4/BLE_cps.c ****     }
 258:.\Generated_Source\PSoC4/BLE_cps.c ****     return (apiResult);
 293              		.loc 1 258 0
 294 0076 1623     		mov	r3, #22
 295 0078 FB18     		add	r3, r7, r3
 296 007a 1B88     		ldrh	r3, [r3]
 259:.\Generated_Source\PSoC4/BLE_cps.c **** }
 297              		.loc 1 259 0
 298 007c 181C     		mov	r0, r3
 299 007e BD46     		mov	sp, r7
 300 0080 06B0     		add	sp, sp, #24
 301              		@ sp needed
 302 0082 80BD     		pop	{r7, pc}
 303              	.L15:
 304              		.align	2
 305              	.L14:
 306 0084 00000000 		.word	cyBle_cpss
 307              		.cfi_endproc
 308              	.LFE5:
 309              		.size	CyBle_CpssSetCharacteristicValue, .-CyBle_CpssSetCharacteristicValue
ARM GAS  C:\Users\Petro\AppData\Local\Temp\cc4GPyUf.s 			page 11


 310              		.section	.text.CyBle_CpssGetCharacteristicValue,"ax",%progbits
 311              		.align	2
 312              		.global	CyBle_CpssGetCharacteristicValue
 313              		.code	16
 314              		.thumb_func
 315              		.type	CyBle_CpssGetCharacteristicValue, %function
 316              	CyBle_CpssGetCharacteristicValue:
 317              	.LFB6:
 260:.\Generated_Source\PSoC4/BLE_cps.c **** 
 261:.\Generated_Source\PSoC4/BLE_cps.c **** 
 262:.\Generated_Source\PSoC4/BLE_cps.c **** /****************************************************************************** 
 263:.\Generated_Source\PSoC4/BLE_cps.c **** * Function Name: CyBle_CpssGetCharacteristicValue
 264:.\Generated_Source\PSoC4/BLE_cps.c **** ***************************************************************************//**
 265:.\Generated_Source\PSoC4/BLE_cps.c **** * 
 266:.\Generated_Source\PSoC4/BLE_cps.c **** *  Gets a characteristic value of the service, which is a value identified by charIndex.
 267:.\Generated_Source\PSoC4/BLE_cps.c **** * 
 268:.\Generated_Source\PSoC4/BLE_cps.c **** *  \param charIndex:       The index of a service characteristic of type 
 269:.\Generated_Source\PSoC4/BLE_cps.c **** *                   CYBLE_CPS_CHAR_INDEX_T.
 270:.\Generated_Source\PSoC4/BLE_cps.c **** *  \param attrSize:        The size of the characteristic value attribute.
 271:.\Generated_Source\PSoC4/BLE_cps.c **** *  \param attrValue:      The pointer to the location where characteristic value data
 272:.\Generated_Source\PSoC4/BLE_cps.c **** *                   should be stored.
 273:.\Generated_Source\PSoC4/BLE_cps.c **** * 
 274:.\Generated_Source\PSoC4/BLE_cps.c **** * \return
 275:.\Generated_Source\PSoC4/BLE_cps.c **** *  Return value is of type CYBLE_API_RESULT_T.
 276:.\Generated_Source\PSoC4/BLE_cps.c **** *  * CYBLE_ERROR_OK - The request is handled successfully
 277:.\Generated_Source\PSoC4/BLE_cps.c **** *  * CYBLE_ERROR_INVALID_PARAMETER - Validation of the input parameter failed
 278:.\Generated_Source\PSoC4/BLE_cps.c **** *
 279:.\Generated_Source\PSoC4/BLE_cps.c **** * \events
 280:.\Generated_Source\PSoC4/BLE_cps.c **** *  None
 281:.\Generated_Source\PSoC4/BLE_cps.c **** *
 282:.\Generated_Source\PSoC4/BLE_cps.c **** ******************************************************************************/
 283:.\Generated_Source\PSoC4/BLE_cps.c **** CYBLE_API_RESULT_T CyBle_CpssGetCharacteristicValue(CYBLE_CPS_CHAR_INDEX_T charIndex,
 284:.\Generated_Source\PSoC4/BLE_cps.c ****     uint8 attrSize, uint8 *attrValue)
 285:.\Generated_Source\PSoC4/BLE_cps.c **** {
 318              		.loc 1 285 0
 319              		.cfi_startproc
 320 0000 80B5     		push	{r7, lr}
 321              		.cfi_def_cfa_offset 8
 322              		.cfi_offset 7, -8
 323              		.cfi_offset 14, -4
 324 0002 86B0     		sub	sp, sp, #24
 325              		.cfi_def_cfa_offset 32
 326 0004 00AF     		add	r7, sp, #0
 327              		.cfi_def_cfa_register 7
 328 0006 3A60     		str	r2, [r7]
 329 0008 FB1D     		add	r3, r7, #7
 330 000a 021C     		add	r2, r0, #0
 331 000c 1A70     		strb	r2, [r3]
 332 000e BB1D     		add	r3, r7, #6
 333 0010 0A1C     		add	r2, r1, #0
 334 0012 1A70     		strb	r2, [r3]
 286:.\Generated_Source\PSoC4/BLE_cps.c ****     CYBLE_API_RESULT_T apiResult = CYBLE_ERROR_OK;
 335              		.loc 1 286 0
 336 0014 1623     		mov	r3, #22
 337 0016 FB18     		add	r3, r7, r3
 338 0018 0022     		mov	r2, #0
 339 001a 1A80     		strh	r2, [r3]
ARM GAS  C:\Users\Petro\AppData\Local\Temp\cc4GPyUf.s 			page 12


 287:.\Generated_Source\PSoC4/BLE_cps.c ****     CYBLE_GATT_HANDLE_VALUE_PAIR_T locHandleValuePair;
 288:.\Generated_Source\PSoC4/BLE_cps.c **** 
 289:.\Generated_Source\PSoC4/BLE_cps.c ****     if(charIndex >= CYBLE_CPS_CHAR_COUNT)
 340              		.loc 1 289 0
 341 001c FB1D     		add	r3, r7, #7
 342 001e 1B78     		ldrb	r3, [r3]
 343 0020 042B     		cmp	r3, #4
 344 0022 04D9     		bls	.L17
 290:.\Generated_Source\PSoC4/BLE_cps.c ****     {
 291:.\Generated_Source\PSoC4/BLE_cps.c ****         apiResult = CYBLE_ERROR_INVALID_PARAMETER;
 345              		.loc 1 291 0
 346 0024 1623     		mov	r3, #22
 347 0026 FB18     		add	r3, r7, r3
 348 0028 0122     		mov	r2, #1
 349 002a 1A80     		strh	r2, [r3]
 350 002c 22E0     		b	.L18
 351              	.L17:
 292:.\Generated_Source\PSoC4/BLE_cps.c ****     }
 293:.\Generated_Source\PSoC4/BLE_cps.c ****     else
 294:.\Generated_Source\PSoC4/BLE_cps.c ****     {
 295:.\Generated_Source\PSoC4/BLE_cps.c ****         /* Read characteristic value from database */
 296:.\Generated_Source\PSoC4/BLE_cps.c ****         locHandleValuePair.attrHandle = cyBle_cpss.charInfo[charIndex].charHandle;
 352              		.loc 1 296 0
 353 002e FB1D     		add	r3, r7, #7
 354 0030 1A78     		ldrb	r2, [r3]
 355 0032 1449     		ldr	r1, .L20
 356 0034 131C     		mov	r3, r2
 357 0036 5B00     		lsl	r3, r3, #1
 358 0038 9B18     		add	r3, r3, r2
 359 003a 5B00     		lsl	r3, r3, #1
 360 003c CB18     		add	r3, r1, r3
 361 003e 5A88     		ldrh	r2, [r3, #2]
 362 0040 0823     		mov	r3, #8
 363 0042 FB18     		add	r3, r7, r3
 364 0044 1A81     		strh	r2, [r3, #8]
 297:.\Generated_Source\PSoC4/BLE_cps.c ****         locHandleValuePair.value.len = attrSize;
 365              		.loc 1 297 0
 366 0046 BB1D     		add	r3, r7, #6
 367 0048 1B78     		ldrb	r3, [r3]
 368 004a 9AB2     		uxth	r2, r3
 369 004c 0823     		mov	r3, #8
 370 004e FB18     		add	r3, r7, r3
 371 0050 9A80     		strh	r2, [r3, #4]
 298:.\Generated_Source\PSoC4/BLE_cps.c ****         locHandleValuePair.value.val = attrValue;
 372              		.loc 1 298 0
 373 0052 0823     		mov	r3, #8
 374 0054 FB18     		add	r3, r7, r3
 375 0056 3A68     		ldr	r2, [r7]
 376 0058 1A60     		str	r2, [r3]
 299:.\Generated_Source\PSoC4/BLE_cps.c ****         if(CYBLE_GATT_ERR_NONE !=
 300:.\Generated_Source\PSoC4/BLE_cps.c ****             CyBle_GattsReadAttributeValue(&locHandleValuePair, NULL, CYBLE_GATT_DB_LOCALLY_INITIATE
 377              		.loc 1 300 0
 378 005a 0823     		mov	r3, #8
 379 005c FB18     		add	r3, r7, r3
 380 005e 181C     		mov	r0, r3
 381 0060 0021     		mov	r1, #0
 382 0062 0022     		mov	r2, #0
ARM GAS  C:\Users\Petro\AppData\Local\Temp\cc4GPyUf.s 			page 13


 383 0064 FFF7FEFF 		bl	CyBle_GattsReadAttributeValue
 384 0068 031E     		sub	r3, r0, #0
 299:.\Generated_Source\PSoC4/BLE_cps.c ****         if(CYBLE_GATT_ERR_NONE !=
 385              		.loc 1 299 0
 386 006a 03D0     		beq	.L18
 301:.\Generated_Source\PSoC4/BLE_cps.c ****         {
 302:.\Generated_Source\PSoC4/BLE_cps.c ****             apiResult = CYBLE_ERROR_INVALID_PARAMETER;
 387              		.loc 1 302 0
 388 006c 1623     		mov	r3, #22
 389 006e FB18     		add	r3, r7, r3
 390 0070 0122     		mov	r2, #1
 391 0072 1A80     		strh	r2, [r3]
 392              	.L18:
 303:.\Generated_Source\PSoC4/BLE_cps.c ****         }
 304:.\Generated_Source\PSoC4/BLE_cps.c ****     }
 305:.\Generated_Source\PSoC4/BLE_cps.c ****     return (apiResult);
 393              		.loc 1 305 0
 394 0074 1623     		mov	r3, #22
 395 0076 FB18     		add	r3, r7, r3
 396 0078 1B88     		ldrh	r3, [r3]
 306:.\Generated_Source\PSoC4/BLE_cps.c **** }
 397              		.loc 1 306 0
 398 007a 181C     		mov	r0, r3
 399 007c BD46     		mov	sp, r7
 400 007e 06B0     		add	sp, sp, #24
 401              		@ sp needed
 402 0080 80BD     		pop	{r7, pc}
 403              	.L21:
 404 0082 C046     		.align	2
 405              	.L20:
 406 0084 00000000 		.word	cyBle_cpss
 407              		.cfi_endproc
 408              	.LFE6:
 409              		.size	CyBle_CpssGetCharacteristicValue, .-CyBle_CpssGetCharacteristicValue
 410              		.section	.text.CyBle_CpssSetCharacteristicDescriptor,"ax",%progbits
 411              		.align	2
 412              		.global	CyBle_CpssSetCharacteristicDescriptor
 413              		.code	16
 414              		.thumb_func
 415              		.type	CyBle_CpssSetCharacteristicDescriptor, %function
 416              	CyBle_CpssSetCharacteristicDescriptor:
 417              	.LFB7:
 307:.\Generated_Source\PSoC4/BLE_cps.c **** 
 308:.\Generated_Source\PSoC4/BLE_cps.c **** 
 309:.\Generated_Source\PSoC4/BLE_cps.c **** /****************************************************************************** 
 310:.\Generated_Source\PSoC4/BLE_cps.c **** * Function Name: CyBle_CpssSetCharacteristicDescriptor
 311:.\Generated_Source\PSoC4/BLE_cps.c **** ***************************************************************************//**
 312:.\Generated_Source\PSoC4/BLE_cps.c **** * 
 313:.\Generated_Source\PSoC4/BLE_cps.c **** *  Sets a characteristic descriptor of a specified characteristic of the service.
 314:.\Generated_Source\PSoC4/BLE_cps.c **** * 
 315:.\Generated_Source\PSoC4/BLE_cps.c **** *  \param charIndex:       The index of a service characteristic of type 
 316:.\Generated_Source\PSoC4/BLE_cps.c **** *                   CYBLE_CPS_CHAR_INDEX_T.
 317:.\Generated_Source\PSoC4/BLE_cps.c **** *  \param descrIndex:      The index of a service characteristic descriptor of type 
 318:.\Generated_Source\PSoC4/BLE_cps.c **** *                   CYBLE_CPS_DESCR_INDEX_T.
 319:.\Generated_Source\PSoC4/BLE_cps.c **** *  \param attrSize:        The size of the characteristic descriptor attribute.
 320:.\Generated_Source\PSoC4/BLE_cps.c **** *  \param attrValue:      The pointer to the descriptor value data that should 
 321:.\Generated_Source\PSoC4/BLE_cps.c **** *                   be stored to the GATT database. 
ARM GAS  C:\Users\Petro\AppData\Local\Temp\cc4GPyUf.s 			page 14


 322:.\Generated_Source\PSoC4/BLE_cps.c **** * 
 323:.\Generated_Source\PSoC4/BLE_cps.c **** * \return
 324:.\Generated_Source\PSoC4/BLE_cps.c **** *  Return value is of type CYBLE_API_RESULT_T.
 325:.\Generated_Source\PSoC4/BLE_cps.c **** *  * CYBLE_ERROR_OK - The request is handled successfully
 326:.\Generated_Source\PSoC4/BLE_cps.c **** *  * CYBLE_ERROR_INVALID_PARAMETER - Validation of the input parameter failed
 327:.\Generated_Source\PSoC4/BLE_cps.c **** *
 328:.\Generated_Source\PSoC4/BLE_cps.c **** * \events
 329:.\Generated_Source\PSoC4/BLE_cps.c **** *  None
 330:.\Generated_Source\PSoC4/BLE_cps.c **** *
 331:.\Generated_Source\PSoC4/BLE_cps.c **** ******************************************************************************/
 332:.\Generated_Source\PSoC4/BLE_cps.c **** CYBLE_API_RESULT_T CyBle_CpssSetCharacteristicDescriptor(CYBLE_CPS_CHAR_INDEX_T charIndex,
 333:.\Generated_Source\PSoC4/BLE_cps.c ****     CYBLE_CPS_DESCR_INDEX_T descrIndex, uint8 attrSize, uint8 *attrValue)
 334:.\Generated_Source\PSoC4/BLE_cps.c **** {
 418              		.loc 1 334 0
 419              		.cfi_startproc
 420 0000 90B5     		push	{r4, r7, lr}
 421              		.cfi_def_cfa_offset 12
 422              		.cfi_offset 4, -12
 423              		.cfi_offset 7, -8
 424              		.cfi_offset 14, -4
 425 0002 87B0     		sub	sp, sp, #28
 426              		.cfi_def_cfa_offset 40
 427 0004 00AF     		add	r7, sp, #0
 428              		.cfi_def_cfa_register 7
 429 0006 041C     		mov	r4, r0
 430 0008 081C     		mov	r0, r1
 431 000a 111C     		mov	r1, r2
 432 000c 3B60     		str	r3, [r7]
 433 000e FB1D     		add	r3, r7, #7
 434 0010 221C     		add	r2, r4, #0
 435 0012 1A70     		strb	r2, [r3]
 436 0014 BB1D     		add	r3, r7, #6
 437 0016 021C     		add	r2, r0, #0
 438 0018 1A70     		strb	r2, [r3]
 439 001a 7B1D     		add	r3, r7, #5
 440 001c 0A1C     		add	r2, r1, #0
 441 001e 1A70     		strb	r2, [r3]
 335:.\Generated_Source\PSoC4/BLE_cps.c ****     CYBLE_API_RESULT_T apiResult = CYBLE_ERROR_OK;
 442              		.loc 1 335 0
 443 0020 1623     		mov	r3, #22
 444 0022 FB18     		add	r3, r7, r3
 445 0024 0022     		mov	r2, #0
 446 0026 1A80     		strh	r2, [r3]
 336:.\Generated_Source\PSoC4/BLE_cps.c ****     CYBLE_GATT_HANDLE_VALUE_PAIR_T locHandleValuePair;
 337:.\Generated_Source\PSoC4/BLE_cps.c **** 
 338:.\Generated_Source\PSoC4/BLE_cps.c ****     if((charIndex >= CYBLE_CPS_CHAR_COUNT) || (descrIndex >= CYBLE_CPS_DESCR_COUNT))
 447              		.loc 1 338 0
 448 0028 FB1D     		add	r3, r7, #7
 449 002a 1B78     		ldrb	r3, [r3]
 450 002c 042B     		cmp	r3, #4
 451 002e 03D8     		bhi	.L23
 452              		.loc 1 338 0 is_stmt 0 discriminator 1
 453 0030 BB1D     		add	r3, r7, #6
 454 0032 1B78     		ldrb	r3, [r3]
 455 0034 012B     		cmp	r3, #1
 456 0036 04D9     		bls	.L24
 457              	.L23:
ARM GAS  C:\Users\Petro\AppData\Local\Temp\cc4GPyUf.s 			page 15


 339:.\Generated_Source\PSoC4/BLE_cps.c ****     {
 340:.\Generated_Source\PSoC4/BLE_cps.c ****         apiResult = CYBLE_ERROR_INVALID_PARAMETER;
 458              		.loc 1 340 0 is_stmt 1
 459 0038 1623     		mov	r3, #22
 460 003a FB18     		add	r3, r7, r3
 461 003c 0122     		mov	r2, #1
 462 003e 1A80     		strh	r2, [r3]
 463 0040 26E0     		b	.L25
 464              	.L24:
 341:.\Generated_Source\PSoC4/BLE_cps.c ****     }
 342:.\Generated_Source\PSoC4/BLE_cps.c ****     else
 343:.\Generated_Source\PSoC4/BLE_cps.c ****     {
 344:.\Generated_Source\PSoC4/BLE_cps.c ****         locHandleValuePair.attrHandle = cyBle_cpss.charInfo[charIndex].descrHandle[descrIndex];
 465              		.loc 1 344 0
 466 0042 FB1D     		add	r3, r7, #7
 467 0044 1A78     		ldrb	r2, [r3]
 468 0046 BB1D     		add	r3, r7, #6
 469 0048 1878     		ldrb	r0, [r3]
 470 004a 1549     		ldr	r1, .L27
 471 004c 131C     		mov	r3, r2
 472 004e 5B00     		lsl	r3, r3, #1
 473 0050 9B18     		add	r3, r3, r2
 474 0052 1B18     		add	r3, r3, r0
 475 0054 5B00     		lsl	r3, r3, #1
 476 0056 CB18     		add	r3, r1, r3
 477 0058 9A88     		ldrh	r2, [r3, #4]
 478 005a 0823     		mov	r3, #8
 479 005c FB18     		add	r3, r7, r3
 480 005e 1A81     		strh	r2, [r3, #8]
 345:.\Generated_Source\PSoC4/BLE_cps.c ****         locHandleValuePair.value.len = attrSize;
 481              		.loc 1 345 0
 482 0060 7B1D     		add	r3, r7, #5
 483 0062 1B78     		ldrb	r3, [r3]
 484 0064 9AB2     		uxth	r2, r3
 485 0066 0823     		mov	r3, #8
 486 0068 FB18     		add	r3, r7, r3
 487 006a 9A80     		strh	r2, [r3, #4]
 346:.\Generated_Source\PSoC4/BLE_cps.c ****         locHandleValuePair.value.val = attrValue;
 488              		.loc 1 346 0
 489 006c 0823     		mov	r3, #8
 490 006e FB18     		add	r3, r7, r3
 491 0070 3A68     		ldr	r2, [r7]
 492 0072 1A60     		str	r2, [r3]
 347:.\Generated_Source\PSoC4/BLE_cps.c ****         if(CYBLE_GATT_ERR_NONE !=
 348:.\Generated_Source\PSoC4/BLE_cps.c ****                 CyBle_GattsWriteAttributeValue(&locHandleValuePair, 0u, NULL, CYBLE_GATT_DB_LOCALLY
 493              		.loc 1 348 0
 494 0074 0823     		mov	r3, #8
 495 0076 FB18     		add	r3, r7, r3
 496 0078 181C     		mov	r0, r3
 497 007a 0021     		mov	r1, #0
 498 007c 0022     		mov	r2, #0
 499 007e 0023     		mov	r3, #0
 500 0080 FFF7FEFF 		bl	CyBle_GattsWriteAttributeValue
 501 0084 031E     		sub	r3, r0, #0
 347:.\Generated_Source\PSoC4/BLE_cps.c ****         if(CYBLE_GATT_ERR_NONE !=
 502              		.loc 1 347 0
 503 0086 03D0     		beq	.L25
ARM GAS  C:\Users\Petro\AppData\Local\Temp\cc4GPyUf.s 			page 16


 349:.\Generated_Source\PSoC4/BLE_cps.c ****         {
 350:.\Generated_Source\PSoC4/BLE_cps.c ****             apiResult = CYBLE_ERROR_INVALID_PARAMETER;
 504              		.loc 1 350 0
 505 0088 1623     		mov	r3, #22
 506 008a FB18     		add	r3, r7, r3
 507 008c 0122     		mov	r2, #1
 508 008e 1A80     		strh	r2, [r3]
 509              	.L25:
 351:.\Generated_Source\PSoC4/BLE_cps.c ****         }
 352:.\Generated_Source\PSoC4/BLE_cps.c ****     }
 353:.\Generated_Source\PSoC4/BLE_cps.c ****     return (apiResult);
 510              		.loc 1 353 0
 511 0090 1623     		mov	r3, #22
 512 0092 FB18     		add	r3, r7, r3
 513 0094 1B88     		ldrh	r3, [r3]
 354:.\Generated_Source\PSoC4/BLE_cps.c **** }
 514              		.loc 1 354 0
 515 0096 181C     		mov	r0, r3
 516 0098 BD46     		mov	sp, r7
 517 009a 07B0     		add	sp, sp, #28
 518              		@ sp needed
 519 009c 90BD     		pop	{r4, r7, pc}
 520              	.L28:
 521 009e C046     		.align	2
 522              	.L27:
 523 00a0 00000000 		.word	cyBle_cpss
 524              		.cfi_endproc
 525              	.LFE7:
 526              		.size	CyBle_CpssSetCharacteristicDescriptor, .-CyBle_CpssSetCharacteristicDescriptor
 527              		.section	.text.CyBle_CpssGetCharacteristicDescriptor,"ax",%progbits
 528              		.align	2
 529              		.global	CyBle_CpssGetCharacteristicDescriptor
 530              		.code	16
 531              		.thumb_func
 532              		.type	CyBle_CpssGetCharacteristicDescriptor, %function
 533              	CyBle_CpssGetCharacteristicDescriptor:
 534              	.LFB8:
 355:.\Generated_Source\PSoC4/BLE_cps.c **** 
 356:.\Generated_Source\PSoC4/BLE_cps.c **** 
 357:.\Generated_Source\PSoC4/BLE_cps.c **** /****************************************************************************** 
 358:.\Generated_Source\PSoC4/BLE_cps.c **** * Function Name: CyBle_CpssGetCharacteristicDescriptor
 359:.\Generated_Source\PSoC4/BLE_cps.c **** ***************************************************************************//**
 360:.\Generated_Source\PSoC4/BLE_cps.c **** * 
 361:.\Generated_Source\PSoC4/BLE_cps.c **** *  Gets a characteristic descriptor of a specified characteristic of the service.
 362:.\Generated_Source\PSoC4/BLE_cps.c **** * 
 363:.\Generated_Source\PSoC4/BLE_cps.c **** *  \param charIndex:       The index of a service characteristic of type 
 364:.\Generated_Source\PSoC4/BLE_cps.c **** *                   CYBLE_CPS_CHAR_INDEX_T.
 365:.\Generated_Source\PSoC4/BLE_cps.c **** *  \param descrIndex:      The index of a service characteristic descriptor of type 
 366:.\Generated_Source\PSoC4/BLE_cps.c **** *                   CYBLE_CPS_DESCR_INDEX_T.
 367:.\Generated_Source\PSoC4/BLE_cps.c **** *  \param attrSize:        The size of the characteristic descriptor attribute.
 368:.\Generated_Source\PSoC4/BLE_cps.c **** *  \param attrValue:      The pointer to the location where characteristic descriptor
 369:.\Generated_Source\PSoC4/BLE_cps.c **** *                   value data should be stored.
 370:.\Generated_Source\PSoC4/BLE_cps.c **** * 
 371:.\Generated_Source\PSoC4/BLE_cps.c **** * \return
 372:.\Generated_Source\PSoC4/BLE_cps.c **** *  Return value is of type CYBLE_API_RESULT_T.
 373:.\Generated_Source\PSoC4/BLE_cps.c **** *  * CYBLE_ERROR_OK - The request handled successfully
 374:.\Generated_Source\PSoC4/BLE_cps.c **** *  * CYBLE_ERROR_INVALID_PARAMETER - Validation of the input parameter failed
ARM GAS  C:\Users\Petro\AppData\Local\Temp\cc4GPyUf.s 			page 17


 375:.\Generated_Source\PSoC4/BLE_cps.c **** *
 376:.\Generated_Source\PSoC4/BLE_cps.c **** * \events
 377:.\Generated_Source\PSoC4/BLE_cps.c **** *  None
 378:.\Generated_Source\PSoC4/BLE_cps.c **** *
 379:.\Generated_Source\PSoC4/BLE_cps.c **** ******************************************************************************/
 380:.\Generated_Source\PSoC4/BLE_cps.c **** CYBLE_API_RESULT_T CyBle_CpssGetCharacteristicDescriptor(CYBLE_CPS_CHAR_INDEX_T charIndex,
 381:.\Generated_Source\PSoC4/BLE_cps.c ****     CYBLE_CPS_DESCR_INDEX_T descrIndex, uint8 attrSize, uint8 *attrValue)
 382:.\Generated_Source\PSoC4/BLE_cps.c **** {
 535              		.loc 1 382 0
 536              		.cfi_startproc
 537 0000 90B5     		push	{r4, r7, lr}
 538              		.cfi_def_cfa_offset 12
 539              		.cfi_offset 4, -12
 540              		.cfi_offset 7, -8
 541              		.cfi_offset 14, -4
 542 0002 87B0     		sub	sp, sp, #28
 543              		.cfi_def_cfa_offset 40
 544 0004 00AF     		add	r7, sp, #0
 545              		.cfi_def_cfa_register 7
 546 0006 041C     		mov	r4, r0
 547 0008 081C     		mov	r0, r1
 548 000a 111C     		mov	r1, r2
 549 000c 3B60     		str	r3, [r7]
 550 000e FB1D     		add	r3, r7, #7
 551 0010 221C     		add	r2, r4, #0
 552 0012 1A70     		strb	r2, [r3]
 553 0014 BB1D     		add	r3, r7, #6
 554 0016 021C     		add	r2, r0, #0
 555 0018 1A70     		strb	r2, [r3]
 556 001a 7B1D     		add	r3, r7, #5
 557 001c 0A1C     		add	r2, r1, #0
 558 001e 1A70     		strb	r2, [r3]
 383:.\Generated_Source\PSoC4/BLE_cps.c ****     CYBLE_API_RESULT_T apiResult = CYBLE_ERROR_OK;
 559              		.loc 1 383 0
 560 0020 1623     		mov	r3, #22
 561 0022 FB18     		add	r3, r7, r3
 562 0024 0022     		mov	r2, #0
 563 0026 1A80     		strh	r2, [r3]
 384:.\Generated_Source\PSoC4/BLE_cps.c ****     CYBLE_GATT_HANDLE_VALUE_PAIR_T locHandleValuePair;
 385:.\Generated_Source\PSoC4/BLE_cps.c **** 
 386:.\Generated_Source\PSoC4/BLE_cps.c ****     if((charIndex >= CYBLE_CPS_CHAR_COUNT) || (descrIndex >= CYBLE_CPS_DESCR_COUNT))
 564              		.loc 1 386 0
 565 0028 FB1D     		add	r3, r7, #7
 566 002a 1B78     		ldrb	r3, [r3]
 567 002c 042B     		cmp	r3, #4
 568 002e 03D8     		bhi	.L30
 569              		.loc 1 386 0 is_stmt 0 discriminator 1
 570 0030 BB1D     		add	r3, r7, #6
 571 0032 1B78     		ldrb	r3, [r3]
 572 0034 012B     		cmp	r3, #1
 573 0036 04D9     		bls	.L31
 574              	.L30:
 387:.\Generated_Source\PSoC4/BLE_cps.c ****     {
 388:.\Generated_Source\PSoC4/BLE_cps.c ****         apiResult = CYBLE_ERROR_INVALID_PARAMETER;
 575              		.loc 1 388 0 is_stmt 1
 576 0038 1623     		mov	r3, #22
 577 003a FB18     		add	r3, r7, r3
ARM GAS  C:\Users\Petro\AppData\Local\Temp\cc4GPyUf.s 			page 18


 578 003c 0122     		mov	r2, #1
 579 003e 1A80     		strh	r2, [r3]
 580 0040 25E0     		b	.L32
 581              	.L31:
 389:.\Generated_Source\PSoC4/BLE_cps.c ****     }
 390:.\Generated_Source\PSoC4/BLE_cps.c ****     else
 391:.\Generated_Source\PSoC4/BLE_cps.c ****     {
 392:.\Generated_Source\PSoC4/BLE_cps.c ****         locHandleValuePair.attrHandle = cyBle_cpss.charInfo[charIndex].descrHandle[descrIndex];
 582              		.loc 1 392 0
 583 0042 FB1D     		add	r3, r7, #7
 584 0044 1A78     		ldrb	r2, [r3]
 585 0046 BB1D     		add	r3, r7, #6
 586 0048 1878     		ldrb	r0, [r3]
 587 004a 1449     		ldr	r1, .L34
 588 004c 131C     		mov	r3, r2
 589 004e 5B00     		lsl	r3, r3, #1
 590 0050 9B18     		add	r3, r3, r2
 591 0052 1B18     		add	r3, r3, r0
 592 0054 5B00     		lsl	r3, r3, #1
 593 0056 CB18     		add	r3, r1, r3
 594 0058 9A88     		ldrh	r2, [r3, #4]
 595 005a 0823     		mov	r3, #8
 596 005c FB18     		add	r3, r7, r3
 597 005e 1A81     		strh	r2, [r3, #8]
 393:.\Generated_Source\PSoC4/BLE_cps.c ****         locHandleValuePair.value.len = attrSize;
 598              		.loc 1 393 0
 599 0060 7B1D     		add	r3, r7, #5
 600 0062 1B78     		ldrb	r3, [r3]
 601 0064 9AB2     		uxth	r2, r3
 602 0066 0823     		mov	r3, #8
 603 0068 FB18     		add	r3, r7, r3
 604 006a 9A80     		strh	r2, [r3, #4]
 394:.\Generated_Source\PSoC4/BLE_cps.c ****         locHandleValuePair.value.val = attrValue;
 605              		.loc 1 394 0
 606 006c 0823     		mov	r3, #8
 607 006e FB18     		add	r3, r7, r3
 608 0070 3A68     		ldr	r2, [r7]
 609 0072 1A60     		str	r2, [r3]
 395:.\Generated_Source\PSoC4/BLE_cps.c ****         if(CYBLE_GATT_ERR_NONE !=
 396:.\Generated_Source\PSoC4/BLE_cps.c ****                 CyBle_GattsReadAttributeValue(&locHandleValuePair, NULL, CYBLE_GATT_DB_LOCALLY_INIT
 610              		.loc 1 396 0
 611 0074 0823     		mov	r3, #8
 612 0076 FB18     		add	r3, r7, r3
 613 0078 181C     		mov	r0, r3
 614 007a 0021     		mov	r1, #0
 615 007c 0022     		mov	r2, #0
 616 007e FFF7FEFF 		bl	CyBle_GattsReadAttributeValue
 617 0082 031E     		sub	r3, r0, #0
 395:.\Generated_Source\PSoC4/BLE_cps.c ****         if(CYBLE_GATT_ERR_NONE !=
 618              		.loc 1 395 0
 619 0084 03D0     		beq	.L32
 397:.\Generated_Source\PSoC4/BLE_cps.c ****         {
 398:.\Generated_Source\PSoC4/BLE_cps.c ****             apiResult = CYBLE_ERROR_INVALID_PARAMETER;
 620              		.loc 1 398 0
 621 0086 1623     		mov	r3, #22
 622 0088 FB18     		add	r3, r7, r3
 623 008a 0122     		mov	r2, #1
ARM GAS  C:\Users\Petro\AppData\Local\Temp\cc4GPyUf.s 			page 19


 624 008c 1A80     		strh	r2, [r3]
 625              	.L32:
 399:.\Generated_Source\PSoC4/BLE_cps.c ****         }
 400:.\Generated_Source\PSoC4/BLE_cps.c ****     }
 401:.\Generated_Source\PSoC4/BLE_cps.c ****     return (apiResult);
 626              		.loc 1 401 0
 627 008e 1623     		mov	r3, #22
 628 0090 FB18     		add	r3, r7, r3
 629 0092 1B88     		ldrh	r3, [r3]
 402:.\Generated_Source\PSoC4/BLE_cps.c **** }
 630              		.loc 1 402 0
 631 0094 181C     		mov	r0, r3
 632 0096 BD46     		mov	sp, r7
 633 0098 07B0     		add	sp, sp, #28
 634              		@ sp needed
 635 009a 90BD     		pop	{r4, r7, pc}
 636              	.L35:
 637              		.align	2
 638              	.L34:
 639 009c 00000000 		.word	cyBle_cpss
 640              		.cfi_endproc
 641              	.LFE8:
 642              		.size	CyBle_CpssGetCharacteristicDescriptor, .-CyBle_CpssGetCharacteristicDescriptor
 643              		.global	__aeabi_uidiv
 644              		.section	.text.CyBle_CpssWriteEventHandler,"ax",%progbits
 645              		.align	2
 646              		.global	CyBle_CpssWriteEventHandler
 647              		.code	16
 648              		.thumb_func
 649              		.type	CyBle_CpssWriteEventHandler, %function
 650              	CyBle_CpssWriteEventHandler:
 651              	.LFB9:
 403:.\Generated_Source\PSoC4/BLE_cps.c **** 
 404:.\Generated_Source\PSoC4/BLE_cps.c **** 
 405:.\Generated_Source\PSoC4/BLE_cps.c **** /****************************************************************************** 
 406:.\Generated_Source\PSoC4/BLE_cps.c **** * Function Name: CyBle_CpssWriteEventHandler
 407:.\Generated_Source\PSoC4/BLE_cps.c **** ***************************************************************************//**
 408:.\Generated_Source\PSoC4/BLE_cps.c **** * 
 409:.\Generated_Source\PSoC4/BLE_cps.c **** *  Handles Write Request Event for CPS service.
 410:.\Generated_Source\PSoC4/BLE_cps.c **** * 
 411:.\Generated_Source\PSoC4/BLE_cps.c **** *  \param void *eventParam: The pointer to the data structure specified by the event.
 412:.\Generated_Source\PSoC4/BLE_cps.c **** * 
 413:.\Generated_Source\PSoC4/BLE_cps.c **** * \return
 414:.\Generated_Source\PSoC4/BLE_cps.c **** *  Return value is of type CYBLE_GATT_ERR_CODE_T.
 415:.\Generated_Source\PSoC4/BLE_cps.c **** *   * CYBLE_GATT_ERR_NONE - write is successful
 416:.\Generated_Source\PSoC4/BLE_cps.c **** *   * CYBLE_GATT_ERR_PROCEDURE_ALREADY_IN_PROGRESS
 417:.\Generated_Source\PSoC4/BLE_cps.c **** *   * CYBLE_GATT_ERR_CCCD_IMPROPERLY_CONFIGURED
 418:.\Generated_Source\PSoC4/BLE_cps.c **** * 
 419:.\Generated_Source\PSoC4/BLE_cps.c **** ******************************************************************************/
 420:.\Generated_Source\PSoC4/BLE_cps.c **** CYBLE_GATT_ERR_CODE_T CyBle_CpssWriteEventHandler(CYBLE_GATTS_WRITE_REQ_PARAM_T *eventParam)
 421:.\Generated_Source\PSoC4/BLE_cps.c **** {
 652              		.loc 1 421 0
 653              		.cfi_startproc
 654 0000 90B5     		push	{r4, r7, lr}
 655              		.cfi_def_cfa_offset 12
 656              		.cfi_offset 4, -12
 657              		.cfi_offset 7, -8
ARM GAS  C:\Users\Petro\AppData\Local\Temp\cc4GPyUf.s 			page 20


 658              		.cfi_offset 14, -4
 659 0002 89B0     		sub	sp, sp, #36
 660              		.cfi_def_cfa_offset 48
 661 0004 00AF     		add	r7, sp, #0
 662              		.cfi_def_cfa_register 7
 663 0006 7860     		str	r0, [r7, #4]
 422:.\Generated_Source\PSoC4/BLE_cps.c ****     CYBLE_CPS_CHAR_INDEX_T locCharIndex;
 423:.\Generated_Source\PSoC4/BLE_cps.c ****     CYBLE_CPS_CHAR_VALUE_T locCharValue;
 424:.\Generated_Source\PSoC4/BLE_cps.c ****     CYBLE_GATT_ERR_CODE_T gattErr = CYBLE_GATT_ERR_NONE;
 664              		.loc 1 424 0
 665 0008 1E23     		mov	r3, #30
 666 000a FB18     		add	r3, r7, r3
 667 000c 0022     		mov	r2, #0
 668 000e 1A70     		strb	r2, [r3]
 425:.\Generated_Source\PSoC4/BLE_cps.c ****     uint8 locReqHandle = 0u;
 669              		.loc 1 425 0
 670 0010 1D23     		mov	r3, #29
 671 0012 FB18     		add	r3, r7, r3
 672 0014 0022     		mov	r2, #0
 673 0016 1A70     		strb	r2, [r3]
 426:.\Generated_Source\PSoC4/BLE_cps.c **** 
 427:.\Generated_Source\PSoC4/BLE_cps.c ****     if(NULL != CyBle_CpsApplCallback)
 674              		.loc 1 427 0
 675 0018 CC4B     		ldr	r3, .L57
 676 001a 1B68     		ldr	r3, [r3]
 677 001c 002B     		cmp	r3, #0
 678 001e 00D1     		bne	.LCB517
 679 0020 F0E1     		b	.L37	@long jump
 680              	.LCB517:
 428:.\Generated_Source\PSoC4/BLE_cps.c ****     {
 429:.\Generated_Source\PSoC4/BLE_cps.c ****         /* Error conditions for CP Characteristic value write request */
 430:.\Generated_Source\PSoC4/BLE_cps.c ****         if((eventParam->handleValPair.attrHandle == cyBle_cpss.charInfo[CYBLE_CPS_POWER_CP].charHan
 681              		.loc 1 430 0
 682 0022 7B68     		ldr	r3, [r7, #4]
 683 0024 9B89     		ldrh	r3, [r3, #12]
 684 0026 1922     		mov	r2, #25
 685 0028 9342     		cmp	r3, r2
 686 002a 21D1     		bne	.L38
 431:.\Generated_Source\PSoC4/BLE_cps.c ****            (!CYBLE_IS_INDICATION_ENABLED(cyBle_cpss.charInfo[CYBLE_CPS_POWER_CP].descrHandle[CYBLE_
 687              		.loc 1 431 0 discriminator 1
 688 002c 1A23     		mov	r3, #26
 689 002e 5A1E     		sub	r2, r3, #1
 690 0030 C749     		ldr	r1, .L57+4
 691 0032 131C     		mov	r3, r2
 692 0034 9B00     		lsl	r3, r3, #2
 693 0036 9B18     		add	r3, r3, r2
 694 0038 9B00     		lsl	r3, r3, #2
 695 003a CB18     		add	r3, r1, r3
 696 003c 0833     		add	r3, r3, #8
 697 003e 9B68     		ldr	r3, [r3, #8]
 698 0040 5B68     		ldr	r3, [r3, #4]
 699 0042 181C     		mov	r0, r3
 700 0044 FFF7FEFF 		bl	CyBle_Get16ByPtr
 701 0048 031C     		mov	r3, r0
 702 004a 1A1C     		mov	r2, r3
 703 004c 0223     		mov	r3, #2
 704 004e 1340     		and	r3, r2
ARM GAS  C:\Users\Petro\AppData\Local\Temp\cc4GPyUf.s 			page 21


 705 0050 9BB2     		uxth	r3, r3
 430:.\Generated_Source\PSoC4/BLE_cps.c ****            (!CYBLE_IS_INDICATION_ENABLED(cyBle_cpss.charInfo[CYBLE_CPS_POWER_CP].descrHandle[CYBLE_
 706              		.loc 1 430 0 discriminator 1
 707 0052 002B     		cmp	r3, #0
 708 0054 0CD1     		bne	.L38
 432:.\Generated_Source\PSoC4/BLE_cps.c ****         {
 433:.\Generated_Source\PSoC4/BLE_cps.c ****             gattErr = CYBLE_GATT_ERR_CCCD_IMPROPERLY_CONFIGURED;
 709              		.loc 1 433 0
 710 0056 1E23     		mov	r3, #30
 711 0058 FB18     		add	r3, r7, r3
 712 005a FD22     		mov	r2, #253
 713 005c 1A70     		strb	r2, [r3]
 434:.\Generated_Source\PSoC4/BLE_cps.c ****             cyBle_eventHandlerFlag &= (uint8)~CYBLE_CALLBACK;
 714              		.loc 1 434 0
 715 005e BD4B     		ldr	r3, .L57+8
 716 0060 1B78     		ldrb	r3, [r3]
 717 0062 DBB2     		uxtb	r3, r3
 718 0064 0122     		mov	r2, #1
 719 0066 9343     		bic	r3, r2
 720 0068 DAB2     		uxtb	r2, r3
 721 006a BA4B     		ldr	r3, .L57+8
 722 006c 1A70     		strb	r2, [r3]
 723 006e C9E1     		b	.L37
 724              	.L38:
 435:.\Generated_Source\PSoC4/BLE_cps.c ****         }
 436:.\Generated_Source\PSoC4/BLE_cps.c ****         else if((eventParam->handleValPair.attrHandle == cyBle_cpss.charInfo[CYBLE_CPS_POWER_CP].ch
 725              		.loc 1 436 0
 726 0070 7B68     		ldr	r3, [r7, #4]
 727 0072 9B89     		ldrh	r3, [r3, #12]
 728 0074 1922     		mov	r2, #25
 729 0076 9342     		cmp	r3, r2
 730 0078 12D1     		bne	.L39
 437:.\Generated_Source\PSoC4/BLE_cps.c ****                 ((cyBle_cpssFlag & CYBLE_CPSS_FLAG_CP_PROCEDURE_IN_PROGRESS) != 0u))
 731              		.loc 1 437 0 discriminator 1
 732 007a B74B     		ldr	r3, .L57+12
 733 007c 1B78     		ldrb	r3, [r3]
 734 007e 1A1C     		mov	r2, r3
 735 0080 0123     		mov	r3, #1
 736 0082 1340     		and	r3, r2
 436:.\Generated_Source\PSoC4/BLE_cps.c ****                 ((cyBle_cpssFlag & CYBLE_CPSS_FLAG_CP_PROCEDURE_IN_PROGRESS) != 0u))
 737              		.loc 1 436 0 discriminator 1
 738 0084 0CD0     		beq	.L39
 438:.\Generated_Source\PSoC4/BLE_cps.c ****         {
 439:.\Generated_Source\PSoC4/BLE_cps.c ****             gattErr = CYBLE_GATT_ERR_PROCEDURE_ALREADY_IN_PROGRESS;
 739              		.loc 1 439 0
 740 0086 1E23     		mov	r3, #30
 741 0088 FB18     		add	r3, r7, r3
 742 008a FE22     		mov	r2, #254
 743 008c 1A70     		strb	r2, [r3]
 440:.\Generated_Source\PSoC4/BLE_cps.c ****             cyBle_eventHandlerFlag &= (uint8)~CYBLE_CALLBACK;
 744              		.loc 1 440 0
 745 008e B14B     		ldr	r3, .L57+8
 746 0090 1B78     		ldrb	r3, [r3]
 747 0092 DBB2     		uxtb	r3, r3
 748 0094 0122     		mov	r2, #1
 749 0096 9343     		bic	r3, r2
 750 0098 DAB2     		uxtb	r2, r3
ARM GAS  C:\Users\Petro\AppData\Local\Temp\cc4GPyUf.s 			page 22


 751 009a AE4B     		ldr	r3, .L57+8
 752 009c 1A70     		strb	r2, [r3]
 753 009e B1E1     		b	.L37
 754              	.L39:
 441:.\Generated_Source\PSoC4/BLE_cps.c ****         }
 442:.\Generated_Source\PSoC4/BLE_cps.c ****         else
 443:.\Generated_Source\PSoC4/BLE_cps.c ****         {
 444:.\Generated_Source\PSoC4/BLE_cps.c ****             for(locCharIndex = CYBLE_CPS_POWER_MEASURE; (locCharIndex < CYBLE_CPS_CHAR_COUNT) && (l
 755              		.loc 1 444 0
 756 00a0 1F23     		mov	r3, #31
 757 00a2 FB18     		add	r3, r7, r3
 758 00a4 0022     		mov	r2, #0
 759 00a6 1A70     		strb	r2, [r3]
 760 00a8 A1E1     		b	.L40
 761              	.L55:
 445:.\Generated_Source\PSoC4/BLE_cps.c ****                 locCharIndex++)
 446:.\Generated_Source\PSoC4/BLE_cps.c ****             {
 447:.\Generated_Source\PSoC4/BLE_cps.c ****                 
 448:.\Generated_Source\PSoC4/BLE_cps.c ****                 if((eventParam->handleValPair.attrHandle == 
 762              		.loc 1 448 0
 763 00aa 7B68     		ldr	r3, [r7, #4]
 764 00ac 9989     		ldrh	r1, [r3, #12]
 449:.\Generated_Source\PSoC4/BLE_cps.c ****                                                     cyBle_cpss.charInfo[locCharIndex].descrHandle[C
 765              		.loc 1 449 0
 766 00ae 1F23     		mov	r3, #31
 767 00b0 FB18     		add	r3, r7, r3
 768 00b2 1A78     		ldrb	r2, [r3]
 769 00b4 A948     		ldr	r0, .L57+16
 770 00b6 131C     		mov	r3, r2
 771 00b8 5B00     		lsl	r3, r3, #1
 772 00ba 9B18     		add	r3, r3, r2
 773 00bc 5B00     		lsl	r3, r3, #1
 774 00be C318     		add	r3, r0, r3
 775 00c0 9B88     		ldrh	r3, [r3, #4]
 448:.\Generated_Source\PSoC4/BLE_cps.c ****                                                     cyBle_cpss.charInfo[locCharIndex].descrHandle[C
 776              		.loc 1 448 0
 777 00c2 9942     		cmp	r1, r3
 778 00c4 1DD0     		beq	.L41
 450:.\Generated_Source\PSoC4/BLE_cps.c ****                    (eventParam->handleValPair.attrHandle == 
 779              		.loc 1 450 0
 780 00c6 7B68     		ldr	r3, [r7, #4]
 781 00c8 9989     		ldrh	r1, [r3, #12]
 451:.\Generated_Source\PSoC4/BLE_cps.c ****                                                     cyBle_cpss.charInfo[locCharIndex].descrHandle[C
 782              		.loc 1 451 0
 783 00ca 1F23     		mov	r3, #31
 784 00cc FB18     		add	r3, r7, r3
 785 00ce 1A78     		ldrb	r2, [r3]
 786 00d0 A248     		ldr	r0, .L57+16
 787 00d2 131C     		mov	r3, r2
 788 00d4 5B00     		lsl	r3, r3, #1
 789 00d6 9B18     		add	r3, r3, r2
 790 00d8 5B00     		lsl	r3, r3, #1
 791 00da C318     		add	r3, r0, r3
 792 00dc 0233     		add	r3, r3, #2
 793 00de 9B88     		ldrh	r3, [r3, #4]
 449:.\Generated_Source\PSoC4/BLE_cps.c ****                    (eventParam->handleValPair.attrHandle == 
 794              		.loc 1 449 0
ARM GAS  C:\Users\Petro\AppData\Local\Temp\cc4GPyUf.s 			page 23


 795 00e0 9942     		cmp	r1, r3
 796 00e2 0ED0     		beq	.L41
 452:.\Generated_Source\PSoC4/BLE_cps.c ****                    (eventParam->handleValPair.attrHandle == cyBle_cpss.charInfo[locCharIndex].charH
 797              		.loc 1 452 0
 798 00e4 7B68     		ldr	r3, [r7, #4]
 799 00e6 9989     		ldrh	r1, [r3, #12]
 800 00e8 1F23     		mov	r3, #31
 801 00ea FB18     		add	r3, r7, r3
 802 00ec 1A78     		ldrb	r2, [r3]
 803 00ee 9B48     		ldr	r0, .L57+16
 804 00f0 131C     		mov	r3, r2
 805 00f2 5B00     		lsl	r3, r3, #1
 806 00f4 9B18     		add	r3, r3, r2
 807 00f6 5B00     		lsl	r3, r3, #1
 808 00f8 C318     		add	r3, r0, r3
 809 00fa 5B88     		ldrh	r3, [r3, #2]
 451:.\Generated_Source\PSoC4/BLE_cps.c ****                                                     cyBle_cpss.charInfo[locCharIndex].descrHandle[C
 810              		.loc 1 451 0
 811 00fc 9942     		cmp	r1, r3
 812 00fe 00D0     		beq	.LCB637
 813 0100 6EE1     		b	.L42	@long jump
 814              	.LCB637:
 815              	.L41:
 453:.\Generated_Source\PSoC4/BLE_cps.c ****                 {
 454:.\Generated_Source\PSoC4/BLE_cps.c ****                     /* Clear event handled flag to send Write response */
 455:.\Generated_Source\PSoC4/BLE_cps.c ****                     cyBle_eventHandlerFlag &= (uint8)~CYBLE_CALLBACK;
 816              		.loc 1 455 0
 817 0102 944B     		ldr	r3, .L57+8
 818 0104 1B78     		ldrb	r3, [r3]
 819 0106 DBB2     		uxtb	r3, r3
 820 0108 0122     		mov	r2, #1
 821 010a 9343     		bic	r3, r2
 822 010c DAB2     		uxtb	r2, r3
 823 010e 914B     		ldr	r3, .L57+8
 824 0110 1A70     		strb	r2, [r3]
 456:.\Generated_Source\PSoC4/BLE_cps.c ****                     locReqHandle = 1u;
 825              		.loc 1 456 0
 826 0112 1D23     		mov	r3, #29
 827 0114 FB18     		add	r3, r7, r3
 828 0116 0122     		mov	r2, #1
 829 0118 1A70     		strb	r2, [r3]
 457:.\Generated_Source\PSoC4/BLE_cps.c ****                     
 458:.\Generated_Source\PSoC4/BLE_cps.c ****                     locCharValue.connHandle = eventParam->connHandle;
 830              		.loc 1 458 0
 831 011a 1023     		mov	r3, #16
 832 011c FB18     		add	r3, r7, r3
 833 011e 7A68     		ldr	r2, [r7, #4]
 834 0120 1288     		ldrh	r2, [r2]
 835 0122 1A80     		strh	r2, [r3]
 459:.\Generated_Source\PSoC4/BLE_cps.c ****                     locCharValue.charIndex = locCharIndex;
 836              		.loc 1 459 0
 837 0124 1023     		mov	r3, #16
 838 0126 FB18     		add	r3, r7, r3
 839 0128 1F22     		mov	r2, #31
 840 012a BA18     		add	r2, r7, r2
 841 012c 1278     		ldrb	r2, [r2]
 842 012e 9A70     		strb	r2, [r3, #2]
ARM GAS  C:\Users\Petro\AppData\Local\Temp\cc4GPyUf.s 			page 24


 460:.\Generated_Source\PSoC4/BLE_cps.c ****                     locCharValue.value = &eventParam->handleValPair.value;
 843              		.loc 1 460 0
 844 0130 7B68     		ldr	r3, [r7, #4]
 845 0132 1A1D     		add	r2, r3, #4
 846 0134 1023     		mov	r3, #16
 847 0136 FB18     		add	r3, r7, r3
 848 0138 5A60     		str	r2, [r3, #4]
 461:.\Generated_Source\PSoC4/BLE_cps.c ****                     /* Store value to database */
 462:.\Generated_Source\PSoC4/BLE_cps.c ****                     gattErr = CyBle_GattsWriteAttributeValue(&eventParam->handleValPair, 0u, 
 849              		.loc 1 462 0
 850 013a 7B68     		ldr	r3, [r7, #4]
 851 013c 1A1D     		add	r2, r3, #4
 852 013e 7B68     		ldr	r3, [r7, #4]
 853 0140 1E21     		mov	r1, #30
 854 0142 7C18     		add	r4, r7, r1
 855 0144 101C     		mov	r0, r2
 856 0146 0021     		mov	r1, #0
 857 0148 1A1C     		mov	r2, r3
 858 014a 4023     		mov	r3, #64
 859 014c FFF7FEFF 		bl	CyBle_GattsWriteAttributeValue
 860 0150 031C     		mov	r3, r0
 861 0152 2370     		strb	r3, [r4]
 463:.\Generated_Source\PSoC4/BLE_cps.c ****                                     &eventParam->connHandle, CYBLE_GATT_DB_PEER_INITIATED);
 464:.\Generated_Source\PSoC4/BLE_cps.c ****                     
 465:.\Generated_Source\PSoC4/BLE_cps.c ****                     if(CYBLE_GATT_ERR_NONE == gattErr)
 862              		.loc 1 465 0
 863 0154 1E23     		mov	r3, #30
 864 0156 FB18     		add	r3, r7, r3
 865 0158 1B78     		ldrb	r3, [r3]
 866 015a 002B     		cmp	r3, #0
 867 015c 00D0     		beq	.LCB683
 868 015e 3FE1     		b	.L42	@long jump
 869              	.LCB683:
 466:.\Generated_Source\PSoC4/BLE_cps.c ****                     {
 467:.\Generated_Source\PSoC4/BLE_cps.c ****                         /* Characteristic value write request */
 468:.\Generated_Source\PSoC4/BLE_cps.c ****                         if(eventParam->handleValPair.attrHandle == cyBle_cpss.charInfo[locCharIndex
 870              		.loc 1 468 0
 871 0160 7B68     		ldr	r3, [r7, #4]
 872 0162 9989     		ldrh	r1, [r3, #12]
 873 0164 1F23     		mov	r3, #31
 874 0166 FB18     		add	r3, r7, r3
 875 0168 1A78     		ldrb	r2, [r3]
 876 016a 7C48     		ldr	r0, .L57+16
 877 016c 131C     		mov	r3, r2
 878 016e 5B00     		lsl	r3, r3, #1
 879 0170 9B18     		add	r3, r3, r2
 880 0172 5B00     		lsl	r3, r3, #1
 881 0174 C318     		add	r3, r0, r3
 882 0176 5B88     		ldrh	r3, [r3, #2]
 883 0178 9942     		cmp	r1, r3
 884 017a 17D1     		bne	.L43
 469:.\Generated_Source\PSoC4/BLE_cps.c ****                         {
 470:.\Generated_Source\PSoC4/BLE_cps.c ****                             CyBle_CpsApplCallback((uint32)CYBLE_EVT_CPSS_CHAR_WRITE, &locCharValue)
 885              		.loc 1 470 0
 886 017c 734B     		ldr	r3, .L57
 887 017e 1B68     		ldr	r3, [r3]
 888 0180 5222     		mov	r2, #82
ARM GAS  C:\Users\Petro\AppData\Local\Temp\cc4GPyUf.s 			page 25


 889 0182 FF32     		add	r2, r2, #255
 890 0184 111C     		mov	r1, r2
 891 0186 1022     		mov	r2, #16
 892 0188 BA18     		add	r2, r7, r2
 893 018a 081C     		mov	r0, r1
 894 018c 111C     		mov	r1, r2
 895 018e 9847     		blx	r3
 471:.\Generated_Source\PSoC4/BLE_cps.c ****                             /* In the context of the Cycling Power Control Point characteristic, a 
 472:.\Generated_Source\PSoC4/BLE_cps.c ****                                when a write to the Cycling Power Control Point characteristic is su
 473:.\Generated_Source\PSoC4/BLE_cps.c ****                             */
 474:.\Generated_Source\PSoC4/BLE_cps.c ****                             if(locCharIndex == CYBLE_CPS_POWER_CP)
 896              		.loc 1 474 0
 897 0190 1F23     		mov	r3, #31
 898 0192 FB18     		add	r3, r7, r3
 899 0194 1B78     		ldrb	r3, [r3]
 900 0196 042B     		cmp	r3, #4
 901 0198 00D0     		beq	.LCB712
 902 019a 21E1     		b	.L42	@long jump
 903              	.LCB712:
 475:.\Generated_Source\PSoC4/BLE_cps.c ****                             {
 476:.\Generated_Source\PSoC4/BLE_cps.c ****                                 cyBle_cpssFlag |= CYBLE_CPSS_FLAG_CP_PROCEDURE_IN_PROGRESS;
 904              		.loc 1 476 0
 905 019c 6E4B     		ldr	r3, .L57+12
 906 019e 1B78     		ldrb	r3, [r3]
 907 01a0 0122     		mov	r2, #1
 908 01a2 1343     		orr	r3, r2
 909 01a4 DAB2     		uxtb	r2, r3
 910 01a6 6C4B     		ldr	r3, .L57+12
 911 01a8 1A70     		strb	r2, [r3]
 912 01aa 19E1     		b	.L42
 913              	.L43:
 477:.\Generated_Source\PSoC4/BLE_cps.c ****                             }
 478:.\Generated_Source\PSoC4/BLE_cps.c ****                         }
 479:.\Generated_Source\PSoC4/BLE_cps.c ****                         /* Client Characteristic Configuration descriptor write request */
 480:.\Generated_Source\PSoC4/BLE_cps.c ****                         else if(eventParam->handleValPair.attrHandle == 
 914              		.loc 1 480 0
 915 01ac 7B68     		ldr	r3, [r7, #4]
 916 01ae 9989     		ldrh	r1, [r3, #12]
 481:.\Generated_Source\PSoC4/BLE_cps.c ****                                 cyBle_cpss.charInfo[locCharIndex].descrHandle[CYBLE_CPS_CCCD])
 917              		.loc 1 481 0
 918 01b0 1F23     		mov	r3, #31
 919 01b2 FB18     		add	r3, r7, r3
 920 01b4 1A78     		ldrb	r2, [r3]
 921 01b6 6948     		ldr	r0, .L57+16
 922 01b8 131C     		mov	r3, r2
 923 01ba 5B00     		lsl	r3, r3, #1
 924 01bc 9B18     		add	r3, r3, r2
 925 01be 5B00     		lsl	r3, r3, #1
 926 01c0 C318     		add	r3, r0, r3
 927 01c2 9B88     		ldrh	r3, [r3, #4]
 480:.\Generated_Source\PSoC4/BLE_cps.c ****                                 cyBle_cpss.charInfo[locCharIndex].descrHandle[CYBLE_CPS_CCCD])
 928              		.loc 1 480 0
 929 01c4 9942     		cmp	r1, r3
 930 01c6 00D0     		beq	.LCB737
 931 01c8 D4E0     		b	.L45	@long jump
 932              	.LCB737:
 482:.\Generated_Source\PSoC4/BLE_cps.c ****                         {
ARM GAS  C:\Users\Petro\AppData\Local\Temp\cc4GPyUf.s 			page 26


 483:.\Generated_Source\PSoC4/BLE_cps.c ****                             /* Check characteristic properties for Notification */
 484:.\Generated_Source\PSoC4/BLE_cps.c ****                             if(CYBLE_IS_NOTIFICATION_SUPPORTED(cyBle_cpss.charInfo[locCharIndex].ch
 933              		.loc 1 484 0
 934 01ca 1F23     		mov	r3, #31
 935 01cc FB18     		add	r3, r7, r3
 936 01ce 1A78     		ldrb	r2, [r3]
 937 01d0 6249     		ldr	r1, .L57+16
 938 01d2 131C     		mov	r3, r2
 939 01d4 5B00     		lsl	r3, r3, #1
 940 01d6 9B18     		add	r3, r3, r2
 941 01d8 5B00     		lsl	r3, r3, #1
 942 01da CB18     		add	r3, r1, r3
 943 01dc 5B88     		ldrh	r3, [r3, #2]
 944 01de 5A1E     		sub	r2, r3, #1
 945 01e0 5B49     		ldr	r1, .L57+4
 946 01e2 131C     		mov	r3, r2
 947 01e4 9B00     		lsl	r3, r3, #2
 948 01e6 9B18     		add	r3, r3, r2
 949 01e8 9B00     		lsl	r3, r3, #2
 950 01ea CB18     		add	r3, r1, r3
 951 01ec 5A68     		ldr	r2, [r3, #4]
 952 01ee 8023     		mov	r3, #128
 953 01f0 5B01     		lsl	r3, r3, #5
 954 01f2 1340     		and	r3, r2
 955 01f4 68D0     		beq	.L46
 485:.\Generated_Source\PSoC4/BLE_cps.c ****                             {
 486:.\Generated_Source\PSoC4/BLE_cps.c ****                                 if(CYBLE_IS_NOTIFICATION_ENABLED_IN_PTR(eventParam->handleValPair.v
 956              		.loc 1 486 0
 957 01f6 7B68     		ldr	r3, [r7, #4]
 958 01f8 5B68     		ldr	r3, [r3, #4]
 959 01fa 181C     		mov	r0, r3
 960 01fc FFF7FEFF 		bl	CyBle_Get16ByPtr
 961 0200 031C     		mov	r3, r0
 962 0202 1A1C     		mov	r2, r3
 963 0204 0123     		mov	r3, #1
 964 0206 1340     		and	r3, r2
 965 0208 9BB2     		uxth	r3, r3
 966 020a 002B     		cmp	r3, #0
 967 020c 52D0     		beq	.L47
 968              	.LBB2:
 487:.\Generated_Source\PSoC4/BLE_cps.c ****                                 {
 488:.\Generated_Source\PSoC4/BLE_cps.c ****                                     uint16 requiredConnIntv;
 489:.\Generated_Source\PSoC4/BLE_cps.c ****                                     requiredConnIntv = CYBLE_CPS_SAMLING_RATE_TO_CONN_INTV / 
 490:.\Generated_Source\PSoC4/BLE_cps.c ****                                                        cyBle_cpssAdjustment.samplingRate;
 969              		.loc 1 490 0
 970 020e 544B     		ldr	r3, .L57+20
 971 0210 DB7B     		ldrb	r3, [r3, #15]
 489:.\Generated_Source\PSoC4/BLE_cps.c ****                                                        cyBle_cpssAdjustment.samplingRate;
 972              		.loc 1 489 0
 973 0212 9AB2     		uxth	r2, r3
 974 0214 1A23     		mov	r3, #26
 975 0216 FC18     		add	r4, r7, r3
 976 0218 C823     		mov	r3, #200
 977 021a 9800     		lsl	r0, r3, #2
 978 021c 111C     		mov	r1, r2
 979 021e FFF7FEFF 		bl	__aeabi_uidiv
 980 0222 031C     		mov	r3, r0
ARM GAS  C:\Users\Petro\AppData\Local\Temp\cc4GPyUf.s 			page 27


 981 0224 2380     		strh	r3, [r4]
 491:.\Generated_Source\PSoC4/BLE_cps.c ****                                     /* Cycling Power Vector characteristic has special behavior 
 492:.\Generated_Source\PSoC4/BLE_cps.c ****                                        described in CPS specification, section 3.5.1 */
 493:.\Generated_Source\PSoC4/BLE_cps.c ****                                     if((locCharIndex == CYBLE_CPS_POWER_VECTOR) &&
 982              		.loc 1 493 0
 983 0226 1F23     		mov	r3, #31
 984 0228 FB18     		add	r3, r7, r3
 985 022a 1B78     		ldrb	r3, [r3]
 986 022c 032B     		cmp	r3, #3
 987 022e 36D1     		bne	.L48
 494:.\Generated_Source\PSoC4/BLE_cps.c ****                                        (cyBle_cpssConnParam.connIntv > requiredConnIntv))
 988              		.loc 1 494 0 discriminator 1
 989 0230 4C4B     		ldr	r3, .L57+24
 990 0232 5B88     		ldrh	r3, [r3, #2]
 493:.\Generated_Source\PSoC4/BLE_cps.c ****                                        (cyBle_cpssConnParam.connIntv > requiredConnIntv))
 991              		.loc 1 493 0 discriminator 1
 992 0234 1A22     		mov	r2, #26
 993 0236 BA18     		add	r2, r7, r2
 994 0238 1288     		ldrh	r2, [r2]
 995 023a 9A42     		cmp	r2, r3
 996 023c 2FD2     		bcs	.L48
 997              	.LBB3:
 495:.\Generated_Source\PSoC4/BLE_cps.c ****                                     {
 496:.\Generated_Source\PSoC4/BLE_cps.c ****                                         /* If the current connection parameters do not allow sendin
 497:.\Generated_Source\PSoC4/BLE_cps.c ****                                            notification, request new connection parameters by using
 498:.\Generated_Source\PSoC4/BLE_cps.c ****                                            Parameter Update procedure.
 499:.\Generated_Source\PSoC4/BLE_cps.c ****                                         */
 500:.\Generated_Source\PSoC4/BLE_cps.c ****                                         CYBLE_GAP_CONN_UPDATE_PARAM_T connUpdateParam;
 501:.\Generated_Source\PSoC4/BLE_cps.c ****                                         
 502:.\Generated_Source\PSoC4/BLE_cps.c ****                                         /* Send Connection Parameter Update Request to Client */
 503:.\Generated_Source\PSoC4/BLE_cps.c ****                                         connUpdateParam.connIntvMin = requiredConnIntv;
 998              		.loc 1 503 0
 999 023e 0823     		mov	r3, #8
 1000 0240 FB18     		add	r3, r7, r3
 1001 0242 1A22     		mov	r2, #26
 1002 0244 BA18     		add	r2, r7, r2
 1003 0246 1288     		ldrh	r2, [r2]
 1004 0248 1A80     		strh	r2, [r3]
 504:.\Generated_Source\PSoC4/BLE_cps.c ****                                         connUpdateParam.connIntvMax = requiredConnIntv;
 1005              		.loc 1 504 0
 1006 024a 0823     		mov	r3, #8
 1007 024c FB18     		add	r3, r7, r3
 1008 024e 1A22     		mov	r2, #26
 1009 0250 BA18     		add	r2, r7, r2
 1010 0252 1288     		ldrh	r2, [r2]
 1011 0254 5A80     		strh	r2, [r3, #2]
 505:.\Generated_Source\PSoC4/BLE_cps.c ****                                         connUpdateParam.connLatency = CYBLE_GAPP_CONNECTION_SLAVE_L
 1012              		.loc 1 505 0
 1013 0256 0823     		mov	r3, #8
 1014 0258 FB18     		add	r3, r7, r3
 1015 025a 0022     		mov	r2, #0
 1016 025c 9A80     		strh	r2, [r3, #4]
 506:.\Generated_Source\PSoC4/BLE_cps.c ****                                         connUpdateParam.supervisionTO = CYBLE_GAPP_CONNECTION_TIME_
 1017              		.loc 1 506 0
 1018 025e 0823     		mov	r3, #8
 1019 0260 FB18     		add	r3, r7, r3
 1020 0262 FA22     		mov	r2, #250
ARM GAS  C:\Users\Petro\AppData\Local\Temp\cc4GPyUf.s 			page 28


 1021 0264 9200     		lsl	r2, r2, #2
 1022 0266 DA80     		strh	r2, [r3, #6]
 507:.\Generated_Source\PSoC4/BLE_cps.c ****                                         
 508:.\Generated_Source\PSoC4/BLE_cps.c ****                                         if(CYBLE_ERROR_OK == CyBle_L2capLeConnectionParamUpdateRequ
 1023              		.loc 1 508 0
 1024 0268 3F4B     		ldr	r3, .L57+28
 1025 026a 1A78     		ldrb	r2, [r3]
 1026 026c 0823     		mov	r3, #8
 1027 026e FB18     		add	r3, r7, r3
 1028 0270 101C     		mov	r0, r2
 1029 0272 191C     		mov	r1, r3
 1030 0274 FFF7FEFF 		bl	CyBle_L2capLeConnectionParamUpdateRequest
 1031 0278 031E     		sub	r3, r0, #0
 1032 027a 0FD1     		bne	.L49
 509:.\Generated_Source\PSoC4/BLE_cps.c ****                                                                           cyBle_connHandle.bdHandle
 510:.\Generated_Source\PSoC4/BLE_cps.c ****                                         {
 511:.\Generated_Source\PSoC4/BLE_cps.c ****                                             cyBle_cpssFlag |= CYBLE_CPSS_FLAG_PV_PROCEDURE_IN_PROGR
 1033              		.loc 1 511 0
 1034 027c 364B     		ldr	r3, .L57+12
 1035 027e 1B78     		ldrb	r3, [r3]
 1036 0280 0222     		mov	r2, #2
 1037 0282 1343     		orr	r3, r2
 1038 0284 DAB2     		uxtb	r2, r3
 1039 0286 344B     		ldr	r3, .L57+12
 1040 0288 1A70     		strb	r2, [r3]
 512:.\Generated_Source\PSoC4/BLE_cps.c ****                                             
 513:.\Generated_Source\PSoC4/BLE_cps.c ****                                             /* Set event handled flag to not send Write response. R
 514:.\Generated_Source\PSoC4/BLE_cps.c ****                                                when Central accept the request for connection param
 515:.\Generated_Source\PSoC4/BLE_cps.c ****                                                CyBle_CpssConnParamUpdateRspEventHandler function.
 516:.\Generated_Source\PSoC4/BLE_cps.c ****                                             */
 517:.\Generated_Source\PSoC4/BLE_cps.c ****                                             cyBle_eventHandlerFlag |= CYBLE_CALLBACK;
 1041              		.loc 1 517 0
 1042 028a 324B     		ldr	r3, .L57+8
 1043 028c 1B78     		ldrb	r3, [r3]
 1044 028e DBB2     		uxtb	r3, r3
 1045 0290 0122     		mov	r2, #1
 1046 0292 1343     		orr	r3, r2
 1047 0294 DAB2     		uxtb	r2, r3
 1048 0296 2F4B     		ldr	r3, .L57+8
 1049 0298 1A70     		strb	r2, [r3]
 1050              	.LBE3:
 495:.\Generated_Source\PSoC4/BLE_cps.c ****                                         /* If the current connection parameters do not allow sendin
 1051              		.loc 1 495 0
 1052 029a 0AE0     		b	.L50
 1053              	.L49:
 1054 029c 09E0     		b	.L50
 1055              	.L48:
 518:.\Generated_Source\PSoC4/BLE_cps.c ****                                         }
 519:.\Generated_Source\PSoC4/BLE_cps.c ****                                     }
 520:.\Generated_Source\PSoC4/BLE_cps.c ****                                     else
 521:.\Generated_Source\PSoC4/BLE_cps.c ****                                     {
 522:.\Generated_Source\PSoC4/BLE_cps.c ****                                         CyBle_CpsApplCallback((uint32)CYBLE_EVT_CPSS_NOTIFICATION_E
 1056              		.loc 1 522 0
 1057 029e 2B4B     		ldr	r3, .L57
 1058 02a0 1B68     		ldr	r3, [r3]
 1059 02a2 A522     		mov	r2, #165
 1060 02a4 5100     		lsl	r1, r2, #1
ARM GAS  C:\Users\Petro\AppData\Local\Temp\cc4GPyUf.s 			page 29


 1061 02a6 1022     		mov	r2, #16
 1062 02a8 BA18     		add	r2, r7, r2
 1063 02aa 081C     		mov	r0, r1
 1064 02ac 111C     		mov	r1, r2
 1065 02ae 9847     		blx	r3
 1066              	.LBE2:
 1067 02b0 0AE0     		b	.L46
 1068              	.L50:
 1069 02b2 09E0     		b	.L46
 1070              	.L47:
 523:.\Generated_Source\PSoC4/BLE_cps.c ****                                     }
 524:.\Generated_Source\PSoC4/BLE_cps.c ****                                 }
 525:.\Generated_Source\PSoC4/BLE_cps.c ****                                 else
 526:.\Generated_Source\PSoC4/BLE_cps.c ****                                 {
 527:.\Generated_Source\PSoC4/BLE_cps.c ****                                     CyBle_CpsApplCallback((uint32)CYBLE_EVT_CPSS_NOTIFICATION_DISAB
 1071              		.loc 1 527 0
 1072 02b4 254B     		ldr	r3, .L57
 1073 02b6 1B68     		ldr	r3, [r3]
 1074 02b8 4C22     		mov	r2, #76
 1075 02ba FF32     		add	r2, r2, #255
 1076 02bc 111C     		mov	r1, r2
 1077 02be 1022     		mov	r2, #16
 1078 02c0 BA18     		add	r2, r7, r2
 1079 02c2 081C     		mov	r0, r1
 1080 02c4 111C     		mov	r1, r2
 1081 02c6 9847     		blx	r3
 1082              	.L46:
 528:.\Generated_Source\PSoC4/BLE_cps.c ****                                 }
 529:.\Generated_Source\PSoC4/BLE_cps.c ****                             }
 530:.\Generated_Source\PSoC4/BLE_cps.c ****                             /* Check characteristic properties for Indication */
 531:.\Generated_Source\PSoC4/BLE_cps.c ****                             if(CYBLE_IS_INDICATION_SUPPORTED(cyBle_cpss.charInfo[locCharIndex].char
 1083              		.loc 1 531 0
 1084 02c8 1F23     		mov	r3, #31
 1085 02ca FB18     		add	r3, r7, r3
 1086 02cc 1A78     		ldrb	r2, [r3]
 1087 02ce 2349     		ldr	r1, .L57+16
 1088 02d0 131C     		mov	r3, r2
 1089 02d2 5B00     		lsl	r3, r3, #1
 1090 02d4 9B18     		add	r3, r3, r2
 1091 02d6 5B00     		lsl	r3, r3, #1
 1092 02d8 CB18     		add	r3, r1, r3
 1093 02da 5B88     		ldrh	r3, [r3, #2]
 1094 02dc 5A1E     		sub	r2, r3, #1
 1095 02de 1C49     		ldr	r1, .L57+4
 1096 02e0 131C     		mov	r3, r2
 1097 02e2 9B00     		lsl	r3, r3, #2
 1098 02e4 9B18     		add	r3, r3, r2
 1099 02e6 9B00     		lsl	r3, r3, #2
 1100 02e8 CB18     		add	r3, r1, r3
 1101 02ea 5A68     		ldr	r2, [r3, #4]
 1102 02ec 8023     		mov	r3, #128
 1103 02ee 9B01     		lsl	r3, r3, #6
 1104 02f0 1340     		and	r3, r2
 1105 02f2 1FD0     		beq	.L51
 532:.\Generated_Source\PSoC4/BLE_cps.c ****                             {
 533:.\Generated_Source\PSoC4/BLE_cps.c ****                                 if(CYBLE_IS_INDICATION_ENABLED_IN_PTR(eventParam->handleValPair.val
 1106              		.loc 1 533 0
ARM GAS  C:\Users\Petro\AppData\Local\Temp\cc4GPyUf.s 			page 30


 1107 02f4 7B68     		ldr	r3, [r7, #4]
 1108 02f6 5B68     		ldr	r3, [r3, #4]
 1109 02f8 181C     		mov	r0, r3
 1110 02fa FFF7FEFF 		bl	CyBle_Get16ByPtr
 1111 02fe 031C     		mov	r3, r0
 1112 0300 1A1C     		mov	r2, r3
 1113 0302 0223     		mov	r3, #2
 1114 0304 1340     		and	r3, r2
 1115 0306 9BB2     		uxth	r3, r3
 1116 0308 002B     		cmp	r3, #0
 1117 030a 09D0     		beq	.L52
 534:.\Generated_Source\PSoC4/BLE_cps.c ****                                 {
 535:.\Generated_Source\PSoC4/BLE_cps.c ****                                     CyBle_CpsApplCallback((uint32)CYBLE_EVT_CPSS_INDICATION_ENABLED
 1118              		.loc 1 535 0
 1119 030c 0F4B     		ldr	r3, .L57
 1120 030e 1B68     		ldr	r3, [r3]
 1121 0310 A622     		mov	r2, #166
 1122 0312 5100     		lsl	r1, r2, #1
 1123 0314 1022     		mov	r2, #16
 1124 0316 BA18     		add	r2, r7, r2
 1125 0318 081C     		mov	r0, r1
 1126 031a 111C     		mov	r1, r2
 1127 031c 9847     		blx	r3
 1128 031e 09E0     		b	.L51
 1129              	.L52:
 536:.\Generated_Source\PSoC4/BLE_cps.c ****                                 }
 537:.\Generated_Source\PSoC4/BLE_cps.c ****                                 else
 538:.\Generated_Source\PSoC4/BLE_cps.c ****                                 {
 539:.\Generated_Source\PSoC4/BLE_cps.c ****                                     CyBle_CpsApplCallback((uint32)CYBLE_EVT_CPSS_INDICATION_DISABLE
 1130              		.loc 1 539 0
 1131 0320 0A4B     		ldr	r3, .L57
 1132 0322 1B68     		ldr	r3, [r3]
 1133 0324 4E22     		mov	r2, #78
 1134 0326 FF32     		add	r2, r2, #255
 1135 0328 111C     		mov	r1, r2
 1136 032a 1022     		mov	r2, #16
 1137 032c BA18     		add	r2, r7, r2
 1138 032e 081C     		mov	r0, r1
 1139 0330 111C     		mov	r1, r2
 1140 0332 9847     		blx	r3
 1141              	.L51:
 540:.\Generated_Source\PSoC4/BLE_cps.c ****                                 }
 541:.\Generated_Source\PSoC4/BLE_cps.c ****                             }
 542:.\Generated_Source\PSoC4/BLE_cps.c ****                         #if((CYBLE_GAP_ROLE_PERIPHERAL || CYBLE_GAP_ROLE_CENTRAL) && \
 543:.\Generated_Source\PSoC4/BLE_cps.c ****                             (CYBLE_BONDING_REQUIREMENT == CYBLE_BONDING_YES))
 544:.\Generated_Source\PSoC4/BLE_cps.c ****                             /* Set flag to store bonding data to flash */
 545:.\Generated_Source\PSoC4/BLE_cps.c ****                             if(cyBle_peerBonding == CYBLE_GAP_BONDING)
 1142              		.loc 1 545 0
 1143 0334 0D4B     		ldr	r3, .L57+32
 1144 0336 1B78     		ldrb	r3, [r3]
 1145 0338 012B     		cmp	r3, #1
 1146 033a 51D1     		bne	.L42
 546:.\Generated_Source\PSoC4/BLE_cps.c ****                             {
 547:.\Generated_Source\PSoC4/BLE_cps.c ****                                 cyBle_pendingFlashWrite |= CYBLE_PENDING_CCCD_FLASH_WRITE_BIT;
 1147              		.loc 1 547 0
 1148 033c 0C4B     		ldr	r3, .L57+36
 1149 033e 1B78     		ldrb	r3, [r3]
ARM GAS  C:\Users\Petro\AppData\Local\Temp\cc4GPyUf.s 			page 31


 1150 0340 0222     		mov	r2, #2
 1151 0342 1343     		orr	r3, r2
 1152 0344 DAB2     		uxtb	r2, r3
 1153 0346 0A4B     		ldr	r3, .L57+36
 1154 0348 1A70     		strb	r2, [r3]
 1155 034a 49E0     		b	.L42
 1156              	.L58:
 1157              		.align	2
 1158              	.L57:
 1159 034c 00000000 		.word	CyBle_CpsApplCallback
 1160 0350 00000000 		.word	cyBle_gattDB
 1161 0354 00000000 		.word	cyBle_eventHandlerFlag
 1162 0358 06000000 		.word	cyBle_cpssFlag
 1163 035c 00000000 		.word	cyBle_cpss
 1164 0360 00000000 		.word	cyBle_cpssAdjustment
 1165 0364 08000000 		.word	cyBle_cpssConnParam
 1166 0368 00000000 		.word	cyBle_connHandle
 1167 036c 00000000 		.word	cyBle_peerBonding
 1168 0370 00000000 		.word	cyBle_pendingFlashWrite
 1169              	.L45:
 548:.\Generated_Source\PSoC4/BLE_cps.c ****                             }
 549:.\Generated_Source\PSoC4/BLE_cps.c ****                         #endif /* (CYBLE_BONDING_REQUIREMENT == CYBLE_BONDING_YES) */
 550:.\Generated_Source\PSoC4/BLE_cps.c ****                             
 551:.\Generated_Source\PSoC4/BLE_cps.c ****                         }
 552:.\Generated_Source\PSoC4/BLE_cps.c ****                         /* Server Characteristic Configuration descriptor write request */
 553:.\Generated_Source\PSoC4/BLE_cps.c ****                         else
 554:.\Generated_Source\PSoC4/BLE_cps.c ****                         {
 555:.\Generated_Source\PSoC4/BLE_cps.c ****                             /* Check characteristic properties for Broadcast */
 556:.\Generated_Source\PSoC4/BLE_cps.c ****                             if(CYBLE_IS_BROADCAST_SUPPORTED(cyBle_cpss.charInfo[locCharIndex].charH
 1170              		.loc 1 556 0
 1171 0374 1F23     		mov	r3, #31
 1172 0376 FB18     		add	r3, r7, r3
 1173 0378 1A78     		ldrb	r2, [r3]
 1174 037a 2649     		ldr	r1, .L59
 1175 037c 131C     		mov	r3, r2
 1176 037e 5B00     		lsl	r3, r3, #1
 1177 0380 9B18     		add	r3, r3, r2
 1178 0382 5B00     		lsl	r3, r3, #1
 1179 0384 CB18     		add	r3, r1, r3
 1180 0386 5B88     		ldrh	r3, [r3, #2]
 1181 0388 5A1E     		sub	r2, r3, #1
 1182 038a 2349     		ldr	r1, .L59+4
 1183 038c 131C     		mov	r3, r2
 1184 038e 9B00     		lsl	r3, r3, #2
 1185 0390 9B18     		add	r3, r3, r2
 1186 0392 9B00     		lsl	r3, r3, #2
 1187 0394 CB18     		add	r3, r1, r3
 1188 0396 5A68     		ldr	r2, [r3, #4]
 1189 0398 8023     		mov	r3, #128
 1190 039a 5B00     		lsl	r3, r3, #1
 1191 039c 1340     		and	r3, r2
 1192 039e 1FD0     		beq	.L42
 557:.\Generated_Source\PSoC4/BLE_cps.c ****                             {
 558:.\Generated_Source\PSoC4/BLE_cps.c ****                                 if(CYBLE_IS_BROADCAST_ENABLED_IN_PTR(eventParam->handleValPair.valu
 1193              		.loc 1 558 0
 1194 03a0 7B68     		ldr	r3, [r7, #4]
 1195 03a2 5B68     		ldr	r3, [r3, #4]
ARM GAS  C:\Users\Petro\AppData\Local\Temp\cc4GPyUf.s 			page 32


 1196 03a4 181C     		mov	r0, r3
 1197 03a6 FFF7FEFF 		bl	CyBle_Get16ByPtr
 1198 03aa 031C     		mov	r3, r0
 1199 03ac 1A1C     		mov	r2, r3
 1200 03ae 0123     		mov	r3, #1
 1201 03b0 1340     		and	r3, r2
 1202 03b2 9BB2     		uxth	r3, r3
 1203 03b4 002B     		cmp	r3, #0
 1204 03b6 0AD0     		beq	.L54
 559:.\Generated_Source\PSoC4/BLE_cps.c ****                                 {
 560:.\Generated_Source\PSoC4/BLE_cps.c ****                                     CyBle_CpsApplCallback((uint32)CYBLE_EVT_CPSS_BROADCAST_ENABLED,
 1205              		.loc 1 560 0
 1206 03b8 184B     		ldr	r3, .L59+8
 1207 03ba 1B68     		ldr	r3, [r3]
 1208 03bc 5022     		mov	r2, #80
 1209 03be FF32     		add	r2, r2, #255
 1210 03c0 111C     		mov	r1, r2
 1211 03c2 1022     		mov	r2, #16
 1212 03c4 BA18     		add	r2, r7, r2
 1213 03c6 081C     		mov	r0, r1
 1214 03c8 111C     		mov	r1, r2
 1215 03ca 9847     		blx	r3
 1216 03cc 08E0     		b	.L42
 1217              	.L54:
 561:.\Generated_Source\PSoC4/BLE_cps.c ****                                 }
 562:.\Generated_Source\PSoC4/BLE_cps.c ****                                 else
 563:.\Generated_Source\PSoC4/BLE_cps.c ****                                 {
 564:.\Generated_Source\PSoC4/BLE_cps.c ****                                     CyBle_CpsApplCallback((uint32)CYBLE_EVT_CPSS_BROADCAST_DISABLED
 1218              		.loc 1 564 0
 1219 03ce 134B     		ldr	r3, .L59+8
 1220 03d0 1B68     		ldr	r3, [r3]
 1221 03d2 A822     		mov	r2, #168
 1222 03d4 5100     		lsl	r1, r2, #1
 1223 03d6 1022     		mov	r2, #16
 1224 03d8 BA18     		add	r2, r7, r2
 1225 03da 081C     		mov	r0, r1
 1226 03dc 111C     		mov	r1, r2
 1227 03de 9847     		blx	r3
 1228              	.L42:
 445:.\Generated_Source\PSoC4/BLE_cps.c ****             {
 1229              		.loc 1 445 0
 1230 03e0 1F23     		mov	r3, #31
 1231 03e2 FB18     		add	r3, r7, r3
 1232 03e4 1A78     		ldrb	r2, [r3]
 1233 03e6 1F23     		mov	r3, #31
 1234 03e8 FB18     		add	r3, r7, r3
 1235 03ea 0132     		add	r2, r2, #1
 1236 03ec 1A70     		strb	r2, [r3]
 1237              	.L40:
 444:.\Generated_Source\PSoC4/BLE_cps.c ****                 locCharIndex++)
 1238              		.loc 1 444 0 discriminator 1
 1239 03ee 1F23     		mov	r3, #31
 1240 03f0 FB18     		add	r3, r7, r3
 1241 03f2 1B78     		ldrb	r3, [r3]
 1242 03f4 042B     		cmp	r3, #4
 1243 03f6 05D8     		bhi	.L37
 444:.\Generated_Source\PSoC4/BLE_cps.c ****                 locCharIndex++)
ARM GAS  C:\Users\Petro\AppData\Local\Temp\cc4GPyUf.s 			page 33


 1244              		.loc 1 444 0 is_stmt 0 discriminator 2
 1245 03f8 1D23     		mov	r3, #29
 1246 03fa FB18     		add	r3, r7, r3
 1247 03fc 1B78     		ldrb	r3, [r3]
 1248 03fe 002B     		cmp	r3, #0
 1249 0400 00D1     		bne	.LCB1048
 1250 0402 52E6     		b	.L55	@long jump
 1251              	.LCB1048:
 1252              	.L37:
 565:.\Generated_Source\PSoC4/BLE_cps.c ****                                 }
 566:.\Generated_Source\PSoC4/BLE_cps.c ****                             }
 567:.\Generated_Source\PSoC4/BLE_cps.c ****                         }
 568:.\Generated_Source\PSoC4/BLE_cps.c ****                     }
 569:.\Generated_Source\PSoC4/BLE_cps.c ****                 }
 570:.\Generated_Source\PSoC4/BLE_cps.c ****             }
 571:.\Generated_Source\PSoC4/BLE_cps.c ****         }
 572:.\Generated_Source\PSoC4/BLE_cps.c ****     }
 573:.\Generated_Source\PSoC4/BLE_cps.c ****     return (gattErr);
 1253              		.loc 1 573 0 is_stmt 1
 1254 0404 1E23     		mov	r3, #30
 1255 0406 FB18     		add	r3, r7, r3
 1256 0408 1B78     		ldrb	r3, [r3]
 574:.\Generated_Source\PSoC4/BLE_cps.c **** }
 1257              		.loc 1 574 0
 1258 040a 181C     		mov	r0, r3
 1259 040c BD46     		mov	sp, r7
 1260 040e 09B0     		add	sp, sp, #36
 1261              		@ sp needed
 1262 0410 90BD     		pop	{r4, r7, pc}
 1263              	.L60:
 1264 0412 C046     		.align	2
 1265              	.L59:
 1266 0414 00000000 		.word	cyBle_cpss
 1267 0418 00000000 		.word	cyBle_gattDB
 1268 041c 00000000 		.word	CyBle_CpsApplCallback
 1269              		.cfi_endproc
 1270              	.LFE9:
 1271              		.size	CyBle_CpssWriteEventHandler, .-CyBle_CpssWriteEventHandler
 1272              		.section	.text.CyBle_CpssSendNotification,"ax",%progbits
 1273              		.align	2
 1274              		.global	CyBle_CpssSendNotification
 1275              		.code	16
 1276              		.thumb_func
 1277              		.type	CyBle_CpssSendNotification, %function
 1278              	CyBle_CpssSendNotification:
 1279              	.LFB10:
 575:.\Generated_Source\PSoC4/BLE_cps.c **** 
 576:.\Generated_Source\PSoC4/BLE_cps.c **** 
 577:.\Generated_Source\PSoC4/BLE_cps.c **** /****************************************************************************** 
 578:.\Generated_Source\PSoC4/BLE_cps.c **** * Function Name: CyBle_CpssSendNotification
 579:.\Generated_Source\PSoC4/BLE_cps.c **** ***************************************************************************//**
 580:.\Generated_Source\PSoC4/BLE_cps.c **** * 
 581:.\Generated_Source\PSoC4/BLE_cps.c **** *  Sends notification with a characteristic value of the CPS, which is a value
 582:.\Generated_Source\PSoC4/BLE_cps.c **** *  specified by charIndex, to the Client device.
 583:.\Generated_Source\PSoC4/BLE_cps.c **** * 
 584:.\Generated_Source\PSoC4/BLE_cps.c **** *  \param connHandle:      The connection handle
 585:.\Generated_Source\PSoC4/BLE_cps.c **** *  \param charIndex:       The index of a service characteristic of type 
ARM GAS  C:\Users\Petro\AppData\Local\Temp\cc4GPyUf.s 			page 34


 586:.\Generated_Source\PSoC4/BLE_cps.c **** *                   CYBLE_CPS_CHAR_INDEX_T.
 587:.\Generated_Source\PSoC4/BLE_cps.c **** *  \param attrSize:        The size of the characteristic value attribute.
 588:.\Generated_Source\PSoC4/BLE_cps.c **** *  \param attrValue:      The pointer to the characteristic value data that should be
 589:.\Generated_Source\PSoC4/BLE_cps.c **** *                   sent to the Client device.
 590:.\Generated_Source\PSoC4/BLE_cps.c **** * 
 591:.\Generated_Source\PSoC4/BLE_cps.c **** * \return
 592:.\Generated_Source\PSoC4/BLE_cps.c **** *  Return value is of type CYBLE_API_RESULT_T.
 593:.\Generated_Source\PSoC4/BLE_cps.c **** *   * CYBLE_ERROR_OK - The request handled successfully
 594:.\Generated_Source\PSoC4/BLE_cps.c **** *   * CYBLE_ERROR_INVALID_PARAMETER - Validation of the input parameter failed
 595:.\Generated_Source\PSoC4/BLE_cps.c **** *   * CYBLE_ERROR_INVALID_OPERATION - This operation is not permitted
 596:.\Generated_Source\PSoC4/BLE_cps.c **** *   * CYBLE_ERROR_GATT_DB_INVALID_ATTR_HANDLE - Optional characteristic is absent
 597:.\Generated_Source\PSoC4/BLE_cps.c **** *   * CYBLE_ERROR_INVALID_STATE - Connection with the Client is not established
 598:.\Generated_Source\PSoC4/BLE_cps.c **** *   * CYBLE_ERROR_MEMORY_ALLOCATION_FAILED - Memory allocation failed. 
 599:.\Generated_Source\PSoC4/BLE_cps.c **** *   * CYBLE_ERROR_NTF_DISABLED - Notification is not enabled by the Client.
 600:.\Generated_Source\PSoC4/BLE_cps.c **** *
 601:.\Generated_Source\PSoC4/BLE_cps.c **** * \events
 602:.\Generated_Source\PSoC4/BLE_cps.c **** *  None
 603:.\Generated_Source\PSoC4/BLE_cps.c **** *
 604:.\Generated_Source\PSoC4/BLE_cps.c **** ******************************************************************************/
 605:.\Generated_Source\PSoC4/BLE_cps.c **** CYBLE_API_RESULT_T CyBle_CpssSendNotification(CYBLE_CONN_HANDLE_T connHandle,
 606:.\Generated_Source\PSoC4/BLE_cps.c ****     CYBLE_CPS_CHAR_INDEX_T charIndex, uint8 attrSize, uint8 *attrValue)
 607:.\Generated_Source\PSoC4/BLE_cps.c **** {
 1280              		.loc 1 607 0
 1281              		.cfi_startproc
 1282 0000 90B5     		push	{r4, r7, lr}
 1283              		.cfi_def_cfa_offset 12
 1284              		.cfi_offset 4, -12
 1285              		.cfi_offset 7, -8
 1286              		.cfi_offset 14, -4
 1287 0002 89B0     		sub	sp, sp, #36
 1288              		.cfi_def_cfa_offset 48
 1289 0004 00AF     		add	r7, sp, #0
 1290              		.cfi_def_cfa_register 7
 1291 0006 0C24     		mov	r4, #12
 1292 0008 3C19     		add	r4, r7, r4
 1293 000a 2080     		strh	r0, [r4]
 1294 000c 081C     		mov	r0, r1
 1295 000e 111C     		mov	r1, r2
 1296 0010 7B60     		str	r3, [r7, #4]
 1297 0012 0B23     		mov	r3, #11
 1298 0014 FB18     		add	r3, r7, r3
 1299 0016 021C     		add	r2, r0, #0
 1300 0018 1A70     		strb	r2, [r3]
 1301 001a 0A23     		mov	r3, #10
 1302 001c FB18     		add	r3, r7, r3
 1303 001e 0A1C     		add	r2, r1, #0
 1304 0020 1A70     		strb	r2, [r3]
 608:.\Generated_Source\PSoC4/BLE_cps.c **** 
 609:.\Generated_Source\PSoC4/BLE_cps.c ****     CYBLE_API_RESULT_T apiResult;
 610:.\Generated_Source\PSoC4/BLE_cps.c ****     
 611:.\Generated_Source\PSoC4/BLE_cps.c ****     /* Send Notification if it is enabled and connected */
 612:.\Generated_Source\PSoC4/BLE_cps.c ****     if(CYBLE_STATE_CONNECTED != CyBle_GetState())
 1305              		.loc 1 612 0
 1306 0022 454B     		ldr	r3, .L69
 1307 0024 1B78     		ldrb	r3, [r3]
 1308 0026 022B     		cmp	r3, #2
 1309 0028 05D0     		beq	.L62
ARM GAS  C:\Users\Petro\AppData\Local\Temp\cc4GPyUf.s 			page 35


 613:.\Generated_Source\PSoC4/BLE_cps.c ****     {
 614:.\Generated_Source\PSoC4/BLE_cps.c ****         apiResult = CYBLE_ERROR_INVALID_STATE;
 1310              		.loc 1 614 0
 1311 002a 1E23     		mov	r3, #30
 1312 002c FB18     		add	r3, r7, r3
 1313 002e 0422     		mov	r2, #4
 1314 0030 FF32     		add	r2, r2, #255
 1315 0032 1A80     		strh	r2, [r3]
 1316 0034 78E0     		b	.L63
 1317              	.L62:
 615:.\Generated_Source\PSoC4/BLE_cps.c ****     }
 616:.\Generated_Source\PSoC4/BLE_cps.c ****     else if(charIndex >= CYBLE_CPS_CHAR_COUNT)
 1318              		.loc 1 616 0
 1319 0036 0B23     		mov	r3, #11
 1320 0038 FB18     		add	r3, r7, r3
 1321 003a 1B78     		ldrb	r3, [r3]
 1322 003c 042B     		cmp	r3, #4
 1323 003e 04D9     		bls	.L64
 617:.\Generated_Source\PSoC4/BLE_cps.c ****     {
 618:.\Generated_Source\PSoC4/BLE_cps.c ****         apiResult = CYBLE_ERROR_INVALID_PARAMETER;
 1324              		.loc 1 618 0
 1325 0040 1E23     		mov	r3, #30
 1326 0042 FB18     		add	r3, r7, r3
 1327 0044 0122     		mov	r2, #1
 1328 0046 1A80     		strh	r2, [r3]
 1329 0048 6EE0     		b	.L63
 1330              	.L64:
 619:.\Generated_Source\PSoC4/BLE_cps.c ****     }
 620:.\Generated_Source\PSoC4/BLE_cps.c ****     else if(cyBle_cpss.charInfo[charIndex].charHandle == CYBLE_GATT_INVALID_ATTR_HANDLE_VALUE)
 1331              		.loc 1 620 0
 1332 004a 0B23     		mov	r3, #11
 1333 004c FB18     		add	r3, r7, r3
 1334 004e 1A78     		ldrb	r2, [r3]
 1335 0050 3A49     		ldr	r1, .L69+4
 1336 0052 131C     		mov	r3, r2
 1337 0054 5B00     		lsl	r3, r3, #1
 1338 0056 9B18     		add	r3, r3, r2
 1339 0058 5B00     		lsl	r3, r3, #1
 1340 005a CB18     		add	r3, r1, r3
 1341 005c 5B88     		ldrh	r3, [r3, #2]
 1342 005e 002B     		cmp	r3, #0
 1343 0060 04D1     		bne	.L65
 621:.\Generated_Source\PSoC4/BLE_cps.c ****     {
 622:.\Generated_Source\PSoC4/BLE_cps.c ****         apiResult = CYBLE_ERROR_GATT_DB_INVALID_ATTR_HANDLE;
 1344              		.loc 1 622 0
 1345 0062 1E23     		mov	r3, #30
 1346 0064 FB18     		add	r3, r7, r3
 1347 0066 1322     		mov	r2, #19
 1348 0068 1A80     		strh	r2, [r3]
 1349 006a 5DE0     		b	.L63
 1350              	.L65:
 623:.\Generated_Source\PSoC4/BLE_cps.c ****     }
 624:.\Generated_Source\PSoC4/BLE_cps.c ****     else if((!CYBLE_IS_NOTIFICATION_SUPPORTED(cyBle_cpss.charInfo[charIndex].charHandle)) ||
 1351              		.loc 1 624 0
 1352 006c 0B23     		mov	r3, #11
 1353 006e FB18     		add	r3, r7, r3
 1354 0070 1A78     		ldrb	r2, [r3]
ARM GAS  C:\Users\Petro\AppData\Local\Temp\cc4GPyUf.s 			page 36


 1355 0072 3249     		ldr	r1, .L69+4
 1356 0074 131C     		mov	r3, r2
 1357 0076 5B00     		lsl	r3, r3, #1
 1358 0078 9B18     		add	r3, r3, r2
 1359 007a 5B00     		lsl	r3, r3, #1
 1360 007c CB18     		add	r3, r1, r3
 1361 007e 5B88     		ldrh	r3, [r3, #2]
 1362 0080 5A1E     		sub	r2, r3, #1
 1363 0082 2F49     		ldr	r1, .L69+8
 1364 0084 131C     		mov	r3, r2
 1365 0086 9B00     		lsl	r3, r3, #2
 1366 0088 9B18     		add	r3, r3, r2
 1367 008a 9B00     		lsl	r3, r3, #2
 1368 008c CB18     		add	r3, r1, r3
 1369 008e 5A68     		ldr	r2, [r3, #4]
 1370 0090 8023     		mov	r3, #128
 1371 0092 5B01     		lsl	r3, r3, #5
 1372 0094 1340     		and	r3, r2
 1373 0096 1DD0     		beq	.L66
 625:.\Generated_Source\PSoC4/BLE_cps.c ****             (!CYBLE_IS_NOTIFICATION_ENABLED(cyBle_cpss.charInfo[charIndex].descrHandle[CYBLE_CPS_CC
 1374              		.loc 1 625 0 discriminator 1
 1375 0098 0B23     		mov	r3, #11
 1376 009a FB18     		add	r3, r7, r3
 1377 009c 1A78     		ldrb	r2, [r3]
 1378 009e 2749     		ldr	r1, .L69+4
 1379 00a0 131C     		mov	r3, r2
 1380 00a2 5B00     		lsl	r3, r3, #1
 1381 00a4 9B18     		add	r3, r3, r2
 1382 00a6 5B00     		lsl	r3, r3, #1
 1383 00a8 CB18     		add	r3, r1, r3
 1384 00aa 9B88     		ldrh	r3, [r3, #4]
 1385 00ac 5A1E     		sub	r2, r3, #1
 1386 00ae 2449     		ldr	r1, .L69+8
 1387 00b0 131C     		mov	r3, r2
 1388 00b2 9B00     		lsl	r3, r3, #2
 1389 00b4 9B18     		add	r3, r3, r2
 1390 00b6 9B00     		lsl	r3, r3, #2
 1391 00b8 CB18     		add	r3, r1, r3
 1392 00ba 0833     		add	r3, r3, #8
 1393 00bc 9B68     		ldr	r3, [r3, #8]
 1394 00be 5B68     		ldr	r3, [r3, #4]
 1395 00c0 181C     		mov	r0, r3
 1396 00c2 FFF7FEFF 		bl	CyBle_Get16ByPtr
 1397 00c6 031C     		mov	r3, r0
 1398 00c8 1A1C     		mov	r2, r3
 1399 00ca 0123     		mov	r3, #1
 1400 00cc 1340     		and	r3, r2
 1401 00ce 9BB2     		uxth	r3, r3
 624:.\Generated_Source\PSoC4/BLE_cps.c ****             (!CYBLE_IS_NOTIFICATION_ENABLED(cyBle_cpss.charInfo[charIndex].descrHandle[CYBLE_CPS_CC
 1402              		.loc 1 624 0 discriminator 1
 1403 00d0 002B     		cmp	r3, #0
 1404 00d2 05D1     		bne	.L67
 1405              	.L66:
 626:.\Generated_Source\PSoC4/BLE_cps.c ****     {
 627:.\Generated_Source\PSoC4/BLE_cps.c ****         apiResult = CYBLE_ERROR_NTF_DISABLED;
 1406              		.loc 1 627 0
 1407 00d4 1E23     		mov	r3, #30
ARM GAS  C:\Users\Petro\AppData\Local\Temp\cc4GPyUf.s 			page 37


 1408 00d6 FB18     		add	r3, r7, r3
 1409 00d8 8022     		mov	r2, #128
 1410 00da 5200     		lsl	r2, r2, #1
 1411 00dc 1A80     		strh	r2, [r3]
 1412 00de 23E0     		b	.L63
 1413              	.L67:
 1414              	.LBB4:
 628:.\Generated_Source\PSoC4/BLE_cps.c ****     }
 629:.\Generated_Source\PSoC4/BLE_cps.c ****     else
 630:.\Generated_Source\PSoC4/BLE_cps.c ****     {
 631:.\Generated_Source\PSoC4/BLE_cps.c ****         CYBLE_GATTS_HANDLE_VALUE_NTF_T ntfReqParam;
 632:.\Generated_Source\PSoC4/BLE_cps.c ****         
 633:.\Generated_Source\PSoC4/BLE_cps.c ****         /* Fill all fields of write request structure ... */
 634:.\Generated_Source\PSoC4/BLE_cps.c ****         ntfReqParam.attrHandle = cyBle_cpss.charInfo[charIndex].charHandle;
 1415              		.loc 1 634 0
 1416 00e0 0B23     		mov	r3, #11
 1417 00e2 FB18     		add	r3, r7, r3
 1418 00e4 1A78     		ldrb	r2, [r3]
 1419 00e6 1549     		ldr	r1, .L69+4
 1420 00e8 131C     		mov	r3, r2
 1421 00ea 5B00     		lsl	r3, r3, #1
 1422 00ec 9B18     		add	r3, r3, r2
 1423 00ee 5B00     		lsl	r3, r3, #1
 1424 00f0 CB18     		add	r3, r1, r3
 1425 00f2 5A88     		ldrh	r2, [r3, #2]
 1426 00f4 1023     		mov	r3, #16
 1427 00f6 FB18     		add	r3, r7, r3
 1428 00f8 1A81     		strh	r2, [r3, #8]
 635:.\Generated_Source\PSoC4/BLE_cps.c ****         ntfReqParam.value.val = attrValue;
 1429              		.loc 1 635 0
 1430 00fa 1023     		mov	r3, #16
 1431 00fc FB18     		add	r3, r7, r3
 1432 00fe 7A68     		ldr	r2, [r7, #4]
 1433 0100 1A60     		str	r2, [r3]
 636:.\Generated_Source\PSoC4/BLE_cps.c ****         ntfReqParam.value.len = attrSize;
 1434              		.loc 1 636 0
 1435 0102 0A23     		mov	r3, #10
 1436 0104 FB18     		add	r3, r7, r3
 1437 0106 1B78     		ldrb	r3, [r3]
 1438 0108 9AB2     		uxth	r2, r3
 1439 010a 1023     		mov	r3, #16
 1440 010c FB18     		add	r3, r7, r3
 1441 010e 9A80     		strh	r2, [r3, #4]
 637:.\Generated_Source\PSoC4/BLE_cps.c ****         
 638:.\Generated_Source\PSoC4/BLE_cps.c ****         /* Send notification to the Client using previously filled structure */
 639:.\Generated_Source\PSoC4/BLE_cps.c ****         apiResult = CyBle_GattsNotification(connHandle, &ntfReqParam);
 1442              		.loc 1 639 0
 1443 0110 1E23     		mov	r3, #30
 1444 0112 FC18     		add	r4, r7, r3
 1445 0114 0C23     		mov	r3, #12
 1446 0116 FB18     		add	r3, r7, r3
 1447 0118 1022     		mov	r2, #16
 1448 011a BA18     		add	r2, r7, r2
 1449 011c 1868     		ldr	r0, [r3]
 1450 011e 111C     		mov	r1, r2
 1451 0120 FFF7FEFF 		bl	CyBle_GattsNotification
 1452 0124 031C     		mov	r3, r0
ARM GAS  C:\Users\Petro\AppData\Local\Temp\cc4GPyUf.s 			page 38


 1453 0126 2380     		strh	r3, [r4]
 1454              	.L63:
 1455              	.LBE4:
 640:.\Generated_Source\PSoC4/BLE_cps.c ****     }
 641:.\Generated_Source\PSoC4/BLE_cps.c **** 
 642:.\Generated_Source\PSoC4/BLE_cps.c ****     return (apiResult);
 1456              		.loc 1 642 0
 1457 0128 1E23     		mov	r3, #30
 1458 012a FB18     		add	r3, r7, r3
 1459 012c 1B88     		ldrh	r3, [r3]
 643:.\Generated_Source\PSoC4/BLE_cps.c **** }
 1460              		.loc 1 643 0
 1461 012e 181C     		mov	r0, r3
 1462 0130 BD46     		mov	sp, r7
 1463 0132 09B0     		add	sp, sp, #36
 1464              		@ sp needed
 1465 0134 90BD     		pop	{r4, r7, pc}
 1466              	.L70:
 1467 0136 C046     		.align	2
 1468              	.L69:
 1469 0138 00000000 		.word	cyBle_state
 1470 013c 00000000 		.word	cyBle_cpss
 1471 0140 00000000 		.word	cyBle_gattDB
 1472              		.cfi_endproc
 1473              	.LFE10:
 1474              		.size	CyBle_CpssSendNotification, .-CyBle_CpssSendNotification
 1475              		.section	.text.CyBle_CpssSendIndication,"ax",%progbits
 1476              		.align	2
 1477              		.global	CyBle_CpssSendIndication
 1478              		.code	16
 1479              		.thumb_func
 1480              		.type	CyBle_CpssSendIndication, %function
 1481              	CyBle_CpssSendIndication:
 1482              	.LFB11:
 644:.\Generated_Source\PSoC4/BLE_cps.c **** 
 645:.\Generated_Source\PSoC4/BLE_cps.c **** 
 646:.\Generated_Source\PSoC4/BLE_cps.c **** /****************************************************************************** 
 647:.\Generated_Source\PSoC4/BLE_cps.c **** * Function Name: CyBle_CpssSendIndication
 648:.\Generated_Source\PSoC4/BLE_cps.c **** ***************************************************************************//**
 649:.\Generated_Source\PSoC4/BLE_cps.c **** * 
 650:.\Generated_Source\PSoC4/BLE_cps.c **** *  Sends indication with a characteristic value of the CPS, which is a value 
 651:.\Generated_Source\PSoC4/BLE_cps.c **** *  specified by charIndex, to the Client device.
 652:.\Generated_Source\PSoC4/BLE_cps.c **** * 
 653:.\Generated_Source\PSoC4/BLE_cps.c **** *  \param connHandle:      The connection handle
 654:.\Generated_Source\PSoC4/BLE_cps.c **** *  \param charIndex:       The index of a service characteristic of type 
 655:.\Generated_Source\PSoC4/BLE_cps.c **** *                   CYBLE_CPS_CHAR_INDEX_T.
 656:.\Generated_Source\PSoC4/BLE_cps.c **** *  \param attrSize:        The size of the characteristic value attribute.
 657:.\Generated_Source\PSoC4/BLE_cps.c **** *  \param attrValue:      The pointer to the characteristic value data that should be
 658:.\Generated_Source\PSoC4/BLE_cps.c **** *                   sent to the Client device.
 659:.\Generated_Source\PSoC4/BLE_cps.c **** * 
 660:.\Generated_Source\PSoC4/BLE_cps.c **** * \return
 661:.\Generated_Source\PSoC4/BLE_cps.c **** *  Return value is of type CYBLE_API_RESULT_T.
 662:.\Generated_Source\PSoC4/BLE_cps.c **** *   * CYBLE_ERROR_OK - The request handled successfully
 663:.\Generated_Source\PSoC4/BLE_cps.c **** *   * CYBLE_ERROR_INVALID_PARAMETER - Validation of the input parameter failed
 664:.\Generated_Source\PSoC4/BLE_cps.c **** *   * CYBLE_ERROR_INVALID_OPERATION - This operation is not permitted
 665:.\Generated_Source\PSoC4/BLE_cps.c **** *   * CYBLE_ERROR_GATT_DB_INVALID_ATTR_HANDLE - Optional characteristic is absent
 666:.\Generated_Source\PSoC4/BLE_cps.c **** *   * CYBLE_ERROR_INVALID_STATE - Connection with the Client is not established
ARM GAS  C:\Users\Petro\AppData\Local\Temp\cc4GPyUf.s 			page 39


 667:.\Generated_Source\PSoC4/BLE_cps.c **** *   * CYBLE_ERROR_MEMORY_ALLOCATION_FAILED - Memory allocation failed
 668:.\Generated_Source\PSoC4/BLE_cps.c **** *   * CYBLE_ERROR_IND_DISABLED - Indication is not enabled by the Client
 669:.\Generated_Source\PSoC4/BLE_cps.c **** *
 670:.\Generated_Source\PSoC4/BLE_cps.c **** * \events
 671:.\Generated_Source\PSoC4/BLE_cps.c **** *  In case of successful execution (return value = CYBLE_ERROR_OK)
 672:.\Generated_Source\PSoC4/BLE_cps.c **** *  the next events can appear: \n
 673:.\Generated_Source\PSoC4/BLE_cps.c **** *   If the CPS service-specific callback is registered 
 674:.\Generated_Source\PSoC4/BLE_cps.c **** *      (with CyBle_CpsRegisterAttrCallback):
 675:.\Generated_Source\PSoC4/BLE_cps.c **** *  * CYBLE_EVT_CPSS_INDICATION_CONFIRMED - in case if the indication is
 676:.\Generated_Source\PSoC4/BLE_cps.c **** *                                successfully delivered to the peer device.
 677:.\Generated_Source\PSoC4/BLE_cps.c **** *  .
 678:.\Generated_Source\PSoC4/BLE_cps.c **** *   Otherwise (if the CPS service-specific callback is not registered):
 679:.\Generated_Source\PSoC4/BLE_cps.c **** *  * CYBLE_EVT_GATTS_HANDLE_VALUE_CNF - in case if the indication is
 680:.\Generated_Source\PSoC4/BLE_cps.c **** *                                successfully delivered to the peer device.
 681:.\Generated_Source\PSoC4/BLE_cps.c **** *
 682:.\Generated_Source\PSoC4/BLE_cps.c **** ******************************************************************************/
 683:.\Generated_Source\PSoC4/BLE_cps.c **** CYBLE_API_RESULT_T CyBle_CpssSendIndication(CYBLE_CONN_HANDLE_T connHandle,
 684:.\Generated_Source\PSoC4/BLE_cps.c ****     CYBLE_CPS_CHAR_INDEX_T charIndex, uint8 attrSize, uint8 *attrValue)
 685:.\Generated_Source\PSoC4/BLE_cps.c **** {
 1483              		.loc 1 685 0
 1484              		.cfi_startproc
 1485 0000 90B5     		push	{r4, r7, lr}
 1486              		.cfi_def_cfa_offset 12
 1487              		.cfi_offset 4, -12
 1488              		.cfi_offset 7, -8
 1489              		.cfi_offset 14, -4
 1490 0002 89B0     		sub	sp, sp, #36
 1491              		.cfi_def_cfa_offset 48
 1492 0004 00AF     		add	r7, sp, #0
 1493              		.cfi_def_cfa_register 7
 1494 0006 0C24     		mov	r4, #12
 1495 0008 3C19     		add	r4, r7, r4
 1496 000a 2080     		strh	r0, [r4]
 1497 000c 081C     		mov	r0, r1
 1498 000e 111C     		mov	r1, r2
 1499 0010 7B60     		str	r3, [r7, #4]
 1500 0012 0B23     		mov	r3, #11
 1501 0014 FB18     		add	r3, r7, r3
 1502 0016 021C     		add	r2, r0, #0
 1503 0018 1A70     		strb	r2, [r3]
 1504 001a 0A23     		mov	r3, #10
 1505 001c FB18     		add	r3, r7, r3
 1506 001e 0A1C     		add	r2, r1, #0
 1507 0020 1A70     		strb	r2, [r3]
 686:.\Generated_Source\PSoC4/BLE_cps.c ****     CYBLE_API_RESULT_T apiResult;
 687:.\Generated_Source\PSoC4/BLE_cps.c ****     
 688:.\Generated_Source\PSoC4/BLE_cps.c ****     /* Send Notification if it is enabled and connected */
 689:.\Generated_Source\PSoC4/BLE_cps.c ****     if(CYBLE_STATE_CONNECTED != CyBle_GetState())
 1508              		.loc 1 689 0
 1509 0022 4A4B     		ldr	r3, .L80
 1510 0024 1B78     		ldrb	r3, [r3]
 1511 0026 022B     		cmp	r3, #2
 1512 0028 05D0     		beq	.L72
 690:.\Generated_Source\PSoC4/BLE_cps.c ****     {
 691:.\Generated_Source\PSoC4/BLE_cps.c ****         apiResult = CYBLE_ERROR_INVALID_STATE;
 1513              		.loc 1 691 0
 1514 002a 1E23     		mov	r3, #30
ARM GAS  C:\Users\Petro\AppData\Local\Temp\cc4GPyUf.s 			page 40


 1515 002c FB18     		add	r3, r7, r3
 1516 002e 0422     		mov	r2, #4
 1517 0030 FF32     		add	r2, r2, #255
 1518 0032 1A80     		strh	r2, [r3]
 1519 0034 82E0     		b	.L73
 1520              	.L72:
 692:.\Generated_Source\PSoC4/BLE_cps.c ****     }
 693:.\Generated_Source\PSoC4/BLE_cps.c ****     else if(charIndex >= CYBLE_CPS_CHAR_COUNT)
 1521              		.loc 1 693 0
 1522 0036 0B23     		mov	r3, #11
 1523 0038 FB18     		add	r3, r7, r3
 1524 003a 1B78     		ldrb	r3, [r3]
 1525 003c 042B     		cmp	r3, #4
 1526 003e 04D9     		bls	.L74
 694:.\Generated_Source\PSoC4/BLE_cps.c ****     {
 695:.\Generated_Source\PSoC4/BLE_cps.c ****         apiResult = CYBLE_ERROR_INVALID_PARAMETER;
 1527              		.loc 1 695 0
 1528 0040 1E23     		mov	r3, #30
 1529 0042 FB18     		add	r3, r7, r3
 1530 0044 0122     		mov	r2, #1
 1531 0046 1A80     		strh	r2, [r3]
 1532 0048 78E0     		b	.L73
 1533              	.L74:
 696:.\Generated_Source\PSoC4/BLE_cps.c ****     }
 697:.\Generated_Source\PSoC4/BLE_cps.c ****     else if(cyBle_cpss.charInfo[charIndex].charHandle == CYBLE_GATT_INVALID_ATTR_HANDLE_VALUE)
 1534              		.loc 1 697 0
 1535 004a 0B23     		mov	r3, #11
 1536 004c FB18     		add	r3, r7, r3
 1537 004e 1A78     		ldrb	r2, [r3]
 1538 0050 3F49     		ldr	r1, .L80+4
 1539 0052 131C     		mov	r3, r2
 1540 0054 5B00     		lsl	r3, r3, #1
 1541 0056 9B18     		add	r3, r3, r2
 1542 0058 5B00     		lsl	r3, r3, #1
 1543 005a CB18     		add	r3, r1, r3
 1544 005c 5B88     		ldrh	r3, [r3, #2]
 1545 005e 002B     		cmp	r3, #0
 1546 0060 04D1     		bne	.L75
 698:.\Generated_Source\PSoC4/BLE_cps.c ****     {
 699:.\Generated_Source\PSoC4/BLE_cps.c ****         apiResult = CYBLE_ERROR_GATT_DB_INVALID_ATTR_HANDLE;
 1547              		.loc 1 699 0
 1548 0062 1E23     		mov	r3, #30
 1549 0064 FB18     		add	r3, r7, r3
 1550 0066 1322     		mov	r2, #19
 1551 0068 1A80     		strh	r2, [r3]
 1552 006a 67E0     		b	.L73
 1553              	.L75:
 700:.\Generated_Source\PSoC4/BLE_cps.c ****     }
 701:.\Generated_Source\PSoC4/BLE_cps.c ****     else if((!CYBLE_IS_INDICATION_SUPPORTED(cyBle_cpss.charInfo[charIndex].charHandle)) ||
 1554              		.loc 1 701 0
 1555 006c 0B23     		mov	r3, #11
 1556 006e FB18     		add	r3, r7, r3
 1557 0070 1A78     		ldrb	r2, [r3]
 1558 0072 3749     		ldr	r1, .L80+4
 1559 0074 131C     		mov	r3, r2
 1560 0076 5B00     		lsl	r3, r3, #1
 1561 0078 9B18     		add	r3, r3, r2
ARM GAS  C:\Users\Petro\AppData\Local\Temp\cc4GPyUf.s 			page 41


 1562 007a 5B00     		lsl	r3, r3, #1
 1563 007c CB18     		add	r3, r1, r3
 1564 007e 5B88     		ldrh	r3, [r3, #2]
 1565 0080 5A1E     		sub	r2, r3, #1
 1566 0082 3449     		ldr	r1, .L80+8
 1567 0084 131C     		mov	r3, r2
 1568 0086 9B00     		lsl	r3, r3, #2
 1569 0088 9B18     		add	r3, r3, r2
 1570 008a 9B00     		lsl	r3, r3, #2
 1571 008c CB18     		add	r3, r1, r3
 1572 008e 5A68     		ldr	r2, [r3, #4]
 1573 0090 8023     		mov	r3, #128
 1574 0092 9B01     		lsl	r3, r3, #6
 1575 0094 1340     		and	r3, r2
 1576 0096 1DD0     		beq	.L76
 702:.\Generated_Source\PSoC4/BLE_cps.c ****             (!CYBLE_IS_INDICATION_ENABLED(cyBle_cpss.charInfo[charIndex].descrHandle[CYBLE_CPS_CCCD
 1577              		.loc 1 702 0 discriminator 1
 1578 0098 0B23     		mov	r3, #11
 1579 009a FB18     		add	r3, r7, r3
 1580 009c 1A78     		ldrb	r2, [r3]
 1581 009e 2C49     		ldr	r1, .L80+4
 1582 00a0 131C     		mov	r3, r2
 1583 00a2 5B00     		lsl	r3, r3, #1
 1584 00a4 9B18     		add	r3, r3, r2
 1585 00a6 5B00     		lsl	r3, r3, #1
 1586 00a8 CB18     		add	r3, r1, r3
 1587 00aa 9B88     		ldrh	r3, [r3, #4]
 1588 00ac 5A1E     		sub	r2, r3, #1
 1589 00ae 2949     		ldr	r1, .L80+8
 1590 00b0 131C     		mov	r3, r2
 1591 00b2 9B00     		lsl	r3, r3, #2
 1592 00b4 9B18     		add	r3, r3, r2
 1593 00b6 9B00     		lsl	r3, r3, #2
 1594 00b8 CB18     		add	r3, r1, r3
 1595 00ba 0833     		add	r3, r3, #8
 1596 00bc 9B68     		ldr	r3, [r3, #8]
 1597 00be 5B68     		ldr	r3, [r3, #4]
 1598 00c0 181C     		mov	r0, r3
 1599 00c2 FFF7FEFF 		bl	CyBle_Get16ByPtr
 1600 00c6 031C     		mov	r3, r0
 1601 00c8 1A1C     		mov	r2, r3
 1602 00ca 0223     		mov	r3, #2
 1603 00cc 1340     		and	r3, r2
 1604 00ce 9BB2     		uxth	r3, r3
 701:.\Generated_Source\PSoC4/BLE_cps.c ****             (!CYBLE_IS_INDICATION_ENABLED(cyBle_cpss.charInfo[charIndex].descrHandle[CYBLE_CPS_CCCD
 1605              		.loc 1 701 0 discriminator 1
 1606 00d0 002B     		cmp	r3, #0
 1607 00d2 05D1     		bne	.L77
 1608              	.L76:
 703:.\Generated_Source\PSoC4/BLE_cps.c ****     {
 704:.\Generated_Source\PSoC4/BLE_cps.c ****         apiResult = CYBLE_ERROR_IND_DISABLED;
 1609              		.loc 1 704 0
 1610 00d4 1E23     		mov	r3, #30
 1611 00d6 FB18     		add	r3, r7, r3
 1612 00d8 0222     		mov	r2, #2
 1613 00da FF32     		add	r2, r2, #255
 1614 00dc 1A80     		strh	r2, [r3]
ARM GAS  C:\Users\Petro\AppData\Local\Temp\cc4GPyUf.s 			page 42


 1615 00de 2DE0     		b	.L73
 1616              	.L77:
 1617              	.LBB5:
 705:.\Generated_Source\PSoC4/BLE_cps.c ****     }
 706:.\Generated_Source\PSoC4/BLE_cps.c ****     else
 707:.\Generated_Source\PSoC4/BLE_cps.c ****     {
 708:.\Generated_Source\PSoC4/BLE_cps.c ****         CYBLE_GATTS_HANDLE_VALUE_IND_T indReqParam;
 709:.\Generated_Source\PSoC4/BLE_cps.c ****         
 710:.\Generated_Source\PSoC4/BLE_cps.c ****         /* Fill all fields of write request structure ... */
 711:.\Generated_Source\PSoC4/BLE_cps.c ****         indReqParam.attrHandle = cyBle_cpss.charInfo[charIndex].charHandle;
 1618              		.loc 1 711 0
 1619 00e0 0B23     		mov	r3, #11
 1620 00e2 FB18     		add	r3, r7, r3
 1621 00e4 1A78     		ldrb	r2, [r3]
 1622 00e6 1A49     		ldr	r1, .L80+4
 1623 00e8 131C     		mov	r3, r2
 1624 00ea 5B00     		lsl	r3, r3, #1
 1625 00ec 9B18     		add	r3, r3, r2
 1626 00ee 5B00     		lsl	r3, r3, #1
 1627 00f0 CB18     		add	r3, r1, r3
 1628 00f2 5A88     		ldrh	r2, [r3, #2]
 1629 00f4 1023     		mov	r3, #16
 1630 00f6 FB18     		add	r3, r7, r3
 1631 00f8 1A81     		strh	r2, [r3, #8]
 712:.\Generated_Source\PSoC4/BLE_cps.c ****         indReqParam.value.val = attrValue;
 1632              		.loc 1 712 0
 1633 00fa 1023     		mov	r3, #16
 1634 00fc FB18     		add	r3, r7, r3
 1635 00fe 7A68     		ldr	r2, [r7, #4]
 1636 0100 1A60     		str	r2, [r3]
 713:.\Generated_Source\PSoC4/BLE_cps.c ****         indReqParam.value.len = attrSize;
 1637              		.loc 1 713 0
 1638 0102 0A23     		mov	r3, #10
 1639 0104 FB18     		add	r3, r7, r3
 1640 0106 1B78     		ldrb	r3, [r3]
 1641 0108 9AB2     		uxth	r2, r3
 1642 010a 1023     		mov	r3, #16
 1643 010c FB18     		add	r3, r7, r3
 1644 010e 9A80     		strh	r2, [r3, #4]
 714:.\Generated_Source\PSoC4/BLE_cps.c ****         
 715:.\Generated_Source\PSoC4/BLE_cps.c ****         /* Send indication to Client using previously filled structure */
 716:.\Generated_Source\PSoC4/BLE_cps.c ****         apiResult = CyBle_GattsIndication(connHandle, &indReqParam);
 1645              		.loc 1 716 0
 1646 0110 1E23     		mov	r3, #30
 1647 0112 FC18     		add	r4, r7, r3
 1648 0114 0C23     		mov	r3, #12
 1649 0116 FB18     		add	r3, r7, r3
 1650 0118 1022     		mov	r2, #16
 1651 011a BA18     		add	r2, r7, r2
 1652 011c 1868     		ldr	r0, [r3]
 1653 011e 111C     		mov	r1, r2
 1654 0120 FFF7FEFF 		bl	CyBle_GattsIndication
 1655 0124 031C     		mov	r3, r0
 1656 0126 2380     		strh	r3, [r4]
 717:.\Generated_Source\PSoC4/BLE_cps.c ****         /* Save handle to support service specific value confirmation response from Client */
 718:.\Generated_Source\PSoC4/BLE_cps.c ****         if(apiResult == CYBLE_ERROR_OK)
 1657              		.loc 1 718 0
ARM GAS  C:\Users\Petro\AppData\Local\Temp\cc4GPyUf.s 			page 43


 1658 0128 1E23     		mov	r3, #30
 1659 012a FB18     		add	r3, r7, r3
 1660 012c 1B88     		ldrh	r3, [r3]
 1661 012e 002B     		cmp	r3, #0
 1662 0130 04D1     		bne	.L73
 719:.\Generated_Source\PSoC4/BLE_cps.c ****         {
 720:.\Generated_Source\PSoC4/BLE_cps.c ****             cyBle_cpssReqHandle = indReqParam.attrHandle;
 1663              		.loc 1 720 0
 1664 0132 1023     		mov	r3, #16
 1665 0134 FB18     		add	r3, r7, r3
 1666 0136 1A89     		ldrh	r2, [r3, #8]
 1667 0138 074B     		ldr	r3, .L80+12
 1668 013a 1A80     		strh	r2, [r3]
 1669              	.L73:
 1670              	.LBE5:
 721:.\Generated_Source\PSoC4/BLE_cps.c ****         }
 722:.\Generated_Source\PSoC4/BLE_cps.c ****     }
 723:.\Generated_Source\PSoC4/BLE_cps.c ****     return (apiResult);
 1671              		.loc 1 723 0
 1672 013c 1E23     		mov	r3, #30
 1673 013e FB18     		add	r3, r7, r3
 1674 0140 1B88     		ldrh	r3, [r3]
 724:.\Generated_Source\PSoC4/BLE_cps.c **** }
 1675              		.loc 1 724 0
 1676 0142 181C     		mov	r0, r3
 1677 0144 BD46     		mov	sp, r7
 1678 0146 09B0     		add	sp, sp, #36
 1679              		@ sp needed
 1680 0148 90BD     		pop	{r4, r7, pc}
 1681              	.L81:
 1682 014a C046     		.align	2
 1683              	.L80:
 1684 014c 00000000 		.word	cyBle_state
 1685 0150 00000000 		.word	cyBle_cpss
 1686 0154 00000000 		.word	cyBle_gattDB
 1687 0158 04000000 		.word	cyBle_cpssReqHandle
 1688              		.cfi_endproc
 1689              	.LFE11:
 1690              		.size	CyBle_CpssSendIndication, .-CyBle_CpssSendIndication
 1691              		.section	.text.CyBle_CpssConfirmationEventHandler,"ax",%progbits
 1692              		.align	2
 1693              		.global	CyBle_CpssConfirmationEventHandler
 1694              		.code	16
 1695              		.thumb_func
 1696              		.type	CyBle_CpssConfirmationEventHandler, %function
 1697              	CyBle_CpssConfirmationEventHandler:
 1698              	.LFB12:
 725:.\Generated_Source\PSoC4/BLE_cps.c **** 
 726:.\Generated_Source\PSoC4/BLE_cps.c **** 
 727:.\Generated_Source\PSoC4/BLE_cps.c **** /****************************************************************************** 
 728:.\Generated_Source\PSoC4/BLE_cps.c **** * Function Name: CyBle_CpssConfirmationEventHandler
 729:.\Generated_Source\PSoC4/BLE_cps.c **** ***************************************************************************//**
 730:.\Generated_Source\PSoC4/BLE_cps.c **** * 
 731:.\Generated_Source\PSoC4/BLE_cps.c **** *  Handles a Value Confirmation request event from the BLE stack.
 732:.\Generated_Source\PSoC4/BLE_cps.c **** * 
 733:.\Generated_Source\PSoC4/BLE_cps.c **** *  *eventParam - Pointer to a structure of type 'CYBLE_CONN_HANDLE_T'.
 734:.\Generated_Source\PSoC4/BLE_cps.c **** * 
ARM GAS  C:\Users\Petro\AppData\Local\Temp\cc4GPyUf.s 			page 44


 735:.\Generated_Source\PSoC4/BLE_cps.c **** * \return
 736:.\Generated_Source\PSoC4/BLE_cps.c **** *  None.
 737:.\Generated_Source\PSoC4/BLE_cps.c **** * 
 738:.\Generated_Source\PSoC4/BLE_cps.c **** ******************************************************************************/
 739:.\Generated_Source\PSoC4/BLE_cps.c **** void CyBle_CpssConfirmationEventHandler(const CYBLE_CONN_HANDLE_T *eventParam)
 740:.\Generated_Source\PSoC4/BLE_cps.c **** {
 1699              		.loc 1 740 0
 1700              		.cfi_startproc
 1701 0000 80B5     		push	{r7, lr}
 1702              		.cfi_def_cfa_offset 8
 1703              		.cfi_offset 7, -8
 1704              		.cfi_offset 14, -4
 1705 0002 86B0     		sub	sp, sp, #24
 1706              		.cfi_def_cfa_offset 32
 1707 0004 00AF     		add	r7, sp, #0
 1708              		.cfi_def_cfa_register 7
 1709 0006 7860     		str	r0, [r7, #4]
 741:.\Generated_Source\PSoC4/BLE_cps.c ****     CYBLE_CPS_CHAR_INDEX_T locCharIndex;
 742:.\Generated_Source\PSoC4/BLE_cps.c ****     CYBLE_CPS_CHAR_VALUE_T locCharValue;
 743:.\Generated_Source\PSoC4/BLE_cps.c ****     uint8 locReqHandle = 0u;
 1710              		.loc 1 743 0
 1711 0008 1623     		mov	r3, #22
 1712 000a FB18     		add	r3, r7, r3
 1713 000c 0022     		mov	r2, #0
 1714 000e 1A70     		strb	r2, [r3]
 744:.\Generated_Source\PSoC4/BLE_cps.c **** 
 745:.\Generated_Source\PSoC4/BLE_cps.c ****     if((NULL != CyBle_CpsApplCallback) && (CYBLE_GATT_INVALID_ATTR_HANDLE_VALUE != cyBle_cpssReqHan
 1715              		.loc 1 745 0
 1716 0010 334B     		ldr	r3, .L88
 1717 0012 1B68     		ldr	r3, [r3]
 1718 0014 002B     		cmp	r3, #0
 1719 0016 60D0     		beq	.L82
 1720              		.loc 1 745 0 is_stmt 0 discriminator 1
 1721 0018 324B     		ldr	r3, .L88+4
 1722 001a 1B88     		ldrh	r3, [r3]
 1723 001c 002B     		cmp	r3, #0
 1724 001e 5CD0     		beq	.L82
 746:.\Generated_Source\PSoC4/BLE_cps.c ****     {
 747:.\Generated_Source\PSoC4/BLE_cps.c ****         for(locCharIndex = CYBLE_CPS_POWER_MEASURE; (locCharIndex < CYBLE_CPS_CHAR_COUNT) && (locRe
 1725              		.loc 1 747 0 is_stmt 1
 1726 0020 1723     		mov	r3, #23
 1727 0022 FB18     		add	r3, r7, r3
 1728 0024 0022     		mov	r2, #0
 1729 0026 1A70     		strb	r2, [r3]
 1730 0028 4DE0     		b	.L84
 1731              	.L87:
 748:.\Generated_Source\PSoC4/BLE_cps.c ****             locCharIndex++)
 749:.\Generated_Source\PSoC4/BLE_cps.c ****         {
 750:.\Generated_Source\PSoC4/BLE_cps.c ****             if(cyBle_cpssReqHandle == cyBle_cpss.charInfo[locCharIndex].charHandle)
 1732              		.loc 1 750 0
 1733 002a 1723     		mov	r3, #23
 1734 002c FB18     		add	r3, r7, r3
 1735 002e 1A78     		ldrb	r2, [r3]
 1736 0030 2D49     		ldr	r1, .L88+8
 1737 0032 131C     		mov	r3, r2
 1738 0034 5B00     		lsl	r3, r3, #1
 1739 0036 9B18     		add	r3, r3, r2
ARM GAS  C:\Users\Petro\AppData\Local\Temp\cc4GPyUf.s 			page 45


 1740 0038 5B00     		lsl	r3, r3, #1
 1741 003a CB18     		add	r3, r1, r3
 1742 003c 5A88     		ldrh	r2, [r3, #2]
 1743 003e 294B     		ldr	r3, .L88+4
 1744 0040 1B88     		ldrh	r3, [r3]
 1745 0042 9A42     		cmp	r2, r3
 1746 0044 38D1     		bne	.L85
 751:.\Generated_Source\PSoC4/BLE_cps.c ****             {
 752:.\Generated_Source\PSoC4/BLE_cps.c ****                 locCharValue.connHandle = *eventParam;
 1747              		.loc 1 752 0
 1748 0046 0C23     		mov	r3, #12
 1749 0048 FA18     		add	r2, r7, r3
 1750 004a 7B68     		ldr	r3, [r7, #4]
 1751 004c 111C     		mov	r1, r2
 1752 004e 1A1C     		mov	r2, r3
 1753 0050 0223     		mov	r3, #2
 1754 0052 081C     		mov	r0, r1
 1755 0054 111C     		mov	r1, r2
 1756 0056 1A1C     		mov	r2, r3
 1757 0058 FFF7FEFF 		bl	memcpy
 753:.\Generated_Source\PSoC4/BLE_cps.c ****                 locCharValue.charIndex = locCharIndex;
 1758              		.loc 1 753 0
 1759 005c 0C23     		mov	r3, #12
 1760 005e FB18     		add	r3, r7, r3
 1761 0060 1722     		mov	r2, #23
 1762 0062 BA18     		add	r2, r7, r2
 1763 0064 1278     		ldrb	r2, [r2]
 1764 0066 9A70     		strb	r2, [r3, #2]
 754:.\Generated_Source\PSoC4/BLE_cps.c ****                 locCharValue.value = NULL;
 1765              		.loc 1 754 0
 1766 0068 0C23     		mov	r3, #12
 1767 006a FB18     		add	r3, r7, r3
 1768 006c 0022     		mov	r2, #0
 1769 006e 5A60     		str	r2, [r3, #4]
 755:.\Generated_Source\PSoC4/BLE_cps.c ****                 cyBle_eventHandlerFlag &= (uint8)~CYBLE_CALLBACK;
 1770              		.loc 1 755 0
 1771 0070 1E4B     		ldr	r3, .L88+12
 1772 0072 1B78     		ldrb	r3, [r3]
 1773 0074 DBB2     		uxtb	r3, r3
 1774 0076 0122     		mov	r2, #1
 1775 0078 9343     		bic	r3, r2
 1776 007a DAB2     		uxtb	r2, r3
 1777 007c 1B4B     		ldr	r3, .L88+12
 1778 007e 1A70     		strb	r2, [r3]
 756:.\Generated_Source\PSoC4/BLE_cps.c ****                 cyBle_cpssReqHandle = CYBLE_GATT_INVALID_ATTR_HANDLE_VALUE;
 1779              		.loc 1 756 0
 1780 0080 184B     		ldr	r3, .L88+4
 1781 0082 0022     		mov	r2, #0
 1782 0084 1A80     		strh	r2, [r3]
 757:.\Generated_Source\PSoC4/BLE_cps.c ****                 /* The Cycling Power Control Point procedure is complete when the Server indicated 
 758:.\Generated_Source\PSoC4/BLE_cps.c ****                    set to Response Code.
 759:.\Generated_Source\PSoC4/BLE_cps.c ****                 */
 760:.\Generated_Source\PSoC4/BLE_cps.c ****                 if(locCharIndex == CYBLE_CPS_POWER_CP)
 1783              		.loc 1 760 0
 1784 0086 1723     		mov	r3, #23
 1785 0088 FB18     		add	r3, r7, r3
 1786 008a 1B78     		ldrb	r3, [r3]
ARM GAS  C:\Users\Petro\AppData\Local\Temp\cc4GPyUf.s 			page 46


 1787 008c 042B     		cmp	r3, #4
 1788 008e 06D1     		bne	.L86
 761:.\Generated_Source\PSoC4/BLE_cps.c ****                 {
 762:.\Generated_Source\PSoC4/BLE_cps.c ****                     cyBle_cpssFlag &= (uint8)~CYBLE_CPSS_FLAG_CP_PROCEDURE_IN_PROGRESS;
 1789              		.loc 1 762 0
 1790 0090 174B     		ldr	r3, .L88+16
 1791 0092 1B78     		ldrb	r3, [r3]
 1792 0094 0122     		mov	r2, #1
 1793 0096 9343     		bic	r3, r2
 1794 0098 DAB2     		uxtb	r2, r3
 1795 009a 154B     		ldr	r3, .L88+16
 1796 009c 1A70     		strb	r2, [r3]
 1797              	.L86:
 763:.\Generated_Source\PSoC4/BLE_cps.c ****                 }
 764:.\Generated_Source\PSoC4/BLE_cps.c ****                 CyBle_CpsApplCallback((uint32)CYBLE_EVT_CPSS_INDICATION_CONFIRMED, &locCharValue);
 1798              		.loc 1 764 0
 1799 009e 104B     		ldr	r3, .L88
 1800 00a0 1B68     		ldr	r3, [r3]
 1801 00a2 A722     		mov	r2, #167
 1802 00a4 5100     		lsl	r1, r2, #1
 1803 00a6 0C22     		mov	r2, #12
 1804 00a8 BA18     		add	r2, r7, r2
 1805 00aa 081C     		mov	r0, r1
 1806 00ac 111C     		mov	r1, r2
 1807 00ae 9847     		blx	r3
 765:.\Generated_Source\PSoC4/BLE_cps.c ****                 locReqHandle = 1u;
 1808              		.loc 1 765 0
 1809 00b0 1623     		mov	r3, #22
 1810 00b2 FB18     		add	r3, r7, r3
 1811 00b4 0122     		mov	r2, #1
 1812 00b6 1A70     		strb	r2, [r3]
 1813              	.L85:
 748:.\Generated_Source\PSoC4/BLE_cps.c ****         {
 1814              		.loc 1 748 0
 1815 00b8 1723     		mov	r3, #23
 1816 00ba FB18     		add	r3, r7, r3
 1817 00bc 1A78     		ldrb	r2, [r3]
 1818 00be 1723     		mov	r3, #23
 1819 00c0 FB18     		add	r3, r7, r3
 1820 00c2 0132     		add	r2, r2, #1
 1821 00c4 1A70     		strb	r2, [r3]
 1822              	.L84:
 747:.\Generated_Source\PSoC4/BLE_cps.c ****             locCharIndex++)
 1823              		.loc 1 747 0 discriminator 1
 1824 00c6 1723     		mov	r3, #23
 1825 00c8 FB18     		add	r3, r7, r3
 1826 00ca 1B78     		ldrb	r3, [r3]
 1827 00cc 042B     		cmp	r3, #4
 1828 00ce 04D8     		bhi	.L82
 747:.\Generated_Source\PSoC4/BLE_cps.c ****             locCharIndex++)
 1829              		.loc 1 747 0 is_stmt 0 discriminator 2
 1830 00d0 1623     		mov	r3, #22
 1831 00d2 FB18     		add	r3, r7, r3
 1832 00d4 1B78     		ldrb	r3, [r3]
 1833 00d6 002B     		cmp	r3, #0
 1834 00d8 A7D0     		beq	.L87
 1835              	.L82:
ARM GAS  C:\Users\Petro\AppData\Local\Temp\cc4GPyUf.s 			page 47


 766:.\Generated_Source\PSoC4/BLE_cps.c ****             }
 767:.\Generated_Source\PSoC4/BLE_cps.c ****         }
 768:.\Generated_Source\PSoC4/BLE_cps.c ****     }
 769:.\Generated_Source\PSoC4/BLE_cps.c **** }
 1836              		.loc 1 769 0 is_stmt 1
 1837 00da BD46     		mov	sp, r7
 1838 00dc 06B0     		add	sp, sp, #24
 1839              		@ sp needed
 1840 00de 80BD     		pop	{r7, pc}
 1841              	.L89:
 1842              		.align	2
 1843              	.L88:
 1844 00e0 00000000 		.word	CyBle_CpsApplCallback
 1845 00e4 04000000 		.word	cyBle_cpssReqHandle
 1846 00e8 00000000 		.word	cyBle_cpss
 1847 00ec 00000000 		.word	cyBle_eventHandlerFlag
 1848 00f0 06000000 		.word	cyBle_cpssFlag
 1849              		.cfi_endproc
 1850              	.LFE12:
 1851              		.size	CyBle_CpssConfirmationEventHandler, .-CyBle_CpssConfirmationEventHandler
 1852              		.section	.text.CyBle_CpssConnParamUpdateRspEventHandler,"ax",%progbits
 1853              		.align	2
 1854              		.global	CyBle_CpssConnParamUpdateRspEventHandler
 1855              		.code	16
 1856              		.thumb_func
 1857              		.type	CyBle_CpssConnParamUpdateRspEventHandler, %function
 1858              	CyBle_CpssConnParamUpdateRspEventHandler:
 1859              	.LFB13:
 770:.\Generated_Source\PSoC4/BLE_cps.c **** 
 771:.\Generated_Source\PSoC4/BLE_cps.c **** 
 772:.\Generated_Source\PSoC4/BLE_cps.c **** /****************************************************************************** 
 773:.\Generated_Source\PSoC4/BLE_cps.c **** * Function Name: CyBle_CpssConnParamUpdateRspEventHandler
 774:.\Generated_Source\PSoC4/BLE_cps.c **** ***************************************************************************//**
 775:.\Generated_Source\PSoC4/BLE_cps.c **** * 
 776:.\Generated_Source\PSoC4/BLE_cps.c **** *  Handles the L2CAP connection parameter response event from
 777:.\Generated_Source\PSoC4/BLE_cps.c **** *  the BLE stack.
 778:.\Generated_Source\PSoC4/BLE_cps.c **** * 
 779:.\Generated_Source\PSoC4/BLE_cps.c **** *  \param uint16 response:
 780:.\Generated_Source\PSoC4/BLE_cps.c **** *      * Accepted = 0x0000
 781:.\Generated_Source\PSoC4/BLE_cps.c **** *      * Rejected = 0x0001
 782:.\Generated_Source\PSoC4/BLE_cps.c **** * 
 783:.\Generated_Source\PSoC4/BLE_cps.c **** * \return
 784:.\Generated_Source\PSoC4/BLE_cps.c **** *  None.
 785:.\Generated_Source\PSoC4/BLE_cps.c **** * 
 786:.\Generated_Source\PSoC4/BLE_cps.c **** ******************************************************************************/
 787:.\Generated_Source\PSoC4/BLE_cps.c **** void CyBle_CpssConnParamUpdateRspEventHandler(uint16 response)
 788:.\Generated_Source\PSoC4/BLE_cps.c **** {
 1860              		.loc 1 788 0
 1861              		.cfi_startproc
 1862 0000 80B5     		push	{r7, lr}
 1863              		.cfi_def_cfa_offset 8
 1864              		.cfi_offset 7, -8
 1865              		.cfi_offset 14, -4
 1866 0002 88B0     		sub	sp, sp, #32
 1867              		.cfi_def_cfa_offset 40
 1868 0004 00AF     		add	r7, sp, #0
 1869              		.cfi_def_cfa_register 7
ARM GAS  C:\Users\Petro\AppData\Local\Temp\cc4GPyUf.s 			page 48


 1870 0006 021C     		mov	r2, r0
 1871 0008 BB1D     		add	r3, r7, #6
 1872 000a 1A80     		strh	r2, [r3]
 789:.\Generated_Source\PSoC4/BLE_cps.c ****     if((cyBle_cpssFlag & CYBLE_CPSS_FLAG_PV_PROCEDURE_IN_PROGRESS) != 0u)
 1873              		.loc 1 789 0
 1874 000c 344B     		ldr	r3, .L93
 1875 000e 1B78     		ldrb	r3, [r3]
 1876 0010 1A1C     		mov	r2, r3
 1877 0012 0223     		mov	r3, #2
 1878 0014 1340     		and	r3, r2
 1879 0016 5FD0     		beq	.L90
 790:.\Generated_Source\PSoC4/BLE_cps.c ****     {
 791:.\Generated_Source\PSoC4/BLE_cps.c ****         cyBle_cpssFlag &= (uint8)~CYBLE_CPSS_FLAG_PV_PROCEDURE_IN_PROGRESS;
 1880              		.loc 1 791 0
 1881 0018 314B     		ldr	r3, .L93
 1882 001a 1B78     		ldrb	r3, [r3]
 1883 001c 0222     		mov	r2, #2
 1884 001e 9343     		bic	r3, r2
 1885 0020 DAB2     		uxtb	r2, r3
 1886 0022 2F4B     		ldr	r3, .L93
 1887 0024 1A70     		strb	r2, [r3]
 792:.\Generated_Source\PSoC4/BLE_cps.c ****         if(response != 0u)
 1888              		.loc 1 792 0
 1889 0026 BB1D     		add	r3, r7, #6
 1890 0028 1B88     		ldrh	r3, [r3]
 1891 002a 002B     		cmp	r3, #0
 1892 002c 1CD0     		beq	.L92
 1893              	.LBB6:
 793:.\Generated_Source\PSoC4/BLE_cps.c ****         {
 794:.\Generated_Source\PSoC4/BLE_cps.c ****             /* If the Client does not change the connection parameters Server shall return an ATT E
 795:.\Generated_Source\PSoC4/BLE_cps.c ****                to the Write Request with an Error Code set to the Application Error Code 0x80 
 796:.\Generated_Source\PSoC4/BLE_cps.c ****                (Inappropriate Connection Parameters). */
 797:.\Generated_Source\PSoC4/BLE_cps.c ****             CYBLE_GATTS_ERR_PARAM_T err_param;
 798:.\Generated_Source\PSoC4/BLE_cps.c ****             
 799:.\Generated_Source\PSoC4/BLE_cps.c ****             err_param.opcode = (uint8) CYBLE_GATT_WRITE_REQ;
 1894              		.loc 1 799 0
 1895 002e 1C23     		mov	r3, #28
 1896 0030 FB18     		add	r3, r7, r3
 1897 0032 1222     		mov	r2, #18
 1898 0034 9A70     		strb	r2, [r3, #2]
 800:.\Generated_Source\PSoC4/BLE_cps.c ****             err_param.attrHandle = cyBle_cpss.charInfo[CYBLE_CPS_POWER_VECTOR].descrHandle[CYBLE_CP
 1899              		.loc 1 800 0
 1900 0036 1722     		mov	r2, #23
 1901 0038 1C23     		mov	r3, #28
 1902 003a FB18     		add	r3, r7, r3
 1903 003c 1A80     		strh	r2, [r3]
 801:.\Generated_Source\PSoC4/BLE_cps.c ****             err_param.errorCode = CYBLE_GATT_ERR_CPS_INAPPROPRIATE_CONNECTION_PARAMETERS;
 1904              		.loc 1 801 0
 1905 003e 1C23     		mov	r3, #28
 1906 0040 FB18     		add	r3, r7, r3
 1907 0042 8022     		mov	r2, #128
 1908 0044 DA70     		strb	r2, [r3, #3]
 802:.\Generated_Source\PSoC4/BLE_cps.c **** 
 803:.\Generated_Source\PSoC4/BLE_cps.c ****             /* Send Error Response */
 804:.\Generated_Source\PSoC4/BLE_cps.c ****             (void)CyBle_GattsErrorRsp(cyBle_connHandle, &err_param);
 1909              		.loc 1 804 0
 1910 0046 274B     		ldr	r3, .L93+4
ARM GAS  C:\Users\Petro\AppData\Local\Temp\cc4GPyUf.s 			page 49


 1911 0048 1C22     		mov	r2, #28
 1912 004a B918     		add	r1, r7, r2
 1913 004c 1A78     		ldrb	r2, [r3]
 1914 004e 5B78     		ldrb	r3, [r3, #1]
 1915 0050 1B02     		lsl	r3, r3, #8
 1916 0052 1A43     		orr	r2, r3
 1917 0054 0023     		mov	r3, #0
 1918 0056 1204     		lsl	r2, r2, #16
 1919 0058 120C     		lsr	r2, r2, #16
 1920 005a 1B0C     		lsr	r3, r3, #16
 1921 005c 1B04     		lsl	r3, r3, #16
 1922 005e 1343     		orr	r3, r2
 1923 0060 181C     		mov	r0, r3
 1924 0062 FFF7FEFF 		bl	CyBle_GattsErrorRsp
 1925              	.LBE6:
 1926 0066 37E0     		b	.L90
 1927              	.L92:
 1928              	.LBB7:
 805:.\Generated_Source\PSoC4/BLE_cps.c ****         }
 806:.\Generated_Source\PSoC4/BLE_cps.c ****         else
 807:.\Generated_Source\PSoC4/BLE_cps.c ****         {
 808:.\Generated_Source\PSoC4/BLE_cps.c ****             CYBLE_CPS_CHAR_VALUE_T locCharValue;
 809:.\Generated_Source\PSoC4/BLE_cps.c ****             CYBLE_GATT_VALUE_T locValue;
 810:.\Generated_Source\PSoC4/BLE_cps.c ****             uint16 locVal = CYBLE_CCCD_NOTIFICATION;
 1929              		.loc 1 810 0
 1930 0068 0A23     		mov	r3, #10
 1931 006a FB18     		add	r3, r7, r3
 1932 006c 0122     		mov	r2, #1
 1933 006e 1A80     		strh	r2, [r3]
 811:.\Generated_Source\PSoC4/BLE_cps.c ****             
 812:.\Generated_Source\PSoC4/BLE_cps.c ****             /* Otherwise, the Server shall respond with a Write Response and start sending notifica
 813:.\Generated_Source\PSoC4/BLE_cps.c ****                of the Cycling Power Vector characteristic. */
 814:.\Generated_Source\PSoC4/BLE_cps.c ****             (void)CyBle_GattsWriteRsp(cyBle_connHandle);
 1934              		.loc 1 814 0
 1935 0070 1C4B     		ldr	r3, .L93+4
 1936 0072 1A78     		ldrb	r2, [r3]
 1937 0074 5B78     		ldrb	r3, [r3, #1]
 1938 0076 1B02     		lsl	r3, r3, #8
 1939 0078 1A43     		orr	r2, r3
 1940 007a 0023     		mov	r3, #0
 1941 007c 1204     		lsl	r2, r2, #16
 1942 007e 120C     		lsr	r2, r2, #16
 1943 0080 1B0C     		lsr	r3, r3, #16
 1944 0082 1B04     		lsl	r3, r3, #16
 1945 0084 1343     		orr	r3, r2
 1946 0086 181C     		mov	r0, r3
 1947 0088 FFF7FEFF 		bl	CyBle_GattsWriteRsp
 815:.\Generated_Source\PSoC4/BLE_cps.c ****             
 816:.\Generated_Source\PSoC4/BLE_cps.c ****             locCharValue.connHandle = cyBle_connHandle;
 1948              		.loc 1 816 0
 1949 008c 1423     		mov	r3, #20
 1950 008e FA18     		add	r2, r7, r3
 1951 0090 144B     		ldr	r3, .L93+4
 1952 0092 111C     		mov	r1, r2
 1953 0094 1A1C     		mov	r2, r3
 1954 0096 0223     		mov	r3, #2
 1955 0098 081C     		mov	r0, r1
ARM GAS  C:\Users\Petro\AppData\Local\Temp\cc4GPyUf.s 			page 50


 1956 009a 111C     		mov	r1, r2
 1957 009c 1A1C     		mov	r2, r3
 1958 009e FFF7FEFF 		bl	memcpy
 817:.\Generated_Source\PSoC4/BLE_cps.c ****             locCharValue.charIndex = CYBLE_CPS_POWER_VECTOR;
 1959              		.loc 1 817 0
 1960 00a2 1423     		mov	r3, #20
 1961 00a4 FB18     		add	r3, r7, r3
 1962 00a6 0322     		mov	r2, #3
 1963 00a8 9A70     		strb	r2, [r3, #2]
 818:.\Generated_Source\PSoC4/BLE_cps.c ****             locValue.len = CYBLE_CCCD_LEN;
 1964              		.loc 1 818 0
 1965 00aa 0C23     		mov	r3, #12
 1966 00ac FB18     		add	r3, r7, r3
 1967 00ae 0222     		mov	r2, #2
 1968 00b0 9A80     		strh	r2, [r3, #4]
 819:.\Generated_Source\PSoC4/BLE_cps.c ****             locValue.val = (uint8 *)&locVal;
 1969              		.loc 1 819 0
 1970 00b2 0C23     		mov	r3, #12
 1971 00b4 FB18     		add	r3, r7, r3
 1972 00b6 0A22     		mov	r2, #10
 1973 00b8 BA18     		add	r2, r7, r2
 1974 00ba 1A60     		str	r2, [r3]
 820:.\Generated_Source\PSoC4/BLE_cps.c ****             locCharValue.value = &locValue;
 1975              		.loc 1 820 0
 1976 00bc 1423     		mov	r3, #20
 1977 00be FB18     		add	r3, r7, r3
 1978 00c0 0C22     		mov	r2, #12
 1979 00c2 BA18     		add	r2, r7, r2
 1980 00c4 5A60     		str	r2, [r3, #4]
 821:.\Generated_Source\PSoC4/BLE_cps.c ****             
 822:.\Generated_Source\PSoC4/BLE_cps.c ****             CyBle_CpsApplCallback((uint32)CYBLE_EVT_CPSS_NOTIFICATION_ENABLED, &locCharValue);
 1981              		.loc 1 822 0
 1982 00c6 084B     		ldr	r3, .L93+8
 1983 00c8 1B68     		ldr	r3, [r3]
 1984 00ca A522     		mov	r2, #165
 1985 00cc 5100     		lsl	r1, r2, #1
 1986 00ce 1422     		mov	r2, #20
 1987 00d0 BA18     		add	r2, r7, r2
 1988 00d2 081C     		mov	r0, r1
 1989 00d4 111C     		mov	r1, r2
 1990 00d6 9847     		blx	r3
 1991              	.L90:
 1992              	.LBE7:
 823:.\Generated_Source\PSoC4/BLE_cps.c ****             
 824:.\Generated_Source\PSoC4/BLE_cps.c ****         }
 825:.\Generated_Source\PSoC4/BLE_cps.c ****     }
 826:.\Generated_Source\PSoC4/BLE_cps.c **** }
 1993              		.loc 1 826 0
 1994 00d8 BD46     		mov	sp, r7
 1995 00da 08B0     		add	sp, sp, #32
 1996              		@ sp needed
 1997 00dc 80BD     		pop	{r7, pc}
 1998              	.L94:
 1999 00de C046     		.align	2
 2000              	.L93:
 2001 00e0 06000000 		.word	cyBle_cpssFlag
 2002 00e4 00000000 		.word	cyBle_connHandle
ARM GAS  C:\Users\Petro\AppData\Local\Temp\cc4GPyUf.s 			page 51


 2003 00e8 00000000 		.word	CyBle_CpsApplCallback
 2004              		.cfi_endproc
 2005              	.LFE13:
 2006              		.size	CyBle_CpssConnParamUpdateRspEventHandler, .-CyBle_CpssConnParamUpdateRspEventHandler
 2007              		.section	.text.CyBle_CpssConnUpdateCompleteEventHandler,"ax",%progbits
 2008              		.align	2
 2009              		.global	CyBle_CpssConnUpdateCompleteEventHandler
 2010              		.code	16
 2011              		.thumb_func
 2012              		.type	CyBle_CpssConnUpdateCompleteEventHandler, %function
 2013              	CyBle_CpssConnUpdateCompleteEventHandler:
 2014              	.LFB14:
 827:.\Generated_Source\PSoC4/BLE_cps.c **** 
 828:.\Generated_Source\PSoC4/BLE_cps.c **** 
 829:.\Generated_Source\PSoC4/BLE_cps.c **** /****************************************************************************** 
 830:.\Generated_Source\PSoC4/BLE_cps.c **** * Function Name: CyBle_CpssConnUpdateCompleteEventHandler
 831:.\Generated_Source\PSoC4/BLE_cps.c **** ***************************************************************************//**
 832:.\Generated_Source\PSoC4/BLE_cps.c **** * 
 833:.\Generated_Source\PSoC4/BLE_cps.c **** *  Handles the CYBLE_EVT_GAP_CONNECTION_UPDATE_COMPLETE event from
 834:.\Generated_Source\PSoC4/BLE_cps.c **** *  the BLE stack.
 835:.\Generated_Source\PSoC4/BLE_cps.c **** * 
 836:.\Generated_Source\PSoC4/BLE_cps.c **** *  \param eventParam: The pointer to the data structure specified by the event.
 837:.\Generated_Source\PSoC4/BLE_cps.c **** * 
 838:.\Generated_Source\PSoC4/BLE_cps.c **** * \return
 839:.\Generated_Source\PSoC4/BLE_cps.c **** *  None.
 840:.\Generated_Source\PSoC4/BLE_cps.c **** * 
 841:.\Generated_Source\PSoC4/BLE_cps.c **** ******************************************************************************/
 842:.\Generated_Source\PSoC4/BLE_cps.c **** void CyBle_CpssConnUpdateCompleteEventHandler(const CYBLE_GAP_CONN_PARAM_UPDATED_IN_CONTROLLER_T *e
 843:.\Generated_Source\PSoC4/BLE_cps.c **** {
 2015              		.loc 1 843 0
 2016              		.cfi_startproc
 2017 0000 80B5     		push	{r7, lr}
 2018              		.cfi_def_cfa_offset 8
 2019              		.cfi_offset 7, -8
 2020              		.cfi_offset 14, -4
 2021 0002 82B0     		sub	sp, sp, #8
 2022              		.cfi_def_cfa_offset 16
 2023 0004 00AF     		add	r7, sp, #0
 2024              		.cfi_def_cfa_register 7
 2025 0006 7860     		str	r0, [r7, #4]
 844:.\Generated_Source\PSoC4/BLE_cps.c ****     /* Store connection parameters */
 845:.\Generated_Source\PSoC4/BLE_cps.c ****     cyBle_cpssConnParam = *eventParam;
 2026              		.loc 1 845 0
 2027 0008 064A     		ldr	r2, .L96
 2028 000a 7B68     		ldr	r3, [r7, #4]
 2029 000c 111C     		mov	r1, r2
 2030 000e 1A1C     		mov	r2, r3
 2031 0010 0823     		mov	r3, #8
 2032 0012 081C     		mov	r0, r1
 2033 0014 111C     		mov	r1, r2
 2034 0016 1A1C     		mov	r2, r3
 2035 0018 FFF7FEFF 		bl	memcpy
 846:.\Generated_Source\PSoC4/BLE_cps.c **** }
 2036              		.loc 1 846 0
 2037 001c BD46     		mov	sp, r7
 2038 001e 02B0     		add	sp, sp, #8
 2039              		@ sp needed
ARM GAS  C:\Users\Petro\AppData\Local\Temp\cc4GPyUf.s 			page 52


 2040 0020 80BD     		pop	{r7, pc}
 2041              	.L97:
 2042 0022 C046     		.align	2
 2043              	.L96:
 2044 0024 08000000 		.word	cyBle_cpssConnParam
 2045              		.cfi_endproc
 2046              	.LFE14:
 2047              		.size	CyBle_CpssConnUpdateCompleteEventHandler, .-CyBle_CpssConnUpdateCompleteEventHandler
 2048              		.section	.text.CyBle_CpssStartBroadcast,"ax",%progbits
 2049              		.align	2
 2050              		.global	CyBle_CpssStartBroadcast
 2051              		.code	16
 2052              		.thumb_func
 2053              		.type	CyBle_CpssStartBroadcast, %function
 2054              	CyBle_CpssStartBroadcast:
 2055              	.LFB15:
 847:.\Generated_Source\PSoC4/BLE_cps.c **** 
 848:.\Generated_Source\PSoC4/BLE_cps.c **** #if CYBLE_GAP_ROLE_BROADCASTER
 849:.\Generated_Source\PSoC4/BLE_cps.c **** 
 850:.\Generated_Source\PSoC4/BLE_cps.c **** /******************************************************************************
 851:.\Generated_Source\PSoC4/BLE_cps.c **** * Function Name: CyBle_CpssStartBroadcast
 852:.\Generated_Source\PSoC4/BLE_cps.c **** ***************************************************************************//**
 853:.\Generated_Source\PSoC4/BLE_cps.c **** * 
 854:.\Generated_Source\PSoC4/BLE_cps.c **** *  This function is used to start broadcasting of the Cycling Power 
 855:.\Generated_Source\PSoC4/BLE_cps.c **** *  Measurement characteristic or update broadcasting data when it was started 
 856:.\Generated_Source\PSoC4/BLE_cps.c **** *  before. 
 857:.\Generated_Source\PSoC4/BLE_cps.c **** *  It is available only in Broadcaster role.  
 858:.\Generated_Source\PSoC4/BLE_cps.c **** * 
 859:.\Generated_Source\PSoC4/BLE_cps.c **** *  \param advInterval:     Advertising interval in 625 us units. The valid range is
 860:.\Generated_Source\PSoC4/BLE_cps.c **** *                   from CYBLE_GAP_ADV_ADVERT_INTERVAL_NONCON_MIN
 861:.\Generated_Source\PSoC4/BLE_cps.c **** *                   to CYBLE_GAP_ADV_ADVERT_INTERVAL_MAX.
 862:.\Generated_Source\PSoC4/BLE_cps.c **** *  \param attrSize:        The size of the characteristic value attribute.
 863:.\Generated_Source\PSoC4/BLE_cps.c **** *                   This size is limited by maximum advertising packet length and
 864:.\Generated_Source\PSoC4/BLE_cps.c **** *                   advertising header size.
 865:.\Generated_Source\PSoC4/BLE_cps.c **** *  \param attrValue:      The pointer to the Cycling Power Measurement characteristic
 866:.\Generated_Source\PSoC4/BLE_cps.c **** *                   that include the mandatory fields (e.g. the Flags field and the
 867:.\Generated_Source\PSoC4/BLE_cps.c **** *                   Instantaneous Power field) and depending on the Flags field, 
 868:.\Generated_Source\PSoC4/BLE_cps.c **** *                   some optional fields in a non connectable undirected advertising
 869:.\Generated_Source\PSoC4/BLE_cps.c **** *                   event.
 870:.\Generated_Source\PSoC4/BLE_cps.c **** * 
 871:.\Generated_Source\PSoC4/BLE_cps.c **** * \return
 872:.\Generated_Source\PSoC4/BLE_cps.c **** *  CYBLE_API_RESULT_T : Return value indicates if the function succeeded or
 873:.\Generated_Source\PSoC4/BLE_cps.c **** *  failed. Following are the possible error codes.
 874:.\Generated_Source\PSoC4/BLE_cps.c **** *
 875:.\Generated_Source\PSoC4/BLE_cps.c **** *   Errors codes                       | Description
 876:.\Generated_Source\PSoC4/BLE_cps.c **** *   ------------                       | -----------
 877:.\Generated_Source\PSoC4/BLE_cps.c **** *   CYBLE_ERROR_OK                     | On successful operation.
 878:.\Generated_Source\PSoC4/BLE_cps.c **** *   CYBLE_ERROR_INVALID_PARAMETER      | On passing an invalid parameter.
 879:.\Generated_Source\PSoC4/BLE_cps.c **** * 
 880:.\Generated_Source\PSoC4/BLE_cps.c **** ******************************************************************************/
 881:.\Generated_Source\PSoC4/BLE_cps.c **** 
 882:.\Generated_Source\PSoC4/BLE_cps.c **** CYBLE_API_RESULT_T CyBle_CpssStartBroadcast(uint16 advInterval, uint8 attrSize, uint8 *attrValue)
 883:.\Generated_Source\PSoC4/BLE_cps.c **** {
 2056              		.loc 1 883 0
 2057              		.cfi_startproc
 2058 0000 90B5     		push	{r4, r7, lr}
 2059              		.cfi_def_cfa_offset 12
ARM GAS  C:\Users\Petro\AppData\Local\Temp\cc4GPyUf.s 			page 53


 2060              		.cfi_offset 4, -12
 2061              		.cfi_offset 7, -8
 2062              		.cfi_offset 14, -4
 2063 0002 85B0     		sub	sp, sp, #20
 2064              		.cfi_def_cfa_offset 32
 2065 0004 00AF     		add	r7, sp, #0
 2066              		.cfi_def_cfa_register 7
 2067 0006 3A60     		str	r2, [r7]
 2068 0008 BB1D     		add	r3, r7, #6
 2069 000a 021C     		add	r2, r0, #0
 2070 000c 1A80     		strh	r2, [r3]
 2071 000e 7B1D     		add	r3, r7, #5
 2072 0010 0A1C     		add	r2, r1, #0
 2073 0012 1A70     		strb	r2, [r3]
 884:.\Generated_Source\PSoC4/BLE_cps.c ****     CYBLE_API_RESULT_T apiResult;
 885:.\Generated_Source\PSoC4/BLE_cps.c ****     
 886:.\Generated_Source\PSoC4/BLE_cps.c ****     if((advInterval < CYBLE_GAP_ADV_ADVERT_INTERVAL_NONCON_MIN) || (advInterval > CYBLE_GAP_ADV_ADV
 2074              		.loc 1 886 0
 2075 0014 BB1D     		add	r3, r7, #6
 2076 0016 1B88     		ldrh	r3, [r3]
 2077 0018 9F2B     		cmp	r3, #159
 2078 001a 09D9     		bls	.L99
 2079              		.loc 1 886 0 is_stmt 0 discriminator 1
 2080 001c BB1D     		add	r3, r7, #6
 2081 001e 1A88     		ldrh	r2, [r3]
 2082 0020 8023     		mov	r3, #128
 2083 0022 DB01     		lsl	r3, r3, #7
 2084 0024 9A42     		cmp	r2, r3
 2085 0026 03D8     		bhi	.L99
 2086              		.loc 1 886 0 discriminator 2
 2087 0028 7B1D     		add	r3, r7, #5
 2088 002a 1B78     		ldrb	r3, [r3]
 2089 002c 142B     		cmp	r3, #20
 2090 002e 04D9     		bls	.L100
 2091              	.L99:
 887:.\Generated_Source\PSoC4/BLE_cps.c ****        (attrSize > (CYBLE_GAP_MAX_ADV_DATA_LEN - CYBLE_CPSS_BROADCAST_HEADER_LEN)))
 888:.\Generated_Source\PSoC4/BLE_cps.c ****     {
 889:.\Generated_Source\PSoC4/BLE_cps.c ****         apiResult = CYBLE_ERROR_INVALID_PARAMETER;
 2092              		.loc 1 889 0 is_stmt 1
 2093 0030 0E23     		mov	r3, #14
 2094 0032 FB18     		add	r3, r7, r3
 2095 0034 0122     		mov	r2, #1
 2096 0036 1A80     		strh	r2, [r3]
 2097 0038 54E0     		b	.L101
 2098              	.L100:
 890:.\Generated_Source\PSoC4/BLE_cps.c ****     }
 891:.\Generated_Source\PSoC4/BLE_cps.c ****     else
 892:.\Generated_Source\PSoC4/BLE_cps.c ****     {
 893:.\Generated_Source\PSoC4/BLE_cps.c ****         /* Copy Cycling Power Measurement characteristic value to advertising data packet */
 894:.\Generated_Source\PSoC4/BLE_cps.c ****         (void) memcpy(&cyBle_cpssBroadcastData.advData[CYBLE_CPSS_BROADCAST_DATA_OFFSET], attrValue
 2099              		.loc 1 894 0
 2100 003a 7B1D     		add	r3, r7, #5
 2101 003c 1B78     		ldrb	r3, [r3]
 2102 003e 2D49     		ldr	r1, .L105
 2103 0040 3A68     		ldr	r2, [r7]
 2104 0042 081C     		mov	r0, r1
 2105 0044 111C     		mov	r1, r2
ARM GAS  C:\Users\Petro\AppData\Local\Temp\cc4GPyUf.s 			page 54


 2106 0046 1A1C     		mov	r2, r3
 2107 0048 FFF7FEFF 		bl	memcpy
 895:.\Generated_Source\PSoC4/BLE_cps.c ****         cyBle_cpssBroadcastData.advData[CYBLE_CPSS_BROADCAST_DATA_LEN_OFFSET] = attrSize;
 2108              		.loc 1 895 0
 2109 004c 2A4B     		ldr	r3, .L105+4
 2110 004e 7A1D     		add	r2, r7, #5
 2111 0050 1278     		ldrb	r2, [r2]
 2112 0052 DA71     		strb	r2, [r3, #7]
 896:.\Generated_Source\PSoC4/BLE_cps.c ****         cyBle_cpssBroadcastData.advDataLen = attrSize + CYBLE_CPSS_BROADCAST_HEADER_LEN;
 2113              		.loc 1 896 0
 2114 0054 7B1D     		add	r3, r7, #5
 2115 0056 1B78     		ldrb	r3, [r3]
 2116 0058 0B33     		add	r3, r3, #11
 2117 005a DAB2     		uxtb	r2, r3
 2118 005c 264B     		ldr	r3, .L105+4
 2119 005e DA77     		strb	r2, [r3, #31]
 897:.\Generated_Source\PSoC4/BLE_cps.c ****             
 898:.\Generated_Source\PSoC4/BLE_cps.c ****         if((cyBle_cpssFlag & CYBLE_CPSS_FLAG_BROADCAST_IN_PROGRESS) == 0u)
 2120              		.loc 1 898 0
 2121 0060 264B     		ldr	r3, .L105+8
 2122 0062 1B78     		ldrb	r3, [r3]
 2123 0064 1A1C     		mov	r2, r3
 2124 0066 0423     		mov	r3, #4
 2125 0068 1340     		and	r3, r2
 2126 006a 32D1     		bne	.L102
 899:.\Generated_Source\PSoC4/BLE_cps.c ****         {
 900:.\Generated_Source\PSoC4/BLE_cps.c ****             /* Put advertising interval to advertising data packet */
 901:.\Generated_Source\PSoC4/BLE_cps.c ****             cyBle_cpssBroadcastData.advData[CYBLE_CPSS_BROADCAST_ADVERT_INTERVAL_OFFSET] = LO8(advI
 2127              		.loc 1 901 0
 2128 006c BB1D     		add	r3, r7, #6
 2129 006e 1B88     		ldrh	r3, [r3]
 2130 0070 DAB2     		uxtb	r2, r3
 2131 0072 214B     		ldr	r3, .L105+4
 2132 0074 5A71     		strb	r2, [r3, #5]
 902:.\Generated_Source\PSoC4/BLE_cps.c ****             cyBle_cpssBroadcastData.advData[CYBLE_CPSS_BROADCAST_ADVERT_INTERVAL_OFFSET + 1u] = HI8
 2133              		.loc 1 902 0
 2134 0076 BB1D     		add	r3, r7, #6
 2135 0078 1B88     		ldrh	r3, [r3]
 2136 007a 1B0A     		lsr	r3, r3, #8
 2137 007c 9BB2     		uxth	r3, r3
 2138 007e DAB2     		uxtb	r2, r3
 2139 0080 1D4B     		ldr	r3, .L105+4
 2140 0082 9A71     		strb	r2, [r3, #6]
 903:.\Generated_Source\PSoC4/BLE_cps.c ****             /* Configure advertising timeout, interval and type */
 904:.\Generated_Source\PSoC4/BLE_cps.c ****             cyBle_cpssBroadcastParam.advIntvMin = advInterval; 
 2141              		.loc 1 904 0
 2142 0084 1E4B     		ldr	r3, .L105+12
 2143 0086 BA1D     		add	r2, r7, #6
 2144 0088 1288     		ldrh	r2, [r2]
 2145 008a 1A80     		strh	r2, [r3]
 905:.\Generated_Source\PSoC4/BLE_cps.c ****             cyBle_cpssBroadcastParam.advIntvMax = advInterval;
 2146              		.loc 1 905 0
 2147 008c 1C4B     		ldr	r3, .L105+12
 2148 008e BA1D     		add	r2, r7, #6
 2149 0090 1288     		ldrh	r2, [r2]
 2150 0092 5A80     		strh	r2, [r3, #2]
 906:.\Generated_Source\PSoC4/BLE_cps.c ****             cyBle_cpssBroadcastModeInfo.advTo = 0u;
ARM GAS  C:\Users\Petro\AppData\Local\Temp\cc4GPyUf.s 			page 55


 2151              		.loc 1 906 0
 2152 0094 1B4B     		ldr	r3, .L105+16
 2153 0096 0022     		mov	r2, #0
 2154 0098 1A82     		strh	r2, [r3, #16]
 907:.\Generated_Source\PSoC4/BLE_cps.c ****             cyBle_cpssBroadcastParam.advType = CYBLE_GAPP_NON_CONNECTABLE_UNDIRECTED_ADV;
 2155              		.loc 1 907 0
 2156 009a 194B     		ldr	r3, .L105+12
 2157 009c 0322     		mov	r2, #3
 2158 009e 1A71     		strb	r2, [r3, #4]
 908:.\Generated_Source\PSoC4/BLE_cps.c ****             cyBle_cpssBroadcastParam.advChannelMap = cyBle_discoveryParam.advChannelMap;
 2159              		.loc 1 908 0
 2160 00a0 194B     		ldr	r3, .L105+20
 2161 00a2 5A7B     		ldrb	r2, [r3, #13]
 2162 00a4 164B     		ldr	r3, .L105+12
 2163 00a6 5A73     		strb	r2, [r3, #13]
 909:.\Generated_Source\PSoC4/BLE_cps.c ****             /* Start broadcasting */
 910:.\Generated_Source\PSoC4/BLE_cps.c ****             apiResult = CyBle_GappEnterDiscoveryMode(&cyBle_cpssBroadcastModeInfo);
 2164              		.loc 1 910 0
 2165 00a8 0E23     		mov	r3, #14
 2166 00aa FC18     		add	r4, r7, r3
 2167 00ac 154B     		ldr	r3, .L105+16
 2168 00ae 181C     		mov	r0, r3
 2169 00b0 FFF7FEFF 		bl	CyBle_GappEnterDiscoveryMode
 2170 00b4 031C     		mov	r3, r0
 2171 00b6 2380     		strh	r3, [r4]
 911:.\Generated_Source\PSoC4/BLE_cps.c ****             if(apiResult == CYBLE_ERROR_OK)
 2172              		.loc 1 911 0
 2173 00b8 0E23     		mov	r3, #14
 2174 00ba FB18     		add	r3, r7, r3
 2175 00bc 1B88     		ldrh	r3, [r3]
 2176 00be 002B     		cmp	r3, #0
 2177 00c0 10D1     		bne	.L101
 912:.\Generated_Source\PSoC4/BLE_cps.c ****             {
 913:.\Generated_Source\PSoC4/BLE_cps.c ****                 cyBle_cpssFlag |= CYBLE_CPSS_FLAG_START_BROADCAST;
 2178              		.loc 1 913 0
 2179 00c2 0E4B     		ldr	r3, .L105+8
 2180 00c4 1B78     		ldrb	r3, [r3]
 2181 00c6 0822     		mov	r2, #8
 2182 00c8 1343     		orr	r3, r2
 2183 00ca DAB2     		uxtb	r2, r3
 2184 00cc 0B4B     		ldr	r3, .L105+8
 2185 00ce 1A70     		strb	r2, [r3]
 2186 00d0 08E0     		b	.L101
 2187              	.L102:
 914:.\Generated_Source\PSoC4/BLE_cps.c ****             }
 915:.\Generated_Source\PSoC4/BLE_cps.c ****         }
 916:.\Generated_Source\PSoC4/BLE_cps.c ****         else
 917:.\Generated_Source\PSoC4/BLE_cps.c ****         {
 918:.\Generated_Source\PSoC4/BLE_cps.c ****             /* Update broadcasting data */
 919:.\Generated_Source\PSoC4/BLE_cps.c ****             apiResult = CyBle_GapUpdateAdvData(&cyBle_cpssBroadcastData, NULL);
 2188              		.loc 1 919 0
 2189 00d2 0E23     		mov	r3, #14
 2190 00d4 FC18     		add	r4, r7, r3
 2191 00d6 084B     		ldr	r3, .L105+4
 2192 00d8 181C     		mov	r0, r3
 2193 00da 0021     		mov	r1, #0
 2194 00dc FFF7FEFF 		bl	CyBle_GapUpdateAdvData
ARM GAS  C:\Users\Petro\AppData\Local\Temp\cc4GPyUf.s 			page 56


 2195 00e0 031C     		mov	r3, r0
 2196 00e2 2380     		strh	r3, [r4]
 2197              	.L101:
 920:.\Generated_Source\PSoC4/BLE_cps.c ****         }
 921:.\Generated_Source\PSoC4/BLE_cps.c ****     }
 922:.\Generated_Source\PSoC4/BLE_cps.c ****     return (apiResult);
 2198              		.loc 1 922 0
 2199 00e4 0E23     		mov	r3, #14
 2200 00e6 FB18     		add	r3, r7, r3
 2201 00e8 1B88     		ldrh	r3, [r3]
 923:.\Generated_Source\PSoC4/BLE_cps.c **** }
 2202              		.loc 1 923 0
 2203 00ea 181C     		mov	r0, r3
 2204 00ec BD46     		mov	sp, r7
 2205 00ee 05B0     		add	sp, sp, #20
 2206              		@ sp needed
 2207 00f0 90BD     		pop	{r4, r7, pc}
 2208              	.L106:
 2209 00f2 C046     		.align	2
 2210              	.L105:
 2211 00f4 0B000000 		.word	cyBle_cpssBroadcastData+11
 2212 00f8 00000000 		.word	cyBle_cpssBroadcastData
 2213 00fc 06000000 		.word	cyBle_cpssFlag
 2214 0100 00000000 		.word	cyBle_cpssBroadcastParam
 2215 0104 00000000 		.word	cyBle_cpssBroadcastModeInfo
 2216 0108 00000000 		.word	cyBle_discoveryParam
 2217              		.cfi_endproc
 2218              	.LFE15:
 2219              		.size	CyBle_CpssStartBroadcast, .-CyBle_CpssStartBroadcast
 2220              		.section	.text.CyBle_CpssStopBroadcast,"ax",%progbits
 2221              		.align	2
 2222              		.global	CyBle_CpssStopBroadcast
 2223              		.code	16
 2224              		.thumb_func
 2225              		.type	CyBle_CpssStopBroadcast, %function
 2226              	CyBle_CpssStopBroadcast:
 2227              	.LFB16:
 924:.\Generated_Source\PSoC4/BLE_cps.c **** 
 925:.\Generated_Source\PSoC4/BLE_cps.c **** 
 926:.\Generated_Source\PSoC4/BLE_cps.c **** /****************************************************************************** 
 927:.\Generated_Source\PSoC4/BLE_cps.c **** * Function Name: CyBle_CpssStopBroadcast
 928:.\Generated_Source\PSoC4/BLE_cps.c **** ***************************************************************************//**
 929:.\Generated_Source\PSoC4/BLE_cps.c **** * 
 930:.\Generated_Source\PSoC4/BLE_cps.c **** *  This function is used to stop broadcasting of the Cycling Power 
 931:.\Generated_Source\PSoC4/BLE_cps.c **** *  Measurement characteristic.
 932:.\Generated_Source\PSoC4/BLE_cps.c **** * 
 933:.\Generated_Source\PSoC4/BLE_cps.c **** * \return
 934:.\Generated_Source\PSoC4/BLE_cps.c **** *  None
 935:.\Generated_Source\PSoC4/BLE_cps.c **** * 
 936:.\Generated_Source\PSoC4/BLE_cps.c **** ******************************************************************************/
 937:.\Generated_Source\PSoC4/BLE_cps.c **** void CyBle_CpssStopBroadcast(void)
 938:.\Generated_Source\PSoC4/BLE_cps.c **** {
 2228              		.loc 1 938 0
 2229              		.cfi_startproc
 2230 0000 80B5     		push	{r7, lr}
 2231              		.cfi_def_cfa_offset 8
 2232              		.cfi_offset 7, -8
ARM GAS  C:\Users\Petro\AppData\Local\Temp\cc4GPyUf.s 			page 57


 2233              		.cfi_offset 14, -4
 2234 0002 00AF     		add	r7, sp, #0
 2235              		.cfi_def_cfa_register 7
 939:.\Generated_Source\PSoC4/BLE_cps.c ****     if((cyBle_cpssFlag & CYBLE_CPSS_FLAG_BROADCAST_IN_PROGRESS) != 0u)
 2236              		.loc 1 939 0
 2237 0004 084B     		ldr	r3, .L109
 2238 0006 1B78     		ldrb	r3, [r3]
 2239 0008 1A1C     		mov	r2, r3
 2240 000a 0423     		mov	r3, #4
 2241 000c 1340     		and	r3, r2
 2242 000e 08D0     		beq	.L107
 940:.\Generated_Source\PSoC4/BLE_cps.c ****     {
 941:.\Generated_Source\PSoC4/BLE_cps.c ****         CyBle_GappExitDiscoveryMode();
 2243              		.loc 1 941 0
 2244 0010 FFF7FEFF 		bl	CyBle_GappExitDiscoveryMode
 942:.\Generated_Source\PSoC4/BLE_cps.c ****         cyBle_cpssFlag |= CYBLE_CPSS_FLAG_STOP_BROADCAST;
 2245              		.loc 1 942 0
 2246 0014 044B     		ldr	r3, .L109
 2247 0016 1B78     		ldrb	r3, [r3]
 2248 0018 1022     		mov	r2, #16
 2249 001a 1343     		orr	r3, r2
 2250 001c DAB2     		uxtb	r2, r3
 2251 001e 024B     		ldr	r3, .L109
 2252 0020 1A70     		strb	r2, [r3]
 2253              	.L107:
 943:.\Generated_Source\PSoC4/BLE_cps.c ****     }
 944:.\Generated_Source\PSoC4/BLE_cps.c **** }
 2254              		.loc 1 944 0
 2255 0022 BD46     		mov	sp, r7
 2256              		@ sp needed
 2257 0024 80BD     		pop	{r7, pc}
 2258              	.L110:
 2259 0026 C046     		.align	2
 2260              	.L109:
 2261 0028 06000000 		.word	cyBle_cpssFlag
 2262              		.cfi_endproc
 2263              	.LFE16:
 2264              		.size	CyBle_CpssStopBroadcast, .-CyBle_CpssStopBroadcast
 2265              		.section	.text.CyBle_CpssAdvertisementStartStopEventHandler,"ax",%progbits
 2266              		.align	2
 2267              		.global	CyBle_CpssAdvertisementStartStopEventHandler
 2268              		.code	16
 2269              		.thumb_func
 2270              		.type	CyBle_CpssAdvertisementStartStopEventHandler, %function
 2271              	CyBle_CpssAdvertisementStartStopEventHandler:
 2272              	.LFB17:
 945:.\Generated_Source\PSoC4/BLE_cps.c **** 
 946:.\Generated_Source\PSoC4/BLE_cps.c **** 
 947:.\Generated_Source\PSoC4/BLE_cps.c **** /****************************************************************************** 
 948:.\Generated_Source\PSoC4/BLE_cps.c **** * Function Name: CyBle_CpssAdvertisementStartStopEventHandler
 949:.\Generated_Source\PSoC4/BLE_cps.c **** ***************************************************************************//**
 950:.\Generated_Source\PSoC4/BLE_cps.c **** * 
 951:.\Generated_Source\PSoC4/BLE_cps.c **** *  This function handles CYBLE_EVT_GAPP_ADVERTISEMENT_START_STOP event for CPS.
 952:.\Generated_Source\PSoC4/BLE_cps.c **** * 
 953:.\Generated_Source\PSoC4/BLE_cps.c **** * \return
 954:.\Generated_Source\PSoC4/BLE_cps.c **** *  None
 955:.\Generated_Source\PSoC4/BLE_cps.c **** * 
ARM GAS  C:\Users\Petro\AppData\Local\Temp\cc4GPyUf.s 			page 58


 956:.\Generated_Source\PSoC4/BLE_cps.c **** ******************************************************************************/
 957:.\Generated_Source\PSoC4/BLE_cps.c **** void CyBle_CpssAdvertisementStartStopEventHandler(void)
 958:.\Generated_Source\PSoC4/BLE_cps.c **** {
 2273              		.loc 1 958 0
 2274              		.cfi_startproc
 2275 0000 80B5     		push	{r7, lr}
 2276              		.cfi_def_cfa_offset 8
 2277              		.cfi_offset 7, -8
 2278              		.cfi_offset 14, -4
 2279 0002 00AF     		add	r7, sp, #0
 2280              		.cfi_def_cfa_register 7
 959:.\Generated_Source\PSoC4/BLE_cps.c ****     if((cyBle_cpssFlag & CYBLE_CPSS_FLAG_START_BROADCAST) != 0u)
 2281              		.loc 1 959 0
 2282 0004 194B     		ldr	r3, .L114
 2283 0006 1B78     		ldrb	r3, [r3]
 2284 0008 1A1C     		mov	r2, r3
 2285 000a 0823     		mov	r3, #8
 2286 000c 1340     		and	r3, r2
 2287 000e 15D0     		beq	.L112
 960:.\Generated_Source\PSoC4/BLE_cps.c ****     {
 961:.\Generated_Source\PSoC4/BLE_cps.c ****         cyBle_cpssFlag |= CYBLE_CPSS_FLAG_BROADCAST_IN_PROGRESS;
 2288              		.loc 1 961 0
 2289 0010 164B     		ldr	r3, .L114
 2290 0012 1B78     		ldrb	r3, [r3]
 2291 0014 0422     		mov	r2, #4
 2292 0016 1343     		orr	r3, r2
 2293 0018 DAB2     		uxtb	r2, r3
 2294 001a 144B     		ldr	r3, .L114
 2295 001c 1A70     		strb	r2, [r3]
 962:.\Generated_Source\PSoC4/BLE_cps.c ****         cyBle_cpssFlag &= (uint8)~CYBLE_CPSS_FLAG_START_BROADCAST;
 2296              		.loc 1 962 0
 2297 001e 134B     		ldr	r3, .L114
 2298 0020 1B78     		ldrb	r3, [r3]
 2299 0022 0822     		mov	r2, #8
 2300 0024 9343     		bic	r3, r2
 2301 0026 DAB2     		uxtb	r2, r3
 2302 0028 104B     		ldr	r3, .L114
 2303 002a 1A70     		strb	r2, [r3]
 963:.\Generated_Source\PSoC4/BLE_cps.c ****         cyBle_eventHandlerFlag &= (uint8)~CYBLE_CALLBACK;
 2304              		.loc 1 963 0
 2305 002c 104B     		ldr	r3, .L114+4
 2306 002e 1B78     		ldrb	r3, [r3]
 2307 0030 DBB2     		uxtb	r3, r3
 2308 0032 0122     		mov	r2, #1
 2309 0034 9343     		bic	r3, r2
 2310 0036 DAB2     		uxtb	r2, r3
 2311 0038 0D4B     		ldr	r3, .L114+4
 2312 003a 1A70     		strb	r2, [r3]
 2313              	.L112:
 964:.\Generated_Source\PSoC4/BLE_cps.c ****     }
 965:.\Generated_Source\PSoC4/BLE_cps.c ****     if((cyBle_cpssFlag & CYBLE_CPSS_FLAG_STOP_BROADCAST) != 0u)
 2314              		.loc 1 965 0
 2315 003c 0B4B     		ldr	r3, .L114
 2316 003e 1B78     		ldrb	r3, [r3]
 2317 0040 1A1C     		mov	r2, r3
 2318 0042 1023     		mov	r3, #16
 2319 0044 1340     		and	r3, r2
ARM GAS  C:\Users\Petro\AppData\Local\Temp\cc4GPyUf.s 			page 59


 2320 0046 0ED0     		beq	.L111
 966:.\Generated_Source\PSoC4/BLE_cps.c ****     {
 967:.\Generated_Source\PSoC4/BLE_cps.c ****         cyBle_cpssFlag &= (uint8)~(CYBLE_CPSS_FLAG_BROADCAST_IN_PROGRESS | CYBLE_CPSS_FLAG_STOP_BRO
 2321              		.loc 1 967 0
 2322 0048 084B     		ldr	r3, .L114
 2323 004a 1B78     		ldrb	r3, [r3]
 2324 004c 1422     		mov	r2, #20
 2325 004e 9343     		bic	r3, r2
 2326 0050 DAB2     		uxtb	r2, r3
 2327 0052 064B     		ldr	r3, .L114
 2328 0054 1A70     		strb	r2, [r3]
 968:.\Generated_Source\PSoC4/BLE_cps.c ****         cyBle_eventHandlerFlag &= (uint8)~CYBLE_CALLBACK;
 2329              		.loc 1 968 0
 2330 0056 064B     		ldr	r3, .L114+4
 2331 0058 1B78     		ldrb	r3, [r3]
 2332 005a DBB2     		uxtb	r3, r3
 2333 005c 0122     		mov	r2, #1
 2334 005e 9343     		bic	r3, r2
 2335 0060 DAB2     		uxtb	r2, r3
 2336 0062 034B     		ldr	r3, .L114+4
 2337 0064 1A70     		strb	r2, [r3]
 2338              	.L111:
 969:.\Generated_Source\PSoC4/BLE_cps.c ****     }
 970:.\Generated_Source\PSoC4/BLE_cps.c **** }
 2339              		.loc 1 970 0
 2340 0066 BD46     		mov	sp, r7
 2341              		@ sp needed
 2342 0068 80BD     		pop	{r7, pc}
 2343              	.L115:
 2344 006a C046     		.align	2
 2345              	.L114:
 2346 006c 06000000 		.word	cyBle_cpssFlag
 2347 0070 00000000 		.word	cyBle_eventHandlerFlag
 2348              		.cfi_endproc
 2349              	.LFE17:
 2350              		.size	CyBle_CpssAdvertisementStartStopEventHandler, .-CyBle_CpssAdvertisementStartStopEventHandler
 2351              		.text
 2352              	.Letext0:
 2353              		.file 2 ".\\Generated_Source\\PSoC4\\cytypes.h"
 2354              		.file 3 ".\\Generated_Source\\PSoC4\\BLE_Stack.h"
 2355              		.file 4 ".\\Generated_Source\\PSoC4\\BLE_StackGap.h"
 2356              		.file 5 ".\\Generated_Source\\PSoC4\\BLE_StackGatt.h"
 2357              		.file 6 ".\\Generated_Source\\PSoC4\\BLE_StackGattServer.h"
 2358              		.file 7 ".\\Generated_Source\\PSoC4\\BLE_StackGattDb.h"
 2359              		.file 8 ".\\Generated_Source\\PSoC4\\BLE.h"
 2360              		.file 9 ".\\Generated_Source\\PSoC4\\BLE_cps.h"
 2361              		.file 10 ".\\Generated_Source\\PSoC4\\BLE_cscs.h"
 2362              		.file 11 ".\\Generated_Source\\PSoC4\\BLE_dis.h"
 2363              		.file 12 ".\\Generated_Source\\PSoC4\\BLE_eventHandler.h"
 2364              		.file 13 ".\\Generated_Source\\PSoC4\\BLE_gatt.h"
 2365              		.section	.debug_info,"",%progbits
 2366              	.Ldebug_info0:
 2367 0000 76190000 		.4byte	0x1976
 2368 0004 0400     		.2byte	0x4
 2369 0006 00000000 		.4byte	.Ldebug_abbrev0
 2370 000a 04       		.byte	0x4
 2371 000b 01       		.uleb128 0x1
ARM GAS  C:\Users\Petro\AppData\Local\Temp\cc4GPyUf.s 			page 60


 2372 000c 06340000 		.4byte	.LASF628
 2373 0010 01       		.byte	0x1
 2374 0011 0A0A0000 		.4byte	.LASF629
 2375 0015 290B0000 		.4byte	.LASF630
 2376 0019 00000000 		.4byte	.Ldebug_ranges0+0
 2377 001d 00000000 		.4byte	0
 2378 0021 00000000 		.4byte	.Ldebug_line0
 2379 0025 02       		.uleb128 0x2
 2380 0026 01       		.byte	0x1
 2381 0027 06       		.byte	0x6
 2382 0028 4B0F0000 		.4byte	.LASF0
 2383 002c 02       		.uleb128 0x2
 2384 002d 01       		.byte	0x1
 2385 002e 08       		.byte	0x8
 2386 002f AE100000 		.4byte	.LASF1
 2387 0033 02       		.uleb128 0x2
 2388 0034 02       		.byte	0x2
 2389 0035 05       		.byte	0x5
 2390 0036 2A3A0000 		.4byte	.LASF2
 2391 003a 02       		.uleb128 0x2
 2392 003b 02       		.byte	0x2
 2393 003c 07       		.byte	0x7
 2394 003d A4410000 		.4byte	.LASF3
 2395 0041 02       		.uleb128 0x2
 2396 0042 04       		.byte	0x4
 2397 0043 05       		.byte	0x5
 2398 0044 8A0B0000 		.4byte	.LASF4
 2399 0048 02       		.uleb128 0x2
 2400 0049 04       		.byte	0x4
 2401 004a 07       		.byte	0x7
 2402 004b D31D0000 		.4byte	.LASF5
 2403 004f 02       		.uleb128 0x2
 2404 0050 08       		.byte	0x8
 2405 0051 05       		.byte	0x5
 2406 0052 1B230000 		.4byte	.LASF6
 2407 0056 02       		.uleb128 0x2
 2408 0057 08       		.byte	0x8
 2409 0058 07       		.byte	0x7
 2410 0059 FC300000 		.4byte	.LASF7
 2411 005d 03       		.uleb128 0x3
 2412 005e 04       		.byte	0x4
 2413 005f 05       		.byte	0x5
 2414 0060 696E7400 		.ascii	"int\000"
 2415 0064 02       		.uleb128 0x2
 2416 0065 04       		.byte	0x4
 2417 0066 07       		.byte	0x7
 2418 0067 62280000 		.4byte	.LASF8
 2419 006b 04       		.uleb128 0x4
 2420 006c 9E390000 		.4byte	.LASF9
 2421 0070 02       		.byte	0x2
 2422 0071 3801     		.2byte	0x138
 2423 0073 2C000000 		.4byte	0x2c
 2424 0077 04       		.uleb128 0x4
 2425 0078 BE440000 		.4byte	.LASF10
 2426 007c 02       		.byte	0x2
 2427 007d 3901     		.2byte	0x139
 2428 007f 3A000000 		.4byte	0x3a
ARM GAS  C:\Users\Petro\AppData\Local\Temp\cc4GPyUf.s 			page 61


 2429 0083 04       		.uleb128 0x4
 2430 0084 ED030000 		.4byte	.LASF11
 2431 0088 02       		.byte	0x2
 2432 0089 3A01     		.2byte	0x13a
 2433 008b 48000000 		.4byte	0x48
 2434 008f 04       		.uleb128 0x4
 2435 0090 233E0000 		.4byte	.LASF12
 2436 0094 02       		.byte	0x2
 2437 0095 3C01     		.2byte	0x13c
 2438 0097 33000000 		.4byte	0x33
 2439 009b 02       		.uleb128 0x2
 2440 009c 04       		.byte	0x4
 2441 009d 04       		.byte	0x4
 2442 009e BC260000 		.4byte	.LASF13
 2443 00a2 02       		.uleb128 0x2
 2444 00a3 08       		.byte	0x8
 2445 00a4 04       		.byte	0x4
 2446 00a5 9A240000 		.4byte	.LASF14
 2447 00a9 02       		.uleb128 0x2
 2448 00aa 01       		.byte	0x1
 2449 00ab 08       		.byte	0x8
 2450 00ac 52130000 		.4byte	.LASF15
 2451 00b0 05       		.uleb128 0x5
 2452 00b1 6B000000 		.4byte	0x6b
 2453 00b5 02       		.uleb128 0x2
 2454 00b6 04       		.byte	0x4
 2455 00b7 07       		.byte	0x7
 2456 00b8 B0000000 		.4byte	.LASF16
 2457 00bc 06       		.uleb128 0x6
 2458 00bd 04       		.byte	0x4
 2459 00be 07       		.uleb128 0x7
 2460 00bf 01       		.byte	0x1
 2461 00c0 03       		.byte	0x3
 2462 00c1 A4       		.byte	0xa4
 2463 00c2 43020000 		.4byte	0x243
 2464 00c6 08       		.uleb128 0x8
 2465 00c7 D0130000 		.4byte	.LASF17
 2466 00cb 00       		.sleb128 0
 2467 00cc 08       		.uleb128 0x8
 2468 00cd 790C0000 		.4byte	.LASF18
 2469 00d1 01       		.sleb128 1
 2470 00d2 08       		.uleb128 0x8
 2471 00d3 31310000 		.4byte	.LASF19
 2472 00d7 02       		.sleb128 2
 2473 00d8 08       		.uleb128 0x8
 2474 00d9 DA0F0000 		.4byte	.LASF20
 2475 00dd 03       		.sleb128 3
 2476 00de 08       		.uleb128 0x8
 2477 00df 14430000 		.4byte	.LASF21
 2478 00e3 04       		.sleb128 4
 2479 00e4 08       		.uleb128 0x8
 2480 00e5 B43F0000 		.4byte	.LASF22
 2481 00e9 05       		.sleb128 5
 2482 00ea 08       		.uleb128 0x8
 2483 00eb 683C0000 		.4byte	.LASF23
 2484 00ef 20       		.sleb128 32
 2485 00f0 08       		.uleb128 0x8
ARM GAS  C:\Users\Petro\AppData\Local\Temp\cc4GPyUf.s 			page 62


 2486 00f1 93080000 		.4byte	.LASF24
 2487 00f5 21       		.sleb128 33
 2488 00f6 08       		.uleb128 0x8
 2489 00f7 FC210000 		.4byte	.LASF25
 2490 00fb 22       		.sleb128 34
 2491 00fc 08       		.uleb128 0x8
 2492 00fd 482C0000 		.4byte	.LASF26
 2493 0101 23       		.sleb128 35
 2494 0102 08       		.uleb128 0x8
 2495 0103 611C0000 		.4byte	.LASF27
 2496 0107 24       		.sleb128 36
 2497 0108 08       		.uleb128 0x8
 2498 0109 B01C0000 		.4byte	.LASF28
 2499 010d 25       		.sleb128 37
 2500 010e 08       		.uleb128 0x8
 2501 010f DD380000 		.4byte	.LASF29
 2502 0113 26       		.sleb128 38
 2503 0114 08       		.uleb128 0x8
 2504 0115 1B030000 		.4byte	.LASF30
 2505 0119 27       		.sleb128 39
 2506 011a 08       		.uleb128 0x8
 2507 011b 37440000 		.4byte	.LASF31
 2508 011f 28       		.sleb128 40
 2509 0120 08       		.uleb128 0x8
 2510 0121 E62E0000 		.4byte	.LASF32
 2511 0125 29       		.sleb128 41
 2512 0126 08       		.uleb128 0x8
 2513 0127 DA200000 		.4byte	.LASF33
 2514 012b 2A       		.sleb128 42
 2515 012c 08       		.uleb128 0x8
 2516 012d 842B0000 		.4byte	.LASF34
 2517 0131 2B       		.sleb128 43
 2518 0132 08       		.uleb128 0x8
 2519 0133 35400000 		.4byte	.LASF35
 2520 0137 2C       		.sleb128 44
 2521 0138 08       		.uleb128 0x8
 2522 0139 043B0000 		.4byte	.LASF36
 2523 013d C000     		.sleb128 64
 2524 013f 08       		.uleb128 0x8
 2525 0140 80030000 		.4byte	.LASF37
 2526 0144 C100     		.sleb128 65
 2527 0146 08       		.uleb128 0x8
 2528 0147 29430000 		.4byte	.LASF38
 2529 014b C200     		.sleb128 66
 2530 014d 08       		.uleb128 0x8
 2531 014e 482F0000 		.4byte	.LASF39
 2532 0152 C300     		.sleb128 67
 2533 0154 08       		.uleb128 0x8
 2534 0155 BC100000 		.4byte	.LASF40
 2535 0159 C400     		.sleb128 68
 2536 015b 08       		.uleb128 0x8
 2537 015c 5B100000 		.4byte	.LASF41
 2538 0160 C500     		.sleb128 69
 2539 0162 08       		.uleb128 0x8
 2540 0163 64360000 		.4byte	.LASF42
 2541 0167 C600     		.sleb128 70
 2542 0169 08       		.uleb128 0x8
ARM GAS  C:\Users\Petro\AppData\Local\Temp\cc4GPyUf.s 			page 63


 2543 016a 46360000 		.4byte	.LASF43
 2544 016e C700     		.sleb128 71
 2545 0170 08       		.uleb128 0x8
 2546 0171 C6120000 		.4byte	.LASF44
 2547 0175 C800     		.sleb128 72
 2548 0177 08       		.uleb128 0x8
 2549 0178 BD2C0000 		.4byte	.LASF45
 2550 017c C900     		.sleb128 73
 2551 017e 08       		.uleb128 0x8
 2552 017f 94140000 		.4byte	.LASF46
 2553 0183 CA00     		.sleb128 74
 2554 0185 08       		.uleb128 0x8
 2555 0186 A2130000 		.4byte	.LASF47
 2556 018a CB00     		.sleb128 75
 2557 018c 08       		.uleb128 0x8
 2558 018d D82B0000 		.4byte	.LASF48
 2559 0191 CC00     		.sleb128 76
 2560 0193 08       		.uleb128 0x8
 2561 0194 CE370000 		.4byte	.LASF49
 2562 0198 CD00     		.sleb128 77
 2563 019a 08       		.uleb128 0x8
 2564 019b E70A0000 		.4byte	.LASF50
 2565 019f CE00     		.sleb128 78
 2566 01a1 08       		.uleb128 0x8
 2567 01a2 6F280000 		.4byte	.LASF51
 2568 01a6 CF00     		.sleb128 79
 2569 01a8 08       		.uleb128 0x8
 2570 01a9 493C0000 		.4byte	.LASF52
 2571 01ad D000     		.sleb128 80
 2572 01af 08       		.uleb128 0x8
 2573 01b0 0F150000 		.4byte	.LASF53
 2574 01b4 D100     		.sleb128 81
 2575 01b6 08       		.uleb128 0x8
 2576 01b7 72080000 		.4byte	.LASF54
 2577 01bb D200     		.sleb128 82
 2578 01bd 08       		.uleb128 0x8
 2579 01be 343F0000 		.4byte	.LASF55
 2580 01c2 D300     		.sleb128 83
 2581 01c4 08       		.uleb128 0x8
 2582 01c5 79440000 		.4byte	.LASF56
 2583 01c9 D400     		.sleb128 84
 2584 01cb 08       		.uleb128 0x8
 2585 01cc EE060000 		.4byte	.LASF57
 2586 01d0 D500     		.sleb128 85
 2587 01d2 08       		.uleb128 0x8
 2588 01d3 3A160000 		.4byte	.LASF58
 2589 01d7 D600     		.sleb128 86
 2590 01d9 08       		.uleb128 0x8
 2591 01da 70270000 		.4byte	.LASF59
 2592 01de D700     		.sleb128 87
 2593 01e0 08       		.uleb128 0x8
 2594 01e1 9B400000 		.4byte	.LASF60
 2595 01e5 F000     		.sleb128 112
 2596 01e7 08       		.uleb128 0x8
 2597 01e8 231B0000 		.4byte	.LASF61
 2598 01ec F100     		.sleb128 113
 2599 01ee 08       		.uleb128 0x8
ARM GAS  C:\Users\Petro\AppData\Local\Temp\cc4GPyUf.s 			page 64


 2600 01ef 9A0E0000 		.4byte	.LASF62
 2601 01f3 F200     		.sleb128 114
 2602 01f5 08       		.uleb128 0x8
 2603 01f6 2B3C0000 		.4byte	.LASF63
 2604 01fa F300     		.sleb128 115
 2605 01fc 08       		.uleb128 0x8
 2606 01fd 502D0000 		.4byte	.LASF64
 2607 0201 F400     		.sleb128 116
 2608 0203 08       		.uleb128 0x8
 2609 0204 7E210000 		.4byte	.LASF65
 2610 0208 F500     		.sleb128 117
 2611 020a 08       		.uleb128 0x8
 2612 020b A5120000 		.4byte	.LASF66
 2613 020f F600     		.sleb128 118
 2614 0211 08       		.uleb128 0x8
 2615 0212 03320000 		.4byte	.LASF67
 2616 0216 F700     		.sleb128 119
 2617 0218 08       		.uleb128 0x8
 2618 0219 12070000 		.4byte	.LASF68
 2619 021d F800     		.sleb128 120
 2620 021f 08       		.uleb128 0x8
 2621 0220 E7110000 		.4byte	.LASF69
 2622 0224 F900     		.sleb128 121
 2623 0226 08       		.uleb128 0x8
 2624 0227 7B430000 		.4byte	.LASF70
 2625 022b FA00     		.sleb128 122
 2626 022d 08       		.uleb128 0x8
 2627 022e F5240000 		.4byte	.LASF71
 2628 0232 FA01     		.sleb128 250
 2629 0234 08       		.uleb128 0x8
 2630 0235 8A3E0000 		.4byte	.LASF72
 2631 0239 FB01     		.sleb128 251
 2632 023b 08       		.uleb128 0x8
 2633 023c 762B0000 		.4byte	.LASF73
 2634 0240 FF01     		.sleb128 255
 2635 0242 00       		.byte	0
 2636 0243 09       		.uleb128 0x9
 2637 0244 02       		.byte	0x2
 2638 0245 03       		.byte	0x3
 2639 0246 0C02     		.2byte	0x20c
 2640 0248 FA020000 		.4byte	0x2fa
 2641 024c 08       		.uleb128 0x8
 2642 024d 15100000 		.4byte	.LASF74
 2643 0251 00       		.sleb128 0
 2644 0252 08       		.uleb128 0x8
 2645 0253 7D170000 		.4byte	.LASF75
 2646 0257 01       		.sleb128 1
 2647 0258 08       		.uleb128 0x8
 2648 0259 F6420000 		.4byte	.LASF76
 2649 025d 02       		.sleb128 2
 2650 025e 08       		.uleb128 0x8
 2651 025f F4180000 		.4byte	.LASF77
 2652 0263 03       		.sleb128 3
 2653 0264 08       		.uleb128 0x8
 2654 0265 411D0000 		.4byte	.LASF78
 2655 0269 04       		.sleb128 4
 2656 026a 08       		.uleb128 0x8
ARM GAS  C:\Users\Petro\AppData\Local\Temp\cc4GPyUf.s 			page 65


 2657 026b 59240000 		.4byte	.LASF79
 2658 026f 05       		.sleb128 5
 2659 0270 08       		.uleb128 0x8
 2660 0271 293E0000 		.4byte	.LASF80
 2661 0275 06       		.sleb128 6
 2662 0276 08       		.uleb128 0x8
 2663 0277 77140000 		.4byte	.LASF81
 2664 027b 07       		.sleb128 7
 2665 027c 08       		.uleb128 0x8
 2666 027d 3C260000 		.4byte	.LASF82
 2667 0281 08       		.sleb128 8
 2668 0282 08       		.uleb128 0x8
 2669 0283 113D0000 		.4byte	.LASF83
 2670 0287 09       		.sleb128 9
 2671 0288 08       		.uleb128 0x8
 2672 0289 F5440000 		.4byte	.LASF84
 2673 028d 0A       		.sleb128 10
 2674 028e 08       		.uleb128 0x8
 2675 028f 00090000 		.4byte	.LASF85
 2676 0293 0B       		.sleb128 11
 2677 0294 08       		.uleb128 0x8
 2678 0295 9D3F0000 		.4byte	.LASF86
 2679 0299 0C       		.sleb128 12
 2680 029a 08       		.uleb128 0x8
 2681 029b 3E2A0000 		.4byte	.LASF87
 2682 029f 0D       		.sleb128 13
 2683 02a0 08       		.uleb128 0x8
 2684 02a1 2F1F0000 		.4byte	.LASF88
 2685 02a5 0E       		.sleb128 14
 2686 02a6 08       		.uleb128 0x8
 2687 02a7 34240000 		.4byte	.LASF89
 2688 02ab 0F       		.sleb128 15
 2689 02ac 08       		.uleb128 0x8
 2690 02ad 32060000 		.4byte	.LASF90
 2691 02b1 10       		.sleb128 16
 2692 02b2 08       		.uleb128 0x8
 2693 02b3 0B260000 		.4byte	.LASF91
 2694 02b7 11       		.sleb128 17
 2695 02b8 08       		.uleb128 0x8
 2696 02b9 8C0C0000 		.4byte	.LASF92
 2697 02bd 12       		.sleb128 18
 2698 02be 08       		.uleb128 0x8
 2699 02bf 230F0000 		.4byte	.LASF93
 2700 02c3 13       		.sleb128 19
 2701 02c4 08       		.uleb128 0x8
 2702 02c5 A1240000 		.4byte	.LASF94
 2703 02c9 27       		.sleb128 39
 2704 02ca 08       		.uleb128 0x8
 2705 02cb 1D270000 		.4byte	.LASF95
 2706 02cf 28       		.sleb128 40
 2707 02d0 08       		.uleb128 0x8
 2708 02d1 86060000 		.4byte	.LASF96
 2709 02d5 29       		.sleb128 41
 2710 02d6 08       		.uleb128 0x8
 2711 02d7 F01A0000 		.4byte	.LASF97
 2712 02db FF01     		.sleb128 255
 2713 02dd 08       		.uleb128 0x8
ARM GAS  C:\Users\Petro\AppData\Local\Temp\cc4GPyUf.s 			page 66


 2714 02de 872C0000 		.4byte	.LASF98
 2715 02e2 8002     		.sleb128 256
 2716 02e4 08       		.uleb128 0x8
 2717 02e5 6E2C0000 		.4byte	.LASF99
 2718 02e9 8102     		.sleb128 257
 2719 02eb 08       		.uleb128 0x8
 2720 02ec 830D0000 		.4byte	.LASF100
 2721 02f0 8202     		.sleb128 258
 2722 02f2 08       		.uleb128 0x8
 2723 02f3 95310000 		.4byte	.LASF101
 2724 02f7 8302     		.sleb128 259
 2725 02f9 00       		.byte	0
 2726 02fa 04       		.uleb128 0x4
 2727 02fb A93E0000 		.4byte	.LASF102
 2728 02ff 03       		.byte	0x3
 2729 0300 6902     		.2byte	0x269
 2730 0302 43020000 		.4byte	0x243
 2731 0306 0A       		.uleb128 0xa
 2732 0307 6B000000 		.4byte	0x6b
 2733 030b 16030000 		.4byte	0x316
 2734 030f 0B       		.uleb128 0xb
 2735 0310 B5000000 		.4byte	0xb5
 2736 0314 05       		.byte	0x5
 2737 0315 00       		.byte	0
 2738 0316 07       		.uleb128 0x7
 2739 0317 01       		.byte	0x1
 2740 0318 04       		.byte	0x4
 2741 0319 90       		.byte	0x90
 2742 031a 3D030000 		.4byte	0x33d
 2743 031e 08       		.uleb128 0x8
 2744 031f A8420000 		.4byte	.LASF103
 2745 0323 00       		.sleb128 0
 2746 0324 08       		.uleb128 0x8
 2747 0325 D62C0000 		.4byte	.LASF104
 2748 0329 01       		.sleb128 1
 2749 032a 08       		.uleb128 0x8
 2750 032b 073C0000 		.4byte	.LASF105
 2751 032f 02       		.sleb128 2
 2752 0330 08       		.uleb128 0x8
 2753 0331 700E0000 		.4byte	.LASF106
 2754 0335 03       		.sleb128 3
 2755 0336 08       		.uleb128 0x8
 2756 0337 90180000 		.4byte	.LASF107
 2757 033b 04       		.sleb128 4
 2758 033c 00       		.byte	0
 2759 033d 0C       		.uleb128 0xc
 2760 033e C72B0000 		.4byte	.LASF108
 2761 0342 04       		.byte	0x4
 2762 0343 A0       		.byte	0xa0
 2763 0344 16030000 		.4byte	0x316
 2764 0348 0D       		.uleb128 0xd
 2765 0349 10       		.byte	0x10
 2766 034a 04       		.byte	0x4
 2767 034b 6E01     		.2byte	0x16e
 2768 034d BA030000 		.4byte	0x3ba
 2769 0351 0E       		.uleb128 0xe
 2770 0352 0A120000 		.4byte	.LASF109
ARM GAS  C:\Users\Petro\AppData\Local\Temp\cc4GPyUf.s 			page 67


 2771 0356 04       		.byte	0x4
 2772 0357 7401     		.2byte	0x174
 2773 0359 77000000 		.4byte	0x77
 2774 035d 00       		.byte	0
 2775 035e 0E       		.uleb128 0xe
 2776 035f F1450000 		.4byte	.LASF110
 2777 0363 04       		.byte	0x4
 2778 0364 7A01     		.2byte	0x17a
 2779 0366 77000000 		.4byte	0x77
 2780 036a 02       		.byte	0x2
 2781 036b 0E       		.uleb128 0xe
 2782 036c 1C1D0000 		.4byte	.LASF111
 2783 0370 04       		.byte	0x4
 2784 0371 8301     		.2byte	0x183
 2785 0373 3D030000 		.4byte	0x33d
 2786 0377 04       		.byte	0x4
 2787 0378 0E       		.uleb128 0xe
 2788 0379 E9440000 		.4byte	.LASF112
 2789 037d 04       		.byte	0x4
 2790 037e 8901     		.2byte	0x189
 2791 0380 6B000000 		.4byte	0x6b
 2792 0384 05       		.byte	0x5
 2793 0385 0E       		.uleb128 0xe
 2794 0386 B2250000 		.4byte	.LASF113
 2795 038a 04       		.byte	0x4
 2796 038b 9001     		.2byte	0x190
 2797 038d 6B000000 		.4byte	0x6b
 2798 0391 06       		.byte	0x6
 2799 0392 0E       		.uleb128 0xe
 2800 0393 DE410000 		.4byte	.LASF114
 2801 0397 04       		.byte	0x4
 2802 0398 9601     		.2byte	0x196
 2803 039a 06030000 		.4byte	0x306
 2804 039e 07       		.byte	0x7
 2805 039f 0E       		.uleb128 0xe
 2806 03a0 63420000 		.4byte	.LASF115
 2807 03a4 04       		.byte	0x4
 2808 03a5 9E01     		.2byte	0x19e
 2809 03a7 6B000000 		.4byte	0x6b
 2810 03ab 0D       		.byte	0xd
 2811 03ac 0E       		.uleb128 0xe
 2812 03ad 7D1C0000 		.4byte	.LASF116
 2813 03b1 04       		.byte	0x4
 2814 03b2 AA01     		.2byte	0x1aa
 2815 03b4 6B000000 		.4byte	0x6b
 2816 03b8 0E       		.byte	0xe
 2817 03b9 00       		.byte	0
 2818 03ba 04       		.uleb128 0x4
 2819 03bb E91B0000 		.4byte	.LASF117
 2820 03bf 04       		.byte	0x4
 2821 03c0 AC01     		.2byte	0x1ac
 2822 03c2 48030000 		.4byte	0x348
 2823 03c6 0D       		.uleb128 0xd
 2824 03c7 20       		.byte	0x20
 2825 03c8 04       		.byte	0x4
 2826 03c9 AF01     		.2byte	0x1af
 2827 03cb EA030000 		.4byte	0x3ea
ARM GAS  C:\Users\Petro\AppData\Local\Temp\cc4GPyUf.s 			page 68


 2828 03cf 0E       		.uleb128 0xe
 2829 03d0 F22B0000 		.4byte	.LASF118
 2830 03d4 04       		.byte	0x4
 2831 03d5 B201     		.2byte	0x1b2
 2832 03d7 EA030000 		.4byte	0x3ea
 2833 03db 00       		.byte	0
 2834 03dc 0E       		.uleb128 0xe
 2835 03dd 5B350000 		.4byte	.LASF119
 2836 03e1 04       		.byte	0x4
 2837 03e2 B501     		.2byte	0x1b5
 2838 03e4 6B000000 		.4byte	0x6b
 2839 03e8 1F       		.byte	0x1f
 2840 03e9 00       		.byte	0
 2841 03ea 0A       		.uleb128 0xa
 2842 03eb 6B000000 		.4byte	0x6b
 2843 03ef FA030000 		.4byte	0x3fa
 2844 03f3 0B       		.uleb128 0xb
 2845 03f4 B5000000 		.4byte	0xb5
 2846 03f8 1E       		.byte	0x1e
 2847 03f9 00       		.byte	0
 2848 03fa 04       		.uleb128 0x4
 2849 03fb 69120000 		.4byte	.LASF120
 2850 03ff 04       		.byte	0x4
 2851 0400 B701     		.2byte	0x1b7
 2852 0402 C6030000 		.4byte	0x3c6
 2853 0406 0D       		.uleb128 0xd
 2854 0407 20       		.byte	0x20
 2855 0408 04       		.byte	0x4
 2856 0409 BA01     		.2byte	0x1ba
 2857 040b 2A040000 		.4byte	0x42a
 2858 040f 0E       		.uleb128 0xe
 2859 0410 8F000000 		.4byte	.LASF121
 2860 0414 04       		.byte	0x4
 2861 0415 BE01     		.2byte	0x1be
 2862 0417 EA030000 		.4byte	0x3ea
 2863 041b 00       		.byte	0
 2864 041c 0E       		.uleb128 0xe
 2865 041d 7C3A0000 		.4byte	.LASF122
 2866 0421 04       		.byte	0x4
 2867 0422 C101     		.2byte	0x1c1
 2868 0424 6B000000 		.4byte	0x6b
 2869 0428 1F       		.byte	0x1f
 2870 0429 00       		.byte	0
 2871 042a 04       		.uleb128 0x4
 2872 042b 05390000 		.4byte	.LASF123
 2873 042f 04       		.byte	0x4
 2874 0430 C301     		.2byte	0x1c3
 2875 0432 06040000 		.4byte	0x406
 2876 0436 0D       		.uleb128 0xd
 2877 0437 14       		.byte	0x14
 2878 0438 04       		.byte	0x4
 2879 0439 C601     		.2byte	0x1c6
 2880 043b 81040000 		.4byte	0x481
 2881 043f 0E       		.uleb128 0xe
 2882 0440 58050000 		.4byte	.LASF124
 2883 0444 04       		.byte	0x4
 2884 0445 CE01     		.2byte	0x1ce
ARM GAS  C:\Users\Petro\AppData\Local\Temp\cc4GPyUf.s 			page 69


 2885 0447 6B000000 		.4byte	0x6b
 2886 044b 00       		.byte	0
 2887 044c 0E       		.uleb128 0xe
 2888 044d 2B240000 		.4byte	.LASF125
 2889 0451 04       		.byte	0x4
 2890 0452 D101     		.2byte	0x1d1
 2891 0454 81040000 		.4byte	0x481
 2892 0458 04       		.byte	0x4
 2893 0459 0E       		.uleb128 0xe
 2894 045a F22B0000 		.4byte	.LASF118
 2895 045e 04       		.byte	0x4
 2896 045f D301     		.2byte	0x1d3
 2897 0461 87040000 		.4byte	0x487
 2898 0465 08       		.byte	0x8
 2899 0466 0E       		.uleb128 0xe
 2900 0467 8F000000 		.4byte	.LASF121
 2901 046b 04       		.byte	0x4
 2902 046c D501     		.2byte	0x1d5
 2903 046e 8D040000 		.4byte	0x48d
 2904 0472 0C       		.byte	0xc
 2905 0473 0E       		.uleb128 0xe
 2906 0474 FF2D0000 		.4byte	.LASF126
 2907 0478 04       		.byte	0x4
 2908 0479 DF01     		.2byte	0x1df
 2909 047b 77000000 		.4byte	0x77
 2910 047f 10       		.byte	0x10
 2911 0480 00       		.byte	0
 2912 0481 0F       		.uleb128 0xf
 2913 0482 04       		.byte	0x4
 2914 0483 BA030000 		.4byte	0x3ba
 2915 0487 0F       		.uleb128 0xf
 2916 0488 04       		.byte	0x4
 2917 0489 FA030000 		.4byte	0x3fa
 2918 048d 0F       		.uleb128 0xf
 2919 048e 04       		.byte	0x4
 2920 048f 2A040000 		.4byte	0x42a
 2921 0493 04       		.uleb128 0x4
 2922 0494 F4350000 		.4byte	.LASF127
 2923 0498 04       		.byte	0x4
 2924 0499 E101     		.2byte	0x1e1
 2925 049b 36040000 		.4byte	0x436
 2926 049f 0F       		.uleb128 0xf
 2927 04a0 04       		.byte	0x4
 2928 04a1 6B000000 		.4byte	0x6b
 2929 04a5 0D       		.uleb128 0xd
 2930 04a6 08       		.byte	0x8
 2931 04a7 04       		.byte	0x4
 2932 04a8 9602     		.2byte	0x296
 2933 04aa E3040000 		.4byte	0x4e3
 2934 04ae 0E       		.uleb128 0xe
 2935 04af A60D0000 		.4byte	.LASF128
 2936 04b3 04       		.byte	0x4
 2937 04b4 9D02     		.2byte	0x29d
 2938 04b6 77000000 		.4byte	0x77
 2939 04ba 00       		.byte	0
 2940 04bb 0E       		.uleb128 0xe
 2941 04bc F9400000 		.4byte	.LASF129
ARM GAS  C:\Users\Petro\AppData\Local\Temp\cc4GPyUf.s 			page 70


 2942 04c0 04       		.byte	0x4
 2943 04c1 A402     		.2byte	0x2a4
 2944 04c3 77000000 		.4byte	0x77
 2945 04c7 02       		.byte	0x2
 2946 04c8 0E       		.uleb128 0xe
 2947 04c9 F43F0000 		.4byte	.LASF130
 2948 04cd 04       		.byte	0x4
 2949 04ce A902     		.2byte	0x2a9
 2950 04d0 77000000 		.4byte	0x77
 2951 04d4 04       		.byte	0x4
 2952 04d5 0E       		.uleb128 0xe
 2953 04d6 47430000 		.4byte	.LASF131
 2954 04da 04       		.byte	0x4
 2955 04db AF02     		.2byte	0x2af
 2956 04dd 77000000 		.4byte	0x77
 2957 04e1 06       		.byte	0x6
 2958 04e2 00       		.byte	0
 2959 04e3 04       		.uleb128 0x4
 2960 04e4 FE1C0000 		.4byte	.LASF132
 2961 04e8 04       		.byte	0x4
 2962 04e9 B102     		.2byte	0x2b1
 2963 04eb A5040000 		.4byte	0x4a5
 2964 04ef 0D       		.uleb128 0xd
 2965 04f0 08       		.byte	0x8
 2966 04f1 04       		.byte	0x4
 2967 04f2 B402     		.2byte	0x2b4
 2968 04f4 2D050000 		.4byte	0x52d
 2969 04f8 0E       		.uleb128 0xe
 2970 04f9 411E0000 		.4byte	.LASF133
 2971 04fd 04       		.byte	0x4
 2972 04fe B802     		.2byte	0x2b8
 2973 0500 6B000000 		.4byte	0x6b
 2974 0504 00       		.byte	0
 2975 0505 0E       		.uleb128 0xe
 2976 0506 9B410000 		.4byte	.LASF134
 2977 050a 04       		.byte	0x4
 2978 050b BE02     		.2byte	0x2be
 2979 050d 77000000 		.4byte	0x77
 2980 0511 02       		.byte	0x2
 2981 0512 0E       		.uleb128 0xe
 2982 0513 F43F0000 		.4byte	.LASF130
 2983 0517 04       		.byte	0x4
 2984 0518 C302     		.2byte	0x2c3
 2985 051a 77000000 		.4byte	0x77
 2986 051e 04       		.byte	0x4
 2987 051f 0E       		.uleb128 0xe
 2988 0520 47430000 		.4byte	.LASF131
 2989 0524 04       		.byte	0x4
 2990 0525 C902     		.2byte	0x2c9
 2991 0527 77000000 		.4byte	0x77
 2992 052b 06       		.byte	0x6
 2993 052c 00       		.byte	0
 2994 052d 04       		.uleb128 0x4
 2995 052e 9E300000 		.4byte	.LASF135
 2996 0532 04       		.byte	0x4
 2997 0533 CB02     		.2byte	0x2cb
 2998 0535 EF040000 		.4byte	0x4ef
ARM GAS  C:\Users\Petro\AppData\Local\Temp\cc4GPyUf.s 			page 71


 2999 0539 07       		.uleb128 0x7
 3000 053a 01       		.byte	0x1
 3001 053b 05       		.byte	0x5
 3002 053c 4E       		.byte	0x4e
 3003 053d F3050000 		.4byte	0x5f3
 3004 0541 08       		.uleb128 0x8
 3005 0542 68170000 		.4byte	.LASF136
 3006 0546 01       		.sleb128 1
 3007 0547 08       		.uleb128 0x8
 3008 0548 5E140000 		.4byte	.LASF137
 3009 054c 02       		.sleb128 2
 3010 054d 08       		.uleb128 0x8
 3011 054e 880A0000 		.4byte	.LASF138
 3012 0552 03       		.sleb128 3
 3013 0553 08       		.uleb128 0x8
 3014 0554 C10F0000 		.4byte	.LASF139
 3015 0558 04       		.sleb128 4
 3016 0559 08       		.uleb128 0x8
 3017 055a 972F0000 		.4byte	.LASF140
 3018 055e 05       		.sleb128 5
 3019 055f 08       		.uleb128 0x8
 3020 0560 052E0000 		.4byte	.LASF141
 3021 0564 06       		.sleb128 6
 3022 0565 08       		.uleb128 0x8
 3023 0566 570C0000 		.4byte	.LASF142
 3024 056a 07       		.sleb128 7
 3025 056b 08       		.uleb128 0x8
 3026 056c 342D0000 		.4byte	.LASF143
 3027 0570 08       		.sleb128 8
 3028 0571 08       		.uleb128 0x8
 3029 0572 0E080000 		.4byte	.LASF144
 3030 0576 09       		.sleb128 9
 3031 0577 08       		.uleb128 0x8
 3032 0578 E51D0000 		.4byte	.LASF145
 3033 057c 0A       		.sleb128 10
 3034 057d 08       		.uleb128 0x8
 3035 057e 0F3E0000 		.4byte	.LASF146
 3036 0582 0B       		.sleb128 11
 3037 0583 08       		.uleb128 0x8
 3038 0584 ED330000 		.4byte	.LASF147
 3039 0588 0C       		.sleb128 12
 3040 0589 08       		.uleb128 0x8
 3041 058a C10E0000 		.4byte	.LASF148
 3042 058e 0D       		.sleb128 13
 3043 058f 08       		.uleb128 0x8
 3044 0590 A02C0000 		.4byte	.LASF149
 3045 0594 0E       		.sleb128 14
 3046 0595 08       		.uleb128 0x8
 3047 0596 76070000 		.4byte	.LASF150
 3048 059a 0F       		.sleb128 15
 3049 059b 08       		.uleb128 0x8
 3050 059c 71420000 		.4byte	.LASF151
 3051 05a0 10       		.sleb128 16
 3052 05a1 08       		.uleb128 0x8
 3053 05a2 241D0000 		.4byte	.LASF152
 3054 05a6 11       		.sleb128 17
 3055 05a7 08       		.uleb128 0x8
ARM GAS  C:\Users\Petro\AppData\Local\Temp\cc4GPyUf.s 			page 72


 3056 05a8 083A0000 		.4byte	.LASF153
 3057 05ac 12       		.sleb128 18
 3058 05ad 08       		.uleb128 0x8
 3059 05ae 8D130000 		.4byte	.LASF154
 3060 05b2 13       		.sleb128 19
 3061 05b3 08       		.uleb128 0x8
 3062 05b4 D8030000 		.4byte	.LASF155
 3063 05b8 D200     		.sleb128 82
 3064 05ba 08       		.uleb128 0x8
 3065 05bb EF050000 		.4byte	.LASF156
 3066 05bf 16       		.sleb128 22
 3067 05c0 08       		.uleb128 0x8
 3068 05c1 632A0000 		.4byte	.LASF157
 3069 05c5 17       		.sleb128 23
 3070 05c6 08       		.uleb128 0x8
 3071 05c7 59400000 		.4byte	.LASF158
 3072 05cb 18       		.sleb128 24
 3073 05cc 08       		.uleb128 0x8
 3074 05cd D31A0000 		.4byte	.LASF159
 3075 05d1 19       		.sleb128 25
 3076 05d2 08       		.uleb128 0x8
 3077 05d3 B11E0000 		.4byte	.LASF160
 3078 05d7 1B       		.sleb128 27
 3079 05d8 08       		.uleb128 0x8
 3080 05d9 FE100000 		.4byte	.LASF161
 3081 05dd 1D       		.sleb128 29
 3082 05de 08       		.uleb128 0x8
 3083 05df 5E010000 		.4byte	.LASF162
 3084 05e3 1E       		.sleb128 30
 3085 05e4 08       		.uleb128 0x8
 3086 05e5 FD190000 		.4byte	.LASF163
 3087 05e9 D201     		.sleb128 210
 3088 05eb 08       		.uleb128 0x8
 3089 05ec 66310000 		.4byte	.LASF164
 3090 05f0 FF01     		.sleb128 255
 3091 05f2 00       		.byte	0
 3092 05f3 07       		.uleb128 0x7
 3093 05f4 01       		.byte	0x1
 3094 05f5 05       		.byte	0x5
 3095 05f6 AA       		.byte	0xaa
 3096 05f7 E6060000 		.4byte	0x6e6
 3097 05fb 08       		.uleb128 0x8
 3098 05fc 22320000 		.4byte	.LASF165
 3099 0600 00       		.sleb128 0
 3100 0601 08       		.uleb128 0x8
 3101 0602 13310000 		.4byte	.LASF166
 3102 0606 01       		.sleb128 1
 3103 0607 08       		.uleb128 0x8
 3104 0608 A8050000 		.4byte	.LASF167
 3105 060c 02       		.sleb128 2
 3106 060d 08       		.uleb128 0x8
 3107 060e 54410000 		.4byte	.LASF168
 3108 0612 03       		.sleb128 3
 3109 0613 08       		.uleb128 0x8
 3110 0614 680D0000 		.4byte	.LASF169
 3111 0618 04       		.sleb128 4
 3112 0619 08       		.uleb128 0x8
ARM GAS  C:\Users\Petro\AppData\Local\Temp\cc4GPyUf.s 			page 73


 3113 061a 9B280000 		.4byte	.LASF170
 3114 061e 05       		.sleb128 5
 3115 061f 08       		.uleb128 0x8
 3116 0620 DF3A0000 		.4byte	.LASF171
 3117 0624 06       		.sleb128 6
 3118 0625 08       		.uleb128 0x8
 3119 0626 162D0000 		.4byte	.LASF172
 3120 062a 07       		.sleb128 7
 3121 062b 08       		.uleb128 0x8
 3122 062c C4270000 		.4byte	.LASF173
 3123 0630 08       		.sleb128 8
 3124 0631 08       		.uleb128 0x8
 3125 0632 4E2B0000 		.4byte	.LASF174
 3126 0636 09       		.sleb128 9
 3127 0637 08       		.uleb128 0x8
 3128 0638 E42A0000 		.4byte	.LASF175
 3129 063c 0A       		.sleb128 10
 3130 063d 08       		.uleb128 0x8
 3131 063e 88150000 		.4byte	.LASF176
 3132 0642 0B       		.sleb128 11
 3133 0643 08       		.uleb128 0x8
 3134 0644 13250000 		.4byte	.LASF177
 3135 0648 0C       		.sleb128 12
 3136 0649 08       		.uleb128 0x8
 3137 064a DA0E0000 		.4byte	.LASF178
 3138 064e 0D       		.sleb128 13
 3139 064f 08       		.uleb128 0x8
 3140 0650 02140000 		.4byte	.LASF179
 3141 0654 0E       		.sleb128 14
 3142 0655 08       		.uleb128 0x8
 3143 0656 B7410000 		.4byte	.LASF180
 3144 065a 0F       		.sleb128 15
 3145 065b 08       		.uleb128 0x8
 3146 065c 0C060000 		.4byte	.LASF181
 3147 0660 10       		.sleb128 16
 3148 0661 08       		.uleb128 0x8
 3149 0662 CA050000 		.4byte	.LASF182
 3150 0666 11       		.sleb128 17
 3151 0667 08       		.uleb128 0x8
 3152 0668 2E150000 		.4byte	.LASF183
 3153 066c 8001     		.sleb128 128
 3154 066e 08       		.uleb128 0x8
 3155 066f 251C0000 		.4byte	.LASF184
 3156 0673 8001     		.sleb128 128
 3157 0675 08       		.uleb128 0x8
 3158 0676 8B3A0000 		.4byte	.LASF185
 3159 067a 8001     		.sleb128 128
 3160 067c 08       		.uleb128 0x8
 3161 067d 4F330000 		.4byte	.LASF186
 3162 0681 8001     		.sleb128 128
 3163 0683 08       		.uleb128 0x8
 3164 0684 B2290000 		.4byte	.LASF187
 3165 0688 8001     		.sleb128 128
 3166 068a 08       		.uleb128 0x8
 3167 068b 8A1D0000 		.4byte	.LASF188
 3168 068f 8001     		.sleb128 128
 3169 0691 08       		.uleb128 0x8
ARM GAS  C:\Users\Petro\AppData\Local\Temp\cc4GPyUf.s 			page 74


 3170 0692 E7130000 		.4byte	.LASF189
 3171 0696 8001     		.sleb128 128
 3172 0698 08       		.uleb128 0x8
 3173 0699 6C1A0000 		.4byte	.LASF190
 3174 069d 8101     		.sleb128 129
 3175 069f 08       		.uleb128 0x8
 3176 06a0 FB360000 		.4byte	.LASF191
 3177 06a4 8101     		.sleb128 129
 3178 06a6 08       		.uleb128 0x8
 3179 06a7 74000000 		.4byte	.LASF192
 3180 06ab 8101     		.sleb128 129
 3181 06ad 08       		.uleb128 0x8
 3182 06ae 9F3D0000 		.4byte	.LASF193
 3183 06b2 A001     		.sleb128 160
 3184 06b4 08       		.uleb128 0x8
 3185 06b5 C31F0000 		.4byte	.LASF194
 3186 06b9 A001     		.sleb128 160
 3187 06bb 08       		.uleb128 0x8
 3188 06bc E6090000 		.4byte	.LASF195
 3189 06c0 A101     		.sleb128 161
 3190 06c2 08       		.uleb128 0x8
 3191 06c3 EB3C0000 		.4byte	.LASF196
 3192 06c7 A201     		.sleb128 162
 3193 06c9 08       		.uleb128 0x8
 3194 06ca 9B160000 		.4byte	.LASF197
 3195 06ce A301     		.sleb128 163
 3196 06d0 08       		.uleb128 0x8
 3197 06d1 31100000 		.4byte	.LASF198
 3198 06d5 FD01     		.sleb128 253
 3199 06d7 08       		.uleb128 0x8
 3200 06d8 61250000 		.4byte	.LASF199
 3201 06dc FE01     		.sleb128 254
 3202 06de 08       		.uleb128 0x8
 3203 06df C92D0000 		.4byte	.LASF200
 3204 06e3 FF01     		.sleb128 255
 3205 06e5 00       		.byte	0
 3206 06e6 04       		.uleb128 0x4
 3207 06e7 F5320000 		.4byte	.LASF201
 3208 06eb 05       		.byte	0x5
 3209 06ec 5901     		.2byte	0x159
 3210 06ee F3050000 		.4byte	0x5f3
 3211 06f2 04       		.uleb128 0x4
 3212 06f3 AF310000 		.4byte	.LASF202
 3213 06f7 05       		.byte	0x5
 3214 06f8 8801     		.2byte	0x188
 3215 06fa 77000000 		.4byte	0x77
 3216 06fe 0D       		.uleb128 0xd
 3217 06ff 02       		.byte	0x2
 3218 0700 05       		.byte	0x5
 3219 0701 9201     		.2byte	0x192
 3220 0703 22070000 		.4byte	0x722
 3221 0707 0E       		.uleb128 0xe
 3222 0708 B8090000 		.4byte	.LASF203
 3223 070c 05       		.byte	0x5
 3224 070d 9901     		.2byte	0x199
 3225 070f 6B000000 		.4byte	0x6b
 3226 0713 00       		.byte	0
ARM GAS  C:\Users\Petro\AppData\Local\Temp\cc4GPyUf.s 			page 75


 3227 0714 0E       		.uleb128 0xe
 3228 0715 F0420000 		.4byte	.LASF204
 3229 0719 05       		.byte	0x5
 3230 071a 9F01     		.2byte	0x19f
 3231 071c 6B000000 		.4byte	0x6b
 3232 0720 01       		.byte	0x1
 3233 0721 00       		.byte	0
 3234 0722 04       		.uleb128 0x4
 3235 0723 D2080000 		.4byte	.LASF205
 3236 0727 05       		.byte	0x5
 3237 0728 A101     		.2byte	0x1a1
 3238 072a FE060000 		.4byte	0x6fe
 3239 072e 0D       		.uleb128 0xd
 3240 072f 08       		.byte	0x8
 3241 0730 05       		.byte	0x5
 3242 0731 BD01     		.2byte	0x1bd
 3243 0733 5F070000 		.4byte	0x75f
 3244 0737 10       		.uleb128 0x10
 3245 0738 76616C00 		.ascii	"val\000"
 3246 073c 05       		.byte	0x5
 3247 073d C001     		.2byte	0x1c0
 3248 073f 9F040000 		.4byte	0x49f
 3249 0743 00       		.byte	0
 3250 0744 10       		.uleb128 0x10
 3251 0745 6C656E00 		.ascii	"len\000"
 3252 0749 05       		.byte	0x5
 3253 074a C301     		.2byte	0x1c3
 3254 074c 77000000 		.4byte	0x77
 3255 0750 04       		.byte	0x4
 3256 0751 0E       		.uleb128 0xe
 3257 0752 20420000 		.4byte	.LASF206
 3258 0756 05       		.byte	0x5
 3259 0757 CA01     		.2byte	0x1ca
 3260 0759 77000000 		.4byte	0x77
 3261 075d 06       		.byte	0x6
 3262 075e 00       		.byte	0
 3263 075f 04       		.uleb128 0x4
 3264 0760 35070000 		.4byte	.LASF207
 3265 0764 05       		.byte	0x5
 3266 0765 CC01     		.2byte	0x1cc
 3267 0767 2E070000 		.4byte	0x72e
 3268 076b 0D       		.uleb128 0xd
 3269 076c 0C       		.byte	0xc
 3270 076d 05       		.byte	0x5
 3271 076e CF01     		.2byte	0x1cf
 3272 0770 8F070000 		.4byte	0x78f
 3273 0774 0E       		.uleb128 0xe
 3274 0775 36320000 		.4byte	.LASF208
 3275 0779 05       		.byte	0x5
 3276 077a D201     		.2byte	0x1d2
 3277 077c 5F070000 		.4byte	0x75f
 3278 0780 00       		.byte	0
 3279 0781 0E       		.uleb128 0xe
 3280 0782 F9270000 		.4byte	.LASF209
 3281 0786 05       		.byte	0x5
 3282 0787 D501     		.2byte	0x1d5
 3283 0789 F2060000 		.4byte	0x6f2
ARM GAS  C:\Users\Petro\AppData\Local\Temp\cc4GPyUf.s 			page 76


 3284 078d 08       		.byte	0x8
 3285 078e 00       		.byte	0
 3286 078f 04       		.uleb128 0x4
 3287 0790 D60D0000 		.4byte	.LASF210
 3288 0794 05       		.byte	0x5
 3289 0795 D701     		.2byte	0x1d7
 3290 0797 6B070000 		.4byte	0x76b
 3291 079b 0C       		.uleb128 0xc
 3292 079c DB000000 		.4byte	.LASF211
 3293 07a0 06       		.byte	0x6
 3294 07a1 34       		.byte	0x34
 3295 07a2 8F070000 		.4byte	0x78f
 3296 07a6 0C       		.uleb128 0xc
 3297 07a7 9D190000 		.4byte	.LASF212
 3298 07ab 06       		.byte	0x6
 3299 07ac 37       		.byte	0x37
 3300 07ad 8F070000 		.4byte	0x78f
 3301 07b1 11       		.uleb128 0x11
 3302 07b2 04       		.byte	0x4
 3303 07b3 06       		.byte	0x6
 3304 07b4 3A       		.byte	0x3a
 3305 07b5 DE070000 		.4byte	0x7de
 3306 07b9 12       		.uleb128 0x12
 3307 07ba F9270000 		.4byte	.LASF209
 3308 07be 06       		.byte	0x6
 3309 07bf 3D       		.byte	0x3d
 3310 07c0 F2060000 		.4byte	0x6f2
 3311 07c4 00       		.byte	0
 3312 07c5 12       		.uleb128 0x12
 3313 07c6 BD270000 		.4byte	.LASF213
 3314 07ca 06       		.byte	0x6
 3315 07cb 43       		.byte	0x43
 3316 07cc 6B000000 		.4byte	0x6b
 3317 07d0 02       		.byte	0x2
 3318 07d1 12       		.uleb128 0x12
 3319 07d2 5F120000 		.4byte	.LASF214
 3320 07d6 06       		.byte	0x6
 3321 07d7 46       		.byte	0x46
 3322 07d8 E6060000 		.4byte	0x6e6
 3323 07dc 03       		.byte	0x3
 3324 07dd 00       		.byte	0
 3325 07de 0C       		.uleb128 0xc
 3326 07df 96100000 		.4byte	.LASF215
 3327 07e3 06       		.byte	0x6
 3328 07e4 48       		.byte	0x48
 3329 07e5 B1070000 		.4byte	0x7b1
 3330 07e9 11       		.uleb128 0x11
 3331 07ea 10       		.byte	0x10
 3332 07eb 06       		.byte	0x6
 3333 07ec 8A       		.byte	0x8a
 3334 07ed 0A080000 		.4byte	0x80a
 3335 07f1 12       		.uleb128 0x12
 3336 07f2 1E350000 		.4byte	.LASF216
 3337 07f6 06       		.byte	0x6
 3338 07f7 8D       		.byte	0x8d
 3339 07f8 22070000 		.4byte	0x722
 3340 07fc 00       		.byte	0
ARM GAS  C:\Users\Petro\AppData\Local\Temp\cc4GPyUf.s 			page 77


 3341 07fd 12       		.uleb128 0x12
 3342 07fe 343A0000 		.4byte	.LASF217
 3343 0802 06       		.byte	0x6
 3344 0803 90       		.byte	0x90
 3345 0804 8F070000 		.4byte	0x78f
 3346 0808 04       		.byte	0x4
 3347 0809 00       		.byte	0
 3348 080a 0C       		.uleb128 0xc
 3349 080b 44280000 		.4byte	.LASF218
 3350 080f 06       		.byte	0x6
 3351 0810 92       		.byte	0x92
 3352 0811 E9070000 		.4byte	0x7e9
 3353 0815 11       		.uleb128 0x11
 3354 0816 08       		.byte	0x8
 3355 0817 07       		.byte	0x7
 3356 0818 C1       		.byte	0xc1
 3357 0819 36080000 		.4byte	0x836
 3358 081d 12       		.uleb128 0x12
 3359 081e 29350000 		.4byte	.LASF219
 3360 0822 07       		.byte	0x7
 3361 0823 C4       		.byte	0xc4
 3362 0824 77000000 		.4byte	0x77
 3363 0828 00       		.byte	0
 3364 0829 12       		.uleb128 0x12
 3365 082a 61390000 		.4byte	.LASF220
 3366 082e 07       		.byte	0x7
 3367 082f C9       		.byte	0xc9
 3368 0830 BC000000 		.4byte	0xbc
 3369 0834 04       		.byte	0x4
 3370 0835 00       		.byte	0
 3371 0836 0C       		.uleb128 0xc
 3372 0837 6E2D0000 		.4byte	.LASF221
 3373 083b 07       		.byte	0x7
 3374 083c CB       		.byte	0xcb
 3375 083d 15080000 		.4byte	0x815
 3376 0841 11       		.uleb128 0x11
 3377 0842 08       		.byte	0x8
 3378 0843 07       		.byte	0x7
 3379 0844 CE       		.byte	0xce
 3380 0845 62080000 		.4byte	0x862
 3381 0849 12       		.uleb128 0x12
 3382 084a 63130000 		.4byte	.LASF222
 3383 084e 07       		.byte	0x7
 3384 084f D1       		.byte	0xd1
 3385 0850 77000000 		.4byte	0x77
 3386 0854 00       		.byte	0
 3387 0855 12       		.uleb128 0x12
 3388 0856 5C3A0000 		.4byte	.LASF223
 3389 085a 07       		.byte	0x7
 3390 085b D6       		.byte	0xd6
 3391 085c 62080000 		.4byte	0x862
 3392 0860 04       		.byte	0x4
 3393 0861 00       		.byte	0
 3394 0862 0F       		.uleb128 0xf
 3395 0863 04       		.byte	0x4
 3396 0864 36080000 		.4byte	0x836
 3397 0868 0C       		.uleb128 0xc
ARM GAS  C:\Users\Petro\AppData\Local\Temp\cc4GPyUf.s 			page 78


 3398 0869 BE380000 		.4byte	.LASF224
 3399 086d 07       		.byte	0x7
 3400 086e D8       		.byte	0xd8
 3401 086f 41080000 		.4byte	0x841
 3402 0873 13       		.uleb128 0x13
 3403 0874 08       		.byte	0x8
 3404 0875 07       		.byte	0x7
 3405 0876 DB       		.byte	0xdb
 3406 0877 92080000 		.4byte	0x892
 3407 087b 14       		.uleb128 0x14
 3408 087c 6D3A0000 		.4byte	.LASF225
 3409 0880 07       		.byte	0x7
 3410 0881 E2       		.byte	0xe2
 3411 0882 68080000 		.4byte	0x868
 3412 0886 14       		.uleb128 0x14
 3413 0887 B61F0000 		.4byte	.LASF226
 3414 088b 07       		.byte	0x7
 3415 088c E5       		.byte	0xe5
 3416 088d 77000000 		.4byte	0x77
 3417 0891 00       		.byte	0
 3418 0892 0C       		.uleb128 0xc
 3419 0893 45380000 		.4byte	.LASF227
 3420 0897 07       		.byte	0x7
 3421 0898 E7       		.byte	0xe7
 3422 0899 73080000 		.4byte	0x873
 3423 089d 11       		.uleb128 0x11
 3424 089e 14       		.byte	0x14
 3425 089f 07       		.byte	0x7
 3426 08a0 EA       		.byte	0xea
 3427 08a1 E4080000 		.4byte	0x8e4
 3428 08a5 12       		.uleb128 0x12
 3429 08a6 15120000 		.4byte	.LASF228
 3430 08aa 07       		.byte	0x7
 3431 08ab ED       		.byte	0xed
 3432 08ac 77000000 		.4byte	0x77
 3433 08b0 00       		.byte	0
 3434 08b1 12       		.uleb128 0x12
 3435 08b2 120E0000 		.4byte	.LASF229
 3436 08b6 07       		.byte	0x7
 3437 08b7 F3       		.byte	0xf3
 3438 08b8 77000000 		.4byte	0x77
 3439 08bc 02       		.byte	0x2
 3440 08bd 12       		.uleb128 0x12
 3441 08be 6B070000 		.4byte	.LASF230
 3442 08c2 07       		.byte	0x7
 3443 08c3 FD       		.byte	0xfd
 3444 08c4 83000000 		.4byte	0x83
 3445 08c8 04       		.byte	0x4
 3446 08c9 0E       		.uleb128 0xe
 3447 08ca 8E280000 		.4byte	.LASF231
 3448 08ce 07       		.byte	0x7
 3449 08cf 0001     		.2byte	0x100
 3450 08d1 77000000 		.4byte	0x77
 3451 08d5 08       		.byte	0x8
 3452 08d6 0E       		.uleb128 0xe
 3453 08d7 7C320000 		.4byte	.LASF232
 3454 08db 07       		.byte	0x7
ARM GAS  C:\Users\Petro\AppData\Local\Temp\cc4GPyUf.s 			page 79


 3455 08dc 0901     		.2byte	0x109
 3456 08de 92080000 		.4byte	0x892
 3457 08e2 0C       		.byte	0xc
 3458 08e3 00       		.byte	0
 3459 08e4 04       		.uleb128 0x4
 3460 08e5 F9160000 		.4byte	.LASF233
 3461 08e9 07       		.byte	0x7
 3462 08ea 0A01     		.2byte	0x10a
 3463 08ec 9D080000 		.4byte	0x89d
 3464 08f0 07       		.uleb128 0x7
 3465 08f1 01       		.byte	0x1
 3466 08f2 08       		.byte	0x8
 3467 08f3 D3       		.byte	0xd3
 3468 08f4 B9090000 		.4byte	0x9b9
 3469 08f8 08       		.uleb128 0x8
 3470 08f9 9F430000 		.4byte	.LASF234
 3471 08fd 01       		.sleb128 1
 3472 08fe 08       		.uleb128 0x8
 3473 08ff CD1E0000 		.4byte	.LASF235
 3474 0903 02       		.sleb128 2
 3475 0904 08       		.uleb128 0x8
 3476 0905 57090000 		.4byte	.LASF236
 3477 0909 03       		.sleb128 3
 3478 090a 08       		.uleb128 0x8
 3479 090b 79230000 		.4byte	.LASF237
 3480 090f 04       		.sleb128 4
 3481 0910 08       		.uleb128 0x8
 3482 0911 1A0D0000 		.4byte	.LASF238
 3483 0915 05       		.sleb128 5
 3484 0916 08       		.uleb128 0x8
 3485 0917 7A010000 		.4byte	.LASF239
 3486 091b 06       		.sleb128 6
 3487 091c 08       		.uleb128 0x8
 3488 091d C6390000 		.4byte	.LASF240
 3489 0921 07       		.sleb128 7
 3490 0922 08       		.uleb128 0x8
 3491 0923 3C190000 		.4byte	.LASF241
 3492 0927 08       		.sleb128 8
 3493 0928 08       		.uleb128 0x8
 3494 0929 1C0C0000 		.4byte	.LASF242
 3495 092d 09       		.sleb128 9
 3496 092e 08       		.uleb128 0x8
 3497 092f DC320000 		.4byte	.LASF243
 3498 0933 0A       		.sleb128 10
 3499 0934 08       		.uleb128 0x8
 3500 0935 8A450000 		.4byte	.LASF244
 3501 0939 0D       		.sleb128 13
 3502 093a 08       		.uleb128 0x8
 3503 093b BA210000 		.4byte	.LASF245
 3504 093f 0E       		.sleb128 14
 3505 0940 08       		.uleb128 0x8
 3506 0941 2E330000 		.4byte	.LASF246
 3507 0945 0F       		.sleb128 15
 3508 0946 08       		.uleb128 0x8
 3509 0947 263D0000 		.4byte	.LASF247
 3510 094b 10       		.sleb128 16
 3511 094c 08       		.uleb128 0x8
ARM GAS  C:\Users\Petro\AppData\Local\Temp\cc4GPyUf.s 			page 80


 3512 094d 8A220000 		.4byte	.LASF248
 3513 0951 10       		.sleb128 16
 3514 0952 08       		.uleb128 0x8
 3515 0953 FA000000 		.4byte	.LASF249
 3516 0957 11       		.sleb128 17
 3517 0958 08       		.uleb128 0x8
 3518 0959 60110000 		.4byte	.LASF250
 3519 095d 12       		.sleb128 18
 3520 095e 08       		.uleb128 0x8
 3521 095f F50D0000 		.4byte	.LASF251
 3522 0963 14       		.sleb128 20
 3523 0964 08       		.uleb128 0x8
 3524 0965 BC200000 		.4byte	.LASF252
 3525 0969 15       		.sleb128 21
 3526 096a 08       		.uleb128 0x8
 3527 096b FF340000 		.4byte	.LASF253
 3528 096f 16       		.sleb128 22
 3529 0970 08       		.uleb128 0x8
 3530 0971 E63B0000 		.4byte	.LASF254
 3531 0975 17       		.sleb128 23
 3532 0976 08       		.uleb128 0x8
 3533 0977 FF410000 		.4byte	.LASF255
 3534 097b 18       		.sleb128 24
 3535 097c 08       		.uleb128 0x8
 3536 097d 32370000 		.4byte	.LASF256
 3537 0981 19       		.sleb128 25
 3538 0982 08       		.uleb128 0x8
 3539 0983 B60B0000 		.4byte	.LASF257
 3540 0987 1A       		.sleb128 26
 3541 0988 08       		.uleb128 0x8
 3542 0989 0C380000 		.4byte	.LASF258
 3543 098d 1B       		.sleb128 27
 3544 098e 08       		.uleb128 0x8
 3545 098f 6B200000 		.4byte	.LASF259
 3546 0993 1C       		.sleb128 28
 3547 0994 08       		.uleb128 0x8
 3548 0995 F30F0000 		.4byte	.LASF260
 3549 0999 1D       		.sleb128 29
 3550 099a 08       		.uleb128 0x8
 3551 099b 20220000 		.4byte	.LASF261
 3552 099f 1E       		.sleb128 30
 3553 09a0 08       		.uleb128 0x8
 3554 09a1 E0190000 		.4byte	.LASF262
 3555 09a5 1F       		.sleb128 31
 3556 09a6 08       		.uleb128 0x8
 3557 09a7 802A0000 		.4byte	.LASF263
 3558 09ab 20       		.sleb128 32
 3559 09ac 08       		.uleb128 0x8
 3560 09ad DF340000 		.4byte	.LASF264
 3561 09b1 21       		.sleb128 33
 3562 09b2 08       		.uleb128 0x8
 3563 09b3 AA150000 		.4byte	.LASF265
 3564 09b7 3D       		.sleb128 61
 3565 09b8 00       		.byte	0
 3566 09b9 04       		.uleb128 0x4
 3567 09ba 2A080000 		.4byte	.LASF266
 3568 09be 08       		.byte	0x8
ARM GAS  C:\Users\Petro\AppData\Local\Temp\cc4GPyUf.s 			page 81


 3569 09bf 4101     		.2byte	0x141
 3570 09c1 C5090000 		.4byte	0x9c5
 3571 09c5 0F       		.uleb128 0xf
 3572 09c6 04       		.byte	0x4
 3573 09c7 CB090000 		.4byte	0x9cb
 3574 09cb 15       		.uleb128 0x15
 3575 09cc DB090000 		.4byte	0x9db
 3576 09d0 16       		.uleb128 0x16
 3577 09d1 83000000 		.4byte	0x83
 3578 09d5 16       		.uleb128 0x16
 3579 09d6 BC000000 		.4byte	0xbc
 3580 09da 00       		.byte	0
 3581 09db 07       		.uleb128 0x7
 3582 09dc 01       		.byte	0x1
 3583 09dd 09       		.byte	0x9
 3584 09de 1F       		.byte	0x1f
 3585 09df 080A0000 		.4byte	0xa08
 3586 09e3 08       		.uleb128 0x8
 3587 09e4 CC2A0000 		.4byte	.LASF267
 3588 09e8 00       		.sleb128 0
 3589 09e9 08       		.uleb128 0x8
 3590 09ea B9350000 		.4byte	.LASF268
 3591 09ee 01       		.sleb128 1
 3592 09ef 08       		.uleb128 0x8
 3593 09f0 9B030000 		.4byte	.LASF269
 3594 09f4 02       		.sleb128 2
 3595 09f5 08       		.uleb128 0x8
 3596 09f6 1A0E0000 		.4byte	.LASF270
 3597 09fa 03       		.sleb128 3
 3598 09fb 08       		.uleb128 0x8
 3599 09fc 581F0000 		.4byte	.LASF271
 3600 0a00 04       		.sleb128 4
 3601 0a01 08       		.uleb128 0x8
 3602 0a02 500A0000 		.4byte	.LASF272
 3603 0a06 05       		.sleb128 5
 3604 0a07 00       		.byte	0
 3605 0a08 0C       		.uleb128 0xc
 3606 0a09 C5150000 		.4byte	.LASF273
 3607 0a0d 09       		.byte	0x9
 3608 0a0e 26       		.byte	0x26
 3609 0a0f DB090000 		.4byte	0x9db
 3610 0a13 07       		.uleb128 0x7
 3611 0a14 01       		.byte	0x1
 3612 0a15 09       		.byte	0x9
 3613 0a16 2A       		.byte	0x2a
 3614 0a17 2E0A0000 		.4byte	0xa2e
 3615 0a1b 08       		.uleb128 0x8
 3616 0a1c 191A0000 		.4byte	.LASF274
 3617 0a20 00       		.sleb128 0
 3618 0a21 08       		.uleb128 0x8
 3619 0a22 A71F0000 		.4byte	.LASF275
 3620 0a26 01       		.sleb128 1
 3621 0a27 08       		.uleb128 0x8
 3622 0a28 D13D0000 		.4byte	.LASF276
 3623 0a2c 02       		.sleb128 2
 3624 0a2d 00       		.byte	0
 3625 0a2e 0C       		.uleb128 0xc
ARM GAS  C:\Users\Petro\AppData\Local\Temp\cc4GPyUf.s 			page 82


 3626 0a2f 6F330000 		.4byte	.LASF277
 3627 0a33 09       		.byte	0x9
 3628 0a34 2E       		.byte	0x2e
 3629 0a35 130A0000 		.4byte	0xa13
 3630 0a39 11       		.uleb128 0x11
 3631 0a3a 06       		.byte	0x6
 3632 0a3b 09       		.byte	0x9
 3633 0a3c 31       		.byte	0x31
 3634 0a3d 5A0A0000 		.4byte	0xa5a
 3635 0a41 12       		.uleb128 0x12
 3636 0a42 6F390000 		.4byte	.LASF278
 3637 0a46 09       		.byte	0x9
 3638 0a47 33       		.byte	0x33
 3639 0a48 F2060000 		.4byte	0x6f2
 3640 0a4c 00       		.byte	0
 3641 0a4d 12       		.uleb128 0x12
 3642 0a4e AC090000 		.4byte	.LASF279
 3643 0a52 09       		.byte	0x9
 3644 0a53 34       		.byte	0x34
 3645 0a54 5A0A0000 		.4byte	0xa5a
 3646 0a58 02       		.byte	0x2
 3647 0a59 00       		.byte	0
 3648 0a5a 0A       		.uleb128 0xa
 3649 0a5b F2060000 		.4byte	0x6f2
 3650 0a5f 6A0A0000 		.4byte	0xa6a
 3651 0a63 0B       		.uleb128 0xb
 3652 0a64 B5000000 		.4byte	0xb5
 3653 0a68 01       		.byte	0x1
 3654 0a69 00       		.byte	0
 3655 0a6a 0C       		.uleb128 0xc
 3656 0a6b B73C0000 		.4byte	.LASF280
 3657 0a6f 09       		.byte	0x9
 3658 0a70 35       		.byte	0x35
 3659 0a71 390A0000 		.4byte	0xa39
 3660 0a75 11       		.uleb128 0x11
 3661 0a76 20       		.byte	0x20
 3662 0a77 09       		.byte	0x9
 3663 0a78 38       		.byte	0x38
 3664 0a79 960A0000 		.4byte	0xa96
 3665 0a7d 12       		.uleb128 0x12
 3666 0a7e 360D0000 		.4byte	.LASF281
 3667 0a82 09       		.byte	0x9
 3668 0a83 3B       		.byte	0x3b
 3669 0a84 F2060000 		.4byte	0x6f2
 3670 0a88 00       		.byte	0
 3671 0a89 12       		.uleb128 0x12
 3672 0a8a D3320000 		.4byte	.LASF282
 3673 0a8e 09       		.byte	0x9
 3674 0a8f 3E       		.byte	0x3e
 3675 0a90 960A0000 		.4byte	0xa96
 3676 0a94 02       		.byte	0x2
 3677 0a95 00       		.byte	0
 3678 0a96 0A       		.uleb128 0xa
 3679 0a97 6A0A0000 		.4byte	0xa6a
 3680 0a9b A60A0000 		.4byte	0xaa6
 3681 0a9f 0B       		.uleb128 0xb
 3682 0aa0 B5000000 		.4byte	0xb5
ARM GAS  C:\Users\Petro\AppData\Local\Temp\cc4GPyUf.s 			page 83


 3683 0aa4 04       		.byte	0x4
 3684 0aa5 00       		.byte	0
 3685 0aa6 0C       		.uleb128 0xc
 3686 0aa7 1D3A0000 		.4byte	.LASF283
 3687 0aab 09       		.byte	0x9
 3688 0aac 3F       		.byte	0x3f
 3689 0aad 750A0000 		.4byte	0xa75
 3690 0ab1 11       		.uleb128 0x11
 3691 0ab2 08       		.byte	0x8
 3692 0ab3 09       		.byte	0x9
 3693 0ab4 56       		.byte	0x56
 3694 0ab5 DE0A0000 		.4byte	0xade
 3695 0ab9 12       		.uleb128 0x12
 3696 0aba 1E350000 		.4byte	.LASF216
 3697 0abe 09       		.byte	0x9
 3698 0abf 58       		.byte	0x58
 3699 0ac0 22070000 		.4byte	0x722
 3700 0ac4 00       		.byte	0
 3701 0ac5 12       		.uleb128 0x12
 3702 0ac6 E7400000 		.4byte	.LASF284
 3703 0aca 09       		.byte	0x9
 3704 0acb 59       		.byte	0x59
 3705 0acc 080A0000 		.4byte	0xa08
 3706 0ad0 02       		.byte	0x2
 3707 0ad1 12       		.uleb128 0x12
 3708 0ad2 36320000 		.4byte	.LASF208
 3709 0ad6 09       		.byte	0x9
 3710 0ad7 5A       		.byte	0x5a
 3711 0ad8 DE0A0000 		.4byte	0xade
 3712 0adc 04       		.byte	0x4
 3713 0add 00       		.byte	0
 3714 0ade 0F       		.uleb128 0xf
 3715 0adf 04       		.byte	0x4
 3716 0ae0 5F070000 		.4byte	0x75f
 3717 0ae4 0C       		.uleb128 0xc
 3718 0ae5 34450000 		.4byte	.LASF285
 3719 0ae9 09       		.byte	0x9
 3720 0aea 5B       		.byte	0x5b
 3721 0aeb B10A0000 		.4byte	0xab1
 3722 0aef 11       		.uleb128 0x11
 3723 0af0 07       		.byte	0x7
 3724 0af1 09       		.byte	0x9
 3725 0af2 65       		.byte	0x65
 3726 0af3 400B0000 		.4byte	0xb40
 3727 0af7 12       		.uleb128 0x12
 3728 0af8 3B080000 		.4byte	.LASF286
 3729 0afc 09       		.byte	0x9
 3730 0afd 67       		.byte	0x67
 3731 0afe 77000000 		.4byte	0x77
 3732 0b02 00       		.byte	0
 3733 0b03 12       		.uleb128 0x12
 3734 0b04 94370000 		.4byte	.LASF287
 3735 0b08 09       		.byte	0x9
 3736 0b09 68       		.byte	0x68
 3737 0b0a 6B000000 		.4byte	0x6b
 3738 0b0e 02       		.byte	0x2
 3739 0b0f 17       		.uleb128 0x17
ARM GAS  C:\Users\Petro\AppData\Local\Temp\cc4GPyUf.s 			page 84


 3740 0b10 64617900 		.ascii	"day\000"
 3741 0b14 09       		.byte	0x9
 3742 0b15 69       		.byte	0x69
 3743 0b16 6B000000 		.4byte	0x6b
 3744 0b1a 03       		.byte	0x3
 3745 0b1b 12       		.uleb128 0x12
 3746 0b1c D03F0000 		.4byte	.LASF288
 3747 0b20 09       		.byte	0x9
 3748 0b21 6A       		.byte	0x6a
 3749 0b22 6B000000 		.4byte	0x6b
 3750 0b26 04       		.byte	0x4
 3751 0b27 12       		.uleb128 0x12
 3752 0b28 C42A0000 		.4byte	.LASF289
 3753 0b2c 09       		.byte	0x9
 3754 0b2d 6B       		.byte	0x6b
 3755 0b2e 6B000000 		.4byte	0x6b
 3756 0b32 05       		.byte	0x5
 3757 0b33 12       		.uleb128 0x12
 3758 0b34 42270000 		.4byte	.LASF290
 3759 0b38 09       		.byte	0x9
 3760 0b39 6C       		.byte	0x6c
 3761 0b3a 6B000000 		.4byte	0x6b
 3762 0b3e 06       		.byte	0x6
 3763 0b3f 00       		.byte	0
 3764 0b40 0C       		.uleb128 0xc
 3765 0b41 CB310000 		.4byte	.LASF291
 3766 0b45 09       		.byte	0x9
 3767 0b46 6D       		.byte	0x6d
 3768 0b47 EF0A0000 		.4byte	0xaef
 3769 0b4b 11       		.uleb128 0x11
 3770 0b4c 12       		.byte	0x12
 3771 0b4d 09       		.byte	0x9
 3772 0b4e 6F       		.byte	0x6f
 3773 0b4f A80B0000 		.4byte	0xba8
 3774 0b53 12       		.uleb128 0x12
 3775 0b54 29230000 		.4byte	.LASF292
 3776 0b58 09       		.byte	0x9
 3777 0b59 71       		.byte	0x71
 3778 0b5a 77000000 		.4byte	0x77
 3779 0b5e 00       		.byte	0
 3780 0b5f 12       		.uleb128 0x12
 3781 0b60 57130000 		.4byte	.LASF293
 3782 0b64 09       		.byte	0x9
 3783 0b65 72       		.byte	0x72
 3784 0b66 77000000 		.4byte	0x77
 3785 0b6a 02       		.byte	0x2
 3786 0b6b 12       		.uleb128 0x12
 3787 0b6c 221E0000 		.4byte	.LASF294
 3788 0b70 09       		.byte	0x9
 3789 0b71 73       		.byte	0x73
 3790 0b72 77000000 		.4byte	0x77
 3791 0b76 04       		.byte	0x4
 3792 0b77 12       		.uleb128 0x12
 3793 0b78 B60E0000 		.4byte	.LASF295
 3794 0b7c 09       		.byte	0x9
 3795 0b7d 74       		.byte	0x74
 3796 0b7e 77000000 		.4byte	0x77
ARM GAS  C:\Users\Petro\AppData\Local\Temp\cc4GPyUf.s 			page 85


 3797 0b82 06       		.byte	0x6
 3798 0b83 12       		.uleb128 0x12
 3799 0b84 E71C0000 		.4byte	.LASF296
 3800 0b88 09       		.byte	0x9
 3801 0b89 75       		.byte	0x75
 3802 0b8a 400B0000 		.4byte	0xb40
 3803 0b8e 08       		.byte	0x8
 3804 0b8f 12       		.uleb128 0x12
 3805 0b90 A41E0000 		.4byte	.LASF297
 3806 0b94 09       		.byte	0x9
 3807 0b95 76       		.byte	0x76
 3808 0b96 6B000000 		.4byte	0x6b
 3809 0b9a 0F       		.byte	0xf
 3810 0b9b 12       		.uleb128 0x12
 3811 0b9c EB040000 		.4byte	.LASF298
 3812 0ba0 09       		.byte	0x9
 3813 0ba1 77       		.byte	0x77
 3814 0ba2 8F000000 		.4byte	0x8f
 3815 0ba6 10       		.byte	0x10
 3816 0ba7 00       		.byte	0
 3817 0ba8 0C       		.uleb128 0xc
 3818 0ba9 033F0000 		.4byte	.LASF299
 3819 0bad 09       		.byte	0x9
 3820 0bae 79       		.byte	0x79
 3821 0baf 4B0B0000 		.4byte	0xb4b
 3822 0bb3 07       		.uleb128 0x7
 3823 0bb4 01       		.byte	0x1
 3824 0bb5 0A       		.byte	0xa
 3825 0bb6 22       		.byte	0x22
 3826 0bb7 DA0B0000 		.4byte	0xbda
 3827 0bbb 08       		.uleb128 0x8
 3828 0bbc 26210000 		.4byte	.LASF300
 3829 0bc0 00       		.sleb128 0
 3830 0bc1 08       		.uleb128 0x8
 3831 0bc2 1D3F0000 		.4byte	.LASF301
 3832 0bc6 01       		.sleb128 1
 3833 0bc7 08       		.uleb128 0x8
 3834 0bc8 12130000 		.4byte	.LASF302
 3835 0bcc 02       		.sleb128 2
 3836 0bcd 08       		.uleb128 0x8
 3837 0bce E3220000 		.4byte	.LASF303
 3838 0bd2 03       		.sleb128 3
 3839 0bd3 08       		.uleb128 0x8
 3840 0bd4 85320000 		.4byte	.LASF304
 3841 0bd8 04       		.sleb128 4
 3842 0bd9 00       		.byte	0
 3843 0bda 07       		.uleb128 0x7
 3844 0bdb 01       		.byte	0x1
 3845 0bdc 0A       		.byte	0xa
 3846 0bdd 2C       		.byte	0x2c
 3847 0bde EF0B0000 		.4byte	0xbef
 3848 0be2 08       		.uleb128 0x8
 3849 0be3 97230000 		.4byte	.LASF305
 3850 0be7 00       		.sleb128 0
 3851 0be8 08       		.uleb128 0x8
 3852 0be9 8D020000 		.4byte	.LASF306
 3853 0bed 01       		.sleb128 1
ARM GAS  C:\Users\Petro\AppData\Local\Temp\cc4GPyUf.s 			page 86


 3854 0bee 00       		.byte	0
 3855 0bef 07       		.uleb128 0x7
 3856 0bf0 01       		.byte	0x1
 3857 0bf1 0B       		.byte	0xb
 3858 0bf2 23       		.byte	0x23
 3859 0bf3 340C0000 		.4byte	0xc34
 3860 0bf7 08       		.uleb128 0x8
 3861 0bf8 5E300000 		.4byte	.LASF307
 3862 0bfc 00       		.sleb128 0
 3863 0bfd 08       		.uleb128 0x8
 3864 0bfe BD160000 		.4byte	.LASF308
 3865 0c02 01       		.sleb128 1
 3866 0c03 08       		.uleb128 0x8
 3867 0c04 A4200000 		.4byte	.LASF309
 3868 0c08 02       		.sleb128 2
 3869 0c09 08       		.uleb128 0x8
 3870 0c0a AF0C0000 		.4byte	.LASF310
 3871 0c0e 03       		.sleb128 3
 3872 0c0f 08       		.uleb128 0x8
 3873 0c10 5B080000 		.4byte	.LASF311
 3874 0c14 04       		.sleb128 4
 3875 0c15 08       		.uleb128 0x8
 3876 0c16 23160000 		.4byte	.LASF312
 3877 0c1a 05       		.sleb128 5
 3878 0c1b 08       		.uleb128 0x8
 3879 0c1c 54170000 		.4byte	.LASF313
 3880 0c20 06       		.sleb128 6
 3881 0c21 08       		.uleb128 0x8
 3882 0c22 4D290000 		.4byte	.LASF314
 3883 0c26 07       		.sleb128 7
 3884 0c27 08       		.uleb128 0x8
 3885 0c28 A7230000 		.4byte	.LASF315
 3886 0c2c 08       		.sleb128 8
 3887 0c2d 08       		.uleb128 0x8
 3888 0c2e 9B000000 		.4byte	.LASF316
 3889 0c32 09       		.sleb128 9
 3890 0c33 00       		.byte	0
 3891 0c34 07       		.uleb128 0x7
 3892 0c35 02       		.byte	0x2
 3893 0c36 0C       		.byte	0xc
 3894 0c37 9D       		.byte	0x9d
 3895 0c38 29130000 		.4byte	0x1329
 3896 0c3c 08       		.uleb128 0x8
 3897 0c3d 012A0000 		.4byte	.LASF317
 3898 0c41 8002     		.sleb128 256
 3899 0c43 08       		.uleb128 0x8
 3900 0c44 B3430000 		.4byte	.LASF318
 3901 0c48 8102     		.sleb128 257
 3902 0c4a 08       		.uleb128 0x8
 3903 0c4b 350C0000 		.4byte	.LASF319
 3904 0c4f 8202     		.sleb128 258
 3905 0c51 08       		.uleb128 0x8
 3906 0c52 55430000 		.4byte	.LASF320
 3907 0c56 8302     		.sleb128 259
 3908 0c58 08       		.uleb128 0x8
 3909 0c59 D9300000 		.4byte	.LASF321
 3910 0c5d 8402     		.sleb128 260
ARM GAS  C:\Users\Petro\AppData\Local\Temp\cc4GPyUf.s 			page 87


 3911 0c5f 08       		.uleb128 0x8
 3912 0c60 77410000 		.4byte	.LASF322
 3913 0c64 8502     		.sleb128 261
 3914 0c66 08       		.uleb128 0x8
 3915 0c67 44120000 		.4byte	.LASF323
 3916 0c6b 8602     		.sleb128 262
 3917 0c6d 08       		.uleb128 0x8
 3918 0c6e 843B0000 		.4byte	.LASF324
 3919 0c72 8702     		.sleb128 263
 3920 0c74 08       		.uleb128 0x8
 3921 0c75 2E410000 		.4byte	.LASF325
 3922 0c79 8802     		.sleb128 264
 3923 0c7b 08       		.uleb128 0x8
 3924 0c7c A2060000 		.4byte	.LASF326
 3925 0c80 8902     		.sleb128 265
 3926 0c82 08       		.uleb128 0x8
 3927 0c83 F4030000 		.4byte	.LASF327
 3928 0c87 8A02     		.sleb128 266
 3929 0c89 08       		.uleb128 0x8
 3930 0c8a 87330000 		.4byte	.LASF328
 3931 0c8e 8B02     		.sleb128 267
 3932 0c90 08       		.uleb128 0x8
 3933 0c91 B8230000 		.4byte	.LASF329
 3934 0c95 8C02     		.sleb128 268
 3935 0c97 08       		.uleb128 0x8
 3936 0c98 262F0000 		.4byte	.LASF330
 3937 0c9c 8D02     		.sleb128 269
 3938 0c9e 08       		.uleb128 0x8
 3939 0c9f C3040000 		.4byte	.LASF331
 3940 0ca3 8E02     		.sleb128 270
 3941 0ca5 08       		.uleb128 0x8
 3942 0ca6 DA010000 		.4byte	.LASF332
 3943 0caa 8F02     		.sleb128 271
 3944 0cac 08       		.uleb128 0x8
 3945 0cad AA080000 		.4byte	.LASF333
 3946 0cb1 9002     		.sleb128 272
 3947 0cb3 08       		.uleb128 0x8
 3948 0cb4 E03E0000 		.4byte	.LASF334
 3949 0cb8 9102     		.sleb128 273
 3950 0cba 08       		.uleb128 0x8
 3951 0cbb ED120000 		.4byte	.LASF335
 3952 0cbf 9202     		.sleb128 274
 3953 0cc1 08       		.uleb128 0x8
 3954 0cc2 B9340000 		.4byte	.LASF336
 3955 0cc6 9302     		.sleb128 275
 3956 0cc8 08       		.uleb128 0x8
 3957 0cc9 19050000 		.4byte	.LASF337
 3958 0ccd 9402     		.sleb128 276
 3959 0ccf 08       		.uleb128 0x8
 3960 0cd0 44390000 		.4byte	.LASF338
 3961 0cd4 9502     		.sleb128 277
 3962 0cd6 08       		.uleb128 0x8
 3963 0cd7 930B0000 		.4byte	.LASF339
 3964 0cdb 9602     		.sleb128 278
 3965 0cdd 08       		.uleb128 0x8
 3966 0cde C5440000 		.4byte	.LASF340
 3967 0ce2 9702     		.sleb128 279
ARM GAS  C:\Users\Petro\AppData\Local\Temp\cc4GPyUf.s 			page 88


 3968 0ce4 08       		.uleb128 0x8
 3969 0ce5 99270000 		.4byte	.LASF341
 3970 0ce9 9802     		.sleb128 280
 3971 0ceb 08       		.uleb128 0x8
 3972 0cec B5170000 		.4byte	.LASF342
 3973 0cf0 9902     		.sleb128 281
 3974 0cf2 08       		.uleb128 0x8
 3975 0cf3 413B0000 		.4byte	.LASF343
 3976 0cf7 9A02     		.sleb128 282
 3977 0cf9 08       		.uleb128 0x8
 3978 0cfa A32B0000 		.4byte	.LASF344
 3979 0cfe 9B02     		.sleb128 283
 3980 0d00 08       		.uleb128 0x8
 3981 0d01 4B450000 		.4byte	.LASF345
 3982 0d05 9C02     		.sleb128 284
 3983 0d07 08       		.uleb128 0x8
 3984 0d08 CC3B0000 		.4byte	.LASF346
 3985 0d0c 9D02     		.sleb128 285
 3986 0d0e 08       		.uleb128 0x8
 3987 0d0f 1B440000 		.4byte	.LASF347
 3988 0d13 9E02     		.sleb128 286
 3989 0d15 08       		.uleb128 0x8
 3990 0d16 EA1E0000 		.4byte	.LASF348
 3991 0d1a 9F02     		.sleb128 287
 3992 0d1c 08       		.uleb128 0x8
 3993 0d1d 491B0000 		.4byte	.LASF349
 3994 0d21 A002     		.sleb128 288
 3995 0d23 08       		.uleb128 0x8
 3996 0d24 85050000 		.4byte	.LASF350
 3997 0d28 A102     		.sleb128 289
 3998 0d2a 08       		.uleb128 0x8
 3999 0d2b 18300000 		.4byte	.LASF351
 4000 0d2f A202     		.sleb128 290
 4001 0d31 08       		.uleb128 0x8
 4002 0d32 E71F0000 		.4byte	.LASF352
 4003 0d36 A302     		.sleb128 291
 4004 0d38 08       		.uleb128 0x8
 4005 0d39 36350000 		.4byte	.LASF353
 4006 0d3d A402     		.sleb128 292
 4007 0d3f 08       		.uleb128 0x8
 4008 0d40 CA2E0000 		.4byte	.LASF354
 4009 0d44 A502     		.sleb128 293
 4010 0d46 08       		.uleb128 0x8
 4011 0d47 613D0000 		.4byte	.LASF355
 4012 0d4b A602     		.sleb128 294
 4013 0d4d 08       		.uleb128 0x8
 4014 0d4e 9E0F0000 		.4byte	.LASF356
 4015 0d52 A702     		.sleb128 295
 4016 0d54 08       		.uleb128 0x8
 4017 0d55 603B0000 		.4byte	.LASF357
 4018 0d59 A802     		.sleb128 296
 4019 0d5b 08       		.uleb128 0x8
 4020 0d5c 4A1A0000 		.4byte	.LASF358
 4021 0d60 A902     		.sleb128 297
 4022 0d62 08       		.uleb128 0x8
 4023 0d63 C60C0000 		.4byte	.LASF359
 4024 0d67 AA02     		.sleb128 298
ARM GAS  C:\Users\Petro\AppData\Local\Temp\cc4GPyUf.s 			page 89


 4025 0d69 08       		.uleb128 0x8
 4026 0d6a 40040000 		.4byte	.LASF360
 4027 0d6e AB02     		.sleb128 299
 4028 0d70 08       		.uleb128 0x8
 4029 0d71 64040000 		.4byte	.LASF361
 4030 0d75 AC02     		.sleb128 300
 4031 0d77 08       		.uleb128 0x8
 4032 0d78 B9000000 		.4byte	.LASF362
 4033 0d7c AD02     		.sleb128 301
 4034 0d7e 08       		.uleb128 0x8
 4035 0d7f 570F0000 		.4byte	.LASF363
 4036 0d83 AE02     		.sleb128 302
 4037 0d85 08       		.uleb128 0x8
 4038 0d86 D5430000 		.4byte	.LASF364
 4039 0d8a AF02     		.sleb128 303
 4040 0d8c 08       		.uleb128 0x8
 4041 0d8d D0070000 		.4byte	.LASF365
 4042 0d91 B002     		.sleb128 304
 4043 0d93 08       		.uleb128 0x8
 4044 0d94 0E290000 		.4byte	.LASF366
 4045 0d98 B102     		.sleb128 305
 4046 0d9a 08       		.uleb128 0x8
 4047 0d9b 46020000 		.4byte	.LASF367
 4048 0d9f B202     		.sleb128 306
 4049 0da1 08       		.uleb128 0x8
 4050 0da2 30170000 		.4byte	.LASF368
 4051 0da6 B302     		.sleb128 307
 4052 0da8 08       		.uleb128 0x8
 4053 0da9 9F2A0000 		.4byte	.LASF369
 4054 0dad B402     		.sleb128 308
 4055 0daf 08       		.uleb128 0x8
 4056 0db0 C6190000 		.4byte	.LASF370
 4057 0db4 B502     		.sleb128 309
 4058 0db6 08       		.uleb128 0x8
 4059 0db7 F2070000 		.4byte	.LASF371
 4060 0dbb B602     		.sleb128 310
 4061 0dbd 08       		.uleb128 0x8
 4062 0dbe F9020000 		.4byte	.LASF372
 4063 0dc2 B702     		.sleb128 311
 4064 0dc4 08       		.uleb128 0x8
 4065 0dc5 2D0A0000 		.4byte	.LASF373
 4066 0dc9 B802     		.sleb128 312
 4067 0dcb 08       		.uleb128 0x8
 4068 0dcc 58320000 		.4byte	.LASF374
 4069 0dd0 B902     		.sleb128 313
 4070 0dd2 08       		.uleb128 0x8
 4071 0dd3 423A0000 		.4byte	.LASF375
 4072 0dd7 BA02     		.sleb128 314
 4073 0dd9 08       		.uleb128 0x8
 4074 0dda 72090000 		.4byte	.LASF376
 4075 0dde BB02     		.sleb128 315
 4076 0de0 08       		.uleb128 0x8
 4077 0de1 C6280000 		.4byte	.LASF377
 4078 0de5 BC02     		.sleb128 316
 4079 0de7 08       		.uleb128 0x8
 4080 0de8 673E0000 		.4byte	.LASF378
 4081 0dec BD02     		.sleb128 317
ARM GAS  C:\Users\Petro\AppData\Local\Temp\cc4GPyUf.s 			page 90


 4082 0dee 08       		.uleb128 0x8
 4083 0def 77240000 		.4byte	.LASF379
 4084 0df3 BE02     		.sleb128 318
 4085 0df5 08       		.uleb128 0x8
 4086 0df6 BC3E0000 		.4byte	.LASF380
 4087 0dfa BF02     		.sleb128 319
 4088 0dfc 08       		.uleb128 0x8
 4089 0dfd C1090000 		.4byte	.LASF381
 4090 0e01 C002     		.sleb128 320
 4091 0e03 08       		.uleb128 0x8
 4092 0e04 1F120000 		.4byte	.LASF382
 4093 0e08 C102     		.sleb128 321
 4094 0e0a 08       		.uleb128 0x8
 4095 0e0b C1400000 		.4byte	.LASF383
 4096 0e0f C202     		.sleb128 322
 4097 0e11 08       		.uleb128 0x8
 4098 0e12 20140000 		.4byte	.LASF384
 4099 0e16 C302     		.sleb128 323
 4100 0e18 08       		.uleb128 0x8
 4101 0e19 34000000 		.4byte	.LASF385
 4102 0e1d C402     		.sleb128 324
 4103 0e1f 08       		.uleb128 0x8
 4104 0e20 C23A0000 		.4byte	.LASF386
 4105 0e24 C502     		.sleb128 325
 4106 0e26 08       		.uleb128 0x8
 4107 0e27 03210000 		.4byte	.LASF387
 4108 0e2b C602     		.sleb128 326
 4109 0e2d 08       		.uleb128 0x8
 4110 0e2e 7A390000 		.4byte	.LASF388
 4111 0e32 C702     		.sleb128 327
 4112 0e34 08       		.uleb128 0x8
 4113 0e35 AB360000 		.4byte	.LASF389
 4114 0e39 C802     		.sleb128 328
 4115 0e3b 08       		.uleb128 0x8
 4116 0e3c A4020000 		.4byte	.LASF390
 4117 0e40 C902     		.sleb128 329
 4118 0e42 08       		.uleb128 0x8
 4119 0e43 8B350000 		.4byte	.LASF391
 4120 0e47 CA02     		.sleb128 330
 4121 0e49 08       		.uleb128 0x8
 4122 0e4a 1A110000 		.4byte	.LASF392
 4123 0e4e CB02     		.sleb128 331
 4124 0e50 08       		.uleb128 0x8
 4125 0e51 A10A0000 		.4byte	.LASF393
 4126 0e55 CC02     		.sleb128 332
 4127 0e57 08       		.uleb128 0x8
 4128 0e58 650A0000 		.4byte	.LASF394
 4129 0e5c CD02     		.sleb128 333
 4130 0e5e 08       		.uleb128 0x8
 4131 0e5f DA100000 		.4byte	.LASF395
 4132 0e63 CE02     		.sleb128 334
 4133 0e65 08       		.uleb128 0x8
 4134 0e66 69220000 		.4byte	.LASF396
 4135 0e6a CF02     		.sleb128 335
 4136 0e6c 08       		.uleb128 0x8
 4137 0e6d CE420000 		.4byte	.LASF397
 4138 0e71 D002     		.sleb128 336
ARM GAS  C:\Users\Petro\AppData\Local\Temp\cc4GPyUf.s 			page 91


 4139 0e73 08       		.uleb128 0x8
 4140 0e74 5C160000 		.4byte	.LASF398
 4141 0e78 D102     		.sleb128 337
 4142 0e7a 08       		.uleb128 0x8
 4143 0e7b 3C320000 		.4byte	.LASF399
 4144 0e7f D202     		.sleb128 338
 4145 0e81 08       		.uleb128 0x8
 4146 0e82 E6080000 		.4byte	.LASF400
 4147 0e86 D302     		.sleb128 339
 4148 0e88 08       		.uleb128 0x8
 4149 0e89 24020000 		.4byte	.LASF401
 4150 0e8d D402     		.sleb128 340
 4151 0e8f 08       		.uleb128 0x8
 4152 0e90 81200000 		.4byte	.LASF402
 4153 0e94 D502     		.sleb128 341
 4154 0e96 08       		.uleb128 0x8
 4155 0e97 1C010000 		.4byte	.LASF403
 4156 0e9b D602     		.sleb128 342
 4157 0e9d 08       		.uleb128 0x8
 4158 0e9e 050B0000 		.4byte	.LASF404
 4159 0ea2 D702     		.sleb128 343
 4160 0ea4 08       		.uleb128 0x8
 4161 0ea5 553F0000 		.4byte	.LASF405
 4162 0ea9 D802     		.sleb128 344
 4163 0eab 08       		.uleb128 0x8
 4164 0eac 78190000 		.4byte	.LASF406
 4165 0eb0 D902     		.sleb128 345
 4166 0eb2 08       		.uleb128 0x8
 4167 0eb3 22180000 		.4byte	.LASF407
 4168 0eb7 DA02     		.sleb128 346
 4169 0eb9 08       		.uleb128 0x8
 4170 0eba 48070000 		.4byte	.LASF408
 4171 0ebe DB02     		.sleb128 347
 4172 0ec0 08       		.uleb128 0x8
 4173 0ec1 433E0000 		.4byte	.LASF409
 4174 0ec5 DC02     		.sleb128 348
 4175 0ec7 08       		.uleb128 0x8
 4176 0ec8 E3250000 		.4byte	.LASF410
 4177 0ecc DD02     		.sleb128 349
 4178 0ece 08       		.uleb128 0x8
 4179 0ecf 9F210000 		.4byte	.LASF411
 4180 0ed3 DE02     		.sleb128 350
 4181 0ed5 08       		.uleb128 0x8
 4182 0ed6 20090000 		.4byte	.LASF412
 4183 0eda DF02     		.sleb128 351
 4184 0edc 08       		.uleb128 0x8
 4185 0edd 40080000 		.4byte	.LASF413
 4186 0ee1 E002     		.sleb128 352
 4187 0ee3 08       		.uleb128 0x8
 4188 0ee4 6A020000 		.4byte	.LASF414
 4189 0ee8 E102     		.sleb128 353
 4190 0eea 08       		.uleb128 0x8
 4191 0eeb 5A210000 		.4byte	.LASF415
 4192 0eef E202     		.sleb128 354
 4193 0ef1 08       		.uleb128 0x8
 4194 0ef2 9A440000 		.4byte	.LASF416
 4195 0ef6 E302     		.sleb128 355
ARM GAS  C:\Users\Petro\AppData\Local\Temp\cc4GPyUf.s 			page 92


 4196 0ef8 08       		.uleb128 0x8
 4197 0ef9 911B0000 		.4byte	.LASF417
 4198 0efd E402     		.sleb128 356
 4199 0eff 08       		.uleb128 0x8
 4200 0f00 48180000 		.4byte	.LASF418
 4201 0f04 E502     		.sleb128 357
 4202 0f06 08       		.uleb128 0x8
 4203 0f07 E9280000 		.4byte	.LASF419
 4204 0f0b E602     		.sleb128 358
 4205 0f0d 08       		.uleb128 0x8
 4206 0f0e 9D3C0000 		.4byte	.LASF420
 4207 0f12 E702     		.sleb128 359
 4208 0f14 08       		.uleb128 0x8
 4209 0f15 B7320000 		.4byte	.LASF421
 4210 0f19 E802     		.sleb128 360
 4211 0f1b 08       		.uleb128 0x8
 4212 0f1c A1040000 		.4byte	.LASF422
 4213 0f20 E902     		.sleb128 361
 4214 0f22 08       		.uleb128 0x8
 4215 0f23 43310000 		.4byte	.LASF423
 4216 0f27 EA02     		.sleb128 362
 4217 0f29 08       		.uleb128 0x8
 4218 0f2a B20D0000 		.4byte	.LASF424
 4219 0f2e EB02     		.sleb128 363
 4220 0f30 08       		.uleb128 0x8
 4221 0f31 2D200000 		.4byte	.LASF425
 4222 0f35 EC02     		.sleb128 364
 4223 0f37 08       		.uleb128 0x8
 4224 0f38 0B200000 		.4byte	.LASF426
 4225 0f3c ED02     		.sleb128 365
 4226 0f3e 08       		.uleb128 0x8
 4227 0f3f E8370000 		.4byte	.LASF427
 4228 0f43 EE02     		.sleb128 366
 4229 0f45 08       		.uleb128 0x8
 4230 0f46 D4160000 		.4byte	.LASF428
 4231 0f4a EF02     		.sleb128 367
 4232 0f4c 08       		.uleb128 0x8
 4233 0f4d 75260000 		.4byte	.LASF429
 4234 0f51 F002     		.sleb128 368
 4235 0f53 08       		.uleb128 0x8
 4236 0f54 C3240000 		.4byte	.LASF430
 4237 0f58 F102     		.sleb128 369
 4238 0f5a 08       		.uleb128 0x8
 4239 0f5b 8B290000 		.4byte	.LASF431
 4240 0f5f F202     		.sleb128 370
 4241 0f61 08       		.uleb128 0x8
 4242 0f62 B4370000 		.4byte	.LASF432
 4243 0f66 F302     		.sleb128 371
 4244 0f68 08       		.uleb128 0x8
 4245 0f69 97260000 		.4byte	.LASF433
 4246 0f6d F402     		.sleb128 372
 4247 0f6f 08       		.uleb128 0x8
 4248 0f70 5A260000 		.4byte	.LASF434
 4249 0f74 F502     		.sleb128 373
 4250 0f76 08       		.uleb128 0x8
 4251 0f77 01270000 		.4byte	.LASF435
 4252 0f7b F602     		.sleb128 374
ARM GAS  C:\Users\Petro\AppData\Local\Temp\cc4GPyUf.s 			page 93


 4253 0f7d 08       		.uleb128 0x8
 4254 0f7e 9B170000 		.4byte	.LASF436
 4255 0f82 F702     		.sleb128 375
 4256 0f84 08       		.uleb128 0x8
 4257 0f85 310E0000 		.4byte	.LASF437
 4258 0f89 F802     		.sleb128 376
 4259 0f8b 08       		.uleb128 0x8
 4260 0f8c 1E3B0000 		.4byte	.LASF438
 4261 0f90 F902     		.sleb128 377
 4262 0f92 08       		.uleb128 0x8
 4263 0f93 8D1C0000 		.4byte	.LASF439
 4264 0f97 FA02     		.sleb128 378
 4265 0f99 08       		.uleb128 0x8
 4266 0f9a F60C0000 		.4byte	.LASF440
 4267 0f9e FB02     		.sleb128 379
 4268 0fa0 08       		.uleb128 0x8
 4269 0fa1 AA3B0000 		.4byte	.LASF441
 4270 0fa5 FC02     		.sleb128 380
 4271 0fa7 08       		.uleb128 0x8
 4272 0fa8 0B330000 		.4byte	.LASF442
 4273 0fac FD02     		.sleb128 381
 4274 0fae 08       		.uleb128 0x8
 4275 0faf 7A300000 		.4byte	.LASF443
 4276 0fb3 FE02     		.sleb128 382
 4277 0fb5 08       		.uleb128 0x8
 4278 0fb6 D9230000 		.4byte	.LASF444
 4279 0fba FF02     		.sleb128 383
 4280 0fbc 08       		.uleb128 0x8
 4281 0fbd C9020000 		.4byte	.LASF445
 4282 0fc1 8003     		.sleb128 384
 4283 0fc3 08       		.uleb128 0x8
 4284 0fc4 E52D0000 		.4byte	.LASF446
 4285 0fc8 8103     		.sleb128 385
 4286 0fca 08       		.uleb128 0x8
 4287 0fcb 8E420000 		.4byte	.LASF447
 4288 0fcf 8203     		.sleb128 386
 4289 0fd1 08       		.uleb128 0x8
 4290 0fd2 833D0000 		.4byte	.LASF448
 4291 0fd6 8303     		.sleb128 387
 4292 0fd8 08       		.uleb128 0x8
 4293 0fd9 C1220000 		.4byte	.LASF449
 4294 0fdd 8403     		.sleb128 388
 4295 0fdf 08       		.uleb128 0x8
 4296 0fe0 B5030000 		.4byte	.LASF450
 4297 0fe4 8503     		.sleb128 389
 4298 0fe6 08       		.uleb128 0x8
 4299 0fe7 3B140000 		.4byte	.LASF451
 4300 0feb 8603     		.sleb128 390
 4301 0fed 08       		.uleb128 0x8
 4302 0fee B6010000 		.4byte	.LASF452
 4303 0ff2 8703     		.sleb128 391
 4304 0ff4 08       		.uleb128 0x8
 4305 0ff5 A8450000 		.4byte	.LASF453
 4306 0ff9 8803     		.sleb128 392
 4307 0ffb 08       		.uleb128 0x8
 4308 0ffc 4A270000 		.4byte	.LASF454
 4309 1000 8903     		.sleb128 393
ARM GAS  C:\Users\Petro\AppData\Local\Temp\cc4GPyUf.s 			page 94


 4310 1002 08       		.uleb128 0x8
 4311 1003 59440000 		.4byte	.LASF455
 4312 1007 8A03     		.sleb128 394
 4313 1009 08       		.uleb128 0x8
 4314 100a DF260000 		.4byte	.LASF456
 4315 100e 8B03     		.sleb128 395
 4316 1010 08       		.uleb128 0x8
 4317 1011 0B0F0000 		.4byte	.LASF457
 4318 1015 8C03     		.sleb128 396
 4319 1017 08       		.uleb128 0x8
 4320 1018 CA1C0000 		.4byte	.LASF458
 4321 101c 8D03     		.sleb128 397
 4322 101e 08       		.uleb128 0x8
 4323 101f 281A0000 		.4byte	.LASF459
 4324 1023 8E03     		.sleb128 398
 4325 1025 08       		.uleb128 0x8
 4326 1026 530E0000 		.4byte	.LASF460
 4327 102a 8F03     		.sleb128 399
 4328 102c 08       		.uleb128 0x8
 4329 102d CF360000 		.4byte	.LASF461
 4330 1031 9003     		.sleb128 400
 4331 1033 08       		.uleb128 0x8
 4332 1034 AF1D0000 		.4byte	.LASF462
 4333 1038 9103     		.sleb128 401
 4334 103a 08       		.uleb128 0x8
 4335 103b 782E0000 		.4byte	.LASF463
 4336 103f 9203     		.sleb128 402
 4337 1041 08       		.uleb128 0x8
 4338 1042 66350000 		.4byte	.LASF464
 4339 1046 9303     		.sleb128 403
 4340 1048 08       		.uleb128 0x8
 4341 1049 76160000 		.4byte	.LASF465
 4342 104d 9403     		.sleb128 404
 4343 104f 08       		.uleb128 0x8
 4344 1050 011C0000 		.4byte	.LASF466
 4345 1054 9503     		.sleb128 405
 4346 1056 08       		.uleb128 0x8
 4347 1057 21460000 		.4byte	.LASF467
 4348 105b 9603     		.sleb128 406
 4349 105d 08       		.uleb128 0x8
 4350 105e 272E0000 		.4byte	.LASF468
 4351 1062 9703     		.sleb128 407
 4352 1064 08       		.uleb128 0x8
 4353 1065 A82E0000 		.4byte	.LASF469
 4354 1069 9803     		.sleb128 408
 4355 106b 08       		.uleb128 0x8
 4356 106c CA330000 		.4byte	.LASF470
 4357 1070 9903     		.sleb128 409
 4358 1072 08       		.uleb128 0x8
 4359 1073 19190000 		.4byte	.LASF471
 4360 1077 9A03     		.sleb128 410
 4361 1079 08       		.uleb128 0x8
 4362 107a 2A2B0000 		.4byte	.LASF472
 4363 107e 9B03     		.sleb128 411
 4364 1080 08       		.uleb128 0x8
 4365 1081 440D0000 		.4byte	.LASF473
 4366 1085 9C03     		.sleb128 412
ARM GAS  C:\Users\Petro\AppData\Local\Temp\cc4GPyUf.s 			page 95


 4367 1087 08       		.uleb128 0x8
 4368 1088 4F000000 		.4byte	.LASF474
 4369 108c 9D03     		.sleb128 413
 4370 108e 08       		.uleb128 0x8
 4371 108f E1310000 		.4byte	.LASF475
 4372 1093 9E03     		.sleb128 414
 4373 1095 08       		.uleb128 0x8
 4374 1096 B2140000 		.4byte	.LASF476
 4375 109a 9F03     		.sleb128 415
 4376 109c 08       		.uleb128 0x8
 4377 109d CD450000 		.4byte	.LASF477
 4378 10a1 A003     		.sleb128 416
 4379 10a3 08       		.uleb128 0x8
 4380 10a4 8D1F0000 		.4byte	.LASF478
 4381 10a8 A103     		.sleb128 417
 4382 10aa 08       		.uleb128 0x8
 4383 10ab FF220000 		.4byte	.LASF479
 4384 10af A203     		.sleb128 418
 4385 10b1 08       		.uleb128 0x8
 4386 10b2 70450000 		.4byte	.LASF480
 4387 10b6 A303     		.sleb128 419
 4388 10b8 08       		.uleb128 0x8
 4389 10b9 A4390000 		.4byte	.LASF481
 4390 10bd A403     		.sleb128 420
 4391 10bf 08       		.uleb128 0x8
 4392 10c0 072B0000 		.4byte	.LASF482
 4393 10c4 A503     		.sleb128 421
 4394 10c6 08       		.uleb128 0x8
 4395 10c7 8C2D0000 		.4byte	.LASF483
 4396 10cb A603     		.sleb128 422
 4397 10cd 08       		.uleb128 0x8
 4398 10ce 11400000 		.4byte	.LASF484
 4399 10d2 A703     		.sleb128 423
 4400 10d4 08       		.uleb128 0x8
 4401 10d5 041E0000 		.4byte	.LASF485
 4402 10d9 A803     		.sleb128 424
 4403 10db 08       		.uleb128 0x8
 4404 10dc D6180000 		.4byte	.LASF486
 4405 10e0 A903     		.sleb128 425
 4406 10e2 08       		.uleb128 0x8
 4407 10e3 C1250000 		.4byte	.LASF487
 4408 10e7 AA03     		.sleb128 426
 4409 10e9 08       		.uleb128 0x8
 4410 10ea 5D030000 		.4byte	.LASF488
 4411 10ee AB03     		.sleb128 427
 4412 10f0 08       		.uleb128 0x8
 4413 10f1 A8330000 		.4byte	.LASF489
 4414 10f5 AC03     		.sleb128 428
 4415 10f7 08       		.uleb128 0x8
 4416 10f8 7E040000 		.4byte	.LASF490
 4417 10fc AD03     		.sleb128 429
 4418 10fe 08       		.uleb128 0x8
 4419 10ff D12F0000 		.4byte	.LASF491
 4420 1103 AE03     		.sleb128 430
 4421 1105 08       		.uleb128 0x8
 4422 1106 C30A0000 		.4byte	.LASF492
 4423 110a AF03     		.sleb128 431
ARM GAS  C:\Users\Petro\AppData\Local\Temp\cc4GPyUf.s 			page 96


 4424 110c 08       		.uleb128 0x8
 4425 110d 44220000 		.4byte	.LASF493
 4426 1111 B003     		.sleb128 432
 4427 1113 08       		.uleb128 0x8
 4428 1114 9A370000 		.4byte	.LASF494
 4429 1118 B103     		.sleb128 433
 4430 111a 08       		.uleb128 0x8
 4431 111b 93070000 		.4byte	.LASF495
 4432 111f B203     		.sleb128 434
 4433 1121 08       		.uleb128 0x8
 4434 1122 9B320000 		.4byte	.LASF496
 4435 1126 B303     		.sleb128 435
 4436 1128 08       		.uleb128 0x8
 4437 1129 3C300000 		.4byte	.LASF497
 4438 112d B403     		.sleb128 436
 4439 112f 08       		.uleb128 0x8
 4440 1130 001B0000 		.4byte	.LASF498
 4441 1134 B503     		.sleb128 437
 4442 1136 08       		.uleb128 0x8
 4443 1137 0C1F0000 		.4byte	.LASF499
 4444 113b B603     		.sleb128 438
 4445 113d 08       		.uleb128 0x8
 4446 113e 8E250000 		.4byte	.LASF500
 4447 1142 B703     		.sleb128 439
 4448 1144 08       		.uleb128 0x8
 4449 1145 032F0000 		.4byte	.LASF501
 4450 1149 B803     		.sleb128 440
 4451 114b 08       		.uleb128 0x8
 4452 114c 94340000 		.4byte	.LASF502
 4453 1150 B903     		.sleb128 441
 4454 1152 08       		.uleb128 0x8
 4455 1153 85360000 		.4byte	.LASF503
 4456 1157 BA03     		.sleb128 442
 4457 1159 08       		.uleb128 0x8
 4458 115a 50200000 		.4byte	.LASF504
 4459 115e BB03     		.sleb128 443
 4460 1160 08       		.uleb128 0x8
 4461 1161 481E0000 		.4byte	.LASF505
 4462 1165 BC03     		.sleb128 444
 4463 1167 08       		.uleb128 0x8
 4464 1168 AD070000 		.4byte	.LASF506
 4465 116c BD03     		.sleb128 445
 4466 116e 08       		.uleb128 0x8
 4467 116f D40B0000 		.4byte	.LASF507
 4468 1173 BE03     		.sleb128 446
 4469 1175 08       		.uleb128 0x8
 4470 1176 FF150000 		.4byte	.LASF508
 4471 117a BF03     		.sleb128 447
 4472 117c 08       		.uleb128 0x8
 4473 117d E3390000 		.4byte	.LASF509
 4474 1181 C003     		.sleb128 448
 4475 1183 08       		.uleb128 0x8
 4476 1184 0F450000 		.4byte	.LASF510
 4477 1188 C103     		.sleb128 449
 4478 118a 08       		.uleb128 0x8
 4479 118b 641D0000 		.4byte	.LASF511
 4480 118f C203     		.sleb128 450
ARM GAS  C:\Users\Petro\AppData\Local\Temp\cc4GPyUf.s 			page 97


 4481 1191 08       		.uleb128 0x8
 4482 1192 3A030000 		.4byte	.LASF512
 4483 1196 C303     		.sleb128 451
 4484 1198 08       		.uleb128 0x8
 4485 1199 6C180000 		.4byte	.LASF513
 4486 119d C403     		.sleb128 452
 4487 119f 08       		.uleb128 0x8
 4488 11a0 502E0000 		.4byte	.LASF514
 4489 11a4 C503     		.sleb128 453
 4490 11a6 08       		.uleb128 0x8
 4491 11a7 FE040000 		.4byte	.LASF515
 4492 11ab C603     		.sleb128 454
 4493 11ad 08       		.uleb128 0x8
 4494 11ae 5D380000 		.4byte	.LASF516
 4495 11b2 C703     		.sleb128 455
 4496 11b4 08       		.uleb128 0x8
 4497 11b5 85110000 		.4byte	.LASF517
 4498 11b9 C803     		.sleb128 456
 4499 11bb 08       		.uleb128 0x8
 4500 11bc D9210000 		.4byte	.LASF518
 4501 11c0 C903     		.sleb128 457
 4502 11c2 08       		.uleb128 0x8
 4503 11c3 DA170000 		.4byte	.LASF519
 4504 11c7 CA03     		.sleb128 458
 4505 11c9 08       		.uleb128 0x8
 4506 11ca 793F0000 		.4byte	.LASF520
 4507 11ce CB03     		.sleb128 459
 4508 11d0 08       		.uleb128 0x8
 4509 11d1 1B040000 		.4byte	.LASF521
 4510 11d5 CC03     		.sleb128 460
 4511 11d7 08       		.uleb128 0x8
 4512 11d8 3F010000 		.4byte	.LASF522
 4513 11dc CD03     		.sleb128 461
 4514 11de 08       		.uleb128 0x8
 4515 11df D5140000 		.4byte	.LASF523
 4516 11e3 CE03     		.sleb128 462
 4517 11e5 08       		.uleb128 0x8
 4518 11e6 80120000 		.4byte	.LASF524
 4519 11ea CF03     		.sleb128 463
 4520 11ec 08       		.uleb128 0x8
 4521 11ed 65290000 		.4byte	.LASF525
 4522 11f1 D003     		.sleb128 464
 4523 11f3 08       		.uleb128 0x8
 4524 11f4 E73D0000 		.4byte	.LASF526
 4525 11f8 D103     		.sleb128 465
 4526 11fa 08       		.uleb128 0x8
 4527 11fb C2260000 		.4byte	.LASF527
 4528 11ff D203     		.sleb128 466
 4529 1201 08       		.uleb128 0x8
 4530 1202 70370000 		.4byte	.LASF528
 4531 1206 D303     		.sleb128 467
 4532 1208 08       		.uleb128 0x8
 4533 1209 2D130000 		.4byte	.LASF529
 4534 120d D403     		.sleb128 468
 4535 120f 08       		.uleb128 0x8
 4536 1210 61050000 		.4byte	.LASF530
 4537 1214 D503     		.sleb128 469
ARM GAS  C:\Users\Petro\AppData\Local\Temp\cc4GPyUf.s 			page 98


 4538 1216 08       		.uleb128 0x8
 4539 1217 4B370000 		.4byte	.LASF531
 4540 121b D603     		.sleb128 470
 4541 121d 08       		.uleb128 0x8
 4542 121e 71130000 		.4byte	.LASF532
 4543 1222 D703     		.sleb128 471
 4544 1224 08       		.uleb128 0x8
 4545 1225 6B1F0000 		.4byte	.LASF533
 4546 1229 D803     		.sleb128 472
 4547 122b 08       		.uleb128 0x8
 4548 122c D1350000 		.4byte	.LASF534
 4549 1230 D903     		.sleb128 473
 4550 1232 08       		.uleb128 0x8
 4551 1233 FE170000 		.4byte	.LASF535
 4552 1237 DA03     		.sleb128 474
 4553 1239 08       		.uleb128 0x8
 4554 123a C93C0000 		.4byte	.LASF536
 4555 123e DB03     		.sleb128 475
 4556 1240 08       		.uleb128 0x8
 4557 1241 DC150000 		.4byte	.LASF537
 4558 1245 DC03     		.sleb128 476
 4559 1247 08       		.uleb128 0x8
 4560 1248 F80B0000 		.4byte	.LASF538
 4561 124c DD03     		.sleb128 477
 4562 124e 08       		.uleb128 0x8
 4563 124f 732F0000 		.4byte	.LASF539
 4564 1253 DE03     		.sleb128 478
 4565 1255 08       		.uleb128 0x8
 4566 1256 6C1B0000 		.4byte	.LASF540
 4567 125a DF03     		.sleb128 479
 4568 125c 08       		.uleb128 0x8
 4569 125d D01B0000 		.4byte	.LASF541
 4570 1261 E003     		.sleb128 480
 4571 1263 08       		.uleb128 0x8
 4572 1264 B61B0000 		.4byte	.LASF542
 4573 1268 E103     		.sleb128 481
 4574 126a 08       		.uleb128 0x8
 4575 126b 3D090000 		.4byte	.LASF543
 4576 126f E203     		.sleb128 482
 4577 1271 08       		.uleb128 0x8
 4578 1272 04280000 		.4byte	.LASF544
 4579 1276 E303     		.sleb128 483
 4580 1278 08       		.uleb128 0x8
 4581 1279 12000000 		.4byte	.LASF545
 4582 127d E403     		.sleb128 484
 4583 127f 08       		.uleb128 0x8
 4584 1280 FA2B0000 		.4byte	.LASF546
 4585 1284 E503     		.sleb128 485
 4586 1286 08       		.uleb128 0x8
 4587 1287 3E3D0000 		.4byte	.LASF547
 4588 128b E603     		.sleb128 486
 4589 128d 08       		.uleb128 0x8
 4590 128e 34050000 		.4byte	.LASF548
 4591 1292 E703     		.sleb128 487
 4592 1294 08       		.uleb128 0x8
 4593 1295 28360000 		.4byte	.LASF549
 4594 1299 E803     		.sleb128 488
ARM GAS  C:\Users\Petro\AppData\Local\Temp\cc4GPyUf.s 			page 99


 4595 129b 08       		.uleb128 0x8
 4596 129c 3C250000 		.4byte	.LASF550
 4597 12a0 E903     		.sleb128 489
 4598 12a2 08       		.uleb128 0x8
 4599 12a3 0A170000 		.4byte	.LASF551
 4600 12a7 EA03     		.sleb128 490
 4601 12a9 08       		.uleb128 0x8
 4602 12aa 811E0000 		.4byte	.LASF552
 4603 12ae EB03     		.sleb128 491
 4604 12b0 08       		.uleb128 0x8
 4605 12b1 C3110000 		.4byte	.LASF553
 4606 12b5 EC03     		.sleb128 492
 4607 12b7 08       		.uleb128 0x8
 4608 12b8 FC450000 		.4byte	.LASF554
 4609 12bc ED03     		.sleb128 493
 4610 12be 08       		.uleb128 0x8
 4611 12bf BB180000 		.4byte	.LASF555
 4612 12c3 EE03     		.sleb128 494
 4613 12c5 08       		.uleb128 0x8
 4614 12c6 99010000 		.4byte	.LASF556
 4615 12ca EF03     		.sleb128 495
 4616 12cc 08       		.uleb128 0x8
 4617 12cd 2D2C0000 		.4byte	.LASF557
 4618 12d1 F003     		.sleb128 496
 4619 12d3 08       		.uleb128 0x8
 4620 12d4 20280000 		.4byte	.LASF558
 4621 12d8 F103     		.sleb128 497
 4622 12da 08       		.uleb128 0x8
 4623 12db B01A0000 		.4byte	.LASF559
 4624 12df F203     		.sleb128 498
 4625 12e1 08       		.uleb128 0x8
 4626 12e2 20390000 		.4byte	.LASF560
 4627 12e6 F303     		.sleb128 499
 4628 12e8 08       		.uleb128 0x8
 4629 12e9 76400000 		.4byte	.LASF561
 4630 12ed F403     		.sleb128 500
 4631 12ef 08       		.uleb128 0x8
 4632 12f0 02020000 		.4byte	.LASF562
 4633 12f4 F503     		.sleb128 501
 4634 12f6 08       		.uleb128 0x8
 4635 12f7 F52F0000 		.4byte	.LASF563
 4636 12fb F603     		.sleb128 502
 4637 12fd 08       		.uleb128 0x8
 4638 12fe 64150000 		.4byte	.LASF564
 4639 1302 F703     		.sleb128 503
 4640 1304 08       		.uleb128 0x8
 4641 1305 242A0000 		.4byte	.LASF565
 4642 1309 F803     		.sleb128 504
 4643 130b 08       		.uleb128 0x8
 4644 130c F9430000 		.4byte	.LASF566
 4645 1310 F903     		.sleb128 505
 4646 1312 08       		.uleb128 0x8
 4647 1313 A0110000 		.4byte	.LASF567
 4648 1317 FA03     		.sleb128 506
 4649 1319 08       		.uleb128 0x8
 4650 131a 7A0F0000 		.4byte	.LASF568
 4651 131e FB03     		.sleb128 507
ARM GAS  C:\Users\Petro\AppData\Local\Temp\cc4GPyUf.s 			page 100


 4652 1320 08       		.uleb128 0x8
 4653 1321 AF2D0000 		.4byte	.LASF569
 4654 1325 80C003   		.sleb128 57344
 4655 1328 00       		.byte	0
 4656 1329 09       		.uleb128 0x9
 4657 132a 01       		.byte	0x1
 4658 132b 0C       		.byte	0xc
 4659 132c 3707     		.2byte	0x737
 4660 132e 51130000 		.4byte	0x1351
 4661 1332 08       		.uleb128 0x8
 4662 1333 82100000 		.4byte	.LASF570
 4663 1337 00       		.sleb128 0
 4664 1338 08       		.uleb128 0x8
 4665 1339 41210000 		.4byte	.LASF571
 4666 133d 01       		.sleb128 1
 4667 133e 08       		.uleb128 0x8
 4668 133f E9410000 		.4byte	.LASF572
 4669 1343 02       		.sleb128 2
 4670 1344 08       		.uleb128 0x8
 4671 1345 94090000 		.4byte	.LASF573
 4672 1349 03       		.sleb128 3
 4673 134a 08       		.uleb128 0x8
 4674 134b 2C380000 		.4byte	.LASF574
 4675 134f 04       		.sleb128 4
 4676 1350 00       		.byte	0
 4677 1351 04       		.uleb128 0x4
 4678 1352 CB300000 		.4byte	.LASF575
 4679 1356 0C       		.byte	0xc
 4680 1357 4507     		.2byte	0x745
 4681 1359 29130000 		.4byte	0x1329
 4682 135d 18       		.uleb128 0x18
 4683 135e E6240000 		.4byte	.LASF576
 4684 1362 01       		.byte	0x1
 4685 1363 92       		.byte	0x92
 4686 1364 00000000 		.4byte	.LFB2
 4687 1368 1C000000 		.4byte	.LFE2-.LFB2
 4688 136c 01       		.uleb128 0x1
 4689 136d 9C       		.byte	0x9c
 4690 136e 19       		.uleb128 0x19
 4691 136f 531C0000 		.4byte	.LASF577
 4692 1373 01       		.byte	0x1
 4693 1374 A4       		.byte	0xa4
 4694 1375 00000000 		.4byte	.LFB3
 4695 1379 18000000 		.4byte	.LFE3-.LFB3
 4696 137d 01       		.uleb128 0x1
 4697 137e 9C       		.byte	0x9c
 4698 137f 1A       		.uleb128 0x1a
 4699 1380 D63F0000 		.4byte	.LASF600
 4700 1384 01       		.byte	0x1
 4701 1385 D0       		.byte	0xd0
 4702 1386 00000000 		.4byte	.LFB4
 4703 138a 18000000 		.4byte	.LFE4-.LFB4
 4704 138e 01       		.uleb128 0x1
 4705 138f 9C       		.byte	0x9c
 4706 1390 A3130000 		.4byte	0x13a3
 4707 1394 1B       		.uleb128 0x1b
 4708 1395 E90C0000 		.4byte	.LASF578
ARM GAS  C:\Users\Petro\AppData\Local\Temp\cc4GPyUf.s 			page 101


 4709 1399 01       		.byte	0x1
 4710 139a D0       		.byte	0xd0
 4711 139b B9090000 		.4byte	0x9b9
 4712 139f 02       		.uleb128 0x2
 4713 13a0 91       		.byte	0x91
 4714 13a1 74       		.sleb128 -12
 4715 13a2 00       		.byte	0
 4716 13a3 1C       		.uleb128 0x1c
 4717 13a4 3F110000 		.4byte	.LASF583
 4718 13a8 01       		.byte	0x1
 4719 13a9 EC       		.byte	0xec
 4720 13aa FA020000 		.4byte	0x2fa
 4721 13ae 00000000 		.4byte	.LFB5
 4722 13b2 88000000 		.4byte	.LFE5-.LFB5
 4723 13b6 01       		.uleb128 0x1
 4724 13b7 9C       		.byte	0x9c
 4725 13b8 03140000 		.4byte	0x1403
 4726 13bc 1B       		.uleb128 0x1b
 4727 13bd E7400000 		.4byte	.LASF284
 4728 13c1 01       		.byte	0x1
 4729 13c2 EC       		.byte	0xec
 4730 13c3 080A0000 		.4byte	0xa08
 4731 13c7 02       		.uleb128 0x2
 4732 13c8 91       		.byte	0x91
 4733 13c9 67       		.sleb128 -25
 4734 13ca 1B       		.uleb128 0x1b
 4735 13cb F8290000 		.4byte	.LASF579
 4736 13cf 01       		.byte	0x1
 4737 13d0 ED       		.byte	0xed
 4738 13d1 6B000000 		.4byte	0x6b
 4739 13d5 02       		.uleb128 0x2
 4740 13d6 91       		.byte	0x91
 4741 13d7 66       		.sleb128 -26
 4742 13d8 1B       		.uleb128 0x1b
 4743 13d9 BC190000 		.4byte	.LASF580
 4744 13dd 01       		.byte	0x1
 4745 13de ED       		.byte	0xed
 4746 13df 9F040000 		.4byte	0x49f
 4747 13e3 02       		.uleb128 0x2
 4748 13e4 91       		.byte	0x91
 4749 13e5 60       		.sleb128 -32
 4750 13e6 1D       		.uleb128 0x1d
 4751 13e7 1C370000 		.4byte	.LASF581
 4752 13eb 01       		.byte	0x1
 4753 13ec EF       		.byte	0xef
 4754 13ed FA020000 		.4byte	0x2fa
 4755 13f1 02       		.uleb128 0x2
 4756 13f2 91       		.byte	0x91
 4757 13f3 76       		.sleb128 -10
 4758 13f4 1D       		.uleb128 0x1d
 4759 13f5 2E1E0000 		.4byte	.LASF582
 4760 13f9 01       		.byte	0x1
 4761 13fa F0       		.byte	0xf0
 4762 13fb 8F070000 		.4byte	0x78f
 4763 13ff 02       		.uleb128 0x2
 4764 1400 91       		.byte	0x91
 4765 1401 68       		.sleb128 -24
ARM GAS  C:\Users\Petro\AppData\Local\Temp\cc4GPyUf.s 			page 102


 4766 1402 00       		.byte	0
 4767 1403 1E       		.uleb128 0x1e
 4768 1404 B02F0000 		.4byte	.LASF584
 4769 1408 01       		.byte	0x1
 4770 1409 1B01     		.2byte	0x11b
 4771 140b FA020000 		.4byte	0x2fa
 4772 140f 00000000 		.4byte	.LFB6
 4773 1413 88000000 		.4byte	.LFE6-.LFB6
 4774 1417 01       		.uleb128 0x1
 4775 1418 9C       		.byte	0x9c
 4776 1419 69140000 		.4byte	0x1469
 4777 141d 1F       		.uleb128 0x1f
 4778 141e E7400000 		.4byte	.LASF284
 4779 1422 01       		.byte	0x1
 4780 1423 1B01     		.2byte	0x11b
 4781 1425 080A0000 		.4byte	0xa08
 4782 1429 02       		.uleb128 0x2
 4783 142a 91       		.byte	0x91
 4784 142b 67       		.sleb128 -25
 4785 142c 1F       		.uleb128 0x1f
 4786 142d F8290000 		.4byte	.LASF579
 4787 1431 01       		.byte	0x1
 4788 1432 1C01     		.2byte	0x11c
 4789 1434 6B000000 		.4byte	0x6b
 4790 1438 02       		.uleb128 0x2
 4791 1439 91       		.byte	0x91
 4792 143a 66       		.sleb128 -26
 4793 143b 1F       		.uleb128 0x1f
 4794 143c BC190000 		.4byte	.LASF580
 4795 1440 01       		.byte	0x1
 4796 1441 1C01     		.2byte	0x11c
 4797 1443 9F040000 		.4byte	0x49f
 4798 1447 02       		.uleb128 0x2
 4799 1448 91       		.byte	0x91
 4800 1449 60       		.sleb128 -32
 4801 144a 20       		.uleb128 0x20
 4802 144b 1C370000 		.4byte	.LASF581
 4803 144f 01       		.byte	0x1
 4804 1450 1E01     		.2byte	0x11e
 4805 1452 FA020000 		.4byte	0x2fa
 4806 1456 02       		.uleb128 0x2
 4807 1457 91       		.byte	0x91
 4808 1458 76       		.sleb128 -10
 4809 1459 20       		.uleb128 0x20
 4810 145a 2E1E0000 		.4byte	.LASF582
 4811 145e 01       		.byte	0x1
 4812 145f 1F01     		.2byte	0x11f
 4813 1461 8F070000 		.4byte	0x78f
 4814 1465 02       		.uleb128 0x2
 4815 1466 91       		.byte	0x91
 4816 1467 68       		.sleb128 -24
 4817 1468 00       		.byte	0
 4818 1469 1E       		.uleb128 0x1e
 4819 146a 60060000 		.4byte	.LASF585
 4820 146e 01       		.byte	0x1
 4821 146f 4C01     		.2byte	0x14c
 4822 1471 FA020000 		.4byte	0x2fa
ARM GAS  C:\Users\Petro\AppData\Local\Temp\cc4GPyUf.s 			page 103


 4823 1475 00000000 		.4byte	.LFB7
 4824 1479 A4000000 		.4byte	.LFE7-.LFB7
 4825 147d 01       		.uleb128 0x1
 4826 147e 9C       		.byte	0x9c
 4827 147f DE140000 		.4byte	0x14de
 4828 1483 1F       		.uleb128 0x1f
 4829 1484 E7400000 		.4byte	.LASF284
 4830 1488 01       		.byte	0x1
 4831 1489 4C01     		.2byte	0x14c
 4832 148b 080A0000 		.4byte	0xa08
 4833 148f 02       		.uleb128 0x2
 4834 1490 91       		.byte	0x91
 4835 1491 5F       		.sleb128 -33
 4836 1492 1F       		.uleb128 0x1f
 4837 1493 EE270000 		.4byte	.LASF586
 4838 1497 01       		.byte	0x1
 4839 1498 4D01     		.2byte	0x14d
 4840 149a 2E0A0000 		.4byte	0xa2e
 4841 149e 02       		.uleb128 0x2
 4842 149f 91       		.byte	0x91
 4843 14a0 5E       		.sleb128 -34
 4844 14a1 1F       		.uleb128 0x1f
 4845 14a2 F8290000 		.4byte	.LASF579
 4846 14a6 01       		.byte	0x1
 4847 14a7 4D01     		.2byte	0x14d
 4848 14a9 6B000000 		.4byte	0x6b
 4849 14ad 02       		.uleb128 0x2
 4850 14ae 91       		.byte	0x91
 4851 14af 5D       		.sleb128 -35
 4852 14b0 1F       		.uleb128 0x1f
 4853 14b1 BC190000 		.4byte	.LASF580
 4854 14b5 01       		.byte	0x1
 4855 14b6 4D01     		.2byte	0x14d
 4856 14b8 9F040000 		.4byte	0x49f
 4857 14bc 02       		.uleb128 0x2
 4858 14bd 91       		.byte	0x91
 4859 14be 58       		.sleb128 -40
 4860 14bf 20       		.uleb128 0x20
 4861 14c0 1C370000 		.4byte	.LASF581
 4862 14c4 01       		.byte	0x1
 4863 14c5 4F01     		.2byte	0x14f
 4864 14c7 FA020000 		.4byte	0x2fa
 4865 14cb 02       		.uleb128 0x2
 4866 14cc 91       		.byte	0x91
 4867 14cd 6E       		.sleb128 -18
 4868 14ce 20       		.uleb128 0x20
 4869 14cf 2E1E0000 		.4byte	.LASF582
 4870 14d3 01       		.byte	0x1
 4871 14d4 5001     		.2byte	0x150
 4872 14d6 8F070000 		.4byte	0x78f
 4873 14da 02       		.uleb128 0x2
 4874 14db 91       		.byte	0x91
 4875 14dc 60       		.sleb128 -32
 4876 14dd 00       		.byte	0
 4877 14de 1E       		.uleb128 0x1e
 4878 14df C8060000 		.4byte	.LASF587
 4879 14e3 01       		.byte	0x1
ARM GAS  C:\Users\Petro\AppData\Local\Temp\cc4GPyUf.s 			page 104


 4880 14e4 7C01     		.2byte	0x17c
 4881 14e6 FA020000 		.4byte	0x2fa
 4882 14ea 00000000 		.4byte	.LFB8
 4883 14ee A0000000 		.4byte	.LFE8-.LFB8
 4884 14f2 01       		.uleb128 0x1
 4885 14f3 9C       		.byte	0x9c
 4886 14f4 53150000 		.4byte	0x1553
 4887 14f8 1F       		.uleb128 0x1f
 4888 14f9 E7400000 		.4byte	.LASF284
 4889 14fd 01       		.byte	0x1
 4890 14fe 7C01     		.2byte	0x17c
 4891 1500 080A0000 		.4byte	0xa08
 4892 1504 02       		.uleb128 0x2
 4893 1505 91       		.byte	0x91
 4894 1506 5F       		.sleb128 -33
 4895 1507 1F       		.uleb128 0x1f
 4896 1508 EE270000 		.4byte	.LASF586
 4897 150c 01       		.byte	0x1
 4898 150d 7D01     		.2byte	0x17d
 4899 150f 2E0A0000 		.4byte	0xa2e
 4900 1513 02       		.uleb128 0x2
 4901 1514 91       		.byte	0x91
 4902 1515 5E       		.sleb128 -34
 4903 1516 1F       		.uleb128 0x1f
 4904 1517 F8290000 		.4byte	.LASF579
 4905 151b 01       		.byte	0x1
 4906 151c 7D01     		.2byte	0x17d
 4907 151e 6B000000 		.4byte	0x6b
 4908 1522 02       		.uleb128 0x2
 4909 1523 91       		.byte	0x91
 4910 1524 5D       		.sleb128 -35
 4911 1525 1F       		.uleb128 0x1f
 4912 1526 BC190000 		.4byte	.LASF580
 4913 152a 01       		.byte	0x1
 4914 152b 7D01     		.2byte	0x17d
 4915 152d 9F040000 		.4byte	0x49f
 4916 1531 02       		.uleb128 0x2
 4917 1532 91       		.byte	0x91
 4918 1533 58       		.sleb128 -40
 4919 1534 20       		.uleb128 0x20
 4920 1535 1C370000 		.4byte	.LASF581
 4921 1539 01       		.byte	0x1
 4922 153a 7F01     		.2byte	0x17f
 4923 153c FA020000 		.4byte	0x2fa
 4924 1540 02       		.uleb128 0x2
 4925 1541 91       		.byte	0x91
 4926 1542 6E       		.sleb128 -18
 4927 1543 20       		.uleb128 0x20
 4928 1544 2E1E0000 		.4byte	.LASF582
 4929 1548 01       		.byte	0x1
 4930 1549 8001     		.2byte	0x180
 4931 154b 8F070000 		.4byte	0x78f
 4932 154f 02       		.uleb128 0x2
 4933 1550 91       		.byte	0x91
 4934 1551 60       		.sleb128 -32
 4935 1552 00       		.byte	0
 4936 1553 1E       		.uleb128 0x1e
ARM GAS  C:\Users\Petro\AppData\Local\Temp\cc4GPyUf.s 			page 105


 4937 1554 651E0000 		.4byte	.LASF588
 4938 1558 01       		.byte	0x1
 4939 1559 A401     		.2byte	0x1a4
 4940 155b E6060000 		.4byte	0x6e6
 4941 155f 00000000 		.4byte	.LFB9
 4942 1563 20040000 		.4byte	.LFE9-.LFB9
 4943 1567 01       		.uleb128 0x1
 4944 1568 9C       		.byte	0x9c
 4945 1569 EB150000 		.4byte	0x15eb
 4946 156d 1F       		.uleb128 0x1f
 4947 156e EE020000 		.4byte	.LASF589
 4948 1572 01       		.byte	0x1
 4949 1573 A401     		.2byte	0x1a4
 4950 1575 EB150000 		.4byte	0x15eb
 4951 1579 02       		.uleb128 0x2
 4952 157a 91       		.byte	0x91
 4953 157b 54       		.sleb128 -44
 4954 157c 20       		.uleb128 0x20
 4955 157d 662F0000 		.4byte	.LASF590
 4956 1581 01       		.byte	0x1
 4957 1582 A601     		.2byte	0x1a6
 4958 1584 080A0000 		.4byte	0xa08
 4959 1588 02       		.uleb128 0x2
 4960 1589 91       		.byte	0x91
 4961 158a 6F       		.sleb128 -17
 4962 158b 20       		.uleb128 0x20
 4963 158c 24100000 		.4byte	.LASF591
 4964 1590 01       		.byte	0x1
 4965 1591 A701     		.2byte	0x1a7
 4966 1593 E40A0000 		.4byte	0xae4
 4967 1597 02       		.uleb128 0x2
 4968 1598 91       		.byte	0x91
 4969 1599 60       		.sleb128 -32
 4970 159a 20       		.uleb128 0x20
 4971 159b F1400000 		.4byte	.LASF592
 4972 159f 01       		.byte	0x1
 4973 15a0 A801     		.2byte	0x1a8
 4974 15a2 E6060000 		.4byte	0x6e6
 4975 15a6 02       		.uleb128 0x2
 4976 15a7 91       		.byte	0x91
 4977 15a8 6E       		.sleb128 -18
 4978 15a9 20       		.uleb128 0x20
 4979 15aa 432E0000 		.4byte	.LASF593
 4980 15ae 01       		.byte	0x1
 4981 15af A901     		.2byte	0x1a9
 4982 15b1 6B000000 		.4byte	0x6b
 4983 15b5 02       		.uleb128 0x2
 4984 15b6 91       		.byte	0x91
 4985 15b7 6D       		.sleb128 -19
 4986 15b8 21       		.uleb128 0x21
 4987 15b9 0E020000 		.4byte	.LBB2
 4988 15bd A2000000 		.4byte	.LBE2-.LBB2
 4989 15c1 20       		.uleb128 0x20
 4990 15c2 00400000 		.4byte	.LASF594
 4991 15c6 01       		.byte	0x1
 4992 15c7 E801     		.2byte	0x1e8
 4993 15c9 77000000 		.4byte	0x77
ARM GAS  C:\Users\Petro\AppData\Local\Temp\cc4GPyUf.s 			page 106


 4994 15cd 02       		.uleb128 0x2
 4995 15ce 91       		.byte	0x91
 4996 15cf 6A       		.sleb128 -22
 4997 15d0 21       		.uleb128 0x21
 4998 15d1 3E020000 		.4byte	.LBB3
 4999 15d5 5C000000 		.4byte	.LBE3-.LBB3
 5000 15d9 20       		.uleb128 0x20
 5001 15da 1D2C0000 		.4byte	.LASF595
 5002 15de 01       		.byte	0x1
 5003 15df F401     		.2byte	0x1f4
 5004 15e1 E3040000 		.4byte	0x4e3
 5005 15e5 02       		.uleb128 0x2
 5006 15e6 91       		.byte	0x91
 5007 15e7 58       		.sleb128 -40
 5008 15e8 00       		.byte	0
 5009 15e9 00       		.byte	0
 5010 15ea 00       		.byte	0
 5011 15eb 0F       		.uleb128 0xf
 5012 15ec 04       		.byte	0x4
 5013 15ed 0A080000 		.4byte	0x80a
 5014 15f1 1E       		.uleb128 0x1e
 5015 15f2 5E230000 		.4byte	.LASF596
 5016 15f6 01       		.byte	0x1
 5017 15f7 5D02     		.2byte	0x25d
 5018 15f9 FA020000 		.4byte	0x2fa
 5019 15fd 00000000 		.4byte	.LFB10
 5020 1601 44010000 		.4byte	.LFE10-.LFB10
 5021 1605 01       		.uleb128 0x1
 5022 1606 9C       		.byte	0x9c
 5023 1607 70160000 		.4byte	0x1670
 5024 160b 1F       		.uleb128 0x1f
 5025 160c 1E350000 		.4byte	.LASF216
 5026 1610 01       		.byte	0x1
 5027 1611 5D02     		.2byte	0x25d
 5028 1613 22070000 		.4byte	0x722
 5029 1617 02       		.uleb128 0x2
 5030 1618 91       		.byte	0x91
 5031 1619 5C       		.sleb128 -36
 5032 161a 1F       		.uleb128 0x1f
 5033 161b E7400000 		.4byte	.LASF284
 5034 161f 01       		.byte	0x1
 5035 1620 5E02     		.2byte	0x25e
 5036 1622 080A0000 		.4byte	0xa08
 5037 1626 02       		.uleb128 0x2
 5038 1627 91       		.byte	0x91
 5039 1628 5B       		.sleb128 -37
 5040 1629 1F       		.uleb128 0x1f
 5041 162a F8290000 		.4byte	.LASF579
 5042 162e 01       		.byte	0x1
 5043 162f 5E02     		.2byte	0x25e
 5044 1631 6B000000 		.4byte	0x6b
 5045 1635 02       		.uleb128 0x2
 5046 1636 91       		.byte	0x91
 5047 1637 5A       		.sleb128 -38
 5048 1638 1F       		.uleb128 0x1f
 5049 1639 BC190000 		.4byte	.LASF580
 5050 163d 01       		.byte	0x1
ARM GAS  C:\Users\Petro\AppData\Local\Temp\cc4GPyUf.s 			page 107


 5051 163e 5E02     		.2byte	0x25e
 5052 1640 9F040000 		.4byte	0x49f
 5053 1644 02       		.uleb128 0x2
 5054 1645 91       		.byte	0x91
 5055 1646 54       		.sleb128 -44
 5056 1647 20       		.uleb128 0x20
 5057 1648 1C370000 		.4byte	.LASF581
 5058 164c 01       		.byte	0x1
 5059 164d 6102     		.2byte	0x261
 5060 164f FA020000 		.4byte	0x2fa
 5061 1653 02       		.uleb128 0x2
 5062 1654 91       		.byte	0x91
 5063 1655 6E       		.sleb128 -18
 5064 1656 21       		.uleb128 0x21
 5065 1657 E0000000 		.4byte	.LBB4
 5066 165b 48000000 		.4byte	.LBE4-.LBB4
 5067 165f 20       		.uleb128 0x20
 5068 1660 9C2E0000 		.4byte	.LASF597
 5069 1664 01       		.byte	0x1
 5070 1665 7702     		.2byte	0x277
 5071 1667 9B070000 		.4byte	0x79b
 5072 166b 02       		.uleb128 0x2
 5073 166c 91       		.byte	0x91
 5074 166d 60       		.sleb128 -32
 5075 166e 00       		.byte	0
 5076 166f 00       		.byte	0
 5077 1670 1E       		.uleb128 0x1e
 5078 1671 971A0000 		.4byte	.LASF598
 5079 1675 01       		.byte	0x1
 5080 1676 AB02     		.2byte	0x2ab
 5081 1678 FA020000 		.4byte	0x2fa
 5082 167c 00000000 		.4byte	.LFB11
 5083 1680 5C010000 		.4byte	.LFE11-.LFB11
 5084 1684 01       		.uleb128 0x1
 5085 1685 9C       		.byte	0x9c
 5086 1686 EF160000 		.4byte	0x16ef
 5087 168a 1F       		.uleb128 0x1f
 5088 168b 1E350000 		.4byte	.LASF216
 5089 168f 01       		.byte	0x1
 5090 1690 AB02     		.2byte	0x2ab
 5091 1692 22070000 		.4byte	0x722
 5092 1696 02       		.uleb128 0x2
 5093 1697 91       		.byte	0x91
 5094 1698 5C       		.sleb128 -36
 5095 1699 1F       		.uleb128 0x1f
 5096 169a E7400000 		.4byte	.LASF284
 5097 169e 01       		.byte	0x1
 5098 169f AC02     		.2byte	0x2ac
 5099 16a1 080A0000 		.4byte	0xa08
 5100 16a5 02       		.uleb128 0x2
 5101 16a6 91       		.byte	0x91
 5102 16a7 5B       		.sleb128 -37
 5103 16a8 1F       		.uleb128 0x1f
 5104 16a9 F8290000 		.4byte	.LASF579
 5105 16ad 01       		.byte	0x1
 5106 16ae AC02     		.2byte	0x2ac
 5107 16b0 6B000000 		.4byte	0x6b
ARM GAS  C:\Users\Petro\AppData\Local\Temp\cc4GPyUf.s 			page 108


 5108 16b4 02       		.uleb128 0x2
 5109 16b5 91       		.byte	0x91
 5110 16b6 5A       		.sleb128 -38
 5111 16b7 1F       		.uleb128 0x1f
 5112 16b8 BC190000 		.4byte	.LASF580
 5113 16bc 01       		.byte	0x1
 5114 16bd AC02     		.2byte	0x2ac
 5115 16bf 9F040000 		.4byte	0x49f
 5116 16c3 02       		.uleb128 0x2
 5117 16c4 91       		.byte	0x91
 5118 16c5 54       		.sleb128 -44
 5119 16c6 20       		.uleb128 0x20
 5120 16c7 1C370000 		.4byte	.LASF581
 5121 16cb 01       		.byte	0x1
 5122 16cc AE02     		.2byte	0x2ae
 5123 16ce FA020000 		.4byte	0x2fa
 5124 16d2 02       		.uleb128 0x2
 5125 16d3 91       		.byte	0x91
 5126 16d4 6E       		.sleb128 -18
 5127 16d5 21       		.uleb128 0x21
 5128 16d6 E0000000 		.4byte	.LBB5
 5129 16da 5C000000 		.4byte	.LBE5-.LBB5
 5130 16de 20       		.uleb128 0x20
 5131 16df 57420000 		.4byte	.LASF599
 5132 16e3 01       		.byte	0x1
 5133 16e4 C402     		.2byte	0x2c4
 5134 16e6 A6070000 		.4byte	0x7a6
 5135 16ea 02       		.uleb128 0x2
 5136 16eb 91       		.byte	0x91
 5137 16ec 60       		.sleb128 -32
 5138 16ed 00       		.byte	0
 5139 16ee 00       		.byte	0
 5140 16ef 22       		.uleb128 0x22
 5141 16f0 55190000 		.4byte	.LASF601
 5142 16f4 01       		.byte	0x1
 5143 16f5 E302     		.2byte	0x2e3
 5144 16f7 00000000 		.4byte	.LFB12
 5145 16fb F4000000 		.4byte	.LFE12-.LFB12
 5146 16ff 01       		.uleb128 0x1
 5147 1700 9C       		.byte	0x9c
 5148 1701 42170000 		.4byte	0x1742
 5149 1705 1F       		.uleb128 0x1f
 5150 1706 EE020000 		.4byte	.LASF589
 5151 170a 01       		.byte	0x1
 5152 170b E302     		.2byte	0x2e3
 5153 170d 42170000 		.4byte	0x1742
 5154 1711 02       		.uleb128 0x2
 5155 1712 91       		.byte	0x91
 5156 1713 64       		.sleb128 -28
 5157 1714 20       		.uleb128 0x20
 5158 1715 662F0000 		.4byte	.LASF590
 5159 1719 01       		.byte	0x1
 5160 171a E502     		.2byte	0x2e5
 5161 171c 080A0000 		.4byte	0xa08
 5162 1720 02       		.uleb128 0x2
 5163 1721 91       		.byte	0x91
 5164 1722 77       		.sleb128 -9
ARM GAS  C:\Users\Petro\AppData\Local\Temp\cc4GPyUf.s 			page 109


 5165 1723 20       		.uleb128 0x20
 5166 1724 24100000 		.4byte	.LASF591
 5167 1728 01       		.byte	0x1
 5168 1729 E602     		.2byte	0x2e6
 5169 172b E40A0000 		.4byte	0xae4
 5170 172f 02       		.uleb128 0x2
 5171 1730 91       		.byte	0x91
 5172 1731 6C       		.sleb128 -20
 5173 1732 20       		.uleb128 0x20
 5174 1733 432E0000 		.4byte	.LASF593
 5175 1737 01       		.byte	0x1
 5176 1738 E702     		.2byte	0x2e7
 5177 173a 6B000000 		.4byte	0x6b
 5178 173e 02       		.uleb128 0x2
 5179 173f 91       		.byte	0x91
 5180 1740 76       		.sleb128 -10
 5181 1741 00       		.byte	0
 5182 1742 0F       		.uleb128 0xf
 5183 1743 04       		.byte	0x4
 5184 1744 48170000 		.4byte	0x1748
 5185 1748 23       		.uleb128 0x23
 5186 1749 22070000 		.4byte	0x722
 5187 174d 22       		.uleb128 0x22
 5188 174e 35230000 		.4byte	.LASF602
 5189 1752 01       		.byte	0x1
 5190 1753 1303     		.2byte	0x313
 5191 1755 00000000 		.4byte	.LFB13
 5192 1759 EC000000 		.4byte	.LFE13-.LFB13
 5193 175d 01       		.uleb128 0x1
 5194 175e 9C       		.byte	0x9c
 5195 175f C7170000 		.4byte	0x17c7
 5196 1763 1F       		.uleb128 0x1f
 5197 1764 C83D0000 		.4byte	.LASF603
 5198 1768 01       		.byte	0x1
 5199 1769 1303     		.2byte	0x313
 5200 176b 77000000 		.4byte	0x77
 5201 176f 02       		.uleb128 0x2
 5202 1770 91       		.byte	0x91
 5203 1771 5E       		.sleb128 -34
 5204 1772 24       		.uleb128 0x24
 5205 1773 2E000000 		.4byte	.LBB6
 5206 1777 38000000 		.4byte	.LBE6-.LBB6
 5207 177b 8F170000 		.4byte	0x178f
 5208 177f 20       		.uleb128 0x20
 5209 1780 AF350000 		.4byte	.LASF604
 5210 1784 01       		.byte	0x1
 5211 1785 1D03     		.2byte	0x31d
 5212 1787 DE070000 		.4byte	0x7de
 5213 178b 02       		.uleb128 0x2
 5214 178c 91       		.byte	0x91
 5215 178d 74       		.sleb128 -12
 5216 178e 00       		.byte	0
 5217 178f 21       		.uleb128 0x21
 5218 1790 68000000 		.4byte	.LBB7
 5219 1794 70000000 		.4byte	.LBE7-.LBB7
 5220 1798 20       		.uleb128 0x20
 5221 1799 24100000 		.4byte	.LASF591
ARM GAS  C:\Users\Petro\AppData\Local\Temp\cc4GPyUf.s 			page 110


 5222 179d 01       		.byte	0x1
 5223 179e 2803     		.2byte	0x328
 5224 17a0 E40A0000 		.4byte	0xae4
 5225 17a4 02       		.uleb128 0x2
 5226 17a5 91       		.byte	0x91
 5227 17a6 6C       		.sleb128 -20
 5228 17a7 20       		.uleb128 0x20
 5229 17a8 F2360000 		.4byte	.LASF605
 5230 17ac 01       		.byte	0x1
 5231 17ad 2903     		.2byte	0x329
 5232 17af 5F070000 		.4byte	0x75f
 5233 17b3 02       		.uleb128 0x2
 5234 17b4 91       		.byte	0x91
 5235 17b5 64       		.sleb128 -28
 5236 17b6 20       		.uleb128 0x20
 5237 17b7 B5260000 		.4byte	.LASF606
 5238 17bb 01       		.byte	0x1
 5239 17bc 2A03     		.2byte	0x32a
 5240 17be 77000000 		.4byte	0x77
 5241 17c2 02       		.uleb128 0x2
 5242 17c3 91       		.byte	0x91
 5243 17c4 62       		.sleb128 -30
 5244 17c5 00       		.byte	0
 5245 17c6 00       		.byte	0
 5246 17c7 22       		.uleb128 0x22
 5247 17c8 05410000 		.4byte	.LASF607
 5248 17cc 01       		.byte	0x1
 5249 17cd 4A03     		.2byte	0x34a
 5250 17cf 00000000 		.4byte	.LFB14
 5251 17d3 28000000 		.4byte	.LFE14-.LFB14
 5252 17d7 01       		.uleb128 0x1
 5253 17d8 9C       		.byte	0x9c
 5254 17d9 ED170000 		.4byte	0x17ed
 5255 17dd 1F       		.uleb128 0x1f
 5256 17de EE020000 		.4byte	.LASF589
 5257 17e2 01       		.byte	0x1
 5258 17e3 4A03     		.2byte	0x34a
 5259 17e5 ED170000 		.4byte	0x17ed
 5260 17e9 02       		.uleb128 0x2
 5261 17ea 91       		.byte	0x91
 5262 17eb 74       		.sleb128 -12
 5263 17ec 00       		.byte	0
 5264 17ed 0F       		.uleb128 0xf
 5265 17ee 04       		.byte	0x4
 5266 17ef F3170000 		.4byte	0x17f3
 5267 17f3 23       		.uleb128 0x23
 5268 17f4 2D050000 		.4byte	0x52d
 5269 17f8 1E       		.uleb128 0x1e
 5270 17f9 12240000 		.4byte	.LASF608
 5271 17fd 01       		.byte	0x1
 5272 17fe 7203     		.2byte	0x372
 5273 1800 FA020000 		.4byte	0x2fa
 5274 1804 00000000 		.4byte	.LFB15
 5275 1808 0C010000 		.4byte	.LFE15-.LFB15
 5276 180c 01       		.uleb128 0x1
 5277 180d 9C       		.byte	0x9c
 5278 180e 4F180000 		.4byte	0x184f
ARM GAS  C:\Users\Petro\AppData\Local\Temp\cc4GPyUf.s 			page 111


 5279 1812 1F       		.uleb128 0x1f
 5280 1813 FF0E0000 		.4byte	.LASF609
 5281 1817 01       		.byte	0x1
 5282 1818 7203     		.2byte	0x372
 5283 181a 77000000 		.4byte	0x77
 5284 181e 02       		.uleb128 0x2
 5285 181f 91       		.byte	0x91
 5286 1820 66       		.sleb128 -26
 5287 1821 1F       		.uleb128 0x1f
 5288 1822 F8290000 		.4byte	.LASF579
 5289 1826 01       		.byte	0x1
 5290 1827 7203     		.2byte	0x372
 5291 1829 6B000000 		.4byte	0x6b
 5292 182d 02       		.uleb128 0x2
 5293 182e 91       		.byte	0x91
 5294 182f 65       		.sleb128 -27
 5295 1830 1F       		.uleb128 0x1f
 5296 1831 BC190000 		.4byte	.LASF580
 5297 1835 01       		.byte	0x1
 5298 1836 7203     		.2byte	0x372
 5299 1838 9F040000 		.4byte	0x49f
 5300 183c 02       		.uleb128 0x2
 5301 183d 91       		.byte	0x91
 5302 183e 60       		.sleb128 -32
 5303 183f 20       		.uleb128 0x20
 5304 1840 1C370000 		.4byte	.LASF581
 5305 1844 01       		.byte	0x1
 5306 1845 7403     		.2byte	0x374
 5307 1847 FA020000 		.4byte	0x2fa
 5308 184b 02       		.uleb128 0x2
 5309 184c 91       		.byte	0x91
 5310 184d 6E       		.sleb128 -18
 5311 184e 00       		.byte	0
 5312 184f 25       		.uleb128 0x25
 5313 1850 E0290000 		.4byte	.LASF610
 5314 1854 01       		.byte	0x1
 5315 1855 A903     		.2byte	0x3a9
 5316 1857 00000000 		.4byte	.LFB16
 5317 185b 2C000000 		.4byte	.LFE16-.LFB16
 5318 185f 01       		.uleb128 0x1
 5319 1860 9C       		.byte	0x9c
 5320 1861 26       		.uleb128 0x26
 5321 1862 2A420000 		.4byte	.LASF611
 5322 1866 01       		.byte	0x1
 5323 1867 BD03     		.2byte	0x3bd
 5324 1869 00000000 		.4byte	.LFB17
 5325 186d 74000000 		.4byte	.LFE17-.LFB17
 5326 1871 01       		.uleb128 0x1
 5327 1872 9C       		.byte	0x9c
 5328 1873 1D       		.uleb128 0x1d
 5329 1874 93380000 		.4byte	.LASF612
 5330 1878 01       		.byte	0x1
 5331 1879 12       		.byte	0x12
 5332 187a B9090000 		.4byte	0x9b9
 5333 187e 05       		.uleb128 0x5
 5334 187f 03       		.byte	0x3
 5335 1880 00000000 		.4byte	CyBle_CpsApplCallback
ARM GAS  C:\Users\Petro\AppData\Local\Temp\cc4GPyUf.s 			page 112


 5336 1884 1D       		.uleb128 0x1d
 5337 1885 81310000 		.4byte	.LASF613
 5338 1889 01       		.byte	0x1
 5339 188a 54       		.byte	0x54
 5340 188b F2060000 		.4byte	0x6f2
 5341 188f 05       		.uleb128 0x5
 5342 1890 03       		.byte	0x3
 5343 1891 04000000 		.4byte	cyBle_cpssReqHandle
 5344 1895 1D       		.uleb128 0x1d
 5345 1896 C1130000 		.4byte	.LASF614
 5346 189a 01       		.byte	0x1
 5347 189b 55       		.byte	0x55
 5348 189c 6B000000 		.4byte	0x6b
 5349 18a0 05       		.uleb128 0x5
 5350 18a1 03       		.byte	0x3
 5351 18a2 06000000 		.4byte	cyBle_cpssFlag
 5352 18a6 1D       		.uleb128 0x1d
 5353 18a7 022D0000 		.4byte	.LASF615
 5354 18ab 01       		.byte	0x1
 5355 18ac 56       		.byte	0x56
 5356 18ad 2D050000 		.4byte	0x52d
 5357 18b1 05       		.uleb128 0x5
 5358 18b2 03       		.byte	0x3
 5359 18b3 08000000 		.4byte	cyBle_cpssConnParam
 5360 18b7 27       		.uleb128 0x27
 5361 18b8 F8140000 		.4byte	.LASF616
 5362 18bc 08       		.byte	0x8
 5363 18bd D301     		.2byte	0x1d3
 5364 18bf B0000000 		.4byte	0xb0
 5365 18c3 27       		.uleb128 0x27
 5366 18c4 FD230000 		.4byte	.LASF617
 5367 18c8 08       		.byte	0x8
 5368 18c9 E701     		.2byte	0x1e7
 5369 18cb BA030000 		.4byte	0x3ba
 5370 18cf 27       		.uleb128 0x27
 5371 18d0 10360000 		.4byte	.LASF618
 5372 18d4 08       		.byte	0x8
 5373 18d5 F601     		.2byte	0x1f6
 5374 18d7 6B000000 		.4byte	0x6b
 5375 18db 27       		.uleb128 0x27
 5376 18dc 00000000 		.4byte	.LASF619
 5377 18e0 08       		.byte	0x8
 5378 18e1 FC01     		.2byte	0x1fc
 5379 18e3 6B000000 		.4byte	0x6b
 5380 18e7 0A       		.uleb128 0xa
 5381 18e8 E4080000 		.4byte	0x8e4
 5382 18ec F7180000 		.4byte	0x18f7
 5383 18f0 0B       		.uleb128 0xb
 5384 18f1 B5000000 		.4byte	0xb5
 5385 18f5 2B       		.byte	0x2b
 5386 18f6 00       		.byte	0
 5387 18f7 28       		.uleb128 0x28
 5388 18f8 2F260000 		.4byte	.LASF620
 5389 18fc 0D       		.byte	0xd
 5390 18fd E2       		.byte	0xe2
 5391 18fe 02190000 		.4byte	0x1902
 5392 1902 23       		.uleb128 0x23
ARM GAS  C:\Users\Petro\AppData\Local\Temp\cc4GPyUf.s 			page 113


 5393 1903 E7180000 		.4byte	0x18e7
 5394 1907 29       		.uleb128 0x29
 5395 1908 F91D0000 		.4byte	.LASF621
 5396 190c 01       		.byte	0x1
 5397 190d 16       		.byte	0x16
 5398 190e 18190000 		.4byte	0x1918
 5399 1912 05       		.uleb128 0x5
 5400 1913 03       		.byte	0x3
 5401 1914 00000000 		.4byte	cyBle_cpss
 5402 1918 23       		.uleb128 0x23
 5403 1919 A60A0000 		.4byte	0xaa6
 5404 191d 29       		.uleb128 0x29
 5405 191e 31290000 		.4byte	.LASF622
 5406 1922 01       		.byte	0x1
 5407 1923 79       		.byte	0x79
 5408 1924 93040000 		.4byte	0x493
 5409 1928 05       		.uleb128 0x5
 5410 1929 03       		.byte	0x3
 5411 192a 00000000 		.4byte	cyBle_cpssBroadcastModeInfo
 5412 192e 29       		.uleb128 0x29
 5413 192f A9380000 		.4byte	.LASF623
 5414 1933 01       		.byte	0x1
 5415 1934 53       		.byte	0x53
 5416 1935 A80B0000 		.4byte	0xba8
 5417 1939 05       		.uleb128 0x5
 5418 193a 03       		.byte	0x3
 5419 193b 00000000 		.4byte	cyBle_cpssAdjustment
 5420 193f 27       		.uleb128 0x27
 5421 1940 26370000 		.4byte	.LASF624
 5422 1944 0C       		.byte	0xc
 5423 1945 2C09     		.2byte	0x92c
 5424 1947 51130000 		.4byte	0x1351
 5425 194b 27       		.uleb128 0x27
 5426 194c 8C3C0000 		.4byte	.LASF625
 5427 1950 0C       		.byte	0xc
 5428 1951 2D09     		.2byte	0x92d
 5429 1953 22070000 		.4byte	0x722
 5430 1957 29       		.uleb128 0x29
 5431 1958 7A380000 		.4byte	.LASF626
 5432 195c 01       		.byte	0x1
 5433 195d 64       		.byte	0x64
 5434 195e BA030000 		.4byte	0x3ba
 5435 1962 05       		.uleb128 0x5
 5436 1963 03       		.byte	0x3
 5437 1964 00000000 		.4byte	cyBle_cpssBroadcastParam
 5438 1968 29       		.uleb128 0x29
 5439 1969 A9220000 		.4byte	.LASF627
 5440 196d 01       		.byte	0x1
 5441 196e 65       		.byte	0x65
 5442 196f FA030000 		.4byte	0x3fa
 5443 1973 05       		.uleb128 0x5
 5444 1974 03       		.byte	0x3
 5445 1975 00000000 		.4byte	cyBle_cpssBroadcastData
 5446 1979 00       		.byte	0
 5447              		.section	.debug_abbrev,"",%progbits
 5448              	.Ldebug_abbrev0:
 5449 0000 01       		.uleb128 0x1
ARM GAS  C:\Users\Petro\AppData\Local\Temp\cc4GPyUf.s 			page 114


 5450 0001 11       		.uleb128 0x11
 5451 0002 01       		.byte	0x1
 5452 0003 25       		.uleb128 0x25
 5453 0004 0E       		.uleb128 0xe
 5454 0005 13       		.uleb128 0x13
 5455 0006 0B       		.uleb128 0xb
 5456 0007 03       		.uleb128 0x3
 5457 0008 0E       		.uleb128 0xe
 5458 0009 1B       		.uleb128 0x1b
 5459 000a 0E       		.uleb128 0xe
 5460 000b 55       		.uleb128 0x55
 5461 000c 17       		.uleb128 0x17
 5462 000d 11       		.uleb128 0x11
 5463 000e 01       		.uleb128 0x1
 5464 000f 10       		.uleb128 0x10
 5465 0010 17       		.uleb128 0x17
 5466 0011 00       		.byte	0
 5467 0012 00       		.byte	0
 5468 0013 02       		.uleb128 0x2
 5469 0014 24       		.uleb128 0x24
 5470 0015 00       		.byte	0
 5471 0016 0B       		.uleb128 0xb
 5472 0017 0B       		.uleb128 0xb
 5473 0018 3E       		.uleb128 0x3e
 5474 0019 0B       		.uleb128 0xb
 5475 001a 03       		.uleb128 0x3
 5476 001b 0E       		.uleb128 0xe
 5477 001c 00       		.byte	0
 5478 001d 00       		.byte	0
 5479 001e 03       		.uleb128 0x3
 5480 001f 24       		.uleb128 0x24
 5481 0020 00       		.byte	0
 5482 0021 0B       		.uleb128 0xb
 5483 0022 0B       		.uleb128 0xb
 5484 0023 3E       		.uleb128 0x3e
 5485 0024 0B       		.uleb128 0xb
 5486 0025 03       		.uleb128 0x3
 5487 0026 08       		.uleb128 0x8
 5488 0027 00       		.byte	0
 5489 0028 00       		.byte	0
 5490 0029 04       		.uleb128 0x4
 5491 002a 16       		.uleb128 0x16
 5492 002b 00       		.byte	0
 5493 002c 03       		.uleb128 0x3
 5494 002d 0E       		.uleb128 0xe
 5495 002e 3A       		.uleb128 0x3a
 5496 002f 0B       		.uleb128 0xb
 5497 0030 3B       		.uleb128 0x3b
 5498 0031 05       		.uleb128 0x5
 5499 0032 49       		.uleb128 0x49
 5500 0033 13       		.uleb128 0x13
 5501 0034 00       		.byte	0
 5502 0035 00       		.byte	0
 5503 0036 05       		.uleb128 0x5
 5504 0037 35       		.uleb128 0x35
 5505 0038 00       		.byte	0
 5506 0039 49       		.uleb128 0x49
ARM GAS  C:\Users\Petro\AppData\Local\Temp\cc4GPyUf.s 			page 115


 5507 003a 13       		.uleb128 0x13
 5508 003b 00       		.byte	0
 5509 003c 00       		.byte	0
 5510 003d 06       		.uleb128 0x6
 5511 003e 0F       		.uleb128 0xf
 5512 003f 00       		.byte	0
 5513 0040 0B       		.uleb128 0xb
 5514 0041 0B       		.uleb128 0xb
 5515 0042 00       		.byte	0
 5516 0043 00       		.byte	0
 5517 0044 07       		.uleb128 0x7
 5518 0045 04       		.uleb128 0x4
 5519 0046 01       		.byte	0x1
 5520 0047 0B       		.uleb128 0xb
 5521 0048 0B       		.uleb128 0xb
 5522 0049 3A       		.uleb128 0x3a
 5523 004a 0B       		.uleb128 0xb
 5524 004b 3B       		.uleb128 0x3b
 5525 004c 0B       		.uleb128 0xb
 5526 004d 01       		.uleb128 0x1
 5527 004e 13       		.uleb128 0x13
 5528 004f 00       		.byte	0
 5529 0050 00       		.byte	0
 5530 0051 08       		.uleb128 0x8
 5531 0052 28       		.uleb128 0x28
 5532 0053 00       		.byte	0
 5533 0054 03       		.uleb128 0x3
 5534 0055 0E       		.uleb128 0xe
 5535 0056 1C       		.uleb128 0x1c
 5536 0057 0D       		.uleb128 0xd
 5537 0058 00       		.byte	0
 5538 0059 00       		.byte	0
 5539 005a 09       		.uleb128 0x9
 5540 005b 04       		.uleb128 0x4
 5541 005c 01       		.byte	0x1
 5542 005d 0B       		.uleb128 0xb
 5543 005e 0B       		.uleb128 0xb
 5544 005f 3A       		.uleb128 0x3a
 5545 0060 0B       		.uleb128 0xb
 5546 0061 3B       		.uleb128 0x3b
 5547 0062 05       		.uleb128 0x5
 5548 0063 01       		.uleb128 0x1
 5549 0064 13       		.uleb128 0x13
 5550 0065 00       		.byte	0
 5551 0066 00       		.byte	0
 5552 0067 0A       		.uleb128 0xa
 5553 0068 01       		.uleb128 0x1
 5554 0069 01       		.byte	0x1
 5555 006a 49       		.uleb128 0x49
 5556 006b 13       		.uleb128 0x13
 5557 006c 01       		.uleb128 0x1
 5558 006d 13       		.uleb128 0x13
 5559 006e 00       		.byte	0
 5560 006f 00       		.byte	0
 5561 0070 0B       		.uleb128 0xb
 5562 0071 21       		.uleb128 0x21
 5563 0072 00       		.byte	0
ARM GAS  C:\Users\Petro\AppData\Local\Temp\cc4GPyUf.s 			page 116


 5564 0073 49       		.uleb128 0x49
 5565 0074 13       		.uleb128 0x13
 5566 0075 2F       		.uleb128 0x2f
 5567 0076 0B       		.uleb128 0xb
 5568 0077 00       		.byte	0
 5569 0078 00       		.byte	0
 5570 0079 0C       		.uleb128 0xc
 5571 007a 16       		.uleb128 0x16
 5572 007b 00       		.byte	0
 5573 007c 03       		.uleb128 0x3
 5574 007d 0E       		.uleb128 0xe
 5575 007e 3A       		.uleb128 0x3a
 5576 007f 0B       		.uleb128 0xb
 5577 0080 3B       		.uleb128 0x3b
 5578 0081 0B       		.uleb128 0xb
 5579 0082 49       		.uleb128 0x49
 5580 0083 13       		.uleb128 0x13
 5581 0084 00       		.byte	0
 5582 0085 00       		.byte	0
 5583 0086 0D       		.uleb128 0xd
 5584 0087 13       		.uleb128 0x13
 5585 0088 01       		.byte	0x1
 5586 0089 0B       		.uleb128 0xb
 5587 008a 0B       		.uleb128 0xb
 5588 008b 3A       		.uleb128 0x3a
 5589 008c 0B       		.uleb128 0xb
 5590 008d 3B       		.uleb128 0x3b
 5591 008e 05       		.uleb128 0x5
 5592 008f 01       		.uleb128 0x1
 5593 0090 13       		.uleb128 0x13
 5594 0091 00       		.byte	0
 5595 0092 00       		.byte	0
 5596 0093 0E       		.uleb128 0xe
 5597 0094 0D       		.uleb128 0xd
 5598 0095 00       		.byte	0
 5599 0096 03       		.uleb128 0x3
 5600 0097 0E       		.uleb128 0xe
 5601 0098 3A       		.uleb128 0x3a
 5602 0099 0B       		.uleb128 0xb
 5603 009a 3B       		.uleb128 0x3b
 5604 009b 05       		.uleb128 0x5
 5605 009c 49       		.uleb128 0x49
 5606 009d 13       		.uleb128 0x13
 5607 009e 38       		.uleb128 0x38
 5608 009f 0B       		.uleb128 0xb
 5609 00a0 00       		.byte	0
 5610 00a1 00       		.byte	0
 5611 00a2 0F       		.uleb128 0xf
 5612 00a3 0F       		.uleb128 0xf
 5613 00a4 00       		.byte	0
 5614 00a5 0B       		.uleb128 0xb
 5615 00a6 0B       		.uleb128 0xb
 5616 00a7 49       		.uleb128 0x49
 5617 00a8 13       		.uleb128 0x13
 5618 00a9 00       		.byte	0
 5619 00aa 00       		.byte	0
 5620 00ab 10       		.uleb128 0x10
ARM GAS  C:\Users\Petro\AppData\Local\Temp\cc4GPyUf.s 			page 117


 5621 00ac 0D       		.uleb128 0xd
 5622 00ad 00       		.byte	0
 5623 00ae 03       		.uleb128 0x3
 5624 00af 08       		.uleb128 0x8
 5625 00b0 3A       		.uleb128 0x3a
 5626 00b1 0B       		.uleb128 0xb
 5627 00b2 3B       		.uleb128 0x3b
 5628 00b3 05       		.uleb128 0x5
 5629 00b4 49       		.uleb128 0x49
 5630 00b5 13       		.uleb128 0x13
 5631 00b6 38       		.uleb128 0x38
 5632 00b7 0B       		.uleb128 0xb
 5633 00b8 00       		.byte	0
 5634 00b9 00       		.byte	0
 5635 00ba 11       		.uleb128 0x11
 5636 00bb 13       		.uleb128 0x13
 5637 00bc 01       		.byte	0x1
 5638 00bd 0B       		.uleb128 0xb
 5639 00be 0B       		.uleb128 0xb
 5640 00bf 3A       		.uleb128 0x3a
 5641 00c0 0B       		.uleb128 0xb
 5642 00c1 3B       		.uleb128 0x3b
 5643 00c2 0B       		.uleb128 0xb
 5644 00c3 01       		.uleb128 0x1
 5645 00c4 13       		.uleb128 0x13
 5646 00c5 00       		.byte	0
 5647 00c6 00       		.byte	0
 5648 00c7 12       		.uleb128 0x12
 5649 00c8 0D       		.uleb128 0xd
 5650 00c9 00       		.byte	0
 5651 00ca 03       		.uleb128 0x3
 5652 00cb 0E       		.uleb128 0xe
 5653 00cc 3A       		.uleb128 0x3a
 5654 00cd 0B       		.uleb128 0xb
 5655 00ce 3B       		.uleb128 0x3b
 5656 00cf 0B       		.uleb128 0xb
 5657 00d0 49       		.uleb128 0x49
 5658 00d1 13       		.uleb128 0x13
 5659 00d2 38       		.uleb128 0x38
 5660 00d3 0B       		.uleb128 0xb
 5661 00d4 00       		.byte	0
 5662 00d5 00       		.byte	0
 5663 00d6 13       		.uleb128 0x13
 5664 00d7 17       		.uleb128 0x17
 5665 00d8 01       		.byte	0x1
 5666 00d9 0B       		.uleb128 0xb
 5667 00da 0B       		.uleb128 0xb
 5668 00db 3A       		.uleb128 0x3a
 5669 00dc 0B       		.uleb128 0xb
 5670 00dd 3B       		.uleb128 0x3b
 5671 00de 0B       		.uleb128 0xb
 5672 00df 01       		.uleb128 0x1
 5673 00e0 13       		.uleb128 0x13
 5674 00e1 00       		.byte	0
 5675 00e2 00       		.byte	0
 5676 00e3 14       		.uleb128 0x14
 5677 00e4 0D       		.uleb128 0xd
ARM GAS  C:\Users\Petro\AppData\Local\Temp\cc4GPyUf.s 			page 118


 5678 00e5 00       		.byte	0
 5679 00e6 03       		.uleb128 0x3
 5680 00e7 0E       		.uleb128 0xe
 5681 00e8 3A       		.uleb128 0x3a
 5682 00e9 0B       		.uleb128 0xb
 5683 00ea 3B       		.uleb128 0x3b
 5684 00eb 0B       		.uleb128 0xb
 5685 00ec 49       		.uleb128 0x49
 5686 00ed 13       		.uleb128 0x13
 5687 00ee 00       		.byte	0
 5688 00ef 00       		.byte	0
 5689 00f0 15       		.uleb128 0x15
 5690 00f1 15       		.uleb128 0x15
 5691 00f2 01       		.byte	0x1
 5692 00f3 27       		.uleb128 0x27
 5693 00f4 19       		.uleb128 0x19
 5694 00f5 01       		.uleb128 0x1
 5695 00f6 13       		.uleb128 0x13
 5696 00f7 00       		.byte	0
 5697 00f8 00       		.byte	0
 5698 00f9 16       		.uleb128 0x16
 5699 00fa 05       		.uleb128 0x5
 5700 00fb 00       		.byte	0
 5701 00fc 49       		.uleb128 0x49
 5702 00fd 13       		.uleb128 0x13
 5703 00fe 00       		.byte	0
 5704 00ff 00       		.byte	0
 5705 0100 17       		.uleb128 0x17
 5706 0101 0D       		.uleb128 0xd
 5707 0102 00       		.byte	0
 5708 0103 03       		.uleb128 0x3
 5709 0104 08       		.uleb128 0x8
 5710 0105 3A       		.uleb128 0x3a
 5711 0106 0B       		.uleb128 0xb
 5712 0107 3B       		.uleb128 0x3b
 5713 0108 0B       		.uleb128 0xb
 5714 0109 49       		.uleb128 0x49
 5715 010a 13       		.uleb128 0x13
 5716 010b 38       		.uleb128 0x38
 5717 010c 0B       		.uleb128 0xb
 5718 010d 00       		.byte	0
 5719 010e 00       		.byte	0
 5720 010f 18       		.uleb128 0x18
 5721 0110 2E       		.uleb128 0x2e
 5722 0111 00       		.byte	0
 5723 0112 3F       		.uleb128 0x3f
 5724 0113 19       		.uleb128 0x19
 5725 0114 03       		.uleb128 0x3
 5726 0115 0E       		.uleb128 0xe
 5727 0116 3A       		.uleb128 0x3a
 5728 0117 0B       		.uleb128 0xb
 5729 0118 3B       		.uleb128 0x3b
 5730 0119 0B       		.uleb128 0xb
 5731 011a 27       		.uleb128 0x27
 5732 011b 19       		.uleb128 0x19
 5733 011c 11       		.uleb128 0x11
 5734 011d 01       		.uleb128 0x1
ARM GAS  C:\Users\Petro\AppData\Local\Temp\cc4GPyUf.s 			page 119


 5735 011e 12       		.uleb128 0x12
 5736 011f 06       		.uleb128 0x6
 5737 0120 40       		.uleb128 0x40
 5738 0121 18       		.uleb128 0x18
 5739 0122 9742     		.uleb128 0x2117
 5740 0124 19       		.uleb128 0x19
 5741 0125 00       		.byte	0
 5742 0126 00       		.byte	0
 5743 0127 19       		.uleb128 0x19
 5744 0128 2E       		.uleb128 0x2e
 5745 0129 00       		.byte	0
 5746 012a 3F       		.uleb128 0x3f
 5747 012b 19       		.uleb128 0x19
 5748 012c 03       		.uleb128 0x3
 5749 012d 0E       		.uleb128 0xe
 5750 012e 3A       		.uleb128 0x3a
 5751 012f 0B       		.uleb128 0xb
 5752 0130 3B       		.uleb128 0x3b
 5753 0131 0B       		.uleb128 0xb
 5754 0132 27       		.uleb128 0x27
 5755 0133 19       		.uleb128 0x19
 5756 0134 11       		.uleb128 0x11
 5757 0135 01       		.uleb128 0x1
 5758 0136 12       		.uleb128 0x12
 5759 0137 06       		.uleb128 0x6
 5760 0138 40       		.uleb128 0x40
 5761 0139 18       		.uleb128 0x18
 5762 013a 9642     		.uleb128 0x2116
 5763 013c 19       		.uleb128 0x19
 5764 013d 00       		.byte	0
 5765 013e 00       		.byte	0
 5766 013f 1A       		.uleb128 0x1a
 5767 0140 2E       		.uleb128 0x2e
 5768 0141 01       		.byte	0x1
 5769 0142 3F       		.uleb128 0x3f
 5770 0143 19       		.uleb128 0x19
 5771 0144 03       		.uleb128 0x3
 5772 0145 0E       		.uleb128 0xe
 5773 0146 3A       		.uleb128 0x3a
 5774 0147 0B       		.uleb128 0xb
 5775 0148 3B       		.uleb128 0x3b
 5776 0149 0B       		.uleb128 0xb
 5777 014a 27       		.uleb128 0x27
 5778 014b 19       		.uleb128 0x19
 5779 014c 11       		.uleb128 0x11
 5780 014d 01       		.uleb128 0x1
 5781 014e 12       		.uleb128 0x12
 5782 014f 06       		.uleb128 0x6
 5783 0150 40       		.uleb128 0x40
 5784 0151 18       		.uleb128 0x18
 5785 0152 9742     		.uleb128 0x2117
 5786 0154 19       		.uleb128 0x19
 5787 0155 01       		.uleb128 0x1
 5788 0156 13       		.uleb128 0x13
 5789 0157 00       		.byte	0
 5790 0158 00       		.byte	0
 5791 0159 1B       		.uleb128 0x1b
ARM GAS  C:\Users\Petro\AppData\Local\Temp\cc4GPyUf.s 			page 120


 5792 015a 05       		.uleb128 0x5
 5793 015b 00       		.byte	0
 5794 015c 03       		.uleb128 0x3
 5795 015d 0E       		.uleb128 0xe
 5796 015e 3A       		.uleb128 0x3a
 5797 015f 0B       		.uleb128 0xb
 5798 0160 3B       		.uleb128 0x3b
 5799 0161 0B       		.uleb128 0xb
 5800 0162 49       		.uleb128 0x49
 5801 0163 13       		.uleb128 0x13
 5802 0164 02       		.uleb128 0x2
 5803 0165 18       		.uleb128 0x18
 5804 0166 00       		.byte	0
 5805 0167 00       		.byte	0
 5806 0168 1C       		.uleb128 0x1c
 5807 0169 2E       		.uleb128 0x2e
 5808 016a 01       		.byte	0x1
 5809 016b 3F       		.uleb128 0x3f
 5810 016c 19       		.uleb128 0x19
 5811 016d 03       		.uleb128 0x3
 5812 016e 0E       		.uleb128 0xe
 5813 016f 3A       		.uleb128 0x3a
 5814 0170 0B       		.uleb128 0xb
 5815 0171 3B       		.uleb128 0x3b
 5816 0172 0B       		.uleb128 0xb
 5817 0173 27       		.uleb128 0x27
 5818 0174 19       		.uleb128 0x19
 5819 0175 49       		.uleb128 0x49
 5820 0176 13       		.uleb128 0x13
 5821 0177 11       		.uleb128 0x11
 5822 0178 01       		.uleb128 0x1
 5823 0179 12       		.uleb128 0x12
 5824 017a 06       		.uleb128 0x6
 5825 017b 40       		.uleb128 0x40
 5826 017c 18       		.uleb128 0x18
 5827 017d 9642     		.uleb128 0x2116
 5828 017f 19       		.uleb128 0x19
 5829 0180 01       		.uleb128 0x1
 5830 0181 13       		.uleb128 0x13
 5831 0182 00       		.byte	0
 5832 0183 00       		.byte	0
 5833 0184 1D       		.uleb128 0x1d
 5834 0185 34       		.uleb128 0x34
 5835 0186 00       		.byte	0
 5836 0187 03       		.uleb128 0x3
 5837 0188 0E       		.uleb128 0xe
 5838 0189 3A       		.uleb128 0x3a
 5839 018a 0B       		.uleb128 0xb
 5840 018b 3B       		.uleb128 0x3b
 5841 018c 0B       		.uleb128 0xb
 5842 018d 49       		.uleb128 0x49
 5843 018e 13       		.uleb128 0x13
 5844 018f 02       		.uleb128 0x2
 5845 0190 18       		.uleb128 0x18
 5846 0191 00       		.byte	0
 5847 0192 00       		.byte	0
 5848 0193 1E       		.uleb128 0x1e
ARM GAS  C:\Users\Petro\AppData\Local\Temp\cc4GPyUf.s 			page 121


 5849 0194 2E       		.uleb128 0x2e
 5850 0195 01       		.byte	0x1
 5851 0196 3F       		.uleb128 0x3f
 5852 0197 19       		.uleb128 0x19
 5853 0198 03       		.uleb128 0x3
 5854 0199 0E       		.uleb128 0xe
 5855 019a 3A       		.uleb128 0x3a
 5856 019b 0B       		.uleb128 0xb
 5857 019c 3B       		.uleb128 0x3b
 5858 019d 05       		.uleb128 0x5
 5859 019e 27       		.uleb128 0x27
 5860 019f 19       		.uleb128 0x19
 5861 01a0 49       		.uleb128 0x49
 5862 01a1 13       		.uleb128 0x13
 5863 01a2 11       		.uleb128 0x11
 5864 01a3 01       		.uleb128 0x1
 5865 01a4 12       		.uleb128 0x12
 5866 01a5 06       		.uleb128 0x6
 5867 01a6 40       		.uleb128 0x40
 5868 01a7 18       		.uleb128 0x18
 5869 01a8 9642     		.uleb128 0x2116
 5870 01aa 19       		.uleb128 0x19
 5871 01ab 01       		.uleb128 0x1
 5872 01ac 13       		.uleb128 0x13
 5873 01ad 00       		.byte	0
 5874 01ae 00       		.byte	0
 5875 01af 1F       		.uleb128 0x1f
 5876 01b0 05       		.uleb128 0x5
 5877 01b1 00       		.byte	0
 5878 01b2 03       		.uleb128 0x3
 5879 01b3 0E       		.uleb128 0xe
 5880 01b4 3A       		.uleb128 0x3a
 5881 01b5 0B       		.uleb128 0xb
 5882 01b6 3B       		.uleb128 0x3b
 5883 01b7 05       		.uleb128 0x5
 5884 01b8 49       		.uleb128 0x49
 5885 01b9 13       		.uleb128 0x13
 5886 01ba 02       		.uleb128 0x2
 5887 01bb 18       		.uleb128 0x18
 5888 01bc 00       		.byte	0
 5889 01bd 00       		.byte	0
 5890 01be 20       		.uleb128 0x20
 5891 01bf 34       		.uleb128 0x34
 5892 01c0 00       		.byte	0
 5893 01c1 03       		.uleb128 0x3
 5894 01c2 0E       		.uleb128 0xe
 5895 01c3 3A       		.uleb128 0x3a
 5896 01c4 0B       		.uleb128 0xb
 5897 01c5 3B       		.uleb128 0x3b
 5898 01c6 05       		.uleb128 0x5
 5899 01c7 49       		.uleb128 0x49
 5900 01c8 13       		.uleb128 0x13
 5901 01c9 02       		.uleb128 0x2
 5902 01ca 18       		.uleb128 0x18
 5903 01cb 00       		.byte	0
 5904 01cc 00       		.byte	0
 5905 01cd 21       		.uleb128 0x21
ARM GAS  C:\Users\Petro\AppData\Local\Temp\cc4GPyUf.s 			page 122


 5906 01ce 0B       		.uleb128 0xb
 5907 01cf 01       		.byte	0x1
 5908 01d0 11       		.uleb128 0x11
 5909 01d1 01       		.uleb128 0x1
 5910 01d2 12       		.uleb128 0x12
 5911 01d3 06       		.uleb128 0x6
 5912 01d4 00       		.byte	0
 5913 01d5 00       		.byte	0
 5914 01d6 22       		.uleb128 0x22
 5915 01d7 2E       		.uleb128 0x2e
 5916 01d8 01       		.byte	0x1
 5917 01d9 3F       		.uleb128 0x3f
 5918 01da 19       		.uleb128 0x19
 5919 01db 03       		.uleb128 0x3
 5920 01dc 0E       		.uleb128 0xe
 5921 01dd 3A       		.uleb128 0x3a
 5922 01de 0B       		.uleb128 0xb
 5923 01df 3B       		.uleb128 0x3b
 5924 01e0 05       		.uleb128 0x5
 5925 01e1 27       		.uleb128 0x27
 5926 01e2 19       		.uleb128 0x19
 5927 01e3 11       		.uleb128 0x11
 5928 01e4 01       		.uleb128 0x1
 5929 01e5 12       		.uleb128 0x12
 5930 01e6 06       		.uleb128 0x6
 5931 01e7 40       		.uleb128 0x40
 5932 01e8 18       		.uleb128 0x18
 5933 01e9 9642     		.uleb128 0x2116
 5934 01eb 19       		.uleb128 0x19
 5935 01ec 01       		.uleb128 0x1
 5936 01ed 13       		.uleb128 0x13
 5937 01ee 00       		.byte	0
 5938 01ef 00       		.byte	0
 5939 01f0 23       		.uleb128 0x23
 5940 01f1 26       		.uleb128 0x26
 5941 01f2 00       		.byte	0
 5942 01f3 49       		.uleb128 0x49
 5943 01f4 13       		.uleb128 0x13
 5944 01f5 00       		.byte	0
 5945 01f6 00       		.byte	0
 5946 01f7 24       		.uleb128 0x24
 5947 01f8 0B       		.uleb128 0xb
 5948 01f9 01       		.byte	0x1
 5949 01fa 11       		.uleb128 0x11
 5950 01fb 01       		.uleb128 0x1
 5951 01fc 12       		.uleb128 0x12
 5952 01fd 06       		.uleb128 0x6
 5953 01fe 01       		.uleb128 0x1
 5954 01ff 13       		.uleb128 0x13
 5955 0200 00       		.byte	0
 5956 0201 00       		.byte	0
 5957 0202 25       		.uleb128 0x25
 5958 0203 2E       		.uleb128 0x2e
 5959 0204 00       		.byte	0
 5960 0205 3F       		.uleb128 0x3f
 5961 0206 19       		.uleb128 0x19
 5962 0207 03       		.uleb128 0x3
ARM GAS  C:\Users\Petro\AppData\Local\Temp\cc4GPyUf.s 			page 123


 5963 0208 0E       		.uleb128 0xe
 5964 0209 3A       		.uleb128 0x3a
 5965 020a 0B       		.uleb128 0xb
 5966 020b 3B       		.uleb128 0x3b
 5967 020c 05       		.uleb128 0x5
 5968 020d 27       		.uleb128 0x27
 5969 020e 19       		.uleb128 0x19
 5970 020f 11       		.uleb128 0x11
 5971 0210 01       		.uleb128 0x1
 5972 0211 12       		.uleb128 0x12
 5973 0212 06       		.uleb128 0x6
 5974 0213 40       		.uleb128 0x40
 5975 0214 18       		.uleb128 0x18
 5976 0215 9642     		.uleb128 0x2116
 5977 0217 19       		.uleb128 0x19
 5978 0218 00       		.byte	0
 5979 0219 00       		.byte	0
 5980 021a 26       		.uleb128 0x26
 5981 021b 2E       		.uleb128 0x2e
 5982 021c 00       		.byte	0
 5983 021d 3F       		.uleb128 0x3f
 5984 021e 19       		.uleb128 0x19
 5985 021f 03       		.uleb128 0x3
 5986 0220 0E       		.uleb128 0xe
 5987 0221 3A       		.uleb128 0x3a
 5988 0222 0B       		.uleb128 0xb
 5989 0223 3B       		.uleb128 0x3b
 5990 0224 05       		.uleb128 0x5
 5991 0225 27       		.uleb128 0x27
 5992 0226 19       		.uleb128 0x19
 5993 0227 11       		.uleb128 0x11
 5994 0228 01       		.uleb128 0x1
 5995 0229 12       		.uleb128 0x12
 5996 022a 06       		.uleb128 0x6
 5997 022b 40       		.uleb128 0x40
 5998 022c 18       		.uleb128 0x18
 5999 022d 9742     		.uleb128 0x2117
 6000 022f 19       		.uleb128 0x19
 6001 0230 00       		.byte	0
 6002 0231 00       		.byte	0
 6003 0232 27       		.uleb128 0x27
 6004 0233 34       		.uleb128 0x34
 6005 0234 00       		.byte	0
 6006 0235 03       		.uleb128 0x3
 6007 0236 0E       		.uleb128 0xe
 6008 0237 3A       		.uleb128 0x3a
 6009 0238 0B       		.uleb128 0xb
 6010 0239 3B       		.uleb128 0x3b
 6011 023a 05       		.uleb128 0x5
 6012 023b 49       		.uleb128 0x49
 6013 023c 13       		.uleb128 0x13
 6014 023d 3F       		.uleb128 0x3f
 6015 023e 19       		.uleb128 0x19
 6016 023f 3C       		.uleb128 0x3c
 6017 0240 19       		.uleb128 0x19
 6018 0241 00       		.byte	0
 6019 0242 00       		.byte	0
ARM GAS  C:\Users\Petro\AppData\Local\Temp\cc4GPyUf.s 			page 124


 6020 0243 28       		.uleb128 0x28
 6021 0244 34       		.uleb128 0x34
 6022 0245 00       		.byte	0
 6023 0246 03       		.uleb128 0x3
 6024 0247 0E       		.uleb128 0xe
 6025 0248 3A       		.uleb128 0x3a
 6026 0249 0B       		.uleb128 0xb
 6027 024a 3B       		.uleb128 0x3b
 6028 024b 0B       		.uleb128 0xb
 6029 024c 49       		.uleb128 0x49
 6030 024d 13       		.uleb128 0x13
 6031 024e 3F       		.uleb128 0x3f
 6032 024f 19       		.uleb128 0x19
 6033 0250 3C       		.uleb128 0x3c
 6034 0251 19       		.uleb128 0x19
 6035 0252 00       		.byte	0
 6036 0253 00       		.byte	0
 6037 0254 29       		.uleb128 0x29
 6038 0255 34       		.uleb128 0x34
 6039 0256 00       		.byte	0
 6040 0257 03       		.uleb128 0x3
 6041 0258 0E       		.uleb128 0xe
 6042 0259 3A       		.uleb128 0x3a
 6043 025a 0B       		.uleb128 0xb
 6044 025b 3B       		.uleb128 0x3b
 6045 025c 0B       		.uleb128 0xb
 6046 025d 49       		.uleb128 0x49
 6047 025e 13       		.uleb128 0x13
 6048 025f 3F       		.uleb128 0x3f
 6049 0260 19       		.uleb128 0x19
 6050 0261 02       		.uleb128 0x2
 6051 0262 18       		.uleb128 0x18
 6052 0263 00       		.byte	0
 6053 0264 00       		.byte	0
 6054 0265 00       		.byte	0
 6055              		.section	.debug_aranges,"",%progbits
 6056 0000 94000000 		.4byte	0x94
 6057 0004 0200     		.2byte	0x2
 6058 0006 00000000 		.4byte	.Ldebug_info0
 6059 000a 04       		.byte	0x4
 6060 000b 00       		.byte	0
 6061 000c 0000     		.2byte	0
 6062 000e 0000     		.2byte	0
 6063 0010 00000000 		.4byte	.LFB2
 6064 0014 1C000000 		.4byte	.LFE2-.LFB2
 6065 0018 00000000 		.4byte	.LFB3
 6066 001c 18000000 		.4byte	.LFE3-.LFB3
 6067 0020 00000000 		.4byte	.LFB4
 6068 0024 18000000 		.4byte	.LFE4-.LFB4
 6069 0028 00000000 		.4byte	.LFB5
 6070 002c 88000000 		.4byte	.LFE5-.LFB5
 6071 0030 00000000 		.4byte	.LFB6
 6072 0034 88000000 		.4byte	.LFE6-.LFB6
 6073 0038 00000000 		.4byte	.LFB7
 6074 003c A4000000 		.4byte	.LFE7-.LFB7
 6075 0040 00000000 		.4byte	.LFB8
 6076 0044 A0000000 		.4byte	.LFE8-.LFB8
ARM GAS  C:\Users\Petro\AppData\Local\Temp\cc4GPyUf.s 			page 125


 6077 0048 00000000 		.4byte	.LFB9
 6078 004c 20040000 		.4byte	.LFE9-.LFB9
 6079 0050 00000000 		.4byte	.LFB10
 6080 0054 44010000 		.4byte	.LFE10-.LFB10
 6081 0058 00000000 		.4byte	.LFB11
 6082 005c 5C010000 		.4byte	.LFE11-.LFB11
 6083 0060 00000000 		.4byte	.LFB12
 6084 0064 F4000000 		.4byte	.LFE12-.LFB12
 6085 0068 00000000 		.4byte	.LFB13
 6086 006c EC000000 		.4byte	.LFE13-.LFB13
 6087 0070 00000000 		.4byte	.LFB14
 6088 0074 28000000 		.4byte	.LFE14-.LFB14
 6089 0078 00000000 		.4byte	.LFB15
 6090 007c 0C010000 		.4byte	.LFE15-.LFB15
 6091 0080 00000000 		.4byte	.LFB16
 6092 0084 2C000000 		.4byte	.LFE16-.LFB16
 6093 0088 00000000 		.4byte	.LFB17
 6094 008c 74000000 		.4byte	.LFE17-.LFB17
 6095 0090 00000000 		.4byte	0
 6096 0094 00000000 		.4byte	0
 6097              		.section	.debug_ranges,"",%progbits
 6098              	.Ldebug_ranges0:
 6099 0000 00000000 		.4byte	.LFB2
 6100 0004 1C000000 		.4byte	.LFE2
 6101 0008 00000000 		.4byte	.LFB3
 6102 000c 18000000 		.4byte	.LFE3
 6103 0010 00000000 		.4byte	.LFB4
 6104 0014 18000000 		.4byte	.LFE4
 6105 0018 00000000 		.4byte	.LFB5
 6106 001c 88000000 		.4byte	.LFE5
 6107 0020 00000000 		.4byte	.LFB6
 6108 0024 88000000 		.4byte	.LFE6
 6109 0028 00000000 		.4byte	.LFB7
 6110 002c A4000000 		.4byte	.LFE7
 6111 0030 00000000 		.4byte	.LFB8
 6112 0034 A0000000 		.4byte	.LFE8
 6113 0038 00000000 		.4byte	.LFB9
 6114 003c 20040000 		.4byte	.LFE9
 6115 0040 00000000 		.4byte	.LFB10
 6116 0044 44010000 		.4byte	.LFE10
 6117 0048 00000000 		.4byte	.LFB11
 6118 004c 5C010000 		.4byte	.LFE11
 6119 0050 00000000 		.4byte	.LFB12
 6120 0054 F4000000 		.4byte	.LFE12
 6121 0058 00000000 		.4byte	.LFB13
 6122 005c EC000000 		.4byte	.LFE13
 6123 0060 00000000 		.4byte	.LFB14
 6124 0064 28000000 		.4byte	.LFE14
 6125 0068 00000000 		.4byte	.LFB15
 6126 006c 0C010000 		.4byte	.LFE15
 6127 0070 00000000 		.4byte	.LFB16
 6128 0074 2C000000 		.4byte	.LFE16
 6129 0078 00000000 		.4byte	.LFB17
 6130 007c 74000000 		.4byte	.LFE17
 6131 0080 00000000 		.4byte	0
 6132 0084 00000000 		.4byte	0
 6133              		.section	.debug_line,"",%progbits
ARM GAS  C:\Users\Petro\AppData\Local\Temp\cc4GPyUf.s 			page 126


 6134              	.Ldebug_line0:
 6135 0000 5B030000 		.section	.debug_str,"MS",%progbits,1
 6135      0200FD00 
 6135      00000201 
 6135      FB0E0D00 
 6135      01010101 
 6136              	.LASF619:
 6137 0000 6379426C 		.ascii	"cyBle_peerBonding\000"
 6137      655F7065 
 6137      6572426F 
 6137      6E64696E 
 6137      6700
 6138              	.LASF545:
 6139 0012 4359424C 		.ascii	"CYBLE_EVT_UDSC_READ_CHAR_RESPONSE\000"
 6139      455F4556 
 6139      545F5544 
 6139      53435F52 
 6139      4541445F 
 6140              	.LASF385:
 6141 0034 4359424C 		.ascii	"CYBLE_EVT_CGMSC_INDICATION\000"
 6141      455F4556 
 6141      545F4347 
 6141      4D53435F 
 6141      494E4449 
 6142              	.LASF474:
 6143 004f 4359424C 		.ascii	"CYBLE_EVT_HTSS_NOTIFICATION_DISABLED\000"
 6143      455F4556 
 6143      545F4854 
 6143      53535F4E 
 6143      4F544946 
 6144              	.LASF192:
 6145 0074 4359424C 		.ascii	"CYBLE_GATT_ERR_INVALID_CRC\000"
 6145      455F4741 
 6145      54545F45 
 6145      52525F49 
 6145      4E56414C 
 6146              	.LASF121:
 6147 008f 7363616E 		.ascii	"scanRspData\000"
 6147      52737044 
 6147      61746100 
 6148              	.LASF316:
 6149 009b 4359424C 		.ascii	"CYBLE_DIS_CHAR_COUNT\000"
 6149      455F4449 
 6149      535F4348 
 6149      41525F43 
 6149      4F554E54 
 6150              	.LASF16:
 6151 00b0 73697A65 		.ascii	"sizetype\000"
 6151      74797065 
 6151      00
 6152              	.LASF362:
 6153 00b9 4359424C 		.ascii	"CYBLE_EVT_BCSC_READ_CHAR_RESPONSE\000"
 6153      455F4556 
 6153      545F4243 
 6153      53435F52 
 6153      4541445F 
 6154              	.LASF211:
ARM GAS  C:\Users\Petro\AppData\Local\Temp\cc4GPyUf.s 			page 127


 6155 00db 4359424C 		.ascii	"CYBLE_GATTS_HANDLE_VALUE_NTF_T\000"
 6155      455F4741 
 6155      5454535F 
 6155      48414E44 
 6155      4C455F56 
 6156              	.LASF249:
 6157 00fa 4359424C 		.ascii	"CYBLE_GAP_ADV_SCRT_MNGR_OOB_FLAGS\000"
 6157      455F4741 
 6157      505F4144 
 6157      565F5343 
 6157      52545F4D 
 6158              	.LASF403:
 6159 011c 4359424C 		.ascii	"CYBLE_EVT_CPSC_READ_DESCR_RESPONSE\000"
 6159      455F4556 
 6159      545F4350 
 6159      53435F52 
 6159      4541445F 
 6160              	.LASF522:
 6161 013f 4359424C 		.ascii	"CYBLE_EVT_RTUSS_WRITE_CHAR_CMD\000"
 6161      455F4556 
 6161      545F5254 
 6161      5553535F 
 6161      57524954 
 6162              	.LASF162:
 6163 015e 4359424C 		.ascii	"CYBLE_GATT_HANDLE_VALUE_CNF\000"
 6163      455F4741 
 6163      54545F48 
 6163      414E444C 
 6163      455F5641 
 6164              	.LASF239:
 6165 017a 4359424C 		.ascii	"CYBLE_GAP_ADV_INCOMPL_128_UUID\000"
 6165      455F4741 
 6165      505F4144 
 6165      565F494E 
 6165      434F4D50 
 6166              	.LASF556:
 6167 0199 4359424C 		.ascii	"CYBLE_EVT_WPTSC_NOTIFICATION\000"
 6167      455F4556 
 6167      545F5750 
 6167      5453435F 
 6167      4E4F5449 
 6168              	.LASF452:
 6169 01b6 4359424C 		.ascii	"CYBLE_EVT_GLSC_WRITE_DESCR_RESPONSE\000"
 6169      455F4556 
 6169      545F474C 
 6169      53435F57 
 6169      52495445 
 6170              	.LASF332:
 6171 01da 4359424C 		.ascii	"CYBLE_EVT_GATTC_INCL_DISCOVERY_COMPLETE\000"
 6171      455F4556 
 6171      545F4741 
 6171      5454435F 
 6171      494E434C 
 6172              	.LASF562:
 6173 0202 4359424C 		.ascii	"CYBLE_EVT_WSSS_INDICATION_ENABLED\000"
 6173      455F4556 
 6173      545F5753 
ARM GAS  C:\Users\Petro\AppData\Local\Temp\cc4GPyUf.s 			page 128


 6173      53535F49 
 6173      4E444943 
 6174              	.LASF401:
 6175 0224 4359424C 		.ascii	"CYBLE_EVT_CPSC_READ_CHAR_RESPONSE\000"
 6175      455F4556 
 6175      545F4350 
 6175      53435F52 
 6175      4541445F 
 6176              	.LASF367:
 6177 0246 4359424C 		.ascii	"CYBLE_EVT_BLSS_INDICATION_CONFIRMED\000"
 6177      455F4556 
 6177      545F424C 
 6177      53535F49 
 6177      4E444943 
 6178              	.LASF414:
 6179 026a 4359424C 		.ascii	"CYBLE_EVT_CSCSC_READ_CHAR_RESPONSE\000"
 6179      455F4556 
 6179      545F4353 
 6179      4353435F 
 6179      52454144 
 6180              	.LASF306:
 6181 028d 4359424C 		.ascii	"CYBLE_CSCS_DESCR_COUNT\000"
 6181      455F4353 
 6181      43535F44 
 6181      45534352 
 6181      5F434F55 
 6182              	.LASF390:
 6183 02a4 4359424C 		.ascii	"CYBLE_EVT_CGMSC_WRITE_DESCR_RESPONSE\000"
 6183      455F4556 
 6183      545F4347 
 6183      4D53435F 
 6183      57524954 
 6184              	.LASF445:
 6185 02c9 4359424C 		.ascii	"CYBLE_EVT_GLSS_NOTIFICATION_DISABLED\000"
 6185      455F4556 
 6185      545F474C 
 6185      53535F4E 
 6185      4F544946 
 6186              	.LASF589:
 6187 02ee 6576656E 		.ascii	"eventParam\000"
 6187      74506172 
 6187      616D00
 6188              	.LASF372:
 6189 02f9 4359424C 		.ascii	"CYBLE_EVT_BLSC_READ_CHAR_RESPONSE\000"
 6189      455F4556 
 6189      545F424C 
 6189      53435F52 
 6189      4541445F 
 6190              	.LASF30:
 6191 031b 4359424C 		.ascii	"CYBLE_EVT_GAP_DEVICE_CONNECTED\000"
 6191      455F4556 
 6191      545F4741 
 6191      505F4445 
 6191      56494345 
 6192              	.LASF512:
 6193 033a 4359424C 		.ascii	"CYBLE_EVT_RSCSS_INDICATION_ENABLED\000"
 6193      455F4556 
ARM GAS  C:\Users\Petro\AppData\Local\Temp\cc4GPyUf.s 			page 129


 6193      545F5253 
 6193      4353535F 
 6193      494E4449 
 6194              	.LASF488:
 6195 035d 4359424C 		.ascii	"CYBLE_EVT_LLSC_WRITE_CHAR_RESPONSE\000"
 6195      455F4556 
 6195      545F4C4C 
 6195      53435F57 
 6195      52495445 
 6196              	.LASF37:
 6197 0380 4359424C 		.ascii	"CYBLE_EVT_GATT_CONNECT_IND\000"
 6197      455F4556 
 6197      545F4741 
 6197      54545F43 
 6197      4F4E4E45 
 6198              	.LASF269:
 6199 039b 4359424C 		.ascii	"CYBLE_CPS_SENSOR_LOCATION\000"
 6199      455F4350 
 6199      535F5345 
 6199      4E534F52 
 6199      5F4C4F43 
 6200              	.LASF450:
 6201 03b5 4359424C 		.ascii	"CYBLE_EVT_GLSC_WRITE_CHAR_RESPONSE\000"
 6201      455F4556 
 6201      545F474C 
 6201      53435F57 
 6201      52495445 
 6202              	.LASF155:
 6203 03d8 4359424C 		.ascii	"CYBLE_GATT_WRITE_CMD\000"
 6203      455F4741 
 6203      54545F57 
 6203      52495445 
 6203      5F434D44 
 6204              	.LASF11:
 6205 03ed 75696E74 		.ascii	"uint32\000"
 6205      333200
 6206              	.LASF327:
 6207 03f4 4359424C 		.ascii	"CYBLE_EVT_GATTC_DESCR_DISCOVERY_FAILED\000"
 6207      455F4556 
 6207      545F4741 
 6207      5454435F 
 6207      44455343 
 6208              	.LASF521:
 6209 041b 4359424C 		.ascii	"CYBLE_EVT_RSCSC_WRITE_DESCR_RESPONSE\000"
 6209      455F4556 
 6209      545F5253 
 6209      4353435F 
 6209      57524954 
 6210              	.LASF360:
 6211 0440 4359424C 		.ascii	"CYBLE_EVT_BCSS_INDICATION_CONFIRMED\000"
 6211      455F4556 
 6211      545F4243 
 6211      53535F49 
 6211      4E444943 
 6212              	.LASF361:
 6213 0464 4359424C 		.ascii	"CYBLE_EVT_BCSC_INDICATION\000"
 6213      455F4556 
ARM GAS  C:\Users\Petro\AppData\Local\Temp\cc4GPyUf.s 			page 130


 6213      545F4243 
 6213      53435F49 
 6213      4E444943 
 6214              	.LASF490:
 6215 047e 4359424C 		.ascii	"CYBLE_EVT_LNSS_INDICATION_DISABLED\000"
 6215      455F4556 
 6215      545F4C4E 
 6215      53535F49 
 6215      4E444943 
 6216              	.LASF422:
 6217 04a1 4359424C 		.ascii	"CYBLE_EVT_CTSC_READ_CHAR_RESPONSE\000"
 6217      455F4556 
 6217      545F4354 
 6217      53435F52 
 6217      4541445F 
 6218              	.LASF331:
 6219 04c3 4359424C 		.ascii	"CYBLE_EVT_GATTC_SRVC_DISCOVERY_COMPLETE\000"
 6219      455F4556 
 6219      545F4741 
 6219      5454435F 
 6219      53525643 
 6220              	.LASF298:
 6221 04eb 6F666673 		.ascii	"offsetCompensation\000"
 6221      6574436F 
 6221      6D70656E 
 6221      73617469 
 6221      6F6E00
 6222              	.LASF515:
 6223 04fe 4359424C 		.ascii	"CYBLE_EVT_RSCSS_CHAR_WRITE\000"
 6223      455F4556 
 6223      545F5253 
 6223      4353535F 
 6223      43484152 
 6224              	.LASF337:
 6225 0519 4359424C 		.ascii	"CYBLE_EVT_ANCSS_WRITE_CHAR\000"
 6225      455F4556 
 6225      545F414E 
 6225      4353535F 
 6225      57524954 
 6226              	.LASF548:
 6227 0534 4359424C 		.ascii	"CYBLE_EVT_UDSC_WRITE_DESCR_RESPONSE\000"
 6227      455F4556 
 6227      545F5544 
 6227      53435F57 
 6227      52495445 
 6228              	.LASF124:
 6229 0558 64697363 		.ascii	"discMode\000"
 6229      4D6F6465 
 6229      00
 6230              	.LASF530:
 6231 0561 4359424C 		.ascii	"CYBLE_EVT_TPSS_NOTIFICATION_ENABLED\000"
 6231      455F4556 
 6231      545F5450 
 6231      53535F4E 
 6231      4F544946 
 6232              	.LASF350:
 6233 0585 4359424C 		.ascii	"CYBLE_EVT_ANSC_READ_DESCR_RESPONSE\000"
ARM GAS  C:\Users\Petro\AppData\Local\Temp\cc4GPyUf.s 			page 131


 6233      455F4556 
 6233      545F414E 
 6233      53435F52 
 6233      4541445F 
 6234              	.LASF167:
 6235 05a8 4359424C 		.ascii	"CYBLE_GATT_ERR_READ_NOT_PERMITTED\000"
 6235      455F4741 
 6235      54545F45 
 6235      52525F52 
 6235      4541445F 
 6236              	.LASF182:
 6237 05ca 4359424C 		.ascii	"CYBLE_GATT_ERR_INSUFFICIENT_RESOURCE\000"
 6237      455F4741 
 6237      54545F45 
 6237      52525F49 
 6237      4E535546 
 6238              	.LASF156:
 6239 05ef 4359424C 		.ascii	"CYBLE_GATT_PREPARE_WRITE_REQ\000"
 6239      455F4741 
 6239      54545F50 
 6239      52455041 
 6239      52455F57 
 6240              	.LASF181:
 6241 060c 4359424C 		.ascii	"CYBLE_GATT_ERR_UNSUPPORTED_GROUP_TYPE\000"
 6241      455F4741 
 6241      54545F45 
 6241      52525F55 
 6241      4E535550 
 6242              	.LASF90:
 6243 0632 4359424C 		.ascii	"CYBLE_ERROR_L2CAP_CONNECTION_ENTITY_NOT_FOUND\000"
 6243      455F4552 
 6243      524F525F 
 6243      4C324341 
 6243      505F434F 
 6244              	.LASF585:
 6245 0660 4379426C 		.ascii	"CyBle_CpssSetCharacteristicDescriptor\000"
 6245      655F4370 
 6245      73735365 
 6245      74436861 
 6245      72616374 
 6246              	.LASF96:
 6247 0686 4359424C 		.ascii	"CYBLE_ERROR_MIC_AUTH_FAILED\000"
 6247      455F4552 
 6247      524F525F 
 6247      4D49435F 
 6247      41555448 
 6248              	.LASF326:
 6249 06a2 4359424C 		.ascii	"CYBLE_EVT_GATTC_CHAR_DISCOVERY_FAILED\000"
 6249      455F4556 
 6249      545F4741 
 6249      5454435F 
 6249      43484152 
 6250              	.LASF587:
 6251 06c8 4379426C 		.ascii	"CyBle_CpssGetCharacteristicDescriptor\000"
 6251      655F4370 
 6251      73734765 
 6251      74436861 
ARM GAS  C:\Users\Petro\AppData\Local\Temp\cc4GPyUf.s 			page 132


 6251      72616374 
 6252              	.LASF57:
 6253 06ee 4359424C 		.ascii	"CYBLE_EVT_GATTS_DATA_SIGNED_CMD_REQ\000"
 6253      455F4556 
 6253      545F4741 
 6253      5454535F 
 6253      44415441 
 6254              	.LASF68:
 6255 0712 4359424C 		.ascii	"CYBLE_EVT_L2CAP_CBFC_RX_CREDIT_IND\000"
 6255      455F4556 
 6255      545F4C32 
 6255      4341505F 
 6255      43424643 
 6256              	.LASF207:
 6257 0735 4359424C 		.ascii	"CYBLE_GATT_VALUE_T\000"
 6257      455F4741 
 6257      54545F56 
 6257      414C5545 
 6257      5F5400
 6258              	.LASF408:
 6259 0748 4359424C 		.ascii	"CYBLE_EVT_CSCSS_INDICATION_ENABLED\000"
 6259      455F4556 
 6259      545F4353 
 6259      4353535F 
 6259      494E4449 
 6260              	.LASF230:
 6261 076b 7065726D 		.ascii	"permission\000"
 6261      69737369 
 6261      6F6E00
 6262              	.LASF150:
 6263 0776 4359424C 		.ascii	"CYBLE_GATT_READ_MULTIPLE_RSP\000"
 6263      455F4741 
 6263      54545F52 
 6263      4541445F 
 6263      4D554C54 
 6264              	.LASF495:
 6265 0793 4359424C 		.ascii	"CYBLE_EVT_LNSC_INDICATION\000"
 6265      455F4556 
 6265      545F4C4E 
 6265      53435F49 
 6265      4E444943 
 6266              	.LASF506:
 6267 07ad 4359424C 		.ascii	"CYBLE_EVT_PASSC_READ_CHAR_RESPONSE\000"
 6267      455F4556 
 6267      545F5041 
 6267      5353435F 
 6267      52454144 
 6268              	.LASF365:
 6269 07d0 4359424C 		.ascii	"CYBLE_EVT_BLSS_INDICATION_ENABLED\000"
 6269      455F4556 
 6269      545F424C 
 6269      53535F49 
 6269      4E444943 
 6270              	.LASF371:
 6271 07f2 4359424C 		.ascii	"CYBLE_EVT_BLSC_NOTIFICATION\000"
 6271      455F4556 
 6271      545F424C 
ARM GAS  C:\Users\Petro\AppData\Local\Temp\cc4GPyUf.s 			page 133


 6271      53435F4E 
 6271      4F544946 
 6272              	.LASF144:
 6273 080e 4359424C 		.ascii	"CYBLE_GATT_READ_BY_TYPE_RSP\000"
 6273      455F4741 
 6273      54545F52 
 6273      4541445F 
 6273      42595F54 
 6274              	.LASF266:
 6275 082a 4359424C 		.ascii	"CYBLE_CALLBACK_T\000"
 6275      455F4341 
 6275      4C4C4241 
 6275      434B5F54 
 6275      00
 6276              	.LASF286:
 6277 083b 79656172 		.ascii	"year\000"
 6277      00
 6278              	.LASF413:
 6279 0840 4359424C 		.ascii	"CYBLE_EVT_CSCSC_INDICATION\000"
 6279      455F4556 
 6279      545F4353 
 6279      4353435F 
 6279      494E4449 
 6280              	.LASF311:
 6281 085b 4359424C 		.ascii	"CYBLE_DIS_FIRMWARE_REV\000"
 6281      455F4449 
 6281      535F4649 
 6281      524D5741 
 6281      52455F52 
 6282              	.LASF54:
 6283 0872 4359424C 		.ascii	"CYBLE_EVT_GATTC_HANDLE_VALUE_NTF\000"
 6283      455F4556 
 6283      545F4741 
 6283      5454435F 
 6283      48414E44 
 6284              	.LASF24:
 6285 0893 4359424C 		.ascii	"CYBLE_EVT_GAP_AUTH_REQ\000"
 6285      455F4556 
 6285      545F4741 
 6285      505F4155 
 6285      54485F52 
 6286              	.LASF333:
 6287 08aa 4359424C 		.ascii	"CYBLE_EVT_GATTC_CHAR_DISCOVERY_COMPLETE\000"
 6287      455F4556 
 6287      545F4741 
 6287      5454435F 
 6287      43484152 
 6288              	.LASF205:
 6289 08d2 4359424C 		.ascii	"CYBLE_CONN_HANDLE_T\000"
 6289      455F434F 
 6289      4E4E5F48 
 6289      414E444C 
 6289      455F5400 
 6290              	.LASF400:
 6291 08e6 4359424C 		.ascii	"CYBLE_EVT_CPSC_INDICATION\000"
 6291      455F4556 
 6291      545F4350 
ARM GAS  C:\Users\Petro\AppData\Local\Temp\cc4GPyUf.s 			page 134


 6291      53435F49 
 6291      4E444943 
 6292              	.LASF85:
 6293 0900 4359424C 		.ascii	"CYBLE_ERROR_BT_ON_NOT_COMPLETED\000"
 6293      455F4552 
 6293      524F525F 
 6293      42545F4F 
 6293      4E5F4E4F 
 6294              	.LASF412:
 6295 0920 4359424C 		.ascii	"CYBLE_EVT_CSCSC_NOTIFICATION\000"
 6295      455F4556 
 6295      545F4353 
 6295      4353435F 
 6295      4E4F5449 
 6296              	.LASF543:
 6297 093d 4359424C 		.ascii	"CYBLE_EVT_UDSC_INDICATION\000"
 6297      455F4556 
 6297      545F5544 
 6297      53435F49 
 6297      4E444943 
 6298              	.LASF236:
 6299 0957 4359424C 		.ascii	"CYBLE_GAP_ADV_COMPL_16UUID\000"
 6299      455F4741 
 6299      505F4144 
 6299      565F434F 
 6299      4D504C5F 
 6300              	.LASF376:
 6301 0972 4359424C 		.ascii	"CYBLE_EVT_BMSC_READ_CHAR_RESPONSE\000"
 6301      455F4556 
 6301      545F424D 
 6301      53435F52 
 6301      4541445F 
 6302              	.LASF573:
 6303 0994 4359424C 		.ascii	"CYBLE_STATE_ADVERTISING\000"
 6303      455F5354 
 6303      4154455F 
 6303      41445645 
 6303      52544953 
 6304              	.LASF279:
 6305 09ac 64657363 		.ascii	"descrHandle\000"
 6305      7248616E 
 6305      646C6500 
 6306              	.LASF203:
 6307 09b8 62644861 		.ascii	"bdHandle\000"
 6307      6E646C65 
 6307      00
 6308              	.LASF381:
 6309 09c1 4359424C 		.ascii	"CYBLE_EVT_CGMSS_INDICATION_CONFIRMED\000"
 6309      455F4556 
 6309      545F4347 
 6309      4D53535F 
 6309      494E4449 
 6310              	.LASF195:
 6311 09e6 4359424C 		.ascii	"CYBLE_GATT_ERR_ANCS_INVALID_COMMAND\000"
 6311      455F4741 
 6311      54545F45 
 6311      52525F41 
ARM GAS  C:\Users\Petro\AppData\Local\Temp\cc4GPyUf.s 			page 135


 6311      4E43535F 
 6312              	.LASF629:
 6313 0a0a 2E5C4765 		.ascii	".\\Generated_Source\\PSoC4\\BLE_cps.c\000"
 6313      6E657261 
 6313      7465645F 
 6313      536F7572 
 6313      63655C50 
 6314              	.LASF373:
 6315 0a2d 4359424C 		.ascii	"CYBLE_EVT_BLSC_READ_DESCR_RESPONSE\000"
 6315      455F4556 
 6315      545F424C 
 6315      53435F52 
 6315      4541445F 
 6316              	.LASF272:
 6317 0a50 4359424C 		.ascii	"CYBLE_CPS_CHAR_COUNT\000"
 6317      455F4350 
 6317      535F4348 
 6317      41525F43 
 6317      4F554E54 
 6318              	.LASF394:
 6319 0a65 4359424C 		.ascii	"CYBLE_EVT_CPSS_INDICATION_DISABLED\000"
 6319      455F4556 
 6319      545F4350 
 6319      53535F49 
 6319      4E444943 
 6320              	.LASF138:
 6321 0a88 4359424C 		.ascii	"CYBLE_GATT_XCHNG_MTU_RSP\000"
 6321      455F4741 
 6321      54545F58 
 6321      43484E47 
 6321      5F4D5455 
 6322              	.LASF393:
 6323 0aa1 4359424C 		.ascii	"CYBLE_EVT_CPSS_INDICATION_ENABLED\000"
 6323      455F4556 
 6323      545F4350 
 6323      53535F49 
 6323      4E444943 
 6324              	.LASF492:
 6325 0ac3 4359424C 		.ascii	"CYBLE_EVT_LNSS_NOTIFICATION_ENABLED\000"
 6325      455F4556 
 6325      545F4C4E 
 6325      53535F4E 
 6325      4F544946 
 6326              	.LASF50:
 6327 0ae7 4359424C 		.ascii	"CYBLE_EVT_GATTS_WRITE_CMD_REQ\000"
 6327      455F4556 
 6327      545F4741 
 6327      5454535F 
 6327      57524954 
 6328              	.LASF404:
 6329 0b05 4359424C 		.ascii	"CYBLE_EVT_CPSC_WRITE_DESCR_RESPONSE\000"
 6329      455F4556 
 6329      545F4350 
 6329      53435F57 
 6329      52495445 
 6330              	.LASF630:
 6331 0b29 443A5C43 		.ascii	"D:\\Cypress\\system-start-finish\\fw\\finish\\sandb"
ARM GAS  C:\Users\Petro\AppData\Local\Temp\cc4GPyUf.s 			page 136


 6331      79707265 
 6331      73735C73 
 6331      79737465 
 6331      6D2D7374 
 6332 0b57 6F785C42 		.ascii	"ox\\BLE_Cycling_Sensor01\\BLE_Cycling_Sensor01.cyds"
 6332      4C455F43 
 6332      79636C69 
 6332      6E675F53 
 6332      656E736F 
 6333 0b88 6E00     		.ascii	"n\000"
 6334              	.LASF4:
 6335 0b8a 6C6F6E67 		.ascii	"long int\000"
 6335      20696E74 
 6335      00
 6336              	.LASF339:
 6337 0b93 4359424C 		.ascii	"CYBLE_EVT_ANCSC_READ_CHAR_RESPONSE\000"
 6337      455F4556 
 6337      545F414E 
 6337      4353435F 
 6337      52454144 
 6338              	.LASF257:
 6339 0bb6 4359424C 		.ascii	"CYBLE_GAP_ADV_ADVERT_INTERVAL\000"
 6339      455F4741 
 6339      505F4144 
 6339      565F4144 
 6339      56455254 
 6340              	.LASF507:
 6341 0bd4 4359424C 		.ascii	"CYBLE_EVT_PASSC_WRITE_CHAR_RESPONSE\000"
 6341      455F4556 
 6341      545F5041 
 6341      5353435F 
 6341      57524954 
 6342              	.LASF538:
 6343 0bf8 4359424C 		.ascii	"CYBLE_EVT_UDSS_INDICATION_CONFIRMED\000"
 6343      455F4556 
 6343      545F5544 
 6343      53535F49 
 6343      4E444943 
 6344              	.LASF242:
 6345 0c1c 4359424C 		.ascii	"CYBLE_GAP_ADV_COMPL_NAME\000"
 6345      455F4741 
 6345      505F4144 
 6345      565F434F 
 6345      4D504C5F 
 6346              	.LASF319:
 6347 0c35 4359424C 		.ascii	"CYBLE_LONG_TERM_KEY_REQUEST_REPLY\000"
 6347      455F4C4F 
 6347      4E475F54 
 6347      45524D5F 
 6347      4B45595F 
 6348              	.LASF142:
 6349 0c57 4359424C 		.ascii	"CYBLE_GATT_FIND_BY_TYPE_VALUE_RSP\000"
 6349      455F4741 
 6349      54545F46 
 6349      494E445F 
 6349      42595F54 
 6350              	.LASF18:
ARM GAS  C:\Users\Petro\AppData\Local\Temp\cc4GPyUf.s 			page 137


 6351 0c79 4359424C 		.ascii	"CYBLE_EVT_STACK_ON\000"
 6351      455F4556 
 6351      545F5354 
 6351      41434B5F 
 6351      4F4E00
 6352              	.LASF92:
 6353 0c8c 4359424C 		.ascii	"CYBLE_ERROR_L2CAP_PSM_NOT_IN_RANGE\000"
 6353      455F4552 
 6353      524F525F 
 6353      4C324341 
 6353      505F5053 
 6354              	.LASF310:
 6355 0caf 4359424C 		.ascii	"CYBLE_DIS_HARDWARE_REV\000"
 6355      455F4449 
 6355      535F4841 
 6355      52445741 
 6355      52455F52 
 6356              	.LASF359:
 6357 0cc6 4359424C 		.ascii	"CYBLE_EVT_BCSS_INDICATION_DISABLED\000"
 6357      455F4556 
 6357      545F4243 
 6357      53535F49 
 6357      4E444943 
 6358              	.LASF578:
 6359 0ce9 63616C6C 		.ascii	"callbackFunc\000"
 6359      6261636B 
 6359      46756E63 
 6359      00
 6360              	.LASF440:
 6361 0cf6 4359424C 		.ascii	"CYBLE_EVT_ESSC_WRITE_DESCR_RESPONSE\000"
 6361      455F4556 
 6361      545F4553 
 6361      53435F57 
 6361      52495445 
 6362              	.LASF238:
 6363 0d1a 4359424C 		.ascii	"CYBLE_GAP_ADV_COMPL_32_UUID\000"
 6363      455F4741 
 6363      505F4144 
 6363      565F434F 
 6363      4D504C5F 
 6364              	.LASF281:
 6365 0d36 73657276 		.ascii	"serviceHandle\000"
 6365      69636548 
 6365      616E646C 
 6365      6500
 6366              	.LASF473:
 6367 0d44 4359424C 		.ascii	"CYBLE_EVT_HTSS_NOTIFICATION_ENABLED\000"
 6367      455F4556 
 6367      545F4854 
 6367      53535F4E 
 6367      4F544946 
 6368              	.LASF169:
 6369 0d68 4359424C 		.ascii	"CYBLE_GATT_ERR_INVALID_PDU\000"
 6369      455F4741 
 6369      54545F45 
 6369      52525F49 
 6369      4E56414C 
ARM GAS  C:\Users\Petro\AppData\Local\Temp\cc4GPyUf.s 			page 138


 6370              	.LASF100:
 6371 0d83 4359424C 		.ascii	"CYBLE_ERROR_CHAR_IS_NOT_DISCOVERED\000"
 6371      455F4552 
 6371      524F525F 
 6371      43484152 
 6371      5F49535F 
 6372              	.LASF128:
 6373 0da6 636F6E6E 		.ascii	"connIntvMin\000"
 6373      496E7476 
 6373      4D696E00 
 6374              	.LASF424:
 6375 0db2 4359424C 		.ascii	"CYBLE_EVT_CTSC_WRITE_DESCR_RESPONSE\000"
 6375      455F4556 
 6375      545F4354 
 6375      53435F57 
 6375      52495445 
 6376              	.LASF210:
 6377 0dd6 4359424C 		.ascii	"CYBLE_GATT_HANDLE_VALUE_PAIR_T\000"
 6377      455F4741 
 6377      54545F48 
 6377      414E444C 
 6377      455F5641 
 6378              	.LASF251:
 6379 0df5 4359424C 		.ascii	"CYBLE_GAP_ADV_SOLICIT_16UUID\000"
 6379      455F4741 
 6379      505F4144 
 6379      565F534F 
 6379      4C494349 
 6380              	.LASF229:
 6381 0e12 61747454 		.ascii	"attType\000"
 6381      79706500 
 6382              	.LASF270:
 6383 0e1a 4359424C 		.ascii	"CYBLE_CPS_POWER_VECTOR\000"
 6383      455F4350 
 6383      535F504F 
 6383      5745525F 
 6383      56454354 
 6384              	.LASF437:
 6385 0e31 4359424C 		.ascii	"CYBLE_EVT_ESSC_READ_CHAR_RESPONSE\000"
 6385      455F4556 
 6385      545F4553 
 6385      53435F52 
 6385      4541445F 
 6386              	.LASF460:
 6387 0e53 4359424C 		.ascii	"CYBLE_EVT_HIDSC_NOTIFICATION\000"
 6387      455F4556 
 6387      545F4849 
 6387      4453435F 
 6387      4E4F5449 
 6388              	.LASF106:
 6389 0e70 4359424C 		.ascii	"CYBLE_GAPP_NON_CONNECTABLE_UNDIRECTED_ADV\000"
 6389      455F4741 
 6389      50505F4E 
 6389      4F4E5F43 
 6389      4F4E4E45 
 6390              	.LASF62:
 6391 0e9a 4359424C 		.ascii	"CYBLE_EVT_L2CAP_COMMAND_REJ\000"
ARM GAS  C:\Users\Petro\AppData\Local\Temp\cc4GPyUf.s 			page 139


 6391      455F4556 
 6391      545F4C32 
 6391      4341505F 
 6391      434F4D4D 
 6392              	.LASF295:
 6393 0eb6 7370616E 		.ascii	"spanLength\000"
 6393      4C656E67 
 6393      746800
 6394              	.LASF148:
 6395 0ec1 4359424C 		.ascii	"CYBLE_GATT_READ_BLOB_RSP\000"
 6395      455F4741 
 6395      54545F52 
 6395      4541445F 
 6395      424C4F42 
 6396              	.LASF178:
 6397 0eda 4359424C 		.ascii	"CYBLE_GATT_ERR_INVALID_ATTRIBUTE_LEN\000"
 6397      455F4741 
 6397      54545F45 
 6397      52525F49 
 6397      4E56414C 
 6398              	.LASF609:
 6399 0eff 61647649 		.ascii	"advInterval\000"
 6399      6E746572 
 6399      76616C00 
 6400              	.LASF457:
 6401 0f0b 4359424C 		.ascii	"CYBLE_EVT_HIDSS_SUSPEND\000"
 6401      455F4556 
 6401      545F4849 
 6401      4453535F 
 6401      53555350 
 6402              	.LASF93:
 6403 0f23 4359424C 		.ascii	"CYBLE_ERROR_GATT_DB_INVALID_ATTR_HANDLE\000"
 6403      455F4552 
 6403      524F525F 
 6403      47415454 
 6403      5F44425F 
 6404              	.LASF0:
 6405 0f4b 7369676E 		.ascii	"signed char\000"
 6405      65642063 
 6405      68617200 
 6406              	.LASF363:
 6407 0f57 4359424C 		.ascii	"CYBLE_EVT_BCSC_READ_DESCR_RESPONSE\000"
 6407      455F4556 
 6407      545F4243 
 6407      53435F52 
 6407      4541445F 
 6408              	.LASF568:
 6409 0f7a 4359424C 		.ascii	"CYBLE_EVT_WSSC_WRITE_DESCR_RESPONSE\000"
 6409      455F4556 
 6409      545F5753 
 6409      53435F57 
 6409      52495445 
 6410              	.LASF356:
 6411 0f9e 4359424C 		.ascii	"CYBLE_EVT_BASC_READ_DESCR_RESPONSE\000"
 6411      455F4556 
 6411      545F4241 
 6411      53435F52 
ARM GAS  C:\Users\Petro\AppData\Local\Temp\cc4GPyUf.s 			page 140


 6411      4541445F 
 6412              	.LASF139:
 6413 0fc1 4359424C 		.ascii	"CYBLE_GATT_FIND_INFO_REQ\000"
 6413      455F4741 
 6413      54545F46 
 6413      494E445F 
 6413      494E464F 
 6414              	.LASF20:
 6415 0fda 4359424C 		.ascii	"CYBLE_EVT_HARDWARE_ERROR\000"
 6415      455F4556 
 6415      545F4841 
 6415      52445741 
 6415      52455F45 
 6416              	.LASF260:
 6417 0ff3 4359424C 		.ascii	"CYBLE_GAP_ADV_SMPL_PAIR_HASH_C256\000"
 6417      455F4741 
 6417      505F4144 
 6417      565F534D 
 6417      504C5F50 
 6418              	.LASF74:
 6419 1015 4359424C 		.ascii	"CYBLE_ERROR_OK\000"
 6419      455F4552 
 6419      524F525F 
 6419      4F4B00
 6420              	.LASF591:
 6421 1024 6C6F6343 		.ascii	"locCharValue\000"
 6421      68617256 
 6421      616C7565 
 6421      00
 6422              	.LASF198:
 6423 1031 4359424C 		.ascii	"CYBLE_GATT_ERR_CCCD_IMPROPERLY_CONFIGURED\000"
 6423      455F4741 
 6423      54545F45 
 6423      52525F43 
 6423      4343445F 
 6424              	.LASF41:
 6425 105b 4359424C 		.ascii	"CYBLE_EVT_GATTC_READ_BY_GROUP_TYPE_RSP\000"
 6425      455F4556 
 6425      545F4741 
 6425      5454435F 
 6425      52454144 
 6426              	.LASF570:
 6427 1082 4359424C 		.ascii	"CYBLE_STATE_STOPPED\000"
 6427      455F5354 
 6427      4154455F 
 6427      53544F50 
 6427      50454400 
 6428              	.LASF215:
 6429 1096 4359424C 		.ascii	"CYBLE_GATTS_ERR_PARAM_T\000"
 6429      455F4741 
 6429      5454535F 
 6429      4552525F 
 6429      50415241 
 6430              	.LASF1:
 6431 10ae 756E7369 		.ascii	"unsigned char\000"
 6431      676E6564 
 6431      20636861 
ARM GAS  C:\Users\Petro\AppData\Local\Temp\cc4GPyUf.s 			page 141


 6431      7200
 6432              	.LASF40:
 6433 10bc 4359424C 		.ascii	"CYBLE_EVT_GATTC_XCHNG_MTU_RSP\000"
 6433      455F4556 
 6433      545F4741 
 6433      5454435F 
 6433      5843484E 
 6434              	.LASF395:
 6435 10da 4359424C 		.ascii	"CYBLE_EVT_CPSS_INDICATION_CONFIRMED\000"
 6435      455F4556 
 6435      545F4350 
 6435      53535F49 
 6435      4E444943 
 6436              	.LASF161:
 6437 10fe 4359424C 		.ascii	"CYBLE_GATT_HANDLE_VALUE_IND\000"
 6437      455F4741 
 6437      54545F48 
 6437      414E444C 
 6437      455F5641 
 6438              	.LASF392:
 6439 111a 4359424C 		.ascii	"CYBLE_EVT_CPSS_NOTIFICATION_DISABLED\000"
 6439      455F4556 
 6439      545F4350 
 6439      53535F4E 
 6439      4F544946 
 6440              	.LASF583:
 6441 113f 4379426C 		.ascii	"CyBle_CpssSetCharacteristicValue\000"
 6441      655F4370 
 6441      73735365 
 6441      74436861 
 6441      72616374 
 6442              	.LASF250:
 6443 1160 4359424C 		.ascii	"CYBLE_GAP_ADV_SLAVE_CONN_INTRV_RANGE\000"
 6443      455F4741 
 6443      505F4144 
 6443      565F534C 
 6443      4156455F 
 6444              	.LASF517:
 6445 1185 4359424C 		.ascii	"CYBLE_EVT_RSCSC_INDICATION\000"
 6445      455F4556 
 6445      545F5253 
 6445      4353435F 
 6445      494E4449 
 6446              	.LASF567:
 6447 11a0 4359424C 		.ascii	"CYBLE_EVT_WSSC_READ_DESCR_RESPONSE\000"
 6447      455F4556 
 6447      545F5753 
 6447      53435F52 
 6447      4541445F 
 6448              	.LASF553:
 6449 11c3 4359424C 		.ascii	"CYBLE_EVT_WPTSS_INDICATION_DISABLED\000"
 6449      455F4556 
 6449      545F5750 
 6449      5453535F 
 6449      494E4449 
 6450              	.LASF69:
 6451 11e7 4359424C 		.ascii	"CYBLE_EVT_L2CAP_CBFC_TX_CREDIT_IND\000"
ARM GAS  C:\Users\Petro\AppData\Local\Temp\cc4GPyUf.s 			page 142


 6451      455F4556 
 6451      545F4C32 
 6451      4341505F 
 6451      43424643 
 6452              	.LASF109:
 6453 120a 61647649 		.ascii	"advIntvMin\000"
 6453      6E74764D 
 6453      696E00
 6454              	.LASF228:
 6455 1215 61747448 		.ascii	"attHandle\000"
 6455      616E646C 
 6455      6500
 6456              	.LASF382:
 6457 121f 4359424C 		.ascii	"CYBLE_EVT_CGMSS_NOTIFICATION_ENABLED\000"
 6457      455F4556 
 6457      545F4347 
 6457      4D53535F 
 6457      4E4F5449 
 6458              	.LASF323:
 6459 1244 4359424C 		.ascii	"CYBLE_EVT_GATTC_INDICATION\000"
 6459      455F4556 
 6459      545F4741 
 6459      5454435F 
 6459      494E4449 
 6460              	.LASF214:
 6461 125f 6572726F 		.ascii	"errorCode\000"
 6461      72436F64 
 6461      6500
 6462              	.LASF120:
 6463 1269 4359424C 		.ascii	"CYBLE_GAPP_DISC_DATA_T\000"
 6463      455F4741 
 6463      50505F44 
 6463      4953435F 
 6463      44415441 
 6464              	.LASF524:
 6465 1280 4359424C 		.ascii	"CYBLE_EVT_SCPSS_NOTIFICATION_ENABLED\000"
 6465      455F4556 
 6465      545F5343 
 6465      5053535F 
 6465      4E4F5449 
 6466              	.LASF66:
 6467 12a5 4359424C 		.ascii	"CYBLE_EVT_L2CAP_CBFC_DISCONN_CNF\000"
 6467      455F4556 
 6467      545F4C32 
 6467      4341505F 
 6467      43424643 
 6468              	.LASF44:
 6469 12c6 4359424C 		.ascii	"CYBLE_EVT_GATTC_FIND_BY_TYPE_VALUE_RSP\000"
 6469      455F4556 
 6469      545F4741 
 6469      5454435F 
 6469      46494E44 
 6470              	.LASF335:
 6471 12ed 4359424C 		.ascii	"CYBLE_EVT_ANCSS_NOTIFICATION_ENABLED\000"
 6471      455F4556 
 6471      545F414E 
 6471      4353535F 
ARM GAS  C:\Users\Petro\AppData\Local\Temp\cc4GPyUf.s 			page 143


 6471      4E4F5449 
 6472              	.LASF302:
 6473 1312 4359424C 		.ascii	"CYBLE_CSCS_SENSOR_LOCATION\000"
 6473      455F4353 
 6473      43535F53 
 6473      454E534F 
 6473      525F4C4F 
 6474              	.LASF529:
 6475 132d 4359424C 		.ascii	"CYBLE_EVT_SCPSC_WRITE_DESCR_RESPONSE\000"
 6475      455F4556 
 6475      545F5343 
 6475      5053435F 
 6475      57524954 
 6476              	.LASF15:
 6477 1352 63686172 		.ascii	"char\000"
 6477      00
 6478              	.LASF293:
 6479 1357 63686169 		.ascii	"chainLength\000"
 6479      6E4C656E 
 6479      67746800 
 6480              	.LASF222:
 6481 1363 6D617841 		.ascii	"maxAttrLength\000"
 6481      7474724C 
 6481      656E6774 
 6481      6800
 6482              	.LASF532:
 6483 1371 4359424C 		.ascii	"CYBLE_EVT_TPSC_NOTIFICATION\000"
 6483      455F4556 
 6483      545F5450 
 6483      53435F4E 
 6483      4F544946 
 6484              	.LASF154:
 6485 138d 4359424C 		.ascii	"CYBLE_GATT_WRITE_RSP\000"
 6485      455F4741 
 6485      54545F57 
 6485      52495445 
 6485      5F525350 
 6486              	.LASF47:
 6487 13a2 4359424C 		.ascii	"CYBLE_EVT_GATTC_READ_MULTI_RSP\000"
 6487      455F4556 
 6487      545F4741 
 6487      5454435F 
 6487      52454144 
 6488              	.LASF614:
 6489 13c1 6379426C 		.ascii	"cyBle_cpssFlag\000"
 6489      655F6370 
 6489      7373466C 
 6489      616700
 6490              	.LASF17:
 6491 13d0 4359424C 		.ascii	"CYBLE_EVT_HOST_INVALID\000"
 6491      455F4556 
 6491      545F484F 
 6491      53545F49 
 6491      4E56414C 
 6492              	.LASF189:
 6493 13e7 4359424C 		.ascii	"CYBLE_GATT_ERR_MISSING_CRC\000"
 6493      455F4741 
ARM GAS  C:\Users\Petro\AppData\Local\Temp\cc4GPyUf.s 			page 144


 6493      54545F45 
 6493      52525F4D 
 6493      49535349 
 6494              	.LASF179:
 6495 1402 4359424C 		.ascii	"CYBLE_GATT_ERR_UNLIKELY_ERROR\000"
 6495      455F4741 
 6495      54545F45 
 6495      52525F55 
 6495      4E4C494B 
 6496              	.LASF384:
 6497 1420 4359424C 		.ascii	"CYBLE_EVT_CGMSS_WRITE_CHAR\000"
 6497      455F4556 
 6497      545F4347 
 6497      4D53535F 
 6497      57524954 
 6498              	.LASF451:
 6499 143b 4359424C 		.ascii	"CYBLE_EVT_GLSC_READ_DESCR_RESPONSE\000"
 6499      455F4556 
 6499      545F474C 
 6499      53435F52 
 6499      4541445F 
 6500              	.LASF137:
 6501 145e 4359424C 		.ascii	"CYBLE_GATT_XCNHG_MTU_REQ\000"
 6501      455F4741 
 6501      54545F58 
 6501      434E4847 
 6501      5F4D5455 
 6502              	.LASF81:
 6503 1477 4359424C 		.ascii	"CYBLE_ERROR_NO_DEVICE_ENTITY\000"
 6503      455F4552 
 6503      524F525F 
 6503      4E4F5F44 
 6503      45564943 
 6504              	.LASF46:
 6505 1494 4359424C 		.ascii	"CYBLE_EVT_GATTC_READ_BLOB_RSP\000"
 6505      455F4556 
 6505      545F4741 
 6505      5454435F 
 6505      52454144 
 6506              	.LASF476:
 6507 14b2 4359424C 		.ascii	"CYBLE_EVT_HTSS_INDICATION_DISABLED\000"
 6507      455F4556 
 6507      545F4854 
 6507      53535F49 
 6507      4E444943 
 6508              	.LASF523:
 6509 14d5 4359424C 		.ascii	"CYBLE_EVT_RTUSC_READ_CHAR_RESPONSE\000"
 6509      455F4556 
 6509      545F5254 
 6509      5553435F 
 6509      52454144 
 6510              	.LASF616:
 6511 14f8 6379426C 		.ascii	"cyBle_eventHandlerFlag\000"
 6511      655F6576 
 6511      656E7448 
 6511      616E646C 
 6511      6572466C 
ARM GAS  C:\Users\Petro\AppData\Local\Temp\cc4GPyUf.s 			page 145


 6512              	.LASF53:
 6513 150f 4359424C 		.ascii	"CYBLE_EVT_GATTC_EXEC_WRITE_RSP\000"
 6513      455F4556 
 6513      545F4741 
 6513      5454435F 
 6513      45584543 
 6514              	.LASF183:
 6515 152e 4359424C 		.ascii	"CYBLE_GATT_ERR_HEART_RATE_CONTROL_POINT_NOT_SUPPORT"
 6515      455F4741 
 6515      54545F45 
 6515      52525F48 
 6515      45415254 
 6516 1561 454400   		.ascii	"ED\000"
 6517              	.LASF564:
 6518 1564 4359424C 		.ascii	"CYBLE_EVT_WSSS_INDICATION_CONFIRMED\000"
 6518      455F4556 
 6518      545F5753 
 6518      53535F49 
 6518      4E444943 
 6519              	.LASF176:
 6520 1588 4359424C 		.ascii	"CYBLE_GATT_ERR_ATTRIBUTE_NOT_LONG\000"
 6520      455F4741 
 6520      54545F45 
 6520      52525F41 
 6520      54545249 
 6521              	.LASF265:
 6522 15aa 4359424C 		.ascii	"CYBLE_GAP_ADV_3D_INFO_DATA\000"
 6522      455F4741 
 6522      505F4144 
 6522      565F3344 
 6522      5F494E46 
 6523              	.LASF273:
 6524 15c5 4359424C 		.ascii	"CYBLE_CPS_CHAR_INDEX_T\000"
 6524      455F4350 
 6524      535F4348 
 6524      41525F49 
 6524      4E444558 
 6525              	.LASF537:
 6526 15dc 4359424C 		.ascii	"CYBLE_EVT_UDSS_INDICATION_DISABLED\000"
 6526      455F4556 
 6526      545F5544 
 6526      53535F49 
 6526      4E444943 
 6527              	.LASF508:
 6528 15ff 4359424C 		.ascii	"CYBLE_EVT_PASSC_READ_DESCR_RESPONSE\000"
 6528      455F4556 
 6528      545F5041 
 6528      5353435F 
 6528      52454144 
 6529              	.LASF312:
 6530 1623 4359424C 		.ascii	"CYBLE_DIS_SOFTWARE_REV\000"
 6530      455F4449 
 6530      535F534F 
 6530      46545741 
 6530      52455F52 
 6531              	.LASF58:
 6532 163a 4359424C 		.ascii	"CYBLE_EVT_GATTC_STOP_CMD_COMPLETE\000"
ARM GAS  C:\Users\Petro\AppData\Local\Temp\cc4GPyUf.s 			page 146


 6532      455F4556 
 6532      545F4741 
 6532      5454435F 
 6532      53544F50 
 6533              	.LASF398:
 6534 165c 4359424C 		.ascii	"CYBLE_EVT_CPSS_CHAR_WRITE\000"
 6534      455F4556 
 6534      545F4350 
 6534      53535F43 
 6534      4841525F 
 6535              	.LASF465:
 6536 1676 4359424C 		.ascii	"CYBLE_EVT_HRSS_ENERGY_EXPENDED_RESET\000"
 6536      455F4556 
 6536      545F4852 
 6536      53535F45 
 6536      4E455247 
 6537              	.LASF197:
 6538 169b 4359424C 		.ascii	"CYBLE_GATT_ERR_ANCS_ACTION_FAILED\000"
 6538      455F4741 
 6538      54545F45 
 6538      52525F41 
 6538      4E43535F 
 6539              	.LASF308:
 6540 16bd 4359424C 		.ascii	"CYBLE_DIS_MODEL_NUMBER\000"
 6540      455F4449 
 6540      535F4D4F 
 6540      44454C5F 
 6540      4E554D42 
 6541              	.LASF428:
 6542 16d4 4359424C 		.ascii	"CYBLE_EVT_ESSS_NOTIFICATION_DISABLED\000"
 6542      455F4556 
 6542      545F4553 
 6542      53535F4E 
 6542      4F544946 
 6543              	.LASF233:
 6544 16f9 4359424C 		.ascii	"CYBLE_GATTS_DB_T\000"
 6544      455F4741 
 6544      5454535F 
 6544      44425F54 
 6544      00
 6545              	.LASF551:
 6546 170a 4359424C 		.ascii	"CYBLE_EVT_WPTSS_NOTIFICATION_DISABLED\000"
 6546      455F4556 
 6546      545F5750 
 6546      5453535F 
 6546      4E4F5449 
 6547              	.LASF368:
 6548 1730 4359424C 		.ascii	"CYBLE_EVT_BLSS_NOTIFICATION_ENABLED\000"
 6548      455F4556 
 6548      545F424C 
 6548      53535F4E 
 6548      4F544946 
 6549              	.LASF313:
 6550 1754 4359424C 		.ascii	"CYBLE_DIS_SYSTEM_ID\000"
 6550      455F4449 
 6550      535F5359 
 6550      5354454D 
ARM GAS  C:\Users\Petro\AppData\Local\Temp\cc4GPyUf.s 			page 147


 6550      5F494400 
 6551              	.LASF136:
 6552 1768 4359424C 		.ascii	"CYBLE_GATT_ERROR_RSP\000"
 6552      455F4741 
 6552      54545F45 
 6552      52524F52 
 6552      5F525350 
 6553              	.LASF75:
 6554 177d 4359424C 		.ascii	"CYBLE_ERROR_INVALID_PARAMETER\000"
 6554      455F4552 
 6554      524F525F 
 6554      494E5641 
 6554      4C49445F 
 6555              	.LASF436:
 6556 179b 4359424C 		.ascii	"CYBLE_EVT_ESSC_INDICATION\000"
 6556      455F4556 
 6556      545F4553 
 6556      53435F49 
 6556      4E444943 
 6557              	.LASF342:
 6558 17b5 4359424C 		.ascii	"CYBLE_EVT_ANCSC_WRITE_DESCR_RESPONSE\000"
 6558      455F4556 
 6558      545F414E 
 6558      4353435F 
 6558      57524954 
 6559              	.LASF519:
 6560 17da 4359424C 		.ascii	"CYBLE_EVT_RSCSC_WRITE_CHAR_RESPONSE\000"
 6560      455F4556 
 6560      545F5253 
 6560      4353435F 
 6560      57524954 
 6561              	.LASF535:
 6562 17fe 4359424C 		.ascii	"CYBLE_EVT_TPSC_WRITE_DESCR_RESPONSE\000"
 6562      455F4556 
 6562      545F5450 
 6562      53435F57 
 6562      52495445 
 6563              	.LASF407:
 6564 1822 4359424C 		.ascii	"CYBLE_EVT_CSCSS_NOTIFICATION_DISABLED\000"
 6564      455F4556 
 6564      545F4353 
 6564      4353535F 
 6564      4E4F5449 
 6565              	.LASF418:
 6566 1848 4359424C 		.ascii	"CYBLE_EVT_CTSS_NOTIFICATION_ENABLED\000"
 6566      455F4556 
 6566      545F4354 
 6566      53535F4E 
 6566      4F544946 
 6567              	.LASF513:
 6568 186c 4359424C 		.ascii	"CYBLE_EVT_RSCSS_INDICATION_DISABLED\000"
 6568      455F4556 
 6568      545F5253 
 6568      4353535F 
 6568      494E4449 
 6569              	.LASF107:
 6570 1890 4359424C 		.ascii	"CYBLE_GAPP_CONNECTABLE_LOW_DC_DIRECTED_ADV\000"
ARM GAS  C:\Users\Petro\AppData\Local\Temp\cc4GPyUf.s 			page 148


 6570      455F4741 
 6570      50505F43 
 6570      4F4E4E45 
 6570      43544142 
 6571              	.LASF555:
 6572 18bb 4359424C 		.ascii	"CYBLE_EVT_WPTSS_WRITE_CHAR\000"
 6572      455F4556 
 6572      545F5750 
 6572      5453535F 
 6572      57524954 
 6573              	.LASF486:
 6574 18d6 4359424C 		.ascii	"CYBLE_EVT_LLSS_WRITE_CHAR_REQ\000"
 6574      455F4556 
 6574      545F4C4C 
 6574      53535F57 
 6574      52495445 
 6575              	.LASF77:
 6576 18f4 4359424C 		.ascii	"CYBLE_ERROR_MEMORY_ALLOCATION_FAILED\000"
 6576      455F4552 
 6576      524F525F 
 6576      4D454D4F 
 6576      52595F41 
 6577              	.LASF471:
 6578 1919 4359424C 		.ascii	"CYBLE_EVT_HRSC_READ_DESCR_RESPONSE\000"
 6578      455F4556 
 6578      545F4852 
 6578      53435F52 
 6578      4541445F 
 6579              	.LASF241:
 6580 193c 4359424C 		.ascii	"CYBLE_GAP_ADV_SHORT_NAME\000"
 6580      455F4741 
 6580      505F4144 
 6580      565F5348 
 6580      4F52545F 
 6581              	.LASF601:
 6582 1955 4379426C 		.ascii	"CyBle_CpssConfirmationEventHandler\000"
 6582      655F4370 
 6582      7373436F 
 6582      6E666972 
 6582      6D617469 
 6583              	.LASF406:
 6584 1978 4359424C 		.ascii	"CYBLE_EVT_CSCSS_NOTIFICATION_ENABLED\000"
 6584      455F4556 
 6584      545F4353 
 6584      4353535F 
 6584      4E4F5449 
 6585              	.LASF212:
 6586 199d 4359424C 		.ascii	"CYBLE_GATTS_HANDLE_VALUE_IND_T\000"
 6586      455F4741 
 6586      5454535F 
 6586      48414E44 
 6586      4C455F56 
 6587              	.LASF580:
 6588 19bc 61747472 		.ascii	"attrValue\000"
 6588      56616C75 
 6588      6500
 6589              	.LASF370:
ARM GAS  C:\Users\Petro\AppData\Local\Temp\cc4GPyUf.s 			page 149


 6590 19c6 4359424C 		.ascii	"CYBLE_EVT_BLSC_INDICATION\000"
 6590      455F4556 
 6590      545F424C 
 6590      53435F49 
 6590      4E444943 
 6591              	.LASF262:
 6592 19e0 4359424C 		.ascii	"CYBLE_GAP_ADV_SOLICIT_32UUID\000"
 6592      455F4741 
 6592      505F4144 
 6592      565F534F 
 6592      4C494349 
 6593              	.LASF163:
 6594 19fd 4359424C 		.ascii	"CYBLE_GATT_SIGNED_WRITE_CMD\000"
 6594      455F4741 
 6594      54545F53 
 6594      49474E45 
 6594      445F5752 
 6595              	.LASF274:
 6596 1a19 4359424C 		.ascii	"CYBLE_CPS_CCCD\000"
 6596      455F4350 
 6596      535F4343 
 6596      434400
 6597              	.LASF459:
 6598 1a28 4359424C 		.ascii	"CYBLE_EVT_HIDSS_REPORT_CHAR_WRITE\000"
 6598      455F4556 
 6598      545F4849 
 6598      4453535F 
 6598      5245504F 
 6599              	.LASF358:
 6600 1a4a 4359424C 		.ascii	"CYBLE_EVT_BCSS_INDICATION_ENABLED\000"
 6600      455F4556 
 6600      545F4243 
 6600      53535F49 
 6600      4E444943 
 6601              	.LASF190:
 6602 1a6c 4359424C 		.ascii	"CYBLE_GATTS_ERR_CCCD_IMPROPERLY_CONFIGURED\000"
 6602      455F4741 
 6602      5454535F 
 6602      4552525F 
 6602      43434344 
 6603              	.LASF598:
 6604 1a97 4379426C 		.ascii	"CyBle_CpssSendIndication\000"
 6604      655F4370 
 6604      73735365 
 6604      6E64496E 
 6604      64696361 
 6605              	.LASF559:
 6606 1ab0 4359424C 		.ascii	"CYBLE_EVT_WPTSC_READ_CHAR_RESPONSE\000"
 6606      455F4556 
 6606      545F5750 
 6606      5453435F 
 6606      52454144 
 6607              	.LASF159:
 6608 1ad3 4359424C 		.ascii	"CYBLE_GATT_EXECUTE_WRITE_RSP\000"
 6608      455F4741 
 6608      54545F45 
 6608      58454355 
ARM GAS  C:\Users\Petro\AppData\Local\Temp\cc4GPyUf.s 			page 150


 6608      54455F57 
 6609              	.LASF97:
 6610 1af0 4359424C 		.ascii	"CYBLE_ERROR_MAX\000"
 6610      455F4552 
 6610      524F525F 
 6610      4D415800 
 6611              	.LASF498:
 6612 1b00 4359424C 		.ascii	"CYBLE_EVT_LNSC_WRITE_CHAR_RESPONSE\000"
 6612      455F4556 
 6612      545F4C4E 
 6612      53435F57 
 6612      52495445 
 6613              	.LASF61:
 6614 1b23 4359424C 		.ascii	"CYBLE_EVT_L2CAP_CONN_PARAM_UPDATE_RSP\000"
 6614      455F4556 
 6614      545F4C32 
 6614      4341505F 
 6614      434F4E4E 
 6615              	.LASF349:
 6616 1b49 4359424C 		.ascii	"CYBLE_EVT_ANSC_WRITE_CHAR_RESPONSE\000"
 6616      455F4556 
 6616      545F414E 
 6616      53435F57 
 6616      52495445 
 6617              	.LASF540:
 6618 1b6c 4359424C 		.ascii	"CYBLE_EVT_UDSS_NOTIFICATION_DISABLED\000"
 6618      455F4556 
 6618      545F5544 
 6618      53535F4E 
 6618      4F544946 
 6619              	.LASF417:
 6620 1b91 4359424C 		.ascii	"CYBLE_EVT_CSCSC_WRITE_DESCR_RESPONSE\000"
 6620      455F4556 
 6620      545F4353 
 6620      4353435F 
 6620      57524954 
 6621              	.LASF542:
 6622 1bb6 4359424C 		.ascii	"CYBLE_EVT_UDSS_WRITE_CHAR\000"
 6622      455F4556 
 6622      545F5544 
 6622      53535F57 
 6622      52495445 
 6623              	.LASF541:
 6624 1bd0 4359424C 		.ascii	"CYBLE_EVT_UDSS_READ_CHAR\000"
 6624      455F4556 
 6624      545F5544 
 6624      53535F52 
 6624      4541445F 
 6625              	.LASF117:
 6626 1be9 4359424C 		.ascii	"CYBLE_GAPP_DISC_PARAM_T\000"
 6626      455F4741 
 6626      50505F44 
 6626      4953435F 
 6626      50415241 
 6627              	.LASF466:
 6628 1c01 4359424C 		.ascii	"CYBLE_EVT_HRSS_NOTIFICATION_ENABLED\000"
 6628      455F4556 
ARM GAS  C:\Users\Petro\AppData\Local\Temp\cc4GPyUf.s 			page 151


 6628      545F4852 
 6628      53535F4E 
 6628      4F544946 
 6629              	.LASF184:
 6630 1c25 4359424C 		.ascii	"CYBLE_GATT_ERR_USER_DATA_ACCESS_NOT_PERMITTED\000"
 6630      455F4741 
 6630      54545F45 
 6630      52525F55 
 6630      5345525F 
 6631              	.LASF577:
 6632 1c53 4379426C 		.ascii	"CyBle_CpsInit\000"
 6632      655F4370 
 6632      73496E69 
 6632      7400
 6633              	.LASF27:
 6634 1c61 4359424C 		.ascii	"CYBLE_EVT_GAP_AUTH_COMPLETE\000"
 6634      455F4556 
 6634      545F4741 
 6634      505F4155 
 6634      54485F43 
 6635              	.LASF116:
 6636 1c7d 61647646 		.ascii	"advFilterPolicy\000"
 6636      696C7465 
 6636      72506F6C 
 6636      69637900 
 6637              	.LASF439:
 6638 1c8d 4359424C 		.ascii	"CYBLE_EVT_ESSC_READ_DESCR_RESPONSE\000"
 6638      455F4556 
 6638      545F4553 
 6638      53435F52 
 6638      4541445F 
 6639              	.LASF28:
 6640 1cb0 4359424C 		.ascii	"CYBLE_EVT_GAP_AUTH_FAILED\000"
 6640      455F4556 
 6640      545F4741 
 6640      505F4155 
 6640      54485F46 
 6641              	.LASF458:
 6642 1cca 4359424C 		.ascii	"CYBLE_EVT_HIDSS_EXIT_SUSPEND\000"
 6642      455F4556 
 6642      545F4849 
 6642      4453535F 
 6642      45584954 
 6643              	.LASF296:
 6644 1ce7 66616374 		.ascii	"factoryCalibrationDate\000"
 6644      6F727943 
 6644      616C6962 
 6644      72617469 
 6644      6F6E4461 
 6645              	.LASF132:
 6646 1cfe 4359424C 		.ascii	"CYBLE_GAP_CONN_UPDATE_PARAM_T\000"
 6646      455F4741 
 6646      505F434F 
 6646      4E4E5F55 
 6646      50444154 
 6647              	.LASF111:
 6648 1d1c 61647654 		.ascii	"advType\000"
ARM GAS  C:\Users\Petro\AppData\Local\Temp\cc4GPyUf.s 			page 152


 6648      79706500 
 6649              	.LASF152:
 6650 1d24 4359424C 		.ascii	"CYBLE_GATT_READ_BY_GROUP_RSP\000"
 6650      455F4741 
 6650      54545F52 
 6650      4541445F 
 6650      42595F47 
 6651              	.LASF78:
 6652 1d41 4359424C 		.ascii	"CYBLE_ERROR_INSUFFICIENT_RESOURCES\000"
 6652      455F4552 
 6652      524F525F 
 6652      494E5355 
 6652      46464943 
 6653              	.LASF511:
 6654 1d64 4359424C 		.ascii	"CYBLE_EVT_RSCSS_NOTIFICATION_DISABLED\000"
 6654      455F4556 
 6654      545F5253 
 6654      4353535F 
 6654      4E4F5449 
 6655              	.LASF188:
 6656 1d8a 4359424C 		.ascii	"CYBLE_GATT_ERR_OP_CODE_NOT_SUPPORTED\000"
 6656      455F4741 
 6656      54545F45 
 6656      52525F4F 
 6656      505F434F 
 6657              	.LASF462:
 6658 1daf 4359424C 		.ascii	"CYBLE_EVT_HIDSC_WRITE_CHAR_RESPONSE\000"
 6658      455F4556 
 6658      545F4849 
 6658      4453435F 
 6658      57524954 
 6659              	.LASF5:
 6660 1dd3 6C6F6E67 		.ascii	"long unsigned int\000"
 6660      20756E73 
 6660      69676E65 
 6660      6420696E 
 6660      7400
 6661              	.LASF145:
 6662 1de5 4359424C 		.ascii	"CYBLE_GATT_READ_REQ\000"
 6662      455F4741 
 6662      54545F52 
 6662      4541445F 
 6662      52455100 
 6663              	.LASF621:
 6664 1df9 6379426C 		.ascii	"cyBle_cpss\000"
 6664      655F6370 
 6664      737300
 6665              	.LASF485:
 6666 1e04 4359424C 		.ascii	"CYBLE_EVT_IASS_WRITE_CHAR_CMD\000"
 6666      455F4556 
 6666      545F4941 
 6666      53535F57 
 6666      52495445 
 6667              	.LASF294:
 6668 1e22 63686169 		.ascii	"chainWeight\000"
 6668      6E576569 
 6668      67687400 
ARM GAS  C:\Users\Petro\AppData\Local\Temp\cc4GPyUf.s 			page 153


 6669              	.LASF582:
 6670 1e2e 6C6F6348 		.ascii	"locHandleValuePair\000"
 6670      616E646C 
 6670      6556616C 
 6670      75655061 
 6670      697200
 6671              	.LASF133:
 6672 1e41 73746174 		.ascii	"status\000"
 6672      757300
 6673              	.LASF505:
 6674 1e48 4359424C 		.ascii	"CYBLE_EVT_PASSC_NOTIFICATION\000"
 6674      455F4556 
 6674      545F5041 
 6674      5353435F 
 6674      4E4F5449 
 6675              	.LASF588:
 6676 1e65 4379426C 		.ascii	"CyBle_CpssWriteEventHandler\000"
 6676      655F4370 
 6676      73735772 
 6676      69746545 
 6676      76656E74 
 6677              	.LASF552:
 6678 1e81 4359424C 		.ascii	"CYBLE_EVT_WPTSS_INDICATION_ENABLED\000"
 6678      455F4556 
 6678      545F5750 
 6678      5453535F 
 6678      494E4449 
 6679              	.LASF297:
 6680 1ea4 73616D70 		.ascii	"samplingRate\000"
 6680      6C696E67 
 6680      52617465 
 6680      00
 6681              	.LASF160:
 6682 1eb1 4359424C 		.ascii	"CYBLE_GATT_HANDLE_VALUE_NTF\000"
 6682      455F4741 
 6682      54545F48 
 6682      414E444C 
 6682      455F5641 
 6683              	.LASF235:
 6684 1ecd 4359424C 		.ascii	"CYBLE_GAP_ADV_INCOMPL_16UUID\000"
 6684      455F4741 
 6684      505F4144 
 6684      565F494E 
 6684      434F4D50 
 6685              	.LASF348:
 6686 1eea 4359424C 		.ascii	"CYBLE_EVT_ANSC_READ_CHAR_RESPONSE\000"
 6686      455F4556 
 6686      545F414E 
 6686      53435F52 
 6686      4541445F 
 6687              	.LASF499:
 6688 1f0c 4359424C 		.ascii	"CYBLE_EVT_LNSC_READ_DESCR_RESPONSE\000"
 6688      455F4556 
 6688      545F4C4E 
 6688      53435F52 
 6688      4541445F 
 6689              	.LASF88:
ARM GAS  C:\Users\Petro\AppData\Local\Temp\cc4GPyUf.s 			page 154


 6690 1f2f 4359424C 		.ascii	"CYBLE_ERROR_L2CAP_PSM_ALREADY_REGISTERED\000"
 6690      455F4552 
 6690      524F525F 
 6690      4C324341 
 6690      505F5053 
 6691              	.LASF271:
 6692 1f58 4359424C 		.ascii	"CYBLE_CPS_POWER_CP\000"
 6692      455F4350 
 6692      535F504F 
 6692      5745525F 
 6692      435000
 6693              	.LASF533:
 6694 1f6b 4359424C 		.ascii	"CYBLE_EVT_TPSC_READ_CHAR_RESPONSE\000"
 6694      455F4556 
 6694      545F5450 
 6694      53435F52 
 6694      4541445F 
 6695              	.LASF478:
 6696 1f8d 4359424C 		.ascii	"CYBLE_EVT_HTSS_CHAR_WRITE\000"
 6696      455F4556 
 6696      545F4854 
 6696      53535F43 
 6696      4841525F 
 6697              	.LASF275:
 6698 1fa7 4359424C 		.ascii	"CYBLE_CPS_SCCD\000"
 6698      455F4350 
 6698      535F5343 
 6698      434400
 6699              	.LASF226:
 6700 1fb6 61747456 		.ascii	"attValueUuid\000"
 6700      616C7565 
 6700      55756964 
 6700      00
 6701              	.LASF194:
 6702 1fc3 4359424C 		.ascii	"CYBLE_GATT_ERR_ANCS_UNKNOWN_COMMAND\000"
 6702      455F4741 
 6702      54545F45 
 6702      52525F41 
 6702      4E43535F 
 6703              	.LASF352:
 6704 1fe7 4359424C 		.ascii	"CYBLE_EVT_BASS_NOTIFICATION_ENABLED\000"
 6704      455F4556 
 6704      545F4241 
 6704      53535F4E 
 6704      4F544946 
 6705              	.LASF426:
 6706 200b 4359424C 		.ascii	"CYBLE_EVT_DISC_READ_CHAR_RESPONSE\000"
 6706      455F4556 
 6706      545F4449 
 6706      53435F52 
 6706      4541445F 
 6707              	.LASF425:
 6708 202d 4359424C 		.ascii	"CYBLE_EVT_CTSC_WRITE_CHAR_RESPONSE\000"
 6708      455F4556 
 6708      545F4354 
 6708      53435F57 
 6708      52495445 
ARM GAS  C:\Users\Petro\AppData\Local\Temp\cc4GPyUf.s 			page 155


 6709              	.LASF504:
 6710 2050 4359424C 		.ascii	"CYBLE_EVT_PASSS_WRITE_CHAR\000"
 6710      455F4556 
 6710      545F5041 
 6710      5353535F 
 6710      57524954 
 6711              	.LASF259:
 6712 206b 4359424C 		.ascii	"CYBLE_GAP_ADV_LE_ROLE\000"
 6712      455F4741 
 6712      505F4144 
 6712      565F4C45 
 6712      5F524F4C 
 6713              	.LASF402:
 6714 2081 4359424C 		.ascii	"CYBLE_EVT_CPSC_WRITE_CHAR_RESPONSE\000"
 6714      455F4556 
 6714      545F4350 
 6714      53435F57 
 6714      52495445 
 6715              	.LASF309:
 6716 20a4 4359424C 		.ascii	"CYBLE_DIS_SERIAL_NUMBER\000"
 6716      455F4449 
 6716      535F5345 
 6716      5249414C 
 6716      5F4E554D 
 6717              	.LASF252:
 6718 20bc 4359424C 		.ascii	"CYBLE_GAP_ADV_SOLICIT_128UUID\000"
 6718      455F4741 
 6718      505F4144 
 6718      565F534F 
 6718      4C494349 
 6719              	.LASF33:
 6720 20da 4359424C 		.ascii	"CYBLE_EVT_GAP_CONNECTION_UPDATE_COMPLETE\000"
 6720      455F4556 
 6720      545F4741 
 6720      505F434F 
 6720      4E4E4543 
 6721              	.LASF387:
 6722 2103 4359424C 		.ascii	"CYBLE_EVT_CGMSC_READ_CHAR_RESPONSE\000"
 6722      455F4556 
 6722      545F4347 
 6722      4D53435F 
 6722      52454144 
 6723              	.LASF300:
 6724 2126 4359424C 		.ascii	"CYBLE_CSCS_CSC_MEASUREMENT\000"
 6724      455F4353 
 6724      43535F43 
 6724      53435F4D 
 6724      45415355 
 6725              	.LASF571:
 6726 2141 4359424C 		.ascii	"CYBLE_STATE_INITIALIZING\000"
 6726      455F5354 
 6726      4154455F 
 6726      494E4954 
 6726      49414C49 
 6727              	.LASF415:
 6728 215a 4359424C 		.ascii	"CYBLE_EVT_CSCSC_WRITE_CHAR_RESPONSE\000"
 6728      455F4556 
ARM GAS  C:\Users\Petro\AppData\Local\Temp\cc4GPyUf.s 			page 156


 6728      545F4353 
 6728      4353435F 
 6728      57524954 
 6729              	.LASF65:
 6730 217e 4359424C 		.ascii	"CYBLE_EVT_L2CAP_CBFC_DISCONN_IND\000"
 6730      455F4556 
 6730      545F4C32 
 6730      4341505F 
 6730      43424643 
 6731              	.LASF411:
 6732 219f 4359424C 		.ascii	"CYBLE_EVT_CSCSS_CHAR_WRITE\000"
 6732      455F4556 
 6732      545F4353 
 6732      4353535F 
 6732      43484152 
 6733              	.LASF245:
 6734 21ba 4359424C 		.ascii	"CYBLE_GAP_ADV_SMPL_PAIR_HASH_C\000"
 6734      455F4741 
 6734      505F4144 
 6734      565F534D 
 6734      504C5F50 
 6735              	.LASF518:
 6736 21d9 4359424C 		.ascii	"CYBLE_EVT_RSCSC_READ_CHAR_RESPONSE\000"
 6736      455F4556 
 6736      545F5253 
 6736      4353435F 
 6736      52454144 
 6737              	.LASF25:
 6738 21fc 4359424C 		.ascii	"CYBLE_EVT_GAP_PASSKEY_ENTRY_REQUEST\000"
 6738      455F4556 
 6738      545F4741 
 6738      505F5041 
 6738      53534B45 
 6739              	.LASF261:
 6740 2220 4359424C 		.ascii	"CYBLE_GAP_ADV_SMPL_PAIR_RANDOM_R256\000"
 6740      455F4741 
 6740      505F4144 
 6740      565F534D 
 6740      504C5F50 
 6741              	.LASF493:
 6742 2244 4359424C 		.ascii	"CYBLE_EVT_LNSS_NOTIFICATION_DISABLED\000"
 6742      455F4556 
 6742      545F4C4E 
 6742      53535F4E 
 6742      4F544946 
 6743              	.LASF396:
 6744 2269 4359424C 		.ascii	"CYBLE_EVT_CPSS_BROADCAST_ENABLED\000"
 6744      455F4556 
 6744      545F4350 
 6744      53535F42 
 6744      524F4144 
 6745              	.LASF248:
 6746 228a 4359424C 		.ascii	"CYBLE_GAP_ADV_SCRT_MNGR_TK_VAL\000"
 6746      455F4741 
 6746      505F4144 
 6746      565F5343 
 6746      52545F4D 
ARM GAS  C:\Users\Petro\AppData\Local\Temp\cc4GPyUf.s 			page 157


 6747              	.LASF627:
 6748 22a9 6379426C 		.ascii	"cyBle_cpssBroadcastData\000"
 6748      655F6370 
 6748      73734272 
 6748      6F616463 
 6748      61737444 
 6749              	.LASF449:
 6750 22c1 4359424C 		.ascii	"CYBLE_EVT_GLSC_READ_CHAR_RESPONSE\000"
 6750      455F4556 
 6750      545F474C 
 6750      53435F52 
 6750      4541445F 
 6751              	.LASF303:
 6752 22e3 4359424C 		.ascii	"CYBLE_CSCS_SC_CONTROL_POINT\000"
 6752      455F4353 
 6752      43535F53 
 6752      435F434F 
 6752      4E54524F 
 6753              	.LASF479:
 6754 22ff 4359424C 		.ascii	"CYBLE_EVT_HTSC_NOTIFICATION\000"
 6754      455F4556 
 6754      545F4854 
 6754      53435F4E 
 6754      4F544946 
 6755              	.LASF6:
 6756 231b 6C6F6E67 		.ascii	"long long int\000"
 6756      206C6F6E 
 6756      6720696E 
 6756      7400
 6757              	.LASF292:
 6758 2329 6372616E 		.ascii	"crankLength\000"
 6758      6B4C656E 
 6758      67746800 
 6759              	.LASF602:
 6760 2335 4379426C 		.ascii	"CyBle_CpssConnParamUpdateRspEventHandler\000"
 6760      655F4370 
 6760      7373436F 
 6760      6E6E5061 
 6760      72616D55 
 6761              	.LASF596:
 6762 235e 4379426C 		.ascii	"CyBle_CpssSendNotification\000"
 6762      655F4370 
 6762      73735365 
 6762      6E644E6F 
 6762      74696669 
 6763              	.LASF237:
 6764 2379 4359424C 		.ascii	"CYBLE_GAP_ADV_INCOMPL_32_UUID\000"
 6764      455F4741 
 6764      505F4144 
 6764      565F494E 
 6764      434F4D50 
 6765              	.LASF305:
 6766 2397 4359424C 		.ascii	"CYBLE_CSCS_CCCD\000"
 6766      455F4353 
 6766      43535F43 
 6766      43434400 
 6767              	.LASF315:
ARM GAS  C:\Users\Petro\AppData\Local\Temp\cc4GPyUf.s 			page 158


 6768 23a7 4359424C 		.ascii	"CYBLE_DIS_PNP_ID\000"
 6768      455F4449 
 6768      535F504E 
 6768      505F4944 
 6768      00
 6769              	.LASF329:
 6770 23b8 4359424C 		.ascii	"CYBLE_EVT_GATTC_CHAR_DUPLICATION\000"
 6770      455F4556 
 6770      545F4741 
 6770      5454435F 
 6770      43484152 
 6771              	.LASF444:
 6772 23d9 4359424C 		.ascii	"CYBLE_EVT_GLSS_NOTIFICATION_ENABLED\000"
 6772      455F4556 
 6772      545F474C 
 6772      53535F4E 
 6772      4F544946 
 6773              	.LASF617:
 6774 23fd 6379426C 		.ascii	"cyBle_discoveryParam\000"
 6774      655F6469 
 6774      73636F76 
 6774      65727950 
 6774      6172616D 
 6775              	.LASF608:
 6776 2412 4379426C 		.ascii	"CyBle_CpssStartBroadcast\000"
 6776      655F4370 
 6776      73735374 
 6776      61727442 
 6776      726F6164 
 6777              	.LASF125:
 6778 242b 61647650 		.ascii	"advParam\000"
 6778      6172616D 
 6778      00
 6779              	.LASF89:
 6780 2434 4359424C 		.ascii	"CYBLE_ERROR_L2CAP_PSM_NOT_REGISTERED\000"
 6780      455F4552 
 6780      524F525F 
 6780      4C324341 
 6780      505F5053 
 6781              	.LASF79:
 6782 2459 4359424C 		.ascii	"CYBLE_ERROR_OOB_NOT_AVAILABLE\000"
 6782      455F4552 
 6782      524F525F 
 6782      4F4F425F 
 6782      4E4F545F 
 6783              	.LASF379:
 6784 2477 4359424C 		.ascii	"CYBLE_EVT_CGMSS_INDICATION_ENABLED\000"
 6784      455F4556 
 6784      545F4347 
 6784      4D53535F 
 6784      494E4449 
 6785              	.LASF14:
 6786 249a 646F7562 		.ascii	"double\000"
 6786      6C6500
 6787              	.LASF94:
 6788 24a1 4359424C 		.ascii	"CYBLE_ERROR_DEVICE_ALREADY_EXISTS\000"
 6788      455F4552 
ARM GAS  C:\Users\Petro\AppData\Local\Temp\cc4GPyUf.s 			page 159


 6788      524F525F 
 6788      44455649 
 6788      43455F41 
 6789              	.LASF430:
 6790 24c3 4359424C 		.ascii	"CYBLE_EVT_ESSS_INDICATION_DISABLED\000"
 6790      455F4556 
 6790      545F4553 
 6790      53535F49 
 6790      4E444943 
 6791              	.LASF576:
 6792 24e6 4379426C 		.ascii	"CyBle_CpssInit\000"
 6792      655F4370 
 6792      7373496E 
 6792      697400
 6793              	.LASF71:
 6794 24f5 4359424C 		.ascii	"CYBLE_EVT_PENDING_FLASH_WRITE\000"
 6794      455F4556 
 6794      545F5045 
 6794      4E44494E 
 6794      475F464C 
 6795              	.LASF177:
 6796 2513 4359424C 		.ascii	"CYBLE_GATT_ERR_INSUFFICIENT_ENC_KEY_SIZE\000"
 6796      455F4741 
 6796      54545F45 
 6796      52525F49 
 6796      4E535546 
 6797              	.LASF550:
 6798 253c 4359424C 		.ascii	"CYBLE_EVT_WPTSS_NOTIFICATION_ENABLED\000"
 6798      455F4556 
 6798      545F5750 
 6798      5453535F 
 6798      4E4F5449 
 6799              	.LASF199:
 6800 2561 4359424C 		.ascii	"CYBLE_GATT_ERR_PROCEDURE_ALREADY_IN_PROGRESS\000"
 6800      455F4741 
 6800      54545F45 
 6800      52525F50 
 6800      524F4345 
 6801              	.LASF500:
 6802 258e 4359424C 		.ascii	"CYBLE_EVT_LNSC_WRITE_DESCR_RESPONSE\000"
 6802      455F4556 
 6802      545F4C4E 
 6802      53435F57 
 6802      52495445 
 6803              	.LASF113:
 6804 25b2 64697265 		.ascii	"directAddrType\000"
 6804      63744164 
 6804      64725479 
 6804      706500
 6805              	.LASF487:
 6806 25c1 4359424C 		.ascii	"CYBLE_EVT_LLSC_READ_CHAR_RESPONSE\000"
 6806      455F4556 
 6806      545F4C4C 
 6806      53435F52 
 6806      4541445F 
 6807              	.LASF410:
 6808 25e3 4359424C 		.ascii	"CYBLE_EVT_CSCSS_INDICATION_CONFIRMATION\000"
ARM GAS  C:\Users\Petro\AppData\Local\Temp\cc4GPyUf.s 			page 160


 6808      455F4556 
 6808      545F4353 
 6808      4353535F 
 6808      494E4449 
 6809              	.LASF91:
 6810 260b 4359424C 		.ascii	"CYBLE_ERROR_L2CAP_CHANNEL_NOT_FOUND\000"
 6810      455F4552 
 6810      524F525F 
 6810      4C324341 
 6810      505F4348 
 6811              	.LASF620:
 6812 262f 6379426C 		.ascii	"cyBle_gattDB\000"
 6812      655F6761 
 6812      74744442 
 6812      00
 6813              	.LASF82:
 6814 263c 4359424C 		.ascii	"CYBLE_ERROR_REPEATED_ATTEMPTS\000"
 6814      455F4552 
 6814      524F525F 
 6814      52455045 
 6814      41544544 
 6815              	.LASF434:
 6816 265a 4359424C 		.ascii	"CYBLE_EVT_ESSS_DESCR_WRITE\000"
 6816      455F4556 
 6816      545F4553 
 6816      53535F44 
 6816      45534352 
 6817              	.LASF429:
 6818 2675 4359424C 		.ascii	"CYBLE_EVT_ESSS_INDICATION_ENABLED\000"
 6818      455F4556 
 6818      545F4553 
 6818      53535F49 
 6818      4E444943 
 6819              	.LASF433:
 6820 2697 4359424C 		.ascii	"CYBLE_EVT_ESSS_EXEC_WRITE_REQ\000"
 6820      455F4556 
 6820      545F4553 
 6820      53535F45 
 6820      5845435F 
 6821              	.LASF606:
 6822 26b5 6C6F6356 		.ascii	"locVal\000"
 6822      616C00
 6823              	.LASF13:
 6824 26bc 666C6F61 		.ascii	"float\000"
 6824      7400
 6825              	.LASF527:
 6826 26c2 4359424C 		.ascii	"CYBLE_EVT_SCPSC_NOTIFICATION\000"
 6826      455F4556 
 6826      545F5343 
 6826      5053435F 
 6826      4E4F5449 
 6827              	.LASF456:
 6828 26df 4359424C 		.ascii	"CYBLE_EVT_HIDSS_REPORT_MODE_ENTER\000"
 6828      455F4556 
 6828      545F4849 
 6828      4453535F 
 6828      5245504F 
ARM GAS  C:\Users\Petro\AppData\Local\Temp\cc4GPyUf.s 			page 161


 6829              	.LASF435:
 6830 2701 4359424C 		.ascii	"CYBLE_EVT_ESSC_NOTIFICATION\000"
 6830      455F4556 
 6830      545F4553 
 6830      53435F4E 
 6830      4F544946 
 6831              	.LASF95:
 6832 271d 4359424C 		.ascii	"CYBLE_ERROR_FLASH_WRITE_NOT_PERMITED\000"
 6832      455F4552 
 6832      524F525F 
 6832      464C4153 
 6832      485F5752 
 6833              	.LASF290:
 6834 2742 7365636F 		.ascii	"seconds\000"
 6834      6E647300 
 6835              	.LASF454:
 6836 274a 4359424C 		.ascii	"CYBLE_EVT_HIDSS_NOTIFICATION_DISABLED\000"
 6836      455F4556 
 6836      545F4849 
 6836      4453535F 
 6836      4E4F5449 
 6837              	.LASF59:
 6838 2770 4359424C 		.ascii	"CYBLE_EVT_GATTS_READ_CHAR_VAL_ACCESS_REQ\000"
 6838      455F4556 
 6838      545F4741 
 6838      5454535F 
 6838      52454144 
 6839              	.LASF341:
 6840 2799 4359424C 		.ascii	"CYBLE_EVT_ANCSC_READ_DESCR_RESPONSE\000"
 6840      455F4556 
 6840      545F414E 
 6840      4353435F 
 6840      52454144 
 6841              	.LASF213:
 6842 27bd 6F70636F 		.ascii	"opcode\000"
 6842      646500
 6843              	.LASF173:
 6844 27c4 4359424C 		.ascii	"CYBLE_GATT_ERR_INSUFFICIENT_AUTHORIZATION\000"
 6844      455F4741 
 6844      54545F45 
 6844      52525F49 
 6844      4E535546 
 6845              	.LASF586:
 6846 27ee 64657363 		.ascii	"descrIndex\000"
 6846      72496E64 
 6846      657800
 6847              	.LASF209:
 6848 27f9 61747472 		.ascii	"attrHandle\000"
 6848      48616E64 
 6848      6C6500
 6849              	.LASF544:
 6850 2804 4359424C 		.ascii	"CYBLE_EVT_UDSC_NOTIFICATION\000"
 6850      455F4556 
 6850      545F5544 
 6850      53435F4E 
 6850      4F544946 
 6851              	.LASF558:
ARM GAS  C:\Users\Petro\AppData\Local\Temp\cc4GPyUf.s 			page 162


 6852 2820 4359424C 		.ascii	"CYBLE_EVT_WPTSC_WRITE_CHAR_RESPONSE\000"
 6852      455F4556 
 6852      545F5750 
 6852      5453435F 
 6852      57524954 
 6853              	.LASF218:
 6854 2844 4359424C 		.ascii	"CYBLE_GATTS_WRITE_REQ_PARAM_T\000"
 6854      455F4741 
 6854      5454535F 
 6854      57524954 
 6854      455F5245 
 6855              	.LASF8:
 6856 2862 756E7369 		.ascii	"unsigned int\000"
 6856      676E6564 
 6856      20696E74 
 6856      00
 6857              	.LASF51:
 6858 286f 4359424C 		.ascii	"CYBLE_EVT_GATTS_PREP_WRITE_REQ\000"
 6858      455F4556 
 6858      545F4741 
 6858      5454535F 
 6858      50524550 
 6859              	.LASF231:
 6860 288e 61747445 		.ascii	"attEndHandle\000"
 6860      6E644861 
 6860      6E646C65 
 6860      00
 6861              	.LASF170:
 6862 289b 4359424C 		.ascii	"CYBLE_GATT_ERR_INSUFFICIENT_AUTHENTICATION\000"
 6862      455F4741 
 6862      54545F45 
 6862      52525F49 
 6862      4E535546 
 6863              	.LASF377:
 6864 28c6 4359424C 		.ascii	"CYBLE_EVT_BMSC_WRITE_CHAR_RESPONSE\000"
 6864      455F4556 
 6864      545F424D 
 6864      53435F57 
 6864      52495445 
 6865              	.LASF419:
 6866 28e9 4359424C 		.ascii	"CYBLE_EVT_CTSS_NOTIFICATION_DISABLED\000"
 6866      455F4556 
 6866      545F4354 
 6866      53535F4E 
 6866      4F544946 
 6867              	.LASF366:
 6868 290e 4359424C 		.ascii	"CYBLE_EVT_BLSS_INDICATION_DISABLED\000"
 6868      455F4556 
 6868      545F424C 
 6868      53535F49 
 6868      4E444943 
 6869              	.LASF622:
 6870 2931 6379426C 		.ascii	"cyBle_cpssBroadcastModeInfo\000"
 6870      655F6370 
 6870      73734272 
 6870      6F616463 
 6870      6173744D 
ARM GAS  C:\Users\Petro\AppData\Local\Temp\cc4GPyUf.s 			page 163


 6871              	.LASF314:
 6872 294d 4359424C 		.ascii	"CYBLE_DIS_REG_CERT_DATA\000"
 6872      455F4449 
 6872      535F5245 
 6872      475F4345 
 6872      52545F44 
 6873              	.LASF525:
 6874 2965 4359424C 		.ascii	"CYBLE_EVT_SCPSS_NOTIFICATION_DISABLED\000"
 6874      455F4556 
 6874      545F5343 
 6874      5053535F 
 6874      4E4F5449 
 6875              	.LASF431:
 6876 298b 4359424C 		.ascii	"CYBLE_EVT_ESSS_INDICATION_CONFIRMATION\000"
 6876      455F4556 
 6876      545F4553 
 6876      53535F49 
 6876      4E444943 
 6877              	.LASF187:
 6878 29b2 4359424C 		.ascii	"CYBLE_GATTS_ERR_PROCEDURE_ALREADY_IN_PROGRESS\000"
 6878      455F4741 
 6878      5454535F 
 6878      4552525F 
 6878      50524F43 
 6879              	.LASF610:
 6880 29e0 4379426C 		.ascii	"CyBle_CpssStopBroadcast\000"
 6880      655F4370 
 6880      73735374 
 6880      6F704272 
 6880      6F616463 
 6881              	.LASF579:
 6882 29f8 61747472 		.ascii	"attrSize\000"
 6882      53697A65 
 6882      00
 6883              	.LASF317:
 6884 2a01 4359424C 		.ascii	"CYBLE_AUTHENTICATION_REQUEST_REPLY\000"
 6884      455F4155 
 6884      5448454E 
 6884      54494341 
 6884      54494F4E 
 6885              	.LASF565:
 6886 2a24 4359424C 		.ascii	"CYBLE_EVT_WSSC_INDICATION\000"
 6886      455F4556 
 6886      545F5753 
 6886      53435F49 
 6886      4E444943 
 6887              	.LASF87:
 6888 2a3e 4359424C 		.ascii	"CYBLE_ERROR_L2CAP_PSM_WRONG_ENCODING\000"
 6888      455F4552 
 6888      524F525F 
 6888      4C324341 
 6888      505F5053 
 6889              	.LASF157:
 6890 2a63 4359424C 		.ascii	"CYBLE_GATT_PREPARE_WRITE_RSP\000"
 6890      455F4741 
 6890      54545F50 
 6890      52455041 
ARM GAS  C:\Users\Petro\AppData\Local\Temp\cc4GPyUf.s 			page 164


 6890      52455F57 
 6891              	.LASF263:
 6892 2a80 4359424C 		.ascii	"CYBLE_GAP_ADV_SRVC_DATA_32UUID\000"
 6892      455F4741 
 6892      505F4144 
 6892      565F5352 
 6892      56435F44 
 6893              	.LASF369:
 6894 2a9f 4359424C 		.ascii	"CYBLE_EVT_BLSS_NOTIFICATION_DISABLED\000"
 6894      455F4556 
 6894      545F424C 
 6894      53535F4E 
 6894      4F544946 
 6895              	.LASF289:
 6896 2ac4 6D696E75 		.ascii	"minutes\000"
 6896      74657300 
 6897              	.LASF267:
 6898 2acc 4359424C 		.ascii	"CYBLE_CPS_POWER_MEASURE\000"
 6898      455F4350 
 6898      535F504F 
 6898      5745525F 
 6898      4D454153 
 6899              	.LASF175:
 6900 2ae4 4359424C 		.ascii	"CYBLE_GATT_ERR_ATTRIBUTE_NOT_FOUND\000"
 6900      455F4741 
 6900      54545F45 
 6900      52525F41 
 6900      54545249 
 6901              	.LASF482:
 6902 2b07 4359424C 		.ascii	"CYBLE_EVT_HTSC_WRITE_CHAR_RESPONSE\000"
 6902      455F4556 
 6902      545F4854 
 6902      53435F57 
 6902      52495445 
 6903              	.LASF472:
 6904 2b2a 4359424C 		.ascii	"CYBLE_EVT_HRSC_WRITE_DESCR_RESPONSE\000"
 6904      455F4556 
 6904      545F4852 
 6904      53435F57 
 6904      52495445 
 6905              	.LASF174:
 6906 2b4e 4359424C 		.ascii	"CYBLE_GATT_ERR_PREPARE_WRITE_QUEUE_FULL\000"
 6906      455F4741 
 6906      54545F45 
 6906      52525F50 
 6906      52455041 
 6907              	.LASF73:
 6908 2b76 4359424C 		.ascii	"CYBLE_EVT_MAX\000"
 6908      455F4556 
 6908      545F4D41 
 6908      5800
 6909              	.LASF34:
 6910 2b84 4359424C 		.ascii	"CYBLE_EVT_GAPC_SCAN_START_STOP\000"
 6910      455F4556 
 6910      545F4741 
 6910      50435F53 
 6910      43414E5F 
ARM GAS  C:\Users\Petro\AppData\Local\Temp\cc4GPyUf.s 			page 165


 6911              	.LASF344:
 6912 2ba3 4359424C 		.ascii	"CYBLE_EVT_ANSS_NOTIFICATION_ENABLED\000"
 6912      455F4556 
 6912      545F414E 
 6912      53535F4E 
 6912      4F544946 
 6913              	.LASF108:
 6914 2bc7 4359424C 		.ascii	"CYBLE_GAPP_ADV_T\000"
 6914      455F4741 
 6914      50505F41 
 6914      44565F54 
 6914      00
 6915              	.LASF48:
 6916 2bd8 4359424C 		.ascii	"CYBLE_EVT_GATTS_WRITE_REQ\000"
 6916      455F4556 
 6916      545F4741 
 6916      5454535F 
 6916      57524954 
 6917              	.LASF118:
 6918 2bf2 61647644 		.ascii	"advData\000"
 6918      61746100 
 6919              	.LASF546:
 6920 2bfa 4359424C 		.ascii	"CYBLE_EVT_UDSC_WRITE_CHAR_RESPONSE\000"
 6920      455F4556 
 6920      545F5544 
 6920      53435F57 
 6920      52495445 
 6921              	.LASF595:
 6922 2c1d 636F6E6E 		.ascii	"connUpdateParam\000"
 6922      55706461 
 6922      74655061 
 6922      72616D00 
 6923              	.LASF557:
 6924 2c2d 4359424C 		.ascii	"CYBLE_EVT_WPTSC_INDICATION\000"
 6924      455F4556 
 6924      545F5750 
 6924      5453435F 
 6924      494E4449 
 6925              	.LASF26:
 6926 2c48 4359424C 		.ascii	"CYBLE_EVT_GAP_PASSKEY_DISPLAY_REQUEST\000"
 6926      455F4556 
 6926      545F4741 
 6926      505F5041 
 6926      53534B45 
 6927              	.LASF99:
 6928 2c6e 4359424C 		.ascii	"CYBLE_ERROR_IND_DISABLED\000"
 6928      455F4552 
 6928      524F525F 
 6928      494E445F 
 6928      44495341 
 6929              	.LASF98:
 6930 2c87 4359424C 		.ascii	"CYBLE_ERROR_NTF_DISABLED\000"
 6930      455F4552 
 6930      524F525F 
 6930      4E54465F 
 6930      44495341 
 6931              	.LASF149:
ARM GAS  C:\Users\Petro\AppData\Local\Temp\cc4GPyUf.s 			page 166


 6932 2ca0 4359424C 		.ascii	"CYBLE_GATT_READ_MULTIPLE_REQ\000"
 6932      455F4741 
 6932      54545F52 
 6932      4541445F 
 6932      4D554C54 
 6933              	.LASF45:
 6934 2cbd 4359424C 		.ascii	"CYBLE_EVT_GATTC_READ_RSP\000"
 6934      455F4556 
 6934      545F4741 
 6934      5454435F 
 6934      52454144 
 6935              	.LASF104:
 6936 2cd6 4359424C 		.ascii	"CYBLE_GAPP_CONNECTABLE_HIGH_DC_DIRECTED_ADV\000"
 6936      455F4741 
 6936      50505F43 
 6936      4F4E4E45 
 6936      43544142 
 6937              	.LASF615:
 6938 2d02 6379426C 		.ascii	"cyBle_cpssConnParam\000"
 6938      655F6370 
 6938      7373436F 
 6938      6E6E5061 
 6938      72616D00 
 6939              	.LASF172:
 6940 2d16 4359424C 		.ascii	"CYBLE_GATT_ERR_INVALID_OFFSET\000"
 6940      455F4741 
 6940      54545F45 
 6940      52525F49 
 6940      4E56414C 
 6941              	.LASF143:
 6942 2d34 4359424C 		.ascii	"CYBLE_GATT_READ_BY_TYPE_REQ\000"
 6942      455F4741 
 6942      54545F52 
 6942      4541445F 
 6942      42595F54 
 6943              	.LASF64:
 6944 2d50 4359424C 		.ascii	"CYBLE_EVT_L2CAP_CBFC_CONN_CNF\000"
 6944      455F4556 
 6944      545F4C32 
 6944      4341505F 
 6944      43424643 
 6945              	.LASF221:
 6946 2d6e 4359424C 		.ascii	"CYBLE_GATTS_ATT_GEN_VAL_LEN_T\000"
 6946      455F4741 
 6946      5454535F 
 6946      4154545F 
 6946      47454E5F 
 6947              	.LASF483:
 6948 2d8c 4359424C 		.ascii	"CYBLE_EVT_HTSC_READ_DESCR_RESPONSE\000"
 6948      455F4556 
 6948      545F4854 
 6948      53435F52 
 6948      4541445F 
 6949              	.LASF569:
 6950 2daf 4359424C 		.ascii	"CYBLE_DEBUG_EVT_BLESS_INT\000"
 6950      455F4445 
 6950      4255475F 
ARM GAS  C:\Users\Petro\AppData\Local\Temp\cc4GPyUf.s 			page 167


 6950      4556545F 
 6950      424C4553 
 6951              	.LASF200:
 6952 2dc9 4359424C 		.ascii	"CYBLE_GATT_ERR_OUT_OF_RANGE\000"
 6952      455F4741 
 6952      54545F45 
 6952      52525F4F 
 6952      55545F4F 
 6953              	.LASF446:
 6954 2de5 4359424C 		.ascii	"CYBLE_EVT_GLSS_WRITE_CHAR\000"
 6954      455F4556 
 6954      545F474C 
 6954      53535F57 
 6954      52495445 
 6955              	.LASF126:
 6956 2dff 61647654 		.ascii	"advTo\000"
 6956      6F00
 6957              	.LASF141:
 6958 2e05 4359424C 		.ascii	"CYBLE_GATT_FIND_BY_TYPE_VALUE_REQ\000"
 6958      455F4741 
 6958      54545F46 
 6958      494E445F 
 6958      42595F54 
 6959              	.LASF468:
 6960 2e27 4359424C 		.ascii	"CYBLE_EVT_HRSC_NOTIFICATION\000"
 6960      455F4556 
 6960      545F4852 
 6960      53435F4E 
 6960      4F544946 
 6961              	.LASF593:
 6962 2e43 6C6F6352 		.ascii	"locReqHandle\000"
 6962      65714861 
 6962      6E646C65 
 6962      00
 6963              	.LASF514:
 6964 2e50 4359424C 		.ascii	"CYBLE_EVT_RSCSS_INDICATION_CONFIRMATION\000"
 6964      455F4556 
 6964      545F5253 
 6964      4353535F 
 6964      494E4449 
 6965              	.LASF463:
 6966 2e78 4359424C 		.ascii	"CYBLE_EVT_HIDSC_READ_DESCR_RESPONSE\000"
 6966      455F4556 
 6966      545F4849 
 6966      4453435F 
 6966      52454144 
 6967              	.LASF597:
 6968 2e9c 6E746652 		.ascii	"ntfReqParam\000"
 6968      65715061 
 6968      72616D00 
 6969              	.LASF469:
 6970 2ea8 4359424C 		.ascii	"CYBLE_EVT_HRSC_READ_CHAR_RESPONSE\000"
 6970      455F4556 
 6970      545F4852 
 6970      53435F52 
 6970      4541445F 
 6971              	.LASF354:
ARM GAS  C:\Users\Petro\AppData\Local\Temp\cc4GPyUf.s 			page 168


 6972 2eca 4359424C 		.ascii	"CYBLE_EVT_BASC_NOTIFICATION\000"
 6972      455F4556 
 6972      545F4241 
 6972      53435F4E 
 6972      4F544946 
 6973              	.LASF32:
 6974 2ee6 4359424C 		.ascii	"CYBLE_EVT_GAP_ENCRYPT_CHANGE\000"
 6974      455F4556 
 6974      545F4741 
 6974      505F454E 
 6974      43525950 
 6975              	.LASF501:
 6976 2f03 4359424C 		.ascii	"CYBLE_EVT_NDCSC_READ_CHAR_RESPONSE\000"
 6976      455F4556 
 6976      545F4E44 
 6976      4353435F 
 6976      52454144 
 6977              	.LASF330:
 6978 2f26 4359424C 		.ascii	"CYBLE_EVT_GATTC_DESCR_DUPLICATION\000"
 6978      455F4556 
 6978      545F4741 
 6978      5454435F 
 6978      44455343 
 6979              	.LASF39:
 6980 2f48 4359424C 		.ascii	"CYBLE_EVT_GATTS_XCNHG_MTU_REQ\000"
 6980      455F4556 
 6980      545F4741 
 6980      5454535F 
 6980      58434E48 
 6981              	.LASF590:
 6982 2f66 6C6F6343 		.ascii	"locCharIndex\000"
 6982      68617249 
 6982      6E646578 
 6982      00
 6983              	.LASF539:
 6984 2f73 4359424C 		.ascii	"CYBLE_EVT_UDSS_NOTIFICATION_ENABLED\000"
 6984      455F4556 
 6984      545F5544 
 6984      53535F4E 
 6984      4F544946 
 6985              	.LASF140:
 6986 2f97 4359424C 		.ascii	"CYBLE_GATT_FIND_INFO_RSP\000"
 6986      455F4741 
 6986      54545F46 
 6986      494E445F 
 6986      494E464F 
 6987              	.LASF584:
 6988 2fb0 4379426C 		.ascii	"CyBle_CpssGetCharacteristicValue\000"
 6988      655F4370 
 6988      73734765 
 6988      74436861 
 6988      72616374 
 6989              	.LASF491:
 6990 2fd1 4359424C 		.ascii	"CYBLE_EVT_LNSS_INDICATION_CONFIRMED\000"
 6990      455F4556 
 6990      545F4C4E 
 6990      53535F49 
ARM GAS  C:\Users\Petro\AppData\Local\Temp\cc4GPyUf.s 			page 169


 6990      4E444943 
 6991              	.LASF563:
 6992 2ff5 4359424C 		.ascii	"CYBLE_EVT_WSSS_INDICATION_DISABLED\000"
 6992      455F4556 
 6992      545F5753 
 6992      53535F49 
 6992      4E444943 
 6993              	.LASF351:
 6994 3018 4359424C 		.ascii	"CYBLE_EVT_ANSC_WRITE_DESCR_RESPONSE\000"
 6994      455F4556 
 6994      545F414E 
 6994      53435F57 
 6994      52495445 
 6995              	.LASF497:
 6996 303c 4359424C 		.ascii	"CYBLE_EVT_LNSC_READ_CHAR_RESPONSE\000"
 6996      455F4556 
 6996      545F4C4E 
 6996      53435F52 
 6996      4541445F 
 6997              	.LASF307:
 6998 305e 4359424C 		.ascii	"CYBLE_DIS_MANUFACTURER_NAME\000"
 6998      455F4449 
 6998      535F4D41 
 6998      4E554641 
 6998      43545552 
 6999              	.LASF443:
 7000 307a 4359424C 		.ascii	"CYBLE_EVT_GLSS_INDICATION_CONFIRMED\000"
 7000      455F4556 
 7000      545F474C 
 7000      53535F49 
 7000      4E444943 
 7001              	.LASF135:
 7002 309e 4359424C 		.ascii	"CYBLE_GAP_CONN_PARAM_UPDATED_IN_CONTROLLER_T\000"
 7002      455F4741 
 7002      505F434F 
 7002      4E4E5F50 
 7002      4152414D 
 7003              	.LASF575:
 7004 30cb 4359424C 		.ascii	"CYBLE_STATE_T\000"
 7004      455F5354 
 7004      4154455F 
 7004      5400
 7005              	.LASF321:
 7006 30d9 4359424C 		.ascii	"CYBLE_EVT_GATTS_INDICATION_ENABLED\000"
 7006      455F4556 
 7006      545F4741 
 7006      5454535F 
 7006      494E4449 
 7007              	.LASF7:
 7008 30fc 6C6F6E67 		.ascii	"long long unsigned int\000"
 7008      206C6F6E 
 7008      6720756E 
 7008      7369676E 
 7008      65642069 
 7009              	.LASF166:
 7010 3113 4359424C 		.ascii	"CYBLE_GATT_ERR_INVALID_HANDLE\000"
 7010      455F4741 
ARM GAS  C:\Users\Petro\AppData\Local\Temp\cc4GPyUf.s 			page 170


 7010      54545F45 
 7010      52525F49 
 7010      4E56414C 
 7011              	.LASF19:
 7012 3131 4359424C 		.ascii	"CYBLE_EVT_TIMEOUT\000"
 7012      455F4556 
 7012      545F5449 
 7012      4D454F55 
 7012      5400
 7013              	.LASF423:
 7014 3143 4359424C 		.ascii	"CYBLE_EVT_CTSC_READ_DESCR_RESPONSE\000"
 7014      455F4556 
 7014      545F4354 
 7014      53435F52 
 7014      4541445F 
 7015              	.LASF164:
 7016 3166 4359424C 		.ascii	"CYBLE_GATT_UNKNOWN_PDU_IND\000"
 7016      455F4741 
 7016      54545F55 
 7016      4E4B4E4F 
 7016      574E5F50 
 7017              	.LASF613:
 7018 3181 6379426C 		.ascii	"cyBle_cpssReqHandle\000"
 7018      655F6370 
 7018      73735265 
 7018      7148616E 
 7018      646C6500 
 7019              	.LASF101:
 7020 3195 4359424C 		.ascii	"CYBLE_ERROR_INVALID_STATE\000"
 7020      455F4552 
 7020      524F525F 
 7020      494E5641 
 7020      4C49445F 
 7021              	.LASF202:
 7022 31af 4359424C 		.ascii	"CYBLE_GATT_DB_ATTR_HANDLE_T\000"
 7022      455F4741 
 7022      54545F44 
 7022      425F4154 
 7022      54525F48 
 7023              	.LASF291:
 7024 31cb 4359424C 		.ascii	"CYBLE_CPS_DATE_TIME_T\000"
 7024      455F4350 
 7024      535F4441 
 7024      54455F54 
 7024      494D455F 
 7025              	.LASF475:
 7026 31e1 4359424C 		.ascii	"CYBLE_EVT_HTSS_INDICATION_ENABLED\000"
 7026      455F4556 
 7026      545F4854 
 7026      53535F49 
 7026      4E444943 
 7027              	.LASF67:
 7028 3203 4359424C 		.ascii	"CYBLE_EVT_L2CAP_CBFC_DATA_READ\000"
 7028      455F4556 
 7028      545F4C32 
 7028      4341505F 
 7028      43424643 
ARM GAS  C:\Users\Petro\AppData\Local\Temp\cc4GPyUf.s 			page 171


 7029              	.LASF165:
 7030 3222 4359424C 		.ascii	"CYBLE_GATT_ERR_NONE\000"
 7030      455F4741 
 7030      54545F45 
 7030      52525F4E 
 7030      4F4E4500 
 7031              	.LASF208:
 7032 3236 76616C75 		.ascii	"value\000"
 7032      6500
 7033              	.LASF399:
 7034 323c 4359424C 		.ascii	"CYBLE_EVT_CPSC_NOTIFICATION\000"
 7034      455F4556 
 7034      545F4350 
 7034      53435F4E 
 7034      4F544946 
 7035              	.LASF374:
 7036 3258 4359424C 		.ascii	"CYBLE_EVT_BLSC_WRITE_DESCR_RESPONSE\000"
 7036      455F4556 
 7036      545F424C 
 7036      53435F57 
 7036      52495445 
 7037              	.LASF232:
 7038 327c 61747456 		.ascii	"attValue\000"
 7038      616C7565 
 7038      00
 7039              	.LASF304:
 7040 3285 4359424C 		.ascii	"CYBLE_CSCS_CHAR_COUNT\000"
 7040      455F4353 
 7040      43535F43 
 7040      4841525F 
 7040      434F554E 
 7041              	.LASF496:
 7042 329b 4359424C 		.ascii	"CYBLE_EVT_LNSC_NOTIFICATION\000"
 7042      455F4556 
 7042      545F4C4E 
 7042      53435F4E 
 7042      4F544946 
 7043              	.LASF421:
 7044 32b7 4359424C 		.ascii	"CYBLE_EVT_CTSC_NOTIFICATION\000"
 7044      455F4556 
 7044      545F4354 
 7044      53435F4E 
 7044      4F544946 
 7045              	.LASF282:
 7046 32d3 63686172 		.ascii	"charInfo\000"
 7046      496E666F 
 7046      00
 7047              	.LASF243:
 7048 32dc 4359424C 		.ascii	"CYBLE_GAP_ADV_TX_PWR_LVL\000"
 7048      455F4741 
 7048      505F4144 
 7048      565F5458 
 7048      5F505752 
 7049              	.LASF201:
 7050 32f5 4359424C 		.ascii	"CYBLE_GATT_ERR_CODE_T\000"
 7050      455F4741 
 7050      54545F45 
ARM GAS  C:\Users\Petro\AppData\Local\Temp\cc4GPyUf.s 			page 172


 7050      52525F43 
 7050      4F44455F 
 7051              	.LASF442:
 7052 330b 4359424C 		.ascii	"CYBLE_EVT_GLSS_INDICATION_DISABLED\000"
 7052      455F4556 
 7052      545F474C 
 7052      53535F49 
 7052      4E444943 
 7053              	.LASF246:
 7054 332e 4359424C 		.ascii	"CYBLE_GAP_ADV_SMPL_PAIR_RANDOM_R\000"
 7054      455F4741 
 7054      505F4144 
 7054      565F534D 
 7054      504C5F50 
 7055              	.LASF186:
 7056 334f 4359424C 		.ascii	"CYBLE_GATT_ERR_HTS_OUT_OF_RANGE\000"
 7056      455F4741 
 7056      54545F45 
 7056      52525F48 
 7056      54535F4F 
 7057              	.LASF277:
 7058 336f 4359424C 		.ascii	"CYBLE_CPS_DESCR_INDEX_T\000"
 7058      455F4350 
 7058      535F4445 
 7058      5343525F 
 7058      494E4445 
 7059              	.LASF328:
 7060 3387 4359424C 		.ascii	"CYBLE_EVT_GATTC_SRVC_DUPLICATION\000"
 7060      455F4556 
 7060      545F4741 
 7060      5454435F 
 7060      53525643 
 7061              	.LASF489:
 7062 33a8 4359424C 		.ascii	"CYBLE_EVT_LNSS_INDICATION_ENABLED\000"
 7062      455F4556 
 7062      545F4C4E 
 7062      53535F49 
 7062      4E444943 
 7063              	.LASF470:
 7064 33ca 4359424C 		.ascii	"CYBLE_EVT_HRSC_WRITE_CHAR_RESPONSE\000"
 7064      455F4556 
 7064      545F4852 
 7064      53435F57 
 7064      52495445 
 7065              	.LASF147:
 7066 33ed 4359424C 		.ascii	"CYBLE_GATT_READ_BLOB_REQ\000"
 7066      455F4741 
 7066      54545F52 
 7066      4541445F 
 7066      424C4F42 
 7067              	.LASF628:
 7068 3406 474E5520 		.ascii	"GNU C 4.9.3 20150303 (release) [ARM/embedded-4_9-br"
 7068      4320342E 
 7068      392E3320 
 7068      32303135 
 7068      30333033 
 7069 3439 616E6368 		.ascii	"anch revision 221220] -mcpu=cortex-m0 -mthumb -g -O"
ARM GAS  C:\Users\Petro\AppData\Local\Temp\cc4GPyUf.s 			page 173


 7069      20726576 
 7069      6973696F 
 7069      6E203232 
 7069      31323230 
 7070 346c 30202D66 		.ascii	"0 -ffunction-sections -ffat-lto-objects\000"
 7070      66756E63 
 7070      74696F6E 
 7070      2D736563 
 7070      74696F6E 
 7071              	.LASF502:
 7072 3494 4359424C 		.ascii	"CYBLE_EVT_PASSS_NOTIFICATION_ENABLED\000"
 7072      455F4556 
 7072      545F5041 
 7072      5353535F 
 7072      4E4F5449 
 7073              	.LASF336:
 7074 34b9 4359424C 		.ascii	"CYBLE_EVT_ANCSS_NOTIFICATION_DISABLED\000"
 7074      455F4556 
 7074      545F414E 
 7074      4353535F 
 7074      4E4F5449 
 7075              	.LASF264:
 7076 34df 4359424C 		.ascii	"CYBLE_GAP_ADV_SRVC_DATA_128UUID\000"
 7076      455F4741 
 7076      505F4144 
 7076      565F5352 
 7076      56435F44 
 7077              	.LASF253:
 7078 34ff 4359424C 		.ascii	"CYBLE_GAP_ADV_SRVC_DATA_16UUID\000"
 7078      455F4741 
 7078      505F4144 
 7078      565F5352 
 7078      56435F44 
 7079              	.LASF216:
 7080 351e 636F6E6E 		.ascii	"connHandle\000"
 7080      48616E64 
 7080      6C6500
 7081              	.LASF219:
 7082 3529 61637475 		.ascii	"actualLength\000"
 7082      616C4C65 
 7082      6E677468 
 7082      00
 7083              	.LASF353:
 7084 3536 4359424C 		.ascii	"CYBLE_EVT_BASS_NOTIFICATION_DISABLED\000"
 7084      455F4556 
 7084      545F4241 
 7084      53535F4E 
 7084      4F544946 
 7085              	.LASF119:
 7086 355b 61647644 		.ascii	"advDataLen\000"
 7086      6174614C 
 7086      656E00
 7087              	.LASF464:
 7088 3566 4359424C 		.ascii	"CYBLE_EVT_HIDSC_WRITE_DESCR_RESPONSE\000"
 7088      455F4556 
 7088      545F4849 
 7088      4453435F 
ARM GAS  C:\Users\Petro\AppData\Local\Temp\cc4GPyUf.s 			page 174


 7088      57524954 
 7089              	.LASF391:
 7090 358b 4359424C 		.ascii	"CYBLE_EVT_CPSS_NOTIFICATION_ENABLED\000"
 7090      455F4556 
 7090      545F4350 
 7090      53535F4E 
 7090      4F544946 
 7091              	.LASF604:
 7092 35af 6572725F 		.ascii	"err_param\000"
 7092      70617261 
 7092      6D00
 7093              	.LASF268:
 7094 35b9 4359424C 		.ascii	"CYBLE_CPS_POWER_FEATURE\000"
 7094      455F4350 
 7094      535F504F 
 7094      5745525F 
 7094      46454154 
 7095              	.LASF534:
 7096 35d1 4359424C 		.ascii	"CYBLE_EVT_TPSC_READ_DESCR_RESPONSE\000"
 7096      455F4556 
 7096      545F5450 
 7096      53435F52 
 7096      4541445F 
 7097              	.LASF127:
 7098 35f4 4359424C 		.ascii	"CYBLE_GAPP_DISC_MODE_INFO_T\000"
 7098      455F4741 
 7098      50505F44 
 7098      4953435F 
 7098      4D4F4445 
 7099              	.LASF618:
 7100 3610 6379426C 		.ascii	"cyBle_pendingFlashWrite\000"
 7100      655F7065 
 7100      6E64696E 
 7100      67466C61 
 7100      73685772 
 7101              	.LASF549:
 7102 3628 4359424C 		.ascii	"CYBLE_EVT_UDSC_ERROR_RESPONSE\000"
 7102      455F4556 
 7102      545F5544 
 7102      53435F45 
 7102      52524F52 
 7103              	.LASF43:
 7104 3646 4359424C 		.ascii	"CYBLE_EVT_GATTC_FIND_INFO_RSP\000"
 7104      455F4556 
 7104      545F4741 
 7104      5454435F 
 7104      46494E44 
 7105              	.LASF42:
 7106 3664 4359424C 		.ascii	"CYBLE_EVT_GATTC_READ_BY_TYPE_RSP\000"
 7106      455F4556 
 7106      545F4741 
 7106      5454435F 
 7106      52454144 
 7107              	.LASF503:
 7108 3685 4359424C 		.ascii	"CYBLE_EVT_PASSS_NOTIFICATION_DISABLED\000"
 7108      455F4556 
 7108      545F5041 
ARM GAS  C:\Users\Petro\AppData\Local\Temp\cc4GPyUf.s 			page 175


 7108      5353535F 
 7108      4E4F5449 
 7109              	.LASF389:
 7110 36ab 4359424C 		.ascii	"CYBLE_EVT_CGMSC_READ_DESCR_RESPONSE\000"
 7110      455F4556 
 7110      545F4347 
 7110      4D53435F 
 7110      52454144 
 7111              	.LASF461:
 7112 36cf 4359424C 		.ascii	"CYBLE_EVT_HIDSC_READ_CHAR_RESPONSE\000"
 7112      455F4556 
 7112      545F4849 
 7112      4453435F 
 7112      52454144 
 7113              	.LASF605:
 7114 36f2 6C6F6356 		.ascii	"locValue\000"
 7114      616C7565 
 7114      00
 7115              	.LASF191:
 7116 36fb 4359424C 		.ascii	"CYBLE_GATTS_ERR_OPERATION_FAILED\000"
 7116      455F4741 
 7116      5454535F 
 7116      4552525F 
 7116      4F504552 
 7117              	.LASF581:
 7118 371c 61706952 		.ascii	"apiResult\000"
 7118      6573756C 
 7118      7400
 7119              	.LASF624:
 7120 3726 6379426C 		.ascii	"cyBle_state\000"
 7120      655F7374 
 7120      61746500 
 7121              	.LASF256:
 7122 3732 4359424C 		.ascii	"CYBLE_GAP_ADV_APPEARANCE\000"
 7122      455F4741 
 7122      505F4144 
 7122      565F4150 
 7122      50454152 
 7123              	.LASF531:
 7124 374b 4359424C 		.ascii	"CYBLE_EVT_TPSS_NOTIFICATION_DISABLED\000"
 7124      455F4556 
 7124      545F5450 
 7124      53535F4E 
 7124      4F544946 
 7125              	.LASF528:
 7126 3770 4359424C 		.ascii	"CYBLE_EVT_SCPSC_READ_DESCR_RESPONSE\000"
 7126      455F4556 
 7126      545F5343 
 7126      5053435F 
 7126      52454144 
 7127              	.LASF287:
 7128 3794 6D6F6E74 		.ascii	"month\000"
 7128      6800
 7129              	.LASF494:
 7130 379a 4359424C 		.ascii	"CYBLE_EVT_LNSS_WRITE_CHAR\000"
 7130      455F4556 
 7130      545F4C4E 
ARM GAS  C:\Users\Petro\AppData\Local\Temp\cc4GPyUf.s 			page 176


 7130      53535F57 
 7130      52495445 
 7131              	.LASF432:
 7132 37b4 4359424C 		.ascii	"CYBLE_EVT_ESSS_CHAR_WRITE\000"
 7132      455F4556 
 7132      545F4553 
 7132      53535F43 
 7132      4841525F 
 7133              	.LASF49:
 7134 37ce 4359424C 		.ascii	"CYBLE_EVT_GATTC_WRITE_RSP\000"
 7134      455F4556 
 7134      545F4741 
 7134      5454435F 
 7134      57524954 
 7135              	.LASF427:
 7136 37e8 4359424C 		.ascii	"CYBLE_EVT_ESSS_NOTIFICATION_ENABLED\000"
 7136      455F4556 
 7136      545F4553 
 7136      53535F4E 
 7136      4F544946 
 7137              	.LASF258:
 7138 380c 4359424C 		.ascii	"CYBLE_GAP_ADV_LE_BT_DEVICE_ADDR\000"
 7138      455F4741 
 7138      505F4144 
 7138      565F4C45 
 7138      5F42545F 
 7139              	.LASF574:
 7140 382c 4359424C 		.ascii	"CYBLE_STATE_DISCONNECTED\000"
 7140      455F5354 
 7140      4154455F 
 7140      44495343 
 7140      4F4E4E45 
 7141              	.LASF227:
 7142 3845 4359424C 		.ascii	"CYBLE_GATTS_ATT_VALUE_T\000"
 7142      455F4741 
 7142      5454535F 
 7142      4154545F 
 7142      56414C55 
 7143              	.LASF516:
 7144 385d 4359424C 		.ascii	"CYBLE_EVT_RSCSC_NOTIFICATION\000"
 7144      455F4556 
 7144      545F5253 
 7144      4353435F 
 7144      4E4F5449 
 7145              	.LASF626:
 7146 387a 6379426C 		.ascii	"cyBle_cpssBroadcastParam\000"
 7146      655F6370 
 7146      73734272 
 7146      6F616463 
 7146      61737450 
 7147              	.LASF612:
 7148 3893 4379426C 		.ascii	"CyBle_CpsApplCallback\000"
 7148      655F4370 
 7148      73417070 
 7148      6C43616C 
 7148      6C626163 
 7149              	.LASF623:
ARM GAS  C:\Users\Petro\AppData\Local\Temp\cc4GPyUf.s 			page 177


 7150 38a9 6379426C 		.ascii	"cyBle_cpssAdjustment\000"
 7150      655F6370 
 7150      73734164 
 7150      6A757374 
 7150      6D656E74 
 7151              	.LASF224:
 7152 38be 4359424C 		.ascii	"CYBLE_GATTS_ATT_PACK_VAL_LEN_T\000"
 7152      455F4741 
 7152      5454535F 
 7152      4154545F 
 7152      5041434B 
 7153              	.LASF29:
 7154 38dd 4359424C 		.ascii	"CYBLE_EVT_GAPP_ADVERTISEMENT_START_STOP\000"
 7154      455F4556 
 7154      545F4741 
 7154      50505F41 
 7154      44564552 
 7155              	.LASF123:
 7156 3905 4359424C 		.ascii	"CYBLE_GAPP_SCAN_RSP_DATA_T\000"
 7156      455F4741 
 7156      50505F53 
 7156      43414E5F 
 7156      5253505F 
 7157              	.LASF560:
 7158 3920 4359424C 		.ascii	"CYBLE_EVT_WPTSC_READ_DESCR_RESPONSE\000"
 7158      455F4556 
 7158      545F5750 
 7158      5453435F 
 7158      52454144 
 7159              	.LASF338:
 7160 3944 4359424C 		.ascii	"CYBLE_EVT_ANCSC_NOTIFICATION\000"
 7160      455F4556 
 7160      545F414E 
 7160      4353435F 
 7160      4E4F5449 
 7161              	.LASF220:
 7162 3961 61747447 		.ascii	"attGenericVal\000"
 7162      656E6572 
 7162      69635661 
 7162      6C00
 7163              	.LASF278:
 7164 396f 63686172 		.ascii	"charHandle\000"
 7164      48616E64 
 7164      6C6500
 7165              	.LASF388:
 7166 397a 4359424C 		.ascii	"CYBLE_EVT_CGMSC_WRITE_CHAR_RESPONSE\000"
 7166      455F4556 
 7166      545F4347 
 7166      4D53435F 
 7166      57524954 
 7167              	.LASF9:
 7168 399e 75696E74 		.ascii	"uint8\000"
 7168      3800
 7169              	.LASF481:
 7170 39a4 4359424C 		.ascii	"CYBLE_EVT_HTSC_READ_CHAR_RESPONSE\000"
 7170      455F4556 
 7170      545F4854 
ARM GAS  C:\Users\Petro\AppData\Local\Temp\cc4GPyUf.s 			page 178


 7170      53435F52 
 7170      4541445F 
 7171              	.LASF240:
 7172 39c6 4359424C 		.ascii	"CYBLE_GAP_ADV_COMPL_128_UUID\000"
 7172      455F4741 
 7172      505F4144 
 7172      565F434F 
 7172      4D504C5F 
 7173              	.LASF509:
 7174 39e3 4359424C 		.ascii	"CYBLE_EVT_PASSC_WRITE_DESCR_RESPONSE\000"
 7174      455F4556 
 7174      545F5041 
 7174      5353435F 
 7174      57524954 
 7175              	.LASF153:
 7176 3a08 4359424C 		.ascii	"CYBLE_GATT_WRITE_REQ\000"
 7176      455F4741 
 7176      54545F57 
 7176      52495445 
 7176      5F524551 
 7177              	.LASF283:
 7178 3a1d 4359424C 		.ascii	"CYBLE_CPSS_T\000"
 7178      455F4350 
 7178      53535F54 
 7178      00
 7179              	.LASF2:
 7180 3a2a 73686F72 		.ascii	"short int\000"
 7180      7420696E 
 7180      7400
 7181              	.LASF217:
 7182 3a34 68616E64 		.ascii	"handleValPair\000"
 7182      6C655661 
 7182      6C506169 
 7182      7200
 7183              	.LASF375:
 7184 3a42 4359424C 		.ascii	"CYBLE_EVT_BMSS_WRITE_CHAR\000"
 7184      455F4556 
 7184      545F424D 
 7184      53535F57 
 7184      52495445 
 7185              	.LASF223:
 7186 3a5c 61747447 		.ascii	"attGenericValLen\000"
 7186      656E6572 
 7186      69635661 
 7186      6C4C656E 
 7186      00
 7187              	.LASF225:
 7188 3a6d 61747446 		.ascii	"attFormatValue\000"
 7188      6F726D61 
 7188      7456616C 
 7188      756500
 7189              	.LASF122:
 7190 3a7c 7363616E 		.ascii	"scanRspDataLen\000"
 7190      52737044 
 7190      6174614C 
 7190      656E00
 7191              	.LASF185:
ARM GAS  C:\Users\Petro\AppData\Local\Temp\cc4GPyUf.s 			page 179


 7192 3a8b 4359424C 		.ascii	"CYBLE_GATT_ERR_CPS_INAPPROPRIATE_CONNECTION_PARAMET"
 7192      455F4741 
 7192      54545F45 
 7192      52525F43 
 7192      50535F49 
 7193 3abe 45525300 		.ascii	"ERS\000"
 7194              	.LASF386:
 7195 3ac2 4359424C 		.ascii	"CYBLE_EVT_CGMSC_NOTIFICATION\000"
 7195      455F4556 
 7195      545F4347 
 7195      4D53435F 
 7195      4E4F5449 
 7196              	.LASF171:
 7197 3adf 4359424C 		.ascii	"CYBLE_GATT_ERR_REQUEST_NOT_SUPPORTED\000"
 7197      455F4741 
 7197      54545F45 
 7197      52525F52 
 7197      45515545 
 7198              	.LASF36:
 7199 3b04 4359424C 		.ascii	"CYBLE_EVT_GATTC_ERROR_RSP\000"
 7199      455F4556 
 7199      545F4741 
 7199      5454435F 
 7199      4552524F 
 7200              	.LASF438:
 7201 3b1e 4359424C 		.ascii	"CYBLE_EVT_ESSC_WRITE_CHAR_RESPONSE\000"
 7201      455F4556 
 7201      545F4553 
 7201      53435F57 
 7201      52495445 
 7202              	.LASF343:
 7203 3b41 4359424C 		.ascii	"CYBLE_EVT_ANCSC_ERROR_RESPONSE\000"
 7203      455F4556 
 7203      545F414E 
 7203      4353435F 
 7203      4552524F 
 7204              	.LASF357:
 7205 3b60 4359424C 		.ascii	"CYBLE_EVT_BASC_WRITE_DESCR_RESPONSE\000"
 7205      455F4556 
 7205      545F4241 
 7205      53435F57 
 7205      52495445 
 7206              	.LASF324:
 7207 3b84 4359424C 		.ascii	"CYBLE_EVT_GATTC_SRVC_DISCOVERY_FAILED\000"
 7207      455F4556 
 7207      545F4741 
 7207      5454435F 
 7207      53525643 
 7208              	.LASF441:
 7209 3baa 4359424C 		.ascii	"CYBLE_EVT_GLSS_INDICATION_ENABLED\000"
 7209      455F4556 
 7209      545F474C 
 7209      53535F49 
 7209      4E444943 
 7210              	.LASF346:
 7211 3bcc 4359424C 		.ascii	"CYBLE_EVT_ANSS_CHAR_WRITE\000"
 7211      455F4556 
ARM GAS  C:\Users\Petro\AppData\Local\Temp\cc4GPyUf.s 			page 180


 7211      545F414E 
 7211      53535F43 
 7211      4841525F 
 7212              	.LASF254:
 7213 3be6 4359424C 		.ascii	"CYBLE_GAP_ADV_PUBLIC_TARGET_ADDR\000"
 7213      455F4741 
 7213      505F4144 
 7213      565F5055 
 7213      424C4943 
 7214              	.LASF105:
 7215 3c07 4359424C 		.ascii	"CYBLE_GAPP_SCANNABLE_UNDIRECTED_ADV\000"
 7215      455F4741 
 7215      50505F53 
 7215      43414E4E 
 7215      41424C45 
 7216              	.LASF63:
 7217 3c2b 4359424C 		.ascii	"CYBLE_EVT_L2CAP_CBFC_CONN_IND\000"
 7217      455F4556 
 7217      545F4C32 
 7217      4341505F 
 7217      43424643 
 7218              	.LASF52:
 7219 3c49 4359424C 		.ascii	"CYBLE_EVT_GATTS_EXEC_WRITE_REQ\000"
 7219      455F4556 
 7219      545F4741 
 7219      5454535F 
 7219      45584543 
 7220              	.LASF23:
 7221 3c68 4359424C 		.ascii	"CYBLE_EVT_GAPC_SCAN_PROGRESS_RESULT\000"
 7221      455F4556 
 7221      545F4741 
 7221      50435F53 
 7221      43414E5F 
 7222              	.LASF625:
 7223 3c8c 6379426C 		.ascii	"cyBle_connHandle\000"
 7223      655F636F 
 7223      6E6E4861 
 7223      6E646C65 
 7223      00
 7224              	.LASF420:
 7225 3c9d 4359424C 		.ascii	"CYBLE_EVT_CTSS_CHAR_WRITE\000"
 7225      455F4556 
 7225      545F4354 
 7225      53535F43 
 7225      4841525F 
 7226              	.LASF280:
 7227 3cb7 4359424C 		.ascii	"CYBLE_CPSS_CHAR_T\000"
 7227      455F4350 
 7227      53535F43 
 7227      4841525F 
 7227      5400
 7228              	.LASF536:
 7229 3cc9 4359424C 		.ascii	"CYBLE_EVT_UDSS_INDICATION_ENABLED\000"
 7229      455F4556 
 7229      545F5544 
 7229      53535F49 
 7229      4E444943 
ARM GAS  C:\Users\Petro\AppData\Local\Temp\cc4GPyUf.s 			page 181


 7230              	.LASF196:
 7231 3ceb 4359424C 		.ascii	"CYBLE_GATT_ERR_ANCS_INVALID_PARAMETER\000"
 7231      455F4741 
 7231      54545F45 
 7231      52525F41 
 7231      4E43535F 
 7232              	.LASF83:
 7233 3d11 4359424C 		.ascii	"CYBLE_ERROR_GAP_ROLE\000"
 7233      455F4552 
 7233      524F525F 
 7233      4741505F 
 7233      524F4C45 
 7234              	.LASF247:
 7235 3d26 4359424C 		.ascii	"CYBLE_GAP_ADV_DEVICE_ID\000"
 7235      455F4741 
 7235      505F4144 
 7235      565F4445 
 7235      56494345 
 7236              	.LASF547:
 7237 3d3e 4359424C 		.ascii	"CYBLE_EVT_UDSC_READ_DESCR_RESPONSE\000"
 7237      455F4556 
 7237      545F5544 
 7237      53435F52 
 7237      4541445F 
 7238              	.LASF355:
 7239 3d61 4359424C 		.ascii	"CYBLE_EVT_BASC_READ_CHAR_RESPONSE\000"
 7239      455F4556 
 7239      545F4241 
 7239      53435F52 
 7239      4541445F 
 7240              	.LASF448:
 7241 3d83 4359424C 		.ascii	"CYBLE_EVT_GLSC_NOTIFICATION\000"
 7241      455F4556 
 7241      545F474C 
 7241      53435F4E 
 7241      4F544946 
 7242              	.LASF193:
 7243 3d9f 4359424C 		.ascii	"CYBLE_GATT_ERR_ANS_COMMAND_NOT_SUPPORTED\000"
 7243      455F4741 
 7243      54545F45 
 7243      52525F41 
 7243      4E535F43 
 7244              	.LASF603:
 7245 3dc8 72657370 		.ascii	"response\000"
 7245      6F6E7365 
 7245      00
 7246              	.LASF276:
 7247 3dd1 4359424C 		.ascii	"CYBLE_CPS_DESCR_COUNT\000"
 7247      455F4350 
 7247      535F4445 
 7247      5343525F 
 7247      434F554E 
 7248              	.LASF526:
 7249 3de7 4359424C 		.ascii	"CYBLE_EVT_SCPSS_SCAN_INT_WIN_CHAR_WRITE\000"
 7249      455F4556 
 7249      545F5343 
 7249      5053535F 
ARM GAS  C:\Users\Petro\AppData\Local\Temp\cc4GPyUf.s 			page 182


 7249      5343414E 
 7250              	.LASF146:
 7251 3e0f 4359424C 		.ascii	"CYBLE_GATT_READ_RSP\000"
 7251      455F4741 
 7251      54545F52 
 7251      4541445F 
 7251      52535000 
 7252              	.LASF12:
 7253 3e23 696E7431 		.ascii	"int16\000"
 7253      3600
 7254              	.LASF80:
 7255 3e29 4359424C 		.ascii	"CYBLE_ERROR_NO_CONNECTION\000"
 7255      455F4552 
 7255      524F525F 
 7255      4E4F5F43 
 7255      4F4E4E45 
 7256              	.LASF409:
 7257 3e43 4359424C 		.ascii	"CYBLE_EVT_CSCSS_INDICATION_DISABLED\000"
 7257      455F4556 
 7257      545F4353 
 7257      4353535F 
 7257      494E4449 
 7258              	.LASF378:
 7259 3e67 4359424C 		.ascii	"CYBLE_EVT_BMSC_READ_DESCR_RESPONSE\000"
 7259      455F4556 
 7259      545F424D 
 7259      53435F52 
 7259      4541445F 
 7260              	.LASF72:
 7261 3e8a 4359424C 		.ascii	"CYBLE_EVT_LE_PING_AUTH_TIMEOUT\000"
 7261      455F4556 
 7261      545F4C45 
 7261      5F50494E 
 7261      475F4155 
 7262              	.LASF102:
 7263 3ea9 4359424C 		.ascii	"CYBLE_API_RESULT_T\000"
 7263      455F4150 
 7263      495F5245 
 7263      53554C54 
 7263      5F5400
 7264              	.LASF380:
 7265 3ebc 4359424C 		.ascii	"CYBLE_EVT_CGMSS_INDICATION_DISABLED\000"
 7265      455F4556 
 7265      545F4347 
 7265      4D53535F 
 7265      494E4449 
 7266              	.LASF334:
 7267 3ee0 4359424C 		.ascii	"CYBLE_EVT_GATTC_DISCOVERY_COMPLETE\000"
 7267      455F4556 
 7267      545F4741 
 7267      5454435F 
 7267      44495343 
 7268              	.LASF299:
 7269 3f03 4359424C 		.ascii	"CYBLE_CPS_CP_ADJUSTMENT_T\000"
 7269      455F4350 
 7269      535F4350 
 7269      5F41444A 
ARM GAS  C:\Users\Petro\AppData\Local\Temp\cc4GPyUf.s 			page 183


 7269      5553544D 
 7270              	.LASF301:
 7271 3f1d 4359424C 		.ascii	"CYBLE_CSCS_CSC_FEATURE\000"
 7271      455F4353 
 7271      43535F43 
 7271      53435F46 
 7271      45415455 
 7272              	.LASF55:
 7273 3f34 4359424C 		.ascii	"CYBLE_EVT_GATTC_HANDLE_VALUE_IND\000"
 7273      455F4556 
 7273      545F4741 
 7273      5454435F 
 7273      48414E44 
 7274              	.LASF405:
 7275 3f55 4359424C 		.ascii	"CYBLE_EVT_CPSC_SCAN_PROGRESS_RESULT\000"
 7275      455F4556 
 7275      545F4350 
 7275      53435F53 
 7275      43414E5F 
 7276              	.LASF520:
 7277 3f79 4359424C 		.ascii	"CYBLE_EVT_RSCSC_READ_DESCR_RESPONSE\000"
 7277      455F4556 
 7277      545F5253 
 7277      4353435F 
 7277      52454144 
 7278              	.LASF86:
 7279 3f9d 4359424C 		.ascii	"CYBLE_ERROR_SEC_FAILED\000"
 7279      455F4552 
 7279      524F525F 
 7279      5345435F 
 7279      4641494C 
 7280              	.LASF22:
 7281 3fb4 4359424C 		.ascii	"CYBLE_EVT_STACK_BUSY_STATUS\000"
 7281      455F4556 
 7281      545F5354 
 7281      41434B5F 
 7281      42555359 
 7282              	.LASF288:
 7283 3fd0 686F7572 		.ascii	"hours\000"
 7283      7300
 7284              	.LASF600:
 7285 3fd6 4379426C 		.ascii	"CyBle_CpsRegisterAttrCallback\000"
 7285      655F4370 
 7285      73526567 
 7285      69737465 
 7285      72417474 
 7286              	.LASF130:
 7287 3ff4 636F6E6E 		.ascii	"connLatency\000"
 7287      4C617465 
 7287      6E637900 
 7288              	.LASF594:
 7289 4000 72657175 		.ascii	"requiredConnIntv\000"
 7289      69726564 
 7289      436F6E6E 
 7289      496E7476 
 7289      00
 7290              	.LASF484:
ARM GAS  C:\Users\Petro\AppData\Local\Temp\cc4GPyUf.s 			page 184


 7291 4011 4359424C 		.ascii	"CYBLE_EVT_HTSC_WRITE_DESCR_RESPONSE\000"
 7291      455F4556 
 7291      545F4854 
 7291      53435F57 
 7291      52495445 
 7292              	.LASF35:
 7293 4035 4359424C 		.ascii	"CYBLE_EVT_GAP_KEYINFO_EXCHNGE_CMPLT\000"
 7293      455F4556 
 7293      545F4741 
 7293      505F4B45 
 7293      59494E46 
 7294              	.LASF158:
 7295 4059 4359424C 		.ascii	"CYBLE_GATT_EXECUTE_WRITE_REQ\000"
 7295      455F4741 
 7295      54545F45 
 7295      58454355 
 7295      54455F57 
 7296              	.LASF561:
 7297 4076 4359424C 		.ascii	"CYBLE_EVT_WPTSC_WRITE_DESCR_RESPONSE\000"
 7297      455F4556 
 7297      545F5750 
 7297      5453435F 
 7297      57524954 
 7298              	.LASF60:
 7299 409b 4359424C 		.ascii	"CYBLE_EVT_L2CAP_CONN_PARAM_UPDATE_REQ\000"
 7299      455F4556 
 7299      545F4C32 
 7299      4341505F 
 7299      434F4E4E 
 7300              	.LASF383:
 7301 40c1 4359424C 		.ascii	"CYBLE_EVT_CGMSS_NOTIFICATION_DISABLED\000"
 7301      455F4556 
 7301      545F4347 
 7301      4D53535F 
 7301      4E4F5449 
 7302              	.LASF284:
 7303 40e7 63686172 		.ascii	"charIndex\000"
 7303      496E6465 
 7303      7800
 7304              	.LASF592:
 7305 40f1 67617474 		.ascii	"gattErr\000"
 7305      45727200 
 7306              	.LASF129:
 7307 40f9 636F6E6E 		.ascii	"connIntvMax\000"
 7307      496E7476 
 7307      4D617800 
 7308              	.LASF607:
 7309 4105 4379426C 		.ascii	"CyBle_CpssConnUpdateCompleteEventHandler\000"
 7309      655F4370 
 7309      7373436F 
 7309      6E6E5570 
 7309      64617465 
 7310              	.LASF325:
 7311 412e 4359424C 		.ascii	"CYBLE_EVT_GATTC_INCL_DISCOVERY_FAILED\000"
 7311      455F4556 
 7311      545F4741 
 7311      5454435F 
ARM GAS  C:\Users\Petro\AppData\Local\Temp\cc4GPyUf.s 			page 185


 7311      494E434C 
 7312              	.LASF168:
 7313 4154 4359424C 		.ascii	"CYBLE_GATT_ERR_WRITE_NOT_PERMITTED\000"
 7313      455F4741 
 7313      54545F45 
 7313      52525F57 
 7313      52495445 
 7314              	.LASF322:
 7315 4177 4359424C 		.ascii	"CYBLE_EVT_GATTS_INDICATION_DISABLED\000"
 7315      455F4556 
 7315      545F4741 
 7315      5454535F 
 7315      494E4449 
 7316              	.LASF134:
 7317 419b 636F6E6E 		.ascii	"connIntv\000"
 7317      496E7476 
 7317      00
 7318              	.LASF3:
 7319 41a4 73686F72 		.ascii	"short unsigned int\000"
 7319      7420756E 
 7319      7369676E 
 7319      65642069 
 7319      6E7400
 7320              	.LASF180:
 7321 41b7 4359424C 		.ascii	"CYBLE_GATT_ERR_INSUFFICIENT_ENCRYPTION\000"
 7321      455F4741 
 7321      54545F45 
 7321      52525F49 
 7321      4E535546 
 7322              	.LASF114:
 7323 41de 64697265 		.ascii	"directAddr\000"
 7323      63744164 
 7323      647200
 7324              	.LASF572:
 7325 41e9 4359424C 		.ascii	"CYBLE_STATE_CONNECTED\000"
 7325      455F5354 
 7325      4154455F 
 7325      434F4E4E 
 7325      45435445 
 7326              	.LASF255:
 7327 41ff 4359424C 		.ascii	"CYBLE_GAP_ADV_RANDOM_TARGET_ADDR\000"
 7327      455F4741 
 7327      505F4144 
 7327      565F5241 
 7327      4E444F4D 
 7328              	.LASF206:
 7329 4220 61637475 		.ascii	"actualLen\000"
 7329      616C4C65 
 7329      6E00
 7330              	.LASF611:
 7331 422a 4379426C 		.ascii	"CyBle_CpssAdvertisementStartStopEventHandler\000"
 7331      655F4370 
 7331      73734164 
 7331      76657274 
 7331      6973656D 
 7332              	.LASF599:
 7333 4257 696E6452 		.ascii	"indReqParam\000"
ARM GAS  C:\Users\Petro\AppData\Local\Temp\cc4GPyUf.s 			page 186


 7333      65715061 
 7333      72616D00 
 7334              	.LASF115:
 7335 4263 61647643 		.ascii	"advChannelMap\000"
 7335      68616E6E 
 7335      656C4D61 
 7335      7000
 7336              	.LASF151:
 7337 4271 4359424C 		.ascii	"CYBLE_GATT_READ_BY_GROUP_REQ\000"
 7337      455F4741 
 7337      54545F52 
 7337      4541445F 
 7337      42595F47 
 7338              	.LASF447:
 7339 428e 4359424C 		.ascii	"CYBLE_EVT_GLSC_INDICATION\000"
 7339      455F4556 
 7339      545F474C 
 7339      53435F49 
 7339      4E444943 
 7340              	.LASF103:
 7341 42a8 4359424C 		.ascii	"CYBLE_GAPP_CONNECTABLE_UNDIRECTED_ADV\000"
 7341      455F4741 
 7341      50505F43 
 7341      4F4E4E45 
 7341      43544142 
 7342              	.LASF397:
 7343 42ce 4359424C 		.ascii	"CYBLE_EVT_CPSS_BROADCAST_DISABLED\000"
 7343      455F4556 
 7343      545F4350 
 7343      53535F42 
 7343      524F4144 
 7344              	.LASF204:
 7345 42f0 61747449 		.ascii	"attId\000"
 7345      6400
 7346              	.LASF76:
 7347 42f6 4359424C 		.ascii	"CYBLE_ERROR_INVALID_OPERATION\000"
 7347      455F4552 
 7347      524F525F 
 7347      494E5641 
 7347      4C49445F 
 7348              	.LASF21:
 7349 4314 4359424C 		.ascii	"CYBLE_EVT_HCI_STATUS\000"
 7349      455F4556 
 7349      545F4843 
 7349      495F5354 
 7349      41545553 
 7350              	.LASF38:
 7351 4329 4359424C 		.ascii	"CYBLE_EVT_GATT_DISCONNECT_IND\000"
 7351      455F4556 
 7351      545F4741 
 7351      54545F44 
 7351      4953434F 
 7352              	.LASF131:
 7353 4347 73757065 		.ascii	"supervisionTO\000"
 7353      72766973 
 7353      696F6E54 
 7353      4F00
ARM GAS  C:\Users\Petro\AppData\Local\Temp\cc4GPyUf.s 			page 187


 7354              	.LASF320:
 7355 4355 4359424C 		.ascii	"CYBLE_KEY_EXCHANGE_INFO_REQUEST_REPLY\000"
 7355      455F4B45 
 7355      595F4558 
 7355      4348414E 
 7355      47455F49 
 7356              	.LASF70:
 7357 437b 4359424C 		.ascii	"CYBLE_EVT_L2CAP_CBFC_DATA_WRITE_IND\000"
 7357      455F4556 
 7357      545F4C32 
 7357      4341505F 
 7357      43424643 
 7358              	.LASF234:
 7359 439f 4359424C 		.ascii	"CYBLE_GAP_ADV_FLAGS\000"
 7359      455F4741 
 7359      505F4144 
 7359      565F464C 
 7359      41475300 
 7360              	.LASF318:
 7361 43b3 4359424C 		.ascii	"CYBLE_PASSKEY_ENTRY_REQUEST_REPLY\000"
 7361      455F5041 
 7361      53534B45 
 7361      595F454E 
 7361      5452595F 
 7362              	.LASF364:
 7363 43d5 4359424C 		.ascii	"CYBLE_EVT_BCSC_WRITE_DESCR_RESPONSE\000"
 7363      455F4556 
 7363      545F4243 
 7363      53435F57 
 7363      52495445 
 7364              	.LASF566:
 7365 43f9 4359424C 		.ascii	"CYBLE_EVT_WSSC_READ_CHAR_RESPONSE\000"
 7365      455F4556 
 7365      545F5753 
 7365      53435F52 
 7365      4541445F 
 7366              	.LASF347:
 7367 441b 4359424C 		.ascii	"CYBLE_EVT_ANSC_NOTIFICATION\000"
 7367      455F4556 
 7367      545F414E 
 7367      53435F4E 
 7367      4F544946 
 7368              	.LASF31:
 7369 4437 4359424C 		.ascii	"CYBLE_EVT_GAP_DEVICE_DISCONNECTED\000"
 7369      455F4556 
 7369      545F4741 
 7369      505F4445 
 7369      56494345 
 7370              	.LASF455:
 7371 4459 4359424C 		.ascii	"CYBLE_EVT_HIDSS_BOOT_MODE_ENTER\000"
 7371      455F4556 
 7371      545F4849 
 7371      4453535F 
 7371      424F4F54 
 7372              	.LASF56:
 7373 4479 4359424C 		.ascii	"CYBLE_EVT_GATTS_HANDLE_VALUE_CNF\000"
 7373      455F4556 
ARM GAS  C:\Users\Petro\AppData\Local\Temp\cc4GPyUf.s 			page 188


 7373      545F4741 
 7373      5454535F 
 7373      48414E44 
 7374              	.LASF416:
 7375 449a 4359424C 		.ascii	"CYBLE_EVT_CSCSC_READ_DESCR_RESPONSE\000"
 7375      455F4556 
 7375      545F4353 
 7375      4353435F 
 7375      52454144 
 7376              	.LASF10:
 7377 44be 75696E74 		.ascii	"uint16\000"
 7377      313600
 7378              	.LASF340:
 7379 44c5 4359424C 		.ascii	"CYBLE_EVT_ANCSC_WRITE_CHAR_RESPONSE\000"
 7379      455F4556 
 7379      545F414E 
 7379      4353435F 
 7379      57524954 
 7380              	.LASF112:
 7381 44e9 6F776E41 		.ascii	"ownAddrType\000"
 7381      64647254 
 7381      79706500 
 7382              	.LASF84:
 7383 44f5 4359424C 		.ascii	"CYBLE_ERROR_TX_POWER_READ\000"
 7383      455F4552 
 7383      524F525F 
 7383      54585F50 
 7383      4F574552 
 7384              	.LASF510:
 7385 450f 4359424C 		.ascii	"CYBLE_EVT_RSCSS_NOTIFICATION_ENABLED\000"
 7385      455F4556 
 7385      545F5253 
 7385      4353535F 
 7385      4E4F5449 
 7386              	.LASF285:
 7387 4534 4359424C 		.ascii	"CYBLE_CPS_CHAR_VALUE_T\000"
 7387      455F4350 
 7387      535F4348 
 7387      41525F56 
 7387      414C5545 
 7388              	.LASF345:
 7389 454b 4359424C 		.ascii	"CYBLE_EVT_ANSS_NOTIFICATION_DISABLED\000"
 7389      455F4556 
 7389      545F414E 
 7389      53535F4E 
 7389      4F544946 
 7390              	.LASF480:
 7391 4570 4359424C 		.ascii	"CYBLE_EVT_HTSC_INDICATION\000"
 7391      455F4556 
 7391      545F4854 
 7391      53435F49 
 7391      4E444943 
 7392              	.LASF244:
 7393 458a 4359424C 		.ascii	"CYBLE_GAP_ADV_CLASS_OF_DEVICE\000"
 7393      455F4741 
 7393      505F4144 
 7393      565F434C 
ARM GAS  C:\Users\Petro\AppData\Local\Temp\cc4GPyUf.s 			page 189


 7393      4153535F 
 7394              	.LASF453:
 7395 45a8 4359424C 		.ascii	"CYBLE_EVT_HIDSS_NOTIFICATION_ENABLED\000"
 7395      455F4556 
 7395      545F4849 
 7395      4453535F 
 7395      4E4F5449 
 7396              	.LASF477:
 7397 45cd 4359424C 		.ascii	"CYBLE_EVT_HTSS_INDICATION_CONFIRMED\000"
 7397      455F4556 
 7397      545F4854 
 7397      53535F49 
 7397      4E444943 
 7398              	.LASF110:
 7399 45f1 61647649 		.ascii	"advIntvMax\000"
 7399      6E74764D 
 7399      617800
 7400              	.LASF554:
 7401 45fc 4359424C 		.ascii	"CYBLE_EVT_WPTSS_INDICATION_CONFIRMED\000"
 7401      455F4556 
 7401      545F5750 
 7401      5453535F 
 7401      494E4449 
 7402              	.LASF467:
 7403 4621 4359424C 		.ascii	"CYBLE_EVT_HRSS_NOTIFICATION_DISABLED\000"
 7403      455F4556 
 7403      545F4852 
 7403      53535F4E 
 7403      4F544946 
 7404              		.ident	"GCC: (GNU Tools for ARM Embedded Processors) 4.9.3 20150303 (release) [ARM/embedded-4_9-br
