ARM GAS  C:\Users\Petro\AppData\Local\Temp\cc3QZWVy.s 			page 1


   1              		.cpu cortex-m0
   2              		.fpu softvfp
   3              		.eabi_attribute 20, 1
   4              		.eabi_attribute 21, 1
   5              		.eabi_attribute 23, 3
   6              		.eabi_attribute 24, 1
   7              		.eabi_attribute 25, 1
   8              		.eabi_attribute 26, 1
   9              		.eabi_attribute 30, 1
  10              		.eabi_attribute 34, 0
  11              		.eabi_attribute 18, 4
  12              		.code	16
  13              		.file	"cyfitter_cfg.c"
  14              		.text
  15              	.Ltext0:
  16              		.cfi_sections	.debug_frame
  17              		.section	.text.cfg_write_bytes32,"ax",%progbits
  18              		.align	2
  19              		.code	16
  20              		.thumb_func
  21              		.type	cfg_write_bytes32, %function
  22              	cfg_write_bytes32:
  23              	.LFB3:
  24              		.file 1 ".\\Generated_Source\\PSoC4\\cyfitter_cfg.c"
   1:.\Generated_Source\PSoC4/cyfitter_cfg.c **** /*******************************************************************************
   2:.\Generated_Source\PSoC4/cyfitter_cfg.c **** * File Name: cyfitter_cfg.c
   3:.\Generated_Source\PSoC4/cyfitter_cfg.c **** * 
   4:.\Generated_Source\PSoC4/cyfitter_cfg.c **** * PSoC Creator  3.3 SP1
   5:.\Generated_Source\PSoC4/cyfitter_cfg.c **** *
   6:.\Generated_Source\PSoC4/cyfitter_cfg.c **** * Description:
   7:.\Generated_Source\PSoC4/cyfitter_cfg.c **** * This file contains device initialization code.
   8:.\Generated_Source\PSoC4/cyfitter_cfg.c **** * Except for the user defined sections in CyClockStartupError(), this file should not be modified.
   9:.\Generated_Source\PSoC4/cyfitter_cfg.c **** * This file is automatically generated by PSoC Creator.
  10:.\Generated_Source\PSoC4/cyfitter_cfg.c **** *
  11:.\Generated_Source\PSoC4/cyfitter_cfg.c **** ********************************************************************************
  12:.\Generated_Source\PSoC4/cyfitter_cfg.c **** * Copyright (c) 2007-2015 Cypress Semiconductor.  All rights reserved.
  13:.\Generated_Source\PSoC4/cyfitter_cfg.c **** * You may use this file only in accordance with the license, terms, conditions, 
  14:.\Generated_Source\PSoC4/cyfitter_cfg.c **** * disclaimers, and limitations in the end user license agreement accompanying 
  15:.\Generated_Source\PSoC4/cyfitter_cfg.c **** * the software package with which this file was provided.
  16:.\Generated_Source\PSoC4/cyfitter_cfg.c **** ********************************************************************************/
  17:.\Generated_Source\PSoC4/cyfitter_cfg.c **** 
  18:.\Generated_Source\PSoC4/cyfitter_cfg.c **** #include <string.h>
  19:.\Generated_Source\PSoC4/cyfitter_cfg.c **** #include "cytypes.h"
  20:.\Generated_Source\PSoC4/cyfitter_cfg.c **** #include "cydevice_trm.h"
  21:.\Generated_Source\PSoC4/cyfitter_cfg.c **** #include "cyfitter.h"
  22:.\Generated_Source\PSoC4/cyfitter_cfg.c **** #include "CyLib.h"
  23:.\Generated_Source\PSoC4/cyfitter_cfg.c **** #include "cyfitter_cfg.h"
  24:.\Generated_Source\PSoC4/cyfitter_cfg.c **** 
  25:.\Generated_Source\PSoC4/cyfitter_cfg.c **** 
  26:.\Generated_Source\PSoC4/cyfitter_cfg.c **** #if defined(__GNUC__) || defined(__ARMCC_VERSION)
  27:.\Generated_Source\PSoC4/cyfitter_cfg.c ****     #define CYPACKED 
  28:.\Generated_Source\PSoC4/cyfitter_cfg.c ****     #define CYPACKED_ATTR __attribute__ ((packed))
  29:.\Generated_Source\PSoC4/cyfitter_cfg.c ****     #define CYALIGNED __attribute__ ((aligned))
  30:.\Generated_Source\PSoC4/cyfitter_cfg.c ****     #define CY_CFG_UNUSED __attribute__ ((unused))
  31:.\Generated_Source\PSoC4/cyfitter_cfg.c ****     #ifndef CY_CFG_SECTION
  32:.\Generated_Source\PSoC4/cyfitter_cfg.c ****         #define CY_CFG_SECTION __attribute__ ((section(".psocinit")))
  33:.\Generated_Source\PSoC4/cyfitter_cfg.c ****     #endif
ARM GAS  C:\Users\Petro\AppData\Local\Temp\cc3QZWVy.s 			page 2


  34:.\Generated_Source\PSoC4/cyfitter_cfg.c ****     
  35:.\Generated_Source\PSoC4/cyfitter_cfg.c ****     #if defined(__ARMCC_VERSION)
  36:.\Generated_Source\PSoC4/cyfitter_cfg.c ****         #define CY_CFG_MEMORY_BARRIER() __memory_changed()
  37:.\Generated_Source\PSoC4/cyfitter_cfg.c ****     #else
  38:.\Generated_Source\PSoC4/cyfitter_cfg.c ****         #define CY_CFG_MEMORY_BARRIER() __sync_synchronize()
  39:.\Generated_Source\PSoC4/cyfitter_cfg.c ****     #endif
  40:.\Generated_Source\PSoC4/cyfitter_cfg.c ****     
  41:.\Generated_Source\PSoC4/cyfitter_cfg.c **** #elif defined(__ICCARM__)
  42:.\Generated_Source\PSoC4/cyfitter_cfg.c ****     #include <intrinsics.h>
  43:.\Generated_Source\PSoC4/cyfitter_cfg.c **** 
  44:.\Generated_Source\PSoC4/cyfitter_cfg.c ****     #define CYPACKED __packed
  45:.\Generated_Source\PSoC4/cyfitter_cfg.c ****     #define CYPACKED_ATTR 
  46:.\Generated_Source\PSoC4/cyfitter_cfg.c ****     #define CYALIGNED _Pragma("data_alignment=4")
  47:.\Generated_Source\PSoC4/cyfitter_cfg.c ****     #define CY_CFG_UNUSED _Pragma("diag_suppress=Pe177")
  48:.\Generated_Source\PSoC4/cyfitter_cfg.c ****     #define CY_CFG_SECTION _Pragma("location=\".psocinit\"")
  49:.\Generated_Source\PSoC4/cyfitter_cfg.c ****     
  50:.\Generated_Source\PSoC4/cyfitter_cfg.c ****     #define CY_CFG_MEMORY_BARRIER() __DMB()
  51:.\Generated_Source\PSoC4/cyfitter_cfg.c ****     
  52:.\Generated_Source\PSoC4/cyfitter_cfg.c **** #else
  53:.\Generated_Source\PSoC4/cyfitter_cfg.c ****     #error Unsupported toolchain
  54:.\Generated_Source\PSoC4/cyfitter_cfg.c **** #endif
  55:.\Generated_Source\PSoC4/cyfitter_cfg.c **** 
  56:.\Generated_Source\PSoC4/cyfitter_cfg.c **** 
  57:.\Generated_Source\PSoC4/cyfitter_cfg.c **** CY_CFG_UNUSED
  58:.\Generated_Source\PSoC4/cyfitter_cfg.c **** static void CYMEMZERO(void *s, size_t n);
  59:.\Generated_Source\PSoC4/cyfitter_cfg.c **** CY_CFG_UNUSED
  60:.\Generated_Source\PSoC4/cyfitter_cfg.c **** static void CYMEMZERO(void *s, size_t n)
  61:.\Generated_Source\PSoC4/cyfitter_cfg.c **** {
  62:.\Generated_Source\PSoC4/cyfitter_cfg.c **** 	(void)memset(s, 0, n);
  63:.\Generated_Source\PSoC4/cyfitter_cfg.c **** }
  64:.\Generated_Source\PSoC4/cyfitter_cfg.c **** CY_CFG_UNUSED
  65:.\Generated_Source\PSoC4/cyfitter_cfg.c **** static void CYCONFIGCPY(void *dest, const void *src, size_t n);
  66:.\Generated_Source\PSoC4/cyfitter_cfg.c **** CY_CFG_UNUSED
  67:.\Generated_Source\PSoC4/cyfitter_cfg.c **** static void CYCONFIGCPY(void *dest, const void *src, size_t n)
  68:.\Generated_Source\PSoC4/cyfitter_cfg.c **** {
  69:.\Generated_Source\PSoC4/cyfitter_cfg.c **** 	(void)memcpy(dest, src, n);
  70:.\Generated_Source\PSoC4/cyfitter_cfg.c **** }
  71:.\Generated_Source\PSoC4/cyfitter_cfg.c **** CY_CFG_UNUSED
  72:.\Generated_Source\PSoC4/cyfitter_cfg.c **** static void CYCONFIGCPYCODE(void *dest, const void *src, size_t n);
  73:.\Generated_Source\PSoC4/cyfitter_cfg.c **** CY_CFG_UNUSED
  74:.\Generated_Source\PSoC4/cyfitter_cfg.c **** static void CYCONFIGCPYCODE(void *dest, const void *src, size_t n)
  75:.\Generated_Source\PSoC4/cyfitter_cfg.c **** {
  76:.\Generated_Source\PSoC4/cyfitter_cfg.c **** 	(void)memcpy(dest, src, n);
  77:.\Generated_Source\PSoC4/cyfitter_cfg.c **** }
  78:.\Generated_Source\PSoC4/cyfitter_cfg.c **** 
  79:.\Generated_Source\PSoC4/cyfitter_cfg.c **** 
  80:.\Generated_Source\PSoC4/cyfitter_cfg.c **** 
  81:.\Generated_Source\PSoC4/cyfitter_cfg.c **** /* Clock startup error codes                                                   */
  82:.\Generated_Source\PSoC4/cyfitter_cfg.c **** #define CYCLOCKSTART_NO_ERROR    0u
  83:.\Generated_Source\PSoC4/cyfitter_cfg.c **** #define CYCLOCKSTART_XTAL_ERROR  1u
  84:.\Generated_Source\PSoC4/cyfitter_cfg.c **** #define CYCLOCKSTART_32KHZ_ERROR 2u
  85:.\Generated_Source\PSoC4/cyfitter_cfg.c **** #define CYCLOCKSTART_PLL_ERROR   3u
  86:.\Generated_Source\PSoC4/cyfitter_cfg.c **** 
  87:.\Generated_Source\PSoC4/cyfitter_cfg.c **** #ifdef CY_NEED_CYCLOCKSTARTUPERROR
  88:.\Generated_Source\PSoC4/cyfitter_cfg.c **** /*******************************************************************************
  89:.\Generated_Source\PSoC4/cyfitter_cfg.c **** * Function Name: CyClockStartupError
  90:.\Generated_Source\PSoC4/cyfitter_cfg.c **** ********************************************************************************
ARM GAS  C:\Users\Petro\AppData\Local\Temp\cc3QZWVy.s 			page 3


  91:.\Generated_Source\PSoC4/cyfitter_cfg.c **** * Summary:
  92:.\Generated_Source\PSoC4/cyfitter_cfg.c **** *  If an error is encountered during clock configuration (crystal startup error,
  93:.\Generated_Source\PSoC4/cyfitter_cfg.c **** *  PLL lock error, etc.), the system will end up here.  Unless reimplemented by
  94:.\Generated_Source\PSoC4/cyfitter_cfg.c **** *  the customer, this function will stop in an infinite loop.
  95:.\Generated_Source\PSoC4/cyfitter_cfg.c **** *
  96:.\Generated_Source\PSoC4/cyfitter_cfg.c **** * Parameters:
  97:.\Generated_Source\PSoC4/cyfitter_cfg.c **** *   void
  98:.\Generated_Source\PSoC4/cyfitter_cfg.c **** *
  99:.\Generated_Source\PSoC4/cyfitter_cfg.c **** * Return:
 100:.\Generated_Source\PSoC4/cyfitter_cfg.c **** *   void
 101:.\Generated_Source\PSoC4/cyfitter_cfg.c **** *
 102:.\Generated_Source\PSoC4/cyfitter_cfg.c **** *******************************************************************************/
 103:.\Generated_Source\PSoC4/cyfitter_cfg.c **** CY_CFG_UNUSED
 104:.\Generated_Source\PSoC4/cyfitter_cfg.c **** static void CyClockStartupError(uint8 errorCode);
 105:.\Generated_Source\PSoC4/cyfitter_cfg.c **** CY_CFG_UNUSED
 106:.\Generated_Source\PSoC4/cyfitter_cfg.c **** static void CyClockStartupError(uint8 errorCode)
 107:.\Generated_Source\PSoC4/cyfitter_cfg.c **** {
 108:.\Generated_Source\PSoC4/cyfitter_cfg.c ****     /* To remove the compiler warning if errorCode not used.                */
 109:.\Generated_Source\PSoC4/cyfitter_cfg.c ****     errorCode = errorCode;
 110:.\Generated_Source\PSoC4/cyfitter_cfg.c **** 
 111:.\Generated_Source\PSoC4/cyfitter_cfg.c ****     /* `#START CyClockStartupError` */
 112:.\Generated_Source\PSoC4/cyfitter_cfg.c **** 
 113:.\Generated_Source\PSoC4/cyfitter_cfg.c ****     /* If we have a clock startup error (bad MHz crystal, PLL lock, etc.),  */
 114:.\Generated_Source\PSoC4/cyfitter_cfg.c ****     /* we will end up here to allow the customer to implement something to  */
 115:.\Generated_Source\PSoC4/cyfitter_cfg.c ****     /* deal with the clock condition.                                       */
 116:.\Generated_Source\PSoC4/cyfitter_cfg.c **** 
 117:.\Generated_Source\PSoC4/cyfitter_cfg.c ****     /* `#END` */
 118:.\Generated_Source\PSoC4/cyfitter_cfg.c **** 
 119:.\Generated_Source\PSoC4/cyfitter_cfg.c ****     /* If nothing else, stop here since the clocks have not started         */
 120:.\Generated_Source\PSoC4/cyfitter_cfg.c ****     /* correctly.                                                           */
 121:.\Generated_Source\PSoC4/cyfitter_cfg.c ****     while(1) {}
 122:.\Generated_Source\PSoC4/cyfitter_cfg.c **** }
 123:.\Generated_Source\PSoC4/cyfitter_cfg.c **** #endif
 124:.\Generated_Source\PSoC4/cyfitter_cfg.c **** 
 125:.\Generated_Source\PSoC4/cyfitter_cfg.c **** #define CY_CFG_BASE_ADDR_COUNT 8u
 126:.\Generated_Source\PSoC4/cyfitter_cfg.c **** CYPACKED typedef struct
 127:.\Generated_Source\PSoC4/cyfitter_cfg.c **** {
 128:.\Generated_Source\PSoC4/cyfitter_cfg.c **** 	uint8 offset;
 129:.\Generated_Source\PSoC4/cyfitter_cfg.c **** 	uint8 value;
 130:.\Generated_Source\PSoC4/cyfitter_cfg.c **** } CYPACKED_ATTR cy_cfg_addrvalue_t;
 131:.\Generated_Source\PSoC4/cyfitter_cfg.c **** 
 132:.\Generated_Source\PSoC4/cyfitter_cfg.c **** 
 133:.\Generated_Source\PSoC4/cyfitter_cfg.c **** 
 134:.\Generated_Source\PSoC4/cyfitter_cfg.c **** /*******************************************************************************
 135:.\Generated_Source\PSoC4/cyfitter_cfg.c **** * Function Name: cfg_write_bytes32
 136:.\Generated_Source\PSoC4/cyfitter_cfg.c **** ********************************************************************************
 137:.\Generated_Source\PSoC4/cyfitter_cfg.c **** * Summary:
 138:.\Generated_Source\PSoC4/cyfitter_cfg.c **** *  This function is used for setting up the chip configuration areas that
 139:.\Generated_Source\PSoC4/cyfitter_cfg.c **** *  contain relatively sparse data.
 140:.\Generated_Source\PSoC4/cyfitter_cfg.c **** *
 141:.\Generated_Source\PSoC4/cyfitter_cfg.c **** * Parameters:
 142:.\Generated_Source\PSoC4/cyfitter_cfg.c **** *   void
 143:.\Generated_Source\PSoC4/cyfitter_cfg.c **** *
 144:.\Generated_Source\PSoC4/cyfitter_cfg.c **** * Return:
 145:.\Generated_Source\PSoC4/cyfitter_cfg.c **** *   void
 146:.\Generated_Source\PSoC4/cyfitter_cfg.c **** *
 147:.\Generated_Source\PSoC4/cyfitter_cfg.c **** *******************************************************************************/
ARM GAS  C:\Users\Petro\AppData\Local\Temp\cc3QZWVy.s 			page 4


 148:.\Generated_Source\PSoC4/cyfitter_cfg.c **** static void cfg_write_bytes32(const uint32 addr_table[], const cy_cfg_addrvalue_t data_table[]);
 149:.\Generated_Source\PSoC4/cyfitter_cfg.c **** static void cfg_write_bytes32(const uint32 addr_table[], const cy_cfg_addrvalue_t data_table[])
 150:.\Generated_Source\PSoC4/cyfitter_cfg.c **** {
  25              		.loc 1 150 0
  26              		.cfi_startproc
  27              	.LVL0:
  28 0000 F0B5     		push	{r4, r5, r6, r7, lr}
  29              		.cfi_def_cfa_offset 20
  30              		.cfi_offset 4, -20
  31              		.cfi_offset 5, -16
  32              		.cfi_offset 6, -12
  33              		.cfi_offset 7, -8
  34              		.cfi_offset 14, -4
  35              	.LVL1:
 151:.\Generated_Source\PSoC4/cyfitter_cfg.c **** 	/* For 32-bit little-endian architectures */
 152:.\Generated_Source\PSoC4/cyfitter_cfg.c **** 	uint32 i, j = 0u;
  36              		.loc 1 152 0
  37 0002 0025     		mov	r5, #0
 153:.\Generated_Source\PSoC4/cyfitter_cfg.c **** 	for (i = 0u; i < CY_CFG_BASE_ADDR_COUNT; i++)
  38              		.loc 1 153 0
  39 0004 0027     		mov	r7, #0
  40 0006 11E0     		b	.L2
  41              	.LVL2:
  42              	.L5:
  43              	.LBB2:
 154:.\Generated_Source\PSoC4/cyfitter_cfg.c **** 	{
 155:.\Generated_Source\PSoC4/cyfitter_cfg.c **** 		uint32 baseAddr = addr_table[i];
  44              		.loc 1 155 0
  45 0008 BB00     		lsl	r3, r7, #2
  46 000a C658     		ldr	r6, [r0, r3]
  47              	.LVL3:
 156:.\Generated_Source\PSoC4/cyfitter_cfg.c **** 		uint8 count = (uint8)baseAddr;
  48              		.loc 1 156 0
  49 000c F3B2     		uxtb	r3, r6
  50              	.LVL4:
 157:.\Generated_Source\PSoC4/cyfitter_cfg.c **** 		baseAddr &= 0xFFFFFF00u;
  51              		.loc 1 157 0
  52 000e FF22     		mov	r2, #255
  53 0010 9643     		bic	r6, r2
  54              	.LVL5:
 158:.\Generated_Source\PSoC4/cyfitter_cfg.c **** 		while (count != 0u)
  55              		.loc 1 158 0
  56 0012 08E0     		b	.L3
  57              	.L4:
 159:.\Generated_Source\PSoC4/cyfitter_cfg.c **** 		{
 160:.\Generated_Source\PSoC4/cyfitter_cfg.c **** 			CY_SET_XTND_REG8((void CYFAR *)(baseAddr + data_table[j].offset), data_table[j].value);
  58              		.loc 1 160 0
  59 0014 6A00     		lsl	r2, r5, #1
  60 0016 8A18     		add	r2, r1, r2
  61 0018 1478     		ldrb	r4, [r2]
  62 001a A419     		add	r4, r4, r6
  63 001c 5278     		ldrb	r2, [r2, #1]
  64 001e 2270     		strb	r2, [r4]
 161:.\Generated_Source\PSoC4/cyfitter_cfg.c **** 			j++;
  65              		.loc 1 161 0
  66 0020 0135     		add	r5, r5, #1
  67              	.LVL6:
ARM GAS  C:\Users\Petro\AppData\Local\Temp\cc3QZWVy.s 			page 5


 162:.\Generated_Source\PSoC4/cyfitter_cfg.c **** 			count--;
  68              		.loc 1 162 0
  69 0022 013B     		sub	r3, r3, #1
  70              	.LVL7:
  71 0024 DBB2     		uxtb	r3, r3
  72              	.LVL8:
  73              	.L3:
 158:.\Generated_Source\PSoC4/cyfitter_cfg.c **** 		{
  74              		.loc 1 158 0
  75 0026 002B     		cmp	r3, #0
  76 0028 F4D1     		bne	.L4
  77              	.LBE2:
 153:.\Generated_Source\PSoC4/cyfitter_cfg.c **** 	{
  78              		.loc 1 153 0 discriminator 2
  79 002a 0137     		add	r7, r7, #1
  80              	.LVL9:
  81              	.L2:
 153:.\Generated_Source\PSoC4/cyfitter_cfg.c **** 	{
  82              		.loc 1 153 0 is_stmt 0 discriminator 1
  83 002c 072F     		cmp	r7, #7
  84 002e EBD9     		bls	.L5
 163:.\Generated_Source\PSoC4/cyfitter_cfg.c **** 		}
 164:.\Generated_Source\PSoC4/cyfitter_cfg.c **** 	}
 165:.\Generated_Source\PSoC4/cyfitter_cfg.c **** }
  85              		.loc 1 165 0 is_stmt 1
  86              		@ sp needed
  87              	.LVL10:
  88              	.LVL11:
  89 0030 F0BD     		pop	{r4, r5, r6, r7, pc}
  90              		.cfi_endproc
  91              	.LFE3:
  92              		.size	cfg_write_bytes32, .-cfg_write_bytes32
  93 0032 C046     		.section	.text.CYMEMZERO,"ax",%progbits
  94              		.align	2
  95              		.code	16
  96              		.thumb_func
  97              		.type	CYMEMZERO, %function
  98              	CYMEMZERO:
  99              	.LFB0:
  61:.\Generated_Source\PSoC4/cyfitter_cfg.c **** 	(void)memset(s, 0, n);
 100              		.loc 1 61 0
 101              		.cfi_startproc
 102              	.LVL12:
 103 0000 08B5     		push	{r3, lr}
 104              		.cfi_def_cfa_offset 8
 105              		.cfi_offset 3, -8
 106              		.cfi_offset 14, -4
 107 0002 0A1C     		mov	r2, r1
  62:.\Generated_Source\PSoC4/cyfitter_cfg.c **** }
 108              		.loc 1 62 0
 109 0004 0021     		mov	r1, #0
 110              	.LVL13:
 111 0006 FFF7FEFF 		bl	memset
 112              	.LVL14:
  63:.\Generated_Source\PSoC4/cyfitter_cfg.c **** CY_CFG_UNUSED
 113              		.loc 1 63 0
 114              		@ sp needed
ARM GAS  C:\Users\Petro\AppData\Local\Temp\cc3QZWVy.s 			page 6


 115 000a 08BD     		pop	{r3, pc}
 116              		.cfi_endproc
 117              	.LFE0:
 118              		.size	CYMEMZERO, .-CYMEMZERO
 119              		.section	.text.CYCONFIGCPYCODE,"ax",%progbits
 120              		.align	2
 121              		.code	16
 122              		.thumb_func
 123              		.type	CYCONFIGCPYCODE, %function
 124              	CYCONFIGCPYCODE:
 125              	.LFB2:
  75:.\Generated_Source\PSoC4/cyfitter_cfg.c **** 	(void)memcpy(dest, src, n);
 126              		.loc 1 75 0
 127              		.cfi_startproc
 128              	.LVL15:
 129 0000 08B5     		push	{r3, lr}
 130              		.cfi_def_cfa_offset 8
 131              		.cfi_offset 3, -8
 132              		.cfi_offset 14, -4
  76:.\Generated_Source\PSoC4/cyfitter_cfg.c **** }
 133              		.loc 1 76 0
 134 0002 FFF7FEFF 		bl	memcpy
 135              	.LVL16:
  77:.\Generated_Source\PSoC4/cyfitter_cfg.c **** 
 136              		.loc 1 77 0
 137              		@ sp needed
 138 0006 08BD     		pop	{r3, pc}
 139              		.cfi_endproc
 140              	.LFE2:
 141              		.size	CYCONFIGCPYCODE, .-CYCONFIGCPYCODE
 142              		.section	.psocinit,"ax",%progbits
 143              		.align	2
 144              		.code	16
 145              		.thumb_func
 146              		.type	ClockSetup, %function
 147              	ClockSetup:
 148              	.LFB4:
 166:.\Generated_Source\PSoC4/cyfitter_cfg.c **** 
 167:.\Generated_Source\PSoC4/cyfitter_cfg.c **** 
 168:.\Generated_Source\PSoC4/cyfitter_cfg.c **** /*******************************************************************************
 169:.\Generated_Source\PSoC4/cyfitter_cfg.c **** * Function Name: ClockSetup
 170:.\Generated_Source\PSoC4/cyfitter_cfg.c **** ********************************************************************************
 171:.\Generated_Source\PSoC4/cyfitter_cfg.c **** *
 172:.\Generated_Source\PSoC4/cyfitter_cfg.c **** * Summary:
 173:.\Generated_Source\PSoC4/cyfitter_cfg.c **** *   Performs the initialization of all of the clocks in the device based on the
 174:.\Generated_Source\PSoC4/cyfitter_cfg.c **** *   settings in the Clock tab of the DWR.  This includes enabling the requested
 175:.\Generated_Source\PSoC4/cyfitter_cfg.c **** *   clocks and setting the necessary dividers to produce the desired frequency. 
 176:.\Generated_Source\PSoC4/cyfitter_cfg.c **** *
 177:.\Generated_Source\PSoC4/cyfitter_cfg.c **** * Parameters:
 178:.\Generated_Source\PSoC4/cyfitter_cfg.c **** *   void
 179:.\Generated_Source\PSoC4/cyfitter_cfg.c **** *
 180:.\Generated_Source\PSoC4/cyfitter_cfg.c **** * Return:
 181:.\Generated_Source\PSoC4/cyfitter_cfg.c **** *   void
 182:.\Generated_Source\PSoC4/cyfitter_cfg.c **** *
 183:.\Generated_Source\PSoC4/cyfitter_cfg.c **** *******************************************************************************/
 184:.\Generated_Source\PSoC4/cyfitter_cfg.c **** static void ClockSetup(void);
 185:.\Generated_Source\PSoC4/cyfitter_cfg.c **** CY_CFG_SECTION
ARM GAS  C:\Users\Petro\AppData\Local\Temp\cc3QZWVy.s 			page 7


 186:.\Generated_Source\PSoC4/cyfitter_cfg.c **** static void ClockSetup(void)
 187:.\Generated_Source\PSoC4/cyfitter_cfg.c **** {
 149              		.loc 1 187 0
 150              		.cfi_startproc
 151 0000 10B5     		push	{r4, lr}
 152              		.cfi_def_cfa_offset 8
 153              		.cfi_offset 4, -8
 154              		.cfi_offset 14, -4
 188:.\Generated_Source\PSoC4/cyfitter_cfg.c **** 	/* Enable HALF_EN before trimming for the flash accelerator. */
 189:.\Generated_Source\PSoC4/cyfitter_cfg.c **** 	CY_SET_REG32((void CYXDATA *)(CYREG_CLK_SELECT), (CY_GET_REG32((void *)CYREG_CLK_SELECT) | 0x00040
 155              		.loc 1 189 0
 156 0002 164C     		ldr	r4, .L10
 157 0004 2368     		ldr	r3, [r4]
 158 0006 8022     		mov	r2, #128
 159 0008 D202     		lsl	r2, r2, #11
 160 000a 1343     		orr	r3, r2
 161 000c 2360     		str	r3, [r4]
 190:.\Generated_Source\PSoC4/cyfitter_cfg.c **** 
 191:.\Generated_Source\PSoC4/cyfitter_cfg.c **** 	/* Setup and trim IMO based on desired frequency. */
 192:.\Generated_Source\PSoC4/cyfitter_cfg.c **** 	CySysClkWriteImoFreq(24u);
 162              		.loc 1 192 0
 163 000e 1820     		mov	r0, #24
 164 0010 FFF7FEFF 		bl	CySysClkWriteImoFreq
 165              	.LVL17:
 193:.\Generated_Source\PSoC4/cyfitter_cfg.c **** 
 194:.\Generated_Source\PSoC4/cyfitter_cfg.c **** 	/* Disable HALF_EN since it is not required at this IMO frequency. */
 195:.\Generated_Source\PSoC4/cyfitter_cfg.c **** 	CY_SET_REG32((void CYXDATA *)(CYREG_CLK_SELECT), (CY_GET_REG32((void *)CYREG_CLK_SELECT) & 0xFFFBF
 166              		.loc 1 195 0
 167 0014 2268     		ldr	r2, [r4]
 168 0016 124B     		ldr	r3, .L10+4
 169 0018 1340     		and	r3, r2
 170 001a 2360     		str	r3, [r4]
 196:.\Generated_Source\PSoC4/cyfitter_cfg.c **** 	/* CYDEV_CLK_ILO_CONFIG Starting address: CYDEV_CLK_ILO_CONFIG */
 197:.\Generated_Source\PSoC4/cyfitter_cfg.c **** 	CY_SET_XTND_REG32((void CYFAR *)(CYREG_CLK_ILO_CONFIG), 0x80000006u);
 171              		.loc 1 197 0
 172 001c 114A     		ldr	r2, .L10+8
 173 001e 124B     		ldr	r3, .L10+12
 174 0020 1A60     		str	r2, [r3]
 198:.\Generated_Source\PSoC4/cyfitter_cfg.c **** 
 199:.\Generated_Source\PSoC4/cyfitter_cfg.c **** 
 200:.\Generated_Source\PSoC4/cyfitter_cfg.c **** 	/* CYDEV_CLK_SELECT00 Starting address: CYDEV_CLK_SELECT00 */
 201:.\Generated_Source\PSoC4/cyfitter_cfg.c **** 	CY_SET_XTND_REG32((void CYFAR *)(CYREG_CLK_SELECT12), 0x00000010u);
 175              		.loc 1 201 0
 176 0022 1022     		mov	r2, #16
 177 0024 114B     		ldr	r3, .L10+16
 178 0026 1A60     		str	r2, [r3]
 202:.\Generated_Source\PSoC4/cyfitter_cfg.c **** 
 203:.\Generated_Source\PSoC4/cyfitter_cfg.c **** 	/* CYDEV_CLK_IMO_CONFIG Starting address: CYDEV_CLK_IMO_CONFIG */
 204:.\Generated_Source\PSoC4/cyfitter_cfg.c **** 	CY_SET_XTND_REG32((void CYFAR *)(CYREG_CLK_IMO_CONFIG), 0x80000000u);
 179              		.loc 1 204 0
 180 0028 8022     		mov	r2, #128
 181 002a 1206     		lsl	r2, r2, #24
 182 002c 104B     		ldr	r3, .L10+20
 183 002e 1A60     		str	r2, [r3]
 205:.\Generated_Source\PSoC4/cyfitter_cfg.c **** 
 206:.\Generated_Source\PSoC4/cyfitter_cfg.c **** 	/* CYDEV_CLK_SELECT Starting address: CYDEV_CLK_SELECT */
 207:.\Generated_Source\PSoC4/cyfitter_cfg.c **** 	CY_SET_XTND_REG32((void CYFAR *)(CYREG_CLK_SELECT), 0x00000000u);
ARM GAS  C:\Users\Petro\AppData\Local\Temp\cc3QZWVy.s 			page 8


 184              		.loc 1 207 0
 185 0030 0023     		mov	r3, #0
 186 0032 2360     		str	r3, [r4]
 208:.\Generated_Source\PSoC4/cyfitter_cfg.c **** 
 209:.\Generated_Source\PSoC4/cyfitter_cfg.c **** 	/* CYDEV_CLK_DIVIDER_A00 Starting address: CYDEV_CLK_DIVIDER_A00 */
 210:.\Generated_Source\PSoC4/cyfitter_cfg.c **** 	CY_SET_XTND_REG32((void CYFAR *)(CYREG_CLK_DIVIDER_A00), 0x80000138u);
 187              		.loc 1 210 0
 188 0034 0F4A     		ldr	r2, .L10+24
 189 0036 104B     		ldr	r3, .L10+28
 190 0038 1A60     		str	r2, [r3]
 211:.\Generated_Source\PSoC4/cyfitter_cfg.c **** 
 212:.\Generated_Source\PSoC4/cyfitter_cfg.c **** 	CY_SET_XTND_REG32((void CYFAR *)(CYREG_WDT_MATCH), 0x0000FFFEu);
 191              		.loc 1 212 0
 192 003a 104A     		ldr	r2, .L10+32
 193 003c 104B     		ldr	r3, .L10+36
 194 003e 1A60     		str	r2, [r3]
 213:.\Generated_Source\PSoC4/cyfitter_cfg.c **** 	CY_SET_XTND_REG32((void CYFAR *)(CYREG_WDT_CONFIG), 0x00000005u);
 195              		.loc 1 213 0
 196 0040 0522     		mov	r2, #5
 197 0042 104B     		ldr	r3, .L10+40
 198 0044 1A60     		str	r2, [r3]
 214:.\Generated_Source\PSoC4/cyfitter_cfg.c **** 	CY_SET_XTND_REG32((void CYFAR *)(CYREG_WDT_CONTROL), 0x00000008u);
 199              		.loc 1 214 0
 200 0046 0332     		add	r2, r2, #3
 201 0048 0F4B     		ldr	r3, .L10+44
 202 004a 1A60     		str	r2, [r3]
 203              	.L9:
 215:.\Generated_Source\PSoC4/cyfitter_cfg.c **** 	while ((CY_GET_XTND_REG32((void CYFAR *)(CYREG_WDT_CONTROL)) & 0x00000008u) != 0u) { }
 204              		.loc 1 215 0 discriminator 1
 205 004c 0E4B     		ldr	r3, .L10+44
 206 004e 1B68     		ldr	r3, [r3]
 207 0050 1B07     		lsl	r3, r3, #28
 208 0052 FBD4     		bmi	.L9
 216:.\Generated_Source\PSoC4/cyfitter_cfg.c **** 	CY_SET_XTND_REG32((void CYFAR *)(CYREG_WDT_CONTROL), 0x00000001u);
 209              		.loc 1 216 0
 210 0054 0122     		mov	r2, #1
 211 0056 0C4B     		ldr	r3, .L10+44
 212 0058 1A60     		str	r2, [r3]
 217:.\Generated_Source\PSoC4/cyfitter_cfg.c **** }
 213              		.loc 1 217 0
 214              		@ sp needed
 215 005a 10BD     		pop	{r4, pc}
 216              	.L11:
 217              		.align	2
 218              	.L10:
 219 005c 00010B40 		.word	1074462976
 220 0060 FFFFFBFF 		.word	-262145
 221 0064 06000080 		.word	-2147483642
 222 0068 04010B40 		.word	1074462980
 223 006c 30020240 		.word	1073873456
 224 0070 08010B40 		.word	1074462984
 225 0074 38010080 		.word	-2147483336
 226 0078 00000240 		.word	1073872896
 227 007c FEFF0000 		.word	65534
 228 0080 08020B40 		.word	1074463240
 229 0084 0C020B40 		.word	1074463244
 230 0088 10020B40 		.word	1074463248
ARM GAS  C:\Users\Petro\AppData\Local\Temp\cc3QZWVy.s 			page 9


 231              		.cfi_endproc
 232              	.LFE4:
 233              		.size	ClockSetup, .-ClockSetup
 234              		.align	2
 235              		.global	cyfitter_cfg
 236              		.code	16
 237              		.thumb_func
 238              		.type	cyfitter_cfg, %function
 239              	cyfitter_cfg:
 240              	.LFB6:
 218:.\Generated_Source\PSoC4/cyfitter_cfg.c **** 
 219:.\Generated_Source\PSoC4/cyfitter_cfg.c **** 
 220:.\Generated_Source\PSoC4/cyfitter_cfg.c **** /* Analog API Functions */
 221:.\Generated_Source\PSoC4/cyfitter_cfg.c **** 
 222:.\Generated_Source\PSoC4/cyfitter_cfg.c **** 
 223:.\Generated_Source\PSoC4/cyfitter_cfg.c **** /*******************************************************************************
 224:.\Generated_Source\PSoC4/cyfitter_cfg.c **** * Function Name: AnalogSetDefault
 225:.\Generated_Source\PSoC4/cyfitter_cfg.c **** ********************************************************************************
 226:.\Generated_Source\PSoC4/cyfitter_cfg.c **** *
 227:.\Generated_Source\PSoC4/cyfitter_cfg.c **** * Summary:
 228:.\Generated_Source\PSoC4/cyfitter_cfg.c **** *  Sets up the analog portions of the chip to default values based on chip
 229:.\Generated_Source\PSoC4/cyfitter_cfg.c **** *  configuration options from the project.
 230:.\Generated_Source\PSoC4/cyfitter_cfg.c **** *
 231:.\Generated_Source\PSoC4/cyfitter_cfg.c **** * Parameters:
 232:.\Generated_Source\PSoC4/cyfitter_cfg.c **** *  void
 233:.\Generated_Source\PSoC4/cyfitter_cfg.c **** *
 234:.\Generated_Source\PSoC4/cyfitter_cfg.c **** * Return:
 235:.\Generated_Source\PSoC4/cyfitter_cfg.c **** *  void
 236:.\Generated_Source\PSoC4/cyfitter_cfg.c **** *
 237:.\Generated_Source\PSoC4/cyfitter_cfg.c **** *******************************************************************************/
 238:.\Generated_Source\PSoC4/cyfitter_cfg.c **** static void AnalogSetDefault(void);
 239:.\Generated_Source\PSoC4/cyfitter_cfg.c **** static void AnalogSetDefault(void)
 240:.\Generated_Source\PSoC4/cyfitter_cfg.c **** {
 241:.\Generated_Source\PSoC4/cyfitter_cfg.c **** }
 242:.\Generated_Source\PSoC4/cyfitter_cfg.c **** 
 243:.\Generated_Source\PSoC4/cyfitter_cfg.c **** #define CY_AMUX_UNUSED CYREG_CM0_ROM_DWT
 244:.\Generated_Source\PSoC4/cyfitter_cfg.c **** 
 245:.\Generated_Source\PSoC4/cyfitter_cfg.c **** 
 246:.\Generated_Source\PSoC4/cyfitter_cfg.c **** /*******************************************************************************
 247:.\Generated_Source\PSoC4/cyfitter_cfg.c **** * Function Name: cyfitter_cfg
 248:.\Generated_Source\PSoC4/cyfitter_cfg.c **** ********************************************************************************
 249:.\Generated_Source\PSoC4/cyfitter_cfg.c **** * Summary:
 250:.\Generated_Source\PSoC4/cyfitter_cfg.c **** *  This function is called by the start-up code for the selected device. It
 251:.\Generated_Source\PSoC4/cyfitter_cfg.c **** *  performs all of the necessary device configuration based on the design
 252:.\Generated_Source\PSoC4/cyfitter_cfg.c **** *  settings.  This includes settings from the Design Wide Resources (DWR) such
 253:.\Generated_Source\PSoC4/cyfitter_cfg.c **** *  as Clocks and Pins as well as any component configuration that is necessary.
 254:.\Generated_Source\PSoC4/cyfitter_cfg.c **** *
 255:.\Generated_Source\PSoC4/cyfitter_cfg.c **** * Parameters:  
 256:.\Generated_Source\PSoC4/cyfitter_cfg.c **** *   void
 257:.\Generated_Source\PSoC4/cyfitter_cfg.c **** *
 258:.\Generated_Source\PSoC4/cyfitter_cfg.c **** * Return:
 259:.\Generated_Source\PSoC4/cyfitter_cfg.c **** *   void
 260:.\Generated_Source\PSoC4/cyfitter_cfg.c **** *
 261:.\Generated_Source\PSoC4/cyfitter_cfg.c **** *******************************************************************************/
 262:.\Generated_Source\PSoC4/cyfitter_cfg.c **** CY_CFG_SECTION
 263:.\Generated_Source\PSoC4/cyfitter_cfg.c **** void cyfitter_cfg(void)
 264:.\Generated_Source\PSoC4/cyfitter_cfg.c **** {
ARM GAS  C:\Users\Petro\AppData\Local\Temp\cc3QZWVy.s 			page 10


 241              		.loc 1 264 0
 242              		.cfi_startproc
 243 008c 38B5     		push	{r3, r4, r5, lr}
 244              		.cfi_def_cfa_offset 16
 245              		.cfi_offset 3, -16
 246              		.cfi_offset 4, -12
 247              		.cfi_offset 5, -8
 248              		.cfi_offset 14, -4
 265:.\Generated_Source\PSoC4/cyfitter_cfg.c **** 	/* Disable interrupts by default. Let user enable if/when they want. */
 266:.\Generated_Source\PSoC4/cyfitter_cfg.c **** 	CyGlobalIntDisable;
 249              		.loc 1 266 0
 250              	@ 266 ".\Generated_Source\PSoC4\cyfitter_cfg.c" 1
 251 008e 72B6     		CPSID   i
 252              	@ 0 "" 2
 267:.\Generated_Source\PSoC4/cyfitter_cfg.c **** 
 268:.\Generated_Source\PSoC4/cyfitter_cfg.c **** 	/* Enable the clock in the interrupt controller for the routed interrupts */
 269:.\Generated_Source\PSoC4/cyfitter_cfg.c **** 	CY_SET_REG8((void *)CYREG_UDB_UDBIF_INT_CLK_CTL, 0x01u);
 253              		.loc 1 269 0
 254              		.code	16
 255 0090 0122     		mov	r2, #1
 256 0092 454B     		ldr	r3, .L17
 257 0094 1A70     		strb	r2, [r3]
 258              	.LVL18:
 259              	.LBB3:
 270:.\Generated_Source\PSoC4/cyfitter_cfg.c **** 	{
 271:.\Generated_Source\PSoC4/cyfitter_cfg.c **** 		static const uint32 CYCODE cy_cfg_addr_table[] = {
 272:.\Generated_Source\PSoC4/cyfitter_cfg.c **** 			0x400F0003u, /* Base address: 0x400F0000 Count: 3 */
 273:.\Generated_Source\PSoC4/cyfitter_cfg.c **** 			0x400F3015u, /* Base address: 0x400F3000 Count: 21 */
 274:.\Generated_Source\PSoC4/cyfitter_cfg.c **** 			0x400F3142u, /* Base address: 0x400F3100 Count: 66 */
 275:.\Generated_Source\PSoC4/cyfitter_cfg.c **** 			0x400F326Cu, /* Base address: 0x400F3200 Count: 108 */
 276:.\Generated_Source\PSoC4/cyfitter_cfg.c **** 			0x400F3347u, /* Base address: 0x400F3300 Count: 71 */
 277:.\Generated_Source\PSoC4/cyfitter_cfg.c **** 			0x400F4011u, /* Base address: 0x400F4000 Count: 17 */
 278:.\Generated_Source\PSoC4/cyfitter_cfg.c **** 			0x400F4102u, /* Base address: 0x400F4100 Count: 2 */
 279:.\Generated_Source\PSoC4/cyfitter_cfg.c **** 			0x400F6002u, /* Base address: 0x400F6000 Count: 2 */
 280:.\Generated_Source\PSoC4/cyfitter_cfg.c **** 		};
 281:.\Generated_Source\PSoC4/cyfitter_cfg.c **** 
 282:.\Generated_Source\PSoC4/cyfitter_cfg.c **** 		static const cy_cfg_addrvalue_t CYCODE cy_cfg_data_table[] = {
 283:.\Generated_Source\PSoC4/cyfitter_cfg.c **** 			{0x80u, 0x72u},
 284:.\Generated_Source\PSoC4/cyfitter_cfg.c **** 			{0x81u, 0x38u},
 285:.\Generated_Source\PSoC4/cyfitter_cfg.c **** 			{0x83u, 0x0Fu},
 286:.\Generated_Source\PSoC4/cyfitter_cfg.c **** 			{0x82u, 0x01u},
 287:.\Generated_Source\PSoC4/cyfitter_cfg.c **** 			{0x88u, 0x04u},
 288:.\Generated_Source\PSoC4/cyfitter_cfg.c **** 			{0x95u, 0x01u},
 289:.\Generated_Source\PSoC4/cyfitter_cfg.c **** 			{0x9Eu, 0x01u},
 290:.\Generated_Source\PSoC4/cyfitter_cfg.c **** 			{0xA2u, 0x02u},
 291:.\Generated_Source\PSoC4/cyfitter_cfg.c **** 			{0xA4u, 0x04u},
 292:.\Generated_Source\PSoC4/cyfitter_cfg.c **** 			{0xAAu, 0x02u},
 293:.\Generated_Source\PSoC4/cyfitter_cfg.c **** 			{0xB1u, 0x01u},
 294:.\Generated_Source\PSoC4/cyfitter_cfg.c **** 			{0xB2u, 0x02u},
 295:.\Generated_Source\PSoC4/cyfitter_cfg.c **** 			{0xB4u, 0x01u},
 296:.\Generated_Source\PSoC4/cyfitter_cfg.c **** 			{0xB6u, 0x04u},
 297:.\Generated_Source\PSoC4/cyfitter_cfg.c **** 			{0xB8u, 0x80u},
 298:.\Generated_Source\PSoC4/cyfitter_cfg.c **** 			{0xBAu, 0x02u},
 299:.\Generated_Source\PSoC4/cyfitter_cfg.c **** 			{0xBEu, 0x54u},
 300:.\Generated_Source\PSoC4/cyfitter_cfg.c **** 			{0xBFu, 0x01u},
 301:.\Generated_Source\PSoC4/cyfitter_cfg.c **** 			{0xD4u, 0x18u},
 302:.\Generated_Source\PSoC4/cyfitter_cfg.c **** 			{0xD6u, 0x04u},
ARM GAS  C:\Users\Petro\AppData\Local\Temp\cc3QZWVy.s 			page 11


 303:.\Generated_Source\PSoC4/cyfitter_cfg.c **** 			{0xD8u, 0x04u},
 304:.\Generated_Source\PSoC4/cyfitter_cfg.c **** 			{0xD9u, 0x04u},
 305:.\Generated_Source\PSoC4/cyfitter_cfg.c **** 			{0xDBu, 0x04u},
 306:.\Generated_Source\PSoC4/cyfitter_cfg.c **** 			{0xDFu, 0x01u},
 307:.\Generated_Source\PSoC4/cyfitter_cfg.c **** 			{0x00u, 0x40u},
 308:.\Generated_Source\PSoC4/cyfitter_cfg.c **** 			{0x03u, 0x28u},
 309:.\Generated_Source\PSoC4/cyfitter_cfg.c **** 			{0x04u, 0x20u},
 310:.\Generated_Source\PSoC4/cyfitter_cfg.c **** 			{0x05u, 0x01u},
 311:.\Generated_Source\PSoC4/cyfitter_cfg.c **** 			{0x08u, 0x90u},
 312:.\Generated_Source\PSoC4/cyfitter_cfg.c **** 			{0x09u, 0x08u},
 313:.\Generated_Source\PSoC4/cyfitter_cfg.c **** 			{0x0Au, 0x40u},
 314:.\Generated_Source\PSoC4/cyfitter_cfg.c **** 			{0x0Eu, 0x01u},
 315:.\Generated_Source\PSoC4/cyfitter_cfg.c **** 			{0x10u, 0x80u},
 316:.\Generated_Source\PSoC4/cyfitter_cfg.c **** 			{0x12u, 0x01u},
 317:.\Generated_Source\PSoC4/cyfitter_cfg.c **** 			{0x13u, 0x14u},
 318:.\Generated_Source\PSoC4/cyfitter_cfg.c **** 			{0x14u, 0x20u},
 319:.\Generated_Source\PSoC4/cyfitter_cfg.c **** 			{0x16u, 0x04u},
 320:.\Generated_Source\PSoC4/cyfitter_cfg.c **** 			{0x17u, 0x02u},
 321:.\Generated_Source\PSoC4/cyfitter_cfg.c **** 			{0x19u, 0x62u},
 322:.\Generated_Source\PSoC4/cyfitter_cfg.c **** 			{0x1Au, 0x01u},
 323:.\Generated_Source\PSoC4/cyfitter_cfg.c **** 			{0x1Bu, 0x08u},
 324:.\Generated_Source\PSoC4/cyfitter_cfg.c **** 			{0x1Cu, 0x40u},
 325:.\Generated_Source\PSoC4/cyfitter_cfg.c **** 			{0x1Eu, 0x08u},
 326:.\Generated_Source\PSoC4/cyfitter_cfg.c **** 			{0x1Fu, 0x44u},
 327:.\Generated_Source\PSoC4/cyfitter_cfg.c **** 			{0x22u, 0x01u},
 328:.\Generated_Source\PSoC4/cyfitter_cfg.c **** 			{0x23u, 0x1Au},
 329:.\Generated_Source\PSoC4/cyfitter_cfg.c **** 			{0x27u, 0x40u},
 330:.\Generated_Source\PSoC4/cyfitter_cfg.c **** 			{0x29u, 0x20u},
 331:.\Generated_Source\PSoC4/cyfitter_cfg.c **** 			{0x2Au, 0x01u},
 332:.\Generated_Source\PSoC4/cyfitter_cfg.c **** 			{0x2Bu, 0x02u},
 333:.\Generated_Source\PSoC4/cyfitter_cfg.c **** 			{0x31u, 0x10u},
 334:.\Generated_Source\PSoC4/cyfitter_cfg.c **** 			{0x32u, 0x01u},
 335:.\Generated_Source\PSoC4/cyfitter_cfg.c **** 			{0x33u, 0x08u},
 336:.\Generated_Source\PSoC4/cyfitter_cfg.c **** 			{0x35u, 0x04u},
 337:.\Generated_Source\PSoC4/cyfitter_cfg.c **** 			{0x38u, 0x48u},
 338:.\Generated_Source\PSoC4/cyfitter_cfg.c **** 			{0x3Au, 0x02u},
 339:.\Generated_Source\PSoC4/cyfitter_cfg.c **** 			{0x3Bu, 0x10u},
 340:.\Generated_Source\PSoC4/cyfitter_cfg.c **** 			{0x40u, 0x09u},
 341:.\Generated_Source\PSoC4/cyfitter_cfg.c **** 			{0x41u, 0x01u},
 342:.\Generated_Source\PSoC4/cyfitter_cfg.c **** 			{0x42u, 0x40u},
 343:.\Generated_Source\PSoC4/cyfitter_cfg.c **** 			{0x43u, 0x02u},
 344:.\Generated_Source\PSoC4/cyfitter_cfg.c **** 			{0x49u, 0x61u},
 345:.\Generated_Source\PSoC4/cyfitter_cfg.c **** 			{0x52u, 0x04u},
 346:.\Generated_Source\PSoC4/cyfitter_cfg.c **** 			{0x5Bu, 0x08u},
 347:.\Generated_Source\PSoC4/cyfitter_cfg.c **** 			{0x5Du, 0x02u},
 348:.\Generated_Source\PSoC4/cyfitter_cfg.c **** 			{0x67u, 0x4Au},
 349:.\Generated_Source\PSoC4/cyfitter_cfg.c **** 			{0x69u, 0x54u},
 350:.\Generated_Source\PSoC4/cyfitter_cfg.c **** 			{0x70u, 0x84u},
 351:.\Generated_Source\PSoC4/cyfitter_cfg.c **** 			{0x71u, 0x18u},
 352:.\Generated_Source\PSoC4/cyfitter_cfg.c **** 			{0x72u, 0x02u},
 353:.\Generated_Source\PSoC4/cyfitter_cfg.c **** 			{0x73u, 0x04u},
 354:.\Generated_Source\PSoC4/cyfitter_cfg.c **** 			{0x82u, 0x04u},
 355:.\Generated_Source\PSoC4/cyfitter_cfg.c **** 			{0x83u, 0x41u},
 356:.\Generated_Source\PSoC4/cyfitter_cfg.c **** 			{0x87u, 0x40u},
 357:.\Generated_Source\PSoC4/cyfitter_cfg.c **** 			{0x88u, 0x20u},
 358:.\Generated_Source\PSoC4/cyfitter_cfg.c **** 			{0x8Bu, 0x40u},
 359:.\Generated_Source\PSoC4/cyfitter_cfg.c **** 			{0x8Cu, 0x10u},
ARM GAS  C:\Users\Petro\AppData\Local\Temp\cc3QZWVy.s 			page 12


 360:.\Generated_Source\PSoC4/cyfitter_cfg.c **** 			{0xC0u, 0x57u},
 361:.\Generated_Source\PSoC4/cyfitter_cfg.c **** 			{0xC2u, 0x8Fu},
 362:.\Generated_Source\PSoC4/cyfitter_cfg.c **** 			{0xC4u, 0x7Fu},
 363:.\Generated_Source\PSoC4/cyfitter_cfg.c **** 			{0xCAu, 0x0Du},
 364:.\Generated_Source\PSoC4/cyfitter_cfg.c **** 			{0xCCu, 0x47u},
 365:.\Generated_Source\PSoC4/cyfitter_cfg.c **** 			{0xCEu, 0x0Fu},
 366:.\Generated_Source\PSoC4/cyfitter_cfg.c **** 			{0xD0u, 0x0Du},
 367:.\Generated_Source\PSoC4/cyfitter_cfg.c **** 			{0xD2u, 0x0Cu},
 368:.\Generated_Source\PSoC4/cyfitter_cfg.c **** 			{0xD6u, 0x82u},
 369:.\Generated_Source\PSoC4/cyfitter_cfg.c **** 			{0xD8u, 0xB0u},
 370:.\Generated_Source\PSoC4/cyfitter_cfg.c **** 			{0xE0u, 0x80u},
 371:.\Generated_Source\PSoC4/cyfitter_cfg.c **** 			{0xE4u, 0x40u},
 372:.\Generated_Source\PSoC4/cyfitter_cfg.c **** 			{0xE6u, 0x80u},
 373:.\Generated_Source\PSoC4/cyfitter_cfg.c **** 			{0x01u, 0x80u},
 374:.\Generated_Source\PSoC4/cyfitter_cfg.c **** 			{0x03u, 0x13u},
 375:.\Generated_Source\PSoC4/cyfitter_cfg.c **** 			{0x06u, 0x03u},
 376:.\Generated_Source\PSoC4/cyfitter_cfg.c **** 			{0x08u, 0xDCu},
 377:.\Generated_Source\PSoC4/cyfitter_cfg.c **** 			{0x0Au, 0x22u},
 378:.\Generated_Source\PSoC4/cyfitter_cfg.c **** 			{0x0Bu, 0x08u},
 379:.\Generated_Source\PSoC4/cyfitter_cfg.c **** 			{0x0Cu, 0x10u},
 380:.\Generated_Source\PSoC4/cyfitter_cfg.c **** 			{0x0Eu, 0xACu},
 381:.\Generated_Source\PSoC4/cyfitter_cfg.c **** 			{0x13u, 0x0Cu},
 382:.\Generated_Source\PSoC4/cyfitter_cfg.c **** 			{0x15u, 0x2Cu},
 383:.\Generated_Source\PSoC4/cyfitter_cfg.c **** 			{0x17u, 0x43u},
 384:.\Generated_Source\PSoC4/cyfitter_cfg.c **** 			{0x18u, 0x0Cu},
 385:.\Generated_Source\PSoC4/cyfitter_cfg.c **** 			{0x1Au, 0x71u},
 386:.\Generated_Source\PSoC4/cyfitter_cfg.c **** 			{0x1Eu, 0x20u},
 387:.\Generated_Source\PSoC4/cyfitter_cfg.c **** 			{0x20u, 0x09u},
 388:.\Generated_Source\PSoC4/cyfitter_cfg.c **** 			{0x22u, 0xD0u},
 389:.\Generated_Source\PSoC4/cyfitter_cfg.c **** 			{0x24u, 0x10u},
 390:.\Generated_Source\PSoC4/cyfitter_cfg.c **** 			{0x25u, 0x71u},
 391:.\Generated_Source\PSoC4/cyfitter_cfg.c **** 			{0x26u, 0x40u},
 392:.\Generated_Source\PSoC4/cyfitter_cfg.c **** 			{0x27u, 0x0Eu},
 393:.\Generated_Source\PSoC4/cyfitter_cfg.c **** 			{0x28u, 0x14u},
 394:.\Generated_Source\PSoC4/cyfitter_cfg.c **** 			{0x2Du, 0x71u},
 395:.\Generated_Source\PSoC4/cyfitter_cfg.c **** 			{0x2Fu, 0x06u},
 396:.\Generated_Source\PSoC4/cyfitter_cfg.c **** 			{0x32u, 0x1Fu},
 397:.\Generated_Source\PSoC4/cyfitter_cfg.c **** 			{0x33u, 0x30u},
 398:.\Generated_Source\PSoC4/cyfitter_cfg.c **** 			{0x34u, 0xE0u},
 399:.\Generated_Source\PSoC4/cyfitter_cfg.c **** 			{0x35u, 0x0Fu},
 400:.\Generated_Source\PSoC4/cyfitter_cfg.c **** 			{0x37u, 0xC0u},
 401:.\Generated_Source\PSoC4/cyfitter_cfg.c **** 			{0x39u, 0x88u},
 402:.\Generated_Source\PSoC4/cyfitter_cfg.c **** 			{0x3Au, 0x20u},
 403:.\Generated_Source\PSoC4/cyfitter_cfg.c **** 			{0x3Bu, 0x20u},
 404:.\Generated_Source\PSoC4/cyfitter_cfg.c **** 			{0x3Fu, 0x04u},
 405:.\Generated_Source\PSoC4/cyfitter_cfg.c **** 			{0x40u, 0x02u},
 406:.\Generated_Source\PSoC4/cyfitter_cfg.c **** 			{0x46u, 0x40u},
 407:.\Generated_Source\PSoC4/cyfitter_cfg.c **** 			{0x49u, 0xFFu},
 408:.\Generated_Source\PSoC4/cyfitter_cfg.c **** 			{0x4Au, 0x07u},
 409:.\Generated_Source\PSoC4/cyfitter_cfg.c **** 			{0x4Bu, 0xFFu},
 410:.\Generated_Source\PSoC4/cyfitter_cfg.c **** 			{0x4Cu, 0x40u},
 411:.\Generated_Source\PSoC4/cyfitter_cfg.c **** 			{0x4Du, 0x20u},
 412:.\Generated_Source\PSoC4/cyfitter_cfg.c **** 			{0x4Eu, 0xF0u},
 413:.\Generated_Source\PSoC4/cyfitter_cfg.c **** 			{0x4Fu, 0x05u},
 414:.\Generated_Source\PSoC4/cyfitter_cfg.c **** 			{0x50u, 0x08u},
 415:.\Generated_Source\PSoC4/cyfitter_cfg.c **** 			{0x58u, 0x04u},
 416:.\Generated_Source\PSoC4/cyfitter_cfg.c **** 			{0x59u, 0x04u},
ARM GAS  C:\Users\Petro\AppData\Local\Temp\cc3QZWVy.s 			page 13


 417:.\Generated_Source\PSoC4/cyfitter_cfg.c **** 			{0x5Au, 0x04u},
 418:.\Generated_Source\PSoC4/cyfitter_cfg.c **** 			{0x5Fu, 0x01u},
 419:.\Generated_Source\PSoC4/cyfitter_cfg.c **** 			{0x60u, 0x40u},
 420:.\Generated_Source\PSoC4/cyfitter_cfg.c **** 			{0x61u, 0xA8u},
 421:.\Generated_Source\PSoC4/cyfitter_cfg.c **** 			{0x62u, 0x40u},
 422:.\Generated_Source\PSoC4/cyfitter_cfg.c **** 			{0x63u, 0x20u},
 423:.\Generated_Source\PSoC4/cyfitter_cfg.c **** 			{0x81u, 0x01u},
 424:.\Generated_Source\PSoC4/cyfitter_cfg.c **** 			{0x82u, 0x08u},
 425:.\Generated_Source\PSoC4/cyfitter_cfg.c **** 			{0x83u, 0x0Au},
 426:.\Generated_Source\PSoC4/cyfitter_cfg.c **** 			{0x84u, 0x0Au},
 427:.\Generated_Source\PSoC4/cyfitter_cfg.c **** 			{0x86u, 0x14u},
 428:.\Generated_Source\PSoC4/cyfitter_cfg.c **** 			{0x87u, 0x04u},
 429:.\Generated_Source\PSoC4/cyfitter_cfg.c **** 			{0x88u, 0x20u},
 430:.\Generated_Source\PSoC4/cyfitter_cfg.c **** 			{0x89u, 0x13u},
 431:.\Generated_Source\PSoC4/cyfitter_cfg.c **** 			{0x8Au, 0xC0u},
 432:.\Generated_Source\PSoC4/cyfitter_cfg.c **** 			{0x8Du, 0x10u},
 433:.\Generated_Source\PSoC4/cyfitter_cfg.c **** 			{0x8Eu, 0x15u},
 434:.\Generated_Source\PSoC4/cyfitter_cfg.c **** 			{0x90u, 0x13u},
 435:.\Generated_Source\PSoC4/cyfitter_cfg.c **** 			{0x92u, 0x0Cu},
 436:.\Generated_Source\PSoC4/cyfitter_cfg.c **** 			{0x94u, 0x80u},
 437:.\Generated_Source\PSoC4/cyfitter_cfg.c **** 			{0x96u, 0x20u},
 438:.\Generated_Source\PSoC4/cyfitter_cfg.c **** 			{0x98u, 0x13u},
 439:.\Generated_Source\PSoC4/cyfitter_cfg.c **** 			{0x99u, 0x02u},
 440:.\Generated_Source\PSoC4/cyfitter_cfg.c **** 			{0x9Au, 0x04u},
 441:.\Generated_Source\PSoC4/cyfitter_cfg.c **** 			{0x9Bu, 0x09u},
 442:.\Generated_Source\PSoC4/cyfitter_cfg.c **** 			{0xA0u, 0x03u},
 443:.\Generated_Source\PSoC4/cyfitter_cfg.c **** 			{0xA1u, 0x20u},
 444:.\Generated_Source\PSoC4/cyfitter_cfg.c **** 			{0xA2u, 0x14u},
 445:.\Generated_Source\PSoC4/cyfitter_cfg.c **** 			{0xA4u, 0xE0u},
 446:.\Generated_Source\PSoC4/cyfitter_cfg.c **** 			{0xA8u, 0xE0u},
 447:.\Generated_Source\PSoC4/cyfitter_cfg.c **** 			{0xA9u, 0x13u},
 448:.\Generated_Source\PSoC4/cyfitter_cfg.c **** 			{0xACu, 0x40u},
 449:.\Generated_Source\PSoC4/cyfitter_cfg.c **** 			{0xAEu, 0x20u},
 450:.\Generated_Source\PSoC4/cyfitter_cfg.c **** 			{0xB0u, 0x0Fu},
 451:.\Generated_Source\PSoC4/cyfitter_cfg.c **** 			{0xB1u, 0x10u},
 452:.\Generated_Source\PSoC4/cyfitter_cfg.c **** 			{0xB3u, 0x20u},
 453:.\Generated_Source\PSoC4/cyfitter_cfg.c **** 			{0xB4u, 0xE0u},
 454:.\Generated_Source\PSoC4/cyfitter_cfg.c **** 			{0xB5u, 0x03u},
 455:.\Generated_Source\PSoC4/cyfitter_cfg.c **** 			{0xB6u, 0x10u},
 456:.\Generated_Source\PSoC4/cyfitter_cfg.c **** 			{0xB7u, 0x0Cu},
 457:.\Generated_Source\PSoC4/cyfitter_cfg.c **** 			{0xBAu, 0x02u},
 458:.\Generated_Source\PSoC4/cyfitter_cfg.c **** 			{0xBEu, 0x40u},
 459:.\Generated_Source\PSoC4/cyfitter_cfg.c **** 			{0xBFu, 0x44u},
 460:.\Generated_Source\PSoC4/cyfitter_cfg.c **** 			{0xC0u, 0x54u},
 461:.\Generated_Source\PSoC4/cyfitter_cfg.c **** 			{0xC1u, 0x02u},
 462:.\Generated_Source\PSoC4/cyfitter_cfg.c **** 			{0xC5u, 0xE0u},
 463:.\Generated_Source\PSoC4/cyfitter_cfg.c **** 			{0xC6u, 0x0Cu},
 464:.\Generated_Source\PSoC4/cyfitter_cfg.c **** 			{0xC7u, 0x0Bu},
 465:.\Generated_Source\PSoC4/cyfitter_cfg.c **** 			{0xC8u, 0x16u},
 466:.\Generated_Source\PSoC4/cyfitter_cfg.c **** 			{0xC9u, 0xFFu},
 467:.\Generated_Source\PSoC4/cyfitter_cfg.c **** 			{0xCAu, 0xFFu},
 468:.\Generated_Source\PSoC4/cyfitter_cfg.c **** 			{0xCBu, 0xFFu},
 469:.\Generated_Source\PSoC4/cyfitter_cfg.c **** 			{0xCEu, 0xF0u},
 470:.\Generated_Source\PSoC4/cyfitter_cfg.c **** 			{0xCFu, 0x44u},
 471:.\Generated_Source\PSoC4/cyfitter_cfg.c **** 			{0xD0u, 0x0Cu},
 472:.\Generated_Source\PSoC4/cyfitter_cfg.c **** 			{0xD4u, 0x01u},
 473:.\Generated_Source\PSoC4/cyfitter_cfg.c **** 			{0xD8u, 0x04u},
ARM GAS  C:\Users\Petro\AppData\Local\Temp\cc3QZWVy.s 			page 14


 474:.\Generated_Source\PSoC4/cyfitter_cfg.c **** 			{0xD9u, 0x04u},
 475:.\Generated_Source\PSoC4/cyfitter_cfg.c **** 			{0xDAu, 0x04u},
 476:.\Generated_Source\PSoC4/cyfitter_cfg.c **** 			{0xDBu, 0x04u},
 477:.\Generated_Source\PSoC4/cyfitter_cfg.c **** 			{0xDFu, 0x01u},
 478:.\Generated_Source\PSoC4/cyfitter_cfg.c **** 			{0xE6u, 0xC0u},
 479:.\Generated_Source\PSoC4/cyfitter_cfg.c **** 			{0xEAu, 0x40u},
 480:.\Generated_Source\PSoC4/cyfitter_cfg.c **** 			{0xEBu, 0x02u},
 481:.\Generated_Source\PSoC4/cyfitter_cfg.c **** 			{0x00u, 0x04u},
 482:.\Generated_Source\PSoC4/cyfitter_cfg.c **** 			{0x01u, 0x20u},
 483:.\Generated_Source\PSoC4/cyfitter_cfg.c **** 			{0x02u, 0x80u},
 484:.\Generated_Source\PSoC4/cyfitter_cfg.c **** 			{0x03u, 0x02u},
 485:.\Generated_Source\PSoC4/cyfitter_cfg.c **** 			{0x05u, 0x84u},
 486:.\Generated_Source\PSoC4/cyfitter_cfg.c **** 			{0x07u, 0x08u},
 487:.\Generated_Source\PSoC4/cyfitter_cfg.c **** 			{0x0Au, 0x64u},
 488:.\Generated_Source\PSoC4/cyfitter_cfg.c **** 			{0x0Eu, 0x04u},
 489:.\Generated_Source\PSoC4/cyfitter_cfg.c **** 			{0x0Fu, 0x02u},
 490:.\Generated_Source\PSoC4/cyfitter_cfg.c **** 			{0x11u, 0x14u},
 491:.\Generated_Source\PSoC4/cyfitter_cfg.c **** 			{0x12u, 0x51u},
 492:.\Generated_Source\PSoC4/cyfitter_cfg.c **** 			{0x16u, 0x24u},
 493:.\Generated_Source\PSoC4/cyfitter_cfg.c **** 			{0x17u, 0x01u},
 494:.\Generated_Source\PSoC4/cyfitter_cfg.c **** 			{0x18u, 0x08u},
 495:.\Generated_Source\PSoC4/cyfitter_cfg.c **** 			{0x19u, 0x60u},
 496:.\Generated_Source\PSoC4/cyfitter_cfg.c **** 			{0x1Au, 0x40u},
 497:.\Generated_Source\PSoC4/cyfitter_cfg.c **** 			{0x1Bu, 0x20u},
 498:.\Generated_Source\PSoC4/cyfitter_cfg.c **** 			{0x1Du, 0x04u},
 499:.\Generated_Source\PSoC4/cyfitter_cfg.c **** 			{0x1Eu, 0x04u},
 500:.\Generated_Source\PSoC4/cyfitter_cfg.c **** 			{0x1Fu, 0x10u},
 501:.\Generated_Source\PSoC4/cyfitter_cfg.c **** 			{0x20u, 0x01u},
 502:.\Generated_Source\PSoC4/cyfitter_cfg.c **** 			{0x21u, 0x01u},
 503:.\Generated_Source\PSoC4/cyfitter_cfg.c **** 			{0x22u, 0x14u},
 504:.\Generated_Source\PSoC4/cyfitter_cfg.c **** 			{0x24u, 0x04u},
 505:.\Generated_Source\PSoC4/cyfitter_cfg.c **** 			{0x26u, 0x80u},
 506:.\Generated_Source\PSoC4/cyfitter_cfg.c **** 			{0x27u, 0x29u},
 507:.\Generated_Source\PSoC4/cyfitter_cfg.c **** 			{0x29u, 0x01u},
 508:.\Generated_Source\PSoC4/cyfitter_cfg.c **** 			{0x2Au, 0x10u},
 509:.\Generated_Source\PSoC4/cyfitter_cfg.c **** 			{0x2Du, 0x80u},
 510:.\Generated_Source\PSoC4/cyfitter_cfg.c **** 			{0x2Eu, 0x40u},
 511:.\Generated_Source\PSoC4/cyfitter_cfg.c **** 			{0x2Fu, 0x10u},
 512:.\Generated_Source\PSoC4/cyfitter_cfg.c **** 			{0x30u, 0x10u},
 513:.\Generated_Source\PSoC4/cyfitter_cfg.c **** 			{0x32u, 0x10u},
 514:.\Generated_Source\PSoC4/cyfitter_cfg.c **** 			{0x37u, 0x09u},
 515:.\Generated_Source\PSoC4/cyfitter_cfg.c **** 			{0x38u, 0x08u},
 516:.\Generated_Source\PSoC4/cyfitter_cfg.c **** 			{0x39u, 0x50u},
 517:.\Generated_Source\PSoC4/cyfitter_cfg.c **** 			{0x3Au, 0x01u},
 518:.\Generated_Source\PSoC4/cyfitter_cfg.c **** 			{0x3Eu, 0x20u},
 519:.\Generated_Source\PSoC4/cyfitter_cfg.c **** 			{0x3Fu, 0x02u},
 520:.\Generated_Source\PSoC4/cyfitter_cfg.c **** 			{0x42u, 0x04u},
 521:.\Generated_Source\PSoC4/cyfitter_cfg.c **** 			{0x43u, 0x02u},
 522:.\Generated_Source\PSoC4/cyfitter_cfg.c **** 			{0x47u, 0x20u},
 523:.\Generated_Source\PSoC4/cyfitter_cfg.c **** 			{0x49u, 0x81u},
 524:.\Generated_Source\PSoC4/cyfitter_cfg.c **** 			{0x51u, 0x40u},
 525:.\Generated_Source\PSoC4/cyfitter_cfg.c **** 			{0x52u, 0x44u},
 526:.\Generated_Source\PSoC4/cyfitter_cfg.c **** 			{0x56u, 0x20u},
 527:.\Generated_Source\PSoC4/cyfitter_cfg.c **** 			{0x57u, 0x03u},
 528:.\Generated_Source\PSoC4/cyfitter_cfg.c **** 			{0x59u, 0x41u},
 529:.\Generated_Source\PSoC4/cyfitter_cfg.c **** 			{0x5Au, 0x18u},
 530:.\Generated_Source\PSoC4/cyfitter_cfg.c **** 			{0x8Du, 0x40u},
ARM GAS  C:\Users\Petro\AppData\Local\Temp\cc3QZWVy.s 			page 15


 531:.\Generated_Source\PSoC4/cyfitter_cfg.c **** 			{0x8Eu, 0x10u},
 532:.\Generated_Source\PSoC4/cyfitter_cfg.c **** 			{0x91u, 0x54u},
 533:.\Generated_Source\PSoC4/cyfitter_cfg.c **** 			{0x94u, 0x01u},
 534:.\Generated_Source\PSoC4/cyfitter_cfg.c **** 			{0x95u, 0x02u},
 535:.\Generated_Source\PSoC4/cyfitter_cfg.c **** 			{0x9Au, 0x01u},
 536:.\Generated_Source\PSoC4/cyfitter_cfg.c **** 			{0x9Cu, 0x10u},
 537:.\Generated_Source\PSoC4/cyfitter_cfg.c **** 			{0x9Du, 0x04u},
 538:.\Generated_Source\PSoC4/cyfitter_cfg.c **** 			{0xA7u, 0x20u},
 539:.\Generated_Source\PSoC4/cyfitter_cfg.c **** 			{0xAAu, 0x01u},
 540:.\Generated_Source\PSoC4/cyfitter_cfg.c **** 			{0xACu, 0x80u},
 541:.\Generated_Source\PSoC4/cyfitter_cfg.c **** 			{0xADu, 0x20u},
 542:.\Generated_Source\PSoC4/cyfitter_cfg.c **** 			{0xB4u, 0x48u},
 543:.\Generated_Source\PSoC4/cyfitter_cfg.c **** 			{0xC0u, 0xEFu},
 544:.\Generated_Source\PSoC4/cyfitter_cfg.c **** 			{0xC2u, 0xCEu},
 545:.\Generated_Source\PSoC4/cyfitter_cfg.c **** 			{0xC4u, 0x7Fu},
 546:.\Generated_Source\PSoC4/cyfitter_cfg.c **** 			{0xCAu, 0x55u},
 547:.\Generated_Source\PSoC4/cyfitter_cfg.c **** 			{0xCCu, 0xC4u},
 548:.\Generated_Source\PSoC4/cyfitter_cfg.c **** 			{0xCEu, 0xAFu},
 549:.\Generated_Source\PSoC4/cyfitter_cfg.c **** 			{0xD0u, 0x25u},
 550:.\Generated_Source\PSoC4/cyfitter_cfg.c **** 			{0xD2u, 0x08u},
 551:.\Generated_Source\PSoC4/cyfitter_cfg.c **** 			{0xD6u, 0x0Fu},
 552:.\Generated_Source\PSoC4/cyfitter_cfg.c **** 			{0x0Au, 0x40u},
 553:.\Generated_Source\PSoC4/cyfitter_cfg.c **** 			{0x10u, 0x80u},
 554:.\Generated_Source\PSoC4/cyfitter_cfg.c **** 			{0x15u, 0x10u},
 555:.\Generated_Source\PSoC4/cyfitter_cfg.c **** 			{0x63u, 0x20u},
 556:.\Generated_Source\PSoC4/cyfitter_cfg.c **** 			{0x6Fu, 0x02u},
 557:.\Generated_Source\PSoC4/cyfitter_cfg.c **** 			{0x73u, 0x02u},
 558:.\Generated_Source\PSoC4/cyfitter_cfg.c **** 			{0x83u, 0x10u},
 559:.\Generated_Source\PSoC4/cyfitter_cfg.c **** 			{0x87u, 0x02u},
 560:.\Generated_Source\PSoC4/cyfitter_cfg.c **** 			{0x89u, 0x10u},
 561:.\Generated_Source\PSoC4/cyfitter_cfg.c **** 			{0x8Bu, 0x02u},
 562:.\Generated_Source\PSoC4/cyfitter_cfg.c **** 			{0x8Cu, 0x80u},
 563:.\Generated_Source\PSoC4/cyfitter_cfg.c **** 			{0xC2u, 0x10u},
 564:.\Generated_Source\PSoC4/cyfitter_cfg.c **** 			{0xC4u, 0x90u},
 565:.\Generated_Source\PSoC4/cyfitter_cfg.c **** 			{0xD8u, 0x40u},
 566:.\Generated_Source\PSoC4/cyfitter_cfg.c **** 			{0xDAu, 0x80u},
 567:.\Generated_Source\PSoC4/cyfitter_cfg.c **** 			{0xDCu, 0x20u},
 568:.\Generated_Source\PSoC4/cyfitter_cfg.c **** 			{0xE6u, 0xC0u},
 569:.\Generated_Source\PSoC4/cyfitter_cfg.c **** 			{0xAAu, 0x40u},
 570:.\Generated_Source\PSoC4/cyfitter_cfg.c **** 			{0xE8u, 0x20u},
 571:.\Generated_Source\PSoC4/cyfitter_cfg.c **** 			{0x10u, 0x01u},
 572:.\Generated_Source\PSoC4/cyfitter_cfg.c **** 			{0x11u, 0x01u},
 573:.\Generated_Source\PSoC4/cyfitter_cfg.c **** 		};
 574:.\Generated_Source\PSoC4/cyfitter_cfg.c **** 
 575:.\Generated_Source\PSoC4/cyfitter_cfg.c **** 
 576:.\Generated_Source\PSoC4/cyfitter_cfg.c **** 
 577:.\Generated_Source\PSoC4/cyfitter_cfg.c **** 		CYPACKED typedef struct {
 578:.\Generated_Source\PSoC4/cyfitter_cfg.c **** 			void CYFAR *address;
 579:.\Generated_Source\PSoC4/cyfitter_cfg.c **** 			uint16 size;
 580:.\Generated_Source\PSoC4/cyfitter_cfg.c **** 		} CYPACKED_ATTR cfg_memset_t;
 581:.\Generated_Source\PSoC4/cyfitter_cfg.c **** 
 582:.\Generated_Source\PSoC4/cyfitter_cfg.c **** 
 583:.\Generated_Source\PSoC4/cyfitter_cfg.c **** 		CYPACKED typedef struct {
 584:.\Generated_Source\PSoC4/cyfitter_cfg.c **** 			void CYFAR *dest;
 585:.\Generated_Source\PSoC4/cyfitter_cfg.c **** 			const void CYCODE *src;
 586:.\Generated_Source\PSoC4/cyfitter_cfg.c **** 			uint16 size;
 587:.\Generated_Source\PSoC4/cyfitter_cfg.c **** 		} CYPACKED_ATTR cfg_memcpy_t;
ARM GAS  C:\Users\Petro\AppData\Local\Temp\cc3QZWVy.s 			page 16


 588:.\Generated_Source\PSoC4/cyfitter_cfg.c **** 
 589:.\Generated_Source\PSoC4/cyfitter_cfg.c **** 		static const cfg_memset_t CYCODE cfg_memset_list [] = {
 590:.\Generated_Source\PSoC4/cyfitter_cfg.c **** 			/* address, size */
 591:.\Generated_Source\PSoC4/cyfitter_cfg.c **** 			{(void CYFAR *)(CYDEV_UDB_P0_U1_BASE), 896u},
 592:.\Generated_Source\PSoC4/cyfitter_cfg.c **** 			{(void CYFAR *)(CYDEV_UDB_DSI0_BASE), 1024u},
 593:.\Generated_Source\PSoC4/cyfitter_cfg.c **** 		};
 594:.\Generated_Source\PSoC4/cyfitter_cfg.c **** 
 595:.\Generated_Source\PSoC4/cyfitter_cfg.c **** 		/* UDB_0_1_0_CONFIG Address: CYDEV_UDB_P0_U0_BASE Size (bytes): 128 */
 596:.\Generated_Source\PSoC4/cyfitter_cfg.c **** 		static const uint8 CYCODE BS_UDB_0_1_0_CONFIG_VAL[] = {
 597:.\Generated_Source\PSoC4/cyfitter_cfg.c **** 			0x00u, 0x10u, 0x00u, 0x00u, 0xC3u, 0x18u, 0x00u, 0x00u, 0x0Fu, 0x3Cu, 0xF0u, 0x42u, 0xFFu, 0x7Fu
 598:.\Generated_Source\PSoC4/cyfitter_cfg.c **** 			0x00u, 0x00u, 0xF3u, 0x04u, 0x0Cu, 0x3Cu, 0x00u, 0x41u, 0x82u, 0x08u, 0x00u, 0x00u, 0xF3u, 0x00u
 599:.\Generated_Source\PSoC4/cyfitter_cfg.c **** 			0x08u, 0x04u, 0x00u, 0x80u, 0x04u, 0x00u, 0x00u, 0x00u, 0x1Cu, 0x67u, 0xE3u, 0x18u, 0x41u, 0x00u
 600:.\Generated_Source\PSoC4/cyfitter_cfg.c **** 			0xC0u, 0x80u, 0x2Cu, 0x1Fu, 0x0Fu, 0x20u, 0x1Cu, 0x40u, 0x00u, 0x80u, 0x28u, 0x08u, 0x00u, 0x00u
 601:.\Generated_Source\PSoC4/cyfitter_cfg.c **** 			0x64u, 0x02u, 0x05u, 0x00u, 0x01u, 0xC0u, 0x00u, 0x0Eu, 0x12u, 0xFFu, 0xFFu, 0xFFu, 0x62u, 0xA0u
 602:.\Generated_Source\PSoC4/cyfitter_cfg.c **** 			0x0Cu, 0x00u, 0x00u, 0x00u, 0x00u, 0x00u, 0x02u, 0x12u, 0x04u, 0x04u, 0x04u, 0x04u, 0x00u, 0x00u
 603:.\Generated_Source\PSoC4/cyfitter_cfg.c **** 			0x00u, 0x00u, 0x00u, 0x00u, 0x00u, 0x00u, 0x40u, 0x02u, 0x00u, 0x10u, 0x30u, 0x10u, 0x00u, 0x10u
 604:.\Generated_Source\PSoC4/cyfitter_cfg.c **** 			0x00u, 0x00u, 0x00u, 0x00u, 0x00u, 0x00u, 0x00u, 0x00u, 0x00u, 0x00u, 0x00u, 0x00u, 0x00u, 0x00u
 605:.\Generated_Source\PSoC4/cyfitter_cfg.c **** 
 606:.\Generated_Source\PSoC4/cyfitter_cfg.c **** 		static const cfg_memcpy_t CYCODE cfg_memcpy_list [] = {
 607:.\Generated_Source\PSoC4/cyfitter_cfg.c **** 			/* dest, src, size */
 608:.\Generated_Source\PSoC4/cyfitter_cfg.c **** 			{(void CYFAR *)(CYDEV_UDB_P0_U0_BASE), BS_UDB_0_1_0_CONFIG_VAL, 128u},
 609:.\Generated_Source\PSoC4/cyfitter_cfg.c **** 		};
 610:.\Generated_Source\PSoC4/cyfitter_cfg.c **** 
 611:.\Generated_Source\PSoC4/cyfitter_cfg.c **** 		uint8 CYDATA i;
 612:.\Generated_Source\PSoC4/cyfitter_cfg.c **** 
 613:.\Generated_Source\PSoC4/cyfitter_cfg.c **** 		/* Zero out critical memory blocks before beginning configuration */
 614:.\Generated_Source\PSoC4/cyfitter_cfg.c **** 		for (i = 0u; i < (sizeof(cfg_memset_list)/sizeof(cfg_memset_list[0])); i++)
 260              		.loc 1 614 0
 261 0096 0024     		mov	r4, #0
 262 0098 10E0     		b	.L13
 263              	.LVL19:
 264              	.L14:
 265              	.LBB4:
 615:.\Generated_Source\PSoC4/cyfitter_cfg.c **** 		{
 616:.\Generated_Source\PSoC4/cyfitter_cfg.c **** 			const cfg_memset_t CYCODE * CYDATA ms = &cfg_memset_list[i];
 617:.\Generated_Source\PSoC4/cyfitter_cfg.c **** 			CYMEMZERO(ms->address, (size_t)(uint32)(ms->size));
 266              		.loc 1 617 0 discriminator 3
 267 009a 4448     		ldr	r0, .L17+4
 268 009c 6300     		lsl	r3, r4, #1
 269 009e 1A19     		add	r2, r3, r4
 270 00a0 5200     		lsl	r2, r2, #1
 271 00a2 8218     		add	r2, r0, r2
 272 00a4 9188     		ldrh	r1, [r2, #4]
 273 00a6 1B19     		add	r3, r3, r4
 274 00a8 5B00     		lsl	r3, r3, #1
 275 00aa 1A5A     		ldrh	r2, [r3, r0]
 276 00ac C318     		add	r3, r0, r3
 277 00ae 5888     		ldrh	r0, [r3, #2]
 278 00b0 0004     		lsl	r0, r0, #16
 279 00b2 1043     		orr	r0, r2
 280 00b4 FFF7FEFF 		bl	CYMEMZERO
 281              	.LVL20:
 282              	.LBE4:
 614:.\Generated_Source\PSoC4/cyfitter_cfg.c **** 		{
 283              		.loc 1 614 0 discriminator 3
 284 00b8 0134     		add	r4, r4, #1
 285              	.LVL21:
ARM GAS  C:\Users\Petro\AppData\Local\Temp\cc3QZWVy.s 			page 17


 286 00ba E4B2     		uxtb	r4, r4
 287              	.LVL22:
 288              	.L13:
 614:.\Generated_Source\PSoC4/cyfitter_cfg.c **** 		{
 289              		.loc 1 614 0 is_stmt 0 discriminator 1
 290 00bc 012C     		cmp	r4, #1
 291 00be ECD9     		bls	.L14
 292 00c0 0024     		mov	r4, #0
 293              	.LVL23:
 294 00c2 12E0     		b	.L15
 295              	.LVL24:
 296              	.L16:
 297              	.LBB5:
 618:.\Generated_Source\PSoC4/cyfitter_cfg.c **** 		}
 619:.\Generated_Source\PSoC4/cyfitter_cfg.c **** 
 620:.\Generated_Source\PSoC4/cyfitter_cfg.c **** 		/* Copy device configuration data into registers */
 621:.\Generated_Source\PSoC4/cyfitter_cfg.c **** 		for (i = 0u; i < (sizeof(cfg_memcpy_list)/sizeof(cfg_memcpy_list[0])); i++)
 622:.\Generated_Source\PSoC4/cyfitter_cfg.c **** 		{
 623:.\Generated_Source\PSoC4/cyfitter_cfg.c **** 			const cfg_memcpy_t CYCODE * CYDATA mc = &cfg_memcpy_list[i];
 624:.\Generated_Source\PSoC4/cyfitter_cfg.c **** 			void * CYDATA destPtr = mc->dest;
 298              		.loc 1 624 0 is_stmt 1 discriminator 3
 299 00c4 394D     		ldr	r5, .L17+4
 300 00c6 A300     		lsl	r3, r4, #2
 301 00c8 1A19     		add	r2, r3, r4
 302 00ca 5200     		lsl	r2, r2, #1
 303 00cc AA18     		add	r2, r5, r2
 304 00ce 9189     		ldrh	r1, [r2, #12]
 305 00d0 D089     		ldrh	r0, [r2, #14]
 306 00d2 0004     		lsl	r0, r0, #16
 307 00d4 0843     		orr	r0, r1
 308              	.LVL25:
 625:.\Generated_Source\PSoC4/cyfitter_cfg.c **** 			const void CYCODE * CYDATA srcPtr = mc->src;
 309              		.loc 1 625 0 discriminator 3
 310 00d6 131C     		mov	r3, r2
 311 00d8 128A     		ldrh	r2, [r2, #16]
 312 00da 598A     		ldrh	r1, [r3, #18]
 313 00dc 0904     		lsl	r1, r1, #16
 314 00de 1143     		orr	r1, r2
 315              	.LVL26:
 626:.\Generated_Source\PSoC4/cyfitter_cfg.c **** 			uint16 CYDATA numBytes = mc->size;
 627:.\Generated_Source\PSoC4/cyfitter_cfg.c **** 			CYCONFIGCPYCODE(destPtr, srcPtr, numBytes);
 316              		.loc 1 627 0 discriminator 3
 317 00e0 8022     		mov	r2, #128
 318 00e2 FFF7FEFF 		bl	CYCONFIGCPYCODE
 319              	.LVL27:
 320              	.LBE5:
 621:.\Generated_Source\PSoC4/cyfitter_cfg.c **** 		{
 321              		.loc 1 621 0 discriminator 3
 322 00e6 0134     		add	r4, r4, #1
 323              	.LVL28:
 324 00e8 E4B2     		uxtb	r4, r4
 325              	.LVL29:
 326              	.L15:
 621:.\Generated_Source\PSoC4/cyfitter_cfg.c **** 		{
 327              		.loc 1 621 0 is_stmt 0 discriminator 1
 328 00ea 002C     		cmp	r4, #0
 329 00ec EAD0     		beq	.L16
ARM GAS  C:\Users\Petro\AppData\Local\Temp\cc3QZWVy.s 			page 18


 628:.\Generated_Source\PSoC4/cyfitter_cfg.c **** 		}
 629:.\Generated_Source\PSoC4/cyfitter_cfg.c **** 
 630:.\Generated_Source\PSoC4/cyfitter_cfg.c **** 		cfg_write_bytes32(cy_cfg_addr_table, cy_cfg_data_table);
 330              		.loc 1 630 0 is_stmt 1
 331 00ee 2F49     		ldr	r1, .L17+4
 332 00f0 081C     		mov	r0, r1
 333 00f2 1830     		add	r0, r0, #24
 334 00f4 3831     		add	r1, r1, #56
 335 00f6 FFF7FEFF 		bl	cfg_write_bytes32
 336              	.LVL30:
 631:.\Generated_Source\PSoC4/cyfitter_cfg.c **** 
 632:.\Generated_Source\PSoC4/cyfitter_cfg.c **** 		/* Perform normal device configuration. Order is not critical for these items. */
 633:.\Generated_Source\PSoC4/cyfitter_cfg.c **** 		CY_SET_XTND_REG16((void CYFAR *)(CYREG_UDB_BCTL0_DRV), 0x0100u);
 337              		.loc 1 633 0
 338 00fa 8022     		mov	r2, #128
 339 00fc 5200     		lsl	r2, r2, #1
 340 00fe 2C4B     		ldr	r3, .L17+8
 341 0100 1A80     		strh	r2, [r3]
 634:.\Generated_Source\PSoC4/cyfitter_cfg.c **** 		CY_SET_XTND_REG8((void CYFAR *)(CYREG_UDB_BCTL0_DRV + 0x2u), 0x01u);
 342              		.loc 1 634 0
 343 0102 FF3A     		sub	r2, r2, #255
 344 0104 2B4B     		ldr	r3, .L17+12
 345 0106 1A70     		strb	r2, [r3]
 635:.\Generated_Source\PSoC4/cyfitter_cfg.c **** 
 636:.\Generated_Source\PSoC4/cyfitter_cfg.c **** 		/* HSIOM Starting address: CYDEV_HSIOM_BASE */
 637:.\Generated_Source\PSoC4/cyfitter_cfg.c **** 		CY_SET_XTND_REG32((void CYFAR *)(CYDEV_HSIOM_BASE), 0x00300000u);
 346              		.loc 1 637 0
 347 0108 C022     		mov	r2, #192
 348 010a 9203     		lsl	r2, r2, #14
 349 010c 2A4B     		ldr	r3, .L17+16
 350 010e 1A60     		str	r2, [r3]
 638:.\Generated_Source\PSoC4/cyfitter_cfg.c **** 		CY_SET_XTND_REG32((void CYFAR *)(CYREG_HSIOM_PORT_SEL3), 0x0000EE00u);
 351              		.loc 1 638 0
 352 0110 EE22     		mov	r2, #238
 353 0112 1202     		lsl	r2, r2, #8
 354 0114 294B     		ldr	r3, .L17+20
 355 0116 1A60     		str	r2, [r3]
 639:.\Generated_Source\PSoC4/cyfitter_cfg.c **** 
 640:.\Generated_Source\PSoC4/cyfitter_cfg.c **** 		/* UDB_PA_0 Starting address: CYDEV_UDB_PA0_BASE */
 641:.\Generated_Source\PSoC4/cyfitter_cfg.c **** 		CY_SET_XTND_REG32((void CYFAR *)(CYDEV_UDB_PA0_BASE), 0x00990004u);
 356              		.loc 1 641 0
 357 0118 294A     		ldr	r2, .L17+24
 358 011a 2A4B     		ldr	r3, .L17+28
 359 011c 1A60     		str	r2, [r3]
 642:.\Generated_Source\PSoC4/cyfitter_cfg.c **** 		CY_SET_XTND_REG32((void CYFAR *)(CYREG_UDB_PA0_CFG4), 0x02000000u);
 360              		.loc 1 642 0
 361 011e 8022     		mov	r2, #128
 362 0120 9204     		lsl	r2, r2, #18
 363 0122 294B     		ldr	r3, .L17+32
 364 0124 1A60     		str	r2, [r3]
 643:.\Generated_Source\PSoC4/cyfitter_cfg.c **** 		CY_SET_XTND_REG32((void CYFAR *)(CYREG_UDB_PA0_CFG8), 0x08000000u);
 365              		.loc 1 643 0
 366 0126 8022     		mov	r2, #128
 367 0128 1205     		lsl	r2, r2, #20
 368 012a 284B     		ldr	r3, .L17+36
 369 012c 1A60     		str	r2, [r3]
 644:.\Generated_Source\PSoC4/cyfitter_cfg.c **** 
ARM GAS  C:\Users\Petro\AppData\Local\Temp\cc3QZWVy.s 			page 19


 645:.\Generated_Source\PSoC4/cyfitter_cfg.c **** 		/* UDB_PA_1 Starting address: CYDEV_UDB_PA1_BASE */
 646:.\Generated_Source\PSoC4/cyfitter_cfg.c **** 		CY_SET_XTND_REG32((void CYFAR *)(CYDEV_UDB_PA1_BASE), 0x00990000u);
 370              		.loc 1 646 0
 371 012e 9923     		mov	r3, #153
 372 0130 1B04     		lsl	r3, r3, #16
 373 0132 274A     		ldr	r2, .L17+40
 374 0134 1360     		str	r3, [r2]
 647:.\Generated_Source\PSoC4/cyfitter_cfg.c **** 
 648:.\Generated_Source\PSoC4/cyfitter_cfg.c **** 		/* UDB_PA_2 Starting address: CYDEV_UDB_PA2_BASE */
 649:.\Generated_Source\PSoC4/cyfitter_cfg.c **** 		CY_SET_XTND_REG32((void CYFAR *)(CYDEV_UDB_PA2_BASE), 0x00990000u);
 375              		.loc 1 649 0
 376 0136 274A     		ldr	r2, .L17+44
 377 0138 1360     		str	r3, [r2]
 650:.\Generated_Source\PSoC4/cyfitter_cfg.c **** 
 651:.\Generated_Source\PSoC4/cyfitter_cfg.c **** 		/* UDB_PA_3 Starting address: CYDEV_UDB_PA3_BASE */
 652:.\Generated_Source\PSoC4/cyfitter_cfg.c **** 		CY_SET_XTND_REG32((void CYFAR *)(CYDEV_UDB_PA3_BASE), 0x00990000u);
 378              		.loc 1 652 0
 379 013a 274A     		ldr	r2, .L17+48
 380 013c 1360     		str	r3, [r2]
 653:.\Generated_Source\PSoC4/cyfitter_cfg.c **** 
 654:.\Generated_Source\PSoC4/cyfitter_cfg.c **** 		/* INT_SELECT Starting address: CYDEV_CPUSS_INTR_SELECT */
 655:.\Generated_Source\PSoC4/cyfitter_cfg.c **** 		CY_SET_XTND_REG32((void CYFAR *)(CYREG_CPUSS_INTR_SELECT), 0x00000005u);
 381              		.loc 1 655 0
 382 013e 0522     		mov	r2, #5
 383 0140 264B     		ldr	r3, .L17+52
 384 0142 1A60     		str	r2, [r3]
 656:.\Generated_Source\PSoC4/cyfitter_cfg.c **** 
 657:.\Generated_Source\PSoC4/cyfitter_cfg.c **** 		/* INT_CONFIG Starting address: CYDEV_UDB_INT_CFG */
 658:.\Generated_Source\PSoC4/cyfitter_cfg.c **** 		CY_SET_XTND_REG32((void CYFAR *)(CYREG_UDB_INT_CFG), 0x00000006u);
 385              		.loc 1 658 0
 386 0144 0132     		add	r2, r2, #1
 387 0146 264B     		ldr	r3, .L17+56
 388 0148 1A60     		str	r2, [r3]
 659:.\Generated_Source\PSoC4/cyfitter_cfg.c **** 
 660:.\Generated_Source\PSoC4/cyfitter_cfg.c **** 		/* Enable digital routing */
 661:.\Generated_Source\PSoC4/cyfitter_cfg.c **** 		CY_SET_XTND_REG8((void *)CYREG_UDB_UDBIF_BANK_CTL, CY_GET_XTND_REG8((void *)CYREG_UDB_UDBIF_BANK_
 389              		.loc 1 661 0
 390 014a 264B     		ldr	r3, .L17+60
 391 014c 1978     		ldrb	r1, [r3]
 392 014e 043A     		sub	r2, r2, #4
 393 0150 0A43     		orr	r2, r1
 394 0152 1A70     		strb	r2, [r3]
 662:.\Generated_Source\PSoC4/cyfitter_cfg.c **** 
 663:.\Generated_Source\PSoC4/cyfitter_cfg.c **** 		/* Enable UDB array */
 664:.\Generated_Source\PSoC4/cyfitter_cfg.c **** 		CY_SET_XTND_REG8((void *)CYREG_UDB_UDBIF_WAIT_CFG, (uint8)((CY_GET_XTND_REG8((void *)CYREG_UDB_UD
 395              		.loc 1 664 0
 396 0154 2448     		ldr	r0, .L17+64
 397 0156 0278     		ldrb	r2, [r0]
 398 0158 3C21     		mov	r1, #60
 399 015a 8A43     		bic	r2, r1
 400 015c 2839     		sub	r1, r1, #40
 401 015e 0A43     		orr	r2, r1
 402 0160 0270     		strb	r2, [r0]
 665:.\Generated_Source\PSoC4/cyfitter_cfg.c **** 		CY_SET_XTND_REG8((void *)CYREG_UDB_UDBIF_BANK_CTL, (uint8)(CY_GET_XTND_REG8((void *)CYREG_UDB_UDB
 403              		.loc 1 665 0
 404 0162 1978     		ldrb	r1, [r3]
 405 0164 1622     		mov	r2, #22
ARM GAS  C:\Users\Petro\AppData\Local\Temp\cc3QZWVy.s 			page 20


 406 0166 0A43     		orr	r2, r1
 407 0168 1A70     		strb	r2, [r3]
 408              	.LBE3:
 666:.\Generated_Source\PSoC4/cyfitter_cfg.c **** 	}
 667:.\Generated_Source\PSoC4/cyfitter_cfg.c **** 
 668:.\Generated_Source\PSoC4/cyfitter_cfg.c **** 	/* Perform second pass device configuration. These items must be configured in specific order afte
 669:.\Generated_Source\PSoC4/cyfitter_cfg.c **** 	/* IOPINS0_0 Starting address: CYDEV_PRT0_BASE */
 670:.\Generated_Source\PSoC4/cyfitter_cfg.c **** 	CY_SET_XTND_REG32((void CYFAR *)(CYDEV_PRT0_BASE), 0x000000A8u);
 409              		.loc 1 670 0
 410 016a A822     		mov	r2, #168
 411 016c 1F4B     		ldr	r3, .L17+68
 412 016e 1A60     		str	r2, [r3]
 671:.\Generated_Source\PSoC4/cyfitter_cfg.c **** 	CY_SET_XTND_REG32((void CYFAR *)(CYREG_PRT0_PC), 0x00431C00u);
 413              		.loc 1 671 0
 414 0170 1F4A     		ldr	r2, .L17+72
 415 0172 204B     		ldr	r3, .L17+76
 416 0174 1A60     		str	r2, [r3]
 672:.\Generated_Source\PSoC4/cyfitter_cfg.c **** 	CY_SET_XTND_REG32((void CYFAR *)(CYREG_PRT0_INTCFG), 0x00008000u);
 417              		.loc 1 672 0
 418 0176 8023     		mov	r3, #128
 419 0178 1B02     		lsl	r3, r3, #8
 420 017a 1F4A     		ldr	r2, .L17+80
 421 017c 1360     		str	r3, [r2]
 673:.\Generated_Source\PSoC4/cyfitter_cfg.c **** 
 674:.\Generated_Source\PSoC4/cyfitter_cfg.c **** 	/* IOPINS0_1 Starting address: CYDEV_PRT1_BASE */
 675:.\Generated_Source\PSoC4/cyfitter_cfg.c **** 	CY_SET_XTND_REG32((void CYFAR *)(CYDEV_PRT1_BASE), 0x00000040u);
 422              		.loc 1 675 0
 423 017e 4021     		mov	r1, #64
 424 0180 1E4A     		ldr	r2, .L17+84
 425 0182 1160     		str	r1, [r2]
 676:.\Generated_Source\PSoC4/cyfitter_cfg.c **** 	CY_SET_XTND_REG32((void CYFAR *)(CYREG_PRT1_PC), 0x00180000u);
 426              		.loc 1 676 0
 427 0184 C021     		mov	r1, #192
 428 0186 4903     		lsl	r1, r1, #13
 429 0188 1D4A     		ldr	r2, .L17+88
 430 018a 1160     		str	r1, [r2]
 677:.\Generated_Source\PSoC4/cyfitter_cfg.c **** 
 678:.\Generated_Source\PSoC4/cyfitter_cfg.c **** 	/* IOPINS0_2 Starting address: CYDEV_PRT2_BASE */
 679:.\Generated_Source\PSoC4/cyfitter_cfg.c **** 	CY_SET_XTND_REG32((void CYFAR *)(CYREG_PRT2_PC), 0x001B6DB6u);
 431              		.loc 1 679 0
 432 018c 1D49     		ldr	r1, .L17+92
 433 018e 1E4A     		ldr	r2, .L17+96
 434 0190 1160     		str	r1, [r2]
 680:.\Generated_Source\PSoC4/cyfitter_cfg.c **** 
 681:.\Generated_Source\PSoC4/cyfitter_cfg.c **** 	/* IOPINS0_3 Starting address: CYDEV_PRT3_BASE */
 682:.\Generated_Source\PSoC4/cyfitter_cfg.c **** 	CY_SET_XTND_REG32((void CYFAR *)(CYDEV_PRT3_BASE), 0x00000080u);
 435              		.loc 1 682 0
 436 0192 8021     		mov	r1, #128
 437 0194 1D4A     		ldr	r2, .L17+100
 438 0196 1160     		str	r1, [r2]
 683:.\Generated_Source\PSoC4/cyfitter_cfg.c **** 	CY_SET_XTND_REG32((void CYFAR *)(CYREG_PRT3_PC), 0x00400D80u);
 439              		.loc 1 683 0
 440 0198 1D49     		ldr	r1, .L17+104
 441 019a 1E4A     		ldr	r2, .L17+108
 442 019c 1160     		str	r1, [r2]
 684:.\Generated_Source\PSoC4/cyfitter_cfg.c **** 	CY_SET_XTND_REG32((void CYFAR *)(CYREG_PRT3_INTCFG), 0x00008000u);
 443              		.loc 1 684 0
ARM GAS  C:\Users\Petro\AppData\Local\Temp\cc3QZWVy.s 			page 21


 444 019e 1E4A     		ldr	r2, .L17+112
 445 01a0 1360     		str	r3, [r2]
 685:.\Generated_Source\PSoC4/cyfitter_cfg.c **** 
 686:.\Generated_Source\PSoC4/cyfitter_cfg.c **** 
 687:.\Generated_Source\PSoC4/cyfitter_cfg.c **** 	/* Setup clocks based on selections from Clock DWR */
 688:.\Generated_Source\PSoC4/cyfitter_cfg.c **** 	ClockSetup();
 446              		.loc 1 688 0
 447 01a2 FFF72DFF 		bl	ClockSetup
 448              	.LVL31:
 689:.\Generated_Source\PSoC4/cyfitter_cfg.c **** 
 690:.\Generated_Source\PSoC4/cyfitter_cfg.c **** 	/* Perform basic analog initialization to defaults */
 691:.\Generated_Source\PSoC4/cyfitter_cfg.c **** 	AnalogSetDefault();
 692:.\Generated_Source\PSoC4/cyfitter_cfg.c **** 
 693:.\Generated_Source\PSoC4/cyfitter_cfg.c **** }
 449              		.loc 1 693 0
 450              		@ sp needed
 451              	.LVL32:
 452 01a6 38BD     		pop	{r3, r4, r5, pc}
 453              	.L18:
 454              		.align	2
 455              	.L17:
 456 01a8 1C700F40 		.word	1074753564
 457 01ac 00000000 		.word	.LANCHOR0
 458 01b0 00600F40 		.word	1074749440
 459 01b4 02600F40 		.word	1074749442
 460 01b8 00000140 		.word	1073807360
 461 01bc 0C000140 		.word	1073807372
 462 01c0 04009900 		.word	10027012
 463 01c4 00500F40 		.word	1074745344
 464 01c8 04500F40 		.word	1074745348
 465 01cc 08500F40 		.word	1074745352
 466 01d0 10500F40 		.word	1074745360
 467 01d4 20500F40 		.word	1074745376
 468 01d8 30500F40 		.word	1074745392
 469 01dc 20000040 		.word	1073741856
 470 01e0 00800F40 		.word	1074757632
 471 01e4 00700F40 		.word	1074753536
 472 01e8 01700F40 		.word	1074753537
 473 01ec 00000440 		.word	1074003968
 474 01f0 001C4300 		.word	4398080
 475 01f4 08000440 		.word	1074003976
 476 01f8 0C000440 		.word	1074003980
 477 01fc 00010440 		.word	1074004224
 478 0200 08010440 		.word	1074004232
 479 0204 B66D1B00 		.word	1797558
 480 0208 08020440 		.word	1074004488
 481 020c 00030440 		.word	1074004736
 482 0210 800D4000 		.word	4197760
 483 0214 08030440 		.word	1074004744
 484 0218 0C030440 		.word	1074004748
 485              		.cfi_endproc
 486              	.LFE6:
 487              		.size	cyfitter_cfg, .-cyfitter_cfg
 488              		.section	.rodata
 489              		.align	2
 490              		.set	.LANCHOR0,. + 0
 491              		.type	cfg_memset_list.4747, %object
ARM GAS  C:\Users\Petro\AppData\Local\Temp\cc3QZWVy.s 			page 22


 492              		.size	cfg_memset_list.4747, 12
 493              	cfg_memset_list.4747:
 494 0000 80300F40 		.word	1074737280
 495 0004 8003     		.short	896
 496 0006 00400F40 		.4byte	1074741248
 497 000a 0004     		.short	1024
 498              		.type	cfg_memcpy_list.4749, %object
 499              		.size	cfg_memcpy_list.4749, 10
 500              	cfg_memcpy_list.4749:
 501 000c 00300F40 		.word	1074737152
 502 0010 7C020000 		.word	BS_UDB_0_1_0_CONFIG_VAL.4748
 503 0014 8000     		.short	128
 504 0016 0000     		.space	2
 505              		.type	cy_cfg_addr_table.4736, %object
 506              		.size	cy_cfg_addr_table.4736, 32
 507              	cy_cfg_addr_table.4736:
 508 0018 03000F40 		.word	1074724867
 509 001c 15300F40 		.word	1074737173
 510 0020 42310F40 		.word	1074737474
 511 0024 6C320F40 		.word	1074737772
 512 0028 47330F40 		.word	1074737991
 513 002c 11400F40 		.word	1074741265
 514 0030 02410F40 		.word	1074741506
 515 0034 02600F40 		.word	1074749442
 516              		.type	cy_cfg_data_table.4737, %object
 517              		.size	cy_cfg_data_table.4737, 580
 518              	cy_cfg_data_table.4737:
 519 0038 80       		.byte	-128
 520 0039 72       		.byte	114
 521 003a 81       		.byte	-127
 522 003b 38       		.byte	56
 523 003c 83       		.byte	-125
 524 003d 0F       		.byte	15
 525 003e 82       		.byte	-126
 526 003f 01       		.byte	1
 527 0040 88       		.byte	-120
 528 0041 04       		.byte	4
 529 0042 95       		.byte	-107
 530 0043 01       		.byte	1
 531 0044 9E       		.byte	-98
 532 0045 01       		.byte	1
 533 0046 A2       		.byte	-94
 534 0047 02       		.byte	2
 535 0048 A4       		.byte	-92
 536 0049 04       		.byte	4
 537 004a AA       		.byte	-86
 538 004b 02       		.byte	2
 539 004c B1       		.byte	-79
 540 004d 01       		.byte	1
 541 004e B2       		.byte	-78
 542 004f 02       		.byte	2
 543 0050 B4       		.byte	-76
 544 0051 01       		.byte	1
 545 0052 B6       		.byte	-74
 546 0053 04       		.byte	4
 547 0054 B8       		.byte	-72
 548 0055 80       		.byte	-128
ARM GAS  C:\Users\Petro\AppData\Local\Temp\cc3QZWVy.s 			page 23


 549 0056 BA       		.byte	-70
 550 0057 02       		.byte	2
 551 0058 BE       		.byte	-66
 552 0059 54       		.byte	84
 553 005a BF       		.byte	-65
 554 005b 01       		.byte	1
 555 005c D4       		.byte	-44
 556 005d 18       		.byte	24
 557 005e D6       		.byte	-42
 558 005f 04       		.byte	4
 559 0060 D8       		.byte	-40
 560 0061 04       		.byte	4
 561 0062 D9       		.byte	-39
 562 0063 04       		.byte	4
 563 0064 DB       		.byte	-37
 564 0065 04       		.byte	4
 565 0066 DF       		.byte	-33
 566 0067 01       		.byte	1
 567 0068 00       		.byte	0
 568 0069 40       		.byte	64
 569 006a 03       		.byte	3
 570 006b 28       		.byte	40
 571 006c 04       		.byte	4
 572 006d 20       		.byte	32
 573 006e 05       		.byte	5
 574 006f 01       		.byte	1
 575 0070 08       		.byte	8
 576 0071 90       		.byte	-112
 577 0072 09       		.byte	9
 578 0073 08       		.byte	8
 579 0074 0A       		.byte	10
 580 0075 40       		.byte	64
 581 0076 0E       		.byte	14
 582 0077 01       		.byte	1
 583 0078 10       		.byte	16
 584 0079 80       		.byte	-128
 585 007a 12       		.byte	18
 586 007b 01       		.byte	1
 587 007c 13       		.byte	19
 588 007d 14       		.byte	20
 589 007e 14       		.byte	20
 590 007f 20       		.byte	32
 591 0080 16       		.byte	22
 592 0081 04       		.byte	4
 593 0082 17       		.byte	23
 594 0083 02       		.byte	2
 595 0084 19       		.byte	25
 596 0085 62       		.byte	98
 597 0086 1A       		.byte	26
 598 0087 01       		.byte	1
 599 0088 1B       		.byte	27
 600 0089 08       		.byte	8
 601 008a 1C       		.byte	28
 602 008b 40       		.byte	64
 603 008c 1E       		.byte	30
 604 008d 08       		.byte	8
 605 008e 1F       		.byte	31
ARM GAS  C:\Users\Petro\AppData\Local\Temp\cc3QZWVy.s 			page 24


 606 008f 44       		.byte	68
 607 0090 22       		.byte	34
 608 0091 01       		.byte	1
 609 0092 23       		.byte	35
 610 0093 1A       		.byte	26
 611 0094 27       		.byte	39
 612 0095 40       		.byte	64
 613 0096 29       		.byte	41
 614 0097 20       		.byte	32
 615 0098 2A       		.byte	42
 616 0099 01       		.byte	1
 617 009a 2B       		.byte	43
 618 009b 02       		.byte	2
 619 009c 31       		.byte	49
 620 009d 10       		.byte	16
 621 009e 32       		.byte	50
 622 009f 01       		.byte	1
 623 00a0 33       		.byte	51
 624 00a1 08       		.byte	8
 625 00a2 35       		.byte	53
 626 00a3 04       		.byte	4
 627 00a4 38       		.byte	56
 628 00a5 48       		.byte	72
 629 00a6 3A       		.byte	58
 630 00a7 02       		.byte	2
 631 00a8 3B       		.byte	59
 632 00a9 10       		.byte	16
 633 00aa 40       		.byte	64
 634 00ab 09       		.byte	9
 635 00ac 41       		.byte	65
 636 00ad 01       		.byte	1
 637 00ae 42       		.byte	66
 638 00af 40       		.byte	64
 639 00b0 43       		.byte	67
 640 00b1 02       		.byte	2
 641 00b2 49       		.byte	73
 642 00b3 61       		.byte	97
 643 00b4 52       		.byte	82
 644 00b5 04       		.byte	4
 645 00b6 5B       		.byte	91
 646 00b7 08       		.byte	8
 647 00b8 5D       		.byte	93
 648 00b9 02       		.byte	2
 649 00ba 67       		.byte	103
 650 00bb 4A       		.byte	74
 651 00bc 69       		.byte	105
 652 00bd 54       		.byte	84
 653 00be 70       		.byte	112
 654 00bf 84       		.byte	-124
 655 00c0 71       		.byte	113
 656 00c1 18       		.byte	24
 657 00c2 72       		.byte	114
 658 00c3 02       		.byte	2
 659 00c4 73       		.byte	115
 660 00c5 04       		.byte	4
 661 00c6 82       		.byte	-126
 662 00c7 04       		.byte	4
ARM GAS  C:\Users\Petro\AppData\Local\Temp\cc3QZWVy.s 			page 25


 663 00c8 83       		.byte	-125
 664 00c9 41       		.byte	65
 665 00ca 87       		.byte	-121
 666 00cb 40       		.byte	64
 667 00cc 88       		.byte	-120
 668 00cd 20       		.byte	32
 669 00ce 8B       		.byte	-117
 670 00cf 40       		.byte	64
 671 00d0 8C       		.byte	-116
 672 00d1 10       		.byte	16
 673 00d2 C0       		.byte	-64
 674 00d3 57       		.byte	87
 675 00d4 C2       		.byte	-62
 676 00d5 8F       		.byte	-113
 677 00d6 C4       		.byte	-60
 678 00d7 7F       		.byte	127
 679 00d8 CA       		.byte	-54
 680 00d9 0D       		.byte	13
 681 00da CC       		.byte	-52
 682 00db 47       		.byte	71
 683 00dc CE       		.byte	-50
 684 00dd 0F       		.byte	15
 685 00de D0       		.byte	-48
 686 00df 0D       		.byte	13
 687 00e0 D2       		.byte	-46
 688 00e1 0C       		.byte	12
 689 00e2 D6       		.byte	-42
 690 00e3 82       		.byte	-126
 691 00e4 D8       		.byte	-40
 692 00e5 B0       		.byte	-80
 693 00e6 E0       		.byte	-32
 694 00e7 80       		.byte	-128
 695 00e8 E4       		.byte	-28
 696 00e9 40       		.byte	64
 697 00ea E6       		.byte	-26
 698 00eb 80       		.byte	-128
 699 00ec 01       		.byte	1
 700 00ed 80       		.byte	-128
 701 00ee 03       		.byte	3
 702 00ef 13       		.byte	19
 703 00f0 06       		.byte	6
 704 00f1 03       		.byte	3
 705 00f2 08       		.byte	8
 706 00f3 DC       		.byte	-36
 707 00f4 0A       		.byte	10
 708 00f5 22       		.byte	34
 709 00f6 0B       		.byte	11
 710 00f7 08       		.byte	8
 711 00f8 0C       		.byte	12
 712 00f9 10       		.byte	16
 713 00fa 0E       		.byte	14
 714 00fb AC       		.byte	-84
 715 00fc 13       		.byte	19
 716 00fd 0C       		.byte	12
 717 00fe 15       		.byte	21
 718 00ff 2C       		.byte	44
 719 0100 17       		.byte	23
ARM GAS  C:\Users\Petro\AppData\Local\Temp\cc3QZWVy.s 			page 26


 720 0101 43       		.byte	67
 721 0102 18       		.byte	24
 722 0103 0C       		.byte	12
 723 0104 1A       		.byte	26
 724 0105 71       		.byte	113
 725 0106 1E       		.byte	30
 726 0107 20       		.byte	32
 727 0108 20       		.byte	32
 728 0109 09       		.byte	9
 729 010a 22       		.byte	34
 730 010b D0       		.byte	-48
 731 010c 24       		.byte	36
 732 010d 10       		.byte	16
 733 010e 25       		.byte	37
 734 010f 71       		.byte	113
 735 0110 26       		.byte	38
 736 0111 40       		.byte	64
 737 0112 27       		.byte	39
 738 0113 0E       		.byte	14
 739 0114 28       		.byte	40
 740 0115 14       		.byte	20
 741 0116 2D       		.byte	45
 742 0117 71       		.byte	113
 743 0118 2F       		.byte	47
 744 0119 06       		.byte	6
 745 011a 32       		.byte	50
 746 011b 1F       		.byte	31
 747 011c 33       		.byte	51
 748 011d 30       		.byte	48
 749 011e 34       		.byte	52
 750 011f E0       		.byte	-32
 751 0120 35       		.byte	53
 752 0121 0F       		.byte	15
 753 0122 37       		.byte	55
 754 0123 C0       		.byte	-64
 755 0124 39       		.byte	57
 756 0125 88       		.byte	-120
 757 0126 3A       		.byte	58
 758 0127 20       		.byte	32
 759 0128 3B       		.byte	59
 760 0129 20       		.byte	32
 761 012a 3F       		.byte	63
 762 012b 04       		.byte	4
 763 012c 40       		.byte	64
 764 012d 02       		.byte	2
 765 012e 46       		.byte	70
 766 012f 40       		.byte	64
 767 0130 49       		.byte	73
 768 0131 FF       		.byte	-1
 769 0132 4A       		.byte	74
 770 0133 07       		.byte	7
 771 0134 4B       		.byte	75
 772 0135 FF       		.byte	-1
 773 0136 4C       		.byte	76
 774 0137 40       		.byte	64
 775 0138 4D       		.byte	77
 776 0139 20       		.byte	32
ARM GAS  C:\Users\Petro\AppData\Local\Temp\cc3QZWVy.s 			page 27


 777 013a 4E       		.byte	78
 778 013b F0       		.byte	-16
 779 013c 4F       		.byte	79
 780 013d 05       		.byte	5
 781 013e 50       		.byte	80
 782 013f 08       		.byte	8
 783 0140 58       		.byte	88
 784 0141 04       		.byte	4
 785 0142 59       		.byte	89
 786 0143 04       		.byte	4
 787 0144 5A       		.byte	90
 788 0145 04       		.byte	4
 789 0146 5F       		.byte	95
 790 0147 01       		.byte	1
 791 0148 60       		.byte	96
 792 0149 40       		.byte	64
 793 014a 61       		.byte	97
 794 014b A8       		.byte	-88
 795 014c 62       		.byte	98
 796 014d 40       		.byte	64
 797 014e 63       		.byte	99
 798 014f 20       		.byte	32
 799 0150 81       		.byte	-127
 800 0151 01       		.byte	1
 801 0152 82       		.byte	-126
 802 0153 08       		.byte	8
 803 0154 83       		.byte	-125
 804 0155 0A       		.byte	10
 805 0156 84       		.byte	-124
 806 0157 0A       		.byte	10
 807 0158 86       		.byte	-122
 808 0159 14       		.byte	20
 809 015a 87       		.byte	-121
 810 015b 04       		.byte	4
 811 015c 88       		.byte	-120
 812 015d 20       		.byte	32
 813 015e 89       		.byte	-119
 814 015f 13       		.byte	19
 815 0160 8A       		.byte	-118
 816 0161 C0       		.byte	-64
 817 0162 8D       		.byte	-115
 818 0163 10       		.byte	16
 819 0164 8E       		.byte	-114
 820 0165 15       		.byte	21
 821 0166 90       		.byte	-112
 822 0167 13       		.byte	19
 823 0168 92       		.byte	-110
 824 0169 0C       		.byte	12
 825 016a 94       		.byte	-108
 826 016b 80       		.byte	-128
 827 016c 96       		.byte	-106
 828 016d 20       		.byte	32
 829 016e 98       		.byte	-104
 830 016f 13       		.byte	19
 831 0170 99       		.byte	-103
 832 0171 02       		.byte	2
 833 0172 9A       		.byte	-102
ARM GAS  C:\Users\Petro\AppData\Local\Temp\cc3QZWVy.s 			page 28


 834 0173 04       		.byte	4
 835 0174 9B       		.byte	-101
 836 0175 09       		.byte	9
 837 0176 A0       		.byte	-96
 838 0177 03       		.byte	3
 839 0178 A1       		.byte	-95
 840 0179 20       		.byte	32
 841 017a A2       		.byte	-94
 842 017b 14       		.byte	20
 843 017c A4       		.byte	-92
 844 017d E0       		.byte	-32
 845 017e A8       		.byte	-88
 846 017f E0       		.byte	-32
 847 0180 A9       		.byte	-87
 848 0181 13       		.byte	19
 849 0182 AC       		.byte	-84
 850 0183 40       		.byte	64
 851 0184 AE       		.byte	-82
 852 0185 20       		.byte	32
 853 0186 B0       		.byte	-80
 854 0187 0F       		.byte	15
 855 0188 B1       		.byte	-79
 856 0189 10       		.byte	16
 857 018a B3       		.byte	-77
 858 018b 20       		.byte	32
 859 018c B4       		.byte	-76
 860 018d E0       		.byte	-32
 861 018e B5       		.byte	-75
 862 018f 03       		.byte	3
 863 0190 B6       		.byte	-74
 864 0191 10       		.byte	16
 865 0192 B7       		.byte	-73
 866 0193 0C       		.byte	12
 867 0194 BA       		.byte	-70
 868 0195 02       		.byte	2
 869 0196 BE       		.byte	-66
 870 0197 40       		.byte	64
 871 0198 BF       		.byte	-65
 872 0199 44       		.byte	68
 873 019a C0       		.byte	-64
 874 019b 54       		.byte	84
 875 019c C1       		.byte	-63
 876 019d 02       		.byte	2
 877 019e C5       		.byte	-59
 878 019f E0       		.byte	-32
 879 01a0 C6       		.byte	-58
 880 01a1 0C       		.byte	12
 881 01a2 C7       		.byte	-57
 882 01a3 0B       		.byte	11
 883 01a4 C8       		.byte	-56
 884 01a5 16       		.byte	22
 885 01a6 C9       		.byte	-55
 886 01a7 FF       		.byte	-1
 887 01a8 CA       		.byte	-54
 888 01a9 FF       		.byte	-1
 889 01aa CB       		.byte	-53
 890 01ab FF       		.byte	-1
ARM GAS  C:\Users\Petro\AppData\Local\Temp\cc3QZWVy.s 			page 29


 891 01ac CE       		.byte	-50
 892 01ad F0       		.byte	-16
 893 01ae CF       		.byte	-49
 894 01af 44       		.byte	68
 895 01b0 D0       		.byte	-48
 896 01b1 0C       		.byte	12
 897 01b2 D4       		.byte	-44
 898 01b3 01       		.byte	1
 899 01b4 D8       		.byte	-40
 900 01b5 04       		.byte	4
 901 01b6 D9       		.byte	-39
 902 01b7 04       		.byte	4
 903 01b8 DA       		.byte	-38
 904 01b9 04       		.byte	4
 905 01ba DB       		.byte	-37
 906 01bb 04       		.byte	4
 907 01bc DF       		.byte	-33
 908 01bd 01       		.byte	1
 909 01be E6       		.byte	-26
 910 01bf C0       		.byte	-64
 911 01c0 EA       		.byte	-22
 912 01c1 40       		.byte	64
 913 01c2 EB       		.byte	-21
 914 01c3 02       		.byte	2
 915 01c4 00       		.byte	0
 916 01c5 04       		.byte	4
 917 01c6 01       		.byte	1
 918 01c7 20       		.byte	32
 919 01c8 02       		.byte	2
 920 01c9 80       		.byte	-128
 921 01ca 03       		.byte	3
 922 01cb 02       		.byte	2
 923 01cc 05       		.byte	5
 924 01cd 84       		.byte	-124
 925 01ce 07       		.byte	7
 926 01cf 08       		.byte	8
 927 01d0 0A       		.byte	10
 928 01d1 64       		.byte	100
 929 01d2 0E       		.byte	14
 930 01d3 04       		.byte	4
 931 01d4 0F       		.byte	15
 932 01d5 02       		.byte	2
 933 01d6 11       		.byte	17
 934 01d7 14       		.byte	20
 935 01d8 12       		.byte	18
 936 01d9 51       		.byte	81
 937 01da 16       		.byte	22
 938 01db 24       		.byte	36
 939 01dc 17       		.byte	23
 940 01dd 01       		.byte	1
 941 01de 18       		.byte	24
 942 01df 08       		.byte	8
 943 01e0 19       		.byte	25
 944 01e1 60       		.byte	96
 945 01e2 1A       		.byte	26
 946 01e3 40       		.byte	64
 947 01e4 1B       		.byte	27
ARM GAS  C:\Users\Petro\AppData\Local\Temp\cc3QZWVy.s 			page 30


 948 01e5 20       		.byte	32
 949 01e6 1D       		.byte	29
 950 01e7 04       		.byte	4
 951 01e8 1E       		.byte	30
 952 01e9 04       		.byte	4
 953 01ea 1F       		.byte	31
 954 01eb 10       		.byte	16
 955 01ec 20       		.byte	32
 956 01ed 01       		.byte	1
 957 01ee 21       		.byte	33
 958 01ef 01       		.byte	1
 959 01f0 22       		.byte	34
 960 01f1 14       		.byte	20
 961 01f2 24       		.byte	36
 962 01f3 04       		.byte	4
 963 01f4 26       		.byte	38
 964 01f5 80       		.byte	-128
 965 01f6 27       		.byte	39
 966 01f7 29       		.byte	41
 967 01f8 29       		.byte	41
 968 01f9 01       		.byte	1
 969 01fa 2A       		.byte	42
 970 01fb 10       		.byte	16
 971 01fc 2D       		.byte	45
 972 01fd 80       		.byte	-128
 973 01fe 2E       		.byte	46
 974 01ff 40       		.byte	64
 975 0200 2F       		.byte	47
 976 0201 10       		.byte	16
 977 0202 30       		.byte	48
 978 0203 10       		.byte	16
 979 0204 32       		.byte	50
 980 0205 10       		.byte	16
 981 0206 37       		.byte	55
 982 0207 09       		.byte	9
 983 0208 38       		.byte	56
 984 0209 08       		.byte	8
 985 020a 39       		.byte	57
 986 020b 50       		.byte	80
 987 020c 3A       		.byte	58
 988 020d 01       		.byte	1
 989 020e 3E       		.byte	62
 990 020f 20       		.byte	32
 991 0210 3F       		.byte	63
 992 0211 02       		.byte	2
 993 0212 42       		.byte	66
 994 0213 04       		.byte	4
 995 0214 43       		.byte	67
 996 0215 02       		.byte	2
 997 0216 47       		.byte	71
 998 0217 20       		.byte	32
 999 0218 49       		.byte	73
 1000 0219 81       		.byte	-127
 1001 021a 51       		.byte	81
 1002 021b 40       		.byte	64
 1003 021c 52       		.byte	82
 1004 021d 44       		.byte	68
ARM GAS  C:\Users\Petro\AppData\Local\Temp\cc3QZWVy.s 			page 31


 1005 021e 56       		.byte	86
 1006 021f 20       		.byte	32
 1007 0220 57       		.byte	87
 1008 0221 03       		.byte	3
 1009 0222 59       		.byte	89
 1010 0223 41       		.byte	65
 1011 0224 5A       		.byte	90
 1012 0225 18       		.byte	24
 1013 0226 8D       		.byte	-115
 1014 0227 40       		.byte	64
 1015 0228 8E       		.byte	-114
 1016 0229 10       		.byte	16
 1017 022a 91       		.byte	-111
 1018 022b 54       		.byte	84
 1019 022c 94       		.byte	-108
 1020 022d 01       		.byte	1
 1021 022e 95       		.byte	-107
 1022 022f 02       		.byte	2
 1023 0230 9A       		.byte	-102
 1024 0231 01       		.byte	1
 1025 0232 9C       		.byte	-100
 1026 0233 10       		.byte	16
 1027 0234 9D       		.byte	-99
 1028 0235 04       		.byte	4
 1029 0236 A7       		.byte	-89
 1030 0237 20       		.byte	32
 1031 0238 AA       		.byte	-86
 1032 0239 01       		.byte	1
 1033 023a AC       		.byte	-84
 1034 023b 80       		.byte	-128
 1035 023c AD       		.byte	-83
 1036 023d 20       		.byte	32
 1037 023e B4       		.byte	-76
 1038 023f 48       		.byte	72
 1039 0240 C0       		.byte	-64
 1040 0241 EF       		.byte	-17
 1041 0242 C2       		.byte	-62
 1042 0243 CE       		.byte	-50
 1043 0244 C4       		.byte	-60
 1044 0245 7F       		.byte	127
 1045 0246 CA       		.byte	-54
 1046 0247 55       		.byte	85
 1047 0248 CC       		.byte	-52
 1048 0249 C4       		.byte	-60
 1049 024a CE       		.byte	-50
 1050 024b AF       		.byte	-81
 1051 024c D0       		.byte	-48
 1052 024d 25       		.byte	37
 1053 024e D2       		.byte	-46
 1054 024f 08       		.byte	8
 1055 0250 D6       		.byte	-42
 1056 0251 0F       		.byte	15
 1057 0252 0A       		.byte	10
 1058 0253 40       		.byte	64
 1059 0254 10       		.byte	16
 1060 0255 80       		.byte	-128
 1061 0256 15       		.byte	21
ARM GAS  C:\Users\Petro\AppData\Local\Temp\cc3QZWVy.s 			page 32


 1062 0257 10       		.byte	16
 1063 0258 63       		.byte	99
 1064 0259 20       		.byte	32
 1065 025a 6F       		.byte	111
 1066 025b 02       		.byte	2
 1067 025c 73       		.byte	115
 1068 025d 02       		.byte	2
 1069 025e 83       		.byte	-125
 1070 025f 10       		.byte	16
 1071 0260 87       		.byte	-121
 1072 0261 02       		.byte	2
 1073 0262 89       		.byte	-119
 1074 0263 10       		.byte	16
 1075 0264 8B       		.byte	-117
 1076 0265 02       		.byte	2
 1077 0266 8C       		.byte	-116
 1078 0267 80       		.byte	-128
 1079 0268 C2       		.byte	-62
 1080 0269 10       		.byte	16
 1081 026a C4       		.byte	-60
 1082 026b 90       		.byte	-112
 1083 026c D8       		.byte	-40
 1084 026d 40       		.byte	64
 1085 026e DA       		.byte	-38
 1086 026f 80       		.byte	-128
 1087 0270 DC       		.byte	-36
 1088 0271 20       		.byte	32
 1089 0272 E6       		.byte	-26
 1090 0273 C0       		.byte	-64
 1091 0274 AA       		.byte	-86
 1092 0275 40       		.byte	64
 1093 0276 E8       		.byte	-24
 1094 0277 20       		.byte	32
 1095 0278 10       		.byte	16
 1096 0279 01       		.byte	1
 1097 027a 11       		.byte	17
 1098 027b 01       		.byte	1
 1099              		.type	BS_UDB_0_1_0_CONFIG_VAL.4748, %object
 1100              		.size	BS_UDB_0_1_0_CONFIG_VAL.4748, 128
 1101              	BS_UDB_0_1_0_CONFIG_VAL.4748:
 1102 027c 00       		.byte	0
 1103 027d 10       		.byte	16
 1104 027e 00       		.byte	0
 1105 027f 00       		.byte	0
 1106 0280 C3       		.byte	-61
 1107 0281 18       		.byte	24
 1108 0282 00       		.byte	0
 1109 0283 00       		.byte	0
 1110 0284 0F       		.byte	15
 1111 0285 3C       		.byte	60
 1112 0286 F0       		.byte	-16
 1113 0287 42       		.byte	66
 1114 0288 FF       		.byte	-1
 1115 0289 7F       		.byte	127
 1116 028a 00       		.byte	0
 1117 028b 00       		.byte	0
 1118 028c 00       		.byte	0
ARM GAS  C:\Users\Petro\AppData\Local\Temp\cc3QZWVy.s 			page 33


 1119 028d 00       		.byte	0
 1120 028e F3       		.byte	-13
 1121 028f 04       		.byte	4
 1122 0290 0C       		.byte	12
 1123 0291 3C       		.byte	60
 1124 0292 00       		.byte	0
 1125 0293 41       		.byte	65
 1126 0294 82       		.byte	-126
 1127 0295 08       		.byte	8
 1128 0296 00       		.byte	0
 1129 0297 00       		.byte	0
 1130 0298 F3       		.byte	-13
 1131 0299 00       		.byte	0
 1132 029a 0C       		.byte	12
 1133 029b 00       		.byte	0
 1134 029c 08       		.byte	8
 1135 029d 04       		.byte	4
 1136 029e 00       		.byte	0
 1137 029f 80       		.byte	-128
 1138 02a0 04       		.byte	4
 1139 02a1 00       		.byte	0
 1140 02a2 00       		.byte	0
 1141 02a3 00       		.byte	0
 1142 02a4 1C       		.byte	28
 1143 02a5 67       		.byte	103
 1144 02a6 E3       		.byte	-29
 1145 02a7 18       		.byte	24
 1146 02a8 41       		.byte	65
 1147 02a9 00       		.byte	0
 1148 02aa 00       		.byte	0
 1149 02ab 03       		.byte	3
 1150 02ac C0       		.byte	-64
 1151 02ad 80       		.byte	-128
 1152 02ae 2C       		.byte	44
 1153 02af 1F       		.byte	31
 1154 02b0 0F       		.byte	15
 1155 02b1 20       		.byte	32
 1156 02b2 1C       		.byte	28
 1157 02b3 40       		.byte	64
 1158 02b4 00       		.byte	0
 1159 02b5 80       		.byte	-128
 1160 02b6 28       		.byte	40
 1161 02b7 08       		.byte	8
 1162 02b8 00       		.byte	0
 1163 02b9 00       		.byte	0
 1164 02ba 00       		.byte	0
 1165 02bb 10       		.byte	16
 1166 02bc 64       		.byte	100
 1167 02bd 02       		.byte	2
 1168 02be 05       		.byte	5
 1169 02bf 00       		.byte	0
 1170 02c0 01       		.byte	1
 1171 02c1 C0       		.byte	-64
 1172 02c2 00       		.byte	0
 1173 02c3 0E       		.byte	14
 1174 02c4 12       		.byte	18
 1175 02c5 FF       		.byte	-1
ARM GAS  C:\Users\Petro\AppData\Local\Temp\cc3QZWVy.s 			page 34


 1176 02c6 FF       		.byte	-1
 1177 02c7 FF       		.byte	-1
 1178 02c8 62       		.byte	98
 1179 02c9 A0       		.byte	-96
 1180 02ca F0       		.byte	-16
 1181 02cb 41       		.byte	65
 1182 02cc 0C       		.byte	12
 1183 02cd 00       		.byte	0
 1184 02ce 00       		.byte	0
 1185 02cf 00       		.byte	0
 1186 02d0 00       		.byte	0
 1187 02d1 00       		.byte	0
 1188 02d2 02       		.byte	2
 1189 02d3 12       		.byte	18
 1190 02d4 04       		.byte	4
 1191 02d5 04       		.byte	4
 1192 02d6 04       		.byte	4
 1193 02d7 04       		.byte	4
 1194 02d8 00       		.byte	0
 1195 02d9 00       		.byte	0
 1196 02da 00       		.byte	0
 1197 02db 01       		.byte	1
 1198 02dc 00       		.byte	0
 1199 02dd 00       		.byte	0
 1200 02de 00       		.byte	0
 1201 02df 00       		.byte	0
 1202 02e0 00       		.byte	0
 1203 02e1 00       		.byte	0
 1204 02e2 40       		.byte	64
 1205 02e3 02       		.byte	2
 1206 02e4 00       		.byte	0
 1207 02e5 10       		.byte	16
 1208 02e6 30       		.byte	48
 1209 02e7 10       		.byte	16
 1210 02e8 00       		.byte	0
 1211 02e9 10       		.byte	16
 1212 02ea 10       		.byte	16
 1213 02eb 12       		.byte	18
 1214 02ec 00       		.byte	0
 1215 02ed 00       		.byte	0
 1216 02ee 00       		.byte	0
 1217 02ef 00       		.byte	0
 1218 02f0 00       		.byte	0
 1219 02f1 00       		.byte	0
 1220 02f2 00       		.byte	0
 1221 02f3 00       		.byte	0
 1222 02f4 00       		.byte	0
 1223 02f5 00       		.byte	0
 1224 02f6 00       		.byte	0
 1225 02f7 00       		.byte	0
 1226 02f8 00       		.byte	0
 1227 02f9 00       		.byte	0
 1228 02fa 00       		.byte	0
 1229 02fb 00       		.byte	0
 1230              		.text
 1231              	.Letext0:
 1232              		.file 2 "c:\\program files (x86)\\cypress\\psoc creator\\3.3\\psoc creator\\import\\gnu\\arm\\4.9.
ARM GAS  C:\Users\Petro\AppData\Local\Temp\cc3QZWVy.s 			page 35


 1233              		.file 3 ".\\Generated_Source\\PSoC4\\cytypes.h"
 1234              		.file 4 ".\\Generated_Source\\PSoC4\\CyLib.h"