ARM GAS  C:\Users\Petro\AppData\Local\Temp\ccU3ilP1.s 			page 1


   1              		.cpu cortex-m0
   2              		.fpu softvfp
   3              		.eabi_attribute 20, 1
   4              		.eabi_attribute 21, 1
   5              		.eabi_attribute 23, 3
   6              		.eabi_attribute 24, 1
   7              		.eabi_attribute 25, 1
   8              		.eabi_attribute 26, 1
   9              		.eabi_attribute 30, 1
  10              		.eabi_attribute 34, 0
  11              		.eabi_attribute 18, 4
  12              		.code	16
  13              		.file	"main.c"
  14              		.text
  15              	.Ltext0:
  16              		.cfi_sections	.debug_frame
  17              		.section	.text.in_dataHandler,"ax",%progbits
  18              		.align	2
  19              		.global	in_dataHandler
  20              		.code	16
  21              		.thumb_func
  22              		.type	in_dataHandler, %function
  23              	in_dataHandler:
  24              	.LFB35:
  25              		.file 1 ".\\main.c"
   1:.\main.c      **** #include <project.h>
   2:.\main.c      **** #include <stdio.h>     
   3:.\main.c      **** #include <stdbool.h>
   4:.\main.c      **** 
   5:.\main.c      **** /* max number skier */
   6:.\main.c      **** #define MAXSKIER 9    
   7:.\main.c      **** 
   8:.\main.c      **** /*Commands*/
   9:.\main.c      **** #define COMMAND_START       's'
  10:.\main.c      **** #define COMMAND_CANCEL      'c'
  11:.\main.c      **** #define COMMAND_READ        'r'
  12:.\main.c      **** #define COMMAND_ST_CONNECT  'q'
  13:.\main.c      **** 
  14:.\main.c      **** /*button click*/
  15:.\main.c      **** #define PRESSED 0
  16:.\main.c      ****   
  17:.\main.c      **** /* Structure for have current skyer time */
  18:.\main.c      **** struct time{
  19:.\main.c      ****     uint16_t hour;
  20:.\main.c      ****     uint16_t min;
  21:.\main.c      ****     uint16_t sec;
  22:.\main.c      ****     uint16_t msec;
  23:.\main.c      **** };
  24:.\main.c      **** 
  25:.\main.c      **** /* Structure for have start, finish 
  26:.\main.c      **** *   and rezult  skier time
  27:.\main.c      **** */
  28:.\main.c      **** struct SKIERRESULT{
  29:.\main.c      ****     struct time start;
  30:.\main.c      ****     struct time finish;
  31:.\main.c      ****     struct time rezult;
  32:.\main.c      **** }skierRezult[MAXSKIER];      
ARM GAS  C:\Users\Petro\AppData\Local\Temp\ccU3ilP1.s 			page 2


  33:.\main.c      **** 
  34:.\main.c      **** 
  35:.\main.c      **** void LedIndication(bool start_press, bool cancel_press);
  36:.\main.c      **** void DisplayIndication(int numSkier, int numSkiers, struct SKIERRESULT *skierTime);
  37:.\main.c      **** void ReadTime(void);
  38:.\main.c      **** void displaySkierInfoOneSkier(int numSkier, struct time *skierInfo);
  39:.\main.c      **** void displaySkierInfoAllTable(struct SKIERRESULT skierInfo[]);
  40:.\main.c      **** 
  41:.\main.c      **** 
  42:.\main.c      **** /*flags pressed button */
  43:.\main.c      **** bool startPress = false;    
  44:.\main.c      **** bool cancelPress = false;
  45:.\main.c      **** 
  46:.\main.c      **** /*flags, true if skier on track*/
  47:.\main.c      **** bool onTrack = false;
  48:.\main.c      **** 
  49:.\main.c      **** /*number sportsmen last started and finished*/
  50:.\main.c      **** uint32_t last_started = 0;
  51:.\main.c      **** uint32_t last_finished = 0;
  52:.\main.c      **** 
  53:.\main.c      **** 
  54:.\main.c      **** /*interrupt for start or cancel button*/
  55:.\main.c      **** CY_ISR(buttonHandler)        
  56:.\main.c      **** {
  57:.\main.c      ****     if(start_Read()==PRESSED){
  58:.\main.c      ****         if(last_started < MAXSKIER){
  59:.\main.c      ****             
  60:.\main.c      ****             /*put simbol start and number for skier*/  
  61:.\main.c      ****             xbee_PutChar(COMMAND_START);  
  62:.\main.c      ****             
  63:.\main.c      ****             last_started++;
  64:.\main.c      ****             /*skier on track*/
  65:.\main.c      ****             onTrack = true;
  66:.\main.c      ****             /* LED indication*/
  67:.\main.c      ****             startPress = true;
  68:.\main.c      ****             LedIndication(startPress, cancelPress);
  69:.\main.c      ****             startPress = false;
  70:.\main.c      ****         }
  71:.\main.c      ****     start_ClearInterrupt();
  72:.\main.c      ****     }
  73:.\main.c      ****     else if(cancel_Read()==PRESSED){
  74:.\main.c      ****         if(onTrack){
  75:.\main.c      ****             char string_buff[16];
  76:.\main.c      ****             
  77:.\main.c      ****             /*put simbol cancel and number for skier*/
  78:.\main.c      ****             sprintf(string_buff,"%c%c",COMMAND_CANCEL,last_started+'0');
  79:.\main.c      ****             xbee_PutString(string_buff);
  80:.\main.c      ****             
  81:.\main.c      ****             /*delet ende skier*/
  82:.\main.c      ****             if(last_started > 1)last_started--;
  83:.\main.c      ****             else onTrack = false;
  84:.\main.c      ****             
  85:.\main.c      ****             /*LED indication*/
  86:.\main.c      ****             cancelPress = true;
  87:.\main.c      ****             LedIndication(startPress, cancelPress);
  88:.\main.c      ****             cancelPress = false;
  89:.\main.c      ****         }
ARM GAS  C:\Users\Petro\AppData\Local\Temp\ccU3ilP1.s 			page 3


  90:.\main.c      ****     cancel_ClearInterrupt();
  91:.\main.c      ****     }
  92:.\main.c      **** }
  93:.\main.c      **** 
  94:.\main.c      **** /*intettupt for incoming data*/
  95:.\main.c      **** CY_ISR(in_dataHandler)    
  96:.\main.c      **** {       
  26              		.loc 1 96 0
  27              		.cfi_startproc
  97:.\main.c      ****     /*record time skiers */
  98:.\main.c      ****     //ReadTime();
  99:.\main.c      **** }
  28              		.loc 1 99 0
  29              		@ sp needed
  30 0000 7047     		bx	lr
  31              		.cfi_endproc
  32              	.LFE35:
  33              		.size	in_dataHandler, .-in_dataHandler
  34 0002 C046     		.section	.text.statusHandler,"ax",%progbits
  35              		.align	2
  36              		.global	statusHandler
  37              		.code	16
  38              		.thumb_func
  39              		.type	statusHandler, %function
  40              	statusHandler:
  41              	.LFB36:
 100:.\main.c      **** 
 101:.\main.c      **** CY_ISR(statusHandler)
 102:.\main.c      **** {
  42              		.loc 1 102 0
  43              		.cfi_startproc
  44 0000 08B5     		push	{r3, lr}
  45              		.cfi_def_cfa_offset 8
  46              		.cfi_offset 3, -8
  47              		.cfi_offset 14, -4
 103:.\main.c      ****     xbee_PutChar(COMMAND_ST_CONNECT);
  48              		.loc 1 103 0
  49 0002 7120     		mov	r0, #113
  50 0004 FFF7FEFF 		bl	xbee_PutChar
  51              	.LVL0:
 104:.\main.c      ****     
 105:.\main.c      ****     CySysWdtClearInterrupt(CY_SYS_WDT_COUNTER0_INT);
  52              		.loc 1 105 0
  53 0008 0420     		mov	r0, #4
  54 000a FFF7FEFF 		bl	CySysWdtClearInterrupt
  55              	.LVL1:
 106:.\main.c      **** }
  56              		.loc 1 106 0
  57              		@ sp needed
  58 000e 08BD     		pop	{r3, pc}
  59              		.cfi_endproc
  60              	.LFE36:
  61              		.size	statusHandler, .-statusHandler
  62              		.section	.text.displaySkierInfoAllTable,"ax",%progbits
  63              		.align	2
  64              		.global	displaySkierInfoAllTable
  65              		.code	16
ARM GAS  C:\Users\Petro\AppData\Local\Temp\ccU3ilP1.s 			page 4


  66              		.thumb_func
  67              		.type	displaySkierInfoAllTable, %function
  68              	displaySkierInfoAllTable:
  69              	.LFB38:
 107:.\main.c      **** 
 108:.\main.c      **** 
 109:.\main.c      **** 
 110:.\main.c      **** int main(void)
 111:.\main.c      **** {
 112:.\main.c      ****     CyGlobalIntEnable;   
 113:.\main.c      ****     
 114:.\main.c      ****     xbee_Start();                       
 115:.\main.c      ****     display_Start();
 116:.\main.c      ****             
 117:.\main.c      ****     int_inputData_StartEx(in_dataHandler);
 118:.\main.c      ****     int_button_StartEx(buttonHandler); 
 119:.\main.c      ****     int_status_StartEx(statusHandler);
 120:.\main.c      ****     
 121:.\main.c      ****     
 122:.\main.c      ****     for(;;)
 123:.\main.c      ****     {  
 124:.\main.c      ****         LedIndication(startPress, cancelPress);
 125:.\main.c      ****         CyDelay(2000);
 126:.\main.c      **** 
 127:.\main.c      ****         int skierToDisplay = last_finished;
 128:.\main.c      ****         
 129:.\main.c      ****         displaySkierInfoOneSkier(skierToDisplay, &skierRezult[skierToDisplay].rezult);
 130:.\main.c      ****         //displaySkierInfoAllTable(skierRezult);
 131:.\main.c      ****     }
 132:.\main.c      **** }
 133:.\main.c      **** 
 134:.\main.c      **** 
 135:.\main.c      **** /*******************************************************
 136:.\main.c      **** * Function name: displaySkierInfoAllTable
 137:.\main.c      **** *
 138:.\main.c      **** * Function  print time all skier on display
 139:.\main.c      **** * display - row = 2, column = 16
 140:.\main.c      **** *
 141:.\main.c      **** * Parameters:
 142:.\main.c      **** * numSkier - num skier, you want to print
 143:.\main.c      **** * *skierInfo - struct from data about time skiers
 144:.\main.c      **** *
 145:.\main.c      **** *******************************************************/
 146:.\main.c      **** void displaySkierInfoAllTable(struct SKIERRESULT skierInfo[])
 147:.\main.c      **** {
  70              		.loc 1 147 0
  71              		.cfi_startproc
  72              	.LVL2:
  73 0000 70B5     		push	{r4, r5, r6, lr}
  74              		.cfi_def_cfa_offset 16
  75              		.cfi_offset 4, -16
  76              		.cfi_offset 5, -12
  77              		.cfi_offset 6, -8
  78              		.cfi_offset 14, -4
  79 0002 88B0     		sub	sp, sp, #32
  80              		.cfi_def_cfa_offset 48
  81 0004 061C     		mov	r6, r0
ARM GAS  C:\Users\Petro\AppData\Local\Temp\ccU3ilP1.s 			page 5


  82              	.LVL3:
 148:.\main.c      ****     int i;
 149:.\main.c      ****     /*row and column display*/
 150:.\main.c      ****     int row = 2;
 151:.\main.c      ****     int column = 16;
 152:.\main.c      ****     char string_buff[column];
 153:.\main.c      **** 
 154:.\main.c      ****     for(i=0; i<row;i++)
  83              		.loc 1 154 0
  84 0006 0025     		mov	r5, #0
  85 0008 18E0     		b	.L4
  86              	.LVL4:
  87              	.L5:
 155:.\main.c      ****     {
 156:.\main.c      ****         sprintf(string_buff,"%i - %d:%d:%d:%d",  
  88              		.loc 1 156 0 discriminator 3
  89 000a 6C1C     		add	r4, r5, #1
 157:.\main.c      ****             i+1,skierInfo[i].rezult.hour, skierInfo[i].rezult.min, 
  90              		.loc 1 157 0 discriminator 3
  91 000c 6A00     		lsl	r2, r5, #1
  92 000e 5219     		add	r2, r2, r5
  93 0010 D200     		lsl	r2, r2, #3
  94 0012 B218     		add	r2, r6, r2
  95 0014 138A     		ldrh	r3, [r2, #16]
  96 0016 508A     		ldrh	r0, [r2, #18]
 158:.\main.c      ****             skierInfo[i].rezult.sec, skierInfo[i].rezult.msec);
  97              		.loc 1 158 0 discriminator 3
  98 0018 918A     		ldrh	r1, [r2, #20]
  99 001a D28A     		ldrh	r2, [r2, #22]
 156:.\main.c      ****             i+1,skierInfo[i].rezult.hour, skierInfo[i].rezult.min, 
 100              		.loc 1 156 0 discriminator 3
 101 001c 0090     		str	r0, [sp]
 102 001e 0191     		str	r1, [sp, #4]
 103 0020 0292     		str	r2, [sp, #8]
 104 0022 04A8     		add	r0, sp, #16
 105              	.LVL5:
 106 0024 0749     		ldr	r1, .L6
 107 0026 221C     		mov	r2, r4
 108 0028 FFF7FEFF 		bl	sprintf
 109              	.LVL6:
 159:.\main.c      ****         display_Position(i,0);
 110              		.loc 1 159 0 discriminator 3
 111 002c E8B2     		uxtb	r0, r5
 112 002e 0021     		mov	r1, #0
 113 0030 FFF7FEFF 		bl	display_Position
 114              	.LVL7:
 160:.\main.c      ****         display_PrintString(string_buff);        
 115              		.loc 1 160 0 discriminator 3
 116 0034 04A8     		add	r0, sp, #16
 117              	.LVL8:
 118 0036 FFF7FEFF 		bl	display_PrintString
 119              	.LVL9:
 154:.\main.c      ****     {
 120              		.loc 1 154 0 discriminator 3
 121 003a 251C     		mov	r5, r4
 122              	.LVL10:
 123              	.L4:
ARM GAS  C:\Users\Petro\AppData\Local\Temp\ccU3ilP1.s 			page 6


 154:.\main.c      ****     {
 124              		.loc 1 154 0 is_stmt 0 discriminator 1
 125 003c 012D     		cmp	r5, #1
 126 003e E4DD     		ble	.L5
 161:.\main.c      ****     }  
 162:.\main.c      **** }
 127              		.loc 1 162 0 is_stmt 1
 128 0040 08B0     		add	sp, sp, #32
 129              		@ sp needed
 130              	.LVL11:
 131              	.LVL12:
 132 0042 70BD     		pop	{r4, r5, r6, pc}
 133              	.L7:
 134              		.align	2
 135              	.L6:
 136 0044 00000000 		.word	.LC0
 137              		.cfi_endproc
 138              	.LFE38:
 139              		.size	displaySkierInfoAllTable, .-displaySkierInfoAllTable
 140              		.section	.text.displaySkierInfoOneSkier,"ax",%progbits
 141              		.align	2
 142              		.global	displaySkierInfoOneSkier
 143              		.code	16
 144              		.thumb_func
 145              		.type	displaySkierInfoOneSkier, %function
 146              	displaySkierInfoOneSkier:
 147              	.LFB39:
 163:.\main.c      **** 
 164:.\main.c      **** 
 165:.\main.c      **** /*******************************************************
 166:.\main.c      **** * Function name: displaySkierInfoOneSkier
 167:.\main.c      **** *
 168:.\main.c      **** * Function  print time one skier on display
 169:.\main.c      **** * time skier print in position (0,0)
 170:.\main.c      **** *
 171:.\main.c      **** * Parameters:
 172:.\main.c      **** * numSkier - num skier, you want to print
 173:.\main.c      **** * *skierInfo - struct from data about time skiers
 174:.\main.c      **** *
 175:.\main.c      **** *******************************************************/
 176:.\main.c      **** void displaySkierInfoOneSkier(int numSkier, struct time *skierInfo)
 177:.\main.c      **** {    
 148              		.loc 1 177 0
 149              		.cfi_startproc
 150              	.LVL13:
 151 0000 30B5     		push	{r4, r5, lr}
 152              		.cfi_def_cfa_offset 12
 153              		.cfi_offset 4, -12
 154              		.cfi_offset 5, -8
 155              		.cfi_offset 14, -4
 156 0002 89B0     		sub	sp, sp, #36
 157              		.cfi_def_cfa_offset 48
 178:.\main.c      ****     char string_buff[16];
 179:.\main.c      ****     
 180:.\main.c      ****     sprintf(string_buff,"%i - %d:%d:%d:%d",  
 181:.\main.c      ****         numSkier+1,skierInfo->hour, skierInfo->min, 
 158              		.loc 1 181 0
ARM GAS  C:\Users\Petro\AppData\Local\Temp\ccU3ilP1.s 			page 7


 159 0004 0B88     		ldrh	r3, [r1]
 160 0006 4D88     		ldrh	r5, [r1, #2]
 182:.\main.c      ****         skierInfo->sec, skierInfo->msec);
 161              		.loc 1 182 0
 162 0008 8C88     		ldrh	r4, [r1, #4]
 163 000a C988     		ldrh	r1, [r1, #6]
 164              	.LVL14:
 180:.\main.c      ****         numSkier+1,skierInfo->hour, skierInfo->min, 
 165              		.loc 1 180 0
 166 000c 421C     		add	r2, r0, #1
 167 000e 0095     		str	r5, [sp]
 168 0010 0194     		str	r4, [sp, #4]
 169 0012 0291     		str	r1, [sp, #8]
 170 0014 04A8     		add	r0, sp, #16
 171              	.LVL15:
 172 0016 0749     		ldr	r1, .L9
 173 0018 FFF7FEFF 		bl	sprintf
 174              	.LVL16:
 183:.\main.c      ****     display_ClearDisplay();
 175              		.loc 1 183 0
 176 001c 0120     		mov	r0, #1
 177 001e FFF7FEFF 		bl	display_WriteControl
 178              	.LVL17:
 184:.\main.c      ****     display_Position(0,0);
 179              		.loc 1 184 0
 180 0022 0020     		mov	r0, #0
 181 0024 0021     		mov	r1, #0
 182 0026 FFF7FEFF 		bl	display_Position
 183              	.LVL18:
 185:.\main.c      ****     display_PrintString(string_buff);
 184              		.loc 1 185 0
 185 002a 04A8     		add	r0, sp, #16
 186 002c FFF7FEFF 		bl	display_PrintString
 187              	.LVL19:
 186:.\main.c      **** }
 188              		.loc 1 186 0
 189 0030 09B0     		add	sp, sp, #36
 190              		@ sp needed
 191 0032 30BD     		pop	{r4, r5, pc}
 192              	.L10:
 193              		.align	2
 194              	.L9:
 195 0034 00000000 		.word	.LC0
 196              		.cfi_endproc
 197              	.LFE39:
 198              		.size	displaySkierInfoOneSkier, .-displaySkierInfoOneSkier
 199              		.section	.text.LedIndication,"ax",%progbits
 200              		.align	2
 201              		.global	LedIndication
 202              		.code	16
 203              		.thumb_func
 204              		.type	LedIndication, %function
 205              	LedIndication:
 206              	.LFB40:
 187:.\main.c      **** 
 188:.\main.c      **** 
 189:.\main.c      **** /*******************************************************
ARM GAS  C:\Users\Petro\AppData\Local\Temp\ccU3ilP1.s 			page 8


 190:.\main.c      **** * Function name: LedIndication
 191:.\main.c      **** *
 192:.\main.c      **** * Function  blink led 
 193:.\main.c      **** * when the key pressed:
 194:.\main.c      **** * if pressed "start", blinc blue led 6 times
 195:.\main.c      **** * if pressed "cancel", blinc red led 10 times
 196:.\main.c      **** *
 197:.\main.c      **** * Parameters:
 198:.\main.c      **** * startPress - press button Start. Valid range - true, falsh
 199:.\main.c      **** * cancelPress - press button Cancel. Valid range - true, false
 200:.\main.c      **** *
 201:.\main.c      **** *******************************************************/
 202:.\main.c      **** void LedIndication(bool start_press, bool cancel_press)
 203:.\main.c      **** {
 207              		.loc 1 203 0
 208              		.cfi_startproc
 209              	.LVL20:
 210 0000 38B5     		push	{r3, r4, r5, lr}
 211              		.cfi_def_cfa_offset 16
 212              		.cfi_offset 3, -16
 213              		.cfi_offset 4, -12
 214              		.cfi_offset 5, -8
 215              		.cfi_offset 14, -4
 216 0002 041C     		mov	r4, r0
 217 0004 0D1C     		mov	r5, r1
 218              	.LVL21:
 204:.\main.c      ****     int i;
 205:.\main.c      ****     int LED_ON = 0;
 206:.\main.c      ****     int LED_OFF = 1;
 207:.\main.c      ****     
 208:.\main.c      ****     /**blinc led*/   
 209:.\main.c      ****     led_blue_Write(LED_ON);
 219              		.loc 1 209 0
 220 0006 0020     		mov	r0, #0
 221              	.LVL22:
 222 0008 FFF7FEFF 		bl	led_blue_Write
 223              	.LVL23:
 210:.\main.c      ****     CyDelay(5);
 224              		.loc 1 210 0
 225 000c 0520     		mov	r0, #5
 226 000e FFF7FEFF 		bl	CyDelay
 227              	.LVL24:
 211:.\main.c      ****     led_blue_Write(LED_OFF);
 228              		.loc 1 211 0
 229 0012 0120     		mov	r0, #1
 230 0014 FFF7FEFF 		bl	led_blue_Write
 231              	.LVL25:
 212:.\main.c      ****     
 213:.\main.c      ****     /*func blinc blue led(start)*/
 214:.\main.c      ****     if(start_press){          
 232              		.loc 1 214 0
 233 0018 002C     		cmp	r4, #0
 234 001a 0BD1     		bne	.L18
 235 001c 0DE0     		b	.L13
 236              	.LVL26:
 237              	.L14:
 215:.\main.c      ****         for(i=0;i<6;i++){
ARM GAS  C:\Users\Petro\AppData\Local\Temp\ccU3ilP1.s 			page 9


 216:.\main.c      ****             led_blue_Write(~led_blue_Read());
 238              		.loc 1 216 0 discriminator 3
 239 001e FFF7FEFF 		bl	led_blue_Read
 240              	.LVL27:
 241 0022 C043     		mvn	r0, r0
 242 0024 C0B2     		uxtb	r0, r0
 243 0026 FFF7FEFF 		bl	led_blue_Write
 244              	.LVL28:
 217:.\main.c      ****             CyDelay(50);
 245              		.loc 1 217 0 discriminator 3
 246 002a 3220     		mov	r0, #50
 247 002c FFF7FEFF 		bl	CyDelay
 248              	.LVL29:
 215:.\main.c      ****         for(i=0;i<6;i++){
 249              		.loc 1 215 0 discriminator 3
 250 0030 0134     		add	r4, r4, #1
 251              	.LVL30:
 252 0032 00E0     		b	.L12
 253              	.LVL31:
 254              	.L18:
 255 0034 0024     		mov	r4, #0
 256              	.L12:
 257              	.LVL32:
 215:.\main.c      ****         for(i=0;i<6;i++){
 258              		.loc 1 215 0 is_stmt 0 discriminator 1
 259 0036 052C     		cmp	r4, #5
 260 0038 F1DD     		ble	.L14
 261              	.LVL33:
 262              	.L13:
 218:.\main.c      ****         }
 219:.\main.c      ****     }
 220:.\main.c      ****     /*func blinc red led(cancel)*/
 221:.\main.c      ****     if(cancel_press){
 263              		.loc 1 221 0 is_stmt 1
 264 003a 002D     		cmp	r5, #0
 265 003c 0BD1     		bne	.L19
 266 003e 0DE0     		b	.L11
 267              	.LVL34:
 268              	.L17:
 222:.\main.c      ****         for(i=0;i<10;i++){       
 223:.\main.c      ****             led_red_Write(~led_red_Read());
 269              		.loc 1 223 0 discriminator 3
 270 0040 FFF7FEFF 		bl	led_red_Read
 271              	.LVL35:
 272 0044 C043     		mvn	r0, r0
 273 0046 C0B2     		uxtb	r0, r0
 274 0048 FFF7FEFF 		bl	led_red_Write
 275              	.LVL36:
 224:.\main.c      ****             CyDelay(50);
 276              		.loc 1 224 0 discriminator 3
 277 004c 3220     		mov	r0, #50
 278 004e FFF7FEFF 		bl	CyDelay
 279              	.LVL37:
 222:.\main.c      ****         for(i=0;i<10;i++){       
 280              		.loc 1 222 0 discriminator 3
 281 0052 0134     		add	r4, r4, #1
 282              	.LVL38:
ARM GAS  C:\Users\Petro\AppData\Local\Temp\ccU3ilP1.s 			page 10


 283 0054 00E0     		b	.L15
 284              	.LVL39:
 285              	.L19:
 286 0056 0024     		mov	r4, #0
 287              	.L15:
 288              	.LVL40:
 222:.\main.c      ****         for(i=0;i<10;i++){       
 289              		.loc 1 222 0 is_stmt 0 discriminator 1
 290 0058 092C     		cmp	r4, #9
 291 005a F1DD     		ble	.L17
 292              	.LVL41:
 293              	.L11:
 225:.\main.c      ****         } 
 226:.\main.c      ****     }
 227:.\main.c      **** }
 294              		.loc 1 227 0 is_stmt 1
 295              		@ sp needed
 296 005c 38BD     		pop	{r3, r4, r5, pc}
 297              		.cfi_endproc
 298              	.LFE40:
 299              		.size	LedIndication, .-LedIndication
 300 005e C046     		.section	.text.buttonHandler,"ax",%progbits
 301              		.align	2
 302              		.global	buttonHandler
 303              		.code	16
 304              		.thumb_func
 305              		.type	buttonHandler, %function
 306              	buttonHandler:
 307              	.LFB34:
  56:.\main.c      ****     if(start_Read()==PRESSED){
 308              		.loc 1 56 0
 309              		.cfi_startproc
 310 0000 10B5     		push	{r4, lr}
 311              		.cfi_def_cfa_offset 8
 312              		.cfi_offset 4, -8
 313              		.cfi_offset 14, -4
 314 0002 84B0     		sub	sp, sp, #16
 315              		.cfi_def_cfa_offset 24
  57:.\main.c      ****         if(last_started < MAXSKIER){
 316              		.loc 1 57 0
 317 0004 FFF7FEFF 		bl	start_Read
 318              	.LVL42:
 319 0008 0028     		cmp	r0, #0
 320 000a 16D1     		bne	.L21
  58:.\main.c      ****             
 321              		.loc 1 58 0
 322 000c 204B     		ldr	r3, .L27
 323 000e 1B68     		ldr	r3, [r3]
 324 0010 082B     		cmp	r3, #8
 325 0012 0FD8     		bhi	.L22
  61:.\main.c      ****             
 326              		.loc 1 61 0
 327 0014 7330     		add	r0, r0, #115
 328 0016 FFF7FEFF 		bl	xbee_PutChar
 329              	.LVL43:
  63:.\main.c      ****             /*skier on track*/
 330              		.loc 1 63 0
ARM GAS  C:\Users\Petro\AppData\Local\Temp\ccU3ilP1.s 			page 11


 331 001a 1D4C     		ldr	r4, .L27
 332 001c 2368     		ldr	r3, [r4]
 333 001e 0133     		add	r3, r3, #1
 334 0020 2360     		str	r3, [r4]
  65:.\main.c      ****             /* LED indication*/
 335              		.loc 1 65 0
 336 0022 0123     		mov	r3, #1
 337 0024 2371     		strb	r3, [r4, #4]
  67:.\main.c      ****             LedIndication(startPress, cancelPress);
 338              		.loc 1 67 0
 339 0026 6371     		strb	r3, [r4, #5]
  68:.\main.c      ****             startPress = false;
 340              		.loc 1 68 0
 341 0028 A179     		ldrb	r1, [r4, #6]
 342 002a 0120     		mov	r0, #1
 343 002c FFF7FEFF 		bl	LedIndication
 344              	.LVL44:
  69:.\main.c      ****         }
 345              		.loc 1 69 0
 346 0030 0023     		mov	r3, #0
 347 0032 6371     		strb	r3, [r4, #5]
 348              	.L22:
  71:.\main.c      ****     }
 349              		.loc 1 71 0
 350 0034 FFF7FEFF 		bl	start_ClearInterrupt
 351              	.LVL45:
 352 0038 27E0     		b	.L20
 353              	.L21:
  73:.\main.c      ****         if(onTrack){
 354              		.loc 1 73 0
 355 003a FFF7FEFF 		bl	cancel_Read
 356              	.LVL46:
 357 003e 0028     		cmp	r0, #0
 358 0040 23D1     		bne	.L20
  74:.\main.c      ****             char string_buff[16];
 359              		.loc 1 74 0
 360 0042 134B     		ldr	r3, .L27
 361 0044 1B79     		ldrb	r3, [r3, #4]
 362 0046 002B     		cmp	r3, #0
 363 0048 1DD0     		beq	.L24
 364              	.LBB2:
  78:.\main.c      ****             xbee_PutString(string_buff);
 365              		.loc 1 78 0
 366 004a 114C     		ldr	r4, .L27
 367 004c 2368     		ldr	r3, [r4]
 368 004e 3033     		add	r3, r3, #48
 369 0050 6846     		mov	r0, sp
 370 0052 1049     		ldr	r1, .L27+4
 371 0054 6322     		mov	r2, #99
 372 0056 FFF7FEFF 		bl	sprintf
 373              	.LVL47:
  79:.\main.c      ****             
 374              		.loc 1 79 0
 375 005a 6846     		mov	r0, sp
 376 005c FFF7FEFF 		bl	xbee_PutString
 377              	.LVL48:
  82:.\main.c      ****             else onTrack = false;
ARM GAS  C:\Users\Petro\AppData\Local\Temp\ccU3ilP1.s 			page 12


 378              		.loc 1 82 0
 379 0060 2368     		ldr	r3, [r4]
 380 0062 012B     		cmp	r3, #1
 381 0064 03D9     		bls	.L25
  82:.\main.c      ****             else onTrack = false;
 382              		.loc 1 82 0 is_stmt 0 discriminator 1
 383 0066 013B     		sub	r3, r3, #1
 384 0068 094A     		ldr	r2, .L27
 385 006a 1360     		str	r3, [r2]
 386 006c 02E0     		b	.L26
 387              	.L25:
  83:.\main.c      ****             
 388              		.loc 1 83 0 is_stmt 1
 389 006e 0022     		mov	r2, #0
 390 0070 074B     		ldr	r3, .L27
 391 0072 1A71     		strb	r2, [r3, #4]
 392              	.L26:
  86:.\main.c      ****             LedIndication(startPress, cancelPress);
 393              		.loc 1 86 0
 394 0074 064C     		ldr	r4, .L27
 395 0076 0123     		mov	r3, #1
 396 0078 A371     		strb	r3, [r4, #6]
  87:.\main.c      ****             cancelPress = false;
 397              		.loc 1 87 0
 398 007a 6079     		ldrb	r0, [r4, #5]
 399 007c 0121     		mov	r1, #1
 400 007e FFF7FEFF 		bl	LedIndication
 401              	.LVL49:
  88:.\main.c      ****         }
 402              		.loc 1 88 0
 403 0082 0023     		mov	r3, #0
 404 0084 A371     		strb	r3, [r4, #6]
 405              	.L24:
 406              	.LBE2:
  90:.\main.c      ****     }
 407              		.loc 1 90 0
 408 0086 FFF7FEFF 		bl	cancel_ClearInterrupt
 409              	.LVL50:
 410              	.L20:
  92:.\main.c      **** 
 411              		.loc 1 92 0
 412 008a 04B0     		add	sp, sp, #16
 413              		@ sp needed
 414 008c 10BD     		pop	{r4, pc}
 415              	.L28:
 416 008e C046     		.align	2
 417              	.L27:
 418 0090 00000000 		.word	.LANCHOR0
 419 0094 14000000 		.word	.LC4
 420              		.cfi_endproc
 421              	.LFE34:
 422              		.size	buttonHandler, .-buttonHandler
 423              		.section	.text.main,"ax",%progbits
 424              		.align	2
 425              		.global	main
 426              		.code	16
 427              		.thumb_func
ARM GAS  C:\Users\Petro\AppData\Local\Temp\ccU3ilP1.s 			page 13


 428              		.type	main, %function
 429              	main:
 430              	.LFB37:
 111:.\main.c      ****     CyGlobalIntEnable;   
 431              		.loc 1 111 0
 432              		.cfi_startproc
 433 0000 10B5     		push	{r4, lr}
 434              		.cfi_def_cfa_offset 8
 435              		.cfi_offset 4, -8
 436              		.cfi_offset 14, -4
 112:.\main.c      ****     
 437              		.loc 1 112 0
 438              	@ 112 ".\main.c" 1
 439 0002 62B6     		CPSIE   i
 440              	@ 0 "" 2
 114:.\main.c      ****     display_Start();
 441              		.loc 1 114 0
 442              		.code	16
 443 0004 FFF7FEFF 		bl	xbee_Start
 444              	.LVL51:
 115:.\main.c      ****             
 445              		.loc 1 115 0
 446 0008 FFF7FEFF 		bl	display_Start
 447              	.LVL52:
 117:.\main.c      ****     int_button_StartEx(buttonHandler); 
 448              		.loc 1 117 0
 449 000c 0D48     		ldr	r0, .L31
 450 000e FFF7FEFF 		bl	int_inputData_StartEx
 451              	.LVL53:
 118:.\main.c      ****     int_status_StartEx(statusHandler);
 452              		.loc 1 118 0
 453 0012 0D48     		ldr	r0, .L31+4
 454 0014 FFF7FEFF 		bl	int_button_StartEx
 455              	.LVL54:
 119:.\main.c      ****     
 456              		.loc 1 119 0
 457 0018 0C48     		ldr	r0, .L31+8
 458 001a FFF7FEFF 		bl	int_status_StartEx
 459              	.LVL55:
 460              	.L30:
 461              	.LBB3:
 124:.\main.c      ****         CyDelay(2000);
 462              		.loc 1 124 0 discriminator 1
 463 001e 0C4C     		ldr	r4, .L31+12
 464 0020 6079     		ldrb	r0, [r4, #5]
 465 0022 A179     		ldrb	r1, [r4, #6]
 466 0024 FFF7FEFF 		bl	LedIndication
 467              	.LVL56:
 125:.\main.c      **** 
 468              		.loc 1 125 0 discriminator 1
 469 0028 FA20     		mov	r0, #250
 470 002a C000     		lsl	r0, r0, #3
 471 002c FFF7FEFF 		bl	CyDelay
 472              	.LVL57:
 127:.\main.c      ****         
 473              		.loc 1 127 0 discriminator 1
 474 0030 A068     		ldr	r0, [r4, #8]
ARM GAS  C:\Users\Petro\AppData\Local\Temp\ccU3ilP1.s 			page 14


 475              	.LVL58:
 129:.\main.c      ****         //displaySkierInfoAllTable(skierRezult);
 476              		.loc 1 129 0 discriminator 1
 477 0032 4100     		lsl	r1, r0, #1
 478 0034 0918     		add	r1, r1, r0
 479 0036 C900     		lsl	r1, r1, #3
 480 0038 1031     		add	r1, r1, #16
 481 003a 064B     		ldr	r3, .L31+16
 482 003c C918     		add	r1, r1, r3
 483 003e FFF7FEFF 		bl	displaySkierInfoOneSkier
 484              	.LVL59:
 485              	.LBE3:
 131:.\main.c      **** }
 486              		.loc 1 131 0 discriminator 1
 487 0042 ECE7     		b	.L30
 488              	.L32:
 489              		.align	2
 490              	.L31:
 491 0044 00000000 		.word	in_dataHandler
 492 0048 00000000 		.word	buttonHandler
 493 004c 00000000 		.word	statusHandler
 494 0050 00000000 		.word	.LANCHOR0
 495 0054 00000000 		.word	skierRezult
 496              		.cfi_endproc
 497              	.LFE37:
 498              		.size	main, .-main
 499              		.section	.text.ReadTime,"ax",%progbits
 500              		.align	2
 501              		.global	ReadTime
 502              		.code	16
 503              		.thumb_func
 504              		.type	ReadTime, %function
 505              	ReadTime:
 506              	.LFB41:
 228:.\main.c      **** 
 229:.\main.c      **** 
 230:.\main.c      **** void ReadTime()
 231:.\main.c      **** {
 507              		.loc 1 231 0
 508              		.cfi_startproc
 232:.\main.c      ****     
 233:.\main.c      **** }...
 509              		.loc 1 233 0
 510              		@ sp needed
 511 0000 7047     		bx	lr
 512              		.cfi_endproc
 513              	.LFE41:
 514              		.size	ReadTime, .-ReadTime
 515              		.global	last_finished
 516              		.global	last_started
 517              		.global	onTrack
 518              		.global	cancelPress
 519              		.global	startPress
 520              		.comm	skierRezult,216,4
 521 0002 C046     		.section	.rodata.str1.4,"aMS",%progbits,1
 522              		.align	2
 523              	.LC0:
ARM GAS  C:\Users\Petro\AppData\Local\Temp\ccU3ilP1.s 			page 15


 524 0000 2569202D 		.ascii	"%i - %d:%d:%d:%d\000"
 524      2025643A 
 524      25643A25 
 524      643A2564 
 524      00
 525 0011 000000   		.space	3
 526              	.LC4:
 527 0014 25632563 		.ascii	"%c%c\000"
 527      00
 528 0019 000000   		.bss
 529              		.align	2
 530              		.set	.LANCHOR0,. + 0
 531              		.type	last_started, %object
 532              		.size	last_started, 4
 533              	last_started:
 534 0000 00000000 		.space	4
 535              		.type	onTrack, %object
 536              		.size	onTrack, 1
 537              	onTrack:
 538 0004 00       		.space	1
 539              		.type	startPress, %object
 540              		.size	startPress, 1
 541              	startPress:
 542 0005 00       		.space	1
 543              		.type	cancelPress, %object
 544              		.size	cancelPress, 1
 545              	cancelPress:
 546 0006 00       		.space	1
 547 0007 00       		.space	1
 548              		.type	last_finished, %object
 549              		.size	last_finished, 4
 550              	last_finished:
 551 0008 00000000 		.space	4
 552              		.text
 553              	.Letext0:
 554              		.file 2 "c:\\program files (x86)\\cypress\\psoc creator\\3.3\\psoc creator\\import\\gnu\\arm\\4.9.
 555              		.file 3 "c:\\program files (x86)\\cypress\\psoc creator\\3.3\\psoc creator\\import\\gnu\\arm\\4.9.
 556              		.file 4 "Generated_Source\\PSoC4/cytypes.h"
 557              		.file 5 "Generated_Source\\PSoC4/xbee.h"
 558              		.file 6 "Generated_Source\\PSoC4/CyLFClk.h"
 559              		.file 7 "Generated_Source\\PSoC4/display.h"
 560              		.file 8 "Generated_Source\\PSoC4/led_blue.h"
 561              		.file 9 "Generated_Source\\PSoC4/CyLib.h"
 562              		.file 10 "Generated_Source\\PSoC4/led_red.h"
 563              		.file 11 "Generated_Source\\PSoC4/start.h"
 564              		.file 12 "Generated_Source\\PSoC4/cancel.h"
 565              		.file 13 "Generated_Source\\PSoC4/int_inputData.h"
 566              		.file 14 "Generated_Source\\PSoC4/int_button.h"
 567              		.file 15 "c:\\program files (x86)\\cypress\\psoc creator\\3.3\\psoc creator\\import\\gnu\\arm\\4.9
 568              		.file 16 "Generated_Source\\PSoC4/int_status.h"