ARM GAS  C:\Users\Petro\AppData\Local\Temp\cceIICNV.s 			page 1


   1              		.cpu cortex-m0
   2              		.fpu softvfp
   3              		.eabi_attribute 20, 1
   4              		.eabi_attribute 21, 1
   5              		.eabi_attribute 23, 3
   6              		.eabi_attribute 24, 1
   7              		.eabi_attribute 25, 1
   8              		.eabi_attribute 26, 1
   9              		.eabi_attribute 30, 1
  10              		.eabi_attribute 34, 0
  11              		.eabi_attribute 18, 4
  12              		.code	16
  13              		.file	"display.c"
  14              		.text
  15              	.Ltext0:
  16              		.cfi_sections	.debug_frame
  17              		.section	.text.DisplayConfig,"ax",%progbits
  18              		.align	2
  19              		.global	DisplayConfig
  20              		.code	16
  21              		.thumb_func
  22              		.type	DisplayConfig, %function
  23              	DisplayConfig:
  24              	.LFB60:
  25              		.file 1 ".\\display.c"
   1:.\display.c   **** #include <display.h>
   2:.\display.c   **** 
   3:.\display.c   **** /*******************************************************************************
   4:.\display.c   **** * Function name: DisplayConfig
   5:.\display.c   **** ********************************************************************************
   6:.\display.c   **** *
   7:.\display.c   **** * initialization display
   8:.\display.c   **** *
   9:.\display.c   **** *******************************************************************************/	
  10:.\display.c   **** void DisplayConfig(void)
  11:.\display.c   **** {
  26              		.loc 1 11 0
  27              		.cfi_startproc
  28 0000 08B5     		push	{r3, lr}
  29              		.cfi_def_cfa_offset 8
  30              		.cfi_offset 3, -8
  31              		.cfi_offset 14, -4
  12:.\display.c   ****     LCD_Start();
  32              		.loc 1 12 0
  33 0002 FFF7FEFF 		bl	LCD_Start
  34              	.LVL0:
  13:.\display.c   **** }
  35              		.loc 1 13 0
  36              		@ sp needed
  37 0006 08BD     		pop	{r3, pc}
  38              		.cfi_endproc
  39              	.LFE60:
  40              		.size	DisplayConfig, .-DisplayConfig
  41              		.section	.text.DisplayPrintf,"ax",%progbits
  42              		.align	2
  43              		.global	DisplayPrintf
  44              		.code	16
ARM GAS  C:\Users\Petro\AppData\Local\Temp\cceIICNV.s 			page 2


  45              		.thumb_func
  46              		.type	DisplayPrintf, %function
  47              	DisplayPrintf:
  48              	.LFB61:
  14:.\display.c   **** 	
  15:.\display.c   **** 
  16:.\display.c   **** /*******************************************************************************
  17:.\display.c   **** * Function Name: DisplayPrintf
  18:.\display.c   **** ********************************************************************************
  19:.\display.c   **** *
  20:.\display.c   **** * Summary:
  21:.\display.c   **** *  Writes a zero terminated string to the LCD.
  22:.\display.c   **** *
  23:.\display.c   **** * Parameters:
  24:.\display.c   **** *  string: Pointer to head of char8 array to be written to the LCD module
  25:.\display.c   **** *
  26:.\display.c   **** *******************************************************************************/
  27:.\display.c   **** void DisplayPrintf(char *message)
  28:.\display.c   **** {
  49              		.loc 1 28 0
  50              		.cfi_startproc
  51              	.LVL1:
  52 0000 10B5     		push	{r4, lr}
  53              		.cfi_def_cfa_offset 8
  54              		.cfi_offset 4, -8
  55              		.cfi_offset 14, -4
  56 0002 041C     		mov	r4, r0
  29:.\display.c   ****     
  30:.\display.c   ****     LCD_Position(0,0);
  57              		.loc 1 30 0
  58 0004 0020     		mov	r0, #0
  59              	.LVL2:
  60 0006 0021     		mov	r1, #0
  61 0008 FFF7FEFF 		bl	LCD_Position
  62              	.LVL3:
  31:.\display.c   ****     LCD_PrintString(message);
  63              		.loc 1 31 0
  64 000c 201C     		mov	r0, r4
  65 000e FFF7FEFF 		bl	LCD_PrintString
  66              	.LVL4:
  32:.\display.c   ****     LCD_PrintString("          ");
  67              		.loc 1 32 0
  68 0012 0248     		ldr	r0, .L3
  69 0014 FFF7FEFF 		bl	LCD_PrintString
  70              	.LVL5:
  33:.\display.c   **** }
  71              		.loc 1 33 0
  72              		@ sp needed
  73              	.LVL6:
  74 0018 10BD     		pop	{r4, pc}
  75              	.L4:
  76 001a C046     		.align	2
  77              	.L3:
  78 001c 00000000 		.word	.LC0
  79              		.cfi_endproc
  80              	.LFE61:
  81              		.size	DisplayPrintf, .-DisplayPrintf
ARM GAS  C:\Users\Petro\AppData\Local\Temp\cceIICNV.s 			page 3


  82              		.section	.rodata.str1.4,"aMS",%progbits,1
  83              		.align	2
  84              	.LC0:
  85 0000 20202020 		.ascii	"          \000"
  85      20202020 
  85      202000
  86 000b 00       		.text
  87              	.Letext0:
  88              		.file 2 "Generated_Source\\PSoC4/cytypes.h"
  89              		.file 3 "Generated_Source\\PSoC4/LCD.h"