ARM GAS  C:\Users\Petro\AppData\Local\Temp\ccPkxOHH.s 			page 1


   1              		.cpu cortex-m0
   2              		.fpu softvfp
   3              		.eabi_attribute 20, 1
   4              		.eabi_attribute 21, 1
   5              		.eabi_attribute 23, 3
   6              		.eabi_attribute 24, 1
   7              		.eabi_attribute 25, 1
   8              		.eabi_attribute 26, 1
   9              		.eabi_attribute 30, 1
  10              		.eabi_attribute 34, 0
  11              		.eabi_attribute 18, 4
  12              		.code	16
  13              		.file	"LED.c"
  14              		.text
  15              	.Ltext0:
  16              		.cfi_sections	.debug_frame
  17              		.section	.text.LedHandler,"ax",%progbits
  18              		.align	2
  19              		.global	LedHandler
  20              		.code	16
  21              		.thumb_func
  22              		.type	LedHandler, %function
  23              	LedHandler:
  24              	.LFB1:
  25              		.file 1 ".\\LED.c"
   1:.\LED.c       **** /* ========================================
   2:.\LED.c       ****  *
   3:.\LED.c       ****  * Copyright YOUR COMPANY, THE YEAR
   4:.\LED.c       ****  * All Rights Reserved
   5:.\LED.c       ****  * UNPUBLISHED, LICENSED SOFTWARE.
   6:.\LED.c       ****  *
   7:.\LED.c       ****  * CONFIDENTIAL AND PROPRIETARY INFORMATION
   8:.\LED.c       ****  * WHICH IS THE PROPERTY OF your company.
   9:.\LED.c       ****  *
  10:.\LED.c       ****  * ========================================
  11:.\LED.c       **** */
  12:.\LED.c       **** #include "LED.h"
  13:.\LED.c       **** 
  14:.\LED.c       **** uint8_t LED_InitValue;
  15:.\LED.c       **** 
  16:.\LED.c       **** void LedInit(void)
  17:.\LED.c       **** {
  18:.\LED.c       ****         Timer_LED_Init();
  19:.\LED.c       ****         if (!LED_InitValue)
  20:.\LED.c       ****         {
  21:.\LED.c       ****             Int_Timer_Led_StartEx(LedHandler);
  22:.\LED.c       ****         }
  23:.\LED.c       ****         LED_InitValue = 1;
  24:.\LED.c       **** }
  25:.\LED.c       **** 
  26:.\LED.c       **** CY_ISR(LedHandler)
  27:.\LED.c       **** {
  26              		.loc 1 27 0
  27              		.cfi_startproc
  28 0000 08B5     		push	{r3, lr}
  29              		.cfi_def_cfa_offset 8
  30              		.cfi_offset 3, -8
ARM GAS  C:\Users\Petro\AppData\Local\Temp\ccPkxOHH.s 			page 2


  31              		.cfi_offset 14, -4
  28:.\LED.c       ****     LED_PIN_Write(~LED_PIN_Read());
  32              		.loc 1 28 0
  33 0002 FFF7FEFF 		bl	LED_PIN_Read
  34              	.LVL0:
  35 0006 C043     		mvn	r0, r0
  36 0008 C0B2     		uxtb	r0, r0
  37 000a FFF7FEFF 		bl	LED_PIN_Write
  38              	.LVL1:
  29:.\LED.c       ****     Timer_LED_ClearInterrupt(Timer_LED_INTR_MASK_CC_MATCH);
  39              		.loc 1 29 0
  40 000e 0220     		mov	r0, #2
  41 0010 FFF7FEFF 		bl	Timer_LED_ClearInterrupt
  42              	.LVL2:
  30:.\LED.c       **** }
  43              		.loc 1 30 0
  44              		@ sp needed
  45 0014 08BD     		pop	{r3, pc}
  46              		.cfi_endproc
  47              	.LFE1:
  48              		.size	LedHandler, .-LedHandler
  49 0016 C046     		.section	.text.LedInit,"ax",%progbits
  50              		.align	2
  51              		.global	LedInit
  52              		.code	16
  53              		.thumb_func
  54              		.type	LedInit, %function
  55              	LedInit:
  56              	.LFB0:
  17:.\LED.c       ****         Timer_LED_Init();
  57              		.loc 1 17 0
  58              		.cfi_startproc
  59 0000 08B5     		push	{r3, lr}
  60              		.cfi_def_cfa_offset 8
  61              		.cfi_offset 3, -8
  62              		.cfi_offset 14, -4
  18:.\LED.c       ****         if (!LED_InitValue)
  63              		.loc 1 18 0
  64 0002 FFF7FEFF 		bl	Timer_LED_Init
  65              	.LVL3:
  19:.\LED.c       ****         {
  66              		.loc 1 19 0
  67 0006 054B     		ldr	r3, .L4
  68 0008 1B78     		ldrb	r3, [r3]
  69 000a 002B     		cmp	r3, #0
  70 000c 02D1     		bne	.L3
  21:.\LED.c       ****         }
  71              		.loc 1 21 0
  72 000e 0448     		ldr	r0, .L4+4
  73 0010 FFF7FEFF 		bl	Int_Timer_Led_StartEx
  74              	.LVL4:
  75              	.L3:
  23:.\LED.c       **** }
  76              		.loc 1 23 0
  77 0014 0122     		mov	r2, #1
  78 0016 014B     		ldr	r3, .L4
  79 0018 1A70     		strb	r2, [r3]
ARM GAS  C:\Users\Petro\AppData\Local\Temp\ccPkxOHH.s 			page 3


  24:.\LED.c       **** 
  80              		.loc 1 24 0
  81              		@ sp needed
  82 001a 08BD     		pop	{r3, pc}
  83              	.L5:
  84              		.align	2
  85              	.L4:
  86 001c 00000000 		.word	LED_InitValue
  87 0020 00000000 		.word	LedHandler
  88              		.cfi_endproc
  89              	.LFE0:
  90              		.size	LedInit, .-LedInit
  91              		.global	__aeabi_uidiv
  92              		.section	.text.LedBlink,"ax",%progbits
  93              		.align	2
  94              		.global	LedBlink
  95              		.code	16
  96              		.thumb_func
  97              		.type	LedBlink, %function
  98              	LedBlink:
  99              	.LFB2:
  31:.\LED.c       **** 
  32:.\LED.c       **** void LedBlink(uint16_t Frequency)
  33:.\LED.c       **** {
 100              		.loc 1 33 0
 101              		.cfi_startproc
 102              	.LVL5:
 103 0000 08B5     		push	{r3, lr}
 104              		.cfi_def_cfa_offset 8
 105              		.cfi_offset 3, -8
 106              		.cfi_offset 14, -4
  34:.\LED.c       ****     uint32_t time_l;
  35:.\LED.c       ****     time_l = FreqToTicks(Frequency);
 107              		.loc 1 35 0
 108 0002 4100     		lsl	r1, r0, #1
 109 0004 FA20     		mov	r0, #250
 110              	.LVL6:
 111 0006 8000     		lsl	r0, r0, #2
 112 0008 FFF7FEFF 		bl	__aeabi_uidiv
 113              	.LVL7:
  36:.\LED.c       ****     Timer_LED_WritePeriod(time_l);
 114              		.loc 1 36 0
 115 000c FFF7FEFF 		bl	Timer_LED_WritePeriod
 116              	.LVL8:
  37:.\LED.c       ****     Timer_LED_Enable();
 117              		.loc 1 37 0
 118 0010 FFF7FEFF 		bl	Timer_LED_Enable
 119              	.LVL9:
  38:.\LED.c       ****     time_l = Timer_LED_ReadPeriod();
 120              		.loc 1 38 0
 121 0014 FFF7FEFF 		bl	Timer_LED_ReadPeriod
 122              	.LVL10:
  39:.\LED.c       **** }
 123              		.loc 1 39 0
 124              		@ sp needed
 125 0018 08BD     		pop	{r3, pc}
 126              		.cfi_endproc
ARM GAS  C:\Users\Petro\AppData\Local\Temp\ccPkxOHH.s 			page 4


 127              	.LFE2:
 128              		.size	LedBlink, .-LedBlink
 129 001a C046     		.section	.text.SetPWMValue,"ax",%progbits
 130              		.align	2
 131              		.global	SetPWMValue
 132              		.code	16
 133              		.thumb_func
 134              		.type	SetPWMValue, %function
 135              	SetPWMValue:
 136              	.LFB3:
  40:.\LED.c       **** 
  41:.\LED.c       **** void SetPWMValue(uint8_t Value)
  42:.\LED.c       **** {
 137              		.loc 1 42 0
 138              		.cfi_startproc
 139              	.LVL11:
  43:.\LED.c       ****     /* TBD: Implementation Here; */
  44:.\LED.c       **** }
 140              		.loc 1 44 0
 141              		@ sp needed
 142 0000 7047     		bx	lr
 143              		.cfi_endproc
 144              	.LFE3:
 145              		.size	SetPWMValue, .-SetPWMValue
 146 0002 C046     		.section	.text.SetLedState,"ax",%progbits
 147              		.align	2
 148              		.global	SetLedState
 149              		.code	16
 150              		.thumb_func
 151              		.type	SetLedState, %function
 152              	SetLedState:
 153              	.LFB4:
  45:.\LED.c       **** 
  46:.\LED.c       **** void SetLedState(uint8_t State)
  47:.\LED.c       **** {
 154              		.loc 1 47 0
 155              		.cfi_startproc
 156              	.LVL12:
 157 0000 10B5     		push	{r4, lr}
 158              		.cfi_def_cfa_offset 8
 159              		.cfi_offset 4, -8
 160              		.cfi_offset 14, -4
 161 0002 041C     		mov	r4, r0
  48:.\LED.c       ****     Timer_LED_Stop();
 162              		.loc 1 48 0
 163 0004 FFF7FEFF 		bl	Timer_LED_Stop
 164              	.LVL13:
  49:.\LED.c       ****     LED_PIN_Write(State);
 165              		.loc 1 49 0
 166 0008 201C     		mov	r0, r4
 167 000a FFF7FEFF 		bl	LED_PIN_Write
 168              	.LVL14:
  50:.\LED.c       **** }
 169              		.loc 1 50 0
 170              		@ sp needed
 171 000e 10BD     		pop	{r4, pc}
 172              		.cfi_endproc
ARM GAS  C:\Users\Petro\AppData\Local\Temp\ccPkxOHH.s 			page 5


 173              	.LFE4:
 174              		.size	SetLedState, .-SetLedState
 175              		.comm	LED_InitValue,1,1
 176              		.text
 177              	.Letext0:
 178              		.file 2 "c:\\program files (x86)\\cypress\\psoc creator\\3.3\\psoc creator\\import\\gnu\\arm\\4.9.
 179              		.file 3 "c:\\program files (x86)\\cypress\\psoc creator\\3.3\\psoc creator\\import\\gnu\\arm\\4.9.
 180              		.file 4 "Generated_Source\\PSoC4/cytypes.h"
 181              		.file 5 "Generated_Source\\PSoC4/LED_PIN.h"
 182              		.file 6 "Generated_Source\\PSoC4/Timer_LED.h"
 183              		.file 7 "Generated_Source\\PSoC4/Int_Timer_Led.h"