ARM GAS  C:\Users\Petro\AppData\Local\Temp\cc2ksdt6.s 			page 1


   1              		.cpu cortex-m0
   2              		.fpu softvfp
   3              		.eabi_attribute 20, 1
   4              		.eabi_attribute 21, 1
   5              		.eabi_attribute 23, 3
   6              		.eabi_attribute 24, 1
   7              		.eabi_attribute 25, 1
   8              		.eabi_attribute 26, 1
   9              		.eabi_attribute 30, 1
  10              		.eabi_attribute 34, 0
  11              		.eabi_attribute 18, 4
  12              		.code	16
  13              		.file	"main.c"
  14              		.text
  15              	.Ltext0:
  16              		.cfi_sections	.debug_frame
  17              		.section	.text.SystemInit,"ax",%progbits
  18              		.align	2
  19              		.global	SystemInit
  20              		.code	16
  21              		.thumb_func
  22              		.type	SystemInit, %function
  23              	SystemInit:
  24              	.LFB61:
  25              		.file 1 ".\\main.c"
   1:.\main.c      **** #include <project.h>
   2:.\main.c      **** #include <stdbool.h>
   3:.\main.c      **** #include <stdio.h>
   4:.\main.c      **** 
   5:.\main.c      **** #include "LED.h"
   6:.\main.c      **** #include "display.h"
   7:.\main.c      **** #include "RTC_WDT.h"
   8:.\main.c      **** #include "gate.h"
   9:.\main.c      **** #include "network.h"
  10:.\main.c      **** #include "database.h"
  11:.\main.c      **** #include "wait_timer.h"
  12:.\main.c      **** 
  13:.\main.c      **** /*frequency blinc led*/
  14:.\main.c      **** #define INIT_BLINK 	2 
  15:.\main.c      **** #define ERR_BLINK 	10
  16:.\main.c      **** 
  17:.\main.c      **** /*time left to wait for skier, min*/
  18:.\main.c      **** #define TIMEOUT  1
  19:.\main.c      **** 
  20:.\main.c      **** /*led state*/
  21:.\main.c      **** #define LED_ENABLE 	0
  22:.\main.c      **** #define LED_DISABLE	1
  23:.\main.c      **** 
  24:.\main.c      **** 
  25:.\main.c      **** bool SystemReadyToStart(void);
  26:.\main.c      **** void SystemInit(void);
  27:.\main.c      **** void SkierStart(void);
  28:.\main.c      **** void ErrorStarted(void);
  29:.\main.c      **** 
  30:.\main.c      **** 
  31:.\main.c      **** int main()
  32:.\main.c      **** {
ARM GAS  C:\Users\Petro\AppData\Local\Temp\cc2ksdt6.s 			page 2


  33:.\main.c      ****     CyGlobalIntEnable; /* Enable global interrupts. */
  34:.\main.c      ****     
  35:.\main.c      **** 	SystemInit() ;
  36:.\main.c      ****     
  37:.\main.c      **** 	for(;;)
  38:.\main.c      **** 	{
  39:.\main.c      **** 		while(!SystemReadyToStart())
  40:.\main.c      **** 		{
  41:.\main.c      **** 			ErrorStarted();
  42:.\main.c      **** 		}
  43:.\main.c      **** 		SkierStart();
  44:.\main.c      **** 	}
  45:.\main.c      **** }
  46:.\main.c      **** 
  47:.\main.c      **** void SystemInit(void)
  48:.\main.c      **** {
  26              		.loc 1 48 0
  27              		.cfi_startproc
  28 0000 08B5     		push	{r3, lr}
  29              		.cfi_def_cfa_offset 8
  30              		.cfi_offset 3, -8
  31              		.cfi_offset 14, -4
  49:.\main.c      ****     LedInit();
  32              		.loc 1 49 0
  33 0002 FFF7FEFF 		bl	LedInit
  34              	.LVL0:
  50:.\main.c      **** 	LedBlink(INIT_BLINK);
  35              		.loc 1 50 0
  36 0006 0220     		mov	r0, #2
  37 0008 FFF7FEFF 		bl	LedBlink
  38              	.LVL1:
  51:.\main.c      ****     NetworkInit();
  39              		.loc 1 51 0
  40 000c FFF7FEFF 		bl	NetworkInit
  41              	.LVL2:
  52:.\main.c      **** 	DisplayConfig();
  42              		.loc 1 52 0
  43 0010 FFF7FEFF 		bl	DisplayConfig
  44              	.LVL3:
  53:.\main.c      ****     RTC_WDT_Init();	
  45              		.loc 1 53 0
  46 0014 FFF7FEFF 		bl	RTC_WDT_Init
  47              	.LVL4:
  54:.\main.c      **** 	
  55:.\main.c      **** 	/*while ((!CheckConnection()) && (!RTCSync()))
  56:.\main.c      **** 	{
  57:.\main.c      **** 		DisplayPrintf("Error init");
  58:.\main.c      ****         CyDelay(500);
  59:.\main.c      **** 	}*/
  60:.\main.c      **** }
  48              		.loc 1 60 0
  49              		@ sp needed
  50 0018 08BD     		pop	{r3, pc}
  51              		.cfi_endproc
  52              	.LFE61:
  53              		.size	SystemInit, .-SystemInit
  54 001a C046     		.section	.text.SystemReadyToStart,"ax",%progbits
ARM GAS  C:\Users\Petro\AppData\Local\Temp\cc2ksdt6.s 			page 3


  55              		.align	2
  56              		.global	SystemReadyToStart
  57              		.code	16
  58              		.thumb_func
  59              		.type	SystemReadyToStart, %function
  60              	SystemReadyToStart:
  61              	.LFB62:
  61:.\main.c      **** 
  62:.\main.c      **** bool SystemReadyToStart(void)
  63:.\main.c      **** {
  62              		.loc 1 63 0
  63              		.cfi_startproc
  64 0000 08B5     		push	{r3, lr}
  65              		.cfi_def_cfa_offset 8
  66              		.cfi_offset 3, -8
  67              		.cfi_offset 14, -4
  68              	.LVL5:
  64:.\main.c      **** 	bool result;
  65:.\main.c      **** 	
  66:.\main.c      **** 	result = false;
  67:.\main.c      **** 	if(!GateOpen() )//&& CheckConnection() && DatabaseSync())
  69              		.loc 1 67 0
  70 0002 FFF7FEFF 		bl	GateOpen
  71              	.LVL6:
  72 0006 0028     		cmp	r0, #0
  73 0008 01D0     		beq	.L4
  66:.\main.c      **** 	if(!GateOpen() )//&& CheckConnection() && DatabaseSync())
  74              		.loc 1 66 0
  75 000a 0020     		mov	r0, #0
  76 000c 00E0     		b	.L3
  77              	.L4:
  68:.\main.c      **** 	{
  69:.\main.c      **** 		result = true;
  78              		.loc 1 69 0
  79 000e 0120     		mov	r0, #1
  80              	.L3:
  81              	.LVL7:
  70:.\main.c      **** 	}
  71:.\main.c      **** 	
  72:.\main.c      **** 	return result;
  73:.\main.c      **** }
  82              		.loc 1 73 0
  83              		@ sp needed
  84 0010 08BD     		pop	{r3, pc}
  85              		.cfi_endproc
  86              	.LFE62:
  87              		.size	SystemReadyToStart, .-SystemReadyToStart
  88 0012 C046     		.section	.text.SkierStart,"ax",%progbits
  89              		.align	2
  90              		.global	SkierStart
  91              		.code	16
  92              		.thumb_func
  93              		.type	SkierStart, %function
  94              	SkierStart:
  95              	.LFB63:
  74:.\main.c      **** 
  75:.\main.c      **** void SkierStart(void)
ARM GAS  C:\Users\Petro\AppData\Local\Temp\cc2ksdt6.s 			page 4


  76:.\main.c      **** {
  96              		.loc 1 76 0
  97              		.cfi_startproc
  98 0000 38B5     		push	{r3, r4, r5, lr}
  99              		.cfi_def_cfa_offset 16
 100              		.cfi_offset 3, -16
 101              		.cfi_offset 4, -12
 102              		.cfi_offset 5, -8
 103              		.cfi_offset 14, -4
  77:.\main.c      **** 	uint64_t time;
  78:.\main.c      ****     
  79:.\main.c      **** 	DisplayPrintf("System ready");
 104              		.loc 1 79 0
 105 0002 1B48     		ldr	r0, .L11
 106 0004 FFF7FEFF 		bl	DisplayPrintf
 107              	.LVL8:
  80:.\main.c      ****     
  81:.\main.c      **** 	SetLedState(LED_ENABLE);
 108              		.loc 1 81 0
 109 0008 0020     		mov	r0, #0
 110 000a FFF7FEFF 		bl	SetLedState
 111              	.LVL9:
  82:.\main.c      ****     InitWaitingTimer(TIMEOUT);
 112              		.loc 1 82 0
 113 000e 0120     		mov	r0, #1
 114 0010 FFF7FEFF 		bl	InitWaitingTimer
 115              	.LVL10:
 116              	.L7:
  83:.\main.c      ****     
  84:.\main.c      **** 	while(!GateOpen() && !WaitingTimeOut())
 117              		.loc 1 84 0 discriminator 2
 118 0014 FFF7FEFF 		bl	GateOpen
 119              	.LVL11:
 120 0018 0028     		cmp	r0, #0
 121 001a 03D1     		bne	.L6
 122              		.loc 1 84 0 is_stmt 0 discriminator 1
 123 001c FFF7FEFF 		bl	WaitingTimeOut
 124              	.LVL12:
 125 0020 0028     		cmp	r0, #0
 126 0022 F7D0     		beq	.L7
 127              	.L6:
  85:.\main.c      ****     {
  86:.\main.c      ****     }
  87:.\main.c      **** 	
  88:.\main.c      ****    if(!WaitingTimeOut()){
 128              		.loc 1 88 0 is_stmt 1
 129 0024 FFF7FEFF 		bl	WaitingTimeOut
 130              	.LVL13:
 131 0028 0028     		cmp	r0, #0
 132 002a 17D1     		bne	.L8
  89:.\main.c      ****         /*printf time and write in database*/
  90:.\main.c      **** 	    time = RTCgetTime(RTC_HOUR12);
 133              		.loc 1 90 0
 134 002c 0120     		mov	r0, #1
 135 002e 0021     		mov	r1, #0
 136 0030 FFF7FEFF 		bl	RTCgetTime
 137              	.LVL14:
ARM GAS  C:\Users\Petro\AppData\Local\Temp\cc2ksdt6.s 			page 5


 138 0034 041C     		mov	r4, r0
 139 0036 0D1C     		mov	r5, r1
 140              	.LVL15:
  91:.\main.c      **** 	    if(!DatabaseWrite(time))
 141              		.loc 1 91 0
 142 0038 FFF7FEFF 		bl	DatabaseWrite
 143              	.LVL16:
 144 003c 0028     		cmp	r0, #0
 145 003e 02D1     		bne	.L9
  92:.\main.c      **** 	    {
  93:.\main.c      **** 	    	DisplayPrintf("Error record time");
 146              		.loc 1 93 0
 147 0040 0C48     		ldr	r0, .L11+4
 148 0042 FFF7FEFF 		bl	DisplayPrintf
 149              	.LVL17:
 150              	.L9:
  94:.\main.c      **** 	    }
  95:.\main.c      ****         DisplayPrintf("time skier");
 151              		.loc 1 95 0
 152 0046 0C48     		ldr	r0, .L11+8
 153 0048 FFF7FEFF 		bl	DisplayPrintf
 154              	.LVL18:
  96:.\main.c      ****         
  97:.\main.c      ****         DisplayPrintTime(time);
 155              		.loc 1 97 0
 156 004c 201C     		mov	r0, r4
 157 004e 291C     		mov	r1, r5
 158 0050 FFF7FEFF 		bl	DisplayPrintTime
 159              	.LVL19:
  98:.\main.c      ****         CyDelay(5000);
 160              		.loc 1 98 0
 161 0054 0948     		ldr	r0, .L11+12
 162 0056 FFF7FEFF 		bl	CyDelay
 163              	.LVL20:
 164 005a 08E0     		b	.L5
 165              	.LVL21:
 166              	.L8:
  99:.\main.c      ****     }else 
 100:.\main.c      ****     {
 101:.\main.c      ****         LedBlink(INIT_BLINK);
 167              		.loc 1 101 0
 168 005c 0220     		mov	r0, #2
 169 005e FFF7FEFF 		bl	LedBlink
 170              	.LVL22:
 102:.\main.c      ****         DisplayPrintf("Time out");
 171              		.loc 1 102 0
 172 0062 0748     		ldr	r0, .L11+16
 173 0064 FFF7FEFF 		bl	DisplayPrintf
 174              	.LVL23:
 103:.\main.c      ****         CyDelay(5000);
 175              		.loc 1 103 0
 176 0068 0448     		ldr	r0, .L11+12
 177 006a FFF7FEFF 		bl	CyDelay
 178              	.LVL24:
 179              	.L5:
 104:.\main.c      ****     }
 105:.\main.c      **** }
ARM GAS  C:\Users\Petro\AppData\Local\Temp\cc2ksdt6.s 			page 6


 180              		.loc 1 105 0
 181              		@ sp needed
 182 006e 38BD     		pop	{r3, r4, r5, pc}
 183              	.L12:
 184              		.align	2
 185              	.L11:
 186 0070 00000000 		.word	.LC0
 187 0074 10000000 		.word	.LC2
 188 0078 24000000 		.word	.LC4
 189 007c 88130000 		.word	5000
 190 0080 30000000 		.word	.LC6
 191              		.cfi_endproc
 192              	.LFE63:
 193              		.size	SkierStart, .-SkierStart
 194              		.section	.text.ErrorStarted,"ax",%progbits
 195              		.align	2
 196              		.global	ErrorStarted
 197              		.code	16
 198              		.thumb_func
 199              		.type	ErrorStarted, %function
 200              	ErrorStarted:
 201              	.LFB64:
 106:.\main.c      **** 
 107:.\main.c      **** void ErrorStarted(void)
 108:.\main.c      **** {
 202              		.loc 1 108 0
 203              		.cfi_startproc
 204 0000 08B5     		push	{r3, lr}
 205              		.cfi_def_cfa_offset 8
 206              		.cfi_offset 3, -8
 207              		.cfi_offset 14, -4
 109:.\main.c      **** 	DisplayPrintf("Error started");
 208              		.loc 1 109 0
 209 0002 0348     		ldr	r0, .L14
 210 0004 FFF7FEFF 		bl	DisplayPrintf
 211              	.LVL25:
 110:.\main.c      **** 	LedBlink(ERR_BLINK);
 212              		.loc 1 110 0
 213 0008 0A20     		mov	r0, #10
 214 000a FFF7FEFF 		bl	LedBlink
 215              	.LVL26:
 111:.\main.c      **** }
 216              		.loc 1 111 0
 217              		@ sp needed
 218 000e 08BD     		pop	{r3, pc}
 219              	.L15:
 220              		.align	2
 221              	.L14:
 222 0010 3C000000 		.word	.LC8
 223              		.cfi_endproc
 224              	.LFE64:
 225              		.size	ErrorStarted, .-ErrorStarted
 226              		.section	.text.main,"ax",%progbits
 227              		.align	2
 228              		.global	main
 229              		.code	16
 230              		.thumb_func
ARM GAS  C:\Users\Petro\AppData\Local\Temp\cc2ksdt6.s 			page 7


 231              		.type	main, %function
 232              	main:
 233              	.LFB60:
  32:.\main.c      ****     CyGlobalIntEnable; /* Enable global interrupts. */
 234              		.loc 1 32 0
 235              		.cfi_startproc
 236 0000 08B5     		push	{r3, lr}
 237              		.cfi_def_cfa_offset 8
 238              		.cfi_offset 3, -8
 239              		.cfi_offset 14, -4
  33:.\main.c      ****     
 240              		.loc 1 33 0
 241              	@ 33 ".\main.c" 1
 242 0002 62B6     		CPSIE   i
 243              	@ 0 "" 2
  35:.\main.c      ****     
 244              		.loc 1 35 0
 245              		.code	16
 246 0004 FFF7FEFF 		bl	SystemInit
 247              	.LVL27:
 248 0008 01E0     		b	.L17
 249              	.L18:
  41:.\main.c      **** 		}
 250              		.loc 1 41 0
 251 000a FFF7FEFF 		bl	ErrorStarted
 252              	.LVL28:
 253              	.L17:
  39:.\main.c      **** 		{
 254              		.loc 1 39 0
 255 000e FFF7FEFF 		bl	SystemReadyToStart
 256              	.LVL29:
 257 0012 0028     		cmp	r0, #0
 258 0014 F9D0     		beq	.L18
  43:.\main.c      **** 	}
 259              		.loc 1 43 0
 260 0016 FFF7FEFF 		bl	SkierStart
 261              	.LVL30:
  44:.\main.c      **** }
 262              		.loc 1 44 0
 263 001a F8E7     		b	.L17
 264              		.cfi_endproc
 265              	.LFE60:
 266              		.size	main, .-main
 267              		.comm	RespBuff,50,4
 268              		.comm	RXSTATUS,1,1
 269              		.comm	TX_RESP,32,8
 270              		.comm	szCheckSum,20,4
 271              		.comm	szData,50,4
 272              		.comm	szSeq,20,4
 273              		.comm	LenC,1,1
 274              		.comm	LenChS,1,1
 275              		.comm	LenSeq,1,1
 276              		.comm	LenD2,1,1
 277              		.comm	LenD1,1,1
 278              		.comm	PROTO_STATE,1,1
 279              		.section	.rodata.str1.4,"aMS",%progbits,1
 280              		.align	2
ARM GAS  C:\Users\Petro\AppData\Local\Temp\cc2ksdt6.s 			page 8


 281              	.LC0:
 282 0000 53797374 		.ascii	"System ready\000"
 282      656D2072 
 282      65616479 
 282      00
 283 000d 000000   		.space	3
 284              	.LC2:
 285 0010 4572726F 		.ascii	"Error record time\000"
 285      72207265 
 285      636F7264 
 285      2074696D 
 285      6500
 286 0022 0000     		.space	2
 287              	.LC4:
 288 0024 74696D65 		.ascii	"time skier\000"
 288      20736B69 
 288      657200
 289 002f 00       		.space	1
 290              	.LC6:
 291 0030 54696D65 		.ascii	"Time out\000"
 291      206F7574 
 291      00
 292 0039 000000   		.space	3
 293              	.LC8:
 294 003c 4572726F 		.ascii	"Error started\000"
 294      72207374 
 294      61727465 
 294      6400
 295 004a 0000     		.text
 296              	.Letext0:
 297              		.file 2 "c:\\program files (x86)\\cypress\\psoc creator\\3.3\\psoc creator\\import\\gnu\\arm\\4.9.
 298              		.file 3 "c:\\program files (x86)\\cypress\\psoc creator\\3.3\\psoc creator\\import\\gnu\\arm\\4.9.
 299              		.file 4 "Generated_Source\\PSoC4/cytypes.h"
 300              		.file 5 "./svt.h"
 301              		.file 6 ".\\network.h"
 302              		.file 7 ".\\LED.h"
 303              		.file 8 ".\\display.h"
 304              		.file 9 ".\\RTC_WDT.h"
 305              		.file 10 ".\\wait_timer.h"
 306              		.file 11 ".\\gate.h"
 307              		.file 12 ".\\database.h"
 308              		.file 13 "Generated_Source\\PSoC4/CyLib.h"