ARM GAS  C:\Users\Petro\AppData\Local\Temp\cc0PZm4d.s 			page 1


   1              		.cpu cortex-m0
   2              		.fpu softvfp
   3              		.eabi_attribute 20, 1
   4              		.eabi_attribute 21, 1
   5              		.eabi_attribute 23, 3
   6              		.eabi_attribute 24, 1
   7              		.eabi_attribute 25, 1
   8              		.eabi_attribute 26, 1
   9              		.eabi_attribute 30, 1
  10              		.eabi_attribute 34, 0
  11              		.eabi_attribute 18, 4
  12              		.code	16
  13              		.file	"mbr.c"
  14              		.text
  15              	.Ltext0:
  16              		.cfi_sections	.debug_frame
  17              		.section	.text.mbr_read_sectors,"ax",%progbits
  18              		.align	2
  19              		.code	16
  20              		.thumb_func
  21              		.type	mbr_read_sectors, %function
  22              	mbr_read_sectors:
  23              	.LFB7:
  24              		.file 1 ".\\mbr.c"
   1:.\mbr.c       **** /*
   2:.\mbr.c       ****  * This file is part of the openfat project.
   3:.\mbr.c       ****  *
   4:.\mbr.c       ****  * Copyright (C) 2011  Department of Physics, University of Otago
   5:.\mbr.c       ****  * Written by Gareth McMullin <gareth@blacksphere.co.nz>
   6:.\mbr.c       ****  *
   7:.\mbr.c       ****  * This program is free software: you can redistribute it and/or modify
   8:.\mbr.c       ****  * it under the terms of the GNU General Public License as published by
   9:.\mbr.c       ****  * the Free Software Foundation, either version 3 of the License, or
  10:.\mbr.c       ****  * (at your option) any later version.
  11:.\mbr.c       ****  *
  12:.\mbr.c       ****  * This program is distributed in the hope that it will be useful,
  13:.\mbr.c       ****  * but WITHOUT ANY WARRANTY; without even the implied warranty of
  14:.\mbr.c       ****  * MERCHANTABILITY or FITNESS FOR A PARTICULAR PURPOSE.  See the
  15:.\mbr.c       ****  * GNU General Public License for more details.
  16:.\mbr.c       ****  *
  17:.\mbr.c       ****  * You should have received a copy of the GNU General Public License
  18:.\mbr.c       ****  * along with this program.  If not, see <http://www.gnu.org/licenses/>.
  19:.\mbr.c       ****  */
  20:.\mbr.c       **** 
  21:.\mbr.c       **** /* Master boot record.
  22:.\mbr.c       ****  */
  23:.\mbr.c       **** 
  24:.\mbr.c       **** #include <stdint.h>
  25:.\mbr.c       **** 
  26:.\mbr.c       **** #include "openfat/leaccess.h"
  27:.\mbr.c       **** #include "openfat/blockdev.h"
  28:.\mbr.c       **** #include "openfat/mbr.h"
  29:.\mbr.c       **** 
  30:.\mbr.c       **** /* In fat_core.c */
  31:.\mbr.c       **** extern uint8_t _fat_sector_buf[];
  32:.\mbr.c       **** 
  33:.\mbr.c       **** static int mbr_read_sectors(const struct block_device *dev, 
ARM GAS  C:\Users\Petro\AppData\Local\Temp\cc0PZm4d.s 			page 2


  34:.\mbr.c       **** 			uint32_t sector, uint32_t count, void *buf)
  35:.\mbr.c       **** {
  25              		.loc 1 35 0
  26              		.cfi_startproc
  27              	.LVL0:
  28 0000 10B5     		push	{r4, lr}
  29              		.cfi_def_cfa_offset 8
  30              		.cfi_offset 4, -8
  31              		.cfi_offset 14, -4
  32 0002 041C     		mov	r4, r0
  33              	.LVL1:
  36:.\mbr.c       **** 	struct block_mbr_partition *part = (void*)dev;
  37:.\mbr.c       **** 
  38:.\mbr.c       **** 	return block_read_sectors(part->whole, 
  34              		.loc 1 38 0
  35 0004 C068     		ldr	r0, [r0, #12]
  36              	.LVL2:
  39:.\mbr.c       **** 				part->first_lba + sector, count, buf);
  37              		.loc 1 39 0
  38 0006 2469     		ldr	r4, [r4, #16]
  39              	.LVL3:
  38:.\mbr.c       **** 				part->first_lba + sector, count, buf);
  40              		.loc 1 38 0
  41 0008 6118     		add	r1, r4, r1
  42              	.LVL4:
  43              	.LBB24:
  44              	.LBB25:
  45              		.file 2 ".\\openfat/blockdev.h"
   1:.\openfat/blockdev.h **** /*
   2:.\openfat/blockdev.h ****  * This file is part of the openfat project.
   3:.\openfat/blockdev.h ****  *
   4:.\openfat/blockdev.h ****  * Copyright (C) 2011  Department of Physics, University of Otago
   5:.\openfat/blockdev.h ****  * Written by Gareth McMullin <gareth@blacksphere.co.nz>
   6:.\openfat/blockdev.h ****  *
   7:.\openfat/blockdev.h ****  * This program is free software: you can redistribute it and/or modify
   8:.\openfat/blockdev.h ****  * it under the terms of the GNU General Public License as published by
   9:.\openfat/blockdev.h ****  * the Free Software Foundation, either version 3 of the License, or
  10:.\openfat/blockdev.h ****  * (at your option) any later version.
  11:.\openfat/blockdev.h ****  *
  12:.\openfat/blockdev.h ****  * This program is distributed in the hope that it will be useful,
  13:.\openfat/blockdev.h ****  * but WITHOUT ANY WARRANTY; without even the implied warranty of
  14:.\openfat/blockdev.h ****  * MERCHANTABILITY or FITNESS FOR A PARTICULAR PURPOSE.  See the
  15:.\openfat/blockdev.h ****  * GNU General Public License for more details.
  16:.\openfat/blockdev.h ****  *
  17:.\openfat/blockdev.h ****  * You should have received a copy of the GNU General Public License
  18:.\openfat/blockdev.h ****  * along with this program.  If not, see <http://www.gnu.org/licenses/>.
  19:.\openfat/blockdev.h ****  */
  20:.\openfat/blockdev.h **** 
  21:.\openfat/blockdev.h **** /** \file blockdev.h
  22:.\openfat/blockdev.h ****  * \brief Block device abstraction.  
  23:.\openfat/blockdev.h ****  * Must be implemented by application for a physical device.
  24:.\openfat/blockdev.h ****  */
  25:.\openfat/blockdev.h **** 
  26:.\openfat/blockdev.h **** #ifndef __BLOCKDEV_H
  27:.\openfat/blockdev.h **** #define __BLOCKDEV_H
  28:.\openfat/blockdev.h **** 
  29:.\openfat/blockdev.h **** #include <stdint.h>
ARM GAS  C:\Users\Petro\AppData\Local\Temp\cc0PZm4d.s 			page 3


  30:.\openfat/blockdev.h **** 
  31:.\openfat/blockdev.h **** /** \brief Structure representing an abstract block device. 
  32:.\openfat/blockdev.h ****  * This abstraction must be provided by the application.
  33:.\openfat/blockdev.h ****  */
  34:.\openfat/blockdev.h **** struct block_device {
  35:.\openfat/blockdev.h **** 	/* Info about the device */
  36:.\openfat/blockdev.h **** 	/** \brief Method to get sector size. */
  37:.\openfat/blockdev.h **** 	uint16_t (*get_sector_size)(const struct block_device *dev);
  38:.\openfat/blockdev.h **** 	/* ... more to be added as needed ... */
  39:.\openfat/blockdev.h **** 
  40:.\openfat/blockdev.h **** 	/* Actions on the device */
  41:.\openfat/blockdev.h **** 	/** \brief Method to read sectors. */
  42:.\openfat/blockdev.h **** 	int (*read_sectors)(const struct block_device *dev, 
  43:.\openfat/blockdev.h **** 			uint32_t sector, uint32_t count, void *buf);
  44:.\openfat/blockdev.h **** 	/** \brief Method to write sectors. */
  45:.\openfat/blockdev.h **** 	int (*write_sectors)(const struct block_device *dev, 
  46:.\openfat/blockdev.h **** 			uint32_t sector, uint32_t count, const void *buf);
  47:.\openfat/blockdev.h **** 	/* ... more to be added as needed ... */
  48:.\openfat/blockdev.h **** 
  49:.\openfat/blockdev.h **** 	/* May be private fields here ... */
  50:.\openfat/blockdev.h **** };
  51:.\openfat/blockdev.h **** 
  52:.\openfat/blockdev.h **** /* Convenient wrapper functions */
  53:.\openfat/blockdev.h **** static inline uint16_t
  54:.\openfat/blockdev.h **** block_get_sector_size(const struct block_device *dev)
  55:.\openfat/blockdev.h **** {
  56:.\openfat/blockdev.h **** 	return dev->get_sector_size(dev);
  57:.\openfat/blockdev.h **** }
  58:.\openfat/blockdev.h **** 
  59:.\openfat/blockdev.h **** /* Returns the number of sectors read or negative on error */
  60:.\openfat/blockdev.h **** static inline int __attribute__((warn_unused_result))
  61:.\openfat/blockdev.h **** block_read_sectors(const struct block_device *dev,
  62:.\openfat/blockdev.h **** 		uint32_t sector, uint32_t count, void *buf)
  63:.\openfat/blockdev.h **** {
  64:.\openfat/blockdev.h **** 	return dev->read_sectors(dev, sector, count, buf);
  46              		.loc 2 64 0
  47 000a 4468     		ldr	r4, [r0, #4]
  48 000c A047     		blx	r4
  49              	.LVL5:
  50              	.LBE25:
  51              	.LBE24:
  40:.\mbr.c       **** }
  52              		.loc 1 40 0
  53              		@ sp needed
  54 000e 10BD     		pop	{r4, pc}
  55              		.cfi_endproc
  56              	.LFE7:
  57              		.size	mbr_read_sectors, .-mbr_read_sectors
  58              		.section	.text.mbr_write_sectors,"ax",%progbits
  59              		.align	2
  60              		.code	16
  61              		.thumb_func
  62              		.type	mbr_write_sectors, %function
  63              	mbr_write_sectors:
  64              	.LFB8:
  41:.\mbr.c       **** 
  42:.\mbr.c       **** static int mbr_write_sectors(const struct block_device *dev, 
ARM GAS  C:\Users\Petro\AppData\Local\Temp\cc0PZm4d.s 			page 4


  43:.\mbr.c       **** 			uint32_t sector, uint32_t count, const void *buf)
  44:.\mbr.c       **** {
  65              		.loc 1 44 0
  66              		.cfi_startproc
  67              	.LVL6:
  68 0000 10B5     		push	{r4, lr}
  69              		.cfi_def_cfa_offset 8
  70              		.cfi_offset 4, -8
  71              		.cfi_offset 14, -4
  72 0002 041C     		mov	r4, r0
  73              	.LVL7:
  45:.\mbr.c       **** 	struct block_mbr_partition *part = (void*)dev;
  46:.\mbr.c       **** 
  47:.\mbr.c       **** 	return block_write_sectors(part->whole, 
  74              		.loc 1 47 0
  75 0004 C068     		ldr	r0, [r0, #12]
  76              	.LVL8:
  48:.\mbr.c       **** 				part->first_lba + sector, count, buf);
  77              		.loc 1 48 0
  78 0006 2469     		ldr	r4, [r4, #16]
  79              	.LVL9:
  47:.\mbr.c       **** 				part->first_lba + sector, count, buf);
  80              		.loc 1 47 0
  81 0008 6118     		add	r1, r4, r1
  82              	.LVL10:
  83              	.LBB26:
  84              	.LBB27:
  65:.\openfat/blockdev.h **** }
  66:.\openfat/blockdev.h **** 
  67:.\openfat/blockdev.h **** /* Returns the number of sectors written or negative on error */
  68:.\openfat/blockdev.h **** static inline int __attribute__((warn_unused_result))
  69:.\openfat/blockdev.h **** block_write_sectors(const struct block_device *dev,
  70:.\openfat/blockdev.h **** 		uint32_t sector, uint32_t count, const void *buf)
  71:.\openfat/blockdev.h **** {
  72:.\openfat/blockdev.h **** 	return dev->write_sectors(dev, sector, count, buf);
  85              		.loc 2 72 0
  86 000a 8468     		ldr	r4, [r0, #8]
  87 000c A047     		blx	r4
  88              	.LVL11:
  89              	.LBE27:
  90              	.LBE26:
  49:.\mbr.c       **** }
  91              		.loc 1 49 0
  92              		@ sp needed
  93 000e 10BD     		pop	{r4, pc}
  94              		.cfi_endproc
  95              	.LFE8:
  96              		.size	mbr_write_sectors, .-mbr_write_sectors
  97              		.section	.text.mbr_partition_init,"ax",%progbits
  98              		.align	2
  99              		.global	mbr_partition_init
 100              		.code	16
 101              		.thumb_func
 102              		.type	mbr_partition_init, %function
 103              	mbr_partition_init:
 104              	.LFB9:
  50:.\mbr.c       **** 
ARM GAS  C:\Users\Petro\AppData\Local\Temp\cc0PZm4d.s 			page 5


  51:.\mbr.c       **** int mbr_partition_init(struct block_mbr_partition *part, 
  52:.\mbr.c       **** 			struct block_device *whole, uint8_t part_index)
  53:.\mbr.c       **** {
 105              		.loc 1 53 0
 106              		.cfi_startproc
 107              	.LVL12:
 108 0000 F8B5     		push	{r3, r4, r5, r6, r7, lr}
 109              		.cfi_def_cfa_offset 24
 110              		.cfi_offset 3, -24
 111              		.cfi_offset 4, -20
 112              		.cfi_offset 5, -16
 113              		.cfi_offset 6, -12
 114              		.cfi_offset 7, -8
 115              		.cfi_offset 14, -4
 116 0002 041C     		mov	r4, r0
 117 0004 0D1C     		mov	r5, r1
 118 0006 161C     		mov	r6, r2
 119              	.LVL13:
 120              	.LBB28:
 121              	.LBB29:
  64:.\openfat/blockdev.h **** }
 122              		.loc 2 64 0
 123 0008 081C     		mov	r0, r1
 124              	.LVL14:
 125 000a 0021     		mov	r1, #0
 126              	.LVL15:
 127 000c 0122     		mov	r2, #1
 128              	.LVL16:
 129 000e 164B     		ldr	r3, .L6
 130 0010 6F68     		ldr	r7, [r5, #4]
 131 0012 B847     		blx	r7
 132              	.LVL17:
 133              	.LBE29:
 134              	.LBE28:
  54:.\mbr.c       **** 	struct mbr_partition *part_table = (void*)&_fat_sector_buf[446];
  55:.\mbr.c       **** 	/* Read MBR from whole device */
  56:.\mbr.c       **** 	if(block_read_sectors(whole, 0, 1, _fat_sector_buf) != 1)
 135              		.loc 1 56 0
 136 0014 0128     		cmp	r0, #1
 137 0016 23D1     		bne	.L5
  57:.\mbr.c       **** 		return -1;
  58:.\mbr.c       **** 	
  59:.\mbr.c       **** 	part->whole = whole;
 138              		.loc 1 59 0
 139 0018 E560     		str	r5, [r4, #12]
  60:.\mbr.c       **** 
  61:.\mbr.c       **** 	part->first_lba = __get_le32(&part_table[part_index].first_lba);
 140              		.loc 1 61 0
 141 001a 3601     		lsl	r6, r6, #4
 142 001c 134A     		ldr	r2, .L6+4
 143              	.LVL18:
 144 001e B218     		add	r2, r6, r2
 145              	.LVL19:
 146              	.LBB30:
 147              	.LBB31:
 148              	.LBB32:
 149              	.LBB33:
ARM GAS  C:\Users\Petro\AppData\Local\Temp\cc0PZm4d.s 			page 6


 150              		.file 3 ".\\openfat/leaccess.h"
   1:.\openfat/leaccess.h **** /*
   2:.\openfat/leaccess.h ****  * This file is part of the openfat project.
   3:.\openfat/leaccess.h ****  *
   4:.\openfat/leaccess.h ****  * Copyright (C) 2011  Department of Physics, University of Otago
   5:.\openfat/leaccess.h ****  * Written by Gareth McMullin <gareth@blacksphere.co.nz>
   6:.\openfat/leaccess.h ****  *
   7:.\openfat/leaccess.h ****  * This program is free software: you can redistribute it and/or modify
   8:.\openfat/leaccess.h ****  * it under the terms of the GNU General Public License as published by
   9:.\openfat/leaccess.h ****  * the Free Software Foundation, either version 3 of the License, or
  10:.\openfat/leaccess.h ****  * (at your option) any later version.
  11:.\openfat/leaccess.h ****  *
  12:.\openfat/leaccess.h ****  * This program is distributed in the hope that it will be useful,
  13:.\openfat/leaccess.h ****  * but WITHOUT ANY WARRANTY; without even the implied warranty of
  14:.\openfat/leaccess.h ****  * MERCHANTABILITY or FITNESS FOR A PARTICULAR PURPOSE.  See the
  15:.\openfat/leaccess.h ****  * GNU General Public License for more details.
  16:.\openfat/leaccess.h ****  *
  17:.\openfat/leaccess.h ****  * You should have received a copy of the GNU General Public License
  18:.\openfat/leaccess.h ****  * along with this program.  If not, see <http://www.gnu.org/licenses/>.
  19:.\openfat/leaccess.h ****  */
  20:.\openfat/leaccess.h **** 
  21:.\openfat/leaccess.h **** /* Macros for structure access.  Host system may be little or big endian,
  22:.\openfat/leaccess.h ****  * and may not be capable of misaligned access.  Always use these for
  23:.\openfat/leaccess.h ****  * access to the on-disk FAT structures.
  24:.\openfat/leaccess.h ****  */
  25:.\openfat/leaccess.h **** 
  26:.\openfat/leaccess.h **** #ifndef __LEACCESS_H
  27:.\openfat/leaccess.h **** #define __LEACCESS_H
  28:.\openfat/leaccess.h **** 
  29:.\openfat/leaccess.h **** #include <stdint.h>
  30:.\openfat/leaccess.h **** 
  31:.\openfat/leaccess.h **** static inline uint16_t __get_le16(const uint16_t *p)
  32:.\openfat/leaccess.h **** {
  33:.\openfat/leaccess.h **** 	return *(uint8_t *)p + (*((uint8_t *)p + 1) << 8);
 151              		.loc 3 33 0
 152 0020 107A     		ldrb	r0, [r2, #8]
 153 0022 537A     		ldrb	r3, [r2, #9]
 154 0024 1B02     		lsl	r3, r3, #8
 155 0026 C318     		add	r3, r0, r3
 156 0028 98B2     		uxth	r0, r3
 157              	.LVL20:
 158              	.LBE33:
 159              	.LBE32:
 160              	.LBB34:
 161              	.LBB35:
 162 002a 967A     		ldrb	r6, [r2, #10]
 163 002c D37A     		ldrb	r3, [r2, #11]
 164 002e 1902     		lsl	r1, r3, #8
 165 0030 7318     		add	r3, r6, r1
 166              	.LBE35:
 167              	.LBE34:
  34:.\openfat/leaccess.h **** }
  35:.\openfat/leaccess.h **** 
  36:.\openfat/leaccess.h **** static inline void __put_le16(uint16_t *p, uint16_t v)
  37:.\openfat/leaccess.h **** {
  38:.\openfat/leaccess.h **** 	*(uint8_t *)p = v & 0xff;
  39:.\openfat/leaccess.h **** 	*((uint8_t *)p + 1) = v >> 8;
ARM GAS  C:\Users\Petro\AppData\Local\Temp\cc0PZm4d.s 			page 7


  40:.\openfat/leaccess.h **** }
  41:.\openfat/leaccess.h **** 
  42:.\openfat/leaccess.h **** static inline uint32_t __get_le32(const uint32_t *p)
  43:.\openfat/leaccess.h **** {
  44:.\openfat/leaccess.h **** 	return __get_le16((uint16_t *)p) + 
  45:.\openfat/leaccess.h **** 		(uint32_t)(__get_le16((const uint16_t *)p + 1) << 16); 
 168              		.loc 3 45 0
 169 0032 1B04     		lsl	r3, r3, #16
  44:.\openfat/leaccess.h **** 		(uint32_t)(__get_le16((const uint16_t *)p + 1) << 16); 
 170              		.loc 3 44 0
 171 0034 C318     		add	r3, r0, r3
 172              	.LBE31:
 173              	.LBE30:
 174              		.loc 1 61 0
 175 0036 2361     		str	r3, [r4, #16]
 176              	.LVL21:
 177              	.LBB36:
 178              	.LBB37:
 179              	.LBB38:
 180              	.LBB39:
  33:.\openfat/leaccess.h **** }
 181              		.loc 3 33 0
 182 0038 117B     		ldrb	r1, [r2, #12]
 183 003a 537B     		ldrb	r3, [r2, #13]
 184 003c 1B02     		lsl	r3, r3, #8
 185 003e CB18     		add	r3, r1, r3
 186 0040 99B2     		uxth	r1, r3
 187              	.LVL22:
 188              	.LBE39:
 189              	.LBE38:
 190              	.LBB40:
 191              	.LBB41:
 192 0042 907B     		ldrb	r0, [r2, #14]
 193 0044 D37B     		ldrb	r3, [r2, #15]
 194 0046 1A02     		lsl	r2, r3, #8
 195              	.LVL23:
 196 0048 8318     		add	r3, r0, r2
 197              	.LBE41:
 198              	.LBE40:
 199              		.loc 3 45 0
 200 004a 1B04     		lsl	r3, r3, #16
  44:.\openfat/leaccess.h **** 		(uint32_t)(__get_le16((const uint16_t *)p + 1) << 16); 
 201              		.loc 3 44 0
 202 004c CB18     		add	r3, r1, r3
 203              	.LBE37:
 204              	.LBE36:
  62:.\mbr.c       **** 	part->sector_count = __get_le32(&part_table[part_index].sector_count);
 205              		.loc 1 62 0
 206 004e 6361     		str	r3, [r4, #20]
  63:.\mbr.c       **** 
  64:.\mbr.c       **** 	part->bldev.get_sector_size = whole->get_sector_size;
 207              		.loc 1 64 0
 208 0050 2B68     		ldr	r3, [r5]
 209 0052 2360     		str	r3, [r4]
  65:.\mbr.c       **** 	part->bldev.read_sectors = mbr_read_sectors;
 210              		.loc 1 65 0
 211 0054 064B     		ldr	r3, .L6+8
ARM GAS  C:\Users\Petro\AppData\Local\Temp\cc0PZm4d.s 			page 8


 212 0056 6360     		str	r3, [r4, #4]
  66:.\mbr.c       **** 	part->bldev.write_sectors = mbr_write_sectors;
 213              		.loc 1 66 0
 214 0058 064B     		ldr	r3, .L6+12
 215 005a A360     		str	r3, [r4, #8]
  67:.\mbr.c       **** 
  68:.\mbr.c       **** 	return 0;
 216              		.loc 1 68 0
 217 005c 0020     		mov	r0, #0
 218 005e 01E0     		b	.L4
 219              	.L5:
  57:.\mbr.c       **** 	
 220              		.loc 1 57 0
 221 0060 0120     		mov	r0, #1
 222 0062 4042     		neg	r0, r0
 223              	.L4:
  69:.\mbr.c       **** }
 224              		.loc 1 69 0
 225              		@ sp needed
 226              	.LVL24:
 227              	.LVL25:
 228 0064 F8BD     		pop	{r3, r4, r5, r6, r7, pc}
 229              	.L7:
 230 0066 C046     		.align	2
 231              	.L6:
 232 0068 00000000 		.word	_fat_sector_buf
 233 006c BE010000 		.word	_fat_sector_buf+446
 234 0070 00000000 		.word	mbr_read_sectors
 235 0074 00000000 		.word	mbr_write_sectors
 236              		.cfi_endproc
 237              	.LFE9:
 238              		.size	mbr_partition_init, .-mbr_partition_init
 239              		.text
 240              	.Letext0:
 241              		.file 4 "c:\\program files (x86)\\cypress\\psoc creator\\3.3\\psoc creator\\import\\gnu\\arm\\4.9.
 242              		.file 5 "c:\\program files (x86)\\cypress\\psoc creator\\3.3\\psoc creator\\import\\gnu\\arm\\4.9.
 243              		.file 6 ".\\openfat/mbr.h"