ARM GAS  C:\Users\Petro\AppData\Local\Temp\ccPFwMgj.s 			page 1


   1              		.cpu cortex-m0
   2              		.fpu softvfp
   3              		.eabi_attribute 20, 1
   4              		.eabi_attribute 21, 1
   5              		.eabi_attribute 23, 3
   6              		.eabi_attribute 24, 1
   7              		.eabi_attribute 25, 1
   8              		.eabi_attribute 26, 1
   9              		.eabi_attribute 30, 1
  10              		.eabi_attribute 34, 0
  11              		.eabi_attribute 18, 4
  12              		.code	16
  13              		.file	"write.c"
  14              		.text
  15              	.Ltext0:
  16              		.cfi_sections	.debug_frame
  17              		.global	__aeabi_uidiv
  18              		.global	__aeabi_uidivmod
  19              		.section	.text.fat32_set_next_cluster,"ax",%progbits
  20              		.align	2
  21              		.code	16
  22              		.thumb_func
  23              		.type	fat32_set_next_cluster, %function
  24              	fat32_set_next_cluster:
  25              	.LFB18:
  26              		.file 1 ".\\write.c"
   1:.\write.c     **** /*
   2:.\write.c     ****  * This file is part of the openfat project.
   3:.\write.c     ****  *
   4:.\write.c     ****  * Copyright (C) 2011  Department of Physics, University of Otago
   5:.\write.c     ****  * Written by Gareth McMullin <gareth@blacksphere.co.nz>
   6:.\write.c     ****  *
   7:.\write.c     ****  * This program is free software: you can redistribute it and/or modify
   8:.\write.c     ****  * it under the terms of the GNU General Public License as published by
   9:.\write.c     ****  * the Free Software Foundation, either version 3 of the License, or
  10:.\write.c     ****  * (at your option) any later version.
  11:.\write.c     ****  *
  12:.\write.c     ****  * This program is distributed in the hope that it will be useful,
  13:.\write.c     ****  * but WITHOUT ANY WARRANTY; without even the implied warranty of
  14:.\write.c     ****  * MERCHANTABILITY or FITNESS FOR A PARTICULAR PURPOSE.  See the
  15:.\write.c     ****  * GNU General Public License for more details.
  16:.\write.c     ****  *
  17:.\write.c     ****  * You should have received a copy of the GNU General Public License
  18:.\write.c     ****  * along with this program.  If not, see <http://www.gnu.org/licenses/>.
  19:.\write.c     ****  */
  20:.\write.c     **** 
  21:.\write.c     **** /* FAT Filesystem write support implementation
  22:.\write.c     ****  */
  23:.\write.c     **** #include <string.h>
  24:.\write.c     **** #include <ctype.h>
  25:.\write.c     **** #include <errno.h>
  26:.\write.c     **** #include <CyLib.h>
  27:.\write.c     **** 
  28:.\write.c     **** #include "openfat.h"
  29:.\write.c     **** 
  30:.\write.c     **** #include "fat_core.h"
  31:.\write.c     **** 
ARM GAS  C:\Users\Petro\AppData\Local\Temp\ccPFwMgj.s 			page 2


  32:.\write.c     **** static uint32_t fat_find_free_cluster(struct fat_vol_handle *h)
  33:.\write.c     **** {
  34:.\write.c     **** 	uint32_t i;
  35:.\write.c     **** 
  36:.\write.c     **** 	for(i = h->last_cluster_alloc; i < h->cluster_count; i++) {
  37:.\write.c     **** 		if(_fat_get_next_cluster(h, i) == 0) {
  38:.\write.c     **** 			h->last_cluster_alloc = i;
  39:.\write.c     **** 			return i;
  40:.\write.c     **** 		}
  41:.\write.c     **** 	}
  42:.\write.c     **** 
  43:.\write.c     **** 	for(i = 2; i < h->last_cluster_alloc; i++) {
  44:.\write.c     **** 		if(_fat_get_next_cluster(h, i) == 0) {
  45:.\write.c     **** 			h->last_cluster_alloc = i;
  46:.\write.c     **** 			return i;
  47:.\write.c     **** 		}
  48:.\write.c     **** 	}
  49:.\write.c     **** 
  50:.\write.c     **** 	return 0; /* No free clusters */
  51:.\write.c     **** }
  52:.\write.c     **** 
  53:.\write.c     **** static int 
  54:.\write.c     **** fat32_set_next_cluster(const struct fat_vol_handle *h, uint8_t fat,
  55:.\write.c     **** 			uint32_t cluster, uint32_t next)
  56:.\write.c     **** {
  27              		.loc 1 56 0
  28              		.cfi_startproc
  29              	.LVL0:
  30 0000 F8B5     		push	{r3, r4, r5, r6, r7, lr}
  31              		.cfi_def_cfa_offset 24
  32              		.cfi_offset 3, -24
  33              		.cfi_offset 4, -20
  34              		.cfi_offset 5, -16
  35              		.cfi_offset 6, -12
  36              		.cfi_offset 7, -8
  37              		.cfi_offset 14, -4
  38 0002 4F46     		mov	r7, r9
  39 0004 4646     		mov	r6, r8
  40 0006 C0B4     		push	{r6, r7}
  41              		.cfi_def_cfa_offset 32
  42              		.cfi_offset 8, -32
  43              		.cfi_offset 9, -28
  44 0008 051C     		mov	r5, r0
  45 000a 9946     		mov	r9, r3
  57:.\write.c     **** 	uint32_t offset = cluster * 4;
  46              		.loc 1 57 0
  47 000c 9600     		lsl	r6, r2, #2
  48              	.LVL1:
  58:.\write.c     **** 	uint32_t sector;
  59:.\write.c     **** 
  60:.\write.c     **** 	sector = h->reserved_sector_count + (fat * h->fat_size) +
  49              		.loc 1 60 0
  50 000e 8389     		ldrh	r3, [r0, #12]
  51              	.LVL2:
  52 0010 8269     		ldr	r2, [r0, #24]
  53              	.LVL3:
  54 0012 5143     		mul	r1, r2
ARM GAS  C:\Users\Petro\AppData\Local\Temp\ccPFwMgj.s 			page 3


  55              	.LVL4:
  56 0014 5C18     		add	r4, r3, r1
  61:.\write.c     **** 		(offset / h->bytes_per_sector);
  57              		.loc 1 61 0
  58 0016 0789     		ldrh	r7, [r0, #8]
  59 0018 301C     		mov	r0, r6
  60              	.LVL5:
  61 001a 391C     		mov	r1, r7
  62 001c FFF7FEFF 		bl	__aeabi_uidiv
  63              	.LVL6:
  60:.\write.c     **** 		(offset / h->bytes_per_sector);
  64              		.loc 1 60 0
  65 0020 A046     		mov	r8, r4
  66 0022 8044     		add	r8, r8, r0
  67              	.LVL7:
  62:.\write.c     **** 	offset %= h->bytes_per_sector;
  68              		.loc 1 62 0
  69 0024 301C     		mov	r0, r6
  70 0026 391C     		mov	r1, r7
  71 0028 FFF7FEFF 		bl	__aeabi_uidivmod
  72              	.LVL8:
  73 002c 0E1C     		mov	r6, r1
  74              	.LVL9:
  63:.\write.c     **** 
  64:.\write.c     **** 	FAT_GET_SECTOR(h, sector);
  75              		.loc 1 64 0
  76 002e 304B     		ldr	r3, .L12
  77 0030 5868     		ldr	r0, [r3, #4]
  78 0032 2B68     		ldr	r3, [r5]
  79 0034 9842     		cmp	r0, r3
  80 0036 03D1     		bne	.L2
  81              		.loc 1 64 0 is_stmt 0 discriminator 1
  82 0038 2D4B     		ldr	r3, .L12
  83 003a 9B68     		ldr	r3, [r3, #8]
  84 003c 4345     		cmp	r3, r8
  85 003e 1AD0     		beq	.L3
  86              	.L2:
  87              		.loc 1 64 0 discriminator 3
  88 0040 2B4B     		ldr	r3, .L12
  89 0042 1B7B     		ldrb	r3, [r3, #12]
  90 0044 002B     		cmp	r3, #0
  91 0046 07D0     		beq	.L4
  92              		.loc 1 64 0 discriminator 4
  93 0048 294B     		ldr	r3, .L12
  94 004a 9968     		ldr	r1, [r3, #8]
  95              	.LVL10:
  96              	.LBB141:
  97              	.LBB142:
  98              		.file 2 ".\\openfat/blockdev.h"
   1:.\openfat/blockdev.h **** /*
   2:.\openfat/blockdev.h ****  * This file is part of the openfat project.
   3:.\openfat/blockdev.h ****  *
   4:.\openfat/blockdev.h ****  * Copyright (C) 2011  Department of Physics, University of Otago
   5:.\openfat/blockdev.h ****  * Written by Gareth McMullin <gareth@blacksphere.co.nz>
   6:.\openfat/blockdev.h ****  *
   7:.\openfat/blockdev.h ****  * This program is free software: you can redistribute it and/or modify
   8:.\openfat/blockdev.h ****  * it under the terms of the GNU General Public License as published by
ARM GAS  C:\Users\Petro\AppData\Local\Temp\ccPFwMgj.s 			page 4


   9:.\openfat/blockdev.h ****  * the Free Software Foundation, either version 3 of the License, or
  10:.\openfat/blockdev.h ****  * (at your option) any later version.
  11:.\openfat/blockdev.h ****  *
  12:.\openfat/blockdev.h ****  * This program is distributed in the hope that it will be useful,
  13:.\openfat/blockdev.h ****  * but WITHOUT ANY WARRANTY; without even the implied warranty of
  14:.\openfat/blockdev.h ****  * MERCHANTABILITY or FITNESS FOR A PARTICULAR PURPOSE.  See the
  15:.\openfat/blockdev.h ****  * GNU General Public License for more details.
  16:.\openfat/blockdev.h ****  *
  17:.\openfat/blockdev.h ****  * You should have received a copy of the GNU General Public License
  18:.\openfat/blockdev.h ****  * along with this program.  If not, see <http://www.gnu.org/licenses/>.
  19:.\openfat/blockdev.h ****  */
  20:.\openfat/blockdev.h **** 
  21:.\openfat/blockdev.h **** /** \file blockdev.h
  22:.\openfat/blockdev.h ****  * \brief Block device abstraction.  
  23:.\openfat/blockdev.h ****  * Must be implemented by application for a physical device.
  24:.\openfat/blockdev.h ****  */
  25:.\openfat/blockdev.h **** 
  26:.\openfat/blockdev.h **** #ifndef __BLOCKDEV_H
  27:.\openfat/blockdev.h **** #define __BLOCKDEV_H
  28:.\openfat/blockdev.h **** 
  29:.\openfat/blockdev.h **** #include <stdint.h>
  30:.\openfat/blockdev.h **** 
  31:.\openfat/blockdev.h **** /** \brief Structure representing an abstract block device. 
  32:.\openfat/blockdev.h ****  * This abstraction must be provided by the application.
  33:.\openfat/blockdev.h ****  */
  34:.\openfat/blockdev.h **** struct block_device {
  35:.\openfat/blockdev.h **** 	/* Info about the device */
  36:.\openfat/blockdev.h **** 	/** \brief Method to get sector size. */
  37:.\openfat/blockdev.h **** 	uint16_t (*get_sector_size)(const struct block_device *dev);
  38:.\openfat/blockdev.h **** 	/* ... more to be added as needed ... */
  39:.\openfat/blockdev.h **** 
  40:.\openfat/blockdev.h **** 	/* Actions on the device */
  41:.\openfat/blockdev.h **** 	/** \brief Method to read sectors. */
  42:.\openfat/blockdev.h **** 	int (*read_sectors)(const struct block_device *dev, 
  43:.\openfat/blockdev.h **** 			uint32_t sector, uint32_t count, void *buf);
  44:.\openfat/blockdev.h **** 	/** \brief Method to write sectors. */
  45:.\openfat/blockdev.h **** 	int (*write_sectors)(const struct block_device *dev, 
  46:.\openfat/blockdev.h **** 			uint32_t sector, uint32_t count, const void *buf);
  47:.\openfat/blockdev.h **** 	/* ... more to be added as needed ... */
  48:.\openfat/blockdev.h **** 
  49:.\openfat/blockdev.h **** 	/* May be private fields here ... */
  50:.\openfat/blockdev.h **** };
  51:.\openfat/blockdev.h **** 
  52:.\openfat/blockdev.h **** /* Convenient wrapper functions */
  53:.\openfat/blockdev.h **** static inline uint16_t
  54:.\openfat/blockdev.h **** block_get_sector_size(const struct block_device *dev)
  55:.\openfat/blockdev.h **** {
  56:.\openfat/blockdev.h **** 	return dev->get_sector_size(dev);
  57:.\openfat/blockdev.h **** }
  58:.\openfat/blockdev.h **** 
  59:.\openfat/blockdev.h **** /* Returns the number of sectors read or negative on error */
  60:.\openfat/blockdev.h **** static inline int __attribute__((warn_unused_result))
  61:.\openfat/blockdev.h **** block_read_sectors(const struct block_device *dev,
  62:.\openfat/blockdev.h **** 		uint32_t sector, uint32_t count, void *buf)
  63:.\openfat/blockdev.h **** {
  64:.\openfat/blockdev.h **** 	return dev->read_sectors(dev, sector, count, buf);
  65:.\openfat/blockdev.h **** }
ARM GAS  C:\Users\Petro\AppData\Local\Temp\ccPFwMgj.s 			page 5


  66:.\openfat/blockdev.h **** 
  67:.\openfat/blockdev.h **** /* Returns the number of sectors written or negative on error */
  68:.\openfat/blockdev.h **** static inline int __attribute__((warn_unused_result))
  69:.\openfat/blockdev.h **** block_write_sectors(const struct block_device *dev,
  70:.\openfat/blockdev.h **** 		uint32_t sector, uint32_t count, const void *buf)
  71:.\openfat/blockdev.h **** {
  72:.\openfat/blockdev.h **** 	return dev->write_sectors(dev, sector, count, buf);
  99              		.loc 2 72 0 is_stmt 1 discriminator 4
 100 004c 8768     		ldr	r7, [r0, #8]
 101 004e 0122     		mov	r2, #1
 102 0050 284B     		ldr	r3, .L12+4
 103 0052 B847     		blx	r7
 104              	.LVL11:
 105              	.LBE142:
 106              	.LBE141:
 107              		.loc 1 64 0 discriminator 4
 108 0054 0128     		cmp	r0, #1
 109 0056 3FD1     		bne	.L9
 110              	.LVL12:
 111              	.L4:
 112              		.loc 1 64 0 is_stmt 0 discriminator 7
 113 0058 254B     		ldr	r3, .L12
 114 005a 0022     		mov	r2, #0
 115 005c 1A73     		strb	r2, [r3, #12]
 116 005e 2A68     		ldr	r2, [r5]
 117 0060 5A60     		str	r2, [r3, #4]
 118 0062 4246     		mov	r2, r8
 119 0064 9A60     		str	r2, [r3, #8]
 120 0066 2868     		ldr	r0, [r5]
 121              	.LVL13:
 122              	.LBB143:
 123              	.LBB144:
  64:.\openfat/blockdev.h **** }
 124              		.loc 2 64 0 is_stmt 1 discriminator 7
 125 0068 4768     		ldr	r7, [r0, #4]
 126 006a 4146     		mov	r1, r8
 127 006c 0122     		mov	r2, #1
 128              	.LVL14:
 129 006e 214B     		ldr	r3, .L12+4
 130 0070 B847     		blx	r7
 131              	.LVL15:
 132              	.LBE144:
 133              	.LBE143:
 134              		.loc 1 64 0 discriminator 7
 135 0072 0128     		cmp	r0, #1
 136 0074 33D1     		bne	.L10
 137              	.LVL16:
 138              	.L3:
  65:.\write.c     **** 
  66:.\write.c     **** 	/* Preserve high nybble */
  67:.\write.c     **** 	next &= 0x0FFFFFFF;
 139              		.loc 1 67 0
 140 0076 4B46     		mov	r3, r9
 141 0078 1C01     		lsl	r4, r3, #4
 142 007a 2409     		lsr	r4, r4, #4
 143              	.LVL17:
  68:.\write.c     **** 	next |= __get_le32((uint32_t*)(_fat_sector_buf + offset)) & 0xF0000000;
ARM GAS  C:\Users\Petro\AppData\Local\Temp\ccPFwMgj.s 			page 6


 144              		.loc 1 68 0
 145 007c 1D49     		ldr	r1, .L12+4
 146 007e 7118     		add	r1, r6, r1
 147              	.LVL18:
 148              	.LBB145:
 149              	.LBB146:
 150              	.LBB147:
 151              	.LBB148:
 152              		.file 3 ".\\openfat/leaccess.h"
   1:.\openfat/leaccess.h **** /*
   2:.\openfat/leaccess.h ****  * This file is part of the openfat project.
   3:.\openfat/leaccess.h ****  *
   4:.\openfat/leaccess.h ****  * Copyright (C) 2011  Department of Physics, University of Otago
   5:.\openfat/leaccess.h ****  * Written by Gareth McMullin <gareth@blacksphere.co.nz>
   6:.\openfat/leaccess.h ****  *
   7:.\openfat/leaccess.h ****  * This program is free software: you can redistribute it and/or modify
   8:.\openfat/leaccess.h ****  * it under the terms of the GNU General Public License as published by
   9:.\openfat/leaccess.h ****  * the Free Software Foundation, either version 3 of the License, or
  10:.\openfat/leaccess.h ****  * (at your option) any later version.
  11:.\openfat/leaccess.h ****  *
  12:.\openfat/leaccess.h ****  * This program is distributed in the hope that it will be useful,
  13:.\openfat/leaccess.h ****  * but WITHOUT ANY WARRANTY; without even the implied warranty of
  14:.\openfat/leaccess.h ****  * MERCHANTABILITY or FITNESS FOR A PARTICULAR PURPOSE.  See the
  15:.\openfat/leaccess.h ****  * GNU General Public License for more details.
  16:.\openfat/leaccess.h ****  *
  17:.\openfat/leaccess.h ****  * You should have received a copy of the GNU General Public License
  18:.\openfat/leaccess.h ****  * along with this program.  If not, see <http://www.gnu.org/licenses/>.
  19:.\openfat/leaccess.h ****  */
  20:.\openfat/leaccess.h **** 
  21:.\openfat/leaccess.h **** /* Macros for structure access.  Host system may be little or big endian,
  22:.\openfat/leaccess.h ****  * and may not be capable of misaligned access.  Always use these for
  23:.\openfat/leaccess.h ****  * access to the on-disk FAT structures.
  24:.\openfat/leaccess.h ****  */
  25:.\openfat/leaccess.h **** 
  26:.\openfat/leaccess.h **** #ifndef __LEACCESS_H
  27:.\openfat/leaccess.h **** #define __LEACCESS_H
  28:.\openfat/leaccess.h **** 
  29:.\openfat/leaccess.h **** #include <stdint.h>
  30:.\openfat/leaccess.h **** 
  31:.\openfat/leaccess.h **** static inline uint16_t __get_le16(const uint16_t *p)
  32:.\openfat/leaccess.h **** {
  33:.\openfat/leaccess.h **** 	return *(uint8_t *)p + (*((uint8_t *)p + 1) << 8);
 153              		.loc 3 33 0
 154 0080 CB78     		ldrb	r3, [r1, #3]
 155              	.LBE148:
 156              	.LBE147:
 157              	.LBE146:
 158              	.LBE145:
 159              		.loc 1 68 0
 160 0082 1B09     		lsr	r3, r3, #4
 161 0084 1B07     		lsl	r3, r3, #28
 162 0086 2343     		orr	r3, r4
 163              	.LVL19:
 164              	.LBB149:
 165              	.LBB150:
 166              	.LBB151:
 167              	.LBB152:
ARM GAS  C:\Users\Petro\AppData\Local\Temp\ccPFwMgj.s 			page 7


  34:.\openfat/leaccess.h **** }
  35:.\openfat/leaccess.h **** 
  36:.\openfat/leaccess.h **** static inline void __put_le16(uint16_t *p, uint16_t v)
  37:.\openfat/leaccess.h **** {
  38:.\openfat/leaccess.h **** 	*(uint8_t *)p = v & 0xff;
 168              		.loc 3 38 0
 169 0088 0B70     		strb	r3, [r1]
  39:.\openfat/leaccess.h **** 	*((uint8_t *)p + 1) = v >> 8;
 170              		.loc 3 39 0
 171 008a 1A0A     		lsr	r2, r3, #8
 172 008c 4A70     		strb	r2, [r1, #1]
 173              	.LBE152:
 174              	.LBE151:
  40:.\openfat/leaccess.h **** }
  41:.\openfat/leaccess.h **** 
  42:.\openfat/leaccess.h **** static inline uint32_t __get_le32(const uint32_t *p)
  43:.\openfat/leaccess.h **** {
  44:.\openfat/leaccess.h **** 	return __get_le16((uint16_t *)p) + 
  45:.\openfat/leaccess.h **** 		(uint32_t)(__get_le16((const uint16_t *)p + 1) << 16); 
  46:.\openfat/leaccess.h **** }
  47:.\openfat/leaccess.h **** 
  48:.\openfat/leaccess.h **** static inline void __put_le32(uint32_t *p, uint32_t v)
  49:.\openfat/leaccess.h **** {
  50:.\openfat/leaccess.h **** 	__put_le16((uint16_t *)p, v & 0xffff);
  51:.\openfat/leaccess.h **** 	__put_le16((uint16_t *)p + 1, v >> 16);
 175              		.loc 3 51 0
 176 008e 1B0C     		lsr	r3, r3, #16
 177              	.LVL20:
 178              	.LBB153:
 179              	.LBB154:
  38:.\openfat/leaccess.h **** 	*((uint8_t *)p + 1) = v >> 8;
 180              		.loc 3 38 0
 181 0090 8B70     		strb	r3, [r1, #2]
  39:.\openfat/leaccess.h **** 	*((uint8_t *)p + 1) = v >> 8;
 182              		.loc 3 39 0
 183 0092 1B0A     		lsr	r3, r3, #8
 184              	.LVL21:
 185 0094 CB70     		strb	r3, [r1, #3]
 186              	.LVL22:
 187              	.LBE154:
 188              	.LBE153:
 189              	.LBE150:
 190              	.LBE149:
  69:.\write.c     **** 	__put_le32((uint32_t*)(_fat_sector_buf + offset), next);
  70:.\write.c     **** 
  71:.\write.c     **** 	FAT_PUT_SECTOR(h, sector);
 191              		.loc 1 71 0
 192 0096 164B     		ldr	r3, .L12
 193 0098 5868     		ldr	r0, [r3, #4]
 194 009a 2B68     		ldr	r3, [r5]
 195 009c 9842     		cmp	r0, r3
 196 009e 03D1     		bne	.L6
 197              		.loc 1 71 0 is_stmt 0 discriminator 2
 198 00a0 134B     		ldr	r3, .L12
 199 00a2 9B68     		ldr	r3, [r3, #8]
 200 00a4 4345     		cmp	r3, r8
 201 00a6 0ED0     		beq	.L7
ARM GAS  C:\Users\Petro\AppData\Local\Temp\ccPFwMgj.s 			page 8


 202              	.L6:
 203              		.loc 1 71 0 discriminator 3
 204 00a8 114B     		ldr	r3, .L12
 205 00aa 1B7B     		ldrb	r3, [r3, #12]
 206 00ac 002B     		cmp	r3, #0
 207 00ae 07D0     		beq	.L8
 208              		.loc 1 71 0 discriminator 5
 209 00b0 0F4B     		ldr	r3, .L12
 210 00b2 9968     		ldr	r1, [r3, #8]
 211              	.LVL23:
 212              	.LBB155:
 213              	.LBB156:
 214              		.loc 2 72 0 is_stmt 1 discriminator 5
 215 00b4 8468     		ldr	r4, [r0, #8]
 216 00b6 0122     		mov	r2, #1
 217 00b8 0E4B     		ldr	r3, .L12+4
 218              	.LVL24:
 219 00ba A047     		blx	r4
 220              	.LVL25:
 221              	.LBE156:
 222              	.LBE155:
 223              		.loc 1 71 0 discriminator 5
 224 00bc 0128     		cmp	r0, #1
 225 00be 11D1     		bne	.L11
 226              	.LVL26:
 227              	.L8:
 228              		.loc 1 71 0 is_stmt 0 discriminator 8
 229 00c0 0022     		mov	r2, #0
 230 00c2 0B4B     		ldr	r3, .L12
 231 00c4 1A73     		strb	r2, [r3, #12]
 232              	.L7:
 233              		.loc 1 71 0 discriminator 9
 234 00c6 2A68     		ldr	r2, [r5]
 235 00c8 094B     		ldr	r3, .L12
 236 00ca 5A60     		str	r2, [r3, #4]
 237 00cc 4246     		mov	r2, r8
 238 00ce 9A60     		str	r2, [r3, #8]
 239 00d0 0122     		mov	r2, #1
 240 00d2 1A73     		strb	r2, [r3, #12]
  72:.\write.c     **** 
  73:.\write.c     **** 	return 0;
 241              		.loc 1 73 0 is_stmt 1 discriminator 9
 242 00d4 0020     		mov	r0, #0
 243 00d6 07E0     		b	.L5
 244              	.LVL27:
 245              	.L9:
  64:.\write.c     **** 
 246              		.loc 1 64 0
 247 00d8 0520     		mov	r0, #5
 248 00da 4042     		neg	r0, r0
 249 00dc 04E0     		b	.L5
 250              	.LVL28:
 251              	.L10:
 252 00de 0520     		mov	r0, #5
 253 00e0 4042     		neg	r0, r0
 254 00e2 01E0     		b	.L5
 255              	.LVL29:
ARM GAS  C:\Users\Petro\AppData\Local\Temp\ccPFwMgj.s 			page 9


 256              	.L11:
  71:.\write.c     **** 
 257              		.loc 1 71 0
 258 00e4 0520     		mov	r0, #5
 259 00e6 4042     		neg	r0, r0
 260              	.LVL30:
 261              	.L5:
  74:.\write.c     **** }
 262              		.loc 1 74 0
 263              		@ sp needed
 264              	.LVL31:
 265              	.LVL32:
 266              	.LVL33:
 267 00e8 0CBC     		pop	{r2, r3}
 268 00ea 9046     		mov	r8, r2
 269 00ec 9946     		mov	r9, r3
 270 00ee F8BD     		pop	{r3, r4, r5, r6, r7, pc}
 271              	.L13:
 272              		.align	2
 273              	.L12:
 274 00f0 00000000 		.word	_fat_cache
 275 00f4 00000000 		.word	_fat_sector_buf
 276              		.cfi_endproc
 277              	.LFE18:
 278              		.size	fat32_set_next_cluster, .-fat32_set_next_cluster
 279              		.section	.text.fat16_set_next_cluster,"ax",%progbits
 280              		.align	2
 281              		.code	16
 282              		.thumb_func
 283              		.type	fat16_set_next_cluster, %function
 284              	fat16_set_next_cluster:
 285              	.LFB19:
  75:.\write.c     **** 
  76:.\write.c     **** static int 
  77:.\write.c     **** fat16_set_next_cluster(const struct fat_vol_handle *h, uint8_t fat,
  78:.\write.c     **** 			uint16_t cluster, uint16_t next)
  79:.\write.c     **** {
 286              		.loc 1 79 0
 287              		.cfi_startproc
 288              	.LVL34:
 289 0000 F0B5     		push	{r4, r5, r6, r7, lr}
 290              		.cfi_def_cfa_offset 20
 291              		.cfi_offset 4, -20
 292              		.cfi_offset 5, -16
 293              		.cfi_offset 6, -12
 294              		.cfi_offset 7, -8
 295              		.cfi_offset 14, -4
 296 0002 4746     		mov	r7, r8
 297 0004 80B4     		push	{r7}
 298              		.cfi_def_cfa_offset 24
 299              		.cfi_offset 8, -24
 300 0006 041C     		mov	r4, r0
 301 0008 9846     		mov	r8, r3
  80:.\write.c     **** 	uint32_t offset = cluster * 2;
 302              		.loc 1 80 0
 303 000a 5600     		lsl	r6, r2, #1
 304              	.LVL35:
ARM GAS  C:\Users\Petro\AppData\Local\Temp\ccPFwMgj.s 			page 10


  81:.\write.c     **** 	uint32_t sector;
  82:.\write.c     **** 
  83:.\write.c     **** 	sector = h->reserved_sector_count + (fat * h->fat_size) + 
 305              		.loc 1 83 0
 306 000c 8389     		ldrh	r3, [r0, #12]
 307              	.LVL36:
 308 000e 8269     		ldr	r2, [r0, #24]
 309              	.LVL37:
 310 0010 5143     		mul	r1, r2
 311              	.LVL38:
 312 0012 5D18     		add	r5, r3, r1
  84:.\write.c     **** 		(offset / h->bytes_per_sector);
 313              		.loc 1 84 0
 314 0014 0789     		ldrh	r7, [r0, #8]
 315 0016 301C     		mov	r0, r6
 316              	.LVL39:
 317 0018 391C     		mov	r1, r7
 318 001a FFF7FEFF 		bl	__aeabi_uidiv
 319              	.LVL40:
  83:.\write.c     **** 		(offset / h->bytes_per_sector);
 320              		.loc 1 83 0
 321 001e 2D18     		add	r5, r5, r0
 322              	.LVL41:
  85:.\write.c     **** 	offset %= h->bytes_per_sector;
 323              		.loc 1 85 0
 324 0020 301C     		mov	r0, r6
 325 0022 391C     		mov	r1, r7
 326 0024 FFF7FEFF 		bl	__aeabi_uidivmod
 327              	.LVL42:
 328 0028 0E1C     		mov	r6, r1
 329              	.LVL43:
  86:.\write.c     **** 
  87:.\write.c     **** 	FAT_GET_SECTOR(h, sector);
 330              		.loc 1 87 0
 331 002a 2A4B     		ldr	r3, .L25
 332 002c 5868     		ldr	r0, [r3, #4]
 333 002e 2368     		ldr	r3, [r4]
 334 0030 9842     		cmp	r0, r3
 335 0032 03D1     		bne	.L15
 336              		.loc 1 87 0 is_stmt 0 discriminator 1
 337 0034 274B     		ldr	r3, .L25
 338 0036 9B68     		ldr	r3, [r3, #8]
 339 0038 AB42     		cmp	r3, r5
 340 003a 19D0     		beq	.L16
 341              	.L15:
 342              		.loc 1 87 0 discriminator 3
 343 003c 254B     		ldr	r3, .L25
 344 003e 1B7B     		ldrb	r3, [r3, #12]
 345 0040 002B     		cmp	r3, #0
 346 0042 07D0     		beq	.L17
 347              		.loc 1 87 0 discriminator 4
 348 0044 234B     		ldr	r3, .L25
 349 0046 9968     		ldr	r1, [r3, #8]
 350              	.LVL44:
 351              	.LBB157:
 352              	.LBB158:
 353              		.loc 2 72 0 is_stmt 1 discriminator 4
ARM GAS  C:\Users\Petro\AppData\Local\Temp\ccPFwMgj.s 			page 11


 354 0048 8768     		ldr	r7, [r0, #8]
 355 004a 0122     		mov	r2, #1
 356 004c 224B     		ldr	r3, .L25+4
 357 004e B847     		blx	r7
 358              	.LVL45:
 359              	.LBE158:
 360              	.LBE157:
 361              		.loc 1 87 0 discriminator 4
 362 0050 0128     		cmp	r0, #1
 363 0052 34D1     		bne	.L22
 364              	.LVL46:
 365              	.L17:
 366              		.loc 1 87 0 is_stmt 0 discriminator 7
 367 0054 1F4B     		ldr	r3, .L25
 368 0056 0022     		mov	r2, #0
 369 0058 1A73     		strb	r2, [r3, #12]
 370 005a 2268     		ldr	r2, [r4]
 371 005c 5A60     		str	r2, [r3, #4]
 372 005e 9D60     		str	r5, [r3, #8]
 373 0060 2068     		ldr	r0, [r4]
 374              	.LVL47:
 375              	.LBB159:
 376              	.LBB160:
  64:.\openfat/blockdev.h **** }
 377              		.loc 2 64 0 is_stmt 1 discriminator 7
 378 0062 4768     		ldr	r7, [r0, #4]
 379 0064 291C     		mov	r1, r5
 380 0066 0122     		mov	r2, #1
 381 0068 1B4B     		ldr	r3, .L25+4
 382              	.LVL48:
 383 006a B847     		blx	r7
 384              	.LVL49:
 385              	.LBE160:
 386              	.LBE159:
 387              		.loc 1 87 0 discriminator 7
 388 006c 0128     		cmp	r0, #1
 389 006e 29D1     		bne	.L23
 390              	.LVL50:
 391              	.L16:
  88:.\write.c     **** 	__put_le16((uint16_t*)(_fat_sector_buf + offset), next);
 392              		.loc 1 88 0
 393 0070 1949     		ldr	r1, .L25+4
 394 0072 7118     		add	r1, r6, r1
 395              	.LVL51:
 396              	.LBB161:
 397              	.LBB162:
  38:.\openfat/leaccess.h **** 	*((uint8_t *)p + 1) = v >> 8;
 398              		.loc 3 38 0
 399 0074 4346     		mov	r3, r8
 400 0076 0B70     		strb	r3, [r1]
  39:.\openfat/leaccess.h **** }
 401              		.loc 3 39 0
 402 0078 4346     		mov	r3, r8
 403 007a 1B0A     		lsr	r3, r3, #8
 404 007c 4B70     		strb	r3, [r1, #1]
 405              	.LBE162:
 406              	.LBE161:
ARM GAS  C:\Users\Petro\AppData\Local\Temp\ccPFwMgj.s 			page 12


  89:.\write.c     **** 	FAT_PUT_SECTOR(h, sector);
 407              		.loc 1 89 0
 408 007e 154B     		ldr	r3, .L25
 409 0080 5868     		ldr	r0, [r3, #4]
 410 0082 2368     		ldr	r3, [r4]
 411 0084 9842     		cmp	r0, r3
 412 0086 03D1     		bne	.L19
 413              		.loc 1 89 0 is_stmt 0 discriminator 2
 414 0088 124B     		ldr	r3, .L25
 415 008a 9B68     		ldr	r3, [r3, #8]
 416 008c AB42     		cmp	r3, r5
 417 008e 0ED0     		beq	.L20
 418              	.L19:
 419              		.loc 1 89 0 discriminator 3
 420 0090 104B     		ldr	r3, .L25
 421 0092 1B7B     		ldrb	r3, [r3, #12]
 422 0094 002B     		cmp	r3, #0
 423 0096 07D0     		beq	.L21
 424              		.loc 1 89 0 discriminator 5
 425 0098 0E4B     		ldr	r3, .L25
 426 009a 9968     		ldr	r1, [r3, #8]
 427              	.LVL52:
 428              	.LBB163:
 429              	.LBB164:
 430              		.loc 2 72 0 is_stmt 1 discriminator 5
 431 009c 8668     		ldr	r6, [r0, #8]
 432              	.LVL53:
 433 009e 0122     		mov	r2, #1
 434 00a0 0D4B     		ldr	r3, .L25+4
 435 00a2 B047     		blx	r6
 436              	.LVL54:
 437              	.LBE164:
 438              	.LBE163:
 439              		.loc 1 89 0 discriminator 5
 440 00a4 0128     		cmp	r0, #1
 441 00a6 10D1     		bne	.L24
 442              	.LVL55:
 443              	.L21:
 444              		.loc 1 89 0 is_stmt 0 discriminator 8
 445 00a8 0022     		mov	r2, #0
 446 00aa 0A4B     		ldr	r3, .L25
 447 00ac 1A73     		strb	r2, [r3, #12]
 448              	.L20:
 449              		.loc 1 89 0 discriminator 9
 450 00ae 2268     		ldr	r2, [r4]
 451 00b0 084B     		ldr	r3, .L25
 452 00b2 5A60     		str	r2, [r3, #4]
 453 00b4 9D60     		str	r5, [r3, #8]
 454 00b6 0122     		mov	r2, #1
 455 00b8 1A73     		strb	r2, [r3, #12]
  90:.\write.c     **** 
  91:.\write.c     **** 	return 0;
 456              		.loc 1 91 0 is_stmt 1 discriminator 9
 457 00ba 0020     		mov	r0, #0
 458 00bc 07E0     		b	.L18
 459              	.LVL56:
 460              	.L22:
ARM GAS  C:\Users\Petro\AppData\Local\Temp\ccPFwMgj.s 			page 13


  87:.\write.c     **** 	__put_le16((uint16_t*)(_fat_sector_buf + offset), next);
 461              		.loc 1 87 0
 462 00be 0520     		mov	r0, #5
 463 00c0 4042     		neg	r0, r0
 464 00c2 04E0     		b	.L18
 465              	.LVL57:
 466              	.L23:
 467 00c4 0520     		mov	r0, #5
 468 00c6 4042     		neg	r0, r0
 469 00c8 01E0     		b	.L18
 470              	.LVL58:
 471              	.L24:
  89:.\write.c     **** 	FAT_PUT_SECTOR(h, sector);
 472              		.loc 1 89 0
 473 00ca 0520     		mov	r0, #5
 474 00cc 4042     		neg	r0, r0
 475              	.LVL59:
 476              	.L18:
  92:.\write.c     **** }
 477              		.loc 1 92 0
 478              		@ sp needed
 479              	.LVL60:
 480              	.LVL61:
 481 00ce 04BC     		pop	{r2}
 482 00d0 9046     		mov	r8, r2
 483 00d2 F0BD     		pop	{r4, r5, r6, r7, pc}
 484              	.L26:
 485              		.align	2
 486              	.L25:
 487 00d4 00000000 		.word	_fat_cache
 488 00d8 00000000 		.word	_fat_sector_buf
 489              		.cfi_endproc
 490              	.LFE19:
 491              		.size	fat16_set_next_cluster, .-fat16_set_next_cluster
 492              		.section	.text.fat12_set_next_cluster,"ax",%progbits
 493              		.align	2
 494              		.code	16
 495              		.thumb_func
 496              		.type	fat12_set_next_cluster, %function
 497              	fat12_set_next_cluster:
 498              	.LFB20:
  93:.\write.c     **** 
  94:.\write.c     **** static int 
  95:.\write.c     **** fat12_set_next_cluster(const struct fat_vol_handle *h, uint8_t fat,
  96:.\write.c     **** 			uint16_t cluster, uint16_t next)
  97:.\write.c     **** {
 499              		.loc 1 97 0
 500              		.cfi_startproc
 501              	.LVL62:
 502 0000 F8B5     		push	{r3, r4, r5, r6, r7, lr}
 503              		.cfi_def_cfa_offset 24
 504              		.cfi_offset 3, -24
 505              		.cfi_offset 4, -20
 506              		.cfi_offset 5, -16
 507              		.cfi_offset 6, -12
 508              		.cfi_offset 7, -8
 509              		.cfi_offset 14, -4
ARM GAS  C:\Users\Petro\AppData\Local\Temp\ccPFwMgj.s 			page 14


 510 0002 4F46     		mov	r7, r9
 511 0004 4646     		mov	r6, r8
 512 0006 C0B4     		push	{r6, r7}
 513              		.cfi_def_cfa_offset 32
 514              		.cfi_offset 8, -32
 515              		.cfi_offset 9, -28
 516 0008 041C     		mov	r4, r0
 517 000a 151C     		mov	r5, r2
 518 000c 9946     		mov	r9, r3
  98:.\write.c     **** 	uint32_t offset = cluster + (cluster / 2);
 519              		.loc 1 98 0
 520 000e 5608     		lsr	r6, r2, #1
 521 0010 9619     		add	r6, r2, r6
 522              	.LVL63:
  99:.\write.c     **** 	uint32_t sector;
 100:.\write.c     **** 	sector = h->reserved_sector_count + (fat * h->fat_size) + 
 523              		.loc 1 100 0
 524 0012 8389     		ldrh	r3, [r0, #12]
 525              	.LVL64:
 526 0014 8269     		ldr	r2, [r0, #24]
 527              	.LVL65:
 528 0016 5143     		mul	r1, r2
 529              	.LVL66:
 530 0018 9846     		mov	r8, r3
 531 001a 8844     		add	r8, r8, r1
 101:.\write.c     **** 		(offset / h->bytes_per_sector);
 532              		.loc 1 101 0
 533 001c 0789     		ldrh	r7, [r0, #8]
 534 001e 301C     		mov	r0, r6
 535              	.LVL67:
 536 0020 391C     		mov	r1, r7
 537 0022 FFF7FEFF 		bl	__aeabi_uidiv
 538              	.LVL68:
 100:.\write.c     **** 		(offset / h->bytes_per_sector);
 539              		.loc 1 100 0
 540 0026 8044     		add	r8, r8, r0
 541              	.LVL69:
 102:.\write.c     **** 	offset %= h->bytes_per_sector;
 542              		.loc 1 102 0
 543 0028 301C     		mov	r0, r6
 544 002a 391C     		mov	r1, r7
 545 002c FFF7FEFF 		bl	__aeabi_uidivmod
 546              	.LVL70:
 547 0030 0E1C     		mov	r6, r1
 548              	.LVL71:
 103:.\write.c     **** 
 104:.\write.c     **** 	FAT_GET_SECTOR(h, sector);
 549              		.loc 1 104 0
 550 0032 8D4B     		ldr	r3, .L59
 551 0034 5868     		ldr	r0, [r3, #4]
 552 0036 2368     		ldr	r3, [r4]
 553 0038 9842     		cmp	r0, r3
 554 003a 03D1     		bne	.L28
 555              		.loc 1 104 0 is_stmt 0 discriminator 1
 556 003c 8A4B     		ldr	r3, .L59
 557 003e 9B68     		ldr	r3, [r3, #8]
 558 0040 4345     		cmp	r3, r8
ARM GAS  C:\Users\Petro\AppData\Local\Temp\ccPFwMgj.s 			page 15


 559 0042 1CD0     		beq	.L29
 560              	.L28:
 561              		.loc 1 104 0 discriminator 3
 562 0044 884B     		ldr	r3, .L59
 563 0046 1B7B     		ldrb	r3, [r3, #12]
 564 0048 002B     		cmp	r3, #0
 565 004a 08D0     		beq	.L30
 566              		.loc 1 104 0 discriminator 4
 567 004c 864B     		ldr	r3, .L59
 568 004e 9968     		ldr	r1, [r3, #8]
 569              	.LVL72:
 570              	.LBB165:
 571              	.LBB166:
 572              		.loc 2 72 0 is_stmt 1 discriminator 4
 573 0050 8768     		ldr	r7, [r0, #8]
 574 0052 0122     		mov	r2, #1
 575 0054 854B     		ldr	r3, .L59+4
 576 0056 B847     		blx	r7
 577              	.LVL73:
 578              	.LBE166:
 579              	.LBE165:
 580              		.loc 1 104 0 discriminator 4
 581 0058 0128     		cmp	r0, #1
 582 005a 00D0     		beq	.LCB723
 583 005c E6E0     		b	.L50	@long jump
 584              	.LCB723:
 585              	.LVL74:
 586              	.L30:
 587              		.loc 1 104 0 is_stmt 0 discriminator 7
 588 005e 824B     		ldr	r3, .L59
 589 0060 0022     		mov	r2, #0
 590 0062 1A73     		strb	r2, [r3, #12]
 591 0064 2268     		ldr	r2, [r4]
 592 0066 5A60     		str	r2, [r3, #4]
 593 0068 4246     		mov	r2, r8
 594 006a 9A60     		str	r2, [r3, #8]
 595 006c 2068     		ldr	r0, [r4]
 596              	.LVL75:
 597              	.LBB167:
 598              	.LBB168:
  64:.\openfat/blockdev.h **** }
 599              		.loc 2 64 0 is_stmt 1 discriminator 7
 600 006e 4768     		ldr	r7, [r0, #4]
 601 0070 4146     		mov	r1, r8
 602 0072 0122     		mov	r2, #1
 603              	.LVL76:
 604 0074 7D4B     		ldr	r3, .L59+4
 605 0076 B847     		blx	r7
 606              	.LVL77:
 607              	.LBE168:
 608              	.LBE167:
 609              		.loc 1 104 0 discriminator 7
 610 0078 0128     		cmp	r0, #1
 611 007a 00D0     		beq	.LCB756
 612 007c D9E0     		b	.L51	@long jump
 613              	.LCB756:
 614              	.LVL78:
ARM GAS  C:\Users\Petro\AppData\Local\Temp\ccPFwMgj.s 			page 16


 615              	.L29:
 105:.\write.c     **** 	if(offset == (uint32_t)h->bytes_per_sector - 1) {
 616              		.loc 1 105 0
 617 007e 2389     		ldrh	r3, [r4, #8]
 618 0080 013B     		sub	r3, r3, #1
 619 0082 B342     		cmp	r3, r6
 620 0084 00D0     		beq	.LCB767
 621 0086 96E0     		b	.L32	@long jump
 622              	.LCB767:
 106:.\write.c     **** 		if(cluster & 1) {
 623              		.loc 1 106 0
 624 0088 EB07     		lsl	r3, r5, #31
 625 008a 4BD5     		bpl	.L33
 107:.\write.c     **** 			next <<= 4;
 626              		.loc 1 107 0
 627 008c 4B46     		mov	r3, r9
 628 008e 1D01     		lsl	r5, r3, #4
 629 0090 ADB2     		uxth	r5, r5
 630              	.LVL79:
 108:.\write.c     **** 			_fat_sector_buf[offset] &= 0x0F;
 631              		.loc 1 108 0
 632 0092 764A     		ldr	r2, .L59+4
 633 0094 935D     		ldrb	r3, [r2, r6]
 634 0096 0F21     		mov	r1, #15
 635 0098 0B40     		and	r3, r1
 109:.\write.c     **** 			_fat_sector_buf[offset] |= next & 0xF0;
 636              		.loc 1 109 0
 637 009a 2B43     		orr	r3, r5
 638 009c 9355     		strb	r3, [r2, r6]
 110:.\write.c     **** 			FAT_PUT_SECTOR(h, sector);
 639              		.loc 1 110 0
 640 009e 724B     		ldr	r3, .L59
 641 00a0 5868     		ldr	r0, [r3, #4]
 642 00a2 2368     		ldr	r3, [r4]
 643 00a4 9842     		cmp	r0, r3
 644 00a6 03D1     		bne	.L34
 645              		.loc 1 110 0 is_stmt 0 discriminator 2
 646 00a8 6F4B     		ldr	r3, .L59
 647 00aa 9B68     		ldr	r3, [r3, #8]
 648 00ac 4345     		cmp	r3, r8
 649 00ae 0FD0     		beq	.L35
 650              	.L34:
 651              		.loc 1 110 0 discriminator 3
 652 00b0 6D4B     		ldr	r3, .L59
 653 00b2 1B7B     		ldrb	r3, [r3, #12]
 654 00b4 002B     		cmp	r3, #0
 655 00b6 08D0     		beq	.L36
 656              		.loc 1 110 0 discriminator 5
 657 00b8 6B4B     		ldr	r3, .L59
 658 00ba 9968     		ldr	r1, [r3, #8]
 659              	.LVL80:
 660              	.LBB169:
 661              	.LBB170:
 662              		.loc 2 72 0 is_stmt 1 discriminator 5
 663 00bc 8668     		ldr	r6, [r0, #8]
 664              	.LVL81:
 665 00be 0122     		mov	r2, #1
ARM GAS  C:\Users\Petro\AppData\Local\Temp\ccPFwMgj.s 			page 17


 666 00c0 6A4B     		ldr	r3, .L59+4
 667 00c2 B047     		blx	r6
 668              	.LVL82:
 669              	.LBE170:
 670              	.LBE169:
 671              		.loc 1 110 0 discriminator 5
 672 00c4 0128     		cmp	r0, #1
 673 00c6 00D0     		beq	.LCB820
 674 00c8 B6E0     		b	.L52	@long jump
 675              	.LCB820:
 676              	.LVL83:
 677              	.L36:
 678              		.loc 1 110 0 is_stmt 0 discriminator 8
 679 00ca 0022     		mov	r2, #0
 680 00cc 664B     		ldr	r3, .L59
 681 00ce 1A73     		strb	r2, [r3, #12]
 682              	.L35:
 683              		.loc 1 110 0 discriminator 9
 684 00d0 2068     		ldr	r0, [r4]
 685 00d2 654B     		ldr	r3, .L59
 686 00d4 5860     		str	r0, [r3, #4]
 687 00d6 4246     		mov	r2, r8
 688 00d8 9A60     		str	r2, [r3, #8]
 689 00da 0122     		mov	r2, #1
 690 00dc 1A73     		strb	r2, [r3, #12]
 111:.\write.c     **** 			sector++;
 691              		.loc 1 111 0 is_stmt 1 discriminator 9
 692 00de 4346     		mov	r3, r8
 693 00e0 5E1C     		add	r6, r3, #1
 694              	.LVL84:
 112:.\write.c     **** 			FAT_GET_SECTOR(h, sector);
 695              		.loc 1 112 0 discriminator 9
 696 00e2 2368     		ldr	r3, [r4]
 697 00e4 9842     		cmp	r0, r3
 698 00e6 01D1     		bne	.L37
 699              		.loc 1 112 0 is_stmt 0 discriminator 1
 700 00e8 B045     		cmp	r8, r6
 701 00ea 16D0     		beq	.L38
 702              	.L37:
 703              	.LVL85:
 704              	.LBB171:
 705              	.LBB172:
 706              		.loc 2 72 0 is_stmt 1 discriminator 3
 707 00ec 8768     		ldr	r7, [r0, #8]
 708 00ee 4146     		mov	r1, r8
 709 00f0 0122     		mov	r2, #1
 710 00f2 5E4B     		ldr	r3, .L59+4
 711 00f4 B847     		blx	r7
 712              	.LVL86:
 713              	.LBE172:
 714              	.LBE171:
 715              		.loc 1 112 0 discriminator 3
 716 00f6 0128     		cmp	r0, #1
 717 00f8 00D0     		beq	.LCB864
 718 00fa A0E0     		b	.L53	@long jump
 719              	.LCB864:
 720              		.loc 1 112 0 is_stmt 0 discriminator 7
ARM GAS  C:\Users\Petro\AppData\Local\Temp\ccPFwMgj.s 			page 18


 721 00fc 5A4B     		ldr	r3, .L59
 722 00fe 0022     		mov	r2, #0
 723 0100 1A73     		strb	r2, [r3, #12]
 724 0102 2268     		ldr	r2, [r4]
 725 0104 5A60     		str	r2, [r3, #4]
 726 0106 9E60     		str	r6, [r3, #8]
 727 0108 2068     		ldr	r0, [r4]
 728              	.LVL87:
 729              	.LBB173:
 730              	.LBB174:
  64:.\openfat/blockdev.h **** }
 731              		.loc 2 64 0 is_stmt 1 discriminator 7
 732 010a 4768     		ldr	r7, [r0, #4]
 733 010c 311C     		mov	r1, r6
 734 010e 0122     		mov	r2, #1
 735 0110 564B     		ldr	r3, .L59+4
 736              	.LVL88:
 737 0112 B847     		blx	r7
 738              	.LVL89:
 739              	.LBE174:
 740              	.LBE173:
 741              		.loc 1 112 0 discriminator 7
 742 0114 0128     		cmp	r0, #1
 743 0116 00D0     		beq	.LCB891
 744 0118 94E0     		b	.L54	@long jump
 745              	.LCB891:
 746              	.LVL90:
 747              	.L38:
 113:.\write.c     **** 			_fat_sector_buf[0] = next >> 8;
 748              		.loc 1 113 0
 749 011a 2D0A     		lsr	r5, r5, #8
 750              	.LVL91:
 751 011c 534B     		ldr	r3, .L59+4
 752 011e 1D70     		strb	r5, [r3]
 111:.\write.c     **** 			FAT_GET_SECTOR(h, sector);
 753              		.loc 1 111 0
 754 0120 B046     		mov	r8, r6
 755 0122 62E0     		b	.L39
 756              	.LVL92:
 757              	.L33:
 114:.\write.c     **** 		} else {
 115:.\write.c     **** 			_fat_sector_buf[offset] = next & 0xFF;
 758              		.loc 1 115 0
 759 0124 514B     		ldr	r3, .L59+4
 760 0126 4A46     		mov	r2, r9
 761 0128 9A55     		strb	r2, [r3, r6]
 116:.\write.c     **** 			FAT_PUT_SECTOR(h, sector);
 762              		.loc 1 116 0
 763 012a 4F4B     		ldr	r3, .L59
 764 012c 5868     		ldr	r0, [r3, #4]
 765 012e 2368     		ldr	r3, [r4]
 766 0130 9842     		cmp	r0, r3
 767 0132 03D1     		bne	.L40
 768              		.loc 1 116 0 is_stmt 0 discriminator 2
 769 0134 4C4B     		ldr	r3, .L59
 770 0136 9B68     		ldr	r3, [r3, #8]
 771 0138 4345     		cmp	r3, r8
ARM GAS  C:\Users\Petro\AppData\Local\Temp\ccPFwMgj.s 			page 19


 772 013a 0ED0     		beq	.L41
 773              	.L40:
 774              		.loc 1 116 0 discriminator 3
 775 013c 4A4B     		ldr	r3, .L59
 776 013e 1B7B     		ldrb	r3, [r3, #12]
 777 0140 002B     		cmp	r3, #0
 778 0142 07D0     		beq	.L42
 779              		.loc 1 116 0 discriminator 5
 780 0144 484B     		ldr	r3, .L59
 781 0146 9968     		ldr	r1, [r3, #8]
 782              	.LVL93:
 783              	.LBB175:
 784              	.LBB176:
 785              		.loc 2 72 0 is_stmt 1 discriminator 5
 786 0148 8668     		ldr	r6, [r0, #8]
 787              	.LVL94:
 788 014a 0122     		mov	r2, #1
 789 014c 474B     		ldr	r3, .L59+4
 790 014e B047     		blx	r6
 791              	.LVL95:
 792              	.LBE176:
 793              	.LBE175:
 794              		.loc 1 116 0 discriminator 5
 795 0150 0128     		cmp	r0, #1
 796 0152 7AD1     		bne	.L55
 797              	.LVL96:
 798              	.L42:
 799              		.loc 1 116 0 is_stmt 0 discriminator 8
 800 0154 0022     		mov	r2, #0
 801 0156 444B     		ldr	r3, .L59
 802 0158 1A73     		strb	r2, [r3, #12]
 803              	.L41:
 804              		.loc 1 116 0 discriminator 9
 805 015a 2068     		ldr	r0, [r4]
 806 015c 424B     		ldr	r3, .L59
 807 015e 5860     		str	r0, [r3, #4]
 808 0160 4246     		mov	r2, r8
 809 0162 9A60     		str	r2, [r3, #8]
 810 0164 0122     		mov	r2, #1
 811 0166 1A73     		strb	r2, [r3, #12]
 117:.\write.c     **** 			sector++;
 812              		.loc 1 117 0 is_stmt 1 discriminator 9
 813 0168 4346     		mov	r3, r8
 814 016a 5E1C     		add	r6, r3, #1
 815              	.LVL97:
 118:.\write.c     **** 			FAT_GET_SECTOR(h, sector);
 816              		.loc 1 118 0 discriminator 9
 817 016c 2368     		ldr	r3, [r4]
 818 016e 9842     		cmp	r0, r3
 819 0170 01D1     		bne	.L43
 820              		.loc 1 118 0 is_stmt 0 discriminator 1
 821 0172 B045     		cmp	r8, r6
 822 0174 14D0     		beq	.L44
 823              	.L43:
 824              	.LVL98:
 825              	.LBB177:
 826              	.LBB178:
ARM GAS  C:\Users\Petro\AppData\Local\Temp\ccPFwMgj.s 			page 20


 827              		.loc 2 72 0 is_stmt 1 discriminator 3
 828 0176 8768     		ldr	r7, [r0, #8]
 829 0178 4146     		mov	r1, r8
 830 017a 0122     		mov	r2, #1
 831 017c 3B4B     		ldr	r3, .L59+4
 832 017e B847     		blx	r7
 833              	.LVL99:
 834              	.LBE178:
 835              	.LBE177:
 836              		.loc 1 118 0 discriminator 3
 837 0180 0128     		cmp	r0, #1
 838 0182 65D1     		bne	.L56
 839              		.loc 1 118 0 is_stmt 0 discriminator 7
 840 0184 384B     		ldr	r3, .L59
 841 0186 0022     		mov	r2, #0
 842 0188 1A73     		strb	r2, [r3, #12]
 843 018a 2268     		ldr	r2, [r4]
 844 018c 5A60     		str	r2, [r3, #4]
 845 018e 9E60     		str	r6, [r3, #8]
 846 0190 2068     		ldr	r0, [r4]
 847              	.LVL100:
 848              	.LBB179:
 849              	.LBB180:
  64:.\openfat/blockdev.h **** }
 850              		.loc 2 64 0 is_stmt 1 discriminator 7
 851 0192 4768     		ldr	r7, [r0, #4]
 852 0194 311C     		mov	r1, r6
 853 0196 0122     		mov	r2, #1
 854 0198 344B     		ldr	r3, .L59+4
 855              	.LVL101:
 856 019a B847     		blx	r7
 857              	.LVL102:
 858              	.LBE180:
 859              	.LBE179:
 860              		.loc 1 118 0 discriminator 7
 861 019c 0128     		cmp	r0, #1
 862 019e 5AD1     		bne	.L57
 863              	.LVL103:
 864              	.L44:
 119:.\write.c     **** 			_fat_sector_buf[0] &= 0xF0;
 865              		.loc 1 119 0
 866 01a0 324A     		ldr	r2, .L59+4
 867 01a2 1378     		ldrb	r3, [r2]
 868 01a4 0F21     		mov	r1, #15
 869 01a6 8B43     		bic	r3, r1
 120:.\write.c     **** 			_fat_sector_buf[0] |= (next >> 8) & 0x0F;
 870              		.loc 1 120 0
 871 01a8 4946     		mov	r1, r9
 872 01aa 0D05     		lsl	r5, r1, #20
 873 01ac 2D0F     		lsr	r5, r5, #28
 874 01ae 1D43     		orr	r5, r3
 875 01b0 1570     		strb	r5, [r2]
 117:.\write.c     **** 			FAT_GET_SECTOR(h, sector);
 876              		.loc 1 117 0
 877 01b2 B046     		mov	r8, r6
 878 01b4 19E0     		b	.L39
 879              	.LVL104:
ARM GAS  C:\Users\Petro\AppData\Local\Temp\ccPFwMgj.s 			page 21


 880              	.L32:
 121:.\write.c     **** 		}
 122:.\write.c     **** 	} else {
 123:.\write.c     **** 		if(cluster & 1) {
 881              		.loc 1 123 0
 882 01b6 EB07     		lsl	r3, r5, #31
 883 01b8 08D5     		bpl	.L45
 124:.\write.c     **** 			next <<= 4;
 884              		.loc 1 124 0
 885 01ba 4B46     		mov	r3, r9
 886 01bc 1D01     		lsl	r5, r3, #4
 887 01be ABB2     		uxth	r3, r5
 888              	.LVL105:
 889              	.LBB181:
 890              	.LBB182:
  33:.\openfat/leaccess.h **** }
 891              		.loc 3 33 0
 892 01c0 2A4A     		ldr	r2, .L59+4
 893 01c2 925D     		ldrb	r2, [r2, r6]
 894              	.LBE182:
 895              	.LBE181:
 125:.\write.c     **** 			next |= __get_le16((uint16_t*)(_fat_sector_buf + offset)) & 0xF;
 896              		.loc 1 125 0
 897 01c4 0F25     		mov	r5, #15
 898 01c6 1540     		and	r5, r2
 899 01c8 1D43     		orr	r5, r3
 900              	.LVL106:
 901 01ca 09E0     		b	.L46
 902              	.LVL107:
 903              	.L45:
 126:.\write.c     **** 		} else {
 127:.\write.c     **** 			next &= 0x0FFF;
 904              		.loc 1 127 0
 905 01cc 4B46     		mov	r3, r9
 906 01ce 1D05     		lsl	r5, r3, #20
 907 01d0 2D0D     		lsr	r5, r5, #20
 908              	.LVL108:
 128:.\write.c     **** 			next |= __get_le16((uint16_t*)(_fat_sector_buf + offset)) & 0xF000;
 909              		.loc 1 128 0
 910 01d2 264B     		ldr	r3, .L59+4
 911 01d4 F318     		add	r3, r6, r3
 912              	.LVL109:
 913              	.LBB183:
 914              	.LBB184:
  33:.\openfat/leaccess.h **** }
 915              		.loc 3 33 0
 916 01d6 5B78     		ldrb	r3, [r3, #1]
 917              	.LVL110:
 918              	.LBE184:
 919              	.LBE183:
 920              		.loc 1 128 0
 921 01d8 1B09     		lsr	r3, r3, #4
 922 01da 1B03     		lsl	r3, r3, #12
 923 01dc 9BB2     		uxth	r3, r3
 924 01de 1D43     		orr	r5, r3
 925              	.LVL111:
 926              	.L46:
ARM GAS  C:\Users\Petro\AppData\Local\Temp\ccPFwMgj.s 			page 22


 129:.\write.c     **** 		}
 130:.\write.c     **** 		__put_le16((uint16_t*)(_fat_sector_buf + offset), next);
 927              		.loc 1 130 0
 928 01e0 224B     		ldr	r3, .L59+4
 929 01e2 F618     		add	r6, r6, r3
 930              	.LVL112:
 931              	.LBB185:
 932              	.LBB186:
  38:.\openfat/leaccess.h **** 	*((uint8_t *)p + 1) = v >> 8;
 933              		.loc 3 38 0
 934 01e4 3570     		strb	r5, [r6]
  39:.\openfat/leaccess.h **** }
 935              		.loc 3 39 0
 936 01e6 2D0A     		lsr	r5, r5, #8
 937              	.LVL113:
 938 01e8 7570     		strb	r5, [r6, #1]
 939              	.LVL114:
 940              	.L39:
 941              	.LBE186:
 942              	.LBE185:
 131:.\write.c     **** 	}
 132:.\write.c     **** 	FAT_PUT_SECTOR(h, sector);
 943              		.loc 1 132 0
 944 01ea 1F4B     		ldr	r3, .L59
 945 01ec 5868     		ldr	r0, [r3, #4]
 946 01ee 2368     		ldr	r3, [r4]
 947 01f0 9842     		cmp	r0, r3
 948 01f2 03D1     		bne	.L47
 949              		.loc 1 132 0 is_stmt 0 discriminator 2
 950 01f4 1C4B     		ldr	r3, .L59
 951 01f6 9B68     		ldr	r3, [r3, #8]
 952 01f8 4345     		cmp	r3, r8
 953 01fa 0ED0     		beq	.L48
 954              	.L47:
 955              		.loc 1 132 0 discriminator 3
 956 01fc 1A4B     		ldr	r3, .L59
 957 01fe 1B7B     		ldrb	r3, [r3, #12]
 958 0200 002B     		cmp	r3, #0
 959 0202 07D0     		beq	.L49
 960              		.loc 1 132 0 discriminator 5
 961 0204 184B     		ldr	r3, .L59
 962 0206 9968     		ldr	r1, [r3, #8]
 963              	.LVL115:
 964              	.LBB187:
 965              	.LBB188:
 966              		.loc 2 72 0 is_stmt 1 discriminator 5
 967 0208 8568     		ldr	r5, [r0, #8]
 968 020a 0122     		mov	r2, #1
 969 020c 174B     		ldr	r3, .L59+4
 970 020e A847     		blx	r5
 971              	.LVL116:
 972              	.LBE188:
 973              	.LBE187:
 974              		.loc 1 132 0 discriminator 5
 975 0210 0128     		cmp	r0, #1
 976 0212 23D1     		bne	.L58
 977              	.LVL117:
ARM GAS  C:\Users\Petro\AppData\Local\Temp\ccPFwMgj.s 			page 23


 978              	.L49:
 979              		.loc 1 132 0 is_stmt 0 discriminator 8
 980 0214 0022     		mov	r2, #0
 981 0216 144B     		ldr	r3, .L59
 982 0218 1A73     		strb	r2, [r3, #12]
 983              	.L48:
 984              		.loc 1 132 0 discriminator 9
 985 021a 2268     		ldr	r2, [r4]
 986 021c 124B     		ldr	r3, .L59
 987 021e 5A60     		str	r2, [r3, #4]
 988 0220 4246     		mov	r2, r8
 989 0222 9A60     		str	r2, [r3, #8]
 990 0224 0122     		mov	r2, #1
 991 0226 1A73     		strb	r2, [r3, #12]
 133:.\write.c     **** 
 134:.\write.c     **** 	return 0;
 992              		.loc 1 134 0 is_stmt 1 discriminator 9
 993 0228 0020     		mov	r0, #0
 994 022a 19E0     		b	.L31
 995              	.LVL118:
 996              	.L50:
 104:.\write.c     **** 	if(offset == (uint32_t)h->bytes_per_sector - 1) {
 997              		.loc 1 104 0
 998 022c 0520     		mov	r0, #5
 999 022e 4042     		neg	r0, r0
 1000 0230 16E0     		b	.L31
 1001              	.LVL119:
 1002              	.L51:
 1003 0232 0520     		mov	r0, #5
 1004 0234 4042     		neg	r0, r0
 1005 0236 13E0     		b	.L31
 1006              	.LVL120:
 1007              	.L52:
 110:.\write.c     **** 			sector++;
 1008              		.loc 1 110 0
 1009 0238 0520     		mov	r0, #5
 1010 023a 4042     		neg	r0, r0
 1011 023c 10E0     		b	.L31
 1012              	.LVL121:
 1013              	.L53:
 112:.\write.c     **** 			_fat_sector_buf[0] = next >> 8;
 1014              		.loc 1 112 0
 1015 023e 0520     		mov	r0, #5
 1016 0240 4042     		neg	r0, r0
 1017 0242 0DE0     		b	.L31
 1018              	.LVL122:
 1019              	.L54:
 1020 0244 0520     		mov	r0, #5
 1021 0246 4042     		neg	r0, r0
 1022 0248 0AE0     		b	.L31
 1023              	.LVL123:
 1024              	.L55:
 116:.\write.c     **** 			sector++;
 1025              		.loc 1 116 0
 1026 024a 0520     		mov	r0, #5
 1027 024c 4042     		neg	r0, r0
 1028 024e 07E0     		b	.L31
ARM GAS  C:\Users\Petro\AppData\Local\Temp\ccPFwMgj.s 			page 24


 1029              	.LVL124:
 1030              	.L56:
 118:.\write.c     **** 			_fat_sector_buf[0] &= 0xF0;
 1031              		.loc 1 118 0
 1032 0250 0520     		mov	r0, #5
 1033 0252 4042     		neg	r0, r0
 1034 0254 04E0     		b	.L31
 1035              	.LVL125:
 1036              	.L57:
 1037 0256 0520     		mov	r0, #5
 1038 0258 4042     		neg	r0, r0
 1039 025a 01E0     		b	.L31
 1040              	.LVL126:
 1041              	.L58:
 132:.\write.c     **** 
 1042              		.loc 1 132 0
 1043 025c 0520     		mov	r0, #5
 1044 025e 4042     		neg	r0, r0
 1045              	.LVL127:
 1046              	.L31:
 135:.\write.c     **** }
 1047              		.loc 1 135 0
 1048              		@ sp needed
 1049              	.LVL128:
 1050 0260 0CBC     		pop	{r2, r3}
 1051 0262 9046     		mov	r8, r2
 1052 0264 9946     		mov	r9, r3
 1053 0266 F8BD     		pop	{r3, r4, r5, r6, r7, pc}
 1054              	.L60:
 1055              		.align	2
 1056              	.L59:
 1057 0268 00000000 		.word	_fat_cache
 1058 026c 00000000 		.word	_fat_sector_buf
 1059              		.cfi_endproc
 1060              	.LFE20:
 1061              		.size	fat12_set_next_cluster, .-fat12_set_next_cluster
 1062              		.section	.text.fat_set_next_cluster,"ax",%progbits
 1063              		.align	2
 1064              		.code	16
 1065              		.thumb_func
 1066              		.type	fat_set_next_cluster, %function
 1067              	fat_set_next_cluster:
 1068              	.LFB21:
 136:.\write.c     **** 
 137:.\write.c     **** static int 
 138:.\write.c     **** fat_set_next_cluster(const struct fat_vol_handle *h, 
 139:.\write.c     **** 			uint32_t cluster, uint32_t next)
 140:.\write.c     **** {
 1069              		.loc 1 140 0
 1070              		.cfi_startproc
 1071              	.LVL129:
 1072 0000 F0B5     		push	{r4, r5, r6, r7, lr}
 1073              		.cfi_def_cfa_offset 20
 1074              		.cfi_offset 4, -20
 1075              		.cfi_offset 5, -16
 1076              		.cfi_offset 6, -12
 1077              		.cfi_offset 7, -8
ARM GAS  C:\Users\Petro\AppData\Local\Temp\ccPFwMgj.s 			page 25


 1078              		.cfi_offset 14, -4
 1079 0002 83B0     		sub	sp, sp, #12
 1080              		.cfi_def_cfa_offset 32
 1081 0004 071C     		mov	r7, r0
 1082 0006 0E1C     		mov	r6, r1
 1083 0008 0192     		str	r2, [sp, #4]
 1084              	.LVL130:
 141:.\write.c     **** 	int ret = 0;
 142:.\write.c     ****     int i;
 143:.\write.c     **** 	for( i = 0; i < h->num_fats; i++) {
 1085              		.loc 1 143 0
 1086 000a 0024     		mov	r4, #0
 141:.\write.c     **** 	int ret = 0;
 1087              		.loc 1 141 0
 1088 000c 0025     		mov	r5, #0
 1089              		.loc 1 143 0
 1090 000e 20E0     		b	.L62
 1091              	.LVL131:
 1092              	.L67:
 144:.\write.c     **** 		switch(h->type) {
 1093              		.loc 1 144 0
 1094 0010 7B68     		ldr	r3, [r7, #4]
 1095 0012 102B     		cmp	r3, #16
 1096 0014 0CD0     		beq	.L64
 1097 0016 202B     		cmp	r3, #32
 1098 0018 13D0     		beq	.L65
 1099 001a 0C2B     		cmp	r3, #12
 1100 001c 18D1     		bne	.L63
 145:.\write.c     **** 		case FAT_TYPE_FAT12:
 146:.\write.c     **** 			ret |= fat12_set_next_cluster(h, i, cluster, next);
 1101              		.loc 1 146 0
 1102 001e E1B2     		uxtb	r1, r4
 1103 0020 B2B2     		uxth	r2, r6
 1104 0022 6B46     		mov	r3, sp
 1105 0024 9B88     		ldrh	r3, [r3, #4]
 1106 0026 381C     		mov	r0, r7
 1107 0028 FFF7FEFF 		bl	fat12_set_next_cluster
 1108              	.LVL132:
 1109 002c 0543     		orr	r5, r0
 1110              	.LVL133:
 147:.\write.c     **** 			break;
 1111              		.loc 1 147 0
 1112 002e 0FE0     		b	.L63
 1113              	.L64:
 148:.\write.c     **** 		case FAT_TYPE_FAT16:
 149:.\write.c     **** 			ret |= fat16_set_next_cluster(h, i, cluster, next);
 1114              		.loc 1 149 0
 1115 0030 E1B2     		uxtb	r1, r4
 1116 0032 B2B2     		uxth	r2, r6
 1117 0034 6B46     		mov	r3, sp
 1118 0036 9B88     		ldrh	r3, [r3, #4]
 1119 0038 381C     		mov	r0, r7
 1120 003a FFF7FEFF 		bl	fat16_set_next_cluster
 1121              	.LVL134:
 1122 003e 0543     		orr	r5, r0
 1123              	.LVL135:
 150:.\write.c     **** 			break;
ARM GAS  C:\Users\Petro\AppData\Local\Temp\ccPFwMgj.s 			page 26


 1124              		.loc 1 150 0
 1125 0040 06E0     		b	.L63
 1126              	.L65:
 151:.\write.c     **** 		case FAT_TYPE_FAT32:
 152:.\write.c     **** 			ret |= fat32_set_next_cluster(h, i, cluster, next);
 1127              		.loc 1 152 0
 1128 0042 E1B2     		uxtb	r1, r4
 1129 0044 381C     		mov	r0, r7
 1130 0046 321C     		mov	r2, r6
 1131 0048 019B     		ldr	r3, [sp, #4]
 1132 004a FFF7FEFF 		bl	fat32_set_next_cluster
 1133              	.LVL136:
 1134 004e 0543     		orr	r5, r0
 1135              	.LVL137:
 1136              	.L63:
 143:.\write.c     **** 		switch(h->type) {
 1137              		.loc 1 143 0 discriminator 2
 1138 0050 0134     		add	r4, r4, #1
 1139              	.LVL138:
 1140              	.L62:
 143:.\write.c     **** 		switch(h->type) {
 1141              		.loc 1 143 0 is_stmt 0 discriminator 1
 1142 0052 BB7B     		ldrb	r3, [r7, #14]
 1143 0054 A342     		cmp	r3, r4
 1144 0056 DBDC     		bgt	.L67
 153:.\write.c     **** 			break;
 154:.\write.c     **** 		}
 155:.\write.c     **** 	}
 156:.\write.c     **** 	return ret;
 157:.\write.c     **** }
 1145              		.loc 1 157 0 is_stmt 1
 1146 0058 281C     		mov	r0, r5
 1147 005a 03B0     		add	sp, sp, #12
 1148              		@ sp needed
 1149              	.LVL139:
 1150              	.LVL140:
 1151              	.LVL141:
 1152              	.LVL142:
 1153 005c F0BD     		pop	{r4, r5, r6, r7, pc}
 1154              		.cfi_endproc
 1155              	.LFE21:
 1156              		.size	fat_set_next_cluster, .-fat_set_next_cluster
 1157 005e C046     		.section	.text.fat_find_free_cluster,"ax",%progbits
 1158              		.align	2
 1159              		.code	16
 1160              		.thumb_func
 1161              		.type	fat_find_free_cluster, %function
 1162              	fat_find_free_cluster:
 1163              	.LFB17:
  33:.\write.c     **** 	uint32_t i;
 1164              		.loc 1 33 0
 1165              		.cfi_startproc
 1166              	.LVL143:
 1167 0000 38B5     		push	{r3, r4, r5, lr}
 1168              		.cfi_def_cfa_offset 16
 1169              		.cfi_offset 3, -16
 1170              		.cfi_offset 4, -12
ARM GAS  C:\Users\Petro\AppData\Local\Temp\ccPFwMgj.s 			page 27


 1171              		.cfi_offset 5, -8
 1172              		.cfi_offset 14, -4
 1173 0002 051C     		mov	r5, r0
  36:.\write.c     **** 		if(_fat_get_next_cluster(h, i) == 0) {
 1174              		.loc 1 36 0
 1175 0004 046A     		ldr	r4, [r0, #32]
 1176              	.LVL144:
 1177 0006 09E0     		b	.L69
 1178              	.LVL145:
 1179              	.L72:
  37:.\write.c     **** 			h->last_cluster_alloc = i;
 1180              		.loc 1 37 0
 1181 0008 281C     		mov	r0, r5
 1182 000a 211C     		mov	r1, r4
 1183 000c FFF7FEFF 		bl	_fat_get_next_cluster
 1184              	.LVL146:
 1185 0010 0028     		cmp	r0, #0
 1186 0012 02D1     		bne	.L70
  38:.\write.c     **** 			return i;
 1187              		.loc 1 38 0
 1188 0014 2C62     		str	r4, [r5, #32]
  39:.\write.c     **** 		}
 1189              		.loc 1 39 0
 1190 0016 201C     		mov	r0, r4
 1191 0018 13E0     		b	.L71
 1192              	.L70:
  36:.\write.c     **** 		if(_fat_get_next_cluster(h, i) == 0) {
 1193              		.loc 1 36 0 discriminator 2
 1194 001a 0134     		add	r4, r4, #1
 1195              	.LVL147:
 1196              	.L69:
  36:.\write.c     **** 		if(_fat_get_next_cluster(h, i) == 0) {
 1197              		.loc 1 36 0 is_stmt 0 discriminator 1
 1198 001c 6B69     		ldr	r3, [r5, #20]
 1199 001e A342     		cmp	r3, r4
 1200 0020 F2D8     		bhi	.L72
 1201 0022 0224     		mov	r4, #2
 1202              	.LVL148:
 1203 0024 09E0     		b	.L73
 1204              	.LVL149:
 1205              	.L75:
  44:.\write.c     **** 			h->last_cluster_alloc = i;
 1206              		.loc 1 44 0 is_stmt 1
 1207 0026 281C     		mov	r0, r5
 1208 0028 211C     		mov	r1, r4
 1209 002a FFF7FEFF 		bl	_fat_get_next_cluster
 1210              	.LVL150:
 1211 002e 0028     		cmp	r0, #0
 1212 0030 02D1     		bne	.L74
  45:.\write.c     **** 			return i;
 1213              		.loc 1 45 0
 1214 0032 2C62     		str	r4, [r5, #32]
  46:.\write.c     **** 		}
 1215              		.loc 1 46 0
 1216 0034 201C     		mov	r0, r4
 1217 0036 04E0     		b	.L71
 1218              	.L74:
ARM GAS  C:\Users\Petro\AppData\Local\Temp\ccPFwMgj.s 			page 28


  43:.\write.c     **** 		if(_fat_get_next_cluster(h, i) == 0) {
 1219              		.loc 1 43 0 discriminator 2
 1220 0038 0134     		add	r4, r4, #1
 1221              	.LVL151:
 1222              	.L73:
  43:.\write.c     **** 		if(_fat_get_next_cluster(h, i) == 0) {
 1223              		.loc 1 43 0 is_stmt 0 discriminator 1
 1224 003a 2B6A     		ldr	r3, [r5, #32]
 1225 003c A342     		cmp	r3, r4
 1226 003e F2D8     		bhi	.L75
  50:.\write.c     **** }
 1227              		.loc 1 50 0 is_stmt 1
 1228 0040 0020     		mov	r0, #0
 1229              	.L71:
  51:.\write.c     **** 
 1230              		.loc 1 51 0
 1231              		@ sp needed
 1232              	.LVL152:
 1233              	.LVL153:
 1234 0042 38BD     		pop	{r3, r4, r5, pc}
 1235              		.cfi_endproc
 1236              	.LFE17:
 1237              		.size	fat_find_free_cluster, .-fat_find_free_cluster
 1238              		.section	.text.fat_chain_unlink,"ax",%progbits
 1239              		.align	2
 1240              		.code	16
 1241              		.thumb_func
 1242              		.type	fat_chain_unlink, %function
 1243              	fat_chain_unlink:
 1244              	.LFB25:
 158:.\write.c     **** 
 159:.\write.c     **** static int32_t fat_alloc_next_cluster(struct fat_vol_handle *h, 
 160:.\write.c     **** 				uint32_t cluster, int clear)
 161:.\write.c     **** {
 162:.\write.c     **** 	/* Return next if already allocated */
 163:.\write.c     **** 	uint32_t next = _fat_get_next_cluster(h, cluster);
 164:.\write.c     **** 
 165:.\write.c     **** 	if(next != fat_eoc(h)) 
 166:.\write.c     **** 		return next;
 167:.\write.c     **** 	
 168:.\write.c     **** 	/* Find free cluster to link to */
 169:.\write.c     **** 	next = fat_find_free_cluster(h);
 170:.\write.c     **** 
 171:.\write.c     **** 	if(!next) /* No more free clusters */
 172:.\write.c     **** 		return 0;
 173:.\write.c     **** 
 174:.\write.c     **** 	/* Write end of chain marker in new cluster */
 175:.\write.c     **** 	fat_set_next_cluster(h, next, fat_eoc(h));
 176:.\write.c     **** 	/* Add new cluster to chain */
 177:.\write.c     **** 	fat_set_next_cluster(h, cluster, next);
 178:.\write.c     **** 
 179:.\write.c     **** 	if(clear) {
 180:.\write.c     **** 		/* Zero new cluster */
 181:.\write.c     **** 		uint32_t sector = fat_first_sector_of_cluster(
 182:.\write.c     **** 				h, next);
 183:.\write.c     **** 		FAT_FLUSH_SECTOR();
 184:.\write.c     **** 		memset(_fat_sector_buf, 0, h->bytes_per_sector);
ARM GAS  C:\Users\Petro\AppData\Local\Temp\ccPFwMgj.s 			page 29


 185:.\write.c     ****         int i;
 186:.\write.c     **** 		for(i = 0; i < h->sectors_per_cluster; i++) {
 187:.\write.c     **** 			/* How do we report failure here?
 188:.\write.c     **** 			 * The cluster has already been allocated.
 189:.\write.c     **** 			 */
 190:.\write.c     **** 			int discard = block_write_sectors(h->dev, sector + i, 1, 
 191:.\write.c     **** 						_fat_sector_buf); 
 192:.\write.c     **** 			(void)discard;
 193:.\write.c     **** 		}
 194:.\write.c     **** 	}
 195:.\write.c     **** 
 196:.\write.c     **** 	return next;
 197:.\write.c     **** }
 198:.\write.c     **** 
 199:.\write.c     **** int fat_file_sync(struct fat_file_handle *h)
 200:.\write.c     **** {
 201:.\write.c     **** 	struct fat_sdirent *dirent;
 202:.\write.c     **** 	/* Update directory entry with new size */
 203:.\write.c     **** 	FAT_GET_SECTOR(h->fat, h->dirent_sector);
 204:.\write.c     **** 	dirent = (void*)&_fat_sector_buf[h->dirent_offset];
 205:.\write.c     **** 	__put_le32(&dirent->size, h->size);
 206:.\write.c     **** 	__put_le16(&dirent->cluster_hi, h->first_cluster >> 16);
 207:.\write.c     **** 	__put_le16(&dirent->cluster_lo, h->first_cluster & 0xFFFF);
 208:.\write.c     **** 	FAT_PUT_SECTOR(h->fat, h->dirent_sector);
 209:.\write.c     **** 	FAT_FLUSH_SECTOR();
 210:.\write.c     **** 	return 0;
 211:.\write.c     **** }
 212:.\write.c     **** 
 213:.\write.c     **** #define MIN(x, y) (((x) < (y))?(x):(y))
 214:.\write.c     **** int fat_write(struct fat_file_handle *h, const void *buf, int size)
 215:.\write.c     **** {
 216:.\write.c     **** 	int i;
 217:.\write.c     **** 	uint32_t sector;
 218:.\write.c     **** 	uint16_t offset;
 219:.\write.c     **** 
 220:.\write.c     **** 	if(!h->cur_cluster && size) {
 221:.\write.c     **** 		/* File was empty, allocate first cluster. */
 222:.\write.c     **** 		h->first_cluster = fat_find_free_cluster(h->fat);
 223:.\write.c     **** 		if(!h->first_cluster) 
 224:.\write.c     **** 			return 0;
 225:.\write.c     **** 		h->cur_cluster = h->first_cluster;
 226:.\write.c     **** 		/* Write end of chain marker in new cluster */
 227:.\write.c     **** 		fat_set_next_cluster(h->fat, h->cur_cluster, fat_eoc(h->fat));
 228:.\write.c     **** 		/* Directory entry will be updated with size after the
 229:.\write.c     **** 		 * file write is done. 
 230:.\write.c     **** 		 */
 231:.\write.c     **** 	}
 232:.\write.c     **** 
 233:.\write.c     **** 	/* Don't write past end of FAT12/FAT16 root directory! */
 234:.\write.c     **** 	if(h->root_flag && ((h->position + size) > h->size))
 235:.\write.c     **** 		size = h->size - h->position;
 236:.\write.c     **** 
 237:.\write.c     **** 	_fat_file_sector_offset(h, &sector, &offset);
 238:.\write.c     **** 
 239:.\write.c     **** 	for(i = 0; i < size; ) {
 240:.\write.c     **** 		uint16_t chunk = MIN(h->fat->bytes_per_sector - offset, 
 241:.\write.c     **** 					size - i);
ARM GAS  C:\Users\Petro\AppData\Local\Temp\ccPFwMgj.s 			page 30


 242:.\write.c     **** 		if(chunk < h->fat->bytes_per_sector)
 243:.\write.c     **** 			FAT_GET_SECTOR(h->fat, sector);
 244:.\write.c     **** 		else
 245:.\write.c     **** 			FAT_FLUSH_SECTOR();
 246:.\write.c     **** 
 247:.\write.c     **** 		memcpy(_fat_sector_buf + offset, buf + i, chunk);
 248:.\write.c     **** 		FAT_PUT_SECTOR(h->fat, sector);
 249:.\write.c     **** 		h->position += chunk;
 250:.\write.c     **** 		i += chunk;
 251:.\write.c     **** 		if((h->position % h->fat->bytes_per_sector) != 0) 
 252:.\write.c     **** 			/* we didn't write until the end of the sector... */
 253:.\write.c     **** 			break;
 254:.\write.c     **** 		offset = 0;
 255:.\write.c     **** 		sector++;
 256:.\write.c     **** 		if(h->root_flag) /* FAT12/16 isn't a cluster chain */
 257:.\write.c     **** 			continue;
 258:.\write.c     **** 		if((sector % h->fat->sectors_per_cluster) == 0) {
 259:.\write.c     **** 			/* Go to next cluster... */
 260:.\write.c     **** 			uint32_t next_cluster = fat_alloc_next_cluster(h->fat, 
 261:.\write.c     **** 						h->cur_cluster, h->size == 0);
 262:.\write.c     **** 			if(!next_cluster)
 263:.\write.c     **** 				break;
 264:.\write.c     **** 			h->cur_cluster = next_cluster;
 265:.\write.c     **** 			sector = fat_first_sector_of_cluster(h->fat, 
 266:.\write.c     **** 						h->cur_cluster);
 267:.\write.c     **** 		}
 268:.\write.c     **** 	}
 269:.\write.c     **** 
 270:.\write.c     **** 	if(h->dirent_sector && (h->position > h->size)) {
 271:.\write.c     **** 		/* Update directory entry with new size */
 272:.\write.c     **** 		h->size = h->position;
 273:.\write.c     **** 		if(!(h->flags & O_ASYNC))
 274:.\write.c     **** 			fat_file_sync(h);
 275:.\write.c     **** 	}
 276:.\write.c     **** 
 277:.\write.c     **** 	return i;
 278:.\write.c     **** }
 279:.\write.c     **** 
 280:.\write.c     **** static int fat_chain_unlink(const struct fat_vol_handle *vol, uint32_t cluster)
 281:.\write.c     **** {
 1245              		.loc 1 281 0
 1246              		.cfi_startproc
 1247              	.LVL154:
 1248 0000 F8B5     		push	{r3, r4, r5, r6, r7, lr}
 1249              		.cfi_def_cfa_offset 24
 1250              		.cfi_offset 3, -24
 1251              		.cfi_offset 4, -20
 1252              		.cfi_offset 5, -16
 1253              		.cfi_offset 6, -12
 1254              		.cfi_offset 7, -8
 1255              		.cfi_offset 14, -4
 1256 0002 051C     		mov	r5, r0
 1257 0004 0C1C     		mov	r4, r1
 1258              	.LVL155:
 282:.\write.c     **** 	int ret = 0;
 1259              		.loc 1 282 0
 1260 0006 0026     		mov	r6, #0
ARM GAS  C:\Users\Petro\AppData\Local\Temp\ccPFwMgj.s 			page 31


 283:.\write.c     **** 	while(cluster && (cluster != fat_eoc(vol))) {
 1261              		.loc 1 283 0
 1262 0008 0BE0     		b	.L77
 1263              	.LVL156:
 1264              	.L83:
 1265              	.LBB189:
 284:.\write.c     **** 		uint32_t next = _fat_get_next_cluster(vol, cluster); 
 1266              		.loc 1 284 0
 1267 000a 281C     		mov	r0, r5
 1268 000c 211C     		mov	r1, r4
 1269 000e FFF7FEFF 		bl	_fat_get_next_cluster
 1270              	.LVL157:
 1271 0012 071C     		mov	r7, r0
 1272              	.LVL158:
 285:.\write.c     **** 		ret |= fat_set_next_cluster(vol, cluster, 0);
 1273              		.loc 1 285 0
 1274 0014 281C     		mov	r0, r5
 1275              	.LVL159:
 1276 0016 211C     		mov	r1, r4
 1277 0018 0022     		mov	r2, #0
 1278 001a FFF7FEFF 		bl	fat_set_next_cluster
 1279              	.LVL160:
 1280 001e 0643     		orr	r6, r0
 1281              	.LVL161:
 286:.\write.c     **** 		cluster = next;
 1282              		.loc 1 286 0
 1283 0020 3C1C     		mov	r4, r7
 1284              	.LVL162:
 1285              	.L77:
 1286              	.LBE189:
 283:.\write.c     **** 		uint32_t next = _fat_get_next_cluster(vol, cluster); 
 1287              		.loc 1 283 0
 1288 0022 002C     		cmp	r4, #0
 1289 0024 10D0     		beq	.L78
 1290              	.LVL163:
 1291              	.LBB190:
 1292              	.LBB191:
 1293              		.file 4 ".\\fat_core.h"
   1:.\fat_core.h  **** /*
   2:.\fat_core.h  ****  * This file is part of the openfat project.
   3:.\fat_core.h  ****  *
   4:.\fat_core.h  ****  * Copyright (C) 2011  Department of Physics, University of Otago
   5:.\fat_core.h  ****  * Written by Gareth McMullin <gareth@blacksphere.co.nz>
   6:.\fat_core.h  ****  *
   7:.\fat_core.h  ****  * This program is free software: you can redistribute it and/or modify
   8:.\fat_core.h  ****  * it under the terms of the GNU General Public License as published by
   9:.\fat_core.h  ****  * the Free Software Foundation, either version 3 of the License, or
  10:.\fat_core.h  ****  * (at your option) any later version.
  11:.\fat_core.h  ****  *
  12:.\fat_core.h  ****  * This program is distributed in the hope that it will be useful,
  13:.\fat_core.h  ****  * but WITHOUT ANY WARRANTY; without even the implied warranty of
  14:.\fat_core.h  ****  * MERCHANTABILITY or FITNESS FOR A PARTICULAR PURPOSE.  See the
  15:.\fat_core.h  ****  * GNU General Public License for more details.
  16:.\fat_core.h  ****  *
  17:.\fat_core.h  ****  * You should have received a copy of the GNU General Public License
  18:.\fat_core.h  ****  * along with this program.  If not, see <http://www.gnu.org/licenses/>.
  19:.\fat_core.h  ****  */
ARM GAS  C:\Users\Petro\AppData\Local\Temp\ccPFwMgj.s 			page 32


  20:.\fat_core.h  **** 
  21:.\fat_core.h  **** /* FAT Filesystem core implementation, private interface
  22:.\fat_core.h  ****  */
  23:.\fat_core.h  **** #ifndef __FAT_CORE_H
  24:.\fat_core.h  **** #define __FAT_CORE_H
  25:.\fat_core.h  **** 
  26:.\fat_core.h  **** #include "bpb.h"
  27:.\fat_core.h  **** #include "direntry.h"
  28:.\fat_core.h  **** 
  29:.\fat_core.h  **** extern uint8_t _fat_sector_buf[];
  30:.\fat_core.h  **** 
  31:.\fat_core.h  **** extern struct _fat_cache {
  32:.\fat_core.h  **** 	/* Working sector buffer, use _fat_sector_buf by default. */
  33:.\fat_core.h  **** 	uint8_t *buf;
  34:.\fat_core.h  **** 
  35:.\fat_core.h  **** 	/* Sector and block device for current contents of buf. */
  36:.\fat_core.h  **** 	const void *bldev;
  37:.\fat_core.h  **** 	uint32_t sector;
  38:.\fat_core.h  **** 
  39:.\fat_core.h  **** 	/* Non-zero if buffer is out-of-sync with the physical medium. */
  40:.\fat_core.h  **** 	uint8_t dirty;
  41:.\fat_core.h  **** } _fat_cache;
  42:.\fat_core.h  **** 
  43:.\fat_core.h  **** static inline uint32_t
  44:.\fat_core.h  **** fat_eoc(const struct fat_vol_handle *fat) 
  45:.\fat_core.h  **** {
  46:.\fat_core.h  **** 	switch (fat->type) {
 1294              		.loc 4 46 0
 1295 0026 6B68     		ldr	r3, [r5, #4]
 1296 0028 102B     		cmp	r3, #16
 1297 002a 0AD0     		beq	.L84
 1298 002c 202B     		cmp	r3, #32
 1299 002e 03D0     		beq	.L81
 1300 0030 0C2B     		cmp	r3, #12
 1301 0032 03D1     		bne	.L85
  47:.\fat_core.h  **** 	case FAT_TYPE_FAT12:
  48:.\fat_core.h  **** 		return 0x0FF8;
 1302              		.loc 4 48 0
 1303 0034 054B     		ldr	r3, .L86
 1304 0036 05E0     		b	.L80
 1305              	.L81:
  49:.\fat_core.h  **** 	case FAT_TYPE_FAT16:
  50:.\fat_core.h  **** 		return 0xFFF8;
  51:.\fat_core.h  **** 	case FAT_TYPE_FAT32:
  52:.\fat_core.h  **** 		return 0x0FFFFFF8;
 1306              		.loc 4 52 0
 1307 0038 054B     		ldr	r3, .L86+4
 1308 003a 03E0     		b	.L80
 1309              	.L85:
  53:.\fat_core.h  **** 	}
  54:.\fat_core.h  **** 	return -1;
 1310              		.loc 4 54 0
 1311 003c 0123     		mov	r3, #1
 1312 003e 5B42     		neg	r3, r3
 1313 0040 00E0     		b	.L80
 1314              	.L84:
  50:.\fat_core.h  **** 	case FAT_TYPE_FAT32:
ARM GAS  C:\Users\Petro\AppData\Local\Temp\ccPFwMgj.s 			page 33


 1315              		.loc 4 50 0
 1316 0042 044B     		ldr	r3, .L86+8
 1317              	.L80:
 1318              	.LBE191:
 1319              	.LBE190:
 283:.\write.c     **** 		uint32_t next = _fat_get_next_cluster(vol, cluster); 
 1320              		.loc 1 283 0
 1321 0044 9C42     		cmp	r4, r3
 1322 0046 E0D1     		bne	.L83
 1323              	.LVL164:
 1324              	.L78:
 287:.\write.c     **** 	}
 288:.\write.c     **** 	return ret;
 289:.\write.c     **** }
 1325              		.loc 1 289 0
 1326 0048 301C     		mov	r0, r6
 1327              		@ sp needed
 1328              	.LVL165:
 1329              	.LVL166:
 1330              	.LVL167:
 1331 004a F8BD     		pop	{r3, r4, r5, r6, r7, pc}
 1332              	.L87:
 1333              		.align	2
 1334              	.L86:
 1335 004c F80F0000 		.word	4088
 1336 0050 F8FFFF0F 		.word	268435448
 1337 0054 F8FF0000 		.word	65528
 1338              		.cfi_endproc
 1339              	.LFE25:
 1340              		.size	fat_chain_unlink, .-fat_chain_unlink
 1341              		.section	.text.fat_alloc_next_cluster,"ax",%progbits
 1342              		.align	2
 1343              		.code	16
 1344              		.thumb_func
 1345              		.type	fat_alloc_next_cluster, %function
 1346              	fat_alloc_next_cluster:
 1347              	.LFB22:
 161:.\write.c     **** 	/* Return next if already allocated */
 1348              		.loc 1 161 0
 1349              		.cfi_startproc
 1350              	.LVL168:
 1351 0000 F0B5     		push	{r4, r5, r6, r7, lr}
 1352              		.cfi_def_cfa_offset 20
 1353              		.cfi_offset 4, -20
 1354              		.cfi_offset 5, -16
 1355              		.cfi_offset 6, -12
 1356              		.cfi_offset 7, -8
 1357              		.cfi_offset 14, -4
 1358 0002 4746     		mov	r7, r8
 1359 0004 80B4     		push	{r7}
 1360              		.cfi_def_cfa_offset 24
 1361              		.cfi_offset 8, -24
 1362 0006 071C     		mov	r7, r0
 1363 0008 0D1C     		mov	r5, r1
 1364 000a 161C     		mov	r6, r2
 163:.\write.c     **** 
 1365              		.loc 1 163 0
ARM GAS  C:\Users\Petro\AppData\Local\Temp\ccPFwMgj.s 			page 34


 1366 000c FFF7FEFF 		bl	_fat_get_next_cluster
 1367              	.LVL169:
 1368              	.LBB192:
 1369              	.LBB193:
  46:.\fat_core.h  **** 	case FAT_TYPE_FAT12:
 1370              		.loc 4 46 0
 1371 0010 7B68     		ldr	r3, [r7, #4]
 1372 0012 102B     		cmp	r3, #16
 1373 0014 0AD0     		beq	.L103
 1374 0016 202B     		cmp	r3, #32
 1375 0018 03D0     		beq	.L91
 1376 001a 0C2B     		cmp	r3, #12
 1377 001c 03D1     		bne	.L107
  48:.\fat_core.h  **** 	case FAT_TYPE_FAT16:
 1378              		.loc 4 48 0
 1379 001e 2D4B     		ldr	r3, .L109
 1380 0020 05E0     		b	.L90
 1381              	.L91:
  52:.\fat_core.h  **** 	}
 1382              		.loc 4 52 0
 1383 0022 2D4B     		ldr	r3, .L109+4
 1384 0024 03E0     		b	.L90
 1385              	.L107:
 1386              		.loc 4 54 0
 1387 0026 0123     		mov	r3, #1
 1388 0028 5B42     		neg	r3, r3
 1389 002a 00E0     		b	.L90
 1390              	.L103:
  50:.\fat_core.h  **** 	case FAT_TYPE_FAT32:
 1391              		.loc 4 50 0
 1392 002c 2B4B     		ldr	r3, .L109+8
 1393              	.L90:
 1394              	.LBE193:
 1395              	.LBE192:
 165:.\write.c     **** 		return next;
 1396              		.loc 1 165 0
 1397 002e 9842     		cmp	r0, r3
 1398 0030 4CD1     		bne	.L94
 169:.\write.c     **** 
 1399              		.loc 1 169 0
 1400 0032 381C     		mov	r0, r7
 1401              	.LVL170:
 1402 0034 FFF7FEFF 		bl	fat_find_free_cluster
 1403              	.LVL171:
 1404 0038 041E     		sub	r4, r0, #0
 1405              	.LVL172:
 171:.\write.c     **** 		return 0;
 1406              		.loc 1 171 0
 1407 003a 43D0     		beq	.L104
 1408              	.LVL173:
 1409              	.LBB194:
 1410              	.LBB195:
  46:.\fat_core.h  **** 	case FAT_TYPE_FAT12:
 1411              		.loc 4 46 0
 1412 003c 7B68     		ldr	r3, [r7, #4]
 1413 003e 102B     		cmp	r3, #16
 1414 0040 0AD0     		beq	.L105
ARM GAS  C:\Users\Petro\AppData\Local\Temp\ccPFwMgj.s 			page 35


 1415 0042 202B     		cmp	r3, #32
 1416 0044 03D0     		beq	.L97
 1417 0046 0C2B     		cmp	r3, #12
 1418 0048 03D1     		bne	.L108
  48:.\fat_core.h  **** 	case FAT_TYPE_FAT16:
 1419              		.loc 4 48 0
 1420 004a 224A     		ldr	r2, .L109
 1421 004c 05E0     		b	.L96
 1422              	.L97:
  52:.\fat_core.h  **** 	}
 1423              		.loc 4 52 0
 1424 004e 224A     		ldr	r2, .L109+4
 1425 0050 03E0     		b	.L96
 1426              	.L108:
 1427              		.loc 4 54 0
 1428 0052 0122     		mov	r2, #1
 1429 0054 5242     		neg	r2, r2
 1430 0056 00E0     		b	.L96
 1431              	.L105:
  50:.\fat_core.h  **** 	case FAT_TYPE_FAT32:
 1432              		.loc 4 50 0
 1433 0058 204A     		ldr	r2, .L109+8
 1434              	.L96:
 1435              	.LBE195:
 1436              	.LBE194:
 175:.\write.c     **** 	/* Add new cluster to chain */
 1437              		.loc 1 175 0
 1438 005a 381C     		mov	r0, r7
 1439              	.LVL174:
 1440 005c 211C     		mov	r1, r4
 1441 005e FFF7FEFF 		bl	fat_set_next_cluster
 1442              	.LVL175:
 177:.\write.c     **** 
 1443              		.loc 1 177 0
 1444 0062 381C     		mov	r0, r7
 1445 0064 291C     		mov	r1, r5
 1446 0066 221C     		mov	r2, r4
 1447 0068 FFF7FEFF 		bl	fat_set_next_cluster
 1448              	.LVL176:
 179:.\write.c     **** 		/* Zero new cluster */
 1449              		.loc 1 179 0
 1450 006c 002E     		cmp	r6, #0
 1451 006e 27D0     		beq	.L99
 1452              	.LVL177:
 1453              	.LBB196:
 1454              	.LBB197:
 1455              	.LBB198:
  55:.\fat_core.h  **** }
  56:.\fat_core.h  **** 
  57:.\fat_core.h  **** static inline uint32_t 
  58:.\fat_core.h  **** fat_first_sector_of_cluster(const struct fat_vol_handle *fat, uint32_t n)
  59:.\fat_core.h  **** {
  60:.\fat_core.h  **** 	return ((n - 2) * fat->sectors_per_cluster) + fat->first_data_sector;
 1456              		.loc 4 60 0
 1457 0070 A31E     		sub	r3, r4, #2
 1458 0072 BA7A     		ldrb	r2, [r7, #10]
 1459 0074 5343     		mul	r3, r2
ARM GAS  C:\Users\Petro\AppData\Local\Temp\ccPFwMgj.s 			page 36


 1460 0076 3A69     		ldr	r2, [r7, #16]
 1461 0078 9046     		mov	r8, r2
 1462 007a 9844     		add	r8, r8, r3
 1463              	.LBE198:
 1464              	.LBE197:
 183:.\write.c     **** 		memset(_fat_sector_buf, 0, h->bytes_per_sector);
 1465              		.loc 1 183 0
 1466 007c 184B     		ldr	r3, .L109+12
 1467 007e 1B7B     		ldrb	r3, [r3, #12]
 1468 0080 002B     		cmp	r3, #0
 1469 0082 08D0     		beq	.L100
 183:.\write.c     **** 		memset(_fat_sector_buf, 0, h->bytes_per_sector);
 1470              		.loc 1 183 0 is_stmt 0 discriminator 1
 1471 0084 164B     		ldr	r3, .L109+12
 1472 0086 5868     		ldr	r0, [r3, #4]
 1473 0088 9968     		ldr	r1, [r3, #8]
 1474              	.LVL178:
 1475              	.LBB199:
 1476              	.LBB200:
 1477              		.loc 2 72 0 is_stmt 1 discriminator 1
 1478 008a 8568     		ldr	r5, [r0, #8]
 1479              	.LVL179:
 1480 008c 0122     		mov	r2, #1
 1481 008e 154B     		ldr	r3, .L109+16
 1482 0090 A847     		blx	r5
 1483              	.LVL180:
 1484              	.LBE200:
 1485              	.LBE199:
 183:.\write.c     **** 		memset(_fat_sector_buf, 0, h->bytes_per_sector);
 1486              		.loc 1 183 0 discriminator 1
 1487 0092 0128     		cmp	r0, #1
 1488 0094 18D1     		bne	.L106
 1489              	.LVL181:
 1490              	.L100:
 183:.\write.c     **** 		memset(_fat_sector_buf, 0, h->bytes_per_sector);
 1491              		.loc 1 183 0 is_stmt 0 discriminator 4
 1492 0096 0022     		mov	r2, #0
 1493 0098 114B     		ldr	r3, .L109+12
 1494 009a 1A73     		strb	r2, [r3, #12]
 184:.\write.c     ****         int i;
 1495              		.loc 1 184 0 is_stmt 1 discriminator 4
 1496 009c 3A89     		ldrh	r2, [r7, #8]
 1497 009e 1148     		ldr	r0, .L109+16
 1498 00a0 0021     		mov	r1, #0
 1499 00a2 FFF7FEFF 		bl	memset
 1500              	.LVL182:
 186:.\write.c     **** 			/* How do we report failure here?
 1501              		.loc 1 186 0 discriminator 4
 1502 00a6 0025     		mov	r5, #0
 1503 00a8 07E0     		b	.L101
 1504              	.LVL183:
 1505              	.L102:
 1506              	.LBB201:
 190:.\write.c     **** 						_fat_sector_buf); 
 1507              		.loc 1 190 0 discriminator 3
 1508 00aa 3868     		ldr	r0, [r7]
 1509 00ac 4346     		mov	r3, r8
ARM GAS  C:\Users\Petro\AppData\Local\Temp\ccPFwMgj.s 			page 37


 1510 00ae E918     		add	r1, r5, r3
 1511              	.LVL184:
 1512              	.LBB202:
 1513              	.LBB203:
 1514              		.loc 2 72 0 discriminator 3
 1515 00b0 8668     		ldr	r6, [r0, #8]
 1516 00b2 0122     		mov	r2, #1
 1517 00b4 0B4B     		ldr	r3, .L109+16
 1518 00b6 B047     		blx	r6
 1519              	.LVL185:
 1520              	.LBE203:
 1521              	.LBE202:
 1522              	.LBE201:
 186:.\write.c     **** 			/* How do we report failure here?
 1523              		.loc 1 186 0 discriminator 3
 1524 00b8 0135     		add	r5, r5, #1
 1525              	.LVL186:
 1526              	.L101:
 186:.\write.c     **** 			/* How do we report failure here?
 1527              		.loc 1 186 0 is_stmt 0 discriminator 1
 1528 00ba BB7A     		ldrb	r3, [r7, #10]
 1529 00bc AB42     		cmp	r3, r5
 1530 00be F4DC     		bgt	.L102
 1531              	.LVL187:
 1532              	.L99:
 1533              	.LBE196:
 196:.\write.c     **** }
 1534              		.loc 1 196 0 is_stmt 1
 1535 00c0 201C     		mov	r0, r4
 1536 00c2 03E0     		b	.L94
 1537              	.LVL188:
 1538              	.L104:
 172:.\write.c     **** 
 1539              		.loc 1 172 0
 1540 00c4 0020     		mov	r0, #0
 1541              	.LVL189:
 1542 00c6 01E0     		b	.L94
 1543              	.LVL190:
 1544              	.L106:
 1545              	.LBB204:
 183:.\write.c     **** 		memset(_fat_sector_buf, 0, h->bytes_per_sector);
 1546              		.loc 1 183 0
 1547 00c8 0520     		mov	r0, #5
 1548 00ca 4042     		neg	r0, r0
 1549              	.LVL191:
 1550              	.L94:
 1551              	.LBE204:
 197:.\write.c     **** 
 1552              		.loc 1 197 0
 1553              		@ sp needed
 1554              	.LVL192:
 1555 00cc 04BC     		pop	{r2}
 1556 00ce 9046     		mov	r8, r2
 1557 00d0 F0BD     		pop	{r4, r5, r6, r7, pc}
 1558              	.L110:
 1559 00d2 C046     		.align	2
 1560              	.L109:
ARM GAS  C:\Users\Petro\AppData\Local\Temp\ccPFwMgj.s 			page 38


 1561 00d4 F80F0000 		.word	4088
 1562 00d8 F8FFFF0F 		.word	268435448
 1563 00dc F8FF0000 		.word	65528
 1564 00e0 00000000 		.word	_fat_cache
 1565 00e4 00000000 		.word	_fat_sector_buf
 1566              		.cfi_endproc
 1567              	.LFE22:
 1568              		.size	fat_alloc_next_cluster, .-fat_alloc_next_cluster
 1569              		.global	__aeabi_idivmod
 1570              		.section	.text.build_short_name,"ax",%progbits
 1571              		.align	2
 1572              		.code	16
 1573              		.thumb_func
 1574              		.type	build_short_name, %function
 1575              	build_short_name:
 1576              	.LFB27:
 290:.\write.c     **** 
 291:.\write.c     **** int fat_unlink(struct fat_vol_handle *vol, const char *name)
 292:.\write.c     **** {
 293:.\write.c     **** 	struct fat_file_handle h;
 294:.\write.c     **** 	int ret;
 295:.\write.c     **** 
 296:.\write.c     **** 	ret = fat_open(vol, name, 0, &h);
 297:.\write.c     **** 	if(ret)
 298:.\write.c     **** 		return ret;
 299:.\write.c     **** 
 300:.\write.c     **** 	/* Don't try to unlink directories, use fat_rmdir() instead. */
 301:.\write.c     **** 	if(!h.dirent_sector)
 302:.\write.c     **** 		return -EISDIR;
 303:.\write.c     **** 
 304:.\write.c     **** 	/* Free up cluster chain */
 305:.\write.c     **** 	fat_chain_unlink(vol, h.first_cluster); 
 306:.\write.c     **** 
 307:.\write.c     **** 	/* Mark directory entry as deleted */
 308:.\write.c     **** 	FAT_GET_SECTOR(vol, h.dirent_sector);
 309:.\write.c     **** 	_fat_sector_buf[h.dirent_offset] = 0xE5;
 310:.\write.c     **** 	FAT_PUT_SECTOR(vol, h.dirent_sector);
 311:.\write.c     **** 
 312:.\write.c     **** 	/* FIXME: Remove long name entries. */
 313:.\write.c     **** 
 314:.\write.c     **** 	return 0;
 315:.\write.c     **** }
 316:.\write.c     **** 
 317:.\write.c     **** /* Build a short name for a long name.  n is used if name is too long. */
 318:.\write.c     **** static void build_short_name(uint8_t *sname, const char *name, int n)
 319:.\write.c     **** {
 1577              		.loc 1 319 0
 1578              		.cfi_startproc
 1579              	.LVL193:
 1580 0000 F0B5     		push	{r4, r5, r6, r7, lr}
 1581              		.cfi_def_cfa_offset 20
 1582              		.cfi_offset 4, -20
 1583              		.cfi_offset 5, -16
 1584              		.cfi_offset 6, -12
 1585              		.cfi_offset 7, -8
 1586              		.cfi_offset 14, -4
 1587 0002 4746     		mov	r7, r8
ARM GAS  C:\Users\Petro\AppData\Local\Temp\ccPFwMgj.s 			page 39


 1588 0004 80B4     		push	{r7}
 1589              		.cfi_def_cfa_offset 24
 1590              		.cfi_offset 8, -24
 1591 0006 82B0     		sub	sp, sp, #8
 1592              		.cfi_def_cfa_offset 32
 1593 0008 061C     		mov	r6, r0
 1594 000a 0F1C     		mov	r7, r1
 1595 000c 0192     		str	r2, [sp, #4]
 320:.\write.c     **** 	int i, j;
 321:.\write.c     **** 
 322:.\write.c     **** 	memset(sname, ' ', 11);
 1596              		.loc 1 322 0
 1597 000e 2021     		mov	r1, #32
 1598              	.LVL194:
 1599 0010 0B22     		mov	r2, #11
 1600              	.LVL195:
 1601 0012 FFF7FEFF 		bl	memset
 1602              	.LVL196:
 323:.\write.c     **** 	for(i = 0; (i < 8) && name[i] && (name[i] != '.'); i++) 
 1603              		.loc 1 323 0
 1604 0016 0024     		mov	r4, #0
 1605 0018 0BE0     		b	.L112
 1606              	.LVL197:
 1607              	.L116:
 324:.\write.c     **** 		sname[i] = toupper(name[i]);
 1608              		.loc 1 324 0
 1609 001a B218     		add	r2, r6, r2
 1610              	.LVL198:
 1611              	.LBB205:
 1612 001c 2449     		ldr	r1, .L128
 1613 001e 0968     		ldr	r1, [r1]
 1614 0020 C918     		add	r1, r1, r3
 1615 0022 4978     		ldrb	r1, [r1, #1]
 1616 0024 0320     		mov	r0, #3
 1617 0026 0140     		and	r1, r0
 1618 0028 0229     		cmp	r1, #2
 1619 002a 00D1     		bne	.L114
 1620              		.loc 1 324 0 is_stmt 0 discriminator 1
 1621 002c 203B     		sub	r3, r3, #32
 1622              	.LVL199:
 1623              	.L114:
 1624              	.LBE205:
 1625              		.loc 1 324 0 discriminator 4
 1626 002e 1370     		strb	r3, [r2]
 323:.\write.c     **** 	for(i = 0; (i < 8) && name[i] && (name[i] != '.'); i++) 
 1627              		.loc 1 323 0 is_stmt 1 discriminator 4
 1628 0030 0134     		add	r4, r4, #1
 1629              	.LVL200:
 1630              	.L112:
 323:.\write.c     **** 	for(i = 0; (i < 8) && name[i] && (name[i] != '.'); i++) 
 1631              		.loc 1 323 0 is_stmt 0 discriminator 2
 1632 0032 072C     		cmp	r4, #7
 1633 0034 05DC     		bgt	.L115
 323:.\write.c     **** 	for(i = 0; (i < 8) && name[i] && (name[i] != '.'); i++) 
 1634              		.loc 1 323 0 discriminator 3
 1635 0036 221C     		mov	r2, r4
 1636 0038 3B5D     		ldrb	r3, [r7, r4]
ARM GAS  C:\Users\Petro\AppData\Local\Temp\ccPFwMgj.s 			page 40


 1637 003a 002B     		cmp	r3, #0
 1638 003c 01D0     		beq	.L115
 323:.\write.c     **** 	for(i = 0; (i < 8) && name[i] && (name[i] != '.'); i++) 
 1639              		.loc 1 323 0 discriminator 4
 1640 003e 2E2B     		cmp	r3, #46
 1641 0040 EBD1     		bne	.L116
 1642              	.L115:
 325:.\write.c     **** 	
 326:.\write.c     **** 	char *suffix = strrchr(name, '.');
 1643              		.loc 1 326 0 is_stmt 1
 1644 0042 381C     		mov	r0, r7
 1645 0044 2E21     		mov	r1, #46
 1646 0046 FFF7FEFF 		bl	strrchr
 1647              	.LVL201:
 1648 004a 051E     		sub	r5, r0, #0
 1649              	.LVL202:
 327:.\write.c     **** 	if(suffix) for(j = 1; (j < 4) && suffix[j]; j++) 
 1650              		.loc 1 327 0
 1651 004c 10D1     		bne	.L126
 1652 004e 15E0     		b	.L118
 1653              	.LVL203:
 1654              	.L121:
 328:.\write.c     **** 		sname[j+7] = toupper(suffix[j]);
 1655              		.loc 1 328 0
 1656 0050 D11D     		add	r1, r2, #7
 1657 0052 8C46     		mov	ip, r1
 1658 0054 B444     		add	ip, ip, r6
 1659              	.LVL204:
 1660              	.LBB206:
 1661 0056 1648     		ldr	r0, .L128
 1662 0058 0068     		ldr	r0, [r0]
 1663 005a C018     		add	r0, r0, r3
 1664 005c 4078     		ldrb	r0, [r0, #1]
 1665 005e 0321     		mov	r1, #3
 1666 0060 0840     		and	r0, r1
 1667 0062 0228     		cmp	r0, #2
 1668 0064 00D1     		bne	.L120
 1669              		.loc 1 328 0 is_stmt 0 discriminator 1
 1670 0066 203B     		sub	r3, r3, #32
 1671              	.LVL205:
 1672              	.L120:
 1673              	.LBE206:
 1674              		.loc 1 328 0 discriminator 4
 1675 0068 6146     		mov	r1, ip
 1676 006a 0B70     		strb	r3, [r1]
 327:.\write.c     **** 	if(suffix) for(j = 1; (j < 4) && suffix[j]; j++) 
 1677              		.loc 1 327 0 is_stmt 1 discriminator 4
 1678 006c 0132     		add	r2, r2, #1
 1679              	.LVL206:
 1680 006e 00E0     		b	.L117
 1681              	.LVL207:
 1682              	.L126:
 1683 0070 0122     		mov	r2, #1
 1684              	.LVL208:
 1685              	.L117:
 327:.\write.c     **** 	if(suffix) for(j = 1; (j < 4) && suffix[j]; j++) 
 1686              		.loc 1 327 0 is_stmt 0 discriminator 3
ARM GAS  C:\Users\Petro\AppData\Local\Temp\ccPFwMgj.s 			page 41


 1687 0072 032A     		cmp	r2, #3
 1688 0074 02DC     		bgt	.L118
 327:.\write.c     **** 	if(suffix) for(j = 1; (j < 4) && suffix[j]; j++) 
 1689              		.loc 1 327 0 discriminator 4
 1690 0076 AB5C     		ldrb	r3, [r5, r2]
 1691 0078 002B     		cmp	r3, #0
 1692 007a E9D1     		bne	.L121
 1693              	.LVL209:
 1694              	.L118:
 329:.\write.c     **** 
 330:.\write.c     **** 	if(((i == 8) && (name[i] != '.')) ||
 1695              		.loc 1 330 0 is_stmt 1
 1696 007c 082C     		cmp	r4, #8
 1697 007e 02D1     		bne	.L122
 1698              		.loc 1 330 0 is_stmt 0 discriminator 1
 1699 0080 3B5D     		ldrb	r3, [r7, r4]
 1700 0082 2E2B     		cmp	r3, #46
 1701 0084 02D1     		bne	.L123
 1702              	.L122:
 331:.\write.c     **** 	   ((suffix - name) != i)) {
 1703              		.loc 1 331 0 is_stmt 1 discriminator 3
 1704 0086 EF1B     		sub	r7, r5, r7
 1705              	.LVL210:
 330:.\write.c     **** 	   ((suffix - name) != i)) {
 1706              		.loc 1 330 0 discriminator 3
 1707 0088 A742     		cmp	r7, r4
 1708 008a 0CD0     		beq	.L111
 1709              	.L123:
 332:.\write.c     **** 		if(i > 6) 
 1710              		.loc 1 332 0
 1711 008c 062C     		cmp	r4, #6
 1712 008e 00DD     		ble	.L125
 333:.\write.c     **** 			i = 6;
 1713              		.loc 1 333 0
 1714 0090 0624     		mov	r4, #6
 1715              	.LVL211:
 1716              	.L125:
 334:.\write.c     **** 		sname[i] = '~';
 1717              		.loc 1 334 0
 1718 0092 7E23     		mov	r3, #126
 1719 0094 3355     		strb	r3, [r6, r4]
 335:.\write.c     **** 		sname[i+1] = '0' + (n % 10);
 1720              		.loc 1 335 0
 1721 0096 0134     		add	r4, r4, #1
 1722              	.LVL212:
 1723 0098 3419     		add	r4, r6, r4
 1724              	.LVL213:
 1725 009a 0198     		ldr	r0, [sp, #4]
 1726 009c 0A21     		mov	r1, #10
 1727 009e FFF7FEFF 		bl	__aeabi_idivmod
 1728              	.LVL214:
 1729 00a2 3031     		add	r1, r1, #48
 1730 00a4 2170     		strb	r1, [r4]
 1731              	.L111:
 336:.\write.c     **** 	}
 337:.\write.c     **** }
 1732              		.loc 1 337 0
ARM GAS  C:\Users\Petro\AppData\Local\Temp\ccPFwMgj.s 			page 42


 1733 00a6 02B0     		add	sp, sp, #8
 1734              		@ sp needed
 1735              	.LVL215:
 1736              	.LVL216:
 1737 00a8 04BC     		pop	{r2}
 1738 00aa 9046     		mov	r8, r2
 1739 00ac F0BD     		pop	{r4, r5, r6, r7, pc}
 1740              	.L129:
 1741 00ae C046     		.align	2
 1742              	.L128:
 1743 00b0 00000000 		.word	__ctype_ptr__
 1744              		.cfi_endproc
 1745              	.LFE27:
 1746              		.size	build_short_name, .-build_short_name
 1747              		.section	.text.fat_file_sync,"ax",%progbits
 1748              		.align	2
 1749              		.global	fat_file_sync
 1750              		.code	16
 1751              		.thumb_func
 1752              		.type	fat_file_sync, %function
 1753              	fat_file_sync:
 1754              	.LFB23:
 200:.\write.c     **** 	struct fat_sdirent *dirent;
 1755              		.loc 1 200 0
 1756              		.cfi_startproc
 1757              	.LVL217:
 1758 0000 38B5     		push	{r3, r4, r5, lr}
 1759              		.cfi_def_cfa_offset 16
 1760              		.cfi_offset 3, -16
 1761              		.cfi_offset 4, -12
 1762              		.cfi_offset 5, -8
 1763              		.cfi_offset 14, -4
 1764 0002 041C     		mov	r4, r0
 203:.\write.c     **** 	dirent = (void*)&_fat_sector_buf[h->dirent_offset];
 1765              		.loc 1 203 0
 1766 0004 394B     		ldr	r3, .L142
 1767 0006 5868     		ldr	r0, [r3, #4]
 1768              	.LVL218:
 1769 0008 2368     		ldr	r3, [r4]
 1770 000a 1B68     		ldr	r3, [r3]
 1771 000c 9842     		cmp	r0, r3
 1772 000e 04D1     		bne	.L131
 203:.\write.c     **** 	dirent = (void*)&_fat_sector_buf[h->dirent_offset];
 1773              		.loc 1 203 0 is_stmt 0 discriminator 1
 1774 0010 364B     		ldr	r3, .L142
 1775 0012 9B68     		ldr	r3, [r3, #8]
 1776 0014 E269     		ldr	r2, [r4, #28]
 1777 0016 9342     		cmp	r3, r2
 1778 0018 1CD0     		beq	.L132
 1779              	.L131:
 203:.\write.c     **** 	dirent = (void*)&_fat_sector_buf[h->dirent_offset];
 1780              		.loc 1 203 0 discriminator 3
 1781 001a 344B     		ldr	r3, .L142
 1782 001c 1B7B     		ldrb	r3, [r3, #12]
 1783 001e 002B     		cmp	r3, #0
 1784 0020 07D0     		beq	.L133
 203:.\write.c     **** 	dirent = (void*)&_fat_sector_buf[h->dirent_offset];
ARM GAS  C:\Users\Petro\AppData\Local\Temp\ccPFwMgj.s 			page 43


 1785              		.loc 1 203 0 discriminator 4
 1786 0022 324B     		ldr	r3, .L142
 1787 0024 9968     		ldr	r1, [r3, #8]
 1788              	.LVL219:
 1789              	.LBB207:
 1790              	.LBB208:
 1791              		.loc 2 72 0 is_stmt 1 discriminator 4
 1792 0026 8568     		ldr	r5, [r0, #8]
 1793 0028 0122     		mov	r2, #1
 1794 002a 314B     		ldr	r3, .L142+4
 1795 002c A847     		blx	r5
 1796              	.LVL220:
 1797              	.LBE208:
 1798              	.LBE207:
 203:.\write.c     **** 	dirent = (void*)&_fat_sector_buf[h->dirent_offset];
 1799              		.loc 1 203 0 discriminator 4
 1800 002e 0128     		cmp	r0, #1
 1801 0030 4FD1     		bne	.L138
 1802              	.LVL221:
 1803              	.L133:
 203:.\write.c     **** 	dirent = (void*)&_fat_sector_buf[h->dirent_offset];
 1804              		.loc 1 203 0 is_stmt 0 discriminator 7
 1805 0032 2E4B     		ldr	r3, .L142
 1806 0034 0022     		mov	r2, #0
 1807 0036 1A73     		strb	r2, [r3, #12]
 1808 0038 2268     		ldr	r2, [r4]
 1809 003a 1268     		ldr	r2, [r2]
 1810 003c 5A60     		str	r2, [r3, #4]
 1811 003e E269     		ldr	r2, [r4, #28]
 1812 0040 9A60     		str	r2, [r3, #8]
 1813 0042 2368     		ldr	r3, [r4]
 1814 0044 1868     		ldr	r0, [r3]
 1815              	.LVL222:
 1816              	.LBB209:
 1817              	.LBB210:
  64:.\openfat/blockdev.h **** }
 1818              		.loc 2 64 0 is_stmt 1 discriminator 7
 1819 0046 4568     		ldr	r5, [r0, #4]
 1820 0048 111C     		mov	r1, r2
 1821 004a 0122     		mov	r2, #1
 1822              	.LVL223:
 1823 004c 284B     		ldr	r3, .L142+4
 1824 004e A847     		blx	r5
 1825              	.LVL224:
 1826              	.LBE210:
 1827              	.LBE209:
 203:.\write.c     **** 	dirent = (void*)&_fat_sector_buf[h->dirent_offset];
 1828              		.loc 1 203 0 discriminator 7
 1829 0050 0128     		cmp	r0, #1
 1830 0052 41D1     		bne	.L139
 1831              	.LVL225:
 1832              	.L132:
 204:.\write.c     **** 	__put_le32(&dirent->size, h->size);
 1833              		.loc 1 204 0
 1834 0054 228C     		ldrh	r2, [r4, #32]
 1835 0056 264B     		ldr	r3, .L142+4
 1836 0058 D318     		add	r3, r2, r3
ARM GAS  C:\Users\Petro\AppData\Local\Temp\ccPFwMgj.s 			page 44


 1837              	.LVL226:
 205:.\write.c     **** 	__put_le16(&dirent->cluster_hi, h->first_cluster >> 16);
 1838              		.loc 1 205 0
 1839 005a 6268     		ldr	r2, [r4, #4]
 1840              	.LVL227:
 1841              	.LBB211:
 1842              	.LBB212:
 1843              	.LBB213:
 1844              	.LBB214:
  38:.\openfat/leaccess.h **** 	*((uint8_t *)p + 1) = v >> 8;
 1845              		.loc 3 38 0
 1846 005c 1A77     		strb	r2, [r3, #28]
  39:.\openfat/leaccess.h **** }
 1847              		.loc 3 39 0
 1848 005e 110A     		lsr	r1, r2, #8
 1849 0060 5977     		strb	r1, [r3, #29]
 1850              	.LBE214:
 1851              	.LBE213:
 1852              		.loc 3 51 0
 1853 0062 120C     		lsr	r2, r2, #16
 1854              	.LVL228:
 1855              	.LBB215:
 1856              	.LBB216:
  38:.\openfat/leaccess.h **** 	*((uint8_t *)p + 1) = v >> 8;
 1857              		.loc 3 38 0
 1858 0064 9A77     		strb	r2, [r3, #30]
  39:.\openfat/leaccess.h **** }
 1859              		.loc 3 39 0
 1860 0066 120A     		lsr	r2, r2, #8
 1861              	.LVL229:
 1862 0068 DA77     		strb	r2, [r3, #31]
 1863              	.LBE216:
 1864              	.LBE215:
 1865              	.LBE212:
 1866              	.LBE211:
 206:.\write.c     **** 	__put_le16(&dirent->cluster_lo, h->first_cluster & 0xFFFF);
 1867              		.loc 1 206 0
 1868 006a 6289     		ldrh	r2, [r4, #10]
 1869              	.LVL230:
 1870              	.LBB217:
 1871              	.LBB218:
  38:.\openfat/leaccess.h **** 	*((uint8_t *)p + 1) = v >> 8;
 1872              		.loc 3 38 0
 1873 006c 1A75     		strb	r2, [r3, #20]
  39:.\openfat/leaccess.h **** }
 1874              		.loc 3 39 0
 1875 006e 120A     		lsr	r2, r2, #8
 1876              	.LVL231:
 1877 0070 5A75     		strb	r2, [r3, #21]
 1878              	.LBE218:
 1879              	.LBE217:
 207:.\write.c     **** 	FAT_PUT_SECTOR(h->fat, h->dirent_sector);
 1880              		.loc 1 207 0
 1881 0072 A268     		ldr	r2, [r4, #8]
 1882              	.LVL232:
 1883              	.LBB219:
 1884              	.LBB220:
ARM GAS  C:\Users\Petro\AppData\Local\Temp\ccPFwMgj.s 			page 45


  38:.\openfat/leaccess.h **** 	*((uint8_t *)p + 1) = v >> 8;
 1885              		.loc 3 38 0
 1886 0074 9A76     		strb	r2, [r3, #26]
  39:.\openfat/leaccess.h **** }
 1887              		.loc 3 39 0
 1888 0076 120A     		lsr	r2, r2, #8
 1889              	.LVL233:
 1890 0078 DA76     		strb	r2, [r3, #27]
 1891              	.LBE220:
 1892              	.LBE219:
 208:.\write.c     **** 	FAT_FLUSH_SECTOR();
 1893              		.loc 1 208 0
 1894 007a 1C4B     		ldr	r3, .L142
 1895              	.LVL234:
 1896 007c 5868     		ldr	r0, [r3, #4]
 1897 007e 2368     		ldr	r3, [r4]
 1898 0080 1B68     		ldr	r3, [r3]
 1899 0082 9842     		cmp	r0, r3
 1900 0084 04D1     		bne	.L135
 208:.\write.c     **** 	FAT_FLUSH_SECTOR();
 1901              		.loc 1 208 0 is_stmt 0 discriminator 2
 1902 0086 194B     		ldr	r3, .L142
 1903 0088 9B68     		ldr	r3, [r3, #8]
 1904 008a E269     		ldr	r2, [r4, #28]
 1905 008c 9342     		cmp	r3, r2
 1906 008e 0ED0     		beq	.L136
 1907              	.L135:
 208:.\write.c     **** 	FAT_FLUSH_SECTOR();
 1908              		.loc 1 208 0 discriminator 3
 1909 0090 164B     		ldr	r3, .L142
 1910 0092 1B7B     		ldrb	r3, [r3, #12]
 1911 0094 002B     		cmp	r3, #0
 1912 0096 07D0     		beq	.L137
 208:.\write.c     **** 	FAT_FLUSH_SECTOR();
 1913              		.loc 1 208 0 discriminator 5
 1914 0098 144B     		ldr	r3, .L142
 1915 009a 9968     		ldr	r1, [r3, #8]
 1916              	.LVL235:
 1917              	.LBB221:
 1918              	.LBB222:
 1919              		.loc 2 72 0 is_stmt 1 discriminator 5
 1920 009c 8568     		ldr	r5, [r0, #8]
 1921 009e 0122     		mov	r2, #1
 1922 00a0 134B     		ldr	r3, .L142+4
 1923 00a2 A847     		blx	r5
 1924              	.LVL236:
 1925              	.LBE222:
 1926              	.LBE221:
 208:.\write.c     **** 	FAT_FLUSH_SECTOR();
 1927              		.loc 1 208 0 discriminator 5
 1928 00a4 0128     		cmp	r0, #1
 1929 00a6 1AD1     		bne	.L140
 1930              	.LVL237:
 1931              	.L137:
 208:.\write.c     **** 	FAT_FLUSH_SECTOR();
 1932              		.loc 1 208 0 is_stmt 0 discriminator 8
 1933 00a8 0022     		mov	r2, #0
ARM GAS  C:\Users\Petro\AppData\Local\Temp\ccPFwMgj.s 			page 46


 1934 00aa 104B     		ldr	r3, .L142
 1935 00ac 1A73     		strb	r2, [r3, #12]
 1936              	.L136:
 208:.\write.c     **** 	FAT_FLUSH_SECTOR();
 1937              		.loc 1 208 0 discriminator 9
 1938 00ae 2368     		ldr	r3, [r4]
 1939 00b0 1868     		ldr	r0, [r3]
 1940 00b2 0E4B     		ldr	r3, .L142
 1941 00b4 5860     		str	r0, [r3, #4]
 1942 00b6 E169     		ldr	r1, [r4, #28]
 1943 00b8 9960     		str	r1, [r3, #8]
 1944 00ba 0122     		mov	r2, #1
 1945 00bc 1A73     		strb	r2, [r3, #12]
 1946              	.LVL238:
 1947              	.LBB223:
 1948              	.LBB224:
 1949              		.loc 2 72 0 is_stmt 1 discriminator 9
 1950 00be 8468     		ldr	r4, [r0, #8]
 1951              	.LVL239:
 1952 00c0 0B4B     		ldr	r3, .L142+4
 1953 00c2 A047     		blx	r4
 1954              	.LVL240:
 1955              	.LBE224:
 1956              	.LBE223:
 209:.\write.c     **** 	return 0;
 1957              		.loc 1 209 0 discriminator 9
 1958 00c4 0128     		cmp	r0, #1
 1959 00c6 0DD1     		bne	.L141
 209:.\write.c     **** 	return 0;
 1960              		.loc 1 209 0 is_stmt 0 discriminator 4
 1961 00c8 0022     		mov	r2, #0
 1962 00ca 084B     		ldr	r3, .L142
 1963 00cc 1A73     		strb	r2, [r3, #12]
 210:.\write.c     **** }
 1964              		.loc 1 210 0 is_stmt 1 discriminator 4
 1965 00ce 0020     		mov	r0, #0
 1966 00d0 0AE0     		b	.L134
 1967              	.LVL241:
 1968              	.L138:
 203:.\write.c     **** 	dirent = (void*)&_fat_sector_buf[h->dirent_offset];
 1969              		.loc 1 203 0
 1970 00d2 0520     		mov	r0, #5
 1971 00d4 4042     		neg	r0, r0
 1972 00d6 07E0     		b	.L134
 1973              	.LVL242:
 1974              	.L139:
 1975 00d8 0520     		mov	r0, #5
 1976 00da 4042     		neg	r0, r0
 1977 00dc 04E0     		b	.L134
 1978              	.LVL243:
 1979              	.L140:
 208:.\write.c     **** 	FAT_FLUSH_SECTOR();
 1980              		.loc 1 208 0
 1981 00de 0520     		mov	r0, #5
 1982 00e0 4042     		neg	r0, r0
 1983 00e2 01E0     		b	.L134
 1984              	.LVL244:
ARM GAS  C:\Users\Petro\AppData\Local\Temp\ccPFwMgj.s 			page 47


 1985              	.L141:
 209:.\write.c     **** 	return 0;
 1986              		.loc 1 209 0
 1987 00e4 0520     		mov	r0, #5
 1988 00e6 4042     		neg	r0, r0
 1989              	.LVL245:
 1990              	.L134:
 211:.\write.c     **** 
 1991              		.loc 1 211 0
 1992              		@ sp needed
 1993 00e8 38BD     		pop	{r3, r4, r5, pc}
 1994              	.L143:
 1995 00ea C046     		.align	2
 1996              	.L142:
 1997 00ec 00000000 		.word	_fat_cache
 1998 00f0 00000000 		.word	_fat_sector_buf
 1999              		.cfi_endproc
 2000              	.LFE23:
 2001              		.size	fat_file_sync, .-fat_file_sync
 2002              		.section	.text.fat_write,"ax",%progbits
 2003              		.align	2
 2004              		.global	fat_write
 2005              		.code	16
 2006              		.thumb_func
 2007              		.type	fat_write, %function
 2008              	fat_write:
 2009              	.LFB24:
 215:.\write.c     **** 	int i;
 2010              		.loc 1 215 0
 2011              		.cfi_startproc
 2012              	.LVL246:
 2013 0000 F0B5     		push	{r4, r5, r6, r7, lr}
 2014              		.cfi_def_cfa_offset 20
 2015              		.cfi_offset 4, -20
 2016              		.cfi_offset 5, -16
 2017              		.cfi_offset 6, -12
 2018              		.cfi_offset 7, -8
 2019              		.cfi_offset 14, -4
 2020 0002 4F46     		mov	r7, r9
 2021 0004 4646     		mov	r6, r8
 2022 0006 C0B4     		push	{r6, r7}
 2023              		.cfi_def_cfa_offset 28
 2024              		.cfi_offset 8, -28
 2025              		.cfi_offset 9, -24
 2026 0008 83B0     		sub	sp, sp, #12
 2027              		.cfi_def_cfa_offset 40
 2028 000a 051C     		mov	r5, r0
 2029 000c 8946     		mov	r9, r1
 2030 000e 9046     		mov	r8, r2
 220:.\write.c     **** 		/* File was empty, allocate first cluster. */
 2031              		.loc 1 220 0
 2032 0010 0369     		ldr	r3, [r0, #16]
 2033 0012 002B     		cmp	r3, #0
 2034 0014 1BD1     		bne	.L145
 220:.\write.c     **** 		/* File was empty, allocate first cluster. */
 2035              		.loc 1 220 0 is_stmt 0 discriminator 1
 2036 0016 002A     		cmp	r2, #0
ARM GAS  C:\Users\Petro\AppData\Local\Temp\ccPFwMgj.s 			page 48


 2037 0018 19D0     		beq	.L145
 222:.\write.c     **** 		if(!h->first_cluster) 
 2038              		.loc 1 222 0 is_stmt 1
 2039 001a 0068     		ldr	r0, [r0]
 2040              	.LVL247:
 2041 001c FFF7FEFF 		bl	fat_find_free_cluster
 2042              	.LVL248:
 2043 0020 011E     		sub	r1, r0, #0
 2044 0022 A860     		str	r0, [r5, #8]
 223:.\write.c     **** 			return 0;
 2045              		.loc 1 223 0
 2046 0024 00D1     		bne	.LCB2585
 2047 0026 D5E0     		b	.L166	@long jump
 2048              	.LCB2585:
 225:.\write.c     **** 		/* Write end of chain marker in new cluster */
 2049              		.loc 1 225 0
 2050 0028 2861     		str	r0, [r5, #16]
 227:.\write.c     **** 		/* Directory entry will be updated with size after the
 2051              		.loc 1 227 0
 2052 002a 2868     		ldr	r0, [r5]
 2053              	.LVL249:
 2054              	.LBB225:
 2055              	.LBB226:
  46:.\fat_core.h  **** 	case FAT_TYPE_FAT12:
 2056              		.loc 4 46 0
 2057 002c 4368     		ldr	r3, [r0, #4]
 2058 002e 102B     		cmp	r3, #16
 2059 0030 0AD0     		beq	.L167
 2060 0032 202B     		cmp	r3, #32
 2061 0034 03D0     		beq	.L149
 2062 0036 0C2B     		cmp	r3, #12
 2063 0038 03D1     		bne	.L172
  48:.\fat_core.h  **** 	case FAT_TYPE_FAT16:
 2064              		.loc 4 48 0
 2065 003a 6F4A     		ldr	r2, .L173
 2066 003c 05E0     		b	.L148
 2067              	.L149:
  52:.\fat_core.h  **** 	}
 2068              		.loc 4 52 0
 2069 003e 6F4A     		ldr	r2, .L173+4
 2070 0040 03E0     		b	.L148
 2071              	.L172:
  54:.\fat_core.h  **** }
 2072              		.loc 4 54 0
 2073 0042 0122     		mov	r2, #1
 2074 0044 5242     		neg	r2, r2
 2075 0046 00E0     		b	.L148
 2076              	.L167:
  50:.\fat_core.h  **** 	case FAT_TYPE_FAT32:
 2077              		.loc 4 50 0
 2078 0048 6D4A     		ldr	r2, .L173+8
 2079              	.L148:
 2080              	.LBE226:
 2081              	.LBE225:
 227:.\write.c     **** 		/* Directory entry will be updated with size after the
 2082              		.loc 1 227 0
 2083 004a FFF7FEFF 		bl	fat_set_next_cluster
ARM GAS  C:\Users\Petro\AppData\Local\Temp\ccPFwMgj.s 			page 49


 2084              	.LVL250:
 2085              	.L145:
 234:.\write.c     **** 		size = h->size - h->position;
 2086              		.loc 1 234 0
 2087 004e 2B7D     		ldrb	r3, [r5, #20]
 2088 0050 002B     		cmp	r3, #0
 2089 0052 07D0     		beq	.L151
 234:.\write.c     **** 		size = h->size - h->position;
 2090              		.loc 1 234 0 is_stmt 0 discriminator 1
 2091 0054 EB68     		ldr	r3, [r5, #12]
 2092 0056 4246     		mov	r2, r8
 2093 0058 9918     		add	r1, r3, r2
 2094 005a 6A68     		ldr	r2, [r5, #4]
 2095 005c 9142     		cmp	r1, r2
 2096 005e 01D9     		bls	.L151
 235:.\write.c     **** 
 2097              		.loc 1 235 0 is_stmt 1
 2098 0060 D31A     		sub	r3, r2, r3
 2099 0062 9846     		mov	r8, r3
 2100              	.LVL251:
 2101              	.L151:
 237:.\write.c     **** 
 2102              		.loc 1 237 0
 2103 0064 281C     		mov	r0, r5
 2104 0066 01A9     		add	r1, sp, #4
 2105 0068 6B46     		mov	r3, sp
 2106 006a 9A1C     		add	r2, r3, #2
 2107 006c FFF7FEFF 		bl	_fat_file_sector_offset
 2108              	.LVL252:
 239:.\write.c     **** 		uint16_t chunk = MIN(h->fat->bytes_per_sector - offset, 
 2109              		.loc 1 239 0
 2110 0070 0027     		mov	r7, #0
 2111 0072 9CE0     		b	.L152
 2112              	.LVL253:
 2113              	.L164:
 2114              	.LBB227:
 240:.\write.c     **** 					size - i);
 2115              		.loc 1 240 0
 2116 0074 2968     		ldr	r1, [r5]
 2117 0076 0A89     		ldrh	r2, [r1, #8]
 2118 0078 6B46     		mov	r3, sp
 2119 007a 0233     		add	r3, r3, #2
 2120 007c 1B88     		ldrh	r3, [r3]
 2121 007e D31A     		sub	r3, r2, r3
 2122 0080 4046     		mov	r0, r8
 2123 0082 C41B     		sub	r4, r0, r7
 2124 0084 9C42     		cmp	r4, r3
 2125 0086 00DD     		ble	.L153
 2126              	.LVL254:
 2127 0088 1C1C     		mov	r4, r3
 2128              	.L153:
 2129 008a A3B2     		uxth	r3, r4
 2130              	.LVL255:
 242:.\write.c     **** 			FAT_GET_SECTOR(h->fat, sector);
 2131              		.loc 1 242 0
 2132 008c 9A42     		cmp	r2, r3
 2133 008e 28D9     		bls	.L154
ARM GAS  C:\Users\Petro\AppData\Local\Temp\ccPFwMgj.s 			page 50


 243:.\write.c     **** 		else
 2134              		.loc 1 243 0
 2135 0090 5C4B     		ldr	r3, .L173+12
 2136              	.LVL256:
 2137 0092 5868     		ldr	r0, [r3, #4]
 2138              	.LVL257:
 2139 0094 0B68     		ldr	r3, [r1]
 2140 0096 9842     		cmp	r0, r3
 2141 0098 04D1     		bne	.L155
 243:.\write.c     **** 		else
 2142              		.loc 1 243 0 is_stmt 0 discriminator 1
 2143 009a 5A4B     		ldr	r3, .L173+12
 2144 009c 9B68     		ldr	r3, [r3, #8]
 2145 009e 019A     		ldr	r2, [sp, #4]
 2146 00a0 9342     		cmp	r3, r2
 2147 00a2 2ED0     		beq	.L156
 2148              	.L155:
 243:.\write.c     **** 		else
 2149              		.loc 1 243 0 discriminator 3
 2150 00a4 574B     		ldr	r3, .L173+12
 2151 00a6 1B7B     		ldrb	r3, [r3, #12]
 2152 00a8 002B     		cmp	r3, #0
 2153 00aa 08D0     		beq	.L157
 243:.\write.c     **** 		else
 2154              		.loc 1 243 0 discriminator 4
 2155 00ac 554B     		ldr	r3, .L173+12
 2156 00ae 9968     		ldr	r1, [r3, #8]
 2157              	.LVL258:
 2158              	.LBB228:
 2159              	.LBB229:
 2160              		.loc 2 72 0 is_stmt 1 discriminator 4
 2161 00b0 8668     		ldr	r6, [r0, #8]
 2162 00b2 0122     		mov	r2, #1
 2163 00b4 544B     		ldr	r3, .L173+16
 2164 00b6 B047     		blx	r6
 2165              	.LVL259:
 2166              	.LBE229:
 2167              	.LBE228:
 243:.\write.c     **** 		else
 2168              		.loc 1 243 0 discriminator 4
 2169 00b8 0128     		cmp	r0, #1
 2170 00ba 00D0     		beq	.LCB2714
 2171 00bc 8CE0     		b	.L168	@long jump
 2172              	.LCB2714:
 2173              	.LVL260:
 2174              	.L157:
 243:.\write.c     **** 		else
 2175              		.loc 1 243 0 is_stmt 0 discriminator 7
 2176 00be 514B     		ldr	r3, .L173+12
 2177 00c0 0022     		mov	r2, #0
 2178 00c2 1A73     		strb	r2, [r3, #12]
 2179 00c4 2A68     		ldr	r2, [r5]
 2180 00c6 1268     		ldr	r2, [r2]
 2181 00c8 5A60     		str	r2, [r3, #4]
 2182 00ca 019A     		ldr	r2, [sp, #4]
 2183 00cc 9A60     		str	r2, [r3, #8]
 2184 00ce 2B68     		ldr	r3, [r5]
ARM GAS  C:\Users\Petro\AppData\Local\Temp\ccPFwMgj.s 			page 51


 2185 00d0 1868     		ldr	r0, [r3]
 2186              	.LVL261:
 2187              	.LBB230:
 2188              	.LBB231:
  64:.\openfat/blockdev.h **** }
 2189              		.loc 2 64 0 is_stmt 1 discriminator 7
 2190 00d2 4668     		ldr	r6, [r0, #4]
 2191 00d4 111C     		mov	r1, r2
 2192 00d6 0122     		mov	r2, #1
 2193              	.LVL262:
 2194 00d8 4B4B     		ldr	r3, .L173+16
 2195 00da B047     		blx	r6
 2196              	.LVL263:
 2197              	.LBE231:
 2198              	.LBE230:
 243:.\write.c     **** 		else
 2199              		.loc 1 243 0 discriminator 7
 2200 00dc 0128     		cmp	r0, #1
 2201 00de 10D0     		beq	.L156
 2202 00e0 7DE0     		b	.L169
 2203              	.LVL264:
 2204              	.L154:
 245:.\write.c     **** 
 2205              		.loc 1 245 0
 2206 00e2 484B     		ldr	r3, .L173+12
 2207              	.LVL265:
 2208 00e4 1B7B     		ldrb	r3, [r3, #12]
 2209 00e6 002B     		cmp	r3, #0
 2210 00e8 08D0     		beq	.L158
 245:.\write.c     **** 
 2211              		.loc 1 245 0 is_stmt 0 discriminator 1
 2212 00ea 464B     		ldr	r3, .L173+12
 2213 00ec 5868     		ldr	r0, [r3, #4]
 2214              	.LVL266:
 2215 00ee 9968     		ldr	r1, [r3, #8]
 2216              	.LVL267:
 2217              	.LBB232:
 2218              	.LBB233:
 2219              		.loc 2 72 0 is_stmt 1 discriminator 1
 2220 00f0 8668     		ldr	r6, [r0, #8]
 2221 00f2 0122     		mov	r2, #1
 2222 00f4 444B     		ldr	r3, .L173+16
 2223 00f6 B047     		blx	r6
 2224              	.LVL268:
 2225              	.LBE233:
 2226              	.LBE232:
 245:.\write.c     **** 
 2227              		.loc 1 245 0 discriminator 1
 2228 00f8 0128     		cmp	r0, #1
 2229 00fa 73D1     		bne	.L170
 2230              	.LVL269:
 2231              	.L158:
 245:.\write.c     **** 
 2232              		.loc 1 245 0 is_stmt 0 discriminator 4
 2233 00fc 0022     		mov	r2, #0
 2234 00fe 414B     		ldr	r3, .L173+12
 2235 0100 1A73     		strb	r2, [r3, #12]
ARM GAS  C:\Users\Petro\AppData\Local\Temp\ccPFwMgj.s 			page 52


 2236              	.L156:
 2237 0102 2404     		lsl	r4, r4, #16
 2238              	.LVL270:
 2239 0104 240C     		lsr	r4, r4, #16
 247:.\write.c     **** 		FAT_PUT_SECTOR(h->fat, sector);
 2240              		.loc 1 247 0 is_stmt 1
 2241 0106 6B46     		mov	r3, sp
 2242 0108 5888     		ldrh	r0, [r3, #2]
 2243 010a 3F4B     		ldr	r3, .L173+16
 2244 010c C018     		add	r0, r0, r3
 2245 010e 4B46     		mov	r3, r9
 2246 0110 D919     		add	r1, r3, r7
 2247 0112 221C     		mov	r2, r4
 2248 0114 FFF7FEFF 		bl	memcpy
 2249              	.LVL271:
 248:.\write.c     **** 		h->position += chunk;
 2250              		.loc 1 248 0
 2251 0118 3A4B     		ldr	r3, .L173+12
 2252 011a 5868     		ldr	r0, [r3, #4]
 2253 011c 2B68     		ldr	r3, [r5]
 2254 011e 1B68     		ldr	r3, [r3]
 2255 0120 9842     		cmp	r0, r3
 2256 0122 04D1     		bne	.L159
 248:.\write.c     **** 		h->position += chunk;
 2257              		.loc 1 248 0 is_stmt 0 discriminator 2
 2258 0124 374B     		ldr	r3, .L173+12
 2259 0126 9B68     		ldr	r3, [r3, #8]
 2260 0128 019A     		ldr	r2, [sp, #4]
 2261 012a 9342     		cmp	r3, r2
 2262 012c 0ED0     		beq	.L160
 2263              	.L159:
 248:.\write.c     **** 		h->position += chunk;
 2264              		.loc 1 248 0 discriminator 3
 2265 012e 354B     		ldr	r3, .L173+12
 2266 0130 1B7B     		ldrb	r3, [r3, #12]
 2267 0132 002B     		cmp	r3, #0
 2268 0134 07D0     		beq	.L161
 248:.\write.c     **** 		h->position += chunk;
 2269              		.loc 1 248 0 discriminator 5
 2270 0136 334B     		ldr	r3, .L173+12
 2271 0138 9968     		ldr	r1, [r3, #8]
 2272              	.LVL272:
 2273              	.LBB234:
 2274              	.LBB235:
 2275              		.loc 2 72 0 is_stmt 1 discriminator 5
 2276 013a 8668     		ldr	r6, [r0, #8]
 2277 013c 0122     		mov	r2, #1
 2278 013e 324B     		ldr	r3, .L173+16
 2279 0140 B047     		blx	r6
 2280              	.LVL273:
 2281              	.LBE235:
 2282              	.LBE234:
 248:.\write.c     **** 		h->position += chunk;
 2283              		.loc 1 248 0 discriminator 5
 2284 0142 0128     		cmp	r0, #1
 2285 0144 51D1     		bne	.L171
 2286              	.LVL274:
ARM GAS  C:\Users\Petro\AppData\Local\Temp\ccPFwMgj.s 			page 53


 2287              	.L161:
 248:.\write.c     **** 		h->position += chunk;
 2288              		.loc 1 248 0 is_stmt 0 discriminator 8
 2289 0146 0022     		mov	r2, #0
 2290 0148 2E4B     		ldr	r3, .L173+12
 2291 014a 1A73     		strb	r2, [r3, #12]
 2292              	.L160:
 248:.\write.c     **** 		h->position += chunk;
 2293              		.loc 1 248 0 discriminator 9
 2294 014c 2B68     		ldr	r3, [r5]
 2295 014e 1A68     		ldr	r2, [r3]
 2296 0150 2C4B     		ldr	r3, .L173+12
 2297 0152 5A60     		str	r2, [r3, #4]
 2298 0154 019E     		ldr	r6, [sp, #4]
 2299 0156 9E60     		str	r6, [r3, #8]
 2300 0158 0122     		mov	r2, #1
 2301 015a 1A73     		strb	r2, [r3, #12]
 249:.\write.c     **** 		i += chunk;
 2302              		.loc 1 249 0 is_stmt 1 discriminator 9
 2303 015c EB68     		ldr	r3, [r5, #12]
 2304 015e E018     		add	r0, r4, r3
 2305 0160 E860     		str	r0, [r5, #12]
 250:.\write.c     **** 		if((h->position % h->fat->bytes_per_sector) != 0) 
 2306              		.loc 1 250 0 discriminator 9
 2307 0162 3F19     		add	r7, r7, r4
 2308              	.LVL275:
 251:.\write.c     **** 			/* we didn't write until the end of the sector... */
 2309              		.loc 1 251 0 discriminator 9
 2310 0164 2B68     		ldr	r3, [r5]
 2311 0166 1989     		ldrh	r1, [r3, #8]
 2312 0168 FFF7FEFF 		bl	__aeabi_uidivmod
 2313              	.LVL276:
 2314 016c 0029     		cmp	r1, #0
 2315 016e 21D1     		bne	.L162
 254:.\write.c     **** 		sector++;
 2316              		.loc 1 254 0
 2317 0170 0022     		mov	r2, #0
 2318 0172 6B46     		mov	r3, sp
 2319 0174 5A80     		strh	r2, [r3, #2]
 255:.\write.c     **** 		if(h->root_flag) /* FAT12/16 isn't a cluster chain */
 2320              		.loc 1 255 0
 2321 0176 701C     		add	r0, r6, #1
 2322 0178 0190     		str	r0, [sp, #4]
 256:.\write.c     **** 			continue;
 2323              		.loc 1 256 0
 2324 017a 2B7D     		ldrb	r3, [r5, #20]
 2325 017c 002B     		cmp	r3, #0
 2326 017e 16D1     		bne	.L152
 258:.\write.c     **** 			/* Go to next cluster... */
 2327              		.loc 1 258 0
 2328 0180 2C68     		ldr	r4, [r5]
 2329 0182 A17A     		ldrb	r1, [r4, #10]
 2330 0184 FFF7FEFF 		bl	__aeabi_uidivmod
 2331              	.LVL277:
 2332 0188 0029     		cmp	r1, #0
 2333 018a 10D1     		bne	.L152
 2334              	.LBB236:
ARM GAS  C:\Users\Petro\AppData\Local\Temp\ccPFwMgj.s 			page 54


 260:.\write.c     **** 						h->cur_cluster, h->size == 0);
 2335              		.loc 1 260 0
 2336 018c 6A68     		ldr	r2, [r5, #4]
 2337 018e 5342     		neg	r3, r2
 2338 0190 5A41     		adc	r2, r2, r3
 2339 0192 201C     		mov	r0, r4
 2340 0194 2969     		ldr	r1, [r5, #16]
 2341 0196 FFF7FEFF 		bl	fat_alloc_next_cluster
 2342              	.LVL278:
 262:.\write.c     **** 				break;
 2343              		.loc 1 262 0
 2344 019a 0028     		cmp	r0, #0
 2345 019c 0AD0     		beq	.L162
 264:.\write.c     **** 			sector = fat_first_sector_of_cluster(h->fat, 
 2346              		.loc 1 264 0
 2347 019e 2861     		str	r0, [r5, #16]
 265:.\write.c     **** 						h->cur_cluster);
 2348              		.loc 1 265 0
 2349 01a0 2B68     		ldr	r3, [r5]
 2350              	.LVL279:
 2351              	.LBB237:
 2352              	.LBB238:
 2353              		.loc 4 60 0
 2354 01a2 0238     		sub	r0, r0, #2
 2355              	.LVL280:
 2356 01a4 9A7A     		ldrb	r2, [r3, #10]
 2357 01a6 5043     		mul	r0, r2
 2358 01a8 1B69     		ldr	r3, [r3, #16]
 2359              	.LVL281:
 2360 01aa C018     		add	r0, r0, r3
 2361              	.LBE238:
 2362              	.LBE237:
 265:.\write.c     **** 						h->cur_cluster);
 2363              		.loc 1 265 0
 2364 01ac 0190     		str	r0, [sp, #4]
 2365              	.LVL282:
 2366              	.L152:
 2367              	.LBE236:
 2368              	.LBE227:
 239:.\write.c     **** 		uint16_t chunk = MIN(h->fat->bytes_per_sector - offset, 
 2369              		.loc 1 239 0 discriminator 1
 2370 01ae 4745     		cmp	r7, r8
 2371 01b0 00DA     		bge	.LCB2936
 2372 01b2 5FE7     		b	.L164	@long jump
 2373              	.LCB2936:
 2374              	.L162:
 270:.\write.c     **** 		/* Update directory entry with new size */
 2375              		.loc 1 270 0
 2376 01b4 EB69     		ldr	r3, [r5, #28]
 2377 01b6 002B     		cmp	r3, #0
 2378 01b8 0AD0     		beq	.L165
 270:.\write.c     **** 		/* Update directory entry with new size */
 2379              		.loc 1 270 0 is_stmt 0 discriminator 1
 2380 01ba EB68     		ldr	r3, [r5, #12]
 2381 01bc 6A68     		ldr	r2, [r5, #4]
 2382 01be 9342     		cmp	r3, r2
 2383 01c0 06D9     		bls	.L165
ARM GAS  C:\Users\Petro\AppData\Local\Temp\ccPFwMgj.s 			page 55


 272:.\write.c     **** 		if(!(h->flags & O_ASYNC))
 2384              		.loc 1 272 0 is_stmt 1
 2385 01c2 6B60     		str	r3, [r5, #4]
 273:.\write.c     **** 			fat_file_sync(h);
 2386              		.loc 1 273 0
 2387 01c4 AB69     		ldr	r3, [r5, #24]
 2388 01c6 9B04     		lsl	r3, r3, #18
 2389 01c8 02D4     		bmi	.L165
 274:.\write.c     **** 	}
 2390              		.loc 1 274 0
 2391 01ca 281C     		mov	r0, r5
 2392 01cc FFF7FEFF 		bl	fat_file_sync
 2393              	.LVL283:
 2394              	.L165:
 277:.\write.c     **** }
 2395              		.loc 1 277 0
 2396 01d0 381C     		mov	r0, r7
 2397 01d2 0CE0     		b	.L146
 2398              	.LVL284:
 2399              	.L166:
 224:.\write.c     **** 		h->cur_cluster = h->first_cluster;
 2400              		.loc 1 224 0
 2401 01d4 0020     		mov	r0, #0
 2402 01d6 0AE0     		b	.L146
 2403              	.LVL285:
 2404              	.L168:
 2405              	.LBB239:
 243:.\write.c     **** 		else
 2406              		.loc 1 243 0
 2407 01d8 0520     		mov	r0, #5
 2408 01da 4042     		neg	r0, r0
 2409 01dc 07E0     		b	.L146
 2410              	.LVL286:
 2411              	.L169:
 2412 01de 0520     		mov	r0, #5
 2413 01e0 4042     		neg	r0, r0
 2414 01e2 04E0     		b	.L146
 2415              	.LVL287:
 2416              	.L170:
 245:.\write.c     **** 
 2417              		.loc 1 245 0
 2418 01e4 0520     		mov	r0, #5
 2419 01e6 4042     		neg	r0, r0
 2420 01e8 01E0     		b	.L146
 2421              	.LVL288:
 2422              	.L171:
 248:.\write.c     **** 		h->position += chunk;
 2423              		.loc 1 248 0
 2424 01ea 0520     		mov	r0, #5
 2425 01ec 4042     		neg	r0, r0
 2426              	.LVL289:
 2427              	.L146:
 2428              	.LBE239:
 278:.\write.c     **** 
 2429              		.loc 1 278 0
 2430 01ee 03B0     		add	sp, sp, #12
 2431              		@ sp needed
ARM GAS  C:\Users\Petro\AppData\Local\Temp\ccPFwMgj.s 			page 56


 2432              	.LVL290:
 2433              	.LVL291:
 2434              	.LVL292:
 2435 01f0 0CBC     		pop	{r2, r3}
 2436 01f2 9046     		mov	r8, r2
 2437 01f4 9946     		mov	r9, r3
 2438 01f6 F0BD     		pop	{r4, r5, r6, r7, pc}
 2439              	.L174:
 2440              		.align	2
 2441              	.L173:
 2442 01f8 F80F0000 		.word	4088
 2443 01fc F8FFFF0F 		.word	268435448
 2444 0200 F8FF0000 		.word	65528
 2445 0204 00000000 		.word	_fat_cache
 2446 0208 00000000 		.word	_fat_sector_buf
 2447              		.cfi_endproc
 2448              	.LFE24:
 2449              		.size	fat_write, .-fat_write
 2450              		.section	.text.fat_unlink,"ax",%progbits
 2451              		.align	2
 2452              		.global	fat_unlink
 2453              		.code	16
 2454              		.thumb_func
 2455              		.type	fat_unlink, %function
 2456              	fat_unlink:
 2457              	.LFB26:
 292:.\write.c     **** 	struct fat_file_handle h;
 2458              		.loc 1 292 0
 2459              		.cfi_startproc
 2460              	.LVL293:
 2461 0000 30B5     		push	{r4, r5, lr}
 2462              		.cfi_def_cfa_offset 12
 2463              		.cfi_offset 4, -12
 2464              		.cfi_offset 5, -8
 2465              		.cfi_offset 14, -4
 2466 0002 8BB0     		sub	sp, sp, #44
 2467              		.cfi_def_cfa_offset 56
 2468 0004 041C     		mov	r4, r0
 296:.\write.c     **** 	if(ret)
 2469              		.loc 1 296 0
 2470 0006 0022     		mov	r2, #0
 2471 0008 01AB     		add	r3, sp, #4
 2472 000a FFF7FEFF 		bl	fat_open
 2473              	.LVL294:
 297:.\write.c     **** 		return ret;
 2474              		.loc 1 297 0
 2475 000e 0028     		cmp	r0, #0
 2476 0010 5DD1     		bne	.L176
 301:.\write.c     **** 		return -EISDIR;
 2477              		.loc 1 301 0
 2478 0012 089B     		ldr	r3, [sp, #32]
 2479 0014 002B     		cmp	r3, #0
 2480 0016 4FD0     		beq	.L184
 305:.\write.c     **** 
 2481              		.loc 1 305 0
 2482 0018 201C     		mov	r0, r4
 2483              	.LVL295:
ARM GAS  C:\Users\Petro\AppData\Local\Temp\ccPFwMgj.s 			page 57


 2484 001a 0399     		ldr	r1, [sp, #12]
 2485 001c FFF7FEFF 		bl	fat_chain_unlink
 2486              	.LVL296:
 308:.\write.c     **** 	_fat_sector_buf[h.dirent_offset] = 0xE5;
 2487              		.loc 1 308 0
 2488 0020 2C4B     		ldr	r3, .L188
 2489 0022 5868     		ldr	r0, [r3, #4]
 2490 0024 2368     		ldr	r3, [r4]
 2491 0026 9842     		cmp	r0, r3
 2492 0028 04D1     		bne	.L177
 308:.\write.c     **** 	_fat_sector_buf[h.dirent_offset] = 0xE5;
 2493              		.loc 1 308 0 is_stmt 0 discriminator 1
 2494 002a 2A4B     		ldr	r3, .L188
 2495 002c 9B68     		ldr	r3, [r3, #8]
 2496 002e 089A     		ldr	r2, [sp, #32]
 2497 0030 9342     		cmp	r3, r2
 2498 0032 1AD0     		beq	.L178
 2499              	.L177:
 308:.\write.c     **** 	_fat_sector_buf[h.dirent_offset] = 0xE5;
 2500              		.loc 1 308 0 discriminator 3
 2501 0034 274B     		ldr	r3, .L188
 2502 0036 1B7B     		ldrb	r3, [r3, #12]
 2503 0038 002B     		cmp	r3, #0
 2504 003a 07D0     		beq	.L179
 308:.\write.c     **** 	_fat_sector_buf[h.dirent_offset] = 0xE5;
 2505              		.loc 1 308 0 discriminator 4
 2506 003c 254B     		ldr	r3, .L188
 2507 003e 9968     		ldr	r1, [r3, #8]
 2508              	.LVL297:
 2509              	.LBB240:
 2510              	.LBB241:
 2511              		.loc 2 72 0 is_stmt 1 discriminator 4
 2512 0040 8568     		ldr	r5, [r0, #8]
 2513 0042 0122     		mov	r2, #1
 2514 0044 244B     		ldr	r3, .L188+4
 2515 0046 A847     		blx	r5
 2516              	.LVL298:
 2517              	.LBE241:
 2518              	.LBE240:
 308:.\write.c     **** 	_fat_sector_buf[h.dirent_offset] = 0xE5;
 2519              		.loc 1 308 0 discriminator 4
 2520 0048 0128     		cmp	r0, #1
 2521 004a 38D1     		bne	.L185
 2522              	.LVL299:
 2523              	.L179:
 308:.\write.c     **** 	_fat_sector_buf[h.dirent_offset] = 0xE5;
 2524              		.loc 1 308 0 is_stmt 0 discriminator 7
 2525 004c 214B     		ldr	r3, .L188
 2526 004e 0022     		mov	r2, #0
 2527 0050 1A73     		strb	r2, [r3, #12]
 2528 0052 2268     		ldr	r2, [r4]
 2529 0054 5A60     		str	r2, [r3, #4]
 2530 0056 089A     		ldr	r2, [sp, #32]
 2531 0058 9A60     		str	r2, [r3, #8]
 2532 005a 2068     		ldr	r0, [r4]
 2533              	.LVL300:
 2534              	.LBB242:
ARM GAS  C:\Users\Petro\AppData\Local\Temp\ccPFwMgj.s 			page 58


 2535              	.LBB243:
  64:.\openfat/blockdev.h **** }
 2536              		.loc 2 64 0 is_stmt 1 discriminator 7
 2537 005c 4568     		ldr	r5, [r0, #4]
 2538 005e 111C     		mov	r1, r2
 2539 0060 0122     		mov	r2, #1
 2540              	.LVL301:
 2541 0062 1D4B     		ldr	r3, .L188+4
 2542 0064 A847     		blx	r5
 2543              	.LVL302:
 2544              	.LBE243:
 2545              	.LBE242:
 308:.\write.c     **** 	_fat_sector_buf[h.dirent_offset] = 0xE5;
 2546              		.loc 1 308 0 discriminator 7
 2547 0066 0128     		cmp	r0, #1
 2548 0068 2CD1     		bne	.L186
 2549              	.LVL303:
 2550              	.L178:
 309:.\write.c     **** 	FAT_PUT_SECTOR(vol, h.dirent_sector);
 2551              		.loc 1 309 0
 2552 006a 01AB     		add	r3, sp, #4
 2553 006c 1B8C     		ldrh	r3, [r3, #32]
 2554 006e E521     		mov	r1, #229
 2555 0070 194A     		ldr	r2, .L188+4
 2556 0072 D154     		strb	r1, [r2, r3]
 310:.\write.c     **** 
 2557              		.loc 1 310 0
 2558 0074 174B     		ldr	r3, .L188
 2559 0076 5868     		ldr	r0, [r3, #4]
 2560 0078 2368     		ldr	r3, [r4]
 2561 007a 9842     		cmp	r0, r3
 2562 007c 04D1     		bne	.L180
 310:.\write.c     **** 
 2563              		.loc 1 310 0 is_stmt 0 discriminator 2
 2564 007e 154B     		ldr	r3, .L188
 2565 0080 9B68     		ldr	r3, [r3, #8]
 2566 0082 089A     		ldr	r2, [sp, #32]
 2567 0084 9342     		cmp	r3, r2
 2568 0086 0ED0     		beq	.L181
 2569              	.L180:
 310:.\write.c     **** 
 2570              		.loc 1 310 0 discriminator 3
 2571 0088 124B     		ldr	r3, .L188
 2572 008a 1B7B     		ldrb	r3, [r3, #12]
 2573 008c 002B     		cmp	r3, #0
 2574 008e 07D0     		beq	.L182
 310:.\write.c     **** 
 2575              		.loc 1 310 0 discriminator 5
 2576 0090 104B     		ldr	r3, .L188
 2577 0092 9968     		ldr	r1, [r3, #8]
 2578              	.LVL304:
 2579              	.LBB244:
 2580              	.LBB245:
 2581              		.loc 2 72 0 is_stmt 1 discriminator 5
 2582 0094 8568     		ldr	r5, [r0, #8]
 2583 0096 0122     		mov	r2, #1
 2584 0098 0F4B     		ldr	r3, .L188+4
ARM GAS  C:\Users\Petro\AppData\Local\Temp\ccPFwMgj.s 			page 59


 2585 009a A847     		blx	r5
 2586              	.LVL305:
 2587              	.LBE245:
 2588              	.LBE244:
 310:.\write.c     **** 
 2589              		.loc 1 310 0 discriminator 5
 2590 009c 0128     		cmp	r0, #1
 2591 009e 14D1     		bne	.L187
 2592              	.LVL306:
 2593              	.L182:
 310:.\write.c     **** 
 2594              		.loc 1 310 0 is_stmt 0 discriminator 8
 2595 00a0 0022     		mov	r2, #0
 2596 00a2 0C4B     		ldr	r3, .L188
 2597 00a4 1A73     		strb	r2, [r3, #12]
 2598              	.L181:
 310:.\write.c     **** 
 2599              		.loc 1 310 0 discriminator 9
 2600 00a6 2268     		ldr	r2, [r4]
 2601 00a8 0A4B     		ldr	r3, .L188
 2602 00aa 5A60     		str	r2, [r3, #4]
 2603 00ac 089A     		ldr	r2, [sp, #32]
 2604 00ae 9A60     		str	r2, [r3, #8]
 2605 00b0 0122     		mov	r2, #1
 2606 00b2 1A73     		strb	r2, [r3, #12]
 314:.\write.c     **** }
 2607              		.loc 1 314 0 is_stmt 1 discriminator 9
 2608 00b4 0020     		mov	r0, #0
 2609 00b6 0AE0     		b	.L176
 2610              	.LVL307:
 2611              	.L184:
 302:.\write.c     **** 
 2612              		.loc 1 302 0
 2613 00b8 1520     		mov	r0, #21
 2614              	.LVL308:
 2615 00ba 4042     		neg	r0, r0
 2616 00bc 07E0     		b	.L176
 2617              	.LVL309:
 2618              	.L185:
 308:.\write.c     **** 	_fat_sector_buf[h.dirent_offset] = 0xE5;
 2619              		.loc 1 308 0
 2620 00be 0520     		mov	r0, #5
 2621 00c0 4042     		neg	r0, r0
 2622 00c2 04E0     		b	.L176
 2623              	.LVL310:
 2624              	.L186:
 2625 00c4 0520     		mov	r0, #5
 2626 00c6 4042     		neg	r0, r0
 2627 00c8 01E0     		b	.L176
 2628              	.LVL311:
 2629              	.L187:
 310:.\write.c     **** 
 2630              		.loc 1 310 0
 2631 00ca 0520     		mov	r0, #5
 2632 00cc 4042     		neg	r0, r0
 2633              	.LVL312:
 2634              	.L176:
ARM GAS  C:\Users\Petro\AppData\Local\Temp\ccPFwMgj.s 			page 60


 315:.\write.c     **** 
 2635              		.loc 1 315 0
 2636 00ce 0BB0     		add	sp, sp, #44
 2637              		@ sp needed
 2638              	.LVL313:
 2639 00d0 30BD     		pop	{r4, r5, pc}
 2640              	.L189:
 2641 00d2 C046     		.align	2
 2642              	.L188:
 2643 00d4 00000000 		.word	_fat_cache
 2644 00d8 00000000 		.word	_fat_sector_buf
 2645              		.cfi_endproc
 2646              	.LFE26:
 2647              		.size	fat_unlink, .-fat_unlink
 2648              		.section	.text._fat_dir_create_file,"ax",%progbits
 2649              		.align	2
 2650              		.global	_fat_dir_create_file
 2651              		.code	16
 2652              		.thumb_func
 2653              		.type	_fat_dir_create_file, %function
 2654              	_fat_dir_create_file:
 2655              	.LFB28:
 338:.\write.c     **** 
 339:.\write.c     **** /* Create a new zero-length file */
 340:.\write.c     **** int _fat_dir_create_file(struct fat_vol_handle *vol, const char *name,
 341:.\write.c     **** 		uint8_t attr, struct fat_file_handle *file)
 342:.\write.c     **** {
 2656              		.loc 1 342 0
 2657              		.cfi_startproc
 2658              	.LVL314:
 2659 0000 F0B5     		push	{r4, r5, r6, r7, lr}
 2660              		.cfi_def_cfa_offset 20
 2661              		.cfi_offset 4, -20
 2662              		.cfi_offset 5, -16
 2663              		.cfi_offset 6, -12
 2664              		.cfi_offset 7, -8
 2665              		.cfi_offset 14, -4
 2666 0002 5746     		mov	r7, r10
 2667 0004 80B4     		push	{r7}
 2668              		.cfi_def_cfa_offset 24
 2669              		.cfi_offset 10, -24
 2670 0006 96B0     		sub	sp, sp, #88
 2671              		.cfi_def_cfa_offset 112
 2672 0008 0090     		str	r0, [sp]
 2673 000a 0E1C     		mov	r6, r1
 2674 000c 9246     		mov	r10, r2
 2675 000e 0193     		str	r3, [sp, #4]
 343:.\write.c     **** 	/* Check if file already exists */
 344:.\write.c     **** 	if(!fat_open(vol, name, 0, file)) 
 2676              		.loc 1 344 0
 2677 0010 0022     		mov	r2, #0
 2678              	.LVL315:
 2679 0012 FFF7FEFF 		bl	fat_open
 2680              	.LVL316:
 2681 0016 0028     		cmp	r0, #0
 2682 0018 00D1     		bne	.LCB3354
 2683 001a D4E0     		b	.L209	@long jump
ARM GAS  C:\Users\Petro\AppData\Local\Temp\ccPFwMgj.s 			page 61


 2684              	.LCB3354:
 345:.\write.c     **** 		return -1; /* File exists */
 346:.\write.c     **** 
 347:.\write.c     **** 	/* Attempt to construct a short name for the file */
 348:.\write.c     **** 	uint8_t sname[12];
 349:.\write.c     **** 	sname[11] = 0; /* fat_open() needs terminating null */
 2685              		.loc 1 349 0
 2686 001c 0022     		mov	r2, #0
 2687 001e 13AB     		add	r3, sp, #76
 2688 0020 DA72     		strb	r2, [r3, #11]
 2689              	.LVL317:
 350:.\write.c     ****     int i;
 351:.\write.c     **** 	for(i = 1; i < 10; i++) {
 2690              		.loc 1 351 0
 2691 0022 0124     		mov	r4, #1
 2692 0024 10E0     		b	.L192
 2693              	.LVL318:
 2694              	.L194:
 352:.\write.c     **** 		build_short_name(sname, name, i);
 2695              		.loc 1 352 0
 2696 0026 13A8     		add	r0, sp, #76
 2697 0028 311C     		mov	r1, r6
 2698 002a 221C     		mov	r2, r4
 2699 002c FFF7FEFF 		bl	build_short_name
 2700              	.LVL319:
 353:.\write.c     **** 		if(fat_open(vol, (char*)sname, 0, file)) 
 2701              		.loc 1 353 0
 2702 0030 0098     		ldr	r0, [sp]
 2703 0032 13A9     		add	r1, sp, #76
 2704 0034 0022     		mov	r2, #0
 2705 0036 019B     		ldr	r3, [sp, #4]
 2706 0038 FFF7FEFF 		bl	fat_open
 2707              	.LVL320:
 2708 003c 0028     		cmp	r0, #0
 2709 003e 05D1     		bne	.L193
 354:.\write.c     **** 			break; /* We have a winner */
 355:.\write.c     **** 		sname[0] = ' ';
 2710              		.loc 1 355 0 discriminator 2
 2711 0040 2022     		mov	r2, #32
 2712 0042 13AB     		add	r3, sp, #76
 2713 0044 1A70     		strb	r2, [r3]
 351:.\write.c     **** 		build_short_name(sname, name, i);
 2714              		.loc 1 351 0 discriminator 2
 2715 0046 0134     		add	r4, r4, #1
 2716              	.LVL321:
 2717              	.L192:
 351:.\write.c     **** 		build_short_name(sname, name, i);
 2718              		.loc 1 351 0 is_stmt 0 discriminator 1
 2719 0048 092C     		cmp	r4, #9
 2720 004a ECDD     		ble	.L194
 2721              	.L193:
 356:.\write.c     **** 	}
 357:.\write.c     **** 
 358:.\write.c     **** 	if(sname[0] == ' ')
 2722              		.loc 1 358 0 is_stmt 1
 2723 004c 13AB     		add	r3, sp, #76
 2724 004e 1B78     		ldrb	r3, [r3]
ARM GAS  C:\Users\Petro\AppData\Local\Temp\ccPFwMgj.s 			page 62


 2725 0050 202B     		cmp	r3, #32
 2726 0052 00D1     		bne	.LCB3397
 2727 0054 BAE0     		b	.L210	@long jump
 2728              	.LCB3397:
 359:.\write.c     **** 		return -1; /* Couldn't find a short name */
 360:.\write.c     **** 
 361:.\write.c     **** 	/* Find usable space in parent directory */
 362:.\write.c     **** 	_fat_dir_seek_empty(&vol->cwd, (strlen(name) / 13) + 2);
 2729              		.loc 1 362 0
 2730 0056 009C     		ldr	r4, [sp]
 2731              	.LVL322:
 2732 0058 2434     		add	r4, r4, #36
 2733 005a 301C     		mov	r0, r6
 2734 005c FFF7FEFF 		bl	strlen
 2735              	.LVL323:
 2736 0060 0D21     		mov	r1, #13
 2737 0062 FFF7FEFF 		bl	__aeabi_uidiv
 2738              	.LVL324:
 2739 0066 811C     		add	r1, r0, #2
 2740 0068 201C     		mov	r0, r4
 2741 006a FFF7FEFF 		bl	_fat_dir_seek_empty
 2742              	.LVL325:
 363:.\write.c     **** 
 364:.\write.c     **** 	/* Create long name directory entries */
 365:.\write.c     **** 	struct fat_ldirent ld;
 366:.\write.c     **** 	int last = 1;
 367:.\write.c     **** 	memset(&ld, 0, sizeof(ld));
 2743              		.loc 1 367 0
 2744 006e 0BAB     		add	r3, sp, #44
 2745 0070 0022     		mov	r2, #0
 2746 0072 0B92     		str	r2, [sp, #44]
 2747 0074 0C92     		str	r2, [sp, #48]
 2748 0076 0D92     		str	r2, [sp, #52]
 2749 0078 0E92     		str	r2, [sp, #56]
 2750 007a 0F92     		str	r2, [sp, #60]
 2751 007c 1092     		str	r2, [sp, #64]
 2752 007e 1192     		str	r2, [sp, #68]
 2753 0080 1292     		str	r2, [sp, #72]
 368:.\write.c     **** 	ld.attr = FAT_ATTR_LONG_NAME;
 2754              		.loc 1 368 0
 2755 0082 0F32     		add	r2, r2, #15
 2756 0084 DA72     		strb	r2, [r3, #11]
 369:.\write.c     **** 	for(i = strlen(name) / 13; i >= 0; i--) {
 2757              		.loc 1 369 0
 2758 0086 301C     		mov	r0, r6
 2759 0088 FFF7FEFF 		bl	strlen
 2760              	.LVL326:
 2761 008c 0D21     		mov	r1, #13
 2762 008e FFF7FEFF 		bl	__aeabi_uidiv
 2763              	.LVL327:
 2764 0092 071C     		mov	r7, r0
 2765              	.LVL328:
 366:.\write.c     **** 	memset(&ld, 0, sizeof(ld));
 2766              		.loc 1 366 0
 2767 0094 0125     		mov	r5, #1
 2768              		.loc 1 369 0
 2769 0096 51E0     		b	.L195
ARM GAS  C:\Users\Petro\AppData\Local\Temp\ccPFwMgj.s 			page 63


 2770              	.LVL329:
 2771              	.L203:
 2772              	.LBB246:
 370:.\write.c     **** 		ld.ord = i + 1;
 2773              		.loc 1 370 0
 2774 0098 7B1C     		add	r3, r7, #1
 2775 009a DBB2     		uxtb	r3, r3
 2776 009c 0BAA     		add	r2, sp, #44
 2777 009e 1370     		strb	r3, [r2]
 371:.\write.c     **** 		if(last) {
 2778              		.loc 1 371 0
 2779 00a0 002D     		cmp	r5, #0
 2780 00a2 04D0     		beq	.L196
 372:.\write.c     **** 			ld.ord |= FAT_LAST_LONG_ENTRY;
 2781              		.loc 1 372 0
 2782 00a4 4022     		mov	r2, #64
 2783 00a6 1343     		orr	r3, r2
 2784 00a8 0BAA     		add	r2, sp, #44
 2785 00aa 1370     		strb	r3, [r2]
 2786              	.LVL330:
 373:.\write.c     **** 			last = 0;
 2787              		.loc 1 373 0
 2788 00ac 0025     		mov	r5, #0
 2789              	.LVL331:
 2790              	.L196:
 374:.\write.c     **** 		}
 375:.\write.c     **** 		int j;
 376:.\write.c     **** 		for(j = 0; j < 5; j++) 
 2791              		.loc 1 376 0
 2792 00ae 0022     		mov	r2, #0
 2793 00b0 0DE0     		b	.L197
 2794              	.LVL332:
 2795              	.L198:
 377:.\write.c     **** 			__put_le16(&ld.name1[j], name[i*13 + j]);
 2796              		.loc 1 377 0 discriminator 3
 2797 00b2 5100     		lsl	r1, r2, #1
 2798 00b4 0BAB     		add	r3, sp, #44
 2799 00b6 9C46     		mov	ip, r3
 2800 00b8 6144     		add	r1, r1, ip
 2801 00ba 7B00     		lsl	r3, r7, #1
 2802 00bc DB19     		add	r3, r3, r7
 2803 00be 9B00     		lsl	r3, r3, #2
 2804 00c0 DB19     		add	r3, r3, r7
 2805 00c2 9B18     		add	r3, r3, r2
 2806 00c4 F35C     		ldrb	r3, [r6, r3]
 2807              	.LVL333:
 2808              	.LBB247:
 2809              	.LBB248:
  38:.\openfat/leaccess.h **** 	*((uint8_t *)p + 1) = v >> 8;
 2810              		.loc 3 38 0 discriminator 3
 2811 00c6 4B70     		strb	r3, [r1, #1]
  39:.\openfat/leaccess.h **** }
 2812              		.loc 3 39 0 discriminator 3
 2813 00c8 0023     		mov	r3, #0
 2814              	.LVL334:
 2815 00ca 8B70     		strb	r3, [r1, #2]
 2816              	.LBE248:
ARM GAS  C:\Users\Petro\AppData\Local\Temp\ccPFwMgj.s 			page 64


 2817              	.LBE247:
 376:.\write.c     **** 			__put_le16(&ld.name1[j], name[i*13 + j]);
 2818              		.loc 1 376 0 discriminator 3
 2819 00cc 0132     		add	r2, r2, #1
 2820              	.LVL335:
 2821              	.L197:
 376:.\write.c     **** 			__put_le16(&ld.name1[j], name[i*13 + j]);
 2822              		.loc 1 376 0 is_stmt 0 discriminator 1
 2823 00ce 042A     		cmp	r2, #4
 2824 00d0 EFDD     		ble	.L198
 2825 00d2 0021     		mov	r1, #0
 2826 00d4 0FE0     		b	.L199
 2827              	.LVL336:
 2828              	.L200:
 378:.\write.c     **** 		for(j = 0; j < 6; j++) 
 379:.\write.c     **** 			__put_le16(&ld.name2[j], name[i*13 + j + 5]);
 2829              		.loc 1 379 0 is_stmt 1 discriminator 3
 2830 00d6 0A1D     		add	r2, r1, #4
 2831 00d8 5200     		lsl	r2, r2, #1
 2832 00da 0BAB     		add	r3, sp, #44
 2833 00dc 9C46     		mov	ip, r3
 2834 00de 6244     		add	r2, r2, ip
 2835 00e0 7B00     		lsl	r3, r7, #1
 2836 00e2 DB19     		add	r3, r3, r7
 2837 00e4 9B00     		lsl	r3, r3, #2
 2838 00e6 DB19     		add	r3, r3, r7
 2839 00e8 5B18     		add	r3, r3, r1
 2840 00ea F318     		add	r3, r6, r3
 2841 00ec 5B79     		ldrb	r3, [r3, #5]
 2842              	.LVL337:
 2843              	.LBB249:
 2844              	.LBB250:
  38:.\openfat/leaccess.h **** 	*((uint8_t *)p + 1) = v >> 8;
 2845              		.loc 3 38 0 discriminator 3
 2846 00ee 9371     		strb	r3, [r2, #6]
  39:.\openfat/leaccess.h **** }
 2847              		.loc 3 39 0 discriminator 3
 2848 00f0 0023     		mov	r3, #0
 2849              	.LVL338:
 2850 00f2 D371     		strb	r3, [r2, #7]
 2851              	.LBE250:
 2852              	.LBE249:
 378:.\write.c     **** 		for(j = 0; j < 6; j++) 
 2853              		.loc 1 378 0 discriminator 3
 2854 00f4 0131     		add	r1, r1, #1
 2855              	.LVL339:
 2856              	.L199:
 378:.\write.c     **** 		for(j = 0; j < 6; j++) 
 2857              		.loc 1 378 0 is_stmt 0 discriminator 1
 2858 00f6 0529     		cmp	r1, #5
 2859 00f8 EDDD     		ble	.L200
 2860 00fa 0021     		mov	r1, #0
 2861              	.LVL340:
 2862 00fc 10E0     		b	.L201
 2863              	.LVL341:
 2864              	.L202:
 380:.\write.c     **** 		for(j = 0; j < 2; j++) 
ARM GAS  C:\Users\Petro\AppData\Local\Temp\ccPFwMgj.s 			page 65


 381:.\write.c     **** 			__put_le16(&ld.name3[j], name[i*13 + j + 11]);
 2865              		.loc 1 381 0 is_stmt 1 discriminator 3
 2866 00fe 0A1C     		mov	r2, r1
 2867 0100 0C32     		add	r2, r2, #12
 2868 0102 5200     		lsl	r2, r2, #1
 2869 0104 0BAB     		add	r3, sp, #44
 2870 0106 9C46     		mov	ip, r3
 2871 0108 6244     		add	r2, r2, ip
 2872 010a 7B00     		lsl	r3, r7, #1
 2873 010c DB19     		add	r3, r3, r7
 2874 010e 9B00     		lsl	r3, r3, #2
 2875 0110 DB19     		add	r3, r3, r7
 2876 0112 5B18     		add	r3, r3, r1
 2877 0114 F318     		add	r3, r6, r3
 2878 0116 DB7A     		ldrb	r3, [r3, #11]
 2879              	.LVL342:
 2880              	.LBB251:
 2881              	.LBB252:
  38:.\openfat/leaccess.h **** 	*((uint8_t *)p + 1) = v >> 8;
 2882              		.loc 3 38 0 discriminator 3
 2883 0118 1371     		strb	r3, [r2, #4]
  39:.\openfat/leaccess.h **** }
 2884              		.loc 3 39 0 discriminator 3
 2885 011a 0023     		mov	r3, #0
 2886              	.LVL343:
 2887 011c 5371     		strb	r3, [r2, #5]
 2888              	.LBE252:
 2889              	.LBE251:
 380:.\write.c     **** 		for(j = 0; j < 2; j++) 
 2890              		.loc 1 380 0 discriminator 3
 2891 011e 0131     		add	r1, r1, #1
 2892              	.LVL344:
 2893              	.L201:
 380:.\write.c     **** 		for(j = 0; j < 2; j++) 
 2894              		.loc 1 380 0 is_stmt 0 discriminator 1
 2895 0120 0129     		cmp	r1, #1
 2896 0122 ECDD     		ble	.L202
 382:.\write.c     **** 		ld.checksum = _fat_dirent_chksum(sname);
 2897              		.loc 1 382 0 is_stmt 1
 2898 0124 13A8     		add	r0, sp, #76
 2899 0126 FFF7FEFF 		bl	_fat_dirent_chksum
 2900              	.LVL345:
 2901 012a 0BA9     		add	r1, sp, #44
 2902 012c 4873     		strb	r0, [r1, #13]
 383:.\write.c     **** 		if(fat_write(&vol->cwd, &ld, sizeof(ld)) != sizeof(ld))
 2903              		.loc 1 383 0
 2904 012e 201C     		mov	r0, r4
 2905 0130 2022     		mov	r2, #32
 2906 0132 FFF7FEFF 		bl	fat_write
 2907              	.LVL346:
 2908 0136 2028     		cmp	r0, #32
 2909 0138 4BD1     		bne	.L211
 2910              	.LBE246:
 369:.\write.c     **** 		ld.ord = i + 1;
 2911              		.loc 1 369 0 discriminator 2
 2912 013a 013F     		sub	r7, r7, #1
 2913              	.LVL347:
ARM GAS  C:\Users\Petro\AppData\Local\Temp\ccPFwMgj.s 			page 66


 2914              	.L195:
 369:.\write.c     **** 		ld.ord = i + 1;
 2915              		.loc 1 369 0 is_stmt 0 discriminator 1
 2916 013c 002F     		cmp	r7, #0
 2917 013e ABDA     		bge	.L203
 384:.\write.c     **** 			return -1;
 385:.\write.c     **** 	}
 386:.\write.c     **** 
 387:.\write.c     **** 	/* Create short name entry */
 388:.\write.c     **** 	struct fat_sdirent fatent;
 389:.\write.c     **** 	memset(&fatent, 0, sizeof(fatent));
 2918              		.loc 1 389 0 is_stmt 1
 2919 0140 03AB     		add	r3, sp, #12
 2920 0142 0022     		mov	r2, #0
 2921 0144 0692     		str	r2, [sp, #24]
 2922 0146 0792     		str	r2, [sp, #28]
 2923 0148 0892     		str	r2, [sp, #32]
 2924 014a 0992     		str	r2, [sp, #36]
 2925 014c 0A92     		str	r2, [sp, #40]
 390:.\write.c     **** 	fatent.attr = attr;
 2926              		.loc 1 390 0
 2927 014e 5246     		mov	r2, r10
 2928 0150 DA72     		strb	r2, [r3, #11]
 391:.\write.c     **** 	memcpy(&fatent.name, sname, 11);
 2929              		.loc 1 391 0
 2930 0152 13AA     		add	r2, sp, #76
 2931 0154 03CA     		ldmia	r2!, {r0, r1}
 2932 0156 03C3     		stmia	r3!, {r0, r1}
 2933 0158 191C     		mov	r1, r3
 2934 015a 1388     		ldrh	r3, [r2]
 2935 015c 0B80     		strh	r3, [r1]
 2936 015e 9378     		ldrb	r3, [r2, #2]
 2937 0160 8B70     		strb	r3, [r1, #2]
 392:.\write.c     **** 	/* TODO: Insert timestamp */
 393:.\write.c     **** 	if(attr == FAT_ATTR_DIRECTORY) {
 2938              		.loc 1 393 0
 2939 0162 5346     		mov	r3, r10
 2940 0164 102B     		cmp	r3, #16
 2941 0166 20D1     		bne	.L204
 2942              	.LBB253:
 394:.\write.c     **** 		/* Allocate a cluster for directories */
 395:.\write.c     **** 		uint32_t cluster = fat_find_free_cluster(vol);
 2943              		.loc 1 395 0
 2944 0168 009D     		ldr	r5, [sp]
 2945              	.LVL348:
 2946 016a 281C     		mov	r0, r5
 2947 016c FFF7FEFF 		bl	fat_find_free_cluster
 2948              	.LVL349:
 2949 0170 071E     		sub	r7, r0, #0
 2950              	.LVL350:
 396:.\write.c     **** 		if(!cluster) 
 2951              		.loc 1 396 0
 2952 0172 31D0     		beq	.L212
 2953              	.LVL351:
 2954              	.LBB254:
 2955              	.LBB255:
  46:.\fat_core.h  **** 	case FAT_TYPE_FAT12:
ARM GAS  C:\Users\Petro\AppData\Local\Temp\ccPFwMgj.s 			page 67


 2956              		.loc 4 46 0
 2957 0174 6B68     		ldr	r3, [r5, #4]
 2958 0176 102B     		cmp	r3, #16
 2959 0178 0AD0     		beq	.L213
 2960 017a 202B     		cmp	r3, #32
 2961 017c 03D0     		beq	.L207
 2962 017e 0C2B     		cmp	r3, #12
 2963 0180 03D1     		bne	.L215
  48:.\fat_core.h  **** 	case FAT_TYPE_FAT16:
 2964              		.loc 4 48 0
 2965 0182 1A4A     		ldr	r2, .L216
 2966 0184 05E0     		b	.L206
 2967              	.L207:
  52:.\fat_core.h  **** 	}
 2968              		.loc 4 52 0
 2969 0186 1A4A     		ldr	r2, .L216+4
 2970 0188 03E0     		b	.L206
 2971              	.L215:
  54:.\fat_core.h  **** }
 2972              		.loc 4 54 0
 2973 018a 0122     		mov	r2, #1
 2974 018c 5242     		neg	r2, r2
 2975 018e 00E0     		b	.L206
 2976              	.L213:
  50:.\fat_core.h  **** 	case FAT_TYPE_FAT32:
 2977              		.loc 4 50 0
 2978 0190 184A     		ldr	r2, .L216+8
 2979              	.L206:
 2980              	.LBE255:
 2981              	.LBE254:
 397:.\write.c     **** 			return -1;
 398:.\write.c     **** 		fat_set_next_cluster(vol, cluster, fat_eoc(vol));
 2982              		.loc 1 398 0
 2983 0192 0098     		ldr	r0, [sp]
 2984              	.LVL352:
 2985 0194 391C     		mov	r1, r7
 2986 0196 FFF7FEFF 		bl	fat_set_next_cluster
 2987              	.LVL353:
 399:.\write.c     **** 		__put_le16(&fatent.cluster_hi, cluster >> 16);
 2988              		.loc 1 399 0
 2989 019a 3A0C     		lsr	r2, r7, #16
 2990              	.LVL354:
 2991              	.LBB256:
 2992              	.LBB257:
  38:.\openfat/leaccess.h **** 	*((uint8_t *)p + 1) = v >> 8;
 2993              		.loc 3 38 0
 2994 019c 03AB     		add	r3, sp, #12
 2995 019e 1A75     		strb	r2, [r3, #20]
  39:.\openfat/leaccess.h **** }
 2996              		.loc 3 39 0
 2997 01a0 120A     		lsr	r2, r2, #8
 2998              	.LVL355:
 2999 01a2 5A75     		strb	r2, [r3, #21]
 3000              	.LVL356:
 3001              	.LBE257:
 3002              	.LBE256:
 3003              	.LBB258:
ARM GAS  C:\Users\Petro\AppData\Local\Temp\ccPFwMgj.s 			page 68


 3004              	.LBB259:
  38:.\openfat/leaccess.h **** 	*((uint8_t *)p + 1) = v >> 8;
 3005              		.loc 3 38 0
 3006 01a4 9F76     		strb	r7, [r3, #26]
  39:.\openfat/leaccess.h **** }
 3007              		.loc 3 39 0
 3008 01a6 3F0A     		lsr	r7, r7, #8
 3009              	.LVL357:
 3010 01a8 DF76     		strb	r7, [r3, #27]
 3011              	.LVL358:
 3012              	.L204:
 3013              	.LBE259:
 3014              	.LBE258:
 3015              	.LBE253:
 400:.\write.c     **** 		__put_le16(&fatent.cluster_lo, cluster & 0xFFFF);
 401:.\write.c     **** 	}
 402:.\write.c     **** 	if(fat_write(&vol->cwd, &fatent, sizeof(fatent)) != sizeof(fatent))
 3016              		.loc 1 402 0
 3017 01aa 201C     		mov	r0, r4
 3018 01ac 03A9     		add	r1, sp, #12
 3019 01ae 2022     		mov	r2, #32
 3020 01b0 FFF7FEFF 		bl	fat_write
 3021              	.LVL359:
 3022 01b4 2028     		cmp	r0, #32
 3023 01b6 12D1     		bne	.L214
 403:.\write.c     **** 		return -1;
 404:.\write.c     **** 
 405:.\write.c     **** 	return fat_open(vol, name, 0, file);
 3024              		.loc 1 405 0
 3025 01b8 0098     		ldr	r0, [sp]
 3026 01ba 311C     		mov	r1, r6
 3027 01bc 0022     		mov	r2, #0
 3028 01be 019B     		ldr	r3, [sp, #4]
 3029 01c0 FFF7FEFF 		bl	fat_open
 3030              	.LVL360:
 3031 01c4 0DE0     		b	.L191
 3032              	.L209:
 345:.\write.c     **** 
 3033              		.loc 1 345 0
 3034 01c6 0120     		mov	r0, #1
 3035 01c8 4042     		neg	r0, r0
 3036 01ca 0AE0     		b	.L191
 3037              	.LVL361:
 3038              	.L210:
 359:.\write.c     **** 
 3039              		.loc 1 359 0
 3040 01cc 0120     		mov	r0, #1
 3041 01ce 4042     		neg	r0, r0
 3042 01d0 07E0     		b	.L191
 3043              	.LVL362:
 3044              	.L211:
 3045              	.LBB260:
 384:.\write.c     **** 	}
 3046              		.loc 1 384 0
 3047 01d2 0120     		mov	r0, #1
 3048 01d4 4042     		neg	r0, r0
 3049 01d6 04E0     		b	.L191
ARM GAS  C:\Users\Petro\AppData\Local\Temp\ccPFwMgj.s 			page 69


 3050              	.LVL363:
 3051              	.L212:
 3052              	.LBE260:
 3053              	.LBB261:
 397:.\write.c     **** 		fat_set_next_cluster(vol, cluster, fat_eoc(vol));
 3054              		.loc 1 397 0
 3055 01d8 0120     		mov	r0, #1
 3056              	.LVL364:
 3057 01da 4042     		neg	r0, r0
 3058 01dc 01E0     		b	.L191
 3059              	.LVL365:
 3060              	.L214:
 3061              	.LBE261:
 403:.\write.c     **** 
 3062              		.loc 1 403 0
 3063 01de 0120     		mov	r0, #1
 3064 01e0 4042     		neg	r0, r0
 3065              	.L191:
 406:.\write.c     **** }
 3066              		.loc 1 406 0
 3067 01e2 16B0     		add	sp, sp, #88
 3068              	.LVL366:
 3069              		@ sp needed
 3070              	.LVL367:
 3071 01e4 04BC     		pop	{r2}
 3072 01e6 9246     		mov	r10, r2
 3073 01e8 F0BD     		pop	{r4, r5, r6, r7, pc}
 3074              	.L217:
 3075 01ea C046     		.align	2
 3076              	.L216:
 3077 01ec F80F0000 		.word	4088
 3078 01f0 F8FFFF0F 		.word	268435448
 3079 01f4 F8FF0000 		.word	65528
 3080              		.cfi_endproc
 3081              	.LFE28:
 3082              		.size	_fat_dir_create_file, .-_fat_dir_create_file
 3083              		.section	.text.fat_mkdir,"ax",%progbits
 3084              		.align	2
 3085              		.global	fat_mkdir
 3086              		.code	16
 3087              		.thumb_func
 3088              		.type	fat_mkdir, %function
 3089              	fat_mkdir:
 3090              	.LFB29:
 407:.\write.c     **** 
 408:.\write.c     **** int fat_mkdir(struct fat_vol_handle *vol, const char *name)
 409:.\write.c     **** {
 3091              		.loc 1 409 0
 3092              		.cfi_startproc
 3093              	.LVL368:
 3094 0000 F0B5     		push	{r4, r5, r6, r7, lr}
 3095              		.cfi_def_cfa_offset 20
 3096              		.cfi_offset 4, -20
 3097              		.cfi_offset 5, -16
 3098              		.cfi_offset 6, -12
 3099              		.cfi_offset 7, -8
 3100              		.cfi_offset 14, -4
ARM GAS  C:\Users\Petro\AppData\Local\Temp\ccPFwMgj.s 			page 70


 3101 0002 93B0     		sub	sp, sp, #76
 3102              		.cfi_def_cfa_offset 96
 3103 0004 051C     		mov	r5, r0
 410:.\write.c     **** 	int ret;
 411:.\write.c     **** 	struct fat_file_handle dir;
 412:.\write.c     **** 	struct fat_sdirent fatent;
 413:.\write.c     **** 	ret = _fat_dir_create_file(vol, name, FAT_ATTR_DIRECTORY, &dir);
 3104              		.loc 1 413 0
 3105 0006 1022     		mov	r2, #16
 3106 0008 09AB     		add	r3, sp, #36
 3107 000a FFF7FEFF 		bl	_fat_dir_create_file
 3108              	.LVL369:
 414:.\write.c     **** 	if(ret) 
 3109              		.loc 1 414 0
 3110 000e 0028     		cmp	r0, #0
 3111 0010 00D0     		beq	.LCB3827
 3112 0012 86E0     		b	.L219	@long jump
 3113              	.LCB3827:
 415:.\write.c     **** 		return ret;
 416:.\write.c     **** 
 417:.\write.c     **** 	FAT_FLUSH_SECTOR();
 3114              		.loc 1 417 0
 3115 0014 444B     		ldr	r3, .L233
 3116 0016 1B7B     		ldrb	r3, [r3, #12]
 3117 0018 002B     		cmp	r3, #0
 3118 001a 08D0     		beq	.L220
 3119              		.loc 1 417 0 is_stmt 0 discriminator 1
 3120 001c 424B     		ldr	r3, .L233
 3121 001e 5868     		ldr	r0, [r3, #4]
 3122              	.LVL370:
 3123 0020 9968     		ldr	r1, [r3, #8]
 3124              	.LVL371:
 3125              	.LBB262:
 3126              	.LBB263:
 3127              		.loc 2 72 0 is_stmt 1 discriminator 1
 3128 0022 8468     		ldr	r4, [r0, #8]
 3129 0024 0122     		mov	r2, #1
 3130 0026 414B     		ldr	r3, .L233+4
 3131 0028 A047     		blx	r4
 3132              	.LVL372:
 3133              	.LBE263:
 3134              	.LBE262:
 3135              		.loc 1 417 0 discriminator 1
 3136 002a 0128     		cmp	r0, #1
 3137 002c 74D1     		bne	.L230
 3138              	.LVL373:
 3139              	.L220:
 3140              		.loc 1 417 0 is_stmt 0 discriminator 4
 3141 002e 0022     		mov	r2, #0
 3142 0030 3D4B     		ldr	r3, .L233
 3143 0032 1A73     		strb	r2, [r3, #12]
 418:.\write.c     **** 	/* Clear out cluster */
 419:.\write.c     **** 	memset(_fat_sector_buf, 0, vol->bytes_per_sector);
 3144              		.loc 1 419 0 is_stmt 1 discriminator 4
 3145 0034 2A89     		ldrh	r2, [r5, #8]
 3146 0036 3D48     		ldr	r0, .L233+4
 3147 0038 0021     		mov	r1, #0
ARM GAS  C:\Users\Petro\AppData\Local\Temp\ccPFwMgj.s 			page 71


 3148 003a FFF7FEFF 		bl	memset
 3149              	.LVL374:
 3150              	.LBB264:
 3151              	.LBB265:
 3152              		.loc 4 60 0 discriminator 4
 3153 003e 0B9B     		ldr	r3, [sp, #44]
 3154 0040 9E1E     		sub	r6, r3, #2
 3155 0042 AB7A     		ldrb	r3, [r5, #10]
 3156 0044 5E43     		mul	r6, r3
 3157 0046 2B69     		ldr	r3, [r5, #16]
 3158 0048 9C46     		mov	ip, r3
 3159 004a 6644     		add	r6, r6, ip
 3160              	.LVL375:
 3161              	.LBE265:
 3162              	.LBE264:
 420:.\write.c     **** 	uint32_t sector = fat_first_sector_of_cluster(vol, dir.first_cluster);
 421:.\write.c     ****     int i;
 422:.\write.c     **** 	for(i = 0; i < vol->sectors_per_cluster; i++) 
 3163              		.loc 1 422 0 discriminator 4
 3164 004c 0024     		mov	r4, #0
 3165 004e 20E0     		b	.L221
 3166              	.LVL376:
 3167              	.L225:
 423:.\write.c     **** 		FAT_PUT_SECTOR(vol, sector + i);
 3168              		.loc 1 423 0
 3169 0050 354B     		ldr	r3, .L233
 3170 0052 5868     		ldr	r0, [r3, #4]
 3171 0054 2B68     		ldr	r3, [r5]
 3172 0056 9842     		cmp	r0, r3
 3173 0058 04D1     		bne	.L222
 3174              		.loc 1 423 0 is_stmt 0 discriminator 2
 3175 005a 334B     		ldr	r3, .L233
 3176 005c 9A68     		ldr	r2, [r3, #8]
 3177 005e A319     		add	r3, r4, r6
 3178 0060 9A42     		cmp	r2, r3
 3179 0062 0ED0     		beq	.L223
 3180              	.L222:
 3181              		.loc 1 423 0 discriminator 3
 3182 0064 304B     		ldr	r3, .L233
 3183 0066 1B7B     		ldrb	r3, [r3, #12]
 3184 0068 002B     		cmp	r3, #0
 3185 006a 07D0     		beq	.L224
 3186              		.loc 1 423 0 discriminator 5
 3187 006c 2E4B     		ldr	r3, .L233
 3188 006e 9968     		ldr	r1, [r3, #8]
 3189              	.LVL377:
 3190              	.LBB266:
 3191              	.LBB267:
 3192              		.loc 2 72 0 is_stmt 1 discriminator 5
 3193 0070 8768     		ldr	r7, [r0, #8]
 3194 0072 0122     		mov	r2, #1
 3195 0074 2D4B     		ldr	r3, .L233+4
 3196 0076 B847     		blx	r7
 3197              	.LVL378:
 3198              	.LBE267:
 3199              	.LBE266:
 3200              		.loc 1 423 0 discriminator 5
ARM GAS  C:\Users\Petro\AppData\Local\Temp\ccPFwMgj.s 			page 72


 3201 0078 0128     		cmp	r0, #1
 3202 007a 50D1     		bne	.L231
 3203              	.LVL379:
 3204              	.L224:
 3205              		.loc 1 423 0 is_stmt 0 discriminator 8
 3206 007c 0022     		mov	r2, #0
 3207 007e 2A4B     		ldr	r3, .L233
 3208 0080 1A73     		strb	r2, [r3, #12]
 3209              	.L223:
 3210              		.loc 1 423 0 discriminator 9
 3211 0082 294B     		ldr	r3, .L233
 3212 0084 2A68     		ldr	r2, [r5]
 3213 0086 5A60     		str	r2, [r3, #4]
 3214 0088 A219     		add	r2, r4, r6
 3215 008a 9A60     		str	r2, [r3, #8]
 3216 008c 0122     		mov	r2, #1
 3217 008e 1A73     		strb	r2, [r3, #12]
 422:.\write.c     **** 		FAT_PUT_SECTOR(vol, sector + i);
 3218              		.loc 1 422 0 is_stmt 1 discriminator 9
 3219 0090 0134     		add	r4, r4, #1
 3220              	.LVL380:
 3221              	.L221:
 422:.\write.c     **** 		FAT_PUT_SECTOR(vol, sector + i);
 3222              		.loc 1 422 0 is_stmt 0 discriminator 2
 3223 0092 AB7A     		ldrb	r3, [r5, #10]
 3224 0094 A342     		cmp	r3, r4
 3225 0096 DBDC     		bgt	.L225
 424:.\write.c     **** 
 425:.\write.c     **** 	memset(&fatent, 0, sizeof(fatent));
 3226              		.loc 1 425 0 is_stmt 1
 3227 0098 01AC     		add	r4, sp, #4
 3228              	.LVL381:
 3229 009a 0023     		mov	r3, #0
 3230 009c 0493     		str	r3, [sp, #16]
 3231 009e 0593     		str	r3, [sp, #20]
 3232 00a0 0693     		str	r3, [sp, #24]
 3233 00a2 0793     		str	r3, [sp, #28]
 3234 00a4 0893     		str	r3, [sp, #32]
 426:.\write.c     **** 	fatent.attr = FAT_ATTR_DIRECTORY;
 3235              		.loc 1 426 0
 3236 00a6 1033     		add	r3, r3, #16
 3237 00a8 E372     		strb	r3, [r4, #11]
 427:.\write.c     **** 	memset(fatent.name, ' ', 11);
 3238              		.loc 1 427 0
 3239 00aa 201C     		mov	r0, r4
 3240 00ac 2021     		mov	r1, #32
 3241 00ae 0B22     		mov	r2, #11
 3242 00b0 FFF7FEFF 		bl	memset
 3243              	.LVL382:
 428:.\write.c     **** 
 429:.\write.c     **** 	/* Create '.' entry */
 430:.\write.c     **** 	fatent.name[0] = '.';
 3244              		.loc 1 430 0
 3245 00b4 2E23     		mov	r3, #46
 3246 00b6 2370     		strb	r3, [r4]
 431:.\write.c     **** 	__put_le16(&fatent.cluster_hi, dir.first_cluster >> 16);
 3247              		.loc 1 431 0
ARM GAS  C:\Users\Petro\AppData\Local\Temp\ccPFwMgj.s 			page 73


 3248 00b8 0B9B     		ldr	r3, [sp, #44]
 3249 00ba 1A0C     		lsr	r2, r3, #16
 3250              	.LVL383:
 3251              	.LBB268:
 3252              	.LBB269:
  38:.\openfat/leaccess.h **** 	*((uint8_t *)p + 1) = v >> 8;
 3253              		.loc 3 38 0
 3254 00bc 2275     		strb	r2, [r4, #20]
  39:.\openfat/leaccess.h **** }
 3255              		.loc 3 39 0
 3256 00be 120A     		lsr	r2, r2, #8
 3257              	.LVL384:
 3258 00c0 6275     		strb	r2, [r4, #21]
 3259              	.LVL385:
 3260              	.LBE269:
 3261              	.LBE268:
 3262              	.LBB270:
 3263              	.LBB271:
  38:.\openfat/leaccess.h **** 	*((uint8_t *)p + 1) = v >> 8;
 3264              		.loc 3 38 0
 3265 00c2 A376     		strb	r3, [r4, #26]
  39:.\openfat/leaccess.h **** }
 3266              		.loc 3 39 0
 3267 00c4 1B0A     		lsr	r3, r3, #8
 3268              	.LVL386:
 3269 00c6 E376     		strb	r3, [r4, #27]
 3270              	.LBE271:
 3271              	.LBE270:
 432:.\write.c     **** 	__put_le16(&fatent.cluster_lo, dir.first_cluster & 0xFFFF);
 433:.\write.c     **** 	ret = fat_write(&dir, &fatent, sizeof(fatent));
 3272              		.loc 1 433 0
 3273 00c8 09A8     		add	r0, sp, #36
 3274 00ca 211C     		mov	r1, r4
 3275 00cc 2022     		mov	r2, #32
 3276 00ce FFF7FEFF 		bl	fat_write
 3277              	.LVL387:
 434:.\write.c     **** 	if(ret < 0) 
 3278              		.loc 1 434 0
 3279 00d2 0028     		cmp	r0, #0
 3280 00d4 25DB     		blt	.L219
 435:.\write.c     **** 		return ret;
 436:.\write.c     **** 
 437:.\write.c     **** 	/* Create '..' entry */
 438:.\write.c     **** 	fatent.name[1] = '.';
 3281              		.loc 1 438 0
 3282 00d6 2E22     		mov	r2, #46
 3283 00d8 01AB     		add	r3, sp, #4
 3284 00da 5A70     		strb	r2, [r3, #1]
 439:.\write.c     **** 	if((!vol->cwd.root_flag) &&
 3285              		.loc 1 439 0
 3286 00dc 3823     		mov	r3, #56
 3287 00de EB5C     		ldrb	r3, [r5, r3]
 3288 00e0 002B     		cmp	r3, #0
 3289 00e2 0CD1     		bne	.L226
 440:.\write.c     **** 	   (vol->fat32.root_cluster != vol->cwd.first_cluster)) {
 3290              		.loc 1 440 0 discriminator 1
 3291 00e4 EA69     		ldr	r2, [r5, #28]
ARM GAS  C:\Users\Petro\AppData\Local\Temp\ccPFwMgj.s 			page 74


 3292 00e6 EB6A     		ldr	r3, [r5, #44]
 439:.\write.c     **** 	if((!vol->cwd.root_flag) &&
 3293              		.loc 1 439 0 discriminator 1
 3294 00e8 9A42     		cmp	r2, r3
 3295 00ea 08D0     		beq	.L226
 441:.\write.c     **** 		__put_le16(&fatent.cluster_hi, vol->cwd.first_cluster >> 16);
 3296              		.loc 1 441 0
 3297 00ec 190C     		lsr	r1, r3, #16
 3298              	.LVL388:
 3299              	.LBB272:
 3300              	.LBB273:
  38:.\openfat/leaccess.h **** 	*((uint8_t *)p + 1) = v >> 8;
 3301              		.loc 3 38 0
 3302 00ee 01AA     		add	r2, sp, #4
 3303 00f0 1175     		strb	r1, [r2, #20]
  39:.\openfat/leaccess.h **** }
 3304              		.loc 3 39 0
 3305 00f2 090A     		lsr	r1, r1, #8
 3306              	.LVL389:
 3307 00f4 5175     		strb	r1, [r2, #21]
 3308              	.LVL390:
 3309              	.LBE273:
 3310              	.LBE272:
 3311              	.LBB274:
 3312              	.LBB275:
  38:.\openfat/leaccess.h **** 	*((uint8_t *)p + 1) = v >> 8;
 3313              		.loc 3 38 0
 3314 00f6 9376     		strb	r3, [r2, #26]
  39:.\openfat/leaccess.h **** }
 3315              		.loc 3 39 0
 3316 00f8 1B0A     		lsr	r3, r3, #8
 3317              	.LVL391:
 3318 00fa D376     		strb	r3, [r2, #27]
 3319 00fc 03E0     		b	.L227
 3320              	.LVL392:
 3321              	.L226:
 3322              	.LBE275:
 3323              	.LBE274:
 442:.\write.c     **** 		__put_le16(&fatent.cluster_lo, vol->cwd.first_cluster & 0xFFFF);
 443:.\write.c     **** 	} else {
 444:.\write.c     **** 		fatent.cluster_hi = 0;
 3324              		.loc 1 444 0
 3325 00fe 01AB     		add	r3, sp, #4
 3326 0100 0022     		mov	r2, #0
 3327 0102 9A82     		strh	r2, [r3, #20]
 445:.\write.c     **** 		fatent.cluster_lo = 0;
 3328              		.loc 1 445 0
 3329 0104 5A83     		strh	r2, [r3, #26]
 3330              	.L227:
 446:.\write.c     **** 	}
 447:.\write.c     **** 	ret = fat_write(&dir, &fatent, sizeof(fatent));
 3331              		.loc 1 447 0
 3332 0106 09A8     		add	r0, sp, #36
 3333              	.LVL393:
 3334 0108 01A9     		add	r1, sp, #4
 3335 010a 2022     		mov	r2, #32
 3336 010c FFF7FEFF 		bl	fat_write
ARM GAS  C:\Users\Petro\AppData\Local\Temp\ccPFwMgj.s 			page 75


 3337              	.LVL394:
 448:.\write.c     **** 	return (ret < 0) ? ret : 0;
 3338              		.loc 1 448 0
 3339 0110 0028     		cmp	r0, #0
 3340 0112 06DD     		ble	.L219
 3341 0114 0020     		mov	r0, #0
 3342 0116 04E0     		b	.L219
 3343              	.LVL395:
 3344              	.L230:
 417:.\write.c     **** 	/* Clear out cluster */
 3345              		.loc 1 417 0
 3346 0118 0520     		mov	r0, #5
 3347 011a 4042     		neg	r0, r0
 3348 011c 01E0     		b	.L219
 3349              	.LVL396:
 3350              	.L231:
 423:.\write.c     **** 
 3351              		.loc 1 423 0
 3352 011e 0520     		mov	r0, #5
 3353 0120 4042     		neg	r0, r0
 3354              	.LVL397:
 3355              	.L219:
 449:.\write.c     **** }
 3356              		.loc 1 449 0
 3357 0122 13B0     		add	sp, sp, #76
 3358              		@ sp needed
 3359              	.LVL398:
 3360 0124 F0BD     		pop	{r4, r5, r6, r7, pc}
 3361              	.L234:
 3362 0126 C046     		.align	2
 3363              	.L233:
 3364 0128 00000000 		.word	_fat_cache
 3365 012c 00000000 		.word	_fat_sector_buf
 3366              		.cfi_endproc
 3367              	.LFE29:
 3368              		.size	fat_mkdir, .-fat_mkdir
 3369              		.section	.text.fat_create,"ax",%progbits
 3370              		.align	2
 3371              		.global	fat_create
 3372              		.code	16
 3373              		.thumb_func
 3374              		.type	fat_create, %function
 3375              	fat_create:
 3376              	.LFB30:
 450:.\write.c     **** 
 451:.\write.c     **** int fat_create(struct fat_vol_handle *vol, const char *name, int flags,
 452:.\write.c     **** 		  struct fat_file_handle *file)
 453:.\write.c     **** {
 3377              		.loc 1 453 0
 3378              		.cfi_startproc
 3379              	.LVL399:
 3380 0000 38B5     		push	{r3, r4, r5, lr}
 3381              		.cfi_def_cfa_offset 16
 3382              		.cfi_offset 3, -16
 3383              		.cfi_offset 4, -12
 3384              		.cfi_offset 5, -8
 3385              		.cfi_offset 14, -4
ARM GAS  C:\Users\Petro\AppData\Local\Temp\ccPFwMgj.s 			page 76


 3386 0002 151C     		mov	r5, r2
 3387 0004 1C1C     		mov	r4, r3
 454:.\write.c     **** 	int ret = _fat_dir_create_file(vol, name, FAT_ATTR_ARCHIVE, file);
 3388              		.loc 1 454 0
 3389 0006 2022     		mov	r2, #32
 3390              	.LVL400:
 3391 0008 FFF7FEFF 		bl	_fat_dir_create_file
 3392              	.LVL401:
 455:.\write.c     **** 	file->flags = flags;
 3393              		.loc 1 455 0
 3394 000c A561     		str	r5, [r4, #24]
 456:.\write.c     **** 	return ret;
 457:.\write.c     **** }
 3395              		.loc 1 457 0
 3396              		@ sp needed
 3397              	.LVL402:
 3398              	.LVL403:
 3399 000e 38BD     		pop	{r3, r4, r5, pc}
 3400              		.cfi_endproc
 3401              	.LFE30:
 3402              		.size	fat_create, .-fat_create
 3403              		.text
 3404              	.Letext0:
 3405              		.file 5 "c:\\program files (x86)\\cypress\\psoc creator\\3.3\\psoc creator\\import\\gnu\\arm\\4.9.
 3406              		.file 6 "c:\\program files (x86)\\cypress\\psoc creator\\3.3\\psoc creator\\import\\gnu\\arm\\4.9.
 3407              		.file 7 "c:\\program files (x86)\\cypress\\psoc creator\\3.3\\psoc creator\\import\\gnu\\arm\\4.9.
 3408              		.file 8 ".\\openfat.h"
 3409              		.file 9 ".\\direntry.h"
 3410              		.file 10 "c:\\program files (x86)\\cypress\\psoc creator\\3.3\\psoc creator\\import\\gnu\\arm\\4.9
 3411              		.file 11 "c:\\program files (x86)\\cypress\\psoc creator\\3.3\\psoc creator\\import\\gnu\\arm\\4.9
 3412              		.file 12 ".\\bpb.h"
 3413              		.section	.debug_info,"",%progbits
 3414              	.Ldebug_info0:
 3415 0000 521E0000 		.4byte	0x1e52
 3416 0004 0400     		.2byte	0x4
 3417 0006 00000000 		.4byte	.Ldebug_abbrev0
 3418 000a 04       		.byte	0x4
 3419 000b 01       		.uleb128 0x1
 3420 000c B4040000 		.4byte	.LASF122
 3421 0010 01       		.byte	0x1
 3422 0011 F5020000 		.4byte	.LASF123
 3423 0015 FF020000 		.4byte	.LASF124
 3424 0019 60000000 		.4byte	.Ldebug_ranges0+0x60
 3425 001d 00000000 		.4byte	0
 3426 0021 00000000 		.4byte	.Ldebug_line0
 3427 0025 02       		.uleb128 0x2
 3428 0026 04       		.byte	0x4
 3429 0027 05       		.byte	0x5
 3430 0028 696E7400 		.ascii	"int\000"
 3431 002c 03       		.uleb128 0x3
 3432 002d E7010000 		.4byte	.LASF2
 3433 0031 05       		.byte	0x5
 3434 0032 D4       		.byte	0xd4
 3435 0033 37000000 		.4byte	0x37
 3436 0037 04       		.uleb128 0x4
 3437 0038 04       		.byte	0x4
 3438 0039 07       		.byte	0x7
ARM GAS  C:\Users\Petro\AppData\Local\Temp\ccPFwMgj.s 			page 77


 3439 003a 5E000000 		.4byte	.LASF0
 3440 003e 04       		.uleb128 0x4
 3441 003f 01       		.byte	0x1
 3442 0040 06       		.byte	0x6
 3443 0041 32060000 		.4byte	.LASF1
 3444 0045 03       		.uleb128 0x3
 3445 0046 4D050000 		.4byte	.LASF3
 3446 004a 06       		.byte	0x6
 3447 004b 1D       		.byte	0x1d
 3448 004c 50000000 		.4byte	0x50
 3449 0050 04       		.uleb128 0x4
 3450 0051 01       		.byte	0x1
 3451 0052 08       		.byte	0x8
 3452 0053 C2050000 		.4byte	.LASF4
 3453 0057 04       		.uleb128 0x4
 3454 0058 02       		.byte	0x2
 3455 0059 05       		.byte	0x5
 3456 005a 64040000 		.4byte	.LASF5
 3457 005e 03       		.uleb128 0x3
 3458 005f B1010000 		.4byte	.LASF6
 3459 0063 06       		.byte	0x6
 3460 0064 2B       		.byte	0x2b
 3461 0065 69000000 		.4byte	0x69
 3462 0069 04       		.uleb128 0x4
 3463 006a 02       		.byte	0x2
 3464 006b 07       		.byte	0x7
 3465 006c 46060000 		.4byte	.LASF7
 3466 0070 03       		.uleb128 0x3
 3467 0071 A0000000 		.4byte	.LASF8
 3468 0075 06       		.byte	0x6
 3469 0076 3F       		.byte	0x3f
 3470 0077 7B000000 		.4byte	0x7b
 3471 007b 04       		.uleb128 0x4
 3472 007c 04       		.byte	0x4
 3473 007d 05       		.byte	0x5
 3474 007e 85040000 		.4byte	.LASF9
 3475 0082 03       		.uleb128 0x3
 3476 0083 DB050000 		.4byte	.LASF10
 3477 0087 06       		.byte	0x6
 3478 0088 41       		.byte	0x41
 3479 0089 8D000000 		.4byte	0x8d
 3480 008d 04       		.uleb128 0x4
 3481 008e 04       		.byte	0x4
 3482 008f 07       		.byte	0x7
 3483 0090 82050000 		.4byte	.LASF11
 3484 0094 04       		.uleb128 0x4
 3485 0095 08       		.byte	0x8
 3486 0096 05       		.byte	0x5
 3487 0097 63030000 		.4byte	.LASF12
 3488 009b 04       		.uleb128 0x4
 3489 009c 08       		.byte	0x8
 3490 009d 07       		.byte	0x7
 3491 009e 7B010000 		.4byte	.LASF13
 3492 00a2 04       		.uleb128 0x4
 3493 00a3 04       		.byte	0x4
 3494 00a4 07       		.byte	0x7
 3495 00a5 79050000 		.4byte	.LASF14
ARM GAS  C:\Users\Petro\AppData\Local\Temp\ccPFwMgj.s 			page 78


 3496 00a9 05       		.uleb128 0x5
 3497 00aa 04       		.byte	0x4
 3498 00ab 06       		.uleb128 0x6
 3499 00ac 04       		.byte	0x4
 3500 00ad B1000000 		.4byte	0xb1
 3501 00b1 04       		.uleb128 0x4
 3502 00b2 01       		.byte	0x1
 3503 00b3 08       		.byte	0x8
 3504 00b4 7D020000 		.4byte	.LASF15
 3505 00b8 06       		.uleb128 0x6
 3506 00b9 04       		.byte	0x4
 3507 00ba BE000000 		.4byte	0xbe
 3508 00be 07       		.uleb128 0x7
 3509 00bf B1000000 		.4byte	0xb1
 3510 00c3 03       		.uleb128 0x3
 3511 00c4 A4020000 		.4byte	.LASF16
 3512 00c8 07       		.byte	0x7
 3513 00c9 15       		.byte	0x15
 3514 00ca 45000000 		.4byte	0x45
 3515 00ce 03       		.uleb128 0x3
 3516 00cf 33040000 		.4byte	.LASF17
 3517 00d3 07       		.byte	0x7
 3518 00d4 21       		.byte	0x21
 3519 00d5 5E000000 		.4byte	0x5e
 3520 00d9 03       		.uleb128 0x3
 3521 00da AC050000 		.4byte	.LASF18
 3522 00de 07       		.byte	0x7
 3523 00df 2C       		.byte	0x2c
 3524 00e0 70000000 		.4byte	0x70
 3525 00e4 03       		.uleb128 0x3
 3526 00e5 15010000 		.4byte	.LASF19
 3527 00e9 07       		.byte	0x7
 3528 00ea 2D       		.byte	0x2d
 3529 00eb 82000000 		.4byte	0x82
 3530 00ef 04       		.uleb128 0x4
 3531 00f0 04       		.byte	0x4
 3532 00f1 04       		.byte	0x4
 3533 00f2 66010000 		.4byte	.LASF20
 3534 00f6 04       		.uleb128 0x4
 3535 00f7 08       		.byte	0x8
 3536 00f8 04       		.byte	0x4
 3537 00f9 6B060000 		.4byte	.LASF21
 3538 00fd 08       		.uleb128 0x8
 3539 00fe 7F000000 		.4byte	.LASF26
 3540 0102 0C       		.byte	0xc
 3541 0103 02       		.byte	0x2
 3542 0104 22       		.byte	0x22
 3543 0105 2E010000 		.4byte	0x12e
 3544 0109 09       		.uleb128 0x9
 3545 010a E0000000 		.4byte	.LASF22
 3546 010e 02       		.byte	0x2
 3547 010f 25       		.byte	0x25
 3548 0110 48010000 		.4byte	0x148
 3549 0114 00       		.byte	0
 3550 0115 09       		.uleb128 0x9
 3551 0116 35010000 		.4byte	.LASF23
 3552 011a 02       		.byte	0x2
ARM GAS  C:\Users\Petro\AppData\Local\Temp\ccPFwMgj.s 			page 79


 3553 011b 2A       		.byte	0x2a
 3554 011c 6C010000 		.4byte	0x16c
 3555 0120 04       		.byte	0x4
 3556 0121 09       		.uleb128 0x9
 3557 0122 4C010000 		.4byte	.LASF24
 3558 0126 02       		.byte	0x2
 3559 0127 2D       		.byte	0x2d
 3560 0128 97010000 		.4byte	0x197
 3561 012c 08       		.byte	0x8
 3562 012d 00       		.byte	0
 3563 012e 0A       		.uleb128 0xa
 3564 012f CE000000 		.4byte	0xce
 3565 0133 3D010000 		.4byte	0x13d
 3566 0137 0B       		.uleb128 0xb
 3567 0138 3D010000 		.4byte	0x13d
 3568 013c 00       		.byte	0
 3569 013d 06       		.uleb128 0x6
 3570 013e 04       		.byte	0x4
 3571 013f 43010000 		.4byte	0x143
 3572 0143 07       		.uleb128 0x7
 3573 0144 FD000000 		.4byte	0xfd
 3574 0148 06       		.uleb128 0x6
 3575 0149 04       		.byte	0x4
 3576 014a 2E010000 		.4byte	0x12e
 3577 014e 0A       		.uleb128 0xa
 3578 014f 25000000 		.4byte	0x25
 3579 0153 6C010000 		.4byte	0x16c
 3580 0157 0B       		.uleb128 0xb
 3581 0158 3D010000 		.4byte	0x13d
 3582 015c 0B       		.uleb128 0xb
 3583 015d E4000000 		.4byte	0xe4
 3584 0161 0B       		.uleb128 0xb
 3585 0162 E4000000 		.4byte	0xe4
 3586 0166 0B       		.uleb128 0xb
 3587 0167 A9000000 		.4byte	0xa9
 3588 016b 00       		.byte	0
 3589 016c 06       		.uleb128 0x6
 3590 016d 04       		.byte	0x4
 3591 016e 4E010000 		.4byte	0x14e
 3592 0172 0A       		.uleb128 0xa
 3593 0173 25000000 		.4byte	0x25
 3594 0177 90010000 		.4byte	0x190
 3595 017b 0B       		.uleb128 0xb
 3596 017c 3D010000 		.4byte	0x13d
 3597 0180 0B       		.uleb128 0xb
 3598 0181 E4000000 		.4byte	0xe4
 3599 0185 0B       		.uleb128 0xb
 3600 0186 E4000000 		.4byte	0xe4
 3601 018a 0B       		.uleb128 0xb
 3602 018b 90010000 		.4byte	0x190
 3603 018f 00       		.byte	0
 3604 0190 06       		.uleb128 0x6
 3605 0191 04       		.byte	0x4
 3606 0192 96010000 		.4byte	0x196
 3607 0196 0C       		.uleb128 0xc
 3608 0197 06       		.uleb128 0x6
 3609 0198 04       		.byte	0x4
ARM GAS  C:\Users\Petro\AppData\Local\Temp\ccPFwMgj.s 			page 80


 3610 0199 72010000 		.4byte	0x172
 3611 019d 03       		.uleb128 0x3
 3612 019e 50030000 		.4byte	.LASF25
 3613 01a2 08       		.byte	0x8
 3614 01a3 27       		.byte	0x27
 3615 01a4 A8010000 		.4byte	0x1a8
 3616 01a8 08       		.uleb128 0x8
 3617 01a9 06010000 		.4byte	.LASF27
 3618 01ad 48       		.byte	0x48
 3619 01ae 08       		.byte	0x8
 3620 01af C1       		.byte	0xc1
 3621 01b0 3F020000 		.4byte	0x23f
 3622 01b4 0D       		.uleb128 0xd
 3623 01b5 64657600 		.ascii	"dev\000"
 3624 01b9 08       		.byte	0x8
 3625 01ba C2       		.byte	0xc2
 3626 01bb 3D010000 		.4byte	0x13d
 3627 01bf 00       		.byte	0
 3628 01c0 09       		.uleb128 0x9
 3629 01c1 BD050000 		.4byte	.LASF28
 3630 01c5 08       		.byte	0x8
 3631 01c6 C4       		.byte	0xc4
 3632 01c7 25000000 		.4byte	0x25
 3633 01cb 04       		.byte	0x4
 3634 01cc 09       		.uleb128 0x9
 3635 01cd E6050000 		.4byte	.LASF29
 3636 01d1 08       		.byte	0x8
 3637 01d2 C6       		.byte	0xc6
 3638 01d3 CE000000 		.4byte	0xce
 3639 01d7 08       		.byte	0x8
 3640 01d8 09       		.uleb128 0x9
 3641 01d9 F4030000 		.4byte	.LASF30
 3642 01dd 08       		.byte	0x8
 3643 01de C7       		.byte	0xc7
 3644 01df C3000000 		.4byte	0xc3
 3645 01e3 0A       		.byte	0xa
 3646 01e4 09       		.uleb128 0x9
 3647 01e5 5B020000 		.4byte	.LASF31
 3648 01e9 08       		.byte	0x8
 3649 01ea C8       		.byte	0xc8
 3650 01eb CE000000 		.4byte	0xce
 3651 01ef 0C       		.byte	0xc
 3652 01f0 09       		.uleb128 0x9
 3653 01f1 16040000 		.4byte	.LASF32
 3654 01f5 08       		.byte	0x8
 3655 01f6 C9       		.byte	0xc9
 3656 01f7 C3000000 		.4byte	0xc3
 3657 01fb 0E       		.byte	0xe
 3658 01fc 09       		.uleb128 0x9
 3659 01fd BC010000 		.4byte	.LASF33
 3660 0201 08       		.byte	0x8
 3661 0202 CB       		.byte	0xcb
 3662 0203 E4000000 		.4byte	0xe4
 3663 0207 10       		.byte	0x10
 3664 0208 09       		.uleb128 0x9
 3665 0209 8F020000 		.4byte	.LASF34
 3666 020d 08       		.byte	0x8
ARM GAS  C:\Users\Petro\AppData\Local\Temp\ccPFwMgj.s 			page 81


 3667 020e CC       		.byte	0xcc
 3668 020f E4000000 		.4byte	0xe4
 3669 0213 14       		.byte	0x14
 3670 0214 09       		.uleb128 0x9
 3671 0215 B4050000 		.4byte	.LASF35
 3672 0219 08       		.byte	0x8
 3673 021a CD       		.byte	0xcd
 3674 021b E4000000 		.4byte	0xe4
 3675 021f 18       		.byte	0x18
 3676 0220 0E       		.uleb128 0xe
 3677 0221 0F030000 		.4byte	0x30f
 3678 0225 1C       		.byte	0x1c
 3679 0226 09       		.uleb128 0x9
 3680 0227 E2020000 		.4byte	.LASF36
 3681 022b 08       		.byte	0x8
 3682 022c D8       		.byte	0xd8
 3683 022d E4000000 		.4byte	0xe4
 3684 0231 20       		.byte	0x20
 3685 0232 0D       		.uleb128 0xd
 3686 0233 63776400 		.ascii	"cwd\000"
 3687 0237 08       		.byte	0x8
 3688 0238 D9       		.byte	0xd9
 3689 0239 4A020000 		.4byte	0x24a
 3690 023d 24       		.byte	0x24
 3691 023e 00       		.byte	0
 3692 023f 03       		.uleb128 0x3
 3693 0240 00000000 		.4byte	.LASF37
 3694 0244 08       		.byte	0x8
 3695 0245 2C       		.byte	0x2c
 3696 0246 4A020000 		.4byte	0x24a
 3697 024a 08       		.uleb128 0x8
 3698 024b F0000000 		.4byte	.LASF38
 3699 024f 24       		.byte	0x24
 3700 0250 08       		.byte	0x8
 3701 0251 B2       		.byte	0xb2
 3702 0252 C3020000 		.4byte	0x2c3
 3703 0256 0D       		.uleb128 0xd
 3704 0257 66617400 		.ascii	"fat\000"
 3705 025b 08       		.byte	0x8
 3706 025c B3       		.byte	0xb3
 3707 025d D3020000 		.4byte	0x2d3
 3708 0261 00       		.byte	0
 3709 0262 09       		.uleb128 0x9
 3710 0263 EF030000 		.4byte	.LASF39
 3711 0267 08       		.byte	0x8
 3712 0268 B5       		.byte	0xb5
 3713 0269 E4000000 		.4byte	0xe4
 3714 026d 04       		.byte	0x4
 3715 026e 09       		.uleb128 0x9
 3716 026f 62050000 		.4byte	.LASF40
 3717 0273 08       		.byte	0x8
 3718 0274 B6       		.byte	0xb6
 3719 0275 E4000000 		.4byte	0xe4
 3720 0279 08       		.byte	0x8
 3721 027a 09       		.uleb128 0x9
 3722 027b B2060000 		.4byte	.LASF41
 3723 027f 08       		.byte	0x8
ARM GAS  C:\Users\Petro\AppData\Local\Temp\ccPFwMgj.s 			page 82


 3724 0280 B8       		.byte	0xb8
 3725 0281 E4000000 		.4byte	0xe4
 3726 0285 0C       		.byte	0xc
 3727 0286 09       		.uleb128 0x9
 3728 0287 DA030000 		.4byte	.LASF42
 3729 028b 08       		.byte	0x8
 3730 028c B9       		.byte	0xb9
 3731 028d E4000000 		.4byte	0xe4
 3732 0291 10       		.byte	0x10
 3733 0292 09       		.uleb128 0x9
 3734 0293 42010000 		.4byte	.LASF43
 3735 0297 08       		.byte	0x8
 3736 0298 BA       		.byte	0xba
 3737 0299 C3000000 		.4byte	0xc3
 3738 029d 14       		.byte	0x14
 3739 029e 09       		.uleb128 0x9
 3740 029f 58000000 		.4byte	.LASF44
 3741 02a3 08       		.byte	0x8
 3742 02a4 BB       		.byte	0xbb
 3743 02a5 25000000 		.4byte	0x25
 3744 02a9 18       		.byte	0x18
 3745 02aa 09       		.uleb128 0x9
 3746 02ab 29020000 		.4byte	.LASF45
 3747 02af 08       		.byte	0x8
 3748 02b0 BD       		.byte	0xbd
 3749 02b1 E4000000 		.4byte	0xe4
 3750 02b5 1C       		.byte	0x1c
 3751 02b6 09       		.uleb128 0x9
 3752 02b7 1B020000 		.4byte	.LASF46
 3753 02bb 08       		.byte	0x8
 3754 02bc BE       		.byte	0xbe
 3755 02bd CE000000 		.4byte	0xce
 3756 02c1 20       		.byte	0x20
 3757 02c2 00       		.byte	0
 3758 02c3 0F       		.uleb128 0xf
 3759 02c4 B1000000 		.4byte	0xb1
 3760 02c8 D3020000 		.4byte	0x2d3
 3761 02cc 10       		.uleb128 0x10
 3762 02cd A2000000 		.4byte	0xa2
 3763 02d1 0A       		.byte	0xa
 3764 02d2 00       		.byte	0
 3765 02d3 06       		.uleb128 0x6
 3766 02d4 04       		.byte	0x4
 3767 02d5 A8010000 		.4byte	0x1a8
 3768 02d9 11       		.uleb128 0x11
 3769 02da 04       		.byte	0x4
 3770 02db 08       		.byte	0x8
 3771 02dc CF       		.byte	0xcf
 3772 02dd EE020000 		.4byte	0x2ee
 3773 02e1 09       		.uleb128 0x9
 3774 02e2 8E060000 		.4byte	.LASF47
 3775 02e6 08       		.byte	0x8
 3776 02e7 D0       		.byte	0xd0
 3777 02e8 E4000000 		.4byte	0xe4
 3778 02ec 00       		.byte	0
 3779 02ed 00       		.byte	0
 3780 02ee 11       		.uleb128 0x11
ARM GAS  C:\Users\Petro\AppData\Local\Temp\ccPFwMgj.s 			page 83


 3781 02ef 04       		.byte	0x4
 3782 02f0 08       		.byte	0x8
 3783 02f1 D2       		.byte	0xd2
 3784 02f2 0F030000 		.4byte	0x30f
 3785 02f6 09       		.uleb128 0x9
 3786 02f7 37020000 		.4byte	.LASF48
 3787 02fb 08       		.byte	0x8
 3788 02fc D3       		.byte	0xd3
 3789 02fd CE000000 		.4byte	0xce
 3790 0301 00       		.byte	0
 3791 0302 09       		.uleb128 0x9
 3792 0303 F5010000 		.4byte	.LASF49
 3793 0307 08       		.byte	0x8
 3794 0308 D4       		.byte	0xd4
 3795 0309 CE000000 		.4byte	0xce
 3796 030d 02       		.byte	0x2
 3797 030e 00       		.byte	0
 3798 030f 12       		.uleb128 0x12
 3799 0310 04       		.byte	0x4
 3800 0311 08       		.byte	0x8
 3801 0312 CE       		.byte	0xce
 3802 0313 2E030000 		.4byte	0x32e
 3803 0317 13       		.uleb128 0x13
 3804 0318 5C050000 		.4byte	.LASF50
 3805 031c 08       		.byte	0x8
 3806 031d D1       		.byte	0xd1
 3807 031e D9020000 		.4byte	0x2d9
 3808 0322 13       		.uleb128 0x13
 3809 0323 E6030000 		.4byte	.LASF51
 3810 0327 08       		.byte	0x8
 3811 0328 D5       		.byte	0xd5
 3812 0329 EE020000 		.4byte	0x2ee
 3813 032d 00       		.byte	0
 3814 032e 0F       		.uleb128 0xf
 3815 032f C3000000 		.4byte	0xc3
 3816 0333 3E030000 		.4byte	0x33e
 3817 0337 10       		.uleb128 0x10
 3818 0338 A2000000 		.4byte	0xa2
 3819 033c 0B       		.byte	0xb
 3820 033d 00       		.byte	0
 3821 033e 14       		.uleb128 0x14
 3822 033f 6B000000 		.4byte	.LASF125
 3823 0343 01       		.byte	0x1
 3824 0344 0C       		.byte	0xc
 3825 0345 70       		.byte	0x70
 3826 0346 5D030000 		.4byte	0x35d
 3827 034a 15       		.uleb128 0x15
 3828 034b A5030000 		.4byte	.LASF52
 3829 034f 0C       		.sleb128 12
 3830 0350 15       		.uleb128 0x15
 3831 0351 B4030000 		.4byte	.LASF53
 3832 0355 10       		.sleb128 16
 3833 0356 15       		.uleb128 0x15
 3834 0357 55040000 		.4byte	.LASF54
 3835 035b 20       		.sleb128 32
 3836 035c 00       		.byte	0
 3837 035d 08       		.uleb128 0x8
ARM GAS  C:\Users\Petro\AppData\Local\Temp\ccPFwMgj.s 			page 84


 3838 035e 5A010000 		.4byte	.LASF55
 3839 0362 20       		.byte	0x20
 3840 0363 09       		.byte	0x9
 3841 0364 1C       		.byte	0x1c
 3842 0365 FA030000 		.4byte	0x3fa
 3843 0369 09       		.uleb128 0x9
 3844 036a 57050000 		.4byte	.LASF56
 3845 036e 09       		.byte	0x9
 3846 036f 1D       		.byte	0x1d
 3847 0370 C3020000 		.4byte	0x2c3
 3848 0374 00       		.byte	0
 3849 0375 09       		.uleb128 0x9
 3850 0376 A0010000 		.4byte	.LASF57
 3851 037a 09       		.byte	0x9
 3852 037b 1E       		.byte	0x1e
 3853 037c C3000000 		.4byte	0xc3
 3854 0380 0B       		.byte	0xb
 3855 0381 09       		.uleb128 0x9
 3856 0382 92010000 		.4byte	.LASF58
 3857 0386 09       		.byte	0x9
 3858 0387 1F       		.byte	0x1f
 3859 0388 C3000000 		.4byte	0xc3
 3860 038c 0C       		.byte	0xc
 3861 038d 09       		.uleb128 0x9
 3862 038e FD050000 		.4byte	.LASF59
 3863 0392 09       		.byte	0x9
 3864 0393 20       		.byte	0x20
 3865 0394 C3000000 		.4byte	0xc3
 3866 0398 0D       		.byte	0xd
 3867 0399 09       		.uleb128 0x9
 3868 039a 71020000 		.4byte	.LASF60
 3869 039e 09       		.byte	0x9
 3870 039f 21       		.byte	0x21
 3871 03a0 CE000000 		.4byte	0xce
 3872 03a4 0E       		.byte	0xe
 3873 03a5 09       		.uleb128 0x9
 3874 03a6 D6020000 		.4byte	.LASF61
 3875 03aa 09       		.byte	0x9
 3876 03ab 22       		.byte	0x22
 3877 03ac CE000000 		.4byte	0xce
 3878 03b0 10       		.byte	0x10
 3879 03b1 09       		.uleb128 0x9
 3880 03b2 AA000000 		.4byte	.LASF62
 3881 03b6 09       		.byte	0x9
 3882 03b7 23       		.byte	0x23
 3883 03b8 CE000000 		.4byte	0xce
 3884 03bc 12       		.byte	0x12
 3885 03bd 09       		.uleb128 0x9
 3886 03be 42050000 		.4byte	.LASF63
 3887 03c2 09       		.byte	0x9
 3888 03c3 24       		.byte	0x24
 3889 03c4 CE000000 		.4byte	0xce
 3890 03c8 14       		.byte	0x14
 3891 03c9 09       		.uleb128 0x9
 3892 03ca 1F060000 		.4byte	.LASF64
 3893 03ce 09       		.byte	0x9
 3894 03cf 25       		.byte	0x25
ARM GAS  C:\Users\Petro\AppData\Local\Temp\ccPFwMgj.s 			page 85


 3895 03d0 CE000000 		.4byte	0xce
 3896 03d4 16       		.byte	0x16
 3897 03d5 09       		.uleb128 0x9
 3898 03d6 60060000 		.4byte	.LASF65
 3899 03da 09       		.byte	0x9
 3900 03db 26       		.byte	0x26
 3901 03dc CE000000 		.4byte	0xce
 3902 03e0 18       		.byte	0x18
 3903 03e1 09       		.uleb128 0x9
 3904 03e2 08000000 		.4byte	.LASF66
 3905 03e6 09       		.byte	0x9
 3906 03e7 27       		.byte	0x27
 3907 03e8 CE000000 		.4byte	0xce
 3908 03ec 1A       		.byte	0x1a
 3909 03ed 09       		.uleb128 0x9
 3910 03ee EF030000 		.4byte	.LASF39
 3911 03f2 09       		.byte	0x9
 3912 03f3 28       		.byte	0x28
 3913 03f4 E4000000 		.4byte	0xe4
 3914 03f8 1C       		.byte	0x1c
 3915 03f9 00       		.byte	0
 3916 03fa 08       		.uleb128 0x8
 3917 03fb A5010000 		.4byte	.LASF67
 3918 03ff 20       		.byte	0x20
 3919 0400 09       		.byte	0x9
 3920 0401 2F       		.byte	0x2f
 3921 0402 67040000 		.4byte	0x467
 3922 0406 0D       		.uleb128 0xd
 3923 0407 6F726400 		.ascii	"ord\000"
 3924 040b 09       		.byte	0x9
 3925 040c 30       		.byte	0x30
 3926 040d C3000000 		.4byte	0xc3
 3927 0411 00       		.byte	0
 3928 0412 09       		.uleb128 0x9
 3929 0413 F7050000 		.4byte	.LASF68
 3930 0417 09       		.byte	0x9
 3931 0418 31       		.byte	0x31
 3932 0419 67040000 		.4byte	0x467
 3933 041d 01       		.byte	0x1
 3934 041e 09       		.uleb128 0x9
 3935 041f A0010000 		.4byte	.LASF57
 3936 0423 09       		.byte	0x9
 3937 0424 32       		.byte	0x32
 3938 0425 C3000000 		.4byte	0xc3
 3939 0429 0B       		.byte	0xb
 3940 042a 09       		.uleb128 0x9
 3941 042b BD050000 		.4byte	.LASF28
 3942 042f 09       		.byte	0x9
 3943 0430 33       		.byte	0x33
 3944 0431 C3000000 		.4byte	0xc3
 3945 0435 0C       		.byte	0xc
 3946 0436 09       		.uleb128 0x9
 3947 0437 6C010000 		.4byte	.LASF69
 3948 043b 09       		.byte	0x9
 3949 043c 34       		.byte	0x34
 3950 043d C3000000 		.4byte	0xc3
 3951 0441 0D       		.byte	0xd
ARM GAS  C:\Users\Petro\AppData\Local\Temp\ccPFwMgj.s 			page 86


 3952 0442 09       		.uleb128 0x9
 3953 0443 57030000 		.4byte	.LASF70
 3954 0447 09       		.byte	0x9
 3955 0448 35       		.byte	0x35
 3956 0449 77040000 		.4byte	0x477
 3957 044d 0E       		.byte	0xe
 3958 044e 09       		.uleb128 0x9
 3959 044f 08000000 		.4byte	.LASF66
 3960 0453 09       		.byte	0x9
 3961 0454 36       		.byte	0x36
 3962 0455 CE000000 		.4byte	0xce
 3963 0459 1A       		.byte	0x1a
 3964 045a 09       		.uleb128 0x9
 3965 045b 5D030000 		.4byte	.LASF71
 3966 045f 09       		.byte	0x9
 3967 0460 37       		.byte	0x37
 3968 0461 87040000 		.4byte	0x487
 3969 0465 1C       		.byte	0x1c
 3970 0466 00       		.byte	0
 3971 0467 0F       		.uleb128 0xf
 3972 0468 CE000000 		.4byte	0xce
 3973 046c 77040000 		.4byte	0x477
 3974 0470 10       		.uleb128 0x10
 3975 0471 A2000000 		.4byte	0xa2
 3976 0475 04       		.byte	0x4
 3977 0476 00       		.byte	0
 3978 0477 0F       		.uleb128 0xf
 3979 0478 CE000000 		.4byte	0xce
 3980 047c 87040000 		.4byte	0x487
 3981 0480 10       		.uleb128 0x10
 3982 0481 A2000000 		.4byte	0xa2
 3983 0485 05       		.byte	0x5
 3984 0486 00       		.byte	0
 3985 0487 0F       		.uleb128 0xf
 3986 0488 CE000000 		.4byte	0xce
 3987 048c 97040000 		.4byte	0x497
 3988 0490 10       		.uleb128 0x10
 3989 0491 A2000000 		.4byte	0xa2
 3990 0495 01       		.byte	0x1
 3991 0496 00       		.byte	0
 3992 0497 08       		.uleb128 0x8
 3993 0498 74000000 		.4byte	.LASF72
 3994 049c 10       		.byte	0x10
 3995 049d 04       		.byte	0x4
 3996 049e 1F       		.byte	0x1f
 3997 049f D4040000 		.4byte	0x4d4
 3998 04a3 0D       		.uleb128 0xd
 3999 04a4 62756600 		.ascii	"buf\000"
 4000 04a8 04       		.byte	0x4
 4001 04a9 21       		.byte	0x21
 4002 04aa D4040000 		.4byte	0x4d4
 4003 04ae 00       		.byte	0
 4004 04af 09       		.uleb128 0x9
 4005 04b0 78030000 		.4byte	.LASF73
 4006 04b4 04       		.byte	0x4
 4007 04b5 24       		.byte	0x24
 4008 04b6 90010000 		.4byte	0x190
ARM GAS  C:\Users\Petro\AppData\Local\Temp\ccPFwMgj.s 			page 87


 4009 04ba 04       		.byte	0x4
 4010 04bb 09       		.uleb128 0x9
 4011 04bc 9D020000 		.4byte	.LASF74
 4012 04c0 04       		.byte	0x4
 4013 04c1 25       		.byte	0x25
 4014 04c2 E4000000 		.4byte	0xe4
 4015 04c6 08       		.byte	0x8
 4016 04c7 09       		.uleb128 0x9
 4017 04c8 2D040000 		.4byte	.LASF75
 4018 04cc 04       		.byte	0x4
 4019 04cd 28       		.byte	0x28
 4020 04ce C3000000 		.4byte	0xc3
 4021 04d2 0C       		.byte	0xc
 4022 04d3 00       		.byte	0
 4023 04d4 06       		.uleb128 0x6
 4024 04d5 04       		.byte	0x4
 4025 04d6 C3000000 		.4byte	0xc3
 4026 04da 16       		.uleb128 0x16
 4027 04db 7E030000 		.4byte	.LASF76
 4028 04df 03       		.byte	0x3
 4029 04e0 1F       		.byte	0x1f
 4030 04e1 CE000000 		.4byte	0xce
 4031 04e5 03       		.byte	0x3
 4032 04e6 F4040000 		.4byte	0x4f4
 4033 04ea 17       		.uleb128 0x17
 4034 04eb 7000     		.ascii	"p\000"
 4035 04ed 03       		.byte	0x3
 4036 04ee 1F       		.byte	0x1f
 4037 04ef F4040000 		.4byte	0x4f4
 4038 04f3 00       		.byte	0
 4039 04f4 06       		.uleb128 0x6
 4040 04f5 04       		.byte	0x4
 4041 04f6 FA040000 		.4byte	0x4fa
 4042 04fa 07       		.uleb128 0x7
 4043 04fb CE000000 		.4byte	0xce
 4044 04ff 18       		.uleb128 0x18
 4045 0500 A9040000 		.4byte	.LASF81
 4046 0504 03       		.byte	0x3
 4047 0505 24       		.byte	0x24
 4048 0506 03       		.byte	0x3
 4049 0507 1E050000 		.4byte	0x51e
 4050 050b 17       		.uleb128 0x17
 4051 050c 7000     		.ascii	"p\000"
 4052 050e 03       		.byte	0x3
 4053 050f 24       		.byte	0x24
 4054 0510 1E050000 		.4byte	0x51e
 4055 0514 17       		.uleb128 0x17
 4056 0515 7600     		.ascii	"v\000"
 4057 0517 03       		.byte	0x3
 4058 0518 24       		.byte	0x24
 4059 0519 CE000000 		.4byte	0xce
 4060 051d 00       		.byte	0
 4061 051e 06       		.uleb128 0x6
 4062 051f 04       		.byte	0x4
 4063 0520 CE000000 		.4byte	0xce
 4064 0524 16       		.uleb128 0x16
 4065 0525 8C000000 		.4byte	.LASF77
ARM GAS  C:\Users\Petro\AppData\Local\Temp\ccPFwMgj.s 			page 88


 4066 0529 02       		.byte	0x2
 4067 052a 45       		.byte	0x45
 4068 052b 25000000 		.4byte	0x25
 4069 052f 03       		.byte	0x3
 4070 0530 61050000 		.4byte	0x561
 4071 0534 17       		.uleb128 0x17
 4072 0535 64657600 		.ascii	"dev\000"
 4073 0539 02       		.byte	0x2
 4074 053a 45       		.byte	0x45
 4075 053b 3D010000 		.4byte	0x13d
 4076 053f 19       		.uleb128 0x19
 4077 0540 9D020000 		.4byte	.LASF74
 4078 0544 02       		.byte	0x2
 4079 0545 46       		.byte	0x46
 4080 0546 E4000000 		.4byte	0xe4
 4081 054a 19       		.uleb128 0x19
 4082 054b 75010000 		.4byte	.LASF78
 4083 054f 02       		.byte	0x2
 4084 0550 46       		.byte	0x46
 4085 0551 E4000000 		.4byte	0xe4
 4086 0555 17       		.uleb128 0x17
 4087 0556 62756600 		.ascii	"buf\000"
 4088 055a 02       		.byte	0x2
 4089 055b 46       		.byte	0x46
 4090 055c 90010000 		.4byte	0x190
 4091 0560 00       		.byte	0
 4092 0561 16       		.uleb128 0x16
 4093 0562 AC020000 		.4byte	.LASF79
 4094 0566 02       		.byte	0x2
 4095 0567 3D       		.byte	0x3d
 4096 0568 25000000 		.4byte	0x25
 4097 056c 03       		.byte	0x3
 4098 056d 9E050000 		.4byte	0x59e
 4099 0571 17       		.uleb128 0x17
 4100 0572 64657600 		.ascii	"dev\000"
 4101 0576 02       		.byte	0x2
 4102 0577 3D       		.byte	0x3d
 4103 0578 3D010000 		.4byte	0x13d
 4104 057c 19       		.uleb128 0x19
 4105 057d 9D020000 		.4byte	.LASF74
 4106 0581 02       		.byte	0x2
 4107 0582 3E       		.byte	0x3e
 4108 0583 E4000000 		.4byte	0xe4
 4109 0587 19       		.uleb128 0x19
 4110 0588 75010000 		.4byte	.LASF78
 4111 058c 02       		.byte	0x2
 4112 058d 3E       		.byte	0x3e
 4113 058e E4000000 		.4byte	0xe4
 4114 0592 17       		.uleb128 0x17
 4115 0593 62756600 		.ascii	"buf\000"
 4116 0597 02       		.byte	0x2
 4117 0598 3E       		.byte	0x3e
 4118 0599 A9000000 		.4byte	0xa9
 4119 059d 00       		.byte	0
 4120 059e 16       		.uleb128 0x16
 4121 059f 43040000 		.4byte	.LASF80
 4122 05a3 03       		.byte	0x3
ARM GAS  C:\Users\Petro\AppData\Local\Temp\ccPFwMgj.s 			page 89


 4123 05a4 2A       		.byte	0x2a
 4124 05a5 E4000000 		.4byte	0xe4
 4125 05a9 03       		.byte	0x3
 4126 05aa B8050000 		.4byte	0x5b8
 4127 05ae 17       		.uleb128 0x17
 4128 05af 7000     		.ascii	"p\000"
 4129 05b1 03       		.byte	0x3
 4130 05b2 2A       		.byte	0x2a
 4131 05b3 B8050000 		.4byte	0x5b8
 4132 05b7 00       		.byte	0
 4133 05b8 06       		.uleb128 0x6
 4134 05b9 04       		.byte	0x4
 4135 05ba BE050000 		.4byte	0x5be
 4136 05be 07       		.uleb128 0x7
 4137 05bf E4000000 		.4byte	0xe4
 4138 05c3 18       		.uleb128 0x18
 4139 05c4 D0050000 		.4byte	.LASF82
 4140 05c8 03       		.byte	0x3
 4141 05c9 30       		.byte	0x30
 4142 05ca 03       		.byte	0x3
 4143 05cb E2050000 		.4byte	0x5e2
 4144 05cf 17       		.uleb128 0x17
 4145 05d0 7000     		.ascii	"p\000"
 4146 05d2 03       		.byte	0x3
 4147 05d3 30       		.byte	0x30
 4148 05d4 E2050000 		.4byte	0x5e2
 4149 05d8 17       		.uleb128 0x17
 4150 05d9 7600     		.ascii	"v\000"
 4151 05db 03       		.byte	0x3
 4152 05dc 30       		.byte	0x30
 4153 05dd E4000000 		.4byte	0xe4
 4154 05e1 00       		.byte	0
 4155 05e2 06       		.uleb128 0x6
 4156 05e3 04       		.byte	0x4
 4157 05e4 E4000000 		.4byte	0xe4
 4158 05e8 16       		.uleb128 0x16
 4159 05e9 2A060000 		.4byte	.LASF83
 4160 05ed 04       		.byte	0x4
 4161 05ee 2C       		.byte	0x2c
 4162 05ef E4000000 		.4byte	0xe4
 4163 05f3 03       		.byte	0x3
 4164 05f4 04060000 		.4byte	0x604
 4165 05f8 17       		.uleb128 0x17
 4166 05f9 66617400 		.ascii	"fat\000"
 4167 05fd 04       		.byte	0x4
 4168 05fe 2C       		.byte	0x2c
 4169 05ff 04060000 		.4byte	0x604
 4170 0603 00       		.byte	0
 4171 0604 06       		.uleb128 0x6
 4172 0605 04       		.byte	0x4
 4173 0606 0A060000 		.4byte	0x60a
 4174 060a 07       		.uleb128 0x7
 4175 060b A8010000 		.4byte	0x1a8
 4176 060f 16       		.uleb128 0x16
 4177 0610 89030000 		.4byte	.LASF84
 4178 0614 04       		.byte	0x4
 4179 0615 3A       		.byte	0x3a
ARM GAS  C:\Users\Petro\AppData\Local\Temp\ccPFwMgj.s 			page 90


 4180 0616 E4000000 		.4byte	0xe4
 4181 061a 03       		.byte	0x3
 4182 061b 34060000 		.4byte	0x634
 4183 061f 17       		.uleb128 0x17
 4184 0620 66617400 		.ascii	"fat\000"
 4185 0624 04       		.byte	0x4
 4186 0625 3A       		.byte	0x3a
 4187 0626 04060000 		.4byte	0x604
 4188 062a 17       		.uleb128 0x17
 4189 062b 6E00     		.ascii	"n\000"
 4190 062d 04       		.byte	0x4
 4191 062e 3A       		.byte	0x3a
 4192 062f E4000000 		.4byte	0xe4
 4193 0633 00       		.byte	0
 4194 0634 1A       		.uleb128 0x1a
 4195 0635 6E040000 		.4byte	.LASF88
 4196 0639 01       		.byte	0x1
 4197 063a 36       		.byte	0x36
 4198 063b 25000000 		.4byte	0x25
 4199 063f 00000000 		.4byte	.LFB18
 4200 0643 F8000000 		.4byte	.LFE18-.LFB18
 4201 0647 01       		.uleb128 0x1
 4202 0648 9C       		.byte	0x9c
 4203 0649 12080000 		.4byte	0x812
 4204 064d 1B       		.uleb128 0x1b
 4205 064e 6800     		.ascii	"h\000"
 4206 0650 01       		.byte	0x1
 4207 0651 36       		.byte	0x36
 4208 0652 04060000 		.4byte	0x604
 4209 0656 00000000 		.4byte	.LLST0
 4210 065a 1B       		.uleb128 0x1b
 4211 065b 66617400 		.ascii	"fat\000"
 4212 065f 01       		.byte	0x1
 4213 0660 36       		.byte	0x36
 4214 0661 C3000000 		.4byte	0xc3
 4215 0665 2C000000 		.4byte	.LLST1
 4216 0669 1C       		.uleb128 0x1c
 4217 066a 53020000 		.4byte	.LASF85
 4218 066e 01       		.byte	0x1
 4219 066f 37       		.byte	0x37
 4220 0670 E4000000 		.4byte	0xe4
 4221 0674 4D000000 		.4byte	.LLST2
 4222 0678 1C       		.uleb128 0x1c
 4223 0679 A4040000 		.4byte	.LASF86
 4224 067d 01       		.byte	0x1
 4225 067e 37       		.byte	0x37
 4226 067f E4000000 		.4byte	0xe4
 4227 0683 6E000000 		.4byte	.LLST3
 4228 0687 1D       		.uleb128 0x1d
 4229 0688 EE010000 		.4byte	.LASF87
 4230 068c 01       		.byte	0x1
 4231 068d 39       		.byte	0x39
 4232 068e E4000000 		.4byte	0xe4
 4233 0692 C6000000 		.4byte	.LLST4
 4234 0696 1D       		.uleb128 0x1d
 4235 0697 9D020000 		.4byte	.LASF74
 4236 069b 01       		.byte	0x1
ARM GAS  C:\Users\Petro\AppData\Local\Temp\ccPFwMgj.s 			page 91


 4237 069c 3A       		.byte	0x3a
 4238 069d E4000000 		.4byte	0xe4
 4239 06a1 EF000000 		.4byte	.LLST5
 4240 06a5 1E       		.uleb128 0x1e
 4241 06a6 24050000 		.4byte	0x524
 4242 06aa 4C000000 		.4byte	.LBB141
 4243 06ae 08000000 		.4byte	.LBE141-.LBB141
 4244 06b2 01       		.byte	0x1
 4245 06b3 40       		.byte	0x40
 4246 06b4 E7060000 		.4byte	0x6e7
 4247 06b8 1F       		.uleb128 0x1f
 4248 06b9 55050000 		.4byte	0x555
 4249 06bd 20       		.uleb128 0x20
 4250 06be 4A050000 		.4byte	0x54a
 4251 06c2 02010000 		.4byte	.LLST6
 4252 06c6 20       		.uleb128 0x20
 4253 06c7 3F050000 		.4byte	0x53f
 4254 06cb 22010000 		.4byte	.LLST7
 4255 06cf 20       		.uleb128 0x20
 4256 06d0 34050000 		.4byte	0x534
 4257 06d4 35010000 		.4byte	.LLST8
 4258 06d8 21       		.uleb128 0x21
 4259 06d9 54000000 		.4byte	.LVL11
 4260 06dd 02       		.uleb128 0x2
 4261 06de 77       		.byte	0x77
 4262 06df 00       		.sleb128 0
 4263 06e0 22       		.uleb128 0x22
 4264 06e1 01       		.uleb128 0x1
 4265 06e2 52       		.byte	0x52
 4266 06e3 01       		.uleb128 0x1
 4267 06e4 31       		.byte	0x31
 4268 06e5 00       		.byte	0
 4269 06e6 00       		.byte	0
 4270 06e7 1E       		.uleb128 0x1e
 4271 06e8 61050000 		.4byte	0x561
 4272 06ec 68000000 		.4byte	.LBB143
 4273 06f0 0A000000 		.4byte	.LBE143-.LBB143
 4274 06f4 01       		.byte	0x1
 4275 06f5 40       		.byte	0x40
 4276 06f6 2F070000 		.4byte	0x72f
 4277 06fa 1F       		.uleb128 0x1f
 4278 06fb 92050000 		.4byte	0x592
 4279 06ff 20       		.uleb128 0x20
 4280 0700 87050000 		.4byte	0x587
 4281 0704 48010000 		.4byte	.LLST9
 4282 0708 20       		.uleb128 0x20
 4283 0709 7C050000 		.4byte	0x57c
 4284 070d 68010000 		.4byte	.LLST10
 4285 0711 20       		.uleb128 0x20
 4286 0712 71050000 		.4byte	0x571
 4287 0716 9C010000 		.4byte	.LLST11
 4288 071a 21       		.uleb128 0x21
 4289 071b 72000000 		.4byte	.LVL15
 4290 071f 02       		.uleb128 0x2
 4291 0720 77       		.byte	0x77
 4292 0721 00       		.sleb128 0
 4293 0722 22       		.uleb128 0x22
ARM GAS  C:\Users\Petro\AppData\Local\Temp\ccPFwMgj.s 			page 92


 4294 0723 01       		.uleb128 0x1
 4295 0724 52       		.byte	0x52
 4296 0725 01       		.uleb128 0x1
 4297 0726 31       		.byte	0x31
 4298 0727 22       		.uleb128 0x22
 4299 0728 01       		.uleb128 0x1
 4300 0729 51       		.byte	0x51
 4301 072a 02       		.uleb128 0x2
 4302 072b 78       		.byte	0x78
 4303 072c 00       		.sleb128 0
 4304 072d 00       		.byte	0
 4305 072e 00       		.byte	0
 4306 072f 1E       		.uleb128 0x1e
 4307 0730 9E050000 		.4byte	0x59e
 4308 0734 80000000 		.4byte	.LBB145
 4309 0738 02000000 		.4byte	.LBE145-.LBB145
 4310 073c 01       		.byte	0x1
 4311 073d 44       		.byte	0x44
 4312 073e 65070000 		.4byte	0x765
 4313 0742 20       		.uleb128 0x20
 4314 0743 AE050000 		.4byte	0x5ae
 4315 0747 AF010000 		.4byte	.LLST12
 4316 074b 23       		.uleb128 0x23
 4317 074c DA040000 		.4byte	0x4da
 4318 0750 80000000 		.4byte	.LBB147
 4319 0754 02000000 		.4byte	.LBE147-.LBB147
 4320 0758 03       		.byte	0x3
 4321 0759 2D       		.byte	0x2d
 4322 075a 20       		.uleb128 0x20
 4323 075b EA040000 		.4byte	0x4ea
 4324 075f D2010000 		.4byte	.LLST13
 4325 0763 00       		.byte	0
 4326 0764 00       		.byte	0
 4327 0765 1E       		.uleb128 0x1e
 4328 0766 C3050000 		.4byte	0x5c3
 4329 076a 88000000 		.4byte	.LBB149
 4330 076e 0E000000 		.4byte	.LBE149-.LBB149
 4331 0772 01       		.byte	0x1
 4332 0773 45       		.byte	0x45
 4333 0774 D3070000 		.4byte	0x7d3
 4334 0778 20       		.uleb128 0x20
 4335 0779 D8050000 		.4byte	0x5d8
 4336 077d F9010000 		.4byte	.LLST14
 4337 0781 20       		.uleb128 0x20
 4338 0782 CF050000 		.4byte	0x5cf
 4339 0786 25020000 		.4byte	.LLST15
 4340 078a 1E       		.uleb128 0x1e
 4341 078b FF040000 		.4byte	0x4ff
 4342 078f 88000000 		.4byte	.LBB151
 4343 0793 06000000 		.4byte	.LBE151-.LBB151
 4344 0797 03       		.byte	0x3
 4345 0798 32       		.byte	0x32
 4346 0799 B0070000 		.4byte	0x7b0
 4347 079d 20       		.uleb128 0x20
 4348 079e 14050000 		.4byte	0x514
 4349 07a2 F9010000 		.4byte	.LLST14
 4350 07a6 20       		.uleb128 0x20
ARM GAS  C:\Users\Petro\AppData\Local\Temp\ccPFwMgj.s 			page 93


 4351 07a7 0B050000 		.4byte	0x50b
 4352 07ab 25020000 		.4byte	.LLST15
 4353 07af 00       		.byte	0
 4354 07b0 23       		.uleb128 0x23
 4355 07b1 FF040000 		.4byte	0x4ff
 4356 07b5 90000000 		.4byte	.LBB153
 4357 07b9 06000000 		.4byte	.LBE153-.LBB153
 4358 07bd 03       		.byte	0x3
 4359 07be 33       		.byte	0x33
 4360 07bf 20       		.uleb128 0x20
 4361 07c0 14050000 		.4byte	0x514
 4362 07c4 48020000 		.4byte	.LLST18
 4363 07c8 20       		.uleb128 0x20
 4364 07c9 0B050000 		.4byte	0x50b
 4365 07cd 76020000 		.4byte	.LLST19
 4366 07d1 00       		.byte	0
 4367 07d2 00       		.byte	0
 4368 07d3 23       		.uleb128 0x23
 4369 07d4 24050000 		.4byte	0x524
 4370 07d8 B4000000 		.4byte	.LBB155
 4371 07dc 08000000 		.4byte	.LBE155-.LBB155
 4372 07e0 01       		.byte	0x1
 4373 07e1 47       		.byte	0x47
 4374 07e2 1F       		.uleb128 0x1f
 4375 07e3 55050000 		.4byte	0x555
 4376 07e7 20       		.uleb128 0x20
 4377 07e8 4A050000 		.4byte	0x54a
 4378 07ec 9D020000 		.4byte	.LLST20
 4379 07f0 20       		.uleb128 0x20
 4380 07f1 3F050000 		.4byte	0x53f
 4381 07f5 BD020000 		.4byte	.LLST21
 4382 07f9 20       		.uleb128 0x20
 4383 07fa 34050000 		.4byte	0x534
 4384 07fe D0020000 		.4byte	.LLST22
 4385 0802 21       		.uleb128 0x21
 4386 0803 BC000000 		.4byte	.LVL25
 4387 0807 02       		.uleb128 0x2
 4388 0808 74       		.byte	0x74
 4389 0809 00       		.sleb128 0
 4390 080a 22       		.uleb128 0x22
 4391 080b 01       		.uleb128 0x1
 4392 080c 52       		.byte	0x52
 4393 080d 01       		.uleb128 0x1
 4394 080e 31       		.byte	0x31
 4395 080f 00       		.byte	0
 4396 0810 00       		.byte	0
 4397 0811 00       		.byte	0
 4398 0812 1A       		.uleb128 0x1a
 4399 0813 1E010000 		.4byte	.LASF89
 4400 0817 01       		.byte	0x1
 4401 0818 4D       		.byte	0x4d
 4402 0819 25000000 		.4byte	0x25
 4403 081d 00000000 		.4byte	.LFB19
 4404 0821 DC000000 		.4byte	.LFE19-.LFB19
 4405 0825 01       		.uleb128 0x1
 4406 0826 9C       		.byte	0x9c
 4407 0827 72090000 		.4byte	0x972
ARM GAS  C:\Users\Petro\AppData\Local\Temp\ccPFwMgj.s 			page 94


 4408 082b 1B       		.uleb128 0x1b
 4409 082c 6800     		.ascii	"h\000"
 4410 082e 01       		.byte	0x1
 4411 082f 4D       		.byte	0x4d
 4412 0830 04060000 		.4byte	0x604
 4413 0834 E3020000 		.4byte	.LLST23
 4414 0838 1B       		.uleb128 0x1b
 4415 0839 66617400 		.ascii	"fat\000"
 4416 083d 01       		.byte	0x1
 4417 083e 4D       		.byte	0x4d
 4418 083f C3000000 		.4byte	0xc3
 4419 0843 0F030000 		.4byte	.LLST24
 4420 0847 1C       		.uleb128 0x1c
 4421 0848 53020000 		.4byte	.LASF85
 4422 084c 01       		.byte	0x1
 4423 084d 4E       		.byte	0x4e
 4424 084e CE000000 		.4byte	0xce
 4425 0852 30030000 		.4byte	.LLST25
 4426 0856 1C       		.uleb128 0x1c
 4427 0857 A4040000 		.4byte	.LASF86
 4428 085b 01       		.byte	0x1
 4429 085c 4E       		.byte	0x4e
 4430 085d CE000000 		.4byte	0xce
 4431 0861 51030000 		.4byte	.LLST26
 4432 0865 1D       		.uleb128 0x1d
 4433 0866 EE010000 		.4byte	.LASF87
 4434 086a 01       		.byte	0x1
 4435 086b 50       		.byte	0x50
 4436 086c E4000000 		.4byte	0xe4
 4437 0870 72030000 		.4byte	.LLST27
 4438 0874 1D       		.uleb128 0x1d
 4439 0875 9D020000 		.4byte	.LASF74
 4440 0879 01       		.byte	0x1
 4441 087a 51       		.byte	0x51
 4442 087b E4000000 		.4byte	0xe4
 4443 087f A6030000 		.4byte	.LLST28
 4444 0883 1E       		.uleb128 0x1e
 4445 0884 24050000 		.4byte	0x524
 4446 0888 48000000 		.4byte	.LBB157
 4447 088c 08000000 		.4byte	.LBE157-.LBB157
 4448 0890 01       		.byte	0x1
 4449 0891 57       		.byte	0x57
 4450 0892 C5080000 		.4byte	0x8c5
 4451 0896 1F       		.uleb128 0x1f
 4452 0897 55050000 		.4byte	0x555
 4453 089b 20       		.uleb128 0x20
 4454 089c 4A050000 		.4byte	0x54a
 4455 08a0 B9030000 		.4byte	.LLST29
 4456 08a4 20       		.uleb128 0x20
 4457 08a5 3F050000 		.4byte	0x53f
 4458 08a9 D9030000 		.4byte	.LLST30
 4459 08ad 20       		.uleb128 0x20
 4460 08ae 34050000 		.4byte	0x534
 4461 08b2 EC030000 		.4byte	.LLST31
 4462 08b6 21       		.uleb128 0x21
 4463 08b7 50000000 		.4byte	.LVL45
 4464 08bb 02       		.uleb128 0x2
ARM GAS  C:\Users\Petro\AppData\Local\Temp\ccPFwMgj.s 			page 95


 4465 08bc 77       		.byte	0x77
 4466 08bd 00       		.sleb128 0
 4467 08be 22       		.uleb128 0x22
 4468 08bf 01       		.uleb128 0x1
 4469 08c0 52       		.byte	0x52
 4470 08c1 01       		.uleb128 0x1
 4471 08c2 31       		.byte	0x31
 4472 08c3 00       		.byte	0
 4473 08c4 00       		.byte	0
 4474 08c5 1E       		.uleb128 0x1e
 4475 08c6 61050000 		.4byte	0x561
 4476 08ca 62000000 		.4byte	.LBB159
 4477 08ce 0A000000 		.4byte	.LBE159-.LBB159
 4478 08d2 01       		.byte	0x1
 4479 08d3 57       		.byte	0x57
 4480 08d4 0D090000 		.4byte	0x90d
 4481 08d8 1F       		.uleb128 0x1f
 4482 08d9 92050000 		.4byte	0x592
 4483 08dd 20       		.uleb128 0x20
 4484 08de 87050000 		.4byte	0x587
 4485 08e2 FF030000 		.4byte	.LLST32
 4486 08e6 20       		.uleb128 0x20
 4487 08e7 7C050000 		.4byte	0x57c
 4488 08eb 1F040000 		.4byte	.LLST33
 4489 08ef 20       		.uleb128 0x20
 4490 08f0 71050000 		.4byte	0x571
 4491 08f4 54040000 		.4byte	.LLST34
 4492 08f8 21       		.uleb128 0x21
 4493 08f9 6C000000 		.4byte	.LVL49
 4494 08fd 02       		.uleb128 0x2
 4495 08fe 77       		.byte	0x77
 4496 08ff 00       		.sleb128 0
 4497 0900 22       		.uleb128 0x22
 4498 0901 01       		.uleb128 0x1
 4499 0902 52       		.byte	0x52
 4500 0903 01       		.uleb128 0x1
 4501 0904 31       		.byte	0x31
 4502 0905 22       		.uleb128 0x22
 4503 0906 01       		.uleb128 0x1
 4504 0907 51       		.byte	0x51
 4505 0908 02       		.uleb128 0x2
 4506 0909 75       		.byte	0x75
 4507 090a 00       		.sleb128 0
 4508 090b 00       		.byte	0
 4509 090c 00       		.byte	0
 4510 090d 1E       		.uleb128 0x1e
 4511 090e FF040000 		.4byte	0x4ff
 4512 0912 74000000 		.4byte	.LBB161
 4513 0916 0A000000 		.4byte	.LBE161-.LBB161
 4514 091a 01       		.byte	0x1
 4515 091b 58       		.byte	0x58
 4516 091c 33090000 		.4byte	0x933
 4517 0920 20       		.uleb128 0x20
 4518 0921 14050000 		.4byte	0x514
 4519 0925 67040000 		.4byte	.LLST35
 4520 0929 20       		.uleb128 0x20
 4521 092a 0B050000 		.4byte	0x50b
ARM GAS  C:\Users\Petro\AppData\Local\Temp\ccPFwMgj.s 			page 96


 4522 092e 85040000 		.4byte	.LLST36
 4523 0932 00       		.byte	0
 4524 0933 23       		.uleb128 0x23
 4525 0934 24050000 		.4byte	0x524
 4526 0938 9C000000 		.4byte	.LBB163
 4527 093c 08000000 		.4byte	.LBE163-.LBB163
 4528 0940 01       		.byte	0x1
 4529 0941 59       		.byte	0x59
 4530 0942 1F       		.uleb128 0x1f
 4531 0943 55050000 		.4byte	0x555
 4532 0947 20       		.uleb128 0x20
 4533 0948 4A050000 		.4byte	0x54a
 4534 094c 98040000 		.4byte	.LLST37
 4535 0950 20       		.uleb128 0x20
 4536 0951 3F050000 		.4byte	0x53f
 4537 0955 B8040000 		.4byte	.LLST38
 4538 0959 20       		.uleb128 0x20
 4539 095a 34050000 		.4byte	0x534
 4540 095e CB040000 		.4byte	.LLST39
 4541 0962 21       		.uleb128 0x21
 4542 0963 A4000000 		.4byte	.LVL54
 4543 0967 02       		.uleb128 0x2
 4544 0968 76       		.byte	0x76
 4545 0969 00       		.sleb128 0
 4546 096a 22       		.uleb128 0x22
 4547 096b 01       		.uleb128 0x1
 4548 096c 52       		.byte	0x52
 4549 096d 01       		.uleb128 0x1
 4550 096e 31       		.byte	0x31
 4551 096f 00       		.byte	0
 4552 0970 00       		.byte	0
 4553 0971 00       		.byte	0
 4554 0972 1A       		.uleb128 0x1a
 4555 0973 9B060000 		.4byte	.LASF90
 4556 0977 01       		.byte	0x1
 4557 0978 5F       		.byte	0x5f
 4558 0979 25000000 		.4byte	0x25
 4559 097d 00000000 		.4byte	.LFB20
 4560 0981 70020000 		.4byte	.LFE20-.LFB20
 4561 0985 01       		.uleb128 0x1
 4562 0986 9C       		.byte	0x9c
 4563 0987 AC0C0000 		.4byte	0xcac
 4564 098b 1B       		.uleb128 0x1b
 4565 098c 6800     		.ascii	"h\000"
 4566 098e 01       		.byte	0x1
 4567 098f 5F       		.byte	0x5f
 4568 0990 04060000 		.4byte	0x604
 4569 0994 DE040000 		.4byte	.LLST40
 4570 0998 1B       		.uleb128 0x1b
 4571 0999 66617400 		.ascii	"fat\000"
 4572 099d 01       		.byte	0x1
 4573 099e 5F       		.byte	0x5f
 4574 099f C3000000 		.4byte	0xc3
 4575 09a3 0A050000 		.4byte	.LLST41
 4576 09a7 1C       		.uleb128 0x1c
 4577 09a8 53020000 		.4byte	.LASF85
 4578 09ac 01       		.byte	0x1
ARM GAS  C:\Users\Petro\AppData\Local\Temp\ccPFwMgj.s 			page 97


 4579 09ad 60       		.byte	0x60
 4580 09ae CE000000 		.4byte	0xce
 4581 09b2 2B050000 		.4byte	.LLST42
 4582 09b6 1C       		.uleb128 0x1c
 4583 09b7 A4040000 		.4byte	.LASF86
 4584 09bb 01       		.byte	0x1
 4585 09bc 60       		.byte	0x60
 4586 09bd CE000000 		.4byte	0xce
 4587 09c1 4C050000 		.4byte	.LLST43
 4588 09c5 1D       		.uleb128 0x1d
 4589 09c6 EE010000 		.4byte	.LASF87
 4590 09ca 01       		.byte	0x1
 4591 09cb 62       		.byte	0x62
 4592 09cc E4000000 		.4byte	0xe4
 4593 09d0 EB050000 		.4byte	.LLST44
 4594 09d4 1D       		.uleb128 0x1d
 4595 09d5 9D020000 		.4byte	.LASF74
 4596 09d9 01       		.byte	0x1
 4597 09da 63       		.byte	0x63
 4598 09db E4000000 		.4byte	0xe4
 4599 09df 35060000 		.4byte	.LLST45
 4600 09e3 1E       		.uleb128 0x1e
 4601 09e4 24050000 		.4byte	0x524
 4602 09e8 50000000 		.4byte	.LBB165
 4603 09ec 08000000 		.4byte	.LBE165-.LBB165
 4604 09f0 01       		.byte	0x1
 4605 09f1 68       		.byte	0x68
 4606 09f2 250A0000 		.4byte	0xa25
 4607 09f6 1F       		.uleb128 0x1f
 4608 09f7 55050000 		.4byte	0x555
 4609 09fb 20       		.uleb128 0x20
 4610 09fc 4A050000 		.4byte	0x54a
 4611 0a00 A0060000 		.4byte	.LLST46
 4612 0a04 20       		.uleb128 0x20
 4613 0a05 3F050000 		.4byte	0x53f
 4614 0a09 C0060000 		.4byte	.LLST47
 4615 0a0d 20       		.uleb128 0x20
 4616 0a0e 34050000 		.4byte	0x534
 4617 0a12 D3060000 		.4byte	.LLST48
 4618 0a16 21       		.uleb128 0x21
 4619 0a17 58000000 		.4byte	.LVL73
 4620 0a1b 02       		.uleb128 0x2
 4621 0a1c 77       		.byte	0x77
 4622 0a1d 00       		.sleb128 0
 4623 0a1e 22       		.uleb128 0x22
 4624 0a1f 01       		.uleb128 0x1
 4625 0a20 52       		.byte	0x52
 4626 0a21 01       		.uleb128 0x1
 4627 0a22 31       		.byte	0x31
 4628 0a23 00       		.byte	0
 4629 0a24 00       		.byte	0
 4630 0a25 1E       		.uleb128 0x1e
 4631 0a26 61050000 		.4byte	0x561
 4632 0a2a 6E000000 		.4byte	.LBB167
 4633 0a2e 0A000000 		.4byte	.LBE167-.LBB167
 4634 0a32 01       		.byte	0x1
 4635 0a33 68       		.byte	0x68
ARM GAS  C:\Users\Petro\AppData\Local\Temp\ccPFwMgj.s 			page 98


 4636 0a34 6D0A0000 		.4byte	0xa6d
 4637 0a38 1F       		.uleb128 0x1f
 4638 0a39 92050000 		.4byte	0x592
 4639 0a3d 20       		.uleb128 0x20
 4640 0a3e 87050000 		.4byte	0x587
 4641 0a42 E6060000 		.4byte	.LLST49
 4642 0a46 20       		.uleb128 0x20
 4643 0a47 7C050000 		.4byte	0x57c
 4644 0a4b 06070000 		.4byte	.LLST50
 4645 0a4f 20       		.uleb128 0x20
 4646 0a50 71050000 		.4byte	0x571
 4647 0a54 3A070000 		.4byte	.LLST51
 4648 0a58 21       		.uleb128 0x21
 4649 0a59 78000000 		.4byte	.LVL77
 4650 0a5d 02       		.uleb128 0x2
 4651 0a5e 77       		.byte	0x77
 4652 0a5f 00       		.sleb128 0
 4653 0a60 22       		.uleb128 0x22
 4654 0a61 01       		.uleb128 0x1
 4655 0a62 52       		.byte	0x52
 4656 0a63 01       		.uleb128 0x1
 4657 0a64 31       		.byte	0x31
 4658 0a65 22       		.uleb128 0x22
 4659 0a66 01       		.uleb128 0x1
 4660 0a67 51       		.byte	0x51
 4661 0a68 02       		.uleb128 0x2
 4662 0a69 78       		.byte	0x78
 4663 0a6a 00       		.sleb128 0
 4664 0a6b 00       		.byte	0
 4665 0a6c 00       		.byte	0
 4666 0a6d 1E       		.uleb128 0x1e
 4667 0a6e 24050000 		.4byte	0x524
 4668 0a72 BC000000 		.4byte	.LBB169
 4669 0a76 08000000 		.4byte	.LBE169-.LBB169
 4670 0a7a 01       		.byte	0x1
 4671 0a7b 6E       		.byte	0x6e
 4672 0a7c AF0A0000 		.4byte	0xaaf
 4673 0a80 1F       		.uleb128 0x1f
 4674 0a81 55050000 		.4byte	0x555
 4675 0a85 20       		.uleb128 0x20
 4676 0a86 4A050000 		.4byte	0x54a
 4677 0a8a 4D070000 		.4byte	.LLST52
 4678 0a8e 20       		.uleb128 0x20
 4679 0a8f 3F050000 		.4byte	0x53f
 4680 0a93 6D070000 		.4byte	.LLST53
 4681 0a97 20       		.uleb128 0x20
 4682 0a98 34050000 		.4byte	0x534
 4683 0a9c 80070000 		.4byte	.LLST54
 4684 0aa0 21       		.uleb128 0x21
 4685 0aa1 C4000000 		.4byte	.LVL82
 4686 0aa5 02       		.uleb128 0x2
 4687 0aa6 76       		.byte	0x76
 4688 0aa7 00       		.sleb128 0
 4689 0aa8 22       		.uleb128 0x22
 4690 0aa9 01       		.uleb128 0x1
 4691 0aaa 52       		.byte	0x52
 4692 0aab 01       		.uleb128 0x1
ARM GAS  C:\Users\Petro\AppData\Local\Temp\ccPFwMgj.s 			page 99


 4693 0aac 31       		.byte	0x31
 4694 0aad 00       		.byte	0
 4695 0aae 00       		.byte	0
 4696 0aaf 1E       		.uleb128 0x1e
 4697 0ab0 24050000 		.4byte	0x524
 4698 0ab4 EC000000 		.4byte	.LBB171
 4699 0ab8 0A000000 		.4byte	.LBE171-.LBB171
 4700 0abc 01       		.byte	0x1
 4701 0abd 70       		.byte	0x70
 4702 0abe F70A0000 		.4byte	0xaf7
 4703 0ac2 1F       		.uleb128 0x1f
 4704 0ac3 55050000 		.4byte	0x555
 4705 0ac7 20       		.uleb128 0x20
 4706 0ac8 4A050000 		.4byte	0x54a
 4707 0acc 93070000 		.4byte	.LLST55
 4708 0ad0 20       		.uleb128 0x20
 4709 0ad1 3F050000 		.4byte	0x53f
 4710 0ad5 B3070000 		.4byte	.LLST56
 4711 0ad9 20       		.uleb128 0x20
 4712 0ada 34050000 		.4byte	0x534
 4713 0ade D1070000 		.4byte	.LLST57
 4714 0ae2 21       		.uleb128 0x21
 4715 0ae3 F6000000 		.4byte	.LVL86
 4716 0ae7 02       		.uleb128 0x2
 4717 0ae8 77       		.byte	0x77
 4718 0ae9 00       		.sleb128 0
 4719 0aea 22       		.uleb128 0x22
 4720 0aeb 01       		.uleb128 0x1
 4721 0aec 52       		.byte	0x52
 4722 0aed 01       		.uleb128 0x1
 4723 0aee 31       		.byte	0x31
 4724 0aef 22       		.uleb128 0x22
 4725 0af0 01       		.uleb128 0x1
 4726 0af1 51       		.byte	0x51
 4727 0af2 02       		.uleb128 0x2
 4728 0af3 78       		.byte	0x78
 4729 0af4 00       		.sleb128 0
 4730 0af5 00       		.byte	0
 4731 0af6 00       		.byte	0
 4732 0af7 1E       		.uleb128 0x1e
 4733 0af8 61050000 		.4byte	0x561
 4734 0afc 0A010000 		.4byte	.LBB173
 4735 0b00 0A000000 		.4byte	.LBE173-.LBB173
 4736 0b04 01       		.byte	0x1
 4737 0b05 70       		.byte	0x70
 4738 0b06 3F0B0000 		.4byte	0xb3f
 4739 0b0a 1F       		.uleb128 0x1f
 4740 0b0b 92050000 		.4byte	0x592
 4741 0b0f 20       		.uleb128 0x20
 4742 0b10 87050000 		.4byte	0x587
 4743 0b14 E4070000 		.4byte	.LLST58
 4744 0b18 20       		.uleb128 0x20
 4745 0b19 7C050000 		.4byte	0x57c
 4746 0b1d 04080000 		.4byte	.LLST59
 4747 0b21 20       		.uleb128 0x20
 4748 0b22 71050000 		.4byte	0x571
 4749 0b26 39080000 		.4byte	.LLST60
ARM GAS  C:\Users\Petro\AppData\Local\Temp\ccPFwMgj.s 			page 100


 4750 0b2a 21       		.uleb128 0x21
 4751 0b2b 14010000 		.4byte	.LVL89
 4752 0b2f 02       		.uleb128 0x2
 4753 0b30 77       		.byte	0x77
 4754 0b31 00       		.sleb128 0
 4755 0b32 22       		.uleb128 0x22
 4756 0b33 01       		.uleb128 0x1
 4757 0b34 52       		.byte	0x52
 4758 0b35 01       		.uleb128 0x1
 4759 0b36 31       		.byte	0x31
 4760 0b37 22       		.uleb128 0x22
 4761 0b38 01       		.uleb128 0x1
 4762 0b39 51       		.byte	0x51
 4763 0b3a 02       		.uleb128 0x2
 4764 0b3b 76       		.byte	0x76
 4765 0b3c 00       		.sleb128 0
 4766 0b3d 00       		.byte	0
 4767 0b3e 00       		.byte	0
 4768 0b3f 1E       		.uleb128 0x1e
 4769 0b40 24050000 		.4byte	0x524
 4770 0b44 48010000 		.4byte	.LBB175
 4771 0b48 08000000 		.4byte	.LBE175-.LBB175
 4772 0b4c 01       		.byte	0x1
 4773 0b4d 74       		.byte	0x74
 4774 0b4e 810B0000 		.4byte	0xb81
 4775 0b52 1F       		.uleb128 0x1f
 4776 0b53 55050000 		.4byte	0x555
 4777 0b57 20       		.uleb128 0x20
 4778 0b58 4A050000 		.4byte	0x54a
 4779 0b5c 4C080000 		.4byte	.LLST61
 4780 0b60 20       		.uleb128 0x20
 4781 0b61 3F050000 		.4byte	0x53f
 4782 0b65 6C080000 		.4byte	.LLST62
 4783 0b69 20       		.uleb128 0x20
 4784 0b6a 34050000 		.4byte	0x534
 4785 0b6e 7F080000 		.4byte	.LLST63
 4786 0b72 21       		.uleb128 0x21
 4787 0b73 50010000 		.4byte	.LVL95
 4788 0b77 02       		.uleb128 0x2
 4789 0b78 76       		.byte	0x76
 4790 0b79 00       		.sleb128 0
 4791 0b7a 22       		.uleb128 0x22
 4792 0b7b 01       		.uleb128 0x1
 4793 0b7c 52       		.byte	0x52
 4794 0b7d 01       		.uleb128 0x1
 4795 0b7e 31       		.byte	0x31
 4796 0b7f 00       		.byte	0
 4797 0b80 00       		.byte	0
 4798 0b81 1E       		.uleb128 0x1e
 4799 0b82 24050000 		.4byte	0x524
 4800 0b86 76010000 		.4byte	.LBB177
 4801 0b8a 0A000000 		.4byte	.LBE177-.LBB177
 4802 0b8e 01       		.byte	0x1
 4803 0b8f 76       		.byte	0x76
 4804 0b90 C90B0000 		.4byte	0xbc9
 4805 0b94 1F       		.uleb128 0x1f
 4806 0b95 55050000 		.4byte	0x555
ARM GAS  C:\Users\Petro\AppData\Local\Temp\ccPFwMgj.s 			page 101


 4807 0b99 20       		.uleb128 0x20
 4808 0b9a 4A050000 		.4byte	0x54a
 4809 0b9e 92080000 		.4byte	.LLST64
 4810 0ba2 20       		.uleb128 0x20
 4811 0ba3 3F050000 		.4byte	0x53f
 4812 0ba7 B2080000 		.4byte	.LLST65
 4813 0bab 20       		.uleb128 0x20
 4814 0bac 34050000 		.4byte	0x534
 4815 0bb0 D0080000 		.4byte	.LLST66
 4816 0bb4 21       		.uleb128 0x21
 4817 0bb5 80010000 		.4byte	.LVL99
 4818 0bb9 02       		.uleb128 0x2
 4819 0bba 77       		.byte	0x77
 4820 0bbb 00       		.sleb128 0
 4821 0bbc 22       		.uleb128 0x22
 4822 0bbd 01       		.uleb128 0x1
 4823 0bbe 52       		.byte	0x52
 4824 0bbf 01       		.uleb128 0x1
 4825 0bc0 31       		.byte	0x31
 4826 0bc1 22       		.uleb128 0x22
 4827 0bc2 01       		.uleb128 0x1
 4828 0bc3 51       		.byte	0x51
 4829 0bc4 02       		.uleb128 0x2
 4830 0bc5 78       		.byte	0x78
 4831 0bc6 00       		.sleb128 0
 4832 0bc7 00       		.byte	0
 4833 0bc8 00       		.byte	0
 4834 0bc9 1E       		.uleb128 0x1e
 4835 0bca 61050000 		.4byte	0x561
 4836 0bce 92010000 		.4byte	.LBB179
 4837 0bd2 0A000000 		.4byte	.LBE179-.LBB179
 4838 0bd6 01       		.byte	0x1
 4839 0bd7 76       		.byte	0x76
 4840 0bd8 110C0000 		.4byte	0xc11
 4841 0bdc 1F       		.uleb128 0x1f
 4842 0bdd 92050000 		.4byte	0x592
 4843 0be1 20       		.uleb128 0x20
 4844 0be2 87050000 		.4byte	0x587
 4845 0be6 E3080000 		.4byte	.LLST67
 4846 0bea 20       		.uleb128 0x20
 4847 0beb 7C050000 		.4byte	0x57c
 4848 0bef 03090000 		.4byte	.LLST68
 4849 0bf3 20       		.uleb128 0x20
 4850 0bf4 71050000 		.4byte	0x571
 4851 0bf8 38090000 		.4byte	.LLST69
 4852 0bfc 21       		.uleb128 0x21
 4853 0bfd 9C010000 		.4byte	.LVL102
 4854 0c01 02       		.uleb128 0x2
 4855 0c02 77       		.byte	0x77
 4856 0c03 00       		.sleb128 0
 4857 0c04 22       		.uleb128 0x22
 4858 0c05 01       		.uleb128 0x1
 4859 0c06 52       		.byte	0x52
 4860 0c07 01       		.uleb128 0x1
 4861 0c08 31       		.byte	0x31
 4862 0c09 22       		.uleb128 0x22
 4863 0c0a 01       		.uleb128 0x1
ARM GAS  C:\Users\Petro\AppData\Local\Temp\ccPFwMgj.s 			page 102


 4864 0c0b 51       		.byte	0x51
 4865 0c0c 02       		.uleb128 0x2
 4866 0c0d 76       		.byte	0x76
 4867 0c0e 00       		.sleb128 0
 4868 0c0f 00       		.byte	0
 4869 0c10 00       		.byte	0
 4870 0c11 1E       		.uleb128 0x1e
 4871 0c12 DA040000 		.4byte	0x4da
 4872 0c16 C0010000 		.4byte	.LBB181
 4873 0c1a 04000000 		.4byte	.LBE181-.LBB181
 4874 0c1e 01       		.byte	0x1
 4875 0c1f 7D       		.byte	0x7d
 4876 0c20 2A0C0000 		.4byte	0xc2a
 4877 0c24 1F       		.uleb128 0x1f
 4878 0c25 EA040000 		.4byte	0x4ea
 4879 0c29 00       		.byte	0
 4880 0c2a 1E       		.uleb128 0x1e
 4881 0c2b DA040000 		.4byte	0x4da
 4882 0c2f D6010000 		.4byte	.LBB183
 4883 0c33 02000000 		.4byte	.LBE183-.LBB183
 4884 0c37 01       		.byte	0x1
 4885 0c38 80       		.byte	0x80
 4886 0c39 470C0000 		.4byte	0xc47
 4887 0c3d 20       		.uleb128 0x20
 4888 0c3e EA040000 		.4byte	0x4ea
 4889 0c42 4B090000 		.4byte	.LLST70
 4890 0c46 00       		.byte	0
 4891 0c47 1E       		.uleb128 0x1e
 4892 0c48 FF040000 		.4byte	0x4ff
 4893 0c4c E4010000 		.4byte	.LBB185
 4894 0c50 06000000 		.4byte	.LBE185-.LBB185
 4895 0c54 01       		.byte	0x1
 4896 0c55 82       		.byte	0x82
 4897 0c56 6D0C0000 		.4byte	0xc6d
 4898 0c5a 20       		.uleb128 0x20
 4899 0c5b 14050000 		.4byte	0x514
 4900 0c5f 5E090000 		.4byte	.LLST71
 4901 0c63 20       		.uleb128 0x20
 4902 0c64 0B050000 		.4byte	0x50b
 4903 0c68 71090000 		.4byte	.LLST72
 4904 0c6c 00       		.byte	0
 4905 0c6d 23       		.uleb128 0x23
 4906 0c6e 24050000 		.4byte	0x524
 4907 0c72 08020000 		.4byte	.LBB187
 4908 0c76 08000000 		.4byte	.LBE187-.LBB187
 4909 0c7a 01       		.byte	0x1
 4910 0c7b 84       		.byte	0x84
 4911 0c7c 1F       		.uleb128 0x1f
 4912 0c7d 55050000 		.4byte	0x555
 4913 0c81 20       		.uleb128 0x20
 4914 0c82 4A050000 		.4byte	0x54a
 4915 0c86 84090000 		.4byte	.LLST73
 4916 0c8a 20       		.uleb128 0x20
 4917 0c8b 3F050000 		.4byte	0x53f
 4918 0c8f A4090000 		.4byte	.LLST74
 4919 0c93 20       		.uleb128 0x20
 4920 0c94 34050000 		.4byte	0x534
ARM GAS  C:\Users\Petro\AppData\Local\Temp\ccPFwMgj.s 			page 103


 4921 0c98 B7090000 		.4byte	.LLST75
 4922 0c9c 21       		.uleb128 0x21
 4923 0c9d 10020000 		.4byte	.LVL116
 4924 0ca1 02       		.uleb128 0x2
 4925 0ca2 75       		.byte	0x75
 4926 0ca3 00       		.sleb128 0
 4927 0ca4 22       		.uleb128 0x22
 4928 0ca5 01       		.uleb128 0x1
 4929 0ca6 52       		.byte	0x52
 4930 0ca7 01       		.uleb128 0x1
 4931 0ca8 31       		.byte	0x31
 4932 0ca9 00       		.byte	0
 4933 0caa 00       		.byte	0
 4934 0cab 00       		.byte	0
 4935 0cac 24       		.uleb128 0x24
 4936 0cad C1000000 		.4byte	.LASF91
 4937 0cb1 01       		.byte	0x1
 4938 0cb2 8A       		.byte	0x8a
 4939 0cb3 25000000 		.4byte	0x25
 4940 0cb7 00000000 		.4byte	.LFB21
 4941 0cbb 5E000000 		.4byte	.LFE21-.LFB21
 4942 0cbf 01       		.uleb128 0x1
 4943 0cc0 9C       		.byte	0x9c
 4944 0cc1 800D0000 		.4byte	0xd80
 4945 0cc5 1B       		.uleb128 0x1b
 4946 0cc6 6800     		.ascii	"h\000"
 4947 0cc8 01       		.byte	0x1
 4948 0cc9 8A       		.byte	0x8a
 4949 0cca 04060000 		.4byte	0x604
 4950 0cce CA090000 		.4byte	.LLST76
 4951 0cd2 1C       		.uleb128 0x1c
 4952 0cd3 53020000 		.4byte	.LASF85
 4953 0cd7 01       		.byte	0x1
 4954 0cd8 8B       		.byte	0x8b
 4955 0cd9 E4000000 		.4byte	0xe4
 4956 0cdd F6090000 		.4byte	.LLST77
 4957 0ce1 1C       		.uleb128 0x1c
 4958 0ce2 A4040000 		.4byte	.LASF86
 4959 0ce6 01       		.byte	0x1
 4960 0ce7 8B       		.byte	0x8b
 4961 0ce8 E4000000 		.4byte	0xe4
 4962 0cec 220A0000 		.4byte	.LLST78
 4963 0cf0 25       		.uleb128 0x25
 4964 0cf1 72657400 		.ascii	"ret\000"
 4965 0cf5 01       		.byte	0x1
 4966 0cf6 8D       		.byte	0x8d
 4967 0cf7 25000000 		.4byte	0x25
 4968 0cfb 410A0000 		.4byte	.LLST79
 4969 0cff 25       		.uleb128 0x25
 4970 0d00 6900     		.ascii	"i\000"
 4971 0d02 01       		.byte	0x1
 4972 0d03 8E       		.byte	0x8e
 4973 0d04 25000000 		.4byte	0x25
 4974 0d08 6B0A0000 		.4byte	.LLST80
 4975 0d0c 26       		.uleb128 0x26
 4976 0d0d 2C000000 		.4byte	.LVL132
 4977 0d11 72090000 		.4byte	0x972
ARM GAS  C:\Users\Petro\AppData\Local\Temp\ccPFwMgj.s 			page 104


 4978 0d15 340D0000 		.4byte	0xd34
 4979 0d19 22       		.uleb128 0x22
 4980 0d1a 01       		.uleb128 0x1
 4981 0d1b 53       		.byte	0x53
 4982 0d1c 04       		.uleb128 0x4
 4983 0d1d 7D       		.byte	0x7d
 4984 0d1e 04       		.sleb128 4
 4985 0d1f 94       		.byte	0x94
 4986 0d20 02       		.byte	0x2
 4987 0d21 22       		.uleb128 0x22
 4988 0d22 01       		.uleb128 0x1
 4989 0d23 52       		.byte	0x52
 4990 0d24 02       		.uleb128 0x2
 4991 0d25 76       		.byte	0x76
 4992 0d26 00       		.sleb128 0
 4993 0d27 22       		.uleb128 0x22
 4994 0d28 01       		.uleb128 0x1
 4995 0d29 51       		.byte	0x51
 4996 0d2a 02       		.uleb128 0x2
 4997 0d2b 74       		.byte	0x74
 4998 0d2c 00       		.sleb128 0
 4999 0d2d 22       		.uleb128 0x22
 5000 0d2e 01       		.uleb128 0x1
 5001 0d2f 50       		.byte	0x50
 5002 0d30 02       		.uleb128 0x2
 5003 0d31 77       		.byte	0x77
 5004 0d32 00       		.sleb128 0
 5005 0d33 00       		.byte	0
 5006 0d34 26       		.uleb128 0x26
 5007 0d35 3E000000 		.4byte	.LVL134
 5008 0d39 12080000 		.4byte	0x812
 5009 0d3d 5C0D0000 		.4byte	0xd5c
 5010 0d41 22       		.uleb128 0x22
 5011 0d42 01       		.uleb128 0x1
 5012 0d43 53       		.byte	0x53
 5013 0d44 04       		.uleb128 0x4
 5014 0d45 7D       		.byte	0x7d
 5015 0d46 04       		.sleb128 4
 5016 0d47 94       		.byte	0x94
 5017 0d48 02       		.byte	0x2
 5018 0d49 22       		.uleb128 0x22
 5019 0d4a 01       		.uleb128 0x1
 5020 0d4b 52       		.byte	0x52
 5021 0d4c 02       		.uleb128 0x2
 5022 0d4d 76       		.byte	0x76
 5023 0d4e 00       		.sleb128 0
 5024 0d4f 22       		.uleb128 0x22
 5025 0d50 01       		.uleb128 0x1
 5026 0d51 51       		.byte	0x51
 5027 0d52 02       		.uleb128 0x2
 5028 0d53 74       		.byte	0x74
 5029 0d54 00       		.sleb128 0
 5030 0d55 22       		.uleb128 0x22
 5031 0d56 01       		.uleb128 0x1
 5032 0d57 50       		.byte	0x50
 5033 0d58 02       		.uleb128 0x2
 5034 0d59 77       		.byte	0x77
ARM GAS  C:\Users\Petro\AppData\Local\Temp\ccPFwMgj.s 			page 105


 5035 0d5a 00       		.sleb128 0
 5036 0d5b 00       		.byte	0
 5037 0d5c 27       		.uleb128 0x27
 5038 0d5d 4E000000 		.4byte	.LVL136
 5039 0d61 34060000 		.4byte	0x634
 5040 0d65 22       		.uleb128 0x22
 5041 0d66 01       		.uleb128 0x1
 5042 0d67 53       		.byte	0x53
 5043 0d68 03       		.uleb128 0x3
 5044 0d69 91       		.byte	0x91
 5045 0d6a 64       		.sleb128 -28
 5046 0d6b 06       		.byte	0x6
 5047 0d6c 22       		.uleb128 0x22
 5048 0d6d 01       		.uleb128 0x1
 5049 0d6e 52       		.byte	0x52
 5050 0d6f 02       		.uleb128 0x2
 5051 0d70 76       		.byte	0x76
 5052 0d71 00       		.sleb128 0
 5053 0d72 22       		.uleb128 0x22
 5054 0d73 01       		.uleb128 0x1
 5055 0d74 51       		.byte	0x51
 5056 0d75 02       		.uleb128 0x2
 5057 0d76 74       		.byte	0x74
 5058 0d77 00       		.sleb128 0
 5059 0d78 22       		.uleb128 0x22
 5060 0d79 01       		.uleb128 0x1
 5061 0d7a 50       		.byte	0x50
 5062 0d7b 02       		.uleb128 0x2
 5063 0d7c 77       		.byte	0x77
 5064 0d7d 00       		.sleb128 0
 5065 0d7e 00       		.byte	0
 5066 0d7f 00       		.byte	0
 5067 0d80 24       		.uleb128 0x24
 5068 0d81 8E040000 		.4byte	.LASF92
 5069 0d85 01       		.byte	0x1
 5070 0d86 20       		.byte	0x20
 5071 0d87 E4000000 		.4byte	0xe4
 5072 0d8b 00000000 		.4byte	.LFB17
 5073 0d8f 44000000 		.4byte	.LFE17-.LFB17
 5074 0d93 01       		.uleb128 0x1
 5075 0d94 9C       		.byte	0x9c
 5076 0d95 E40D0000 		.4byte	0xde4
 5077 0d99 1B       		.uleb128 0x1b
 5078 0d9a 6800     		.ascii	"h\000"
 5079 0d9c 01       		.byte	0x1
 5080 0d9d 20       		.byte	0x20
 5081 0d9e D3020000 		.4byte	0x2d3
 5082 0da2 8A0A0000 		.4byte	.LLST81
 5083 0da6 25       		.uleb128 0x25
 5084 0da7 6900     		.ascii	"i\000"
 5085 0da9 01       		.byte	0x1
 5086 0daa 22       		.byte	0x22
 5087 0dab E4000000 		.4byte	0xe4
 5088 0daf B60A0000 		.4byte	.LLST82
 5089 0db3 26       		.uleb128 0x26
 5090 0db4 10000000 		.4byte	.LVL146
 5091 0db8 3D1D0000 		.4byte	0x1d3d
ARM GAS  C:\Users\Petro\AppData\Local\Temp\ccPFwMgj.s 			page 106


 5092 0dbc CD0D0000 		.4byte	0xdcd
 5093 0dc0 22       		.uleb128 0x22
 5094 0dc1 01       		.uleb128 0x1
 5095 0dc2 51       		.byte	0x51
 5096 0dc3 02       		.uleb128 0x2
 5097 0dc4 74       		.byte	0x74
 5098 0dc5 00       		.sleb128 0
 5099 0dc6 22       		.uleb128 0x22
 5100 0dc7 01       		.uleb128 0x1
 5101 0dc8 50       		.byte	0x50
 5102 0dc9 02       		.uleb128 0x2
 5103 0dca 75       		.byte	0x75
 5104 0dcb 00       		.sleb128 0
 5105 0dcc 00       		.byte	0
 5106 0dcd 27       		.uleb128 0x27
 5107 0dce 2E000000 		.4byte	.LVL150
 5108 0dd2 3D1D0000 		.4byte	0x1d3d
 5109 0dd6 22       		.uleb128 0x22
 5110 0dd7 01       		.uleb128 0x1
 5111 0dd8 51       		.byte	0x51
 5112 0dd9 02       		.uleb128 0x2
 5113 0dda 74       		.byte	0x74
 5114 0ddb 00       		.sleb128 0
 5115 0ddc 22       		.uleb128 0x22
 5116 0ddd 01       		.uleb128 0x1
 5117 0dde 50       		.byte	0x50
 5118 0ddf 02       		.uleb128 0x2
 5119 0de0 75       		.byte	0x75
 5120 0de1 00       		.sleb128 0
 5121 0de2 00       		.byte	0
 5122 0de3 00       		.byte	0
 5123 0de4 28       		.uleb128 0x28
 5124 0de5 47000000 		.4byte	.LASF93
 5125 0de9 01       		.byte	0x1
 5126 0dea 1801     		.2byte	0x118
 5127 0dec 25000000 		.4byte	0x25
 5128 0df0 00000000 		.4byte	.LFB25
 5129 0df4 58000000 		.4byte	.LFE25-.LFB25
 5130 0df8 01       		.uleb128 0x1
 5131 0df9 9C       		.byte	0x9c
 5132 0dfa 9C0E0000 		.4byte	0xe9c
 5133 0dfe 29       		.uleb128 0x29
 5134 0dff 766F6C00 		.ascii	"vol\000"
 5135 0e03 01       		.byte	0x1
 5136 0e04 1801     		.2byte	0x118
 5137 0e06 04060000 		.4byte	0x604
 5138 0e0a D40A0000 		.4byte	.LLST83
 5139 0e0e 2A       		.uleb128 0x2a
 5140 0e0f 53020000 		.4byte	.LASF85
 5141 0e13 01       		.byte	0x1
 5142 0e14 1801     		.2byte	0x118
 5143 0e16 E4000000 		.4byte	0xe4
 5144 0e1a 000B0000 		.4byte	.LLST84
 5145 0e1e 2B       		.uleb128 0x2b
 5146 0e1f 72657400 		.ascii	"ret\000"
 5147 0e23 01       		.byte	0x1
 5148 0e24 1A01     		.2byte	0x11a
ARM GAS  C:\Users\Petro\AppData\Local\Temp\ccPFwMgj.s 			page 107


 5149 0e26 25000000 		.4byte	0x25
 5150 0e2a 340B0000 		.4byte	.LLST85
 5151 0e2e 2C       		.uleb128 0x2c
 5152 0e2f 0A000000 		.4byte	.LBB189
 5153 0e33 18000000 		.4byte	.LBE189-.LBB189
 5154 0e37 810E0000 		.4byte	0xe81
 5155 0e3b 2D       		.uleb128 0x2d
 5156 0e3c A4040000 		.4byte	.LASF86
 5157 0e40 01       		.byte	0x1
 5158 0e41 1C01     		.2byte	0x11c
 5159 0e43 E4000000 		.4byte	0xe4
 5160 0e47 5E0B0000 		.4byte	.LLST86
 5161 0e4b 26       		.uleb128 0x26
 5162 0e4c 12000000 		.4byte	.LVL157
 5163 0e50 3D1D0000 		.4byte	0x1d3d
 5164 0e54 650E0000 		.4byte	0xe65
 5165 0e58 22       		.uleb128 0x22
 5166 0e59 01       		.uleb128 0x1
 5167 0e5a 51       		.byte	0x51
 5168 0e5b 02       		.uleb128 0x2
 5169 0e5c 74       		.byte	0x74
 5170 0e5d 00       		.sleb128 0
 5171 0e5e 22       		.uleb128 0x22
 5172 0e5f 01       		.uleb128 0x1
 5173 0e60 50       		.byte	0x50
 5174 0e61 02       		.uleb128 0x2
 5175 0e62 75       		.byte	0x75
 5176 0e63 00       		.sleb128 0
 5177 0e64 00       		.byte	0
 5178 0e65 27       		.uleb128 0x27
 5179 0e66 1E000000 		.4byte	.LVL160
 5180 0e6a AC0C0000 		.4byte	0xcac
 5181 0e6e 22       		.uleb128 0x22
 5182 0e6f 01       		.uleb128 0x1
 5183 0e70 52       		.byte	0x52
 5184 0e71 01       		.uleb128 0x1
 5185 0e72 30       		.byte	0x30
 5186 0e73 22       		.uleb128 0x22
 5187 0e74 01       		.uleb128 0x1
 5188 0e75 51       		.byte	0x51
 5189 0e76 02       		.uleb128 0x2
 5190 0e77 74       		.byte	0x74
 5191 0e78 00       		.sleb128 0
 5192 0e79 22       		.uleb128 0x22
 5193 0e7a 01       		.uleb128 0x1
 5194 0e7b 50       		.byte	0x50
 5195 0e7c 02       		.uleb128 0x2
 5196 0e7d 75       		.byte	0x75
 5197 0e7e 00       		.sleb128 0
 5198 0e7f 00       		.byte	0
 5199 0e80 00       		.byte	0
 5200 0e81 2E       		.uleb128 0x2e
 5201 0e82 E8050000 		.4byte	0x5e8
 5202 0e86 26000000 		.4byte	.LBB190
 5203 0e8a 1E000000 		.4byte	.LBE190-.LBB190
 5204 0e8e 01       		.byte	0x1
 5205 0e8f 1B01     		.2byte	0x11b
ARM GAS  C:\Users\Petro\AppData\Local\Temp\ccPFwMgj.s 			page 108


 5206 0e91 20       		.uleb128 0x20
 5207 0e92 F8050000 		.4byte	0x5f8
 5208 0e96 7C0B0000 		.4byte	.LLST87
 5209 0e9a 00       		.byte	0
 5210 0e9b 00       		.byte	0
 5211 0e9c 24       		.uleb128 0x24
 5212 0e9d BF020000 		.4byte	.LASF94
 5213 0ea1 01       		.byte	0x1
 5214 0ea2 9F       		.byte	0x9f
 5215 0ea3 D9000000 		.4byte	0xd9
 5216 0ea7 00000000 		.4byte	.LFB22
 5217 0eab E8000000 		.4byte	.LFE22-.LFB22
 5218 0eaf 01       		.uleb128 0x1
 5219 0eb0 9C       		.byte	0x9c
 5220 0eb1 87100000 		.4byte	0x1087
 5221 0eb5 1B       		.uleb128 0x1b
 5222 0eb6 6800     		.ascii	"h\000"
 5223 0eb8 01       		.byte	0x1
 5224 0eb9 9F       		.byte	0x9f
 5225 0eba D3020000 		.4byte	0x2d3
 5226 0ebe 9A0B0000 		.4byte	.LLST88
 5227 0ec2 1C       		.uleb128 0x1c
 5228 0ec3 53020000 		.4byte	.LASF85
 5229 0ec7 01       		.byte	0x1
 5230 0ec8 A0       		.byte	0xa0
 5231 0ec9 E4000000 		.4byte	0xe4
 5232 0ecd C60B0000 		.4byte	.LLST89
 5233 0ed1 1C       		.uleb128 0x1c
 5234 0ed2 CE010000 		.4byte	.LASF95
 5235 0ed6 01       		.byte	0x1
 5236 0ed7 A0       		.byte	0xa0
 5237 0ed8 25000000 		.4byte	0x25
 5238 0edc 0B0C0000 		.4byte	.LLST90
 5239 0ee0 1D       		.uleb128 0x1d
 5240 0ee1 A4040000 		.4byte	.LASF86
 5241 0ee5 01       		.byte	0x1
 5242 0ee6 A3       		.byte	0xa3
 5243 0ee7 E4000000 		.4byte	0xe4
 5244 0eeb 500C0000 		.4byte	.LLST91
 5245 0eef 1E       		.uleb128 0x1e
 5246 0ef0 E8050000 		.4byte	0x5e8
 5247 0ef4 10000000 		.4byte	.LBB192
 5248 0ef8 1E000000 		.4byte	.LBE192-.LBB192
 5249 0efc 01       		.byte	0x1
 5250 0efd A5       		.byte	0xa5
 5251 0efe 0C0F0000 		.4byte	0xf0c
 5252 0f02 20       		.uleb128 0x20
 5253 0f03 F8050000 		.4byte	0x5f8
 5254 0f07 8F0C0000 		.4byte	.LLST92
 5255 0f0b 00       		.byte	0
 5256 0f0c 1E       		.uleb128 0x1e
 5257 0f0d E8050000 		.4byte	0x5e8
 5258 0f11 3C000000 		.4byte	.LBB194
 5259 0f15 1E000000 		.4byte	.LBE194-.LBB194
 5260 0f19 01       		.byte	0x1
 5261 0f1a AF       		.byte	0xaf
 5262 0f1b 290F0000 		.4byte	0xf29
ARM GAS  C:\Users\Petro\AppData\Local\Temp\ccPFwMgj.s 			page 109


 5263 0f1f 20       		.uleb128 0x20
 5264 0f20 F8050000 		.4byte	0x5f8
 5265 0f24 B00C0000 		.4byte	.LLST93
 5266 0f28 00       		.byte	0
 5267 0f29 2F       		.uleb128 0x2f
 5268 0f2a 00000000 		.4byte	.Ldebug_ranges0+0
 5269 0f2e 22100000 		.4byte	0x1022
 5270 0f32 30       		.uleb128 0x30
 5271 0f33 9D020000 		.4byte	.LASF74
 5272 0f37 01       		.byte	0x1
 5273 0f38 B5       		.byte	0xb5
 5274 0f39 E4000000 		.4byte	0xe4
 5275 0f3d 25       		.uleb128 0x25
 5276 0f3e 6900     		.ascii	"i\000"
 5277 0f40 01       		.byte	0x1
 5278 0f41 B9       		.byte	0xb9
 5279 0f42 25000000 		.4byte	0x25
 5280 0f46 CE0C0000 		.4byte	.LLST94
 5281 0f4a 1E       		.uleb128 0x1e
 5282 0f4b 0F060000 		.4byte	0x60f
 5283 0f4f 70000000 		.4byte	.LBB197
 5284 0f53 0C000000 		.4byte	.LBE197-.LBB197
 5285 0f57 01       		.byte	0x1
 5286 0f58 B5       		.byte	0xb5
 5287 0f59 700F0000 		.4byte	0xf70
 5288 0f5d 20       		.uleb128 0x20
 5289 0f5e 2A060000 		.4byte	0x62a
 5290 0f62 ED0C0000 		.4byte	.LLST95
 5291 0f66 20       		.uleb128 0x20
 5292 0f67 1F060000 		.4byte	0x61f
 5293 0f6b 0B0D0000 		.4byte	.LLST96
 5294 0f6f 00       		.byte	0
 5295 0f70 1E       		.uleb128 0x1e
 5296 0f71 24050000 		.4byte	0x524
 5297 0f75 8A000000 		.4byte	.LBB199
 5298 0f79 08000000 		.4byte	.LBE199-.LBB199
 5299 0f7d 01       		.byte	0x1
 5300 0f7e B7       		.byte	0xb7
 5301 0f7f B20F0000 		.4byte	0xfb2
 5302 0f83 1F       		.uleb128 0x1f
 5303 0f84 55050000 		.4byte	0x555
 5304 0f88 20       		.uleb128 0x20
 5305 0f89 4A050000 		.4byte	0x54a
 5306 0f8d 290D0000 		.4byte	.LLST97
 5307 0f91 20       		.uleb128 0x20
 5308 0f92 3F050000 		.4byte	0x53f
 5309 0f96 490D0000 		.4byte	.LLST98
 5310 0f9a 20       		.uleb128 0x20
 5311 0f9b 34050000 		.4byte	0x534
 5312 0f9f 5C0D0000 		.4byte	.LLST99
 5313 0fa3 21       		.uleb128 0x21
 5314 0fa4 92000000 		.4byte	.LVL180
 5315 0fa8 02       		.uleb128 0x2
 5316 0fa9 75       		.byte	0x75
 5317 0faa 00       		.sleb128 0
 5318 0fab 22       		.uleb128 0x22
 5319 0fac 01       		.uleb128 0x1
ARM GAS  C:\Users\Petro\AppData\Local\Temp\ccPFwMgj.s 			page 110


 5320 0fad 52       		.byte	0x52
 5321 0fae 01       		.uleb128 0x1
 5322 0faf 31       		.byte	0x31
 5323 0fb0 00       		.byte	0
 5324 0fb1 00       		.byte	0
 5325 0fb2 2C       		.uleb128 0x2c
 5326 0fb3 AA000000 		.4byte	.LBB201
 5327 0fb7 0E000000 		.4byte	.LBE201-.LBB201
 5328 0fbb 12100000 		.4byte	0x1012
 5329 0fbf 30       		.uleb128 0x30
 5330 0fc0 3E060000 		.4byte	.LASF96
 5331 0fc4 01       		.byte	0x1
 5332 0fc5 BE       		.byte	0xbe
 5333 0fc6 25000000 		.4byte	0x25
 5334 0fca 23       		.uleb128 0x23
 5335 0fcb 24050000 		.4byte	0x524
 5336 0fcf B0000000 		.4byte	.LBB202
 5337 0fd3 08000000 		.4byte	.LBE202-.LBB202
 5338 0fd7 01       		.byte	0x1
 5339 0fd8 BE       		.byte	0xbe
 5340 0fd9 1F       		.uleb128 0x1f
 5341 0fda 55050000 		.4byte	0x555
 5342 0fde 20       		.uleb128 0x20
 5343 0fdf 4A050000 		.4byte	0x54a
 5344 0fe3 6F0D0000 		.4byte	.LLST100
 5345 0fe7 20       		.uleb128 0x20
 5346 0fe8 3F050000 		.4byte	0x53f
 5347 0fec 830D0000 		.4byte	.LLST101
 5348 0ff0 20       		.uleb128 0x20
 5349 0ff1 34050000 		.4byte	0x534
 5350 0ff5 A60D0000 		.4byte	.LLST102
 5351 0ff9 21       		.uleb128 0x21
 5352 0ffa B8000000 		.4byte	.LVL185
 5353 0ffe 02       		.uleb128 0x2
 5354 0fff 76       		.byte	0x76
 5355 1000 00       		.sleb128 0
 5356 1001 22       		.uleb128 0x22
 5357 1002 01       		.uleb128 0x1
 5358 1003 52       		.byte	0x52
 5359 1004 01       		.uleb128 0x1
 5360 1005 31       		.byte	0x31
 5361 1006 22       		.uleb128 0x22
 5362 1007 01       		.uleb128 0x1
 5363 1008 51       		.byte	0x51
 5364 1009 05       		.uleb128 0x5
 5365 100a 75       		.byte	0x75
 5366 100b 00       		.sleb128 0
 5367 100c 78       		.byte	0x78
 5368 100d 00       		.sleb128 0
 5369 100e 22       		.byte	0x22
 5370 100f 00       		.byte	0
 5371 1010 00       		.byte	0
 5372 1011 00       		.byte	0
 5373 1012 27       		.uleb128 0x27
 5374 1013 A6000000 		.4byte	.LVL182
 5375 1017 571D0000 		.4byte	0x1d57
 5376 101b 22       		.uleb128 0x22
ARM GAS  C:\Users\Petro\AppData\Local\Temp\ccPFwMgj.s 			page 111


 5377 101c 01       		.uleb128 0x1
 5378 101d 51       		.byte	0x51
 5379 101e 01       		.uleb128 0x1
 5380 101f 30       		.byte	0x30
 5381 1020 00       		.byte	0
 5382 1021 00       		.byte	0
 5383 1022 26       		.uleb128 0x26
 5384 1023 10000000 		.4byte	.LVL169
 5385 1027 3D1D0000 		.4byte	0x1d3d
 5386 102b 3C100000 		.4byte	0x103c
 5387 102f 22       		.uleb128 0x22
 5388 1030 01       		.uleb128 0x1
 5389 1031 51       		.byte	0x51
 5390 1032 02       		.uleb128 0x2
 5391 1033 75       		.byte	0x75
 5392 1034 00       		.sleb128 0
 5393 1035 22       		.uleb128 0x22
 5394 1036 01       		.uleb128 0x1
 5395 1037 50       		.byte	0x50
 5396 1038 02       		.uleb128 0x2
 5397 1039 77       		.byte	0x77
 5398 103a 00       		.sleb128 0
 5399 103b 00       		.byte	0
 5400 103c 26       		.uleb128 0x26
 5401 103d 38000000 		.4byte	.LVL171
 5402 1041 800D0000 		.4byte	0xd80
 5403 1045 50100000 		.4byte	0x1050
 5404 1049 22       		.uleb128 0x22
 5405 104a 01       		.uleb128 0x1
 5406 104b 50       		.byte	0x50
 5407 104c 02       		.uleb128 0x2
 5408 104d 77       		.byte	0x77
 5409 104e 00       		.sleb128 0
 5410 104f 00       		.byte	0
 5411 1050 26       		.uleb128 0x26
 5412 1051 62000000 		.4byte	.LVL175
 5413 1055 AC0C0000 		.4byte	0xcac
 5414 1059 6A100000 		.4byte	0x106a
 5415 105d 22       		.uleb128 0x22
 5416 105e 01       		.uleb128 0x1
 5417 105f 51       		.byte	0x51
 5418 1060 02       		.uleb128 0x2
 5419 1061 74       		.byte	0x74
 5420 1062 00       		.sleb128 0
 5421 1063 22       		.uleb128 0x22
 5422 1064 01       		.uleb128 0x1
 5423 1065 50       		.byte	0x50
 5424 1066 02       		.uleb128 0x2
 5425 1067 77       		.byte	0x77
 5426 1068 00       		.sleb128 0
 5427 1069 00       		.byte	0
 5428 106a 27       		.uleb128 0x27
 5429 106b 6C000000 		.4byte	.LVL176
 5430 106f AC0C0000 		.4byte	0xcac
 5431 1073 22       		.uleb128 0x22
 5432 1074 01       		.uleb128 0x1
 5433 1075 52       		.byte	0x52
ARM GAS  C:\Users\Petro\AppData\Local\Temp\ccPFwMgj.s 			page 112


 5434 1076 02       		.uleb128 0x2
 5435 1077 74       		.byte	0x74
 5436 1078 00       		.sleb128 0
 5437 1079 22       		.uleb128 0x22
 5438 107a 01       		.uleb128 0x1
 5439 107b 51       		.byte	0x51
 5440 107c 02       		.uleb128 0x2
 5441 107d 75       		.byte	0x75
 5442 107e 00       		.sleb128 0
 5443 107f 22       		.uleb128 0x22
 5444 1080 01       		.uleb128 0x1
 5445 1081 50       		.byte	0x50
 5446 1082 02       		.uleb128 0x2
 5447 1083 77       		.byte	0x77
 5448 1084 00       		.sleb128 0
 5449 1085 00       		.byte	0
 5450 1086 00       		.byte	0
 5451 1087 31       		.uleb128 0x31
 5452 1088 0E060000 		.4byte	.LASF126
 5453 108c 01       		.byte	0x1
 5454 108d 3E01     		.2byte	0x13e
 5455 108f 00000000 		.4byte	.LFB27
 5456 1093 B4000000 		.4byte	.LFE27-.LFB27
 5457 1097 01       		.uleb128 0x1
 5458 1098 9C       		.byte	0x9c
 5459 1099 69110000 		.4byte	0x1169
 5460 109d 2A       		.uleb128 0x2a
 5461 109e 88060000 		.4byte	.LASF97
 5462 10a2 01       		.byte	0x1
 5463 10a3 3E01     		.2byte	0x13e
 5464 10a5 D4040000 		.4byte	0x4d4
 5465 10a9 B90D0000 		.4byte	.LLST103
 5466 10ad 2A       		.uleb128 0x2a
 5467 10ae 57050000 		.4byte	.LASF56
 5468 10b2 01       		.byte	0x1
 5469 10b3 3E01     		.2byte	0x13e
 5470 10b5 B8000000 		.4byte	0xb8
 5471 10b9 E50D0000 		.4byte	.LLST104
 5472 10bd 29       		.uleb128 0x29
 5473 10be 6E00     		.ascii	"n\000"
 5474 10c0 01       		.byte	0x1
 5475 10c1 3E01     		.2byte	0x13e
 5476 10c3 25000000 		.4byte	0x25
 5477 10c7 110E0000 		.4byte	.LLST105
 5478 10cb 2B       		.uleb128 0x2b
 5479 10cc 6900     		.ascii	"i\000"
 5480 10ce 01       		.byte	0x1
 5481 10cf 4001     		.2byte	0x140
 5482 10d1 25000000 		.4byte	0x25
 5483 10d5 300E0000 		.4byte	.LLST106
 5484 10d9 2B       		.uleb128 0x2b
 5485 10da 6A00     		.ascii	"j\000"
 5486 10dc 01       		.byte	0x1
 5487 10dd 4001     		.2byte	0x140
 5488 10df 25000000 		.4byte	0x25
 5489 10e3 670E0000 		.4byte	.LLST107
 5490 10e7 2D       		.uleb128 0x2d
ARM GAS  C:\Users\Petro\AppData\Local\Temp\ccPFwMgj.s 			page 113


 5491 10e8 4E040000 		.4byte	.LASF98
 5492 10ec 01       		.byte	0x1
 5493 10ed 4601     		.2byte	0x146
 5494 10ef AB000000 		.4byte	0xab
 5495 10f3 850E0000 		.4byte	.LLST108
 5496 10f7 2C       		.uleb128 0x2c
 5497 10f8 1C000000 		.4byte	.LBB205
 5498 10fc 12000000 		.4byte	.LBE205-.LBB205
 5499 1100 15110000 		.4byte	0x1115
 5500 1104 2B       		.uleb128 0x2b
 5501 1105 5F5F7800 		.ascii	"__x\000"
 5502 1109 01       		.byte	0x1
 5503 110a 4401     		.2byte	0x144
 5504 110c BE000000 		.4byte	0xbe
 5505 1110 B90E0000 		.4byte	.LLST109
 5506 1114 00       		.byte	0
 5507 1115 2C       		.uleb128 0x2c
 5508 1116 56000000 		.4byte	.LBB206
 5509 111a 12000000 		.4byte	.LBE206-.LBB206
 5510 111e 33110000 		.4byte	0x1133
 5511 1122 2B       		.uleb128 0x2b
 5512 1123 5F5F7800 		.ascii	"__x\000"
 5513 1127 01       		.byte	0x1
 5514 1128 4801     		.2byte	0x148
 5515 112a B1000000 		.4byte	0xb1
 5516 112e CC0E0000 		.4byte	.LLST110
 5517 1132 00       		.byte	0
 5518 1133 26       		.uleb128 0x26
 5519 1134 16000000 		.4byte	.LVL196
 5520 1138 741D0000 		.4byte	0x1d74
 5521 113c 52110000 		.4byte	0x1152
 5522 1140 22       		.uleb128 0x22
 5523 1141 01       		.uleb128 0x1
 5524 1142 52       		.byte	0x52
 5525 1143 01       		.uleb128 0x1
 5526 1144 3B       		.byte	0x3b
 5527 1145 22       		.uleb128 0x22
 5528 1146 01       		.uleb128 0x1
 5529 1147 51       		.byte	0x51
 5530 1148 02       		.uleb128 0x2
 5531 1149 08       		.byte	0x8
 5532 114a 20       		.byte	0x20
 5533 114b 22       		.uleb128 0x22
 5534 114c 01       		.uleb128 0x1
 5535 114d 50       		.byte	0x50
 5536 114e 02       		.uleb128 0x2
 5537 114f 76       		.byte	0x76
 5538 1150 00       		.sleb128 0
 5539 1151 00       		.byte	0
 5540 1152 27       		.uleb128 0x27
 5541 1153 4A000000 		.4byte	.LVL201
 5542 1157 931D0000 		.4byte	0x1d93
 5543 115b 22       		.uleb128 0x22
 5544 115c 01       		.uleb128 0x1
 5545 115d 51       		.byte	0x51
 5546 115e 02       		.uleb128 0x2
 5547 115f 08       		.byte	0x8
ARM GAS  C:\Users\Petro\AppData\Local\Temp\ccPFwMgj.s 			page 114


 5548 1160 2E       		.byte	0x2e
 5549 1161 22       		.uleb128 0x22
 5550 1162 01       		.uleb128 0x1
 5551 1163 50       		.byte	0x50
 5552 1164 02       		.uleb128 0x2
 5553 1165 77       		.byte	0x77
 5554 1166 00       		.sleb128 0
 5555 1167 00       		.byte	0
 5556 1168 00       		.byte	0
 5557 1169 32       		.uleb128 0x32
 5558 116a 08040000 		.4byte	.LASF100
 5559 116e 01       		.byte	0x1
 5560 116f C7       		.byte	0xc7
 5561 1170 25000000 		.4byte	0x25
 5562 1174 00000000 		.4byte	.LFB23
 5563 1178 F4000000 		.4byte	.LFE23-.LFB23
 5564 117c 01       		.uleb128 0x1
 5565 117d 9C       		.byte	0x9c
 5566 117e 5D130000 		.4byte	0x135d
 5567 1182 1B       		.uleb128 0x1b
 5568 1183 6800     		.ascii	"h\000"
 5569 1185 01       		.byte	0x1
 5570 1186 C7       		.byte	0xc7
 5571 1187 5D130000 		.4byte	0x135d
 5572 118b DF0E0000 		.4byte	.LLST111
 5573 118f 1D       		.uleb128 0x1d
 5574 1190 3C040000 		.4byte	.LASF99
 5575 1194 01       		.byte	0x1
 5576 1195 C9       		.byte	0xc9
 5577 1196 63130000 		.4byte	0x1363
 5578 119a 240F0000 		.4byte	.LLST112
 5579 119e 1E       		.uleb128 0x1e
 5580 119f 24050000 		.4byte	0x524
 5581 11a3 26000000 		.4byte	.LBB207
 5582 11a7 08000000 		.4byte	.LBE207-.LBB207
 5583 11ab 01       		.byte	0x1
 5584 11ac CB       		.byte	0xcb
 5585 11ad E0110000 		.4byte	0x11e0
 5586 11b1 1F       		.uleb128 0x1f
 5587 11b2 55050000 		.4byte	0x555
 5588 11b6 20       		.uleb128 0x20
 5589 11b7 4A050000 		.4byte	0x54a
 5590 11bb 370F0000 		.4byte	.LLST113
 5591 11bf 20       		.uleb128 0x20
 5592 11c0 3F050000 		.4byte	0x53f
 5593 11c4 570F0000 		.4byte	.LLST114
 5594 11c8 20       		.uleb128 0x20
 5595 11c9 34050000 		.4byte	0x534
 5596 11cd 6A0F0000 		.4byte	.LLST115
 5597 11d1 21       		.uleb128 0x21
 5598 11d2 2E000000 		.4byte	.LVL220
 5599 11d6 02       		.uleb128 0x2
 5600 11d7 75       		.byte	0x75
 5601 11d8 00       		.sleb128 0
 5602 11d9 22       		.uleb128 0x22
 5603 11da 01       		.uleb128 0x1
 5604 11db 52       		.byte	0x52
ARM GAS  C:\Users\Petro\AppData\Local\Temp\ccPFwMgj.s 			page 115


 5605 11dc 01       		.uleb128 0x1
 5606 11dd 31       		.byte	0x31
 5607 11de 00       		.byte	0
 5608 11df 00       		.byte	0
 5609 11e0 1E       		.uleb128 0x1e
 5610 11e1 61050000 		.4byte	0x561
 5611 11e5 46000000 		.4byte	.LBB209
 5612 11e9 0A000000 		.4byte	.LBE209-.LBB209
 5613 11ed 01       		.byte	0x1
 5614 11ee CB       		.byte	0xcb
 5615 11ef 22120000 		.4byte	0x1222
 5616 11f3 1F       		.uleb128 0x1f
 5617 11f4 92050000 		.4byte	0x592
 5618 11f8 20       		.uleb128 0x20
 5619 11f9 87050000 		.4byte	0x587
 5620 11fd 7D0F0000 		.4byte	.LLST116
 5621 1201 20       		.uleb128 0x20
 5622 1202 7C050000 		.4byte	0x57c
 5623 1206 9D0F0000 		.4byte	.LLST117
 5624 120a 20       		.uleb128 0x20
 5625 120b 71050000 		.4byte	0x571
 5626 120f BB0F0000 		.4byte	.LLST118
 5627 1213 21       		.uleb128 0x21
 5628 1214 50000000 		.4byte	.LVL224
 5629 1218 02       		.uleb128 0x2
 5630 1219 75       		.byte	0x75
 5631 121a 00       		.sleb128 0
 5632 121b 22       		.uleb128 0x22
 5633 121c 01       		.uleb128 0x1
 5634 121d 52       		.byte	0x52
 5635 121e 01       		.uleb128 0x1
 5636 121f 31       		.byte	0x31
 5637 1220 00       		.byte	0
 5638 1221 00       		.byte	0
 5639 1222 1E       		.uleb128 0x1e
 5640 1223 C3050000 		.4byte	0x5c3
 5641 1227 5C000000 		.4byte	.LBB211
 5642 122b 0E000000 		.4byte	.LBE211-.LBB211
 5643 122f 01       		.byte	0x1
 5644 1230 CD       		.byte	0xcd
 5645 1231 90120000 		.4byte	0x1290
 5646 1235 20       		.uleb128 0x20
 5647 1236 D8050000 		.4byte	0x5d8
 5648 123a CE0F0000 		.4byte	.LLST119
 5649 123e 20       		.uleb128 0x20
 5650 123f CF050000 		.4byte	0x5cf
 5651 1243 E10F0000 		.4byte	.LLST120
 5652 1247 1E       		.uleb128 0x1e
 5653 1248 FF040000 		.4byte	0x4ff
 5654 124c 5C000000 		.4byte	.LBB213
 5655 1250 06000000 		.4byte	.LBE213-.LBB213
 5656 1254 03       		.byte	0x3
 5657 1255 32       		.byte	0x32
 5658 1256 6D120000 		.4byte	0x126d
 5659 125a 20       		.uleb128 0x20
 5660 125b 14050000 		.4byte	0x514
 5661 125f CE0F0000 		.4byte	.LLST119
ARM GAS  C:\Users\Petro\AppData\Local\Temp\ccPFwMgj.s 			page 116


 5662 1263 20       		.uleb128 0x20
 5663 1264 0B050000 		.4byte	0x50b
 5664 1268 E10F0000 		.4byte	.LLST120
 5665 126c 00       		.byte	0
 5666 126d 23       		.uleb128 0x23
 5667 126e FF040000 		.4byte	0x4ff
 5668 1272 64000000 		.4byte	.LBB215
 5669 1276 06000000 		.4byte	.LBE215-.LBB215
 5670 127a 03       		.byte	0x3
 5671 127b 33       		.byte	0x33
 5672 127c 20       		.uleb128 0x20
 5673 127d 14050000 		.4byte	0x514
 5674 1281 F60F0000 		.4byte	.LLST123
 5675 1285 20       		.uleb128 0x20
 5676 1286 0B050000 		.4byte	0x50b
 5677 128a 09100000 		.4byte	.LLST124
 5678 128e 00       		.byte	0
 5679 128f 00       		.byte	0
 5680 1290 1E       		.uleb128 0x1e
 5681 1291 FF040000 		.4byte	0x4ff
 5682 1295 6C000000 		.4byte	.LBB217
 5683 1299 06000000 		.4byte	.LBE217-.LBB217
 5684 129d 01       		.byte	0x1
 5685 129e CE       		.byte	0xce
 5686 129f B6120000 		.4byte	0x12b6
 5687 12a3 20       		.uleb128 0x20
 5688 12a4 14050000 		.4byte	0x514
 5689 12a8 1E100000 		.4byte	.LLST125
 5690 12ac 20       		.uleb128 0x20
 5691 12ad 0B050000 		.4byte	0x50b
 5692 12b1 31100000 		.4byte	.LLST126
 5693 12b5 00       		.byte	0
 5694 12b6 1E       		.uleb128 0x1e
 5695 12b7 FF040000 		.4byte	0x4ff
 5696 12bb 74000000 		.4byte	.LBB219
 5697 12bf 06000000 		.4byte	.LBE219-.LBB219
 5698 12c3 01       		.byte	0x1
 5699 12c4 CF       		.byte	0xcf
 5700 12c5 DC120000 		.4byte	0x12dc
 5701 12c9 20       		.uleb128 0x20
 5702 12ca 14050000 		.4byte	0x514
 5703 12ce 46100000 		.4byte	.LLST127
 5704 12d2 20       		.uleb128 0x20
 5705 12d3 0B050000 		.4byte	0x50b
 5706 12d7 59100000 		.4byte	.LLST128
 5707 12db 00       		.byte	0
 5708 12dc 1E       		.uleb128 0x1e
 5709 12dd 24050000 		.4byte	0x524
 5710 12e1 9C000000 		.4byte	.LBB221
 5711 12e5 08000000 		.4byte	.LBE221-.LBB221
 5712 12e9 01       		.byte	0x1
 5713 12ea D0       		.byte	0xd0
 5714 12eb 1E130000 		.4byte	0x131e
 5715 12ef 1F       		.uleb128 0x1f
 5716 12f0 55050000 		.4byte	0x555
 5717 12f4 20       		.uleb128 0x20
 5718 12f5 4A050000 		.4byte	0x54a
ARM GAS  C:\Users\Petro\AppData\Local\Temp\ccPFwMgj.s 			page 117


 5719 12f9 6E100000 		.4byte	.LLST129
 5720 12fd 20       		.uleb128 0x20
 5721 12fe 3F050000 		.4byte	0x53f
 5722 1302 8E100000 		.4byte	.LLST130
 5723 1306 20       		.uleb128 0x20
 5724 1307 34050000 		.4byte	0x534
 5725 130b A1100000 		.4byte	.LLST131
 5726 130f 21       		.uleb128 0x21
 5727 1310 A4000000 		.4byte	.LVL236
 5728 1314 02       		.uleb128 0x2
 5729 1315 75       		.byte	0x75
 5730 1316 00       		.sleb128 0
 5731 1317 22       		.uleb128 0x22
 5732 1318 01       		.uleb128 0x1
 5733 1319 52       		.byte	0x52
 5734 131a 01       		.uleb128 0x1
 5735 131b 31       		.byte	0x31
 5736 131c 00       		.byte	0
 5737 131d 00       		.byte	0
 5738 131e 23       		.uleb128 0x23
 5739 131f 24050000 		.4byte	0x524
 5740 1323 BE000000 		.4byte	.LBB223
 5741 1327 06000000 		.4byte	.LBE223-.LBB223
 5742 132b 01       		.byte	0x1
 5743 132c D1       		.byte	0xd1
 5744 132d 1F       		.uleb128 0x1f
 5745 132e 55050000 		.4byte	0x555
 5746 1332 20       		.uleb128 0x20
 5747 1333 4A050000 		.4byte	0x54a
 5748 1337 B4100000 		.4byte	.LLST132
 5749 133b 20       		.uleb128 0x20
 5750 133c 3F050000 		.4byte	0x53f
 5751 1340 D4100000 		.4byte	.LLST133
 5752 1344 20       		.uleb128 0x20
 5753 1345 34050000 		.4byte	0x534
 5754 1349 E7100000 		.4byte	.LLST134
 5755 134d 21       		.uleb128 0x21
 5756 134e C4000000 		.4byte	.LVL240
 5757 1352 02       		.uleb128 0x2
 5758 1353 74       		.byte	0x74
 5759 1354 00       		.sleb128 0
 5760 1355 22       		.uleb128 0x22
 5761 1356 01       		.uleb128 0x1
 5762 1357 52       		.byte	0x52
 5763 1358 01       		.uleb128 0x1
 5764 1359 31       		.byte	0x31
 5765 135a 00       		.byte	0
 5766 135b 00       		.byte	0
 5767 135c 00       		.byte	0
 5768 135d 06       		.uleb128 0x6
 5769 135e 04       		.byte	0x4
 5770 135f 4A020000 		.4byte	0x24a
 5771 1363 06       		.uleb128 0x6
 5772 1364 04       		.byte	0x4
 5773 1365 5D030000 		.4byte	0x35d
 5774 1369 33       		.uleb128 0x33
 5775 136a 49020000 		.4byte	.LASF101
ARM GAS  C:\Users\Petro\AppData\Local\Temp\ccPFwMgj.s 			page 118


 5776 136e 01       		.byte	0x1
 5777 136f D6       		.byte	0xd6
 5778 1370 25000000 		.4byte	0x25
 5779 1374 00000000 		.4byte	.LFB24
 5780 1378 0C020000 		.4byte	.LFE24-.LFB24
 5781 137c 01       		.uleb128 0x1
 5782 137d 9C       		.byte	0x9c
 5783 137e C5150000 		.4byte	0x15c5
 5784 1382 1B       		.uleb128 0x1b
 5785 1383 6800     		.ascii	"h\000"
 5786 1385 01       		.byte	0x1
 5787 1386 D6       		.byte	0xd6
 5788 1387 5D130000 		.4byte	0x135d
 5789 138b FA100000 		.4byte	.LLST135
 5790 138f 1B       		.uleb128 0x1b
 5791 1390 62756600 		.ascii	"buf\000"
 5792 1394 01       		.byte	0x1
 5793 1395 D6       		.byte	0xd6
 5794 1396 90010000 		.4byte	0x190
 5795 139a 26110000 		.4byte	.LLST136
 5796 139e 1C       		.uleb128 0x1c
 5797 139f EF030000 		.4byte	.LASF39
 5798 13a3 01       		.byte	0x1
 5799 13a4 D6       		.byte	0xd6
 5800 13a5 25000000 		.4byte	0x25
 5801 13a9 52110000 		.4byte	.LLST137
 5802 13ad 25       		.uleb128 0x25
 5803 13ae 6900     		.ascii	"i\000"
 5804 13b0 01       		.byte	0x1
 5805 13b1 D8       		.byte	0xd8
 5806 13b2 25000000 		.4byte	0x25
 5807 13b6 9C110000 		.4byte	.LLST138
 5808 13ba 34       		.uleb128 0x34
 5809 13bb 9D020000 		.4byte	.LASF74
 5810 13bf 01       		.byte	0x1
 5811 13c0 D9       		.byte	0xd9
 5812 13c1 E4000000 		.4byte	0xe4
 5813 13c5 02       		.uleb128 0x2
 5814 13c6 91       		.byte	0x91
 5815 13c7 5C       		.sleb128 -36
 5816 13c8 34       		.uleb128 0x34
 5817 13c9 EE010000 		.4byte	.LASF87
 5818 13cd 01       		.byte	0x1
 5819 13ce DA       		.byte	0xda
 5820 13cf CE000000 		.4byte	0xce
 5821 13d3 02       		.uleb128 0x2
 5822 13d4 91       		.byte	0x91
 5823 13d5 5A       		.sleb128 -38
 5824 13d6 1E       		.uleb128 0x1e
 5825 13d7 E8050000 		.4byte	0x5e8
 5826 13db 2C000000 		.4byte	.LBB225
 5827 13df 1E000000 		.4byte	.LBE225-.LBB225
 5828 13e3 01       		.byte	0x1
 5829 13e4 E3       		.byte	0xe3
 5830 13e5 F3130000 		.4byte	0x13f3
 5831 13e9 20       		.uleb128 0x20
 5832 13ea F8050000 		.4byte	0x5f8
ARM GAS  C:\Users\Petro\AppData\Local\Temp\ccPFwMgj.s 			page 119


 5833 13ee C6110000 		.4byte	.LLST139
 5834 13f2 00       		.byte	0
 5835 13f3 2F       		.uleb128 0x2f
 5836 13f4 18000000 		.4byte	.Ldebug_ranges0+0x18
 5837 13f8 82150000 		.4byte	0x1582
 5838 13fc 1D       		.uleb128 0x1d
 5839 13fd 00010000 		.4byte	.LASF102
 5840 1401 01       		.byte	0x1
 5841 1402 F0       		.byte	0xf0
 5842 1403 CE000000 		.4byte	0xce
 5843 1407 D9110000 		.4byte	.LLST140
 5844 140b 1E       		.uleb128 0x1e
 5845 140c 24050000 		.4byte	0x524
 5846 1410 B0000000 		.4byte	.LBB228
 5847 1414 08000000 		.4byte	.LBE228-.LBB228
 5848 1418 01       		.byte	0x1
 5849 1419 F3       		.byte	0xf3
 5850 141a 4D140000 		.4byte	0x144d
 5851 141e 1F       		.uleb128 0x1f
 5852 141f 55050000 		.4byte	0x555
 5853 1423 20       		.uleb128 0x20
 5854 1424 4A050000 		.4byte	0x54a
 5855 1428 18120000 		.4byte	.LLST141
 5856 142c 20       		.uleb128 0x20
 5857 142d 3F050000 		.4byte	0x53f
 5858 1431 38120000 		.4byte	.LLST142
 5859 1435 20       		.uleb128 0x20
 5860 1436 34050000 		.4byte	0x534
 5861 143a 4B120000 		.4byte	.LLST143
 5862 143e 21       		.uleb128 0x21
 5863 143f B8000000 		.4byte	.LVL259
 5864 1443 02       		.uleb128 0x2
 5865 1444 76       		.byte	0x76
 5866 1445 00       		.sleb128 0
 5867 1446 22       		.uleb128 0x22
 5868 1447 01       		.uleb128 0x1
 5869 1448 52       		.byte	0x52
 5870 1449 01       		.uleb128 0x1
 5871 144a 31       		.byte	0x31
 5872 144b 00       		.byte	0
 5873 144c 00       		.byte	0
 5874 144d 1E       		.uleb128 0x1e
 5875 144e 61050000 		.4byte	0x561
 5876 1452 D2000000 		.4byte	.LBB230
 5877 1456 0A000000 		.4byte	.LBE230-.LBB230
 5878 145a 01       		.byte	0x1
 5879 145b F3       		.byte	0xf3
 5880 145c 8F140000 		.4byte	0x148f
 5881 1460 1F       		.uleb128 0x1f
 5882 1461 92050000 		.4byte	0x592
 5883 1465 20       		.uleb128 0x20
 5884 1466 87050000 		.4byte	0x587
 5885 146a 5E120000 		.4byte	.LLST144
 5886 146e 20       		.uleb128 0x20
 5887 146f 7C050000 		.4byte	0x57c
 5888 1473 7E120000 		.4byte	.LLST145
 5889 1477 20       		.uleb128 0x20
ARM GAS  C:\Users\Petro\AppData\Local\Temp\ccPFwMgj.s 			page 120


 5890 1478 71050000 		.4byte	0x571
 5891 147c 9C120000 		.4byte	.LLST146
 5892 1480 21       		.uleb128 0x21
 5893 1481 DC000000 		.4byte	.LVL263
 5894 1485 02       		.uleb128 0x2
 5895 1486 76       		.byte	0x76
 5896 1487 00       		.sleb128 0
 5897 1488 22       		.uleb128 0x22
 5898 1489 01       		.uleb128 0x1
 5899 148a 52       		.byte	0x52
 5900 148b 01       		.uleb128 0x1
 5901 148c 31       		.byte	0x31
 5902 148d 00       		.byte	0
 5903 148e 00       		.byte	0
 5904 148f 1E       		.uleb128 0x1e
 5905 1490 24050000 		.4byte	0x524
 5906 1494 F0000000 		.4byte	.LBB232
 5907 1498 08000000 		.4byte	.LBE232-.LBB232
 5908 149c 01       		.byte	0x1
 5909 149d F5       		.byte	0xf5
 5910 149e D1140000 		.4byte	0x14d1
 5911 14a2 1F       		.uleb128 0x1f
 5912 14a3 55050000 		.4byte	0x555
 5913 14a7 20       		.uleb128 0x20
 5914 14a8 4A050000 		.4byte	0x54a
 5915 14ac AF120000 		.4byte	.LLST147
 5916 14b0 20       		.uleb128 0x20
 5917 14b1 3F050000 		.4byte	0x53f
 5918 14b5 CF120000 		.4byte	.LLST148
 5919 14b9 20       		.uleb128 0x20
 5920 14ba 34050000 		.4byte	0x534
 5921 14be E2120000 		.4byte	.LLST149
 5922 14c2 21       		.uleb128 0x21
 5923 14c3 F8000000 		.4byte	.LVL268
 5924 14c7 02       		.uleb128 0x2
 5925 14c8 76       		.byte	0x76
 5926 14c9 00       		.sleb128 0
 5927 14ca 22       		.uleb128 0x22
 5928 14cb 01       		.uleb128 0x1
 5929 14cc 52       		.byte	0x52
 5930 14cd 01       		.uleb128 0x1
 5931 14ce 31       		.byte	0x31
 5932 14cf 00       		.byte	0
 5933 14d0 00       		.byte	0
 5934 14d1 1E       		.uleb128 0x1e
 5935 14d2 24050000 		.4byte	0x524
 5936 14d6 3A010000 		.4byte	.LBB234
 5937 14da 08000000 		.4byte	.LBE234-.LBB234
 5938 14de 01       		.byte	0x1
 5939 14df F8       		.byte	0xf8
 5940 14e0 13150000 		.4byte	0x1513
 5941 14e4 1F       		.uleb128 0x1f
 5942 14e5 55050000 		.4byte	0x555
 5943 14e9 20       		.uleb128 0x20
 5944 14ea 4A050000 		.4byte	0x54a
 5945 14ee F5120000 		.4byte	.LLST150
 5946 14f2 20       		.uleb128 0x20
ARM GAS  C:\Users\Petro\AppData\Local\Temp\ccPFwMgj.s 			page 121


 5947 14f3 3F050000 		.4byte	0x53f
 5948 14f7 15130000 		.4byte	.LLST151
 5949 14fb 20       		.uleb128 0x20
 5950 14fc 34050000 		.4byte	0x534
 5951 1500 28130000 		.4byte	.LLST152
 5952 1504 21       		.uleb128 0x21
 5953 1505 42010000 		.4byte	.LVL273
 5954 1509 02       		.uleb128 0x2
 5955 150a 76       		.byte	0x76
 5956 150b 00       		.sleb128 0
 5957 150c 22       		.uleb128 0x22
 5958 150d 01       		.uleb128 0x1
 5959 150e 52       		.byte	0x52
 5960 150f 01       		.uleb128 0x1
 5961 1510 31       		.byte	0x31
 5962 1511 00       		.byte	0
 5963 1512 00       		.byte	0
 5964 1513 2C       		.uleb128 0x2c
 5965 1514 8C010000 		.4byte	.LBB236
 5966 1518 22000000 		.4byte	.LBE236-.LBB236
 5967 151c 68150000 		.4byte	0x1568
 5968 1520 2D       		.uleb128 0x2d
 5969 1521 82020000 		.4byte	.LASF103
 5970 1525 01       		.byte	0x1
 5971 1526 0401     		.2byte	0x104
 5972 1528 E4000000 		.4byte	0xe4
 5973 152c 3B130000 		.4byte	.LLST153
 5974 1530 35       		.uleb128 0x35
 5975 1531 0F060000 		.4byte	0x60f
 5976 1535 A2010000 		.4byte	.LBB237
 5977 1539 0A000000 		.4byte	.LBE237-.LBB237
 5978 153d 01       		.byte	0x1
 5979 153e 0901     		.2byte	0x109
 5980 1540 57150000 		.4byte	0x1557
 5981 1544 20       		.uleb128 0x20
 5982 1545 2A060000 		.4byte	0x62a
 5983 1549 5A130000 		.4byte	.LLST154
 5984 154d 20       		.uleb128 0x20
 5985 154e 1F060000 		.4byte	0x61f
 5986 1552 79130000 		.4byte	.LLST155
 5987 1556 00       		.byte	0
 5988 1557 27       		.uleb128 0x27
 5989 1558 9A010000 		.4byte	.LVL278
 5990 155c 9C0E0000 		.4byte	0xe9c
 5991 1560 22       		.uleb128 0x22
 5992 1561 01       		.uleb128 0x1
 5993 1562 50       		.byte	0x50
 5994 1563 02       		.uleb128 0x2
 5995 1564 74       		.byte	0x74
 5996 1565 00       		.sleb128 0
 5997 1566 00       		.byte	0
 5998 1567 00       		.byte	0
 5999 1568 27       		.uleb128 0x27
 6000 1569 18010000 		.4byte	.LVL271
 6001 156d AD1D0000 		.4byte	0x1dad
 6002 1571 22       		.uleb128 0x22
 6003 1572 01       		.uleb128 0x1
ARM GAS  C:\Users\Petro\AppData\Local\Temp\ccPFwMgj.s 			page 122


 6004 1573 52       		.byte	0x52
 6005 1574 02       		.uleb128 0x2
 6006 1575 74       		.byte	0x74
 6007 1576 00       		.sleb128 0
 6008 1577 22       		.uleb128 0x22
 6009 1578 01       		.uleb128 0x1
 6010 1579 51       		.byte	0x51
 6011 157a 05       		.uleb128 0x5
 6012 157b 79       		.byte	0x79
 6013 157c 00       		.sleb128 0
 6014 157d 77       		.byte	0x77
 6015 157e 00       		.sleb128 0
 6016 157f 22       		.byte	0x22
 6017 1580 00       		.byte	0
 6018 1581 00       		.byte	0
 6019 1582 36       		.uleb128 0x36
 6020 1583 20000000 		.4byte	.LVL248
 6021 1587 800D0000 		.4byte	0xd80
 6022 158b 36       		.uleb128 0x36
 6023 158c 4E000000 		.4byte	.LVL250
 6024 1590 AC0C0000 		.4byte	0xcac
 6025 1594 26       		.uleb128 0x26
 6026 1595 70000000 		.4byte	.LVL252
 6027 1599 CA1D0000 		.4byte	0x1dca
 6028 159d B4150000 		.4byte	0x15b4
 6029 15a1 22       		.uleb128 0x22
 6030 15a2 01       		.uleb128 0x1
 6031 15a3 52       		.byte	0x52
 6032 15a4 02       		.uleb128 0x2
 6033 15a5 7D       		.byte	0x7d
 6034 15a6 02       		.sleb128 2
 6035 15a7 22       		.uleb128 0x22
 6036 15a8 01       		.uleb128 0x1
 6037 15a9 51       		.byte	0x51
 6038 15aa 02       		.uleb128 0x2
 6039 15ab 91       		.byte	0x91
 6040 15ac 5C       		.sleb128 -36
 6041 15ad 22       		.uleb128 0x22
 6042 15ae 01       		.uleb128 0x1
 6043 15af 50       		.byte	0x50
 6044 15b0 02       		.uleb128 0x2
 6045 15b1 75       		.byte	0x75
 6046 15b2 00       		.sleb128 0
 6047 15b3 00       		.byte	0
 6048 15b4 27       		.uleb128 0x27
 6049 15b5 D0010000 		.4byte	.LVL283
 6050 15b9 69110000 		.4byte	0x1169
 6051 15bd 22       		.uleb128 0x22
 6052 15be 01       		.uleb128 0x1
 6053 15bf 50       		.byte	0x50
 6054 15c0 02       		.uleb128 0x2
 6055 15c1 75       		.byte	0x75
 6056 15c2 00       		.sleb128 0
 6057 15c3 00       		.byte	0
 6058 15c4 00       		.byte	0
 6059 15c5 37       		.uleb128 0x37
 6060 15c6 B6000000 		.4byte	.LASF104
ARM GAS  C:\Users\Petro\AppData\Local\Temp\ccPFwMgj.s 			page 123


 6061 15ca 01       		.byte	0x1
 6062 15cb 2301     		.2byte	0x123
 6063 15cd 25000000 		.4byte	0x25
 6064 15d1 00000000 		.4byte	.LFB26
 6065 15d5 DC000000 		.4byte	.LFE26-.LFB26
 6066 15d9 01       		.uleb128 0x1
 6067 15da 9C       		.byte	0x9c
 6068 15db 1C170000 		.4byte	0x171c
 6069 15df 29       		.uleb128 0x29
 6070 15e0 766F6C00 		.ascii	"vol\000"
 6071 15e4 01       		.byte	0x1
 6072 15e5 2301     		.2byte	0x123
 6073 15e7 D3020000 		.4byte	0x2d3
 6074 15eb 98130000 		.4byte	.LLST156
 6075 15ef 2A       		.uleb128 0x2a
 6076 15f0 57050000 		.4byte	.LASF56
 6077 15f4 01       		.byte	0x1
 6078 15f5 2301     		.2byte	0x123
 6079 15f7 B8000000 		.4byte	0xb8
 6080 15fb C4130000 		.4byte	.LLST157
 6081 15ff 38       		.uleb128 0x38
 6082 1600 6800     		.ascii	"h\000"
 6083 1602 01       		.byte	0x1
 6084 1603 2501     		.2byte	0x125
 6085 1605 4A020000 		.4byte	0x24a
 6086 1609 02       		.uleb128 0x2
 6087 160a 91       		.byte	0x91
 6088 160b 4C       		.sleb128 -52
 6089 160c 2B       		.uleb128 0x2b
 6090 160d 72657400 		.ascii	"ret\000"
 6091 1611 01       		.byte	0x1
 6092 1612 2601     		.2byte	0x126
 6093 1614 25000000 		.4byte	0x25
 6094 1618 E5130000 		.4byte	.LLST158
 6095 161c 35       		.uleb128 0x35
 6096 161d 24050000 		.4byte	0x524
 6097 1621 40000000 		.4byte	.LBB240
 6098 1625 08000000 		.4byte	.LBE240-.LBB240
 6099 1629 01       		.byte	0x1
 6100 162a 3401     		.2byte	0x134
 6101 162c 5F160000 		.4byte	0x165f
 6102 1630 1F       		.uleb128 0x1f
 6103 1631 55050000 		.4byte	0x555
 6104 1635 20       		.uleb128 0x20
 6105 1636 4A050000 		.4byte	0x54a
 6106 163a 03140000 		.4byte	.LLST159
 6107 163e 20       		.uleb128 0x20
 6108 163f 3F050000 		.4byte	0x53f
 6109 1643 23140000 		.4byte	.LLST160
 6110 1647 20       		.uleb128 0x20
 6111 1648 34050000 		.4byte	0x534
 6112 164c 36140000 		.4byte	.LLST161
 6113 1650 21       		.uleb128 0x21
 6114 1651 48000000 		.4byte	.LVL298
 6115 1655 02       		.uleb128 0x2
 6116 1656 75       		.byte	0x75
 6117 1657 00       		.sleb128 0
ARM GAS  C:\Users\Petro\AppData\Local\Temp\ccPFwMgj.s 			page 124


 6118 1658 22       		.uleb128 0x22
 6119 1659 01       		.uleb128 0x1
 6120 165a 52       		.byte	0x52
 6121 165b 01       		.uleb128 0x1
 6122 165c 31       		.byte	0x31
 6123 165d 00       		.byte	0
 6124 165e 00       		.byte	0
 6125 165f 35       		.uleb128 0x35
 6126 1660 61050000 		.4byte	0x561
 6127 1664 5C000000 		.4byte	.LBB242
 6128 1668 0A000000 		.4byte	.LBE242-.LBB242
 6129 166c 01       		.byte	0x1
 6130 166d 3401     		.2byte	0x134
 6131 166f A2160000 		.4byte	0x16a2
 6132 1673 1F       		.uleb128 0x1f
 6133 1674 92050000 		.4byte	0x592
 6134 1678 20       		.uleb128 0x20
 6135 1679 87050000 		.4byte	0x587
 6136 167d 49140000 		.4byte	.LLST162
 6137 1681 20       		.uleb128 0x20
 6138 1682 7C050000 		.4byte	0x57c
 6139 1686 69140000 		.4byte	.LLST163
 6140 168a 20       		.uleb128 0x20
 6141 168b 71050000 		.4byte	0x571
 6142 168f 87140000 		.4byte	.LLST164
 6143 1693 21       		.uleb128 0x21
 6144 1694 66000000 		.4byte	.LVL302
 6145 1698 02       		.uleb128 0x2
 6146 1699 75       		.byte	0x75
 6147 169a 00       		.sleb128 0
 6148 169b 22       		.uleb128 0x22
 6149 169c 01       		.uleb128 0x1
 6150 169d 52       		.byte	0x52
 6151 169e 01       		.uleb128 0x1
 6152 169f 31       		.byte	0x31
 6153 16a0 00       		.byte	0
 6154 16a1 00       		.byte	0
 6155 16a2 35       		.uleb128 0x35
 6156 16a3 24050000 		.4byte	0x524
 6157 16a7 94000000 		.4byte	.LBB244
 6158 16ab 08000000 		.4byte	.LBE244-.LBB244
 6159 16af 01       		.byte	0x1
 6160 16b0 3601     		.2byte	0x136
 6161 16b2 E5160000 		.4byte	0x16e5
 6162 16b6 1F       		.uleb128 0x1f
 6163 16b7 55050000 		.4byte	0x555
 6164 16bb 20       		.uleb128 0x20
 6165 16bc 4A050000 		.4byte	0x54a
 6166 16c0 9A140000 		.4byte	.LLST165
 6167 16c4 20       		.uleb128 0x20
 6168 16c5 3F050000 		.4byte	0x53f
 6169 16c9 BA140000 		.4byte	.LLST166
 6170 16cd 20       		.uleb128 0x20
 6171 16ce 34050000 		.4byte	0x534
 6172 16d2 CD140000 		.4byte	.LLST167
 6173 16d6 21       		.uleb128 0x21
 6174 16d7 9C000000 		.4byte	.LVL305
ARM GAS  C:\Users\Petro\AppData\Local\Temp\ccPFwMgj.s 			page 125


 6175 16db 02       		.uleb128 0x2
 6176 16dc 75       		.byte	0x75
 6177 16dd 00       		.sleb128 0
 6178 16de 22       		.uleb128 0x22
 6179 16df 01       		.uleb128 0x1
 6180 16e0 52       		.byte	0x52
 6181 16e1 01       		.uleb128 0x1
 6182 16e2 31       		.byte	0x31
 6183 16e3 00       		.byte	0
 6184 16e4 00       		.byte	0
 6185 16e5 26       		.uleb128 0x26
 6186 16e6 0E000000 		.4byte	.LVL294
 6187 16ea E51D0000 		.4byte	0x1de5
 6188 16ee 0B170000 		.4byte	0x170b
 6189 16f2 22       		.uleb128 0x22
 6190 16f3 01       		.uleb128 0x1
 6191 16f4 53       		.byte	0x53
 6192 16f5 02       		.uleb128 0x2
 6193 16f6 91       		.byte	0x91
 6194 16f7 4C       		.sleb128 -52
 6195 16f8 22       		.uleb128 0x22
 6196 16f9 01       		.uleb128 0x1
 6197 16fa 52       		.byte	0x52
 6198 16fb 01       		.uleb128 0x1
 6199 16fc 30       		.byte	0x30
 6200 16fd 22       		.uleb128 0x22
 6201 16fe 01       		.uleb128 0x1
 6202 16ff 51       		.byte	0x51
 6203 1700 03       		.uleb128 0x3
 6204 1701 F3       		.byte	0xf3
 6205 1702 01       		.uleb128 0x1
 6206 1703 51       		.byte	0x51
 6207 1704 22       		.uleb128 0x22
 6208 1705 01       		.uleb128 0x1
 6209 1706 50       		.byte	0x50
 6210 1707 02       		.uleb128 0x2
 6211 1708 74       		.byte	0x74
 6212 1709 00       		.sleb128 0
 6213 170a 00       		.byte	0
 6214 170b 27       		.uleb128 0x27
 6215 170c 20000000 		.4byte	.LVL296
 6216 1710 E40D0000 		.4byte	0xde4
 6217 1714 22       		.uleb128 0x22
 6218 1715 01       		.uleb128 0x1
 6219 1716 50       		.byte	0x50
 6220 1717 02       		.uleb128 0x2
 6221 1718 74       		.byte	0x74
 6222 1719 00       		.sleb128 0
 6223 171a 00       		.byte	0
 6224 171b 00       		.byte	0
 6225 171c 39       		.uleb128 0x39
 6226 171d 20000000 		.4byte	.LASF105
 6227 1721 01       		.byte	0x1
 6228 1722 5401     		.2byte	0x154
 6229 1724 25000000 		.4byte	0x25
 6230 1728 00000000 		.4byte	.LFB28
 6231 172c F8010000 		.4byte	.LFE28-.LFB28
ARM GAS  C:\Users\Petro\AppData\Local\Temp\ccPFwMgj.s 			page 126


 6232 1730 01       		.uleb128 0x1
 6233 1731 9C       		.byte	0x9c
 6234 1732 231A0000 		.4byte	0x1a23
 6235 1736 29       		.uleb128 0x29
 6236 1737 766F6C00 		.ascii	"vol\000"
 6237 173b 01       		.byte	0x1
 6238 173c 5401     		.2byte	0x154
 6239 173e D3020000 		.4byte	0x2d3
 6240 1742 E0140000 		.4byte	.LLST168
 6241 1746 2A       		.uleb128 0x2a
 6242 1747 57050000 		.4byte	.LASF56
 6243 174b 01       		.byte	0x1
 6244 174c 5401     		.2byte	0x154
 6245 174e B8000000 		.4byte	0xb8
 6246 1752 0C150000 		.4byte	.LLST169
 6247 1756 2A       		.uleb128 0x2a
 6248 1757 A0010000 		.4byte	.LASF57
 6249 175b 01       		.byte	0x1
 6250 175c 5501     		.2byte	0x155
 6251 175e C3000000 		.4byte	0xc3
 6252 1762 38150000 		.4byte	.LLST170
 6253 1766 2A       		.uleb128 0x2a
 6254 1767 9B010000 		.4byte	.LASF106
 6255 176b 01       		.byte	0x1
 6256 176c 5501     		.2byte	0x155
 6257 176e 5D130000 		.4byte	0x135d
 6258 1772 59150000 		.4byte	.LLST171
 6259 1776 3A       		.uleb128 0x3a
 6260 1777 88060000 		.4byte	.LASF97
 6261 177b 01       		.byte	0x1
 6262 177c 5C01     		.2byte	0x15c
 6263 177e 2E030000 		.4byte	0x32e
 6264 1782 02       		.uleb128 0x2
 6265 1783 91       		.byte	0x91
 6266 1784 5C       		.sleb128 -36
 6267 1785 2B       		.uleb128 0x2b
 6268 1786 6900     		.ascii	"i\000"
 6269 1788 01       		.byte	0x1
 6270 1789 5E01     		.2byte	0x15e
 6271 178b 25000000 		.4byte	0x25
 6272 178f 79150000 		.4byte	.LLST172
 6273 1793 38       		.uleb128 0x38
 6274 1794 6C6400   		.ascii	"ld\000"
 6275 1797 01       		.byte	0x1
 6276 1798 6D01     		.2byte	0x16d
 6277 179a FA030000 		.4byte	0x3fa
 6278 179e 03       		.uleb128 0x3
 6279 179f 91       		.byte	0x91
 6280 17a0 BC7F     		.sleb128 -68
 6281 17a2 2D       		.uleb128 0x2d
 6282 17a3 13000000 		.4byte	.LASF107
 6283 17a7 01       		.byte	0x1
 6284 17a8 6E01     		.2byte	0x16e
 6285 17aa 25000000 		.4byte	0x25
 6286 17ae C4150000 		.4byte	.LLST173
 6287 17b2 3A       		.uleb128 0x3a
 6288 17b3 71030000 		.4byte	.LASF108
ARM GAS  C:\Users\Petro\AppData\Local\Temp\ccPFwMgj.s 			page 127


 6289 17b7 01       		.byte	0x1
 6290 17b8 8401     		.2byte	0x184
 6291 17ba 5D030000 		.4byte	0x35d
 6292 17be 03       		.uleb128 0x3
 6293 17bf 91       		.byte	0x91
 6294 17c0 9C7F     		.sleb128 -100
 6295 17c2 2F       		.uleb128 0x2f
 6296 17c3 30000000 		.4byte	.Ldebug_ranges0+0x30
 6297 17c7 80180000 		.4byte	0x1880
 6298 17cb 2B       		.uleb128 0x2b
 6299 17cc 6A00     		.ascii	"j\000"
 6300 17ce 01       		.byte	0x1
 6301 17cf 7701     		.2byte	0x177
 6302 17d1 25000000 		.4byte	0x25
 6303 17d5 05160000 		.4byte	.LLST174
 6304 17d9 35       		.uleb128 0x35
 6305 17da FF040000 		.4byte	0x4ff
 6306 17de C6000000 		.4byte	.LBB247
 6307 17e2 06000000 		.4byte	.LBE247-.LBB247
 6308 17e6 01       		.byte	0x1
 6309 17e7 7901     		.2byte	0x179
 6310 17e9 00180000 		.4byte	0x1800
 6311 17ed 20       		.uleb128 0x20
 6312 17ee 14050000 		.4byte	0x514
 6313 17f2 3A160000 		.4byte	.LLST175
 6314 17f6 20       		.uleb128 0x20
 6315 17f7 0B050000 		.4byte	0x50b
 6316 17fb 4D160000 		.4byte	.LLST176
 6317 17ff 00       		.byte	0
 6318 1800 35       		.uleb128 0x35
 6319 1801 FF040000 		.4byte	0x4ff
 6320 1805 EE000000 		.4byte	.LBB249
 6321 1809 06000000 		.4byte	.LBE249-.LBB249
 6322 180d 01       		.byte	0x1
 6323 180e 7B01     		.2byte	0x17b
 6324 1810 27180000 		.4byte	0x1827
 6325 1814 20       		.uleb128 0x20
 6326 1815 14050000 		.4byte	0x514
 6327 1819 62160000 		.4byte	.LLST177
 6328 181d 20       		.uleb128 0x20
 6329 181e 0B050000 		.4byte	0x50b
 6330 1822 75160000 		.4byte	.LLST178
 6331 1826 00       		.byte	0
 6332 1827 35       		.uleb128 0x35
 6333 1828 FF040000 		.4byte	0x4ff
 6334 182c 18010000 		.4byte	.LBB251
 6335 1830 06000000 		.4byte	.LBE251-.LBB251
 6336 1834 01       		.byte	0x1
 6337 1835 7D01     		.2byte	0x17d
 6338 1837 4E180000 		.4byte	0x184e
 6339 183b 20       		.uleb128 0x20
 6340 183c 14050000 		.4byte	0x514
 6341 1840 8A160000 		.4byte	.LLST179
 6342 1844 20       		.uleb128 0x20
 6343 1845 0B050000 		.4byte	0x50b
 6344 1849 9D160000 		.4byte	.LLST180
 6345 184d 00       		.byte	0
ARM GAS  C:\Users\Petro\AppData\Local\Temp\ccPFwMgj.s 			page 128


 6346 184e 26       		.uleb128 0x26
 6347 184f 2A010000 		.4byte	.LVL345
 6348 1853 151E0000 		.4byte	0x1e15
 6349 1857 62180000 		.4byte	0x1862
 6350 185b 22       		.uleb128 0x22
 6351 185c 01       		.uleb128 0x1
 6352 185d 50       		.byte	0x50
 6353 185e 02       		.uleb128 0x2
 6354 185f 91       		.byte	0x91
 6355 1860 5C       		.sleb128 -36
 6356 1861 00       		.byte	0
 6357 1862 27       		.uleb128 0x27
 6358 1863 36010000 		.4byte	.LVL346
 6359 1867 69130000 		.4byte	0x1369
 6360 186b 22       		.uleb128 0x22
 6361 186c 01       		.uleb128 0x1
 6362 186d 52       		.byte	0x52
 6363 186e 02       		.uleb128 0x2
 6364 186f 08       		.byte	0x8
 6365 1870 20       		.byte	0x20
 6366 1871 22       		.uleb128 0x22
 6367 1872 01       		.uleb128 0x1
 6368 1873 51       		.byte	0x51
 6369 1874 03       		.uleb128 0x3
 6370 1875 91       		.byte	0x91
 6371 1876 BC7F     		.sleb128 -68
 6372 1878 22       		.uleb128 0x22
 6373 1879 01       		.uleb128 0x1
 6374 187a 50       		.byte	0x50
 6375 187b 02       		.uleb128 0x2
 6376 187c 74       		.byte	0x74
 6377 187d 00       		.sleb128 0
 6378 187e 00       		.byte	0
 6379 187f 00       		.byte	0
 6380 1880 2F       		.uleb128 0x2f
 6381 1881 48000000 		.4byte	.Ldebug_ranges0+0x48
 6382 1885 31190000 		.4byte	0x1931
 6383 1889 2D       		.uleb128 0x2d
 6384 188a 53020000 		.4byte	.LASF85
 6385 188e 01       		.byte	0x1
 6386 188f 8B01     		.2byte	0x18b
 6387 1891 E4000000 		.4byte	0xe4
 6388 1895 B2160000 		.4byte	.LLST181
 6389 1899 35       		.uleb128 0x35
 6390 189a E8050000 		.4byte	0x5e8
 6391 189e 74010000 		.4byte	.LBB254
 6392 18a2 1E000000 		.4byte	.LBE254-.LBB254
 6393 18a6 01       		.byte	0x1
 6394 18a7 8E01     		.2byte	0x18e
 6395 18a9 B7180000 		.4byte	0x18b7
 6396 18ad 20       		.uleb128 0x20
 6397 18ae F8050000 		.4byte	0x5f8
 6398 18b2 E6160000 		.4byte	.LLST182
 6399 18b6 00       		.byte	0
 6400 18b7 35       		.uleb128 0x35
 6401 18b8 FF040000 		.4byte	0x4ff
 6402 18bc 9C010000 		.4byte	.LBB256
ARM GAS  C:\Users\Petro\AppData\Local\Temp\ccPFwMgj.s 			page 129


 6403 18c0 08000000 		.4byte	.LBE256-.LBB256
 6404 18c4 01       		.byte	0x1
 6405 18c5 8F01     		.2byte	0x18f
 6406 18c7 DE180000 		.4byte	0x18de
 6407 18cb 20       		.uleb128 0x20
 6408 18cc 14050000 		.4byte	0x514
 6409 18d0 F9160000 		.4byte	.LLST183
 6410 18d4 20       		.uleb128 0x20
 6411 18d5 0B050000 		.4byte	0x50b
 6412 18d9 1B170000 		.4byte	.LLST184
 6413 18dd 00       		.byte	0
 6414 18de 35       		.uleb128 0x35
 6415 18df FF040000 		.4byte	0x4ff
 6416 18e3 A4010000 		.4byte	.LBB258
 6417 18e7 06000000 		.4byte	.LBE258-.LBB258
 6418 18eb 01       		.byte	0x1
 6419 18ec 9001     		.2byte	0x190
 6420 18ee 05190000 		.4byte	0x1905
 6421 18f2 20       		.uleb128 0x20
 6422 18f3 14050000 		.4byte	0x514
 6423 18f7 31170000 		.4byte	.LLST185
 6424 18fb 20       		.uleb128 0x20
 6425 18fc 0B050000 		.4byte	0x50b
 6426 1900 44170000 		.4byte	.LLST186
 6427 1904 00       		.byte	0
 6428 1905 26       		.uleb128 0x26
 6429 1906 70010000 		.4byte	.LVL349
 6430 190a 800D0000 		.4byte	0xd80
 6431 190e 19190000 		.4byte	0x1919
 6432 1912 22       		.uleb128 0x22
 6433 1913 01       		.uleb128 0x1
 6434 1914 50       		.byte	0x50
 6435 1915 02       		.uleb128 0x2
 6436 1916 75       		.byte	0x75
 6437 1917 00       		.sleb128 0
 6438 1918 00       		.byte	0
 6439 1919 27       		.uleb128 0x27
 6440 191a 9A010000 		.4byte	.LVL353
 6441 191e AC0C0000 		.4byte	0xcac
 6442 1922 22       		.uleb128 0x22
 6443 1923 01       		.uleb128 0x1
 6444 1924 51       		.byte	0x51
 6445 1925 02       		.uleb128 0x2
 6446 1926 77       		.byte	0x77
 6447 1927 00       		.sleb128 0
 6448 1928 22       		.uleb128 0x22
 6449 1929 01       		.uleb128 0x1
 6450 192a 50       		.byte	0x50
 6451 192b 03       		.uleb128 0x3
 6452 192c 7D       		.byte	0x7d
 6453 192d 00       		.sleb128 0
 6454 192e 06       		.byte	0x6
 6455 192f 00       		.byte	0
 6456 1930 00       		.byte	0
 6457 1931 26       		.uleb128 0x26
 6458 1932 16000000 		.4byte	.LVL316
 6459 1936 E51D0000 		.4byte	0x1de5
ARM GAS  C:\Users\Petro\AppData\Local\Temp\ccPFwMgj.s 			page 130


 6460 193a 59190000 		.4byte	0x1959
 6461 193e 22       		.uleb128 0x22
 6462 193f 01       		.uleb128 0x1
 6463 1940 53       		.byte	0x53
 6464 1941 04       		.uleb128 0x4
 6465 1942 91       		.byte	0x91
 6466 1943 947F     		.sleb128 -108
 6467 1945 06       		.byte	0x6
 6468 1946 22       		.uleb128 0x22
 6469 1947 01       		.uleb128 0x1
 6470 1948 52       		.byte	0x52
 6471 1949 01       		.uleb128 0x1
 6472 194a 30       		.byte	0x30
 6473 194b 22       		.uleb128 0x22
 6474 194c 01       		.uleb128 0x1
 6475 194d 51       		.byte	0x51
 6476 194e 02       		.uleb128 0x2
 6477 194f 76       		.byte	0x76
 6478 1950 00       		.sleb128 0
 6479 1951 22       		.uleb128 0x22
 6480 1952 01       		.uleb128 0x1
 6481 1953 50       		.byte	0x50
 6482 1954 03       		.uleb128 0x3
 6483 1955 7D       		.byte	0x7d
 6484 1956 00       		.sleb128 0
 6485 1957 06       		.byte	0x6
 6486 1958 00       		.byte	0
 6487 1959 26       		.uleb128 0x26
 6488 195a 30000000 		.4byte	.LVL319
 6489 195e 87100000 		.4byte	0x1087
 6490 1962 79190000 		.4byte	0x1979
 6491 1966 22       		.uleb128 0x22
 6492 1967 01       		.uleb128 0x1
 6493 1968 52       		.byte	0x52
 6494 1969 02       		.uleb128 0x2
 6495 196a 74       		.byte	0x74
 6496 196b 00       		.sleb128 0
 6497 196c 22       		.uleb128 0x22
 6498 196d 01       		.uleb128 0x1
 6499 196e 51       		.byte	0x51
 6500 196f 02       		.uleb128 0x2
 6501 1970 76       		.byte	0x76
 6502 1971 00       		.sleb128 0
 6503 1972 22       		.uleb128 0x22
 6504 1973 01       		.uleb128 0x1
 6505 1974 50       		.byte	0x50
 6506 1975 02       		.uleb128 0x2
 6507 1976 91       		.byte	0x91
 6508 1977 5C       		.sleb128 -36
 6509 1978 00       		.byte	0
 6510 1979 26       		.uleb128 0x26
 6511 197a 3C000000 		.4byte	.LVL320
 6512 197e E51D0000 		.4byte	0x1de5
 6513 1982 A1190000 		.4byte	0x19a1
 6514 1986 22       		.uleb128 0x22
 6515 1987 01       		.uleb128 0x1
 6516 1988 53       		.byte	0x53
ARM GAS  C:\Users\Petro\AppData\Local\Temp\ccPFwMgj.s 			page 131


 6517 1989 04       		.uleb128 0x4
 6518 198a 91       		.byte	0x91
 6519 198b 947F     		.sleb128 -108
 6520 198d 06       		.byte	0x6
 6521 198e 22       		.uleb128 0x22
 6522 198f 01       		.uleb128 0x1
 6523 1990 52       		.byte	0x52
 6524 1991 01       		.uleb128 0x1
 6525 1992 30       		.byte	0x30
 6526 1993 22       		.uleb128 0x22
 6527 1994 01       		.uleb128 0x1
 6528 1995 51       		.byte	0x51
 6529 1996 02       		.uleb128 0x2
 6530 1997 91       		.byte	0x91
 6531 1998 5C       		.sleb128 -36
 6532 1999 22       		.uleb128 0x22
 6533 199a 01       		.uleb128 0x1
 6534 199b 50       		.byte	0x50
 6535 199c 03       		.uleb128 0x3
 6536 199d 7D       		.byte	0x7d
 6537 199e 00       		.sleb128 0
 6538 199f 06       		.byte	0x6
 6539 19a0 00       		.byte	0
 6540 19a1 26       		.uleb128 0x26
 6541 19a2 60000000 		.4byte	.LVL323
 6542 19a6 2A1E0000 		.4byte	0x1e2a
 6543 19aa B5190000 		.4byte	0x19b5
 6544 19ae 22       		.uleb128 0x22
 6545 19af 01       		.uleb128 0x1
 6546 19b0 50       		.byte	0x50
 6547 19b1 02       		.uleb128 0x2
 6548 19b2 76       		.byte	0x76
 6549 19b3 00       		.sleb128 0
 6550 19b4 00       		.byte	0
 6551 19b5 26       		.uleb128 0x26
 6552 19b6 6E000000 		.4byte	.LVL325
 6553 19ba 3F1E0000 		.4byte	0x1e3f
 6554 19be C9190000 		.4byte	0x19c9
 6555 19c2 22       		.uleb128 0x22
 6556 19c3 01       		.uleb128 0x1
 6557 19c4 50       		.byte	0x50
 6558 19c5 02       		.uleb128 0x2
 6559 19c6 74       		.byte	0x74
 6560 19c7 00       		.sleb128 0
 6561 19c8 00       		.byte	0
 6562 19c9 26       		.uleb128 0x26
 6563 19ca 8C000000 		.4byte	.LVL326
 6564 19ce 2A1E0000 		.4byte	0x1e2a
 6565 19d2 DD190000 		.4byte	0x19dd
 6566 19d6 22       		.uleb128 0x22
 6567 19d7 01       		.uleb128 0x1
 6568 19d8 50       		.byte	0x50
 6569 19d9 02       		.uleb128 0x2
 6570 19da 76       		.byte	0x76
 6571 19db 00       		.sleb128 0
 6572 19dc 00       		.byte	0
 6573 19dd 26       		.uleb128 0x26
ARM GAS  C:\Users\Petro\AppData\Local\Temp\ccPFwMgj.s 			page 132


 6574 19de B4010000 		.4byte	.LVL359
 6575 19e2 69130000 		.4byte	0x1369
 6576 19e6 FE190000 		.4byte	0x19fe
 6577 19ea 22       		.uleb128 0x22
 6578 19eb 01       		.uleb128 0x1
 6579 19ec 52       		.byte	0x52
 6580 19ed 02       		.uleb128 0x2
 6581 19ee 08       		.byte	0x8
 6582 19ef 20       		.byte	0x20
 6583 19f0 22       		.uleb128 0x22
 6584 19f1 01       		.uleb128 0x1
 6585 19f2 51       		.byte	0x51
 6586 19f3 03       		.uleb128 0x3
 6587 19f4 91       		.byte	0x91
 6588 19f5 9C7F     		.sleb128 -100
 6589 19f7 22       		.uleb128 0x22
 6590 19f8 01       		.uleb128 0x1
 6591 19f9 50       		.byte	0x50
 6592 19fa 02       		.uleb128 0x2
 6593 19fb 74       		.byte	0x74
 6594 19fc 00       		.sleb128 0
 6595 19fd 00       		.byte	0
 6596 19fe 27       		.uleb128 0x27
 6597 19ff C4010000 		.4byte	.LVL360
 6598 1a03 E51D0000 		.4byte	0x1de5
 6599 1a07 22       		.uleb128 0x22
 6600 1a08 01       		.uleb128 0x1
 6601 1a09 53       		.byte	0x53
 6602 1a0a 04       		.uleb128 0x4
 6603 1a0b 91       		.byte	0x91
 6604 1a0c 947F     		.sleb128 -108
 6605 1a0e 06       		.byte	0x6
 6606 1a0f 22       		.uleb128 0x22
 6607 1a10 01       		.uleb128 0x1
 6608 1a11 52       		.byte	0x52
 6609 1a12 01       		.uleb128 0x1
 6610 1a13 30       		.byte	0x30
 6611 1a14 22       		.uleb128 0x22
 6612 1a15 01       		.uleb128 0x1
 6613 1a16 51       		.byte	0x51
 6614 1a17 02       		.uleb128 0x2
 6615 1a18 76       		.byte	0x76
 6616 1a19 00       		.sleb128 0
 6617 1a1a 22       		.uleb128 0x22
 6618 1a1b 01       		.uleb128 0x1
 6619 1a1c 50       		.byte	0x50
 6620 1a1d 03       		.uleb128 0x3
 6621 1a1e 7D       		.byte	0x7d
 6622 1a1f 00       		.sleb128 0
 6623 1a20 06       		.byte	0x6
 6624 1a21 00       		.byte	0
 6625 1a22 00       		.byte	0
 6626 1a23 37       		.uleb128 0x37
 6627 1a24 D6000000 		.4byte	.LASF109
 6628 1a28 01       		.byte	0x1
 6629 1a29 9801     		.2byte	0x198
 6630 1a2b 25000000 		.4byte	0x25
ARM GAS  C:\Users\Petro\AppData\Local\Temp\ccPFwMgj.s 			page 133


 6631 1a2f 00000000 		.4byte	.LFB29
 6632 1a33 30010000 		.4byte	.LFE29-.LFB29
 6633 1a37 01       		.uleb128 0x1
 6634 1a38 9C       		.byte	0x9c
 6635 1a39 841C0000 		.4byte	0x1c84
 6636 1a3d 29       		.uleb128 0x29
 6637 1a3e 766F6C00 		.ascii	"vol\000"
 6638 1a42 01       		.byte	0x1
 6639 1a43 9801     		.2byte	0x198
 6640 1a45 D3020000 		.4byte	0x2d3
 6641 1a49 5A170000 		.4byte	.LLST187
 6642 1a4d 2A       		.uleb128 0x2a
 6643 1a4e 57050000 		.4byte	.LASF56
 6644 1a52 01       		.byte	0x1
 6645 1a53 9801     		.2byte	0x198
 6646 1a55 B8000000 		.4byte	0xb8
 6647 1a59 86170000 		.4byte	.LLST188
 6648 1a5d 2B       		.uleb128 0x2b
 6649 1a5e 72657400 		.ascii	"ret\000"
 6650 1a62 01       		.byte	0x1
 6651 1a63 9A01     		.2byte	0x19a
 6652 1a65 25000000 		.4byte	0x25
 6653 1a69 A7170000 		.4byte	.LLST189
 6654 1a6d 38       		.uleb128 0x38
 6655 1a6e 64697200 		.ascii	"dir\000"
 6656 1a72 01       		.byte	0x1
 6657 1a73 9B01     		.2byte	0x19b
 6658 1a75 4A020000 		.4byte	0x24a
 6659 1a79 02       		.uleb128 0x2
 6660 1a7a 91       		.byte	0x91
 6661 1a7b 44       		.sleb128 -60
 6662 1a7c 3A       		.uleb128 0x3a
 6663 1a7d 71030000 		.4byte	.LASF108
 6664 1a81 01       		.byte	0x1
 6665 1a82 9C01     		.2byte	0x19c
 6666 1a84 5D030000 		.4byte	0x35d
 6667 1a88 03       		.uleb128 0x3
 6668 1a89 91       		.byte	0x91
 6669 1a8a A47F     		.sleb128 -92
 6670 1a8c 3B       		.uleb128 0x3b
 6671 1a8d 9D020000 		.4byte	.LASF74
 6672 1a91 01       		.byte	0x1
 6673 1a92 A401     		.2byte	0x1a4
 6674 1a94 E4000000 		.4byte	0xe4
 6675 1a98 2B       		.uleb128 0x2b
 6676 1a99 6900     		.ascii	"i\000"
 6677 1a9b 01       		.byte	0x1
 6678 1a9c A501     		.2byte	0x1a5
 6679 1a9e 25000000 		.4byte	0x25
 6680 1aa2 C5170000 		.4byte	.LLST190
 6681 1aa6 35       		.uleb128 0x35
 6682 1aa7 24050000 		.4byte	0x524
 6683 1aab 22000000 		.4byte	.LBB262
 6684 1aaf 08000000 		.4byte	.LBE262-.LBB262
 6685 1ab3 01       		.byte	0x1
 6686 1ab4 A101     		.2byte	0x1a1
 6687 1ab6 E91A0000 		.4byte	0x1ae9
ARM GAS  C:\Users\Petro\AppData\Local\Temp\ccPFwMgj.s 			page 134


 6688 1aba 1F       		.uleb128 0x1f
 6689 1abb 55050000 		.4byte	0x555
 6690 1abf 20       		.uleb128 0x20
 6691 1ac0 4A050000 		.4byte	0x54a
 6692 1ac4 EF170000 		.4byte	.LLST191
 6693 1ac8 20       		.uleb128 0x20
 6694 1ac9 3F050000 		.4byte	0x53f
 6695 1acd 0F180000 		.4byte	.LLST192
 6696 1ad1 20       		.uleb128 0x20
 6697 1ad2 34050000 		.4byte	0x534
 6698 1ad6 22180000 		.4byte	.LLST193
 6699 1ada 21       		.uleb128 0x21
 6700 1adb 2A000000 		.4byte	.LVL372
 6701 1adf 02       		.uleb128 0x2
 6702 1ae0 74       		.byte	0x74
 6703 1ae1 00       		.sleb128 0
 6704 1ae2 22       		.uleb128 0x22
 6705 1ae3 01       		.uleb128 0x1
 6706 1ae4 52       		.byte	0x52
 6707 1ae5 01       		.uleb128 0x1
 6708 1ae6 31       		.byte	0x31
 6709 1ae7 00       		.byte	0
 6710 1ae8 00       		.byte	0
 6711 1ae9 35       		.uleb128 0x35
 6712 1aea 0F060000 		.4byte	0x60f
 6713 1aee 3E000000 		.4byte	.LBB264
 6714 1af2 0E000000 		.4byte	.LBE264-.LBB264
 6715 1af6 01       		.byte	0x1
 6716 1af7 A401     		.2byte	0x1a4
 6717 1af9 101B0000 		.4byte	0x1b10
 6718 1afd 20       		.uleb128 0x20
 6719 1afe 2A060000 		.4byte	0x62a
 6720 1b02 35180000 		.4byte	.LLST194
 6721 1b06 20       		.uleb128 0x20
 6722 1b07 1F060000 		.4byte	0x61f
 6723 1b0b 49180000 		.4byte	.LLST195
 6724 1b0f 00       		.byte	0
 6725 1b10 35       		.uleb128 0x35
 6726 1b11 24050000 		.4byte	0x524
 6727 1b15 70000000 		.4byte	.LBB266
 6728 1b19 08000000 		.4byte	.LBE266-.LBB266
 6729 1b1d 01       		.byte	0x1
 6730 1b1e A701     		.2byte	0x1a7
 6731 1b20 531B0000 		.4byte	0x1b53
 6732 1b24 1F       		.uleb128 0x1f
 6733 1b25 55050000 		.4byte	0x555
 6734 1b29 20       		.uleb128 0x20
 6735 1b2a 4A050000 		.4byte	0x54a
 6736 1b2e 67180000 		.4byte	.LLST196
 6737 1b32 20       		.uleb128 0x20
 6738 1b33 3F050000 		.4byte	0x53f
 6739 1b37 87180000 		.4byte	.LLST197
 6740 1b3b 20       		.uleb128 0x20
 6741 1b3c 34050000 		.4byte	0x534
 6742 1b40 9A180000 		.4byte	.LLST198
 6743 1b44 21       		.uleb128 0x21
 6744 1b45 78000000 		.4byte	.LVL378
ARM GAS  C:\Users\Petro\AppData\Local\Temp\ccPFwMgj.s 			page 135


 6745 1b49 02       		.uleb128 0x2
 6746 1b4a 77       		.byte	0x77
 6747 1b4b 00       		.sleb128 0
 6748 1b4c 22       		.uleb128 0x22
 6749 1b4d 01       		.uleb128 0x1
 6750 1b4e 52       		.byte	0x52
 6751 1b4f 01       		.uleb128 0x1
 6752 1b50 31       		.byte	0x31
 6753 1b51 00       		.byte	0
 6754 1b52 00       		.byte	0
 6755 1b53 35       		.uleb128 0x35
 6756 1b54 FF040000 		.4byte	0x4ff
 6757 1b58 BC000000 		.4byte	.LBB268
 6758 1b5c 06000000 		.4byte	.LBE268-.LBB268
 6759 1b60 01       		.byte	0x1
 6760 1b61 AF01     		.2byte	0x1af
 6761 1b63 7A1B0000 		.4byte	0x1b7a
 6762 1b67 20       		.uleb128 0x20
 6763 1b68 14050000 		.4byte	0x514
 6764 1b6c AD180000 		.4byte	.LLST199
 6765 1b70 20       		.uleb128 0x20
 6766 1b71 0B050000 		.4byte	0x50b
 6767 1b75 DB180000 		.4byte	.LLST200
 6768 1b79 00       		.byte	0
 6769 1b7a 35       		.uleb128 0x35
 6770 1b7b FF040000 		.4byte	0x4ff
 6771 1b7f C2000000 		.4byte	.LBB270
 6772 1b83 06000000 		.4byte	.LBE270-.LBB270
 6773 1b87 01       		.byte	0x1
 6774 1b88 B001     		.2byte	0x1b0
 6775 1b8a A11B0000 		.4byte	0x1ba1
 6776 1b8e 20       		.uleb128 0x20
 6777 1b8f 14050000 		.4byte	0x514
 6778 1b93 F1180000 		.4byte	.LLST201
 6779 1b97 20       		.uleb128 0x20
 6780 1b98 0B050000 		.4byte	0x50b
 6781 1b9c 10190000 		.4byte	.LLST202
 6782 1ba0 00       		.byte	0
 6783 1ba1 35       		.uleb128 0x35
 6784 1ba2 FF040000 		.4byte	0x4ff
 6785 1ba6 EE000000 		.4byte	.LBB272
 6786 1baa 08000000 		.4byte	.LBE272-.LBB272
 6787 1bae 01       		.byte	0x1
 6788 1baf B901     		.2byte	0x1b9
 6789 1bb1 C81B0000 		.4byte	0x1bc8
 6790 1bb5 20       		.uleb128 0x20
 6791 1bb6 14050000 		.4byte	0x514
 6792 1bba 26190000 		.4byte	.LLST203
 6793 1bbe 20       		.uleb128 0x20
 6794 1bbf 0B050000 		.4byte	0x50b
 6795 1bc3 54190000 		.4byte	.LLST204
 6796 1bc7 00       		.byte	0
 6797 1bc8 35       		.uleb128 0x35
 6798 1bc9 FF040000 		.4byte	0x4ff
 6799 1bcd F6000000 		.4byte	.LBB274
 6800 1bd1 08000000 		.4byte	.LBE274-.LBB274
 6801 1bd5 01       		.byte	0x1
ARM GAS  C:\Users\Petro\AppData\Local\Temp\ccPFwMgj.s 			page 136


 6802 1bd6 BA01     		.2byte	0x1ba
 6803 1bd8 EF1B0000 		.4byte	0x1bef
 6804 1bdc 20       		.uleb128 0x20
 6805 1bdd 14050000 		.4byte	0x514
 6806 1be1 6A190000 		.4byte	.LLST205
 6807 1be5 20       		.uleb128 0x20
 6808 1be6 0B050000 		.4byte	0x50b
 6809 1bea 89190000 		.4byte	.LLST206
 6810 1bee 00       		.byte	0
 6811 1bef 26       		.uleb128 0x26
 6812 1bf0 0E000000 		.4byte	.LVL369
 6813 1bf4 1C170000 		.4byte	0x171c
 6814 1bf8 151C0000 		.4byte	0x1c15
 6815 1bfc 22       		.uleb128 0x22
 6816 1bfd 01       		.uleb128 0x1
 6817 1bfe 53       		.byte	0x53
 6818 1bff 02       		.uleb128 0x2
 6819 1c00 91       		.byte	0x91
 6820 1c01 44       		.sleb128 -60
 6821 1c02 22       		.uleb128 0x22
 6822 1c03 01       		.uleb128 0x1
 6823 1c04 52       		.byte	0x52
 6824 1c05 01       		.uleb128 0x1
 6825 1c06 40       		.byte	0x40
 6826 1c07 22       		.uleb128 0x22
 6827 1c08 01       		.uleb128 0x1
 6828 1c09 51       		.byte	0x51
 6829 1c0a 03       		.uleb128 0x3
 6830 1c0b F3       		.byte	0xf3
 6831 1c0c 01       		.uleb128 0x1
 6832 1c0d 51       		.byte	0x51
 6833 1c0e 22       		.uleb128 0x22
 6834 1c0f 01       		.uleb128 0x1
 6835 1c10 50       		.byte	0x50
 6836 1c11 02       		.uleb128 0x2
 6837 1c12 75       		.byte	0x75
 6838 1c13 00       		.sleb128 0
 6839 1c14 00       		.byte	0
 6840 1c15 26       		.uleb128 0x26
 6841 1c16 3E000000 		.4byte	.LVL374
 6842 1c1a 571D0000 		.4byte	0x1d57
 6843 1c1e 281C0000 		.4byte	0x1c28
 6844 1c22 22       		.uleb128 0x22
 6845 1c23 01       		.uleb128 0x1
 6846 1c24 51       		.byte	0x51
 6847 1c25 01       		.uleb128 0x1
 6848 1c26 30       		.byte	0x30
 6849 1c27 00       		.byte	0
 6850 1c28 26       		.uleb128 0x26
 6851 1c29 B4000000 		.4byte	.LVL382
 6852 1c2d 741D0000 		.4byte	0x1d74
 6853 1c31 471C0000 		.4byte	0x1c47
 6854 1c35 22       		.uleb128 0x22
 6855 1c36 01       		.uleb128 0x1
 6856 1c37 52       		.byte	0x52
 6857 1c38 01       		.uleb128 0x1
 6858 1c39 3B       		.byte	0x3b
ARM GAS  C:\Users\Petro\AppData\Local\Temp\ccPFwMgj.s 			page 137


 6859 1c3a 22       		.uleb128 0x22
 6860 1c3b 01       		.uleb128 0x1
 6861 1c3c 51       		.byte	0x51
 6862 1c3d 02       		.uleb128 0x2
 6863 1c3e 08       		.byte	0x8
 6864 1c3f 20       		.byte	0x20
 6865 1c40 22       		.uleb128 0x22
 6866 1c41 01       		.uleb128 0x1
 6867 1c42 50       		.byte	0x50
 6868 1c43 02       		.uleb128 0x2
 6869 1c44 74       		.byte	0x74
 6870 1c45 00       		.sleb128 0
 6871 1c46 00       		.byte	0
 6872 1c47 26       		.uleb128 0x26
 6873 1c48 D2000000 		.4byte	.LVL387
 6874 1c4c 69130000 		.4byte	0x1369
 6875 1c50 671C0000 		.4byte	0x1c67
 6876 1c54 22       		.uleb128 0x22
 6877 1c55 01       		.uleb128 0x1
 6878 1c56 52       		.byte	0x52
 6879 1c57 02       		.uleb128 0x2
 6880 1c58 08       		.byte	0x8
 6881 1c59 20       		.byte	0x20
 6882 1c5a 22       		.uleb128 0x22
 6883 1c5b 01       		.uleb128 0x1
 6884 1c5c 51       		.byte	0x51
 6885 1c5d 02       		.uleb128 0x2
 6886 1c5e 74       		.byte	0x74
 6887 1c5f 00       		.sleb128 0
 6888 1c60 22       		.uleb128 0x22
 6889 1c61 01       		.uleb128 0x1
 6890 1c62 50       		.byte	0x50
 6891 1c63 02       		.uleb128 0x2
 6892 1c64 91       		.byte	0x91
 6893 1c65 44       		.sleb128 -60
 6894 1c66 00       		.byte	0
 6895 1c67 27       		.uleb128 0x27
 6896 1c68 10010000 		.4byte	.LVL394
 6897 1c6c 69130000 		.4byte	0x1369
 6898 1c70 22       		.uleb128 0x22
 6899 1c71 01       		.uleb128 0x1
 6900 1c72 52       		.byte	0x52
 6901 1c73 02       		.uleb128 0x2
 6902 1c74 08       		.byte	0x8
 6903 1c75 20       		.byte	0x20
 6904 1c76 22       		.uleb128 0x22
 6905 1c77 01       		.uleb128 0x1
 6906 1c78 51       		.byte	0x51
 6907 1c79 02       		.uleb128 0x2
 6908 1c7a 74       		.byte	0x74
 6909 1c7b 00       		.sleb128 0
 6910 1c7c 22       		.uleb128 0x22
 6911 1c7d 01       		.uleb128 0x1
 6912 1c7e 50       		.byte	0x50
 6913 1c7f 02       		.uleb128 0x2
 6914 1c80 91       		.byte	0x91
 6915 1c81 44       		.sleb128 -60
ARM GAS  C:\Users\Petro\AppData\Local\Temp\ccPFwMgj.s 			page 138


 6916 1c82 00       		.byte	0
 6917 1c83 00       		.byte	0
 6918 1c84 37       		.uleb128 0x37
 6919 1c85 3C000000 		.4byte	.LASF110
 6920 1c89 01       		.byte	0x1
 6921 1c8a C301     		.2byte	0x1c3
 6922 1c8c 25000000 		.4byte	0x25
 6923 1c90 00000000 		.4byte	.LFB30
 6924 1c94 10000000 		.4byte	.LFE30-.LFB30
 6925 1c98 01       		.uleb128 0x1
 6926 1c99 9C       		.byte	0x9c
 6927 1c9a 111D0000 		.4byte	0x1d11
 6928 1c9e 29       		.uleb128 0x29
 6929 1c9f 766F6C00 		.ascii	"vol\000"
 6930 1ca3 01       		.byte	0x1
 6931 1ca4 C301     		.2byte	0x1c3
 6932 1ca6 D3020000 		.4byte	0x2d3
 6933 1caa 9F190000 		.4byte	.LLST207
 6934 1cae 2A       		.uleb128 0x2a
 6935 1caf 57050000 		.4byte	.LASF56
 6936 1cb3 01       		.byte	0x1
 6937 1cb4 C301     		.2byte	0x1c3
 6938 1cb6 B8000000 		.4byte	0xb8
 6939 1cba C0190000 		.4byte	.LLST208
 6940 1cbe 2A       		.uleb128 0x2a
 6941 1cbf 58000000 		.4byte	.LASF44
 6942 1cc3 01       		.byte	0x1
 6943 1cc4 C301     		.2byte	0x1c3
 6944 1cc6 25000000 		.4byte	0x25
 6945 1cca E1190000 		.4byte	.LLST209
 6946 1cce 2A       		.uleb128 0x2a
 6947 1ccf 9B010000 		.4byte	.LASF106
 6948 1cd3 01       		.byte	0x1
 6949 1cd4 C401     		.2byte	0x1c4
 6950 1cd6 5D130000 		.4byte	0x135d
 6951 1cda 0E1A0000 		.4byte	.LLST210
 6952 1cde 38       		.uleb128 0x38
 6953 1cdf 72657400 		.ascii	"ret\000"
 6954 1ce3 01       		.byte	0x1
 6955 1ce4 C601     		.2byte	0x1c6
 6956 1ce6 25000000 		.4byte	0x25
 6957 1cea 01       		.uleb128 0x1
 6958 1ceb 50       		.byte	0x50
 6959 1cec 27       		.uleb128 0x27
 6960 1ced 0C000000 		.4byte	.LVL401
 6961 1cf1 1C170000 		.4byte	0x171c
 6962 1cf5 22       		.uleb128 0x22
 6963 1cf6 01       		.uleb128 0x1
 6964 1cf7 53       		.byte	0x53
 6965 1cf8 02       		.uleb128 0x2
 6966 1cf9 74       		.byte	0x74
 6967 1cfa 00       		.sleb128 0
 6968 1cfb 22       		.uleb128 0x22
 6969 1cfc 01       		.uleb128 0x1
 6970 1cfd 52       		.byte	0x52
 6971 1cfe 02       		.uleb128 0x2
 6972 1cff 08       		.byte	0x8
ARM GAS  C:\Users\Petro\AppData\Local\Temp\ccPFwMgj.s 			page 139


 6973 1d00 20       		.byte	0x20
 6974 1d01 22       		.uleb128 0x22
 6975 1d02 01       		.uleb128 0x1
 6976 1d03 51       		.byte	0x51
 6977 1d04 03       		.uleb128 0x3
 6978 1d05 F3       		.byte	0xf3
 6979 1d06 01       		.uleb128 0x1
 6980 1d07 51       		.byte	0x51
 6981 1d08 22       		.uleb128 0x22
 6982 1d09 01       		.uleb128 0x1
 6983 1d0a 50       		.byte	0x50
 6984 1d0b 03       		.uleb128 0x3
 6985 1d0c F3       		.byte	0xf3
 6986 1d0d 01       		.uleb128 0x1
 6987 1d0e 50       		.byte	0x50
 6988 1d0f 00       		.byte	0
 6989 1d10 00       		.byte	0
 6990 1d11 3C       		.uleb128 0x3c
 6991 1d12 1F040000 		.4byte	.LASF111
 6992 1d16 0A       		.byte	0xa
 6993 1d17 2D       		.byte	0x2d
 6994 1d18 B8000000 		.4byte	0xb8
 6995 1d1c 0F       		.uleb128 0xf
 6996 1d1d C3000000 		.4byte	0xc3
 6997 1d21 271D0000 		.4byte	0x1d27
 6998 1d25 3D       		.uleb128 0x3d
 6999 1d26 00       		.byte	0
 7000 1d27 3C       		.uleb128 0x3c
 7001 1d28 CA030000 		.4byte	.LASF112
 7002 1d2c 04       		.byte	0x4
 7003 1d2d 1D       		.byte	0x1d
 7004 1d2e 1C1D0000 		.4byte	0x1d1c
 7005 1d32 3C       		.uleb128 0x3c
 7006 1d33 74000000 		.4byte	.LASF72
 7007 1d37 04       		.byte	0x4
 7008 1d38 29       		.byte	0x29
 7009 1d39 97040000 		.4byte	0x497
 7010 1d3d 3E       		.uleb128 0x3e
 7011 1d3e 72060000 		.4byte	.LASF113
 7012 1d42 04       		.byte	0x4
 7013 1d43 40       		.byte	0x40
 7014 1d44 E4000000 		.4byte	0xe4
 7015 1d48 571D0000 		.4byte	0x1d57
 7016 1d4c 0B       		.uleb128 0xb
 7017 1d4d 04060000 		.4byte	0x604
 7018 1d51 0B       		.uleb128 0xb
 7019 1d52 E4000000 		.4byte	0xe4
 7020 1d56 00       		.byte	0
 7021 1d57 3F       		.uleb128 0x3f
 7022 1d58 C3030000 		.4byte	.LASF114
 7023 1d5c A9000000 		.4byte	0xa9
 7024 1d60 741D0000 		.4byte	0x1d74
 7025 1d64 0B       		.uleb128 0xb
 7026 1d65 A9000000 		.4byte	0xa9
 7027 1d69 0B       		.uleb128 0xb
 7028 1d6a 25000000 		.4byte	0x25
 7029 1d6e 0B       		.uleb128 0xb
ARM GAS  C:\Users\Petro\AppData\Local\Temp\ccPFwMgj.s 			page 140


 7030 1d6f A2000000 		.4byte	0xa2
 7031 1d73 00       		.byte	0
 7032 1d74 3E       		.uleb128 0x3e
 7033 1d75 C3030000 		.4byte	.LASF114
 7034 1d79 0B       		.byte	0xb
 7035 1d7a 19       		.byte	0x19
 7036 1d7b A9000000 		.4byte	0xa9
 7037 1d7f 931D0000 		.4byte	0x1d93
 7038 1d83 0B       		.uleb128 0xb
 7039 1d84 A9000000 		.4byte	0xa9
 7040 1d88 0B       		.uleb128 0xb
 7041 1d89 25000000 		.4byte	0x25
 7042 1d8d 0B       		.uleb128 0xb
 7043 1d8e 2C000000 		.4byte	0x2c
 7044 1d92 00       		.byte	0
 7045 1d93 3E       		.uleb128 0x3e
 7046 1d94 18000000 		.4byte	.LASF115
 7047 1d98 0B       		.byte	0xb
 7048 1d99 26       		.byte	0x26
 7049 1d9a AB000000 		.4byte	0xab
 7050 1d9e AD1D0000 		.4byte	0x1dad
 7051 1da2 0B       		.uleb128 0xb
 7052 1da3 B8000000 		.4byte	0xb8
 7053 1da7 0B       		.uleb128 0xb
 7054 1da8 25000000 		.4byte	0x25
 7055 1dac 00       		.byte	0
 7056 1dad 3F       		.uleb128 0x3f
 7057 1dae 59060000 		.4byte	.LASF116
 7058 1db2 A9000000 		.4byte	0xa9
 7059 1db6 CA1D0000 		.4byte	0x1dca
 7060 1dba 0B       		.uleb128 0xb
 7061 1dbb A9000000 		.4byte	0xa9
 7062 1dbf 0B       		.uleb128 0xb
 7063 1dc0 90010000 		.4byte	0x190
 7064 1dc4 0B       		.uleb128 0xb
 7065 1dc5 A2000000 		.4byte	0xa2
 7066 1dc9 00       		.byte	0
 7067 1dca 40       		.uleb128 0x40
 7068 1dcb 94050000 		.4byte	.LASF117
 7069 1dcf 04       		.byte	0x4
 7070 1dd0 46       		.byte	0x46
 7071 1dd1 E51D0000 		.4byte	0x1de5
 7072 1dd5 0B       		.uleb128 0xb
 7073 1dd6 5D130000 		.4byte	0x135d
 7074 1dda 0B       		.uleb128 0xb
 7075 1ddb E2050000 		.4byte	0x5e2
 7076 1ddf 0B       		.uleb128 0xb
 7077 1de0 1E050000 		.4byte	0x51e
 7078 1de4 00       		.byte	0
 7079 1de5 3E       		.uleb128 0x3e
 7080 1de6 70050000 		.4byte	.LASF118
 7081 1dea 08       		.byte	0x8
 7082 1deb 5B       		.byte	0x5b
 7083 1dec 25000000 		.4byte	0x25
 7084 1df0 091E0000 		.4byte	0x1e09
 7085 1df4 0B       		.uleb128 0xb
 7086 1df5 091E0000 		.4byte	0x1e09
ARM GAS  C:\Users\Petro\AppData\Local\Temp\ccPFwMgj.s 			page 141


 7087 1df9 0B       		.uleb128 0xb
 7088 1dfa B8000000 		.4byte	0xb8
 7089 1dfe 0B       		.uleb128 0xb
 7090 1dff 25000000 		.4byte	0x25
 7091 1e03 0B       		.uleb128 0xb
 7092 1e04 0F1E0000 		.4byte	0x1e0f
 7093 1e08 00       		.byte	0
 7094 1e09 06       		.uleb128 0x6
 7095 1e0a 04       		.byte	0x4
 7096 1e0b 9D010000 		.4byte	0x19d
 7097 1e0f 06       		.uleb128 0x6
 7098 1e10 04       		.byte	0x4
 7099 1e11 3F020000 		.4byte	0x23f
 7100 1e15 3E       		.uleb128 0x3e
 7101 1e16 D4010000 		.4byte	.LASF119
 7102 1e1a 09       		.byte	0x9
 7103 1e1b 3A       		.byte	0x3a
 7104 1e1c C3000000 		.4byte	0xc3
 7105 1e20 2A1E0000 		.4byte	0x1e2a
 7106 1e24 0B       		.uleb128 0xb
 7107 1e25 D4040000 		.4byte	0x4d4
 7108 1e29 00       		.byte	0
 7109 1e2a 3E       		.uleb128 0x3e
 7110 1e2b 35000000 		.4byte	.LASF120
 7111 1e2f 0B       		.byte	0xb
 7112 1e30 21       		.byte	0x21
 7113 1e31 2C000000 		.4byte	0x2c
 7114 1e35 3F1E0000 		.4byte	0x1e3f
 7115 1e39 0B       		.uleb128 0xb
 7116 1e3a B8000000 		.4byte	0xb8
 7117 1e3e 00       		.byte	0
 7118 1e3f 41       		.uleb128 0x41
 7119 1e40 07020000 		.4byte	.LASF121
 7120 1e44 09       		.byte	0x9
 7121 1e45 3B       		.byte	0x3b
 7122 1e46 25000000 		.4byte	0x25
 7123 1e4a 0B       		.uleb128 0xb
 7124 1e4b 5D130000 		.4byte	0x135d
 7125 1e4f 0B       		.uleb128 0xb
 7126 1e50 25000000 		.4byte	0x25
 7127 1e54 00       		.byte	0
 7128 1e55 00       		.byte	0
 7129              		.section	.debug_abbrev,"",%progbits
 7130              	.Ldebug_abbrev0:
 7131 0000 01       		.uleb128 0x1
 7132 0001 11       		.uleb128 0x11
 7133 0002 01       		.byte	0x1
 7134 0003 25       		.uleb128 0x25
 7135 0004 0E       		.uleb128 0xe
 7136 0005 13       		.uleb128 0x13
 7137 0006 0B       		.uleb128 0xb
 7138 0007 03       		.uleb128 0x3
 7139 0008 0E       		.uleb128 0xe
 7140 0009 1B       		.uleb128 0x1b
 7141 000a 0E       		.uleb128 0xe
 7142 000b 55       		.uleb128 0x55
 7143 000c 17       		.uleb128 0x17
ARM GAS  C:\Users\Petro\AppData\Local\Temp\ccPFwMgj.s 			page 142


 7144 000d 11       		.uleb128 0x11
 7145 000e 01       		.uleb128 0x1
 7146 000f 10       		.uleb128 0x10
 7147 0010 17       		.uleb128 0x17
 7148 0011 00       		.byte	0
 7149 0012 00       		.byte	0
 7150 0013 02       		.uleb128 0x2
 7151 0014 24       		.uleb128 0x24
 7152 0015 00       		.byte	0
 7153 0016 0B       		.uleb128 0xb
 7154 0017 0B       		.uleb128 0xb
 7155 0018 3E       		.uleb128 0x3e
 7156 0019 0B       		.uleb128 0xb
 7157 001a 03       		.uleb128 0x3
 7158 001b 08       		.uleb128 0x8
 7159 001c 00       		.byte	0
 7160 001d 00       		.byte	0
 7161 001e 03       		.uleb128 0x3
 7162 001f 16       		.uleb128 0x16
 7163 0020 00       		.byte	0
 7164 0021 03       		.uleb128 0x3
 7165 0022 0E       		.uleb128 0xe
 7166 0023 3A       		.uleb128 0x3a
 7167 0024 0B       		.uleb128 0xb
 7168 0025 3B       		.uleb128 0x3b
 7169 0026 0B       		.uleb128 0xb
 7170 0027 49       		.uleb128 0x49
 7171 0028 13       		.uleb128 0x13
 7172 0029 00       		.byte	0
 7173 002a 00       		.byte	0
 7174 002b 04       		.uleb128 0x4
 7175 002c 24       		.uleb128 0x24
 7176 002d 00       		.byte	0
 7177 002e 0B       		.uleb128 0xb
 7178 002f 0B       		.uleb128 0xb
 7179 0030 3E       		.uleb128 0x3e
 7180 0031 0B       		.uleb128 0xb
 7181 0032 03       		.uleb128 0x3
 7182 0033 0E       		.uleb128 0xe
 7183 0034 00       		.byte	0
 7184 0035 00       		.byte	0
 7185 0036 05       		.uleb128 0x5
 7186 0037 0F       		.uleb128 0xf
 7187 0038 00       		.byte	0
 7188 0039 0B       		.uleb128 0xb
 7189 003a 0B       		.uleb128 0xb
 7190 003b 00       		.byte	0
 7191 003c 00       		.byte	0
 7192 003d 06       		.uleb128 0x6
 7193 003e 0F       		.uleb128 0xf
 7194 003f 00       		.byte	0
 7195 0040 0B       		.uleb128 0xb
 7196 0041 0B       		.uleb128 0xb
 7197 0042 49       		.uleb128 0x49
 7198 0043 13       		.uleb128 0x13
 7199 0044 00       		.byte	0
 7200 0045 00       		.byte	0
ARM GAS  C:\Users\Petro\AppData\Local\Temp\ccPFwMgj.s 			page 143


 7201 0046 07       		.uleb128 0x7
 7202 0047 26       		.uleb128 0x26
 7203 0048 00       		.byte	0
 7204 0049 49       		.uleb128 0x49
 7205 004a 13       		.uleb128 0x13
 7206 004b 00       		.byte	0
 7207 004c 00       		.byte	0
 7208 004d 08       		.uleb128 0x8
 7209 004e 13       		.uleb128 0x13
 7210 004f 01       		.byte	0x1
 7211 0050 03       		.uleb128 0x3
 7212 0051 0E       		.uleb128 0xe
 7213 0052 0B       		.uleb128 0xb
 7214 0053 0B       		.uleb128 0xb
 7215 0054 3A       		.uleb128 0x3a
 7216 0055 0B       		.uleb128 0xb
 7217 0056 3B       		.uleb128 0x3b
 7218 0057 0B       		.uleb128 0xb
 7219 0058 01       		.uleb128 0x1
 7220 0059 13       		.uleb128 0x13
 7221 005a 00       		.byte	0
 7222 005b 00       		.byte	0
 7223 005c 09       		.uleb128 0x9
 7224 005d 0D       		.uleb128 0xd
 7225 005e 00       		.byte	0
 7226 005f 03       		.uleb128 0x3
 7227 0060 0E       		.uleb128 0xe
 7228 0061 3A       		.uleb128 0x3a
 7229 0062 0B       		.uleb128 0xb
 7230 0063 3B       		.uleb128 0x3b
 7231 0064 0B       		.uleb128 0xb
 7232 0065 49       		.uleb128 0x49
 7233 0066 13       		.uleb128 0x13
 7234 0067 38       		.uleb128 0x38
 7235 0068 0B       		.uleb128 0xb
 7236 0069 00       		.byte	0
 7237 006a 00       		.byte	0
 7238 006b 0A       		.uleb128 0xa
 7239 006c 15       		.uleb128 0x15
 7240 006d 01       		.byte	0x1
 7241 006e 27       		.uleb128 0x27
 7242 006f 19       		.uleb128 0x19
 7243 0070 49       		.uleb128 0x49
 7244 0071 13       		.uleb128 0x13
 7245 0072 01       		.uleb128 0x1
 7246 0073 13       		.uleb128 0x13
 7247 0074 00       		.byte	0
 7248 0075 00       		.byte	0
 7249 0076 0B       		.uleb128 0xb
 7250 0077 05       		.uleb128 0x5
 7251 0078 00       		.byte	0
 7252 0079 49       		.uleb128 0x49
 7253 007a 13       		.uleb128 0x13
 7254 007b 00       		.byte	0
 7255 007c 00       		.byte	0
 7256 007d 0C       		.uleb128 0xc
 7257 007e 26       		.uleb128 0x26
ARM GAS  C:\Users\Petro\AppData\Local\Temp\ccPFwMgj.s 			page 144


 7258 007f 00       		.byte	0
 7259 0080 00       		.byte	0
 7260 0081 00       		.byte	0
 7261 0082 0D       		.uleb128 0xd
 7262 0083 0D       		.uleb128 0xd
 7263 0084 00       		.byte	0
 7264 0085 03       		.uleb128 0x3
 7265 0086 08       		.uleb128 0x8
 7266 0087 3A       		.uleb128 0x3a
 7267 0088 0B       		.uleb128 0xb
 7268 0089 3B       		.uleb128 0x3b
 7269 008a 0B       		.uleb128 0xb
 7270 008b 49       		.uleb128 0x49
 7271 008c 13       		.uleb128 0x13
 7272 008d 38       		.uleb128 0x38
 7273 008e 0B       		.uleb128 0xb
 7274 008f 00       		.byte	0
 7275 0090 00       		.byte	0
 7276 0091 0E       		.uleb128 0xe
 7277 0092 0D       		.uleb128 0xd
 7278 0093 00       		.byte	0
 7279 0094 49       		.uleb128 0x49
 7280 0095 13       		.uleb128 0x13
 7281 0096 38       		.uleb128 0x38
 7282 0097 0B       		.uleb128 0xb
 7283 0098 00       		.byte	0
 7284 0099 00       		.byte	0
 7285 009a 0F       		.uleb128 0xf
 7286 009b 01       		.uleb128 0x1
 7287 009c 01       		.byte	0x1
 7288 009d 49       		.uleb128 0x49
 7289 009e 13       		.uleb128 0x13
 7290 009f 01       		.uleb128 0x1
 7291 00a0 13       		.uleb128 0x13
 7292 00a1 00       		.byte	0
 7293 00a2 00       		.byte	0
 7294 00a3 10       		.uleb128 0x10
 7295 00a4 21       		.uleb128 0x21
 7296 00a5 00       		.byte	0
 7297 00a6 49       		.uleb128 0x49
 7298 00a7 13       		.uleb128 0x13
 7299 00a8 2F       		.uleb128 0x2f
 7300 00a9 0B       		.uleb128 0xb
 7301 00aa 00       		.byte	0
 7302 00ab 00       		.byte	0
 7303 00ac 11       		.uleb128 0x11
 7304 00ad 13       		.uleb128 0x13
 7305 00ae 01       		.byte	0x1
 7306 00af 0B       		.uleb128 0xb
 7307 00b0 0B       		.uleb128 0xb
 7308 00b1 3A       		.uleb128 0x3a
 7309 00b2 0B       		.uleb128 0xb
 7310 00b3 3B       		.uleb128 0x3b
 7311 00b4 0B       		.uleb128 0xb
 7312 00b5 01       		.uleb128 0x1
 7313 00b6 13       		.uleb128 0x13
 7314 00b7 00       		.byte	0
ARM GAS  C:\Users\Petro\AppData\Local\Temp\ccPFwMgj.s 			page 145


 7315 00b8 00       		.byte	0
 7316 00b9 12       		.uleb128 0x12
 7317 00ba 17       		.uleb128 0x17
 7318 00bb 01       		.byte	0x1
 7319 00bc 0B       		.uleb128 0xb
 7320 00bd 0B       		.uleb128 0xb
 7321 00be 3A       		.uleb128 0x3a
 7322 00bf 0B       		.uleb128 0xb
 7323 00c0 3B       		.uleb128 0x3b
 7324 00c1 0B       		.uleb128 0xb
 7325 00c2 01       		.uleb128 0x1
 7326 00c3 13       		.uleb128 0x13
 7327 00c4 00       		.byte	0
 7328 00c5 00       		.byte	0
 7329 00c6 13       		.uleb128 0x13
 7330 00c7 0D       		.uleb128 0xd
 7331 00c8 00       		.byte	0
 7332 00c9 03       		.uleb128 0x3
 7333 00ca 0E       		.uleb128 0xe
 7334 00cb 3A       		.uleb128 0x3a
 7335 00cc 0B       		.uleb128 0xb
 7336 00cd 3B       		.uleb128 0x3b
 7337 00ce 0B       		.uleb128 0xb
 7338 00cf 49       		.uleb128 0x49
 7339 00d0 13       		.uleb128 0x13
 7340 00d1 00       		.byte	0
 7341 00d2 00       		.byte	0
 7342 00d3 14       		.uleb128 0x14
 7343 00d4 04       		.uleb128 0x4
 7344 00d5 01       		.byte	0x1
 7345 00d6 03       		.uleb128 0x3
 7346 00d7 0E       		.uleb128 0xe
 7347 00d8 0B       		.uleb128 0xb
 7348 00d9 0B       		.uleb128 0xb
 7349 00da 3A       		.uleb128 0x3a
 7350 00db 0B       		.uleb128 0xb
 7351 00dc 3B       		.uleb128 0x3b
 7352 00dd 0B       		.uleb128 0xb
 7353 00de 01       		.uleb128 0x1
 7354 00df 13       		.uleb128 0x13
 7355 00e0 00       		.byte	0
 7356 00e1 00       		.byte	0
 7357 00e2 15       		.uleb128 0x15
 7358 00e3 28       		.uleb128 0x28
 7359 00e4 00       		.byte	0
 7360 00e5 03       		.uleb128 0x3
 7361 00e6 0E       		.uleb128 0xe
 7362 00e7 1C       		.uleb128 0x1c
 7363 00e8 0D       		.uleb128 0xd
 7364 00e9 00       		.byte	0
 7365 00ea 00       		.byte	0
 7366 00eb 16       		.uleb128 0x16
 7367 00ec 2E       		.uleb128 0x2e
 7368 00ed 01       		.byte	0x1
 7369 00ee 03       		.uleb128 0x3
 7370 00ef 0E       		.uleb128 0xe
 7371 00f0 3A       		.uleb128 0x3a
ARM GAS  C:\Users\Petro\AppData\Local\Temp\ccPFwMgj.s 			page 146


 7372 00f1 0B       		.uleb128 0xb
 7373 00f2 3B       		.uleb128 0x3b
 7374 00f3 0B       		.uleb128 0xb
 7375 00f4 27       		.uleb128 0x27
 7376 00f5 19       		.uleb128 0x19
 7377 00f6 49       		.uleb128 0x49
 7378 00f7 13       		.uleb128 0x13
 7379 00f8 20       		.uleb128 0x20
 7380 00f9 0B       		.uleb128 0xb
 7381 00fa 01       		.uleb128 0x1
 7382 00fb 13       		.uleb128 0x13
 7383 00fc 00       		.byte	0
 7384 00fd 00       		.byte	0
 7385 00fe 17       		.uleb128 0x17
 7386 00ff 05       		.uleb128 0x5
 7387 0100 00       		.byte	0
 7388 0101 03       		.uleb128 0x3
 7389 0102 08       		.uleb128 0x8
 7390 0103 3A       		.uleb128 0x3a
 7391 0104 0B       		.uleb128 0xb
 7392 0105 3B       		.uleb128 0x3b
 7393 0106 0B       		.uleb128 0xb
 7394 0107 49       		.uleb128 0x49
 7395 0108 13       		.uleb128 0x13
 7396 0109 00       		.byte	0
 7397 010a 00       		.byte	0
 7398 010b 18       		.uleb128 0x18
 7399 010c 2E       		.uleb128 0x2e
 7400 010d 01       		.byte	0x1
 7401 010e 03       		.uleb128 0x3
 7402 010f 0E       		.uleb128 0xe
 7403 0110 3A       		.uleb128 0x3a
 7404 0111 0B       		.uleb128 0xb
 7405 0112 3B       		.uleb128 0x3b
 7406 0113 0B       		.uleb128 0xb
 7407 0114 27       		.uleb128 0x27
 7408 0115 19       		.uleb128 0x19
 7409 0116 20       		.uleb128 0x20
 7410 0117 0B       		.uleb128 0xb
 7411 0118 01       		.uleb128 0x1
 7412 0119 13       		.uleb128 0x13
 7413 011a 00       		.byte	0
 7414 011b 00       		.byte	0
 7415 011c 19       		.uleb128 0x19
 7416 011d 05       		.uleb128 0x5
 7417 011e 00       		.byte	0
 7418 011f 03       		.uleb128 0x3
 7419 0120 0E       		.uleb128 0xe
 7420 0121 3A       		.uleb128 0x3a
 7421 0122 0B       		.uleb128 0xb
 7422 0123 3B       		.uleb128 0x3b
 7423 0124 0B       		.uleb128 0xb
 7424 0125 49       		.uleb128 0x49
 7425 0126 13       		.uleb128 0x13
 7426 0127 00       		.byte	0
 7427 0128 00       		.byte	0
 7428 0129 1A       		.uleb128 0x1a
ARM GAS  C:\Users\Petro\AppData\Local\Temp\ccPFwMgj.s 			page 147


 7429 012a 2E       		.uleb128 0x2e
 7430 012b 01       		.byte	0x1
 7431 012c 03       		.uleb128 0x3
 7432 012d 0E       		.uleb128 0xe
 7433 012e 3A       		.uleb128 0x3a
 7434 012f 0B       		.uleb128 0xb
 7435 0130 3B       		.uleb128 0x3b
 7436 0131 0B       		.uleb128 0xb
 7437 0132 27       		.uleb128 0x27
 7438 0133 19       		.uleb128 0x19
 7439 0134 49       		.uleb128 0x49
 7440 0135 13       		.uleb128 0x13
 7441 0136 11       		.uleb128 0x11
 7442 0137 01       		.uleb128 0x1
 7443 0138 12       		.uleb128 0x12
 7444 0139 06       		.uleb128 0x6
 7445 013a 40       		.uleb128 0x40
 7446 013b 18       		.uleb128 0x18
 7447 013c 9642     		.uleb128 0x2116
 7448 013e 19       		.uleb128 0x19
 7449 013f 01       		.uleb128 0x1
 7450 0140 13       		.uleb128 0x13
 7451 0141 00       		.byte	0
 7452 0142 00       		.byte	0
 7453 0143 1B       		.uleb128 0x1b
 7454 0144 05       		.uleb128 0x5
 7455 0145 00       		.byte	0
 7456 0146 03       		.uleb128 0x3
 7457 0147 08       		.uleb128 0x8
 7458 0148 3A       		.uleb128 0x3a
 7459 0149 0B       		.uleb128 0xb
 7460 014a 3B       		.uleb128 0x3b
 7461 014b 0B       		.uleb128 0xb
 7462 014c 49       		.uleb128 0x49
 7463 014d 13       		.uleb128 0x13
 7464 014e 02       		.uleb128 0x2
 7465 014f 17       		.uleb128 0x17
 7466 0150 00       		.byte	0
 7467 0151 00       		.byte	0
 7468 0152 1C       		.uleb128 0x1c
 7469 0153 05       		.uleb128 0x5
 7470 0154 00       		.byte	0
 7471 0155 03       		.uleb128 0x3
 7472 0156 0E       		.uleb128 0xe
 7473 0157 3A       		.uleb128 0x3a
 7474 0158 0B       		.uleb128 0xb
 7475 0159 3B       		.uleb128 0x3b
 7476 015a 0B       		.uleb128 0xb
 7477 015b 49       		.uleb128 0x49
 7478 015c 13       		.uleb128 0x13
 7479 015d 02       		.uleb128 0x2
 7480 015e 17       		.uleb128 0x17
 7481 015f 00       		.byte	0
 7482 0160 00       		.byte	0
 7483 0161 1D       		.uleb128 0x1d
 7484 0162 34       		.uleb128 0x34
 7485 0163 00       		.byte	0
ARM GAS  C:\Users\Petro\AppData\Local\Temp\ccPFwMgj.s 			page 148


 7486 0164 03       		.uleb128 0x3
 7487 0165 0E       		.uleb128 0xe
 7488 0166 3A       		.uleb128 0x3a
 7489 0167 0B       		.uleb128 0xb
 7490 0168 3B       		.uleb128 0x3b
 7491 0169 0B       		.uleb128 0xb
 7492 016a 49       		.uleb128 0x49
 7493 016b 13       		.uleb128 0x13
 7494 016c 02       		.uleb128 0x2
 7495 016d 17       		.uleb128 0x17
 7496 016e 00       		.byte	0
 7497 016f 00       		.byte	0
 7498 0170 1E       		.uleb128 0x1e
 7499 0171 1D       		.uleb128 0x1d
 7500 0172 01       		.byte	0x1
 7501 0173 31       		.uleb128 0x31
 7502 0174 13       		.uleb128 0x13
 7503 0175 11       		.uleb128 0x11
 7504 0176 01       		.uleb128 0x1
 7505 0177 12       		.uleb128 0x12
 7506 0178 06       		.uleb128 0x6
 7507 0179 58       		.uleb128 0x58
 7508 017a 0B       		.uleb128 0xb
 7509 017b 59       		.uleb128 0x59
 7510 017c 0B       		.uleb128 0xb
 7511 017d 01       		.uleb128 0x1
 7512 017e 13       		.uleb128 0x13
 7513 017f 00       		.byte	0
 7514 0180 00       		.byte	0
 7515 0181 1F       		.uleb128 0x1f
 7516 0182 05       		.uleb128 0x5
 7517 0183 00       		.byte	0
 7518 0184 31       		.uleb128 0x31
 7519 0185 13       		.uleb128 0x13
 7520 0186 00       		.byte	0
 7521 0187 00       		.byte	0
 7522 0188 20       		.uleb128 0x20
 7523 0189 05       		.uleb128 0x5
 7524 018a 00       		.byte	0
 7525 018b 31       		.uleb128 0x31
 7526 018c 13       		.uleb128 0x13
 7527 018d 02       		.uleb128 0x2
 7528 018e 17       		.uleb128 0x17
 7529 018f 00       		.byte	0
 7530 0190 00       		.byte	0
 7531 0191 21       		.uleb128 0x21
 7532 0192 898201   		.uleb128 0x4109
 7533 0195 01       		.byte	0x1
 7534 0196 11       		.uleb128 0x11
 7535 0197 01       		.uleb128 0x1
 7536 0198 9342     		.uleb128 0x2113
 7537 019a 18       		.uleb128 0x18
 7538 019b 00       		.byte	0
 7539 019c 00       		.byte	0
 7540 019d 22       		.uleb128 0x22
 7541 019e 8A8201   		.uleb128 0x410a
 7542 01a1 00       		.byte	0
ARM GAS  C:\Users\Petro\AppData\Local\Temp\ccPFwMgj.s 			page 149


 7543 01a2 02       		.uleb128 0x2
 7544 01a3 18       		.uleb128 0x18
 7545 01a4 9142     		.uleb128 0x2111
 7546 01a6 18       		.uleb128 0x18
 7547 01a7 00       		.byte	0
 7548 01a8 00       		.byte	0
 7549 01a9 23       		.uleb128 0x23
 7550 01aa 1D       		.uleb128 0x1d
 7551 01ab 01       		.byte	0x1
 7552 01ac 31       		.uleb128 0x31
 7553 01ad 13       		.uleb128 0x13
 7554 01ae 11       		.uleb128 0x11
 7555 01af 01       		.uleb128 0x1
 7556 01b0 12       		.uleb128 0x12
 7557 01b1 06       		.uleb128 0x6
 7558 01b2 58       		.uleb128 0x58
 7559 01b3 0B       		.uleb128 0xb
 7560 01b4 59       		.uleb128 0x59
 7561 01b5 0B       		.uleb128 0xb
 7562 01b6 00       		.byte	0
 7563 01b7 00       		.byte	0
 7564 01b8 24       		.uleb128 0x24
 7565 01b9 2E       		.uleb128 0x2e
 7566 01ba 01       		.byte	0x1
 7567 01bb 03       		.uleb128 0x3
 7568 01bc 0E       		.uleb128 0xe
 7569 01bd 3A       		.uleb128 0x3a
 7570 01be 0B       		.uleb128 0xb
 7571 01bf 3B       		.uleb128 0x3b
 7572 01c0 0B       		.uleb128 0xb
 7573 01c1 27       		.uleb128 0x27
 7574 01c2 19       		.uleb128 0x19
 7575 01c3 49       		.uleb128 0x49
 7576 01c4 13       		.uleb128 0x13
 7577 01c5 11       		.uleb128 0x11
 7578 01c6 01       		.uleb128 0x1
 7579 01c7 12       		.uleb128 0x12
 7580 01c8 06       		.uleb128 0x6
 7581 01c9 40       		.uleb128 0x40
 7582 01ca 18       		.uleb128 0x18
 7583 01cb 9742     		.uleb128 0x2117
 7584 01cd 19       		.uleb128 0x19
 7585 01ce 01       		.uleb128 0x1
 7586 01cf 13       		.uleb128 0x13
 7587 01d0 00       		.byte	0
 7588 01d1 00       		.byte	0
 7589 01d2 25       		.uleb128 0x25
 7590 01d3 34       		.uleb128 0x34
 7591 01d4 00       		.byte	0
 7592 01d5 03       		.uleb128 0x3
 7593 01d6 08       		.uleb128 0x8
 7594 01d7 3A       		.uleb128 0x3a
 7595 01d8 0B       		.uleb128 0xb
 7596 01d9 3B       		.uleb128 0x3b
 7597 01da 0B       		.uleb128 0xb
 7598 01db 49       		.uleb128 0x49
 7599 01dc 13       		.uleb128 0x13
ARM GAS  C:\Users\Petro\AppData\Local\Temp\ccPFwMgj.s 			page 150


 7600 01dd 02       		.uleb128 0x2
 7601 01de 17       		.uleb128 0x17
 7602 01df 00       		.byte	0
 7603 01e0 00       		.byte	0
 7604 01e1 26       		.uleb128 0x26
 7605 01e2 898201   		.uleb128 0x4109
 7606 01e5 01       		.byte	0x1
 7607 01e6 11       		.uleb128 0x11
 7608 01e7 01       		.uleb128 0x1
 7609 01e8 31       		.uleb128 0x31
 7610 01e9 13       		.uleb128 0x13
 7611 01ea 01       		.uleb128 0x1
 7612 01eb 13       		.uleb128 0x13
 7613 01ec 00       		.byte	0
 7614 01ed 00       		.byte	0
 7615 01ee 27       		.uleb128 0x27
 7616 01ef 898201   		.uleb128 0x4109
 7617 01f2 01       		.byte	0x1
 7618 01f3 11       		.uleb128 0x11
 7619 01f4 01       		.uleb128 0x1
 7620 01f5 31       		.uleb128 0x31
 7621 01f6 13       		.uleb128 0x13
 7622 01f7 00       		.byte	0
 7623 01f8 00       		.byte	0
 7624 01f9 28       		.uleb128 0x28
 7625 01fa 2E       		.uleb128 0x2e
 7626 01fb 01       		.byte	0x1
 7627 01fc 03       		.uleb128 0x3
 7628 01fd 0E       		.uleb128 0xe
 7629 01fe 3A       		.uleb128 0x3a
 7630 01ff 0B       		.uleb128 0xb
 7631 0200 3B       		.uleb128 0x3b
 7632 0201 05       		.uleb128 0x5
 7633 0202 27       		.uleb128 0x27
 7634 0203 19       		.uleb128 0x19
 7635 0204 49       		.uleb128 0x49
 7636 0205 13       		.uleb128 0x13
 7637 0206 11       		.uleb128 0x11
 7638 0207 01       		.uleb128 0x1
 7639 0208 12       		.uleb128 0x12
 7640 0209 06       		.uleb128 0x6
 7641 020a 40       		.uleb128 0x40
 7642 020b 18       		.uleb128 0x18
 7643 020c 9742     		.uleb128 0x2117
 7644 020e 19       		.uleb128 0x19
 7645 020f 01       		.uleb128 0x1
 7646 0210 13       		.uleb128 0x13
 7647 0211 00       		.byte	0
 7648 0212 00       		.byte	0
 7649 0213 29       		.uleb128 0x29
 7650 0214 05       		.uleb128 0x5
 7651 0215 00       		.byte	0
 7652 0216 03       		.uleb128 0x3
 7653 0217 08       		.uleb128 0x8
 7654 0218 3A       		.uleb128 0x3a
 7655 0219 0B       		.uleb128 0xb
 7656 021a 3B       		.uleb128 0x3b
ARM GAS  C:\Users\Petro\AppData\Local\Temp\ccPFwMgj.s 			page 151


 7657 021b 05       		.uleb128 0x5
 7658 021c 49       		.uleb128 0x49
 7659 021d 13       		.uleb128 0x13
 7660 021e 02       		.uleb128 0x2
 7661 021f 17       		.uleb128 0x17
 7662 0220 00       		.byte	0
 7663 0221 00       		.byte	0
 7664 0222 2A       		.uleb128 0x2a
 7665 0223 05       		.uleb128 0x5
 7666 0224 00       		.byte	0
 7667 0225 03       		.uleb128 0x3
 7668 0226 0E       		.uleb128 0xe
 7669 0227 3A       		.uleb128 0x3a
 7670 0228 0B       		.uleb128 0xb
 7671 0229 3B       		.uleb128 0x3b
 7672 022a 05       		.uleb128 0x5
 7673 022b 49       		.uleb128 0x49
 7674 022c 13       		.uleb128 0x13
 7675 022d 02       		.uleb128 0x2
 7676 022e 17       		.uleb128 0x17
 7677 022f 00       		.byte	0
 7678 0230 00       		.byte	0
 7679 0231 2B       		.uleb128 0x2b
 7680 0232 34       		.uleb128 0x34
 7681 0233 00       		.byte	0
 7682 0234 03       		.uleb128 0x3
 7683 0235 08       		.uleb128 0x8
 7684 0236 3A       		.uleb128 0x3a
 7685 0237 0B       		.uleb128 0xb
 7686 0238 3B       		.uleb128 0x3b
 7687 0239 05       		.uleb128 0x5
 7688 023a 49       		.uleb128 0x49
 7689 023b 13       		.uleb128 0x13
 7690 023c 02       		.uleb128 0x2
 7691 023d 17       		.uleb128 0x17
 7692 023e 00       		.byte	0
 7693 023f 00       		.byte	0
 7694 0240 2C       		.uleb128 0x2c
 7695 0241 0B       		.uleb128 0xb
 7696 0242 01       		.byte	0x1
 7697 0243 11       		.uleb128 0x11
 7698 0244 01       		.uleb128 0x1
 7699 0245 12       		.uleb128 0x12
 7700 0246 06       		.uleb128 0x6
 7701 0247 01       		.uleb128 0x1
 7702 0248 13       		.uleb128 0x13
 7703 0249 00       		.byte	0
 7704 024a 00       		.byte	0
 7705 024b 2D       		.uleb128 0x2d
 7706 024c 34       		.uleb128 0x34
 7707 024d 00       		.byte	0
 7708 024e 03       		.uleb128 0x3
 7709 024f 0E       		.uleb128 0xe
 7710 0250 3A       		.uleb128 0x3a
 7711 0251 0B       		.uleb128 0xb
 7712 0252 3B       		.uleb128 0x3b
 7713 0253 05       		.uleb128 0x5
ARM GAS  C:\Users\Petro\AppData\Local\Temp\ccPFwMgj.s 			page 152


 7714 0254 49       		.uleb128 0x49
 7715 0255 13       		.uleb128 0x13
 7716 0256 02       		.uleb128 0x2
 7717 0257 17       		.uleb128 0x17
 7718 0258 00       		.byte	0
 7719 0259 00       		.byte	0
 7720 025a 2E       		.uleb128 0x2e
 7721 025b 1D       		.uleb128 0x1d
 7722 025c 01       		.byte	0x1
 7723 025d 31       		.uleb128 0x31
 7724 025e 13       		.uleb128 0x13
 7725 025f 11       		.uleb128 0x11
 7726 0260 01       		.uleb128 0x1
 7727 0261 12       		.uleb128 0x12
 7728 0262 06       		.uleb128 0x6
 7729 0263 58       		.uleb128 0x58
 7730 0264 0B       		.uleb128 0xb
 7731 0265 59       		.uleb128 0x59
 7732 0266 05       		.uleb128 0x5
 7733 0267 00       		.byte	0
 7734 0268 00       		.byte	0
 7735 0269 2F       		.uleb128 0x2f
 7736 026a 0B       		.uleb128 0xb
 7737 026b 01       		.byte	0x1
 7738 026c 55       		.uleb128 0x55
 7739 026d 17       		.uleb128 0x17
 7740 026e 01       		.uleb128 0x1
 7741 026f 13       		.uleb128 0x13
 7742 0270 00       		.byte	0
 7743 0271 00       		.byte	0
 7744 0272 30       		.uleb128 0x30
 7745 0273 34       		.uleb128 0x34
 7746 0274 00       		.byte	0
 7747 0275 03       		.uleb128 0x3
 7748 0276 0E       		.uleb128 0xe
 7749 0277 3A       		.uleb128 0x3a
 7750 0278 0B       		.uleb128 0xb
 7751 0279 3B       		.uleb128 0x3b
 7752 027a 0B       		.uleb128 0xb
 7753 027b 49       		.uleb128 0x49
 7754 027c 13       		.uleb128 0x13
 7755 027d 00       		.byte	0
 7756 027e 00       		.byte	0
 7757 027f 31       		.uleb128 0x31
 7758 0280 2E       		.uleb128 0x2e
 7759 0281 01       		.byte	0x1
 7760 0282 03       		.uleb128 0x3
 7761 0283 0E       		.uleb128 0xe
 7762 0284 3A       		.uleb128 0x3a
 7763 0285 0B       		.uleb128 0xb
 7764 0286 3B       		.uleb128 0x3b
 7765 0287 05       		.uleb128 0x5
 7766 0288 27       		.uleb128 0x27
 7767 0289 19       		.uleb128 0x19
 7768 028a 11       		.uleb128 0x11
 7769 028b 01       		.uleb128 0x1
 7770 028c 12       		.uleb128 0x12
ARM GAS  C:\Users\Petro\AppData\Local\Temp\ccPFwMgj.s 			page 153


 7771 028d 06       		.uleb128 0x6
 7772 028e 40       		.uleb128 0x40
 7773 028f 18       		.uleb128 0x18
 7774 0290 9642     		.uleb128 0x2116
 7775 0292 19       		.uleb128 0x19
 7776 0293 01       		.uleb128 0x1
 7777 0294 13       		.uleb128 0x13
 7778 0295 00       		.byte	0
 7779 0296 00       		.byte	0
 7780 0297 32       		.uleb128 0x32
 7781 0298 2E       		.uleb128 0x2e
 7782 0299 01       		.byte	0x1
 7783 029a 3F       		.uleb128 0x3f
 7784 029b 19       		.uleb128 0x19
 7785 029c 03       		.uleb128 0x3
 7786 029d 0E       		.uleb128 0xe
 7787 029e 3A       		.uleb128 0x3a
 7788 029f 0B       		.uleb128 0xb
 7789 02a0 3B       		.uleb128 0x3b
 7790 02a1 0B       		.uleb128 0xb
 7791 02a2 27       		.uleb128 0x27
 7792 02a3 19       		.uleb128 0x19
 7793 02a4 49       		.uleb128 0x49
 7794 02a5 13       		.uleb128 0x13
 7795 02a6 11       		.uleb128 0x11
 7796 02a7 01       		.uleb128 0x1
 7797 02a8 12       		.uleb128 0x12
 7798 02a9 06       		.uleb128 0x6
 7799 02aa 40       		.uleb128 0x40
 7800 02ab 18       		.uleb128 0x18
 7801 02ac 9742     		.uleb128 0x2117
 7802 02ae 19       		.uleb128 0x19
 7803 02af 01       		.uleb128 0x1
 7804 02b0 13       		.uleb128 0x13
 7805 02b1 00       		.byte	0
 7806 02b2 00       		.byte	0
 7807 02b3 33       		.uleb128 0x33
 7808 02b4 2E       		.uleb128 0x2e
 7809 02b5 01       		.byte	0x1
 7810 02b6 3F       		.uleb128 0x3f
 7811 02b7 19       		.uleb128 0x19
 7812 02b8 03       		.uleb128 0x3
 7813 02b9 0E       		.uleb128 0xe
 7814 02ba 3A       		.uleb128 0x3a
 7815 02bb 0B       		.uleb128 0xb
 7816 02bc 3B       		.uleb128 0x3b
 7817 02bd 0B       		.uleb128 0xb
 7818 02be 27       		.uleb128 0x27
 7819 02bf 19       		.uleb128 0x19
 7820 02c0 49       		.uleb128 0x49
 7821 02c1 13       		.uleb128 0x13
 7822 02c2 11       		.uleb128 0x11
 7823 02c3 01       		.uleb128 0x1
 7824 02c4 12       		.uleb128 0x12
 7825 02c5 06       		.uleb128 0x6
 7826 02c6 40       		.uleb128 0x40
 7827 02c7 18       		.uleb128 0x18
ARM GAS  C:\Users\Petro\AppData\Local\Temp\ccPFwMgj.s 			page 154


 7828 02c8 9642     		.uleb128 0x2116
 7829 02ca 19       		.uleb128 0x19
 7830 02cb 01       		.uleb128 0x1
 7831 02cc 13       		.uleb128 0x13
 7832 02cd 00       		.byte	0
 7833 02ce 00       		.byte	0
 7834 02cf 34       		.uleb128 0x34
 7835 02d0 34       		.uleb128 0x34
 7836 02d1 00       		.byte	0
 7837 02d2 03       		.uleb128 0x3
 7838 02d3 0E       		.uleb128 0xe
 7839 02d4 3A       		.uleb128 0x3a
 7840 02d5 0B       		.uleb128 0xb
 7841 02d6 3B       		.uleb128 0x3b
 7842 02d7 0B       		.uleb128 0xb
 7843 02d8 49       		.uleb128 0x49
 7844 02d9 13       		.uleb128 0x13
 7845 02da 02       		.uleb128 0x2
 7846 02db 18       		.uleb128 0x18
 7847 02dc 00       		.byte	0
 7848 02dd 00       		.byte	0
 7849 02de 35       		.uleb128 0x35
 7850 02df 1D       		.uleb128 0x1d
 7851 02e0 01       		.byte	0x1
 7852 02e1 31       		.uleb128 0x31
 7853 02e2 13       		.uleb128 0x13
 7854 02e3 11       		.uleb128 0x11
 7855 02e4 01       		.uleb128 0x1
 7856 02e5 12       		.uleb128 0x12
 7857 02e6 06       		.uleb128 0x6
 7858 02e7 58       		.uleb128 0x58
 7859 02e8 0B       		.uleb128 0xb
 7860 02e9 59       		.uleb128 0x59
 7861 02ea 05       		.uleb128 0x5
 7862 02eb 01       		.uleb128 0x1
 7863 02ec 13       		.uleb128 0x13
 7864 02ed 00       		.byte	0
 7865 02ee 00       		.byte	0
 7866 02ef 36       		.uleb128 0x36
 7867 02f0 898201   		.uleb128 0x4109
 7868 02f3 00       		.byte	0
 7869 02f4 11       		.uleb128 0x11
 7870 02f5 01       		.uleb128 0x1
 7871 02f6 31       		.uleb128 0x31
 7872 02f7 13       		.uleb128 0x13
 7873 02f8 00       		.byte	0
 7874 02f9 00       		.byte	0
 7875 02fa 37       		.uleb128 0x37
 7876 02fb 2E       		.uleb128 0x2e
 7877 02fc 01       		.byte	0x1
 7878 02fd 3F       		.uleb128 0x3f
 7879 02fe 19       		.uleb128 0x19
 7880 02ff 03       		.uleb128 0x3
 7881 0300 0E       		.uleb128 0xe
 7882 0301 3A       		.uleb128 0x3a
 7883 0302 0B       		.uleb128 0xb
 7884 0303 3B       		.uleb128 0x3b
ARM GAS  C:\Users\Petro\AppData\Local\Temp\ccPFwMgj.s 			page 155


 7885 0304 05       		.uleb128 0x5
 7886 0305 27       		.uleb128 0x27
 7887 0306 19       		.uleb128 0x19
 7888 0307 49       		.uleb128 0x49
 7889 0308 13       		.uleb128 0x13
 7890 0309 11       		.uleb128 0x11
 7891 030a 01       		.uleb128 0x1
 7892 030b 12       		.uleb128 0x12
 7893 030c 06       		.uleb128 0x6
 7894 030d 40       		.uleb128 0x40
 7895 030e 18       		.uleb128 0x18
 7896 030f 9742     		.uleb128 0x2117
 7897 0311 19       		.uleb128 0x19
 7898 0312 01       		.uleb128 0x1
 7899 0313 13       		.uleb128 0x13
 7900 0314 00       		.byte	0
 7901 0315 00       		.byte	0
 7902 0316 38       		.uleb128 0x38
 7903 0317 34       		.uleb128 0x34
 7904 0318 00       		.byte	0
 7905 0319 03       		.uleb128 0x3
 7906 031a 08       		.uleb128 0x8
 7907 031b 3A       		.uleb128 0x3a
 7908 031c 0B       		.uleb128 0xb
 7909 031d 3B       		.uleb128 0x3b
 7910 031e 05       		.uleb128 0x5
 7911 031f 49       		.uleb128 0x49
 7912 0320 13       		.uleb128 0x13
 7913 0321 02       		.uleb128 0x2
 7914 0322 18       		.uleb128 0x18
 7915 0323 00       		.byte	0
 7916 0324 00       		.byte	0
 7917 0325 39       		.uleb128 0x39
 7918 0326 2E       		.uleb128 0x2e
 7919 0327 01       		.byte	0x1
 7920 0328 3F       		.uleb128 0x3f
 7921 0329 19       		.uleb128 0x19
 7922 032a 03       		.uleb128 0x3
 7923 032b 0E       		.uleb128 0xe
 7924 032c 3A       		.uleb128 0x3a
 7925 032d 0B       		.uleb128 0xb
 7926 032e 3B       		.uleb128 0x3b
 7927 032f 05       		.uleb128 0x5
 7928 0330 27       		.uleb128 0x27
 7929 0331 19       		.uleb128 0x19
 7930 0332 49       		.uleb128 0x49
 7931 0333 13       		.uleb128 0x13
 7932 0334 11       		.uleb128 0x11
 7933 0335 01       		.uleb128 0x1
 7934 0336 12       		.uleb128 0x12
 7935 0337 06       		.uleb128 0x6
 7936 0338 40       		.uleb128 0x40
 7937 0339 18       		.uleb128 0x18
 7938 033a 9642     		.uleb128 0x2116
 7939 033c 19       		.uleb128 0x19
 7940 033d 01       		.uleb128 0x1
 7941 033e 13       		.uleb128 0x13
ARM GAS  C:\Users\Petro\AppData\Local\Temp\ccPFwMgj.s 			page 156


 7942 033f 00       		.byte	0
 7943 0340 00       		.byte	0
 7944 0341 3A       		.uleb128 0x3a
 7945 0342 34       		.uleb128 0x34
 7946 0343 00       		.byte	0
 7947 0344 03       		.uleb128 0x3
 7948 0345 0E       		.uleb128 0xe
 7949 0346 3A       		.uleb128 0x3a
 7950 0347 0B       		.uleb128 0xb
 7951 0348 3B       		.uleb128 0x3b
 7952 0349 05       		.uleb128 0x5
 7953 034a 49       		.uleb128 0x49
 7954 034b 13       		.uleb128 0x13
 7955 034c 02       		.uleb128 0x2
 7956 034d 18       		.uleb128 0x18
 7957 034e 00       		.byte	0
 7958 034f 00       		.byte	0
 7959 0350 3B       		.uleb128 0x3b
 7960 0351 34       		.uleb128 0x34
 7961 0352 00       		.byte	0
 7962 0353 03       		.uleb128 0x3
 7963 0354 0E       		.uleb128 0xe
 7964 0355 3A       		.uleb128 0x3a
 7965 0356 0B       		.uleb128 0xb
 7966 0357 3B       		.uleb128 0x3b
 7967 0358 05       		.uleb128 0x5
 7968 0359 49       		.uleb128 0x49
 7969 035a 13       		.uleb128 0x13
 7970 035b 00       		.byte	0
 7971 035c 00       		.byte	0
 7972 035d 3C       		.uleb128 0x3c
 7973 035e 34       		.uleb128 0x34
 7974 035f 00       		.byte	0
 7975 0360 03       		.uleb128 0x3
 7976 0361 0E       		.uleb128 0xe
 7977 0362 3A       		.uleb128 0x3a
 7978 0363 0B       		.uleb128 0xb
 7979 0364 3B       		.uleb128 0x3b
 7980 0365 0B       		.uleb128 0xb
 7981 0366 49       		.uleb128 0x49
 7982 0367 13       		.uleb128 0x13
 7983 0368 3F       		.uleb128 0x3f
 7984 0369 19       		.uleb128 0x19
 7985 036a 3C       		.uleb128 0x3c
 7986 036b 19       		.uleb128 0x19
 7987 036c 00       		.byte	0
 7988 036d 00       		.byte	0
 7989 036e 3D       		.uleb128 0x3d
 7990 036f 21       		.uleb128 0x21
 7991 0370 00       		.byte	0
 7992 0371 00       		.byte	0
 7993 0372 00       		.byte	0
 7994 0373 3E       		.uleb128 0x3e
 7995 0374 2E       		.uleb128 0x2e
 7996 0375 01       		.byte	0x1
 7997 0376 3F       		.uleb128 0x3f
 7998 0377 19       		.uleb128 0x19
ARM GAS  C:\Users\Petro\AppData\Local\Temp\ccPFwMgj.s 			page 157


 7999 0378 03       		.uleb128 0x3
 8000 0379 0E       		.uleb128 0xe
 8001 037a 3A       		.uleb128 0x3a
 8002 037b 0B       		.uleb128 0xb
 8003 037c 3B       		.uleb128 0x3b
 8004 037d 0B       		.uleb128 0xb
 8005 037e 27       		.uleb128 0x27
 8006 037f 19       		.uleb128 0x19
 8007 0380 49       		.uleb128 0x49
 8008 0381 13       		.uleb128 0x13
 8009 0382 3C       		.uleb128 0x3c
 8010 0383 19       		.uleb128 0x19
 8011 0384 01       		.uleb128 0x1
 8012 0385 13       		.uleb128 0x13
 8013 0386 00       		.byte	0
 8014 0387 00       		.byte	0
 8015 0388 3F       		.uleb128 0x3f
 8016 0389 2E       		.uleb128 0x2e
 8017 038a 01       		.byte	0x1
 8018 038b 3F       		.uleb128 0x3f
 8019 038c 19       		.uleb128 0x19
 8020 038d 03       		.uleb128 0x3
 8021 038e 0E       		.uleb128 0xe
 8022 038f 27       		.uleb128 0x27
 8023 0390 19       		.uleb128 0x19
 8024 0391 49       		.uleb128 0x49
 8025 0392 13       		.uleb128 0x13
 8026 0393 34       		.uleb128 0x34
 8027 0394 19       		.uleb128 0x19
 8028 0395 3C       		.uleb128 0x3c
 8029 0396 19       		.uleb128 0x19
 8030 0397 01       		.uleb128 0x1
 8031 0398 13       		.uleb128 0x13
 8032 0399 00       		.byte	0
 8033 039a 00       		.byte	0
 8034 039b 40       		.uleb128 0x40
 8035 039c 2E       		.uleb128 0x2e
 8036 039d 01       		.byte	0x1
 8037 039e 3F       		.uleb128 0x3f
 8038 039f 19       		.uleb128 0x19
 8039 03a0 03       		.uleb128 0x3
 8040 03a1 0E       		.uleb128 0xe
 8041 03a2 3A       		.uleb128 0x3a
 8042 03a3 0B       		.uleb128 0xb
 8043 03a4 3B       		.uleb128 0x3b
 8044 03a5 0B       		.uleb128 0xb
 8045 03a6 27       		.uleb128 0x27
 8046 03a7 19       		.uleb128 0x19
 8047 03a8 3C       		.uleb128 0x3c
 8048 03a9 19       		.uleb128 0x19
 8049 03aa 01       		.uleb128 0x1
 8050 03ab 13       		.uleb128 0x13
 8051 03ac 00       		.byte	0
 8052 03ad 00       		.byte	0
 8053 03ae 41       		.uleb128 0x41
 8054 03af 2E       		.uleb128 0x2e
 8055 03b0 01       		.byte	0x1
ARM GAS  C:\Users\Petro\AppData\Local\Temp\ccPFwMgj.s 			page 158


 8056 03b1 3F       		.uleb128 0x3f
 8057 03b2 19       		.uleb128 0x19
 8058 03b3 03       		.uleb128 0x3
 8059 03b4 0E       		.uleb128 0xe
 8060 03b5 3A       		.uleb128 0x3a
 8061 03b6 0B       		.uleb128 0xb
 8062 03b7 3B       		.uleb128 0x3b
 8063 03b8 0B       		.uleb128 0xb
 8064 03b9 27       		.uleb128 0x27
 8065 03ba 19       		.uleb128 0x19
 8066 03bb 49       		.uleb128 0x49
 8067 03bc 13       		.uleb128 0x13
 8068 03bd 3C       		.uleb128 0x3c
 8069 03be 19       		.uleb128 0x19
 8070 03bf 00       		.byte	0
 8071 03c0 00       		.byte	0
 8072 03c1 00       		.byte	0
 8073              		.section	.debug_loc,"",%progbits
 8074              	.Ldebug_loc0:
 8075              	.LLST0:
 8076 0000 00000000 		.4byte	.LVL0
 8077 0004 1A000000 		.4byte	.LVL5
 8078 0008 0100     		.2byte	0x1
 8079 000a 50       		.byte	0x50
 8080 000b 1A000000 		.4byte	.LVL5
 8081 000f E8000000 		.4byte	.LVL31
 8082 0013 0100     		.2byte	0x1
 8083 0015 55       		.byte	0x55
 8084 0016 E8000000 		.4byte	.LVL31
 8085 001a F8000000 		.4byte	.LFE18
 8086 001e 0400     		.2byte	0x4
 8087 0020 F3       		.byte	0xf3
 8088 0021 01       		.uleb128 0x1
 8089 0022 50       		.byte	0x50
 8090 0023 9F       		.byte	0x9f
 8091 0024 00000000 		.4byte	0
 8092 0028 00000000 		.4byte	0
 8093              	.LLST1:
 8094 002c 00000000 		.4byte	.LVL0
 8095 0030 14000000 		.4byte	.LVL4
 8096 0034 0100     		.2byte	0x1
 8097 0036 51       		.byte	0x51
 8098 0037 14000000 		.4byte	.LVL4
 8099 003b F8000000 		.4byte	.LFE18
 8100 003f 0400     		.2byte	0x4
 8101 0041 F3       		.byte	0xf3
 8102 0042 01       		.uleb128 0x1
 8103 0043 51       		.byte	0x51
 8104 0044 9F       		.byte	0x9f
 8105 0045 00000000 		.4byte	0
 8106 0049 00000000 		.4byte	0
 8107              	.LLST2:
 8108 004d 00000000 		.4byte	.LVL0
 8109 0051 12000000 		.4byte	.LVL3
 8110 0055 0100     		.2byte	0x1
 8111 0057 52       		.byte	0x52
 8112 0058 12000000 		.4byte	.LVL3
ARM GAS  C:\Users\Petro\AppData\Local\Temp\ccPFwMgj.s 			page 159


 8113 005c F8000000 		.4byte	.LFE18
 8114 0060 0400     		.2byte	0x4
 8115 0062 F3       		.byte	0xf3
 8116 0063 01       		.uleb128 0x1
 8117 0064 52       		.byte	0x52
 8118 0065 9F       		.byte	0x9f
 8119 0066 00000000 		.4byte	0
 8120 006a 00000000 		.4byte	0
 8121              	.LLST3:
 8122 006e 00000000 		.4byte	.LVL0
 8123 0072 10000000 		.4byte	.LVL2
 8124 0076 0100     		.2byte	0x1
 8125 0078 53       		.byte	0x53
 8126 0079 10000000 		.4byte	.LVL2
 8127 007d 7C000000 		.4byte	.LVL17
 8128 0081 0100     		.2byte	0x1
 8129 0083 59       		.byte	0x59
 8130 0084 7C000000 		.4byte	.LVL17
 8131 0088 88000000 		.4byte	.LVL19
 8132 008c 0100     		.2byte	0x1
 8133 008e 54       		.byte	0x54
 8134 008f 88000000 		.4byte	.LVL19
 8135 0093 90000000 		.4byte	.LVL20
 8136 0097 0100     		.2byte	0x1
 8137 0099 53       		.byte	0x53
 8138 009a 90000000 		.4byte	.LVL20
 8139 009e 96000000 		.4byte	.LVL22
 8140 00a2 0F00     		.2byte	0xf
 8141 00a4 71       		.byte	0x71
 8142 00a5 03       		.sleb128 3
 8143 00a6 94       		.byte	0x94
 8144 00a7 01       		.byte	0x1
 8145 00a8 08       		.byte	0x8
 8146 00a9 FF       		.byte	0xff
 8147 00aa 1A       		.byte	0x1a
 8148 00ab 34       		.byte	0x34
 8149 00ac 25       		.byte	0x25
 8150 00ad 4C       		.byte	0x4c
 8151 00ae 24       		.byte	0x24
 8152 00af 74       		.byte	0x74
 8153 00b0 00       		.sleb128 0
 8154 00b1 21       		.byte	0x21
 8155 00b2 9F       		.byte	0x9f
 8156 00b3 D8000000 		.4byte	.LVL27
 8157 00b7 E4000000 		.4byte	.LVL29
 8158 00bb 0100     		.2byte	0x1
 8159 00bd 59       		.byte	0x59
 8160 00be 00000000 		.4byte	0
 8161 00c2 00000000 		.4byte	0
 8162              	.LLST4:
 8163 00c6 0E000000 		.4byte	.LVL1
 8164 00ca 2E000000 		.4byte	.LVL9
 8165 00ce 0100     		.2byte	0x1
 8166 00d0 56       		.byte	0x56
 8167 00d1 2E000000 		.4byte	.LVL9
 8168 00d5 4C000000 		.4byte	.LVL10
 8169 00d9 0100     		.2byte	0x1
ARM GAS  C:\Users\Petro\AppData\Local\Temp\ccPFwMgj.s 			page 160


 8170 00db 51       		.byte	0x51
 8171 00dc 4C000000 		.4byte	.LVL10
 8172 00e0 E8000000 		.4byte	.LVL32
 8173 00e4 0100     		.2byte	0x1
 8174 00e6 56       		.byte	0x56
 8175 00e7 00000000 		.4byte	0
 8176 00eb 00000000 		.4byte	0
 8177              	.LLST5:
 8178 00ef 24000000 		.4byte	.LVL7
 8179 00f3 E8000000 		.4byte	.LVL33
 8180 00f7 0100     		.2byte	0x1
 8181 00f9 58       		.byte	0x58
 8182 00fa 00000000 		.4byte	0
 8183 00fe 00000000 		.4byte	0
 8184              	.LLST6:
 8185 0102 4C000000 		.4byte	.LVL10
 8186 0106 58000000 		.4byte	.LVL12
 8187 010a 0200     		.2byte	0x2
 8188 010c 31       		.byte	0x31
 8189 010d 9F       		.byte	0x9f
 8190 010e D8000000 		.4byte	.LVL27
 8191 0112 DE000000 		.4byte	.LVL28
 8192 0116 0200     		.2byte	0x2
 8193 0118 31       		.byte	0x31
 8194 0119 9F       		.byte	0x9f
 8195 011a 00000000 		.4byte	0
 8196 011e 00000000 		.4byte	0
 8197              	.LLST7:
 8198 0122 4C000000 		.4byte	.LVL10
 8199 0126 53000000 		.4byte	.LVL11-1
 8200 012a 0100     		.2byte	0x1
 8201 012c 51       		.byte	0x51
 8202 012d 00000000 		.4byte	0
 8203 0131 00000000 		.4byte	0
 8204              	.LLST8:
 8205 0135 4C000000 		.4byte	.LVL10
 8206 0139 53000000 		.4byte	.LVL11-1
 8207 013d 0100     		.2byte	0x1
 8208 013f 50       		.byte	0x50
 8209 0140 00000000 		.4byte	0
 8210 0144 00000000 		.4byte	0
 8211              	.LLST9:
 8212 0148 68000000 		.4byte	.LVL13
 8213 014c 76000000 		.4byte	.LVL16
 8214 0150 0200     		.2byte	0x2
 8215 0152 31       		.byte	0x31
 8216 0153 9F       		.byte	0x9f
 8217 0154 DE000000 		.4byte	.LVL28
 8218 0158 E4000000 		.4byte	.LVL29
 8219 015c 0200     		.2byte	0x2
 8220 015e 31       		.byte	0x31
 8221 015f 9F       		.byte	0x9f
 8222 0160 00000000 		.4byte	0
 8223 0164 00000000 		.4byte	0
 8224              	.LLST10:
 8225 0168 68000000 		.4byte	.LVL13
 8226 016c 6E000000 		.4byte	.LVL14
ARM GAS  C:\Users\Petro\AppData\Local\Temp\ccPFwMgj.s 			page 161


 8227 0170 0100     		.2byte	0x1
 8228 0172 52       		.byte	0x52
 8229 0173 6E000000 		.4byte	.LVL14
 8230 0177 71000000 		.4byte	.LVL15-1
 8231 017b 0100     		.2byte	0x1
 8232 017d 51       		.byte	0x51
 8233 017e 71000000 		.4byte	.LVL15-1
 8234 0182 76000000 		.4byte	.LVL16
 8235 0186 0100     		.2byte	0x1
 8236 0188 58       		.byte	0x58
 8237 0189 DE000000 		.4byte	.LVL28
 8238 018d E4000000 		.4byte	.LVL29
 8239 0191 0100     		.2byte	0x1
 8240 0193 58       		.byte	0x58
 8241 0194 00000000 		.4byte	0
 8242 0198 00000000 		.4byte	0
 8243              	.LLST11:
 8244 019c 68000000 		.4byte	.LVL13
 8245 01a0 71000000 		.4byte	.LVL15-1
 8246 01a4 0100     		.2byte	0x1
 8247 01a6 50       		.byte	0x50
 8248 01a7 00000000 		.4byte	0
 8249 01ab 00000000 		.4byte	0
 8250              	.LLST12:
 8251 01af 80000000 		.4byte	.LVL18
 8252 01b3 B4000000 		.4byte	.LVL23
 8253 01b7 0100     		.2byte	0x1
 8254 01b9 51       		.byte	0x51
 8255 01ba BA000000 		.4byte	.LVL24
 8256 01be BB000000 		.4byte	.LVL25-1
 8257 01c2 0600     		.2byte	0x6
 8258 01c4 76       		.byte	0x76
 8259 01c5 00       		.sleb128 0
 8260 01c6 73       		.byte	0x73
 8261 01c7 00       		.sleb128 0
 8262 01c8 22       		.byte	0x22
 8263 01c9 9F       		.byte	0x9f
 8264 01ca 00000000 		.4byte	0
 8265 01ce 00000000 		.4byte	0
 8266              	.LLST13:
 8267 01d2 80000000 		.4byte	.LVL18
 8268 01d6 B4000000 		.4byte	.LVL23
 8269 01da 0300     		.2byte	0x3
 8270 01dc 71       		.byte	0x71
 8271 01dd 02       		.sleb128 2
 8272 01de 9F       		.byte	0x9f
 8273 01df BA000000 		.4byte	.LVL24
 8274 01e3 BB000000 		.4byte	.LVL25-1
 8275 01e7 0800     		.2byte	0x8
 8276 01e9 73       		.byte	0x73
 8277 01ea 00       		.sleb128 0
 8278 01eb 76       		.byte	0x76
 8279 01ec 00       		.sleb128 0
 8280 01ed 22       		.byte	0x22
 8281 01ee 23       		.byte	0x23
 8282 01ef 02       		.uleb128 0x2
 8283 01f0 9F       		.byte	0x9f
ARM GAS  C:\Users\Petro\AppData\Local\Temp\ccPFwMgj.s 			page 162


 8284 01f1 00000000 		.4byte	0
 8285 01f5 00000000 		.4byte	0
 8286              	.LLST14:
 8287 01f9 88000000 		.4byte	.LVL19
 8288 01fd 90000000 		.4byte	.LVL20
 8289 0201 0100     		.2byte	0x1
 8290 0203 53       		.byte	0x53
 8291 0204 90000000 		.4byte	.LVL20
 8292 0208 96000000 		.4byte	.LVL22
 8293 020c 0F00     		.2byte	0xf
 8294 020e 71       		.byte	0x71
 8295 020f 03       		.sleb128 3
 8296 0210 94       		.byte	0x94
 8297 0211 01       		.byte	0x1
 8298 0212 08       		.byte	0x8
 8299 0213 FF       		.byte	0xff
 8300 0214 1A       		.byte	0x1a
 8301 0215 34       		.byte	0x34
 8302 0216 25       		.byte	0x25
 8303 0217 4C       		.byte	0x4c
 8304 0218 24       		.byte	0x24
 8305 0219 74       		.byte	0x74
 8306 021a 00       		.sleb128 0
 8307 021b 21       		.byte	0x21
 8308 021c 9F       		.byte	0x9f
 8309 021d 00000000 		.4byte	0
 8310 0221 00000000 		.4byte	0
 8311              	.LLST15:
 8312 0225 88000000 		.4byte	.LVL19
 8313 0229 B4000000 		.4byte	.LVL23
 8314 022d 0100     		.2byte	0x1
 8315 022f 51       		.byte	0x51
 8316 0230 BA000000 		.4byte	.LVL24
 8317 0234 BB000000 		.4byte	.LVL25-1
 8318 0238 0600     		.2byte	0x6
 8319 023a 76       		.byte	0x76
 8320 023b 00       		.sleb128 0
 8321 023c 73       		.byte	0x73
 8322 023d 00       		.sleb128 0
 8323 023e 22       		.byte	0x22
 8324 023f 9F       		.byte	0x9f
 8325 0240 00000000 		.4byte	0
 8326 0244 00000000 		.4byte	0
 8327              	.LLST18:
 8328 0248 90000000 		.4byte	.LVL20
 8329 024c 94000000 		.4byte	.LVL21
 8330 0250 0100     		.2byte	0x1
 8331 0252 53       		.byte	0x53
 8332 0253 94000000 		.4byte	.LVL21
 8333 0257 96000000 		.4byte	.LVL22
 8334 025b 1100     		.2byte	0x11
 8335 025d 71       		.byte	0x71
 8336 025e 03       		.sleb128 3
 8337 025f 94       		.byte	0x94
 8338 0260 01       		.byte	0x1
 8339 0261 08       		.byte	0x8
 8340 0262 FF       		.byte	0xff
ARM GAS  C:\Users\Petro\AppData\Local\Temp\ccPFwMgj.s 			page 163


 8341 0263 1A       		.byte	0x1a
 8342 0264 34       		.byte	0x34
 8343 0265 25       		.byte	0x25
 8344 0266 4C       		.byte	0x4c
 8345 0267 24       		.byte	0x24
 8346 0268 74       		.byte	0x74
 8347 0269 00       		.sleb128 0
 8348 026a 21       		.byte	0x21
 8349 026b 40       		.byte	0x40
 8350 026c 25       		.byte	0x25
 8351 026d 9F       		.byte	0x9f
 8352 026e 00000000 		.4byte	0
 8353 0272 00000000 		.4byte	0
 8354              	.LLST19:
 8355 0276 90000000 		.4byte	.LVL20
 8356 027a B4000000 		.4byte	.LVL23
 8357 027e 0300     		.2byte	0x3
 8358 0280 71       		.byte	0x71
 8359 0281 02       		.sleb128 2
 8360 0282 9F       		.byte	0x9f
 8361 0283 BA000000 		.4byte	.LVL24
 8362 0287 BB000000 		.4byte	.LVL25-1
 8363 028b 0800     		.2byte	0x8
 8364 028d 73       		.byte	0x73
 8365 028e 00       		.sleb128 0
 8366 028f 76       		.byte	0x76
 8367 0290 00       		.sleb128 0
 8368 0291 22       		.byte	0x22
 8369 0292 23       		.byte	0x23
 8370 0293 02       		.uleb128 0x2
 8371 0294 9F       		.byte	0x9f
 8372 0295 00000000 		.4byte	0
 8373 0299 00000000 		.4byte	0
 8374              	.LLST20:
 8375 029d B4000000 		.4byte	.LVL23
 8376 02a1 C0000000 		.4byte	.LVL26
 8377 02a5 0200     		.2byte	0x2
 8378 02a7 31       		.byte	0x31
 8379 02a8 9F       		.byte	0x9f
 8380 02a9 E4000000 		.4byte	.LVL29
 8381 02ad E8000000 		.4byte	.LVL30
 8382 02b1 0200     		.2byte	0x2
 8383 02b3 31       		.byte	0x31
 8384 02b4 9F       		.byte	0x9f
 8385 02b5 00000000 		.4byte	0
 8386 02b9 00000000 		.4byte	0
 8387              	.LLST21:
 8388 02bd B4000000 		.4byte	.LVL23
 8389 02c1 BB000000 		.4byte	.LVL25-1
 8390 02c5 0100     		.2byte	0x1
 8391 02c7 51       		.byte	0x51
 8392 02c8 00000000 		.4byte	0
 8393 02cc 00000000 		.4byte	0
 8394              	.LLST22:
 8395 02d0 B4000000 		.4byte	.LVL23
 8396 02d4 BB000000 		.4byte	.LVL25-1
 8397 02d8 0100     		.2byte	0x1
ARM GAS  C:\Users\Petro\AppData\Local\Temp\ccPFwMgj.s 			page 164


 8398 02da 50       		.byte	0x50
 8399 02db 00000000 		.4byte	0
 8400 02df 00000000 		.4byte	0
 8401              	.LLST23:
 8402 02e3 00000000 		.4byte	.LVL34
 8403 02e7 18000000 		.4byte	.LVL39
 8404 02eb 0100     		.2byte	0x1
 8405 02ed 50       		.byte	0x50
 8406 02ee 18000000 		.4byte	.LVL39
 8407 02f2 CE000000 		.4byte	.LVL60
 8408 02f6 0100     		.2byte	0x1
 8409 02f8 54       		.byte	0x54
 8410 02f9 CE000000 		.4byte	.LVL60
 8411 02fd DC000000 		.4byte	.LFE19
 8412 0301 0400     		.2byte	0x4
 8413 0303 F3       		.byte	0xf3
 8414 0304 01       		.uleb128 0x1
 8415 0305 50       		.byte	0x50
 8416 0306 9F       		.byte	0x9f
 8417 0307 00000000 		.4byte	0
 8418 030b 00000000 		.4byte	0
 8419              	.LLST24:
 8420 030f 00000000 		.4byte	.LVL34
 8421 0313 12000000 		.4byte	.LVL38
 8422 0317 0100     		.2byte	0x1
 8423 0319 51       		.byte	0x51
 8424 031a 12000000 		.4byte	.LVL38
 8425 031e DC000000 		.4byte	.LFE19
 8426 0322 0400     		.2byte	0x4
 8427 0324 F3       		.byte	0xf3
 8428 0325 01       		.uleb128 0x1
 8429 0326 51       		.byte	0x51
 8430 0327 9F       		.byte	0x9f
 8431 0328 00000000 		.4byte	0
 8432 032c 00000000 		.4byte	0
 8433              	.LLST25:
 8434 0330 00000000 		.4byte	.LVL34
 8435 0334 10000000 		.4byte	.LVL37
 8436 0338 0100     		.2byte	0x1
 8437 033a 52       		.byte	0x52
 8438 033b 10000000 		.4byte	.LVL37
 8439 033f DC000000 		.4byte	.LFE19
 8440 0343 0400     		.2byte	0x4
 8441 0345 F3       		.byte	0xf3
 8442 0346 01       		.uleb128 0x1
 8443 0347 52       		.byte	0x52
 8444 0348 9F       		.byte	0x9f
 8445 0349 00000000 		.4byte	0
 8446 034d 00000000 		.4byte	0
 8447              	.LLST26:
 8448 0351 00000000 		.4byte	.LVL34
 8449 0355 0E000000 		.4byte	.LVL36
 8450 0359 0100     		.2byte	0x1
 8451 035b 53       		.byte	0x53
 8452 035c 0E000000 		.4byte	.LVL36
 8453 0360 DC000000 		.4byte	.LFE19
 8454 0364 0400     		.2byte	0x4
ARM GAS  C:\Users\Petro\AppData\Local\Temp\ccPFwMgj.s 			page 165


 8455 0366 F3       		.byte	0xf3
 8456 0367 01       		.uleb128 0x1
 8457 0368 53       		.byte	0x53
 8458 0369 9F       		.byte	0x9f
 8459 036a 00000000 		.4byte	0
 8460 036e 00000000 		.4byte	0
 8461              	.LLST27:
 8462 0372 0C000000 		.4byte	.LVL35
 8463 0376 2A000000 		.4byte	.LVL43
 8464 037a 0100     		.2byte	0x1
 8465 037c 56       		.byte	0x56
 8466 037d 2A000000 		.4byte	.LVL43
 8467 0381 48000000 		.4byte	.LVL44
 8468 0385 0100     		.2byte	0x1
 8469 0387 51       		.byte	0x51
 8470 0388 48000000 		.4byte	.LVL44
 8471 038c 9E000000 		.4byte	.LVL53
 8472 0390 0100     		.2byte	0x1
 8473 0392 56       		.byte	0x56
 8474 0393 BE000000 		.4byte	.LVL56
 8475 0397 CA000000 		.4byte	.LVL58
 8476 039b 0100     		.2byte	0x1
 8477 039d 56       		.byte	0x56
 8478 039e 00000000 		.4byte	0
 8479 03a2 00000000 		.4byte	0
 8480              	.LLST28:
 8481 03a6 20000000 		.4byte	.LVL41
 8482 03aa CE000000 		.4byte	.LVL61
 8483 03ae 0100     		.2byte	0x1
 8484 03b0 55       		.byte	0x55
 8485 03b1 00000000 		.4byte	0
 8486 03b5 00000000 		.4byte	0
 8487              	.LLST29:
 8488 03b9 48000000 		.4byte	.LVL44
 8489 03bd 54000000 		.4byte	.LVL46
 8490 03c1 0200     		.2byte	0x2
 8491 03c3 31       		.byte	0x31
 8492 03c4 9F       		.byte	0x9f
 8493 03c5 BE000000 		.4byte	.LVL56
 8494 03c9 C4000000 		.4byte	.LVL57
 8495 03cd 0200     		.2byte	0x2
 8496 03cf 31       		.byte	0x31
 8497 03d0 9F       		.byte	0x9f
 8498 03d1 00000000 		.4byte	0
 8499 03d5 00000000 		.4byte	0
 8500              	.LLST30:
 8501 03d9 48000000 		.4byte	.LVL44
 8502 03dd 4F000000 		.4byte	.LVL45-1
 8503 03e1 0100     		.2byte	0x1
 8504 03e3 51       		.byte	0x51
 8505 03e4 00000000 		.4byte	0
 8506 03e8 00000000 		.4byte	0
 8507              	.LLST31:
 8508 03ec 48000000 		.4byte	.LVL44
 8509 03f0 4F000000 		.4byte	.LVL45-1
 8510 03f4 0100     		.2byte	0x1
 8511 03f6 50       		.byte	0x50
ARM GAS  C:\Users\Petro\AppData\Local\Temp\ccPFwMgj.s 			page 166


 8512 03f7 00000000 		.4byte	0
 8513 03fb 00000000 		.4byte	0
 8514              	.LLST32:
 8515 03ff 62000000 		.4byte	.LVL47
 8516 0403 70000000 		.4byte	.LVL50
 8517 0407 0200     		.2byte	0x2
 8518 0409 31       		.byte	0x31
 8519 040a 9F       		.byte	0x9f
 8520 040b C4000000 		.4byte	.LVL57
 8521 040f CA000000 		.4byte	.LVL58
 8522 0413 0200     		.2byte	0x2
 8523 0415 31       		.byte	0x31
 8524 0416 9F       		.byte	0x9f
 8525 0417 00000000 		.4byte	0
 8526 041b 00000000 		.4byte	0
 8527              	.LLST33:
 8528 041f 62000000 		.4byte	.LVL47
 8529 0423 6A000000 		.4byte	.LVL48
 8530 0427 0200     		.2byte	0x2
 8531 0429 73       		.byte	0x73
 8532 042a 08       		.sleb128 8
 8533 042b 6A000000 		.4byte	.LVL48
 8534 042f 6B000000 		.4byte	.LVL49-1
 8535 0433 0100     		.2byte	0x1
 8536 0435 51       		.byte	0x51
 8537 0436 6B000000 		.4byte	.LVL49-1
 8538 043a 70000000 		.4byte	.LVL50
 8539 043e 0100     		.2byte	0x1
 8540 0440 55       		.byte	0x55
 8541 0441 C4000000 		.4byte	.LVL57
 8542 0445 CA000000 		.4byte	.LVL58
 8543 0449 0100     		.2byte	0x1
 8544 044b 55       		.byte	0x55
 8545 044c 00000000 		.4byte	0
 8546 0450 00000000 		.4byte	0
 8547              	.LLST34:
 8548 0454 62000000 		.4byte	.LVL47
 8549 0458 6B000000 		.4byte	.LVL49-1
 8550 045c 0100     		.2byte	0x1
 8551 045e 50       		.byte	0x50
 8552 045f 00000000 		.4byte	0
 8553 0463 00000000 		.4byte	0
 8554              	.LLST35:
 8555 0467 74000000 		.4byte	.LVL51
 8556 046b BE000000 		.4byte	.LVL56
 8557 046f 0100     		.2byte	0x1
 8558 0471 58       		.byte	0x58
 8559 0472 CA000000 		.4byte	.LVL58
 8560 0476 CE000000 		.4byte	.LVL59
 8561 047a 0100     		.2byte	0x1
 8562 047c 58       		.byte	0x58
 8563 047d 00000000 		.4byte	0
 8564 0481 00000000 		.4byte	0
 8565              	.LLST36:
 8566 0485 74000000 		.4byte	.LVL51
 8567 0489 9C000000 		.4byte	.LVL52
 8568 048d 0100     		.2byte	0x1
ARM GAS  C:\Users\Petro\AppData\Local\Temp\ccPFwMgj.s 			page 167


 8569 048f 51       		.byte	0x51
 8570 0490 00000000 		.4byte	0
 8571 0494 00000000 		.4byte	0
 8572              	.LLST37:
 8573 0498 9C000000 		.4byte	.LVL52
 8574 049c A8000000 		.4byte	.LVL55
 8575 04a0 0200     		.2byte	0x2
 8576 04a2 31       		.byte	0x31
 8577 04a3 9F       		.byte	0x9f
 8578 04a4 CA000000 		.4byte	.LVL58
 8579 04a8 CE000000 		.4byte	.LVL59
 8580 04ac 0200     		.2byte	0x2
 8581 04ae 31       		.byte	0x31
 8582 04af 9F       		.byte	0x9f
 8583 04b0 00000000 		.4byte	0
 8584 04b4 00000000 		.4byte	0
 8585              	.LLST38:
 8586 04b8 9C000000 		.4byte	.LVL52
 8587 04bc A3000000 		.4byte	.LVL54-1
 8588 04c0 0100     		.2byte	0x1
 8589 04c2 51       		.byte	0x51
 8590 04c3 00000000 		.4byte	0
 8591 04c7 00000000 		.4byte	0
 8592              	.LLST39:
 8593 04cb 9C000000 		.4byte	.LVL52
 8594 04cf A3000000 		.4byte	.LVL54-1
 8595 04d3 0100     		.2byte	0x1
 8596 04d5 50       		.byte	0x50
 8597 04d6 00000000 		.4byte	0
 8598 04da 00000000 		.4byte	0
 8599              	.LLST40:
 8600 04de 00000000 		.4byte	.LVL62
 8601 04e2 20000000 		.4byte	.LVL67
 8602 04e6 0100     		.2byte	0x1
 8603 04e8 50       		.byte	0x50
 8604 04e9 20000000 		.4byte	.LVL67
 8605 04ed 60020000 		.4byte	.LVL128
 8606 04f1 0100     		.2byte	0x1
 8607 04f3 54       		.byte	0x54
 8608 04f4 60020000 		.4byte	.LVL128
 8609 04f8 70020000 		.4byte	.LFE20
 8610 04fc 0400     		.2byte	0x4
 8611 04fe F3       		.byte	0xf3
 8612 04ff 01       		.uleb128 0x1
 8613 0500 50       		.byte	0x50
 8614 0501 9F       		.byte	0x9f
 8615 0502 00000000 		.4byte	0
 8616 0506 00000000 		.4byte	0
 8617              	.LLST41:
 8618 050a 00000000 		.4byte	.LVL62
 8619 050e 18000000 		.4byte	.LVL66
 8620 0512 0100     		.2byte	0x1
 8621 0514 51       		.byte	0x51
 8622 0515 18000000 		.4byte	.LVL66
 8623 0519 70020000 		.4byte	.LFE20
 8624 051d 0400     		.2byte	0x4
 8625 051f F3       		.byte	0xf3
ARM GAS  C:\Users\Petro\AppData\Local\Temp\ccPFwMgj.s 			page 168


 8626 0520 01       		.uleb128 0x1
 8627 0521 51       		.byte	0x51
 8628 0522 9F       		.byte	0x9f
 8629 0523 00000000 		.4byte	0
 8630 0527 00000000 		.4byte	0
 8631              	.LLST42:
 8632 052b 00000000 		.4byte	.LVL62
 8633 052f 16000000 		.4byte	.LVL65
 8634 0533 0100     		.2byte	0x1
 8635 0535 52       		.byte	0x52
 8636 0536 16000000 		.4byte	.LVL65
 8637 053a 70020000 		.4byte	.LFE20
 8638 053e 0400     		.2byte	0x4
 8639 0540 F3       		.byte	0xf3
 8640 0541 01       		.uleb128 0x1
 8641 0542 52       		.byte	0x52
 8642 0543 9F       		.byte	0x9f
 8643 0544 00000000 		.4byte	0
 8644 0548 00000000 		.4byte	0
 8645              	.LLST43:
 8646 054c 00000000 		.4byte	.LVL62
 8647 0550 14000000 		.4byte	.LVL64
 8648 0554 0100     		.2byte	0x1
 8649 0556 53       		.byte	0x53
 8650 0557 14000000 		.4byte	.LVL64
 8651 055b 92000000 		.4byte	.LVL79
 8652 055f 0400     		.2byte	0x4
 8653 0561 F3       		.byte	0xf3
 8654 0562 01       		.uleb128 0x1
 8655 0563 53       		.byte	0x53
 8656 0564 9F       		.byte	0x9f
 8657 0565 92000000 		.4byte	.LVL79
 8658 0569 1C010000 		.4byte	.LVL91
 8659 056d 0100     		.2byte	0x1
 8660 056f 55       		.byte	0x55
 8661 0570 1C010000 		.4byte	.LVL91
 8662 0574 24010000 		.4byte	.LVL92
 8663 0578 0500     		.2byte	0x5
 8664 057a 79       		.byte	0x79
 8665 057b 00       		.sleb128 0
 8666 057c 34       		.byte	0x34
 8667 057d 24       		.byte	0x24
 8668 057e 9F       		.byte	0x9f
 8669 057f 24010000 		.4byte	.LVL92
 8670 0583 C0010000 		.4byte	.LVL105
 8671 0587 0400     		.2byte	0x4
 8672 0589 F3       		.byte	0xf3
 8673 058a 01       		.uleb128 0x1
 8674 058b 53       		.byte	0x53
 8675 058c 9F       		.byte	0x9f
 8676 058d C0010000 		.4byte	.LVL105
 8677 0591 CA010000 		.4byte	.LVL106
 8678 0595 0100     		.2byte	0x1
 8679 0597 53       		.byte	0x53
 8680 0598 CA010000 		.4byte	.LVL106
 8681 059c CC010000 		.4byte	.LVL107
 8682 05a0 0100     		.2byte	0x1
ARM GAS  C:\Users\Petro\AppData\Local\Temp\ccPFwMgj.s 			page 169


 8683 05a2 55       		.byte	0x55
 8684 05a3 CC010000 		.4byte	.LVL107
 8685 05a7 D2010000 		.4byte	.LVL108
 8686 05ab 0400     		.2byte	0x4
 8687 05ad F3       		.byte	0xf3
 8688 05ae 01       		.uleb128 0x1
 8689 05af 53       		.byte	0x53
 8690 05b0 9F       		.byte	0x9f
 8691 05b1 D2010000 		.4byte	.LVL108
 8692 05b5 E8010000 		.4byte	.LVL113
 8693 05b9 0100     		.2byte	0x1
 8694 05bb 55       		.byte	0x55
 8695 05bc 2C020000 		.4byte	.LVL118
 8696 05c0 38020000 		.4byte	.LVL120
 8697 05c4 0400     		.2byte	0x4
 8698 05c6 F3       		.byte	0xf3
 8699 05c7 01       		.uleb128 0x1
 8700 05c8 53       		.byte	0x53
 8701 05c9 9F       		.byte	0x9f
 8702 05ca 38020000 		.4byte	.LVL120
 8703 05ce 4A020000 		.4byte	.LVL123
 8704 05d2 0100     		.2byte	0x1
 8705 05d4 55       		.byte	0x55
 8706 05d5 4A020000 		.4byte	.LVL123
 8707 05d9 5C020000 		.4byte	.LVL126
 8708 05dd 0400     		.2byte	0x4
 8709 05df F3       		.byte	0xf3
 8710 05e0 01       		.uleb128 0x1
 8711 05e1 53       		.byte	0x53
 8712 05e2 9F       		.byte	0x9f
 8713 05e3 00000000 		.4byte	0
 8714 05e7 00000000 		.4byte	0
 8715              	.LLST44:
 8716 05eb 12000000 		.4byte	.LVL63
 8717 05ef 32000000 		.4byte	.LVL71
 8718 05f3 0100     		.2byte	0x1
 8719 05f5 56       		.byte	0x56
 8720 05f6 32000000 		.4byte	.LVL71
 8721 05fa 50000000 		.4byte	.LVL72
 8722 05fe 0100     		.2byte	0x1
 8723 0600 51       		.byte	0x51
 8724 0601 50000000 		.4byte	.LVL72
 8725 0605 BE000000 		.4byte	.LVL81
 8726 0609 0100     		.2byte	0x1
 8727 060b 56       		.byte	0x56
 8728 060c 24010000 		.4byte	.LVL92
 8729 0610 4A010000 		.4byte	.LVL94
 8730 0614 0100     		.2byte	0x1
 8731 0616 56       		.byte	0x56
 8732 0617 B6010000 		.4byte	.LVL104
 8733 061b E4010000 		.4byte	.LVL112
 8734 061f 0100     		.2byte	0x1
 8735 0621 56       		.byte	0x56
 8736 0622 2C020000 		.4byte	.LVL118
 8737 0626 38020000 		.4byte	.LVL120
 8738 062a 0100     		.2byte	0x1
 8739 062c 56       		.byte	0x56
ARM GAS  C:\Users\Petro\AppData\Local\Temp\ccPFwMgj.s 			page 170


 8740 062d 00000000 		.4byte	0
 8741 0631 00000000 		.4byte	0
 8742              	.LLST45:
 8743 0635 28000000 		.4byte	.LVL69
 8744 0639 E2000000 		.4byte	.LVL84
 8745 063d 0100     		.2byte	0x1
 8746 063f 58       		.byte	0x58
 8747 0640 E2000000 		.4byte	.LVL84
 8748 0644 24010000 		.4byte	.LVL92
 8749 0648 0100     		.2byte	0x1
 8750 064a 56       		.byte	0x56
 8751 064b 24010000 		.4byte	.LVL92
 8752 064f 6C010000 		.4byte	.LVL97
 8753 0653 0100     		.2byte	0x1
 8754 0655 58       		.byte	0x58
 8755 0656 6C010000 		.4byte	.LVL97
 8756 065a B6010000 		.4byte	.LVL104
 8757 065e 0100     		.2byte	0x1
 8758 0660 56       		.byte	0x56
 8759 0661 B6010000 		.4byte	.LVL104
 8760 0665 3E020000 		.4byte	.LVL121
 8761 0669 0100     		.2byte	0x1
 8762 066b 58       		.byte	0x58
 8763 066c 3E020000 		.4byte	.LVL121
 8764 0670 4A020000 		.4byte	.LVL123
 8765 0674 0100     		.2byte	0x1
 8766 0676 56       		.byte	0x56
 8767 0677 4A020000 		.4byte	.LVL123
 8768 067b 50020000 		.4byte	.LVL124
 8769 067f 0100     		.2byte	0x1
 8770 0681 58       		.byte	0x58
 8771 0682 50020000 		.4byte	.LVL124
 8772 0686 5C020000 		.4byte	.LVL126
 8773 068a 0100     		.2byte	0x1
 8774 068c 56       		.byte	0x56
 8775 068d 5C020000 		.4byte	.LVL126
 8776 0691 60020000 		.4byte	.LVL127
 8777 0695 0100     		.2byte	0x1
 8778 0697 58       		.byte	0x58
 8779 0698 00000000 		.4byte	0
 8780 069c 00000000 		.4byte	0
 8781              	.LLST46:
 8782 06a0 50000000 		.4byte	.LVL72
 8783 06a4 5E000000 		.4byte	.LVL74
 8784 06a8 0200     		.2byte	0x2
 8785 06aa 31       		.byte	0x31
 8786 06ab 9F       		.byte	0x9f
 8787 06ac 2C020000 		.4byte	.LVL118
 8788 06b0 32020000 		.4byte	.LVL119
 8789 06b4 0200     		.2byte	0x2
 8790 06b6 31       		.byte	0x31
 8791 06b7 9F       		.byte	0x9f
 8792 06b8 00000000 		.4byte	0
 8793 06bc 00000000 		.4byte	0
 8794              	.LLST47:
 8795 06c0 50000000 		.4byte	.LVL72
 8796 06c4 57000000 		.4byte	.LVL73-1
ARM GAS  C:\Users\Petro\AppData\Local\Temp\ccPFwMgj.s 			page 171


 8797 06c8 0100     		.2byte	0x1
 8798 06ca 51       		.byte	0x51
 8799 06cb 00000000 		.4byte	0
 8800 06cf 00000000 		.4byte	0
 8801              	.LLST48:
 8802 06d3 50000000 		.4byte	.LVL72
 8803 06d7 57000000 		.4byte	.LVL73-1
 8804 06db 0100     		.2byte	0x1
 8805 06dd 50       		.byte	0x50
 8806 06de 00000000 		.4byte	0
 8807 06e2 00000000 		.4byte	0
 8808              	.LLST49:
 8809 06e6 6E000000 		.4byte	.LVL75
 8810 06ea 7E000000 		.4byte	.LVL78
 8811 06ee 0200     		.2byte	0x2
 8812 06f0 31       		.byte	0x31
 8813 06f1 9F       		.byte	0x9f
 8814 06f2 32020000 		.4byte	.LVL119
 8815 06f6 38020000 		.4byte	.LVL120
 8816 06fa 0200     		.2byte	0x2
 8817 06fc 31       		.byte	0x31
 8818 06fd 9F       		.byte	0x9f
 8819 06fe 00000000 		.4byte	0
 8820 0702 00000000 		.4byte	0
 8821              	.LLST50:
 8822 0706 6E000000 		.4byte	.LVL75
 8823 070a 74000000 		.4byte	.LVL76
 8824 070e 0100     		.2byte	0x1
 8825 0710 52       		.byte	0x52
 8826 0711 74000000 		.4byte	.LVL76
 8827 0715 77000000 		.4byte	.LVL77-1
 8828 0719 0100     		.2byte	0x1
 8829 071b 51       		.byte	0x51
 8830 071c 77000000 		.4byte	.LVL77-1
 8831 0720 7E000000 		.4byte	.LVL78
 8832 0724 0100     		.2byte	0x1
 8833 0726 58       		.byte	0x58
 8834 0727 32020000 		.4byte	.LVL119
 8835 072b 38020000 		.4byte	.LVL120
 8836 072f 0100     		.2byte	0x1
 8837 0731 58       		.byte	0x58
 8838 0732 00000000 		.4byte	0
 8839 0736 00000000 		.4byte	0
 8840              	.LLST51:
 8841 073a 6E000000 		.4byte	.LVL75
 8842 073e 77000000 		.4byte	.LVL77-1
 8843 0742 0100     		.2byte	0x1
 8844 0744 50       		.byte	0x50
 8845 0745 00000000 		.4byte	0
 8846 0749 00000000 		.4byte	0
 8847              	.LLST52:
 8848 074d BC000000 		.4byte	.LVL80
 8849 0751 CA000000 		.4byte	.LVL83
 8850 0755 0200     		.2byte	0x2
 8851 0757 31       		.byte	0x31
 8852 0758 9F       		.byte	0x9f
 8853 0759 38020000 		.4byte	.LVL120
ARM GAS  C:\Users\Petro\AppData\Local\Temp\ccPFwMgj.s 			page 172


 8854 075d 3E020000 		.4byte	.LVL121
 8855 0761 0200     		.2byte	0x2
 8856 0763 31       		.byte	0x31
 8857 0764 9F       		.byte	0x9f
 8858 0765 00000000 		.4byte	0
 8859 0769 00000000 		.4byte	0
 8860              	.LLST53:
 8861 076d BC000000 		.4byte	.LVL80
 8862 0771 C3000000 		.4byte	.LVL82-1
 8863 0775 0100     		.2byte	0x1
 8864 0777 51       		.byte	0x51
 8865 0778 00000000 		.4byte	0
 8866 077c 00000000 		.4byte	0
 8867              	.LLST54:
 8868 0780 BC000000 		.4byte	.LVL80
 8869 0784 C3000000 		.4byte	.LVL82-1
 8870 0788 0100     		.2byte	0x1
 8871 078a 50       		.byte	0x50
 8872 078b 00000000 		.4byte	0
 8873 078f 00000000 		.4byte	0
 8874              	.LLST55:
 8875 0793 EC000000 		.4byte	.LVL85
 8876 0797 1A010000 		.4byte	.LVL90
 8877 079b 0200     		.2byte	0x2
 8878 079d 31       		.byte	0x31
 8879 079e 9F       		.byte	0x9f
 8880 079f 3E020000 		.4byte	.LVL121
 8881 07a3 4A020000 		.4byte	.LVL123
 8882 07a7 0200     		.2byte	0x2
 8883 07a9 31       		.byte	0x31
 8884 07aa 9F       		.byte	0x9f
 8885 07ab 00000000 		.4byte	0
 8886 07af 00000000 		.4byte	0
 8887              	.LLST56:
 8888 07b3 EC000000 		.4byte	.LVL85
 8889 07b7 1A010000 		.4byte	.LVL90
 8890 07bb 0100     		.2byte	0x1
 8891 07bd 58       		.byte	0x58
 8892 07be 3E020000 		.4byte	.LVL121
 8893 07c2 4A020000 		.4byte	.LVL123
 8894 07c6 0100     		.2byte	0x1
 8895 07c8 58       		.byte	0x58
 8896 07c9 00000000 		.4byte	0
 8897 07cd 00000000 		.4byte	0
 8898              	.LLST57:
 8899 07d1 EC000000 		.4byte	.LVL85
 8900 07d5 F5000000 		.4byte	.LVL86-1
 8901 07d9 0100     		.2byte	0x1
 8902 07db 50       		.byte	0x50
 8903 07dc 00000000 		.4byte	0
 8904 07e0 00000000 		.4byte	0
 8905              	.LLST58:
 8906 07e4 0A010000 		.4byte	.LVL87
 8907 07e8 1A010000 		.4byte	.LVL90
 8908 07ec 0200     		.2byte	0x2
 8909 07ee 31       		.byte	0x31
 8910 07ef 9F       		.byte	0x9f
ARM GAS  C:\Users\Petro\AppData\Local\Temp\ccPFwMgj.s 			page 173


 8911 07f0 44020000 		.4byte	.LVL122
 8912 07f4 4A020000 		.4byte	.LVL123
 8913 07f8 0200     		.2byte	0x2
 8914 07fa 31       		.byte	0x31
 8915 07fb 9F       		.byte	0x9f
 8916 07fc 00000000 		.4byte	0
 8917 0800 00000000 		.4byte	0
 8918              	.LLST59:
 8919 0804 0A010000 		.4byte	.LVL87
 8920 0808 12010000 		.4byte	.LVL88
 8921 080c 0200     		.2byte	0x2
 8922 080e 73       		.byte	0x73
 8923 080f 08       		.sleb128 8
 8924 0810 12010000 		.4byte	.LVL88
 8925 0814 13010000 		.4byte	.LVL89-1
 8926 0818 0100     		.2byte	0x1
 8927 081a 51       		.byte	0x51
 8928 081b 13010000 		.4byte	.LVL89-1
 8929 081f 1A010000 		.4byte	.LVL90
 8930 0823 0100     		.2byte	0x1
 8931 0825 56       		.byte	0x56
 8932 0826 44020000 		.4byte	.LVL122
 8933 082a 4A020000 		.4byte	.LVL123
 8934 082e 0100     		.2byte	0x1
 8935 0830 56       		.byte	0x56
 8936 0831 00000000 		.4byte	0
 8937 0835 00000000 		.4byte	0
 8938              	.LLST60:
 8939 0839 0A010000 		.4byte	.LVL87
 8940 083d 13010000 		.4byte	.LVL89-1
 8941 0841 0100     		.2byte	0x1
 8942 0843 50       		.byte	0x50
 8943 0844 00000000 		.4byte	0
 8944 0848 00000000 		.4byte	0
 8945              	.LLST61:
 8946 084c 48010000 		.4byte	.LVL93
 8947 0850 54010000 		.4byte	.LVL96
 8948 0854 0200     		.2byte	0x2
 8949 0856 31       		.byte	0x31
 8950 0857 9F       		.byte	0x9f
 8951 0858 4A020000 		.4byte	.LVL123
 8952 085c 50020000 		.4byte	.LVL124
 8953 0860 0200     		.2byte	0x2
 8954 0862 31       		.byte	0x31
 8955 0863 9F       		.byte	0x9f
 8956 0864 00000000 		.4byte	0
 8957 0868 00000000 		.4byte	0
 8958              	.LLST62:
 8959 086c 48010000 		.4byte	.LVL93
 8960 0870 4F010000 		.4byte	.LVL95-1
 8961 0874 0100     		.2byte	0x1
 8962 0876 51       		.byte	0x51
 8963 0877 00000000 		.4byte	0
 8964 087b 00000000 		.4byte	0
 8965              	.LLST63:
 8966 087f 48010000 		.4byte	.LVL93
 8967 0883 4F010000 		.4byte	.LVL95-1
ARM GAS  C:\Users\Petro\AppData\Local\Temp\ccPFwMgj.s 			page 174


 8968 0887 0100     		.2byte	0x1
 8969 0889 50       		.byte	0x50
 8970 088a 00000000 		.4byte	0
 8971 088e 00000000 		.4byte	0
 8972              	.LLST64:
 8973 0892 76010000 		.4byte	.LVL98
 8974 0896 A0010000 		.4byte	.LVL103
 8975 089a 0200     		.2byte	0x2
 8976 089c 31       		.byte	0x31
 8977 089d 9F       		.byte	0x9f
 8978 089e 50020000 		.4byte	.LVL124
 8979 08a2 5C020000 		.4byte	.LVL126
 8980 08a6 0200     		.2byte	0x2
 8981 08a8 31       		.byte	0x31
 8982 08a9 9F       		.byte	0x9f
 8983 08aa 00000000 		.4byte	0
 8984 08ae 00000000 		.4byte	0
 8985              	.LLST65:
 8986 08b2 76010000 		.4byte	.LVL98
 8987 08b6 A0010000 		.4byte	.LVL103
 8988 08ba 0100     		.2byte	0x1
 8989 08bc 58       		.byte	0x58
 8990 08bd 50020000 		.4byte	.LVL124
 8991 08c1 5C020000 		.4byte	.LVL126
 8992 08c5 0100     		.2byte	0x1
 8993 08c7 58       		.byte	0x58
 8994 08c8 00000000 		.4byte	0
 8995 08cc 00000000 		.4byte	0
 8996              	.LLST66:
 8997 08d0 76010000 		.4byte	.LVL98
 8998 08d4 7F010000 		.4byte	.LVL99-1
 8999 08d8 0100     		.2byte	0x1
 9000 08da 50       		.byte	0x50
 9001 08db 00000000 		.4byte	0
 9002 08df 00000000 		.4byte	0
 9003              	.LLST67:
 9004 08e3 92010000 		.4byte	.LVL100
 9005 08e7 A0010000 		.4byte	.LVL103
 9006 08eb 0200     		.2byte	0x2
 9007 08ed 31       		.byte	0x31
 9008 08ee 9F       		.byte	0x9f
 9009 08ef 56020000 		.4byte	.LVL125
 9010 08f3 5C020000 		.4byte	.LVL126
 9011 08f7 0200     		.2byte	0x2
 9012 08f9 31       		.byte	0x31
 9013 08fa 9F       		.byte	0x9f
 9014 08fb 00000000 		.4byte	0
 9015 08ff 00000000 		.4byte	0
 9016              	.LLST68:
 9017 0903 92010000 		.4byte	.LVL100
 9018 0907 9A010000 		.4byte	.LVL101
 9019 090b 0200     		.2byte	0x2
 9020 090d 73       		.byte	0x73
 9021 090e 08       		.sleb128 8
 9022 090f 9A010000 		.4byte	.LVL101
 9023 0913 9B010000 		.4byte	.LVL102-1
 9024 0917 0100     		.2byte	0x1
ARM GAS  C:\Users\Petro\AppData\Local\Temp\ccPFwMgj.s 			page 175


 9025 0919 51       		.byte	0x51
 9026 091a 9B010000 		.4byte	.LVL102-1
 9027 091e A0010000 		.4byte	.LVL103
 9028 0922 0100     		.2byte	0x1
 9029 0924 56       		.byte	0x56
 9030 0925 56020000 		.4byte	.LVL125
 9031 0929 5C020000 		.4byte	.LVL126
 9032 092d 0100     		.2byte	0x1
 9033 092f 56       		.byte	0x56
 9034 0930 00000000 		.4byte	0
 9035 0934 00000000 		.4byte	0
 9036              	.LLST69:
 9037 0938 92010000 		.4byte	.LVL100
 9038 093c 9B010000 		.4byte	.LVL102-1
 9039 0940 0100     		.2byte	0x1
 9040 0942 50       		.byte	0x50
 9041 0943 00000000 		.4byte	0
 9042 0947 00000000 		.4byte	0
 9043              	.LLST70:
 9044 094b D6010000 		.4byte	.LVL109
 9045 094f D8010000 		.4byte	.LVL110
 9046 0953 0100     		.2byte	0x1
 9047 0955 53       		.byte	0x53
 9048 0956 00000000 		.4byte	0
 9049 095a 00000000 		.4byte	0
 9050              	.LLST71:
 9051 095e E4010000 		.4byte	.LVL112
 9052 0962 E8010000 		.4byte	.LVL113
 9053 0966 0100     		.2byte	0x1
 9054 0968 55       		.byte	0x55
 9055 0969 00000000 		.4byte	0
 9056 096d 00000000 		.4byte	0
 9057              	.LLST72:
 9058 0971 E4010000 		.4byte	.LVL112
 9059 0975 EA010000 		.4byte	.LVL114
 9060 0979 0100     		.2byte	0x1
 9061 097b 56       		.byte	0x56
 9062 097c 00000000 		.4byte	0
 9063 0980 00000000 		.4byte	0
 9064              	.LLST73:
 9065 0984 08020000 		.4byte	.LVL115
 9066 0988 14020000 		.4byte	.LVL117
 9067 098c 0200     		.2byte	0x2
 9068 098e 31       		.byte	0x31
 9069 098f 9F       		.byte	0x9f
 9070 0990 5C020000 		.4byte	.LVL126
 9071 0994 60020000 		.4byte	.LVL127
 9072 0998 0200     		.2byte	0x2
 9073 099a 31       		.byte	0x31
 9074 099b 9F       		.byte	0x9f
 9075 099c 00000000 		.4byte	0
 9076 09a0 00000000 		.4byte	0
 9077              	.LLST74:
 9078 09a4 08020000 		.4byte	.LVL115
 9079 09a8 0F020000 		.4byte	.LVL116-1
 9080 09ac 0100     		.2byte	0x1
 9081 09ae 51       		.byte	0x51
ARM GAS  C:\Users\Petro\AppData\Local\Temp\ccPFwMgj.s 			page 176


 9082 09af 00000000 		.4byte	0
 9083 09b3 00000000 		.4byte	0
 9084              	.LLST75:
 9085 09b7 08020000 		.4byte	.LVL115
 9086 09bb 0F020000 		.4byte	.LVL116-1
 9087 09bf 0100     		.2byte	0x1
 9088 09c1 50       		.byte	0x50
 9089 09c2 00000000 		.4byte	0
 9090 09c6 00000000 		.4byte	0
 9091              	.LLST76:
 9092 09ca 00000000 		.4byte	.LVL129
 9093 09ce 10000000 		.4byte	.LVL131
 9094 09d2 0100     		.2byte	0x1
 9095 09d4 50       		.byte	0x50
 9096 09d5 10000000 		.4byte	.LVL131
 9097 09d9 5C000000 		.4byte	.LVL142
 9098 09dd 0100     		.2byte	0x1
 9099 09df 57       		.byte	0x57
 9100 09e0 5C000000 		.4byte	.LVL142
 9101 09e4 5E000000 		.4byte	.LFE21
 9102 09e8 0400     		.2byte	0x4
 9103 09ea F3       		.byte	0xf3
 9104 09eb 01       		.uleb128 0x1
 9105 09ec 50       		.byte	0x50
 9106 09ed 9F       		.byte	0x9f
 9107 09ee 00000000 		.4byte	0
 9108 09f2 00000000 		.4byte	0
 9109              	.LLST77:
 9110 09f6 00000000 		.4byte	.LVL129
 9111 09fa 10000000 		.4byte	.LVL131
 9112 09fe 0100     		.2byte	0x1
 9113 0a00 51       		.byte	0x51
 9114 0a01 10000000 		.4byte	.LVL131
 9115 0a05 5C000000 		.4byte	.LVL141
 9116 0a09 0100     		.2byte	0x1
 9117 0a0b 56       		.byte	0x56
 9118 0a0c 5C000000 		.4byte	.LVL141
 9119 0a10 5E000000 		.4byte	.LFE21
 9120 0a14 0400     		.2byte	0x4
 9121 0a16 F3       		.byte	0xf3
 9122 0a17 01       		.uleb128 0x1
 9123 0a18 51       		.byte	0x51
 9124 0a19 9F       		.byte	0x9f
 9125 0a1a 00000000 		.4byte	0
 9126 0a1e 00000000 		.4byte	0
 9127              	.LLST78:
 9128 0a22 00000000 		.4byte	.LVL129
 9129 0a26 10000000 		.4byte	.LVL131
 9130 0a2a 0100     		.2byte	0x1
 9131 0a2c 52       		.byte	0x52
 9132 0a2d 10000000 		.4byte	.LVL131
 9133 0a31 5E000000 		.4byte	.LFE21
 9134 0a35 0200     		.2byte	0x2
 9135 0a37 91       		.byte	0x91
 9136 0a38 64       		.sleb128 -28
 9137 0a39 00000000 		.4byte	0
 9138 0a3d 00000000 		.4byte	0
ARM GAS  C:\Users\Petro\AppData\Local\Temp\ccPFwMgj.s 			page 177


 9139              	.LLST79:
 9140 0a41 0A000000 		.4byte	.LVL130
 9141 0a45 10000000 		.4byte	.LVL131
 9142 0a49 0200     		.2byte	0x2
 9143 0a4b 30       		.byte	0x30
 9144 0a4c 9F       		.byte	0x9f
 9145 0a4d 10000000 		.4byte	.LVL131
 9146 0a51 5C000000 		.4byte	.LVL140
 9147 0a55 0100     		.2byte	0x1
 9148 0a57 55       		.byte	0x55
 9149 0a58 5C000000 		.4byte	.LVL140
 9150 0a5c 5E000000 		.4byte	.LFE21
 9151 0a60 0100     		.2byte	0x1
 9152 0a62 50       		.byte	0x50
 9153 0a63 00000000 		.4byte	0
 9154 0a67 00000000 		.4byte	0
 9155              	.LLST80:
 9156 0a6b 0A000000 		.4byte	.LVL130
 9157 0a6f 10000000 		.4byte	.LVL131
 9158 0a73 0200     		.2byte	0x2
 9159 0a75 30       		.byte	0x30
 9160 0a76 9F       		.byte	0x9f
 9161 0a77 10000000 		.4byte	.LVL131
 9162 0a7b 5C000000 		.4byte	.LVL139
 9163 0a7f 0100     		.2byte	0x1
 9164 0a81 54       		.byte	0x54
 9165 0a82 00000000 		.4byte	0
 9166 0a86 00000000 		.4byte	0
 9167              	.LLST81:
 9168 0a8a 00000000 		.4byte	.LVL143
 9169 0a8e 08000000 		.4byte	.LVL145
 9170 0a92 0100     		.2byte	0x1
 9171 0a94 50       		.byte	0x50
 9172 0a95 08000000 		.4byte	.LVL145
 9173 0a99 42000000 		.4byte	.LVL153
 9174 0a9d 0100     		.2byte	0x1
 9175 0a9f 55       		.byte	0x55
 9176 0aa0 42000000 		.4byte	.LVL153
 9177 0aa4 44000000 		.4byte	.LFE17
 9178 0aa8 0400     		.2byte	0x4
 9179 0aaa F3       		.byte	0xf3
 9180 0aab 01       		.uleb128 0x1
 9181 0aac 50       		.byte	0x50
 9182 0aad 9F       		.byte	0x9f
 9183 0aae 00000000 		.4byte	0
 9184 0ab2 00000000 		.4byte	0
 9185              	.LLST82:
 9186 0ab6 06000000 		.4byte	.LVL144
 9187 0aba 24000000 		.4byte	.LVL148
 9188 0abe 0100     		.2byte	0x1
 9189 0ac0 54       		.byte	0x54
 9190 0ac1 26000000 		.4byte	.LVL149
 9191 0ac5 42000000 		.4byte	.LVL152
 9192 0ac9 0100     		.2byte	0x1
 9193 0acb 54       		.byte	0x54
 9194 0acc 00000000 		.4byte	0
 9195 0ad0 00000000 		.4byte	0
ARM GAS  C:\Users\Petro\AppData\Local\Temp\ccPFwMgj.s 			page 178


 9196              	.LLST83:
 9197 0ad4 00000000 		.4byte	.LVL154
 9198 0ad8 0A000000 		.4byte	.LVL156
 9199 0adc 0100     		.2byte	0x1
 9200 0ade 50       		.byte	0x50
 9201 0adf 0A000000 		.4byte	.LVL156
 9202 0ae3 4A000000 		.4byte	.LVL166
 9203 0ae7 0100     		.2byte	0x1
 9204 0ae9 55       		.byte	0x55
 9205 0aea 4A000000 		.4byte	.LVL166
 9206 0aee 58000000 		.4byte	.LFE25
 9207 0af2 0400     		.2byte	0x4
 9208 0af4 F3       		.byte	0xf3
 9209 0af5 01       		.uleb128 0x1
 9210 0af6 50       		.byte	0x50
 9211 0af7 9F       		.byte	0x9f
 9212 0af8 00000000 		.4byte	0
 9213 0afc 00000000 		.4byte	0
 9214              	.LLST84:
 9215 0b00 00000000 		.4byte	.LVL154
 9216 0b04 0A000000 		.4byte	.LVL156
 9217 0b08 0100     		.2byte	0x1
 9218 0b0a 51       		.byte	0x51
 9219 0b0b 0A000000 		.4byte	.LVL156
 9220 0b0f 20000000 		.4byte	.LVL161
 9221 0b13 0100     		.2byte	0x1
 9222 0b15 54       		.byte	0x54
 9223 0b16 20000000 		.4byte	.LVL161
 9224 0b1a 22000000 		.4byte	.LVL162
 9225 0b1e 0100     		.2byte	0x1
 9226 0b20 57       		.byte	0x57
 9227 0b21 22000000 		.4byte	.LVL162
 9228 0b25 4A000000 		.4byte	.LVL165
 9229 0b29 0100     		.2byte	0x1
 9230 0b2b 54       		.byte	0x54
 9231 0b2c 00000000 		.4byte	0
 9232 0b30 00000000 		.4byte	0
 9233              	.LLST85:
 9234 0b34 06000000 		.4byte	.LVL155
 9235 0b38 0A000000 		.4byte	.LVL156
 9236 0b3c 0200     		.2byte	0x2
 9237 0b3e 30       		.byte	0x30
 9238 0b3f 9F       		.byte	0x9f
 9239 0b40 0A000000 		.4byte	.LVL156
 9240 0b44 4A000000 		.4byte	.LVL167
 9241 0b48 0100     		.2byte	0x1
 9242 0b4a 56       		.byte	0x56
 9243 0b4b 4A000000 		.4byte	.LVL167
 9244 0b4f 58000000 		.4byte	.LFE25
 9245 0b53 0100     		.2byte	0x1
 9246 0b55 50       		.byte	0x50
 9247 0b56 00000000 		.4byte	0
 9248 0b5a 00000000 		.4byte	0
 9249              	.LLST86:
 9250 0b5e 14000000 		.4byte	.LVL158
 9251 0b62 16000000 		.4byte	.LVL159
 9252 0b66 0100     		.2byte	0x1
ARM GAS  C:\Users\Petro\AppData\Local\Temp\ccPFwMgj.s 			page 179


 9253 0b68 50       		.byte	0x50
 9254 0b69 16000000 		.4byte	.LVL159
 9255 0b6d 22000000 		.4byte	.LVL162
 9256 0b71 0100     		.2byte	0x1
 9257 0b73 57       		.byte	0x57
 9258 0b74 00000000 		.4byte	0
 9259 0b78 00000000 		.4byte	0
 9260              	.LLST87:
 9261 0b7c 0A000000 		.4byte	.LVL156
 9262 0b80 22000000 		.4byte	.LVL162
 9263 0b84 0100     		.2byte	0x1
 9264 0b86 55       		.byte	0x55
 9265 0b87 26000000 		.4byte	.LVL163
 9266 0b8b 48000000 		.4byte	.LVL164
 9267 0b8f 0100     		.2byte	0x1
 9268 0b91 55       		.byte	0x55
 9269 0b92 00000000 		.4byte	0
 9270 0b96 00000000 		.4byte	0
 9271              	.LLST88:
 9272 0b9a 00000000 		.4byte	.LVL168
 9273 0b9e 0F000000 		.4byte	.LVL169-1
 9274 0ba2 0100     		.2byte	0x1
 9275 0ba4 50       		.byte	0x50
 9276 0ba5 0F000000 		.4byte	.LVL169-1
 9277 0ba9 CC000000 		.4byte	.LVL192
 9278 0bad 0100     		.2byte	0x1
 9279 0baf 57       		.byte	0x57
 9280 0bb0 CC000000 		.4byte	.LVL192
 9281 0bb4 E8000000 		.4byte	.LFE22
 9282 0bb8 0400     		.2byte	0x4
 9283 0bba F3       		.byte	0xf3
 9284 0bbb 01       		.uleb128 0x1
 9285 0bbc 50       		.byte	0x50
 9286 0bbd 9F       		.byte	0x9f
 9287 0bbe 00000000 		.4byte	0
 9288 0bc2 00000000 		.4byte	0
 9289              	.LLST89:
 9290 0bc6 00000000 		.4byte	.LVL168
 9291 0bca 0F000000 		.4byte	.LVL169-1
 9292 0bce 0100     		.2byte	0x1
 9293 0bd0 51       		.byte	0x51
 9294 0bd1 0F000000 		.4byte	.LVL169-1
 9295 0bd5 8C000000 		.4byte	.LVL179
 9296 0bd9 0100     		.2byte	0x1
 9297 0bdb 55       		.byte	0x55
 9298 0bdc 8C000000 		.4byte	.LVL179
 9299 0be0 C4000000 		.4byte	.LVL188
 9300 0be4 0400     		.2byte	0x4
 9301 0be6 F3       		.byte	0xf3
 9302 0be7 01       		.uleb128 0x1
 9303 0be8 51       		.byte	0x51
 9304 0be9 9F       		.byte	0x9f
 9305 0bea C4000000 		.4byte	.LVL188
 9306 0bee C8000000 		.4byte	.LVL190
 9307 0bf2 0100     		.2byte	0x1
 9308 0bf4 55       		.byte	0x55
 9309 0bf5 C8000000 		.4byte	.LVL190
ARM GAS  C:\Users\Petro\AppData\Local\Temp\ccPFwMgj.s 			page 180


 9310 0bf9 E8000000 		.4byte	.LFE22
 9311 0bfd 0400     		.2byte	0x4
 9312 0bff F3       		.byte	0xf3
 9313 0c00 01       		.uleb128 0x1
 9314 0c01 51       		.byte	0x51
 9315 0c02 9F       		.byte	0x9f
 9316 0c03 00000000 		.4byte	0
 9317 0c07 00000000 		.4byte	0
 9318              	.LLST90:
 9319 0c0b 00000000 		.4byte	.LVL168
 9320 0c0f 0F000000 		.4byte	.LVL169-1
 9321 0c13 0100     		.2byte	0x1
 9322 0c15 52       		.byte	0x52
 9323 0c16 0F000000 		.4byte	.LVL169-1
 9324 0c1a AA000000 		.4byte	.LVL183
 9325 0c1e 0100     		.2byte	0x1
 9326 0c20 56       		.byte	0x56
 9327 0c21 AA000000 		.4byte	.LVL183
 9328 0c25 C4000000 		.4byte	.LVL188
 9329 0c29 0400     		.2byte	0x4
 9330 0c2b F3       		.byte	0xf3
 9331 0c2c 01       		.uleb128 0x1
 9332 0c2d 52       		.byte	0x52
 9333 0c2e 9F       		.byte	0x9f
 9334 0c2f C4000000 		.4byte	.LVL188
 9335 0c33 CC000000 		.4byte	.LVL191
 9336 0c37 0100     		.2byte	0x1
 9337 0c39 56       		.byte	0x56
 9338 0c3a CC000000 		.4byte	.LVL191
 9339 0c3e E8000000 		.4byte	.LFE22
 9340 0c42 0400     		.2byte	0x4
 9341 0c44 F3       		.byte	0xf3
 9342 0c45 01       		.uleb128 0x1
 9343 0c46 52       		.byte	0x52
 9344 0c47 9F       		.byte	0x9f
 9345 0c48 00000000 		.4byte	0
 9346 0c4c 00000000 		.4byte	0
 9347              	.LLST91:
 9348 0c50 10000000 		.4byte	.LVL169
 9349 0c54 34000000 		.4byte	.LVL170
 9350 0c58 0100     		.2byte	0x1
 9351 0c5a 50       		.byte	0x50
 9352 0c5b 3A000000 		.4byte	.LVL172
 9353 0c5f 5C000000 		.4byte	.LVL174
 9354 0c63 0100     		.2byte	0x1
 9355 0c65 50       		.byte	0x50
 9356 0c66 5C000000 		.4byte	.LVL174
 9357 0c6a C4000000 		.4byte	.LVL188
 9358 0c6e 0100     		.2byte	0x1
 9359 0c70 54       		.byte	0x54
 9360 0c71 C4000000 		.4byte	.LVL188
 9361 0c75 C6000000 		.4byte	.LVL189
 9362 0c79 0100     		.2byte	0x1
 9363 0c7b 50       		.byte	0x50
 9364 0c7c C6000000 		.4byte	.LVL189
 9365 0c80 CC000000 		.4byte	.LVL191
 9366 0c84 0100     		.2byte	0x1
ARM GAS  C:\Users\Petro\AppData\Local\Temp\ccPFwMgj.s 			page 181


 9367 0c86 54       		.byte	0x54
 9368 0c87 00000000 		.4byte	0
 9369 0c8b 00000000 		.4byte	0
 9370              	.LLST92:
 9371 0c8f 10000000 		.4byte	.LVL169
 9372 0c93 CC000000 		.4byte	.LVL192
 9373 0c97 0100     		.2byte	0x1
 9374 0c99 57       		.byte	0x57
 9375 0c9a CC000000 		.4byte	.LVL192
 9376 0c9e E8000000 		.4byte	.LFE22
 9377 0ca2 0400     		.2byte	0x4
 9378 0ca4 F3       		.byte	0xf3
 9379 0ca5 01       		.uleb128 0x1
 9380 0ca6 50       		.byte	0x50
 9381 0ca7 9F       		.byte	0x9f
 9382 0ca8 00000000 		.4byte	0
 9383 0cac 00000000 		.4byte	0
 9384              	.LLST93:
 9385 0cb0 3C000000 		.4byte	.LVL173
 9386 0cb4 C4000000 		.4byte	.LVL188
 9387 0cb8 0100     		.2byte	0x1
 9388 0cba 57       		.byte	0x57
 9389 0cbb C8000000 		.4byte	.LVL190
 9390 0cbf CC000000 		.4byte	.LVL191
 9391 0cc3 0100     		.2byte	0x1
 9392 0cc5 57       		.byte	0x57
 9393 0cc6 00000000 		.4byte	0
 9394 0cca 00000000 		.4byte	0
 9395              	.LLST94:
 9396 0cce A6000000 		.4byte	.LVL182
 9397 0cd2 AA000000 		.4byte	.LVL183
 9398 0cd6 0200     		.2byte	0x2
 9399 0cd8 30       		.byte	0x30
 9400 0cd9 9F       		.byte	0x9f
 9401 0cda AA000000 		.4byte	.LVL183
 9402 0cde C0000000 		.4byte	.LVL187
 9403 0ce2 0100     		.2byte	0x1
 9404 0ce4 55       		.byte	0x55
 9405 0ce5 00000000 		.4byte	0
 9406 0ce9 00000000 		.4byte	0
 9407              	.LLST95:
 9408 0ced 70000000 		.4byte	.LVL177
 9409 0cf1 C0000000 		.4byte	.LVL187
 9410 0cf5 0100     		.2byte	0x1
 9411 0cf7 54       		.byte	0x54
 9412 0cf8 C8000000 		.4byte	.LVL190
 9413 0cfc CC000000 		.4byte	.LVL191
 9414 0d00 0100     		.2byte	0x1
 9415 0d02 54       		.byte	0x54
 9416 0d03 00000000 		.4byte	0
 9417 0d07 00000000 		.4byte	0
 9418              	.LLST96:
 9419 0d0b 70000000 		.4byte	.LVL177
 9420 0d0f C0000000 		.4byte	.LVL187
 9421 0d13 0100     		.2byte	0x1
 9422 0d15 57       		.byte	0x57
 9423 0d16 C8000000 		.4byte	.LVL190
ARM GAS  C:\Users\Petro\AppData\Local\Temp\ccPFwMgj.s 			page 182


 9424 0d1a CC000000 		.4byte	.LVL191
 9425 0d1e 0100     		.2byte	0x1
 9426 0d20 57       		.byte	0x57
 9427 0d21 00000000 		.4byte	0
 9428 0d25 00000000 		.4byte	0
 9429              	.LLST97:
 9430 0d29 8A000000 		.4byte	.LVL178
 9431 0d2d 96000000 		.4byte	.LVL181
 9432 0d31 0200     		.2byte	0x2
 9433 0d33 31       		.byte	0x31
 9434 0d34 9F       		.byte	0x9f
 9435 0d35 C8000000 		.4byte	.LVL190
 9436 0d39 CC000000 		.4byte	.LVL191
 9437 0d3d 0200     		.2byte	0x2
 9438 0d3f 31       		.byte	0x31
 9439 0d40 9F       		.byte	0x9f
 9440 0d41 00000000 		.4byte	0
 9441 0d45 00000000 		.4byte	0
 9442              	.LLST98:
 9443 0d49 8A000000 		.4byte	.LVL178
 9444 0d4d 91000000 		.4byte	.LVL180-1
 9445 0d51 0100     		.2byte	0x1
 9446 0d53 51       		.byte	0x51
 9447 0d54 00000000 		.4byte	0
 9448 0d58 00000000 		.4byte	0
 9449              	.LLST99:
 9450 0d5c 8A000000 		.4byte	.LVL178
 9451 0d60 91000000 		.4byte	.LVL180-1
 9452 0d64 0100     		.2byte	0x1
 9453 0d66 50       		.byte	0x50
 9454 0d67 00000000 		.4byte	0
 9455 0d6b 00000000 		.4byte	0
 9456              	.LLST100:
 9457 0d6f B0000000 		.4byte	.LVL184
 9458 0d73 BA000000 		.4byte	.LVL186
 9459 0d77 0200     		.2byte	0x2
 9460 0d79 31       		.byte	0x31
 9461 0d7a 9F       		.byte	0x9f
 9462 0d7b 00000000 		.4byte	0
 9463 0d7f 00000000 		.4byte	0
 9464              	.LLST101:
 9465 0d83 B0000000 		.4byte	.LVL184
 9466 0d87 B7000000 		.4byte	.LVL185-1
 9467 0d8b 0100     		.2byte	0x1
 9468 0d8d 51       		.byte	0x51
 9469 0d8e B7000000 		.4byte	.LVL185-1
 9470 0d92 BA000000 		.4byte	.LVL186
 9471 0d96 0600     		.2byte	0x6
 9472 0d98 75       		.byte	0x75
 9473 0d99 00       		.sleb128 0
 9474 0d9a 78       		.byte	0x78
 9475 0d9b 00       		.sleb128 0
 9476 0d9c 22       		.byte	0x22
 9477 0d9d 9F       		.byte	0x9f
 9478 0d9e 00000000 		.4byte	0
 9479 0da2 00000000 		.4byte	0
 9480              	.LLST102:
ARM GAS  C:\Users\Petro\AppData\Local\Temp\ccPFwMgj.s 			page 183


 9481 0da6 B0000000 		.4byte	.LVL184
 9482 0daa B7000000 		.4byte	.LVL185-1
 9483 0dae 0100     		.2byte	0x1
 9484 0db0 50       		.byte	0x50
 9485 0db1 00000000 		.4byte	0
 9486 0db5 00000000 		.4byte	0
 9487              	.LLST103:
 9488 0db9 00000000 		.4byte	.LVL193
 9489 0dbd 15000000 		.4byte	.LVL196-1
 9490 0dc1 0100     		.2byte	0x1
 9491 0dc3 50       		.byte	0x50
 9492 0dc4 15000000 		.4byte	.LVL196-1
 9493 0dc8 A8000000 		.4byte	.LVL216
 9494 0dcc 0100     		.2byte	0x1
 9495 0dce 56       		.byte	0x56
 9496 0dcf A8000000 		.4byte	.LVL216
 9497 0dd3 B4000000 		.4byte	.LFE27
 9498 0dd7 0400     		.2byte	0x4
 9499 0dd9 F3       		.byte	0xf3
 9500 0dda 01       		.uleb128 0x1
 9501 0ddb 50       		.byte	0x50
 9502 0ddc 9F       		.byte	0x9f
 9503 0ddd 00000000 		.4byte	0
 9504 0de1 00000000 		.4byte	0
 9505              	.LLST104:
 9506 0de5 00000000 		.4byte	.LVL193
 9507 0de9 10000000 		.4byte	.LVL194
 9508 0ded 0100     		.2byte	0x1
 9509 0def 51       		.byte	0x51
 9510 0df0 10000000 		.4byte	.LVL194
 9511 0df4 88000000 		.4byte	.LVL210
 9512 0df8 0100     		.2byte	0x1
 9513 0dfa 57       		.byte	0x57
 9514 0dfb 88000000 		.4byte	.LVL210
 9515 0dff B4000000 		.4byte	.LFE27
 9516 0e03 0400     		.2byte	0x4
 9517 0e05 F3       		.byte	0xf3
 9518 0e06 01       		.uleb128 0x1
 9519 0e07 51       		.byte	0x51
 9520 0e08 9F       		.byte	0x9f
 9521 0e09 00000000 		.4byte	0
 9522 0e0d 00000000 		.4byte	0
 9523              	.LLST105:
 9524 0e11 00000000 		.4byte	.LVL193
 9525 0e15 12000000 		.4byte	.LVL195
 9526 0e19 0100     		.2byte	0x1
 9527 0e1b 52       		.byte	0x52
 9528 0e1c 12000000 		.4byte	.LVL195
 9529 0e20 B4000000 		.4byte	.LFE27
 9530 0e24 0200     		.2byte	0x2
 9531 0e26 91       		.byte	0x91
 9532 0e27 64       		.sleb128 -28
 9533 0e28 00000000 		.4byte	0
 9534 0e2c 00000000 		.4byte	0
 9535              	.LLST106:
 9536 0e30 16000000 		.4byte	.LVL196
 9537 0e34 1A000000 		.4byte	.LVL197
ARM GAS  C:\Users\Petro\AppData\Local\Temp\ccPFwMgj.s 			page 184


 9538 0e38 0200     		.2byte	0x2
 9539 0e3a 30       		.byte	0x30
 9540 0e3b 9F       		.byte	0x9f
 9541 0e3c 1A000000 		.4byte	.LVL197
 9542 0e40 1C000000 		.4byte	.LVL198
 9543 0e44 0100     		.2byte	0x1
 9544 0e46 52       		.byte	0x52
 9545 0e47 1C000000 		.4byte	.LVL198
 9546 0e4b 98000000 		.4byte	.LVL212
 9547 0e4f 0100     		.2byte	0x1
 9548 0e51 54       		.byte	0x54
 9549 0e52 98000000 		.4byte	.LVL212
 9550 0e56 9A000000 		.4byte	.LVL213
 9551 0e5a 0300     		.2byte	0x3
 9552 0e5c 74       		.byte	0x74
 9553 0e5d 7F       		.sleb128 -1
 9554 0e5e 9F       		.byte	0x9f
 9555 0e5f 00000000 		.4byte	0
 9556 0e63 00000000 		.4byte	0
 9557              	.LLST107:
 9558 0e67 50000000 		.4byte	.LVL203
 9559 0e6b 70000000 		.4byte	.LVL207
 9560 0e6f 0100     		.2byte	0x1
 9561 0e71 52       		.byte	0x52
 9562 0e72 72000000 		.4byte	.LVL208
 9563 0e76 7C000000 		.4byte	.LVL209
 9564 0e7a 0100     		.2byte	0x1
 9565 0e7c 52       		.byte	0x52
 9566 0e7d 00000000 		.4byte	0
 9567 0e81 00000000 		.4byte	0
 9568              	.LLST108:
 9569 0e85 4C000000 		.4byte	.LVL202
 9570 0e89 50000000 		.4byte	.LVL203
 9571 0e8d 0100     		.2byte	0x1
 9572 0e8f 50       		.byte	0x50
 9573 0e90 50000000 		.4byte	.LVL203
 9574 0e94 70000000 		.4byte	.LVL207
 9575 0e98 0100     		.2byte	0x1
 9576 0e9a 55       		.byte	0x55
 9577 0e9b 70000000 		.4byte	.LVL207
 9578 0e9f 72000000 		.4byte	.LVL208
 9579 0ea3 0100     		.2byte	0x1
 9580 0ea5 50       		.byte	0x50
 9581 0ea6 72000000 		.4byte	.LVL208
 9582 0eaa A8000000 		.4byte	.LVL215
 9583 0eae 0100     		.2byte	0x1
 9584 0eb0 55       		.byte	0x55
 9585 0eb1 00000000 		.4byte	0
 9586 0eb5 00000000 		.4byte	0
 9587              	.LLST109:
 9588 0eb9 1C000000 		.4byte	.LVL198
 9589 0ebd 2E000000 		.4byte	.LVL199
 9590 0ec1 0100     		.2byte	0x1
 9591 0ec3 53       		.byte	0x53
 9592 0ec4 00000000 		.4byte	0
 9593 0ec8 00000000 		.4byte	0
 9594              	.LLST110:
ARM GAS  C:\Users\Petro\AppData\Local\Temp\ccPFwMgj.s 			page 185


 9595 0ecc 56000000 		.4byte	.LVL204
 9596 0ed0 68000000 		.4byte	.LVL205
 9597 0ed4 0100     		.2byte	0x1
 9598 0ed6 53       		.byte	0x53
 9599 0ed7 00000000 		.4byte	0
 9600 0edb 00000000 		.4byte	0
 9601              	.LLST111:
 9602 0edf 00000000 		.4byte	.LVL217
 9603 0ee3 08000000 		.4byte	.LVL218
 9604 0ee7 0100     		.2byte	0x1
 9605 0ee9 50       		.byte	0x50
 9606 0eea 08000000 		.4byte	.LVL218
 9607 0eee C0000000 		.4byte	.LVL239
 9608 0ef2 0100     		.2byte	0x1
 9609 0ef4 54       		.byte	0x54
 9610 0ef5 C0000000 		.4byte	.LVL239
 9611 0ef9 D2000000 		.4byte	.LVL241
 9612 0efd 0400     		.2byte	0x4
 9613 0eff F3       		.byte	0xf3
 9614 0f00 01       		.uleb128 0x1
 9615 0f01 50       		.byte	0x50
 9616 0f02 9F       		.byte	0x9f
 9617 0f03 D2000000 		.4byte	.LVL241
 9618 0f07 E4000000 		.4byte	.LVL244
 9619 0f0b 0100     		.2byte	0x1
 9620 0f0d 54       		.byte	0x54
 9621 0f0e E4000000 		.4byte	.LVL244
 9622 0f12 F4000000 		.4byte	.LFE23
 9623 0f16 0400     		.2byte	0x4
 9624 0f18 F3       		.byte	0xf3
 9625 0f19 01       		.uleb128 0x1
 9626 0f1a 50       		.byte	0x50
 9627 0f1b 9F       		.byte	0x9f
 9628 0f1c 00000000 		.4byte	0
 9629 0f20 00000000 		.4byte	0
 9630              	.LLST112:
 9631 0f24 5A000000 		.4byte	.LVL226
 9632 0f28 7C000000 		.4byte	.LVL234
 9633 0f2c 0100     		.2byte	0x1
 9634 0f2e 53       		.byte	0x53
 9635 0f2f 00000000 		.4byte	0
 9636 0f33 00000000 		.4byte	0
 9637              	.LLST113:
 9638 0f37 26000000 		.4byte	.LVL219
 9639 0f3b 32000000 		.4byte	.LVL221
 9640 0f3f 0200     		.2byte	0x2
 9641 0f41 31       		.byte	0x31
 9642 0f42 9F       		.byte	0x9f
 9643 0f43 D2000000 		.4byte	.LVL241
 9644 0f47 D8000000 		.4byte	.LVL242
 9645 0f4b 0200     		.2byte	0x2
 9646 0f4d 31       		.byte	0x31
 9647 0f4e 9F       		.byte	0x9f
 9648 0f4f 00000000 		.4byte	0
 9649 0f53 00000000 		.4byte	0
 9650              	.LLST114:
 9651 0f57 26000000 		.4byte	.LVL219
ARM GAS  C:\Users\Petro\AppData\Local\Temp\ccPFwMgj.s 			page 186


 9652 0f5b 2D000000 		.4byte	.LVL220-1
 9653 0f5f 0100     		.2byte	0x1
 9654 0f61 51       		.byte	0x51
 9655 0f62 00000000 		.4byte	0
 9656 0f66 00000000 		.4byte	0
 9657              	.LLST115:
 9658 0f6a 26000000 		.4byte	.LVL219
 9659 0f6e 2D000000 		.4byte	.LVL220-1
 9660 0f72 0100     		.2byte	0x1
 9661 0f74 50       		.byte	0x50
 9662 0f75 00000000 		.4byte	0
 9663 0f79 00000000 		.4byte	0
 9664              	.LLST116:
 9665 0f7d 46000000 		.4byte	.LVL222
 9666 0f81 54000000 		.4byte	.LVL225
 9667 0f85 0200     		.2byte	0x2
 9668 0f87 31       		.byte	0x31
 9669 0f88 9F       		.byte	0x9f
 9670 0f89 D8000000 		.4byte	.LVL242
 9671 0f8d DE000000 		.4byte	.LVL243
 9672 0f91 0200     		.2byte	0x2
 9673 0f93 31       		.byte	0x31
 9674 0f94 9F       		.byte	0x9f
 9675 0f95 00000000 		.4byte	0
 9676 0f99 00000000 		.4byte	0
 9677              	.LLST117:
 9678 0f9d 46000000 		.4byte	.LVL222
 9679 0fa1 4C000000 		.4byte	.LVL223
 9680 0fa5 0100     		.2byte	0x1
 9681 0fa7 52       		.byte	0x52
 9682 0fa8 4C000000 		.4byte	.LVL223
 9683 0fac 4F000000 		.4byte	.LVL224-1
 9684 0fb0 0100     		.2byte	0x1
 9685 0fb2 51       		.byte	0x51
 9686 0fb3 00000000 		.4byte	0
 9687 0fb7 00000000 		.4byte	0
 9688              	.LLST118:
 9689 0fbb 46000000 		.4byte	.LVL222
 9690 0fbf 4F000000 		.4byte	.LVL224-1
 9691 0fc3 0100     		.2byte	0x1
 9692 0fc5 50       		.byte	0x50
 9693 0fc6 00000000 		.4byte	0
 9694 0fca 00000000 		.4byte	0
 9695              	.LLST119:
 9696 0fce 5C000000 		.4byte	.LVL227
 9697 0fd2 64000000 		.4byte	.LVL228
 9698 0fd6 0100     		.2byte	0x1
 9699 0fd8 52       		.byte	0x52
 9700 0fd9 00000000 		.4byte	0
 9701 0fdd 00000000 		.4byte	0
 9702              	.LLST120:
 9703 0fe1 5C000000 		.4byte	.LVL227
 9704 0fe5 7C000000 		.4byte	.LVL234
 9705 0fe9 0300     		.2byte	0x3
 9706 0feb 73       		.byte	0x73
 9707 0fec 1C       		.sleb128 28
 9708 0fed 9F       		.byte	0x9f
ARM GAS  C:\Users\Petro\AppData\Local\Temp\ccPFwMgj.s 			page 187


 9709 0fee 00000000 		.4byte	0
 9710 0ff2 00000000 		.4byte	0
 9711              	.LLST123:
 9712 0ff6 64000000 		.4byte	.LVL228
 9713 0ffa 68000000 		.4byte	.LVL229
 9714 0ffe 0100     		.2byte	0x1
 9715 1000 52       		.byte	0x52
 9716 1001 00000000 		.4byte	0
 9717 1005 00000000 		.4byte	0
 9718              	.LLST124:
 9719 1009 64000000 		.4byte	.LVL228
 9720 100d 7C000000 		.4byte	.LVL234
 9721 1011 0300     		.2byte	0x3
 9722 1013 73       		.byte	0x73
 9723 1014 1E       		.sleb128 30
 9724 1015 9F       		.byte	0x9f
 9725 1016 00000000 		.4byte	0
 9726 101a 00000000 		.4byte	0
 9727              	.LLST125:
 9728 101e 6C000000 		.4byte	.LVL230
 9729 1022 70000000 		.4byte	.LVL231
 9730 1026 0100     		.2byte	0x1
 9731 1028 52       		.byte	0x52
 9732 1029 00000000 		.4byte	0
 9733 102d 00000000 		.4byte	0
 9734              	.LLST126:
 9735 1031 6C000000 		.4byte	.LVL230
 9736 1035 7C000000 		.4byte	.LVL234
 9737 1039 0300     		.2byte	0x3
 9738 103b 73       		.byte	0x73
 9739 103c 14       		.sleb128 20
 9740 103d 9F       		.byte	0x9f
 9741 103e 00000000 		.4byte	0
 9742 1042 00000000 		.4byte	0
 9743              	.LLST127:
 9744 1046 74000000 		.4byte	.LVL232
 9745 104a 78000000 		.4byte	.LVL233
 9746 104e 0100     		.2byte	0x1
 9747 1050 52       		.byte	0x52
 9748 1051 00000000 		.4byte	0
 9749 1055 00000000 		.4byte	0
 9750              	.LLST128:
 9751 1059 74000000 		.4byte	.LVL232
 9752 105d 7C000000 		.4byte	.LVL234
 9753 1061 0300     		.2byte	0x3
 9754 1063 73       		.byte	0x73
 9755 1064 1A       		.sleb128 26
 9756 1065 9F       		.byte	0x9f
 9757 1066 00000000 		.4byte	0
 9758 106a 00000000 		.4byte	0
 9759              	.LLST129:
 9760 106e 9C000000 		.4byte	.LVL235
 9761 1072 A8000000 		.4byte	.LVL237
 9762 1076 0200     		.2byte	0x2
 9763 1078 31       		.byte	0x31
 9764 1079 9F       		.byte	0x9f
 9765 107a DE000000 		.4byte	.LVL243
ARM GAS  C:\Users\Petro\AppData\Local\Temp\ccPFwMgj.s 			page 188


 9766 107e E4000000 		.4byte	.LVL244
 9767 1082 0200     		.2byte	0x2
 9768 1084 31       		.byte	0x31
 9769 1085 9F       		.byte	0x9f
 9770 1086 00000000 		.4byte	0
 9771 108a 00000000 		.4byte	0
 9772              	.LLST130:
 9773 108e 9C000000 		.4byte	.LVL235
 9774 1092 A3000000 		.4byte	.LVL236-1
 9775 1096 0100     		.2byte	0x1
 9776 1098 51       		.byte	0x51
 9777 1099 00000000 		.4byte	0
 9778 109d 00000000 		.4byte	0
 9779              	.LLST131:
 9780 10a1 9C000000 		.4byte	.LVL235
 9781 10a5 A3000000 		.4byte	.LVL236-1
 9782 10a9 0100     		.2byte	0x1
 9783 10ab 50       		.byte	0x50
 9784 10ac 00000000 		.4byte	0
 9785 10b0 00000000 		.4byte	0
 9786              	.LLST132:
 9787 10b4 BE000000 		.4byte	.LVL238
 9788 10b8 D2000000 		.4byte	.LVL241
 9789 10bc 0200     		.2byte	0x2
 9790 10be 31       		.byte	0x31
 9791 10bf 9F       		.byte	0x9f
 9792 10c0 E4000000 		.4byte	.LVL244
 9793 10c4 E8000000 		.4byte	.LVL245
 9794 10c8 0200     		.2byte	0x2
 9795 10ca 31       		.byte	0x31
 9796 10cb 9F       		.byte	0x9f
 9797 10cc 00000000 		.4byte	0
 9798 10d0 00000000 		.4byte	0
 9799              	.LLST133:
 9800 10d4 BE000000 		.4byte	.LVL238
 9801 10d8 C3000000 		.4byte	.LVL240-1
 9802 10dc 0100     		.2byte	0x1
 9803 10de 51       		.byte	0x51
 9804 10df 00000000 		.4byte	0
 9805 10e3 00000000 		.4byte	0
 9806              	.LLST134:
 9807 10e7 BE000000 		.4byte	.LVL238
 9808 10eb C3000000 		.4byte	.LVL240-1
 9809 10ef 0100     		.2byte	0x1
 9810 10f1 50       		.byte	0x50
 9811 10f2 00000000 		.4byte	0
 9812 10f6 00000000 		.4byte	0
 9813              	.LLST135:
 9814 10fa 00000000 		.4byte	.LVL246
 9815 10fe 1C000000 		.4byte	.LVL247
 9816 1102 0100     		.2byte	0x1
 9817 1104 50       		.byte	0x50
 9818 1105 1C000000 		.4byte	.LVL247
 9819 1109 F0010000 		.4byte	.LVL290
 9820 110d 0100     		.2byte	0x1
 9821 110f 55       		.byte	0x55
 9822 1110 F0010000 		.4byte	.LVL290
ARM GAS  C:\Users\Petro\AppData\Local\Temp\ccPFwMgj.s 			page 189


 9823 1114 0C020000 		.4byte	.LFE24
 9824 1118 0400     		.2byte	0x4
 9825 111a F3       		.byte	0xf3
 9826 111b 01       		.uleb128 0x1
 9827 111c 50       		.byte	0x50
 9828 111d 9F       		.byte	0x9f
 9829 111e 00000000 		.4byte	0
 9830 1122 00000000 		.4byte	0
 9831              	.LLST136:
 9832 1126 00000000 		.4byte	.LVL246
 9833 112a 1F000000 		.4byte	.LVL248-1
 9834 112e 0100     		.2byte	0x1
 9835 1130 51       		.byte	0x51
 9836 1131 1F000000 		.4byte	.LVL248-1
 9837 1135 F0010000 		.4byte	.LVL292
 9838 1139 0100     		.2byte	0x1
 9839 113b 59       		.byte	0x59
 9840 113c F0010000 		.4byte	.LVL292
 9841 1140 0C020000 		.4byte	.LFE24
 9842 1144 0400     		.2byte	0x4
 9843 1146 F3       		.byte	0xf3
 9844 1147 01       		.uleb128 0x1
 9845 1148 51       		.byte	0x51
 9846 1149 9F       		.byte	0x9f
 9847 114a 00000000 		.4byte	0
 9848 114e 00000000 		.4byte	0
 9849              	.LLST137:
 9850 1152 00000000 		.4byte	.LVL246
 9851 1156 1F000000 		.4byte	.LVL248-1
 9852 115a 0100     		.2byte	0x1
 9853 115c 52       		.byte	0x52
 9854 115d 1F000000 		.4byte	.LVL248-1
 9855 1161 88000000 		.4byte	.LVL254
 9856 1165 0100     		.2byte	0x1
 9857 1167 58       		.byte	0x58
 9858 1168 88000000 		.4byte	.LVL254
 9859 116c 94000000 		.4byte	.LVL257
 9860 1170 0100     		.2byte	0x1
 9861 1172 50       		.byte	0x50
 9862 1173 94000000 		.4byte	.LVL257
 9863 1177 E2000000 		.4byte	.LVL264
 9864 117b 0100     		.2byte	0x1
 9865 117d 58       		.byte	0x58
 9866 117e E2000000 		.4byte	.LVL264
 9867 1182 EE000000 		.4byte	.LVL266
 9868 1186 0100     		.2byte	0x1
 9869 1188 50       		.byte	0x50
 9870 1189 EE000000 		.4byte	.LVL266
 9871 118d F0010000 		.4byte	.LVL291
 9872 1191 0100     		.2byte	0x1
 9873 1193 58       		.byte	0x58
 9874 1194 00000000 		.4byte	0
 9875 1198 00000000 		.4byte	0
 9876              	.LLST138:
 9877 119c 70000000 		.4byte	.LVL252
 9878 11a0 74000000 		.4byte	.LVL253
 9879 11a4 0200     		.2byte	0x2
ARM GAS  C:\Users\Petro\AppData\Local\Temp\ccPFwMgj.s 			page 190


 9880 11a6 30       		.byte	0x30
 9881 11a7 9F       		.byte	0x9f
 9882 11a8 74000000 		.4byte	.LVL253
 9883 11ac D4010000 		.4byte	.LVL284
 9884 11b0 0100     		.2byte	0x1
 9885 11b2 57       		.byte	0x57
 9886 11b3 D8010000 		.4byte	.LVL285
 9887 11b7 EE010000 		.4byte	.LVL289
 9888 11bb 0100     		.2byte	0x1
 9889 11bd 57       		.byte	0x57
 9890 11be 00000000 		.4byte	0
 9891 11c2 00000000 		.4byte	0
 9892              	.LLST139:
 9893 11c6 2C000000 		.4byte	.LVL249
 9894 11ca 4D000000 		.4byte	.LVL250-1
 9895 11ce 0100     		.2byte	0x1
 9896 11d0 50       		.byte	0x50
 9897 11d1 00000000 		.4byte	0
 9898 11d5 00000000 		.4byte	0
 9899              	.LLST140:
 9900 11d9 8C000000 		.4byte	.LVL255
 9901 11dd 92000000 		.4byte	.LVL256
 9902 11e1 0100     		.2byte	0x1
 9903 11e3 53       		.byte	0x53
 9904 11e4 92000000 		.4byte	.LVL256
 9905 11e8 E2000000 		.4byte	.LVL264
 9906 11ec 0100     		.2byte	0x1
 9907 11ee 54       		.byte	0x54
 9908 11ef E2000000 		.4byte	.LVL264
 9909 11f3 E4000000 		.4byte	.LVL265
 9910 11f7 0100     		.2byte	0x1
 9911 11f9 53       		.byte	0x53
 9912 11fa E4000000 		.4byte	.LVL265
 9913 11fe 04010000 		.4byte	.LVL270
 9914 1202 0100     		.2byte	0x1
 9915 1204 54       		.byte	0x54
 9916 1205 D8010000 		.4byte	.LVL285
 9917 1209 EA010000 		.4byte	.LVL288
 9918 120d 0100     		.2byte	0x1
 9919 120f 54       		.byte	0x54
 9920 1210 00000000 		.4byte	0
 9921 1214 00000000 		.4byte	0
 9922              	.LLST141:
 9923 1218 B0000000 		.4byte	.LVL258
 9924 121c BE000000 		.4byte	.LVL260
 9925 1220 0200     		.2byte	0x2
 9926 1222 31       		.byte	0x31
 9927 1223 9F       		.byte	0x9f
 9928 1224 D8010000 		.4byte	.LVL285
 9929 1228 DE010000 		.4byte	.LVL286
 9930 122c 0200     		.2byte	0x2
 9931 122e 31       		.byte	0x31
 9932 122f 9F       		.byte	0x9f
 9933 1230 00000000 		.4byte	0
 9934 1234 00000000 		.4byte	0
 9935              	.LLST142:
 9936 1238 B0000000 		.4byte	.LVL258
ARM GAS  C:\Users\Petro\AppData\Local\Temp\ccPFwMgj.s 			page 191


 9937 123c B7000000 		.4byte	.LVL259-1
 9938 1240 0100     		.2byte	0x1
 9939 1242 51       		.byte	0x51
 9940 1243 00000000 		.4byte	0
 9941 1247 00000000 		.4byte	0
 9942              	.LLST143:
 9943 124b B0000000 		.4byte	.LVL258
 9944 124f B7000000 		.4byte	.LVL259-1
 9945 1253 0100     		.2byte	0x1
 9946 1255 50       		.byte	0x50
 9947 1256 00000000 		.4byte	0
 9948 125a 00000000 		.4byte	0
 9949              	.LLST144:
 9950 125e D2000000 		.4byte	.LVL261
 9951 1262 E2000000 		.4byte	.LVL264
 9952 1266 0200     		.2byte	0x2
 9953 1268 31       		.byte	0x31
 9954 1269 9F       		.byte	0x9f
 9955 126a DE010000 		.4byte	.LVL286
 9956 126e E4010000 		.4byte	.LVL287
 9957 1272 0200     		.2byte	0x2
 9958 1274 31       		.byte	0x31
 9959 1275 9F       		.byte	0x9f
 9960 1276 00000000 		.4byte	0
 9961 127a 00000000 		.4byte	0
 9962              	.LLST145:
 9963 127e D2000000 		.4byte	.LVL261
 9964 1282 D8000000 		.4byte	.LVL262
 9965 1286 0100     		.2byte	0x1
 9966 1288 52       		.byte	0x52
 9967 1289 D8000000 		.4byte	.LVL262
 9968 128d DB000000 		.4byte	.LVL263-1
 9969 1291 0100     		.2byte	0x1
 9970 1293 51       		.byte	0x51
 9971 1294 00000000 		.4byte	0
 9972 1298 00000000 		.4byte	0
 9973              	.LLST146:
 9974 129c D2000000 		.4byte	.LVL261
 9975 12a0 DB000000 		.4byte	.LVL263-1
 9976 12a4 0100     		.2byte	0x1
 9977 12a6 50       		.byte	0x50
 9978 12a7 00000000 		.4byte	0
 9979 12ab 00000000 		.4byte	0
 9980              	.LLST147:
 9981 12af F0000000 		.4byte	.LVL267
 9982 12b3 FC000000 		.4byte	.LVL269
 9983 12b7 0200     		.2byte	0x2
 9984 12b9 31       		.byte	0x31
 9985 12ba 9F       		.byte	0x9f
 9986 12bb E4010000 		.4byte	.LVL287
 9987 12bf EA010000 		.4byte	.LVL288
 9988 12c3 0200     		.2byte	0x2
 9989 12c5 31       		.byte	0x31
 9990 12c6 9F       		.byte	0x9f
 9991 12c7 00000000 		.4byte	0
 9992 12cb 00000000 		.4byte	0
 9993              	.LLST148:
ARM GAS  C:\Users\Petro\AppData\Local\Temp\ccPFwMgj.s 			page 192


 9994 12cf F0000000 		.4byte	.LVL267
 9995 12d3 F7000000 		.4byte	.LVL268-1
 9996 12d7 0100     		.2byte	0x1
 9997 12d9 51       		.byte	0x51
 9998 12da 00000000 		.4byte	0
 9999 12de 00000000 		.4byte	0
 10000              	.LLST149:
 10001 12e2 F0000000 		.4byte	.LVL267
 10002 12e6 F7000000 		.4byte	.LVL268-1
 10003 12ea 0100     		.2byte	0x1
 10004 12ec 50       		.byte	0x50
 10005 12ed 00000000 		.4byte	0
 10006 12f1 00000000 		.4byte	0
 10007              	.LLST150:
 10008 12f5 3A010000 		.4byte	.LVL272
 10009 12f9 46010000 		.4byte	.LVL274
 10010 12fd 0200     		.2byte	0x2
 10011 12ff 31       		.byte	0x31
 10012 1300 9F       		.byte	0x9f
 10013 1301 EA010000 		.4byte	.LVL288
 10014 1305 EE010000 		.4byte	.LVL289
 10015 1309 0200     		.2byte	0x2
 10016 130b 31       		.byte	0x31
 10017 130c 9F       		.byte	0x9f
 10018 130d 00000000 		.4byte	0
 10019 1311 00000000 		.4byte	0
 10020              	.LLST151:
 10021 1315 3A010000 		.4byte	.LVL272
 10022 1319 41010000 		.4byte	.LVL273-1
 10023 131d 0100     		.2byte	0x1
 10024 131f 51       		.byte	0x51
 10025 1320 00000000 		.4byte	0
 10026 1324 00000000 		.4byte	0
 10027              	.LLST152:
 10028 1328 3A010000 		.4byte	.LVL272
 10029 132c 41010000 		.4byte	.LVL273-1
 10030 1330 0100     		.2byte	0x1
 10031 1332 50       		.byte	0x50
 10032 1333 00000000 		.4byte	0
 10033 1337 00000000 		.4byte	0
 10034              	.LLST153:
 10035 133b 9A010000 		.4byte	.LVL278
 10036 133f A4010000 		.4byte	.LVL280
 10037 1343 0100     		.2byte	0x1
 10038 1345 50       		.byte	0x50
 10039 1346 A4010000 		.4byte	.LVL280
 10040 134a AE010000 		.4byte	.LVL282
 10041 134e 0200     		.2byte	0x2
 10042 1350 75       		.byte	0x75
 10043 1351 10       		.sleb128 16
 10044 1352 00000000 		.4byte	0
 10045 1356 00000000 		.4byte	0
 10046              	.LLST154:
 10047 135a A2010000 		.4byte	.LVL279
 10048 135e A4010000 		.4byte	.LVL280
 10049 1362 0100     		.2byte	0x1
 10050 1364 50       		.byte	0x50
ARM GAS  C:\Users\Petro\AppData\Local\Temp\ccPFwMgj.s 			page 193


 10051 1365 A4010000 		.4byte	.LVL280
 10052 1369 AE010000 		.4byte	.LVL282
 10053 136d 0200     		.2byte	0x2
 10054 136f 75       		.byte	0x75
 10055 1370 10       		.sleb128 16
 10056 1371 00000000 		.4byte	0
 10057 1375 00000000 		.4byte	0
 10058              	.LLST155:
 10059 1379 A2010000 		.4byte	.LVL279
 10060 137d AA010000 		.4byte	.LVL281
 10061 1381 0100     		.2byte	0x1
 10062 1383 53       		.byte	0x53
 10063 1384 AA010000 		.4byte	.LVL281
 10064 1388 AE010000 		.4byte	.LVL282
 10065 138c 0200     		.2byte	0x2
 10066 138e 75       		.byte	0x75
 10067 138f 00       		.sleb128 0
 10068 1390 00000000 		.4byte	0
 10069 1394 00000000 		.4byte	0
 10070              	.LLST156:
 10071 1398 00000000 		.4byte	.LVL293
 10072 139c 0D000000 		.4byte	.LVL294-1
 10073 13a0 0100     		.2byte	0x1
 10074 13a2 50       		.byte	0x50
 10075 13a3 0D000000 		.4byte	.LVL294-1
 10076 13a7 D0000000 		.4byte	.LVL313
 10077 13ab 0100     		.2byte	0x1
 10078 13ad 54       		.byte	0x54
 10079 13ae D0000000 		.4byte	.LVL313
 10080 13b2 DC000000 		.4byte	.LFE26
 10081 13b6 0400     		.2byte	0x4
 10082 13b8 F3       		.byte	0xf3
 10083 13b9 01       		.uleb128 0x1
 10084 13ba 50       		.byte	0x50
 10085 13bb 9F       		.byte	0x9f
 10086 13bc 00000000 		.4byte	0
 10087 13c0 00000000 		.4byte	0
 10088              	.LLST157:
 10089 13c4 00000000 		.4byte	.LVL293
 10090 13c8 0D000000 		.4byte	.LVL294-1
 10091 13cc 0100     		.2byte	0x1
 10092 13ce 51       		.byte	0x51
 10093 13cf 0D000000 		.4byte	.LVL294-1
 10094 13d3 DC000000 		.4byte	.LFE26
 10095 13d7 0400     		.2byte	0x4
 10096 13d9 F3       		.byte	0xf3
 10097 13da 01       		.uleb128 0x1
 10098 13db 51       		.byte	0x51
 10099 13dc 9F       		.byte	0x9f
 10100 13dd 00000000 		.4byte	0
 10101 13e1 00000000 		.4byte	0
 10102              	.LLST158:
 10103 13e5 0E000000 		.4byte	.LVL294
 10104 13e9 1A000000 		.4byte	.LVL295
 10105 13ed 0100     		.2byte	0x1
 10106 13ef 50       		.byte	0x50
 10107 13f0 B8000000 		.4byte	.LVL307
ARM GAS  C:\Users\Petro\AppData\Local\Temp\ccPFwMgj.s 			page 194


 10108 13f4 BA000000 		.4byte	.LVL308
 10109 13f8 0100     		.2byte	0x1
 10110 13fa 50       		.byte	0x50
 10111 13fb 00000000 		.4byte	0
 10112 13ff 00000000 		.4byte	0
 10113              	.LLST159:
 10114 1403 40000000 		.4byte	.LVL297
 10115 1407 4C000000 		.4byte	.LVL299
 10116 140b 0200     		.2byte	0x2
 10117 140d 31       		.byte	0x31
 10118 140e 9F       		.byte	0x9f
 10119 140f BE000000 		.4byte	.LVL309
 10120 1413 C4000000 		.4byte	.LVL310
 10121 1417 0200     		.2byte	0x2
 10122 1419 31       		.byte	0x31
 10123 141a 9F       		.byte	0x9f
 10124 141b 00000000 		.4byte	0
 10125 141f 00000000 		.4byte	0
 10126              	.LLST160:
 10127 1423 40000000 		.4byte	.LVL297
 10128 1427 47000000 		.4byte	.LVL298-1
 10129 142b 0100     		.2byte	0x1
 10130 142d 51       		.byte	0x51
 10131 142e 00000000 		.4byte	0
 10132 1432 00000000 		.4byte	0
 10133              	.LLST161:
 10134 1436 40000000 		.4byte	.LVL297
 10135 143a 47000000 		.4byte	.LVL298-1
 10136 143e 0100     		.2byte	0x1
 10137 1440 50       		.byte	0x50
 10138 1441 00000000 		.4byte	0
 10139 1445 00000000 		.4byte	0
 10140              	.LLST162:
 10141 1449 5C000000 		.4byte	.LVL300
 10142 144d 6A000000 		.4byte	.LVL303
 10143 1451 0200     		.2byte	0x2
 10144 1453 31       		.byte	0x31
 10145 1454 9F       		.byte	0x9f
 10146 1455 C4000000 		.4byte	.LVL310
 10147 1459 CA000000 		.4byte	.LVL311
 10148 145d 0200     		.2byte	0x2
 10149 145f 31       		.byte	0x31
 10150 1460 9F       		.byte	0x9f
 10151 1461 00000000 		.4byte	0
 10152 1465 00000000 		.4byte	0
 10153              	.LLST163:
 10154 1469 5C000000 		.4byte	.LVL300
 10155 146d 62000000 		.4byte	.LVL301
 10156 1471 0100     		.2byte	0x1
 10157 1473 52       		.byte	0x52
 10158 1474 62000000 		.4byte	.LVL301
 10159 1478 65000000 		.4byte	.LVL302-1
 10160 147c 0100     		.2byte	0x1
 10161 147e 51       		.byte	0x51
 10162 147f 00000000 		.4byte	0
 10163 1483 00000000 		.4byte	0
 10164              	.LLST164:
ARM GAS  C:\Users\Petro\AppData\Local\Temp\ccPFwMgj.s 			page 195


 10165 1487 5C000000 		.4byte	.LVL300
 10166 148b 65000000 		.4byte	.LVL302-1
 10167 148f 0100     		.2byte	0x1
 10168 1491 50       		.byte	0x50
 10169 1492 00000000 		.4byte	0
 10170 1496 00000000 		.4byte	0
 10171              	.LLST165:
 10172 149a 94000000 		.4byte	.LVL304
 10173 149e A0000000 		.4byte	.LVL306
 10174 14a2 0200     		.2byte	0x2
 10175 14a4 31       		.byte	0x31
 10176 14a5 9F       		.byte	0x9f
 10177 14a6 CA000000 		.4byte	.LVL311
 10178 14aa CE000000 		.4byte	.LVL312
 10179 14ae 0200     		.2byte	0x2
 10180 14b0 31       		.byte	0x31
 10181 14b1 9F       		.byte	0x9f
 10182 14b2 00000000 		.4byte	0
 10183 14b6 00000000 		.4byte	0
 10184              	.LLST166:
 10185 14ba 94000000 		.4byte	.LVL304
 10186 14be 9B000000 		.4byte	.LVL305-1
 10187 14c2 0100     		.2byte	0x1
 10188 14c4 51       		.byte	0x51
 10189 14c5 00000000 		.4byte	0
 10190 14c9 00000000 		.4byte	0
 10191              	.LLST167:
 10192 14cd 94000000 		.4byte	.LVL304
 10193 14d1 9B000000 		.4byte	.LVL305-1
 10194 14d5 0100     		.2byte	0x1
 10195 14d7 50       		.byte	0x50
 10196 14d8 00000000 		.4byte	0
 10197 14dc 00000000 		.4byte	0
 10198              	.LLST168:
 10199 14e0 00000000 		.4byte	.LVL314
 10200 14e4 15000000 		.4byte	.LVL316-1
 10201 14e8 0100     		.2byte	0x1
 10202 14ea 50       		.byte	0x50
 10203 14eb 15000000 		.4byte	.LVL316-1
 10204 14ef E4010000 		.4byte	.LVL366
 10205 14f3 0200     		.2byte	0x2
 10206 14f5 7D       		.byte	0x7d
 10207 14f6 00       		.sleb128 0
 10208 14f7 E4010000 		.4byte	.LVL366
 10209 14fb F8010000 		.4byte	.LFE28
 10210 14ff 0300     		.2byte	0x3
 10211 1501 91       		.byte	0x91
 10212 1502 907F     		.sleb128 -112
 10213 1504 00000000 		.4byte	0
 10214 1508 00000000 		.4byte	0
 10215              	.LLST169:
 10216 150c 00000000 		.4byte	.LVL314
 10217 1510 15000000 		.4byte	.LVL316-1
 10218 1514 0100     		.2byte	0x1
 10219 1516 51       		.byte	0x51
 10220 1517 15000000 		.4byte	.LVL316-1
 10221 151b E4010000 		.4byte	.LVL367
ARM GAS  C:\Users\Petro\AppData\Local\Temp\ccPFwMgj.s 			page 196


 10222 151f 0100     		.2byte	0x1
 10223 1521 56       		.byte	0x56
 10224 1522 E4010000 		.4byte	.LVL367
 10225 1526 F8010000 		.4byte	.LFE28
 10226 152a 0400     		.2byte	0x4
 10227 152c F3       		.byte	0xf3
 10228 152d 01       		.uleb128 0x1
 10229 152e 51       		.byte	0x51
 10230 152f 9F       		.byte	0x9f
 10231 1530 00000000 		.4byte	0
 10232 1534 00000000 		.4byte	0
 10233              	.LLST170:
 10234 1538 00000000 		.4byte	.LVL314
 10235 153c 12000000 		.4byte	.LVL315
 10236 1540 0100     		.2byte	0x1
 10237 1542 52       		.byte	0x52
 10238 1543 12000000 		.4byte	.LVL315
 10239 1547 F8010000 		.4byte	.LFE28
 10240 154b 0400     		.2byte	0x4
 10241 154d F3       		.byte	0xf3
 10242 154e 01       		.uleb128 0x1
 10243 154f 52       		.byte	0x52
 10244 1550 9F       		.byte	0x9f
 10245 1551 00000000 		.4byte	0
 10246 1555 00000000 		.4byte	0
 10247              	.LLST171:
 10248 1559 00000000 		.4byte	.LVL314
 10249 155d 15000000 		.4byte	.LVL316-1
 10250 1561 0100     		.2byte	0x1
 10251 1563 53       		.byte	0x53
 10252 1564 15000000 		.4byte	.LVL316-1
 10253 1568 F8010000 		.4byte	.LFE28
 10254 156c 0300     		.2byte	0x3
 10255 156e 91       		.byte	0x91
 10256 156f 947F     		.sleb128 -108
 10257 1571 00000000 		.4byte	0
 10258 1575 00000000 		.4byte	0
 10259              	.LLST172:
 10260 1579 22000000 		.4byte	.LVL317
 10261 157d 26000000 		.4byte	.LVL318
 10262 1581 0200     		.2byte	0x2
 10263 1583 31       		.byte	0x31
 10264 1584 9F       		.byte	0x9f
 10265 1585 26000000 		.4byte	.LVL318
 10266 1589 58000000 		.4byte	.LVL322
 10267 158d 0100     		.2byte	0x1
 10268 158f 54       		.byte	0x54
 10269 1590 94000000 		.4byte	.LVL328
 10270 1594 98000000 		.4byte	.LVL329
 10271 1598 0100     		.2byte	0x1
 10272 159a 50       		.byte	0x50
 10273 159b 98000000 		.4byte	.LVL329
 10274 159f 72010000 		.4byte	.LVL350
 10275 15a3 0100     		.2byte	0x1
 10276 15a5 57       		.byte	0x57
 10277 15a6 CC010000 		.4byte	.LVL361
 10278 15aa D2010000 		.4byte	.LVL362
ARM GAS  C:\Users\Petro\AppData\Local\Temp\ccPFwMgj.s 			page 197


 10279 15ae 0100     		.2byte	0x1
 10280 15b0 54       		.byte	0x54
 10281 15b1 D2010000 		.4byte	.LVL362
 10282 15b5 D8010000 		.4byte	.LVL363
 10283 15b9 0100     		.2byte	0x1
 10284 15bb 57       		.byte	0x57
 10285 15bc 00000000 		.4byte	0
 10286 15c0 00000000 		.4byte	0
 10287              	.LLST173:
 10288 15c4 6E000000 		.4byte	.LVL325
 10289 15c8 98000000 		.4byte	.LVL329
 10290 15cc 0200     		.2byte	0x2
 10291 15ce 31       		.byte	0x31
 10292 15cf 9F       		.byte	0x9f
 10293 15d0 98000000 		.4byte	.LVL329
 10294 15d4 AC000000 		.4byte	.LVL330
 10295 15d8 0100     		.2byte	0x1
 10296 15da 55       		.byte	0x55
 10297 15db AC000000 		.4byte	.LVL330
 10298 15df AE000000 		.4byte	.LVL331
 10299 15e3 0200     		.2byte	0x2
 10300 15e5 30       		.byte	0x30
 10301 15e6 9F       		.byte	0x9f
 10302 15e7 AE000000 		.4byte	.LVL331
 10303 15eb 6A010000 		.4byte	.LVL348
 10304 15ef 0100     		.2byte	0x1
 10305 15f1 55       		.byte	0x55
 10306 15f2 D2010000 		.4byte	.LVL362
 10307 15f6 D8010000 		.4byte	.LVL363
 10308 15fa 0100     		.2byte	0x1
 10309 15fc 55       		.byte	0x55
 10310 15fd 00000000 		.4byte	0
 10311 1601 00000000 		.4byte	0
 10312              	.LLST174:
 10313 1605 AE000000 		.4byte	.LVL331
 10314 1609 B2000000 		.4byte	.LVL332
 10315 160d 0200     		.2byte	0x2
 10316 160f 30       		.byte	0x30
 10317 1610 9F       		.byte	0x9f
 10318 1611 B2000000 		.4byte	.LVL332
 10319 1615 D6000000 		.4byte	.LVL336
 10320 1619 0100     		.2byte	0x1
 10321 161b 52       		.byte	0x52
 10322 161c D6000000 		.4byte	.LVL336
 10323 1620 FC000000 		.4byte	.LVL340
 10324 1624 0100     		.2byte	0x1
 10325 1626 51       		.byte	0x51
 10326 1627 FE000000 		.4byte	.LVL341
 10327 162b 29010000 		.4byte	.LVL345-1
 10328 162f 0100     		.2byte	0x1
 10329 1631 51       		.byte	0x51
 10330 1632 00000000 		.4byte	0
 10331 1636 00000000 		.4byte	0
 10332              	.LLST175:
 10333 163a C6000000 		.4byte	.LVL333
 10334 163e CA000000 		.4byte	.LVL334
 10335 1642 0100     		.2byte	0x1
ARM GAS  C:\Users\Petro\AppData\Local\Temp\ccPFwMgj.s 			page 198


 10336 1644 53       		.byte	0x53
 10337 1645 00000000 		.4byte	0
 10338 1649 00000000 		.4byte	0
 10339              	.LLST176:
 10340 164d C6000000 		.4byte	.LVL333
 10341 1651 CE000000 		.4byte	.LVL335
 10342 1655 0300     		.2byte	0x3
 10343 1657 71       		.byte	0x71
 10344 1658 01       		.sleb128 1
 10345 1659 9F       		.byte	0x9f
 10346 165a 00000000 		.4byte	0
 10347 165e 00000000 		.4byte	0
 10348              	.LLST177:
 10349 1662 EE000000 		.4byte	.LVL337
 10350 1666 F2000000 		.4byte	.LVL338
 10351 166a 0100     		.2byte	0x1
 10352 166c 53       		.byte	0x53
 10353 166d 00000000 		.4byte	0
 10354 1671 00000000 		.4byte	0
 10355              	.LLST178:
 10356 1675 EE000000 		.4byte	.LVL337
 10357 1679 F6000000 		.4byte	.LVL339
 10358 167d 0300     		.2byte	0x3
 10359 167f 72       		.byte	0x72
 10360 1680 06       		.sleb128 6
 10361 1681 9F       		.byte	0x9f
 10362 1682 00000000 		.4byte	0
 10363 1686 00000000 		.4byte	0
 10364              	.LLST179:
 10365 168a 18010000 		.4byte	.LVL342
 10366 168e 1C010000 		.4byte	.LVL343
 10367 1692 0100     		.2byte	0x1
 10368 1694 53       		.byte	0x53
 10369 1695 00000000 		.4byte	0
 10370 1699 00000000 		.4byte	0
 10371              	.LLST180:
 10372 169d 18010000 		.4byte	.LVL342
 10373 16a1 20010000 		.4byte	.LVL344
 10374 16a5 0300     		.2byte	0x3
 10375 16a7 72       		.byte	0x72
 10376 16a8 04       		.sleb128 4
 10377 16a9 9F       		.byte	0x9f
 10378 16aa 00000000 		.4byte	0
 10379 16ae 00000000 		.4byte	0
 10380              	.LLST181:
 10381 16b2 72010000 		.4byte	.LVL350
 10382 16b6 94010000 		.4byte	.LVL352
 10383 16ba 0100     		.2byte	0x1
 10384 16bc 50       		.byte	0x50
 10385 16bd 94010000 		.4byte	.LVL352
 10386 16c1 A8010000 		.4byte	.LVL357
 10387 16c5 0100     		.2byte	0x1
 10388 16c7 57       		.byte	0x57
 10389 16c8 D8010000 		.4byte	.LVL363
 10390 16cc DA010000 		.4byte	.LVL364
 10391 16d0 0100     		.2byte	0x1
 10392 16d2 50       		.byte	0x50
ARM GAS  C:\Users\Petro\AppData\Local\Temp\ccPFwMgj.s 			page 199


 10393 16d3 DA010000 		.4byte	.LVL364
 10394 16d7 DE010000 		.4byte	.LVL365
 10395 16db 0100     		.2byte	0x1
 10396 16dd 57       		.byte	0x57
 10397 16de 00000000 		.4byte	0
 10398 16e2 00000000 		.4byte	0
 10399              	.LLST182:
 10400 16e6 74010000 		.4byte	.LVL351
 10401 16ea AA010000 		.4byte	.LVL358
 10402 16ee 0100     		.2byte	0x1
 10403 16f0 55       		.byte	0x55
 10404 16f1 00000000 		.4byte	0
 10405 16f5 00000000 		.4byte	0
 10406              	.LLST183:
 10407 16f9 9C010000 		.4byte	.LVL354
 10408 16fd A2010000 		.4byte	.LVL355
 10409 1701 0100     		.2byte	0x1
 10410 1703 52       		.byte	0x52
 10411 1704 A2010000 		.4byte	.LVL355
 10412 1708 A8010000 		.4byte	.LVL357
 10413 170c 0500     		.2byte	0x5
 10414 170e 77       		.byte	0x77
 10415 170f 00       		.sleb128 0
 10416 1710 40       		.byte	0x40
 10417 1711 25       		.byte	0x25
 10418 1712 9F       		.byte	0x9f
 10419 1713 00000000 		.4byte	0
 10420 1717 00000000 		.4byte	0
 10421              	.LLST184:
 10422 171b 9C010000 		.4byte	.LVL354
 10423 171f AA010000 		.4byte	.LVL358
 10424 1723 0400     		.2byte	0x4
 10425 1725 91       		.byte	0x91
 10426 1726 B07F     		.sleb128 -80
 10427 1728 9F       		.byte	0x9f
 10428 1729 00000000 		.4byte	0
 10429 172d 00000000 		.4byte	0
 10430              	.LLST185:
 10431 1731 A4010000 		.4byte	.LVL356
 10432 1735 A8010000 		.4byte	.LVL357
 10433 1739 0100     		.2byte	0x1
 10434 173b 57       		.byte	0x57
 10435 173c 00000000 		.4byte	0
 10436 1740 00000000 		.4byte	0
 10437              	.LLST186:
 10438 1744 A4010000 		.4byte	.LVL356
 10439 1748 AA010000 		.4byte	.LVL358
 10440 174c 0400     		.2byte	0x4
 10441 174e 91       		.byte	0x91
 10442 174f B67F     		.sleb128 -74
 10443 1751 9F       		.byte	0x9f
 10444 1752 00000000 		.4byte	0
 10445 1756 00000000 		.4byte	0
 10446              	.LLST187:
 10447 175a 00000000 		.4byte	.LVL368
 10448 175e 0D000000 		.4byte	.LVL369-1
 10449 1762 0100     		.2byte	0x1
ARM GAS  C:\Users\Petro\AppData\Local\Temp\ccPFwMgj.s 			page 200


 10450 1764 50       		.byte	0x50
 10451 1765 0D000000 		.4byte	.LVL369-1
 10452 1769 24010000 		.4byte	.LVL398
 10453 176d 0100     		.2byte	0x1
 10454 176f 55       		.byte	0x55
 10455 1770 24010000 		.4byte	.LVL398
 10456 1774 30010000 		.4byte	.LFE29
 10457 1778 0400     		.2byte	0x4
 10458 177a F3       		.byte	0xf3
 10459 177b 01       		.uleb128 0x1
 10460 177c 50       		.byte	0x50
 10461 177d 9F       		.byte	0x9f
 10462 177e 00000000 		.4byte	0
 10463 1782 00000000 		.4byte	0
 10464              	.LLST188:
 10465 1786 00000000 		.4byte	.LVL368
 10466 178a 0D000000 		.4byte	.LVL369-1
 10467 178e 0100     		.2byte	0x1
 10468 1790 51       		.byte	0x51
 10469 1791 0D000000 		.4byte	.LVL369-1
 10470 1795 30010000 		.4byte	.LFE29
 10471 1799 0400     		.2byte	0x4
 10472 179b F3       		.byte	0xf3
 10473 179c 01       		.uleb128 0x1
 10474 179d 51       		.byte	0x51
 10475 179e 9F       		.byte	0x9f
 10476 179f 00000000 		.4byte	0
 10477 17a3 00000000 		.4byte	0
 10478              	.LLST189:
 10479 17a7 0E000000 		.4byte	.LVL369
 10480 17ab 20000000 		.4byte	.LVL370
 10481 17af 0100     		.2byte	0x1
 10482 17b1 50       		.byte	0x50
 10483 17b2 D2000000 		.4byte	.LVL387
 10484 17b6 08010000 		.4byte	.LVL393
 10485 17ba 0100     		.2byte	0x1
 10486 17bc 50       		.byte	0x50
 10487 17bd 00000000 		.4byte	0
 10488 17c1 00000000 		.4byte	0
 10489              	.LLST190:
 10490 17c5 4C000000 		.4byte	.LVL375
 10491 17c9 50000000 		.4byte	.LVL376
 10492 17cd 0200     		.2byte	0x2
 10493 17cf 30       		.byte	0x30
 10494 17d0 9F       		.byte	0x9f
 10495 17d1 50000000 		.4byte	.LVL376
 10496 17d5 9A000000 		.4byte	.LVL381
 10497 17d9 0100     		.2byte	0x1
 10498 17db 54       		.byte	0x54
 10499 17dc 1E010000 		.4byte	.LVL396
 10500 17e0 22010000 		.4byte	.LVL397
 10501 17e4 0100     		.2byte	0x1
 10502 17e6 54       		.byte	0x54
 10503 17e7 00000000 		.4byte	0
 10504 17eb 00000000 		.4byte	0
 10505              	.LLST191:
 10506 17ef 22000000 		.4byte	.LVL371
ARM GAS  C:\Users\Petro\AppData\Local\Temp\ccPFwMgj.s 			page 201


 10507 17f3 2E000000 		.4byte	.LVL373
 10508 17f7 0200     		.2byte	0x2
 10509 17f9 31       		.byte	0x31
 10510 17fa 9F       		.byte	0x9f
 10511 17fb 18010000 		.4byte	.LVL395
 10512 17ff 1E010000 		.4byte	.LVL396
 10513 1803 0200     		.2byte	0x2
 10514 1805 31       		.byte	0x31
 10515 1806 9F       		.byte	0x9f
 10516 1807 00000000 		.4byte	0
 10517 180b 00000000 		.4byte	0
 10518              	.LLST192:
 10519 180f 22000000 		.4byte	.LVL371
 10520 1813 29000000 		.4byte	.LVL372-1
 10521 1817 0100     		.2byte	0x1
 10522 1819 51       		.byte	0x51
 10523 181a 00000000 		.4byte	0
 10524 181e 00000000 		.4byte	0
 10525              	.LLST193:
 10526 1822 22000000 		.4byte	.LVL371
 10527 1826 29000000 		.4byte	.LVL372-1
 10528 182a 0100     		.2byte	0x1
 10529 182c 50       		.byte	0x50
 10530 182d 00000000 		.4byte	0
 10531 1831 00000000 		.4byte	0
 10532              	.LLST194:
 10533 1835 3E000000 		.4byte	.LVL374
 10534 1839 50000000 		.4byte	.LVL376
 10535 183d 0200     		.2byte	0x2
 10536 183f 91       		.byte	0x91
 10537 1840 4C       		.sleb128 -52
 10538 1841 00000000 		.4byte	0
 10539 1845 00000000 		.4byte	0
 10540              	.LLST195:
 10541 1849 3E000000 		.4byte	.LVL374
 10542 184d 18010000 		.4byte	.LVL395
 10543 1851 0100     		.2byte	0x1
 10544 1853 55       		.byte	0x55
 10545 1854 1E010000 		.4byte	.LVL396
 10546 1858 22010000 		.4byte	.LVL397
 10547 185c 0100     		.2byte	0x1
 10548 185e 55       		.byte	0x55
 10549 185f 00000000 		.4byte	0
 10550 1863 00000000 		.4byte	0
 10551              	.LLST196:
 10552 1867 70000000 		.4byte	.LVL377
 10553 186b 7C000000 		.4byte	.LVL379
 10554 186f 0200     		.2byte	0x2
 10555 1871 31       		.byte	0x31
 10556 1872 9F       		.byte	0x9f
 10557 1873 1E010000 		.4byte	.LVL396
 10558 1877 22010000 		.4byte	.LVL397
 10559 187b 0200     		.2byte	0x2
 10560 187d 31       		.byte	0x31
 10561 187e 9F       		.byte	0x9f
 10562 187f 00000000 		.4byte	0
 10563 1883 00000000 		.4byte	0
ARM GAS  C:\Users\Petro\AppData\Local\Temp\ccPFwMgj.s 			page 202


 10564              	.LLST197:
 10565 1887 70000000 		.4byte	.LVL377
 10566 188b 77000000 		.4byte	.LVL378-1
 10567 188f 0100     		.2byte	0x1
 10568 1891 51       		.byte	0x51
 10569 1892 00000000 		.4byte	0
 10570 1896 00000000 		.4byte	0
 10571              	.LLST198:
 10572 189a 70000000 		.4byte	.LVL377
 10573 189e 77000000 		.4byte	.LVL378-1
 10574 18a2 0100     		.2byte	0x1
 10575 18a4 50       		.byte	0x50
 10576 18a5 00000000 		.4byte	0
 10577 18a9 00000000 		.4byte	0
 10578              	.LLST199:
 10579 18ad BC000000 		.4byte	.LVL383
 10580 18b1 C0000000 		.4byte	.LVL384
 10581 18b5 0100     		.2byte	0x1
 10582 18b7 52       		.byte	0x52
 10583 18b8 C0000000 		.4byte	.LVL384
 10584 18bc C6000000 		.4byte	.LVL386
 10585 18c0 0500     		.2byte	0x5
 10586 18c2 73       		.byte	0x73
 10587 18c3 00       		.sleb128 0
 10588 18c4 40       		.byte	0x40
 10589 18c5 25       		.byte	0x25
 10590 18c6 9F       		.byte	0x9f
 10591 18c7 C6000000 		.4byte	.LVL386
 10592 18cb D1000000 		.4byte	.LVL387-1
 10593 18cf 0200     		.2byte	0x2
 10594 18d1 91       		.byte	0x91
 10595 18d2 4E       		.sleb128 -50
 10596 18d3 00000000 		.4byte	0
 10597 18d7 00000000 		.4byte	0
 10598              	.LLST200:
 10599 18db BC000000 		.4byte	.LVL383
 10600 18df 18010000 		.4byte	.LVL395
 10601 18e3 0400     		.2byte	0x4
 10602 18e5 91       		.byte	0x91
 10603 18e6 B87F     		.sleb128 -72
 10604 18e8 9F       		.byte	0x9f
 10605 18e9 00000000 		.4byte	0
 10606 18ed 00000000 		.4byte	0
 10607              	.LLST201:
 10608 18f1 C2000000 		.4byte	.LVL385
 10609 18f5 C6000000 		.4byte	.LVL386
 10610 18f9 0100     		.2byte	0x1
 10611 18fb 53       		.byte	0x53
 10612 18fc C6000000 		.4byte	.LVL386
 10613 1900 D1000000 		.4byte	.LVL387-1
 10614 1904 0200     		.2byte	0x2
 10615 1906 91       		.byte	0x91
 10616 1907 4C       		.sleb128 -52
 10617 1908 00000000 		.4byte	0
 10618 190c 00000000 		.4byte	0
 10619              	.LLST202:
 10620 1910 C2000000 		.4byte	.LVL385
ARM GAS  C:\Users\Petro\AppData\Local\Temp\ccPFwMgj.s 			page 203


 10621 1914 18010000 		.4byte	.LVL395
 10622 1918 0400     		.2byte	0x4
 10623 191a 91       		.byte	0x91
 10624 191b BE7F     		.sleb128 -66
 10625 191d 9F       		.byte	0x9f
 10626 191e 00000000 		.4byte	0
 10627 1922 00000000 		.4byte	0
 10628              	.LLST203:
 10629 1926 EE000000 		.4byte	.LVL388
 10630 192a F4000000 		.4byte	.LVL389
 10631 192e 0100     		.2byte	0x1
 10632 1930 51       		.byte	0x51
 10633 1931 F4000000 		.4byte	.LVL389
 10634 1935 FA000000 		.4byte	.LVL391
 10635 1939 0500     		.2byte	0x5
 10636 193b 73       		.byte	0x73
 10637 193c 00       		.sleb128 0
 10638 193d 40       		.byte	0x40
 10639 193e 25       		.byte	0x25
 10640 193f 9F       		.byte	0x9f
 10641 1940 FA000000 		.4byte	.LVL391
 10642 1944 FE000000 		.4byte	.LVL392
 10643 1948 0200     		.2byte	0x2
 10644 194a 75       		.byte	0x75
 10645 194b 2E       		.sleb128 46
 10646 194c 00000000 		.4byte	0
 10647 1950 00000000 		.4byte	0
 10648              	.LLST204:
 10649 1954 EE000000 		.4byte	.LVL388
 10650 1958 FE000000 		.4byte	.LVL392
 10651 195c 0400     		.2byte	0x4
 10652 195e 91       		.byte	0x91
 10653 195f B87F     		.sleb128 -72
 10654 1961 9F       		.byte	0x9f
 10655 1962 00000000 		.4byte	0
 10656 1966 00000000 		.4byte	0
 10657              	.LLST205:
 10658 196a F6000000 		.4byte	.LVL390
 10659 196e FA000000 		.4byte	.LVL391
 10660 1972 0100     		.2byte	0x1
 10661 1974 53       		.byte	0x53
 10662 1975 FA000000 		.4byte	.LVL391
 10663 1979 FE000000 		.4byte	.LVL392
 10664 197d 0200     		.2byte	0x2
 10665 197f 75       		.byte	0x75
 10666 1980 2C       		.sleb128 44
 10667 1981 00000000 		.4byte	0
 10668 1985 00000000 		.4byte	0
 10669              	.LLST206:
 10670 1989 F6000000 		.4byte	.LVL390
 10671 198d FE000000 		.4byte	.LVL392
 10672 1991 0400     		.2byte	0x4
 10673 1993 91       		.byte	0x91
 10674 1994 BE7F     		.sleb128 -66
 10675 1996 9F       		.byte	0x9f
 10676 1997 00000000 		.4byte	0
 10677 199b 00000000 		.4byte	0
ARM GAS  C:\Users\Petro\AppData\Local\Temp\ccPFwMgj.s 			page 204


 10678              	.LLST207:
 10679 199f 00000000 		.4byte	.LVL399
 10680 19a3 0B000000 		.4byte	.LVL401-1
 10681 19a7 0100     		.2byte	0x1
 10682 19a9 50       		.byte	0x50
 10683 19aa 0B000000 		.4byte	.LVL401-1
 10684 19ae 10000000 		.4byte	.LFE30
 10685 19b2 0400     		.2byte	0x4
 10686 19b4 F3       		.byte	0xf3
 10687 19b5 01       		.uleb128 0x1
 10688 19b6 50       		.byte	0x50
 10689 19b7 9F       		.byte	0x9f
 10690 19b8 00000000 		.4byte	0
 10691 19bc 00000000 		.4byte	0
 10692              	.LLST208:
 10693 19c0 00000000 		.4byte	.LVL399
 10694 19c4 0B000000 		.4byte	.LVL401-1
 10695 19c8 0100     		.2byte	0x1
 10696 19ca 51       		.byte	0x51
 10697 19cb 0B000000 		.4byte	.LVL401-1
 10698 19cf 10000000 		.4byte	.LFE30
 10699 19d3 0400     		.2byte	0x4
 10700 19d5 F3       		.byte	0xf3
 10701 19d6 01       		.uleb128 0x1
 10702 19d7 51       		.byte	0x51
 10703 19d8 9F       		.byte	0x9f
 10704 19d9 00000000 		.4byte	0
 10705 19dd 00000000 		.4byte	0
 10706              	.LLST209:
 10707 19e1 00000000 		.4byte	.LVL399
 10708 19e5 08000000 		.4byte	.LVL400
 10709 19e9 0100     		.2byte	0x1
 10710 19eb 52       		.byte	0x52
 10711 19ec 08000000 		.4byte	.LVL400
 10712 19f0 0E000000 		.4byte	.LVL403
 10713 19f4 0100     		.2byte	0x1
 10714 19f6 55       		.byte	0x55
 10715 19f7 0E000000 		.4byte	.LVL403
 10716 19fb 10000000 		.4byte	.LFE30
 10717 19ff 0500     		.2byte	0x5
 10718 1a01 F3       		.byte	0xf3
 10719 1a02 01       		.uleb128 0x1
 10720 1a03 53       		.byte	0x53
 10721 1a04 23       		.byte	0x23
 10722 1a05 18       		.uleb128 0x18
 10723 1a06 00000000 		.4byte	0
 10724 1a0a 00000000 		.4byte	0
 10725              	.LLST210:
 10726 1a0e 00000000 		.4byte	.LVL399
 10727 1a12 0B000000 		.4byte	.LVL401-1
 10728 1a16 0100     		.2byte	0x1
 10729 1a18 53       		.byte	0x53
 10730 1a19 0B000000 		.4byte	.LVL401-1
 10731 1a1d 0E000000 		.4byte	.LVL402
 10732 1a21 0100     		.2byte	0x1
 10733 1a23 54       		.byte	0x54
 10734 1a24 0E000000 		.4byte	.LVL402
ARM GAS  C:\Users\Petro\AppData\Local\Temp\ccPFwMgj.s 			page 205


 10735 1a28 10000000 		.4byte	.LFE30
 10736 1a2c 0400     		.2byte	0x4
 10737 1a2e F3       		.byte	0xf3
 10738 1a2f 01       		.uleb128 0x1
 10739 1a30 53       		.byte	0x53
 10740 1a31 9F       		.byte	0x9f
 10741 1a32 00000000 		.4byte	0
 10742 1a36 00000000 		.4byte	0
 10743              		.section	.debug_aranges,"",%progbits
 10744 0000 84000000 		.4byte	0x84
 10745 0004 0200     		.2byte	0x2
 10746 0006 00000000 		.4byte	.Ldebug_info0
 10747 000a 04       		.byte	0x4
 10748 000b 00       		.byte	0
 10749 000c 0000     		.2byte	0
 10750 000e 0000     		.2byte	0
 10751 0010 00000000 		.4byte	.LFB18
 10752 0014 F8000000 		.4byte	.LFE18-.LFB18
 10753 0018 00000000 		.4byte	.LFB19
 10754 001c DC000000 		.4byte	.LFE19-.LFB19
 10755 0020 00000000 		.4byte	.LFB20
 10756 0024 70020000 		.4byte	.LFE20-.LFB20
 10757 0028 00000000 		.4byte	.LFB21
 10758 002c 5E000000 		.4byte	.LFE21-.LFB21
 10759 0030 00000000 		.4byte	.LFB17
 10760 0034 44000000 		.4byte	.LFE17-.LFB17
 10761 0038 00000000 		.4byte	.LFB25
 10762 003c 58000000 		.4byte	.LFE25-.LFB25
 10763 0040 00000000 		.4byte	.LFB22
 10764 0044 E8000000 		.4byte	.LFE22-.LFB22
 10765 0048 00000000 		.4byte	.LFB27
 10766 004c B4000000 		.4byte	.LFE27-.LFB27
 10767 0050 00000000 		.4byte	.LFB23
 10768 0054 F4000000 		.4byte	.LFE23-.LFB23
 10769 0058 00000000 		.4byte	.LFB24
 10770 005c 0C020000 		.4byte	.LFE24-.LFB24
 10771 0060 00000000 		.4byte	.LFB26
 10772 0064 DC000000 		.4byte	.LFE26-.LFB26
 10773 0068 00000000 		.4byte	.LFB28
 10774 006c F8010000 		.4byte	.LFE28-.LFB28
 10775 0070 00000000 		.4byte	.LFB29
 10776 0074 30010000 		.4byte	.LFE29-.LFB29
 10777 0078 00000000 		.4byte	.LFB30
 10778 007c 10000000 		.4byte	.LFE30-.LFB30
 10779 0080 00000000 		.4byte	0
 10780 0084 00000000 		.4byte	0
 10781              		.section	.debug_ranges,"",%progbits
 10782              	.Ldebug_ranges0:
 10783 0000 70000000 		.4byte	.LBB196
 10784 0004 C0000000 		.4byte	.LBE196
 10785 0008 C8000000 		.4byte	.LBB204
 10786 000c CC000000 		.4byte	.LBE204
 10787 0010 00000000 		.4byte	0
 10788 0014 00000000 		.4byte	0
 10789 0018 74000000 		.4byte	.LBB227
 10790 001c AE010000 		.4byte	.LBE227
 10791 0020 D8010000 		.4byte	.LBB239
ARM GAS  C:\Users\Petro\AppData\Local\Temp\ccPFwMgj.s 			page 206


 10792 0024 EE010000 		.4byte	.LBE239
 10793 0028 00000000 		.4byte	0
 10794 002c 00000000 		.4byte	0
 10795 0030 98000000 		.4byte	.LBB246
 10796 0034 3A010000 		.4byte	.LBE246
 10797 0038 D2010000 		.4byte	.LBB260
 10798 003c D8010000 		.4byte	.LBE260
 10799 0040 00000000 		.4byte	0
 10800 0044 00000000 		.4byte	0
 10801 0048 68010000 		.4byte	.LBB253
 10802 004c AA010000 		.4byte	.LBE253
 10803 0050 D8010000 		.4byte	.LBB261
 10804 0054 DE010000 		.4byte	.LBE261
 10805 0058 00000000 		.4byte	0
 10806 005c 00000000 		.4byte	0
 10807 0060 00000000 		.4byte	.LFB18
 10808 0064 F8000000 		.4byte	.LFE18
 10809 0068 00000000 		.4byte	.LFB19
 10810 006c DC000000 		.4byte	.LFE19
 10811 0070 00000000 		.4byte	.LFB20
 10812 0074 70020000 		.4byte	.LFE20
 10813 0078 00000000 		.4byte	.LFB21
 10814 007c 5E000000 		.4byte	.LFE21
 10815 0080 00000000 		.4byte	.LFB17
 10816 0084 44000000 		.4byte	.LFE17
 10817 0088 00000000 		.4byte	.LFB25
 10818 008c 58000000 		.4byte	.LFE25
 10819 0090 00000000 		.4byte	.LFB22
 10820 0094 E8000000 		.4byte	.LFE22
 10821 0098 00000000 		.4byte	.LFB27
 10822 009c B4000000 		.4byte	.LFE27
 10823 00a0 00000000 		.4byte	.LFB23
 10824 00a4 F4000000 		.4byte	.LFE23
 10825 00a8 00000000 		.4byte	.LFB24
 10826 00ac 0C020000 		.4byte	.LFE24
 10827 00b0 00000000 		.4byte	.LFB26
 10828 00b4 DC000000 		.4byte	.LFE26
 10829 00b8 00000000 		.4byte	.LFB28
 10830 00bc F8010000 		.4byte	.LFE28
 10831 00c0 00000000 		.4byte	.LFB29
 10832 00c4 30010000 		.4byte	.LFE29
 10833 00c8 00000000 		.4byte	.LFB30
 10834 00cc 10000000 		.4byte	.LFE30
 10835 00d0 00000000 		.4byte	0
 10836 00d4 00000000 		.4byte	0
 10837              		.section	.debug_line,"",%progbits
 10838              	.Ldebug_line0:
 10839 0000 AE0A0000 		.section	.debug_str,"MS",%progbits,1
 10839      02001102 
 10839      00000201 
 10839      FB0E0D00 
 10839      01010101 
 10840              	.LASF37:
 10841 0000 46617446 		.ascii	"FatFile\000"
 10841      696C6500 
 10842              	.LASF66:
 10843 0008 636C7573 		.ascii	"cluster_lo\000"
ARM GAS  C:\Users\Petro\AppData\Local\Temp\ccPFwMgj.s 			page 207


 10843      7465725F 
 10843      6C6F00
 10844              	.LASF107:
 10845 0013 6C617374 		.ascii	"last\000"
 10845      00
 10846              	.LASF115:
 10847 0018 73747272 		.ascii	"strrchr\000"
 10847      63687200 
 10848              	.LASF105:
 10849 0020 5F666174 		.ascii	"_fat_dir_create_file\000"
 10849      5F646972 
 10849      5F637265 
 10849      6174655F 
 10849      66696C65 
 10850              	.LASF120:
 10851 0035 7374726C 		.ascii	"strlen\000"
 10851      656E00
 10852              	.LASF110:
 10853 003c 6661745F 		.ascii	"fat_create\000"
 10853      63726561 
 10853      746500
 10854              	.LASF93:
 10855 0047 6661745F 		.ascii	"fat_chain_unlink\000"
 10855      63686169 
 10855      6E5F756E 
 10855      6C696E6B 
 10855      00
 10856              	.LASF44:
 10857 0058 666C6167 		.ascii	"flags\000"
 10857      7300
 10858              	.LASF0:
 10859 005e 756E7369 		.ascii	"unsigned int\000"
 10859      676E6564 
 10859      20696E74 
 10859      00
 10860              	.LASF125:
 10861 006b 6661745F 		.ascii	"fat_type\000"
 10861      74797065 
 10861      00
 10862              	.LASF72:
 10863 0074 5F666174 		.ascii	"_fat_cache\000"
 10863      5F636163 
 10863      686500
 10864              	.LASF26:
 10865 007f 626C6F63 		.ascii	"block_device\000"
 10865      6B5F6465 
 10865      76696365 
 10865      00
 10866              	.LASF77:
 10867 008c 626C6F63 		.ascii	"block_write_sectors\000"
 10867      6B5F7772 
 10867      6974655F 
 10867      73656374 
 10867      6F727300 
 10868              	.LASF8:
 10869 00a0 5F5F696E 		.ascii	"__int32_t\000"
 10869      7433325F 
ARM GAS  C:\Users\Petro\AppData\Local\Temp\ccPFwMgj.s 			page 208


 10869      7400
 10870              	.LASF62:
 10871 00aa 61636365 		.ascii	"access_date\000"
 10871      73735F64 
 10871      61746500 
 10872              	.LASF104:
 10873 00b6 6661745F 		.ascii	"fat_unlink\000"
 10873      756E6C69 
 10873      6E6B00
 10874              	.LASF91:
 10875 00c1 6661745F 		.ascii	"fat_set_next_cluster\000"
 10875      7365745F 
 10875      6E657874 
 10875      5F636C75 
 10875      73746572 
 10876              	.LASF109:
 10877 00d6 6661745F 		.ascii	"fat_mkdir\000"
 10877      6D6B6469 
 10877      7200
 10878              	.LASF22:
 10879 00e0 6765745F 		.ascii	"get_sector_size\000"
 10879      73656374 
 10879      6F725F73 
 10879      697A6500 
 10880              	.LASF38:
 10881 00f0 6661745F 		.ascii	"fat_file_handle\000"
 10881      66696C65 
 10881      5F68616E 
 10881      646C6500 
 10882              	.LASF102:
 10883 0100 6368756E 		.ascii	"chunk\000"
 10883      6B00
 10884              	.LASF27:
 10885 0106 6661745F 		.ascii	"fat_vol_handle\000"
 10885      766F6C5F 
 10885      68616E64 
 10885      6C6500
 10886              	.LASF19:
 10887 0115 75696E74 		.ascii	"uint32_t\000"
 10887      33325F74 
 10887      00
 10888              	.LASF89:
 10889 011e 66617431 		.ascii	"fat16_set_next_cluster\000"
 10889      365F7365 
 10889      745F6E65 
 10889      78745F63 
 10889      6C757374 
 10890              	.LASF23:
 10891 0135 72656164 		.ascii	"read_sectors\000"
 10891      5F736563 
 10891      746F7273 
 10891      00
 10892              	.LASF43:
 10893 0142 726F6F74 		.ascii	"root_flag\000"
 10893      5F666C61 
 10893      6700
 10894              	.LASF24:
ARM GAS  C:\Users\Petro\AppData\Local\Temp\ccPFwMgj.s 			page 209


 10895 014c 77726974 		.ascii	"write_sectors\000"
 10895      655F7365 
 10895      63746F72 
 10895      7300
 10896              	.LASF55:
 10897 015a 6661745F 		.ascii	"fat_sdirent\000"
 10897      73646972 
 10897      656E7400 
 10898              	.LASF20:
 10899 0166 666C6F61 		.ascii	"float\000"
 10899      7400
 10900              	.LASF69:
 10901 016c 63686563 		.ascii	"checksum\000"
 10901      6B73756D 
 10901      00
 10902              	.LASF78:
 10903 0175 636F756E 		.ascii	"count\000"
 10903      7400
 10904              	.LASF13:
 10905 017b 6C6F6E67 		.ascii	"long long unsigned int\000"
 10905      206C6F6E 
 10905      6720756E 
 10905      7369676E 
 10905      65642069 
 10906              	.LASF58:
 10907 0192 52657365 		.ascii	"Reserved\000"
 10907      72766564 
 10907      00
 10908              	.LASF106:
 10909 019b 66696C65 		.ascii	"file\000"
 10909      00
 10910              	.LASF57:
 10911 01a0 61747472 		.ascii	"attr\000"
 10911      00
 10912              	.LASF67:
 10913 01a5 6661745F 		.ascii	"fat_ldirent\000"
 10913      6C646972 
 10913      656E7400 
 10914              	.LASF6:
 10915 01b1 5F5F7569 		.ascii	"__uint16_t\000"
 10915      6E743136 
 10915      5F7400
 10916              	.LASF33:
 10917 01bc 66697273 		.ascii	"first_data_sector\000"
 10917      745F6461 
 10917      74615F73 
 10917      6563746F 
 10917      7200
 10918              	.LASF95:
 10919 01ce 636C6561 		.ascii	"clear\000"
 10919      7200
 10920              	.LASF119:
 10921 01d4 5F666174 		.ascii	"_fat_dirent_chksum\000"
 10921      5F646972 
 10921      656E745F 
 10921      63686B73 
 10921      756D00
ARM GAS  C:\Users\Petro\AppData\Local\Temp\ccPFwMgj.s 			page 210


 10922              	.LASF2:
 10923 01e7 73697A65 		.ascii	"size_t\000"
 10923      5F7400
 10924              	.LASF87:
 10925 01ee 6F666673 		.ascii	"offset\000"
 10925      657400
 10926              	.LASF49:
 10927 01f5 726F6F74 		.ascii	"root_first_sector\000"
 10927      5F666972 
 10927      73745F73 
 10927      6563746F 
 10927      7200
 10928              	.LASF121:
 10929 0207 5F666174 		.ascii	"_fat_dir_seek_empty\000"
 10929      5F646972 
 10929      5F736565 
 10929      6B5F656D 
 10929      70747900 
 10930              	.LASF46:
 10931 021b 64697265 		.ascii	"dirent_offset\000"
 10931      6E745F6F 
 10931      66667365 
 10931      7400
 10932              	.LASF45:
 10933 0229 64697265 		.ascii	"dirent_sector\000"
 10933      6E745F73 
 10933      6563746F 
 10933      7200
 10934              	.LASF48:
 10935 0237 726F6F74 		.ascii	"root_sector_count\000"
 10935      5F736563 
 10935      746F725F 
 10935      636F756E 
 10935      7400
 10936              	.LASF101:
 10937 0249 6661745F 		.ascii	"fat_write\000"
 10937      77726974 
 10937      6500
 10938              	.LASF85:
 10939 0253 636C7573 		.ascii	"cluster\000"
 10939      74657200 
 10940              	.LASF31:
 10941 025b 72657365 		.ascii	"reserved_sector_count\000"
 10941      72766564 
 10941      5F736563 
 10941      746F725F 
 10941      636F756E 
 10942              	.LASF60:
 10943 0271 63726561 		.ascii	"create_time\000"
 10943      74655F74 
 10943      696D6500 
 10944              	.LASF15:
 10945 027d 63686172 		.ascii	"char\000"
 10945      00
 10946              	.LASF103:
 10947 0282 6E657874 		.ascii	"next_cluster\000"
 10947      5F636C75 
ARM GAS  C:\Users\Petro\AppData\Local\Temp\ccPFwMgj.s 			page 211


 10947      73746572 
 10947      00
 10948              	.LASF34:
 10949 028f 636C7573 		.ascii	"cluster_count\000"
 10949      7465725F 
 10949      636F756E 
 10949      7400
 10950              	.LASF74:
 10951 029d 73656374 		.ascii	"sector\000"
 10951      6F7200
 10952              	.LASF16:
 10953 02a4 75696E74 		.ascii	"uint8_t\000"
 10953      385F7400 
 10954              	.LASF79:
 10955 02ac 626C6F63 		.ascii	"block_read_sectors\000"
 10955      6B5F7265 
 10955      61645F73 
 10955      6563746F 
 10955      727300
 10956              	.LASF94:
 10957 02bf 6661745F 		.ascii	"fat_alloc_next_cluster\000"
 10957      616C6C6F 
 10957      635F6E65 
 10957      78745F63 
 10957      6C757374 
 10958              	.LASF61:
 10959 02d6 63726561 		.ascii	"create_date\000"
 10959      74655F64 
 10959      61746500 
 10960              	.LASF36:
 10961 02e2 6C617374 		.ascii	"last_cluster_alloc\000"
 10961      5F636C75 
 10961      73746572 
 10961      5F616C6C 
 10961      6F6300
 10962              	.LASF123:
 10963 02f5 2E5C7772 		.ascii	".\\write.c\000"
 10963      6974652E 
 10963      6300
 10964              	.LASF124:
 10965 02ff 443A5C43 		.ascii	"D:\\Cypress\\system-start-finish\\vesion 2\\fw\\fin"
 10965      79707265 
 10965      73735C73 
 10965      79737465 
 10965      6D2D7374 
 10966 032d 6973685C 		.ascii	"ish\\sandbox\\v2\\SD\\sd_openFat.cydsn\000"
 10966      73616E64 
 10966      626F785C 
 10966      76325C53 
 10966      445C7364 
 10967              	.LASF25:
 10968 0350 46617456 		.ascii	"FatVol\000"
 10968      6F6C00
 10969              	.LASF70:
 10970 0357 6E616D65 		.ascii	"name2\000"
 10970      3200
 10971              	.LASF71:
ARM GAS  C:\Users\Petro\AppData\Local\Temp\ccPFwMgj.s 			page 212


 10972 035d 6E616D65 		.ascii	"name3\000"
 10972      3300
 10973              	.LASF12:
 10974 0363 6C6F6E67 		.ascii	"long long int\000"
 10974      206C6F6E 
 10974      6720696E 
 10974      7400
 10975              	.LASF108:
 10976 0371 66617465 		.ascii	"fatent\000"
 10976      6E7400
 10977              	.LASF73:
 10978 0378 626C6465 		.ascii	"bldev\000"
 10978      7600
 10979              	.LASF76:
 10980 037e 5F5F6765 		.ascii	"__get_le16\000"
 10980      745F6C65 
 10980      313600
 10981              	.LASF84:
 10982 0389 6661745F 		.ascii	"fat_first_sector_of_cluster\000"
 10982      66697273 
 10982      745F7365 
 10982      63746F72 
 10982      5F6F665F 
 10983              	.LASF52:
 10984 03a5 4641545F 		.ascii	"FAT_TYPE_FAT12\000"
 10984      54595045 
 10984      5F464154 
 10984      313200
 10985              	.LASF53:
 10986 03b4 4641545F 		.ascii	"FAT_TYPE_FAT16\000"
 10986      54595045 
 10986      5F464154 
 10986      313600
 10987              	.LASF114:
 10988 03c3 6D656D73 		.ascii	"memset\000"
 10988      657400
 10989              	.LASF112:
 10990 03ca 5F666174 		.ascii	"_fat_sector_buf\000"
 10990      5F736563 
 10990      746F725F 
 10990      62756600 
 10991              	.LASF42:
 10992 03da 6375725F 		.ascii	"cur_cluster\000"
 10992      636C7573 
 10992      74657200 
 10993              	.LASF51:
 10994 03e6 66617431 		.ascii	"fat12_16\000"
 10994      325F3136 
 10994      00
 10995              	.LASF39:
 10996 03ef 73697A65 		.ascii	"size\000"
 10996      00
 10997              	.LASF30:
 10998 03f4 73656374 		.ascii	"sectors_per_cluster\000"
 10998      6F72735F 
 10998      7065725F 
 10998      636C7573 
ARM GAS  C:\Users\Petro\AppData\Local\Temp\ccPFwMgj.s 			page 213


 10998      74657200 
 10999              	.LASF100:
 11000 0408 6661745F 		.ascii	"fat_file_sync\000"
 11000      66696C65 
 11000      5F73796E 
 11000      6300
 11001              	.LASF32:
 11002 0416 6E756D5F 		.ascii	"num_fats\000"
 11002      66617473 
 11002      00
 11003              	.LASF111:
 11004 041f 5F5F6374 		.ascii	"__ctype_ptr__\000"
 11004      7970655F 
 11004      7074725F 
 11004      5F00
 11005              	.LASF75:
 11006 042d 64697274 		.ascii	"dirty\000"
 11006      7900
 11007              	.LASF17:
 11008 0433 75696E74 		.ascii	"uint16_t\000"
 11008      31365F74 
 11008      00
 11009              	.LASF99:
 11010 043c 64697265 		.ascii	"dirent\000"
 11010      6E7400
 11011              	.LASF80:
 11012 0443 5F5F6765 		.ascii	"__get_le32\000"
 11012      745F6C65 
 11012      333200
 11013              	.LASF98:
 11014 044e 73756666 		.ascii	"suffix\000"
 11014      697800
 11015              	.LASF54:
 11016 0455 4641545F 		.ascii	"FAT_TYPE_FAT32\000"
 11016      54595045 
 11016      5F464154 
 11016      333200
 11017              	.LASF5:
 11018 0464 73686F72 		.ascii	"short int\000"
 11018      7420696E 
 11018      7400
 11019              	.LASF88:
 11020 046e 66617433 		.ascii	"fat32_set_next_cluster\000"
 11020      325F7365 
 11020      745F6E65 
 11020      78745F63 
 11020      6C757374 
 11021              	.LASF9:
 11022 0485 6C6F6E67 		.ascii	"long int\000"
 11022      20696E74 
 11022      00
 11023              	.LASF92:
 11024 048e 6661745F 		.ascii	"fat_find_free_cluster\000"
 11024      66696E64 
 11024      5F667265 
 11024      655F636C 
 11024      75737465 
ARM GAS  C:\Users\Petro\AppData\Local\Temp\ccPFwMgj.s 			page 214


 11025              	.LASF86:
 11026 04a4 6E657874 		.ascii	"next\000"
 11026      00
 11027              	.LASF81:
 11028 04a9 5F5F7075 		.ascii	"__put_le16\000"
 11028      745F6C65 
 11028      313600
 11029              	.LASF122:
 11030 04b4 474E5520 		.ascii	"GNU C 4.9.3 20150303 (release) [ARM/embedded-4_9-br"
 11030      4320342E 
 11030      392E3320 
 11030      32303135 
 11030      30333033 
 11031 04e7 616E6368 		.ascii	"anch revision 221220] -mcpu=cortex-m0 -mthumb -g -O"
 11031      20726576 
 11031      6973696F 
 11031      6E203232 
 11031      31323230 
 11032 051a 67202D66 		.ascii	"g -ffunction-sections -ffat-lto-objects\000"
 11032      66756E63 
 11032      74696F6E 
 11032      2D736563 
 11032      74696F6E 
 11033              	.LASF63:
 11034 0542 636C7573 		.ascii	"cluster_hi\000"
 11034      7465725F 
 11034      686900
 11035              	.LASF3:
 11036 054d 5F5F7569 		.ascii	"__uint8_t\000"
 11036      6E74385F 
 11036      7400
 11037              	.LASF56:
 11038 0557 6E616D65 		.ascii	"name\000"
 11038      00
 11039              	.LASF50:
 11040 055c 66617433 		.ascii	"fat32\000"
 11040      3200
 11041              	.LASF40:
 11042 0562 66697273 		.ascii	"first_cluster\000"
 11042      745F636C 
 11042      75737465 
 11042      7200
 11043              	.LASF118:
 11044 0570 6661745F 		.ascii	"fat_open\000"
 11044      6F70656E 
 11044      00
 11045              	.LASF14:
 11046 0579 73697A65 		.ascii	"sizetype\000"
 11046      74797065 
 11046      00
 11047              	.LASF11:
 11048 0582 6C6F6E67 		.ascii	"long unsigned int\000"
 11048      20756E73 
 11048      69676E65 
 11048      6420696E 
 11048      7400
 11049              	.LASF117:
ARM GAS  C:\Users\Petro\AppData\Local\Temp\ccPFwMgj.s 			page 215


 11050 0594 5F666174 		.ascii	"_fat_file_sector_offset\000"
 11050      5F66696C 
 11050      655F7365 
 11050      63746F72 
 11050      5F6F6666 
 11051              	.LASF18:
 11052 05ac 696E7433 		.ascii	"int32_t\000"
 11052      325F7400 
 11053              	.LASF35:
 11054 05b4 6661745F 		.ascii	"fat_size\000"
 11054      73697A65 
 11054      00
 11055              	.LASF28:
 11056 05bd 74797065 		.ascii	"type\000"
 11056      00
 11057              	.LASF4:
 11058 05c2 756E7369 		.ascii	"unsigned char\000"
 11058      676E6564 
 11058      20636861 
 11058      7200
 11059              	.LASF82:
 11060 05d0 5F5F7075 		.ascii	"__put_le32\000"
 11060      745F6C65 
 11060      333200
 11061              	.LASF10:
 11062 05db 5F5F7569 		.ascii	"__uint32_t\000"
 11062      6E743332 
 11062      5F7400
 11063              	.LASF29:
 11064 05e6 62797465 		.ascii	"bytes_per_sector\000"
 11064      735F7065 
 11064      725F7365 
 11064      63746F72 
 11064      00
 11065              	.LASF68:
 11066 05f7 6E616D65 		.ascii	"name1\000"
 11066      3100
 11067              	.LASF59:
 11068 05fd 63726561 		.ascii	"create_time_fine\000"
 11068      74655F74 
 11068      696D655F 
 11068      66696E65 
 11068      00
 11069              	.LASF126:
 11070 060e 6275696C 		.ascii	"build_short_name\000"
 11070      645F7368 
 11070      6F72745F 
 11070      6E616D65 
 11070      00
 11071              	.LASF64:
 11072 061f 77726974 		.ascii	"write_time\000"
 11072      655F7469 
 11072      6D6500
 11073              	.LASF83:
 11074 062a 6661745F 		.ascii	"fat_eoc\000"
 11074      656F6300 
 11075              	.LASF1:
ARM GAS  C:\Users\Petro\AppData\Local\Temp\ccPFwMgj.s 			page 216


 11076 0632 7369676E 		.ascii	"signed char\000"
 11076      65642063 
 11076      68617200 
 11077              	.LASF96:
 11078 063e 64697363 		.ascii	"discard\000"
 11078      61726400 
 11079              	.LASF7:
 11080 0646 73686F72 		.ascii	"short unsigned int\000"
 11080      7420756E 
 11080      7369676E 
 11080      65642069 
 11080      6E7400
 11081              	.LASF116:
 11082 0659 6D656D63 		.ascii	"memcpy\000"
 11082      707900
 11083              	.LASF65:
 11084 0660 77726974 		.ascii	"write_date\000"
 11084      655F6461 
 11084      746500
 11085              	.LASF21:
 11086 066b 646F7562 		.ascii	"double\000"
 11086      6C6500
 11087              	.LASF113:
 11088 0672 5F666174 		.ascii	"_fat_get_next_cluster\000"
 11088      5F676574 
 11088      5F6E6578 
 11088      745F636C 
 11088      75737465 
 11089              	.LASF97:
 11090 0688 736E616D 		.ascii	"sname\000"
 11090      6500
 11091              	.LASF47:
 11092 068e 726F6F74 		.ascii	"root_cluster\000"
 11092      5F636C75 
 11092      73746572 
 11092      00
 11093              	.LASF90:
 11094 069b 66617431 		.ascii	"fat12_set_next_cluster\000"
 11094      325F7365 
 11094      745F6E65 
 11094      78745F63 
 11094      6C757374 
 11095              	.LASF41:
 11096 06b2 706F7369 		.ascii	"position\000"
 11096      74696F6E 
 11096      00
 11097              		.ident	"GCC: (GNU Tools for ARM Embedded Processors) 4.9.3 20150303 (release) [ARM/embedded-4_9-br
