ARM GAS  C:\Users\Petro\AppData\Local\Temp\ccXN91uN.s 			page 1


   1              		.cpu cortex-m0
   2              		.fpu softvfp
   3              		.eabi_attribute 20, 1
   4              		.eabi_attribute 21, 1
   5              		.eabi_attribute 23, 3
   6              		.eabi_attribute 24, 1
   7              		.eabi_attribute 25, 1
   8              		.eabi_attribute 26, 1
   9              		.eabi_attribute 30, 6
  10              		.eabi_attribute 34, 0
  11              		.eabi_attribute 18, 4
  12              		.code	16
  13              		.file	"HW_SPI.c"
  14              		.text
  15              	.Ltext0:
  16              		.cfi_sections	.debug_frame
  17              		.section	.text.SPI_Init,"ax",%progbits
  18              		.align	2
  19              		.global	SPI_Init
  20              		.code	16
  21              		.thumb_func
  22              		.type	SPI_Init, %function
  23              	SPI_Init:
  24              	.LFB2:
  25              		.file 1 ".\\HW_SPI.c"
   1:.\HW_SPI.c    **** /* ========================================
   2:.\HW_SPI.c    ****  *
   3:.\HW_SPI.c    ****  * Copyright YOUR COMPANY, THE YEAR
   4:.\HW_SPI.c    ****  * All Rights Reserved
   5:.\HW_SPI.c    ****  * UNPUBLISHED, LICENSED SOFTWARE.
   6:.\HW_SPI.c    ****  *
   7:.\HW_SPI.c    ****  * CONFIDENTIAL AND PROPRIETARY INFORMATION
   8:.\HW_SPI.c    ****  * WHICH IS THE PROPERTY OF your company.
   9:.\HW_SPI.c    ****  *
  10:.\HW_SPI.c    ****  * ========================================
  11:.\HW_SPI.c    **** */
  12:.\HW_SPI.c    **** 
  13:.\HW_SPI.c    **** #include "HW_SPI.h"
  14:.\HW_SPI.c    **** 
  15:.\HW_SPI.c    **** void SPI_Init(void)
  16:.\HW_SPI.c    **** {
  26              		.loc 1 16 0
  27              		.cfi_startproc
  28 0000 80B5     		push	{r7, lr}
  29              		.cfi_def_cfa_offset 8
  30              		.cfi_offset 7, -8
  31              		.cfi_offset 14, -4
  32 0002 00AF     		add	r7, sp, #0
  33              		.cfi_def_cfa_register 7
  17:.\HW_SPI.c    ****     CS_SPI_Write(1u);
  34              		.loc 1 17 0
  35 0004 0120     		mov	r0, #1
  36 0006 FFF7FEFF 		bl	CS_SPI_Write
  18:.\HW_SPI.c    ****     CLK_SPI_Write(0u);
  37              		.loc 1 18 0
  38 000a 0020     		mov	r0, #0
  39 000c FFF7FEFF 		bl	CLK_SPI_Write
ARM GAS  C:\Users\Petro\AppData\Local\Temp\ccXN91uN.s 			page 2


  19:.\HW_SPI.c    ****     MOSI_SPI_Write(0u);
  40              		.loc 1 19 0
  41 0010 0020     		mov	r0, #0
  42 0012 FFF7FEFF 		bl	MOSI_SPI_Write
  20:.\HW_SPI.c    **** }
  43              		.loc 1 20 0
  44 0016 BD46     		mov	sp, r7
  45              		@ sp needed
  46 0018 80BD     		pop	{r7, pc}
  47              		.cfi_endproc
  48              	.LFE2:
  49              		.size	SPI_Init, .-SPI_Init
  50 001a C046     		.section	.text.ChipSelect,"ax",%progbits
  51              		.align	2
  52              		.global	ChipSelect
  53              		.code	16
  54              		.thumb_func
  55              		.type	ChipSelect, %function
  56              	ChipSelect:
  57              	.LFB3:
  21:.\HW_SPI.c    **** 
  22:.\HW_SPI.c    **** void ChipSelect()
  23:.\HW_SPI.c    **** {
  58              		.loc 1 23 0
  59              		.cfi_startproc
  60 0000 80B5     		push	{r7, lr}
  61              		.cfi_def_cfa_offset 8
  62              		.cfi_offset 7, -8
  63              		.cfi_offset 14, -4
  64 0002 00AF     		add	r7, sp, #0
  65              		.cfi_def_cfa_register 7
  24:.\HW_SPI.c    ****     CS_SPI_Write(0u);
  66              		.loc 1 24 0
  67 0004 0020     		mov	r0, #0
  68 0006 FFF7FEFF 		bl	CS_SPI_Write
  25:.\HW_SPI.c    **** }
  69              		.loc 1 25 0
  70 000a BD46     		mov	sp, r7
  71              		@ sp needed
  72 000c 80BD     		pop	{r7, pc}
  73              		.cfi_endproc
  74              	.LFE3:
  75              		.size	ChipSelect, .-ChipSelect
  76 000e C046     		.section	.text.ChipDeselect,"ax",%progbits
  77              		.align	2
  78              		.global	ChipDeselect
  79              		.code	16
  80              		.thumb_func
  81              		.type	ChipDeselect, %function
  82              	ChipDeselect:
  83              	.LFB4:
  26:.\HW_SPI.c    **** 
  27:.\HW_SPI.c    **** void ChipDeselect()
  28:.\HW_SPI.c    **** {
  84              		.loc 1 28 0
  85              		.cfi_startproc
  86 0000 80B5     		push	{r7, lr}
ARM GAS  C:\Users\Petro\AppData\Local\Temp\ccXN91uN.s 			page 3


  87              		.cfi_def_cfa_offset 8
  88              		.cfi_offset 7, -8
  89              		.cfi_offset 14, -4
  90 0002 00AF     		add	r7, sp, #0
  91              		.cfi_def_cfa_register 7
  29:.\HW_SPI.c    ****     CS_SPI_Write(1u);
  92              		.loc 1 29 0
  93 0004 0120     		mov	r0, #1
  94 0006 FFF7FEFF 		bl	CS_SPI_Write
  30:.\HW_SPI.c    **** }
  95              		.loc 1 30 0
  96 000a BD46     		mov	sp, r7
  97              		@ sp needed
  98 000c 80BD     		pop	{r7, pc}
  99              		.cfi_endproc
 100              	.LFE4:
 101              		.size	ChipDeselect, .-ChipDeselect
 102 000e C046     		.section	.text.SPI_SendByte,"ax",%progbits
 103              		.align	2
 104              		.global	SPI_SendByte
 105              		.code	16
 106              		.thumb_func
 107              		.type	SPI_SendByte, %function
 108              	SPI_SendByte:
 109              	.LFB5:
  31:.\HW_SPI.c    **** 
  32:.\HW_SPI.c    **** 
  33:.\HW_SPI.c    **** void SPI_SendByte(uint8_t byte)
  34:.\HW_SPI.c    **** {
 110              		.loc 1 34 0
 111              		.cfi_startproc
 112 0000 80B5     		push	{r7, lr}
 113              		.cfi_def_cfa_offset 8
 114              		.cfi_offset 7, -8
 115              		.cfi_offset 14, -4
 116 0002 84B0     		sub	sp, sp, #16
 117              		.cfi_def_cfa_offset 24
 118 0004 00AF     		add	r7, sp, #0
 119              		.cfi_def_cfa_register 7
 120 0006 021C     		mov	r2, r0
 121 0008 FB1D     		add	r3, r7, #7
 122 000a 1A70     		strb	r2, [r3]
  35:.\HW_SPI.c    ****     uint8_t countBites;
  36:.\HW_SPI.c    ****     for (countBites = 8; countBites > 0; countBites--)
 123              		.loc 1 36 0
 124 000c 0F23     		mov	r3, #15
 125 000e FB18     		add	r3, r7, r3
 126 0010 0822     		mov	r2, #8
 127 0012 1A70     		strb	r2, [r3]
 128 0014 23E0     		b	.L5
 129              	.L8:
  37:.\HW_SPI.c    ****     {
  38:.\HW_SPI.c    ****     
  39:.\HW_SPI.c    ****         if (byte & 0x80)
 130              		.loc 1 39 0
 131 0016 FB1D     		add	r3, r7, #7
 132 0018 1B78     		ldrb	r3, [r3]
ARM GAS  C:\Users\Petro\AppData\Local\Temp\ccXN91uN.s 			page 4


 133 001a 5BB2     		sxtb	r3, r3
 134 001c 002B     		cmp	r3, #0
 135 001e 03DA     		bge	.L6
  40:.\HW_SPI.c    ****         {
  41:.\HW_SPI.c    ****             MOSI_SPI_Write(1u);
 136              		.loc 1 41 0
 137 0020 0120     		mov	r0, #1
 138 0022 FFF7FEFF 		bl	MOSI_SPI_Write
 139 0026 02E0     		b	.L7
 140              	.L6:
  42:.\HW_SPI.c    ****         }
  43:.\HW_SPI.c    ****         else
  44:.\HW_SPI.c    ****         {
  45:.\HW_SPI.c    ****             MOSI_SPI_Write(0u);
 141              		.loc 1 45 0
 142 0028 0020     		mov	r0, #0
 143 002a FFF7FEFF 		bl	MOSI_SPI_Write
 144              	.L7:
  46:.\HW_SPI.c    ****         }
  47:.\HW_SPI.c    ****         CyDelayCycles(10);        
 145              		.loc 1 47 0 discriminator 2
 146 002e 0A20     		mov	r0, #10
 147 0030 FFF7FEFF 		bl	CyDelayCycles
  48:.\HW_SPI.c    ****         CLK_SPI_Write(1u);
 148              		.loc 1 48 0 discriminator 2
 149 0034 0120     		mov	r0, #1
 150 0036 FFF7FEFF 		bl	CLK_SPI_Write
  49:.\HW_SPI.c    ****         
  50:.\HW_SPI.c    ****         CyDelayCycles(20);
 151              		.loc 1 50 0 discriminator 2
 152 003a 1420     		mov	r0, #20
 153 003c FFF7FEFF 		bl	CyDelayCycles
  51:.\HW_SPI.c    ****         
  52:.\HW_SPI.c    ****         CLK_SPI_Write(0u);
 154              		.loc 1 52 0 discriminator 2
 155 0040 0020     		mov	r0, #0
 156 0042 FFF7FEFF 		bl	CLK_SPI_Write
  53:.\HW_SPI.c    ****         byte <<=  1;
 157              		.loc 1 53 0 discriminator 2
 158 0046 FA1D     		add	r2, r7, #7
 159 0048 FB1D     		add	r3, r7, #7
 160 004a 1B78     		ldrb	r3, [r3]
 161 004c DB18     		add	r3, r3, r3
 162 004e 1370     		strb	r3, [r2]
  36:.\HW_SPI.c    ****     {
 163              		.loc 1 36 0 discriminator 2
 164 0050 0F23     		mov	r3, #15
 165 0052 FB18     		add	r3, r7, r3
 166 0054 1A78     		ldrb	r2, [r3]
 167 0056 0F23     		mov	r3, #15
 168 0058 FB18     		add	r3, r7, r3
 169 005a 013A     		sub	r2, r2, #1
 170 005c 1A70     		strb	r2, [r3]
 171              	.L5:
  36:.\HW_SPI.c    ****     {
 172              		.loc 1 36 0 is_stmt 0 discriminator 1
 173 005e 0F23     		mov	r3, #15
ARM GAS  C:\Users\Petro\AppData\Local\Temp\ccXN91uN.s 			page 5


 174 0060 FB18     		add	r3, r7, r3
 175 0062 1B78     		ldrb	r3, [r3]
 176 0064 002B     		cmp	r3, #0
 177 0066 D6D1     		bne	.L8
  54:.\HW_SPI.c    ****     }
  55:.\HW_SPI.c    ****     
  56:.\HW_SPI.c    ****     MOSI_SPI_Write(0u);    
 178              		.loc 1 56 0 is_stmt 1
 179 0068 0020     		mov	r0, #0
 180 006a FFF7FEFF 		bl	MOSI_SPI_Write
  57:.\HW_SPI.c    **** }
 181              		.loc 1 57 0
 182 006e BD46     		mov	sp, r7
 183 0070 04B0     		add	sp, sp, #16
 184              		@ sp needed
 185 0072 80BD     		pop	{r7, pc}
 186              		.cfi_endproc
 187              	.LFE5:
 188              		.size	SPI_SendByte, .-SPI_SendByte
 189              		.section	.text.SPI_SendBuff,"ax",%progbits
 190              		.align	2
 191              		.global	SPI_SendBuff
 192              		.code	16
 193              		.thumb_func
 194              		.type	SPI_SendBuff, %function
 195              	SPI_SendBuff:
 196              	.LFB6:
  58:.\HW_SPI.c    **** 
  59:.\HW_SPI.c    **** void SPI_SendBuff(uint8_t* buff, uint16_t cnt)
  60:.\HW_SPI.c    **** {
 197              		.loc 1 60 0
 198              		.cfi_startproc
 199 0000 80B5     		push	{r7, lr}
 200              		.cfi_def_cfa_offset 8
 201              		.cfi_offset 7, -8
 202              		.cfi_offset 14, -4
 203 0002 84B0     		sub	sp, sp, #16
 204              		.cfi_def_cfa_offset 24
 205 0004 00AF     		add	r7, sp, #0
 206              		.cfi_def_cfa_register 7
 207 0006 7860     		str	r0, [r7, #4]
 208 0008 0A1C     		mov	r2, r1
 209 000a BB1C     		add	r3, r7, #2
 210 000c 1A80     		strh	r2, [r3]
  61:.\HW_SPI.c    ****     uint16_t tmpData;
  62:.\HW_SPI.c    ****     for (tmpData = 0; tmpData < cnt; tmpData ++)
 211              		.loc 1 62 0
 212 000e 0E23     		mov	r3, #14
 213 0010 FB18     		add	r3, r7, r3
 214 0012 0022     		mov	r2, #0
 215 0014 1A80     		strh	r2, [r3]
 216 0016 0FE0     		b	.L10
 217              	.L11:
  63:.\HW_SPI.c    ****     {
  64:.\HW_SPI.c    ****         SPI_SendByte(buff[tmpData]);
 218              		.loc 1 64 0 discriminator 3
 219 0018 0E23     		mov	r3, #14
ARM GAS  C:\Users\Petro\AppData\Local\Temp\ccXN91uN.s 			page 6


 220 001a FB18     		add	r3, r7, r3
 221 001c 1B88     		ldrh	r3, [r3]
 222 001e 7A68     		ldr	r2, [r7, #4]
 223 0020 D318     		add	r3, r2, r3
 224 0022 1B78     		ldrb	r3, [r3]
 225 0024 181C     		mov	r0, r3
 226 0026 FFF7FEFF 		bl	SPI_SendByte
  62:.\HW_SPI.c    ****     {
 227              		.loc 1 62 0 discriminator 3
 228 002a 0E23     		mov	r3, #14
 229 002c FB18     		add	r3, r7, r3
 230 002e 1A88     		ldrh	r2, [r3]
 231 0030 0E23     		mov	r3, #14
 232 0032 FB18     		add	r3, r7, r3
 233 0034 0132     		add	r2, r2, #1
 234 0036 1A80     		strh	r2, [r3]
 235              	.L10:
  62:.\HW_SPI.c    ****     {
 236              		.loc 1 62 0 is_stmt 0 discriminator 1
 237 0038 0E23     		mov	r3, #14
 238 003a FA18     		add	r2, r7, r3
 239 003c BB1C     		add	r3, r7, #2
 240 003e 1288     		ldrh	r2, [r2]
 241 0040 1B88     		ldrh	r3, [r3]
 242 0042 9A42     		cmp	r2, r3
 243 0044 E8D3     		bcc	.L11
  65:.\HW_SPI.c    ****     }
  66:.\HW_SPI.c    **** }
 244              		.loc 1 66 0 is_stmt 1
 245 0046 BD46     		mov	sp, r7
 246 0048 04B0     		add	sp, sp, #16
 247              		@ sp needed
 248 004a 80BD     		pop	{r7, pc}
 249              		.cfi_endproc
 250              	.LFE6:
 251              		.size	SPI_SendBuff, .-SPI_SendBuff
 252              		.section	.text.SPI_RecvByte,"ax",%progbits
 253              		.align	2
 254              		.global	SPI_RecvByte
 255              		.code	16
 256              		.thumb_func
 257              		.type	SPI_RecvByte, %function
 258              	SPI_RecvByte:
 259              	.LFB7:
  67:.\HW_SPI.c    **** 
  68:.\HW_SPI.c    **** 
  69:.\HW_SPI.c    **** uint8_t SPI_RecvByte(void)
  70:.\HW_SPI.c    **** {
 260              		.loc 1 70 0
 261              		.cfi_startproc
 262 0000 80B5     		push	{r7, lr}
 263              		.cfi_def_cfa_offset 8
 264              		.cfi_offset 7, -8
 265              		.cfi_offset 14, -4
 266 0002 84B0     		sub	sp, sp, #16
 267              		.cfi_def_cfa_offset 24
 268 0004 00AF     		add	r7, sp, #0
ARM GAS  C:\Users\Petro\AppData\Local\Temp\ccXN91uN.s 			page 7


 269              		.cfi_def_cfa_register 7
  71:.\HW_SPI.c    ****     uint32_t countBites;
  72:.\HW_SPI.c    ****     uint32_t tmpBuff = 0, tmpPin;
 270              		.loc 1 72 0
 271 0006 0023     		mov	r3, #0
 272 0008 BB60     		str	r3, [r7, #8]
  73:.\HW_SPI.c    ****     for (countBites = 8; countBites > 0; countBites--)
 273              		.loc 1 73 0
 274 000a 0823     		mov	r3, #8
 275 000c FB60     		str	r3, [r7, #12]
 276 000e 1CE0     		b	.L13
 277              	.L15:
  74:.\HW_SPI.c    ****     {
  75:.\HW_SPI.c    ****         MOSI_SPI_Write(1u);
 278              		.loc 1 75 0
 279 0010 0120     		mov	r0, #1
 280 0012 FFF7FEFF 		bl	MOSI_SPI_Write
  76:.\HW_SPI.c    ****         CLK_SPI_Write(1u);
 281              		.loc 1 76 0
 282 0016 0120     		mov	r0, #1
 283 0018 FFF7FEFF 		bl	CLK_SPI_Write
  77:.\HW_SPI.c    ****         tmpPin = MISO_SPI_Read();
 284              		.loc 1 77 0
 285 001c FFF7FEFF 		bl	MISO_SPI_Read
 286 0020 031C     		mov	r3, r0
 287 0022 7B60     		str	r3, [r7, #4]
  78:.\HW_SPI.c    ****         if (tmpPin == 1u)
 288              		.loc 1 78 0
 289 0024 7B68     		ldr	r3, [r7, #4]
 290 0026 012B     		cmp	r3, #1
 291 0028 03D1     		bne	.L14
  79:.\HW_SPI.c    ****         {
  80:.\HW_SPI.c    ****             tmpBuff |= 0x01;
 292              		.loc 1 80 0
 293 002a BB68     		ldr	r3, [r7, #8]
 294 002c 0122     		mov	r2, #1
 295 002e 1343     		orr	r3, r2
 296 0030 BB60     		str	r3, [r7, #8]
 297              	.L14:
  81:.\HW_SPI.c    ****         }
  82:.\HW_SPI.c    **** 
  83:.\HW_SPI.c    ****         CLK_SPI_Write(0u);
 298              		.loc 1 83 0 discriminator 2
 299 0032 0020     		mov	r0, #0
 300 0034 FFF7FEFF 		bl	CLK_SPI_Write
  84:.\HW_SPI.c    ****         CyDelayCycles(15);
 301              		.loc 1 84 0 discriminator 2
 302 0038 0F20     		mov	r0, #15
 303 003a FFF7FEFF 		bl	CyDelayCycles
  85:.\HW_SPI.c    ****         
  86:.\HW_SPI.c    ****         tmpBuff <<= 1;
 304              		.loc 1 86 0 discriminator 2
 305 003e BB68     		ldr	r3, [r7, #8]
 306 0040 5B00     		lsl	r3, r3, #1
 307 0042 BB60     		str	r3, [r7, #8]
  73:.\HW_SPI.c    ****     {
 308              		.loc 1 73 0 discriminator 2
ARM GAS  C:\Users\Petro\AppData\Local\Temp\ccXN91uN.s 			page 8


 309 0044 FB68     		ldr	r3, [r7, #12]
 310 0046 013B     		sub	r3, r3, #1
 311 0048 FB60     		str	r3, [r7, #12]
 312              	.L13:
  73:.\HW_SPI.c    ****     {
 313              		.loc 1 73 0 is_stmt 0 discriminator 1
 314 004a FB68     		ldr	r3, [r7, #12]
 315 004c 002B     		cmp	r3, #0
 316 004e DFD1     		bne	.L15
  87:.\HW_SPI.c    ****     }
  88:.\HW_SPI.c    ****     tmpBuff >>= 1;
 317              		.loc 1 88 0 is_stmt 1
 318 0050 BB68     		ldr	r3, [r7, #8]
 319 0052 5B08     		lsr	r3, r3, #1
 320 0054 BB60     		str	r3, [r7, #8]
  89:.\HW_SPI.c    ****     MOSI_SPI_Write(0u);
 321              		.loc 1 89 0
 322 0056 0020     		mov	r0, #0
 323 0058 FFF7FEFF 		bl	MOSI_SPI_Write
  90:.\HW_SPI.c    ****     return (uint8_t)tmpBuff;
 324              		.loc 1 90 0
 325 005c BB68     		ldr	r3, [r7, #8]
 326 005e DBB2     		uxtb	r3, r3
  91:.\HW_SPI.c    **** }
 327              		.loc 1 91 0
 328 0060 181C     		mov	r0, r3
 329 0062 BD46     		mov	sp, r7
 330 0064 04B0     		add	sp, sp, #16
 331              		@ sp needed
 332 0066 80BD     		pop	{r7, pc}
 333              		.cfi_endproc
 334              	.LFE7:
 335              		.size	SPI_RecvByte, .-SPI_RecvByte
 336              		.section	.text.SPI_RecvBuff,"ax",%progbits
 337              		.align	2
 338              		.global	SPI_RecvBuff
 339              		.code	16
 340              		.thumb_func
 341              		.type	SPI_RecvBuff, %function
 342              	SPI_RecvBuff:
 343              	.LFB8:
  92:.\HW_SPI.c    **** 
  93:.\HW_SPI.c    **** void SPI_RecvBuff(uint8_t* buff, uint16_t cnt)
  94:.\HW_SPI.c    **** {
 344              		.loc 1 94 0
 345              		.cfi_startproc
 346 0000 90B5     		push	{r4, r7, lr}
 347              		.cfi_def_cfa_offset 12
 348              		.cfi_offset 4, -12
 349              		.cfi_offset 7, -8
 350              		.cfi_offset 14, -4
 351 0002 85B0     		sub	sp, sp, #20
 352              		.cfi_def_cfa_offset 32
 353 0004 00AF     		add	r7, sp, #0
 354              		.cfi_def_cfa_register 7
 355 0006 7860     		str	r0, [r7, #4]
 356 0008 0A1C     		mov	r2, r1
ARM GAS  C:\Users\Petro\AppData\Local\Temp\ccXN91uN.s 			page 9


 357 000a BB1C     		add	r3, r7, #2
 358 000c 1A80     		strh	r2, [r3]
  95:.\HW_SPI.c    ****     uint16_t tmpData;
  96:.\HW_SPI.c    ****     for (tmpData = 0; tmpData < cnt; tmpData ++)
 359              		.loc 1 96 0
 360 000e 0E23     		mov	r3, #14
 361 0010 FB18     		add	r3, r7, r3
 362 0012 0022     		mov	r2, #0
 363 0014 1A80     		strh	r2, [r3]
 364 0016 0FE0     		b	.L18
 365              	.L19:
  97:.\HW_SPI.c    ****     {
  98:.\HW_SPI.c    ****         buff[tmpData] = SPI_RecvByte(); 
 366              		.loc 1 98 0 discriminator 3
 367 0018 0E23     		mov	r3, #14
 368 001a FB18     		add	r3, r7, r3
 369 001c 1B88     		ldrh	r3, [r3]
 370 001e 7A68     		ldr	r2, [r7, #4]
 371 0020 D418     		add	r4, r2, r3
 372 0022 FFF7FEFF 		bl	SPI_RecvByte
 373 0026 031C     		mov	r3, r0
 374 0028 2370     		strb	r3, [r4]
  96:.\HW_SPI.c    ****     {
 375              		.loc 1 96 0 discriminator 3
 376 002a 0E23     		mov	r3, #14
 377 002c FB18     		add	r3, r7, r3
 378 002e 1A88     		ldrh	r2, [r3]
 379 0030 0E23     		mov	r3, #14
 380 0032 FB18     		add	r3, r7, r3
 381 0034 0132     		add	r2, r2, #1
 382 0036 1A80     		strh	r2, [r3]
 383              	.L18:
  96:.\HW_SPI.c    ****     {
 384              		.loc 1 96 0 is_stmt 0 discriminator 1
 385 0038 0E23     		mov	r3, #14
 386 003a FA18     		add	r2, r7, r3
 387 003c BB1C     		add	r3, r7, #2
 388 003e 1288     		ldrh	r2, [r2]
 389 0040 1B88     		ldrh	r3, [r3]
 390 0042 9A42     		cmp	r2, r3
 391 0044 E8D3     		bcc	.L19
  99:.\HW_SPI.c    ****     }
 100:.\HW_SPI.c    **** }
 392              		.loc 1 100 0 is_stmt 1
 393 0046 BD46     		mov	sp, r7
 394 0048 05B0     		add	sp, sp, #20
 395              		@ sp needed
 396 004a 90BD     		pop	{r4, r7, pc}
 397              		.cfi_endproc
 398              	.LFE8:
 399              		.size	SPI_RecvBuff, .-SPI_RecvBuff
 400              		.text
 401              	.Letext0:
 402              		.file 2 "c:\\program files (x86)\\cypress\\psoc creator\\3.3\\psoc creator\\import\\gnu\\arm\\4.9.
 403              		.file 3 "c:\\program files (x86)\\cypress\\psoc creator\\3.3\\psoc creator\\import\\gnu\\arm\\4.9.