ARM GAS  C:\Users\Petro\AppData\Local\Temp\ccXN91uN.s 			page 1


   1              		.cpu cortex-m0
   2              		.fpu softvfp
   3              		.eabi_attribute 20, 1
   4              		.eabi_attribute 21, 1
   5              		.eabi_attribute 23, 3
   6              		.eabi_attribute 24, 1
   7              		.eabi_attribute 25, 1
   8              		.eabi_attribute 26, 1
   9              		.eabi_attribute 30, 6
  10              		.eabi_attribute 34, 0
  11              		.eabi_attribute 18, 4
  12              		.code	16
  13              		.file	"HW_SPI.c"
  14              		.text
  15              	.Ltext0:
  16              		.cfi_sections	.debug_frame
  17              		.section	.text.SPI_Init,"ax",%progbits
  18              		.align	2
  19              		.global	SPI_Init
  20              		.code	16
  21              		.thumb_func
  22              		.type	SPI_Init, %function
  23              	SPI_Init:
  24              	.LFB2:
  25              		.file 1 ".\\HW_SPI.c"
   1:.\HW_SPI.c    **** /* ========================================
   2:.\HW_SPI.c    ****  *
   3:.\HW_SPI.c    ****  * Copyright YOUR COMPANY, THE YEAR
   4:.\HW_SPI.c    ****  * All Rights Reserved
   5:.\HW_SPI.c    ****  * UNPUBLISHED, LICENSED SOFTWARE.
   6:.\HW_SPI.c    ****  *
   7:.\HW_SPI.c    ****  * CONFIDENTIAL AND PROPRIETARY INFORMATION
   8:.\HW_SPI.c    ****  * WHICH IS THE PROPERTY OF your company.
   9:.\HW_SPI.c    ****  *
  10:.\HW_SPI.c    ****  * ========================================
  11:.\HW_SPI.c    **** */
  12:.\HW_SPI.c    **** 
  13:.\HW_SPI.c    **** #include "HW_SPI.h"
  14:.\HW_SPI.c    **** 
  15:.\HW_SPI.c    **** void SPI_Init(void)
  16:.\HW_SPI.c    **** {
  26              		.loc 1 16 0
  27              		.cfi_startproc
  28 0000 80B5     		push	{r7, lr}
  29              		.cfi_def_cfa_offset 8
  30              		.cfi_offset 7, -8
  31              		.cfi_offset 14, -4
  32 0002 00AF     		add	r7, sp, #0
  33              		.cfi_def_cfa_register 7
  17:.\HW_SPI.c    ****     CS_SPI_Write(1u);
  34              		.loc 1 17 0
  35 0004 0120     		mov	r0, #1
  36 0006 FFF7FEFF 		bl	CS_SPI_Write
  18:.\HW_SPI.c    ****     CLK_SPI_Write(0u);
  37              		.loc 1 18 0
  38 000a 0020     		mov	r0, #0
  39 000c FFF7FEFF 		bl	CLK_SPI_Write
ARM GAS  C:\Users\Petro\AppData\Local\Temp\ccXN91uN.s 			page 2


  19:.\HW_SPI.c    ****     MOSI_SPI_Write(0u);
  40              		.loc 1 19 0
  41 0010 0020     		mov	r0, #0
  42 0012 FFF7FEFF 		bl	MOSI_SPI_Write
  20:.\HW_SPI.c    **** }
  43              		.loc 1 20 0
  44 0016 BD46     		mov	sp, r7
  45              		@ sp needed
  46 0018 80BD     		pop	{r7, pc}
  47              		.cfi_endproc
  48              	.LFE2:
  49              		.size	SPI_Init, .-SPI_Init
  50 001a C046     		.section	.text.ChipSelect,"ax",%progbits
  51              		.align	2
  52              		.global	ChipSelect
  53              		.code	16
  54              		.thumb_func
  55              		.type	ChipSelect, %function
  56              	ChipSelect:
  57              	.LFB3:
  21:.\HW_SPI.c    **** 
  22:.\HW_SPI.c    **** void ChipSelect()
  23:.\HW_SPI.c    **** {
  58              		.loc 1 23 0
  59              		.cfi_startproc
  60 0000 80B5     		push	{r7, lr}
  61              		.cfi_def_cfa_offset 8
  62              		.cfi_offset 7, -8
  63              		.cfi_offset 14, -4
  64 0002 00AF     		add	r7, sp, #0
  65              		.cfi_def_cfa_register 7
  24:.\HW_SPI.c    ****     CS_SPI_Write(0u);
  66              		.loc 1 24 0
  67 0004 0020     		mov	r0, #0
  68 0006 FFF7FEFF 		bl	CS_SPI_Write
  25:.\HW_SPI.c    **** }
  69              		.loc 1 25 0
  70 000a BD46     		mov	sp, r7
  71              		@ sp needed
  72 000c 80BD     		pop	{r7, pc}
  73              		.cfi_endproc
  74              	.LFE3:
  75              		.size	ChipSelect, .-ChipSelect
  76 000e C046     		.section	.text.ChipDeselect,"ax",%progbits
  77              		.align	2
  78              		.global	ChipDeselect
  79              		.code	16
  80              		.thumb_func
  81              		.type	ChipDeselect, %function
  82              	ChipDeselect:
  83              	.LFB4:
  26:.\HW_SPI.c    **** 
  27:.\HW_SPI.c    **** void ChipDeselect()
  28:.\HW_SPI.c    **** {
  84              		.loc 1 28 0
  85              		.cfi_startproc
  86 0000 80B5     		push	{r7, lr}
ARM GAS  C:\Users\Petro\AppData\Local\Temp\ccXN91uN.s 			page 3


  87              		.cfi_def_cfa_offset 8
  88              		.cfi_offset 7, -8
  89              		.cfi_offset 14, -4
  90 0002 00AF     		add	r7, sp, #0
  91              		.cfi_def_cfa_register 7
  29:.\HW_SPI.c    ****     CS_SPI_Write(1u);
  92              		.loc 1 29 0
  93 0004 0120     		mov	r0, #1
  94 0006 FFF7FEFF 		bl	CS_SPI_Write
  30:.\HW_SPI.c    **** }
  95              		.loc 1 30 0
  96 000a BD46     		mov	sp, r7
  97              		@ sp needed
  98 000c 80BD     		pop	{r7, pc}
  99              		.cfi_endproc
 100              	.LFE4:
 101              		.size	ChipDeselect, .-ChipDeselect
 102 000e C046     		.section	.text.SPI_SendByte,"ax",%progbits
 103              		.align	2
 104              		.global	SPI_SendByte
 105              		.code	16
 106              		.thumb_func
 107              		.type	SPI_SendByte, %function
 108              	SPI_SendByte:
 109              	.LFB5:
  31:.\HW_SPI.c    **** 
  32:.\HW_SPI.c    **** 
  33:.\HW_SPI.c    **** void SPI_SendByte(uint8_t byte)
  34:.\HW_SPI.c    **** {
 110              		.loc 1 34 0
 111              		.cfi_startproc
 112 0000 80B5     		push	{r7, lr}
 113              		.cfi_def_cfa_offset 8
 114              		.cfi_offset 7, -8
 115              		.cfi_offset 14, -4
 116 0002 84B0     		sub	sp, sp, #16
 117              		.cfi_def_cfa_offset 24
 118 0004 00AF     		add	r7, sp, #0
 119              		.cfi_def_cfa_register 7
 120 0006 021C     		mov	r2, r0
 121 0008 FB1D     		add	r3, r7, #7
 122 000a 1A70     		strb	r2, [r3]
  35:.\HW_SPI.c    ****     uint8_t countBites;
  36:.\HW_SPI.c    ****     for (countBites = 8; countBites > 0; countBites--)
 123              		.loc 1 36 0
 124 000c 0F23     		mov	r3, #15
 125 000e FB18     		add	r3, r7, r3
 126 0010 0822     		mov	r2, #8
 127 0012 1A70     		strb	r2, [r3]
 128 0014 23E0     		b	.L5
 129              	.L8:
  37:.\HW_SPI.c    ****     {
  38:.\HW_SPI.c    ****     
  39:.\HW_SPI.c    ****         if (byte & 0x80)
 130              		.loc 1 39 0
 131 0016 FB1D     		add	r3, r7, #7
 132 0018 1B78     		ldrb	r3, [r3]
ARM GAS  C:\Users\Petro\AppData\Local\Temp\ccXN91uN.s 			page 4


 133 001a 5BB2     		sxtb	r3, r3
 134 001c 002B     		cmp	r3, #0
 135 001e 03DA     		bge	.L6
  40:.\HW_SPI.c    ****         {
  41:.\HW_SPI.c    ****             MOSI_SPI_Write(1u);
 136              		.loc 1 41 0
 137 0020 0120     		mov	r0, #1
 138 0022 FFF7FEFF 		bl	MOSI_SPI_Write
 139 0026 02E0     		b	.L7
 140              	.L6:
  42:.\HW_SPI.c    ****         }
  43:.\HW_SPI.c    ****         else
  44:.\HW_SPI.c    ****         {
  45:.\HW_SPI.c    ****             MOSI_SPI_Write(0u);
 141              		.loc 1 45 0
 142 0028 0020     		mov	r0, #0
 143 002a FFF7FEFF 		bl	MOSI_SPI_Write
 144              	.L7:
  46:.\HW_SPI.c    ****         }
  47:.\HW_SPI.c    ****         CyDelayCycles(10);        
 145              		.loc 1 47 0 discriminator 2
 146 002e 0A20     		mov	r0, #10
 147 0030 FFF7FEFF 		bl	CyDelayCycles
  48:.\HW_SPI.c    ****         CLK_SPI_Write(1u);
 148              		.loc 1 48 0 discriminator 2
 149 0034 0120     		mov	r0, #1
 150 0036 FFF7FEFF 		bl	CLK_SPI_Write
  49:.\HW_SPI.c    ****         
  50:.\HW_SPI.c    ****         CyDelayCycles(20);
 151              		.loc 1 50 0 discriminator 2
 152 003a 1420     		mov	r0, #20
 153 003c FFF7FEFF 		bl	CyDelayCycles
  51:.\HW_SPI.c    ****         
  52:.\HW_SPI.c    ****         CLK_SPI_Write(0u);
 154              		.loc 1 52 0 discriminator 2
 155 0040 0020     		mov	r0, #0
 156 0042 FFF7FEFF 		bl	CLK_SPI_Write
  53:.\HW_SPI.c    ****         byte <<=  1;
 157              		.loc 1 53 0 discriminator 2
 158 0046 FA1D     		add	r2, r7, #7
 159 0048 FB1D     		add	r3, r7, #7
 160 004a 1B78     		ldrb	r3, [r3]
 161 004c DB18     		add	r3, r3, r3
 162 004e 1370     		strb	r3, [r2]
  36:.\HW_SPI.c    ****     {
 163              		.loc 1 36 0 discriminator 2
 164 0050 0F23     		mov	r3, #15
 165 0052 FB18     		add	r3, r7, r3
 166 0054 1A78     		ldrb	r2, [r3]
 167 0056 0F23     		mov	r3, #15
 168 0058 FB18     		add	r3, r7, r3
 169 005a 013A     		sub	r2, r2, #1
 170 005c 1A70     		strb	r2, [r3]
 171              	.L5:
  36:.\HW_SPI.c    ****     {
 172              		.loc 1 36 0 is_stmt 0 discriminator 1
 173 005e 0F23     		mov	r3, #15
ARM GAS  C:\Users\Petro\AppData\Local\Temp\ccXN91uN.s 			page 5


 174 0060 FB18     		add	r3, r7, r3
 175 0062 1B78     		ldrb	r3, [r3]
 176 0064 002B     		cmp	r3, #0
 177 0066 D6D1     		bne	.L8
  54:.\HW_SPI.c    ****     }
  55:.\HW_SPI.c    ****     
  56:.\HW_SPI.c    ****     MOSI_SPI_Write(0u);    
 178              		.loc 1 56 0 is_stmt 1
 179 0068 0020     		mov	r0, #0
 180 006a FFF7FEFF 		bl	MOSI_SPI_Write
  57:.\HW_SPI.c    **** }
 181              		.loc 1 57 0
 182 006e BD46     		mov	sp, r7
 183 0070 04B0     		add	sp, sp, #16
 184              		@ sp needed
 185 0072 80BD     		pop	{r7, pc}
 186              		.cfi_endproc
 187              	.LFE5:
 188              		.size	SPI_SendByte, .-SPI_SendByte
 189              		.section	.text.SPI_SendBuff,"ax",%progbits
 190              		.align	2
 191              		.global	SPI_SendBuff
 192              		.code	16
 193              		.thumb_func
 194              		.type	SPI_SendBuff, %function
 195              	SPI_SendBuff:
 196              	.LFB6:
  58:.\HW_SPI.c    **** 
  59:.\HW_SPI.c    **** void SPI_SendBuff(uint8_t* buff, uint16_t cnt)
  60:.\HW_SPI.c    **** {
 197              		.loc 1 60 0
 198              		.cfi_startproc
 199 0000 80B5     		push	{r7, lr}
 200              		.cfi_def_cfa_offset 8
 201              		.cfi_offset 7, -8
 202              		.cfi_offset 14, -4
 203 0002 84B0     		sub	sp, sp, #16
 204              		.cfi_def_cfa_offset 24
 205 0004 00AF     		add	r7, sp, #0
 206              		.cfi_def_cfa_register 7
 207 0006 7860     		str	r0, [r7, #4]
 208 0008 0A1C     		mov	r2, r1
 209 000a BB1C     		add	r3, r7, #2
 210 000c 1A80     		strh	r2, [r3]
  61:.\HW_SPI.c    ****     uint16_t tmpData;
  62:.\HW_SPI.c    ****     for (tmpData = 0; tmpData < cnt; tmpData ++)
 211              		.loc 1 62 0
 212 000e 0E23     		mov	r3, #14
 213 0010 FB18     		add	r3, r7, r3
 214 0012 0022     		mov	r2, #0
 215 0014 1A80     		strh	r2, [r3]
 216 0016 0FE0     		b	.L10
 217              	.L11:
  63:.\HW_SPI.c    ****     {
  64:.\HW_SPI.c    ****         SPI_SendByte(buff[tmpData]);
 218              		.loc 1 64 0 discriminator 3
 219 0018 0E23     		mov	r3, #14
ARM GAS  C:\Users\Petro\AppData\Local\Temp\ccXN91uN.s 			page 6


 220 001a FB18     		add	r3, r7, r3
 221 001c 1B88     		ldrh	r3, [r3]
 222 001e 7A68     		ldr	r2, [r7, #4]
 223 0020 D318     		add	r3, r2, r3
 224 0022 1B78     		ldrb	r3, [r3]
 225 0024 181C     		mov	r0, r3
 226 0026 FFF7FEFF 		bl	SPI_SendByte
  62:.\HW_SPI.c    ****     {
 227              		.loc 1 62 0 discriminator 3
 228 002a 0E23     		mov	r3, #14
 229 002c FB18     		add	r3, r7, r3
 230 002e 1A88     		ldrh	r2, [r3]
 231 0030 0E23     		mov	r3, #14
 232 0032 FB18     		add	r3, r7, r3
 233 0034 0132     		add	r2, r2, #1
 234 0036 1A80     		strh	r2, [r3]
 235              	.L10:
  62:.\HW_SPI.c    ****     {
 236              		.loc 1 62 0 is_stmt 0 discriminator 1
 237 0038 0E23     		mov	r3, #14
 238 003a FA18     		add	r2, r7, r3
 239 003c BB1C     		add	r3, r7, #2
 240 003e 1288     		ldrh	r2, [r2]
 241 0040 1B88     		ldrh	r3, [r3]
 242 0042 9A42     		cmp	r2, r3
 243 0044 E8D3     		bcc	.L11
  65:.\HW_SPI.c    ****     }
  66:.\HW_SPI.c    **** }
 244              		.loc 1 66 0 is_stmt 1
 245 0046 BD46     		mov	sp, r7
 246 0048 04B0     		add	sp, sp, #16
 247              		@ sp needed
 248 004a 80BD     		pop	{r7, pc}
 249              		.cfi_endproc
 250              	.LFE6:
 251              		.size	SPI_SendBuff, .-SPI_SendBuff
 252              		.section	.text.SPI_RecvByte,"ax",%progbits
 253              		.align	2
 254              		.global	SPI_RecvByte
 255              		.code	16
 256              		.thumb_func
 257              		.type	SPI_RecvByte, %function
 258              	SPI_RecvByte:
 259              	.LFB7:
  67:.\HW_SPI.c    **** 
  68:.\HW_SPI.c    **** 
  69:.\HW_SPI.c    **** uint8_t SPI_RecvByte(void)
  70:.\HW_SPI.c    **** {
 260              		.loc 1 70 0
 261              		.cfi_startproc
 262 0000 80B5     		push	{r7, lr}
 263              		.cfi_def_cfa_offset 8
 264              		.cfi_offset 7, -8
 265              		.cfi_offset 14, -4
 266 0002 84B0     		sub	sp, sp, #16
 267              		.cfi_def_cfa_offset 24
 268 0004 00AF     		add	r7, sp, #0
ARM GAS  C:\Users\Petro\AppData\Local\Temp\ccXN91uN.s 			page 7


 269              		.cfi_def_cfa_register 7
  71:.\HW_SPI.c    ****     uint32_t countBites;
  72:.\HW_SPI.c    ****     uint32_t tmpBuff = 0, tmpPin;
 270              		.loc 1 72 0
 271 0006 0023     		mov	r3, #0
 272 0008 BB60     		str	r3, [r7, #8]
  73:.\HW_SPI.c    ****     for (countBites = 8; countBites > 0; countBites--)
 273              		.loc 1 73 0
 274 000a 0823     		mov	r3, #8
 275 000c FB60     		str	r3, [r7, #12]
 276 000e 1CE0     		b	.L13
 277              	.L15:
  74:.\HW_SPI.c    ****     {
  75:.\HW_SPI.c    ****         MOSI_SPI_Write(1u);
 278              		.loc 1 75 0
 279 0010 0120     		mov	r0, #1
 280 0012 FFF7FEFF 		bl	MOSI_SPI_Write
  76:.\HW_SPI.c    ****         CLK_SPI_Write(1u);
 281              		.loc 1 76 0
 282 0016 0120     		mov	r0, #1
 283 0018 FFF7FEFF 		bl	CLK_SPI_Write
  77:.\HW_SPI.c    ****         tmpPin = MISO_SPI_Read();
 284              		.loc 1 77 0
 285 001c FFF7FEFF 		bl	MISO_SPI_Read
 286 0020 031C     		mov	r3, r0
 287 0022 7B60     		str	r3, [r7, #4]
  78:.\HW_SPI.c    ****         if (tmpPin == 1u)
 288              		.loc 1 78 0
 289 0024 7B68     		ldr	r3, [r7, #4]
 290 0026 012B     		cmp	r3, #1
 291 0028 03D1     		bne	.L14
  79:.\HW_SPI.c    ****         {
  80:.\HW_SPI.c    ****             tmpBuff |= 0x01;
 292              		.loc 1 80 0
 293 002a BB68     		ldr	r3, [r7, #8]
 294 002c 0122     		mov	r2, #1
 295 002e 1343     		orr	r3, r2
 296 0030 BB60     		str	r3, [r7, #8]
 297              	.L14:
  81:.\HW_SPI.c    ****         }
  82:.\HW_SPI.c    **** 
  83:.\HW_SPI.c    ****         CLK_SPI_Write(0u);
 298              		.loc 1 83 0 discriminator 2
 299 0032 0020     		mov	r0, #0
 300 0034 FFF7FEFF 		bl	CLK_SPI_Write
  84:.\HW_SPI.c    ****         CyDelayCycles(15);
 301              		.loc 1 84 0 discriminator 2
 302 0038 0F20     		mov	r0, #15
 303 003a FFF7FEFF 		bl	CyDelayCycles
  85:.\HW_SPI.c    ****         
  86:.\HW_SPI.c    ****         tmpBuff <<= 1;
 304              		.loc 1 86 0 discriminator 2
 305 003e BB68     		ldr	r3, [r7, #8]
 306 0040 5B00     		lsl	r3, r3, #1
 307 0042 BB60     		str	r3, [r7, #8]
  73:.\HW_SPI.c    ****     {
 308              		.loc 1 73 0 discriminator 2
ARM GAS  C:\Users\Petro\AppData\Local\Temp\ccXN91uN.s 			page 8


 309 0044 FB68     		ldr	r3, [r7, #12]
 310 0046 013B     		sub	r3, r3, #1
 311 0048 FB60     		str	r3, [r7, #12]
 312              	.L13:
  73:.\HW_SPI.c    ****     {
 313              		.loc 1 73 0 is_stmt 0 discriminator 1
 314 004a FB68     		ldr	r3, [r7, #12]
 315 004c 002B     		cmp	r3, #0
 316 004e DFD1     		bne	.L15
  87:.\HW_SPI.c    ****     }
  88:.\HW_SPI.c    ****     tmpBuff >>= 1;
 317              		.loc 1 88 0 is_stmt 1
 318 0050 BB68     		ldr	r3, [r7, #8]
 319 0052 5B08     		lsr	r3, r3, #1
 320 0054 BB60     		str	r3, [r7, #8]
  89:.\HW_SPI.c    ****     MOSI_SPI_Write(0u);
 321              		.loc 1 89 0
 322 0056 0020     		mov	r0, #0
 323 0058 FFF7FEFF 		bl	MOSI_SPI_Write
  90:.\HW_SPI.c    ****     return (uint8_t)tmpBuff;
 324              		.loc 1 90 0
 325 005c BB68     		ldr	r3, [r7, #8]
 326 005e DBB2     		uxtb	r3, r3
  91:.\HW_SPI.c    **** }
 327              		.loc 1 91 0
 328 0060 181C     		mov	r0, r3
 329 0062 BD46     		mov	sp, r7
 330 0064 04B0     		add	sp, sp, #16
 331              		@ sp needed
 332 0066 80BD     		pop	{r7, pc}
 333              		.cfi_endproc
 334              	.LFE7:
 335              		.size	SPI_RecvByte, .-SPI_RecvByte
 336              		.section	.text.SPI_RecvBuff,"ax",%progbits
 337              		.align	2
 338              		.global	SPI_RecvBuff
 339              		.code	16
 340              		.thumb_func
 341              		.type	SPI_RecvBuff, %function
 342              	SPI_RecvBuff:
 343              	.LFB8:
  92:.\HW_SPI.c    **** 
  93:.\HW_SPI.c    **** void SPI_RecvBuff(uint8_t* buff, uint16_t cnt)
  94:.\HW_SPI.c    **** {
 344              		.loc 1 94 0
 345              		.cfi_startproc
 346 0000 90B5     		push	{r4, r7, lr}
 347              		.cfi_def_cfa_offset 12
 348              		.cfi_offset 4, -12
 349              		.cfi_offset 7, -8
 350              		.cfi_offset 14, -4
 351 0002 85B0     		sub	sp, sp, #20
 352              		.cfi_def_cfa_offset 32
 353 0004 00AF     		add	r7, sp, #0
 354              		.cfi_def_cfa_register 7
 355 0006 7860     		str	r0, [r7, #4]
 356 0008 0A1C     		mov	r2, r1
ARM GAS  C:\Users\Petro\AppData\Local\Temp\ccXN91uN.s 			page 9


 357 000a BB1C     		add	r3, r7, #2
 358 000c 1A80     		strh	r2, [r3]
  95:.\HW_SPI.c    ****     uint16_t tmpData;
  96:.\HW_SPI.c    ****     for (tmpData = 0; tmpData < cnt; tmpData ++)
 359              		.loc 1 96 0
 360 000e 0E23     		mov	r3, #14
 361 0010 FB18     		add	r3, r7, r3
 362 0012 0022     		mov	r2, #0
 363 0014 1A80     		strh	r2, [r3]
 364 0016 0FE0     		b	.L18
 365              	.L19:
  97:.\HW_SPI.c    ****     {
  98:.\HW_SPI.c    ****         buff[tmpData] = SPI_RecvByte(); 
 366              		.loc 1 98 0 discriminator 3
 367 0018 0E23     		mov	r3, #14
 368 001a FB18     		add	r3, r7, r3
 369 001c 1B88     		ldrh	r3, [r3]
 370 001e 7A68     		ldr	r2, [r7, #4]
 371 0020 D418     		add	r4, r2, r3
 372 0022 FFF7FEFF 		bl	SPI_RecvByte
 373 0026 031C     		mov	r3, r0
 374 0028 2370     		strb	r3, [r4]
  96:.\HW_SPI.c    ****     {
 375              		.loc 1 96 0 discriminator 3
 376 002a 0E23     		mov	r3, #14
 377 002c FB18     		add	r3, r7, r3
 378 002e 1A88     		ldrh	r2, [r3]
 379 0030 0E23     		mov	r3, #14
 380 0032 FB18     		add	r3, r7, r3
 381 0034 0132     		add	r2, r2, #1
 382 0036 1A80     		strh	r2, [r3]
 383              	.L18:
  96:.\HW_SPI.c    ****     {
 384              		.loc 1 96 0 is_stmt 0 discriminator 1
 385 0038 0E23     		mov	r3, #14
 386 003a FA18     		add	r2, r7, r3
 387 003c BB1C     		add	r3, r7, #2
 388 003e 1288     		ldrh	r2, [r2]
 389 0040 1B88     		ldrh	r3, [r3]
 390 0042 9A42     		cmp	r2, r3
 391 0044 E8D3     		bcc	.L19
  99:.\HW_SPI.c    ****     }
 100:.\HW_SPI.c    **** }
 392              		.loc 1 100 0 is_stmt 1
 393 0046 BD46     		mov	sp, r7
 394 0048 05B0     		add	sp, sp, #20
 395              		@ sp needed
 396 004a 90BD     		pop	{r4, r7, pc}
 397              		.cfi_endproc
 398              	.LFE8:
 399              		.size	SPI_RecvBuff, .-SPI_RecvBuff
 400              		.text
 401              	.Letext0:
 402              		.file 2 "c:\\program files (x86)\\cypress\\psoc creator\\3.3\\psoc creator\\import\\gnu\\arm\\4.9.
 403              		.file 3 "c:\\program files (x86)\\cypress\\psoc creator\\3.3\\psoc creator\\import\\gnu\\arm\\4.9.
 404              		.section	.debug_info,"",%progbits
 405              	.Ldebug_info0:
ARM GAS  C:\Users\Petro\AppData\Local\Temp\ccXN91uN.s 			page 10


 406 0000 F1010000 		.4byte	0x1f1
 407 0004 0400     		.2byte	0x4
 408 0006 00000000 		.4byte	.Ldebug_abbrev0
 409 000a 04       		.byte	0x4
 410 000b 01       		.uleb128 0x1
 411 000c C7000000 		.4byte	.LASF29
 412 0010 01       		.byte	0x1
 413 0011 8F000000 		.4byte	.LASF30
 414 0015 F3010000 		.4byte	.LASF31
 415 0019 00000000 		.4byte	.Ldebug_ranges0+0
 416 001d 00000000 		.4byte	0
 417 0021 00000000 		.4byte	.Ldebug_line0
 418 0025 02       		.uleb128 0x2
 419 0026 01       		.byte	0x1
 420 0027 06       		.byte	0x6
 421 0028 E7010000 		.4byte	.LASF0
 422 002c 03       		.uleb128 0x3
 423 002d 00000000 		.4byte	.LASF3
 424 0031 02       		.byte	0x2
 425 0032 1D       		.byte	0x1d
 426 0033 37000000 		.4byte	0x37
 427 0037 02       		.uleb128 0x2
 428 0038 01       		.byte	0x1
 429 0039 08       		.byte	0x8
 430 003a 33000000 		.4byte	.LASF1
 431 003e 02       		.uleb128 0x2
 432 003f 02       		.byte	0x2
 433 0040 05       		.byte	0x5
 434 0041 C2010000 		.4byte	.LASF2
 435 0045 03       		.uleb128 0x3
 436 0046 AA000000 		.4byte	.LASF4
 437 004a 02       		.byte	0x2
 438 004b 2B       		.byte	0x2b
 439 004c 50000000 		.4byte	0x50
 440 0050 02       		.uleb128 0x2
 441 0051 02       		.byte	0x2
 442 0052 07       		.byte	0x7
 443 0053 68000000 		.4byte	.LASF5
 444 0057 02       		.uleb128 0x2
 445 0058 04       		.byte	0x4
 446 0059 05       		.byte	0x5
 447 005a DE010000 		.4byte	.LASF6
 448 005e 03       		.uleb128 0x3
 449 005f BC000000 		.4byte	.LASF7
 450 0063 02       		.byte	0x2
 451 0064 41       		.byte	0x41
 452 0065 69000000 		.4byte	0x69
 453 0069 02       		.uleb128 0x2
 454 006a 04       		.byte	0x4
 455 006b 07       		.byte	0x7
 456 006c 4E000000 		.4byte	.LASF8
 457 0070 02       		.uleb128 0x2
 458 0071 08       		.byte	0x8
 459 0072 05       		.byte	0x5
 460 0073 A2010000 		.4byte	.LASF9
 461 0077 02       		.uleb128 0x2
 462 0078 08       		.byte	0x8
ARM GAS  C:\Users\Petro\AppData\Local\Temp\ccXN91uN.s 			page 11


 463 0079 07       		.byte	0x7
 464 007a 62010000 		.4byte	.LASF10
 465 007e 04       		.uleb128 0x4
 466 007f 04       		.byte	0x4
 467 0080 05       		.byte	0x5
 468 0081 696E7400 		.ascii	"int\000"
 469 0085 02       		.uleb128 0x2
 470 0086 04       		.byte	0x4
 471 0087 07       		.byte	0x7
 472 0088 55010000 		.4byte	.LASF11
 473 008c 03       		.uleb128 0x3
 474 008d 79010000 		.4byte	.LASF12
 475 0091 03       		.byte	0x3
 476 0092 15       		.byte	0x15
 477 0093 2C000000 		.4byte	0x2c
 478 0097 03       		.uleb128 0x3
 479 0098 CC010000 		.4byte	.LASF13
 480 009c 03       		.byte	0x3
 481 009d 21       		.byte	0x21
 482 009e 45000000 		.4byte	0x45
 483 00a2 03       		.uleb128 0x3
 484 00a3 D5010000 		.4byte	.LASF14
 485 00a7 03       		.byte	0x3
 486 00a8 2D       		.byte	0x2d
 487 00a9 5E000000 		.4byte	0x5e
 488 00ad 02       		.uleb128 0x2
 489 00ae 04       		.byte	0x4
 490 00af 04       		.byte	0x4
 491 00b0 20000000 		.4byte	.LASF15
 492 00b4 02       		.uleb128 0x2
 493 00b5 08       		.byte	0x8
 494 00b6 04       		.byte	0x4
 495 00b7 B5000000 		.4byte	.LASF16
 496 00bb 02       		.uleb128 0x2
 497 00bc 01       		.byte	0x1
 498 00bd 08       		.byte	0x8
 499 00be B0010000 		.4byte	.LASF17
 500 00c2 02       		.uleb128 0x2
 501 00c3 04       		.byte	0x4
 502 00c4 07       		.byte	0x7
 503 00c5 8E010000 		.4byte	.LASF18
 504 00c9 05       		.uleb128 0x5
 505 00ca 0A000000 		.4byte	.LASF32
 506 00ce 01       		.byte	0x1
 507 00cf 0F       		.byte	0xf
 508 00d0 00000000 		.4byte	.LFB2
 509 00d4 1A000000 		.4byte	.LFE2-.LFB2
 510 00d8 01       		.uleb128 0x1
 511 00d9 9C       		.byte	0x9c
 512 00da 06       		.uleb128 0x6
 513 00db 9F000000 		.4byte	.LASF19
 514 00df 01       		.byte	0x1
 515 00e0 16       		.byte	0x16
 516 00e1 00000000 		.4byte	.LFB3
 517 00e5 0E000000 		.4byte	.LFE3-.LFB3
 518 00e9 01       		.uleb128 0x1
 519 00ea 9C       		.byte	0x9c
ARM GAS  C:\Users\Petro\AppData\Local\Temp\ccXN91uN.s 			page 12


 520 00eb 06       		.uleb128 0x6
 521 00ec B5010000 		.4byte	.LASF20
 522 00f0 01       		.byte	0x1
 523 00f1 1B       		.byte	0x1b
 524 00f2 00000000 		.4byte	.LFB4
 525 00f6 0E000000 		.4byte	.LFE4-.LFB4
 526 00fa 01       		.uleb128 0x1
 527 00fb 9C       		.byte	0x9c
 528 00fc 07       		.uleb128 0x7
 529 00fd 41000000 		.4byte	.LASF21
 530 0101 01       		.byte	0x1
 531 0102 21       		.byte	0x21
 532 0103 00000000 		.4byte	.LFB5
 533 0107 74000000 		.4byte	.LFE5-.LFB5
 534 010b 01       		.uleb128 0x1
 535 010c 9C       		.byte	0x9c
 536 010d 2E010000 		.4byte	0x12e
 537 0111 08       		.uleb128 0x8
 538 0112 13000000 		.4byte	.LASF23
 539 0116 01       		.byte	0x1
 540 0117 21       		.byte	0x21
 541 0118 8C000000 		.4byte	0x8c
 542 011c 02       		.uleb128 0x2
 543 011d 91       		.byte	0x91
 544 011e 6F       		.sleb128 -17
 545 011f 09       		.uleb128 0x9
 546 0120 97010000 		.4byte	.LASF25
 547 0124 01       		.byte	0x1
 548 0125 23       		.byte	0x23
 549 0126 8C000000 		.4byte	0x8c
 550 012a 02       		.uleb128 0x2
 551 012b 91       		.byte	0x91
 552 012c 77       		.sleb128 -9
 553 012d 00       		.byte	0
 554 012e 07       		.uleb128 0x7
 555 012f 26000000 		.4byte	.LASF22
 556 0133 01       		.byte	0x1
 557 0134 3B       		.byte	0x3b
 558 0135 00000000 		.4byte	.LFB6
 559 0139 4C000000 		.4byte	.LFE6-.LFB6
 560 013d 01       		.uleb128 0x1
 561 013e 9C       		.byte	0x9c
 562 013f 6E010000 		.4byte	0x16e
 563 0143 08       		.uleb128 0x8
 564 0144 9A000000 		.4byte	.LASF24
 565 0148 01       		.byte	0x1
 566 0149 3B       		.byte	0x3b
 567 014a 6E010000 		.4byte	0x16e
 568 014e 02       		.uleb128 0x2
 569 014f 91       		.byte	0x91
 570 0150 6C       		.sleb128 -20
 571 0151 0A       		.uleb128 0xa
 572 0152 636E7400 		.ascii	"cnt\000"
 573 0156 01       		.byte	0x1
 574 0157 3B       		.byte	0x3b
 575 0158 97000000 		.4byte	0x97
 576 015c 02       		.uleb128 0x2
ARM GAS  C:\Users\Petro\AppData\Local\Temp\ccXN91uN.s 			page 13


 577 015d 91       		.byte	0x91
 578 015e 6A       		.sleb128 -22
 579 015f 09       		.uleb128 0x9
 580 0160 18000000 		.4byte	.LASF26
 581 0164 01       		.byte	0x1
 582 0165 3D       		.byte	0x3d
 583 0166 97000000 		.4byte	0x97
 584 016a 02       		.uleb128 0x2
 585 016b 91       		.byte	0x91
 586 016c 76       		.sleb128 -10
 587 016d 00       		.byte	0
 588 016e 0B       		.uleb128 0xb
 589 016f 04       		.byte	0x4
 590 0170 8C000000 		.4byte	0x8c
 591 0174 0C       		.uleb128 0xc
 592 0175 7B000000 		.4byte	.LASF33
 593 0179 01       		.byte	0x1
 594 017a 45       		.byte	0x45
 595 017b 8C000000 		.4byte	0x8c
 596 017f 00000000 		.4byte	.LFB7
 597 0183 68000000 		.4byte	.LFE7-.LFB7
 598 0187 01       		.uleb128 0x1
 599 0188 9C       		.byte	0x9c
 600 0189 B8010000 		.4byte	0x1b8
 601 018d 09       		.uleb128 0x9
 602 018e 97010000 		.4byte	.LASF25
 603 0192 01       		.byte	0x1
 604 0193 47       		.byte	0x47
 605 0194 A2000000 		.4byte	0xa2
 606 0198 02       		.uleb128 0x2
 607 0199 91       		.byte	0x91
 608 019a 74       		.sleb128 -12
 609 019b 09       		.uleb128 0x9
 610 019c 60000000 		.4byte	.LASF27
 611 01a0 01       		.byte	0x1
 612 01a1 48       		.byte	0x48
 613 01a2 A2000000 		.4byte	0xa2
 614 01a6 02       		.uleb128 0x2
 615 01a7 91       		.byte	0x91
 616 01a8 70       		.sleb128 -16
 617 01a9 09       		.uleb128 0x9
 618 01aa 88000000 		.4byte	.LASF28
 619 01ae 01       		.byte	0x1
 620 01af 48       		.byte	0x48
 621 01b0 A2000000 		.4byte	0xa2
 622 01b4 02       		.uleb128 0x2
 623 01b5 91       		.byte	0x91
 624 01b6 6C       		.sleb128 -20
 625 01b7 00       		.byte	0
 626 01b8 0D       		.uleb128 0xd
 627 01b9 81010000 		.4byte	.LASF34
 628 01bd 01       		.byte	0x1
 629 01be 5D       		.byte	0x5d
 630 01bf 00000000 		.4byte	.LFB8
 631 01c3 4C000000 		.4byte	.LFE8-.LFB8
 632 01c7 01       		.uleb128 0x1
 633 01c8 9C       		.byte	0x9c
ARM GAS  C:\Users\Petro\AppData\Local\Temp\ccXN91uN.s 			page 14


 634 01c9 08       		.uleb128 0x8
 635 01ca 9A000000 		.4byte	.LASF24
 636 01ce 01       		.byte	0x1
 637 01cf 5D       		.byte	0x5d
 638 01d0 6E010000 		.4byte	0x16e
 639 01d4 02       		.uleb128 0x2
 640 01d5 91       		.byte	0x91
 641 01d6 64       		.sleb128 -28
 642 01d7 0A       		.uleb128 0xa
 643 01d8 636E7400 		.ascii	"cnt\000"
 644 01dc 01       		.byte	0x1
 645 01dd 5D       		.byte	0x5d
 646 01de 97000000 		.4byte	0x97
 647 01e2 02       		.uleb128 0x2
 648 01e3 91       		.byte	0x91
 649 01e4 62       		.sleb128 -30
 650 01e5 09       		.uleb128 0x9
 651 01e6 18000000 		.4byte	.LASF26
 652 01ea 01       		.byte	0x1
 653 01eb 5F       		.byte	0x5f
 654 01ec 97000000 		.4byte	0x97
 655 01f0 02       		.uleb128 0x2
 656 01f1 91       		.byte	0x91
 657 01f2 6E       		.sleb128 -18
 658 01f3 00       		.byte	0
 659 01f4 00       		.byte	0
 660              		.section	.debug_abbrev,"",%progbits
 661              	.Ldebug_abbrev0:
 662 0000 01       		.uleb128 0x1
 663 0001 11       		.uleb128 0x11
 664 0002 01       		.byte	0x1
 665 0003 25       		.uleb128 0x25
 666 0004 0E       		.uleb128 0xe
 667 0005 13       		.uleb128 0x13
 668 0006 0B       		.uleb128 0xb
 669 0007 03       		.uleb128 0x3
 670 0008 0E       		.uleb128 0xe
 671 0009 1B       		.uleb128 0x1b
 672 000a 0E       		.uleb128 0xe
 673 000b 55       		.uleb128 0x55
 674 000c 17       		.uleb128 0x17
 675 000d 11       		.uleb128 0x11
 676 000e 01       		.uleb128 0x1
 677 000f 10       		.uleb128 0x10
 678 0010 17       		.uleb128 0x17
 679 0011 00       		.byte	0
 680 0012 00       		.byte	0
 681 0013 02       		.uleb128 0x2
 682 0014 24       		.uleb128 0x24
 683 0015 00       		.byte	0
 684 0016 0B       		.uleb128 0xb
 685 0017 0B       		.uleb128 0xb
 686 0018 3E       		.uleb128 0x3e
 687 0019 0B       		.uleb128 0xb
 688 001a 03       		.uleb128 0x3
 689 001b 0E       		.uleb128 0xe
 690 001c 00       		.byte	0
ARM GAS  C:\Users\Petro\AppData\Local\Temp\ccXN91uN.s 			page 15


 691 001d 00       		.byte	0
 692 001e 03       		.uleb128 0x3
 693 001f 16       		.uleb128 0x16
 694 0020 00       		.byte	0
 695 0021 03       		.uleb128 0x3
 696 0022 0E       		.uleb128 0xe
 697 0023 3A       		.uleb128 0x3a
 698 0024 0B       		.uleb128 0xb
 699 0025 3B       		.uleb128 0x3b
 700 0026 0B       		.uleb128 0xb
 701 0027 49       		.uleb128 0x49
 702 0028 13       		.uleb128 0x13
 703 0029 00       		.byte	0
 704 002a 00       		.byte	0
 705 002b 04       		.uleb128 0x4
 706 002c 24       		.uleb128 0x24
 707 002d 00       		.byte	0
 708 002e 0B       		.uleb128 0xb
 709 002f 0B       		.uleb128 0xb
 710 0030 3E       		.uleb128 0x3e
 711 0031 0B       		.uleb128 0xb
 712 0032 03       		.uleb128 0x3
 713 0033 08       		.uleb128 0x8
 714 0034 00       		.byte	0
 715 0035 00       		.byte	0
 716 0036 05       		.uleb128 0x5
 717 0037 2E       		.uleb128 0x2e
 718 0038 00       		.byte	0
 719 0039 3F       		.uleb128 0x3f
 720 003a 19       		.uleb128 0x19
 721 003b 03       		.uleb128 0x3
 722 003c 0E       		.uleb128 0xe
 723 003d 3A       		.uleb128 0x3a
 724 003e 0B       		.uleb128 0xb
 725 003f 3B       		.uleb128 0x3b
 726 0040 0B       		.uleb128 0xb
 727 0041 27       		.uleb128 0x27
 728 0042 19       		.uleb128 0x19
 729 0043 11       		.uleb128 0x11
 730 0044 01       		.uleb128 0x1
 731 0045 12       		.uleb128 0x12
 732 0046 06       		.uleb128 0x6
 733 0047 40       		.uleb128 0x40
 734 0048 18       		.uleb128 0x18
 735 0049 9642     		.uleb128 0x2116
 736 004b 19       		.uleb128 0x19
 737 004c 00       		.byte	0
 738 004d 00       		.byte	0
 739 004e 06       		.uleb128 0x6
 740 004f 2E       		.uleb128 0x2e
 741 0050 00       		.byte	0
 742 0051 3F       		.uleb128 0x3f
 743 0052 19       		.uleb128 0x19
 744 0053 03       		.uleb128 0x3
 745 0054 0E       		.uleb128 0xe
 746 0055 3A       		.uleb128 0x3a
 747 0056 0B       		.uleb128 0xb
ARM GAS  C:\Users\Petro\AppData\Local\Temp\ccXN91uN.s 			page 16


 748 0057 3B       		.uleb128 0x3b
 749 0058 0B       		.uleb128 0xb
 750 0059 11       		.uleb128 0x11
 751 005a 01       		.uleb128 0x1
 752 005b 12       		.uleb128 0x12
 753 005c 06       		.uleb128 0x6
 754 005d 40       		.uleb128 0x40
 755 005e 18       		.uleb128 0x18
 756 005f 9642     		.uleb128 0x2116
 757 0061 19       		.uleb128 0x19
 758 0062 00       		.byte	0
 759 0063 00       		.byte	0
 760 0064 07       		.uleb128 0x7
 761 0065 2E       		.uleb128 0x2e
 762 0066 01       		.byte	0x1
 763 0067 3F       		.uleb128 0x3f
 764 0068 19       		.uleb128 0x19
 765 0069 03       		.uleb128 0x3
 766 006a 0E       		.uleb128 0xe
 767 006b 3A       		.uleb128 0x3a
 768 006c 0B       		.uleb128 0xb
 769 006d 3B       		.uleb128 0x3b
 770 006e 0B       		.uleb128 0xb
 771 006f 27       		.uleb128 0x27
 772 0070 19       		.uleb128 0x19
 773 0071 11       		.uleb128 0x11
 774 0072 01       		.uleb128 0x1
 775 0073 12       		.uleb128 0x12
 776 0074 06       		.uleb128 0x6
 777 0075 40       		.uleb128 0x40
 778 0076 18       		.uleb128 0x18
 779 0077 9642     		.uleb128 0x2116
 780 0079 19       		.uleb128 0x19
 781 007a 01       		.uleb128 0x1
 782 007b 13       		.uleb128 0x13
 783 007c 00       		.byte	0
 784 007d 00       		.byte	0
 785 007e 08       		.uleb128 0x8
 786 007f 05       		.uleb128 0x5
 787 0080 00       		.byte	0
 788 0081 03       		.uleb128 0x3
 789 0082 0E       		.uleb128 0xe
 790 0083 3A       		.uleb128 0x3a
 791 0084 0B       		.uleb128 0xb
 792 0085 3B       		.uleb128 0x3b
 793 0086 0B       		.uleb128 0xb
 794 0087 49       		.uleb128 0x49
 795 0088 13       		.uleb128 0x13
 796 0089 02       		.uleb128 0x2
 797 008a 18       		.uleb128 0x18
 798 008b 00       		.byte	0
 799 008c 00       		.byte	0
 800 008d 09       		.uleb128 0x9
 801 008e 34       		.uleb128 0x34
 802 008f 00       		.byte	0
 803 0090 03       		.uleb128 0x3
 804 0091 0E       		.uleb128 0xe
ARM GAS  C:\Users\Petro\AppData\Local\Temp\ccXN91uN.s 			page 17


 805 0092 3A       		.uleb128 0x3a
 806 0093 0B       		.uleb128 0xb
 807 0094 3B       		.uleb128 0x3b
 808 0095 0B       		.uleb128 0xb
 809 0096 49       		.uleb128 0x49
 810 0097 13       		.uleb128 0x13
 811 0098 02       		.uleb128 0x2
 812 0099 18       		.uleb128 0x18
 813 009a 00       		.byte	0
 814 009b 00       		.byte	0
 815 009c 0A       		.uleb128 0xa
 816 009d 05       		.uleb128 0x5
 817 009e 00       		.byte	0
 818 009f 03       		.uleb128 0x3
 819 00a0 08       		.uleb128 0x8
 820 00a1 3A       		.uleb128 0x3a
 821 00a2 0B       		.uleb128 0xb
 822 00a3 3B       		.uleb128 0x3b
 823 00a4 0B       		.uleb128 0xb
 824 00a5 49       		.uleb128 0x49
 825 00a6 13       		.uleb128 0x13
 826 00a7 02       		.uleb128 0x2
 827 00a8 18       		.uleb128 0x18
 828 00a9 00       		.byte	0
 829 00aa 00       		.byte	0
 830 00ab 0B       		.uleb128 0xb
 831 00ac 0F       		.uleb128 0xf
 832 00ad 00       		.byte	0
 833 00ae 0B       		.uleb128 0xb
 834 00af 0B       		.uleb128 0xb
 835 00b0 49       		.uleb128 0x49
 836 00b1 13       		.uleb128 0x13
 837 00b2 00       		.byte	0
 838 00b3 00       		.byte	0
 839 00b4 0C       		.uleb128 0xc
 840 00b5 2E       		.uleb128 0x2e
 841 00b6 01       		.byte	0x1
 842 00b7 3F       		.uleb128 0x3f
 843 00b8 19       		.uleb128 0x19
 844 00b9 03       		.uleb128 0x3
 845 00ba 0E       		.uleb128 0xe
 846 00bb 3A       		.uleb128 0x3a
 847 00bc 0B       		.uleb128 0xb
 848 00bd 3B       		.uleb128 0x3b
 849 00be 0B       		.uleb128 0xb
 850 00bf 27       		.uleb128 0x27
 851 00c0 19       		.uleb128 0x19
 852 00c1 49       		.uleb128 0x49
 853 00c2 13       		.uleb128 0x13
 854 00c3 11       		.uleb128 0x11
 855 00c4 01       		.uleb128 0x1
 856 00c5 12       		.uleb128 0x12
 857 00c6 06       		.uleb128 0x6
 858 00c7 40       		.uleb128 0x40
 859 00c8 18       		.uleb128 0x18
 860 00c9 9642     		.uleb128 0x2116
 861 00cb 19       		.uleb128 0x19
ARM GAS  C:\Users\Petro\AppData\Local\Temp\ccXN91uN.s 			page 18


 862 00cc 01       		.uleb128 0x1
 863 00cd 13       		.uleb128 0x13
 864 00ce 00       		.byte	0
 865 00cf 00       		.byte	0
 866 00d0 0D       		.uleb128 0xd
 867 00d1 2E       		.uleb128 0x2e
 868 00d2 01       		.byte	0x1
 869 00d3 3F       		.uleb128 0x3f
 870 00d4 19       		.uleb128 0x19
 871 00d5 03       		.uleb128 0x3
 872 00d6 0E       		.uleb128 0xe
 873 00d7 3A       		.uleb128 0x3a
 874 00d8 0B       		.uleb128 0xb
 875 00d9 3B       		.uleb128 0x3b
 876 00da 0B       		.uleb128 0xb
 877 00db 27       		.uleb128 0x27
 878 00dc 19       		.uleb128 0x19
 879 00dd 11       		.uleb128 0x11
 880 00de 01       		.uleb128 0x1
 881 00df 12       		.uleb128 0x12
 882 00e0 06       		.uleb128 0x6
 883 00e1 40       		.uleb128 0x40
 884 00e2 18       		.uleb128 0x18
 885 00e3 9642     		.uleb128 0x2116
 886 00e5 19       		.uleb128 0x19
 887 00e6 00       		.byte	0
 888 00e7 00       		.byte	0
 889 00e8 00       		.byte	0
 890              		.section	.debug_aranges,"",%progbits
 891 0000 4C000000 		.4byte	0x4c
 892 0004 0200     		.2byte	0x2
 893 0006 00000000 		.4byte	.Ldebug_info0
 894 000a 04       		.byte	0x4
 895 000b 00       		.byte	0
 896 000c 0000     		.2byte	0
 897 000e 0000     		.2byte	0
 898 0010 00000000 		.4byte	.LFB2
 899 0014 1A000000 		.4byte	.LFE2-.LFB2
 900 0018 00000000 		.4byte	.LFB3
 901 001c 0E000000 		.4byte	.LFE3-.LFB3
 902 0020 00000000 		.4byte	.LFB4
 903 0024 0E000000 		.4byte	.LFE4-.LFB4
 904 0028 00000000 		.4byte	.LFB5
 905 002c 74000000 		.4byte	.LFE5-.LFB5
 906 0030 00000000 		.4byte	.LFB6
 907 0034 4C000000 		.4byte	.LFE6-.LFB6
 908 0038 00000000 		.4byte	.LFB7
 909 003c 68000000 		.4byte	.LFE7-.LFB7
 910 0040 00000000 		.4byte	.LFB8
 911 0044 4C000000 		.4byte	.LFE8-.LFB8
 912 0048 00000000 		.4byte	0
 913 004c 00000000 		.4byte	0
 914              		.section	.debug_ranges,"",%progbits
 915              	.Ldebug_ranges0:
 916 0000 00000000 		.4byte	.LFB2
 917 0004 1A000000 		.4byte	.LFE2
 918 0008 00000000 		.4byte	.LFB3
ARM GAS  C:\Users\Petro\AppData\Local\Temp\ccXN91uN.s 			page 19


 919 000c 0E000000 		.4byte	.LFE3
 920 0010 00000000 		.4byte	.LFB4
 921 0014 0E000000 		.4byte	.LFE4
 922 0018 00000000 		.4byte	.LFB5
 923 001c 74000000 		.4byte	.LFE5
 924 0020 00000000 		.4byte	.LFB6
 925 0024 4C000000 		.4byte	.LFE6
 926 0028 00000000 		.4byte	.LFB7
 927 002c 68000000 		.4byte	.LFE7
 928 0030 00000000 		.4byte	.LFB8
 929 0034 4C000000 		.4byte	.LFE8
 930 0038 00000000 		.4byte	0
 931 003c 00000000 		.4byte	0
 932              		.section	.debug_line,"",%progbits
 933              	.Ldebug_line0:
 934 0000 11020000 		.section	.debug_str,"MS",%progbits,1
 934      02001901 
 934      00000201 
 934      FB0E0D00 
 934      01010101 
 935              	.LASF3:
 936 0000 5F5F7569 		.ascii	"__uint8_t\000"
 936      6E74385F 
 936      7400
 937              	.LASF32:
 938 000a 5350495F 		.ascii	"SPI_Init\000"
 938      496E6974 
 938      00
 939              	.LASF23:
 940 0013 62797465 		.ascii	"byte\000"
 940      00
 941              	.LASF26:
 942 0018 746D7044 		.ascii	"tmpData\000"
 942      61746100 
 943              	.LASF15:
 944 0020 666C6F61 		.ascii	"float\000"
 944      7400
 945              	.LASF22:
 946 0026 5350495F 		.ascii	"SPI_SendBuff\000"
 946      53656E64 
 946      42756666 
 946      00
 947              	.LASF1:
 948 0033 756E7369 		.ascii	"unsigned char\000"
 948      676E6564 
 948      20636861 
 948      7200
 949              	.LASF21:
 950 0041 5350495F 		.ascii	"SPI_SendByte\000"
 950      53656E64 
 950      42797465 
 950      00
 951              	.LASF8:
 952 004e 6C6F6E67 		.ascii	"long unsigned int\000"
 952      20756E73 
 952      69676E65 
 952      6420696E 
ARM GAS  C:\Users\Petro\AppData\Local\Temp\ccXN91uN.s 			page 20


 952      7400
 953              	.LASF27:
 954 0060 746D7042 		.ascii	"tmpBuff\000"
 954      75666600 
 955              	.LASF5:
 956 0068 73686F72 		.ascii	"short unsigned int\000"
 956      7420756E 
 956      7369676E 
 956      65642069 
 956      6E7400
 957              	.LASF33:
 958 007b 5350495F 		.ascii	"SPI_RecvByte\000"
 958      52656376 
 958      42797465 
 958      00
 959              	.LASF28:
 960 0088 746D7050 		.ascii	"tmpPin\000"
 960      696E00
 961              	.LASF30:
 962 008f 2E5C4857 		.ascii	".\\HW_SPI.c\000"
 962      5F535049 
 962      2E6300
 963              	.LASF24:
 964 009a 62756666 		.ascii	"buff\000"
 964      00
 965              	.LASF19:
 966 009f 43686970 		.ascii	"ChipSelect\000"
 966      53656C65 
 966      637400
 967              	.LASF4:
 968 00aa 5F5F7569 		.ascii	"__uint16_t\000"
 968      6E743136 
 968      5F7400
 969              	.LASF16:
 970 00b5 646F7562 		.ascii	"double\000"
 970      6C6500
 971              	.LASF7:
 972 00bc 5F5F7569 		.ascii	"__uint32_t\000"
 972      6E743332 
 972      5F7400
 973              	.LASF29:
 974 00c7 474E5520 		.ascii	"GNU C 4.9.3 20150303 (release) [ARM/embedded-4_9-br"
 974      4320342E 
 974      392E3320 
 974      32303135 
 974      30333033 
 975 00fa 616E6368 		.ascii	"anch revision 221220] -mcpu=cortex-m0 -mthumb -g -O"
 975      20726576 
 975      6973696F 
 975      6E203232 
 975      31323230 
 976 012d 30202D66 		.ascii	"0 -ffunction-sections -ffat-lto-objects\000"
 976      66756E63 
 976      74696F6E 
 976      2D736563 
 976      74696F6E 
 977              	.LASF11:
ARM GAS  C:\Users\Petro\AppData\Local\Temp\ccXN91uN.s 			page 21


 978 0155 756E7369 		.ascii	"unsigned int\000"
 978      676E6564 
 978      20696E74 
 978      00
 979              	.LASF10:
 980 0162 6C6F6E67 		.ascii	"long long unsigned int\000"
 980      206C6F6E 
 980      6720756E 
 980      7369676E 
 980      65642069 
 981              	.LASF12:
 982 0179 75696E74 		.ascii	"uint8_t\000"
 982      385F7400 
 983              	.LASF34:
 984 0181 5350495F 		.ascii	"SPI_RecvBuff\000"
 984      52656376 
 984      42756666 
 984      00
 985              	.LASF18:
 986 018e 73697A65 		.ascii	"sizetype\000"
 986      74797065 
 986      00
 987              	.LASF25:
 988 0197 636F756E 		.ascii	"countBites\000"
 988      74426974 
 988      657300
 989              	.LASF9:
 990 01a2 6C6F6E67 		.ascii	"long long int\000"
 990      206C6F6E 
 990      6720696E 
 990      7400
 991              	.LASF17:
 992 01b0 63686172 		.ascii	"char\000"
 992      00
 993              	.LASF20:
 994 01b5 43686970 		.ascii	"ChipDeselect\000"
 994      44657365 
 994      6C656374 
 994      00
 995              	.LASF2:
 996 01c2 73686F72 		.ascii	"short int\000"
 996      7420696E 
 996      7400
 997              	.LASF13:
 998 01cc 75696E74 		.ascii	"uint16_t\000"
 998      31365F74 
 998      00
 999              	.LASF14:
 1000 01d5 75696E74 		.ascii	"uint32_t\000"
 1000      33325F74 
 1000      00
 1001              	.LASF6:
 1002 01de 6C6F6E67 		.ascii	"long int\000"
 1002      20696E74 
 1002      00
 1003              	.LASF0:
 1004 01e7 7369676E 		.ascii	"signed char\000"
ARM GAS  C:\Users\Petro\AppData\Local\Temp\ccXN91uN.s 			page 22


 1004      65642063 
 1004      68617200 
 1005              	.LASF31:
 1006 01f3 443A5C43 		.ascii	"D:\\Cypress\\system-start-finish\\vesion 2\\fw\\fin"
 1006      79707265 
 1006      73735C73 
 1006      79737465 
 1006      6D2D7374 
 1007 0221 6973685C 		.ascii	"ish\\sandbox\\v2\\SD\\SD FF.cydsn\000"
 1007      73616E64 
 1007      626F785C 
 1007      76325C53 
 1007      445C5344 
 1008              		.ident	"GCC: (GNU Tools for ARM Embedded Processors) 4.9.3 20150303 (release) [ARM/embedded-4_9-br
