ARM GAS  C:\Users\Petro\AppData\Local\Temp\ccXVcFDE.s 			page 1


   1              		.cpu cortex-m0
   2              		.fpu softvfp
   3              		.eabi_attribute 20, 1
   4              		.eabi_attribute 21, 1
   5              		.eabi_attribute 23, 3
   6              		.eabi_attribute 24, 1
   7              		.eabi_attribute 25, 1
   8              		.eabi_attribute 26, 1
   9              		.eabi_attribute 30, 6
  10              		.eabi_attribute 34, 0
  11              		.eabi_attribute 18, 4
  12              		.code	16
  13              		.file	"main.c"
  14              		.text
  15              	.Ltext0:
  16              		.cfi_sections	.debug_frame
  17              		.comm	FatFs,560,4
  18              		.section	.rodata
  19              		.align	2
  20              	.LC3:
  21 0000 54455354 		.ascii	"TEST2.TXT\000"
  21      322E5458 
  21      5400
  22 000a 0000     		.align	2
  23              	.LC0:
  24 000c 68656C6C 		.ascii	"hello world\000"
  24      6F20776F 
  24      726C6400 
  25 0018 00000000 		.space	18
  25      00000000 
  25      00000000 
  25      00000000 
  25      0000
  26 002a 0000     		.section	.text.main,"ax",%progbits
  27              		.align	2
  28              		.global	main
  29              		.code	16
  30              		.thumb_func
  31              		.type	main, %function
  32              	main:
  33              	.LFB37:
  34              		.file 1 ".\\main.c"
   1:.\main.c      **** /* ========================================
   2:.\main.c      ****  *
   3:.\main.c      ****  * Copyright YOUR COMPANY, THE YEAR
   4:.\main.c      ****  * All Rights Reserved
   5:.\main.c      ****  * UNPUBLISHED, LICENSED SOFTWARE.
   6:.\main.c      ****  *
   7:.\main.c      ****  * CONFIDENTIAL AND PROPRIETARY INFORMATION
   8:.\main.c      ****  * WHICH IS THE PROPERTY OF your company.
   9:.\main.c      ****  *
  10:.\main.c      ****  * ========================================
  11:.\main.c      **** */
  12:.\main.c      **** #include <project.h>
  13:.\main.c      **** #include "ff/ff.h"
  14:.\main.c      **** #include "ff/diskio.h"
  15:.\main.c      **** 
ARM GAS  C:\Users\Petro\AppData\Local\Temp\ccXVcFDE.s 			page 2


  16:.\main.c      **** FATFS FatFs;
  17:.\main.c      **** 
  18:.\main.c      **** int main()
  19:.\main.c      **** {
  35              		.loc 1 19 0
  36              		.cfi_startproc
  37 0000 B0B5     		push	{r4, r5, r7, lr}
  38              		.cfi_def_cfa_offset 16
  39              		.cfi_offset 4, -16
  40              		.cfi_offset 5, -12
  41              		.cfi_offset 7, -8
  42              		.cfi_offset 14, -4
  43 0002 AAB0     		sub	sp, sp, #168
  44              		.cfi_def_cfa_offset 184
  45 0004 00AF     		add	r7, sp, #0
  46              		.cfi_def_cfa_register 7
  20:.\main.c      ****     CyGlobalIntEnable; /* Enable global interrupts. */
  47              		.loc 1 20 0
  48              	@ 20 ".\main.c" 1
  49 0006 62B6     		CPSIE   i
  50              	@ 0 "" 2
  21:.\main.c      **** 
  22:.\main.c      ****     FIL fil;       /* File object */
  23:.\main.c      ****     char line[82]; /* Line buffer */
  24:.\main.c      ****     FRESULT fr;    /* FatFs return code */
  25:.\main.c      ****     UINT br, bw;         /* File read/write count */
  26:.\main.c      ****     BYTE buffer[30] = "hello world";
  51              		.loc 1 26 0
  52              		.code	16
  53 0008 3B1D     		add	r3, r7, #4
  54 000a 1E49     		ldr	r1, .L4
  55 000c 1A1C     		mov	r2, r3
  56 000e 31C9     		ldmia	r1!, {r0, r4, r5}
  57 0010 31C2     		stmia	r2!, {r0, r4, r5}
  58 0012 0022     		mov	r2, #0
  59 0014 DA60     		str	r2, [r3, #12]
  60 0016 0022     		mov	r2, #0
  61 0018 1A61     		str	r2, [r3, #16]
  62 001a 0022     		mov	r2, #0
  63 001c 5A61     		str	r2, [r3, #20]
  64 001e 0022     		mov	r2, #0
  65 0020 9A61     		str	r2, [r3, #24]
  66 0022 0022     		mov	r2, #0
  67 0024 9A83     		strh	r2, [r3, #28]
  27:.\main.c      **** 
  28:.\main.c      ****     fr = f_mount(0 ,&FatFs);
  68              		.loc 1 28 0
  69 0026 A723     		mov	r3, #167
  70 0028 FC18     		add	r4, r7, r3
  71 002a 174B     		ldr	r3, .L4+4
  72 002c 0020     		mov	r0, #0
  73 002e 191C     		mov	r1, r3
  74 0030 FFF7FEFF 		bl	f_mount
  75 0034 031C     		mov	r3, r0
  76 0036 2370     		strb	r3, [r4]
  29:.\main.c      ****     fr = f_open(&fil, "TEST2.TXT", FA_WRITE | FA_OPEN_ALWAYS);
  77              		.loc 1 29 0
ARM GAS  C:\Users\Petro\AppData\Local\Temp\ccXVcFDE.s 			page 3


  78 0038 A723     		mov	r3, #167
  79 003a FC18     		add	r4, r7, r3
  80 003c 7C23     		mov	r3, #124
  81 003e FA18     		add	r2, r7, r3
  82 0040 124B     		ldr	r3, .L4+8
  83 0042 101C     		mov	r0, r2
  84 0044 191C     		mov	r1, r3
  85 0046 1222     		mov	r2, #18
  86 0048 FFF7FEFF 		bl	f_open
  87 004c 031C     		mov	r3, r0
  88 004e 2370     		strb	r3, [r4]
  30:.\main.c      ****     if(fr == FR_OK)
  89              		.loc 1 30 0
  90 0050 A723     		mov	r3, #167
  91 0052 FB18     		add	r3, r7, r3
  92 0054 1B78     		ldrb	r3, [r3]
  93 0056 002B     		cmp	r3, #0
  94 0058 0DD1     		bne	.L2
  31:.\main.c      ****     {
  32:.\main.c      **** 
  33:.\main.c      ****         fr = f_write(&fil, buffer, br, &bw);
  95              		.loc 1 33 0
  96 005a A723     		mov	r3, #167
  97 005c FC18     		add	r4, r7, r3
  98 005e 7C23     		mov	r3, #124
  99 0060 F818     		add	r0, r7, r3
 100 0062 391D     		add	r1, r7, #4
 101 0064 A023     		mov	r3, #160
 102 0066 FB18     		add	r3, r7, r3
 103 0068 1A68     		ldr	r2, [r3]
 104 006a 2423     		mov	r3, #36
 105 006c FB18     		add	r3, r7, r3
 106 006e FFF7FEFF 		bl	f_write
 107 0072 031C     		mov	r3, r0
 108 0074 2370     		strb	r3, [r4]
 109              	.L2:
  34:.\main.c      ****         //fr = f_read(&fil, buffer, 10, &bw);
  35:.\main.c      **** 
  36:.\main.c      ****     }
  37:.\main.c      ****     f_close(&fil);
 110              		.loc 1 37 0
 111 0076 7C23     		mov	r3, #124
 112 0078 FB18     		add	r3, r7, r3
 113 007a 181C     		mov	r0, r3
 114 007c FFF7FEFF 		bl	f_close
 115              	.L3:
  38:.\main.c      ****     for(;;)
  39:.\main.c      ****     {
  40:.\main.c      ****         /* Place your application code here. */
  41:.\main.c      ****     }
 116              		.loc 1 41 0 discriminator 1
 117 0080 FEE7     		b	.L3
 118              	.L5:
 119 0082 C046     		.align	2
 120              	.L4:
 121 0084 0C000000 		.word	.LC0
 122 0088 00000000 		.word	FatFs
ARM GAS  C:\Users\Petro\AppData\Local\Temp\ccXVcFDE.s 			page 4


 123 008c 00000000 		.word	.LC3
 124              		.cfi_endproc
 125              	.LFE37:
 126              		.size	main, .-main
 127              		.text
 128              	.Letext0:
 129              		.file 2 ".\\ff/integer.h"
 130              		.file 3 ".\\ff/ff.h"