ARM GAS  C:\Users\Petro\AppData\Local\Temp\ccvir1iW.s 			page 1


   1              		.cpu cortex-m0
   2              		.fpu softvfp
   3              		.eabi_attribute 20, 1
   4              		.eabi_attribute 21, 1
   5              		.eabi_attribute 23, 3
   6              		.eabi_attribute 24, 1
   7              		.eabi_attribute 25, 1
   8              		.eabi_attribute 26, 1
   9              		.eabi_attribute 30, 6
  10              		.eabi_attribute 34, 0
  11              		.eabi_attribute 18, 4
  12              		.code	16
  13              		.file	"network.c"
  14              		.text
  15              	.Ltext0:
  16              		.cfi_sections	.debug_frame
  17              		.comm	PROTO_STATE,1,1
  18              		.comm	LenD1,1,1
  19              		.comm	LenD2,1,1
  20              		.comm	LenD3,1,1
  21              		.comm	LenSeq,1,1
  22              		.comm	LenChS,1,1
  23              		.comm	LenC,1,1
  24              		.comm	outData,24,8
  25              		.comm	inData,24,8
  26              		.section	.text.InitNetwork,"ax",%progbits
  27              		.align	2
  28              		.global	InitNetwork
  29              		.code	16
  30              		.thumb_func
  31              		.type	InitNetwork, %function
  32              	InitNetwork:
  33              	.LFB37:
  34              		.file 1 ".\\lib_Network\\network.c"
   1:.\lib_Network/network.c **** /* ========================================
   2:.\lib_Network/network.c ****  *
   3:.\lib_Network/network.c ****  * Copyright YOUR COMPANY, THE YEAR
   4:.\lib_Network/network.c ****  * All Rights Reserved
   5:.\lib_Network/network.c ****  * UNPUBLISHED, LICENSED SOFTWARE.
   6:.\lib_Network/network.c ****  *
   7:.\lib_Network/network.c ****  * CONFIDENTIAL AND PROPRIETARY INFORMATION
   8:.\lib_Network/network.c ****  * WHICH IS THE PROPERTY OF your company.
   9:.\lib_Network/network.c ****  *
  10:.\lib_Network/network.c ****  * ========================================
  11:.\lib_Network/network.c **** */
  12:.\lib_Network/network.c **** #include "lib_Network\network.h"
  13:.\lib_Network/network.c **** 
  14:.\lib_Network/network.c **** 
  15:.\lib_Network/network.c **** 
  16:.\lib_Network/network.c **** void InitNetwork(void)
  17:.\lib_Network/network.c **** {
  35              		.loc 1 17 0
  36              		.cfi_startproc
  37 0000 80B5     		push	{r7, lr}
  38              		.cfi_def_cfa_offset 8
  39              		.cfi_offset 7, -8
  40              		.cfi_offset 14, -4
ARM GAS  C:\Users\Petro\AppData\Local\Temp\ccvir1iW.s 			page 2


  41 0002 00AF     		add	r7, sp, #0
  42              		.cfi_def_cfa_register 7
  18:.\lib_Network/network.c ****     UART_XB_Start();
  43              		.loc 1 18 0
  44 0004 FFF7FEFF 		bl	UART_XB_Start
  19:.\lib_Network/network.c ****     
  20:.\lib_Network/network.c ****     #ifdef DEBUG_PC
  21:.\lib_Network/network.c ****     SW_UART_DEBUG_Start();
  45              		.loc 1 21 0
  46 0008 FFF7FEFF 		bl	SW_UART_DEBUG_Start
  22:.\lib_Network/network.c ****     #endif
  23:.\lib_Network/network.c ****     
  24:.\lib_Network/network.c ****     inData.readStatus = READ_OK;
  47              		.loc 1 24 0
  48 000c 034B     		ldr	r3, .L2
  49 000e 0122     		mov	r2, #1
  50 0010 DA74     		strb	r2, [r3, #19]
  25:.\lib_Network/network.c ****     outData.writeStatus = NO_WRITE;
  51              		.loc 1 25 0
  52 0012 034B     		ldr	r3, .L2+4
  53 0014 0022     		mov	r2, #0
  54 0016 9A74     		strb	r2, [r3, #18]
  26:.\lib_Network/network.c ****     
  27:.\lib_Network/network.c **** }
  55              		.loc 1 27 0
  56 0018 BD46     		mov	sp, r7
  57              		@ sp needed
  58 001a 80BD     		pop	{r7, pc}
  59              	.L3:
  60              		.align	2
  61              	.L2:
  62 001c 00000000 		.word	inData
  63 0020 00000000 		.word	outData
  64              		.cfi_endproc
  65              	.LFE37:
  66              		.size	InitNetwork, .-InitNetwork
  67              		.global	__aeabi_ui2d
  68              		.global	__aeabi_ddiv
  69              		.global	__aeabi_d2uiz
  70              		.section	.rodata
  71              		.align	2
  72              	.LC4:
  73 0000 74696D65 		.ascii	"time send data %u\012\015\000"
  73      2073656E 
  73      64206461 
  73      74612025 
  73      750A0D00 
  74              		.section	.text.AppDelay,"ax",%progbits
  75              		.align	2
  76              		.global	AppDelay
  77              		.code	16
  78              		.thumb_func
  79              		.type	AppDelay, %function
  80              	AppDelay:
  81              	.LFB38:
  28:.\lib_Network/network.c **** 
  29:.\lib_Network/network.c **** void AppDelay(uint32_t delayMs)
ARM GAS  C:\Users\Petro\AppData\Local\Temp\ccvir1iW.s 			page 3


  30:.\lib_Network/network.c **** {
  82              		.loc 1 30 0
  83              		.cfi_startproc
  84 0000 90B5     		push	{r4, r7, lr}
  85              		.cfi_def_cfa_offset 12
  86              		.cfi_offset 4, -12
  87              		.cfi_offset 7, -8
  88              		.cfi_offset 14, -4
  89 0002 9FB0     		sub	sp, sp, #124
  90              		.cfi_def_cfa_offset 136
  91 0004 00AF     		add	r7, sp, #0
  92              		.cfi_def_cfa_register 7
  93 0006 7860     		str	r0, [r7, #4]
  31:.\lib_Network/network.c ****     uint32_t runTime;
  32:.\lib_Network/network.c ****     
  33:.\lib_Network/network.c ****     if(delayMs < MIN_DELAYMS)
  94              		.loc 1 33 0
  95 0008 7B68     		ldr	r3, [r7, #4]
  96 000a 952B     		cmp	r3, #149
  97 000c 04D8     		bhi	.L5
  34:.\lib_Network/network.c ****     {
  35:.\lib_Network/network.c ****         CyDelay(delayMs);
  98              		.loc 1 35 0
  99 000e 7B68     		ldr	r3, [r7, #4]
 100 0010 181C     		mov	r0, r3
 101 0012 FFF7FEFF 		bl	CyDelay
 102 0016 66E0     		b	.L4
 103              	.L5:
 104              	.LBB2:
  36:.\lib_Network/network.c ****     }else
  37:.\lib_Network/network.c ****     {
  38:.\lib_Network/network.c ****         AppDelay_WriteCounter(131071);
 105              		.loc 1 38 0
 106 0018 344B     		ldr	r3, .L11
 107 001a 181C     		mov	r0, r3
 108 001c FFF7FEFF 		bl	AppDelay_WriteCounter
  39:.\lib_Network/network.c ****         uint32_t counter = AppDelay_ReadCounter();
 109              		.loc 1 39 0
 110 0020 FFF7FEFF 		bl	AppDelay_ReadCounter
 111 0024 031C     		mov	r3, r0
 112 0026 3B67     		str	r3, [r7, #112]
  40:.\lib_Network/network.c ****         //AppDelay_Wakeup();
  41:.\lib_Network/network.c ****         //AppDelay_Enable();
  42:.\lib_Network/network.c ****         AppDelay_Start();
 113              		.loc 1 42 0
 114 0028 FFF7FEFF 		bl	AppDelay_Start
  43:.\lib_Network/network.c ****         
  44:.\lib_Network/network.c ****         if((delayMs - runTime) > MIN_DELAYMS)
 115              		.loc 1 44 0
 116 002c 7A68     		ldr	r2, [r7, #4]
 117 002e 7B6F     		ldr	r3, [r7, #116]
 118 0030 D31A     		sub	r3, r2, r3
 119 0032 962B     		cmp	r3, #150
 120 0034 34D9     		bls	.L7
 121              	.LBB3:
  45:.\lib_Network/network.c ****         {
  46:.\lib_Network/network.c ****             /*user function*/      
ARM GAS  C:\Users\Petro\AppData\Local\Temp\ccvir1iW.s 			page 4


  47:.\lib_Network/network.c ****             if(inData.readStatus == READ_OK && outData.writeStatus == NO_WRITE)
 122              		.loc 1 47 0
 123 0036 2E4B     		ldr	r3, .L11+4
 124 0038 DB7C     		ldrb	r3, [r3, #19]
 125 003a 012B     		cmp	r3, #1
 126 003c 05D1     		bne	.L8
 127              		.loc 1 47 0 is_stmt 0 discriminator 1
 128 003e 2D4B     		ldr	r3, .L11+8
 129 0040 9B7C     		ldrb	r3, [r3, #18]
 130 0042 002B     		cmp	r3, #0
 131 0044 01D1     		bne	.L8
  48:.\lib_Network/network.c ****             {
  49:.\lib_Network/network.c ****                 SendData();           
 132              		.loc 1 49 0 is_stmt 1
 133 0046 FFF7FEFF 		bl	SendData
 134              	.L8:
  50:.\lib_Network/network.c ****             }
  51:.\lib_Network/network.c ****             
  52:.\lib_Network/network.c ****             if(inData.readStatus == READ_OK &&outData.writeStatus == WRITE_OK)
 135              		.loc 1 52 0
 136 004a 294B     		ldr	r3, .L11+4
 137 004c DB7C     		ldrb	r3, [r3, #19]
 138 004e 012B     		cmp	r3, #1
 139 0050 08D1     		bne	.L9
 140              		.loc 1 52 0 is_stmt 0 discriminator 1
 141 0052 284B     		ldr	r3, .L11+8
 142 0054 9B7C     		ldrb	r3, [r3, #18]
 143 0056 012B     		cmp	r3, #1
 144 0058 04D1     		bne	.L9
  53:.\lib_Network/network.c ****             {
  54:.\lib_Network/network.c ****                 ReceiveData();
 145              		.loc 1 54 0 is_stmt 1
 146 005a FFF7FEFF 		bl	ReceiveData
  55:.\lib_Network/network.c ****                 
  56:.\lib_Network/network.c ****                 #ifdef DEBUG_PC
  57:.\lib_Network/network.c ****                 inData.readStatus = READ_OK;
 147              		.loc 1 57 0
 148 005e 244B     		ldr	r3, .L11+4
 149 0060 0122     		mov	r2, #1
 150 0062 DA74     		strb	r2, [r3, #19]
 151              	.L9:
  58:.\lib_Network/network.c ****                 #endif
  59:.\lib_Network/network.c ****             }
  60:.\lib_Network/network.c ****             uint32_t period = AppDelay_ReadPeriod();;
 152              		.loc 1 60 0
 153 0064 FFF7FEFF 		bl	AppDelay_ReadPeriod
 154 0068 031C     		mov	r3, r0
 155 006a FB66     		str	r3, [r7, #108]
  61:.\lib_Network/network.c ****             counter = AppDelay_ReadCounter();
 156              		.loc 1 61 0
 157 006c FFF7FEFF 		bl	AppDelay_ReadCounter
 158 0070 031C     		mov	r3, r0
 159 0072 3B67     		str	r3, [r7, #112]
  62:.\lib_Network/network.c ****             runTime = (period -  counter)/32.768;
 160              		.loc 1 62 0
 161 0074 FA6E     		ldr	r2, [r7, #108]
 162 0076 3B6F     		ldr	r3, [r7, #112]
ARM GAS  C:\Users\Petro\AppData\Local\Temp\ccvir1iW.s 			page 5


 163 0078 D31A     		sub	r3, r2, r3
 164 007a 181C     		mov	r0, r3
 165 007c FFF7FEFF 		bl	__aeabi_ui2d
 166 0080 031C     		mov	r3, r0
 167 0082 0C1C     		mov	r4, r1
 168 0084 181C     		mov	r0, r3
 169 0086 211C     		mov	r1, r4
 170 0088 1B4A     		ldr	r2, .L11+12
 171 008a 1C4B     		ldr	r3, .L11+16
 172 008c FFF7FEFF 		bl	__aeabi_ddiv
 173 0090 031C     		mov	r3, r0
 174 0092 0C1C     		mov	r4, r1
 175 0094 181C     		mov	r0, r3
 176 0096 211C     		mov	r1, r4
 177 0098 FFF7FEFF 		bl	__aeabi_d2uiz
 178 009c 031C     		mov	r3, r0
 179 009e 7B67     		str	r3, [r7, #116]
 180              	.L7:
 181              	.LBE3:
  63:.\lib_Network/network.c ****         }
  64:.\lib_Network/network.c ****         AppDelay_Stop();
 182              		.loc 1 64 0
 183 00a0 FFF7FEFF 		bl	AppDelay_Stop
  65:.\lib_Network/network.c ****         
  66:.\lib_Network/network.c ****     #ifdef DEBUG_PC
  67:.\lib_Network/network.c ****     char buffer[100];
  68:.\lib_Network/network.c ****     sprintf(buffer,"time send data %u\n\r", (runTime));
 184              		.loc 1 68 0
 185 00a4 0823     		mov	r3, #8
 186 00a6 F918     		add	r1, r7, r3
 187 00a8 154A     		ldr	r2, .L11+20
 188 00aa 7B6F     		ldr	r3, [r7, #116]
 189 00ac 081C     		mov	r0, r1
 190 00ae 111C     		mov	r1, r2
 191 00b0 1A1C     		mov	r2, r3
 192 00b2 FFF7FEFF 		bl	sprintf
  69:.\lib_Network/network.c ****     SW_UART_DEBUG_PutString(buffer);
 193              		.loc 1 69 0
 194 00b6 0823     		mov	r3, #8
 195 00b8 FB18     		add	r3, r7, r3
 196 00ba 181C     		mov	r0, r3
 197 00bc FFF7FEFF 		bl	SW_UART_DEBUG_PutString
  70:.\lib_Network/network.c ****     static int i ;
  71:.\lib_Network/network.c ****     if(i++ >10)
 198              		.loc 1 71 0
 199 00c0 104B     		ldr	r3, .L11+24
 200 00c2 1B68     		ldr	r3, [r3]
 201 00c4 591C     		add	r1, r3, #1
 202 00c6 0F4A     		ldr	r2, .L11+24
 203 00c8 1160     		str	r1, [r2]
 204 00ca 0A2B     		cmp	r3, #10
 205 00cc 05DD     		ble	.L10
  72:.\lib_Network/network.c ****     {
  73:.\lib_Network/network.c ****         i=0;
 206              		.loc 1 73 0
 207 00ce 0D4B     		ldr	r3, .L11+24
 208 00d0 0022     		mov	r2, #0
ARM GAS  C:\Users\Petro\AppData\Local\Temp\ccvir1iW.s 			page 6


 209 00d2 1A60     		str	r2, [r3]
  74:.\lib_Network/network.c ****         outData.writeStatus = NO_WRITE;
 210              		.loc 1 74 0
 211 00d4 074B     		ldr	r3, .L11+8
 212 00d6 0022     		mov	r2, #0
 213 00d8 9A74     		strb	r2, [r3, #18]
 214              	.L10:
  75:.\lib_Network/network.c ****     }
  76:.\lib_Network/network.c ****     #endif
  77:.\lib_Network/network.c ****         
  78:.\lib_Network/network.c ****         CyDelay(delayMs - runTime);
 215              		.loc 1 78 0
 216 00da 7A68     		ldr	r2, [r7, #4]
 217 00dc 7B6F     		ldr	r3, [r7, #116]
 218 00de D31A     		sub	r3, r2, r3
 219 00e0 181C     		mov	r0, r3
 220 00e2 FFF7FEFF 		bl	CyDelay
 221              	.L4:
 222              	.LBE2:
  79:.\lib_Network/network.c ****     }
  80:.\lib_Network/network.c ****     
  81:.\lib_Network/network.c **** 
  82:.\lib_Network/network.c **** }
 223              		.loc 1 82 0
 224 00e6 BD46     		mov	sp, r7
 225 00e8 1FB0     		add	sp, sp, #124
 226              		@ sp needed
 227 00ea 90BD     		pop	{r4, r7, pc}
 228              	.L12:
 229              		.align	2
 230              	.L11:
 231 00ec FFFF0100 		.word	131071
 232 00f0 00000000 		.word	inData
 233 00f4 00000000 		.word	outData
 234 00f8 FCA9F1D2 		.word	-755914244
 235 00fc 4D624040 		.word	1077961293
 236 0100 00000000 		.word	.LC4
 237 0104 00000000 		.word	i.6528
 238              		.cfi_endproc
 239              	.LFE38:
 240              		.size	AppDelay, .-AppDelay
 241              		.section	.rodata
 242              		.align	2
 243              	.LC8:
 244 0014 25303258 		.ascii	"%02X:%016X%02X%02X%02X\000"
 244      3A253031 
 244      36582530 
 244      32582530 
 244      32582530 
 245 002b 00       		.align	2
 246              	.LC10:
 247 002c 6F757420 		.ascii	"out data - \000"
 247      64617461 
 247      202D2000 
 248              		.align	2
 249              	.LC12:
 250 0038 0A0D00   		.ascii	"\012\015\000"
ARM GAS  C:\Users\Petro\AppData\Local\Temp\ccvir1iW.s 			page 7


 251              		.section	.text.SendData,"ax",%progbits
 252              		.align	2
 253              		.global	SendData
 254              		.code	16
 255              		.thumb_func
 256              		.type	SendData, %function
 257              	SendData:
 258              	.LFB39:
  83:.\lib_Network/network.c **** 
  84:.\lib_Network/network.c **** void SendData(void)
  85:.\lib_Network/network.c **** {
 259              		.loc 1 85 0
 260              		.cfi_startproc
 261 0000 90B5     		push	{r4, r7, lr}
 262              		.cfi_def_cfa_offset 12
 263              		.cfi_offset 4, -12
 264              		.cfi_offset 7, -8
 265              		.cfi_offset 14, -4
 266 0002 9FB0     		sub	sp, sp, #124
 267              		.cfi_def_cfa_offset 136
 268 0004 04AF     		add	r7, sp, #16
 269              		.cfi_def_cfa 7, 120
  86:.\lib_Network/network.c ****     char sendBuffer[DATA_BUFFER];
  87:.\lib_Network/network.c ****     char sendData[DATA_BUFFER];
  88:.\lib_Network/network.c ****     int i;
  89:.\lib_Network/network.c ****     
  90:.\lib_Network/network.c ****     /*pack data*/
  91:.\lib_Network/network.c ****     sprintf(sendData,"%02X:%016X%02X%02X%02X", 0u, 0u, outData.ready, outData.reboot, outData.count
 270              		.loc 1 91 0
 271 0006 1B4B     		ldr	r3, .L14
 272 0008 5B78     		ldrb	r3, [r3, #1]
 273 000a 1C1C     		mov	r4, r3
 274 000c 194B     		ldr	r3, .L14
 275 000e 9B78     		ldrb	r3, [r3, #2]
 276 0010 181C     		mov	r0, r3
 277 0012 184B     		ldr	r3, .L14
 278 0014 DB78     		ldrb	r3, [r3, #3]
 279 0016 191C     		mov	r1, r3
 280 0018 3A1C     		mov	r2, r7
 281 001a 174B     		ldr	r3, .L14+4
 282 001c 0094     		str	r4, [sp]
 283 001e 0190     		str	r0, [sp, #4]
 284 0020 0291     		str	r1, [sp, #8]
 285 0022 101C     		mov	r0, r2
 286 0024 191C     		mov	r1, r3
 287 0026 0022     		mov	r2, #0
 288 0028 0023     		mov	r3, #0
 289 002a FFF7FEFF 		bl	sprintf
  92:.\lib_Network/network.c ****     
  93:.\lib_Network/network.c ****     PackData(sendBuffer, (uint8_t *)sendData, outData.IDpacket);
 290              		.loc 1 93 0
 291 002e 114B     		ldr	r3, .L14
 292 0030 1B78     		ldrb	r3, [r3]
 293 0032 1C1C     		mov	r4, r3
 294 0034 3423     		mov	r3, #52
 295 0036 FA18     		add	r2, r7, r3
 296 0038 3B1C     		mov	r3, r7
ARM GAS  C:\Users\Petro\AppData\Local\Temp\ccvir1iW.s 			page 8


 297 003a 101C     		mov	r0, r2
 298 003c 191C     		mov	r1, r3
 299 003e 221C     		mov	r2, r4
 300 0040 FFF7FEFF 		bl	PackData
  94:.\lib_Network/network.c ****     UART_XB_UartPutString(sendBuffer);
 301              		.loc 1 94 0
 302 0044 3423     		mov	r3, #52
 303 0046 FB18     		add	r3, r7, r3
 304 0048 181C     		mov	r0, r3
 305 004a FFF7FEFF 		bl	UART_XB_UartPutString
  95:.\lib_Network/network.c ****     outData.writeStatus = WRITE_OK;
 306              		.loc 1 95 0
 307 004e 094B     		ldr	r3, .L14
 308 0050 0122     		mov	r2, #1
 309 0052 9A74     		strb	r2, [r3, #18]
  96:.\lib_Network/network.c ****     
  97:.\lib_Network/network.c ****     #ifdef DEBUG_PC
  98:.\lib_Network/network.c ****     SW_UART_DEBUG_PutString("out data - "); 
 310              		.loc 1 98 0
 311 0054 094B     		ldr	r3, .L14+8
 312 0056 181C     		mov	r0, r3
 313 0058 FFF7FEFF 		bl	SW_UART_DEBUG_PutString
  99:.\lib_Network/network.c ****     SW_UART_DEBUG_PutString(sendBuffer);   
 314              		.loc 1 99 0
 315 005c 3423     		mov	r3, #52
 316 005e FB18     		add	r3, r7, r3
 317 0060 181C     		mov	r0, r3
 318 0062 FFF7FEFF 		bl	SW_UART_DEBUG_PutString
 100:.\lib_Network/network.c ****     SW_UART_DEBUG_PutString("\n\r");
 319              		.loc 1 100 0
 320 0066 064B     		ldr	r3, .L14+12
 321 0068 181C     		mov	r0, r3
 322 006a FFF7FEFF 		bl	SW_UART_DEBUG_PutString
 101:.\lib_Network/network.c ****     #endif   
 102:.\lib_Network/network.c **** }
 323              		.loc 1 102 0
 324 006e BD46     		mov	sp, r7
 325 0070 1BB0     		add	sp, sp, #108
 326              		@ sp needed
 327 0072 90BD     		pop	{r4, r7, pc}
 328              	.L15:
 329              		.align	2
 330              	.L14:
 331 0074 00000000 		.word	outData
 332 0078 14000000 		.word	.LC8
 333 007c 2C000000 		.word	.LC10
 334 0080 38000000 		.word	.LC12
 335              		.cfi_endproc
 336              	.LFE39:
 337              		.size	SendData, .-SendData
 338              		.section	.rodata
 339 003b 00       		.align	2
 340              	.LC16:
 341 003c 20202020 		.ascii	"       READ DATA OKEY\000"
 341      20202052 
 341      45414420 
 341      44415441 
ARM GAS  C:\Users\Petro\AppData\Local\Temp\ccvir1iW.s 			page 9


 341      204F4B45 
 342 0052 0000     		.align	2
 343              	.LC19:
 344 0054 4552524F 		.ascii	"ERROR READ!!!!\000"
 344      52205245 
 344      41442121 
 344      212100
 345 0063 00       		.section	.text.ReceiveData,"ax",%progbits
 346              		.align	2
 347              		.global	ReceiveData
 348              		.code	16
 349              		.thumb_func
 350              		.type	ReceiveData, %function
 351              	ReceiveData:
 352              	.LFB40:
 103:.\lib_Network/network.c **** 
 104:.\lib_Network/network.c **** 
 105:.\lib_Network/network.c **** uint32_t ReceiveData(void)
 106:.\lib_Network/network.c **** {
 353              		.loc 1 106 0
 354              		.cfi_startproc
 355 0000 90B5     		push	{r4, r7, lr}
 356              		.cfi_def_cfa_offset 12
 357              		.cfi_offset 4, -12
 358              		.cfi_offset 7, -8
 359              		.cfi_offset 14, -4
 360 0002 8BB0     		sub	sp, sp, #44
 361              		.cfi_def_cfa_offset 56
 362 0004 00AF     		add	r7, sp, #0
 363              		.cfi_def_cfa_register 7
 107:.\lib_Network/network.c ****     uint32_t result = 0;
 364              		.loc 1 107 0
 365 0006 0023     		mov	r3, #0
 366 0008 7B62     		str	r3, [r7, #36]
 108:.\lib_Network/network.c ****     int i;
 109:.\lib_Network/network.c ****     uint8_t byte;
 110:.\lib_Network/network.c ****     struct Resp recvData;
 111:.\lib_Network/network.c ****       
 112:.\lib_Network/network.c ****     while((byte=UART_XB_UartGetChar()) != 0)
 367              		.loc 1 112 0
 368 000a 3CE0     		b	.L17
 369              	.L19:
 113:.\lib_Network/network.c ****     { 
 114:.\lib_Network/network.c ****         result = UnpackData(&recvData, (uint8_t)(byte & 0xFF));
 370              		.loc 1 114 0
 371 000c 3A1C     		mov	r2, r7
 372 000e 2323     		mov	r3, #35
 373 0010 FB18     		add	r3, r7, r3
 374 0012 1B78     		ldrb	r3, [r3]
 375 0014 101C     		mov	r0, r2
 376 0016 191C     		mov	r1, r3
 377 0018 FFF7FEFF 		bl	UnpackData
 378 001c 031C     		mov	r3, r0
 379 001e 7B62     		str	r3, [r7, #36]
 115:.\lib_Network/network.c ****         
 116:.\lib_Network/network.c ****         #ifdef DEBUG_PC
 117:.\lib_Network/network.c ****         SW_UART_DEBUG_PutChar(byte);
ARM GAS  C:\Users\Petro\AppData\Local\Temp\ccvir1iW.s 			page 10


 380              		.loc 1 117 0
 381 0020 2323     		mov	r3, #35
 382 0022 FB18     		add	r3, r7, r3
 383 0024 1B78     		ldrb	r3, [r3]
 384 0026 181C     		mov	r0, r3
 385 0028 FFF7FEFF 		bl	SW_UART_DEBUG_PutChar
 118:.\lib_Network/network.c ****         #endif
 119:.\lib_Network/network.c ****         if(recvData.EndPacket == 1)
 386              		.loc 1 119 0
 387 002c 3B1C     		mov	r3, r7
 388 002e 1B7E     		ldrb	r3, [r3, #24]
 389 0030 012B     		cmp	r3, #1
 390 0032 28D1     		bne	.L17
 120:.\lib_Network/network.c ****         {
 121:.\lib_Network/network.c ****             inData.IDpacket = recvData.Seq;
 391              		.loc 1 121 0
 392 0034 3B1C     		mov	r3, r7
 393 0036 1B88     		ldrh	r3, [r3]
 394 0038 DAB2     		uxtb	r2, r3
 395 003a 1F4B     		ldr	r3, .L21
 396 003c 1A70     		strb	r2, [r3]
 122:.\lib_Network/network.c ****             
 123:.\lib_Network/network.c ****             /*id packet ok*/
 124:.\lib_Network/network.c ****             if(inData.IDpacket == inData.IDpacket)
 125:.\lib_Network/network.c ****             {
 126:.\lib_Network/network.c ****                 inData.readStatus = NO_READ;
 397              		.loc 1 126 0
 398 003e 1E4B     		ldr	r3, .L21
 399 0040 0022     		mov	r2, #0
 400 0042 DA74     		strb	r2, [r3, #19]
 127:.\lib_Network/network.c ****                 outData.writeStatus = NO_WRITE;
 401              		.loc 1 127 0
 402 0044 1D4B     		ldr	r3, .L21+4
 403 0046 0022     		mov	r2, #0
 404 0048 9A74     		strb	r2, [r3, #18]
 128:.\lib_Network/network.c ****                 /*write data*/
 129:.\lib_Network/network.c ****                 inData.gateStatus = recvData.Data3;
 405              		.loc 1 129 0
 406 004a 3B1C     		mov	r3, r7
 407 004c 9A7C     		ldrb	r2, [r3, #18]
 408 004e 1A4B     		ldr	r3, .L21
 409 0050 9A74     		strb	r2, [r3, #18]
 130:.\lib_Network/network.c ****                 inData.unixStartTime = recvData.Data1;
 410              		.loc 1 130 0
 411 0052 3B1C     		mov	r3, r7
 412 0054 DC68     		ldr	r4, [r3, #12]
 413 0056 9B68     		ldr	r3, [r3, #8]
 414 0058 174A     		ldr	r2, .L21
 415 005a 9360     		str	r3, [r2, #8]
 416 005c D460     		str	r4, [r2, #12]
 131:.\lib_Network/network.c ****                 inData.startMsTime = recvData.Data2;
 417              		.loc 1 131 0
 418 005e 3B1C     		mov	r3, r7
 419 0060 1A8A     		ldrh	r2, [r3, #16]
 420 0062 154B     		ldr	r3, .L21
 421 0064 1A82     		strh	r2, [r3, #16]
 132:.\lib_Network/network.c ****                 /*next packet*/
ARM GAS  C:\Users\Petro\AppData\Local\Temp\ccvir1iW.s 			page 11


 133:.\lib_Network/network.c ****                 outData.IDpacket++;
 422              		.loc 1 133 0
 423 0066 154B     		ldr	r3, .L21+4
 424 0068 1B78     		ldrb	r3, [r3]
 425 006a 0133     		add	r3, r3, #1
 426 006c DAB2     		uxtb	r2, r3
 427 006e 134B     		ldr	r3, .L21+4
 428 0070 1A70     		strb	r2, [r3]
 134:.\lib_Network/network.c ****                 #ifdef DEBUG_PC
 135:.\lib_Network/network.c ****                 SW_UART_DEBUG_PutString("       READ DATA OKEY");   
 429              		.loc 1 135 0
 430 0072 134B     		ldr	r3, .L21+8
 431 0074 181C     		mov	r0, r3
 432 0076 FFF7FEFF 		bl	SW_UART_DEBUG_PutString
 136:.\lib_Network/network.c ****                 SW_UART_DEBUG_PutString("\n\r");
 433              		.loc 1 136 0
 434 007a 124B     		ldr	r3, .L21+12
 435 007c 181C     		mov	r0, r3
 436 007e FFF7FEFF 		bl	SW_UART_DEBUG_PutString
 137:.\lib_Network/network.c ****                 #endif 
 138:.\lib_Network/network.c ****             }  
 139:.\lib_Network/network.c ****             return  NO_ERROR;  
 437              		.loc 1 139 0
 438 0082 0123     		mov	r3, #1
 439 0084 13E0     		b	.L20
 440              	.L17:
 112:.\lib_Network/network.c ****     { 
 441              		.loc 1 112 0
 442 0086 FFF7FEFF 		bl	UART_XB_UartGetChar
 443 008a 021C     		mov	r2, r0
 444 008c 2323     		mov	r3, #35
 445 008e FB18     		add	r3, r7, r3
 446 0090 1A70     		strb	r2, [r3]
 447 0092 2323     		mov	r3, #35
 448 0094 FB18     		add	r3, r7, r3
 449 0096 1B78     		ldrb	r3, [r3]
 450 0098 002B     		cmp	r3, #0
 451 009a B7D1     		bne	.L19
 140:.\lib_Network/network.c ****         }
 141:.\lib_Network/network.c ****     }
 142:.\lib_Network/network.c ****     
 143:.\lib_Network/network.c ****     #ifdef DEBUG_PC
 144:.\lib_Network/network.c ****     SW_UART_DEBUG_PutString("ERROR READ!!!!");   
 452              		.loc 1 144 0
 453 009c 0A4B     		ldr	r3, .L21+16
 454 009e 181C     		mov	r0, r3
 455 00a0 FFF7FEFF 		bl	SW_UART_DEBUG_PutString
 145:.\lib_Network/network.c ****     SW_UART_DEBUG_PutString("\n\r");
 456              		.loc 1 145 0
 457 00a4 074B     		ldr	r3, .L21+12
 458 00a6 181C     		mov	r0, r3
 459 00a8 FFF7FEFF 		bl	SW_UART_DEBUG_PutString
 146:.\lib_Network/network.c ****     #endif 
 147:.\lib_Network/network.c ****     return  ERROR;
 460              		.loc 1 147 0
 461 00ac 0023     		mov	r3, #0
 462              	.L20:
ARM GAS  C:\Users\Petro\AppData\Local\Temp\ccvir1iW.s 			page 12


 148:.\lib_Network/network.c **** }
 463              		.loc 1 148 0 discriminator 1
 464 00ae 181C     		mov	r0, r3
 465 00b0 BD46     		mov	sp, r7
 466 00b2 0BB0     		add	sp, sp, #44
 467              		@ sp needed
 468 00b4 90BD     		pop	{r4, r7, pc}
 469              	.L22:
 470 00b6 C046     		.align	2
 471              	.L21:
 472 00b8 00000000 		.word	inData
 473 00bc 00000000 		.word	outData
 474 00c0 3C000000 		.word	.LC16
 475 00c4 38000000 		.word	.LC12
 476 00c8 54000000 		.word	.LC19
 477              		.cfi_endproc
 478              	.LFE40:
 479              		.size	ReceiveData, .-ReceiveData
 480              		.bss
 481              		.align	2
 482              	i.6528:
 483 0000 00000000 		.space	4
 484              		.text
 485              	.Letext0:
 486              		.file 2 "c:\\program files (x86)\\cypress\\psoc creator\\3.3\\psoc creator\\import\\gnu\\arm\\4.9.
 487              		.file 3 "c:\\program files (x86)\\cypress\\psoc creator\\3.3\\psoc creator\\import\\gnu\\arm\\4.9.
 488              		.file 4 "./lib_Network\\svt.h"
 489              		.file 5 "./lib_Network\\network.h"