ARM GAS  C:\Users\Petro\AppData\Local\Temp\ccxcO5MP.s 			page 1


   1              		.cpu cortex-m0
   2              		.fpu softvfp
   3              		.eabi_attribute 20, 1
   4              		.eabi_attribute 21, 1
   5              		.eabi_attribute 23, 3
   6              		.eabi_attribute 24, 1
   7              		.eabi_attribute 25, 1
   8              		.eabi_attribute 26, 1
   9              		.eabi_attribute 30, 1
  10              		.eabi_attribute 34, 0
  11              		.eabi_attribute 18, 4
  12              		.code	16
  13              		.file	"main.c"
  14              		.text
  15              	.Ltext0:
  16              		.cfi_sections	.debug_frame
  17              		.section	.text.buttHandler,"ax",%progbits
  18              		.align	2
  19              		.global	buttHandler
  20              		.code	16
  21              		.thumb_func
  22              		.type	buttHandler, %function
  23              	buttHandler:
  24              	.LFB34:
  25              		.file 1 ".\\main.c"
   1:.\main.c      **** #include <project.h>
   2:.\main.c      **** 
   3:.\main.c      **** CY_ISR(buttHandler)
   4:.\main.c      **** {
  26              		.loc 1 4 0
  27              		.cfi_startproc
  28 0000 08B5     		push	{r3, lr}
  29              		.cfi_def_cfa_offset 8
  30              		.cfi_offset 3, -8
  31              		.cfi_offset 14, -4
   5:.\main.c      ****     Pin_blue_Write(~Pin_blue_Read());
  32              		.loc 1 5 0
  33 0002 FFF7FEFF 		bl	Pin_blue_Read
  34              	.LVL0:
  35 0006 C043     		mvn	r0, r0
  36 0008 C0B2     		uxtb	r0, r0
  37 000a FFF7FEFF 		bl	Pin_blue_Write
  38              	.LVL1:
   6:.\main.c      ****     Pin_wire_Write(1);
  39              		.loc 1 6 0
  40 000e 0120     		mov	r0, #1
  41 0010 FFF7FEFF 		bl	Pin_wire_Write
  42              	.LVL2:
   7:.\main.c      ****     CyDelay(1);
  43              		.loc 1 7 0
  44 0014 0120     		mov	r0, #1
  45 0016 FFF7FEFF 		bl	CyDelay
  46              	.LVL3:
   8:.\main.c      ****     Pin_wire_Write(0);
  47              		.loc 1 8 0
  48 001a 0020     		mov	r0, #0
  49 001c FFF7FEFF 		bl	Pin_wire_Write
ARM GAS  C:\Users\Petro\AppData\Local\Temp\ccxcO5MP.s 			page 2


  50              	.LVL4:
   9:.\main.c      ****     UART_UartPutString("start\0");
  51              		.loc 1 9 0
  52 0020 0248     		ldr	r0, .L2
  53 0022 FFF7FEFF 		bl	UART_UartPutString
  54              	.LVL5:
  10:.\main.c      ****     
  11:.\main.c      ****     Pin_start_ClearInterrupt(); 
  55              		.loc 1 11 0
  56 0026 FFF7FEFF 		bl	Pin_start_ClearInterrupt
  57              	.LVL6:
  12:.\main.c      **** }
  58              		.loc 1 12 0
  59              		@ sp needed
  60 002a 08BD     		pop	{r3, pc}
  61              	.L3:
  62              		.align	2
  63              	.L2:
  64 002c 00000000 		.word	.LANCHOR0
  65              		.cfi_endproc
  66              	.LFE34:
  67              		.size	buttHandler, .-buttHandler
  68              		.section	.text.main,"ax",%progbits
  69              		.align	2
  70              		.global	main
  71              		.code	16
  72              		.thumb_func
  73              		.type	main, %function
  74              	main:
  75              	.LFB35:
  13:.\main.c      **** 
  14:.\main.c      **** int main()
  15:.\main.c      **** {
  76              		.loc 1 15 0
  77              		.cfi_startproc
  78 0000 08B5     		push	{r3, lr}
  79              		.cfi_def_cfa_offset 8
  80              		.cfi_offset 3, -8
  81              		.cfi_offset 14, -4
  16:.\main.c      ****     CyGlobalIntEnable; /* Enable global interrupts. */
  82              		.loc 1 16 0
  83              	@ 16 ".\main.c" 1
  84 0002 62B6     		CPSIE   i
  85              	@ 0 "" 2
  17:.\main.c      ****     UART_Start();
  86              		.loc 1 17 0
  87              		.code	16
  88 0004 FFF7FEFF 		bl	UART_Start
  89              	.LVL7:
  18:.\main.c      ****     int_start_StartEx(buttHandler);
  90              		.loc 1 18 0
  91 0008 0148     		ldr	r0, .L6
  92 000a FFF7FEFF 		bl	int_start_StartEx
  93              	.LVL8:
  94              	.L5:
  19:.\main.c      ****     for(;;)
  20:.\main.c      ****     {     
ARM GAS  C:\Users\Petro\AppData\Local\Temp\ccxcO5MP.s 			page 3


  21:.\main.c      ****     }
  95              		.loc 1 21 0 discriminator 1
  96 000e FEE7     		b	.L5
  97              	.L7:
  98              		.align	2
  99              	.L6:
 100 0010 00000000 		.word	buttHandler
 101              		.cfi_endproc
 102              	.LFE35:
 103              		.size	main, .-main
 104              		.section	.rodata
 105              		.align	2
 106              		.set	.LANCHOR0,. + 0
 107              	.LC0:
 108 0000 73746172 		.ascii	"start\000\000"
 108      740000
 109 0007 00       		.text
 110              	.Letext0:
 111              		.file 2 "Generated_Source\\PSoC4/cytypes.h"
 112              		.file 3 "Generated_Source\\PSoC4/Pin_blue.h"
 113              		.file 4 "Generated_Source\\PSoC4/Pin_wire.h"
 114              		.file 5 "Generated_Source\\PSoC4/CyLib.h"
 115              		.file 6 "Generated_Source\\PSoC4/UART_SPI_UART.h"
 116              		.file 7 "Generated_Source\\PSoC4/Pin_start.h"
 117              		.file 8 "Generated_Source\\PSoC4/UART.h"
 118              		.file 9 "Generated_Source\\PSoC4/int_start.h"