ARM GAS  C:\Users\Petro\AppData\Local\Temp\ccVjA1WP.s 			page 1


   1              		.cpu cortex-m0
   2              		.fpu softvfp
   3              		.eabi_attribute 20, 1
   4              		.eabi_attribute 21, 1
   5              		.eabi_attribute 23, 3
   6              		.eabi_attribute 24, 1
   7              		.eabi_attribute 25, 1
   8              		.eabi_attribute 26, 1
   9              		.eabi_attribute 30, 1
  10              		.eabi_attribute 34, 0
  11              		.eabi_attribute 18, 4
  12              		.code	16
  13              		.file	"cyfitter_cfg.c"
  14              		.text
  15              	.Ltext0:
  16              		.cfi_sections	.debug_frame
  17              		.section	.text.cfg_write_bytes32,"ax",%progbits
  18              		.align	2
  19              		.code	16
  20              		.thumb_func
  21              		.type	cfg_write_bytes32, %function
  22              	cfg_write_bytes32:
  23              	.LFB5:
  24              		.file 1 ".\\Generated_Source\\PSoC4\\cyfitter_cfg.c"
   1:.\Generated_Source\PSoC4/cyfitter_cfg.c **** /*******************************************************************************
   2:.\Generated_Source\PSoC4/cyfitter_cfg.c **** * File Name: cyfitter_cfg.c
   3:.\Generated_Source\PSoC4/cyfitter_cfg.c **** * 
   4:.\Generated_Source\PSoC4/cyfitter_cfg.c **** * PSoC Creator  3.3 SP1
   5:.\Generated_Source\PSoC4/cyfitter_cfg.c **** *
   6:.\Generated_Source\PSoC4/cyfitter_cfg.c **** * Description:
   7:.\Generated_Source\PSoC4/cyfitter_cfg.c **** * This file contains device initialization code.
   8:.\Generated_Source\PSoC4/cyfitter_cfg.c **** * Except for the user defined sections in CyClockStartupError(), this file should not be modified.
   9:.\Generated_Source\PSoC4/cyfitter_cfg.c **** * This file is automatically generated by PSoC Creator.
  10:.\Generated_Source\PSoC4/cyfitter_cfg.c **** *
  11:.\Generated_Source\PSoC4/cyfitter_cfg.c **** ********************************************************************************
  12:.\Generated_Source\PSoC4/cyfitter_cfg.c **** * Copyright (c) 2007-2015 Cypress Semiconductor.  All rights reserved.
  13:.\Generated_Source\PSoC4/cyfitter_cfg.c **** * You may use this file only in accordance with the license, terms, conditions, 
  14:.\Generated_Source\PSoC4/cyfitter_cfg.c **** * disclaimers, and limitations in the end user license agreement accompanying 
  15:.\Generated_Source\PSoC4/cyfitter_cfg.c **** * the software package with which this file was provided.
  16:.\Generated_Source\PSoC4/cyfitter_cfg.c **** ********************************************************************************/
  17:.\Generated_Source\PSoC4/cyfitter_cfg.c **** 
  18:.\Generated_Source\PSoC4/cyfitter_cfg.c **** #include <string.h>
  19:.\Generated_Source\PSoC4/cyfitter_cfg.c **** #include "cytypes.h"
  20:.\Generated_Source\PSoC4/cyfitter_cfg.c **** #include "cydevice_trm.h"
  21:.\Generated_Source\PSoC4/cyfitter_cfg.c **** #include "cyfitter.h"
  22:.\Generated_Source\PSoC4/cyfitter_cfg.c **** #include "CyLib.h"
  23:.\Generated_Source\PSoC4/cyfitter_cfg.c **** #include "CyLFClk.h"
  24:.\Generated_Source\PSoC4/cyfitter_cfg.c **** #include "cyfitter_cfg.h"
  25:.\Generated_Source\PSoC4/cyfitter_cfg.c **** 
  26:.\Generated_Source\PSoC4/cyfitter_cfg.c **** 
  27:.\Generated_Source\PSoC4/cyfitter_cfg.c **** #if defined(__GNUC__) || defined(__ARMCC_VERSION)
  28:.\Generated_Source\PSoC4/cyfitter_cfg.c ****     #define CYPACKED 
  29:.\Generated_Source\PSoC4/cyfitter_cfg.c ****     #define CYPACKED_ATTR __attribute__ ((packed))
  30:.\Generated_Source\PSoC4/cyfitter_cfg.c ****     #define CYALIGNED __attribute__ ((aligned))
  31:.\Generated_Source\PSoC4/cyfitter_cfg.c ****     #define CY_CFG_UNUSED __attribute__ ((unused))
  32:.\Generated_Source\PSoC4/cyfitter_cfg.c ****     #ifndef CY_CFG_SECTION
  33:.\Generated_Source\PSoC4/cyfitter_cfg.c ****         #define CY_CFG_SECTION __attribute__ ((section(".psocinit")))
ARM GAS  C:\Users\Petro\AppData\Local\Temp\ccVjA1WP.s 			page 2


  34:.\Generated_Source\PSoC4/cyfitter_cfg.c ****     #endif
  35:.\Generated_Source\PSoC4/cyfitter_cfg.c ****     
  36:.\Generated_Source\PSoC4/cyfitter_cfg.c ****     #if defined(__ARMCC_VERSION)
  37:.\Generated_Source\PSoC4/cyfitter_cfg.c ****         #define CY_CFG_MEMORY_BARRIER() __memory_changed()
  38:.\Generated_Source\PSoC4/cyfitter_cfg.c ****     #else
  39:.\Generated_Source\PSoC4/cyfitter_cfg.c ****         #define CY_CFG_MEMORY_BARRIER() __sync_synchronize()
  40:.\Generated_Source\PSoC4/cyfitter_cfg.c ****     #endif
  41:.\Generated_Source\PSoC4/cyfitter_cfg.c ****     
  42:.\Generated_Source\PSoC4/cyfitter_cfg.c **** #elif defined(__ICCARM__)
  43:.\Generated_Source\PSoC4/cyfitter_cfg.c ****     #include <intrinsics.h>
  44:.\Generated_Source\PSoC4/cyfitter_cfg.c **** 
  45:.\Generated_Source\PSoC4/cyfitter_cfg.c ****     #define CYPACKED __packed
  46:.\Generated_Source\PSoC4/cyfitter_cfg.c ****     #define CYPACKED_ATTR 
  47:.\Generated_Source\PSoC4/cyfitter_cfg.c ****     #define CYALIGNED _Pragma("data_alignment=4")
  48:.\Generated_Source\PSoC4/cyfitter_cfg.c ****     #define CY_CFG_UNUSED _Pragma("diag_suppress=Pe177")
  49:.\Generated_Source\PSoC4/cyfitter_cfg.c ****     #define CY_CFG_SECTION _Pragma("location=\".psocinit\"")
  50:.\Generated_Source\PSoC4/cyfitter_cfg.c ****     
  51:.\Generated_Source\PSoC4/cyfitter_cfg.c ****     #define CY_CFG_MEMORY_BARRIER() __DMB()
  52:.\Generated_Source\PSoC4/cyfitter_cfg.c ****     
  53:.\Generated_Source\PSoC4/cyfitter_cfg.c **** #else
  54:.\Generated_Source\PSoC4/cyfitter_cfg.c ****     #error Unsupported toolchain
  55:.\Generated_Source\PSoC4/cyfitter_cfg.c **** #endif
  56:.\Generated_Source\PSoC4/cyfitter_cfg.c **** 
  57:.\Generated_Source\PSoC4/cyfitter_cfg.c **** 
  58:.\Generated_Source\PSoC4/cyfitter_cfg.c **** CY_CFG_UNUSED
  59:.\Generated_Source\PSoC4/cyfitter_cfg.c **** static void CYMEMZERO(void *s, size_t n);
  60:.\Generated_Source\PSoC4/cyfitter_cfg.c **** CY_CFG_UNUSED
  61:.\Generated_Source\PSoC4/cyfitter_cfg.c **** static void CYMEMZERO(void *s, size_t n)
  62:.\Generated_Source\PSoC4/cyfitter_cfg.c **** {
  63:.\Generated_Source\PSoC4/cyfitter_cfg.c **** 	(void)memset(s, 0, n);
  64:.\Generated_Source\PSoC4/cyfitter_cfg.c **** }
  65:.\Generated_Source\PSoC4/cyfitter_cfg.c **** CY_CFG_UNUSED
  66:.\Generated_Source\PSoC4/cyfitter_cfg.c **** static void CYCONFIGCPY(void *dest, const void *src, size_t n);
  67:.\Generated_Source\PSoC4/cyfitter_cfg.c **** CY_CFG_UNUSED
  68:.\Generated_Source\PSoC4/cyfitter_cfg.c **** static void CYCONFIGCPY(void *dest, const void *src, size_t n)
  69:.\Generated_Source\PSoC4/cyfitter_cfg.c **** {
  70:.\Generated_Source\PSoC4/cyfitter_cfg.c **** 	(void)memcpy(dest, src, n);
  71:.\Generated_Source\PSoC4/cyfitter_cfg.c **** }
  72:.\Generated_Source\PSoC4/cyfitter_cfg.c **** CY_CFG_UNUSED
  73:.\Generated_Source\PSoC4/cyfitter_cfg.c **** static void CYCONFIGCPYCODE(void *dest, const void *src, size_t n);
  74:.\Generated_Source\PSoC4/cyfitter_cfg.c **** CY_CFG_UNUSED
  75:.\Generated_Source\PSoC4/cyfitter_cfg.c **** static void CYCONFIGCPYCODE(void *dest, const void *src, size_t n)
  76:.\Generated_Source\PSoC4/cyfitter_cfg.c **** {
  77:.\Generated_Source\PSoC4/cyfitter_cfg.c **** 	(void)memcpy(dest, src, n);
  78:.\Generated_Source\PSoC4/cyfitter_cfg.c **** }
  79:.\Generated_Source\PSoC4/cyfitter_cfg.c **** 
  80:.\Generated_Source\PSoC4/cyfitter_cfg.c **** 
  81:.\Generated_Source\PSoC4/cyfitter_cfg.c **** 
  82:.\Generated_Source\PSoC4/cyfitter_cfg.c **** /* Clock startup error codes                                                   */
  83:.\Generated_Source\PSoC4/cyfitter_cfg.c **** #define CYCLOCKSTART_NO_ERROR    0u
  84:.\Generated_Source\PSoC4/cyfitter_cfg.c **** #define CYCLOCKSTART_XTAL_ERROR  1u
  85:.\Generated_Source\PSoC4/cyfitter_cfg.c **** #define CYCLOCKSTART_32KHZ_ERROR 2u
  86:.\Generated_Source\PSoC4/cyfitter_cfg.c **** #define CYCLOCKSTART_PLL_ERROR   3u
  87:.\Generated_Source\PSoC4/cyfitter_cfg.c **** 
  88:.\Generated_Source\PSoC4/cyfitter_cfg.c **** #ifdef CY_NEED_CYCLOCKSTARTUPERROR
  89:.\Generated_Source\PSoC4/cyfitter_cfg.c **** /*******************************************************************************
  90:.\Generated_Source\PSoC4/cyfitter_cfg.c **** * Function Name: CyClockStartupError
ARM GAS  C:\Users\Petro\AppData\Local\Temp\ccVjA1WP.s 			page 3


  91:.\Generated_Source\PSoC4/cyfitter_cfg.c **** ********************************************************************************
  92:.\Generated_Source\PSoC4/cyfitter_cfg.c **** * Summary:
  93:.\Generated_Source\PSoC4/cyfitter_cfg.c **** *  If an error is encountered during clock configuration (crystal startup error,
  94:.\Generated_Source\PSoC4/cyfitter_cfg.c **** *  PLL lock error, etc.), the system will end up here.  Unless reimplemented by
  95:.\Generated_Source\PSoC4/cyfitter_cfg.c **** *  the customer, this function will stop in an infinite loop.
  96:.\Generated_Source\PSoC4/cyfitter_cfg.c **** *
  97:.\Generated_Source\PSoC4/cyfitter_cfg.c **** * Parameters:
  98:.\Generated_Source\PSoC4/cyfitter_cfg.c **** *   void
  99:.\Generated_Source\PSoC4/cyfitter_cfg.c **** *
 100:.\Generated_Source\PSoC4/cyfitter_cfg.c **** * Return:
 101:.\Generated_Source\PSoC4/cyfitter_cfg.c **** *   void
 102:.\Generated_Source\PSoC4/cyfitter_cfg.c **** *
 103:.\Generated_Source\PSoC4/cyfitter_cfg.c **** *******************************************************************************/
 104:.\Generated_Source\PSoC4/cyfitter_cfg.c **** CY_CFG_UNUSED
 105:.\Generated_Source\PSoC4/cyfitter_cfg.c **** static void CyClockStartupError(uint8 errorCode);
 106:.\Generated_Source\PSoC4/cyfitter_cfg.c **** CY_CFG_UNUSED
 107:.\Generated_Source\PSoC4/cyfitter_cfg.c **** static void CyClockStartupError(uint8 errorCode)
 108:.\Generated_Source\PSoC4/cyfitter_cfg.c **** {
 109:.\Generated_Source\PSoC4/cyfitter_cfg.c ****     /* To remove the compiler warning if errorCode not used.                */
 110:.\Generated_Source\PSoC4/cyfitter_cfg.c ****     errorCode = errorCode;
 111:.\Generated_Source\PSoC4/cyfitter_cfg.c **** 
 112:.\Generated_Source\PSoC4/cyfitter_cfg.c ****     /* `#START CyClockStartupError` */
 113:.\Generated_Source\PSoC4/cyfitter_cfg.c **** 
 114:.\Generated_Source\PSoC4/cyfitter_cfg.c ****     /* If we have a clock startup error (bad MHz crystal, PLL lock, etc.),  */
 115:.\Generated_Source\PSoC4/cyfitter_cfg.c ****     /* we will end up here to allow the customer to implement something to  */
 116:.\Generated_Source\PSoC4/cyfitter_cfg.c ****     /* deal with the clock condition.                                       */
 117:.\Generated_Source\PSoC4/cyfitter_cfg.c **** 
 118:.\Generated_Source\PSoC4/cyfitter_cfg.c ****     /* `#END` */
 119:.\Generated_Source\PSoC4/cyfitter_cfg.c **** 
 120:.\Generated_Source\PSoC4/cyfitter_cfg.c ****     /* If nothing else, stop here since the clocks have not started         */
 121:.\Generated_Source\PSoC4/cyfitter_cfg.c ****     /* correctly.                                                           */
 122:.\Generated_Source\PSoC4/cyfitter_cfg.c ****     while(1) {}
 123:.\Generated_Source\PSoC4/cyfitter_cfg.c **** }
 124:.\Generated_Source\PSoC4/cyfitter_cfg.c **** #endif
 125:.\Generated_Source\PSoC4/cyfitter_cfg.c **** 
 126:.\Generated_Source\PSoC4/cyfitter_cfg.c **** #define CY_CFG_BASE_ADDR_COUNT 9u
 127:.\Generated_Source\PSoC4/cyfitter_cfg.c **** CYPACKED typedef struct
 128:.\Generated_Source\PSoC4/cyfitter_cfg.c **** {
 129:.\Generated_Source\PSoC4/cyfitter_cfg.c **** 	uint8 offset;
 130:.\Generated_Source\PSoC4/cyfitter_cfg.c **** 	uint8 value;
 131:.\Generated_Source\PSoC4/cyfitter_cfg.c **** } CYPACKED_ATTR cy_cfg_addrvalue_t;
 132:.\Generated_Source\PSoC4/cyfitter_cfg.c **** 
 133:.\Generated_Source\PSoC4/cyfitter_cfg.c **** 
 134:.\Generated_Source\PSoC4/cyfitter_cfg.c **** 
 135:.\Generated_Source\PSoC4/cyfitter_cfg.c **** /*******************************************************************************
 136:.\Generated_Source\PSoC4/cyfitter_cfg.c **** * Function Name: cfg_write_bytes32
 137:.\Generated_Source\PSoC4/cyfitter_cfg.c **** ********************************************************************************
 138:.\Generated_Source\PSoC4/cyfitter_cfg.c **** * Summary:
 139:.\Generated_Source\PSoC4/cyfitter_cfg.c **** *  This function is used for setting up the chip configuration areas that
 140:.\Generated_Source\PSoC4/cyfitter_cfg.c **** *  contain relatively sparse data.
 141:.\Generated_Source\PSoC4/cyfitter_cfg.c **** *
 142:.\Generated_Source\PSoC4/cyfitter_cfg.c **** * Parameters:
 143:.\Generated_Source\PSoC4/cyfitter_cfg.c **** *   void
 144:.\Generated_Source\PSoC4/cyfitter_cfg.c **** *
 145:.\Generated_Source\PSoC4/cyfitter_cfg.c **** * Return:
 146:.\Generated_Source\PSoC4/cyfitter_cfg.c **** *   void
 147:.\Generated_Source\PSoC4/cyfitter_cfg.c **** *
ARM GAS  C:\Users\Petro\AppData\Local\Temp\ccVjA1WP.s 			page 4


 148:.\Generated_Source\PSoC4/cyfitter_cfg.c **** *******************************************************************************/
 149:.\Generated_Source\PSoC4/cyfitter_cfg.c **** static void cfg_write_bytes32(const uint32 addr_table[], const cy_cfg_addrvalue_t data_table[]);
 150:.\Generated_Source\PSoC4/cyfitter_cfg.c **** static void cfg_write_bytes32(const uint32 addr_table[], const cy_cfg_addrvalue_t data_table[])
 151:.\Generated_Source\PSoC4/cyfitter_cfg.c **** {
  25              		.loc 1 151 0
  26              		.cfi_startproc
  27              	.LVL0:
  28 0000 F0B5     		push	{r4, r5, r6, r7, lr}
  29              		.cfi_def_cfa_offset 20
  30              		.cfi_offset 4, -20
  31              		.cfi_offset 5, -16
  32              		.cfi_offset 6, -12
  33              		.cfi_offset 7, -8
  34              		.cfi_offset 14, -4
  35              	.LVL1:
 152:.\Generated_Source\PSoC4/cyfitter_cfg.c **** 	/* For 32-bit little-endian architectures */
 153:.\Generated_Source\PSoC4/cyfitter_cfg.c **** 	uint32 i, j = 0u;
  36              		.loc 1 153 0
  37 0002 0025     		mov	r5, #0
 154:.\Generated_Source\PSoC4/cyfitter_cfg.c **** 	for (i = 0u; i < CY_CFG_BASE_ADDR_COUNT; i++)
  38              		.loc 1 154 0
  39 0004 0027     		mov	r7, #0
  40 0006 11E0     		b	.L2
  41              	.LVL2:
  42              	.L5:
  43              	.LBB2:
 155:.\Generated_Source\PSoC4/cyfitter_cfg.c **** 	{
 156:.\Generated_Source\PSoC4/cyfitter_cfg.c **** 		uint32 baseAddr = addr_table[i];
  44              		.loc 1 156 0
  45 0008 BB00     		lsl	r3, r7, #2
  46 000a C658     		ldr	r6, [r0, r3]
  47              	.LVL3:
 157:.\Generated_Source\PSoC4/cyfitter_cfg.c **** 		uint8 count = (uint8)baseAddr;
  48              		.loc 1 157 0
  49 000c F3B2     		uxtb	r3, r6
  50              	.LVL4:
 158:.\Generated_Source\PSoC4/cyfitter_cfg.c **** 		baseAddr &= 0xFFFFFF00u;
  51              		.loc 1 158 0
  52 000e FF22     		mov	r2, #255
  53 0010 9643     		bic	r6, r2
  54              	.LVL5:
 159:.\Generated_Source\PSoC4/cyfitter_cfg.c **** 		while (count != 0u)
  55              		.loc 1 159 0
  56 0012 08E0     		b	.L3
  57              	.L4:
 160:.\Generated_Source\PSoC4/cyfitter_cfg.c **** 		{
 161:.\Generated_Source\PSoC4/cyfitter_cfg.c **** 			CY_SET_XTND_REG8((void CYFAR *)(baseAddr + data_table[j].offset), data_table[j].value);
  58              		.loc 1 161 0
  59 0014 6A00     		lsl	r2, r5, #1
  60 0016 8A18     		add	r2, r1, r2
  61 0018 1478     		ldrb	r4, [r2]
  62 001a A419     		add	r4, r4, r6
  63 001c 5278     		ldrb	r2, [r2, #1]
  64 001e 2270     		strb	r2, [r4]
 162:.\Generated_Source\PSoC4/cyfitter_cfg.c **** 			j++;
  65              		.loc 1 162 0
  66 0020 0135     		add	r5, r5, #1
ARM GAS  C:\Users\Petro\AppData\Local\Temp\ccVjA1WP.s 			page 5


  67              	.LVL6:
 163:.\Generated_Source\PSoC4/cyfitter_cfg.c **** 			count--;
  68              		.loc 1 163 0
  69 0022 013B     		sub	r3, r3, #1
  70              	.LVL7:
  71 0024 DBB2     		uxtb	r3, r3
  72              	.LVL8:
  73              	.L3:
 159:.\Generated_Source\PSoC4/cyfitter_cfg.c **** 		{
  74              		.loc 1 159 0
  75 0026 002B     		cmp	r3, #0
  76 0028 F4D1     		bne	.L4
  77              	.LBE2:
 154:.\Generated_Source\PSoC4/cyfitter_cfg.c **** 	{
  78              		.loc 1 154 0 discriminator 2
  79 002a 0137     		add	r7, r7, #1
  80              	.LVL9:
  81              	.L2:
 154:.\Generated_Source\PSoC4/cyfitter_cfg.c **** 	{
  82              		.loc 1 154 0 is_stmt 0 discriminator 1
  83 002c 082F     		cmp	r7, #8
  84 002e EBD9     		bls	.L5
 164:.\Generated_Source\PSoC4/cyfitter_cfg.c **** 		}
 165:.\Generated_Source\PSoC4/cyfitter_cfg.c **** 	}
 166:.\Generated_Source\PSoC4/cyfitter_cfg.c **** }
  85              		.loc 1 166 0 is_stmt 1
  86              		@ sp needed
  87              	.LVL10:
  88              	.LVL11:
  89 0030 F0BD     		pop	{r4, r5, r6, r7, pc}
  90              		.cfi_endproc
  91              	.LFE5:
  92              		.size	cfg_write_bytes32, .-cfg_write_bytes32
  93 0032 C046     		.section	.text.AnalogSetDefault,"ax",%progbits
  94              		.align	2
  95              		.code	16
  96              		.thumb_func
  97              		.type	AnalogSetDefault, %function
  98              	AnalogSetDefault:
  99              	.LFB7:
 167:.\Generated_Source\PSoC4/cyfitter_cfg.c **** 
 168:.\Generated_Source\PSoC4/cyfitter_cfg.c **** 
 169:.\Generated_Source\PSoC4/cyfitter_cfg.c **** /*******************************************************************************
 170:.\Generated_Source\PSoC4/cyfitter_cfg.c **** * Function Name: ClockSetup
 171:.\Generated_Source\PSoC4/cyfitter_cfg.c **** ********************************************************************************
 172:.\Generated_Source\PSoC4/cyfitter_cfg.c **** *
 173:.\Generated_Source\PSoC4/cyfitter_cfg.c **** * Summary:
 174:.\Generated_Source\PSoC4/cyfitter_cfg.c **** *   Performs the initialization of all of the clocks in the device based on the
 175:.\Generated_Source\PSoC4/cyfitter_cfg.c **** *   settings in the Clock tab of the DWR.  This includes enabling the requested
 176:.\Generated_Source\PSoC4/cyfitter_cfg.c **** *   clocks and setting the necessary dividers to produce the desired frequency. 
 177:.\Generated_Source\PSoC4/cyfitter_cfg.c **** *
 178:.\Generated_Source\PSoC4/cyfitter_cfg.c **** * Parameters:
 179:.\Generated_Source\PSoC4/cyfitter_cfg.c **** *   void
 180:.\Generated_Source\PSoC4/cyfitter_cfg.c **** *
 181:.\Generated_Source\PSoC4/cyfitter_cfg.c **** * Return:
 182:.\Generated_Source\PSoC4/cyfitter_cfg.c **** *   void
 183:.\Generated_Source\PSoC4/cyfitter_cfg.c **** *
ARM GAS  C:\Users\Petro\AppData\Local\Temp\ccVjA1WP.s 			page 6


 184:.\Generated_Source\PSoC4/cyfitter_cfg.c **** *******************************************************************************/
 185:.\Generated_Source\PSoC4/cyfitter_cfg.c **** static void ClockSetup(void);
 186:.\Generated_Source\PSoC4/cyfitter_cfg.c **** CY_CFG_SECTION
 187:.\Generated_Source\PSoC4/cyfitter_cfg.c **** static void ClockSetup(void)
 188:.\Generated_Source\PSoC4/cyfitter_cfg.c **** {
 189:.\Generated_Source\PSoC4/cyfitter_cfg.c **** 
 190:.\Generated_Source\PSoC4/cyfitter_cfg.c **** 	/* Set Flash Cycles based on max possible frequency in case a glitch occurs during ClockSetup(). *
 191:.\Generated_Source\PSoC4/cyfitter_cfg.c **** 	CY_SET_REG32((void CYXDATA *)(CYREG_CPUSS_FLASH_CTL), (0x0012u));
 192:.\Generated_Source\PSoC4/cyfitter_cfg.c **** 
 193:.\Generated_Source\PSoC4/cyfitter_cfg.c **** 	/* Start the WCO */
 194:.\Generated_Source\PSoC4/cyfitter_cfg.c **** 	CySysClkWcoStart();
 195:.\Generated_Source\PSoC4/cyfitter_cfg.c **** 	CyDelayCycles(12000000u); /* WCO may take up to 500ms to start */
 196:.\Generated_Source\PSoC4/cyfitter_cfg.c **** 	(void)CySysClkWcoSetPowerMode(CY_SYS_CLK_WCO_LPM);    /* Switch to the low power mode */
 197:.\Generated_Source\PSoC4/cyfitter_cfg.c **** 
 198:.\Generated_Source\PSoC4/cyfitter_cfg.c **** 	/* Setup and trim IMO based on desired frequency. */
 199:.\Generated_Source\PSoC4/cyfitter_cfg.c **** 	CySysClkWriteImoFreq(48u);
 200:.\Generated_Source\PSoC4/cyfitter_cfg.c **** 	/* CYDEV_CLK_ILO_CONFIG Starting address: CYDEV_CLK_ILO_CONFIG */
 201:.\Generated_Source\PSoC4/cyfitter_cfg.c **** 	CY_SET_XTND_REG32((void CYFAR *)(CYREG_CLK_ILO_CONFIG), 0x80000006u);
 202:.\Generated_Source\PSoC4/cyfitter_cfg.c **** 
 203:.\Generated_Source\PSoC4/cyfitter_cfg.c **** 	/* CYDEV_WDT_CONFIG Starting address: CYDEV_WDT_CONFIG */
 204:.\Generated_Source\PSoC4/cyfitter_cfg.c **** 	CY_SET_XTND_REG32((void CYFAR *)(CYREG_WDT_CONFIG), 0x40000000u);
 205:.\Generated_Source\PSoC4/cyfitter_cfg.c **** 
 206:.\Generated_Source\PSoC4/cyfitter_cfg.c **** 
 207:.\Generated_Source\PSoC4/cyfitter_cfg.c **** 	/* Enable fast start mode for XO */
 208:.\Generated_Source\PSoC4/cyfitter_cfg.c **** 	CY_SET_REG32((void*)CYREG_BLE_BLERD_BB_XO, CY_GET_REG32((void*)CYREG_BLE_BLERD_BB_XO) | (uint32)0x
 209:.\Generated_Source\PSoC4/cyfitter_cfg.c **** 	CY_SET_XTND_REG32((void CYFAR *)(CYREG_BLE_BLERD_BB_XO_CAPTRIM), 0x00003E2Du);
 210:.\Generated_Source\PSoC4/cyfitter_cfg.c **** 	/* Disable Crystal Stable Interrupt before enabling ECO */
 211:.\Generated_Source\PSoC4/cyfitter_cfg.c **** 	CY_SET_REG32((void*)CYREG_BLE_BLESS_LL_DSM_CTRL, CY_GET_REG32((void*)CYREG_BLE_BLESS_LL_DSM_CTRL) 
 212:.\Generated_Source\PSoC4/cyfitter_cfg.c **** 	/* Start the ECO and do not check status since it is not needed for HFCLK */
 213:.\Generated_Source\PSoC4/cyfitter_cfg.c **** 	(void)CySysClkEcoStart(2000u);
 214:.\Generated_Source\PSoC4/cyfitter_cfg.c **** 	CyDelayUs(1500u); /* Wait to stabalize */
 215:.\Generated_Source\PSoC4/cyfitter_cfg.c **** 
 216:.\Generated_Source\PSoC4/cyfitter_cfg.c **** 	/* Setup phase aligned clocks */
 217:.\Generated_Source\PSoC4/cyfitter_cfg.c **** 	CY_SET_REG32((void *)CYREG_PERI_DIV_16_CTL0, 0x00027000u);
 218:.\Generated_Source\PSoC4/cyfitter_cfg.c **** 	CY_SET_REG32((void *)CYREG_PERI_DIV_CMD, 0x8000FF40u);
 219:.\Generated_Source\PSoC4/cyfitter_cfg.c **** 	CY_SET_REG32((void *)CYREG_PERI_DIV_16_CTL1, 0x00BB7F00u);
 220:.\Generated_Source\PSoC4/cyfitter_cfg.c **** 	CY_SET_REG32((void *)CYREG_PERI_DIV_CMD, 0x8000FF41u);
 221:.\Generated_Source\PSoC4/cyfitter_cfg.c **** 	CY_SET_REG32((void *)CYREG_PERI_DIV_16_CTL2, 0x00BB7F00u);
 222:.\Generated_Source\PSoC4/cyfitter_cfg.c **** 	CY_SET_REG32((void *)CYREG_PERI_DIV_CMD, 0x8000FF42u);
 223:.\Generated_Source\PSoC4/cyfitter_cfg.c **** 
 224:.\Generated_Source\PSoC4/cyfitter_cfg.c **** 	/* CYDEV_CLK_IMO_CONFIG Starting address: CYDEV_CLK_IMO_CONFIG */
 225:.\Generated_Source\PSoC4/cyfitter_cfg.c **** 	CY_SET_XTND_REG32((void CYFAR *)(CYREG_CLK_IMO_CONFIG), 0x80000000u);
 226:.\Generated_Source\PSoC4/cyfitter_cfg.c **** 
 227:.\Generated_Source\PSoC4/cyfitter_cfg.c **** 	/* CYDEV_CLK_SELECT Starting address: CYDEV_CLK_SELECT */
 228:.\Generated_Source\PSoC4/cyfitter_cfg.c **** 	CY_SET_XTND_REG32((void CYFAR *)(CYREG_CLK_SELECT), 0x00040000u);
 229:.\Generated_Source\PSoC4/cyfitter_cfg.c **** 
 230:.\Generated_Source\PSoC4/cyfitter_cfg.c **** 	/* CYDEV_PERI_PCLK_CTL11 Starting address: CYDEV_PERI_PCLK_CTL11 */
 231:.\Generated_Source\PSoC4/cyfitter_cfg.c **** 	CY_SET_XTND_REG32((void CYFAR *)(CYREG_PERI_PCLK_CTL11), 0x00000040u);
 232:.\Generated_Source\PSoC4/cyfitter_cfg.c **** 
 233:.\Generated_Source\PSoC4/cyfitter_cfg.c **** 	/* CYDEV_PERI_PCLK_CTL8 Starting address: CYDEV_PERI_PCLK_CTL8 */
 234:.\Generated_Source\PSoC4/cyfitter_cfg.c **** 	CY_SET_XTND_REG32((void CYFAR *)(CYREG_PERI_PCLK_CTL8), 0x00000041u);
 235:.\Generated_Source\PSoC4/cyfitter_cfg.c **** 
 236:.\Generated_Source\PSoC4/cyfitter_cfg.c **** 	/* CYDEV_PERI_PCLK_CTL7 Starting address: CYDEV_PERI_PCLK_CTL7 */
 237:.\Generated_Source\PSoC4/cyfitter_cfg.c **** 	CY_SET_XTND_REG32((void CYFAR *)(CYREG_PERI_PCLK_CTL7), 0x00000042u);
 238:.\Generated_Source\PSoC4/cyfitter_cfg.c **** 
 239:.\Generated_Source\PSoC4/cyfitter_cfg.c **** 	(void)CyIntSetVector(8u, &CySysWdtIsr);
 240:.\Generated_Source\PSoC4/cyfitter_cfg.c **** 	CyIntEnable(8u);
ARM GAS  C:\Users\Petro\AppData\Local\Temp\ccVjA1WP.s 			page 7


 241:.\Generated_Source\PSoC4/cyfitter_cfg.c **** 	CY_SET_XTND_REG32((void CYFAR *)(CYREG_WDT_CONFIG), 0x40000000u);
 242:.\Generated_Source\PSoC4/cyfitter_cfg.c **** }
 243:.\Generated_Source\PSoC4/cyfitter_cfg.c **** 
 244:.\Generated_Source\PSoC4/cyfitter_cfg.c **** 
 245:.\Generated_Source\PSoC4/cyfitter_cfg.c **** /* Analog API Functions */
 246:.\Generated_Source\PSoC4/cyfitter_cfg.c **** 
 247:.\Generated_Source\PSoC4/cyfitter_cfg.c **** 
 248:.\Generated_Source\PSoC4/cyfitter_cfg.c **** /*******************************************************************************
 249:.\Generated_Source\PSoC4/cyfitter_cfg.c **** * Function Name: AnalogSetDefault
 250:.\Generated_Source\PSoC4/cyfitter_cfg.c **** ********************************************************************************
 251:.\Generated_Source\PSoC4/cyfitter_cfg.c **** *
 252:.\Generated_Source\PSoC4/cyfitter_cfg.c **** * Summary:
 253:.\Generated_Source\PSoC4/cyfitter_cfg.c **** *  Sets up the analog portions of the chip to default values based on chip
 254:.\Generated_Source\PSoC4/cyfitter_cfg.c **** *  configuration options from the project.
 255:.\Generated_Source\PSoC4/cyfitter_cfg.c **** *
 256:.\Generated_Source\PSoC4/cyfitter_cfg.c **** * Parameters:
 257:.\Generated_Source\PSoC4/cyfitter_cfg.c **** *  void
 258:.\Generated_Source\PSoC4/cyfitter_cfg.c **** *
 259:.\Generated_Source\PSoC4/cyfitter_cfg.c **** * Return:
 260:.\Generated_Source\PSoC4/cyfitter_cfg.c **** *  void
 261:.\Generated_Source\PSoC4/cyfitter_cfg.c **** *
 262:.\Generated_Source\PSoC4/cyfitter_cfg.c **** *******************************************************************************/
 263:.\Generated_Source\PSoC4/cyfitter_cfg.c **** static void AnalogSetDefault(void);
 264:.\Generated_Source\PSoC4/cyfitter_cfg.c **** static void AnalogSetDefault(void)
 265:.\Generated_Source\PSoC4/cyfitter_cfg.c **** {
 100              		.loc 1 265 0
 101              		.cfi_startproc
 266:.\Generated_Source\PSoC4/cyfitter_cfg.c **** 	CY_SET_XTND_REG32((void CYFAR *)CYREG_CTBM0_DFT_CTRL, 0x00000003u);
 102              		.loc 1 266 0
 103 0000 0323     		mov	r3, #3
 104 0002 044A     		ldr	r2, .L7
 105 0004 1360     		str	r3, [r2]
 267:.\Generated_Source\PSoC4/cyfitter_cfg.c **** 	CY_SET_XTND_REG32((void CYFAR *)CYREG_CTBM1_DFT_CTRL, 0x00000003u);
 106              		.loc 1 267 0
 107 0006 044A     		ldr	r2, .L7+4
 108 0008 1360     		str	r3, [r2]
 268:.\Generated_Source\PSoC4/cyfitter_cfg.c **** 	CY_SET_XTND_REG32((void CYFAR *)CYREG_PASS_DSAB_DSAB_CTRL, 0x00000000u);
 109              		.loc 1 268 0
 110 000a 0022     		mov	r2, #0
 111 000c 034B     		ldr	r3, .L7+8
 112 000e 1A60     		str	r2, [r3]
 269:.\Generated_Source\PSoC4/cyfitter_cfg.c **** }
 113              		.loc 1 269 0
 114              		@ sp needed
 115 0010 7047     		bx	lr
 116              	.L8:
 117 0012 C046     		.align	2
 118              	.L7:
 119 0014 30003040 		.word	1076887600
 120 0018 30003140 		.word	1076953136
 121 001c 000E3F40 		.word	1077874176
 122              		.cfi_endproc
 123              	.LFE7:
 124              		.size	AnalogSetDefault, .-AnalogSetDefault
 125              		.section	.text.CYMEMZERO,"ax",%progbits
 126              		.align	2
 127              		.code	16
ARM GAS  C:\Users\Petro\AppData\Local\Temp\ccVjA1WP.s 			page 8


 128              		.thumb_func
 129              		.type	CYMEMZERO, %function
 130              	CYMEMZERO:
 131              	.LFB2:
  62:.\Generated_Source\PSoC4/cyfitter_cfg.c **** 	(void)memset(s, 0, n);
 132              		.loc 1 62 0
 133              		.cfi_startproc
 134              	.LVL12:
 135 0000 08B5     		push	{r3, lr}
 136              		.cfi_def_cfa_offset 8
 137              		.cfi_offset 3, -8
 138              		.cfi_offset 14, -4
 139 0002 0A1C     		mov	r2, r1
  63:.\Generated_Source\PSoC4/cyfitter_cfg.c **** }
 140              		.loc 1 63 0
 141 0004 0021     		mov	r1, #0
 142              	.LVL13:
 143 0006 FFF7FEFF 		bl	memset
 144              	.LVL14:
  64:.\Generated_Source\PSoC4/cyfitter_cfg.c **** CY_CFG_UNUSED
 145              		.loc 1 64 0
 146              		@ sp needed
 147 000a 08BD     		pop	{r3, pc}
 148              		.cfi_endproc
 149              	.LFE2:
 150              		.size	CYMEMZERO, .-CYMEMZERO
 151              		.section	.text.CYCONFIGCPYCODE,"ax",%progbits
 152              		.align	2
 153              		.code	16
 154              		.thumb_func
 155              		.type	CYCONFIGCPYCODE, %function
 156              	CYCONFIGCPYCODE:
 157              	.LFB4:
  76:.\Generated_Source\PSoC4/cyfitter_cfg.c **** 	(void)memcpy(dest, src, n);
 158              		.loc 1 76 0
 159              		.cfi_startproc
 160              	.LVL15:
 161 0000 08B5     		push	{r3, lr}
 162              		.cfi_def_cfa_offset 8
 163              		.cfi_offset 3, -8
 164              		.cfi_offset 14, -4
  77:.\Generated_Source\PSoC4/cyfitter_cfg.c **** }
 165              		.loc 1 77 0
 166 0002 FFF7FEFF 		bl	memcpy
 167              	.LVL16:
  78:.\Generated_Source\PSoC4/cyfitter_cfg.c **** 
 168              		.loc 1 78 0
 169              		@ sp needed
 170 0006 08BD     		pop	{r3, pc}
 171              		.cfi_endproc
 172              	.LFE4:
 173              		.size	CYCONFIGCPYCODE, .-CYCONFIGCPYCODE
 174              		.section	.psocinit,"ax",%progbits
 175              		.align	2
 176              		.code	16
 177              		.thumb_func
 178              		.type	ClockSetup, %function
ARM GAS  C:\Users\Petro\AppData\Local\Temp\ccVjA1WP.s 			page 9


 179              	ClockSetup:
 180              	.LFB6:
 188:.\Generated_Source\PSoC4/cyfitter_cfg.c **** 
 181              		.loc 1 188 0
 182              		.cfi_startproc
 183 0000 38B5     		push	{r3, r4, r5, lr}
 184              		.cfi_def_cfa_offset 16
 185              		.cfi_offset 3, -16
 186              		.cfi_offset 4, -12
 187              		.cfi_offset 5, -8
 188              		.cfi_offset 14, -4
 191:.\Generated_Source\PSoC4/cyfitter_cfg.c **** 
 189              		.loc 1 191 0
 190 0002 1222     		mov	r2, #18
 191 0004 284B     		ldr	r3, .L12
 192 0006 1A60     		str	r2, [r3]
 194:.\Generated_Source\PSoC4/cyfitter_cfg.c **** 	CyDelayCycles(12000000u); /* WCO may take up to 500ms to start */
 193              		.loc 1 194 0
 194 0008 FFF7FEFF 		bl	CySysClkWcoStart
 195              	.LVL17:
 195:.\Generated_Source\PSoC4/cyfitter_cfg.c **** 	(void)CySysClkWcoSetPowerMode(CY_SYS_CLK_WCO_LPM);    /* Switch to the low power mode */
 196              		.loc 1 195 0
 197 000c 2748     		ldr	r0, .L12+4
 198 000e FFF7FEFF 		bl	CyDelayCycles
 199              	.LVL18:
 196:.\Generated_Source\PSoC4/cyfitter_cfg.c **** 
 200              		.loc 1 196 0
 201 0012 0120     		mov	r0, #1
 202 0014 FFF7FEFF 		bl	CySysClkWcoSetPowerMode
 203              	.LVL19:
 199:.\Generated_Source\PSoC4/cyfitter_cfg.c **** 	/* CYDEV_CLK_ILO_CONFIG Starting address: CYDEV_CLK_ILO_CONFIG */
 204              		.loc 1 199 0
 205 0018 3020     		mov	r0, #48
 206 001a FFF7FEFF 		bl	CySysClkWriteImoFreq
 207              	.LVL20:
 201:.\Generated_Source\PSoC4/cyfitter_cfg.c **** 
 208              		.loc 1 201 0
 209 001e 244A     		ldr	r2, .L12+8
 210 0020 244B     		ldr	r3, .L12+12
 211 0022 1A60     		str	r2, [r3]
 204:.\Generated_Source\PSoC4/cyfitter_cfg.c **** 
 212              		.loc 1 204 0
 213 0024 244C     		ldr	r4, .L12+16
 214 0026 8025     		mov	r5, #128
 215 0028 ED05     		lsl	r5, r5, #23
 216 002a 2560     		str	r5, [r4]
 208:.\Generated_Source\PSoC4/cyfitter_cfg.c **** 	CY_SET_XTND_REG32((void CYFAR *)(CYREG_BLE_BLERD_BB_XO_CAPTRIM), 0x00003E2Du);
 217              		.loc 1 208 0
 218 002c 234A     		ldr	r2, .L12+20
 219 002e 1168     		ldr	r1, [r2]
 220 0030 0223     		mov	r3, #2
 221 0032 0B43     		orr	r3, r1
 222 0034 1360     		str	r3, [r2]
 209:.\Generated_Source\PSoC4/cyfitter_cfg.c **** 	/* Disable Crystal Stable Interrupt before enabling ECO */
 223              		.loc 1 209 0
 224 0036 224A     		ldr	r2, .L12+24
 225 0038 224B     		ldr	r3, .L12+28
ARM GAS  C:\Users\Petro\AppData\Local\Temp\ccVjA1WP.s 			page 10


 226 003a 1A60     		str	r2, [r3]
 211:.\Generated_Source\PSoC4/cyfitter_cfg.c **** 	/* Start the ECO and do not check status since it is not needed for HFCLK */
 227              		.loc 1 211 0
 228 003c 224A     		ldr	r2, .L12+32
 229 003e 1368     		ldr	r3, [r2]
 230 0040 0821     		mov	r1, #8
 231 0042 8B43     		bic	r3, r1
 232 0044 1360     		str	r3, [r2]
 213:.\Generated_Source\PSoC4/cyfitter_cfg.c **** 	CyDelayUs(1500u); /* Wait to stabalize */
 233              		.loc 1 213 0
 234 0046 FA20     		mov	r0, #250
 235 0048 C000     		lsl	r0, r0, #3
 236 004a FFF7FEFF 		bl	CySysClkEcoStart
 237              	.LVL21:
 214:.\Generated_Source\PSoC4/cyfitter_cfg.c **** 
 238              		.loc 1 214 0
 239 004e 1F48     		ldr	r0, .L12+36
 240 0050 FFF7FEFF 		bl	CyDelayUs
 241              	.LVL22:
 217:.\Generated_Source\PSoC4/cyfitter_cfg.c **** 	CY_SET_REG32((void *)CYREG_PERI_DIV_CMD, 0x8000FF40u);
 242              		.loc 1 217 0
 243 0054 9C22     		mov	r2, #156
 244 0056 9202     		lsl	r2, r2, #10
 245 0058 1D4B     		ldr	r3, .L12+40
 246 005a 1A60     		str	r2, [r3]
 218:.\Generated_Source\PSoC4/cyfitter_cfg.c **** 	CY_SET_REG32((void *)CYREG_PERI_DIV_16_CTL1, 0x00BB7F00u);
 247              		.loc 1 218 0
 248 005c 1D4B     		ldr	r3, .L12+44
 249 005e 1E4A     		ldr	r2, .L12+48
 250 0060 1A60     		str	r2, [r3]
 219:.\Generated_Source\PSoC4/cyfitter_cfg.c **** 	CY_SET_REG32((void *)CYREG_PERI_DIV_CMD, 0x8000FF41u);
 251              		.loc 1 219 0
 252 0062 1E4A     		ldr	r2, .L12+52
 253 0064 1E49     		ldr	r1, .L12+56
 254 0066 0A60     		str	r2, [r1]
 220:.\Generated_Source\PSoC4/cyfitter_cfg.c **** 	CY_SET_REG32((void *)CYREG_PERI_DIV_16_CTL2, 0x00BB7F00u);
 255              		.loc 1 220 0
 256 0068 1E49     		ldr	r1, .L12+60
 257 006a 1960     		str	r1, [r3]
 221:.\Generated_Source\PSoC4/cyfitter_cfg.c **** 	CY_SET_REG32((void *)CYREG_PERI_DIV_CMD, 0x8000FF42u);
 258              		.loc 1 221 0
 259 006c 1E49     		ldr	r1, .L12+64
 260 006e 0A60     		str	r2, [r1]
 222:.\Generated_Source\PSoC4/cyfitter_cfg.c **** 
 261              		.loc 1 222 0
 262 0070 1E4A     		ldr	r2, .L12+68
 263 0072 1A60     		str	r2, [r3]
 225:.\Generated_Source\PSoC4/cyfitter_cfg.c **** 
 264              		.loc 1 225 0
 265 0074 8022     		mov	r2, #128
 266 0076 1206     		lsl	r2, r2, #24
 267 0078 1D4B     		ldr	r3, .L12+72
 268 007a 1A60     		str	r2, [r3]
 228:.\Generated_Source\PSoC4/cyfitter_cfg.c **** 
 269              		.loc 1 228 0
 270 007c 8022     		mov	r2, #128
 271 007e D202     		lsl	r2, r2, #11
ARM GAS  C:\Users\Petro\AppData\Local\Temp\ccVjA1WP.s 			page 11


 272 0080 1C4B     		ldr	r3, .L12+76
 273 0082 1A60     		str	r2, [r3]
 231:.\Generated_Source\PSoC4/cyfitter_cfg.c **** 
 274              		.loc 1 231 0
 275 0084 4022     		mov	r2, #64
 276 0086 1C4B     		ldr	r3, .L12+80
 277 0088 1A60     		str	r2, [r3]
 234:.\Generated_Source\PSoC4/cyfitter_cfg.c **** 
 278              		.loc 1 234 0
 279 008a 0132     		add	r2, r2, #1
 280 008c 1B4B     		ldr	r3, .L12+84
 281 008e 1A60     		str	r2, [r3]
 237:.\Generated_Source\PSoC4/cyfitter_cfg.c **** 
 282              		.loc 1 237 0
 283 0090 0132     		add	r2, r2, #1
 284 0092 1B4B     		ldr	r3, .L12+88
 285 0094 1A60     		str	r2, [r3]
 239:.\Generated_Source\PSoC4/cyfitter_cfg.c **** 	CyIntEnable(8u);
 286              		.loc 1 239 0
 287 0096 0820     		mov	r0, #8
 288 0098 1A49     		ldr	r1, .L12+92
 289 009a FFF7FEFF 		bl	CyIntSetVector
 290              	.LVL23:
 240:.\Generated_Source\PSoC4/cyfitter_cfg.c **** 	CY_SET_XTND_REG32((void CYFAR *)(CYREG_WDT_CONFIG), 0x40000000u);
 291              		.loc 1 240 0
 292 009e 0820     		mov	r0, #8
 293 00a0 FFF7FEFF 		bl	CyIntEnable
 294              	.LVL24:
 241:.\Generated_Source\PSoC4/cyfitter_cfg.c **** }
 295              		.loc 1 241 0
 296 00a4 2560     		str	r5, [r4]
 242:.\Generated_Source\PSoC4/cyfitter_cfg.c **** 
 297              		.loc 1 242 0
 298              		@ sp needed
 299 00a6 38BD     		pop	{r3, r4, r5, pc}
 300              	.L13:
 301              		.align	2
 302              	.L12:
 303 00a8 30001040 		.word	1074790448
 304 00ac 001BB700 		.word	12000000
 305 00b0 06000080 		.word	-2147483642
 306 00b4 04010B40 		.word	1074462980
 307 00b8 0C020B40 		.word	1074463244
 308 00bc 78002E40 		.word	1076756600
 309 00c0 2D3E0000 		.word	15917
 310 00c4 7C002E40 		.word	1076756604
 311 00c8 6CF02E40 		.word	1076818028
 312 00cc DC050000 		.word	1500
 313 00d0 00030140 		.word	1073808128
 314 00d4 00000140 		.word	1073807360
 315 00d8 40FF0080 		.word	-2147418304
 316 00dc 007FBB00 		.word	12287744
 317 00e0 04030140 		.word	1073808132
 318 00e4 41FF0080 		.word	-2147418303
 319 00e8 08030140 		.word	1073808136
 320 00ec 42FF0080 		.word	-2147418302
 321 00f0 08010B40 		.word	1074462984
ARM GAS  C:\Users\Petro\AppData\Local\Temp\ccVjA1WP.s 			page 12


 322 00f4 00010B40 		.word	1074462976
 323 00f8 2C010140 		.word	1073807660
 324 00fc 20010140 		.word	1073807648
 325 0100 1C010140 		.word	1073807644
 326 0104 00000000 		.word	CySysWdtIsr
 327              		.cfi_endproc
 328              	.LFE6:
 329              		.size	ClockSetup, .-ClockSetup
 330              		.align	2
 331              		.global	cyfitter_cfg
 332              		.code	16
 333              		.thumb_func
 334              		.type	cyfitter_cfg, %function
 335              	cyfitter_cfg:
 336              	.LFB8:
 270:.\Generated_Source\PSoC4/cyfitter_cfg.c **** 
 271:.\Generated_Source\PSoC4/cyfitter_cfg.c **** #define CY_AMUX_UNUSED CYREG_CM0_ROM_DWT
 272:.\Generated_Source\PSoC4/cyfitter_cfg.c **** 
 273:.\Generated_Source\PSoC4/cyfitter_cfg.c **** 
 274:.\Generated_Source\PSoC4/cyfitter_cfg.c **** /*******************************************************************************
 275:.\Generated_Source\PSoC4/cyfitter_cfg.c **** * Function Name: cyfitter_cfg
 276:.\Generated_Source\PSoC4/cyfitter_cfg.c **** ********************************************************************************
 277:.\Generated_Source\PSoC4/cyfitter_cfg.c **** * Summary:
 278:.\Generated_Source\PSoC4/cyfitter_cfg.c **** *  This function is called by the start-up code for the selected device. It
 279:.\Generated_Source\PSoC4/cyfitter_cfg.c **** *  performs all of the necessary device configuration based on the design
 280:.\Generated_Source\PSoC4/cyfitter_cfg.c **** *  settings.  This includes settings from the Design Wide Resources (DWR) such
 281:.\Generated_Source\PSoC4/cyfitter_cfg.c **** *  as Clocks and Pins as well as any component configuration that is necessary.
 282:.\Generated_Source\PSoC4/cyfitter_cfg.c **** *
 283:.\Generated_Source\PSoC4/cyfitter_cfg.c **** * Parameters:  
 284:.\Generated_Source\PSoC4/cyfitter_cfg.c **** *   void
 285:.\Generated_Source\PSoC4/cyfitter_cfg.c **** *
 286:.\Generated_Source\PSoC4/cyfitter_cfg.c **** * Return:
 287:.\Generated_Source\PSoC4/cyfitter_cfg.c **** *   void
 288:.\Generated_Source\PSoC4/cyfitter_cfg.c **** *
 289:.\Generated_Source\PSoC4/cyfitter_cfg.c **** *******************************************************************************/
 290:.\Generated_Source\PSoC4/cyfitter_cfg.c **** CY_CFG_SECTION
 291:.\Generated_Source\PSoC4/cyfitter_cfg.c **** void cyfitter_cfg(void)
 292:.\Generated_Source\PSoC4/cyfitter_cfg.c **** {
 337              		.loc 1 292 0
 338              		.cfi_startproc
 339 0108 38B5     		push	{r3, r4, r5, lr}
 340              		.cfi_def_cfa_offset 16
 341              		.cfi_offset 3, -16
 342              		.cfi_offset 4, -12
 343              		.cfi_offset 5, -8
 344              		.cfi_offset 14, -4
 293:.\Generated_Source\PSoC4/cyfitter_cfg.c **** 	/* Disable interrupts by default. Let user enable if/when they want. */
 294:.\Generated_Source\PSoC4/cyfitter_cfg.c **** 	CyGlobalIntDisable;
 345              		.loc 1 294 0
 346              	@ 294 ".\Generated_Source\PSoC4\cyfitter_cfg.c" 1
 347 010a 72B6     		CPSID   i
 348              	@ 0 "" 2
 295:.\Generated_Source\PSoC4/cyfitter_cfg.c **** 
 296:.\Generated_Source\PSoC4/cyfitter_cfg.c **** 	CY_SET_XTND_REG32((void CYFAR *)(CYREG_BLE_BLESS_LL_DSM_CTRL), 0x00000000u);
 349              		.loc 1 296 0
 350              		.code	16
 351 010c 0022     		mov	r2, #0
ARM GAS  C:\Users\Petro\AppData\Local\Temp\ccVjA1WP.s 			page 13


 352 010e 414B     		ldr	r3, .L19
 353 0110 1A60     		str	r2, [r3]
 297:.\Generated_Source\PSoC4/cyfitter_cfg.c **** 
 298:.\Generated_Source\PSoC4/cyfitter_cfg.c **** 	/* Enable the clock in the interrupt controller for the routed interrupts */
 299:.\Generated_Source\PSoC4/cyfitter_cfg.c **** 	CY_SET_REG8((void *)CYREG_UDB_UDBIF_INT_CLK_CTL, 0x01u);
 354              		.loc 1 299 0
 355 0112 0132     		add	r2, r2, #1
 356 0114 404B     		ldr	r3, .L19+4
 357 0116 1A70     		strb	r2, [r3]
 358              	.LVL25:
 359              	.LBB3:
 300:.\Generated_Source\PSoC4/cyfitter_cfg.c **** 	{
 301:.\Generated_Source\PSoC4/cyfitter_cfg.c **** 		static const uint32 CYCODE cy_cfg_addr_table[] = {
 302:.\Generated_Source\PSoC4/cyfitter_cfg.c **** 			0x400F0003u, /* Base address: 0x400F0000 Count: 3 */
 303:.\Generated_Source\PSoC4/cyfitter_cfg.c **** 			0x400F3069u, /* Base address: 0x400F3000 Count: 105 */
 304:.\Generated_Source\PSoC4/cyfitter_cfg.c **** 			0x400F313Bu, /* Base address: 0x400F3100 Count: 59 */
 305:.\Generated_Source\PSoC4/cyfitter_cfg.c **** 			0x400F3214u, /* Base address: 0x400F3200 Count: 20 */
 306:.\Generated_Source\PSoC4/cyfitter_cfg.c **** 			0x400F3350u, /* Base address: 0x400F3300 Count: 80 */
 307:.\Generated_Source\PSoC4/cyfitter_cfg.c **** 			0x400F4111u, /* Base address: 0x400F4100 Count: 17 */
 308:.\Generated_Source\PSoC4/cyfitter_cfg.c **** 			0x400F4202u, /* Base address: 0x400F4200 Count: 2 */
 309:.\Generated_Source\PSoC4/cyfitter_cfg.c **** 			0x400F4301u, /* Base address: 0x400F4300 Count: 1 */
 310:.\Generated_Source\PSoC4/cyfitter_cfg.c **** 			0x400F6002u, /* Base address: 0x400F6000 Count: 2 */
 311:.\Generated_Source\PSoC4/cyfitter_cfg.c **** 		};
 312:.\Generated_Source\PSoC4/cyfitter_cfg.c **** 
 313:.\Generated_Source\PSoC4/cyfitter_cfg.c **** 		static const cy_cfg_addrvalue_t CYCODE cy_cfg_data_table[] = {
 314:.\Generated_Source\PSoC4/cyfitter_cfg.c **** 			{0x80u, 0x0Fu},
 315:.\Generated_Source\PSoC4/cyfitter_cfg.c **** 			{0x82u, 0x38u},
 316:.\Generated_Source\PSoC4/cyfitter_cfg.c **** 			{0x83u, 0x72u},
 317:.\Generated_Source\PSoC4/cyfitter_cfg.c **** 			{0x00u, 0x80u},
 318:.\Generated_Source\PSoC4/cyfitter_cfg.c **** 			{0x01u, 0x02u},
 319:.\Generated_Source\PSoC4/cyfitter_cfg.c **** 			{0x02u, 0x20u},
 320:.\Generated_Source\PSoC4/cyfitter_cfg.c **** 			{0x03u, 0x09u},
 321:.\Generated_Source\PSoC4/cyfitter_cfg.c **** 			{0x04u, 0x20u},
 322:.\Generated_Source\PSoC4/cyfitter_cfg.c **** 			{0x06u, 0xC0u},
 323:.\Generated_Source\PSoC4/cyfitter_cfg.c **** 			{0x09u, 0x13u},
 324:.\Generated_Source\PSoC4/cyfitter_cfg.c **** 			{0x0Au, 0x15u},
 325:.\Generated_Source\PSoC4/cyfitter_cfg.c **** 			{0x0Cu, 0x40u},
 326:.\Generated_Source\PSoC4/cyfitter_cfg.c **** 			{0x0Du, 0x10u},
 327:.\Generated_Source\PSoC4/cyfitter_cfg.c **** 			{0x0Eu, 0x20u},
 328:.\Generated_Source\PSoC4/cyfitter_cfg.c **** 			{0x10u, 0x13u},
 329:.\Generated_Source\PSoC4/cyfitter_cfg.c **** 			{0x12u, 0x0Cu},
 330:.\Generated_Source\PSoC4/cyfitter_cfg.c **** 			{0x14u, 0x13u},
 331:.\Generated_Source\PSoC4/cyfitter_cfg.c **** 			{0x16u, 0x04u},
 332:.\Generated_Source\PSoC4/cyfitter_cfg.c **** 			{0x18u, 0x03u},
 333:.\Generated_Source\PSoC4/cyfitter_cfg.c **** 			{0x19u, 0x13u},
 334:.\Generated_Source\PSoC4/cyfitter_cfg.c **** 			{0x1Au, 0x14u},
 335:.\Generated_Source\PSoC4/cyfitter_cfg.c **** 			{0x20u, 0xE0u},
 336:.\Generated_Source\PSoC4/cyfitter_cfg.c **** 			{0x24u, 0x0Au},
 337:.\Generated_Source\PSoC4/cyfitter_cfg.c **** 			{0x26u, 0x14u},
 338:.\Generated_Source\PSoC4/cyfitter_cfg.c **** 			{0x27u, 0x04u},
 339:.\Generated_Source\PSoC4/cyfitter_cfg.c **** 			{0x28u, 0xE0u},
 340:.\Generated_Source\PSoC4/cyfitter_cfg.c **** 			{0x2Du, 0x01u},
 341:.\Generated_Source\PSoC4/cyfitter_cfg.c **** 			{0x2Eu, 0x08u},
 342:.\Generated_Source\PSoC4/cyfitter_cfg.c **** 			{0x2Fu, 0x0Au},
 343:.\Generated_Source\PSoC4/cyfitter_cfg.c **** 			{0x30u, 0x10u},
 344:.\Generated_Source\PSoC4/cyfitter_cfg.c **** 			{0x31u, 0x03u},
 345:.\Generated_Source\PSoC4/cyfitter_cfg.c **** 			{0x32u, 0xE0u},
ARM GAS  C:\Users\Petro\AppData\Local\Temp\ccVjA1WP.s 			page 14


 346:.\Generated_Source\PSoC4/cyfitter_cfg.c **** 			{0x33u, 0x10u},
 347:.\Generated_Source\PSoC4/cyfitter_cfg.c **** 			{0x34u, 0x0Fu},
 348:.\Generated_Source\PSoC4/cyfitter_cfg.c **** 			{0x37u, 0x0Cu},
 349:.\Generated_Source\PSoC4/cyfitter_cfg.c **** 			{0x3Au, 0x20u},
 350:.\Generated_Source\PSoC4/cyfitter_cfg.c **** 			{0x3Eu, 0x01u},
 351:.\Generated_Source\PSoC4/cyfitter_cfg.c **** 			{0x3Fu, 0x40u},
 352:.\Generated_Source\PSoC4/cyfitter_cfg.c **** 			{0x40u, 0x23u},
 353:.\Generated_Source\PSoC4/cyfitter_cfg.c **** 			{0x41u, 0x06u},
 354:.\Generated_Source\PSoC4/cyfitter_cfg.c **** 			{0x45u, 0xECu},
 355:.\Generated_Source\PSoC4/cyfitter_cfg.c **** 			{0x47u, 0x0Bu},
 356:.\Generated_Source\PSoC4/cyfitter_cfg.c **** 			{0x48u, 0x13u},
 357:.\Generated_Source\PSoC4/cyfitter_cfg.c **** 			{0x49u, 0xFFu},
 358:.\Generated_Source\PSoC4/cyfitter_cfg.c **** 			{0x4Au, 0xFFu},
 359:.\Generated_Source\PSoC4/cyfitter_cfg.c **** 			{0x4Bu, 0xFFu},
 360:.\Generated_Source\PSoC4/cyfitter_cfg.c **** 			{0x4Eu, 0xF0u},
 361:.\Generated_Source\PSoC4/cyfitter_cfg.c **** 			{0x4Fu, 0x44u},
 362:.\Generated_Source\PSoC4/cyfitter_cfg.c **** 			{0x50u, 0x0Cu},
 363:.\Generated_Source\PSoC4/cyfitter_cfg.c **** 			{0x54u, 0x01u},
 364:.\Generated_Source\PSoC4/cyfitter_cfg.c **** 			{0x58u, 0x04u},
 365:.\Generated_Source\PSoC4/cyfitter_cfg.c **** 			{0x59u, 0x04u},
 366:.\Generated_Source\PSoC4/cyfitter_cfg.c **** 			{0x5Au, 0x04u},
 367:.\Generated_Source\PSoC4/cyfitter_cfg.c **** 			{0x5Bu, 0x04u},
 368:.\Generated_Source\PSoC4/cyfitter_cfg.c **** 			{0x5Fu, 0x01u},
 369:.\Generated_Source\PSoC4/cyfitter_cfg.c **** 			{0x66u, 0xC0u},
 370:.\Generated_Source\PSoC4/cyfitter_cfg.c **** 			{0x6Au, 0x40u},
 371:.\Generated_Source\PSoC4/cyfitter_cfg.c **** 			{0x6Bu, 0x02u},
 372:.\Generated_Source\PSoC4/cyfitter_cfg.c **** 			{0x80u, 0x10u},
 373:.\Generated_Source\PSoC4/cyfitter_cfg.c **** 			{0x82u, 0x40u},
 374:.\Generated_Source\PSoC4/cyfitter_cfg.c **** 			{0x84u, 0x0Cu},
 375:.\Generated_Source\PSoC4/cyfitter_cfg.c **** 			{0x85u, 0x2Cu},
 376:.\Generated_Source\PSoC4/cyfitter_cfg.c **** 			{0x86u, 0x71u},
 377:.\Generated_Source\PSoC4/cyfitter_cfg.c **** 			{0x87u, 0x43u},
 378:.\Generated_Source\PSoC4/cyfitter_cfg.c **** 			{0x88u, 0x10u},
 379:.\Generated_Source\PSoC4/cyfitter_cfg.c **** 			{0x8Au, 0xACu},
 380:.\Generated_Source\PSoC4/cyfitter_cfg.c **** 			{0x8Cu, 0x09u},
 381:.\Generated_Source\PSoC4/cyfitter_cfg.c **** 			{0x8Eu, 0xD0u},
 382:.\Generated_Source\PSoC4/cyfitter_cfg.c **** 			{0x93u, 0x0Cu},
 383:.\Generated_Source\PSoC4/cyfitter_cfg.c **** 			{0x96u, 0x20u},
 384:.\Generated_Source\PSoC4/cyfitter_cfg.c **** 			{0x99u, 0x71u},
 385:.\Generated_Source\PSoC4/cyfitter_cfg.c **** 			{0x9Bu, 0x06u},
 386:.\Generated_Source\PSoC4/cyfitter_cfg.c **** 			{0x9Eu, 0x03u},
 387:.\Generated_Source\PSoC4/cyfitter_cfg.c **** 			{0xA3u, 0x08u},
 388:.\Generated_Source\PSoC4/cyfitter_cfg.c **** 			{0xA4u, 0x14u},
 389:.\Generated_Source\PSoC4/cyfitter_cfg.c **** 			{0xA5u, 0x71u},
 390:.\Generated_Source\PSoC4/cyfitter_cfg.c **** 			{0xA7u, 0x0Eu},
 391:.\Generated_Source\PSoC4/cyfitter_cfg.c **** 			{0xA8u, 0xDCu},
 392:.\Generated_Source\PSoC4/cyfitter_cfg.c **** 			{0xA9u, 0x80u},
 393:.\Generated_Source\PSoC4/cyfitter_cfg.c **** 			{0xAAu, 0x22u},
 394:.\Generated_Source\PSoC4/cyfitter_cfg.c **** 			{0xABu, 0x13u},
 395:.\Generated_Source\PSoC4/cyfitter_cfg.c **** 			{0xB3u, 0x0Fu},
 396:.\Generated_Source\PSoC4/cyfitter_cfg.c **** 			{0xB4u, 0xE0u},
 397:.\Generated_Source\PSoC4/cyfitter_cfg.c **** 			{0xB5u, 0x30u},
 398:.\Generated_Source\PSoC4/cyfitter_cfg.c **** 			{0xB6u, 0x1Fu},
 399:.\Generated_Source\PSoC4/cyfitter_cfg.c **** 			{0xB7u, 0xC0u},
 400:.\Generated_Source\PSoC4/cyfitter_cfg.c **** 			{0xB9u, 0xA0u},
 401:.\Generated_Source\PSoC4/cyfitter_cfg.c **** 			{0xBAu, 0x20u},
 402:.\Generated_Source\PSoC4/cyfitter_cfg.c **** 			{0xBBu, 0x08u},
ARM GAS  C:\Users\Petro\AppData\Local\Temp\ccVjA1WP.s 			page 15


 403:.\Generated_Source\PSoC4/cyfitter_cfg.c **** 			{0xBFu, 0x10u},
 404:.\Generated_Source\PSoC4/cyfitter_cfg.c **** 			{0xC0u, 0x03u},
 405:.\Generated_Source\PSoC4/cyfitter_cfg.c **** 			{0xC5u, 0x40u},
 406:.\Generated_Source\PSoC4/cyfitter_cfg.c **** 			{0xC9u, 0xFFu},
 407:.\Generated_Source\PSoC4/cyfitter_cfg.c **** 			{0xCAu, 0x07u},
 408:.\Generated_Source\PSoC4/cyfitter_cfg.c **** 			{0xCBu, 0xFFu},
 409:.\Generated_Source\PSoC4/cyfitter_cfg.c **** 			{0xCCu, 0x40u},
 410:.\Generated_Source\PSoC4/cyfitter_cfg.c **** 			{0xCDu, 0x20u},
 411:.\Generated_Source\PSoC4/cyfitter_cfg.c **** 			{0xCEu, 0xF0u},
 412:.\Generated_Source\PSoC4/cyfitter_cfg.c **** 			{0xCFu, 0x05u},
 413:.\Generated_Source\PSoC4/cyfitter_cfg.c **** 			{0xD0u, 0x08u},
 414:.\Generated_Source\PSoC4/cyfitter_cfg.c **** 			{0xD8u, 0x04u},
 415:.\Generated_Source\PSoC4/cyfitter_cfg.c **** 			{0xD9u, 0x04u},
 416:.\Generated_Source\PSoC4/cyfitter_cfg.c **** 			{0xDAu, 0x04u},
 417:.\Generated_Source\PSoC4/cyfitter_cfg.c **** 			{0xDFu, 0x01u},
 418:.\Generated_Source\PSoC4/cyfitter_cfg.c **** 			{0xE0u, 0x40u},
 419:.\Generated_Source\PSoC4/cyfitter_cfg.c **** 			{0xE1u, 0xA8u},
 420:.\Generated_Source\PSoC4/cyfitter_cfg.c **** 			{0xE2u, 0x40u},
 421:.\Generated_Source\PSoC4/cyfitter_cfg.c **** 			{0xE3u, 0x20u},
 422:.\Generated_Source\PSoC4/cyfitter_cfg.c **** 			{0x00u, 0xA0u},
 423:.\Generated_Source\PSoC4/cyfitter_cfg.c **** 			{0x01u, 0x09u},
 424:.\Generated_Source\PSoC4/cyfitter_cfg.c **** 			{0x04u, 0x04u},
 425:.\Generated_Source\PSoC4/cyfitter_cfg.c **** 			{0x05u, 0x22u},
 426:.\Generated_Source\PSoC4/cyfitter_cfg.c **** 			{0x07u, 0x01u},
 427:.\Generated_Source\PSoC4/cyfitter_cfg.c **** 			{0x08u, 0x10u},
 428:.\Generated_Source\PSoC4/cyfitter_cfg.c **** 			{0x0Au, 0x80u},
 429:.\Generated_Source\PSoC4/cyfitter_cfg.c **** 			{0x0Bu, 0x28u},
 430:.\Generated_Source\PSoC4/cyfitter_cfg.c **** 			{0x0Du, 0xC0u},
 431:.\Generated_Source\PSoC4/cyfitter_cfg.c **** 			{0x0Fu, 0x20u},
 432:.\Generated_Source\PSoC4/cyfitter_cfg.c **** 			{0x10u, 0x81u},
 433:.\Generated_Source\PSoC4/cyfitter_cfg.c **** 			{0x11u, 0x18u},
 434:.\Generated_Source\PSoC4/cyfitter_cfg.c **** 			{0x15u, 0x08u},
 435:.\Generated_Source\PSoC4/cyfitter_cfg.c **** 			{0x17u, 0x20u},
 436:.\Generated_Source\PSoC4/cyfitter_cfg.c **** 			{0x19u, 0x28u},
 437:.\Generated_Source\PSoC4/cyfitter_cfg.c **** 			{0x1Au, 0x44u},
 438:.\Generated_Source\PSoC4/cyfitter_cfg.c **** 			{0x1Cu, 0x04u},
 439:.\Generated_Source\PSoC4/cyfitter_cfg.c **** 			{0x1Du, 0x80u},
 440:.\Generated_Source\PSoC4/cyfitter_cfg.c **** 			{0x1Fu, 0x30u},
 441:.\Generated_Source\PSoC4/cyfitter_cfg.c **** 			{0x20u, 0x12u},
 442:.\Generated_Source\PSoC4/cyfitter_cfg.c **** 			{0x21u, 0x01u},
 443:.\Generated_Source\PSoC4/cyfitter_cfg.c **** 			{0x22u, 0x02u},
 444:.\Generated_Source\PSoC4/cyfitter_cfg.c **** 			{0x25u, 0x04u},
 445:.\Generated_Source\PSoC4/cyfitter_cfg.c **** 			{0x27u, 0x29u},
 446:.\Generated_Source\PSoC4/cyfitter_cfg.c **** 			{0x29u, 0x08u},
 447:.\Generated_Source\PSoC4/cyfitter_cfg.c **** 			{0x2Au, 0x80u},
 448:.\Generated_Source\PSoC4/cyfitter_cfg.c **** 			{0x2Du, 0x02u},
 449:.\Generated_Source\PSoC4/cyfitter_cfg.c **** 			{0x2Eu, 0x20u},
 450:.\Generated_Source\PSoC4/cyfitter_cfg.c **** 			{0x2Fu, 0x20u},
 451:.\Generated_Source\PSoC4/cyfitter_cfg.c **** 			{0x33u, 0x10u},
 452:.\Generated_Source\PSoC4/cyfitter_cfg.c **** 			{0x34u, 0x01u},
 453:.\Generated_Source\PSoC4/cyfitter_cfg.c **** 			{0x35u, 0x20u},
 454:.\Generated_Source\PSoC4/cyfitter_cfg.c **** 			{0x37u, 0x01u},
 455:.\Generated_Source\PSoC4/cyfitter_cfg.c **** 			{0x39u, 0x53u},
 456:.\Generated_Source\PSoC4/cyfitter_cfg.c **** 			{0x3Du, 0x08u},
 457:.\Generated_Source\PSoC4/cyfitter_cfg.c **** 			{0x42u, 0x24u},
 458:.\Generated_Source\PSoC4/cyfitter_cfg.c **** 			{0x47u, 0x08u},
 459:.\Generated_Source\PSoC4/cyfitter_cfg.c **** 			{0x49u, 0x01u},
ARM GAS  C:\Users\Petro\AppData\Local\Temp\ccVjA1WP.s 			page 16


 460:.\Generated_Source\PSoC4/cyfitter_cfg.c **** 			{0x4Bu, 0x29u},
 461:.\Generated_Source\PSoC4/cyfitter_cfg.c **** 			{0x4Du, 0x02u},
 462:.\Generated_Source\PSoC4/cyfitter_cfg.c **** 			{0x51u, 0x04u},
 463:.\Generated_Source\PSoC4/cyfitter_cfg.c **** 			{0x54u, 0x10u},
 464:.\Generated_Source\PSoC4/cyfitter_cfg.c **** 			{0x56u, 0x20u},
 465:.\Generated_Source\PSoC4/cyfitter_cfg.c **** 			{0x57u, 0x10u},
 466:.\Generated_Source\PSoC4/cyfitter_cfg.c **** 			{0x58u, 0x10u},
 467:.\Generated_Source\PSoC4/cyfitter_cfg.c **** 			{0x59u, 0x01u},
 468:.\Generated_Source\PSoC4/cyfitter_cfg.c **** 			{0x5Au, 0x40u},
 469:.\Generated_Source\PSoC4/cyfitter_cfg.c **** 			{0x5Bu, 0x04u},
 470:.\Generated_Source\PSoC4/cyfitter_cfg.c **** 			{0x89u, 0x08u},
 471:.\Generated_Source\PSoC4/cyfitter_cfg.c **** 			{0x8Au, 0x02u},
 472:.\Generated_Source\PSoC4/cyfitter_cfg.c **** 			{0xC0u, 0xFFu},
 473:.\Generated_Source\PSoC4/cyfitter_cfg.c **** 			{0xC2u, 0xAEu},
 474:.\Generated_Source\PSoC4/cyfitter_cfg.c **** 			{0xC4u, 0x6Fu},
 475:.\Generated_Source\PSoC4/cyfitter_cfg.c **** 			{0xCAu, 0xEAu},
 476:.\Generated_Source\PSoC4/cyfitter_cfg.c **** 			{0xCCu, 0xA4u},
 477:.\Generated_Source\PSoC4/cyfitter_cfg.c **** 			{0xCEu, 0x4Du},
 478:.\Generated_Source\PSoC4/cyfitter_cfg.c **** 			{0xD0u, 0x46u},
 479:.\Generated_Source\PSoC4/cyfitter_cfg.c **** 			{0xD2u, 0x04u},
 480:.\Generated_Source\PSoC4/cyfitter_cfg.c **** 			{0xD6u, 0x0Fu},
 481:.\Generated_Source\PSoC4/cyfitter_cfg.c **** 			{0x01u, 0x01u},
 482:.\Generated_Source\PSoC4/cyfitter_cfg.c **** 			{0x02u, 0x04u},
 483:.\Generated_Source\PSoC4/cyfitter_cfg.c **** 			{0x0Eu, 0x02u},
 484:.\Generated_Source\PSoC4/cyfitter_cfg.c **** 			{0x12u, 0x02u},
 485:.\Generated_Source\PSoC4/cyfitter_cfg.c **** 			{0x1Au, 0x01u},
 486:.\Generated_Source\PSoC4/cyfitter_cfg.c **** 			{0x1Eu, 0x01u},
 487:.\Generated_Source\PSoC4/cyfitter_cfg.c **** 			{0x2Cu, 0x08u},
 488:.\Generated_Source\PSoC4/cyfitter_cfg.c **** 			{0x30u, 0x01u},
 489:.\Generated_Source\PSoC4/cyfitter_cfg.c **** 			{0x32u, 0x02u},
 490:.\Generated_Source\PSoC4/cyfitter_cfg.c **** 			{0x34u, 0x04u},
 491:.\Generated_Source\PSoC4/cyfitter_cfg.c **** 			{0x35u, 0x01u},
 492:.\Generated_Source\PSoC4/cyfitter_cfg.c **** 			{0x36u, 0x08u},
 493:.\Generated_Source\PSoC4/cyfitter_cfg.c **** 			{0x3Eu, 0x45u},
 494:.\Generated_Source\PSoC4/cyfitter_cfg.c **** 			{0x3Fu, 0x10u},
 495:.\Generated_Source\PSoC4/cyfitter_cfg.c **** 			{0x54u, 0x18u},
 496:.\Generated_Source\PSoC4/cyfitter_cfg.c **** 			{0x56u, 0x04u},
 497:.\Generated_Source\PSoC4/cyfitter_cfg.c **** 			{0x58u, 0x04u},
 498:.\Generated_Source\PSoC4/cyfitter_cfg.c **** 			{0x59u, 0x04u},
 499:.\Generated_Source\PSoC4/cyfitter_cfg.c **** 			{0x5Bu, 0x04u},
 500:.\Generated_Source\PSoC4/cyfitter_cfg.c **** 			{0x5Fu, 0x01u},
 501:.\Generated_Source\PSoC4/cyfitter_cfg.c **** 			{0x00u, 0x80u},
 502:.\Generated_Source\PSoC4/cyfitter_cfg.c **** 			{0x01u, 0x08u},
 503:.\Generated_Source\PSoC4/cyfitter_cfg.c **** 			{0x03u, 0x48u},
 504:.\Generated_Source\PSoC4/cyfitter_cfg.c **** 			{0x06u, 0x80u},
 505:.\Generated_Source\PSoC4/cyfitter_cfg.c **** 			{0x07u, 0x02u},
 506:.\Generated_Source\PSoC4/cyfitter_cfg.c **** 			{0x09u, 0x80u},
 507:.\Generated_Source\PSoC4/cyfitter_cfg.c **** 			{0x0Au, 0x26u},
 508:.\Generated_Source\PSoC4/cyfitter_cfg.c **** 			{0x0Bu, 0x40u},
 509:.\Generated_Source\PSoC4/cyfitter_cfg.c **** 			{0x0Du, 0x11u},
 510:.\Generated_Source\PSoC4/cyfitter_cfg.c **** 			{0x0Eu, 0x01u},
 511:.\Generated_Source\PSoC4/cyfitter_cfg.c **** 			{0x12u, 0x03u},
 512:.\Generated_Source\PSoC4/cyfitter_cfg.c **** 			{0x13u, 0x28u},
 513:.\Generated_Source\PSoC4/cyfitter_cfg.c **** 			{0x15u, 0x80u},
 514:.\Generated_Source\PSoC4/cyfitter_cfg.c **** 			{0x19u, 0x01u},
 515:.\Generated_Source\PSoC4/cyfitter_cfg.c **** 			{0x1Au, 0x0Du},
 516:.\Generated_Source\PSoC4/cyfitter_cfg.c **** 			{0x1Bu, 0x08u},
ARM GAS  C:\Users\Petro\AppData\Local\Temp\ccVjA1WP.s 			page 17


 517:.\Generated_Source\PSoC4/cyfitter_cfg.c **** 			{0x1Cu, 0x04u},
 518:.\Generated_Source\PSoC4/cyfitter_cfg.c **** 			{0x1Fu, 0x85u},
 519:.\Generated_Source\PSoC4/cyfitter_cfg.c **** 			{0x20u, 0x08u},
 520:.\Generated_Source\PSoC4/cyfitter_cfg.c **** 			{0x22u, 0x18u},
 521:.\Generated_Source\PSoC4/cyfitter_cfg.c **** 			{0x23u, 0x42u},
 522:.\Generated_Source\PSoC4/cyfitter_cfg.c **** 			{0x27u, 0x04u},
 523:.\Generated_Source\PSoC4/cyfitter_cfg.c **** 			{0x2Au, 0x89u},
 524:.\Generated_Source\PSoC4/cyfitter_cfg.c **** 			{0x2Bu, 0x08u},
 525:.\Generated_Source\PSoC4/cyfitter_cfg.c **** 			{0x31u, 0x10u},
 526:.\Generated_Source\PSoC4/cyfitter_cfg.c **** 			{0x32u, 0x05u},
 527:.\Generated_Source\PSoC4/cyfitter_cfg.c **** 			{0x33u, 0x40u},
 528:.\Generated_Source\PSoC4/cyfitter_cfg.c **** 			{0x38u, 0x04u},
 529:.\Generated_Source\PSoC4/cyfitter_cfg.c **** 			{0x3Au, 0x22u},
 530:.\Generated_Source\PSoC4/cyfitter_cfg.c **** 			{0x3Bu, 0x40u},
 531:.\Generated_Source\PSoC4/cyfitter_cfg.c **** 			{0x3Cu, 0x08u},
 532:.\Generated_Source\PSoC4/cyfitter_cfg.c **** 			{0x3Eu, 0x08u},
 533:.\Generated_Source\PSoC4/cyfitter_cfg.c **** 			{0x3Fu, 0x01u},
 534:.\Generated_Source\PSoC4/cyfitter_cfg.c **** 			{0x40u, 0x10u},
 535:.\Generated_Source\PSoC4/cyfitter_cfg.c **** 			{0x42u, 0x05u},
 536:.\Generated_Source\PSoC4/cyfitter_cfg.c **** 			{0x48u, 0x05u},
 537:.\Generated_Source\PSoC4/cyfitter_cfg.c **** 			{0x51u, 0x11u},
 538:.\Generated_Source\PSoC4/cyfitter_cfg.c **** 			{0x59u, 0x01u},
 539:.\Generated_Source\PSoC4/cyfitter_cfg.c **** 			{0x5Du, 0x01u},
 540:.\Generated_Source\PSoC4/cyfitter_cfg.c **** 			{0x64u, 0x80u},
 541:.\Generated_Source\PSoC4/cyfitter_cfg.c **** 			{0x67u, 0x0Au},
 542:.\Generated_Source\PSoC4/cyfitter_cfg.c **** 			{0x69u, 0x50u},
 543:.\Generated_Source\PSoC4/cyfitter_cfg.c **** 			{0x6Bu, 0x10u},
 544:.\Generated_Source\PSoC4/cyfitter_cfg.c **** 			{0x71u, 0x90u},
 545:.\Generated_Source\PSoC4/cyfitter_cfg.c **** 			{0x72u, 0x20u},
 546:.\Generated_Source\PSoC4/cyfitter_cfg.c **** 			{0x73u, 0x28u},
 547:.\Generated_Source\PSoC4/cyfitter_cfg.c **** 			{0x80u, 0x80u},
 548:.\Generated_Source\PSoC4/cyfitter_cfg.c **** 			{0x83u, 0x80u},
 549:.\Generated_Source\PSoC4/cyfitter_cfg.c **** 			{0x84u, 0x40u},
 550:.\Generated_Source\PSoC4/cyfitter_cfg.c **** 			{0x86u, 0x80u},
 551:.\Generated_Source\PSoC4/cyfitter_cfg.c **** 			{0x89u, 0x01u},
 552:.\Generated_Source\PSoC4/cyfitter_cfg.c **** 			{0x8Au, 0x08u},
 553:.\Generated_Source\PSoC4/cyfitter_cfg.c **** 			{0x8Cu, 0x10u},
 554:.\Generated_Source\PSoC4/cyfitter_cfg.c **** 			{0x8Fu, 0x40u},
 555:.\Generated_Source\PSoC4/cyfitter_cfg.c **** 			{0x90u, 0x10u},
 556:.\Generated_Source\PSoC4/cyfitter_cfg.c **** 			{0x91u, 0x80u},
 557:.\Generated_Source\PSoC4/cyfitter_cfg.c **** 			{0x93u, 0x01u},
 558:.\Generated_Source\PSoC4/cyfitter_cfg.c **** 			{0x95u, 0x50u},
 559:.\Generated_Source\PSoC4/cyfitter_cfg.c **** 			{0x99u, 0x08u},
 560:.\Generated_Source\PSoC4/cyfitter_cfg.c **** 			{0x9Au, 0x02u},
 561:.\Generated_Source\PSoC4/cyfitter_cfg.c **** 			{0x9Eu, 0x80u},
 562:.\Generated_Source\PSoC4/cyfitter_cfg.c **** 			{0x9Fu, 0x14u},
 563:.\Generated_Source\PSoC4/cyfitter_cfg.c **** 			{0xA0u, 0x01u},
 564:.\Generated_Source\PSoC4/cyfitter_cfg.c **** 			{0xA2u, 0x02u},
 565:.\Generated_Source\PSoC4/cyfitter_cfg.c **** 			{0xA4u, 0x40u},
 566:.\Generated_Source\PSoC4/cyfitter_cfg.c **** 			{0xA9u, 0x20u},
 567:.\Generated_Source\PSoC4/cyfitter_cfg.c **** 			{0xAAu, 0x40u},
 568:.\Generated_Source\PSoC4/cyfitter_cfg.c **** 			{0xB4u, 0x80u},
 569:.\Generated_Source\PSoC4/cyfitter_cfg.c **** 			{0xB7u, 0x10u},
 570:.\Generated_Source\PSoC4/cyfitter_cfg.c **** 			{0xC0u, 0x9Fu},
 571:.\Generated_Source\PSoC4/cyfitter_cfg.c **** 			{0xC2u, 0xDFu},
 572:.\Generated_Source\PSoC4/cyfitter_cfg.c **** 			{0xC4u, 0x87u},
 573:.\Generated_Source\PSoC4/cyfitter_cfg.c **** 			{0xCAu, 0x0Fu},
ARM GAS  C:\Users\Petro\AppData\Local\Temp\ccVjA1WP.s 			page 18


 574:.\Generated_Source\PSoC4/cyfitter_cfg.c **** 			{0xCCu, 0x0Fu},
 575:.\Generated_Source\PSoC4/cyfitter_cfg.c **** 			{0xCEu, 0x8Fu},
 576:.\Generated_Source\PSoC4/cyfitter_cfg.c **** 			{0xD0u, 0x0Eu},
 577:.\Generated_Source\PSoC4/cyfitter_cfg.c **** 			{0xD2u, 0x0Cu},
 578:.\Generated_Source\PSoC4/cyfitter_cfg.c **** 			{0xD6u, 0x81u},
 579:.\Generated_Source\PSoC4/cyfitter_cfg.c **** 			{0xD8u, 0xB0u},
 580:.\Generated_Source\PSoC4/cyfitter_cfg.c **** 			{0xEEu, 0x08u},
 581:.\Generated_Source\PSoC4/cyfitter_cfg.c **** 			{0x03u, 0x80u},
 582:.\Generated_Source\PSoC4/cyfitter_cfg.c **** 			{0x0Bu, 0x04u},
 583:.\Generated_Source\PSoC4/cyfitter_cfg.c **** 			{0x67u, 0x02u},
 584:.\Generated_Source\PSoC4/cyfitter_cfg.c **** 			{0x6Bu, 0x40u},
 585:.\Generated_Source\PSoC4/cyfitter_cfg.c **** 			{0x6Fu, 0xA0u},
 586:.\Generated_Source\PSoC4/cyfitter_cfg.c **** 			{0x83u, 0x41u},
 587:.\Generated_Source\PSoC4/cyfitter_cfg.c **** 			{0x87u, 0x04u},
 588:.\Generated_Source\PSoC4/cyfitter_cfg.c **** 			{0xA3u, 0x20u},
 589:.\Generated_Source\PSoC4/cyfitter_cfg.c **** 			{0xAFu, 0x20u},
 590:.\Generated_Source\PSoC4/cyfitter_cfg.c **** 			{0xC0u, 0x10u},
 591:.\Generated_Source\PSoC4/cyfitter_cfg.c **** 			{0xC2u, 0x40u},
 592:.\Generated_Source\PSoC4/cyfitter_cfg.c **** 			{0xD6u, 0x80u},
 593:.\Generated_Source\PSoC4/cyfitter_cfg.c **** 			{0xDAu, 0x80u},
 594:.\Generated_Source\PSoC4/cyfitter_cfg.c **** 			{0xDCu, 0x60u},
 595:.\Generated_Source\PSoC4/cyfitter_cfg.c **** 			{0xE0u, 0x40u},
 596:.\Generated_Source\PSoC4/cyfitter_cfg.c **** 			{0xE6u, 0xA0u},
 597:.\Generated_Source\PSoC4/cyfitter_cfg.c **** 			{0xEEu, 0x10u},
 598:.\Generated_Source\PSoC4/cyfitter_cfg.c **** 			{0x0Fu, 0x02u},
 599:.\Generated_Source\PSoC4/cyfitter_cfg.c **** 			{0xC2u, 0x01u},
 600:.\Generated_Source\PSoC4/cyfitter_cfg.c **** 			{0xAFu, 0x01u},
 601:.\Generated_Source\PSoC4/cyfitter_cfg.c **** 			{0x10u, 0x01u},
 602:.\Generated_Source\PSoC4/cyfitter_cfg.c **** 			{0x11u, 0x01u},
 603:.\Generated_Source\PSoC4/cyfitter_cfg.c **** 		};
 604:.\Generated_Source\PSoC4/cyfitter_cfg.c **** 
 605:.\Generated_Source\PSoC4/cyfitter_cfg.c **** 
 606:.\Generated_Source\PSoC4/cyfitter_cfg.c **** 
 607:.\Generated_Source\PSoC4/cyfitter_cfg.c **** 		CYPACKED typedef struct {
 608:.\Generated_Source\PSoC4/cyfitter_cfg.c **** 			void CYFAR *address;
 609:.\Generated_Source\PSoC4/cyfitter_cfg.c **** 			uint16 size;
 610:.\Generated_Source\PSoC4/cyfitter_cfg.c **** 		} CYPACKED_ATTR cfg_memset_t;
 611:.\Generated_Source\PSoC4/cyfitter_cfg.c **** 
 612:.\Generated_Source\PSoC4/cyfitter_cfg.c **** 
 613:.\Generated_Source\PSoC4/cyfitter_cfg.c **** 		CYPACKED typedef struct {
 614:.\Generated_Source\PSoC4/cyfitter_cfg.c **** 			void CYFAR *dest;
 615:.\Generated_Source\PSoC4/cyfitter_cfg.c **** 			const void CYCODE *src;
 616:.\Generated_Source\PSoC4/cyfitter_cfg.c **** 			uint16 size;
 617:.\Generated_Source\PSoC4/cyfitter_cfg.c **** 		} CYPACKED_ATTR cfg_memcpy_t;
 618:.\Generated_Source\PSoC4/cyfitter_cfg.c **** 
 619:.\Generated_Source\PSoC4/cyfitter_cfg.c **** 		static const cfg_memset_t CYCODE cfg_memset_list [] = {
 620:.\Generated_Source\PSoC4/cyfitter_cfg.c **** 			/* address, size */
 621:.\Generated_Source\PSoC4/cyfitter_cfg.c **** 			{(void CYFAR *)(CYDEV_UDB_P0_U0_BASE), 640u},
 622:.\Generated_Source\PSoC4/cyfitter_cfg.c **** 			{(void CYFAR *)(CYDEV_UDB_P1_ROUTE_BASE), 256u},
 623:.\Generated_Source\PSoC4/cyfitter_cfg.c **** 			{(void CYFAR *)(CYDEV_UDB_DSI0_BASE), 1024u},
 624:.\Generated_Source\PSoC4/cyfitter_cfg.c **** 		};
 625:.\Generated_Source\PSoC4/cyfitter_cfg.c **** 
 626:.\Generated_Source\PSoC4/cyfitter_cfg.c **** 		/* UDB_0_0_0_CONFIG Address: CYDEV_UDB_P1_U1_BASE Size (bytes): 128 */
 627:.\Generated_Source\PSoC4/cyfitter_cfg.c **** 		static const uint8 CYCODE BS_UDB_0_0_0_CONFIG_VAL[] = {
 628:.\Generated_Source\PSoC4/cyfitter_cfg.c **** 			0x00u, 0x60u, 0x33u, 0x00u, 0x03u, 0x00u, 0x00u, 0x04u, 0x4Fu, 0x18u, 0x30u, 0x00u, 0x01u, 0x1Cu
 629:.\Generated_Source\PSoC4/cyfitter_cfg.c **** 			0x5Cu, 0x10u, 0x23u, 0x00u, 0x7Fu, 0xE7u, 0x00u, 0x18u, 0x73u, 0x08u, 0x0Cu, 0x00u, 0x08u, 0x00u
 630:.\Generated_Source\PSoC4/cyfitter_cfg.c **** 			0x00u, 0x40u, 0x00u, 0x00u, 0x04u, 0xFFu, 0x00u, 0x00u, 0x0Cu, 0x1Cu, 0x00u, 0xE1u, 0x02u, 0x24u
ARM GAS  C:\Users\Petro\AppData\Local\Temp\ccVjA1WP.s 			page 19


 631:.\Generated_Source\PSoC4/cyfitter_cfg.c **** 			0x40u, 0x1Fu, 0x2Cu, 0x60u, 0x0Fu, 0x00u, 0x1Cu, 0x80u, 0x00u, 0x80u, 0x28u, 0x22u, 0x00u, 0x00u
 632:.\Generated_Source\PSoC4/cyfitter_cfg.c **** 			0x23u, 0x06u, 0x01u, 0x00u, 0x05u, 0x00u, 0xC0u, 0xE0u, 0x28u, 0xFFu, 0xFFu, 0xFFu, 0x62u, 0xA0u
 633:.\Generated_Source\PSoC4/cyfitter_cfg.c **** 			0x0Cu, 0x00u, 0x00u, 0x00u, 0x00u, 0x00u, 0x02u, 0x13u, 0x04u, 0x04u, 0x04u, 0x04u, 0x00u, 0x00u
 634:.\Generated_Source\PSoC4/cyfitter_cfg.c **** 			0x00u, 0x00u, 0x00u, 0x00u, 0x00u, 0x00u, 0x40u, 0x02u, 0x00u, 0x10u, 0x30u, 0x10u, 0x00u, 0x10u
 635:.\Generated_Source\PSoC4/cyfitter_cfg.c **** 			0x00u, 0x00u, 0x00u, 0x00u, 0x00u, 0x00u, 0x00u, 0x00u, 0x00u, 0x00u, 0x00u, 0x00u, 0x00u, 0x00u
 636:.\Generated_Source\PSoC4/cyfitter_cfg.c **** 
 637:.\Generated_Source\PSoC4/cyfitter_cfg.c **** 		static const cfg_memcpy_t CYCODE cfg_memcpy_list [] = {
 638:.\Generated_Source\PSoC4/cyfitter_cfg.c **** 			/* dest, src, size */
 639:.\Generated_Source\PSoC4/cyfitter_cfg.c **** 			{(void CYFAR *)(CYDEV_UDB_P1_U1_BASE), BS_UDB_0_0_0_CONFIG_VAL, 128u},
 640:.\Generated_Source\PSoC4/cyfitter_cfg.c **** 		};
 641:.\Generated_Source\PSoC4/cyfitter_cfg.c **** 
 642:.\Generated_Source\PSoC4/cyfitter_cfg.c **** 		uint8 CYDATA i;
 643:.\Generated_Source\PSoC4/cyfitter_cfg.c **** 
 644:.\Generated_Source\PSoC4/cyfitter_cfg.c **** 		/* Zero out critical memory blocks before beginning configuration */
 645:.\Generated_Source\PSoC4/cyfitter_cfg.c **** 		for (i = 0u; i < (sizeof(cfg_memset_list)/sizeof(cfg_memset_list[0])); i++)
 360              		.loc 1 645 0
 361 0118 0024     		mov	r4, #0
 362 011a 10E0     		b	.L15
 363              	.LVL26:
 364              	.L16:
 365              	.LBB4:
 646:.\Generated_Source\PSoC4/cyfitter_cfg.c **** 		{
 647:.\Generated_Source\PSoC4/cyfitter_cfg.c **** 			const cfg_memset_t CYCODE * CYDATA ms = &cfg_memset_list[i];
 648:.\Generated_Source\PSoC4/cyfitter_cfg.c **** 			CYMEMZERO(ms->address, (size_t)(uint32)(ms->size));
 366              		.loc 1 648 0 discriminator 3
 367 011c 3F48     		ldr	r0, .L19+8
 368 011e 6300     		lsl	r3, r4, #1
 369 0120 1A19     		add	r2, r3, r4
 370 0122 5200     		lsl	r2, r2, #1
 371 0124 8218     		add	r2, r0, r2
 372 0126 9188     		ldrh	r1, [r2, #4]
 373 0128 1B19     		add	r3, r3, r4
 374 012a 5B00     		lsl	r3, r3, #1
 375 012c 1A5A     		ldrh	r2, [r3, r0]
 376 012e C318     		add	r3, r0, r3
 377 0130 5888     		ldrh	r0, [r3, #2]
 378 0132 0004     		lsl	r0, r0, #16
 379 0134 1043     		orr	r0, r2
 380 0136 FFF7FEFF 		bl	CYMEMZERO
 381              	.LVL27:
 382              	.LBE4:
 645:.\Generated_Source\PSoC4/cyfitter_cfg.c **** 		{
 383              		.loc 1 645 0 discriminator 3
 384 013a 0134     		add	r4, r4, #1
 385              	.LVL28:
 386 013c E4B2     		uxtb	r4, r4
 387              	.LVL29:
 388              	.L15:
 645:.\Generated_Source\PSoC4/cyfitter_cfg.c **** 		{
 389              		.loc 1 645 0 is_stmt 0 discriminator 1
 390 013e 022C     		cmp	r4, #2
 391 0140 ECD9     		bls	.L16
 392 0142 0024     		mov	r4, #0
 393              	.LVL30:
 394 0144 12E0     		b	.L17
 395              	.LVL31:
 396              	.L18:
ARM GAS  C:\Users\Petro\AppData\Local\Temp\ccVjA1WP.s 			page 20


 397              	.LBB5:
 649:.\Generated_Source\PSoC4/cyfitter_cfg.c **** 		}
 650:.\Generated_Source\PSoC4/cyfitter_cfg.c **** 
 651:.\Generated_Source\PSoC4/cyfitter_cfg.c **** 		/* Copy device configuration data into registers */
 652:.\Generated_Source\PSoC4/cyfitter_cfg.c **** 		for (i = 0u; i < (sizeof(cfg_memcpy_list)/sizeof(cfg_memcpy_list[0])); i++)
 653:.\Generated_Source\PSoC4/cyfitter_cfg.c **** 		{
 654:.\Generated_Source\PSoC4/cyfitter_cfg.c **** 			const cfg_memcpy_t CYCODE * CYDATA mc = &cfg_memcpy_list[i];
 655:.\Generated_Source\PSoC4/cyfitter_cfg.c **** 			void * CYDATA destPtr = mc->dest;
 398              		.loc 1 655 0 is_stmt 1 discriminator 3
 399 0146 354D     		ldr	r5, .L19+8
 400 0148 A300     		lsl	r3, r4, #2
 401 014a 1A19     		add	r2, r3, r4
 402 014c 5200     		lsl	r2, r2, #1
 403 014e AA18     		add	r2, r5, r2
 404 0150 918A     		ldrh	r1, [r2, #20]
 405 0152 D08A     		ldrh	r0, [r2, #22]
 406 0154 0004     		lsl	r0, r0, #16
 407 0156 0843     		orr	r0, r1
 408              	.LVL32:
 656:.\Generated_Source\PSoC4/cyfitter_cfg.c **** 			const void CYCODE * CYDATA srcPtr = mc->src;
 409              		.loc 1 656 0 discriminator 3
 410 0158 131C     		mov	r3, r2
 411 015a 128B     		ldrh	r2, [r2, #24]
 412 015c 598B     		ldrh	r1, [r3, #26]
 413 015e 0904     		lsl	r1, r1, #16
 414 0160 1143     		orr	r1, r2
 415              	.LVL33:
 657:.\Generated_Source\PSoC4/cyfitter_cfg.c **** 			uint16 CYDATA numBytes = mc->size;
 658:.\Generated_Source\PSoC4/cyfitter_cfg.c **** 			CYCONFIGCPYCODE(destPtr, srcPtr, numBytes);
 416              		.loc 1 658 0 discriminator 3
 417 0162 8022     		mov	r2, #128
 418 0164 FFF7FEFF 		bl	CYCONFIGCPYCODE
 419              	.LVL34:
 420              	.LBE5:
 652:.\Generated_Source\PSoC4/cyfitter_cfg.c **** 		{
 421              		.loc 1 652 0 discriminator 3
 422 0168 0134     		add	r4, r4, #1
 423              	.LVL35:
 424 016a E4B2     		uxtb	r4, r4
 425              	.LVL36:
 426              	.L17:
 652:.\Generated_Source\PSoC4/cyfitter_cfg.c **** 		{
 427              		.loc 1 652 0 is_stmt 0 discriminator 1
 428 016c 002C     		cmp	r4, #0
 429 016e EAD0     		beq	.L18
 659:.\Generated_Source\PSoC4/cyfitter_cfg.c **** 		}
 660:.\Generated_Source\PSoC4/cyfitter_cfg.c **** 
 661:.\Generated_Source\PSoC4/cyfitter_cfg.c **** 		cfg_write_bytes32(cy_cfg_addr_table, cy_cfg_data_table);
 430              		.loc 1 661 0 is_stmt 1
 431 0170 2A49     		ldr	r1, .L19+8
 432 0172 081C     		mov	r0, r1
 433 0174 2030     		add	r0, r0, #32
 434 0176 4431     		add	r1, r1, #68
 435 0178 FFF7FEFF 		bl	cfg_write_bytes32
 436              	.LVL37:
 662:.\Generated_Source\PSoC4/cyfitter_cfg.c **** 
 663:.\Generated_Source\PSoC4/cyfitter_cfg.c **** 		/* Perform normal device configuration. Order is not critical for these items. */
ARM GAS  C:\Users\Petro\AppData\Local\Temp\ccVjA1WP.s 			page 21


 664:.\Generated_Source\PSoC4/cyfitter_cfg.c **** 		CY_SET_XTND_REG16((void CYFAR *)(CYREG_UDB_BCTL0_DRV), 0x0100u);
 437              		.loc 1 664 0
 438 017c 8022     		mov	r2, #128
 439 017e 5200     		lsl	r2, r2, #1
 440 0180 274B     		ldr	r3, .L19+12
 441 0182 1A80     		strh	r2, [r3]
 665:.\Generated_Source\PSoC4/cyfitter_cfg.c **** 		CY_SET_XTND_REG8((void CYFAR *)(CYREG_UDB_BCTL0_DRV + 0x2u), 0x01u);
 442              		.loc 1 665 0
 443 0184 FF3A     		sub	r2, r2, #255
 444 0186 274B     		ldr	r3, .L19+16
 445 0188 1A70     		strb	r2, [r3]
 666:.\Generated_Source\PSoC4/cyfitter_cfg.c **** 
 667:.\Generated_Source\PSoC4/cyfitter_cfg.c **** 		/* HSIOM Starting address: CYDEV_HSIOM_BASE */
 668:.\Generated_Source\PSoC4/cyfitter_cfg.c **** 		CY_SET_XTND_REG32((void CYFAR *)(CYREG_HSIOM_PORT_SEL1), 0x00300000u);
 446              		.loc 1 668 0
 447 018a C022     		mov	r2, #192
 448 018c 9203     		lsl	r2, r2, #14
 449 018e 264B     		ldr	r3, .L19+20
 450 0190 1A60     		str	r2, [r3]
 669:.\Generated_Source\PSoC4/cyfitter_cfg.c **** 
 670:.\Generated_Source\PSoC4/cyfitter_cfg.c **** 		/* FORCED_HSIOM Starting address: CYDEV_HSIOM_PORT_SEL0 */
 671:.\Generated_Source\PSoC4/cyfitter_cfg.c **** 		CY_SET_XTND_REG32((void CYFAR *)(CYREG_HSIOM_PORT_SEL0), 0x00000000u);
 451              		.loc 1 671 0
 452 0192 0023     		mov	r3, #0
 453 0194 254A     		ldr	r2, .L19+24
 454 0196 1360     		str	r3, [r2]
 672:.\Generated_Source\PSoC4/cyfitter_cfg.c **** 
 673:.\Generated_Source\PSoC4/cyfitter_cfg.c **** 		/* IOPINS0_0 Starting address: CYDEV_GPIO_PRT0_PC */
 674:.\Generated_Source\PSoC4/cyfitter_cfg.c **** 		CY_SET_XTND_REG32((void CYFAR *)(CYREG_GPIO_PRT0_PC), 0x00000000u);
 455              		.loc 1 674 0
 456 0198 254A     		ldr	r2, .L19+28
 457 019a 1360     		str	r3, [r2]
 675:.\Generated_Source\PSoC4/cyfitter_cfg.c **** 
 676:.\Generated_Source\PSoC4/cyfitter_cfg.c **** 		/* UDB_PA_1 Starting address: CYDEV_UDB_PA1_BASE */
 677:.\Generated_Source\PSoC4/cyfitter_cfg.c **** 		CY_SET_XTND_REG32((void CYFAR *)(CYDEV_UDB_PA1_BASE), 0x00990004u);
 458              		.loc 1 677 0
 459 019c 254A     		ldr	r2, .L19+32
 460 019e 264B     		ldr	r3, .L19+36
 461 01a0 1A60     		str	r2, [r3]
 678:.\Generated_Source\PSoC4/cyfitter_cfg.c **** 		CY_SET_XTND_REG32((void CYFAR *)(CYREG_UDB_PA1_CFG4), 0x20000000u);
 462              		.loc 1 678 0
 463 01a2 8022     		mov	r2, #128
 464 01a4 9205     		lsl	r2, r2, #22
 465 01a6 254B     		ldr	r3, .L19+40
 466 01a8 1A60     		str	r2, [r3]
 679:.\Generated_Source\PSoC4/cyfitter_cfg.c **** 		CY_SET_XTND_REG32((void CYFAR *)(CYREG_UDB_PA1_CFG8), 0x04000000u);
 467              		.loc 1 679 0
 468 01aa 8022     		mov	r2, #128
 469 01ac D204     		lsl	r2, r2, #19
 470 01ae 244B     		ldr	r3, .L19+44
 471 01b0 1A60     		str	r2, [r3]
 680:.\Generated_Source\PSoC4/cyfitter_cfg.c **** 
 681:.\Generated_Source\PSoC4/cyfitter_cfg.c **** 		/* UDB_PA_2 Starting address: CYDEV_UDB_PA2_BASE */
 682:.\Generated_Source\PSoC4/cyfitter_cfg.c **** 		CY_SET_XTND_REG32((void CYFAR *)(CYDEV_UDB_PA2_BASE), 0x00990000u);
 472              		.loc 1 682 0
 473 01b2 9923     		mov	r3, #153
 474 01b4 1B04     		lsl	r3, r3, #16
ARM GAS  C:\Users\Petro\AppData\Local\Temp\ccVjA1WP.s 			page 22


 475 01b6 234A     		ldr	r2, .L19+48
 476 01b8 1360     		str	r3, [r2]
 683:.\Generated_Source\PSoC4/cyfitter_cfg.c **** 
 684:.\Generated_Source\PSoC4/cyfitter_cfg.c **** 		/* UDB_PA_3 Starting address: CYDEV_UDB_PA3_BASE */
 685:.\Generated_Source\PSoC4/cyfitter_cfg.c **** 		CY_SET_XTND_REG32((void CYFAR *)(CYDEV_UDB_PA3_BASE), 0x00990000u);
 477              		.loc 1 685 0
 478 01ba 234A     		ldr	r2, .L19+52
 479 01bc 1360     		str	r3, [r2]
 686:.\Generated_Source\PSoC4/cyfitter_cfg.c **** 
 687:.\Generated_Source\PSoC4/cyfitter_cfg.c **** 		/* INT_SELECT Starting address: CYDEV_CPUSS_INT_SEL */
 688:.\Generated_Source\PSoC4/cyfitter_cfg.c **** 		CY_SET_XTND_REG32((void CYFAR *)(CYREG_CPUSS_INT_SEL), 0x0000000Eu);
 480              		.loc 1 688 0
 481 01be 0E23     		mov	r3, #14
 482 01c0 224A     		ldr	r2, .L19+56
 483 01c2 1360     		str	r3, [r2]
 689:.\Generated_Source\PSoC4/cyfitter_cfg.c **** 
 690:.\Generated_Source\PSoC4/cyfitter_cfg.c **** 		/* INT_CONFIG Starting address: CYDEV_UDB_INT_CFG */
 691:.\Generated_Source\PSoC4/cyfitter_cfg.c **** 		CY_SET_XTND_REG32((void CYFAR *)(CYREG_UDB_INT_CFG), 0x0000000Eu);
 484              		.loc 1 691 0
 485 01c4 224A     		ldr	r2, .L19+60
 486 01c6 1360     		str	r3, [r2]
 692:.\Generated_Source\PSoC4/cyfitter_cfg.c **** 
 693:.\Generated_Source\PSoC4/cyfitter_cfg.c **** 		/* Enable digital routing */
 694:.\Generated_Source\PSoC4/cyfitter_cfg.c **** 		CY_SET_XTND_REG8((void *)CYREG_UDB_UDBIF_BANK_CTL, CY_GET_XTND_REG8((void *)CYREG_UDB_UDBIF_BANK_
 487              		.loc 1 694 0
 488 01c8 224B     		ldr	r3, .L19+64
 489 01ca 1978     		ldrb	r1, [r3]
 490 01cc 0222     		mov	r2, #2
 491 01ce 0A43     		orr	r2, r1
 492 01d0 1A70     		strb	r2, [r3]
 695:.\Generated_Source\PSoC4/cyfitter_cfg.c **** 
 696:.\Generated_Source\PSoC4/cyfitter_cfg.c **** 		/* Enable UDB array */
 697:.\Generated_Source\PSoC4/cyfitter_cfg.c **** 		CY_SET_XTND_REG8((void *)CYREG_UDB_UDBIF_WAIT_CFG, (uint8)((CY_GET_XTND_REG8((void *)CYREG_UDB_UD
 493              		.loc 1 697 0
 494 01d2 2148     		ldr	r0, .L19+68
 495 01d4 0278     		ldrb	r2, [r0]
 496 01d6 3C21     		mov	r1, #60
 497 01d8 8A43     		bic	r2, r1
 498 01da 2839     		sub	r1, r1, #40
 499 01dc 0A43     		orr	r2, r1
 500 01de 0270     		strb	r2, [r0]
 698:.\Generated_Source\PSoC4/cyfitter_cfg.c **** 		CY_SET_XTND_REG8((void *)CYREG_UDB_UDBIF_BANK_CTL, (uint8)(CY_GET_XTND_REG8((void *)CYREG_UDB_UDB
 501              		.loc 1 698 0
 502 01e0 1978     		ldrb	r1, [r3]
 503 01e2 1622     		mov	r2, #22
 504 01e4 0A43     		orr	r2, r1
 505 01e6 1A70     		strb	r2, [r3]
 506              	.LBE3:
 699:.\Generated_Source\PSoC4/cyfitter_cfg.c **** 	}
 700:.\Generated_Source\PSoC4/cyfitter_cfg.c **** 
 701:.\Generated_Source\PSoC4/cyfitter_cfg.c **** 	/* Perform second pass device configuration. These items must be configured in specific order afte
 702:.\Generated_Source\PSoC4/cyfitter_cfg.c **** 	/* IOPINS0_1 Starting address: CYDEV_GPIO_PRT1_BASE */
 703:.\Generated_Source\PSoC4/cyfitter_cfg.c **** 	CY_SET_XTND_REG32((void CYFAR *)(CYDEV_GPIO_PRT1_BASE), 0x00000020u);
 507              		.loc 1 703 0
 508 01e8 2022     		mov	r2, #32
 509 01ea 1C4B     		ldr	r3, .L19+72
 510 01ec 1A60     		str	r2, [r3]
ARM GAS  C:\Users\Petro\AppData\Local\Temp\ccVjA1WP.s 			page 23


 704:.\Generated_Source\PSoC4/cyfitter_cfg.c **** 	CY_SET_XTND_REG32((void CYFAR *)(CYREG_GPIO_PRT1_PC), 0x00070003u);
 511              		.loc 1 704 0
 512 01ee 1C4A     		ldr	r2, .L19+76
 513 01f0 1C4B     		ldr	r3, .L19+80
 514 01f2 1A60     		str	r2, [r3]
 705:.\Generated_Source\PSoC4/cyfitter_cfg.c **** 
 706:.\Generated_Source\PSoC4/cyfitter_cfg.c **** 	/* IOPINS0_2 Starting address: CYDEV_GPIO_PRT2_BASE */
 707:.\Generated_Source\PSoC4/cyfitter_cfg.c **** 	CY_SET_XTND_REG32((void CYFAR *)(CYDEV_GPIO_PRT2_BASE), 0x000000C0u);
 515              		.loc 1 707 0
 516 01f4 C022     		mov	r2, #192
 517 01f6 1C4B     		ldr	r3, .L19+84
 518 01f8 1A60     		str	r2, [r3]
 708:.\Generated_Source\PSoC4/cyfitter_cfg.c **** 	CY_SET_XTND_REG32((void CYFAR *)(CYREG_GPIO_PRT2_PC), 0x00480000u);
 519              		.loc 1 708 0
 520 01fa 9023     		mov	r3, #144
 521 01fc DB03     		lsl	r3, r3, #15
 522 01fe 1B49     		ldr	r1, .L19+88
 523 0200 0B60     		str	r3, [r1]
 709:.\Generated_Source\PSoC4/cyfitter_cfg.c **** 
 710:.\Generated_Source\PSoC4/cyfitter_cfg.c **** 	/* IOPINS0_3 Starting address: CYDEV_GPIO_PRT3_BASE */
 711:.\Generated_Source\PSoC4/cyfitter_cfg.c **** 	CY_SET_XTND_REG32((void CYFAR *)(CYDEV_GPIO_PRT3_BASE), 0x000000C0u);
 524              		.loc 1 711 0
 525 0202 1B49     		ldr	r1, .L19+92
 526 0204 0A60     		str	r2, [r1]
 712:.\Generated_Source\PSoC4/cyfitter_cfg.c **** 	CY_SET_XTND_REG32((void CYFAR *)(CYREG_GPIO_PRT3_PC), 0x00480000u);
 527              		.loc 1 712 0
 528 0206 1B4A     		ldr	r2, .L19+96
 529 0208 1360     		str	r3, [r2]
 713:.\Generated_Source\PSoC4/cyfitter_cfg.c **** 
 714:.\Generated_Source\PSoC4/cyfitter_cfg.c **** 
 715:.\Generated_Source\PSoC4/cyfitter_cfg.c **** 	/* Setup clocks based on selections from Clock DWR */
 716:.\Generated_Source\PSoC4/cyfitter_cfg.c **** 	ClockSetup();
 530              		.loc 1 716 0
 531 020a FFF7F9FE 		bl	ClockSetup
 532              	.LVL38:
 717:.\Generated_Source\PSoC4/cyfitter_cfg.c **** 
 718:.\Generated_Source\PSoC4/cyfitter_cfg.c **** 	/* Perform basic analog initialization to defaults */
 719:.\Generated_Source\PSoC4/cyfitter_cfg.c **** 	AnalogSetDefault();
 533              		.loc 1 719 0
 534 020e FFF7FEFF 		bl	AnalogSetDefault
 535              	.LVL39:
 720:.\Generated_Source\PSoC4/cyfitter_cfg.c **** 
 721:.\Generated_Source\PSoC4/cyfitter_cfg.c **** }
 536              		.loc 1 721 0
 537              		@ sp needed
 538              	.LVL40:
 539 0212 38BD     		pop	{r3, r4, r5, pc}
 540              	.L20:
 541              		.align	2
 542              	.L19:
 543 0214 6CF02E40 		.word	1076818028
 544 0218 1C700F40 		.word	1074753564
 545 021c 00000000 		.word	.LANCHOR0
 546 0220 00600F40 		.word	1074749440
 547 0224 02600F40 		.word	1074749442
 548 0228 00010240 		.word	1073873152
 549 022c 00000240 		.word	1073872896
ARM GAS  C:\Users\Petro\AppData\Local\Temp\ccVjA1WP.s 			page 24


 550 0230 08000440 		.word	1074003976
 551 0234 04009900 		.word	10027012
 552 0238 10500F40 		.word	1074745360
 553 023c 14500F40 		.word	1074745364
 554 0240 18500F40 		.word	1074745368
 555 0244 20500F40 		.word	1074745376
 556 0248 30500F40 		.word	1074745392
 557 024c 20001040 		.word	1074790432
 558 0250 00800F40 		.word	1074757632
 559 0254 00700F40 		.word	1074753536
 560 0258 01700F40 		.word	1074753537
 561 025c 00010440 		.word	1074004224
 562 0260 03000700 		.word	458755
 563 0264 08010440 		.word	1074004232
 564 0268 00020440 		.word	1074004480
 565 026c 08020440 		.word	1074004488
 566 0270 00030440 		.word	1074004736
 567 0274 08030440 		.word	1074004744
 568              		.cfi_endproc
 569              	.LFE8:
 570              		.size	cyfitter_cfg, .-cyfitter_cfg
 571              		.section	.rodata
 572              		.align	2
 573              		.set	.LANCHOR0,. + 0
 574              		.type	cfg_memset_list.4770, %object
 575              		.size	cfg_memset_list.4770, 18
 576              	cfg_memset_list.4770:
 577 0000 00300F40 		.word	1074737152
 578 0004 8002     		.short	640
 579 0006 00330F40 		.4byte	1074737920
 580 000a 0001     		.short	256
 581 000c 00400F40 		.word	1074741248
 582 0010 0004     		.short	1024
 583 0012 0000     		.space	2
 584              		.type	cfg_memcpy_list.4772, %object
 585              		.size	cfg_memcpy_list.4772, 10
 586              	cfg_memcpy_list.4772:
 587 0014 80320F40 		.word	1074737792
 588 0018 88020000 		.word	BS_UDB_0_0_0_CONFIG_VAL.4771
 589 001c 8000     		.short	128
 590 001e 0000     		.space	2
 591              		.type	cy_cfg_addr_table.4759, %object
 592              		.size	cy_cfg_addr_table.4759, 36
 593              	cy_cfg_addr_table.4759:
 594 0020 03000F40 		.word	1074724867
 595 0024 69300F40 		.word	1074737257
 596 0028 3B310F40 		.word	1074737467
 597 002c 14320F40 		.word	1074737684
 598 0030 50330F40 		.word	1074738000
 599 0034 11410F40 		.word	1074741521
 600 0038 02420F40 		.word	1074741762
 601 003c 01430F40 		.word	1074742017
 602 0040 02600F40 		.word	1074749442
 603              		.type	cy_cfg_data_table.4760, %object
 604              		.size	cy_cfg_data_table.4760, 578
 605              	cy_cfg_data_table.4760:
 606 0044 80       		.byte	-128
ARM GAS  C:\Users\Petro\AppData\Local\Temp\ccVjA1WP.s 			page 25


 607 0045 0F       		.byte	15
 608 0046 82       		.byte	-126
 609 0047 38       		.byte	56
 610 0048 83       		.byte	-125
 611 0049 72       		.byte	114
 612 004a 00       		.byte	0
 613 004b 80       		.byte	-128
 614 004c 01       		.byte	1
 615 004d 02       		.byte	2
 616 004e 02       		.byte	2
 617 004f 20       		.byte	32
 618 0050 03       		.byte	3
 619 0051 09       		.byte	9
 620 0052 04       		.byte	4
 621 0053 20       		.byte	32
 622 0054 06       		.byte	6
 623 0055 C0       		.byte	-64
 624 0056 09       		.byte	9
 625 0057 13       		.byte	19
 626 0058 0A       		.byte	10
 627 0059 15       		.byte	21
 628 005a 0C       		.byte	12
 629 005b 40       		.byte	64
 630 005c 0D       		.byte	13
 631 005d 10       		.byte	16
 632 005e 0E       		.byte	14
 633 005f 20       		.byte	32
 634 0060 10       		.byte	16
 635 0061 13       		.byte	19
 636 0062 12       		.byte	18
 637 0063 0C       		.byte	12
 638 0064 14       		.byte	20
 639 0065 13       		.byte	19
 640 0066 16       		.byte	22
 641 0067 04       		.byte	4
 642 0068 18       		.byte	24
 643 0069 03       		.byte	3
 644 006a 19       		.byte	25
 645 006b 13       		.byte	19
 646 006c 1A       		.byte	26
 647 006d 14       		.byte	20
 648 006e 20       		.byte	32
 649 006f E0       		.byte	-32
 650 0070 24       		.byte	36
 651 0071 0A       		.byte	10
 652 0072 26       		.byte	38
 653 0073 14       		.byte	20
 654 0074 27       		.byte	39
 655 0075 04       		.byte	4
 656 0076 28       		.byte	40
 657 0077 E0       		.byte	-32
 658 0078 2D       		.byte	45
 659 0079 01       		.byte	1
 660 007a 2E       		.byte	46
 661 007b 08       		.byte	8
 662 007c 2F       		.byte	47
 663 007d 0A       		.byte	10
ARM GAS  C:\Users\Petro\AppData\Local\Temp\ccVjA1WP.s 			page 26


 664 007e 30       		.byte	48
 665 007f 10       		.byte	16
 666 0080 31       		.byte	49
 667 0081 03       		.byte	3
 668 0082 32       		.byte	50
 669 0083 E0       		.byte	-32
 670 0084 33       		.byte	51
 671 0085 10       		.byte	16
 672 0086 34       		.byte	52
 673 0087 0F       		.byte	15
 674 0088 37       		.byte	55
 675 0089 0C       		.byte	12
 676 008a 3A       		.byte	58
 677 008b 20       		.byte	32
 678 008c 3E       		.byte	62
 679 008d 01       		.byte	1
 680 008e 3F       		.byte	63
 681 008f 40       		.byte	64
 682 0090 40       		.byte	64
 683 0091 23       		.byte	35
 684 0092 41       		.byte	65
 685 0093 06       		.byte	6
 686 0094 45       		.byte	69
 687 0095 EC       		.byte	-20
 688 0096 47       		.byte	71
 689 0097 0B       		.byte	11
 690 0098 48       		.byte	72
 691 0099 13       		.byte	19
 692 009a 49       		.byte	73
 693 009b FF       		.byte	-1
 694 009c 4A       		.byte	74
 695 009d FF       		.byte	-1
 696 009e 4B       		.byte	75
 697 009f FF       		.byte	-1
 698 00a0 4E       		.byte	78
 699 00a1 F0       		.byte	-16
 700 00a2 4F       		.byte	79
 701 00a3 44       		.byte	68
 702 00a4 50       		.byte	80
 703 00a5 0C       		.byte	12
 704 00a6 54       		.byte	84
 705 00a7 01       		.byte	1
 706 00a8 58       		.byte	88
 707 00a9 04       		.byte	4
 708 00aa 59       		.byte	89
 709 00ab 04       		.byte	4
 710 00ac 5A       		.byte	90
 711 00ad 04       		.byte	4
 712 00ae 5B       		.byte	91
 713 00af 04       		.byte	4
 714 00b0 5F       		.byte	95
 715 00b1 01       		.byte	1
 716 00b2 66       		.byte	102
 717 00b3 C0       		.byte	-64
 718 00b4 6A       		.byte	106
 719 00b5 40       		.byte	64
 720 00b6 6B       		.byte	107
ARM GAS  C:\Users\Petro\AppData\Local\Temp\ccVjA1WP.s 			page 27


 721 00b7 02       		.byte	2
 722 00b8 80       		.byte	-128
 723 00b9 10       		.byte	16
 724 00ba 82       		.byte	-126
 725 00bb 40       		.byte	64
 726 00bc 84       		.byte	-124
 727 00bd 0C       		.byte	12
 728 00be 85       		.byte	-123
 729 00bf 2C       		.byte	44
 730 00c0 86       		.byte	-122
 731 00c1 71       		.byte	113
 732 00c2 87       		.byte	-121
 733 00c3 43       		.byte	67
 734 00c4 88       		.byte	-120
 735 00c5 10       		.byte	16
 736 00c6 8A       		.byte	-118
 737 00c7 AC       		.byte	-84
 738 00c8 8C       		.byte	-116
 739 00c9 09       		.byte	9
 740 00ca 8E       		.byte	-114
 741 00cb D0       		.byte	-48
 742 00cc 93       		.byte	-109
 743 00cd 0C       		.byte	12
 744 00ce 96       		.byte	-106
 745 00cf 20       		.byte	32
 746 00d0 99       		.byte	-103
 747 00d1 71       		.byte	113
 748 00d2 9B       		.byte	-101
 749 00d3 06       		.byte	6
 750 00d4 9E       		.byte	-98
 751 00d5 03       		.byte	3
 752 00d6 A3       		.byte	-93
 753 00d7 08       		.byte	8
 754 00d8 A4       		.byte	-92
 755 00d9 14       		.byte	20
 756 00da A5       		.byte	-91
 757 00db 71       		.byte	113
 758 00dc A7       		.byte	-89
 759 00dd 0E       		.byte	14
 760 00de A8       		.byte	-88
 761 00df DC       		.byte	-36
 762 00e0 A9       		.byte	-87
 763 00e1 80       		.byte	-128
 764 00e2 AA       		.byte	-86
 765 00e3 22       		.byte	34
 766 00e4 AB       		.byte	-85
 767 00e5 13       		.byte	19
 768 00e6 B3       		.byte	-77
 769 00e7 0F       		.byte	15
 770 00e8 B4       		.byte	-76
 771 00e9 E0       		.byte	-32
 772 00ea B5       		.byte	-75
 773 00eb 30       		.byte	48
 774 00ec B6       		.byte	-74
 775 00ed 1F       		.byte	31
 776 00ee B7       		.byte	-73
 777 00ef C0       		.byte	-64
ARM GAS  C:\Users\Petro\AppData\Local\Temp\ccVjA1WP.s 			page 28


 778 00f0 B9       		.byte	-71
 779 00f1 A0       		.byte	-96
 780 00f2 BA       		.byte	-70
 781 00f3 20       		.byte	32
 782 00f4 BB       		.byte	-69
 783 00f5 08       		.byte	8
 784 00f6 BF       		.byte	-65
 785 00f7 10       		.byte	16
 786 00f8 C0       		.byte	-64
 787 00f9 03       		.byte	3
 788 00fa C5       		.byte	-59
 789 00fb 40       		.byte	64
 790 00fc C9       		.byte	-55
 791 00fd FF       		.byte	-1
 792 00fe CA       		.byte	-54
 793 00ff 07       		.byte	7
 794 0100 CB       		.byte	-53
 795 0101 FF       		.byte	-1
 796 0102 CC       		.byte	-52
 797 0103 40       		.byte	64
 798 0104 CD       		.byte	-51
 799 0105 20       		.byte	32
 800 0106 CE       		.byte	-50
 801 0107 F0       		.byte	-16
 802 0108 CF       		.byte	-49
 803 0109 05       		.byte	5
 804 010a D0       		.byte	-48
 805 010b 08       		.byte	8
 806 010c D8       		.byte	-40
 807 010d 04       		.byte	4
 808 010e D9       		.byte	-39
 809 010f 04       		.byte	4
 810 0110 DA       		.byte	-38
 811 0111 04       		.byte	4
 812 0112 DF       		.byte	-33
 813 0113 01       		.byte	1
 814 0114 E0       		.byte	-32
 815 0115 40       		.byte	64
 816 0116 E1       		.byte	-31
 817 0117 A8       		.byte	-88
 818 0118 E2       		.byte	-30
 819 0119 40       		.byte	64
 820 011a E3       		.byte	-29
 821 011b 20       		.byte	32
 822 011c 00       		.byte	0
 823 011d A0       		.byte	-96
 824 011e 01       		.byte	1
 825 011f 09       		.byte	9
 826 0120 04       		.byte	4
 827 0121 04       		.byte	4
 828 0122 05       		.byte	5
 829 0123 22       		.byte	34
 830 0124 07       		.byte	7
 831 0125 01       		.byte	1
 832 0126 08       		.byte	8
 833 0127 10       		.byte	16
 834 0128 0A       		.byte	10
ARM GAS  C:\Users\Petro\AppData\Local\Temp\ccVjA1WP.s 			page 29


 835 0129 80       		.byte	-128
 836 012a 0B       		.byte	11
 837 012b 28       		.byte	40
 838 012c 0D       		.byte	13
 839 012d C0       		.byte	-64
 840 012e 0F       		.byte	15
 841 012f 20       		.byte	32
 842 0130 10       		.byte	16
 843 0131 81       		.byte	-127
 844 0132 11       		.byte	17
 845 0133 18       		.byte	24
 846 0134 15       		.byte	21
 847 0135 08       		.byte	8
 848 0136 17       		.byte	23
 849 0137 20       		.byte	32
 850 0138 19       		.byte	25
 851 0139 28       		.byte	40
 852 013a 1A       		.byte	26
 853 013b 44       		.byte	68
 854 013c 1C       		.byte	28
 855 013d 04       		.byte	4
 856 013e 1D       		.byte	29
 857 013f 80       		.byte	-128
 858 0140 1F       		.byte	31
 859 0141 30       		.byte	48
 860 0142 20       		.byte	32
 861 0143 12       		.byte	18
 862 0144 21       		.byte	33
 863 0145 01       		.byte	1
 864 0146 22       		.byte	34
 865 0147 02       		.byte	2
 866 0148 25       		.byte	37
 867 0149 04       		.byte	4
 868 014a 27       		.byte	39
 869 014b 29       		.byte	41
 870 014c 29       		.byte	41
 871 014d 08       		.byte	8
 872 014e 2A       		.byte	42
 873 014f 80       		.byte	-128
 874 0150 2D       		.byte	45
 875 0151 02       		.byte	2
 876 0152 2E       		.byte	46
 877 0153 20       		.byte	32
 878 0154 2F       		.byte	47
 879 0155 20       		.byte	32
 880 0156 33       		.byte	51
 881 0157 10       		.byte	16
 882 0158 34       		.byte	52
 883 0159 01       		.byte	1
 884 015a 35       		.byte	53
 885 015b 20       		.byte	32
 886 015c 37       		.byte	55
 887 015d 01       		.byte	1
 888 015e 39       		.byte	57
 889 015f 53       		.byte	83
 890 0160 3D       		.byte	61
 891 0161 08       		.byte	8
ARM GAS  C:\Users\Petro\AppData\Local\Temp\ccVjA1WP.s 			page 30


 892 0162 42       		.byte	66
 893 0163 24       		.byte	36
 894 0164 47       		.byte	71
 895 0165 08       		.byte	8
 896 0166 49       		.byte	73
 897 0167 01       		.byte	1
 898 0168 4B       		.byte	75
 899 0169 29       		.byte	41
 900 016a 4D       		.byte	77
 901 016b 02       		.byte	2
 902 016c 51       		.byte	81
 903 016d 04       		.byte	4
 904 016e 54       		.byte	84
 905 016f 10       		.byte	16
 906 0170 56       		.byte	86
 907 0171 20       		.byte	32
 908 0172 57       		.byte	87
 909 0173 10       		.byte	16
 910 0174 58       		.byte	88
 911 0175 10       		.byte	16
 912 0176 59       		.byte	89
 913 0177 01       		.byte	1
 914 0178 5A       		.byte	90
 915 0179 40       		.byte	64
 916 017a 5B       		.byte	91
 917 017b 04       		.byte	4
 918 017c 89       		.byte	-119
 919 017d 08       		.byte	8
 920 017e 8A       		.byte	-118
 921 017f 02       		.byte	2
 922 0180 C0       		.byte	-64
 923 0181 FF       		.byte	-1
 924 0182 C2       		.byte	-62
 925 0183 AE       		.byte	-82
 926 0184 C4       		.byte	-60
 927 0185 6F       		.byte	111
 928 0186 CA       		.byte	-54
 929 0187 EA       		.byte	-22
 930 0188 CC       		.byte	-52
 931 0189 A4       		.byte	-92
 932 018a CE       		.byte	-50
 933 018b 4D       		.byte	77
 934 018c D0       		.byte	-48
 935 018d 46       		.byte	70
 936 018e D2       		.byte	-46
 937 018f 04       		.byte	4
 938 0190 D6       		.byte	-42
 939 0191 0F       		.byte	15
 940 0192 01       		.byte	1
 941 0193 01       		.byte	1
 942 0194 02       		.byte	2
 943 0195 04       		.byte	4
 944 0196 0E       		.byte	14
 945 0197 02       		.byte	2
 946 0198 12       		.byte	18
 947 0199 02       		.byte	2
 948 019a 1A       		.byte	26
ARM GAS  C:\Users\Petro\AppData\Local\Temp\ccVjA1WP.s 			page 31


 949 019b 01       		.byte	1
 950 019c 1E       		.byte	30
 951 019d 01       		.byte	1
 952 019e 2C       		.byte	44
 953 019f 08       		.byte	8
 954 01a0 30       		.byte	48
 955 01a1 01       		.byte	1
 956 01a2 32       		.byte	50
 957 01a3 02       		.byte	2
 958 01a4 34       		.byte	52
 959 01a5 04       		.byte	4
 960 01a6 35       		.byte	53
 961 01a7 01       		.byte	1
 962 01a8 36       		.byte	54
 963 01a9 08       		.byte	8
 964 01aa 3E       		.byte	62
 965 01ab 45       		.byte	69
 966 01ac 3F       		.byte	63
 967 01ad 10       		.byte	16
 968 01ae 54       		.byte	84
 969 01af 18       		.byte	24
 970 01b0 56       		.byte	86
 971 01b1 04       		.byte	4
 972 01b2 58       		.byte	88
 973 01b3 04       		.byte	4
 974 01b4 59       		.byte	89
 975 01b5 04       		.byte	4
 976 01b6 5B       		.byte	91
 977 01b7 04       		.byte	4
 978 01b8 5F       		.byte	95
 979 01b9 01       		.byte	1
 980 01ba 00       		.byte	0
 981 01bb 80       		.byte	-128
 982 01bc 01       		.byte	1
 983 01bd 08       		.byte	8
 984 01be 03       		.byte	3
 985 01bf 48       		.byte	72
 986 01c0 06       		.byte	6
 987 01c1 80       		.byte	-128
 988 01c2 07       		.byte	7
 989 01c3 02       		.byte	2
 990 01c4 09       		.byte	9
 991 01c5 80       		.byte	-128
 992 01c6 0A       		.byte	10
 993 01c7 26       		.byte	38
 994 01c8 0B       		.byte	11
 995 01c9 40       		.byte	64
 996 01ca 0D       		.byte	13
 997 01cb 11       		.byte	17
 998 01cc 0E       		.byte	14
 999 01cd 01       		.byte	1
 1000 01ce 12       		.byte	18
 1001 01cf 03       		.byte	3
 1002 01d0 13       		.byte	19
 1003 01d1 28       		.byte	40
 1004 01d2 15       		.byte	21
 1005 01d3 80       		.byte	-128
ARM GAS  C:\Users\Petro\AppData\Local\Temp\ccVjA1WP.s 			page 32


 1006 01d4 19       		.byte	25
 1007 01d5 01       		.byte	1
 1008 01d6 1A       		.byte	26
 1009 01d7 0D       		.byte	13
 1010 01d8 1B       		.byte	27
 1011 01d9 08       		.byte	8
 1012 01da 1C       		.byte	28
 1013 01db 04       		.byte	4
 1014 01dc 1F       		.byte	31
 1015 01dd 85       		.byte	-123
 1016 01de 20       		.byte	32
 1017 01df 08       		.byte	8
 1018 01e0 22       		.byte	34
 1019 01e1 18       		.byte	24
 1020 01e2 23       		.byte	35
 1021 01e3 42       		.byte	66
 1022 01e4 27       		.byte	39
 1023 01e5 04       		.byte	4
 1024 01e6 2A       		.byte	42
 1025 01e7 89       		.byte	-119
 1026 01e8 2B       		.byte	43
 1027 01e9 08       		.byte	8
 1028 01ea 31       		.byte	49
 1029 01eb 10       		.byte	16
 1030 01ec 32       		.byte	50
 1031 01ed 05       		.byte	5
 1032 01ee 33       		.byte	51
 1033 01ef 40       		.byte	64
 1034 01f0 38       		.byte	56
 1035 01f1 04       		.byte	4
 1036 01f2 3A       		.byte	58
 1037 01f3 22       		.byte	34
 1038 01f4 3B       		.byte	59
 1039 01f5 40       		.byte	64
 1040 01f6 3C       		.byte	60
 1041 01f7 08       		.byte	8
 1042 01f8 3E       		.byte	62
 1043 01f9 08       		.byte	8
 1044 01fa 3F       		.byte	63
 1045 01fb 01       		.byte	1
 1046 01fc 40       		.byte	64
 1047 01fd 10       		.byte	16
 1048 01fe 42       		.byte	66
 1049 01ff 05       		.byte	5
 1050 0200 48       		.byte	72
 1051 0201 05       		.byte	5
 1052 0202 51       		.byte	81
 1053 0203 11       		.byte	17
 1054 0204 59       		.byte	89
 1055 0205 01       		.byte	1
 1056 0206 5D       		.byte	93
 1057 0207 01       		.byte	1
 1058 0208 64       		.byte	100
 1059 0209 80       		.byte	-128
 1060 020a 67       		.byte	103
 1061 020b 0A       		.byte	10
 1062 020c 69       		.byte	105
ARM GAS  C:\Users\Petro\AppData\Local\Temp\ccVjA1WP.s 			page 33


 1063 020d 50       		.byte	80
 1064 020e 6B       		.byte	107
 1065 020f 10       		.byte	16
 1066 0210 71       		.byte	113
 1067 0211 90       		.byte	-112
 1068 0212 72       		.byte	114
 1069 0213 20       		.byte	32
 1070 0214 73       		.byte	115
 1071 0215 28       		.byte	40
 1072 0216 80       		.byte	-128
 1073 0217 80       		.byte	-128
 1074 0218 83       		.byte	-125
 1075 0219 80       		.byte	-128
 1076 021a 84       		.byte	-124
 1077 021b 40       		.byte	64
 1078 021c 86       		.byte	-122
 1079 021d 80       		.byte	-128
 1080 021e 89       		.byte	-119
 1081 021f 01       		.byte	1
 1082 0220 8A       		.byte	-118
 1083 0221 08       		.byte	8
 1084 0222 8C       		.byte	-116
 1085 0223 10       		.byte	16
 1086 0224 8F       		.byte	-113
 1087 0225 40       		.byte	64
 1088 0226 90       		.byte	-112
 1089 0227 10       		.byte	16
 1090 0228 91       		.byte	-111
 1091 0229 80       		.byte	-128
 1092 022a 93       		.byte	-109
 1093 022b 01       		.byte	1
 1094 022c 95       		.byte	-107
 1095 022d 50       		.byte	80
 1096 022e 99       		.byte	-103
 1097 022f 08       		.byte	8
 1098 0230 9A       		.byte	-102
 1099 0231 02       		.byte	2
 1100 0232 9E       		.byte	-98
 1101 0233 80       		.byte	-128
 1102 0234 9F       		.byte	-97
 1103 0235 14       		.byte	20
 1104 0236 A0       		.byte	-96
 1105 0237 01       		.byte	1
 1106 0238 A2       		.byte	-94
 1107 0239 02       		.byte	2
 1108 023a A4       		.byte	-92
 1109 023b 40       		.byte	64
 1110 023c A9       		.byte	-87
 1111 023d 20       		.byte	32
 1112 023e AA       		.byte	-86
 1113 023f 40       		.byte	64
 1114 0240 B4       		.byte	-76
 1115 0241 80       		.byte	-128
 1116 0242 B7       		.byte	-73
 1117 0243 10       		.byte	16
 1118 0244 C0       		.byte	-64
 1119 0245 9F       		.byte	-97
ARM GAS  C:\Users\Petro\AppData\Local\Temp\ccVjA1WP.s 			page 34


 1120 0246 C2       		.byte	-62
 1121 0247 DF       		.byte	-33
 1122 0248 C4       		.byte	-60
 1123 0249 87       		.byte	-121
 1124 024a CA       		.byte	-54
 1125 024b 0F       		.byte	15
 1126 024c CC       		.byte	-52
 1127 024d 0F       		.byte	15
 1128 024e CE       		.byte	-50
 1129 024f 8F       		.byte	-113
 1130 0250 D0       		.byte	-48
 1131 0251 0E       		.byte	14
 1132 0252 D2       		.byte	-46
 1133 0253 0C       		.byte	12
 1134 0254 D6       		.byte	-42
 1135 0255 81       		.byte	-127
 1136 0256 D8       		.byte	-40
 1137 0257 B0       		.byte	-80
 1138 0258 EE       		.byte	-18
 1139 0259 08       		.byte	8
 1140 025a 03       		.byte	3
 1141 025b 80       		.byte	-128
 1142 025c 0B       		.byte	11
 1143 025d 04       		.byte	4
 1144 025e 67       		.byte	103
 1145 025f 02       		.byte	2
 1146 0260 6B       		.byte	107
 1147 0261 40       		.byte	64
 1148 0262 6F       		.byte	111
 1149 0263 A0       		.byte	-96
 1150 0264 83       		.byte	-125
 1151 0265 41       		.byte	65
 1152 0266 87       		.byte	-121
 1153 0267 04       		.byte	4
 1154 0268 A3       		.byte	-93
 1155 0269 20       		.byte	32
 1156 026a AF       		.byte	-81
 1157 026b 20       		.byte	32
 1158 026c C0       		.byte	-64
 1159 026d 10       		.byte	16
 1160 026e C2       		.byte	-62
 1161 026f 40       		.byte	64
 1162 0270 D6       		.byte	-42
 1163 0271 80       		.byte	-128
 1164 0272 DA       		.byte	-38
 1165 0273 80       		.byte	-128
 1166 0274 DC       		.byte	-36
 1167 0275 60       		.byte	96
 1168 0276 E0       		.byte	-32
 1169 0277 40       		.byte	64
 1170 0278 E6       		.byte	-26
 1171 0279 A0       		.byte	-96
 1172 027a EE       		.byte	-18
 1173 027b 10       		.byte	16
 1174 027c 0F       		.byte	15
 1175 027d 02       		.byte	2
 1176 027e C2       		.byte	-62
ARM GAS  C:\Users\Petro\AppData\Local\Temp\ccVjA1WP.s 			page 35


 1177 027f 01       		.byte	1
 1178 0280 AF       		.byte	-81
 1179 0281 01       		.byte	1
 1180 0282 10       		.byte	16
 1181 0283 01       		.byte	1
 1182 0284 11       		.byte	17
 1183 0285 01       		.byte	1
 1184 0286 0000     		.space	2
 1185              		.type	BS_UDB_0_0_0_CONFIG_VAL.4771, %object
 1186              		.size	BS_UDB_0_0_0_CONFIG_VAL.4771, 128
 1187              	BS_UDB_0_0_0_CONFIG_VAL.4771:
 1188 0288 00       		.byte	0
 1189 0289 60       		.byte	96
 1190 028a 33       		.byte	51
 1191 028b 00       		.byte	0
 1192 028c 03       		.byte	3
 1193 028d 00       		.byte	0
 1194 028e 00       		.byte	0
 1195 028f 04       		.byte	4
 1196 0290 4F       		.byte	79
 1197 0291 18       		.byte	24
 1198 0292 30       		.byte	48
 1199 0293 00       		.byte	0
 1200 0294 01       		.byte	1
 1201 0295 1C       		.byte	28
 1202 0296 00       		.byte	0
 1203 0297 E2       		.byte	-30
 1204 0298 5C       		.byte	92
 1205 0299 10       		.byte	16
 1206 029a 23       		.byte	35
 1207 029b 00       		.byte	0
 1208 029c 7F       		.byte	127
 1209 029d E7       		.byte	-25
 1210 029e 00       		.byte	0
 1211 029f 18       		.byte	24
 1212 02a0 73       		.byte	115
 1213 02a1 08       		.byte	8
 1214 02a2 0C       		.byte	12
 1215 02a3 00       		.byte	0
 1216 02a4 08       		.byte	8
 1217 02a5 00       		.byte	0
 1218 02a6 00       		.byte	0
 1219 02a7 63       		.byte	99
 1220 02a8 00       		.byte	0
 1221 02a9 40       		.byte	64
 1222 02aa 00       		.byte	0
 1223 02ab 00       		.byte	0
 1224 02ac 04       		.byte	4
 1225 02ad FF       		.byte	-1
 1226 02ae 00       		.byte	0
 1227 02af 00       		.byte	0
 1228 02b0 0C       		.byte	12
 1229 02b1 1C       		.byte	28
 1230 02b2 00       		.byte	0
 1231 02b3 E1       		.byte	-31
 1232 02b4 02       		.byte	2
 1233 02b5 24       		.byte	36
ARM GAS  C:\Users\Petro\AppData\Local\Temp\ccVjA1WP.s 			page 36


 1234 02b6 00       		.byte	0
 1235 02b7 00       		.byte	0
 1236 02b8 40       		.byte	64
 1237 02b9 1F       		.byte	31
 1238 02ba 2C       		.byte	44
 1239 02bb 60       		.byte	96
 1240 02bc 0F       		.byte	15
 1241 02bd 00       		.byte	0
 1242 02be 1C       		.byte	28
 1243 02bf 80       		.byte	-128
 1244 02c0 00       		.byte	0
 1245 02c1 80       		.byte	-128
 1246 02c2 28       		.byte	40
 1247 02c3 22       		.byte	34
 1248 02c4 00       		.byte	0
 1249 02c5 00       		.byte	0
 1250 02c6 01       		.byte	1
 1251 02c7 00       		.byte	0
 1252 02c8 23       		.byte	35
 1253 02c9 06       		.byte	6
 1254 02ca 01       		.byte	1
 1255 02cb 00       		.byte	0
 1256 02cc 05       		.byte	5
 1257 02cd 00       		.byte	0
 1258 02ce C0       		.byte	-64
 1259 02cf E0       		.byte	-32
 1260 02d0 28       		.byte	40
 1261 02d1 FF       		.byte	-1
 1262 02d2 FF       		.byte	-1
 1263 02d3 FF       		.byte	-1
 1264 02d4 62       		.byte	98
 1265 02d5 A0       		.byte	-96
 1266 02d6 F0       		.byte	-16
 1267 02d7 41       		.byte	65
 1268 02d8 0C       		.byte	12
 1269 02d9 00       		.byte	0
 1270 02da 00       		.byte	0
 1271 02db 00       		.byte	0
 1272 02dc 00       		.byte	0
 1273 02dd 00       		.byte	0
 1274 02de 02       		.byte	2
 1275 02df 13       		.byte	19
 1276 02e0 04       		.byte	4
 1277 02e1 04       		.byte	4
 1278 02e2 04       		.byte	4
 1279 02e3 04       		.byte	4
 1280 02e4 00       		.byte	0
 1281 02e5 00       		.byte	0
 1282 02e6 00       		.byte	0
 1283 02e7 01       		.byte	1
 1284 02e8 00       		.byte	0
 1285 02e9 00       		.byte	0
 1286 02ea 00       		.byte	0
 1287 02eb 00       		.byte	0
 1288 02ec 00       		.byte	0
 1289 02ed 00       		.byte	0
 1290 02ee 40       		.byte	64
ARM GAS  C:\Users\Petro\AppData\Local\Temp\ccVjA1WP.s 			page 37


 1291 02ef 02       		.byte	2
 1292 02f0 00       		.byte	0
 1293 02f1 10       		.byte	16
 1294 02f2 30       		.byte	48
 1295 02f3 10       		.byte	16
 1296 02f4 00       		.byte	0
 1297 02f5 10       		.byte	16
 1298 02f6 10       		.byte	16
 1299 02f7 12       		.byte	18
 1300 02f8 00       		.byte	0
 1301 02f9 00       		.byte	0
 1302 02fa 00       		.byte	0
 1303 02fb 00       		.byte	0
 1304 02fc 00       		.byte	0
 1305 02fd 00       		.byte	0
 1306 02fe 00       		.byte	0
 1307 02ff 00       		.byte	0
 1308 0300 00       		.byte	0
 1309 0301 00       		.byte	0
 1310 0302 00       		.byte	0
 1311 0303 00       		.byte	0
 1312 0304 00       		.byte	0
 1313 0305 00       		.byte	0
 1314 0306 00       		.byte	0
 1315 0307 00       		.byte	0
 1316              		.text
 1317              	.Letext0:
 1318              		.file 2 "c:\\program files (x86)\\cypress\\psoc creator\\3.3\\psoc creator\\import\\gnu\\arm\\4.9.
 1319              		.file 3 ".\\Generated_Source\\PSoC4\\cytypes.h"
 1320              		.file 4 ".\\Generated_Source\\PSoC4\\CyLib.h"
 1321              		.file 5 ".\\Generated_Source\\PSoC4\\CyLFClk.h"