ARM GAS  C:\Users\Petro\AppData\Local\Temp\cc66PmhD.s 			page 1


   1              		.cpu cortex-m0
   2              		.fpu softvfp
   3              		.eabi_attribute 20, 1
   4              		.eabi_attribute 21, 1
   5              		.eabi_attribute 23, 3
   6              		.eabi_attribute 24, 1
   7              		.eabi_attribute 25, 1
   8              		.eabi_attribute 26, 1
   9              		.eabi_attribute 30, 1
  10              		.eabi_attribute 34, 0
  11              		.eabi_attribute 18, 4
  12              		.code	16
  13              		.file	"main.c"
  14              		.text
  15              	.Ltext0:
  16              		.cfi_sections	.debug_frame
  17              		.section	.text.wireHandler,"ax",%progbits
  18              		.align	2
  19              		.global	wireHandler
  20              		.code	16
  21              		.thumb_func
  22              		.type	wireHandler, %function
  23              	wireHandler:
  24              	.LFB37:
  25              		.file 1 ".\\main.c"
   1:.\main.c      **** #include <project.h>
   2:.\main.c      **** //#include <stdlib.h>       //include for itoa()
   3:.\main.c      **** #include <stdio.h>          //include for sprintf()
   4:.\main.c      **** 
   5:.\main.c      **** struct time{
   6:.\main.c      ****     uint16_t hour;
   7:.\main.c      ****     uint16_t min;
   8:.\main.c      ****     uint16_t sec;
   9:.\main.c      ****     uint16_t msec;
  10:.\main.c      **** };        
  11:.\main.c      **** struct time wire = {0,0,0,0};
  12:.\main.c      **** struct time uart = {0,0,0,0};
  13:.\main.c      **** 
  14:.\main.c      **** CY_ISR(wireHandler)
  15:.\main.c      **** {
  26              		.loc 1 15 0
  27              		.cfi_startproc
  28 0000 08B5     		push	{r3, lr}
  29              		.cfi_def_cfa_offset 8
  30              		.cfi_offset 3, -8
  31              		.cfi_offset 14, -4
  16:.\main.c      ****     if (++wire.sec==59){
  32              		.loc 1 16 0
  33 0002 0F4A     		ldr	r2, .L3
  34 0004 9388     		ldrh	r3, [r2, #4]
  35 0006 0133     		add	r3, r3, #1
  36 0008 9BB2     		uxth	r3, r3
  37 000a 9380     		strh	r3, [r2, #4]
  38 000c 3B2B     		cmp	r3, #59
  39 000e 12D1     		bne	.L2
  17:.\main.c      ****         wire.sec = 0;   
  40              		.loc 1 17 0
ARM GAS  C:\Users\Petro\AppData\Local\Temp\cc66PmhD.s 			page 2


  41 0010 0023     		mov	r3, #0
  42 0012 9380     		strh	r3, [r2, #4]
  18:.\main.c      ****         if (++wire.min==59){
  43              		.loc 1 18 0
  44 0014 5388     		ldrh	r3, [r2, #2]
  45 0016 0133     		add	r3, r3, #1
  46 0018 9BB2     		uxth	r3, r3
  47 001a 5380     		strh	r3, [r2, #2]
  48 001c 3B2B     		cmp	r3, #59
  49 001e 0AD1     		bne	.L2
  19:.\main.c      ****             wire.min = 0;    
  50              		.loc 1 19 0
  51 0020 0023     		mov	r3, #0
  52 0022 5380     		strh	r3, [r2, #2]
  20:.\main.c      ****             if (++wire.hour==24) 
  53              		.loc 1 20 0
  54 0024 1388     		ldrh	r3, [r2]
  55 0026 0133     		add	r3, r3, #1
  56 0028 9BB2     		uxth	r3, r3
  57 002a 1380     		strh	r3, [r2]
  58 002c 182B     		cmp	r3, #24
  59 002e 02D1     		bne	.L2
  21:.\main.c      ****                 wire.hour = 0;   
  60              		.loc 1 21 0
  61 0030 0022     		mov	r2, #0
  62 0032 034B     		ldr	r3, .L3
  63 0034 1A80     		strh	r2, [r3]
  64              	.L2:
  22:.\main.c      ****         }  
  23:.\main.c      ****     }   
  24:.\main.c      ****     Timer_wire_ClearInterrupt(Timer_wire_INTR_MASK_CC_MATCH);
  65              		.loc 1 24 0
  66 0036 0220     		mov	r0, #2
  67 0038 FFF7FEFF 		bl	Timer_wire_ClearInterrupt
  68              	.LVL0:
  25:.\main.c      **** }
  69              		.loc 1 25 0
  70              		@ sp needed
  71 003c 08BD     		pop	{r3, pc}
  72              	.L4:
  73 003e C046     		.align	2
  74              	.L3:
  75 0040 00000000 		.word	.LANCHOR0
  76              		.cfi_endproc
  77              	.LFE37:
  78              		.size	wireHandler, .-wireHandler
  79              		.section	.text.uartHandler,"ax",%progbits
  80              		.align	2
  81              		.global	uartHandler
  82              		.code	16
  83              		.thumb_func
  84              		.type	uartHandler, %function
  85              	uartHandler:
  86              	.LFB38:
  26:.\main.c      **** CY_ISR(uartHandler)
  27:.\main.c      **** {
  87              		.loc 1 27 0
ARM GAS  C:\Users\Petro\AppData\Local\Temp\cc66PmhD.s 			page 3


  88              		.cfi_startproc
  89 0000 08B5     		push	{r3, lr}
  90              		.cfi_def_cfa_offset 8
  91              		.cfi_offset 3, -8
  92              		.cfi_offset 14, -4
  28:.\main.c      ****     if (++uart.sec==59){
  93              		.loc 1 28 0
  94 0002 0F4A     		ldr	r2, .L7
  95 0004 9389     		ldrh	r3, [r2, #12]
  96 0006 0133     		add	r3, r3, #1
  97 0008 9BB2     		uxth	r3, r3
  98 000a 9381     		strh	r3, [r2, #12]
  99 000c 3B2B     		cmp	r3, #59
 100 000e 12D1     		bne	.L6
  29:.\main.c      ****         uart.sec = 0;   
 101              		.loc 1 29 0
 102 0010 0023     		mov	r3, #0
 103 0012 9381     		strh	r3, [r2, #12]
  30:.\main.c      ****         if (++uart.min==59){
 104              		.loc 1 30 0
 105 0014 5389     		ldrh	r3, [r2, #10]
 106 0016 0133     		add	r3, r3, #1
 107 0018 9BB2     		uxth	r3, r3
 108 001a 5381     		strh	r3, [r2, #10]
 109 001c 3B2B     		cmp	r3, #59
 110 001e 0AD1     		bne	.L6
  31:.\main.c      ****             uart.min = 0;    
 111              		.loc 1 31 0
 112 0020 0023     		mov	r3, #0
 113 0022 5381     		strh	r3, [r2, #10]
  32:.\main.c      ****             if (++uart.hour==24) 
 114              		.loc 1 32 0
 115 0024 1389     		ldrh	r3, [r2, #8]
 116 0026 0133     		add	r3, r3, #1
 117 0028 9BB2     		uxth	r3, r3
 118 002a 1381     		strh	r3, [r2, #8]
 119 002c 182B     		cmp	r3, #24
 120 002e 02D1     		bne	.L6
  33:.\main.c      ****                 uart.hour = 0;   
 121              		.loc 1 33 0
 122 0030 0022     		mov	r2, #0
 123 0032 034B     		ldr	r3, .L7
 124 0034 1A81     		strh	r2, [r3, #8]
 125              	.L6:
  34:.\main.c      ****         }  
  35:.\main.c      ****     }   
  36:.\main.c      ****     Timer_uart_ClearInterrupt(Timer_uart_INTR_MASK_CC_MATCH);
 126              		.loc 1 36 0
 127 0036 0220     		mov	r0, #2
 128 0038 FFF7FEFF 		bl	Timer_uart_ClearInterrupt
 129              	.LVL1:
  37:.\main.c      **** }
 130              		.loc 1 37 0
 131              		@ sp needed
 132 003c 08BD     		pop	{r3, pc}
 133              	.L8:
 134 003e C046     		.align	2
ARM GAS  C:\Users\Petro\AppData\Local\Temp\cc66PmhD.s 			page 4


 135              	.L7:
 136 0040 00000000 		.word	.LANCHOR0
 137              		.cfi_endproc
 138              	.LFE38:
 139              		.size	uartHandler, .-uartHandler
 140              		.section	.text.stopHandler,"ax",%progbits
 141              		.align	2
 142              		.global	stopHandler
 143              		.code	16
 144              		.thumb_func
 145              		.type	stopHandler, %function
 146              	stopHandler:
 147              	.LFB39:
  38:.\main.c      **** CY_ISR(stopHandler)
  39:.\main.c      **** {
 148              		.loc 1 39 0
 149              		.cfi_startproc
 150 0000 08B5     		push	{r3, lr}
 151              		.cfi_def_cfa_offset 8
 152              		.cfi_offset 3, -8
 153              		.cfi_offset 14, -4
  40:.\main.c      ****     Timer_wire_Stop();
 154              		.loc 1 40 0
 155 0002 FFF7FEFF 		bl	Timer_wire_Stop
 156              	.LVL2:
  41:.\main.c      ****     Timer_uart_Stop();
 157              		.loc 1 41 0
 158 0006 FFF7FEFF 		bl	Timer_uart_Stop
 159              	.LVL3:
  42:.\main.c      **** }
 160              		.loc 1 42 0
 161              		@ sp needed
 162 000a 08BD     		pop	{r3, pc}
 163              		.cfi_endproc
 164              	.LFE39:
 165              		.size	stopHandler, .-stopHandler
 166              		.section	.text.main,"ax",%progbits
 167              		.align	2
 168              		.global	main
 169              		.code	16
 170              		.thumb_func
 171              		.type	main, %function
 172              	main:
 173              	.LFB40:
  43:.\main.c      **** 
  44:.\main.c      **** int main()
  45:.\main.c      **** {   
 174              		.loc 1 45 0
 175              		.cfi_startproc
 176 0000 30B5     		push	{r4, r5, lr}
 177              		.cfi_def_cfa_offset 12
 178              		.cfi_offset 4, -12
 179              		.cfi_offset 5, -8
 180              		.cfi_offset 14, -4
 181 0002 8BB0     		sub	sp, sp, #44
 182              		.cfi_def_cfa_offset 56
  46:.\main.c      ****     char out_buffer[32];
ARM GAS  C:\Users\Petro\AppData\Local\Temp\cc66PmhD.s 			page 5


  47:.\main.c      ****     
  48:.\main.c      ****     CyGlobalIntEnable; /* Enable global interrupts. */
 183              		.loc 1 48 0
 184              	@ 48 ".\main.c" 1
 185 0004 62B6     		CPSIE   i
 186              	@ 0 "" 2
  49:.\main.c      ****     isr_wire_StartEx(wireHandler);
 187              		.loc 1 49 0
 188              		.code	16
 189 0006 1548     		ldr	r0, .L12
 190 0008 FFF7FEFF 		bl	isr_wire_StartEx
 191              	.LVL4:
  50:.\main.c      ****     isr_uart_StartEx(uartHandler); 
 192              		.loc 1 50 0
 193 000c 1448     		ldr	r0, .L12+4
 194 000e FFF7FEFF 		bl	isr_uart_StartEx
 195              	.LVL5:
  51:.\main.c      ****     isr_stop_StartEx(stopHandler);
 196              		.loc 1 51 0
 197 0012 1448     		ldr	r0, .L12+8
 198 0014 FFF7FEFF 		bl	isr_stop_StartEx
 199              	.LVL6:
  52:.\main.c      ****     UART_Start();
 200              		.loc 1 52 0
 201 0018 FFF7FEFF 		bl	UART_Start
 202              	.LVL7:
 203              	.L11:
  53:.\main.c      ****     //LCD_Start();   
  54:.\main.c      ****     //LCD_Position(0,0);
  55:.\main.c      ****     //LCD_PrintString("Start-Finish ");
  56:.\main.c      ****     uint16_t counter;
  57:.\main.c      ****     for(;;)
  58:.\main.c      ****     {
  59:.\main.c      ****         counter = Timer_wire_ReadCounter();
 204              		.loc 1 59 0 discriminator 1
 205 001c FFF7FEFF 		bl	Timer_wire_ReadCounter
 206              	.LVL8:
  60:.\main.c      ****         sprintf(out_buffer,"%i:%i:%i :%i",wire.hour,wire.min,wire.sec, counter);
 207              		.loc 1 60 0 discriminator 1
 208 0020 114C     		ldr	r4, .L12+12
 209 0022 2288     		ldrh	r2, [r4]
 210 0024 6388     		ldrh	r3, [r4, #2]
 211 0026 A188     		ldrh	r1, [r4, #4]
 212 0028 104D     		ldr	r5, .L12+16
 213 002a 0091     		str	r1, [sp]
 214 002c 0004     		lsl	r0, r0, #16
 215              	.LVL9:
 216 002e 000C     		lsr	r0, r0, #16
 217 0030 0190     		str	r0, [sp, #4]
 218 0032 02A8     		add	r0, sp, #8
 219 0034 291C     		mov	r1, r5
 220 0036 FFF7FEFF 		bl	sprintf
 221              	.LVL10:
  61:.\main.c      ****         counter = Timer_uart_ReadCounter();
 222              		.loc 1 61 0 discriminator 1
 223 003a FFF7FEFF 		bl	Timer_uart_ReadCounter
 224              	.LVL11:
ARM GAS  C:\Users\Petro\AppData\Local\Temp\cc66PmhD.s 			page 6


  62:.\main.c      ****         sprintf(out_buffer,"%i:%i:%i :%i",uart.hour,uart.min,uart.sec, counter);
 225              		.loc 1 62 0 discriminator 1
 226 003e 2289     		ldrh	r2, [r4, #8]
 227 0040 6389     		ldrh	r3, [r4, #10]
 228 0042 A189     		ldrh	r1, [r4, #12]
 229 0044 0091     		str	r1, [sp]
 230 0046 0004     		lsl	r0, r0, #16
 231              	.LVL12:
 232 0048 000C     		lsr	r0, r0, #16
 233 004a 0190     		str	r0, [sp, #4]
 234 004c 02A8     		add	r0, sp, #8
 235 004e 291C     		mov	r1, r5
 236 0050 FFF7FEFF 		bl	sprintf
 237              	.LVL13:
  63:.\main.c      ****         CyDelay(100);
 238              		.loc 1 63 0 discriminator 1
 239 0054 6420     		mov	r0, #100
 240 0056 FFF7FEFF 		bl	CyDelay
 241              	.LVL14:
  64:.\main.c      ****     }
 242              		.loc 1 64 0 discriminator 1
 243 005a DFE7     		b	.L11
 244              	.L13:
 245              		.align	2
 246              	.L12:
 247 005c 00000000 		.word	wireHandler
 248 0060 00000000 		.word	uartHandler
 249 0064 00000000 		.word	stopHandler
 250 0068 00000000 		.word	.LANCHOR0
 251 006c 00000000 		.word	.LC6
 252              		.cfi_endproc
 253              	.LFE40:
 254              		.size	main, .-main
 255              		.global	uart
 256              		.global	wire
 257              		.section	.rodata.str1.4,"aMS",%progbits,1
 258              		.align	2
 259              	.LC6:
 260 0000 25693A25 		.ascii	"%i:%i:%i :%i\000"
 260      693A2569 
 260      203A2569 
 260      00
 261 000d 000000   		.bss
 262              		.align	2
 263              		.set	.LANCHOR0,. + 0
 264              		.type	wire, %object
 265              		.size	wire, 8
 266              	wire:
 267 0000 00000000 		.space	8
 267      00000000 
 268              		.type	uart, %object
 269              		.size	uart, 8
 270              	uart:
 271 0008 00000000 		.space	8
 271      00000000 
 272              		.text
 273              	.Letext0:
ARM GAS  C:\Users\Petro\AppData\Local\Temp\cc66PmhD.s 			page 7


 274              		.file 2 "c:\\program files (x86)\\cypress\\psoc creator\\3.3\\psoc creator\\import\\gnu\\arm\\4.9.
 275              		.file 3 "c:\\program files (x86)\\cypress\\psoc creator\\3.3\\psoc creator\\import\\gnu\\arm\\4.9.
 276              		.file 4 "Generated_Source\\PSoC4/cytypes.h"
 277              		.file 5 "Generated_Source\\PSoC4/Timer_wire.h"
 278              		.file 6 "Generated_Source\\PSoC4/Timer_uart.h"
 279              		.file 7 "Generated_Source\\PSoC4/isr_wire.h"
 280              		.file 8 "Generated_Source\\PSoC4/isr_uart.h"
 281              		.file 9 "Generated_Source\\PSoC4/isr_stop.h"
 282              		.file 10 "Generated_Source\\PSoC4/UART.h"
 283              		.file 11 "c:\\program files (x86)\\cypress\\psoc creator\\3.3\\psoc creator\\import\\gnu\\arm\\4.9
 284              		.file 12 "Generated_Source\\PSoC4/CyLib.h"