ARM GAS  C:\Users\Petro\AppData\Local\Temp\cc9Q5GcY.s 			page 1


   1              		.cpu cortex-m0
   2              		.fpu softvfp
   3              		.eabi_attribute 20, 1
   4              		.eabi_attribute 21, 1
   5              		.eabi_attribute 23, 3
   6              		.eabi_attribute 24, 1
   7              		.eabi_attribute 25, 1
   8              		.eabi_attribute 26, 1
   9              		.eabi_attribute 30, 6
  10              		.eabi_attribute 34, 0
  11              		.eabi_attribute 18, 4
  12              		.code	16
  13              		.file	"I2C_I2C_MASTER.c"
  14              		.text
  15              	.Ltext0:
  16              		.cfi_sections	.debug_frame
  17              		.comm	I2C_mstrStatus,2,2
  18              		.comm	I2C_mstrControl,1,1
  19              		.comm	I2C_mstrRdBufPtr,4,4
  20              		.comm	I2C_mstrRdBufSize,4,4
  21              		.comm	I2C_mstrRdBufIndex,4,4
  22              		.comm	I2C_mstrWrBufPtr,4,4
  23              		.comm	I2C_mstrWrBufSize,4,4
  24              		.comm	I2C_mstrWrBufIndex,4,4
  25              		.comm	I2C_mstrWrBufIndexTmp,4,4
  26              		.section	.text.I2C_I2CMasterWriteBuf,"ax",%progbits
  27              		.align	2
  28              		.global	I2C_I2CMasterWriteBuf
  29              		.code	16
  30              		.thumb_func
  31              		.type	I2C_I2CMasterWriteBuf, %function
  32              	I2C_I2CMasterWriteBuf:
  33              	.LFB2:
  34              		.file 1 ".\\Generated_Source\\PSoC4\\I2C_I2C_MASTER.c"
   1:.\Generated_Source\PSoC4/I2C_I2C_MASTER.c **** /***************************************************************************//**
   2:.\Generated_Source\PSoC4/I2C_I2C_MASTER.c **** * \file I2C_I2C_MASTER.c
   3:.\Generated_Source\PSoC4/I2C_I2C_MASTER.c **** * \version 3.20
   4:.\Generated_Source\PSoC4/I2C_I2C_MASTER.c **** *
   5:.\Generated_Source\PSoC4/I2C_I2C_MASTER.c **** * \brief
   6:.\Generated_Source\PSoC4/I2C_I2C_MASTER.c **** *  This file provides the source code to the API for the SCB Component in
   7:.\Generated_Source\PSoC4/I2C_I2C_MASTER.c **** *  I2C Master mode.
   8:.\Generated_Source\PSoC4/I2C_I2C_MASTER.c **** *
   9:.\Generated_Source\PSoC4/I2C_I2C_MASTER.c **** * Note:
  10:.\Generated_Source\PSoC4/I2C_I2C_MASTER.c **** *
  11:.\Generated_Source\PSoC4/I2C_I2C_MASTER.c **** *******************************************************************************
  12:.\Generated_Source\PSoC4/I2C_I2C_MASTER.c **** * \copyright
  13:.\Generated_Source\PSoC4/I2C_I2C_MASTER.c **** * Copyright 2013-2016, Cypress Semiconductor Corporation.  All rights reserved.
  14:.\Generated_Source\PSoC4/I2C_I2C_MASTER.c **** * You may use this file only in accordance with the license, terms, conditions,
  15:.\Generated_Source\PSoC4/I2C_I2C_MASTER.c **** * disclaimers, and limitations in the end user license agreement accompanying
  16:.\Generated_Source\PSoC4/I2C_I2C_MASTER.c **** * the software package with which this file was provided.
  17:.\Generated_Source\PSoC4/I2C_I2C_MASTER.c **** *******************************************************************************/
  18:.\Generated_Source\PSoC4/I2C_I2C_MASTER.c **** 
  19:.\Generated_Source\PSoC4/I2C_I2C_MASTER.c **** #include "I2C_PVT.h"
  20:.\Generated_Source\PSoC4/I2C_I2C_MASTER.c **** #include "I2C_I2C_PVT.h"
  21:.\Generated_Source\PSoC4/I2C_I2C_MASTER.c **** 
  22:.\Generated_Source\PSoC4/I2C_I2C_MASTER.c **** #if(I2C_I2C_MASTER_CONST)
  23:.\Generated_Source\PSoC4/I2C_I2C_MASTER.c **** 
ARM GAS  C:\Users\Petro\AppData\Local\Temp\cc9Q5GcY.s 			page 2


  24:.\Generated_Source\PSoC4/I2C_I2C_MASTER.c **** /***************************************
  25:.\Generated_Source\PSoC4/I2C_I2C_MASTER.c **** *      I2C Master Private Vars
  26:.\Generated_Source\PSoC4/I2C_I2C_MASTER.c **** ***************************************/
  27:.\Generated_Source\PSoC4/I2C_I2C_MASTER.c **** 
  28:.\Generated_Source\PSoC4/I2C_I2C_MASTER.c **** /* Master variables */
  29:.\Generated_Source\PSoC4/I2C_I2C_MASTER.c **** volatile uint16 I2C_mstrStatus;      /* Master Status byte  */
  30:.\Generated_Source\PSoC4/I2C_I2C_MASTER.c **** volatile uint8  I2C_mstrControl;     /* Master Control byte */
  31:.\Generated_Source\PSoC4/I2C_I2C_MASTER.c **** 
  32:.\Generated_Source\PSoC4/I2C_I2C_MASTER.c **** /* Receive buffer variables */
  33:.\Generated_Source\PSoC4/I2C_I2C_MASTER.c **** volatile uint8 * I2C_mstrRdBufPtr;   /* Pointer to Master Read buffer */
  34:.\Generated_Source\PSoC4/I2C_I2C_MASTER.c **** volatile uint32  I2C_mstrRdBufSize;  /* Master Read buffer size       */
  35:.\Generated_Source\PSoC4/I2C_I2C_MASTER.c **** volatile uint32  I2C_mstrRdBufIndex; /* Master Read buffer Index      */
  36:.\Generated_Source\PSoC4/I2C_I2C_MASTER.c **** 
  37:.\Generated_Source\PSoC4/I2C_I2C_MASTER.c **** /* Transmit buffer variables */
  38:.\Generated_Source\PSoC4/I2C_I2C_MASTER.c **** volatile uint8 * I2C_mstrWrBufPtr;   /* Pointer to Master Write buffer */
  39:.\Generated_Source\PSoC4/I2C_I2C_MASTER.c **** volatile uint32  I2C_mstrWrBufSize;  /* Master Write buffer size       */
  40:.\Generated_Source\PSoC4/I2C_I2C_MASTER.c **** volatile uint32  I2C_mstrWrBufIndex; /* Master Write buffer Index      */
  41:.\Generated_Source\PSoC4/I2C_I2C_MASTER.c **** volatile uint32  I2C_mstrWrBufIndexTmp; /* Master Write buffer Index Tmp */
  42:.\Generated_Source\PSoC4/I2C_I2C_MASTER.c **** 
  43:.\Generated_Source\PSoC4/I2C_I2C_MASTER.c **** #if (!I2C_CY_SCBIP_V0 && \
  44:.\Generated_Source\PSoC4/I2C_I2C_MASTER.c ****     I2C_I2C_MULTI_MASTER_SLAVE_CONST && I2C_I2C_WAKE_ENABLE_CONST)
  45:.\Generated_Source\PSoC4/I2C_I2C_MASTER.c ****     static void I2C_I2CMasterDisableEcAm(void);
  46:.\Generated_Source\PSoC4/I2C_I2C_MASTER.c **** #endif /* (!I2C_CY_SCBIP_V0) */
  47:.\Generated_Source\PSoC4/I2C_I2C_MASTER.c **** 
  48:.\Generated_Source\PSoC4/I2C_I2C_MASTER.c **** 
  49:.\Generated_Source\PSoC4/I2C_I2C_MASTER.c **** /*******************************************************************************
  50:.\Generated_Source\PSoC4/I2C_I2C_MASTER.c **** * Function Name: I2C_I2CMasterWriteBuf
  51:.\Generated_Source\PSoC4/I2C_I2C_MASTER.c **** ****************************************************************************//**
  52:.\Generated_Source\PSoC4/I2C_I2C_MASTER.c **** *
  53:.\Generated_Source\PSoC4/I2C_I2C_MASTER.c **** *  Automatically writes an entire buffer of data to a slave device.
  54:.\Generated_Source\PSoC4/I2C_I2C_MASTER.c **** *  Once the data transfer is initiated by this function, further data transfer
  55:.\Generated_Source\PSoC4/I2C_I2C_MASTER.c **** *  is handled by the included ISR.
  56:.\Generated_Source\PSoC4/I2C_I2C_MASTER.c **** *  Enables the I2C interrupt and clears I2C_I2C_MSTAT_WR_CMPLT 
  57:.\Generated_Source\PSoC4/I2C_I2C_MASTER.c **** *  status.
  58:.\Generated_Source\PSoC4/I2C_I2C_MASTER.c **** *
  59:.\Generated_Source\PSoC4/I2C_I2C_MASTER.c **** *  \param slaveAddr: 7-bit slave address.
  60:.\Generated_Source\PSoC4/I2C_I2C_MASTER.c **** *  \param xferData: Pointer to buffer of data to be sent.
  61:.\Generated_Source\PSoC4/I2C_I2C_MASTER.c **** *  \param cnt: Size of buffer to send.
  62:.\Generated_Source\PSoC4/I2C_I2C_MASTER.c **** *  \param mode: Transfer mode defines:
  63:.\Generated_Source\PSoC4/I2C_I2C_MASTER.c **** *  (1) Whether a start or restart condition is generated at the beginning 
  64:.\Generated_Source\PSoC4/I2C_I2C_MASTER.c **** *  of the transfer, and
  65:.\Generated_Source\PSoC4/I2C_I2C_MASTER.c **** *  (2) Whether the transfer is completed or halted before the stop 
  66:.\Generated_Source\PSoC4/I2C_I2C_MASTER.c **** *  condition is generated on the bus.Transfer mode, mode constants 
  67:.\Generated_Source\PSoC4/I2C_I2C_MASTER.c **** *  may be ORed together.
  68:.\Generated_Source\PSoC4/I2C_I2C_MASTER.c **** *  - I2C_I2C_MODE_COMPLETE_XFER - Perform complete transfer 
  69:.\Generated_Source\PSoC4/I2C_I2C_MASTER.c **** *    from Start to Stop.
  70:.\Generated_Source\PSoC4/I2C_I2C_MASTER.c **** *  - I2C_I2C_MODE_REPEAT_START - Send Repeat Start instead 
  71:.\Generated_Source\PSoC4/I2C_I2C_MASTER.c **** *    of Start. A Stop is generated after transfer is completed unless 
  72:.\Generated_Source\PSoC4/I2C_I2C_MASTER.c **** *    NO_STOP is specified.
  73:.\Generated_Source\PSoC4/I2C_I2C_MASTER.c **** *  - I2C_I2C_MODE_NO_STOP Execute transfer without a Stop.
  74:.\Generated_Source\PSoC4/I2C_I2C_MASTER.c **** *    The following transfer expected to perform ReStart.
  75:.\Generated_Source\PSoC4/I2C_I2C_MASTER.c **** *
  76:.\Generated_Source\PSoC4/I2C_I2C_MASTER.c **** * \return
  77:.\Generated_Source\PSoC4/I2C_I2C_MASTER.c **** *  Error status.
  78:.\Generated_Source\PSoC4/I2C_I2C_MASTER.c **** *  - I2C_I2C_MSTR_NO_ERROR - Function complete without error. 
  79:.\Generated_Source\PSoC4/I2C_I2C_MASTER.c **** *    The master started the transfer.
  80:.\Generated_Source\PSoC4/I2C_I2C_MASTER.c **** *  - I2C_I2C_MSTR_BUS_BUSY - Bus is busy. Nothing was sent on
ARM GAS  C:\Users\Petro\AppData\Local\Temp\cc9Q5GcY.s 			page 3


  81:.\Generated_Source\PSoC4/I2C_I2C_MASTER.c **** *    the bus. The attempt has to be retried.
  82:.\Generated_Source\PSoC4/I2C_I2C_MASTER.c **** *  - I2C_I2C_MSTR_NOT_READY - Master is not ready for to start
  83:.\Generated_Source\PSoC4/I2C_I2C_MASTER.c **** *    transfer. A master still has not completed previous transaction or a 
  84:.\Generated_Source\PSoC4/I2C_I2C_MASTER.c **** *    slave operation is in progress (in multi-master-slave configuration).
  85:.\Generated_Source\PSoC4/I2C_I2C_MASTER.c **** *    Nothing was sent on the bus. The attempt has to be retried.
  86:.\Generated_Source\PSoC4/I2C_I2C_MASTER.c **** *
  87:.\Generated_Source\PSoC4/I2C_I2C_MASTER.c **** * \globalvars
  88:.\Generated_Source\PSoC4/I2C_I2C_MASTER.c **** *  I2C_mstrStatus  - used to store current status of I2C Master.
  89:.\Generated_Source\PSoC4/I2C_I2C_MASTER.c **** *  I2C_state       - used to store current state of software FSM.
  90:.\Generated_Source\PSoC4/I2C_I2C_MASTER.c **** *  I2C_mstrControl - used to control master end of transaction with
  91:.\Generated_Source\PSoC4/I2C_I2C_MASTER.c **** *  or without the Stop generation.
  92:.\Generated_Source\PSoC4/I2C_I2C_MASTER.c **** *  I2C_mstrWrBufPtr - used to store pointer to master write buffer.
  93:.\Generated_Source\PSoC4/I2C_I2C_MASTER.c **** *  I2C_mstrWrBufIndex - used to current index within master write
  94:.\Generated_Source\PSoC4/I2C_I2C_MASTER.c **** *  buffer.
  95:.\Generated_Source\PSoC4/I2C_I2C_MASTER.c **** *  I2C_mstrWrBufSize - used to store master write buffer size.
  96:.\Generated_Source\PSoC4/I2C_I2C_MASTER.c **** *
  97:.\Generated_Source\PSoC4/I2C_I2C_MASTER.c **** *******************************************************************************/
  98:.\Generated_Source\PSoC4/I2C_I2C_MASTER.c **** uint32 I2C_I2CMasterWriteBuf(uint32 slaveAddress, uint8 * wrData, uint32 cnt, uint32 mode)
  99:.\Generated_Source\PSoC4/I2C_I2C_MASTER.c **** {
  35              		.loc 1 99 0
  36              		.cfi_startproc
  37 0000 80B5     		push	{r7, lr}
  38              		.cfi_def_cfa_offset 8
  39              		.cfi_offset 7, -8
  40              		.cfi_offset 14, -4
  41 0002 86B0     		sub	sp, sp, #24
  42              		.cfi_def_cfa_offset 32
  43 0004 00AF     		add	r7, sp, #0
  44              		.cfi_def_cfa_register 7
  45 0006 F860     		str	r0, [r7, #12]
  46 0008 B960     		str	r1, [r7, #8]
  47 000a 7A60     		str	r2, [r7, #4]
  48 000c 3B60     		str	r3, [r7]
 100:.\Generated_Source\PSoC4/I2C_I2C_MASTER.c ****     uint32 errStatus;
 101:.\Generated_Source\PSoC4/I2C_I2C_MASTER.c **** 
 102:.\Generated_Source\PSoC4/I2C_I2C_MASTER.c ****     errStatus = I2C_I2C_MSTR_NOT_READY;
  49              		.loc 1 102 0
  50 000e 0423     		mov	r3, #4
  51 0010 7B61     		str	r3, [r7, #20]
 103:.\Generated_Source\PSoC4/I2C_I2C_MASTER.c **** 
 104:.\Generated_Source\PSoC4/I2C_I2C_MASTER.c ****     if(NULL != wrData)  /* Check buffer pointer */
  52              		.loc 1 104 0
  53 0012 BB68     		ldr	r3, [r7, #8]
  54 0014 002B     		cmp	r3, #0
  55 0016 20D0     		beq	.L2
 105:.\Generated_Source\PSoC4/I2C_I2C_MASTER.c ****     {
 106:.\Generated_Source\PSoC4/I2C_I2C_MASTER.c ****         /* Check FSM state and bus before generating Start/ReStart condition */
 107:.\Generated_Source\PSoC4/I2C_I2C_MASTER.c ****         if(I2C_CHECK_I2C_FSM_IDLE)
  56              		.loc 1 107 0
  57 0018 324B     		ldr	r3, .L9
  58 001a 1B78     		ldrb	r3, [r3]
  59 001c DBB2     		uxtb	r3, r3
  60 001e 102B     		cmp	r3, #16
  61 0020 0CD1     		bne	.L3
 108:.\Generated_Source\PSoC4/I2C_I2C_MASTER.c ****         {
 109:.\Generated_Source\PSoC4/I2C_I2C_MASTER.c ****             I2C_DisableInt();  /* Lock from interruption */
  62              		.loc 1 109 0
ARM GAS  C:\Users\Petro\AppData\Local\Temp\cc9Q5GcY.s 			page 4


  63 0022 0920     		mov	r0, #9
  64 0024 FFF7FEFF 		bl	CyIntDisable
 110:.\Generated_Source\PSoC4/I2C_I2C_MASTER.c **** 
 111:.\Generated_Source\PSoC4/I2C_I2C_MASTER.c ****             /* Check bus state */
 112:.\Generated_Source\PSoC4/I2C_I2C_MASTER.c ****             errStatus = I2C_CHECK_I2C_STATUS(I2C_I2C_STATUS_BUS_BUSY) ?
  65              		.loc 1 112 0
  66 0028 2F4B     		ldr	r3, .L9+4
  67 002a 1B68     		ldr	r3, [r3]
  68 002c 0122     		mov	r2, #1
  69 002e 1340     		and	r3, r2
  70 0030 01D0     		beq	.L4
  71              		.loc 1 112 0 is_stmt 0 discriminator 1
  72 0032 0823     		mov	r3, #8
  73 0034 00E0     		b	.L5
  74              	.L4:
  75              		.loc 1 112 0 discriminator 2
  76 0036 0023     		mov	r3, #0
  77              	.L5:
  78              		.loc 1 112 0 discriminator 4
  79 0038 7B61     		str	r3, [r7, #20]
  80 003a 0EE0     		b	.L2
  81              	.L3:
 113:.\Generated_Source\PSoC4/I2C_I2C_MASTER.c ****                             I2C_I2C_MSTR_BUS_BUSY : I2C_I2C_MSTR_NO_ERROR;
 114:.\Generated_Source\PSoC4/I2C_I2C_MASTER.c ****         }
 115:.\Generated_Source\PSoC4/I2C_I2C_MASTER.c ****         else if(I2C_CHECK_I2C_FSM_HALT)
  82              		.loc 1 115 0 is_stmt 1
  83 003c 294B     		ldr	r3, .L9
  84 003e 1B78     		ldrb	r3, [r3]
  85 0040 DBB2     		uxtb	r3, r3
  86 0042 602B     		cmp	r3, #96
  87 0044 09D1     		bne	.L2
 116:.\Generated_Source\PSoC4/I2C_I2C_MASTER.c ****         {
 117:.\Generated_Source\PSoC4/I2C_I2C_MASTER.c ****             I2C_mstrStatus &= (uint16) ~I2C_I2C_MSTAT_XFER_HALT;
  88              		.loc 1 117 0
  89 0046 294B     		ldr	r3, .L9+8
  90 0048 1B88     		ldrh	r3, [r3]
  91 004a 9BB2     		uxth	r3, r3
  92 004c 0822     		mov	r2, #8
  93 004e 9343     		bic	r3, r2
  94 0050 9AB2     		uxth	r2, r3
  95 0052 264B     		ldr	r3, .L9+8
  96 0054 1A80     		strh	r2, [r3]
 118:.\Generated_Source\PSoC4/I2C_I2C_MASTER.c ****                               errStatus  = I2C_I2C_MSTR_NO_ERROR;
  97              		.loc 1 118 0
  98 0056 0023     		mov	r3, #0
  99 0058 7B61     		str	r3, [r7, #20]
 100              	.L2:
 119:.\Generated_Source\PSoC4/I2C_I2C_MASTER.c ****         }
 120:.\Generated_Source\PSoC4/I2C_I2C_MASTER.c ****         else
 121:.\Generated_Source\PSoC4/I2C_I2C_MASTER.c ****         {
 122:.\Generated_Source\PSoC4/I2C_I2C_MASTER.c ****             /* Unexpected FSM state: exit */
 123:.\Generated_Source\PSoC4/I2C_I2C_MASTER.c ****         }
 124:.\Generated_Source\PSoC4/I2C_I2C_MASTER.c ****     }
 125:.\Generated_Source\PSoC4/I2C_I2C_MASTER.c **** 
 126:.\Generated_Source\PSoC4/I2C_I2C_MASTER.c ****     /* Check if master is ready to start  */
 127:.\Generated_Source\PSoC4/I2C_I2C_MASTER.c ****     if(I2C_I2C_MSTR_NO_ERROR == errStatus) /* No error proceed */
 101              		.loc 1 127 0
ARM GAS  C:\Users\Petro\AppData\Local\Temp\cc9Q5GcY.s 			page 5


 102 005a 7B69     		ldr	r3, [r7, #20]
 103 005c 002B     		cmp	r3, #0
 104 005e 38D1     		bne	.L6
 128:.\Generated_Source\PSoC4/I2C_I2C_MASTER.c ****     {
 129:.\Generated_Source\PSoC4/I2C_I2C_MASTER.c ****     #if (!I2C_CY_SCBIP_V0 && \
 130:.\Generated_Source\PSoC4/I2C_I2C_MASTER.c ****         I2C_I2C_MULTI_MASTER_SLAVE_CONST && I2C_I2C_WAKE_ENABLE_CONST)
 131:.\Generated_Source\PSoC4/I2C_I2C_MASTER.c ****             I2C_I2CMasterDisableEcAm();
 132:.\Generated_Source\PSoC4/I2C_I2C_MASTER.c ****     #endif /* (!I2C_CY_SCBIP_V0) */
 133:.\Generated_Source\PSoC4/I2C_I2C_MASTER.c **** 
 134:.\Generated_Source\PSoC4/I2C_I2C_MASTER.c ****         /* Set up write transaction */
 135:.\Generated_Source\PSoC4/I2C_I2C_MASTER.c ****         I2C_state = I2C_I2C_FSM_MSTR_WR_ADDR;
 105              		.loc 1 135 0
 106 0060 204B     		ldr	r3, .L9
 107 0062 2822     		mov	r2, #40
 108 0064 1A70     		strb	r2, [r3]
 136:.\Generated_Source\PSoC4/I2C_I2C_MASTER.c ****         I2C_mstrWrBufIndexTmp = 0u;
 109              		.loc 1 136 0
 110 0066 224B     		ldr	r3, .L9+12
 111 0068 0022     		mov	r2, #0
 112 006a 1A60     		str	r2, [r3]
 137:.\Generated_Source\PSoC4/I2C_I2C_MASTER.c ****         I2C_mstrWrBufIndex    = 0u;
 113              		.loc 1 137 0
 114 006c 214B     		ldr	r3, .L9+16
 115 006e 0022     		mov	r2, #0
 116 0070 1A60     		str	r2, [r3]
 138:.\Generated_Source\PSoC4/I2C_I2C_MASTER.c ****         I2C_mstrWrBufSize     = cnt;
 117              		.loc 1 138 0
 118 0072 214B     		ldr	r3, .L9+20
 119 0074 7A68     		ldr	r2, [r7, #4]
 120 0076 1A60     		str	r2, [r3]
 139:.\Generated_Source\PSoC4/I2C_I2C_MASTER.c ****         I2C_mstrWrBufPtr      = (volatile uint8 *) wrData;
 121              		.loc 1 139 0
 122 0078 204B     		ldr	r3, .L9+24
 123 007a BA68     		ldr	r2, [r7, #8]
 124 007c 1A60     		str	r2, [r3]
 140:.\Generated_Source\PSoC4/I2C_I2C_MASTER.c ****         I2C_mstrControl       = (uint8) mode;
 125              		.loc 1 140 0
 126 007e 3B68     		ldr	r3, [r7]
 127 0080 DAB2     		uxtb	r2, r3
 128 0082 1F4B     		ldr	r3, .L9+28
 129 0084 1A70     		strb	r2, [r3]
 141:.\Generated_Source\PSoC4/I2C_I2C_MASTER.c **** 
 142:.\Generated_Source\PSoC4/I2C_I2C_MASTER.c ****         slaveAddress = I2C_GET_I2C_8BIT_ADDRESS(slaveAddress);
 130              		.loc 1 142 0
 131 0086 FB68     		ldr	r3, [r7, #12]
 132 0088 5B00     		lsl	r3, r3, #1
 133 008a FF22     		mov	r2, #255
 134 008c 1340     		and	r3, r2
 135 008e FB60     		str	r3, [r7, #12]
 143:.\Generated_Source\PSoC4/I2C_I2C_MASTER.c **** 
 144:.\Generated_Source\PSoC4/I2C_I2C_MASTER.c ****         I2C_mstrStatus &= (uint16) ~I2C_I2C_MSTAT_WR_CMPLT;
 136              		.loc 1 144 0
 137 0090 164B     		ldr	r3, .L9+8
 138 0092 1B88     		ldrh	r3, [r3]
 139 0094 9BB2     		uxth	r3, r3
 140 0096 0222     		mov	r2, #2
 141 0098 9343     		bic	r3, r2
ARM GAS  C:\Users\Petro\AppData\Local\Temp\cc9Q5GcY.s 			page 6


 142 009a 9AB2     		uxth	r2, r3
 143 009c 134B     		ldr	r3, .L9+8
 144 009e 1A80     		strh	r2, [r3]
 145:.\Generated_Source\PSoC4/I2C_I2C_MASTER.c **** 
 146:.\Generated_Source\PSoC4/I2C_I2C_MASTER.c ****         I2C_ClearMasterInterruptSource(I2C_INTR_MASTER_ALL);
 145              		.loc 1 146 0
 146 00a0 184B     		ldr	r3, .L9+32
 147 00a2 194A     		ldr	r2, .L9+36
 148 00a4 1A60     		str	r2, [r3]
 147:.\Generated_Source\PSoC4/I2C_I2C_MASTER.c ****         I2C_ClearTxInterruptSource(I2C_INTR_TX_UNDERFLOW);
 149              		.loc 1 147 0
 150 00a6 194B     		ldr	r3, .L9+40
 151 00a8 4022     		mov	r2, #64
 152 00aa 1A60     		str	r2, [r3]
 148:.\Generated_Source\PSoC4/I2C_I2C_MASTER.c **** 
 149:.\Generated_Source\PSoC4/I2C_I2C_MASTER.c ****         /* The TX and RX FIFO have to be EMPTY */
 150:.\Generated_Source\PSoC4/I2C_I2C_MASTER.c **** 
 151:.\Generated_Source\PSoC4/I2C_I2C_MASTER.c ****         /* Enable interrupt source to catch when address is sent */
 152:.\Generated_Source\PSoC4/I2C_I2C_MASTER.c ****         I2C_SetTxInterruptMode(I2C_INTR_TX_UNDERFLOW);
 153              		.loc 1 152 0
 154 00ac 184B     		ldr	r3, .L9+44
 155 00ae 4022     		mov	r2, #64
 156 00b0 1A60     		str	r2, [r3]
 153:.\Generated_Source\PSoC4/I2C_I2C_MASTER.c **** 
 154:.\Generated_Source\PSoC4/I2C_I2C_MASTER.c ****         /* Generate Start or ReStart */
 155:.\Generated_Source\PSoC4/I2C_I2C_MASTER.c ****         if(I2C_CHECK_I2C_MODE_RESTART(mode))
 157              		.loc 1 155 0
 158 00b2 3B68     		ldr	r3, [r7]
 159 00b4 0122     		mov	r2, #1
 160 00b6 1340     		and	r3, r2
 161 00b8 05D0     		beq	.L7
 156:.\Generated_Source\PSoC4/I2C_I2C_MASTER.c ****         {
 157:.\Generated_Source\PSoC4/I2C_I2C_MASTER.c ****             I2C_I2C_MASTER_GENERATE_RESTART;
 162              		.loc 1 157 0
 163 00ba FFF7FEFF 		bl	I2C_I2CReStartGeneration
 158:.\Generated_Source\PSoC4/I2C_I2C_MASTER.c ****             I2C_TX_FIFO_WR_REG = slaveAddress;
 164              		.loc 1 158 0
 165 00be 154B     		ldr	r3, .L9+48
 166 00c0 FA68     		ldr	r2, [r7, #12]
 167 00c2 1A60     		str	r2, [r3]
 168 00c4 05E0     		b	.L6
 169              	.L7:
 159:.\Generated_Source\PSoC4/I2C_I2C_MASTER.c ****         }
 160:.\Generated_Source\PSoC4/I2C_I2C_MASTER.c ****         else
 161:.\Generated_Source\PSoC4/I2C_I2C_MASTER.c ****         {
 162:.\Generated_Source\PSoC4/I2C_I2C_MASTER.c ****             I2C_TX_FIFO_WR_REG = slaveAddress;
 170              		.loc 1 162 0
 171 00c6 134B     		ldr	r3, .L9+48
 172 00c8 FA68     		ldr	r2, [r7, #12]
 173 00ca 1A60     		str	r2, [r3]
 163:.\Generated_Source\PSoC4/I2C_I2C_MASTER.c ****             I2C_I2C_MASTER_GENERATE_START;
 174              		.loc 1 163 0
 175 00cc 124B     		ldr	r3, .L9+52
 176 00ce 0222     		mov	r2, #2
 177 00d0 1A60     		str	r2, [r3]
 178              	.L6:
 164:.\Generated_Source\PSoC4/I2C_I2C_MASTER.c ****         }
ARM GAS  C:\Users\Petro\AppData\Local\Temp\cc9Q5GcY.s 			page 7


 165:.\Generated_Source\PSoC4/I2C_I2C_MASTER.c ****     }
 166:.\Generated_Source\PSoC4/I2C_I2C_MASTER.c **** 
 167:.\Generated_Source\PSoC4/I2C_I2C_MASTER.c ****     I2C_EnableInt();   /* Release lock */
 179              		.loc 1 167 0
 180 00d2 0920     		mov	r0, #9
 181 00d4 FFF7FEFF 		bl	CyIntEnable
 168:.\Generated_Source\PSoC4/I2C_I2C_MASTER.c **** 
 169:.\Generated_Source\PSoC4/I2C_I2C_MASTER.c ****     return(errStatus);
 182              		.loc 1 169 0
 183 00d8 7B69     		ldr	r3, [r7, #20]
 170:.\Generated_Source\PSoC4/I2C_I2C_MASTER.c **** }
 184              		.loc 1 170 0
 185 00da 181C     		mov	r0, r3
 186 00dc BD46     		mov	sp, r7
 187 00de 06B0     		add	sp, sp, #24
 188              		@ sp needed
 189 00e0 80BD     		pop	{r7, pc}
 190              	.L10:
 191 00e2 C046     		.align	2
 192              	.L9:
 193 00e4 00000000 		.word	I2C_state
 194 00e8 64002440 		.word	1076101220
 195 00ec 00000000 		.word	I2C_mstrStatus
 196 00f0 00000000 		.word	I2C_mstrWrBufIndexTmp
 197 00f4 00000000 		.word	I2C_mstrWrBufIndex
 198 00f8 00000000 		.word	I2C_mstrWrBufSize
 199 00fc 00000000 		.word	I2C_mstrWrBufPtr
 200 0100 00000000 		.word	I2C_mstrControl
 201 0104 000F2440 		.word	1076104960
 202 0108 17030000 		.word	791
 203 010c 800F2440 		.word	1076105088
 204 0110 880F2440 		.word	1076105096
 205 0114 40022440 		.word	1076101696
 206 0118 68002440 		.word	1076101224
 207              		.cfi_endproc
 208              	.LFE2:
 209              		.size	I2C_I2CMasterWriteBuf, .-I2C_I2CMasterWriteBuf
 210              		.section	.text.I2C_I2CMasterReadBuf,"ax",%progbits
 211              		.align	2
 212              		.global	I2C_I2CMasterReadBuf
 213              		.code	16
 214              		.thumb_func
 215              		.type	I2C_I2CMasterReadBuf, %function
 216              	I2C_I2CMasterReadBuf:
 217              	.LFB3:
 171:.\Generated_Source\PSoC4/I2C_I2C_MASTER.c **** 
 172:.\Generated_Source\PSoC4/I2C_I2C_MASTER.c **** 
 173:.\Generated_Source\PSoC4/I2C_I2C_MASTER.c **** /*******************************************************************************
 174:.\Generated_Source\PSoC4/I2C_I2C_MASTER.c **** * Function Name: I2C_I2CMasterReadBuf
 175:.\Generated_Source\PSoC4/I2C_I2C_MASTER.c **** ****************************************************************************//**
 176:.\Generated_Source\PSoC4/I2C_I2C_MASTER.c **** *
 177:.\Generated_Source\PSoC4/I2C_I2C_MASTER.c **** *  Automatically reads an entire buffer of data from a slave device.
 178:.\Generated_Source\PSoC4/I2C_I2C_MASTER.c **** *  Once the data transfer is initiated by this function, further data transfer
 179:.\Generated_Source\PSoC4/I2C_I2C_MASTER.c **** *  is handled by the included ISR.
 180:.\Generated_Source\PSoC4/I2C_I2C_MASTER.c **** *  Enables the I2C interrupt and clears I2C_I2C_MSTAT_RD_CMPLT 
 181:.\Generated_Source\PSoC4/I2C_I2C_MASTER.c **** *  status.
 182:.\Generated_Source\PSoC4/I2C_I2C_MASTER.c **** *
ARM GAS  C:\Users\Petro\AppData\Local\Temp\cc9Q5GcY.s 			page 8


 183:.\Generated_Source\PSoC4/I2C_I2C_MASTER.c **** *  \param slaveAddr: 7-bit slave address.
 184:.\Generated_Source\PSoC4/I2C_I2C_MASTER.c **** *  \param xferData: Pointer to buffer of data to be sent.
 185:.\Generated_Source\PSoC4/I2C_I2C_MASTER.c **** *  \param cnt: Size of buffer to send.
 186:.\Generated_Source\PSoC4/I2C_I2C_MASTER.c **** *  \param mode: Transfer mode defines:
 187:.\Generated_Source\PSoC4/I2C_I2C_MASTER.c **** *  (1) Whether a start or restart condition is generated at the beginning 
 188:.\Generated_Source\PSoC4/I2C_I2C_MASTER.c **** *  of the transfer, and
 189:.\Generated_Source\PSoC4/I2C_I2C_MASTER.c **** *  (2) Whether the transfer is completed or halted before the stop 
 190:.\Generated_Source\PSoC4/I2C_I2C_MASTER.c **** *  condition is generated on the bus.Transfer mode, mode constants may 
 191:.\Generated_Source\PSoC4/I2C_I2C_MASTER.c **** *  be ORed together. See I2C_I2CMasterWriteBuf() 
 192:.\Generated_Source\PSoC4/I2C_I2C_MASTER.c **** *  function for constants.
 193:.\Generated_Source\PSoC4/I2C_I2C_MASTER.c **** *
 194:.\Generated_Source\PSoC4/I2C_I2C_MASTER.c **** * \return
 195:.\Generated_Source\PSoC4/I2C_I2C_MASTER.c **** *  Error status.See I2C_I2CMasterWriteBuf() 
 196:.\Generated_Source\PSoC4/I2C_I2C_MASTER.c **** *  function for constants.
 197:.\Generated_Source\PSoC4/I2C_I2C_MASTER.c **** *
 198:.\Generated_Source\PSoC4/I2C_I2C_MASTER.c **** * \globalvars
 199:.\Generated_Source\PSoC4/I2C_I2C_MASTER.c **** *  I2C_mstrStatus  - used to store current status of I2C Master.
 200:.\Generated_Source\PSoC4/I2C_I2C_MASTER.c **** *  I2C_state       - used to store current state of software FSM.
 201:.\Generated_Source\PSoC4/I2C_I2C_MASTER.c **** *  I2C_mstrControl - used to control master end of transaction with
 202:.\Generated_Source\PSoC4/I2C_I2C_MASTER.c **** *  or without the Stop generation.
 203:.\Generated_Source\PSoC4/I2C_I2C_MASTER.c **** *  I2C_mstrRdBufPtr - used to store pointer to master read buffer.
 204:.\Generated_Source\PSoC4/I2C_I2C_MASTER.c **** *  I2C_mstrRdBufIndex - used to current index within master read
 205:.\Generated_Source\PSoC4/I2C_I2C_MASTER.c **** *  buffer.
 206:.\Generated_Source\PSoC4/I2C_I2C_MASTER.c **** *  I2C_mstrRdBufSize - used to store master read buffer size.
 207:.\Generated_Source\PSoC4/I2C_I2C_MASTER.c **** *
 208:.\Generated_Source\PSoC4/I2C_I2C_MASTER.c **** *******************************************************************************/
 209:.\Generated_Source\PSoC4/I2C_I2C_MASTER.c **** uint32 I2C_I2CMasterReadBuf(uint32 slaveAddress, uint8 * rdData, uint32 cnt, uint32 mode)
 210:.\Generated_Source\PSoC4/I2C_I2C_MASTER.c **** {
 218              		.loc 1 210 0
 219              		.cfi_startproc
 220 0000 80B5     		push	{r7, lr}
 221              		.cfi_def_cfa_offset 8
 222              		.cfi_offset 7, -8
 223              		.cfi_offset 14, -4
 224 0002 86B0     		sub	sp, sp, #24
 225              		.cfi_def_cfa_offset 32
 226 0004 00AF     		add	r7, sp, #0
 227              		.cfi_def_cfa_register 7
 228 0006 F860     		str	r0, [r7, #12]
 229 0008 B960     		str	r1, [r7, #8]
 230 000a 7A60     		str	r2, [r7, #4]
 231 000c 3B60     		str	r3, [r7]
 211:.\Generated_Source\PSoC4/I2C_I2C_MASTER.c ****     uint32 errStatus;
 212:.\Generated_Source\PSoC4/I2C_I2C_MASTER.c **** 
 213:.\Generated_Source\PSoC4/I2C_I2C_MASTER.c ****     errStatus = I2C_I2C_MSTR_NOT_READY;
 232              		.loc 1 213 0
 233 000e 0423     		mov	r3, #4
 234 0010 7B61     		str	r3, [r7, #20]
 214:.\Generated_Source\PSoC4/I2C_I2C_MASTER.c **** 
 215:.\Generated_Source\PSoC4/I2C_I2C_MASTER.c ****     if(NULL != rdData)
 235              		.loc 1 215 0
 236 0012 BB68     		ldr	r3, [r7, #8]
 237 0014 002B     		cmp	r3, #0
 238 0016 20D0     		beq	.L12
 216:.\Generated_Source\PSoC4/I2C_I2C_MASTER.c ****     {
 217:.\Generated_Source\PSoC4/I2C_I2C_MASTER.c ****         /* Check FSM state and bus before generating Start/ReStart condition */
 218:.\Generated_Source\PSoC4/I2C_I2C_MASTER.c ****         if(I2C_CHECK_I2C_FSM_IDLE)
ARM GAS  C:\Users\Petro\AppData\Local\Temp\cc9Q5GcY.s 			page 9


 239              		.loc 1 218 0
 240 0018 374B     		ldr	r3, .L21
 241 001a 1B78     		ldrb	r3, [r3]
 242 001c DBB2     		uxtb	r3, r3
 243 001e 102B     		cmp	r3, #16
 244 0020 0CD1     		bne	.L13
 219:.\Generated_Source\PSoC4/I2C_I2C_MASTER.c ****         {
 220:.\Generated_Source\PSoC4/I2C_I2C_MASTER.c ****             I2C_DisableInt();  /* Lock from interruption */
 245              		.loc 1 220 0
 246 0022 0920     		mov	r0, #9
 247 0024 FFF7FEFF 		bl	CyIntDisable
 221:.\Generated_Source\PSoC4/I2C_I2C_MASTER.c **** 
 222:.\Generated_Source\PSoC4/I2C_I2C_MASTER.c ****             /* Check bus state */
 223:.\Generated_Source\PSoC4/I2C_I2C_MASTER.c ****             errStatus = I2C_CHECK_I2C_STATUS(I2C_I2C_STATUS_BUS_BUSY) ?
 248              		.loc 1 223 0
 249 0028 344B     		ldr	r3, .L21+4
 250 002a 1B68     		ldr	r3, [r3]
 251 002c 0122     		mov	r2, #1
 252 002e 1340     		and	r3, r2
 253 0030 01D0     		beq	.L14
 254              		.loc 1 223 0 is_stmt 0 discriminator 1
 255 0032 0823     		mov	r3, #8
 256 0034 00E0     		b	.L15
 257              	.L14:
 258              		.loc 1 223 0 discriminator 2
 259 0036 0023     		mov	r3, #0
 260              	.L15:
 261              		.loc 1 223 0 discriminator 4
 262 0038 7B61     		str	r3, [r7, #20]
 263 003a 0EE0     		b	.L12
 264              	.L13:
 224:.\Generated_Source\PSoC4/I2C_I2C_MASTER.c ****                             I2C_I2C_MSTR_BUS_BUSY : I2C_I2C_MSTR_NO_ERROR;
 225:.\Generated_Source\PSoC4/I2C_I2C_MASTER.c ****         }
 226:.\Generated_Source\PSoC4/I2C_I2C_MASTER.c ****         else if(I2C_CHECK_I2C_FSM_HALT)
 265              		.loc 1 226 0 is_stmt 1
 266 003c 2E4B     		ldr	r3, .L21
 267 003e 1B78     		ldrb	r3, [r3]
 268 0040 DBB2     		uxtb	r3, r3
 269 0042 602B     		cmp	r3, #96
 270 0044 09D1     		bne	.L12
 227:.\Generated_Source\PSoC4/I2C_I2C_MASTER.c ****         {
 228:.\Generated_Source\PSoC4/I2C_I2C_MASTER.c ****             I2C_mstrStatus &= (uint16) ~I2C_I2C_MSTAT_XFER_HALT;
 271              		.loc 1 228 0
 272 0046 2E4B     		ldr	r3, .L21+8
 273 0048 1B88     		ldrh	r3, [r3]
 274 004a 9BB2     		uxth	r3, r3
 275 004c 0822     		mov	r2, #8
 276 004e 9343     		bic	r3, r2
 277 0050 9AB2     		uxth	r2, r3
 278 0052 2B4B     		ldr	r3, .L21+8
 279 0054 1A80     		strh	r2, [r3]
 229:.\Generated_Source\PSoC4/I2C_I2C_MASTER.c ****                               errStatus  =  I2C_I2C_MSTR_NO_ERROR;
 280              		.loc 1 229 0
 281 0056 0023     		mov	r3, #0
 282 0058 7B61     		str	r3, [r7, #20]
 283              	.L12:
 230:.\Generated_Source\PSoC4/I2C_I2C_MASTER.c ****         }
ARM GAS  C:\Users\Petro\AppData\Local\Temp\cc9Q5GcY.s 			page 10


 231:.\Generated_Source\PSoC4/I2C_I2C_MASTER.c ****         else
 232:.\Generated_Source\PSoC4/I2C_I2C_MASTER.c ****         {
 233:.\Generated_Source\PSoC4/I2C_I2C_MASTER.c ****             /* Unexpected FSM state: exit */
 234:.\Generated_Source\PSoC4/I2C_I2C_MASTER.c ****         }
 235:.\Generated_Source\PSoC4/I2C_I2C_MASTER.c ****     }
 236:.\Generated_Source\PSoC4/I2C_I2C_MASTER.c **** 
 237:.\Generated_Source\PSoC4/I2C_I2C_MASTER.c ****     /* Check master ready to proceed */
 238:.\Generated_Source\PSoC4/I2C_I2C_MASTER.c ****     if(I2C_I2C_MSTR_NO_ERROR == errStatus) /* No error proceed */
 284              		.loc 1 238 0
 285 005a 7B69     		ldr	r3, [r7, #20]
 286 005c 002B     		cmp	r3, #0
 287 005e 43D1     		bne	.L16
 239:.\Generated_Source\PSoC4/I2C_I2C_MASTER.c ****     {
 240:.\Generated_Source\PSoC4/I2C_I2C_MASTER.c ****         #if (!I2C_CY_SCBIP_V0 && \
 241:.\Generated_Source\PSoC4/I2C_I2C_MASTER.c ****         I2C_I2C_MULTI_MASTER_SLAVE_CONST && I2C_I2C_WAKE_ENABLE_CONST)
 242:.\Generated_Source\PSoC4/I2C_I2C_MASTER.c ****             I2C_I2CMasterDisableEcAm();
 243:.\Generated_Source\PSoC4/I2C_I2C_MASTER.c ****         #endif /* (!I2C_CY_SCBIP_V0) */
 244:.\Generated_Source\PSoC4/I2C_I2C_MASTER.c **** 
 245:.\Generated_Source\PSoC4/I2C_I2C_MASTER.c ****         /* Set up read transaction */
 246:.\Generated_Source\PSoC4/I2C_I2C_MASTER.c ****         I2C_state = I2C_I2C_FSM_MSTR_RD_ADDR;
 288              		.loc 1 246 0
 289 0060 254B     		ldr	r3, .L21
 290 0062 2922     		mov	r2, #41
 291 0064 1A70     		strb	r2, [r3]
 247:.\Generated_Source\PSoC4/I2C_I2C_MASTER.c ****         I2C_mstrRdBufIndex = 0u;
 292              		.loc 1 247 0
 293 0066 274B     		ldr	r3, .L21+12
 294 0068 0022     		mov	r2, #0
 295 006a 1A60     		str	r2, [r3]
 248:.\Generated_Source\PSoC4/I2C_I2C_MASTER.c ****         I2C_mstrRdBufSize  = cnt;
 296              		.loc 1 248 0
 297 006c 264B     		ldr	r3, .L21+16
 298 006e 7A68     		ldr	r2, [r7, #4]
 299 0070 1A60     		str	r2, [r3]
 249:.\Generated_Source\PSoC4/I2C_I2C_MASTER.c ****         I2C_mstrRdBufPtr   = (volatile uint8 *) rdData;
 300              		.loc 1 249 0
 301 0072 264B     		ldr	r3, .L21+20
 302 0074 BA68     		ldr	r2, [r7, #8]
 303 0076 1A60     		str	r2, [r3]
 250:.\Generated_Source\PSoC4/I2C_I2C_MASTER.c ****         I2C_mstrControl    = (uint8) mode;
 304              		.loc 1 250 0
 305 0078 3B68     		ldr	r3, [r7]
 306 007a DAB2     		uxtb	r2, r3
 307 007c 244B     		ldr	r3, .L21+24
 308 007e 1A70     		strb	r2, [r3]
 251:.\Generated_Source\PSoC4/I2C_I2C_MASTER.c **** 
 252:.\Generated_Source\PSoC4/I2C_I2C_MASTER.c ****         slaveAddress = (I2C_GET_I2C_8BIT_ADDRESS(slaveAddress) | I2C_I2C_READ_FLAG);
 309              		.loc 1 252 0
 310 0080 FB68     		ldr	r3, [r7, #12]
 311 0082 5B00     		lsl	r3, r3, #1
 312 0084 FF22     		mov	r2, #255
 313 0086 1340     		and	r3, r2
 314 0088 0122     		mov	r2, #1
 315 008a 1343     		orr	r3, r2
 316 008c FB60     		str	r3, [r7, #12]
 253:.\Generated_Source\PSoC4/I2C_I2C_MASTER.c **** 
 254:.\Generated_Source\PSoC4/I2C_I2C_MASTER.c ****         I2C_mstrStatus &= (uint16) ~I2C_I2C_MSTAT_RD_CMPLT;
ARM GAS  C:\Users\Petro\AppData\Local\Temp\cc9Q5GcY.s 			page 11


 317              		.loc 1 254 0
 318 008e 1C4B     		ldr	r3, .L21+8
 319 0090 1B88     		ldrh	r3, [r3]
 320 0092 9BB2     		uxth	r3, r3
 321 0094 0122     		mov	r2, #1
 322 0096 9343     		bic	r3, r2
 323 0098 9AB2     		uxth	r2, r3
 324 009a 194B     		ldr	r3, .L21+8
 325 009c 1A80     		strh	r2, [r3]
 255:.\Generated_Source\PSoC4/I2C_I2C_MASTER.c **** 
 256:.\Generated_Source\PSoC4/I2C_I2C_MASTER.c ****         I2C_ClearMasterInterruptSource(I2C_INTR_MASTER_ALL);
 326              		.loc 1 256 0
 327 009e 1D4B     		ldr	r3, .L21+28
 328 00a0 1D4A     		ldr	r2, .L21+32
 329 00a2 1A60     		str	r2, [r3]
 257:.\Generated_Source\PSoC4/I2C_I2C_MASTER.c **** 
 258:.\Generated_Source\PSoC4/I2C_I2C_MASTER.c ****         /* TX and RX FIFO have to be EMPTY */
 259:.\Generated_Source\PSoC4/I2C_I2C_MASTER.c **** 
 260:.\Generated_Source\PSoC4/I2C_I2C_MASTER.c ****         /* Prepare reading */
 261:.\Generated_Source\PSoC4/I2C_I2C_MASTER.c ****         if(I2C_mstrRdBufSize < I2C_I2C_FIFO_SIZE)
 330              		.loc 1 261 0
 331 00a4 184B     		ldr	r3, .L21+16
 332 00a6 1B68     		ldr	r3, [r3]
 333 00a8 072B     		cmp	r3, #7
 334 00aa 03D8     		bhi	.L17
 262:.\Generated_Source\PSoC4/I2C_I2C_MASTER.c ****         {
 263:.\Generated_Source\PSoC4/I2C_I2C_MASTER.c ****             /* Reading byte-by-byte */
 264:.\Generated_Source\PSoC4/I2C_I2C_MASTER.c ****             I2C_SetRxInterruptMode(I2C_INTR_RX_NOT_EMPTY);
 335              		.loc 1 264 0
 336 00ac 1B4B     		ldr	r3, .L21+36
 337 00ae 0422     		mov	r2, #4
 338 00b0 1A60     		str	r2, [r3]
 339 00b2 09E0     		b	.L18
 340              	.L17:
 265:.\Generated_Source\PSoC4/I2C_I2C_MASTER.c ****         }
 266:.\Generated_Source\PSoC4/I2C_I2C_MASTER.c ****         else
 267:.\Generated_Source\PSoC4/I2C_I2C_MASTER.c ****         {
 268:.\Generated_Source\PSoC4/I2C_I2C_MASTER.c ****             /* Receive RX FIFO chunks */
 269:.\Generated_Source\PSoC4/I2C_I2C_MASTER.c ****             I2C_ENABLE_MASTER_AUTO_DATA_ACK;
 341              		.loc 1 269 0
 342 00b4 1A4B     		ldr	r3, .L21+40
 343 00b6 1A4A     		ldr	r2, .L21+40
 344 00b8 1268     		ldr	r2, [r2]
 345 00ba 8021     		mov	r1, #128
 346 00bc 4900     		lsl	r1, r1, #1
 347 00be 0A43     		orr	r2, r1
 348 00c0 1A60     		str	r2, [r3]
 270:.\Generated_Source\PSoC4/I2C_I2C_MASTER.c ****             I2C_SetRxInterruptMode(I2C_INTR_RX_FULL);
 349              		.loc 1 270 0
 350 00c2 164B     		ldr	r3, .L21+36
 351 00c4 0822     		mov	r2, #8
 352 00c6 1A60     		str	r2, [r3]
 353              	.L18:
 271:.\Generated_Source\PSoC4/I2C_I2C_MASTER.c ****         }
 272:.\Generated_Source\PSoC4/I2C_I2C_MASTER.c **** 
 273:.\Generated_Source\PSoC4/I2C_I2C_MASTER.c ****         /* Generate Start or ReStart */
 274:.\Generated_Source\PSoC4/I2C_I2C_MASTER.c ****         if(I2C_CHECK_I2C_MODE_RESTART(mode))
ARM GAS  C:\Users\Petro\AppData\Local\Temp\cc9Q5GcY.s 			page 12


 354              		.loc 1 274 0
 355 00c8 3B68     		ldr	r3, [r7]
 356 00ca 0122     		mov	r2, #1
 357 00cc 1340     		and	r3, r2
 358 00ce 05D0     		beq	.L19
 275:.\Generated_Source\PSoC4/I2C_I2C_MASTER.c ****         {
 276:.\Generated_Source\PSoC4/I2C_I2C_MASTER.c ****             I2C_I2C_MASTER_GENERATE_RESTART;
 359              		.loc 1 276 0
 360 00d0 FFF7FEFF 		bl	I2C_I2CReStartGeneration
 277:.\Generated_Source\PSoC4/I2C_I2C_MASTER.c ****             I2C_TX_FIFO_WR_REG = (slaveAddress);
 361              		.loc 1 277 0
 362 00d4 134B     		ldr	r3, .L21+44
 363 00d6 FA68     		ldr	r2, [r7, #12]
 364 00d8 1A60     		str	r2, [r3]
 365 00da 05E0     		b	.L16
 366              	.L19:
 278:.\Generated_Source\PSoC4/I2C_I2C_MASTER.c ****         }
 279:.\Generated_Source\PSoC4/I2C_I2C_MASTER.c ****         else
 280:.\Generated_Source\PSoC4/I2C_I2C_MASTER.c ****         {
 281:.\Generated_Source\PSoC4/I2C_I2C_MASTER.c ****             I2C_TX_FIFO_WR_REG = (slaveAddress);
 367              		.loc 1 281 0
 368 00dc 114B     		ldr	r3, .L21+44
 369 00de FA68     		ldr	r2, [r7, #12]
 370 00e0 1A60     		str	r2, [r3]
 282:.\Generated_Source\PSoC4/I2C_I2C_MASTER.c ****             I2C_I2C_MASTER_GENERATE_START;
 371              		.loc 1 282 0
 372 00e2 114B     		ldr	r3, .L21+48
 373 00e4 0222     		mov	r2, #2
 374 00e6 1A60     		str	r2, [r3]
 375              	.L16:
 283:.\Generated_Source\PSoC4/I2C_I2C_MASTER.c ****         }
 284:.\Generated_Source\PSoC4/I2C_I2C_MASTER.c ****     }
 285:.\Generated_Source\PSoC4/I2C_I2C_MASTER.c **** 
 286:.\Generated_Source\PSoC4/I2C_I2C_MASTER.c ****     I2C_EnableInt();   /* Release lock */
 376              		.loc 1 286 0
 377 00e8 0920     		mov	r0, #9
 378 00ea FFF7FEFF 		bl	CyIntEnable
 287:.\Generated_Source\PSoC4/I2C_I2C_MASTER.c **** 
 288:.\Generated_Source\PSoC4/I2C_I2C_MASTER.c ****     return(errStatus);
 379              		.loc 1 288 0
 380 00ee 7B69     		ldr	r3, [r7, #20]
 289:.\Generated_Source\PSoC4/I2C_I2C_MASTER.c **** }
 381              		.loc 1 289 0
 382 00f0 181C     		mov	r0, r3
 383 00f2 BD46     		mov	sp, r7
 384 00f4 06B0     		add	sp, sp, #24
 385              		@ sp needed
 386 00f6 80BD     		pop	{r7, pc}
 387              	.L22:
 388              		.align	2
 389              	.L21:
 390 00f8 00000000 		.word	I2C_state
 391 00fc 64002440 		.word	1076101220
 392 0100 00000000 		.word	I2C_mstrStatus
 393 0104 00000000 		.word	I2C_mstrRdBufIndex
 394 0108 00000000 		.word	I2C_mstrRdBufSize
 395 010c 00000000 		.word	I2C_mstrRdBufPtr
ARM GAS  C:\Users\Petro\AppData\Local\Temp\cc9Q5GcY.s 			page 13


 396 0110 00000000 		.word	I2C_mstrControl
 397 0114 000F2440 		.word	1076104960
 398 0118 17030000 		.word	791
 399 011c C80F2440 		.word	1076105160
 400 0120 60002440 		.word	1076101216
 401 0124 40022440 		.word	1076101696
 402 0128 68002440 		.word	1076101224
 403              		.cfi_endproc
 404              	.LFE3:
 405              		.size	I2C_I2CMasterReadBuf, .-I2C_I2CMasterReadBuf
 406              		.section	.text.I2C_I2CMasterSendStart,"ax",%progbits
 407              		.align	2
 408              		.global	I2C_I2CMasterSendStart
 409              		.code	16
 410              		.thumb_func
 411              		.type	I2C_I2CMasterSendStart, %function
 412              	I2C_I2CMasterSendStart:
 413              	.LFB4:
 290:.\Generated_Source\PSoC4/I2C_I2C_MASTER.c **** 
 291:.\Generated_Source\PSoC4/I2C_I2C_MASTER.c **** 
 292:.\Generated_Source\PSoC4/I2C_I2C_MASTER.c **** /*******************************************************************************
 293:.\Generated_Source\PSoC4/I2C_I2C_MASTER.c **** * Function Name: I2C_I2CMasterSendStart
 294:.\Generated_Source\PSoC4/I2C_I2C_MASTER.c **** ****************************************************************************//**
 295:.\Generated_Source\PSoC4/I2C_I2C_MASTER.c **** *
 296:.\Generated_Source\PSoC4/I2C_I2C_MASTER.c **** *  Generates Start condition and sends slave address with read/write bit.
 297:.\Generated_Source\PSoC4/I2C_I2C_MASTER.c **** *  Disables the I2C interrupt.
 298:.\Generated_Source\PSoC4/I2C_I2C_MASTER.c **** *  This function is blocking and does not return until start condition and
 299:.\Generated_Source\PSoC4/I2C_I2C_MASTER.c **** *  address byte are sent and ACK/NACK response is received or errors occurred.
 300:.\Generated_Source\PSoC4/I2C_I2C_MASTER.c **** *
 301:.\Generated_Source\PSoC4/I2C_I2C_MASTER.c **** * \param slaveAddress: Right justified 7-bit Slave address (valid range 
 302:.\Generated_Source\PSoC4/I2C_I2C_MASTER.c **** *  8 to 120).
 303:.\Generated_Source\PSoC4/I2C_I2C_MASTER.c **** * \param bitRnW: Direction of the following transfer. 
 304:.\Generated_Source\PSoC4/I2C_I2C_MASTER.c **** *  It is defined by read/write bit within address byte.
 305:.\Generated_Source\PSoC4/I2C_I2C_MASTER.c **** *  - I2C_I2C_WRITE_XFER_MODE - Set write direction for the 
 306:.\Generated_Source\PSoC4/I2C_I2C_MASTER.c **** *    following transfer.
 307:.\Generated_Source\PSoC4/I2C_I2C_MASTER.c **** *  - I2C_I2C_READ_XFER_MODE - Set read direction for the 
 308:.\Generated_Source\PSoC4/I2C_I2C_MASTER.c **** *    following transfer.
 309:.\Generated_Source\PSoC4/I2C_I2C_MASTER.c **** *
 310:.\Generated_Source\PSoC4/I2C_I2C_MASTER.c **** * \return
 311:.\Generated_Source\PSoC4/I2C_I2C_MASTER.c **** *  Error status.
 312:.\Generated_Source\PSoC4/I2C_I2C_MASTER.c **** *   - I2C_I2C_MSTR_NO_ERROR - Function complete without error.
 313:.\Generated_Source\PSoC4/I2C_I2C_MASTER.c **** *   - I2C_I2C_MSTR_BUS_BUSY - Bus is busy. 
 314:.\Generated_Source\PSoC4/I2C_I2C_MASTER.c **** *     Nothing was sent on the bus. The attempt has to be retried.
 315:.\Generated_Source\PSoC4/I2C_I2C_MASTER.c **** *   - I2C_I2C_MSTR_NOT_READY - Master is not ready for to 
 316:.\Generated_Source\PSoC4/I2C_I2C_MASTER.c **** *     start transfer.
 317:.\Generated_Source\PSoC4/I2C_I2C_MASTER.c **** *     A master still has not completed previous transaction or a slave 
 318:.\Generated_Source\PSoC4/I2C_I2C_MASTER.c **** *     operation is in progress (in multi-master-slave configuration).
 319:.\Generated_Source\PSoC4/I2C_I2C_MASTER.c **** *     Nothing was sent on the bus. The attempt has to be retried.
 320:.\Generated_Source\PSoC4/I2C_I2C_MASTER.c **** *   - I2C_I2C_MSTR_ERR_LB_NAK - Error condition: Last byte was 
 321:.\Generated_Source\PSoC4/I2C_I2C_MASTER.c **** *     NAKed.
 322:.\Generated_Source\PSoC4/I2C_I2C_MASTER.c **** *   - I2C_I2C_MSTR_ERR_ARB_LOST - Error condition: Master lost 
 323:.\Generated_Source\PSoC4/I2C_I2C_MASTER.c **** *     arbitration.
 324:.\Generated_Source\PSoC4/I2C_I2C_MASTER.c **** *   - I2C_I2C_MSTR_ERR_BUS_ERR - Error condition: Master 
 325:.\Generated_Source\PSoC4/I2C_I2C_MASTER.c **** *     encountered a bus error. Bus error is misplaced start or stop detection.
 326:.\Generated_Source\PSoC4/I2C_I2C_MASTER.c **** *   - I2C_I2C_MSTR_ERR_ABORT_START - Error condition: The start 
 327:.\Generated_Source\PSoC4/I2C_I2C_MASTER.c **** *     condition generation was aborted due to beginning of Slave operation. 
 328:.\Generated_Source\PSoC4/I2C_I2C_MASTER.c **** *     This error condition is only applicable for Multi-Master-Slave mode.
ARM GAS  C:\Users\Petro\AppData\Local\Temp\cc9Q5GcY.s 			page 14


 329:.\Generated_Source\PSoC4/I2C_I2C_MASTER.c **** *
 330:.\Generated_Source\PSoC4/I2C_I2C_MASTER.c **** * \globalvars
 331:.\Generated_Source\PSoC4/I2C_I2C_MASTER.c **** *  I2C_state - used to store current state of software FSM.
 332:.\Generated_Source\PSoC4/I2C_I2C_MASTER.c **** *
 333:.\Generated_Source\PSoC4/I2C_I2C_MASTER.c **** *******************************************************************************/
 334:.\Generated_Source\PSoC4/I2C_I2C_MASTER.c **** uint32 I2C_I2CMasterSendStart(uint32 slaveAddress, uint32 bitRnW)
 335:.\Generated_Source\PSoC4/I2C_I2C_MASTER.c **** {
 414              		.loc 1 335 0
 415              		.cfi_startproc
 416 0000 80B5     		push	{r7, lr}
 417              		.cfi_def_cfa_offset 8
 418              		.cfi_offset 7, -8
 419              		.cfi_offset 14, -4
 420 0002 84B0     		sub	sp, sp, #16
 421              		.cfi_def_cfa_offset 24
 422 0004 00AF     		add	r7, sp, #0
 423              		.cfi_def_cfa_register 7
 424 0006 7860     		str	r0, [r7, #4]
 425 0008 3960     		str	r1, [r7]
 336:.\Generated_Source\PSoC4/I2C_I2C_MASTER.c ****     uint32  resetIp;
 337:.\Generated_Source\PSoC4/I2C_I2C_MASTER.c ****     uint32 errStatus;
 338:.\Generated_Source\PSoC4/I2C_I2C_MASTER.c **** 
 339:.\Generated_Source\PSoC4/I2C_I2C_MASTER.c ****     resetIp   = 0u;
 426              		.loc 1 339 0
 427 000a 0023     		mov	r3, #0
 428 000c FB60     		str	r3, [r7, #12]
 340:.\Generated_Source\PSoC4/I2C_I2C_MASTER.c ****     errStatus = I2C_I2C_MSTR_NOT_READY;
 429              		.loc 1 340 0
 430 000e 0423     		mov	r3, #4
 431 0010 BB60     		str	r3, [r7, #8]
 341:.\Generated_Source\PSoC4/I2C_I2C_MASTER.c **** 
 342:.\Generated_Source\PSoC4/I2C_I2C_MASTER.c ****     /* Check FSM state before generating Start condition */
 343:.\Generated_Source\PSoC4/I2C_I2C_MASTER.c ****     if(I2C_CHECK_I2C_FSM_IDLE)
 432              		.loc 1 343 0
 433 0012 384B     		ldr	r3, .L34
 434 0014 1B78     		ldrb	r3, [r3]
 435 0016 DBB2     		uxtb	r3, r3
 436 0018 102B     		cmp	r3, #16
 437 001a 66D1     		bne	.L24
 344:.\Generated_Source\PSoC4/I2C_I2C_MASTER.c ****     {
 345:.\Generated_Source\PSoC4/I2C_I2C_MASTER.c ****         /* If bus is free, generate Start condition */
 346:.\Generated_Source\PSoC4/I2C_I2C_MASTER.c ****         if(I2C_CHECK_I2C_STATUS(I2C_I2C_STATUS_BUS_BUSY))
 438              		.loc 1 346 0
 439 001c 364B     		ldr	r3, .L34+4
 440 001e 1B68     		ldr	r3, [r3]
 441 0020 0122     		mov	r2, #1
 442 0022 1340     		and	r3, r2
 443 0024 02D0     		beq	.L25
 347:.\Generated_Source\PSoC4/I2C_I2C_MASTER.c ****         {
 348:.\Generated_Source\PSoC4/I2C_I2C_MASTER.c ****             errStatus = I2C_I2C_MSTR_BUS_BUSY;
 444              		.loc 1 348 0
 445 0026 0823     		mov	r3, #8
 446 0028 BB60     		str	r3, [r7, #8]
 447 002a 5EE0     		b	.L24
 448              	.L25:
 349:.\Generated_Source\PSoC4/I2C_I2C_MASTER.c ****         }
 350:.\Generated_Source\PSoC4/I2C_I2C_MASTER.c ****         else
ARM GAS  C:\Users\Petro\AppData\Local\Temp\cc9Q5GcY.s 			page 15


 351:.\Generated_Source\PSoC4/I2C_I2C_MASTER.c ****         {
 352:.\Generated_Source\PSoC4/I2C_I2C_MASTER.c ****             I2C_DisableInt();  /* Lock from interruption */
 449              		.loc 1 352 0
 450 002c 0920     		mov	r0, #9
 451 002e FFF7FEFF 		bl	CyIntDisable
 353:.\Generated_Source\PSoC4/I2C_I2C_MASTER.c **** 
 354:.\Generated_Source\PSoC4/I2C_I2C_MASTER.c ****         #if (!I2C_CY_SCBIP_V0 && \
 355:.\Generated_Source\PSoC4/I2C_I2C_MASTER.c ****             I2C_I2C_MULTI_MASTER_SLAVE_CONST && I2C_I2C_WAKE_ENABLE_CONST)
 356:.\Generated_Source\PSoC4/I2C_I2C_MASTER.c ****             I2C_I2CMasterDisableEcAm();
 357:.\Generated_Source\PSoC4/I2C_I2C_MASTER.c ****         #endif /* (!I2C_CY_SCBIP_V0) */
 358:.\Generated_Source\PSoC4/I2C_I2C_MASTER.c **** 
 359:.\Generated_Source\PSoC4/I2C_I2C_MASTER.c ****             slaveAddress = I2C_GET_I2C_8BIT_ADDRESS(slaveAddress);
 452              		.loc 1 359 0
 453 0032 7B68     		ldr	r3, [r7, #4]
 454 0034 5B00     		lsl	r3, r3, #1
 455 0036 FF22     		mov	r2, #255
 456 0038 1340     		and	r3, r2
 457 003a 7B60     		str	r3, [r7, #4]
 360:.\Generated_Source\PSoC4/I2C_I2C_MASTER.c **** 
 361:.\Generated_Source\PSoC4/I2C_I2C_MASTER.c ****             if(0u == bitRnW) /* Write direction */
 458              		.loc 1 361 0
 459 003c 3B68     		ldr	r3, [r7]
 460 003e 002B     		cmp	r3, #0
 461 0040 03D1     		bne	.L26
 362:.\Generated_Source\PSoC4/I2C_I2C_MASTER.c ****             {
 363:.\Generated_Source\PSoC4/I2C_I2C_MASTER.c ****                 I2C_state = I2C_I2C_FSM_MSTR_WR_DATA;
 462              		.loc 1 363 0
 463 0042 2C4B     		ldr	r3, .L34
 464 0044 2422     		mov	r2, #36
 465 0046 1A70     		strb	r2, [r3]
 466 0048 06E0     		b	.L27
 467              	.L26:
 364:.\Generated_Source\PSoC4/I2C_I2C_MASTER.c ****             }
 365:.\Generated_Source\PSoC4/I2C_I2C_MASTER.c ****             else /* Read direction */
 366:.\Generated_Source\PSoC4/I2C_I2C_MASTER.c ****             {
 367:.\Generated_Source\PSoC4/I2C_I2C_MASTER.c ****                 I2C_state = I2C_I2C_FSM_MSTR_RD_DATA;
 468              		.loc 1 367 0
 469 004a 2A4B     		ldr	r3, .L34
 470 004c 2522     		mov	r2, #37
 471 004e 1A70     		strb	r2, [r3]
 368:.\Generated_Source\PSoC4/I2C_I2C_MASTER.c ****                          slaveAddress |= I2C_I2C_READ_FLAG;
 472              		.loc 1 368 0
 473 0050 7B68     		ldr	r3, [r7, #4]
 474 0052 0122     		mov	r2, #1
 475 0054 1343     		orr	r3, r2
 476 0056 7B60     		str	r3, [r7, #4]
 477              	.L27:
 369:.\Generated_Source\PSoC4/I2C_I2C_MASTER.c ****             }
 370:.\Generated_Source\PSoC4/I2C_I2C_MASTER.c **** 
 371:.\Generated_Source\PSoC4/I2C_I2C_MASTER.c ****             /* TX and RX FIFO have to be EMPTY */
 372:.\Generated_Source\PSoC4/I2C_I2C_MASTER.c **** 
 373:.\Generated_Source\PSoC4/I2C_I2C_MASTER.c ****             I2C_TX_FIFO_WR_REG = slaveAddress; /* Put address in TX FIFO */
 478              		.loc 1 373 0
 479 0058 284B     		ldr	r3, .L34+8
 480 005a 7A68     		ldr	r2, [r7, #4]
 481 005c 1A60     		str	r2, [r3]
 374:.\Generated_Source\PSoC4/I2C_I2C_MASTER.c ****             I2C_ClearMasterInterruptSource(I2C_INTR_MASTER_ALL);
ARM GAS  C:\Users\Petro\AppData\Local\Temp\cc9Q5GcY.s 			page 16


 482              		.loc 1 374 0
 483 005e 284B     		ldr	r3, .L34+12
 484 0060 284A     		ldr	r2, .L34+16
 485 0062 1A60     		str	r2, [r3]
 375:.\Generated_Source\PSoC4/I2C_I2C_MASTER.c **** 
 376:.\Generated_Source\PSoC4/I2C_I2C_MASTER.c ****             I2C_I2C_MASTER_GENERATE_START;
 486              		.loc 1 376 0
 487 0064 284B     		ldr	r3, .L34+20
 488 0066 0222     		mov	r2, #2
 489 0068 1A60     		str	r2, [r3]
 377:.\Generated_Source\PSoC4/I2C_I2C_MASTER.c **** 
 378:.\Generated_Source\PSoC4/I2C_I2C_MASTER.c **** 
 379:.\Generated_Source\PSoC4/I2C_I2C_MASTER.c ****             while(!I2C_CHECK_INTR_MASTER(I2C_INTR_MASTER_I2C_ACK      |
 490              		.loc 1 379 0
 491 006a C046     		mov	r8, r8
 492              	.L28:
 493              		.loc 1 379 0 is_stmt 0 discriminator 1
 494 006c 244B     		ldr	r3, .L34+12
 495 006e 1A68     		ldr	r2, [r3]
 496 0070 0823     		mov	r3, #8
 497 0072 FF33     		add	r3, r3, #255
 498 0074 1340     		and	r3, r2
 499 0076 F9D0     		beq	.L28
 380:.\Generated_Source\PSoC4/I2C_I2C_MASTER.c ****                                                       I2C_INTR_MASTER_I2C_NACK     |
 381:.\Generated_Source\PSoC4/I2C_I2C_MASTER.c ****                                                       I2C_INTR_MASTER_I2C_ARB_LOST |
 382:.\Generated_Source\PSoC4/I2C_I2C_MASTER.c ****                                                       I2C_INTR_MASTER_I2C_BUS_ERROR))
 383:.\Generated_Source\PSoC4/I2C_I2C_MASTER.c ****             {
 384:.\Generated_Source\PSoC4/I2C_I2C_MASTER.c ****                 /*
 385:.\Generated_Source\PSoC4/I2C_I2C_MASTER.c ****                 * Write: wait until address has been transferred
 386:.\Generated_Source\PSoC4/I2C_I2C_MASTER.c ****                 * Read : wait until address has been transferred, data byte is going to RX FIFO as 
 387:.\Generated_Source\PSoC4/I2C_I2C_MASTER.c ****                 */
 388:.\Generated_Source\PSoC4/I2C_I2C_MASTER.c ****             }
 389:.\Generated_Source\PSoC4/I2C_I2C_MASTER.c **** 
 390:.\Generated_Source\PSoC4/I2C_I2C_MASTER.c ****             /* Check the results of the address phase */
 391:.\Generated_Source\PSoC4/I2C_I2C_MASTER.c ****             if(I2C_CHECK_INTR_MASTER(I2C_INTR_MASTER_I2C_ACK))
 500              		.loc 1 391 0 is_stmt 1
 501 0078 214B     		ldr	r3, .L34+12
 502 007a 1B68     		ldr	r3, [r3]
 503 007c 0422     		mov	r2, #4
 504 007e 1340     		and	r3, r2
 505 0080 02D0     		beq	.L29
 392:.\Generated_Source\PSoC4/I2C_I2C_MASTER.c ****             {
 393:.\Generated_Source\PSoC4/I2C_I2C_MASTER.c ****                 errStatus = I2C_I2C_MSTR_NO_ERROR;
 506              		.loc 1 393 0
 507 0082 0023     		mov	r3, #0
 508 0084 BB60     		str	r3, [r7, #8]
 509 0086 1CE0     		b	.L30
 510              	.L29:
 394:.\Generated_Source\PSoC4/I2C_I2C_MASTER.c ****             }
 395:.\Generated_Source\PSoC4/I2C_I2C_MASTER.c ****             else if(I2C_CHECK_INTR_MASTER(I2C_INTR_MASTER_I2C_NACK))
 511              		.loc 1 395 0
 512 0088 1D4B     		ldr	r3, .L34+12
 513 008a 1B68     		ldr	r3, [r3]
 514 008c 0222     		mov	r2, #2
 515 008e 1340     		and	r3, r2
 516 0090 02D0     		beq	.L31
 396:.\Generated_Source\PSoC4/I2C_I2C_MASTER.c ****             {
ARM GAS  C:\Users\Petro\AppData\Local\Temp\cc9Q5GcY.s 			page 17


 397:.\Generated_Source\PSoC4/I2C_I2C_MASTER.c ****                 errStatus = I2C_I2C_MSTR_ERR_LB_NAK;
 517              		.loc 1 397 0
 518 0092 0223     		mov	r3, #2
 519 0094 BB60     		str	r3, [r7, #8]
 520 0096 14E0     		b	.L30
 521              	.L31:
 398:.\Generated_Source\PSoC4/I2C_I2C_MASTER.c ****             }
 399:.\Generated_Source\PSoC4/I2C_I2C_MASTER.c ****             else if(I2C_CHECK_INTR_MASTER(I2C_INTR_MASTER_I2C_ARB_LOST))
 522              		.loc 1 399 0
 523 0098 194B     		ldr	r3, .L34+12
 524 009a 1B68     		ldr	r3, [r3]
 525 009c 0122     		mov	r2, #1
 526 009e 1340     		and	r3, r2
 527 00a0 07D0     		beq	.L32
 400:.\Generated_Source\PSoC4/I2C_I2C_MASTER.c ****             {
 401:.\Generated_Source\PSoC4/I2C_I2C_MASTER.c ****                 I2C_state = I2C_I2C_FSM_IDLE;
 528              		.loc 1 401 0
 529 00a2 144B     		ldr	r3, .L34
 530 00a4 1022     		mov	r2, #16
 531 00a6 1A70     		strb	r2, [r3]
 402:.\Generated_Source\PSoC4/I2C_I2C_MASTER.c ****                              errStatus = I2C_I2C_MSTR_ERR_ARB_LOST;
 532              		.loc 1 402 0
 533 00a8 0123     		mov	r3, #1
 534 00aa BB60     		str	r3, [r7, #8]
 403:.\Generated_Source\PSoC4/I2C_I2C_MASTER.c ****                              resetIp   = I2C_I2C_RESET_ERROR;
 535              		.loc 1 403 0
 536 00ac 0123     		mov	r3, #1
 537 00ae FB60     		str	r3, [r7, #12]
 538 00b0 07E0     		b	.L30
 539              	.L32:
 404:.\Generated_Source\PSoC4/I2C_I2C_MASTER.c ****             }
 405:.\Generated_Source\PSoC4/I2C_I2C_MASTER.c ****             else /* I2C_INTR_MASTER_I2C_BUS_ERROR set is else condition */
 406:.\Generated_Source\PSoC4/I2C_I2C_MASTER.c ****             {
 407:.\Generated_Source\PSoC4/I2C_I2C_MASTER.c ****                 I2C_state = I2C_I2C_FSM_IDLE;
 540              		.loc 1 407 0
 541 00b2 104B     		ldr	r3, .L34
 542 00b4 1022     		mov	r2, #16
 543 00b6 1A70     		strb	r2, [r3]
 408:.\Generated_Source\PSoC4/I2C_I2C_MASTER.c ****                              errStatus = I2C_I2C_MSTR_ERR_BUS_ERR;
 544              		.loc 1 408 0
 545 00b8 8023     		mov	r3, #128
 546 00ba 5B00     		lsl	r3, r3, #1
 547 00bc BB60     		str	r3, [r7, #8]
 409:.\Generated_Source\PSoC4/I2C_I2C_MASTER.c ****                              resetIp   = I2C_I2C_RESET_ERROR;
 548              		.loc 1 409 0
 549 00be 0123     		mov	r3, #1
 550 00c0 FB60     		str	r3, [r7, #12]
 551              	.L30:
 410:.\Generated_Source\PSoC4/I2C_I2C_MASTER.c ****             }
 411:.\Generated_Source\PSoC4/I2C_I2C_MASTER.c **** 
 412:.\Generated_Source\PSoC4/I2C_I2C_MASTER.c ****             I2C_ClearMasterInterruptSource(I2C_INTR_MASTER_I2C_ACK      |
 552              		.loc 1 412 0
 553 00c2 0F4B     		ldr	r3, .L34+12
 554 00c4 0822     		mov	r2, #8
 555 00c6 FF32     		add	r2, r2, #255
 556 00c8 1A60     		str	r2, [r3]
 413:.\Generated_Source\PSoC4/I2C_I2C_MASTER.c ****                                                         I2C_INTR_MASTER_I2C_NACK     |
ARM GAS  C:\Users\Petro\AppData\Local\Temp\cc9Q5GcY.s 			page 18


 414:.\Generated_Source\PSoC4/I2C_I2C_MASTER.c ****                                                         I2C_INTR_MASTER_I2C_ARB_LOST |
 415:.\Generated_Source\PSoC4/I2C_I2C_MASTER.c ****                                                         I2C_INTR_MASTER_I2C_BUS_ERROR);
 416:.\Generated_Source\PSoC4/I2C_I2C_MASTER.c **** 
 417:.\Generated_Source\PSoC4/I2C_I2C_MASTER.c ****             /* Reset block in case of: LOST_ARB or BUS_ERR */
 418:.\Generated_Source\PSoC4/I2C_I2C_MASTER.c ****             if(0u != resetIp)
 557              		.loc 1 418 0
 558 00ca FB68     		ldr	r3, [r7, #12]
 559 00cc 002B     		cmp	r3, #0
 560 00ce 0CD0     		beq	.L24
 419:.\Generated_Source\PSoC4/I2C_I2C_MASTER.c ****             {
 420:.\Generated_Source\PSoC4/I2C_I2C_MASTER.c ****                 I2C_SCB_SW_RESET;
 561              		.loc 1 420 0
 562 00d0 0E4B     		ldr	r3, .L34+24
 563 00d2 0E4A     		ldr	r2, .L34+24
 564 00d4 1268     		ldr	r2, [r2]
 565 00d6 5200     		lsl	r2, r2, #1
 566 00d8 5208     		lsr	r2, r2, #1
 567 00da 1A60     		str	r2, [r3]
 568 00dc 0B4B     		ldr	r3, .L34+24
 569 00de 0B4A     		ldr	r2, .L34+24
 570 00e0 1268     		ldr	r2, [r2]
 571 00e2 8021     		mov	r1, #128
 572 00e4 0906     		lsl	r1, r1, #24
 573 00e6 0A43     		orr	r2, r1
 574 00e8 1A60     		str	r2, [r3]
 575              	.L24:
 421:.\Generated_Source\PSoC4/I2C_I2C_MASTER.c ****             }
 422:.\Generated_Source\PSoC4/I2C_I2C_MASTER.c ****         }
 423:.\Generated_Source\PSoC4/I2C_I2C_MASTER.c ****     }
 424:.\Generated_Source\PSoC4/I2C_I2C_MASTER.c **** 
 425:.\Generated_Source\PSoC4/I2C_I2C_MASTER.c ****     return(errStatus);
 576              		.loc 1 425 0
 577 00ea BB68     		ldr	r3, [r7, #8]
 426:.\Generated_Source\PSoC4/I2C_I2C_MASTER.c **** }
 578              		.loc 1 426 0
 579 00ec 181C     		mov	r0, r3
 580 00ee BD46     		mov	sp, r7
 581 00f0 04B0     		add	sp, sp, #16
 582              		@ sp needed
 583 00f2 80BD     		pop	{r7, pc}
 584              	.L35:
 585              		.align	2
 586              	.L34:
 587 00f4 00000000 		.word	I2C_state
 588 00f8 64002440 		.word	1076101220
 589 00fc 40022440 		.word	1076101696
 590 0100 000F2440 		.word	1076104960
 591 0104 17030000 		.word	791
 592 0108 68002440 		.word	1076101224
 593 010c 00002440 		.word	1076101120
 594              		.cfi_endproc
 595              	.LFE4:
 596              		.size	I2C_I2CMasterSendStart, .-I2C_I2CMasterSendStart
 597              		.section	.text.I2C_I2CMasterSendRestart,"ax",%progbits
 598              		.align	2
 599              		.global	I2C_I2CMasterSendRestart
 600              		.code	16
ARM GAS  C:\Users\Petro\AppData\Local\Temp\cc9Q5GcY.s 			page 19


 601              		.thumb_func
 602              		.type	I2C_I2CMasterSendRestart, %function
 603              	I2C_I2CMasterSendRestart:
 604              	.LFB5:
 427:.\Generated_Source\PSoC4/I2C_I2C_MASTER.c **** 
 428:.\Generated_Source\PSoC4/I2C_I2C_MASTER.c **** 
 429:.\Generated_Source\PSoC4/I2C_I2C_MASTER.c **** /*******************************************************************************
 430:.\Generated_Source\PSoC4/I2C_I2C_MASTER.c **** * Function Name: I2C_I2CMasterSendRestart
 431:.\Generated_Source\PSoC4/I2C_I2C_MASTER.c **** ****************************************************************************//**
 432:.\Generated_Source\PSoC4/I2C_I2C_MASTER.c **** *
 433:.\Generated_Source\PSoC4/I2C_I2C_MASTER.c **** *  Generates Restart condition and sends slave address with read/write bit.
 434:.\Generated_Source\PSoC4/I2C_I2C_MASTER.c **** *  This function is blocking and does not return until start condition and
 435:.\Generated_Source\PSoC4/I2C_I2C_MASTER.c **** *  address are sent and ACK/NACK response is received or errors occurred.
 436:.\Generated_Source\PSoC4/I2C_I2C_MASTER.c **** *
 437:.\Generated_Source\PSoC4/I2C_I2C_MASTER.c **** * \param slaveAddress: Right justified 7-bit Slave address (valid range 
 438:.\Generated_Source\PSoC4/I2C_I2C_MASTER.c **** *   8 to 120).
 439:.\Generated_Source\PSoC4/I2C_I2C_MASTER.c **** * \param bitRnW: Direction of the following transfer. It is defined by 
 440:.\Generated_Source\PSoC4/I2C_I2C_MASTER.c **** *  read/write bit within address byte. 
 441:.\Generated_Source\PSoC4/I2C_I2C_MASTER.c **** *  See I2C_I2CMasterSendStart() function for constants.
 442:.\Generated_Source\PSoC4/I2C_I2C_MASTER.c **** *
 443:.\Generated_Source\PSoC4/I2C_I2C_MASTER.c **** * \return
 444:.\Generated_Source\PSoC4/I2C_I2C_MASTER.c **** *  Error status. 
 445:.\Generated_Source\PSoC4/I2C_I2C_MASTER.c **** *  See I2C_I2CMasterSendStart() function for constants.
 446:.\Generated_Source\PSoC4/I2C_I2C_MASTER.c **** *
 447:.\Generated_Source\PSoC4/I2C_I2C_MASTER.c **** * \sideeffect
 448:.\Generated_Source\PSoC4/I2C_I2C_MASTER.c **** *  A valid Start or ReStart condition must be generated before calling 
 449:.\Generated_Source\PSoC4/I2C_I2C_MASTER.c **** *  this function. This function does nothing if Start or ReStart conditions 
 450:.\Generated_Source\PSoC4/I2C_I2C_MASTER.c **** *  failed before this function was called.
 451:.\Generated_Source\PSoC4/I2C_I2C_MASTER.c **** *  For read transaction, at least one byte has to be read before ReStart 
 452:.\Generated_Source\PSoC4/I2C_I2C_MASTER.c **** *  generation.
 453:.\Generated_Source\PSoC4/I2C_I2C_MASTER.c **** *
 454:.\Generated_Source\PSoC4/I2C_I2C_MASTER.c **** * \globalvars
 455:.\Generated_Source\PSoC4/I2C_I2C_MASTER.c **** *  I2C_state - used to store current state of software FSM.
 456:.\Generated_Source\PSoC4/I2C_I2C_MASTER.c **** *
 457:.\Generated_Source\PSoC4/I2C_I2C_MASTER.c **** *******************************************************************************/
 458:.\Generated_Source\PSoC4/I2C_I2C_MASTER.c **** uint32 I2C_I2CMasterSendRestart(uint32 slaveAddress, uint32 bitRnW)
 459:.\Generated_Source\PSoC4/I2C_I2C_MASTER.c **** {
 605              		.loc 1 459 0
 606              		.cfi_startproc
 607 0000 80B5     		push	{r7, lr}
 608              		.cfi_def_cfa_offset 8
 609              		.cfi_offset 7, -8
 610              		.cfi_offset 14, -4
 611 0002 84B0     		sub	sp, sp, #16
 612              		.cfi_def_cfa_offset 24
 613 0004 00AF     		add	r7, sp, #0
 614              		.cfi_def_cfa_register 7
 615 0006 7860     		str	r0, [r7, #4]
 616 0008 3960     		str	r1, [r7]
 460:.\Generated_Source\PSoC4/I2C_I2C_MASTER.c ****     uint32 resetIp;
 461:.\Generated_Source\PSoC4/I2C_I2C_MASTER.c ****     uint32 errStatus;
 462:.\Generated_Source\PSoC4/I2C_I2C_MASTER.c **** 
 463:.\Generated_Source\PSoC4/I2C_I2C_MASTER.c ****     resetIp   = 0u;
 617              		.loc 1 463 0
 618 000a 0023     		mov	r3, #0
 619 000c FB60     		str	r3, [r7, #12]
 464:.\Generated_Source\PSoC4/I2C_I2C_MASTER.c ****     errStatus = I2C_I2C_MSTR_NOT_READY;
ARM GAS  C:\Users\Petro\AppData\Local\Temp\cc9Q5GcY.s 			page 20


 620              		.loc 1 464 0
 621 000e 0423     		mov	r3, #4
 622 0010 BB60     		str	r3, [r7, #8]
 465:.\Generated_Source\PSoC4/I2C_I2C_MASTER.c **** 
 466:.\Generated_Source\PSoC4/I2C_I2C_MASTER.c ****     /* Check FSM state before generating ReStart condition */
 467:.\Generated_Source\PSoC4/I2C_I2C_MASTER.c ****     if(I2C_CHECK_I2C_MASTER_ACTIVE)
 623              		.loc 1 467 0
 624 0012 374B     		ldr	r3, .L47
 625 0014 1B78     		ldrb	r3, [r3]
 626 0016 DBB2     		uxtb	r3, r3
 627 0018 2022     		mov	r2, #32
 628 001a 1340     		and	r3, r2
 629 001c DBB2     		uxtb	r3, r3
 630 001e 002B     		cmp	r3, #0
 631 0020 60D0     		beq	.L37
 468:.\Generated_Source\PSoC4/I2C_I2C_MASTER.c ****     {
 469:.\Generated_Source\PSoC4/I2C_I2C_MASTER.c ****         slaveAddress = I2C_GET_I2C_8BIT_ADDRESS(slaveAddress);
 632              		.loc 1 469 0
 633 0022 7B68     		ldr	r3, [r7, #4]
 634 0024 5B00     		lsl	r3, r3, #1
 635 0026 FF22     		mov	r2, #255
 636 0028 1340     		and	r3, r2
 637 002a 7B60     		str	r3, [r7, #4]
 470:.\Generated_Source\PSoC4/I2C_I2C_MASTER.c **** 
 471:.\Generated_Source\PSoC4/I2C_I2C_MASTER.c ****         if(0u == bitRnW) /* Write direction */
 638              		.loc 1 471 0
 639 002c 3B68     		ldr	r3, [r7]
 640 002e 002B     		cmp	r3, #0
 641 0030 03D1     		bne	.L38
 472:.\Generated_Source\PSoC4/I2C_I2C_MASTER.c ****         {
 473:.\Generated_Source\PSoC4/I2C_I2C_MASTER.c ****             I2C_state = I2C_I2C_FSM_MSTR_WR_DATA;
 642              		.loc 1 473 0
 643 0032 2F4B     		ldr	r3, .L47
 644 0034 2422     		mov	r2, #36
 645 0036 1A70     		strb	r2, [r3]
 646 0038 06E0     		b	.L39
 647              	.L38:
 474:.\Generated_Source\PSoC4/I2C_I2C_MASTER.c ****         }
 475:.\Generated_Source\PSoC4/I2C_I2C_MASTER.c ****         else  /* Read direction */
 476:.\Generated_Source\PSoC4/I2C_I2C_MASTER.c ****         {
 477:.\Generated_Source\PSoC4/I2C_I2C_MASTER.c ****             I2C_state  = I2C_I2C_FSM_MSTR_RD_DATA;
 648              		.loc 1 477 0
 649 003a 2D4B     		ldr	r3, .L47
 650 003c 2522     		mov	r2, #37
 651 003e 1A70     		strb	r2, [r3]
 478:.\Generated_Source\PSoC4/I2C_I2C_MASTER.c ****                       slaveAddress |= I2C_I2C_READ_FLAG;
 652              		.loc 1 478 0
 653 0040 7B68     		ldr	r3, [r7, #4]
 654 0042 0122     		mov	r2, #1
 655 0044 1343     		orr	r3, r2
 656 0046 7B60     		str	r3, [r7, #4]
 657              	.L39:
 479:.\Generated_Source\PSoC4/I2C_I2C_MASTER.c ****         }
 480:.\Generated_Source\PSoC4/I2C_I2C_MASTER.c **** 
 481:.\Generated_Source\PSoC4/I2C_I2C_MASTER.c ****         /* TX and RX FIFO have to be EMPTY */
 482:.\Generated_Source\PSoC4/I2C_I2C_MASTER.c **** 
 483:.\Generated_Source\PSoC4/I2C_I2C_MASTER.c ****         /* Clean-up interrupt status */
ARM GAS  C:\Users\Petro\AppData\Local\Temp\cc9Q5GcY.s 			page 21


 484:.\Generated_Source\PSoC4/I2C_I2C_MASTER.c ****         I2C_ClearMasterInterruptSource(I2C_INTR_MASTER_ALL);
 658              		.loc 1 484 0
 659 0048 2A4B     		ldr	r3, .L47+4
 660 004a 2B4A     		ldr	r2, .L47+8
 661 004c 1A60     		str	r2, [r3]
 485:.\Generated_Source\PSoC4/I2C_I2C_MASTER.c **** 
 486:.\Generated_Source\PSoC4/I2C_I2C_MASTER.c ****         /* A proper ReStart sequence is: generate ReStart, then put an address byte in the TX FIFO.
 487:.\Generated_Source\PSoC4/I2C_I2C_MASTER.c ****         * Otherwise the master treats the address in the TX FIFO as a data byte if a previous trans
 488:.\Generated_Source\PSoC4/I2C_I2C_MASTER.c ****         * The write transfer continues instead of ReStart.
 489:.\Generated_Source\PSoC4/I2C_I2C_MASTER.c ****         */
 490:.\Generated_Source\PSoC4/I2C_I2C_MASTER.c ****         I2C_I2C_MASTER_GENERATE_RESTART;
 662              		.loc 1 490 0
 663 004e FFF7FEFF 		bl	I2C_I2CReStartGeneration
 491:.\Generated_Source\PSoC4/I2C_I2C_MASTER.c **** 
 492:.\Generated_Source\PSoC4/I2C_I2C_MASTER.c ****         while(I2C_CHECK_I2C_MASTER_CMD(I2C_I2C_MASTER_CMD_M_START))
 664              		.loc 1 492 0
 665 0052 C046     		mov	r8, r8
 666              	.L40:
 667              		.loc 1 492 0 is_stmt 0 discriminator 1
 668 0054 294B     		ldr	r3, .L47+12
 669 0056 1B68     		ldr	r3, [r3]
 670 0058 0122     		mov	r2, #1
 671 005a 1340     		and	r3, r2
 672 005c FAD1     		bne	.L40
 493:.\Generated_Source\PSoC4/I2C_I2C_MASTER.c ****         {
 494:.\Generated_Source\PSoC4/I2C_I2C_MASTER.c ****             /* Wait until ReStart has been generated */
 495:.\Generated_Source\PSoC4/I2C_I2C_MASTER.c ****         }
 496:.\Generated_Source\PSoC4/I2C_I2C_MASTER.c **** 
 497:.\Generated_Source\PSoC4/I2C_I2C_MASTER.c ****         /* Put address into TX FIFO */
 498:.\Generated_Source\PSoC4/I2C_I2C_MASTER.c ****         I2C_TX_FIFO_WR_REG = slaveAddress;
 673              		.loc 1 498 0 is_stmt 1
 674 005e 284B     		ldr	r3, .L47+16
 675 0060 7A68     		ldr	r2, [r7, #4]
 676 0062 1A60     		str	r2, [r3]
 499:.\Generated_Source\PSoC4/I2C_I2C_MASTER.c **** 
 500:.\Generated_Source\PSoC4/I2C_I2C_MASTER.c ****         /* Wait for address to be transferred */
 501:.\Generated_Source\PSoC4/I2C_I2C_MASTER.c ****         while(!I2C_CHECK_INTR_MASTER(I2C_INTR_MASTER_I2C_ACK      |
 677              		.loc 1 501 0
 678 0064 C046     		mov	r8, r8
 679              	.L41:
 680              		.loc 1 501 0 is_stmt 0 discriminator 1
 681 0066 234B     		ldr	r3, .L47+4
 682 0068 1A68     		ldr	r2, [r3]
 683 006a 0823     		mov	r3, #8
 684 006c FF33     		add	r3, r3, #255
 685 006e 1340     		and	r3, r2
 686 0070 F9D0     		beq	.L41
 502:.\Generated_Source\PSoC4/I2C_I2C_MASTER.c ****                                                   I2C_INTR_MASTER_I2C_NACK     |
 503:.\Generated_Source\PSoC4/I2C_I2C_MASTER.c ****                                                   I2C_INTR_MASTER_I2C_ARB_LOST |
 504:.\Generated_Source\PSoC4/I2C_I2C_MASTER.c ****                                                   I2C_INTR_MASTER_I2C_BUS_ERROR))
 505:.\Generated_Source\PSoC4/I2C_I2C_MASTER.c ****         {
 506:.\Generated_Source\PSoC4/I2C_I2C_MASTER.c ****             /* Wait until address has been transferred */
 507:.\Generated_Source\PSoC4/I2C_I2C_MASTER.c ****         }
 508:.\Generated_Source\PSoC4/I2C_I2C_MASTER.c **** 
 509:.\Generated_Source\PSoC4/I2C_I2C_MASTER.c ****         /* Check results of address phase */
 510:.\Generated_Source\PSoC4/I2C_I2C_MASTER.c ****         if(I2C_CHECK_INTR_MASTER(I2C_INTR_MASTER_I2C_ACK))
 687              		.loc 1 510 0 is_stmt 1
ARM GAS  C:\Users\Petro\AppData\Local\Temp\cc9Q5GcY.s 			page 22


 688 0072 204B     		ldr	r3, .L47+4
 689 0074 1B68     		ldr	r3, [r3]
 690 0076 0422     		mov	r2, #4
 691 0078 1340     		and	r3, r2
 692 007a 02D0     		beq	.L42
 511:.\Generated_Source\PSoC4/I2C_I2C_MASTER.c ****         {
 512:.\Generated_Source\PSoC4/I2C_I2C_MASTER.c ****             errStatus = I2C_I2C_MSTR_NO_ERROR;
 693              		.loc 1 512 0
 694 007c 0023     		mov	r3, #0
 695 007e BB60     		str	r3, [r7, #8]
 696 0080 1CE0     		b	.L43
 697              	.L42:
 513:.\Generated_Source\PSoC4/I2C_I2C_MASTER.c ****         }
 514:.\Generated_Source\PSoC4/I2C_I2C_MASTER.c ****         else if(I2C_CHECK_INTR_MASTER(I2C_INTR_MASTER_I2C_NACK))
 698              		.loc 1 514 0
 699 0082 1C4B     		ldr	r3, .L47+4
 700 0084 1B68     		ldr	r3, [r3]
 701 0086 0222     		mov	r2, #2
 702 0088 1340     		and	r3, r2
 703 008a 02D0     		beq	.L44
 515:.\Generated_Source\PSoC4/I2C_I2C_MASTER.c ****         {
 516:.\Generated_Source\PSoC4/I2C_I2C_MASTER.c ****              errStatus = I2C_I2C_MSTR_ERR_LB_NAK;
 704              		.loc 1 516 0
 705 008c 0223     		mov	r3, #2
 706 008e BB60     		str	r3, [r7, #8]
 707 0090 14E0     		b	.L43
 708              	.L44:
 517:.\Generated_Source\PSoC4/I2C_I2C_MASTER.c ****         }
 518:.\Generated_Source\PSoC4/I2C_I2C_MASTER.c ****         else if(I2C_CHECK_INTR_MASTER(I2C_INTR_MASTER_I2C_ARB_LOST))
 709              		.loc 1 518 0
 710 0092 184B     		ldr	r3, .L47+4
 711 0094 1B68     		ldr	r3, [r3]
 712 0096 0122     		mov	r2, #1
 713 0098 1340     		and	r3, r2
 714 009a 07D0     		beq	.L45
 519:.\Generated_Source\PSoC4/I2C_I2C_MASTER.c ****         {
 520:.\Generated_Source\PSoC4/I2C_I2C_MASTER.c ****             I2C_state = I2C_I2C_FSM_IDLE;
 715              		.loc 1 520 0
 716 009c 144B     		ldr	r3, .L47
 717 009e 1022     		mov	r2, #16
 718 00a0 1A70     		strb	r2, [r3]
 521:.\Generated_Source\PSoC4/I2C_I2C_MASTER.c ****                          errStatus = I2C_I2C_MSTR_ERR_ARB_LOST;
 719              		.loc 1 521 0
 720 00a2 0123     		mov	r3, #1
 721 00a4 BB60     		str	r3, [r7, #8]
 522:.\Generated_Source\PSoC4/I2C_I2C_MASTER.c ****                          resetIp   = I2C_I2C_RESET_ERROR;
 722              		.loc 1 522 0
 723 00a6 0123     		mov	r3, #1
 724 00a8 FB60     		str	r3, [r7, #12]
 725 00aa 07E0     		b	.L43
 726              	.L45:
 523:.\Generated_Source\PSoC4/I2C_I2C_MASTER.c ****         }
 524:.\Generated_Source\PSoC4/I2C_I2C_MASTER.c ****         else /* I2C_INTR_MASTER_I2C_BUS_ERROR set is else condition */
 525:.\Generated_Source\PSoC4/I2C_I2C_MASTER.c ****         {
 526:.\Generated_Source\PSoC4/I2C_I2C_MASTER.c ****             I2C_state = I2C_I2C_FSM_IDLE;
 727              		.loc 1 526 0
 728 00ac 104B     		ldr	r3, .L47
ARM GAS  C:\Users\Petro\AppData\Local\Temp\cc9Q5GcY.s 			page 23


 729 00ae 1022     		mov	r2, #16
 730 00b0 1A70     		strb	r2, [r3]
 527:.\Generated_Source\PSoC4/I2C_I2C_MASTER.c ****                          errStatus = I2C_I2C_MSTR_ERR_BUS_ERR;
 731              		.loc 1 527 0
 732 00b2 8023     		mov	r3, #128
 733 00b4 5B00     		lsl	r3, r3, #1
 734 00b6 BB60     		str	r3, [r7, #8]
 528:.\Generated_Source\PSoC4/I2C_I2C_MASTER.c ****                          resetIp   = I2C_I2C_RESET_ERROR;
 735              		.loc 1 528 0
 736 00b8 0123     		mov	r3, #1
 737 00ba FB60     		str	r3, [r7, #12]
 738              	.L43:
 529:.\Generated_Source\PSoC4/I2C_I2C_MASTER.c ****         }
 530:.\Generated_Source\PSoC4/I2C_I2C_MASTER.c **** 
 531:.\Generated_Source\PSoC4/I2C_I2C_MASTER.c ****         I2C_ClearMasterInterruptSource(I2C_INTR_MASTER_I2C_ACK      |
 739              		.loc 1 531 0
 740 00bc 0D4B     		ldr	r3, .L47+4
 741 00be 0822     		mov	r2, #8
 742 00c0 FF32     		add	r2, r2, #255
 743 00c2 1A60     		str	r2, [r3]
 532:.\Generated_Source\PSoC4/I2C_I2C_MASTER.c ****                                                     I2C_INTR_MASTER_I2C_NACK     |
 533:.\Generated_Source\PSoC4/I2C_I2C_MASTER.c ****                                                     I2C_INTR_MASTER_I2C_ARB_LOST |
 534:.\Generated_Source\PSoC4/I2C_I2C_MASTER.c ****                                                     I2C_INTR_MASTER_I2C_BUS_ERROR);
 535:.\Generated_Source\PSoC4/I2C_I2C_MASTER.c **** 
 536:.\Generated_Source\PSoC4/I2C_I2C_MASTER.c ****         /* Reset block in case of: LOST_ARB or BUS_ERR */
 537:.\Generated_Source\PSoC4/I2C_I2C_MASTER.c ****         if(0u != resetIp)
 744              		.loc 1 537 0
 745 00c4 FB68     		ldr	r3, [r7, #12]
 746 00c6 002B     		cmp	r3, #0
 747 00c8 0CD0     		beq	.L37
 538:.\Generated_Source\PSoC4/I2C_I2C_MASTER.c ****         {
 539:.\Generated_Source\PSoC4/I2C_I2C_MASTER.c ****             I2C_SCB_SW_RESET;
 748              		.loc 1 539 0
 749 00ca 0E4B     		ldr	r3, .L47+20
 750 00cc 0D4A     		ldr	r2, .L47+20
 751 00ce 1268     		ldr	r2, [r2]
 752 00d0 5200     		lsl	r2, r2, #1
 753 00d2 5208     		lsr	r2, r2, #1
 754 00d4 1A60     		str	r2, [r3]
 755 00d6 0B4B     		ldr	r3, .L47+20
 756 00d8 0A4A     		ldr	r2, .L47+20
 757 00da 1268     		ldr	r2, [r2]
 758 00dc 8021     		mov	r1, #128
 759 00de 0906     		lsl	r1, r1, #24
 760 00e0 0A43     		orr	r2, r1
 761 00e2 1A60     		str	r2, [r3]
 762              	.L37:
 540:.\Generated_Source\PSoC4/I2C_I2C_MASTER.c ****         }
 541:.\Generated_Source\PSoC4/I2C_I2C_MASTER.c ****     }
 542:.\Generated_Source\PSoC4/I2C_I2C_MASTER.c **** 
 543:.\Generated_Source\PSoC4/I2C_I2C_MASTER.c ****     return(errStatus);
 763              		.loc 1 543 0
 764 00e4 BB68     		ldr	r3, [r7, #8]
 544:.\Generated_Source\PSoC4/I2C_I2C_MASTER.c **** }
 765              		.loc 1 544 0
 766 00e6 181C     		mov	r0, r3
 767 00e8 BD46     		mov	sp, r7
ARM GAS  C:\Users\Petro\AppData\Local\Temp\cc9Q5GcY.s 			page 24


 768 00ea 04B0     		add	sp, sp, #16
 769              		@ sp needed
 770 00ec 80BD     		pop	{r7, pc}
 771              	.L48:
 772 00ee C046     		.align	2
 773              	.L47:
 774 00f0 00000000 		.word	I2C_state
 775 00f4 000F2440 		.word	1076104960
 776 00f8 17030000 		.word	791
 777 00fc 68002440 		.word	1076101224
 778 0100 40022440 		.word	1076101696
 779 0104 00002440 		.word	1076101120
 780              		.cfi_endproc
 781              	.LFE5:
 782              		.size	I2C_I2CMasterSendRestart, .-I2C_I2CMasterSendRestart
 783              		.section	.text.I2C_I2CMasterSendStop,"ax",%progbits
 784              		.align	2
 785              		.global	I2C_I2CMasterSendStop
 786              		.code	16
 787              		.thumb_func
 788              		.type	I2C_I2CMasterSendStop, %function
 789              	I2C_I2CMasterSendStop:
 790              	.LFB6:
 545:.\Generated_Source\PSoC4/I2C_I2C_MASTER.c **** 
 546:.\Generated_Source\PSoC4/I2C_I2C_MASTER.c **** 
 547:.\Generated_Source\PSoC4/I2C_I2C_MASTER.c **** /*******************************************************************************
 548:.\Generated_Source\PSoC4/I2C_I2C_MASTER.c **** * Function Name: I2C_I2CMasterSendStop
 549:.\Generated_Source\PSoC4/I2C_I2C_MASTER.c **** ****************************************************************************//**
 550:.\Generated_Source\PSoC4/I2C_I2C_MASTER.c **** *
 551:.\Generated_Source\PSoC4/I2C_I2C_MASTER.c **** *  Generates Stop condition on the bus. 
 552:.\Generated_Source\PSoC4/I2C_I2C_MASTER.c **** *  The NAK is generated before Stop in case of a read transaction.
 553:.\Generated_Source\PSoC4/I2C_I2C_MASTER.c **** *  At least one byte has to be read if a Start or ReStart condition with read 
 554:.\Generated_Source\PSoC4/I2C_I2C_MASTER.c **** *  direction was generated before.
 555:.\Generated_Source\PSoC4/I2C_I2C_MASTER.c **** *  This function is blocking and does not return until a Stop condition is 
 556:.\Generated_Source\PSoC4/I2C_I2C_MASTER.c **** *  generated or error occurred.
 557:.\Generated_Source\PSoC4/I2C_I2C_MASTER.c **** *
 558:.\Generated_Source\PSoC4/I2C_I2C_MASTER.c **** * \return
 559:.\Generated_Source\PSoC4/I2C_I2C_MASTER.c **** *  Error status.
 560:.\Generated_Source\PSoC4/I2C_I2C_MASTER.c **** *  See I2C_I2CMasterSendStart() function for constants.
 561:.\Generated_Source\PSoC4/I2C_I2C_MASTER.c **** *
 562:.\Generated_Source\PSoC4/I2C_I2C_MASTER.c **** * \sideeffect
 563:.\Generated_Source\PSoC4/I2C_I2C_MASTER.c **** *  A valid Start or ReStart condition must be generated before calling 
 564:.\Generated_Source\PSoC4/I2C_I2C_MASTER.c **** *  this function. This function does nothing if Start or ReStart conditions 
 565:.\Generated_Source\PSoC4/I2C_I2C_MASTER.c **** *  failed before this function was called.
 566:.\Generated_Source\PSoC4/I2C_I2C_MASTER.c **** *  For read transaction, at least one byte has to be read before ReStart 
 567:.\Generated_Source\PSoC4/I2C_I2C_MASTER.c **** *  generation.
 568:.\Generated_Source\PSoC4/I2C_I2C_MASTER.c **** *
 569:.\Generated_Source\PSoC4/I2C_I2C_MASTER.c **** * \globalvars
 570:.\Generated_Source\PSoC4/I2C_I2C_MASTER.c **** *  I2C_state - used to store current state of software FSM.
 571:.\Generated_Source\PSoC4/I2C_I2C_MASTER.c **** *
 572:.\Generated_Source\PSoC4/I2C_I2C_MASTER.c **** *******************************************************************************/
 573:.\Generated_Source\PSoC4/I2C_I2C_MASTER.c **** uint32 I2C_I2CMasterSendStop(void)
 574:.\Generated_Source\PSoC4/I2C_I2C_MASTER.c **** {
 791              		.loc 1 574 0
 792              		.cfi_startproc
 793 0000 80B5     		push	{r7, lr}
 794              		.cfi_def_cfa_offset 8
ARM GAS  C:\Users\Petro\AppData\Local\Temp\cc9Q5GcY.s 			page 25


 795              		.cfi_offset 7, -8
 796              		.cfi_offset 14, -4
 797 0002 82B0     		sub	sp, sp, #8
 798              		.cfi_def_cfa_offset 16
 799 0004 00AF     		add	r7, sp, #0
 800              		.cfi_def_cfa_register 7
 575:.\Generated_Source\PSoC4/I2C_I2C_MASTER.c ****     uint32 resetIp;
 576:.\Generated_Source\PSoC4/I2C_I2C_MASTER.c ****     uint32 errStatus;
 577:.\Generated_Source\PSoC4/I2C_I2C_MASTER.c **** 
 578:.\Generated_Source\PSoC4/I2C_I2C_MASTER.c ****     resetIp   = 0u;
 801              		.loc 1 578 0
 802 0006 0023     		mov	r3, #0
 803 0008 7B60     		str	r3, [r7, #4]
 579:.\Generated_Source\PSoC4/I2C_I2C_MASTER.c ****     errStatus = I2C_I2C_MSTR_NOT_READY;
 804              		.loc 1 579 0
 805 000a 0423     		mov	r3, #4
 806 000c 3B60     		str	r3, [r7]
 580:.\Generated_Source\PSoC4/I2C_I2C_MASTER.c **** 
 581:.\Generated_Source\PSoC4/I2C_I2C_MASTER.c **** 	I2C_DisableInt();
 807              		.loc 1 581 0
 808 000e 0920     		mov	r0, #9
 809 0010 FFF7FEFF 		bl	CyIntDisable
 582:.\Generated_Source\PSoC4/I2C_I2C_MASTER.c ****     /* Check FSM state before generating Stop condition */
 583:.\Generated_Source\PSoC4/I2C_I2C_MASTER.c ****     if(I2C_CHECK_I2C_MASTER_ACTIVE)
 810              		.loc 1 583 0
 811 0014 274B     		ldr	r3, .L58
 812 0016 1B78     		ldrb	r3, [r3]
 813 0018 DBB2     		uxtb	r3, r3
 814 001a 2022     		mov	r2, #32
 815 001c 1340     		and	r3, r2
 816 001e DBB2     		uxtb	r3, r3
 817 0020 002B     		cmp	r3, #0
 818 0022 3ED0     		beq	.L50
 584:.\Generated_Source\PSoC4/I2C_I2C_MASTER.c ****     {
 585:.\Generated_Source\PSoC4/I2C_I2C_MASTER.c ****         /*
 586:.\Generated_Source\PSoC4/I2C_I2C_MASTER.c ****         * Write direction: generates Stop
 587:.\Generated_Source\PSoC4/I2C_I2C_MASTER.c ****         * Read  direction: generates NACK and Stop
 588:.\Generated_Source\PSoC4/I2C_I2C_MASTER.c ****         */
 589:.\Generated_Source\PSoC4/I2C_I2C_MASTER.c ****         I2C_I2C_MASTER_GENERATE_STOP;
 819              		.loc 1 589 0
 820 0024 244B     		ldr	r3, .L58+4
 821 0026 254A     		ldr	r2, .L58+8
 822 0028 1268     		ldr	r2, [r2]
 823 002a 2021     		mov	r1, #32
 824 002c 0A40     		and	r2, r1
 825 002e 01D0     		beq	.L51
 826              		.loc 1 589 0 is_stmt 0 discriminator 1
 827 0030 1822     		mov	r2, #24
 828 0032 00E0     		b	.L52
 829              	.L51:
 830              		.loc 1 589 0 discriminator 2
 831 0034 1022     		mov	r2, #16
 832              	.L52:
 833              		.loc 1 589 0 discriminator 4
 834 0036 1A60     		str	r2, [r3]
 590:.\Generated_Source\PSoC4/I2C_I2C_MASTER.c **** 
 591:.\Generated_Source\PSoC4/I2C_I2C_MASTER.c ****         while(!I2C_CHECK_INTR_MASTER(I2C_INTR_MASTER_I2C_STOP     |
ARM GAS  C:\Users\Petro\AppData\Local\Temp\cc9Q5GcY.s 			page 26


 835              		.loc 1 591 0 is_stmt 1 discriminator 4
 836 0038 C046     		mov	r8, r8
 837              	.L53:
 838              		.loc 1 591 0 is_stmt 0 discriminator 1
 839 003a 214B     		ldr	r3, .L58+12
 840 003c 1A68     		ldr	r2, [r3]
 841 003e 1223     		mov	r3, #18
 842 0040 FF33     		add	r3, r3, #255
 843 0042 1340     		and	r3, r2
 844 0044 F9D0     		beq	.L53
 592:.\Generated_Source\PSoC4/I2C_I2C_MASTER.c ****                                                   I2C_INTR_MASTER_I2C_ARB_LOST |
 593:.\Generated_Source\PSoC4/I2C_I2C_MASTER.c ****                                                   I2C_INTR_MASTER_I2C_BUS_ERROR))
 594:.\Generated_Source\PSoC4/I2C_I2C_MASTER.c ****         {
 595:.\Generated_Source\PSoC4/I2C_I2C_MASTER.c ****             /* Wait until Stop has been generated */
 596:.\Generated_Source\PSoC4/I2C_I2C_MASTER.c ****         }
 597:.\Generated_Source\PSoC4/I2C_I2C_MASTER.c **** 
 598:.\Generated_Source\PSoC4/I2C_I2C_MASTER.c ****         /* Check Stop generation */
 599:.\Generated_Source\PSoC4/I2C_I2C_MASTER.c ****         if(I2C_CHECK_INTR_MASTER(I2C_INTR_MASTER_I2C_STOP))
 845              		.loc 1 599 0 is_stmt 1
 846 0046 1E4B     		ldr	r3, .L58+12
 847 0048 1B68     		ldr	r3, [r3]
 848 004a 1022     		mov	r2, #16
 849 004c 1340     		and	r3, r2
 850 004e 02D0     		beq	.L54
 600:.\Generated_Source\PSoC4/I2C_I2C_MASTER.c ****         {
 601:.\Generated_Source\PSoC4/I2C_I2C_MASTER.c ****             errStatus = I2C_I2C_MSTR_NO_ERROR;
 851              		.loc 1 601 0
 852 0050 0023     		mov	r3, #0
 853 0052 3B60     		str	r3, [r7]
 854 0054 0EE0     		b	.L55
 855              	.L54:
 602:.\Generated_Source\PSoC4/I2C_I2C_MASTER.c ****         }
 603:.\Generated_Source\PSoC4/I2C_I2C_MASTER.c ****         else if(I2C_CHECK_INTR_MASTER(I2C_INTR_MASTER_I2C_ARB_LOST))
 856              		.loc 1 603 0
 857 0056 1A4B     		ldr	r3, .L58+12
 858 0058 1B68     		ldr	r3, [r3]
 859 005a 0122     		mov	r2, #1
 860 005c 1340     		and	r3, r2
 861 005e 04D0     		beq	.L56
 604:.\Generated_Source\PSoC4/I2C_I2C_MASTER.c ****         {
 605:.\Generated_Source\PSoC4/I2C_I2C_MASTER.c ****             errStatus = I2C_I2C_MSTR_ERR_ARB_LOST;
 862              		.loc 1 605 0
 863 0060 0123     		mov	r3, #1
 864 0062 3B60     		str	r3, [r7]
 606:.\Generated_Source\PSoC4/I2C_I2C_MASTER.c ****             resetIp   = I2C_I2C_RESET_ERROR;
 865              		.loc 1 606 0
 866 0064 0123     		mov	r3, #1
 867 0066 7B60     		str	r3, [r7, #4]
 868 0068 04E0     		b	.L55
 869              	.L56:
 607:.\Generated_Source\PSoC4/I2C_I2C_MASTER.c ****         }
 608:.\Generated_Source\PSoC4/I2C_I2C_MASTER.c ****         else /* I2C_INTR_MASTER_I2C_BUS_ERROR is set */
 609:.\Generated_Source\PSoC4/I2C_I2C_MASTER.c ****         {
 610:.\Generated_Source\PSoC4/I2C_I2C_MASTER.c ****             errStatus = I2C_I2C_MSTR_ERR_BUS_ERR;
 870              		.loc 1 610 0
 871 006a 8023     		mov	r3, #128
 872 006c 5B00     		lsl	r3, r3, #1
ARM GAS  C:\Users\Petro\AppData\Local\Temp\cc9Q5GcY.s 			page 27


 873 006e 3B60     		str	r3, [r7]
 611:.\Generated_Source\PSoC4/I2C_I2C_MASTER.c ****             resetIp   = I2C_I2C_RESET_ERROR;
 874              		.loc 1 611 0
 875 0070 0123     		mov	r3, #1
 876 0072 7B60     		str	r3, [r7, #4]
 877              	.L55:
 612:.\Generated_Source\PSoC4/I2C_I2C_MASTER.c ****         }
 613:.\Generated_Source\PSoC4/I2C_I2C_MASTER.c **** 
 614:.\Generated_Source\PSoC4/I2C_I2C_MASTER.c ****         I2C_ClearMasterInterruptSource(I2C_INTR_MASTER_I2C_STOP     |
 878              		.loc 1 614 0
 879 0074 124B     		ldr	r3, .L58+12
 880 0076 1222     		mov	r2, #18
 881 0078 FF32     		add	r2, r2, #255
 882 007a 1A60     		str	r2, [r3]
 615:.\Generated_Source\PSoC4/I2C_I2C_MASTER.c ****                                                     I2C_INTR_MASTER_I2C_ARB_LOST |
 616:.\Generated_Source\PSoC4/I2C_I2C_MASTER.c ****                                                     I2C_INTR_MASTER_I2C_BUS_ERROR);
 617:.\Generated_Source\PSoC4/I2C_I2C_MASTER.c **** 
 618:.\Generated_Source\PSoC4/I2C_I2C_MASTER.c ****         I2C_state = I2C_I2C_FSM_IDLE;
 883              		.loc 1 618 0
 884 007c 0D4B     		ldr	r3, .L58
 885 007e 1022     		mov	r2, #16
 886 0080 1A70     		strb	r2, [r3]
 619:.\Generated_Source\PSoC4/I2C_I2C_MASTER.c **** 
 620:.\Generated_Source\PSoC4/I2C_I2C_MASTER.c ****         /* Reset block in case of: LOST_ARB or BUS_ERR */
 621:.\Generated_Source\PSoC4/I2C_I2C_MASTER.c ****         if(0u != resetIp)
 887              		.loc 1 621 0
 888 0082 7B68     		ldr	r3, [r7, #4]
 889 0084 002B     		cmp	r3, #0
 890 0086 0CD0     		beq	.L50
 622:.\Generated_Source\PSoC4/I2C_I2C_MASTER.c ****         {
 623:.\Generated_Source\PSoC4/I2C_I2C_MASTER.c ****             I2C_SCB_SW_RESET;
 891              		.loc 1 623 0
 892 0088 0E4B     		ldr	r3, .L58+16
 893 008a 0E4A     		ldr	r2, .L58+16
 894 008c 1268     		ldr	r2, [r2]
 895 008e 5200     		lsl	r2, r2, #1
 896 0090 5208     		lsr	r2, r2, #1
 897 0092 1A60     		str	r2, [r3]
 898 0094 0B4B     		ldr	r3, .L58+16
 899 0096 0B4A     		ldr	r2, .L58+16
 900 0098 1268     		ldr	r2, [r2]
 901 009a 8021     		mov	r1, #128
 902 009c 0906     		lsl	r1, r1, #24
 903 009e 0A43     		orr	r2, r1
 904 00a0 1A60     		str	r2, [r3]
 905              	.L50:
 624:.\Generated_Source\PSoC4/I2C_I2C_MASTER.c ****         }
 625:.\Generated_Source\PSoC4/I2C_I2C_MASTER.c ****     }
 626:.\Generated_Source\PSoC4/I2C_I2C_MASTER.c **** 	I2C_EnableInt();
 906              		.loc 1 626 0
 907 00a2 0920     		mov	r0, #9
 908 00a4 FFF7FEFF 		bl	CyIntEnable
 627:.\Generated_Source\PSoC4/I2C_I2C_MASTER.c **** 	
 628:.\Generated_Source\PSoC4/I2C_I2C_MASTER.c ****     return(errStatus);
 909              		.loc 1 628 0
 910 00a8 3B68     		ldr	r3, [r7]
 629:.\Generated_Source\PSoC4/I2C_I2C_MASTER.c **** }
ARM GAS  C:\Users\Petro\AppData\Local\Temp\cc9Q5GcY.s 			page 28


 911              		.loc 1 629 0
 912 00aa 181C     		mov	r0, r3
 913 00ac BD46     		mov	sp, r7
 914 00ae 02B0     		add	sp, sp, #8
 915              		@ sp needed
 916 00b0 80BD     		pop	{r7, pc}
 917              	.L59:
 918 00b2 C046     		.align	2
 919              	.L58:
 920 00b4 00000000 		.word	I2C_state
 921 00b8 68002440 		.word	1076101224
 922 00bc 64002440 		.word	1076101220
 923 00c0 000F2440 		.word	1076104960
 924 00c4 00002440 		.word	1076101120
 925              		.cfi_endproc
 926              	.LFE6:
 927              		.size	I2C_I2CMasterSendStop, .-I2C_I2CMasterSendStop
 928              		.section	.text.I2C_I2CMasterWriteByte,"ax",%progbits
 929              		.align	2
 930              		.global	I2C_I2CMasterWriteByte
 931              		.code	16
 932              		.thumb_func
 933              		.type	I2C_I2CMasterWriteByte, %function
 934              	I2C_I2CMasterWriteByte:
 935              	.LFB7:
 630:.\Generated_Source\PSoC4/I2C_I2C_MASTER.c **** 
 631:.\Generated_Source\PSoC4/I2C_I2C_MASTER.c **** 
 632:.\Generated_Source\PSoC4/I2C_I2C_MASTER.c **** /*******************************************************************************
 633:.\Generated_Source\PSoC4/I2C_I2C_MASTER.c **** * Function Name: I2C_I2CMasterWriteByte
 634:.\Generated_Source\PSoC4/I2C_I2C_MASTER.c **** ****************************************************************************//**
 635:.\Generated_Source\PSoC4/I2C_I2C_MASTER.c **** *
 636:.\Generated_Source\PSoC4/I2C_I2C_MASTER.c **** *  Sends one byte to a slave.
 637:.\Generated_Source\PSoC4/I2C_I2C_MASTER.c **** *  This function is blocking and does not return until byte is transmitted
 638:.\Generated_Source\PSoC4/I2C_I2C_MASTER.c **** *  or error occurred.
 639:.\Generated_Source\PSoC4/I2C_I2C_MASTER.c **** *
 640:.\Generated_Source\PSoC4/I2C_I2C_MASTER.c **** * \param data: The data byte to send to the slave.
 641:.\Generated_Source\PSoC4/I2C_I2C_MASTER.c **** *
 642:.\Generated_Source\PSoC4/I2C_I2C_MASTER.c **** * \return
 643:.\Generated_Source\PSoC4/I2C_I2C_MASTER.c **** *  Error status.
 644:.\Generated_Source\PSoC4/I2C_I2C_MASTER.c **** *  See I2C_I2CMasterSendStart() function for constants.
 645:.\Generated_Source\PSoC4/I2C_I2C_MASTER.c **** *
 646:.\Generated_Source\PSoC4/I2C_I2C_MASTER.c **** * \sideeffect
 647:.\Generated_Source\PSoC4/I2C_I2C_MASTER.c **** *  A valid Start or ReStart condition must be generated before calling
 648:.\Generated_Source\PSoC4/I2C_I2C_MASTER.c **** *  this function. This function does nothing if Start or ReStart condition
 649:.\Generated_Source\PSoC4/I2C_I2C_MASTER.c **** *  failed before this function was called.
 650:.\Generated_Source\PSoC4/I2C_I2C_MASTER.c **** *
 651:.\Generated_Source\PSoC4/I2C_I2C_MASTER.c **** * \globalvars
 652:.\Generated_Source\PSoC4/I2C_I2C_MASTER.c **** *  I2C_state - used to store current state of software FSM.
 653:.\Generated_Source\PSoC4/I2C_I2C_MASTER.c **** *
 654:.\Generated_Source\PSoC4/I2C_I2C_MASTER.c **** *******************************************************************************/
 655:.\Generated_Source\PSoC4/I2C_I2C_MASTER.c **** uint32 I2C_I2CMasterWriteByte(uint32 theByte)
 656:.\Generated_Source\PSoC4/I2C_I2C_MASTER.c **** {
 936              		.loc 1 656 0
 937              		.cfi_startproc
 938 0000 80B5     		push	{r7, lr}
 939              		.cfi_def_cfa_offset 8
 940              		.cfi_offset 7, -8
ARM GAS  C:\Users\Petro\AppData\Local\Temp\cc9Q5GcY.s 			page 29


 941              		.cfi_offset 14, -4
 942 0002 84B0     		sub	sp, sp, #16
 943              		.cfi_def_cfa_offset 24
 944 0004 00AF     		add	r7, sp, #0
 945              		.cfi_def_cfa_register 7
 946 0006 7860     		str	r0, [r7, #4]
 657:.\Generated_Source\PSoC4/I2C_I2C_MASTER.c ****     uint32 resetIp;
 658:.\Generated_Source\PSoC4/I2C_I2C_MASTER.c ****     uint32 errStatus;
 659:.\Generated_Source\PSoC4/I2C_I2C_MASTER.c **** 
 660:.\Generated_Source\PSoC4/I2C_I2C_MASTER.c ****     resetIp   = 0u;
 947              		.loc 1 660 0
 948 0008 0023     		mov	r3, #0
 949 000a FB60     		str	r3, [r7, #12]
 661:.\Generated_Source\PSoC4/I2C_I2C_MASTER.c ****     errStatus = I2C_I2C_MSTR_NOT_READY;
 950              		.loc 1 661 0
 951 000c 0423     		mov	r3, #4
 952 000e BB60     		str	r3, [r7, #8]
 662:.\Generated_Source\PSoC4/I2C_I2C_MASTER.c **** 
 663:.\Generated_Source\PSoC4/I2C_I2C_MASTER.c ****     /* Check FSM state before write byte */
 664:.\Generated_Source\PSoC4/I2C_I2C_MASTER.c ****     if(I2C_CHECK_I2C_MASTER_ACTIVE)
 953              		.loc 1 664 0
 954 0010 2A4B     		ldr	r3, .L68
 955 0012 1B78     		ldrb	r3, [r3]
 956 0014 DBB2     		uxtb	r3, r3
 957 0016 2022     		mov	r2, #32
 958 0018 1340     		and	r3, r2
 959 001a DBB2     		uxtb	r3, r3
 960 001c 002B     		cmp	r3, #0
 961 001e 48D0     		beq	.L61
 665:.\Generated_Source\PSoC4/I2C_I2C_MASTER.c ****     {
 666:.\Generated_Source\PSoC4/I2C_I2C_MASTER.c ****         I2C_TX_FIFO_WR_REG = theByte;
 962              		.loc 1 666 0
 963 0020 274B     		ldr	r3, .L68+4
 964 0022 7A68     		ldr	r2, [r7, #4]
 965 0024 1A60     		str	r2, [r3]
 667:.\Generated_Source\PSoC4/I2C_I2C_MASTER.c **** 
 668:.\Generated_Source\PSoC4/I2C_I2C_MASTER.c ****         while(!I2C_CHECK_INTR_MASTER(I2C_INTR_MASTER_I2C_ACK      |
 966              		.loc 1 668 0
 967 0026 C046     		mov	r8, r8
 968              	.L62:
 969              		.loc 1 668 0 is_stmt 0 discriminator 1
 970 0028 264B     		ldr	r3, .L68+8
 971 002a 1A68     		ldr	r2, [r3]
 972 002c 0823     		mov	r3, #8
 973 002e FF33     		add	r3, r3, #255
 974 0030 1340     		and	r3, r2
 975 0032 F9D0     		beq	.L62
 669:.\Generated_Source\PSoC4/I2C_I2C_MASTER.c ****                                                   I2C_INTR_MASTER_I2C_NACK     |
 670:.\Generated_Source\PSoC4/I2C_I2C_MASTER.c ****                                                   I2C_INTR_MASTER_I2C_ARB_LOST |
 671:.\Generated_Source\PSoC4/I2C_I2C_MASTER.c ****                                                   I2C_INTR_MASTER_I2C_BUS_ERROR))
 672:.\Generated_Source\PSoC4/I2C_I2C_MASTER.c ****         {
 673:.\Generated_Source\PSoC4/I2C_I2C_MASTER.c ****             /* Wait until byte has been transferred */
 674:.\Generated_Source\PSoC4/I2C_I2C_MASTER.c ****         }
 675:.\Generated_Source\PSoC4/I2C_I2C_MASTER.c **** 
 676:.\Generated_Source\PSoC4/I2C_I2C_MASTER.c ****         /* Check results after byte was sent */
 677:.\Generated_Source\PSoC4/I2C_I2C_MASTER.c ****         if(I2C_CHECK_INTR_MASTER(I2C_INTR_MASTER_I2C_ACK))
 976              		.loc 1 677 0 is_stmt 1
ARM GAS  C:\Users\Petro\AppData\Local\Temp\cc9Q5GcY.s 			page 30


 977 0034 234B     		ldr	r3, .L68+8
 978 0036 1B68     		ldr	r3, [r3]
 979 0038 0422     		mov	r2, #4
 980 003a 1340     		and	r3, r2
 981 003c 05D0     		beq	.L63
 678:.\Generated_Source\PSoC4/I2C_I2C_MASTER.c ****         {
 679:.\Generated_Source\PSoC4/I2C_I2C_MASTER.c ****             I2C_state = I2C_I2C_FSM_MSTR_HALT;
 982              		.loc 1 679 0
 983 003e 1F4B     		ldr	r3, .L68
 984 0040 6022     		mov	r2, #96
 985 0042 1A70     		strb	r2, [r3]
 680:.\Generated_Source\PSoC4/I2C_I2C_MASTER.c ****                          errStatus = I2C_I2C_MSTR_NO_ERROR;
 986              		.loc 1 680 0
 987 0044 0023     		mov	r3, #0
 988 0046 BB60     		str	r3, [r7, #8]
 989 0048 1FE0     		b	.L64
 990              	.L63:
 681:.\Generated_Source\PSoC4/I2C_I2C_MASTER.c ****         }
 682:.\Generated_Source\PSoC4/I2C_I2C_MASTER.c ****         else if(I2C_CHECK_INTR_MASTER(I2C_INTR_MASTER_I2C_NACK))
 991              		.loc 1 682 0
 992 004a 1E4B     		ldr	r3, .L68+8
 993 004c 1B68     		ldr	r3, [r3]
 994 004e 0222     		mov	r2, #2
 995 0050 1340     		and	r3, r2
 996 0052 05D0     		beq	.L65
 683:.\Generated_Source\PSoC4/I2C_I2C_MASTER.c ****         {
 684:.\Generated_Source\PSoC4/I2C_I2C_MASTER.c ****             I2C_state = I2C_I2C_FSM_MSTR_HALT;
 997              		.loc 1 684 0
 998 0054 194B     		ldr	r3, .L68
 999 0056 6022     		mov	r2, #96
 1000 0058 1A70     		strb	r2, [r3]
 685:.\Generated_Source\PSoC4/I2C_I2C_MASTER.c ****                          errStatus = I2C_I2C_MSTR_ERR_LB_NAK;
 1001              		.loc 1 685 0
 1002 005a 0223     		mov	r3, #2
 1003 005c BB60     		str	r3, [r7, #8]
 1004 005e 14E0     		b	.L64
 1005              	.L65:
 686:.\Generated_Source\PSoC4/I2C_I2C_MASTER.c ****         }
 687:.\Generated_Source\PSoC4/I2C_I2C_MASTER.c ****         else if(I2C_CHECK_INTR_MASTER(I2C_INTR_MASTER_I2C_ARB_LOST))
 1006              		.loc 1 687 0
 1007 0060 184B     		ldr	r3, .L68+8
 1008 0062 1B68     		ldr	r3, [r3]
 1009 0064 0122     		mov	r2, #1
 1010 0066 1340     		and	r3, r2
 1011 0068 07D0     		beq	.L66
 688:.\Generated_Source\PSoC4/I2C_I2C_MASTER.c ****         {
 689:.\Generated_Source\PSoC4/I2C_I2C_MASTER.c ****             I2C_state = I2C_I2C_FSM_IDLE;
 1012              		.loc 1 689 0
 1013 006a 144B     		ldr	r3, .L68
 1014 006c 1022     		mov	r2, #16
 1015 006e 1A70     		strb	r2, [r3]
 690:.\Generated_Source\PSoC4/I2C_I2C_MASTER.c ****                          errStatus = I2C_I2C_MSTR_ERR_ARB_LOST;
 1016              		.loc 1 690 0
 1017 0070 0123     		mov	r3, #1
 1018 0072 BB60     		str	r3, [r7, #8]
 691:.\Generated_Source\PSoC4/I2C_I2C_MASTER.c ****                          resetIp   = I2C_I2C_RESET_ERROR;
 1019              		.loc 1 691 0
ARM GAS  C:\Users\Petro\AppData\Local\Temp\cc9Q5GcY.s 			page 31


 1020 0074 0123     		mov	r3, #1
 1021 0076 FB60     		str	r3, [r7, #12]
 1022 0078 07E0     		b	.L64
 1023              	.L66:
 692:.\Generated_Source\PSoC4/I2C_I2C_MASTER.c ****         }
 693:.\Generated_Source\PSoC4/I2C_I2C_MASTER.c ****         else /* I2C_INTR_MASTER_I2C_BUS_ERROR set is */
 694:.\Generated_Source\PSoC4/I2C_I2C_MASTER.c ****         {
 695:.\Generated_Source\PSoC4/I2C_I2C_MASTER.c ****             I2C_state = I2C_I2C_FSM_IDLE;
 1024              		.loc 1 695 0
 1025 007a 104B     		ldr	r3, .L68
 1026 007c 1022     		mov	r2, #16
 1027 007e 1A70     		strb	r2, [r3]
 696:.\Generated_Source\PSoC4/I2C_I2C_MASTER.c ****                          errStatus = I2C_I2C_MSTR_ERR_BUS_ERR;
 1028              		.loc 1 696 0
 1029 0080 8023     		mov	r3, #128
 1030 0082 5B00     		lsl	r3, r3, #1
 1031 0084 BB60     		str	r3, [r7, #8]
 697:.\Generated_Source\PSoC4/I2C_I2C_MASTER.c ****                          resetIp   = I2C_I2C_RESET_ERROR;
 1032              		.loc 1 697 0
 1033 0086 0123     		mov	r3, #1
 1034 0088 FB60     		str	r3, [r7, #12]
 1035              	.L64:
 698:.\Generated_Source\PSoC4/I2C_I2C_MASTER.c ****         }
 699:.\Generated_Source\PSoC4/I2C_I2C_MASTER.c **** 
 700:.\Generated_Source\PSoC4/I2C_I2C_MASTER.c ****         I2C_ClearMasterInterruptSource(I2C_INTR_MASTER_I2C_ACK      |
 1036              		.loc 1 700 0
 1037 008a 0E4B     		ldr	r3, .L68+8
 1038 008c 0822     		mov	r2, #8
 1039 008e FF32     		add	r2, r2, #255
 1040 0090 1A60     		str	r2, [r3]
 701:.\Generated_Source\PSoC4/I2C_I2C_MASTER.c ****                                                     I2C_INTR_MASTER_I2C_NACK     |
 702:.\Generated_Source\PSoC4/I2C_I2C_MASTER.c ****                                                     I2C_INTR_MASTER_I2C_ARB_LOST |
 703:.\Generated_Source\PSoC4/I2C_I2C_MASTER.c ****                                                     I2C_INTR_MASTER_I2C_BUS_ERROR);
 704:.\Generated_Source\PSoC4/I2C_I2C_MASTER.c **** 
 705:.\Generated_Source\PSoC4/I2C_I2C_MASTER.c ****         /* Reset block in case of: LOST_ARB or BUS_ERR */
 706:.\Generated_Source\PSoC4/I2C_I2C_MASTER.c ****         if(0u != resetIp)
 1041              		.loc 1 706 0
 1042 0092 FB68     		ldr	r3, [r7, #12]
 1043 0094 002B     		cmp	r3, #0
 1044 0096 0CD0     		beq	.L61
 707:.\Generated_Source\PSoC4/I2C_I2C_MASTER.c ****         {
 708:.\Generated_Source\PSoC4/I2C_I2C_MASTER.c ****             I2C_SCB_SW_RESET;
 1045              		.loc 1 708 0
 1046 0098 0B4B     		ldr	r3, .L68+12
 1047 009a 0B4A     		ldr	r2, .L68+12
 1048 009c 1268     		ldr	r2, [r2]
 1049 009e 5200     		lsl	r2, r2, #1
 1050 00a0 5208     		lsr	r2, r2, #1
 1051 00a2 1A60     		str	r2, [r3]
 1052 00a4 084B     		ldr	r3, .L68+12
 1053 00a6 084A     		ldr	r2, .L68+12
 1054 00a8 1268     		ldr	r2, [r2]
 1055 00aa 8021     		mov	r1, #128
 1056 00ac 0906     		lsl	r1, r1, #24
 1057 00ae 0A43     		orr	r2, r1
 1058 00b0 1A60     		str	r2, [r3]
 1059              	.L61:
ARM GAS  C:\Users\Petro\AppData\Local\Temp\cc9Q5GcY.s 			page 32


 709:.\Generated_Source\PSoC4/I2C_I2C_MASTER.c ****         }
 710:.\Generated_Source\PSoC4/I2C_I2C_MASTER.c ****     }
 711:.\Generated_Source\PSoC4/I2C_I2C_MASTER.c **** 
 712:.\Generated_Source\PSoC4/I2C_I2C_MASTER.c ****     return(errStatus);
 1060              		.loc 1 712 0
 1061 00b2 BB68     		ldr	r3, [r7, #8]
 713:.\Generated_Source\PSoC4/I2C_I2C_MASTER.c **** }
 1062              		.loc 1 713 0
 1063 00b4 181C     		mov	r0, r3
 1064 00b6 BD46     		mov	sp, r7
 1065 00b8 04B0     		add	sp, sp, #16
 1066              		@ sp needed
 1067 00ba 80BD     		pop	{r7, pc}
 1068              	.L69:
 1069              		.align	2
 1070              	.L68:
 1071 00bc 00000000 		.word	I2C_state
 1072 00c0 40022440 		.word	1076101696
 1073 00c4 000F2440 		.word	1076104960
 1074 00c8 00002440 		.word	1076101120
 1075              		.cfi_endproc
 1076              	.LFE7:
 1077              		.size	I2C_I2CMasterWriteByte, .-I2C_I2CMasterWriteByte
 1078              		.section	.text.I2C_I2CMasterReadByte,"ax",%progbits
 1079              		.align	2
 1080              		.global	I2C_I2CMasterReadByte
 1081              		.code	16
 1082              		.thumb_func
 1083              		.type	I2C_I2CMasterReadByte, %function
 1084              	I2C_I2CMasterReadByte:
 1085              	.LFB8:
 714:.\Generated_Source\PSoC4/I2C_I2C_MASTER.c **** 
 715:.\Generated_Source\PSoC4/I2C_I2C_MASTER.c **** 
 716:.\Generated_Source\PSoC4/I2C_I2C_MASTER.c **** /*******************************************************************************
 717:.\Generated_Source\PSoC4/I2C_I2C_MASTER.c **** * Function Name: I2C_I2CMasterReadByte
 718:.\Generated_Source\PSoC4/I2C_I2C_MASTER.c **** ****************************************************************************//**
 719:.\Generated_Source\PSoC4/I2C_I2C_MASTER.c **** *
 720:.\Generated_Source\PSoC4/I2C_I2C_MASTER.c **** *  Reads one byte from a slave and generates ACK or prepares to generate NAK. 
 721:.\Generated_Source\PSoC4/I2C_I2C_MASTER.c **** *  The NAK will be generated before Stop or ReStart condition by 
 722:.\Generated_Source\PSoC4/I2C_I2C_MASTER.c **** *  I2C_I2CMasterSendStop() or 
 723:.\Generated_Source\PSoC4/I2C_I2C_MASTER.c **** *  I2C_I2CMasterSendRestart() function appropriately.
 724:.\Generated_Source\PSoC4/I2C_I2C_MASTER.c **** *  This function is blocking. It does not return until a byte is received or 
 725:.\Generated_Source\PSoC4/I2C_I2C_MASTER.c **** *  an error occurs.
 726:.\Generated_Source\PSoC4/I2C_I2C_MASTER.c **** *
 727:.\Generated_Source\PSoC4/I2C_I2C_MASTER.c **** * \param ackNack: Response to received byte.
 728:.\Generated_Source\PSoC4/I2C_I2C_MASTER.c **** *  - I2C_I2C_ACK_DATA - Generates ACK. 
 729:.\Generated_Source\PSoC4/I2C_I2C_MASTER.c **** *     The master notifies slave that transfer continues.
 730:.\Generated_Source\PSoC4/I2C_I2C_MASTER.c **** *  - I2C_I2C_NAK_DATA - Prepares to generate NAK.
 731:.\Generated_Source\PSoC4/I2C_I2C_MASTER.c **** *     The master will notify slave that transfer is completed.
 732:.\Generated_Source\PSoC4/I2C_I2C_MASTER.c **** *
 733:.\Generated_Source\PSoC4/I2C_I2C_MASTER.c **** * \return
 734:.\Generated_Source\PSoC4/I2C_I2C_MASTER.c **** *  Byte read from the slave. In case of error the MSB of returned data 
 735:.\Generated_Source\PSoC4/I2C_I2C_MASTER.c **** *  is set to 1.
 736:.\Generated_Source\PSoC4/I2C_I2C_MASTER.c **** *
 737:.\Generated_Source\PSoC4/I2C_I2C_MASTER.c **** * \sideeffect
 738:.\Generated_Source\PSoC4/I2C_I2C_MASTER.c **** *  A valid Start or ReStart condition must be generated before calling
 739:.\Generated_Source\PSoC4/I2C_I2C_MASTER.c **** *  this function. This function does nothing if Start or ReStart condition
ARM GAS  C:\Users\Petro\AppData\Local\Temp\cc9Q5GcY.s 			page 33


 740:.\Generated_Source\PSoC4/I2C_I2C_MASTER.c **** *  failed before this function was called.
 741:.\Generated_Source\PSoC4/I2C_I2C_MASTER.c **** *
 742:.\Generated_Source\PSoC4/I2C_I2C_MASTER.c **** * \globalvars
 743:.\Generated_Source\PSoC4/I2C_I2C_MASTER.c **** *  I2C_state - used to store current state of software FSM.
 744:.\Generated_Source\PSoC4/I2C_I2C_MASTER.c **** *
 745:.\Generated_Source\PSoC4/I2C_I2C_MASTER.c **** *******************************************************************************/
 746:.\Generated_Source\PSoC4/I2C_I2C_MASTER.c **** uint32 I2C_I2CMasterReadByte(uint32 ackNack)
 747:.\Generated_Source\PSoC4/I2C_I2C_MASTER.c **** {
 1086              		.loc 1 747 0
 1087              		.cfi_startproc
 1088 0000 80B5     		push	{r7, lr}
 1089              		.cfi_def_cfa_offset 8
 1090              		.cfi_offset 7, -8
 1091              		.cfi_offset 14, -4
 1092 0002 84B0     		sub	sp, sp, #16
 1093              		.cfi_def_cfa_offset 24
 1094 0004 00AF     		add	r7, sp, #0
 1095              		.cfi_def_cfa_register 7
 1096 0006 7860     		str	r0, [r7, #4]
 748:.\Generated_Source\PSoC4/I2C_I2C_MASTER.c ****     uint32 theByte;
 749:.\Generated_Source\PSoC4/I2C_I2C_MASTER.c **** 
 750:.\Generated_Source\PSoC4/I2C_I2C_MASTER.c ****     /* Return invalid byte in case BUS_ERR happen during receiving */
 751:.\Generated_Source\PSoC4/I2C_I2C_MASTER.c ****     theByte = I2C_I2C_INVALID_BYTE;
 1097              		.loc 1 751 0
 1098 0008 0123     		mov	r3, #1
 1099 000a 5B42     		neg	r3, r3
 1100 000c FB60     		str	r3, [r7, #12]
 752:.\Generated_Source\PSoC4/I2C_I2C_MASTER.c **** 
 753:.\Generated_Source\PSoC4/I2C_I2C_MASTER.c ****     /* Check FSM state before read byte */
 754:.\Generated_Source\PSoC4/I2C_I2C_MASTER.c ****     if(I2C_CHECK_I2C_MASTER_ACTIVE)
 1101              		.loc 1 754 0
 1102 000e 1F4B     		ldr	r3, .L78
 1103 0010 1B78     		ldrb	r3, [r3]
 1104 0012 DBB2     		uxtb	r3, r3
 1105 0014 2022     		mov	r2, #32
 1106 0016 1340     		and	r3, r2
 1107 0018 DBB2     		uxtb	r3, r3
 1108 001a 002B     		cmp	r3, #0
 1109 001c 31D0     		beq	.L71
 755:.\Generated_Source\PSoC4/I2C_I2C_MASTER.c ****     {
 756:.\Generated_Source\PSoC4/I2C_I2C_MASTER.c ****         while((!I2C_CHECK_INTR_RX(I2C_INTR_RX_NOT_EMPTY)) &&
 1110              		.loc 1 756 0
 1111 001e C046     		mov	r8, r8
 1112              	.L73:
 1113              		.loc 1 756 0 is_stmt 0 discriminator 2
 1114 0020 1B4B     		ldr	r3, .L78+4
 1115 0022 1B68     		ldr	r3, [r3]
 1116 0024 0422     		mov	r2, #4
 1117 0026 1340     		and	r3, r2
 1118 0028 05D1     		bne	.L72
 757:.\Generated_Source\PSoC4/I2C_I2C_MASTER.c ****               (!I2C_CHECK_INTR_MASTER(I2C_INTR_MASTER_I2C_ARB_LOST |
 1119              		.loc 1 757 0 is_stmt 1 discriminator 1
 1120 002a 1A4B     		ldr	r3, .L78+8
 1121 002c 1A68     		ldr	r2, [r3]
 1122 002e 0223     		mov	r3, #2
 1123 0030 FF33     		add	r3, r3, #255
 1124 0032 1340     		and	r3, r2
ARM GAS  C:\Users\Petro\AppData\Local\Temp\cc9Q5GcY.s 			page 34


 756:.\Generated_Source\PSoC4/I2C_I2C_MASTER.c ****               (!I2C_CHECK_INTR_MASTER(I2C_INTR_MASTER_I2C_ARB_LOST |
 1125              		.loc 1 756 0 discriminator 1
 1126 0034 F4D0     		beq	.L73
 1127              	.L72:
 758:.\Generated_Source\PSoC4/I2C_I2C_MASTER.c ****                                                   I2C_INTR_MASTER_I2C_BUS_ERROR)))
 759:.\Generated_Source\PSoC4/I2C_I2C_MASTER.c ****         {
 760:.\Generated_Source\PSoC4/I2C_I2C_MASTER.c ****             /* Wait until byte has been received */
 761:.\Generated_Source\PSoC4/I2C_I2C_MASTER.c ****         }
 762:.\Generated_Source\PSoC4/I2C_I2C_MASTER.c **** 
 763:.\Generated_Source\PSoC4/I2C_I2C_MASTER.c ****         /* Check the results after the byte was sent */
 764:.\Generated_Source\PSoC4/I2C_I2C_MASTER.c ****         if(I2C_CHECK_INTR_RX(I2C_INTR_RX_NOT_EMPTY))
 1128              		.loc 1 764 0
 1129 0036 164B     		ldr	r3, .L78+4
 1130 0038 1B68     		ldr	r3, [r3]
 1131 003a 0422     		mov	r2, #4
 1132 003c 1340     		and	r3, r2
 1133 003e 10D0     		beq	.L74
 765:.\Generated_Source\PSoC4/I2C_I2C_MASTER.c ****         {
 766:.\Generated_Source\PSoC4/I2C_I2C_MASTER.c ****             theByte = I2C_RX_FIFO_RD_REG;
 1134              		.loc 1 766 0
 1135 0040 154B     		ldr	r3, .L78+12
 1136 0042 1B68     		ldr	r3, [r3]
 1137 0044 FB60     		str	r3, [r7, #12]
 767:.\Generated_Source\PSoC4/I2C_I2C_MASTER.c **** 
 768:.\Generated_Source\PSoC4/I2C_I2C_MASTER.c ****             I2C_ClearRxInterruptSource(I2C_INTR_RX_NOT_EMPTY);
 1138              		.loc 1 768 0
 1139 0046 124B     		ldr	r3, .L78+4
 1140 0048 0422     		mov	r2, #4
 1141 004a 1A60     		str	r2, [r3]
 769:.\Generated_Source\PSoC4/I2C_I2C_MASTER.c **** 
 770:.\Generated_Source\PSoC4/I2C_I2C_MASTER.c ****             if(0u == ackNack)
 1142              		.loc 1 770 0
 1143 004c 7B68     		ldr	r3, [r7, #4]
 1144 004e 002B     		cmp	r3, #0
 1145 0050 03D1     		bne	.L75
 771:.\Generated_Source\PSoC4/I2C_I2C_MASTER.c ****             {
 772:.\Generated_Source\PSoC4/I2C_I2C_MASTER.c ****                 I2C_I2C_MASTER_GENERATE_ACK;
 1146              		.loc 1 772 0
 1147 0052 124B     		ldr	r3, .L78+16
 1148 0054 0422     		mov	r2, #4
 1149 0056 1A60     		str	r2, [r3]
 1150 0058 13E0     		b	.L71
 1151              	.L75:
 773:.\Generated_Source\PSoC4/I2C_I2C_MASTER.c ****             }
 774:.\Generated_Source\PSoC4/I2C_I2C_MASTER.c ****             else
 775:.\Generated_Source\PSoC4/I2C_I2C_MASTER.c ****             {
 776:.\Generated_Source\PSoC4/I2C_I2C_MASTER.c ****                 /* NACK is generated by Stop or ReStart command */
 777:.\Generated_Source\PSoC4/I2C_I2C_MASTER.c ****                 I2C_state = I2C_I2C_FSM_MSTR_HALT;
 1152              		.loc 1 777 0
 1153 005a 0C4B     		ldr	r3, .L78
 1154 005c 6022     		mov	r2, #96
 1155 005e 1A70     		strb	r2, [r3]
 1156 0060 0FE0     		b	.L71
 1157              	.L74:
 778:.\Generated_Source\PSoC4/I2C_I2C_MASTER.c ****             }
 779:.\Generated_Source\PSoC4/I2C_I2C_MASTER.c ****         }
 780:.\Generated_Source\PSoC4/I2C_I2C_MASTER.c ****         else
ARM GAS  C:\Users\Petro\AppData\Local\Temp\cc9Q5GcY.s 			page 35


 781:.\Generated_Source\PSoC4/I2C_I2C_MASTER.c ****         {
 782:.\Generated_Source\PSoC4/I2C_I2C_MASTER.c ****             I2C_ClearMasterInterruptSource(I2C_INTR_MASTER_ALL);
 1158              		.loc 1 782 0
 1159 0062 0C4B     		ldr	r3, .L78+8
 1160 0064 0E4A     		ldr	r2, .L78+20
 1161 0066 1A60     		str	r2, [r3]
 783:.\Generated_Source\PSoC4/I2C_I2C_MASTER.c **** 
 784:.\Generated_Source\PSoC4/I2C_I2C_MASTER.c ****             /* Reset block in case of: LOST_ARB or BUS_ERR */
 785:.\Generated_Source\PSoC4/I2C_I2C_MASTER.c ****             I2C_SCB_SW_RESET;
 1162              		.loc 1 785 0
 1163 0068 0E4B     		ldr	r3, .L78+24
 1164 006a 0E4A     		ldr	r2, .L78+24
 1165 006c 1268     		ldr	r2, [r2]
 1166 006e 5200     		lsl	r2, r2, #1
 1167 0070 5208     		lsr	r2, r2, #1
 1168 0072 1A60     		str	r2, [r3]
 1169 0074 0B4B     		ldr	r3, .L78+24
 1170 0076 0B4A     		ldr	r2, .L78+24
 1171 0078 1268     		ldr	r2, [r2]
 1172 007a 8021     		mov	r1, #128
 1173 007c 0906     		lsl	r1, r1, #24
 1174 007e 0A43     		orr	r2, r1
 1175 0080 1A60     		str	r2, [r3]
 1176              	.L71:
 786:.\Generated_Source\PSoC4/I2C_I2C_MASTER.c ****         }
 787:.\Generated_Source\PSoC4/I2C_I2C_MASTER.c ****     }
 788:.\Generated_Source\PSoC4/I2C_I2C_MASTER.c **** 
 789:.\Generated_Source\PSoC4/I2C_I2C_MASTER.c ****     return(theByte);
 1177              		.loc 1 789 0
 1178 0082 FB68     		ldr	r3, [r7, #12]
 790:.\Generated_Source\PSoC4/I2C_I2C_MASTER.c **** }
 1179              		.loc 1 790 0
 1180 0084 181C     		mov	r0, r3
 1181 0086 BD46     		mov	sp, r7
 1182 0088 04B0     		add	sp, sp, #16
 1183              		@ sp needed
 1184 008a 80BD     		pop	{r7, pc}
 1185              	.L79:
 1186              		.align	2
 1187              	.L78:
 1188 008c 00000000 		.word	I2C_state
 1189 0090 C00F2440 		.word	1076105152
 1190 0094 000F2440 		.word	1076104960
 1191 0098 40032440 		.word	1076101952
 1192 009c 68002440 		.word	1076101224
 1193 00a0 17030000 		.word	791
 1194 00a4 00002440 		.word	1076101120
 1195              		.cfi_endproc
 1196              	.LFE8:
 1197              		.size	I2C_I2CMasterReadByte, .-I2C_I2CMasterReadByte
 1198              		.section	.text.I2C_I2CMasterGetReadBufSize,"ax",%progbits
 1199              		.align	2
 1200              		.global	I2C_I2CMasterGetReadBufSize
 1201              		.code	16
 1202              		.thumb_func
 1203              		.type	I2C_I2CMasterGetReadBufSize, %function
 1204              	I2C_I2CMasterGetReadBufSize:
ARM GAS  C:\Users\Petro\AppData\Local\Temp\cc9Q5GcY.s 			page 36


 1205              	.LFB9:
 791:.\Generated_Source\PSoC4/I2C_I2C_MASTER.c **** 
 792:.\Generated_Source\PSoC4/I2C_I2C_MASTER.c **** 
 793:.\Generated_Source\PSoC4/I2C_I2C_MASTER.c **** /*******************************************************************************
 794:.\Generated_Source\PSoC4/I2C_I2C_MASTER.c **** * Function Name: I2C_I2CMasterGetReadBufSize
 795:.\Generated_Source\PSoC4/I2C_I2C_MASTER.c **** ****************************************************************************//**
 796:.\Generated_Source\PSoC4/I2C_I2C_MASTER.c **** *
 797:.\Generated_Source\PSoC4/I2C_I2C_MASTER.c **** *  Returns the number of bytes that has been transferred with an
 798:.\Generated_Source\PSoC4/I2C_I2C_MASTER.c **** *  I2C_I2CMasterReadBuf() function.
 799:.\Generated_Source\PSoC4/I2C_I2C_MASTER.c **** *
 800:.\Generated_Source\PSoC4/I2C_I2C_MASTER.c **** * \return
 801:.\Generated_Source\PSoC4/I2C_I2C_MASTER.c **** *  Byte count of transfer. If the transfer is not yet complete, it returns
 802:.\Generated_Source\PSoC4/I2C_I2C_MASTER.c **** *  the byte count transferred so far.
 803:.\Generated_Source\PSoC4/I2C_I2C_MASTER.c **** *
 804:.\Generated_Source\PSoC4/I2C_I2C_MASTER.c **** * \sideeffect
 805:.\Generated_Source\PSoC4/I2C_I2C_MASTER.c **** *  This function returns not valid value if 
 806:.\Generated_Source\PSoC4/I2C_I2C_MASTER.c **** *  I2C_I2C_MSTAT_ERR_ARB_LOST or
 807:.\Generated_Source\PSoC4/I2C_I2C_MASTER.c **** *  I2C_I2C_MSTAT_ERR_BUS_ERROR occurred while read transfer.
 808:.\Generated_Source\PSoC4/I2C_I2C_MASTER.c **** *
 809:.\Generated_Source\PSoC4/I2C_I2C_MASTER.c **** * \globalvars
 810:.\Generated_Source\PSoC4/I2C_I2C_MASTER.c **** *  I2C_mstrRdBufIndex - used to current index within master read
 811:.\Generated_Source\PSoC4/I2C_I2C_MASTER.c **** *  buffer.
 812:.\Generated_Source\PSoC4/I2C_I2C_MASTER.c **** *
 813:.\Generated_Source\PSoC4/I2C_I2C_MASTER.c **** *******************************************************************************/
 814:.\Generated_Source\PSoC4/I2C_I2C_MASTER.c **** uint32 I2C_I2CMasterGetReadBufSize(void)
 815:.\Generated_Source\PSoC4/I2C_I2C_MASTER.c **** {
 1206              		.loc 1 815 0
 1207              		.cfi_startproc
 1208 0000 80B5     		push	{r7, lr}
 1209              		.cfi_def_cfa_offset 8
 1210              		.cfi_offset 7, -8
 1211              		.cfi_offset 14, -4
 1212 0002 00AF     		add	r7, sp, #0
 1213              		.cfi_def_cfa_register 7
 816:.\Generated_Source\PSoC4/I2C_I2C_MASTER.c ****     return(I2C_mstrRdBufIndex);
 1214              		.loc 1 816 0
 1215 0004 024B     		ldr	r3, .L82
 1216 0006 1B68     		ldr	r3, [r3]
 817:.\Generated_Source\PSoC4/I2C_I2C_MASTER.c **** }
 1217              		.loc 1 817 0
 1218 0008 181C     		mov	r0, r3
 1219 000a BD46     		mov	sp, r7
 1220              		@ sp needed
 1221 000c 80BD     		pop	{r7, pc}
 1222              	.L83:
 1223 000e C046     		.align	2
 1224              	.L82:
 1225 0010 00000000 		.word	I2C_mstrRdBufIndex
 1226              		.cfi_endproc
 1227              	.LFE9:
 1228              		.size	I2C_I2CMasterGetReadBufSize, .-I2C_I2CMasterGetReadBufSize
 1229              		.section	.text.I2C_I2CMasterGetWriteBufSize,"ax",%progbits
 1230              		.align	2
 1231              		.global	I2C_I2CMasterGetWriteBufSize
 1232              		.code	16
 1233              		.thumb_func
 1234              		.type	I2C_I2CMasterGetWriteBufSize, %function
ARM GAS  C:\Users\Petro\AppData\Local\Temp\cc9Q5GcY.s 			page 37


 1235              	I2C_I2CMasterGetWriteBufSize:
 1236              	.LFB10:
 818:.\Generated_Source\PSoC4/I2C_I2C_MASTER.c **** 
 819:.\Generated_Source\PSoC4/I2C_I2C_MASTER.c **** 
 820:.\Generated_Source\PSoC4/I2C_I2C_MASTER.c **** /*******************************************************************************
 821:.\Generated_Source\PSoC4/I2C_I2C_MASTER.c **** * Function Name: I2C_I2CMasterGetWriteBufSize
 822:.\Generated_Source\PSoC4/I2C_I2C_MASTER.c **** ****************************************************************************//**
 823:.\Generated_Source\PSoC4/I2C_I2C_MASTER.c **** *
 824:.\Generated_Source\PSoC4/I2C_I2C_MASTER.c **** *  Returns the number of bytes that have been transferred with an
 825:.\Generated_Source\PSoC4/I2C_I2C_MASTER.c **** *  SCB_I2CMasterWriteBuf() function.
 826:.\Generated_Source\PSoC4/I2C_I2C_MASTER.c **** *
 827:.\Generated_Source\PSoC4/I2C_I2C_MASTER.c **** * \return
 828:.\Generated_Source\PSoC4/I2C_I2C_MASTER.c **** *   Byte count of transfer. If the transfer is not yet complete, it returns
 829:.\Generated_Source\PSoC4/I2C_I2C_MASTER.c **** *   zero unit transfer completion.
 830:.\Generated_Source\PSoC4/I2C_I2C_MASTER.c **** *
 831:.\Generated_Source\PSoC4/I2C_I2C_MASTER.c **** * \sideeffect
 832:.\Generated_Source\PSoC4/I2C_I2C_MASTER.c **** *   This function returns not valid value if 
 833:.\Generated_Source\PSoC4/I2C_I2C_MASTER.c **** *   I2C_I2C_MSTAT_ERR_ARB_LOST or 
 834:.\Generated_Source\PSoC4/I2C_I2C_MASTER.c **** *   I2C_I2C_MSTAT_ERR_BUS_ERROR occurred while read transfer.
 835:.\Generated_Source\PSoC4/I2C_I2C_MASTER.c **** *
 836:.\Generated_Source\PSoC4/I2C_I2C_MASTER.c **** * \globalvars
 837:.\Generated_Source\PSoC4/I2C_I2C_MASTER.c **** *  I2C_mstrWrBufIndex - used to current index within master write
 838:.\Generated_Source\PSoC4/I2C_I2C_MASTER.c **** *  buffer.
 839:.\Generated_Source\PSoC4/I2C_I2C_MASTER.c **** *
 840:.\Generated_Source\PSoC4/I2C_I2C_MASTER.c **** *******************************************************************************/
 841:.\Generated_Source\PSoC4/I2C_I2C_MASTER.c **** uint32 I2C_I2CMasterGetWriteBufSize(void)
 842:.\Generated_Source\PSoC4/I2C_I2C_MASTER.c **** {
 1237              		.loc 1 842 0
 1238              		.cfi_startproc
 1239 0000 80B5     		push	{r7, lr}
 1240              		.cfi_def_cfa_offset 8
 1241              		.cfi_offset 7, -8
 1242              		.cfi_offset 14, -4
 1243 0002 00AF     		add	r7, sp, #0
 1244              		.cfi_def_cfa_register 7
 843:.\Generated_Source\PSoC4/I2C_I2C_MASTER.c ****     return(I2C_mstrWrBufIndex);
 1245              		.loc 1 843 0
 1246 0004 024B     		ldr	r3, .L86
 1247 0006 1B68     		ldr	r3, [r3]
 844:.\Generated_Source\PSoC4/I2C_I2C_MASTER.c **** }
 1248              		.loc 1 844 0
 1249 0008 181C     		mov	r0, r3
 1250 000a BD46     		mov	sp, r7
 1251              		@ sp needed
 1252 000c 80BD     		pop	{r7, pc}
 1253              	.L87:
 1254 000e C046     		.align	2
 1255              	.L86:
 1256 0010 00000000 		.word	I2C_mstrWrBufIndex
 1257              		.cfi_endproc
 1258              	.LFE10:
 1259              		.size	I2C_I2CMasterGetWriteBufSize, .-I2C_I2CMasterGetWriteBufSize
 1260              		.section	.text.I2C_I2CMasterClearReadBuf,"ax",%progbits
 1261              		.align	2
 1262              		.global	I2C_I2CMasterClearReadBuf
 1263              		.code	16
 1264              		.thumb_func
ARM GAS  C:\Users\Petro\AppData\Local\Temp\cc9Q5GcY.s 			page 38


 1265              		.type	I2C_I2CMasterClearReadBuf, %function
 1266              	I2C_I2CMasterClearReadBuf:
 1267              	.LFB11:
 845:.\Generated_Source\PSoC4/I2C_I2C_MASTER.c **** 
 846:.\Generated_Source\PSoC4/I2C_I2C_MASTER.c **** 
 847:.\Generated_Source\PSoC4/I2C_I2C_MASTER.c **** /*******************************************************************************
 848:.\Generated_Source\PSoC4/I2C_I2C_MASTER.c **** * Function Name: I2C_I2CMasterClearReadBuf
 849:.\Generated_Source\PSoC4/I2C_I2C_MASTER.c **** ****************************************************************************//**
 850:.\Generated_Source\PSoC4/I2C_I2C_MASTER.c **** *
 851:.\Generated_Source\PSoC4/I2C_I2C_MASTER.c **** *  Resets the read buffer pointer back to the first byte in the buffer.
 852:.\Generated_Source\PSoC4/I2C_I2C_MASTER.c **** *
 853:.\Generated_Source\PSoC4/I2C_I2C_MASTER.c **** * \globalvars
 854:.\Generated_Source\PSoC4/I2C_I2C_MASTER.c **** *  I2C_mstrRdBufIndex - used to current index within master read
 855:.\Generated_Source\PSoC4/I2C_I2C_MASTER.c **** *   buffer.
 856:.\Generated_Source\PSoC4/I2C_I2C_MASTER.c **** *  I2C_mstrStatus - used to store current status of I2C Master.
 857:.\Generated_Source\PSoC4/I2C_I2C_MASTER.c **** *
 858:.\Generated_Source\PSoC4/I2C_I2C_MASTER.c **** *******************************************************************************/
 859:.\Generated_Source\PSoC4/I2C_I2C_MASTER.c **** void I2C_I2CMasterClearReadBuf(void)
 860:.\Generated_Source\PSoC4/I2C_I2C_MASTER.c **** {
 1268              		.loc 1 860 0
 1269              		.cfi_startproc
 1270 0000 80B5     		push	{r7, lr}
 1271              		.cfi_def_cfa_offset 8
 1272              		.cfi_offset 7, -8
 1273              		.cfi_offset 14, -4
 1274 0002 00AF     		add	r7, sp, #0
 1275              		.cfi_def_cfa_register 7
 861:.\Generated_Source\PSoC4/I2C_I2C_MASTER.c ****     I2C_DisableInt();  /* Lock from interruption */
 1276              		.loc 1 861 0
 1277 0004 0920     		mov	r0, #9
 1278 0006 FFF7FEFF 		bl	CyIntDisable
 862:.\Generated_Source\PSoC4/I2C_I2C_MASTER.c **** 
 863:.\Generated_Source\PSoC4/I2C_I2C_MASTER.c ****     I2C_mstrRdBufIndex = 0u;
 1279              		.loc 1 863 0
 1280 000a 084B     		ldr	r3, .L89
 1281 000c 0022     		mov	r2, #0
 1282 000e 1A60     		str	r2, [r3]
 864:.\Generated_Source\PSoC4/I2C_I2C_MASTER.c ****     I2C_mstrStatus    &= (uint16) ~I2C_I2C_MSTAT_RD_CMPLT;
 1283              		.loc 1 864 0
 1284 0010 074B     		ldr	r3, .L89+4
 1285 0012 1B88     		ldrh	r3, [r3]
 1286 0014 9BB2     		uxth	r3, r3
 1287 0016 0122     		mov	r2, #1
 1288 0018 9343     		bic	r3, r2
 1289 001a 9AB2     		uxth	r2, r3
 1290 001c 044B     		ldr	r3, .L89+4
 1291 001e 1A80     		strh	r2, [r3]
 865:.\Generated_Source\PSoC4/I2C_I2C_MASTER.c **** 
 866:.\Generated_Source\PSoC4/I2C_I2C_MASTER.c ****     I2C_EnableInt();   /* Release lock */
 1292              		.loc 1 866 0
 1293 0020 0920     		mov	r0, #9
 1294 0022 FFF7FEFF 		bl	CyIntEnable
 867:.\Generated_Source\PSoC4/I2C_I2C_MASTER.c **** }
 1295              		.loc 1 867 0
 1296 0026 BD46     		mov	sp, r7
 1297              		@ sp needed
 1298 0028 80BD     		pop	{r7, pc}
ARM GAS  C:\Users\Petro\AppData\Local\Temp\cc9Q5GcY.s 			page 39


 1299              	.L90:
 1300 002a C046     		.align	2
 1301              	.L89:
 1302 002c 00000000 		.word	I2C_mstrRdBufIndex
 1303 0030 00000000 		.word	I2C_mstrStatus
 1304              		.cfi_endproc
 1305              	.LFE11:
 1306              		.size	I2C_I2CMasterClearReadBuf, .-I2C_I2CMasterClearReadBuf
 1307              		.section	.text.I2C_I2CMasterClearWriteBuf,"ax",%progbits
 1308              		.align	2
 1309              		.global	I2C_I2CMasterClearWriteBuf
 1310              		.code	16
 1311              		.thumb_func
 1312              		.type	I2C_I2CMasterClearWriteBuf, %function
 1313              	I2C_I2CMasterClearWriteBuf:
 1314              	.LFB12:
 868:.\Generated_Source\PSoC4/I2C_I2C_MASTER.c **** 
 869:.\Generated_Source\PSoC4/I2C_I2C_MASTER.c **** 
 870:.\Generated_Source\PSoC4/I2C_I2C_MASTER.c **** /*******************************************************************************
 871:.\Generated_Source\PSoC4/I2C_I2C_MASTER.c **** * Function Name: I2C_I2CMasterClearWriteBuf
 872:.\Generated_Source\PSoC4/I2C_I2C_MASTER.c **** ****************************************************************************//**
 873:.\Generated_Source\PSoC4/I2C_I2C_MASTER.c **** *
 874:.\Generated_Source\PSoC4/I2C_I2C_MASTER.c **** *  Resets the write buffer pointer back to the first byte in the buffer.
 875:.\Generated_Source\PSoC4/I2C_I2C_MASTER.c **** *
 876:.\Generated_Source\PSoC4/I2C_I2C_MASTER.c **** * \globalvars
 877:.\Generated_Source\PSoC4/I2C_I2C_MASTER.c **** *  I2C_mstrRdBufIndex - used to current index within master read
 878:.\Generated_Source\PSoC4/I2C_I2C_MASTER.c **** *   buffer.
 879:.\Generated_Source\PSoC4/I2C_I2C_MASTER.c **** *  I2C_mstrStatus - used to store current status of I2C Master.
 880:.\Generated_Source\PSoC4/I2C_I2C_MASTER.c **** *
 881:.\Generated_Source\PSoC4/I2C_I2C_MASTER.c **** *******************************************************************************/
 882:.\Generated_Source\PSoC4/I2C_I2C_MASTER.c **** void I2C_I2CMasterClearWriteBuf(void)
 883:.\Generated_Source\PSoC4/I2C_I2C_MASTER.c **** {
 1315              		.loc 1 883 0
 1316              		.cfi_startproc
 1317 0000 80B5     		push	{r7, lr}
 1318              		.cfi_def_cfa_offset 8
 1319              		.cfi_offset 7, -8
 1320              		.cfi_offset 14, -4
 1321 0002 00AF     		add	r7, sp, #0
 1322              		.cfi_def_cfa_register 7
 884:.\Generated_Source\PSoC4/I2C_I2C_MASTER.c ****     I2C_DisableInt();  /* Lock from interruption */
 1323              		.loc 1 884 0
 1324 0004 0920     		mov	r0, #9
 1325 0006 FFF7FEFF 		bl	CyIntDisable
 885:.\Generated_Source\PSoC4/I2C_I2C_MASTER.c **** 
 886:.\Generated_Source\PSoC4/I2C_I2C_MASTER.c ****     I2C_mstrWrBufIndex = 0u;
 1326              		.loc 1 886 0
 1327 000a 084B     		ldr	r3, .L92
 1328 000c 0022     		mov	r2, #0
 1329 000e 1A60     		str	r2, [r3]
 887:.\Generated_Source\PSoC4/I2C_I2C_MASTER.c ****     I2C_mstrStatus    &= (uint16) ~I2C_I2C_MSTAT_WR_CMPLT;
 1330              		.loc 1 887 0
 1331 0010 074B     		ldr	r3, .L92+4
 1332 0012 1B88     		ldrh	r3, [r3]
 1333 0014 9BB2     		uxth	r3, r3
 1334 0016 0222     		mov	r2, #2
 1335 0018 9343     		bic	r3, r2
ARM GAS  C:\Users\Petro\AppData\Local\Temp\cc9Q5GcY.s 			page 40


 1336 001a 9AB2     		uxth	r2, r3
 1337 001c 044B     		ldr	r3, .L92+4
 1338 001e 1A80     		strh	r2, [r3]
 888:.\Generated_Source\PSoC4/I2C_I2C_MASTER.c **** 
 889:.\Generated_Source\PSoC4/I2C_I2C_MASTER.c ****     I2C_EnableInt();   /* Release lock */
 1339              		.loc 1 889 0
 1340 0020 0920     		mov	r0, #9
 1341 0022 FFF7FEFF 		bl	CyIntEnable
 890:.\Generated_Source\PSoC4/I2C_I2C_MASTER.c **** }
 1342              		.loc 1 890 0
 1343 0026 BD46     		mov	sp, r7
 1344              		@ sp needed
 1345 0028 80BD     		pop	{r7, pc}
 1346              	.L93:
 1347 002a C046     		.align	2
 1348              	.L92:
 1349 002c 00000000 		.word	I2C_mstrWrBufIndex
 1350 0030 00000000 		.word	I2C_mstrStatus
 1351              		.cfi_endproc
 1352              	.LFE12:
 1353              		.size	I2C_I2CMasterClearWriteBuf, .-I2C_I2CMasterClearWriteBuf
 1354              		.section	.text.I2C_I2CMasterStatus,"ax",%progbits
 1355              		.align	2
 1356              		.global	I2C_I2CMasterStatus
 1357              		.code	16
 1358              		.thumb_func
 1359              		.type	I2C_I2CMasterStatus, %function
 1360              	I2C_I2CMasterStatus:
 1361              	.LFB13:
 891:.\Generated_Source\PSoC4/I2C_I2C_MASTER.c **** 
 892:.\Generated_Source\PSoC4/I2C_I2C_MASTER.c **** 
 893:.\Generated_Source\PSoC4/I2C_I2C_MASTER.c **** /*******************************************************************************
 894:.\Generated_Source\PSoC4/I2C_I2C_MASTER.c **** * Function Name: I2C_I2CMasterStatus
 895:.\Generated_Source\PSoC4/I2C_I2C_MASTER.c **** ****************************************************************************//**
 896:.\Generated_Source\PSoC4/I2C_I2C_MASTER.c **** *
 897:.\Generated_Source\PSoC4/I2C_I2C_MASTER.c **** *  Returns the master's communication status.
 898:.\Generated_Source\PSoC4/I2C_I2C_MASTER.c **** *
 899:.\Generated_Source\PSoC4/I2C_I2C_MASTER.c **** * \return
 900:.\Generated_Source\PSoC4/I2C_I2C_MASTER.c **** *  Current status of I2C master. This status incorporates status constants. 
 901:.\Generated_Source\PSoC4/I2C_I2C_MASTER.c **** *  Each constant is a bit field value. The value returned may have multiple 
 902:.\Generated_Source\PSoC4/I2C_I2C_MASTER.c **** *  bits set to indicate the status of the read or write transfer.
 903:.\Generated_Source\PSoC4/I2C_I2C_MASTER.c **** *  - I2C_I2C_MSTAT_RD_CMPLT - Read transfer complete.
 904:.\Generated_Source\PSoC4/I2C_I2C_MASTER.c **** *    The error condition status bits must be checked to ensure that 
 905:.\Generated_Source\PSoC4/I2C_I2C_MASTER.c **** *    read transfer was completed successfully.
 906:.\Generated_Source\PSoC4/I2C_I2C_MASTER.c **** *  - I2C_I2C_MSTAT_WR_CMPLT - Write transfer complete.
 907:.\Generated_Source\PSoC4/I2C_I2C_MASTER.c **** *    The error condition status bits must be checked to ensure that write 
 908:.\Generated_Source\PSoC4/I2C_I2C_MASTER.c **** *    transfer was completed successfully.
 909:.\Generated_Source\PSoC4/I2C_I2C_MASTER.c **** *  - I2C_I2C_MSTAT_XFER_INP - Transfer in progress.
 910:.\Generated_Source\PSoC4/I2C_I2C_MASTER.c **** *  - I2C_I2C_MSTAT_XFER_HALT - Transfer has been halted. 
 911:.\Generated_Source\PSoC4/I2C_I2C_MASTER.c **** *    The I2C bus is waiting for ReStart or Stop condition generation.
 912:.\Generated_Source\PSoC4/I2C_I2C_MASTER.c **** *  - I2C_I2C_MSTAT_ERR_SHORT_XFER - Error condition: Write 
 913:.\Generated_Source\PSoC4/I2C_I2C_MASTER.c **** *    transfer completed before all bytes were transferred. The slave NAKed 
 914:.\Generated_Source\PSoC4/I2C_I2C_MASTER.c **** *    the byte which was expected to be ACKed.
 915:.\Generated_Source\PSoC4/I2C_I2C_MASTER.c **** *  - I2C_I2C_MSTAT_ERR_ADDR_NAK - Error condition: Slave did 
 916:.\Generated_Source\PSoC4/I2C_I2C_MASTER.c **** *    not acknowledge address.
 917:.\Generated_Source\PSoC4/I2C_I2C_MASTER.c **** *  - I2C_I2C_MSTAT_ERR_ARB_LOST - Error condition: Master lost 
 918:.\Generated_Source\PSoC4/I2C_I2C_MASTER.c **** *    arbitration during communications with slave.
ARM GAS  C:\Users\Petro\AppData\Local\Temp\cc9Q5GcY.s 			page 41


 919:.\Generated_Source\PSoC4/I2C_I2C_MASTER.c **** *  - I2C_I2C_MSTAT_ERR_BUS_ERROR - Error condition: bus error 
 920:.\Generated_Source\PSoC4/I2C_I2C_MASTER.c **** *    occurred during master transfer due to misplaced Start or Stop 
 921:.\Generated_Source\PSoC4/I2C_I2C_MASTER.c **** *    condition on the bus.
 922:.\Generated_Source\PSoC4/I2C_I2C_MASTER.c **** *  - I2C_I2C_MSTAT_ERR_ABORT_XFER - Error condition: Slave was 
 923:.\Generated_Source\PSoC4/I2C_I2C_MASTER.c **** *    addressed by another master while master performed the start condition 
 924:.\Generated_Source\PSoC4/I2C_I2C_MASTER.c **** *    generation. As a result, master has automatically switched to slave 
 925:.\Generated_Source\PSoC4/I2C_I2C_MASTER.c **** *    mode and is responding. The master transaction has not taken place
 926:.\Generated_Source\PSoC4/I2C_I2C_MASTER.c **** *    This error condition only applicable for Multi-Master-Slave mode.
 927:.\Generated_Source\PSoC4/I2C_I2C_MASTER.c **** *  - I2C_I2C_MSTAT_ERR_XFER - Error condition: This is the 
 928:.\Generated_Source\PSoC4/I2C_I2C_MASTER.c **** *    ORed value of all error conditions provided above.
 929:.\Generated_Source\PSoC4/I2C_I2C_MASTER.c **** *
 930:.\Generated_Source\PSoC4/I2C_I2C_MASTER.c **** * \globalvars
 931:.\Generated_Source\PSoC4/I2C_I2C_MASTER.c **** *  I2C_mstrStatus - used to store current status of I2C Master.
 932:.\Generated_Source\PSoC4/I2C_I2C_MASTER.c **** *
 933:.\Generated_Source\PSoC4/I2C_I2C_MASTER.c **** *******************************************************************************/
 934:.\Generated_Source\PSoC4/I2C_I2C_MASTER.c **** uint32 I2C_I2CMasterStatus(void)
 935:.\Generated_Source\PSoC4/I2C_I2C_MASTER.c **** {
 1362              		.loc 1 935 0
 1363              		.cfi_startproc
 1364 0000 80B5     		push	{r7, lr}
 1365              		.cfi_def_cfa_offset 8
 1366              		.cfi_offset 7, -8
 1367              		.cfi_offset 14, -4
 1368 0002 82B0     		sub	sp, sp, #8
 1369              		.cfi_def_cfa_offset 16
 1370 0004 00AF     		add	r7, sp, #0
 1371              		.cfi_def_cfa_register 7
 936:.\Generated_Source\PSoC4/I2C_I2C_MASTER.c ****     uint32 status;
 937:.\Generated_Source\PSoC4/I2C_I2C_MASTER.c **** 
 938:.\Generated_Source\PSoC4/I2C_I2C_MASTER.c ****     I2C_DisableInt();  /* Lock from interruption */
 1372              		.loc 1 938 0
 1373 0006 0920     		mov	r0, #9
 1374 0008 FFF7FEFF 		bl	CyIntDisable
 939:.\Generated_Source\PSoC4/I2C_I2C_MASTER.c **** 
 940:.\Generated_Source\PSoC4/I2C_I2C_MASTER.c ****     status = (uint32) I2C_mstrStatus;
 1375              		.loc 1 940 0
 1376 000c 0B4B     		ldr	r3, .L97
 1377 000e 1B88     		ldrh	r3, [r3]
 1378 0010 9BB2     		uxth	r3, r3
 1379 0012 7B60     		str	r3, [r7, #4]
 941:.\Generated_Source\PSoC4/I2C_I2C_MASTER.c **** 
 942:.\Generated_Source\PSoC4/I2C_I2C_MASTER.c ****     if (I2C_CHECK_I2C_MASTER_ACTIVE)
 1380              		.loc 1 942 0
 1381 0014 0A4B     		ldr	r3, .L97+4
 1382 0016 1B78     		ldrb	r3, [r3]
 1383 0018 DBB2     		uxtb	r3, r3
 1384 001a 2022     		mov	r2, #32
 1385 001c 1340     		and	r3, r2
 1386 001e DBB2     		uxtb	r3, r3
 1387 0020 002B     		cmp	r3, #0
 1388 0022 03D0     		beq	.L95
 943:.\Generated_Source\PSoC4/I2C_I2C_MASTER.c ****     {
 944:.\Generated_Source\PSoC4/I2C_I2C_MASTER.c ****         /* Add status of master pending transaction: MSTAT_XFER_INP */
 945:.\Generated_Source\PSoC4/I2C_I2C_MASTER.c ****         status |= (uint32) I2C_I2C_MSTAT_XFER_INP;
 1389              		.loc 1 945 0
 1390 0024 7B68     		ldr	r3, [r7, #4]
 1391 0026 0422     		mov	r2, #4
ARM GAS  C:\Users\Petro\AppData\Local\Temp\cc9Q5GcY.s 			page 42


 1392 0028 1343     		orr	r3, r2
 1393 002a 7B60     		str	r3, [r7, #4]
 1394              	.L95:
 946:.\Generated_Source\PSoC4/I2C_I2C_MASTER.c ****     }
 947:.\Generated_Source\PSoC4/I2C_I2C_MASTER.c **** 
 948:.\Generated_Source\PSoC4/I2C_I2C_MASTER.c ****     I2C_EnableInt();   /* Release lock */
 1395              		.loc 1 948 0
 1396 002c 0920     		mov	r0, #9
 1397 002e FFF7FEFF 		bl	CyIntEnable
 949:.\Generated_Source\PSoC4/I2C_I2C_MASTER.c **** 
 950:.\Generated_Source\PSoC4/I2C_I2C_MASTER.c ****     return(status);
 1398              		.loc 1 950 0
 1399 0032 7B68     		ldr	r3, [r7, #4]
 951:.\Generated_Source\PSoC4/I2C_I2C_MASTER.c **** }
 1400              		.loc 1 951 0
 1401 0034 181C     		mov	r0, r3
 1402 0036 BD46     		mov	sp, r7
 1403 0038 02B0     		add	sp, sp, #8
 1404              		@ sp needed
 1405 003a 80BD     		pop	{r7, pc}
 1406              	.L98:
 1407              		.align	2
 1408              	.L97:
 1409 003c 00000000 		.word	I2C_mstrStatus
 1410 0040 00000000 		.word	I2C_state
 1411              		.cfi_endproc
 1412              	.LFE13:
 1413              		.size	I2C_I2CMasterStatus, .-I2C_I2CMasterStatus
 1414              		.section	.text.I2C_I2CMasterClearStatus,"ax",%progbits
 1415              		.align	2
 1416              		.global	I2C_I2CMasterClearStatus
 1417              		.code	16
 1418              		.thumb_func
 1419              		.type	I2C_I2CMasterClearStatus, %function
 1420              	I2C_I2CMasterClearStatus:
 1421              	.LFB14:
 952:.\Generated_Source\PSoC4/I2C_I2C_MASTER.c **** 
 953:.\Generated_Source\PSoC4/I2C_I2C_MASTER.c **** 
 954:.\Generated_Source\PSoC4/I2C_I2C_MASTER.c **** /*******************************************************************************
 955:.\Generated_Source\PSoC4/I2C_I2C_MASTER.c **** * Function Name: I2C_I2CMasterClearStatus
 956:.\Generated_Source\PSoC4/I2C_I2C_MASTER.c **** ****************************************************************************//**
 957:.\Generated_Source\PSoC4/I2C_I2C_MASTER.c **** *
 958:.\Generated_Source\PSoC4/I2C_I2C_MASTER.c **** *  Clears all status flags and returns the master status.
 959:.\Generated_Source\PSoC4/I2C_I2C_MASTER.c **** *
 960:.\Generated_Source\PSoC4/I2C_I2C_MASTER.c **** * \return
 961:.\Generated_Source\PSoC4/I2C_I2C_MASTER.c **** *  Current status of master. See the I2C_I2CMasterStatus() 
 962:.\Generated_Source\PSoC4/I2C_I2C_MASTER.c **** *  function for constants.
 963:.\Generated_Source\PSoC4/I2C_I2C_MASTER.c **** *
 964:.\Generated_Source\PSoC4/I2C_I2C_MASTER.c **** * \globalvars
 965:.\Generated_Source\PSoC4/I2C_I2C_MASTER.c **** *  I2C_mstrStatus - used to store current status of I2C Master.
 966:.\Generated_Source\PSoC4/I2C_I2C_MASTER.c **** *
 967:.\Generated_Source\PSoC4/I2C_I2C_MASTER.c **** *******************************************************************************/
 968:.\Generated_Source\PSoC4/I2C_I2C_MASTER.c **** uint32 I2C_I2CMasterClearStatus(void)
 969:.\Generated_Source\PSoC4/I2C_I2C_MASTER.c **** {
 1422              		.loc 1 969 0
 1423              		.cfi_startproc
 1424 0000 80B5     		push	{r7, lr}
ARM GAS  C:\Users\Petro\AppData\Local\Temp\cc9Q5GcY.s 			page 43


 1425              		.cfi_def_cfa_offset 8
 1426              		.cfi_offset 7, -8
 1427              		.cfi_offset 14, -4
 1428 0002 82B0     		sub	sp, sp, #8
 1429              		.cfi_def_cfa_offset 16
 1430 0004 00AF     		add	r7, sp, #0
 1431              		.cfi_def_cfa_register 7
 970:.\Generated_Source\PSoC4/I2C_I2C_MASTER.c ****     uint32 status;
 971:.\Generated_Source\PSoC4/I2C_I2C_MASTER.c **** 
 972:.\Generated_Source\PSoC4/I2C_I2C_MASTER.c ****     I2C_DisableInt();  /* Lock from interruption */
 1432              		.loc 1 972 0
 1433 0006 0920     		mov	r0, #9
 1434 0008 FFF7FEFF 		bl	CyIntDisable
 973:.\Generated_Source\PSoC4/I2C_I2C_MASTER.c **** 
 974:.\Generated_Source\PSoC4/I2C_I2C_MASTER.c ****     /* Read and clear master status */
 975:.\Generated_Source\PSoC4/I2C_I2C_MASTER.c ****     status = (uint32) I2C_mstrStatus;
 1435              		.loc 1 975 0
 1436 000c 074B     		ldr	r3, .L101
 1437 000e 1B88     		ldrh	r3, [r3]
 1438 0010 9BB2     		uxth	r3, r3
 1439 0012 7B60     		str	r3, [r7, #4]
 976:.\Generated_Source\PSoC4/I2C_I2C_MASTER.c ****     I2C_mstrStatus = I2C_I2C_MSTAT_CLEAR;
 1440              		.loc 1 976 0
 1441 0014 054B     		ldr	r3, .L101
 1442 0016 0022     		mov	r2, #0
 1443 0018 1A80     		strh	r2, [r3]
 977:.\Generated_Source\PSoC4/I2C_I2C_MASTER.c **** 
 978:.\Generated_Source\PSoC4/I2C_I2C_MASTER.c ****     I2C_EnableInt();   /* Release lock */
 1444              		.loc 1 978 0
 1445 001a 0920     		mov	r0, #9
 1446 001c FFF7FEFF 		bl	CyIntEnable
 979:.\Generated_Source\PSoC4/I2C_I2C_MASTER.c **** 
 980:.\Generated_Source\PSoC4/I2C_I2C_MASTER.c ****     return(status);
 1447              		.loc 1 980 0
 1448 0020 7B68     		ldr	r3, [r7, #4]
 981:.\Generated_Source\PSoC4/I2C_I2C_MASTER.c **** }
 1449              		.loc 1 981 0
 1450 0022 181C     		mov	r0, r3
 1451 0024 BD46     		mov	sp, r7
 1452 0026 02B0     		add	sp, sp, #8
 1453              		@ sp needed
 1454 0028 80BD     		pop	{r7, pc}
 1455              	.L102:
 1456 002a C046     		.align	2
 1457              	.L101:
 1458 002c 00000000 		.word	I2C_mstrStatus
 1459              		.cfi_endproc
 1460              	.LFE14:
 1461              		.size	I2C_I2CMasterClearStatus, .-I2C_I2CMasterClearStatus
 1462              		.section	.text.I2C_I2CReStartGeneration,"ax",%progbits
 1463              		.align	2
 1464              		.global	I2C_I2CReStartGeneration
 1465              		.code	16
 1466              		.thumb_func
 1467              		.type	I2C_I2CReStartGeneration, %function
 1468              	I2C_I2CReStartGeneration:
 1469              	.LFB15:
ARM GAS  C:\Users\Petro\AppData\Local\Temp\cc9Q5GcY.s 			page 44


 982:.\Generated_Source\PSoC4/I2C_I2C_MASTER.c **** 
 983:.\Generated_Source\PSoC4/I2C_I2C_MASTER.c **** 
 984:.\Generated_Source\PSoC4/I2C_I2C_MASTER.c **** /*******************************************************************************
 985:.\Generated_Source\PSoC4/I2C_I2C_MASTER.c **** * Function Name: I2C_I2CReStartGeneration
 986:.\Generated_Source\PSoC4/I2C_I2C_MASTER.c **** ****************************************************************************//**
 987:.\Generated_Source\PSoC4/I2C_I2C_MASTER.c **** *
 988:.\Generated_Source\PSoC4/I2C_I2C_MASTER.c **** *  Generates a ReStart condition:
 989:.\Generated_Source\PSoC4/I2C_I2C_MASTER.c **** *  - SCB IP V1 and later: Generates ReStart using the scb IP functionality
 990:.\Generated_Source\PSoC4/I2C_I2C_MASTER.c **** *    Sets the I2C_MASTER_CMD_M_START and I2C_MASTER_CMD_M_NACK (if the previous
 991:.\Generated_Source\PSoC4/I2C_I2C_MASTER.c **** *    transaction was read) bits in the SCB.I2C_MASTER_CMD register.
 992:.\Generated_Source\PSoC4/I2C_I2C_MASTER.c **** *    This combination forces the master to generate ReStart.
 993:.\Generated_Source\PSoC4/I2C_I2C_MASTER.c **** *
 994:.\Generated_Source\PSoC4/I2C_I2C_MASTER.c **** *  - SCB IP V0: Generates Restart using the GPIO and scb IP functionality.
 995:.\Generated_Source\PSoC4/I2C_I2C_MASTER.c **** *    After the master completes write or read, the SCL is stretched.
 996:.\Generated_Source\PSoC4/I2C_I2C_MASTER.c **** *    The master waits until SDA line is released by the slave. Then the GPIO
 997:.\Generated_Source\PSoC4/I2C_I2C_MASTER.c **** *    function is enabled and the scb IP disabled as it already does not drive
 998:.\Generated_Source\PSoC4/I2C_I2C_MASTER.c **** *    the bus. In case of the previous transfer was read, the NACK is generated
 999:.\Generated_Source\PSoC4/I2C_I2C_MASTER.c **** *    by the GPIO. The delay of tLOW is added to manage the hold time.
1000:.\Generated_Source\PSoC4/I2C_I2C_MASTER.c **** *    Set I2C_M_CMD.START and enable the scb IP. The ReStart generation
1001:.\Generated_Source\PSoC4/I2C_I2C_MASTER.c **** *    is started after the I2C function is enabled for the SCL.
1002:.\Generated_Source\PSoC4/I2C_I2C_MASTER.c **** *    Note1: the scb IP due re-enable generates Start but on the I2C bus it
1003:.\Generated_Source\PSoC4/I2C_I2C_MASTER.c **** *           appears as ReStart.
1004:.\Generated_Source\PSoC4/I2C_I2C_MASTER.c **** *    Note2: the I2C_M_CMD.START is queued if scb IP is disabled.
1005:.\Generated_Source\PSoC4/I2C_I2C_MASTER.c **** *    Note3: the I2C_STATUS_M_READ is cleared is address was NACKed before.
1006:.\Generated_Source\PSoC4/I2C_I2C_MASTER.c **** *
1007:.\Generated_Source\PSoC4/I2C_I2C_MASTER.c **** * \sideeffect
1008:.\Generated_Source\PSoC4/I2C_I2C_MASTER.c **** *  SCB IP V0: The NACK generation by the GPIO may cause a greater SCL period
1009:.\Generated_Source\PSoC4/I2C_I2C_MASTER.c **** *             than expected for the selected master data rate.
1010:.\Generated_Source\PSoC4/I2C_I2C_MASTER.c **** *
1011:.\Generated_Source\PSoC4/I2C_I2C_MASTER.c **** *******************************************************************************/
1012:.\Generated_Source\PSoC4/I2C_I2C_MASTER.c **** void I2C_I2CReStartGeneration(void)
1013:.\Generated_Source\PSoC4/I2C_I2C_MASTER.c **** {
 1470              		.loc 1 1013 0
 1471              		.cfi_startproc
 1472 0000 80B5     		push	{r7, lr}
 1473              		.cfi_def_cfa_offset 8
 1474              		.cfi_offset 7, -8
 1475              		.cfi_offset 14, -4
 1476 0002 82B0     		sub	sp, sp, #8
 1477              		.cfi_def_cfa_offset 16
 1478 0004 00AF     		add	r7, sp, #0
 1479              		.cfi_def_cfa_register 7
1014:.\Generated_Source\PSoC4/I2C_I2C_MASTER.c **** #if(I2C_CY_SCBIP_V0)
1015:.\Generated_Source\PSoC4/I2C_I2C_MASTER.c ****     /* Generates Restart use GPIO and scb IP functionality. Ticket ID#143715,
1016:.\Generated_Source\PSoC4/I2C_I2C_MASTER.c ****     * ID#145238 and ID#173656.
1017:.\Generated_Source\PSoC4/I2C_I2C_MASTER.c ****     */
1018:.\Generated_Source\PSoC4/I2C_I2C_MASTER.c ****     uint32 status = I2C_I2C_STATUS_REG;
1019:.\Generated_Source\PSoC4/I2C_I2C_MASTER.c **** 
1020:.\Generated_Source\PSoC4/I2C_I2C_MASTER.c ****     while(I2C_WAIT_SDA_SET_HIGH)
1021:.\Generated_Source\PSoC4/I2C_I2C_MASTER.c ****     {
1022:.\Generated_Source\PSoC4/I2C_I2C_MASTER.c ****         /* Wait when slave release SDA line: SCL tHIGH is complete */
1023:.\Generated_Source\PSoC4/I2C_I2C_MASTER.c ****     }
1024:.\Generated_Source\PSoC4/I2C_I2C_MASTER.c **** 
1025:.\Generated_Source\PSoC4/I2C_I2C_MASTER.c ****     /* Prepare DR register to drive SCL line */
1026:.\Generated_Source\PSoC4/I2C_I2C_MASTER.c ****     I2C_SET_I2C_SCL_DR(I2C_I2C_SCL_LOW);
1027:.\Generated_Source\PSoC4/I2C_I2C_MASTER.c **** 
1028:.\Generated_Source\PSoC4/I2C_I2C_MASTER.c ****     /* Switch HSIOM to GPIO: SCL goes low */
ARM GAS  C:\Users\Petro\AppData\Local\Temp\cc9Q5GcY.s 			page 45


1029:.\Generated_Source\PSoC4/I2C_I2C_MASTER.c ****     I2C_SET_I2C_SCL_HSIOM_SEL(I2C_HSIOM_GPIO_SEL);
1030:.\Generated_Source\PSoC4/I2C_I2C_MASTER.c **** 
1031:.\Generated_Source\PSoC4/I2C_I2C_MASTER.c ****     /* Disable SCB block */
1032:.\Generated_Source\PSoC4/I2C_I2C_MASTER.c ****     I2C_CTRL_REG &= (uint32) ~I2C_CTRL_ENABLED;
1033:.\Generated_Source\PSoC4/I2C_I2C_MASTER.c **** 
1034:.\Generated_Source\PSoC4/I2C_I2C_MASTER.c ****     if(0u != (status & I2C_I2C_STATUS_M_READ))
1035:.\Generated_Source\PSoC4/I2C_I2C_MASTER.c ****     {
1036:.\Generated_Source\PSoC4/I2C_I2C_MASTER.c ****         /* Generate NACK use GPIO functionality */
1037:.\Generated_Source\PSoC4/I2C_I2C_MASTER.c ****         I2C_SET_I2C_SCL_DR(I2C_I2C_SCL_LOW);
1038:.\Generated_Source\PSoC4/I2C_I2C_MASTER.c ****         CyDelayUs(I2C_I2C_TLOW_TIME); /* Count tLOW */
1039:.\Generated_Source\PSoC4/I2C_I2C_MASTER.c **** 
1040:.\Generated_Source\PSoC4/I2C_I2C_MASTER.c ****         I2C_SET_I2C_SCL_DR(I2C_I2C_SCL_HIGH);
1041:.\Generated_Source\PSoC4/I2C_I2C_MASTER.c ****         while(I2C_WAIT_SCL_SET_HIGH)
1042:.\Generated_Source\PSoC4/I2C_I2C_MASTER.c ****         {
1043:.\Generated_Source\PSoC4/I2C_I2C_MASTER.c ****             /* Wait until slave releases SCL in case if it stretches */
1044:.\Generated_Source\PSoC4/I2C_I2C_MASTER.c ****         }
1045:.\Generated_Source\PSoC4/I2C_I2C_MASTER.c ****         CyDelayUs(I2C_I2C_THIGH_TIME); /* Count tHIGH */
1046:.\Generated_Source\PSoC4/I2C_I2C_MASTER.c ****     }
1047:.\Generated_Source\PSoC4/I2C_I2C_MASTER.c **** 
1048:.\Generated_Source\PSoC4/I2C_I2C_MASTER.c ****     /* Count tLOW as hold time for write and read */
1049:.\Generated_Source\PSoC4/I2C_I2C_MASTER.c ****     I2C_SET_I2C_SCL_DR(I2C_I2C_SCL_LOW);
1050:.\Generated_Source\PSoC4/I2C_I2C_MASTER.c ****     CyDelayUs(I2C_I2C_TLOW_TIME); /* Count tLOW */
1051:.\Generated_Source\PSoC4/I2C_I2C_MASTER.c **** 
1052:.\Generated_Source\PSoC4/I2C_I2C_MASTER.c ****     /* Set command for Start generation: it will appear */
1053:.\Generated_Source\PSoC4/I2C_I2C_MASTER.c ****     I2C_I2C_MASTER_CMD_REG = I2C_I2C_MASTER_CMD_M_START;
1054:.\Generated_Source\PSoC4/I2C_I2C_MASTER.c **** 
1055:.\Generated_Source\PSoC4/I2C_I2C_MASTER.c ****     /* Enable SCB block */
1056:.\Generated_Source\PSoC4/I2C_I2C_MASTER.c ****     I2C_CTRL_REG |= (uint32) I2C_CTRL_ENABLED;
1057:.\Generated_Source\PSoC4/I2C_I2C_MASTER.c **** 
1058:.\Generated_Source\PSoC4/I2C_I2C_MASTER.c ****     /* Switch HSIOM to I2C: */
1059:.\Generated_Source\PSoC4/I2C_I2C_MASTER.c ****     I2C_SET_I2C_SCL_HSIOM_SEL(I2C_HSIOM_I2C_SEL);
1060:.\Generated_Source\PSoC4/I2C_I2C_MASTER.c **** 
1061:.\Generated_Source\PSoC4/I2C_I2C_MASTER.c ****     /* Revert SCL DR register */
1062:.\Generated_Source\PSoC4/I2C_I2C_MASTER.c ****     I2C_SET_I2C_SCL_DR(I2C_I2C_SCL_HIGH);
1063:.\Generated_Source\PSoC4/I2C_I2C_MASTER.c **** #else
1064:.\Generated_Source\PSoC4/I2C_I2C_MASTER.c ****     uint32 cmd;
1065:.\Generated_Source\PSoC4/I2C_I2C_MASTER.c **** 
1066:.\Generated_Source\PSoC4/I2C_I2C_MASTER.c ****     /* Generates ReStart use scb IP functionality */
1067:.\Generated_Source\PSoC4/I2C_I2C_MASTER.c ****     cmd  = I2C_I2C_MASTER_CMD_M_START;
 1480              		.loc 1 1067 0
 1481 0006 0123     		mov	r3, #1
 1482 0008 7B60     		str	r3, [r7, #4]
1068:.\Generated_Source\PSoC4/I2C_I2C_MASTER.c ****     cmd |= I2C_CHECK_I2C_STATUS(I2C_I2C_STATUS_M_READ) ?
 1483              		.loc 1 1068 0
 1484 000a 084B     		ldr	r3, .L106
 1485 000c 1B68     		ldr	r3, [r3]
 1486 000e 2022     		mov	r2, #32
 1487 0010 1340     		and	r3, r2
1069:.\Generated_Source\PSoC4/I2C_I2C_MASTER.c ****                 (I2C_I2C_MASTER_CMD_M_NACK) : (0u);
 1488              		.loc 1 1069 0
 1489 0012 01D0     		beq	.L104
 1490              		.loc 1 1069 0 is_stmt 0 discriminator 1
 1491 0014 0823     		mov	r3, #8
 1492 0016 00E0     		b	.L105
 1493              	.L104:
 1494              		.loc 1 1069 0 discriminator 2
 1495 0018 0023     		mov	r3, #0
ARM GAS  C:\Users\Petro\AppData\Local\Temp\cc9Q5GcY.s 			page 46


 1496              	.L105:
1068:.\Generated_Source\PSoC4/I2C_I2C_MASTER.c ****     cmd |= I2C_CHECK_I2C_STATUS(I2C_I2C_STATUS_M_READ) ?
 1497              		.loc 1 1068 0 is_stmt 1 discriminator 4
 1498 001a 7A68     		ldr	r2, [r7, #4]
 1499 001c 1343     		orr	r3, r2
 1500 001e 7B60     		str	r3, [r7, #4]
1070:.\Generated_Source\PSoC4/I2C_I2C_MASTER.c **** 
1071:.\Generated_Source\PSoC4/I2C_I2C_MASTER.c ****     I2C_I2C_MASTER_CMD_REG = cmd;
 1501              		.loc 1 1071 0 discriminator 4
 1502 0020 034B     		ldr	r3, .L106+4
 1503 0022 7A68     		ldr	r2, [r7, #4]
 1504 0024 1A60     		str	r2, [r3]
1072:.\Generated_Source\PSoC4/I2C_I2C_MASTER.c **** #endif /* (I2C_CY_SCBIP_V1) */
1073:.\Generated_Source\PSoC4/I2C_I2C_MASTER.c **** }
 1505              		.loc 1 1073 0 discriminator 4
 1506 0026 BD46     		mov	sp, r7
 1507 0028 02B0     		add	sp, sp, #8
 1508              		@ sp needed
 1509 002a 80BD     		pop	{r7, pc}
 1510              	.L107:
 1511              		.align	2
 1512              	.L106:
 1513 002c 64002440 		.word	1076101220
 1514 0030 68002440 		.word	1076101224
 1515              		.cfi_endproc
 1516              	.LFE15:
 1517              		.size	I2C_I2CReStartGeneration, .-I2C_I2CReStartGeneration
 1518              		.text
 1519              	.Letext0:
 1520              		.file 2 "Generated_Source\\PSoC4/cytypes.h"
 1521              		.file 3 ".\\Generated_Source\\PSoC4\\I2C_I2C_PVT.h"
 1522              		.section	.debug_info,"",%progbits
 1523              	.Ldebug_info0:
 1524 0000 65040000 		.4byte	0x465
 1525 0004 0400     		.2byte	0x4
 1526 0006 00000000 		.4byte	.Ldebug_abbrev0
 1527 000a 04       		.byte	0x4
 1528 000b 01       		.uleb128 0x1
 1529 000c E9010000 		.4byte	.LASF50
 1530 0010 01       		.byte	0x1
 1531 0011 D9000000 		.4byte	.LASF51
 1532 0015 00000000 		.4byte	.LASF52
 1533 0019 00000000 		.4byte	.Ldebug_ranges0+0
 1534 001d 00000000 		.4byte	0
 1535 0021 00000000 		.4byte	.Ldebug_line0
 1536 0025 02       		.uleb128 0x2
 1537 0026 01       		.byte	0x1
 1538 0027 06       		.byte	0x6
 1539 0028 3F010000 		.4byte	.LASF0
 1540 002c 02       		.uleb128 0x2
 1541 002d 01       		.byte	0x1
 1542 002e 08       		.byte	0x8
 1543 002f 4B010000 		.4byte	.LASF1
 1544 0033 02       		.uleb128 0x2
 1545 0034 02       		.byte	0x2
 1546 0035 05       		.byte	0x5
 1547 0036 1D030000 		.4byte	.LASF2
ARM GAS  C:\Users\Petro\AppData\Local\Temp\cc9Q5GcY.s 			page 47


 1548 003a 02       		.uleb128 0x2
 1549 003b 02       		.byte	0x2
 1550 003c 07       		.byte	0x7
 1551 003d C6000000 		.4byte	.LASF3
 1552 0041 02       		.uleb128 0x2
 1553 0042 04       		.byte	0x4
 1554 0043 05       		.byte	0x5
 1555 0044 85030000 		.4byte	.LASF4
 1556 0048 02       		.uleb128 0x2
 1557 0049 04       		.byte	0x4
 1558 004a 07       		.byte	0x7
 1559 004b 9B010000 		.4byte	.LASF5
 1560 004f 02       		.uleb128 0x2
 1561 0050 08       		.byte	0x8
 1562 0051 05       		.byte	0x5
 1563 0052 F3020000 		.4byte	.LASF6
 1564 0056 02       		.uleb128 0x2
 1565 0057 08       		.byte	0x8
 1566 0058 07       		.byte	0x7
 1567 0059 B2020000 		.4byte	.LASF7
 1568 005d 03       		.uleb128 0x3
 1569 005e 04       		.byte	0x4
 1570 005f 05       		.byte	0x5
 1571 0060 696E7400 		.ascii	"int\000"
 1572 0064 02       		.uleb128 0x2
 1573 0065 04       		.byte	0x4
 1574 0066 07       		.byte	0x7
 1575 0067 9E020000 		.4byte	.LASF8
 1576 006b 04       		.uleb128 0x4
 1577 006c C3010000 		.4byte	.LASF9
 1578 0070 02       		.byte	0x2
 1579 0071 9801     		.2byte	0x198
 1580 0073 2C000000 		.4byte	0x2c
 1581 0077 04       		.uleb128 0x4
 1582 0078 77020000 		.4byte	.LASF10
 1583 007c 02       		.byte	0x2
 1584 007d 9901     		.2byte	0x199
 1585 007f 3A000000 		.4byte	0x3a
 1586 0083 04       		.uleb128 0x4
 1587 0084 85020000 		.4byte	.LASF11
 1588 0088 02       		.byte	0x2
 1589 0089 9A01     		.2byte	0x19a
 1590 008b 48000000 		.4byte	0x48
 1591 008f 02       		.uleb128 0x2
 1592 0090 04       		.byte	0x4
 1593 0091 04       		.byte	0x4
 1594 0092 39010000 		.4byte	.LASF12
 1595 0096 02       		.uleb128 0x2
 1596 0097 08       		.byte	0x8
 1597 0098 04       		.byte	0x4
 1598 0099 DB010000 		.4byte	.LASF13
 1599 009d 02       		.uleb128 0x2
 1600 009e 01       		.byte	0x1
 1601 009f 08       		.byte	0x8
 1602 00a0 01030000 		.4byte	.LASF14
 1603 00a4 05       		.uleb128 0x5
 1604 00a5 6B000000 		.4byte	0x6b
ARM GAS  C:\Users\Petro\AppData\Local\Temp\cc9Q5GcY.s 			page 48


 1605 00a9 05       		.uleb128 0x5
 1606 00aa 77000000 		.4byte	0x77
 1607 00ae 04       		.uleb128 0x4
 1608 00af 7C000000 		.4byte	.LASF15
 1609 00b3 02       		.byte	0x2
 1610 00b4 4402     		.2byte	0x244
 1611 00b6 BA000000 		.4byte	0xba
 1612 00ba 05       		.uleb128 0x5
 1613 00bb 83000000 		.4byte	0x83
 1614 00bf 02       		.uleb128 0x2
 1615 00c0 04       		.byte	0x4
 1616 00c1 07       		.byte	0x7
 1617 00c2 EA020000 		.4byte	.LASF16
 1618 00c6 06       		.uleb128 0x6
 1619 00c7 AD010000 		.4byte	.LASF20
 1620 00cb 01       		.byte	0x1
 1621 00cc 62       		.byte	0x62
 1622 00cd 83000000 		.4byte	0x83
 1623 00d1 00000000 		.4byte	.LFB2
 1624 00d5 1C010000 		.4byte	.LFE2-.LFB2
 1625 00d9 01       		.uleb128 0x1
 1626 00da 9C       		.byte	0x9c
 1627 00db 26010000 		.4byte	0x126
 1628 00df 07       		.uleb128 0x7
 1629 00e0 CE020000 		.4byte	.LASF17
 1630 00e4 01       		.byte	0x1
 1631 00e5 62       		.byte	0x62
 1632 00e6 83000000 		.4byte	0x83
 1633 00ea 02       		.uleb128 0x2
 1634 00eb 91       		.byte	0x91
 1635 00ec 6C       		.sleb128 -20
 1636 00ed 07       		.uleb128 0x7
 1637 00ee AB020000 		.4byte	.LASF18
 1638 00f2 01       		.byte	0x1
 1639 00f3 62       		.byte	0x62
 1640 00f4 26010000 		.4byte	0x126
 1641 00f8 02       		.uleb128 0x2
 1642 00f9 91       		.byte	0x91
 1643 00fa 68       		.sleb128 -24
 1644 00fb 08       		.uleb128 0x8
 1645 00fc 636E7400 		.ascii	"cnt\000"
 1646 0100 01       		.byte	0x1
 1647 0101 62       		.byte	0x62
 1648 0102 83000000 		.4byte	0x83
 1649 0106 02       		.uleb128 0x2
 1650 0107 91       		.byte	0x91
 1651 0108 64       		.sleb128 -28
 1652 0109 07       		.uleb128 0x7
 1653 010a C9020000 		.4byte	.LASF19
 1654 010e 01       		.byte	0x1
 1655 010f 62       		.byte	0x62
 1656 0110 83000000 		.4byte	0x83
 1657 0114 02       		.uleb128 0x2
 1658 0115 91       		.byte	0x91
 1659 0116 60       		.sleb128 -32
 1660 0117 09       		.uleb128 0x9
 1661 0118 D1010000 		.4byte	.LASF23
ARM GAS  C:\Users\Petro\AppData\Local\Temp\cc9Q5GcY.s 			page 49


 1662 011c 01       		.byte	0x1
 1663 011d 64       		.byte	0x64
 1664 011e 83000000 		.4byte	0x83
 1665 0122 02       		.uleb128 0x2
 1666 0123 91       		.byte	0x91
 1667 0124 74       		.sleb128 -12
 1668 0125 00       		.byte	0
 1669 0126 0A       		.uleb128 0xa
 1670 0127 04       		.byte	0x4
 1671 0128 6B000000 		.4byte	0x6b
 1672 012c 06       		.uleb128 0x6
 1673 012d D0030000 		.4byte	.LASF21
 1674 0131 01       		.byte	0x1
 1675 0132 D1       		.byte	0xd1
 1676 0133 83000000 		.4byte	0x83
 1677 0137 00000000 		.4byte	.LFB3
 1678 013b 2C010000 		.4byte	.LFE3-.LFB3
 1679 013f 01       		.uleb128 0x1
 1680 0140 9C       		.byte	0x9c
 1681 0141 8C010000 		.4byte	0x18c
 1682 0145 07       		.uleb128 0x7
 1683 0146 CE020000 		.4byte	.LASF17
 1684 014a 01       		.byte	0x1
 1685 014b D1       		.byte	0xd1
 1686 014c 83000000 		.4byte	0x83
 1687 0150 02       		.uleb128 0x2
 1688 0151 91       		.byte	0x91
 1689 0152 6C       		.sleb128 -20
 1690 0153 07       		.uleb128 0x7
 1691 0154 7E020000 		.4byte	.LASF22
 1692 0158 01       		.byte	0x1
 1693 0159 D1       		.byte	0xd1
 1694 015a 26010000 		.4byte	0x126
 1695 015e 02       		.uleb128 0x2
 1696 015f 91       		.byte	0x91
 1697 0160 68       		.sleb128 -24
 1698 0161 08       		.uleb128 0x8
 1699 0162 636E7400 		.ascii	"cnt\000"
 1700 0166 01       		.byte	0x1
 1701 0167 D1       		.byte	0xd1
 1702 0168 83000000 		.4byte	0x83
 1703 016c 02       		.uleb128 0x2
 1704 016d 91       		.byte	0x91
 1705 016e 64       		.sleb128 -28
 1706 016f 07       		.uleb128 0x7
 1707 0170 C9020000 		.4byte	.LASF19
 1708 0174 01       		.byte	0x1
 1709 0175 D1       		.byte	0xd1
 1710 0176 83000000 		.4byte	0x83
 1711 017a 02       		.uleb128 0x2
 1712 017b 91       		.byte	0x91
 1713 017c 60       		.sleb128 -32
 1714 017d 09       		.uleb128 0x9
 1715 017e D1010000 		.4byte	.LASF23
 1716 0182 01       		.byte	0x1
 1717 0183 D3       		.byte	0xd3
 1718 0184 83000000 		.4byte	0x83
ARM GAS  C:\Users\Petro\AppData\Local\Temp\cc9Q5GcY.s 			page 50


 1719 0188 02       		.uleb128 0x2
 1720 0189 91       		.byte	0x91
 1721 018a 74       		.sleb128 -12
 1722 018b 00       		.byte	0
 1723 018c 0B       		.uleb128 0xb
 1724 018d 59010000 		.4byte	.LASF24
 1725 0191 01       		.byte	0x1
 1726 0192 4E01     		.2byte	0x14e
 1727 0194 83000000 		.4byte	0x83
 1728 0198 00000000 		.4byte	.LFB4
 1729 019c 10010000 		.4byte	.LFE4-.LFB4
 1730 01a0 01       		.uleb128 0x1
 1731 01a1 9C       		.byte	0x9c
 1732 01a2 E3010000 		.4byte	0x1e3
 1733 01a6 0C       		.uleb128 0xc
 1734 01a7 CE020000 		.4byte	.LASF17
 1735 01ab 01       		.byte	0x1
 1736 01ac 4E01     		.2byte	0x14e
 1737 01ae 83000000 		.4byte	0x83
 1738 01b2 02       		.uleb128 0x2
 1739 01b3 91       		.byte	0x91
 1740 01b4 6C       		.sleb128 -20
 1741 01b5 0C       		.uleb128 0xc
 1742 01b6 E2010000 		.4byte	.LASF25
 1743 01ba 01       		.byte	0x1
 1744 01bb 4E01     		.2byte	0x14e
 1745 01bd 83000000 		.4byte	0x83
 1746 01c1 02       		.uleb128 0x2
 1747 01c2 91       		.byte	0x91
 1748 01c3 68       		.sleb128 -24
 1749 01c4 0D       		.uleb128 0xd
 1750 01c5 0A010000 		.4byte	.LASF26
 1751 01c9 01       		.byte	0x1
 1752 01ca 5001     		.2byte	0x150
 1753 01cc 83000000 		.4byte	0x83
 1754 01d0 02       		.uleb128 0x2
 1755 01d1 91       		.byte	0x91
 1756 01d2 74       		.sleb128 -12
 1757 01d3 0D       		.uleb128 0xd
 1758 01d4 D1010000 		.4byte	.LASF23
 1759 01d8 01       		.byte	0x1
 1760 01d9 5101     		.2byte	0x151
 1761 01db 83000000 		.4byte	0x83
 1762 01df 02       		.uleb128 0x2
 1763 01e0 91       		.byte	0x91
 1764 01e1 70       		.sleb128 -16
 1765 01e2 00       		.byte	0
 1766 01e3 0B       		.uleb128 0xb
 1767 01e4 2F030000 		.4byte	.LASF27
 1768 01e8 01       		.byte	0x1
 1769 01e9 CA01     		.2byte	0x1ca
 1770 01eb 83000000 		.4byte	0x83
 1771 01ef 00000000 		.4byte	.LFB5
 1772 01f3 08010000 		.4byte	.LFE5-.LFB5
 1773 01f7 01       		.uleb128 0x1
 1774 01f8 9C       		.byte	0x9c
 1775 01f9 3A020000 		.4byte	0x23a
ARM GAS  C:\Users\Petro\AppData\Local\Temp\cc9Q5GcY.s 			page 51


 1776 01fd 0C       		.uleb128 0xc
 1777 01fe CE020000 		.4byte	.LASF17
 1778 0202 01       		.byte	0x1
 1779 0203 CA01     		.2byte	0x1ca
 1780 0205 83000000 		.4byte	0x83
 1781 0209 02       		.uleb128 0x2
 1782 020a 91       		.byte	0x91
 1783 020b 6C       		.sleb128 -20
 1784 020c 0C       		.uleb128 0xc
 1785 020d E2010000 		.4byte	.LASF25
 1786 0211 01       		.byte	0x1
 1787 0212 CA01     		.2byte	0x1ca
 1788 0214 83000000 		.4byte	0x83
 1789 0218 02       		.uleb128 0x2
 1790 0219 91       		.byte	0x91
 1791 021a 68       		.sleb128 -24
 1792 021b 0D       		.uleb128 0xd
 1793 021c 0A010000 		.4byte	.LASF26
 1794 0220 01       		.byte	0x1
 1795 0221 CC01     		.2byte	0x1cc
 1796 0223 83000000 		.4byte	0x83
 1797 0227 02       		.uleb128 0x2
 1798 0228 91       		.byte	0x91
 1799 0229 74       		.sleb128 -12
 1800 022a 0D       		.uleb128 0xd
 1801 022b D1010000 		.4byte	.LASF23
 1802 022f 01       		.byte	0x1
 1803 0230 CD01     		.2byte	0x1cd
 1804 0232 83000000 		.4byte	0x83
 1805 0236 02       		.uleb128 0x2
 1806 0237 91       		.byte	0x91
 1807 0238 70       		.sleb128 -16
 1808 0239 00       		.byte	0
 1809 023a 0B       		.uleb128 0xb
 1810 023b 08040000 		.4byte	.LASF28
 1811 023f 01       		.byte	0x1
 1812 0240 3D02     		.2byte	0x23d
 1813 0242 83000000 		.4byte	0x83
 1814 0246 00000000 		.4byte	.LFB6
 1815 024a C8000000 		.4byte	.LFE6-.LFB6
 1816 024e 01       		.uleb128 0x1
 1817 024f 9C       		.byte	0x9c
 1818 0250 73020000 		.4byte	0x273
 1819 0254 0D       		.uleb128 0xd
 1820 0255 0A010000 		.4byte	.LASF26
 1821 0259 01       		.byte	0x1
 1822 025a 3F02     		.2byte	0x23f
 1823 025c 83000000 		.4byte	0x83
 1824 0260 02       		.uleb128 0x2
 1825 0261 91       		.byte	0x91
 1826 0262 74       		.sleb128 -12
 1827 0263 0D       		.uleb128 0xd
 1828 0264 D1010000 		.4byte	.LASF23
 1829 0268 01       		.byte	0x1
 1830 0269 4002     		.2byte	0x240
 1831 026b 83000000 		.4byte	0x83
 1832 026f 02       		.uleb128 0x2
ARM GAS  C:\Users\Petro\AppData\Local\Temp\cc9Q5GcY.s 			page 52


 1833 0270 91       		.byte	0x91
 1834 0271 70       		.sleb128 -16
 1835 0272 00       		.byte	0
 1836 0273 0E       		.uleb128 0xe
 1837 0274 06030000 		.4byte	.LASF29
 1838 0278 01       		.byte	0x1
 1839 0279 8F02     		.2byte	0x28f
 1840 027b 83000000 		.4byte	0x83
 1841 027f 00000000 		.4byte	.LFB7
 1842 0283 CC000000 		.4byte	.LFE7-.LFB7
 1843 0287 01       		.uleb128 0x1
 1844 0288 9C       		.byte	0x9c
 1845 0289 BB020000 		.4byte	0x2bb
 1846 028d 0C       		.uleb128 0xc
 1847 028e 27030000 		.4byte	.LASF30
 1848 0292 01       		.byte	0x1
 1849 0293 8F02     		.2byte	0x28f
 1850 0295 83000000 		.4byte	0x83
 1851 0299 02       		.uleb128 0x2
 1852 029a 91       		.byte	0x91
 1853 029b 6C       		.sleb128 -20
 1854 029c 0D       		.uleb128 0xd
 1855 029d 0A010000 		.4byte	.LASF26
 1856 02a1 01       		.byte	0x1
 1857 02a2 9102     		.2byte	0x291
 1858 02a4 83000000 		.4byte	0x83
 1859 02a8 02       		.uleb128 0x2
 1860 02a9 91       		.byte	0x91
 1861 02aa 74       		.sleb128 -12
 1862 02ab 0D       		.uleb128 0xd
 1863 02ac D1010000 		.4byte	.LASF23
 1864 02b0 01       		.byte	0x1
 1865 02b1 9202     		.2byte	0x292
 1866 02b3 83000000 		.4byte	0x83
 1867 02b7 02       		.uleb128 0x2
 1868 02b8 91       		.byte	0x91
 1869 02b9 70       		.sleb128 -16
 1870 02ba 00       		.byte	0
 1871 02bb 0E       		.uleb128 0xe
 1872 02bc 48030000 		.4byte	.LASF31
 1873 02c0 01       		.byte	0x1
 1874 02c1 EA02     		.2byte	0x2ea
 1875 02c3 83000000 		.4byte	0x83
 1876 02c7 00000000 		.4byte	.LFB8
 1877 02cb A8000000 		.4byte	.LFE8-.LFB8
 1878 02cf 01       		.uleb128 0x1
 1879 02d0 9C       		.byte	0x9c
 1880 02d1 F4020000 		.4byte	0x2f4
 1881 02d5 0C       		.uleb128 0xc
 1882 02d6 C9010000 		.4byte	.LASF32
 1883 02da 01       		.byte	0x1
 1884 02db EA02     		.2byte	0x2ea
 1885 02dd 83000000 		.4byte	0x83
 1886 02e1 02       		.uleb128 0x2
 1887 02e2 91       		.byte	0x91
 1888 02e3 6C       		.sleb128 -20
 1889 02e4 0D       		.uleb128 0xd
ARM GAS  C:\Users\Petro\AppData\Local\Temp\cc9Q5GcY.s 			page 53


 1890 02e5 27030000 		.4byte	.LASF30
 1891 02e9 01       		.byte	0x1
 1892 02ea EC02     		.2byte	0x2ec
 1893 02ec 83000000 		.4byte	0x83
 1894 02f0 02       		.uleb128 0x2
 1895 02f1 91       		.byte	0x91
 1896 02f2 74       		.sleb128 -12
 1897 02f3 00       		.byte	0
 1898 02f4 0F       		.uleb128 0xf
 1899 02f5 60000000 		.4byte	.LASF33
 1900 02f9 01       		.byte	0x1
 1901 02fa 2E03     		.2byte	0x32e
 1902 02fc 83000000 		.4byte	0x83
 1903 0300 00000000 		.4byte	.LFB9
 1904 0304 14000000 		.4byte	.LFE9-.LFB9
 1905 0308 01       		.uleb128 0x1
 1906 0309 9C       		.byte	0x9c
 1907 030a 0F       		.uleb128 0xf
 1908 030b 8E030000 		.4byte	.LASF34
 1909 030f 01       		.byte	0x1
 1910 0310 4903     		.2byte	0x349
 1911 0312 83000000 		.4byte	0x83
 1912 0316 00000000 		.4byte	.LFB10
 1913 031a 14000000 		.4byte	.LFE10-.LFB10
 1914 031e 01       		.uleb128 0x1
 1915 031f 9C       		.byte	0x9c
 1916 0320 10       		.uleb128 0x10
 1917 0321 AC000000 		.4byte	.LASF35
 1918 0325 01       		.byte	0x1
 1919 0326 5B03     		.2byte	0x35b
 1920 0328 00000000 		.4byte	.LFB11
 1921 032c 34000000 		.4byte	.LFE11-.LFB11
 1922 0330 01       		.uleb128 0x1
 1923 0331 9C       		.byte	0x9c
 1924 0332 10       		.uleb128 0x10
 1925 0333 70010000 		.4byte	.LASF36
 1926 0337 01       		.byte	0x1
 1927 0338 7203     		.2byte	0x372
 1928 033a 00000000 		.4byte	.LFB12
 1929 033e 34000000 		.4byte	.LFE12-.LFB12
 1930 0342 01       		.uleb128 0x1
 1931 0343 9C       		.byte	0x9c
 1932 0344 0B       		.uleb128 0xb
 1933 0345 12010000 		.4byte	.LASF37
 1934 0349 01       		.byte	0x1
 1935 034a A603     		.2byte	0x3a6
 1936 034c 83000000 		.4byte	0x83
 1937 0350 00000000 		.4byte	.LFB13
 1938 0354 44000000 		.4byte	.LFE13-.LFB13
 1939 0358 01       		.uleb128 0x1
 1940 0359 9C       		.byte	0x9c
 1941 035a 6E030000 		.4byte	0x36e
 1942 035e 0D       		.uleb128 0xd
 1943 035f 03010000 		.4byte	.LASF38
 1944 0363 01       		.byte	0x1
 1945 0364 A803     		.2byte	0x3a8
 1946 0366 83000000 		.4byte	0x83
ARM GAS  C:\Users\Petro\AppData\Local\Temp\cc9Q5GcY.s 			page 54


 1947 036a 02       		.uleb128 0x2
 1948 036b 91       		.byte	0x91
 1949 036c 74       		.sleb128 -12
 1950 036d 00       		.byte	0
 1951 036e 0B       		.uleb128 0xb
 1952 036f E5030000 		.4byte	.LASF39
 1953 0373 01       		.byte	0x1
 1954 0374 C803     		.2byte	0x3c8
 1955 0376 83000000 		.4byte	0x83
 1956 037a 00000000 		.4byte	.LFB14
 1957 037e 30000000 		.4byte	.LFE14-.LFB14
 1958 0382 01       		.uleb128 0x1
 1959 0383 9C       		.byte	0x9c
 1960 0384 98030000 		.4byte	0x398
 1961 0388 0D       		.uleb128 0xd
 1962 0389 03010000 		.4byte	.LASF38
 1963 038d 01       		.byte	0x1
 1964 038e CA03     		.2byte	0x3ca
 1965 0390 83000000 		.4byte	0x83
 1966 0394 02       		.uleb128 0x2
 1967 0395 91       		.byte	0x91
 1968 0396 74       		.sleb128 -12
 1969 0397 00       		.byte	0
 1970 0398 11       		.uleb128 0x11
 1971 0399 93000000 		.4byte	.LASF53
 1972 039d 01       		.byte	0x1
 1973 039e F403     		.2byte	0x3f4
 1974 03a0 00000000 		.4byte	.LFB15
 1975 03a4 34000000 		.4byte	.LFE15-.LFB15
 1976 03a8 01       		.uleb128 0x1
 1977 03a9 9C       		.byte	0x9c
 1978 03aa BE030000 		.4byte	0x3be
 1979 03ae 12       		.uleb128 0x12
 1980 03af 636D6400 		.ascii	"cmd\000"
 1981 03b3 01       		.byte	0x1
 1982 03b4 2804     		.2byte	0x428
 1983 03b6 83000000 		.4byte	0x83
 1984 03ba 02       		.uleb128 0x2
 1985 03bb 91       		.byte	0x91
 1986 03bc 74       		.sleb128 -12
 1987 03bd 00       		.byte	0
 1988 03be 13       		.uleb128 0x13
 1989 03bf FE030000 		.4byte	.LASF40
 1990 03c3 03       		.byte	0x3
 1991 03c4 1E       		.byte	0x1e
 1992 03c5 A4000000 		.4byte	0xa4
 1993 03c9 14       		.uleb128 0x14
 1994 03ca DB020000 		.4byte	.LASF41
 1995 03ce 01       		.byte	0x1
 1996 03cf 1D       		.byte	0x1d
 1997 03d0 A9000000 		.4byte	0xa9
 1998 03d4 05       		.uleb128 0x5
 1999 03d5 03       		.byte	0x3
 2000 03d6 00000000 		.4byte	I2C_mstrStatus
 2001 03da 14       		.uleb128 0x14
 2002 03db 8B010000 		.4byte	.LASF42
 2003 03df 01       		.byte	0x1
ARM GAS  C:\Users\Petro\AppData\Local\Temp\cc9Q5GcY.s 			page 55


 2004 03e0 1E       		.byte	0x1e
 2005 03e1 A4000000 		.4byte	0xa4
 2006 03e5 05       		.uleb128 0x5
 2007 03e6 03       		.byte	0x3
 2008 03e7 00000000 		.4byte	I2C_mstrControl
 2009 03eb 14       		.uleb128 0x14
 2010 03ec 5E030000 		.4byte	.LASF43
 2011 03f0 01       		.byte	0x1
 2012 03f1 21       		.byte	0x21
 2013 03f2 FC030000 		.4byte	0x3fc
 2014 03f6 05       		.uleb128 0x5
 2015 03f7 03       		.byte	0x3
 2016 03f8 00000000 		.4byte	I2C_mstrRdBufPtr
 2017 03fc 0A       		.uleb128 0xa
 2018 03fd 04       		.byte	0x4
 2019 03fe A4000000 		.4byte	0xa4
 2020 0402 14       		.uleb128 0x14
 2021 0403 8C020000 		.4byte	.LASF44
 2022 0407 01       		.byte	0x1
 2023 0408 22       		.byte	0x22
 2024 0409 BA000000 		.4byte	0xba
 2025 040d 05       		.uleb128 0x5
 2026 040e 03       		.byte	0x3
 2027 040f 00000000 		.4byte	I2C_mstrRdBufSize
 2028 0413 14       		.uleb128 0x14
 2029 0414 26010000 		.4byte	.LASF45
 2030 0418 01       		.byte	0x1
 2031 0419 23       		.byte	0x23
 2032 041a BA000000 		.4byte	0xba
 2033 041e 05       		.uleb128 0x5
 2034 041f 03       		.byte	0x3
 2035 0420 00000000 		.4byte	I2C_mstrRdBufIndex
 2036 0424 14       		.uleb128 0x14
 2037 0425 82000000 		.4byte	.LASF46
 2038 0429 01       		.byte	0x1
 2039 042a 26       		.byte	0x26
 2040 042b FC030000 		.4byte	0x3fc
 2041 042f 05       		.uleb128 0x5
 2042 0430 03       		.byte	0x3
 2043 0431 00000000 		.4byte	I2C_mstrWrBufPtr
 2044 0435 14       		.uleb128 0x14
 2045 0436 BE030000 		.4byte	.LASF47
 2046 043a 01       		.byte	0x1
 2047 043b 27       		.byte	0x27
 2048 043c BA000000 		.4byte	0xba
 2049 0440 05       		.uleb128 0x5
 2050 0441 03       		.byte	0x3
 2051 0442 00000000 		.4byte	I2C_mstrWrBufSize
 2052 0446 14       		.uleb128 0x14
 2053 0447 AB030000 		.4byte	.LASF48
 2054 044b 01       		.byte	0x1
 2055 044c 28       		.byte	0x28
 2056 044d BA000000 		.4byte	0xba
 2057 0451 05       		.uleb128 0x5
 2058 0452 03       		.byte	0x3
 2059 0453 00000000 		.4byte	I2C_mstrWrBufIndex
 2060 0457 14       		.uleb128 0x14
ARM GAS  C:\Users\Petro\AppData\Local\Temp\cc9Q5GcY.s 			page 56


 2061 0458 6F030000 		.4byte	.LASF49
 2062 045c 01       		.byte	0x1
 2063 045d 29       		.byte	0x29
 2064 045e BA000000 		.4byte	0xba
 2065 0462 05       		.uleb128 0x5
 2066 0463 03       		.byte	0x3
 2067 0464 00000000 		.4byte	I2C_mstrWrBufIndexTmp
 2068 0468 00       		.byte	0
 2069              		.section	.debug_abbrev,"",%progbits
 2070              	.Ldebug_abbrev0:
 2071 0000 01       		.uleb128 0x1
 2072 0001 11       		.uleb128 0x11
 2073 0002 01       		.byte	0x1
 2074 0003 25       		.uleb128 0x25
 2075 0004 0E       		.uleb128 0xe
 2076 0005 13       		.uleb128 0x13
 2077 0006 0B       		.uleb128 0xb
 2078 0007 03       		.uleb128 0x3
 2079 0008 0E       		.uleb128 0xe
 2080 0009 1B       		.uleb128 0x1b
 2081 000a 0E       		.uleb128 0xe
 2082 000b 55       		.uleb128 0x55
 2083 000c 17       		.uleb128 0x17
 2084 000d 11       		.uleb128 0x11
 2085 000e 01       		.uleb128 0x1
 2086 000f 10       		.uleb128 0x10
 2087 0010 17       		.uleb128 0x17
 2088 0011 00       		.byte	0
 2089 0012 00       		.byte	0
 2090 0013 02       		.uleb128 0x2
 2091 0014 24       		.uleb128 0x24
 2092 0015 00       		.byte	0
 2093 0016 0B       		.uleb128 0xb
 2094 0017 0B       		.uleb128 0xb
 2095 0018 3E       		.uleb128 0x3e
 2096 0019 0B       		.uleb128 0xb
 2097 001a 03       		.uleb128 0x3
 2098 001b 0E       		.uleb128 0xe
 2099 001c 00       		.byte	0
 2100 001d 00       		.byte	0
 2101 001e 03       		.uleb128 0x3
 2102 001f 24       		.uleb128 0x24
 2103 0020 00       		.byte	0
 2104 0021 0B       		.uleb128 0xb
 2105 0022 0B       		.uleb128 0xb
 2106 0023 3E       		.uleb128 0x3e
 2107 0024 0B       		.uleb128 0xb
 2108 0025 03       		.uleb128 0x3
 2109 0026 08       		.uleb128 0x8
 2110 0027 00       		.byte	0
 2111 0028 00       		.byte	0
 2112 0029 04       		.uleb128 0x4
 2113 002a 16       		.uleb128 0x16
 2114 002b 00       		.byte	0
 2115 002c 03       		.uleb128 0x3
 2116 002d 0E       		.uleb128 0xe
 2117 002e 3A       		.uleb128 0x3a
ARM GAS  C:\Users\Petro\AppData\Local\Temp\cc9Q5GcY.s 			page 57


 2118 002f 0B       		.uleb128 0xb
 2119 0030 3B       		.uleb128 0x3b
 2120 0031 05       		.uleb128 0x5
 2121 0032 49       		.uleb128 0x49
 2122 0033 13       		.uleb128 0x13
 2123 0034 00       		.byte	0
 2124 0035 00       		.byte	0
 2125 0036 05       		.uleb128 0x5
 2126 0037 35       		.uleb128 0x35
 2127 0038 00       		.byte	0
 2128 0039 49       		.uleb128 0x49
 2129 003a 13       		.uleb128 0x13
 2130 003b 00       		.byte	0
 2131 003c 00       		.byte	0
 2132 003d 06       		.uleb128 0x6
 2133 003e 2E       		.uleb128 0x2e
 2134 003f 01       		.byte	0x1
 2135 0040 3F       		.uleb128 0x3f
 2136 0041 19       		.uleb128 0x19
 2137 0042 03       		.uleb128 0x3
 2138 0043 0E       		.uleb128 0xe
 2139 0044 3A       		.uleb128 0x3a
 2140 0045 0B       		.uleb128 0xb
 2141 0046 3B       		.uleb128 0x3b
 2142 0047 0B       		.uleb128 0xb
 2143 0048 27       		.uleb128 0x27
 2144 0049 19       		.uleb128 0x19
 2145 004a 49       		.uleb128 0x49
 2146 004b 13       		.uleb128 0x13
 2147 004c 11       		.uleb128 0x11
 2148 004d 01       		.uleb128 0x1
 2149 004e 12       		.uleb128 0x12
 2150 004f 06       		.uleb128 0x6
 2151 0050 40       		.uleb128 0x40
 2152 0051 18       		.uleb128 0x18
 2153 0052 9642     		.uleb128 0x2116
 2154 0054 19       		.uleb128 0x19
 2155 0055 01       		.uleb128 0x1
 2156 0056 13       		.uleb128 0x13
 2157 0057 00       		.byte	0
 2158 0058 00       		.byte	0
 2159 0059 07       		.uleb128 0x7
 2160 005a 05       		.uleb128 0x5
 2161 005b 00       		.byte	0
 2162 005c 03       		.uleb128 0x3
 2163 005d 0E       		.uleb128 0xe
 2164 005e 3A       		.uleb128 0x3a
 2165 005f 0B       		.uleb128 0xb
 2166 0060 3B       		.uleb128 0x3b
 2167 0061 0B       		.uleb128 0xb
 2168 0062 49       		.uleb128 0x49
 2169 0063 13       		.uleb128 0x13
 2170 0064 02       		.uleb128 0x2
 2171 0065 18       		.uleb128 0x18
 2172 0066 00       		.byte	0
 2173 0067 00       		.byte	0
 2174 0068 08       		.uleb128 0x8
ARM GAS  C:\Users\Petro\AppData\Local\Temp\cc9Q5GcY.s 			page 58


 2175 0069 05       		.uleb128 0x5
 2176 006a 00       		.byte	0
 2177 006b 03       		.uleb128 0x3
 2178 006c 08       		.uleb128 0x8
 2179 006d 3A       		.uleb128 0x3a
 2180 006e 0B       		.uleb128 0xb
 2181 006f 3B       		.uleb128 0x3b
 2182 0070 0B       		.uleb128 0xb
 2183 0071 49       		.uleb128 0x49
 2184 0072 13       		.uleb128 0x13
 2185 0073 02       		.uleb128 0x2
 2186 0074 18       		.uleb128 0x18
 2187 0075 00       		.byte	0
 2188 0076 00       		.byte	0
 2189 0077 09       		.uleb128 0x9
 2190 0078 34       		.uleb128 0x34
 2191 0079 00       		.byte	0
 2192 007a 03       		.uleb128 0x3
 2193 007b 0E       		.uleb128 0xe
 2194 007c 3A       		.uleb128 0x3a
 2195 007d 0B       		.uleb128 0xb
 2196 007e 3B       		.uleb128 0x3b
 2197 007f 0B       		.uleb128 0xb
 2198 0080 49       		.uleb128 0x49
 2199 0081 13       		.uleb128 0x13
 2200 0082 02       		.uleb128 0x2
 2201 0083 18       		.uleb128 0x18
 2202 0084 00       		.byte	0
 2203 0085 00       		.byte	0
 2204 0086 0A       		.uleb128 0xa
 2205 0087 0F       		.uleb128 0xf
 2206 0088 00       		.byte	0
 2207 0089 0B       		.uleb128 0xb
 2208 008a 0B       		.uleb128 0xb
 2209 008b 49       		.uleb128 0x49
 2210 008c 13       		.uleb128 0x13
 2211 008d 00       		.byte	0
 2212 008e 00       		.byte	0
 2213 008f 0B       		.uleb128 0xb
 2214 0090 2E       		.uleb128 0x2e
 2215 0091 01       		.byte	0x1
 2216 0092 3F       		.uleb128 0x3f
 2217 0093 19       		.uleb128 0x19
 2218 0094 03       		.uleb128 0x3
 2219 0095 0E       		.uleb128 0xe
 2220 0096 3A       		.uleb128 0x3a
 2221 0097 0B       		.uleb128 0xb
 2222 0098 3B       		.uleb128 0x3b
 2223 0099 05       		.uleb128 0x5
 2224 009a 27       		.uleb128 0x27
 2225 009b 19       		.uleb128 0x19
 2226 009c 49       		.uleb128 0x49
 2227 009d 13       		.uleb128 0x13
 2228 009e 11       		.uleb128 0x11
 2229 009f 01       		.uleb128 0x1
 2230 00a0 12       		.uleb128 0x12
 2231 00a1 06       		.uleb128 0x6
ARM GAS  C:\Users\Petro\AppData\Local\Temp\cc9Q5GcY.s 			page 59


 2232 00a2 40       		.uleb128 0x40
 2233 00a3 18       		.uleb128 0x18
 2234 00a4 9642     		.uleb128 0x2116
 2235 00a6 19       		.uleb128 0x19
 2236 00a7 01       		.uleb128 0x1
 2237 00a8 13       		.uleb128 0x13
 2238 00a9 00       		.byte	0
 2239 00aa 00       		.byte	0
 2240 00ab 0C       		.uleb128 0xc
 2241 00ac 05       		.uleb128 0x5
 2242 00ad 00       		.byte	0
 2243 00ae 03       		.uleb128 0x3
 2244 00af 0E       		.uleb128 0xe
 2245 00b0 3A       		.uleb128 0x3a
 2246 00b1 0B       		.uleb128 0xb
 2247 00b2 3B       		.uleb128 0x3b
 2248 00b3 05       		.uleb128 0x5
 2249 00b4 49       		.uleb128 0x49
 2250 00b5 13       		.uleb128 0x13
 2251 00b6 02       		.uleb128 0x2
 2252 00b7 18       		.uleb128 0x18
 2253 00b8 00       		.byte	0
 2254 00b9 00       		.byte	0
 2255 00ba 0D       		.uleb128 0xd
 2256 00bb 34       		.uleb128 0x34
 2257 00bc 00       		.byte	0
 2258 00bd 03       		.uleb128 0x3
 2259 00be 0E       		.uleb128 0xe
 2260 00bf 3A       		.uleb128 0x3a
 2261 00c0 0B       		.uleb128 0xb
 2262 00c1 3B       		.uleb128 0x3b
 2263 00c2 05       		.uleb128 0x5
 2264 00c3 49       		.uleb128 0x49
 2265 00c4 13       		.uleb128 0x13
 2266 00c5 02       		.uleb128 0x2
 2267 00c6 18       		.uleb128 0x18
 2268 00c7 00       		.byte	0
 2269 00c8 00       		.byte	0
 2270 00c9 0E       		.uleb128 0xe
 2271 00ca 2E       		.uleb128 0x2e
 2272 00cb 01       		.byte	0x1
 2273 00cc 3F       		.uleb128 0x3f
 2274 00cd 19       		.uleb128 0x19
 2275 00ce 03       		.uleb128 0x3
 2276 00cf 0E       		.uleb128 0xe
 2277 00d0 3A       		.uleb128 0x3a
 2278 00d1 0B       		.uleb128 0xb
 2279 00d2 3B       		.uleb128 0x3b
 2280 00d3 05       		.uleb128 0x5
 2281 00d4 27       		.uleb128 0x27
 2282 00d5 19       		.uleb128 0x19
 2283 00d6 49       		.uleb128 0x49
 2284 00d7 13       		.uleb128 0x13
 2285 00d8 11       		.uleb128 0x11
 2286 00d9 01       		.uleb128 0x1
 2287 00da 12       		.uleb128 0x12
 2288 00db 06       		.uleb128 0x6
ARM GAS  C:\Users\Petro\AppData\Local\Temp\cc9Q5GcY.s 			page 60


 2289 00dc 40       		.uleb128 0x40
 2290 00dd 18       		.uleb128 0x18
 2291 00de 9742     		.uleb128 0x2117
 2292 00e0 19       		.uleb128 0x19
 2293 00e1 01       		.uleb128 0x1
 2294 00e2 13       		.uleb128 0x13
 2295 00e3 00       		.byte	0
 2296 00e4 00       		.byte	0
 2297 00e5 0F       		.uleb128 0xf
 2298 00e6 2E       		.uleb128 0x2e
 2299 00e7 00       		.byte	0
 2300 00e8 3F       		.uleb128 0x3f
 2301 00e9 19       		.uleb128 0x19
 2302 00ea 03       		.uleb128 0x3
 2303 00eb 0E       		.uleb128 0xe
 2304 00ec 3A       		.uleb128 0x3a
 2305 00ed 0B       		.uleb128 0xb
 2306 00ee 3B       		.uleb128 0x3b
 2307 00ef 05       		.uleb128 0x5
 2308 00f0 27       		.uleb128 0x27
 2309 00f1 19       		.uleb128 0x19
 2310 00f2 49       		.uleb128 0x49
 2311 00f3 13       		.uleb128 0x13
 2312 00f4 11       		.uleb128 0x11
 2313 00f5 01       		.uleb128 0x1
 2314 00f6 12       		.uleb128 0x12
 2315 00f7 06       		.uleb128 0x6
 2316 00f8 40       		.uleb128 0x40
 2317 00f9 18       		.uleb128 0x18
 2318 00fa 9742     		.uleb128 0x2117
 2319 00fc 19       		.uleb128 0x19
 2320 00fd 00       		.byte	0
 2321 00fe 00       		.byte	0
 2322 00ff 10       		.uleb128 0x10
 2323 0100 2E       		.uleb128 0x2e
 2324 0101 00       		.byte	0
 2325 0102 3F       		.uleb128 0x3f
 2326 0103 19       		.uleb128 0x19
 2327 0104 03       		.uleb128 0x3
 2328 0105 0E       		.uleb128 0xe
 2329 0106 3A       		.uleb128 0x3a
 2330 0107 0B       		.uleb128 0xb
 2331 0108 3B       		.uleb128 0x3b
 2332 0109 05       		.uleb128 0x5
 2333 010a 27       		.uleb128 0x27
 2334 010b 19       		.uleb128 0x19
 2335 010c 11       		.uleb128 0x11
 2336 010d 01       		.uleb128 0x1
 2337 010e 12       		.uleb128 0x12
 2338 010f 06       		.uleb128 0x6
 2339 0110 40       		.uleb128 0x40
 2340 0111 18       		.uleb128 0x18
 2341 0112 9642     		.uleb128 0x2116
 2342 0114 19       		.uleb128 0x19
 2343 0115 00       		.byte	0
 2344 0116 00       		.byte	0
 2345 0117 11       		.uleb128 0x11
ARM GAS  C:\Users\Petro\AppData\Local\Temp\cc9Q5GcY.s 			page 61


 2346 0118 2E       		.uleb128 0x2e
 2347 0119 01       		.byte	0x1
 2348 011a 3F       		.uleb128 0x3f
 2349 011b 19       		.uleb128 0x19
 2350 011c 03       		.uleb128 0x3
 2351 011d 0E       		.uleb128 0xe
 2352 011e 3A       		.uleb128 0x3a
 2353 011f 0B       		.uleb128 0xb
 2354 0120 3B       		.uleb128 0x3b
 2355 0121 05       		.uleb128 0x5
 2356 0122 27       		.uleb128 0x27
 2357 0123 19       		.uleb128 0x19
 2358 0124 11       		.uleb128 0x11
 2359 0125 01       		.uleb128 0x1
 2360 0126 12       		.uleb128 0x12
 2361 0127 06       		.uleb128 0x6
 2362 0128 40       		.uleb128 0x40
 2363 0129 18       		.uleb128 0x18
 2364 012a 9742     		.uleb128 0x2117
 2365 012c 19       		.uleb128 0x19
 2366 012d 01       		.uleb128 0x1
 2367 012e 13       		.uleb128 0x13
 2368 012f 00       		.byte	0
 2369 0130 00       		.byte	0
 2370 0131 12       		.uleb128 0x12
 2371 0132 34       		.uleb128 0x34
 2372 0133 00       		.byte	0
 2373 0134 03       		.uleb128 0x3
 2374 0135 08       		.uleb128 0x8
 2375 0136 3A       		.uleb128 0x3a
 2376 0137 0B       		.uleb128 0xb
 2377 0138 3B       		.uleb128 0x3b
 2378 0139 05       		.uleb128 0x5
 2379 013a 49       		.uleb128 0x49
 2380 013b 13       		.uleb128 0x13
 2381 013c 02       		.uleb128 0x2
 2382 013d 18       		.uleb128 0x18
 2383 013e 00       		.byte	0
 2384 013f 00       		.byte	0
 2385 0140 13       		.uleb128 0x13
 2386 0141 34       		.uleb128 0x34
 2387 0142 00       		.byte	0
 2388 0143 03       		.uleb128 0x3
 2389 0144 0E       		.uleb128 0xe
 2390 0145 3A       		.uleb128 0x3a
 2391 0146 0B       		.uleb128 0xb
 2392 0147 3B       		.uleb128 0x3b
 2393 0148 0B       		.uleb128 0xb
 2394 0149 49       		.uleb128 0x49
 2395 014a 13       		.uleb128 0x13
 2396 014b 3F       		.uleb128 0x3f
 2397 014c 19       		.uleb128 0x19
 2398 014d 3C       		.uleb128 0x3c
 2399 014e 19       		.uleb128 0x19
 2400 014f 00       		.byte	0
 2401 0150 00       		.byte	0
 2402 0151 14       		.uleb128 0x14
ARM GAS  C:\Users\Petro\AppData\Local\Temp\cc9Q5GcY.s 			page 62


 2403 0152 34       		.uleb128 0x34
 2404 0153 00       		.byte	0
 2405 0154 03       		.uleb128 0x3
 2406 0155 0E       		.uleb128 0xe
 2407 0156 3A       		.uleb128 0x3a
 2408 0157 0B       		.uleb128 0xb
 2409 0158 3B       		.uleb128 0x3b
 2410 0159 0B       		.uleb128 0xb
 2411 015a 49       		.uleb128 0x49
 2412 015b 13       		.uleb128 0x13
 2413 015c 3F       		.uleb128 0x3f
 2414 015d 19       		.uleb128 0x19
 2415 015e 02       		.uleb128 0x2
 2416 015f 18       		.uleb128 0x18
 2417 0160 00       		.byte	0
 2418 0161 00       		.byte	0
 2419 0162 00       		.byte	0
 2420              		.section	.debug_aranges,"",%progbits
 2421 0000 84000000 		.4byte	0x84
 2422 0004 0200     		.2byte	0x2
 2423 0006 00000000 		.4byte	.Ldebug_info0
 2424 000a 04       		.byte	0x4
 2425 000b 00       		.byte	0
 2426 000c 0000     		.2byte	0
 2427 000e 0000     		.2byte	0
 2428 0010 00000000 		.4byte	.LFB2
 2429 0014 1C010000 		.4byte	.LFE2-.LFB2
 2430 0018 00000000 		.4byte	.LFB3
 2431 001c 2C010000 		.4byte	.LFE3-.LFB3
 2432 0020 00000000 		.4byte	.LFB4
 2433 0024 10010000 		.4byte	.LFE4-.LFB4
 2434 0028 00000000 		.4byte	.LFB5
 2435 002c 08010000 		.4byte	.LFE5-.LFB5
 2436 0030 00000000 		.4byte	.LFB6
 2437 0034 C8000000 		.4byte	.LFE6-.LFB6
 2438 0038 00000000 		.4byte	.LFB7
 2439 003c CC000000 		.4byte	.LFE7-.LFB7
 2440 0040 00000000 		.4byte	.LFB8
 2441 0044 A8000000 		.4byte	.LFE8-.LFB8
 2442 0048 00000000 		.4byte	.LFB9
 2443 004c 14000000 		.4byte	.LFE9-.LFB9
 2444 0050 00000000 		.4byte	.LFB10
 2445 0054 14000000 		.4byte	.LFE10-.LFB10
 2446 0058 00000000 		.4byte	.LFB11
 2447 005c 34000000 		.4byte	.LFE11-.LFB11
 2448 0060 00000000 		.4byte	.LFB12
 2449 0064 34000000 		.4byte	.LFE12-.LFB12
 2450 0068 00000000 		.4byte	.LFB13
 2451 006c 44000000 		.4byte	.LFE13-.LFB13
 2452 0070 00000000 		.4byte	.LFB14
 2453 0074 30000000 		.4byte	.LFE14-.LFB14
 2454 0078 00000000 		.4byte	.LFB15
 2455 007c 34000000 		.4byte	.LFE15-.LFB15
 2456 0080 00000000 		.4byte	0
 2457 0084 00000000 		.4byte	0
 2458              		.section	.debug_ranges,"",%progbits
 2459              	.Ldebug_ranges0:
ARM GAS  C:\Users\Petro\AppData\Local\Temp\cc9Q5GcY.s 			page 63


 2460 0000 00000000 		.4byte	.LFB2
 2461 0004 1C010000 		.4byte	.LFE2
 2462 0008 00000000 		.4byte	.LFB3
 2463 000c 2C010000 		.4byte	.LFE3
 2464 0010 00000000 		.4byte	.LFB4
 2465 0014 10010000 		.4byte	.LFE4
 2466 0018 00000000 		.4byte	.LFB5
 2467 001c 08010000 		.4byte	.LFE5
 2468 0020 00000000 		.4byte	.LFB6
 2469 0024 C8000000 		.4byte	.LFE6
 2470 0028 00000000 		.4byte	.LFB7
 2471 002c CC000000 		.4byte	.LFE7
 2472 0030 00000000 		.4byte	.LFB8
 2473 0034 A8000000 		.4byte	.LFE8
 2474 0038 00000000 		.4byte	.LFB9
 2475 003c 14000000 		.4byte	.LFE9
 2476 0040 00000000 		.4byte	.LFB10
 2477 0044 14000000 		.4byte	.LFE10
 2478 0048 00000000 		.4byte	.LFB11
 2479 004c 34000000 		.4byte	.LFE11
 2480 0050 00000000 		.4byte	.LFB12
 2481 0054 34000000 		.4byte	.LFE12
 2482 0058 00000000 		.4byte	.LFB13
 2483 005c 44000000 		.4byte	.LFE13
 2484 0060 00000000 		.4byte	.LFB14
 2485 0064 30000000 		.4byte	.LFE14
 2486 0068 00000000 		.4byte	.LFB15
 2487 006c 34000000 		.4byte	.LFE15
 2488 0070 00000000 		.4byte	0
 2489 0074 00000000 		.4byte	0
 2490              		.section	.debug_line,"",%progbits
 2491              	.Ldebug_line0:
 2492 0000 B7020000 		.section	.debug_str,"MS",%progbits,1
 2492      02007500 
 2492      00000201 
 2492      FB0E0D00 
 2492      01010101 
 2493              	.LASF52:
 2494 0000 443A5C43 		.ascii	"D:\\Cypress\\system-start-finish\\vesion 2\\fw\\sta"
 2494      79707265 
 2494      73735C73 
 2494      79737465 
 2494      6D2D7374 
 2495 002e 72745C73 		.ascii	"rt\\sandbox\\v3\\Start(state machine)\\start_v0.cyd"
 2495      616E6462 
 2495      6F785C76 
 2495      335C5374 
 2495      61727428 
 2496 005d 736E00   		.ascii	"sn\000"
 2497              	.LASF33:
 2498 0060 4932435F 		.ascii	"I2C_I2CMasterGetReadBufSize\000"
 2498      4932434D 
 2498      61737465 
 2498      72476574 
 2498      52656164 
 2499              	.LASF15:
 2500 007c 72656733 		.ascii	"reg32\000"
ARM GAS  C:\Users\Petro\AppData\Local\Temp\cc9Q5GcY.s 			page 64


 2500      3200
 2501              	.LASF46:
 2502 0082 4932435F 		.ascii	"I2C_mstrWrBufPtr\000"
 2502      6D737472 
 2502      57724275 
 2502      66507472 
 2502      00
 2503              	.LASF53:
 2504 0093 4932435F 		.ascii	"I2C_I2CReStartGeneration\000"
 2504      49324352 
 2504      65537461 
 2504      72744765 
 2504      6E657261 
 2505              	.LASF35:
 2506 00ac 4932435F 		.ascii	"I2C_I2CMasterClearReadBuf\000"
 2506      4932434D 
 2506      61737465 
 2506      72436C65 
 2506      61725265 
 2507              	.LASF3:
 2508 00c6 73686F72 		.ascii	"short unsigned int\000"
 2508      7420756E 
 2508      7369676E 
 2508      65642069 
 2508      6E7400
 2509              	.LASF51:
 2510 00d9 2E5C4765 		.ascii	".\\Generated_Source\\PSoC4\\I2C_I2C_MASTER.c\000"
 2510      6E657261 
 2510      7465645F 
 2510      536F7572 
 2510      63655C50 
 2511              	.LASF38:
 2512 0103 73746174 		.ascii	"status\000"
 2512      757300
 2513              	.LASF26:
 2514 010a 72657365 		.ascii	"resetIp\000"
 2514      74497000 
 2515              	.LASF37:
 2516 0112 4932435F 		.ascii	"I2C_I2CMasterStatus\000"
 2516      4932434D 
 2516      61737465 
 2516      72537461 
 2516      74757300 
 2517              	.LASF45:
 2518 0126 4932435F 		.ascii	"I2C_mstrRdBufIndex\000"
 2518      6D737472 
 2518      52644275 
 2518      66496E64 
 2518      657800
 2519              	.LASF12:
 2520 0139 666C6F61 		.ascii	"float\000"
 2520      7400
 2521              	.LASF0:
 2522 013f 7369676E 		.ascii	"signed char\000"
 2522      65642063 
 2522      68617200 
 2523              	.LASF1:
ARM GAS  C:\Users\Petro\AppData\Local\Temp\cc9Q5GcY.s 			page 65


 2524 014b 756E7369 		.ascii	"unsigned char\000"
 2524      676E6564 
 2524      20636861 
 2524      7200
 2525              	.LASF24:
 2526 0159 4932435F 		.ascii	"I2C_I2CMasterSendStart\000"
 2526      4932434D 
 2526      61737465 
 2526      7253656E 
 2526      64537461 
 2527              	.LASF36:
 2528 0170 4932435F 		.ascii	"I2C_I2CMasterClearWriteBuf\000"
 2528      4932434D 
 2528      61737465 
 2528      72436C65 
 2528      61725772 
 2529              	.LASF42:
 2530 018b 4932435F 		.ascii	"I2C_mstrControl\000"
 2530      6D737472 
 2530      436F6E74 
 2530      726F6C00 
 2531              	.LASF5:
 2532 019b 6C6F6E67 		.ascii	"long unsigned int\000"
 2532      20756E73 
 2532      69676E65 
 2532      6420696E 
 2532      7400
 2533              	.LASF20:
 2534 01ad 4932435F 		.ascii	"I2C_I2CMasterWriteBuf\000"
 2534      4932434D 
 2534      61737465 
 2534      72577269 
 2534      74654275 
 2535              	.LASF9:
 2536 01c3 75696E74 		.ascii	"uint8\000"
 2536      3800
 2537              	.LASF32:
 2538 01c9 61636B4E 		.ascii	"ackNack\000"
 2538      61636B00 
 2539              	.LASF23:
 2540 01d1 65727253 		.ascii	"errStatus\000"
 2540      74617475 
 2540      7300
 2541              	.LASF13:
 2542 01db 646F7562 		.ascii	"double\000"
 2542      6C6500
 2543              	.LASF25:
 2544 01e2 62697452 		.ascii	"bitRnW\000"
 2544      6E5700
 2545              	.LASF50:
 2546 01e9 474E5520 		.ascii	"GNU C 4.9.3 20150303 (release) [ARM/embedded-4_9-br"
 2546      4320342E 
 2546      392E3320 
 2546      32303135 
 2546      30333033 
 2547 021c 616E6368 		.ascii	"anch revision 221220] -mcpu=cortex-m0 -mthumb -g -O"
 2547      20726576 
ARM GAS  C:\Users\Petro\AppData\Local\Temp\cc9Q5GcY.s 			page 66


 2547      6973696F 
 2547      6E203232 
 2547      31323230 
 2548 024f 30202D66 		.ascii	"0 -ffunction-sections -ffat-lto-objects\000"
 2548      66756E63 
 2548      74696F6E 
 2548      2D736563 
 2548      74696F6E 
 2549              	.LASF10:
 2550 0277 75696E74 		.ascii	"uint16\000"
 2550      313600
 2551              	.LASF22:
 2552 027e 72644461 		.ascii	"rdData\000"
 2552      746100
 2553              	.LASF11:
 2554 0285 75696E74 		.ascii	"uint32\000"
 2554      333200
 2555              	.LASF44:
 2556 028c 4932435F 		.ascii	"I2C_mstrRdBufSize\000"
 2556      6D737472 
 2556      52644275 
 2556      6653697A 
 2556      6500
 2557              	.LASF8:
 2558 029e 756E7369 		.ascii	"unsigned int\000"
 2558      676E6564 
 2558      20696E74 
 2558      00
 2559              	.LASF18:
 2560 02ab 77724461 		.ascii	"wrData\000"
 2560      746100
 2561              	.LASF7:
 2562 02b2 6C6F6E67 		.ascii	"long long unsigned int\000"
 2562      206C6F6E 
 2562      6720756E 
 2562      7369676E 
 2562      65642069 
 2563              	.LASF19:
 2564 02c9 6D6F6465 		.ascii	"mode\000"
 2564      00
 2565              	.LASF17:
 2566 02ce 736C6176 		.ascii	"slaveAddress\000"
 2566      65416464 
 2566      72657373 
 2566      00
 2567              	.LASF41:
 2568 02db 4932435F 		.ascii	"I2C_mstrStatus\000"
 2568      6D737472 
 2568      53746174 
 2568      757300
 2569              	.LASF16:
 2570 02ea 73697A65 		.ascii	"sizetype\000"
 2570      74797065 
 2570      00
 2571              	.LASF6:
 2572 02f3 6C6F6E67 		.ascii	"long long int\000"
 2572      206C6F6E 
ARM GAS  C:\Users\Petro\AppData\Local\Temp\cc9Q5GcY.s 			page 67


 2572      6720696E 
 2572      7400
 2573              	.LASF14:
 2574 0301 63686172 		.ascii	"char\000"
 2574      00
 2575              	.LASF29:
 2576 0306 4932435F 		.ascii	"I2C_I2CMasterWriteByte\000"
 2576      4932434D 
 2576      61737465 
 2576      72577269 
 2576      74654279 
 2577              	.LASF2:
 2578 031d 73686F72 		.ascii	"short int\000"
 2578      7420696E 
 2578      7400
 2579              	.LASF30:
 2580 0327 74686542 		.ascii	"theByte\000"
 2580      79746500 
 2581              	.LASF27:
 2582 032f 4932435F 		.ascii	"I2C_I2CMasterSendRestart\000"
 2582      4932434D 
 2582      61737465 
 2582      7253656E 
 2582      64526573 
 2583              	.LASF31:
 2584 0348 4932435F 		.ascii	"I2C_I2CMasterReadByte\000"
 2584      4932434D 
 2584      61737465 
 2584      72526561 
 2584      64427974 
 2585              	.LASF43:
 2586 035e 4932435F 		.ascii	"I2C_mstrRdBufPtr\000"
 2586      6D737472 
 2586      52644275 
 2586      66507472 
 2586      00
 2587              	.LASF49:
 2588 036f 4932435F 		.ascii	"I2C_mstrWrBufIndexTmp\000"
 2588      6D737472 
 2588      57724275 
 2588      66496E64 
 2588      6578546D 
 2589              	.LASF4:
 2590 0385 6C6F6E67 		.ascii	"long int\000"
 2590      20696E74 
 2590      00
 2591              	.LASF34:
 2592 038e 4932435F 		.ascii	"I2C_I2CMasterGetWriteBufSize\000"
 2592      4932434D 
 2592      61737465 
 2592      72476574 
 2592      57726974 
 2593              	.LASF48:
 2594 03ab 4932435F 		.ascii	"I2C_mstrWrBufIndex\000"
 2594      6D737472 
 2594      57724275 
 2594      66496E64 
ARM GAS  C:\Users\Petro\AppData\Local\Temp\cc9Q5GcY.s 			page 68


 2594      657800
 2595              	.LASF47:
 2596 03be 4932435F 		.ascii	"I2C_mstrWrBufSize\000"
 2596      6D737472 
 2596      57724275 
 2596      6653697A 
 2596      6500
 2597              	.LASF21:
 2598 03d0 4932435F 		.ascii	"I2C_I2CMasterReadBuf\000"
 2598      4932434D 
 2598      61737465 
 2598      72526561 
 2598      64427566 
 2599              	.LASF39:
 2600 03e5 4932435F 		.ascii	"I2C_I2CMasterClearStatus\000"
 2600      4932434D 
 2600      61737465 
 2600      72436C65 
 2600      61725374 
 2601              	.LASF40:
 2602 03fe 4932435F 		.ascii	"I2C_state\000"
 2602      73746174 
 2602      6500
 2603              	.LASF28:
 2604 0408 4932435F 		.ascii	"I2C_I2CMasterSendStop\000"
 2604      4932434D 
 2604      61737465 
 2604      7253656E 
 2604      6453746F 
 2605              		.ident	"GCC: (GNU Tools for ARM Embedded Processors) 4.9.3 20150303 (release) [ARM/embedded-4_9-br
