ARM GAS  C:\Users\Petro\AppData\Local\Temp\ccWz19ga.s 			page 1


   1              		.cpu cortex-m0
   2              		.fpu softvfp
   3              		.eabi_attribute 20, 1
   4              		.eabi_attribute 21, 1
   5              		.eabi_attribute 23, 3
   6              		.eabi_attribute 24, 1
   7              		.eabi_attribute 25, 1
   8              		.eabi_attribute 26, 1
   9              		.eabi_attribute 30, 6
  10              		.eabi_attribute 34, 0
  11              		.eabi_attribute 18, 4
  12              		.code	16
  13              		.file	"sdcard.c"
  14              		.text
  15              	.Ltext0:
  16              		.cfi_sections	.debug_frame
  17              		.data
  18              		.type	Stat, %object
  19              		.size	Stat, 1
  20              	Stat:
  21 0000 01       		.byte	1
  22              		.bss
  23              	CardType:
  24 0000 00       		.space	1
  25              		.section	.text.xmit_mmc,"ax",%progbits
  26              		.align	2
  27              		.code	16
  28              		.thumb_func
  29              		.type	xmit_mmc, %function
  30              	xmit_mmc:
  31              	.LFB63:
  32              		.file 1 ".\\lib_Fat\\sdcard.c"
   1:.\lib_Fat/sdcard.c **** /*------------------------------------------------------------------------/
   2:.\lib_Fat/sdcard.c **** /  Foolproof MMCv3/SDv1/SDv2 (in SPI mode) control module
   3:.\lib_Fat/sdcard.c **** /-------------------------------------------------------------------------/
   4:.\lib_Fat/sdcard.c **** /
   5:.\lib_Fat/sdcard.c **** /  Copyright (C) 2013, ChaN, all right reserved.
   6:.\lib_Fat/sdcard.c **** /
   7:.\lib_Fat/sdcard.c **** / * This software is a free software and there is NO WARRANTY.
   8:.\lib_Fat/sdcard.c **** / * No restriction on use. You can use, modify and redistribute it for
   9:.\lib_Fat/sdcard.c **** /   personal, non-profit or commercial products UNDER YOUR RESPONSIBILITY.
  10:.\lib_Fat/sdcard.c **** / * Redistributions of source code must retain the above copyright notice.
  11:.\lib_Fat/sdcard.c **** /
  12:.\lib_Fat/sdcard.c **** /-------------------------------------------------------------------------/
  13:.\lib_Fat/sdcard.c ****   Features and Limitations:
  14:.\lib_Fat/sdcard.c **** 
  15:.\lib_Fat/sdcard.c ****   * Easy to Port Bit-banging SPI
  16:.\lib_Fat/sdcard.c ****     It uses only four GPIO pins. No complex peripheral needs to be used.
  17:.\lib_Fat/sdcard.c **** 
  18:.\lib_Fat/sdcard.c ****   * No Media Change Detection
  19:.\lib_Fat/sdcard.c ****     Application program needs to perform a f_mount() after media change.
  20:.\lib_Fat/sdcard.c **** 
  21:.\lib_Fat/sdcard.c **** /-------------------------------------------------------------------------*/
  22:.\lib_Fat/sdcard.c **** 
  23:.\lib_Fat/sdcard.c **** 
  24:.\lib_Fat/sdcard.c **** #include "diskio.h"		/* Common include file for FatFs and disk I/O layer */
  25:.\lib_Fat/sdcard.c **** 
ARM GAS  C:\Users\Petro\AppData\Local\Temp\ccWz19ga.s 			page 2


  26:.\lib_Fat/sdcard.c **** 
  27:.\lib_Fat/sdcard.c **** /*-------------------------------------------------------------------------*/
  28:.\lib_Fat/sdcard.c **** /* Platform dependent macros and functions needed to be modified           */
  29:.\lib_Fat/sdcard.c **** /*-------------------------------------------------------------------------*/
  30:.\lib_Fat/sdcard.c **** 
  31:.\lib_Fat/sdcard.c **** #include <project.h>
  32:.\lib_Fat/sdcard.c **** #include <cytypes.h>
  33:.\lib_Fat/sdcard.c **** 
  34:.\lib_Fat/sdcard.c ****     /* Put here the same name of the SPI bus module you have used in schematic. */
  35:.\lib_Fat/sdcard.c **** #define SPI_NAME                SPI  
  36:.\lib_Fat/sdcard.c **** #define SPI_HW_NAME             SwSPI_Master
  37:.\lib_Fat/sdcard.c **** /* Put here function used to control SPI SS line.
  38:.\lib_Fat/sdcard.c ****        Example: 
  39:.\lib_Fat/sdcard.c ****         - if using Cypress API macros: SPI_ss0_m_Write
  40:.\lib_Fat/sdcard.c ****         - if using another gpio pint: SPI_SS_Write. */
  41:.\lib_Fat/sdcard.c **** #define mmSPI_SS_Write(value)   SPI_ss0_m_Write(value)
  42:.\lib_Fat/sdcard.c **** //#define mmSPI_SS_Write(value)     SPI_SS_Write(value)       
  43:.\lib_Fat/sdcard.c **** 
  44:.\lib_Fat/sdcard.c **** #define CS_DELAY_US             1
  45:.\lib_Fat/sdcard.c **** #define M_DELAY_US              100
  46:.\lib_Fat/sdcard.c **** 
  47:.\lib_Fat/sdcard.c ****     /* Text substitution macros to avoid changing function names related to SPI API
  48:.\lib_Fat/sdcard.c ****        if SPI module name is changed in schematic. */
  49:.\lib_Fat/sdcard.c **** 
  50:.\lib_Fat/sdcard.c **** #define CONCATENATE(name, function)                 CONCAT(name, function)
  51:.\lib_Fat/sdcard.c **** #define CONCAT(name, function)                      name##function
  52:.\lib_Fat/sdcard.c **** 
  53:.\lib_Fat/sdcard.c **** #if (CY_PSOC4)
  54:.\lib_Fat/sdcard.c **** 
  55:.\lib_Fat/sdcard.c ****     
  56:.\lib_Fat/sdcard.c ****     /*
  57:.\lib_Fat/sdcard.c ****     #define mmSPI_SpiUartClearTxBuffer                  CONCATENATE(SPI_NAME, _SpiUartClearTxBuffer
  58:.\lib_Fat/sdcard.c ****     #define mmSPI_SpiUartClearRxBuffer                  CONCATENATE(SPI_NAME, _SpiUartClearRxBuffer
  59:.\lib_Fat/sdcard.c ****     #define mmSPI_SpiUartPutArray(a, b)                 CONCATENATE(SPI_NAME, _SpiUartPutArray(a, b
  60:.\lib_Fat/sdcard.c ****     #define mmSPI_SpiUartWriteTxData(value)             CONCATENATE(SPI_NAME, _SpiUartWriteTxData(v
  61:.\lib_Fat/sdcard.c ****     #define mmSPI_SpiUartReadRxData                     CONCATENATE(SPI_NAME, _SpiUartReadRxData)
  62:.\lib_Fat/sdcard.c ****     #define mmSPI_GetMasterInterruptSource              CONCATENATE(SPI_NAME, _GetMasterInterruptSo
  63:.\lib_Fat/sdcard.c ****     #define mmSPI_ClearMasterInterruptSource(value)     CONCATENATE(SPI_NAME, _ClearMasterInterrupt
  64:.\lib_Fat/sdcard.c ****     #define mmSPI_INTR_MASTER_SPI_DONE                  CONCATENATE(SPI_NAME, _INTR_MASTER_SPI_DONE
  65:.\lib_Fat/sdcard.c ****     */
  66:.\lib_Fat/sdcard.c ****     
  67:.\lib_Fat/sdcard.c ****     //#define mmSPI_SpiUartClearTxBuffer                  CONCATENATE(SPI_NAME, _SpiUartClearTxBuff
  68:.\lib_Fat/sdcard.c ****     //#define mmSPI_SpiUartClearRxBuffer                  CONCATENATE(SPI_NAME, _SpiUartClearRxBuff
  69:.\lib_Fat/sdcard.c ****     #define mmSPI_SpiUartPutArray(a, b)                 CONCATENATE(SPI_HW_NAME, _SendBuff(a, b)) 
  70:.\lib_Fat/sdcard.c ****     #define mmSPI_SpiUartWriteTxData(value)             CONCATENATE(SPI_HW_NAME, _SendByte(value))
  71:.\lib_Fat/sdcard.c ****     #define mmSPI_SpiUartReadRxData                     CONCATENATE(SPI_HW_NAME, _RecvByte)
  72:.\lib_Fat/sdcard.c ****     
  73:.\lib_Fat/sdcard.c ****     //#define mmSPI_GetMasterInterruptSource              CONCATENATE(SPI_HW_NAME, _GetMasterInterr
  74:.\lib_Fat/sdcard.c ****     //#define mmSPI_ClearMasterInterruptSource(value)     CONCATENATE(SPI_HW_NAME, _ClearMasterInte
  75:.\lib_Fat/sdcard.c ****     //#define mmSPI_INTR_MASTER_SPI_DONE                  CONCATENATE(SPI_HW_NAME, _INTR_MASTER_SPI
  76:.\lib_Fat/sdcard.c **** 
  77:.\lib_Fat/sdcard.c ****     
  78:.\lib_Fat/sdcard.c **** #endif    
  79:.\lib_Fat/sdcard.c **** 
  80:.\lib_Fat/sdcard.c **** #if (CY_PSOC5LP) 
  81:.\lib_Fat/sdcard.c ****     #define mmSPI_SpiUartClearTxBuffer                  CONCATENATE(SPI_NAME, _ClearTxBuffer)
  82:.\lib_Fat/sdcard.c ****     #define mmSPI_SpiUartClearRxBuffer                  CONCATENATE(SPI_NAME, _ClearRxBuffer)    
ARM GAS  C:\Users\Petro\AppData\Local\Temp\ccWz19ga.s 			page 3


  83:.\lib_Fat/sdcard.c ****     #define mmSPI_SpiUartPutArray(a, b)                 CONCATENATE(SPI_NAME, _PutArray(a, b)) 
  84:.\lib_Fat/sdcard.c ****     #define mmSPI_SpiUartWriteTxData(value)             CONCATENATE(SPI_NAME, _WriteTxData(value))
  85:.\lib_Fat/sdcard.c ****     #define mmSPI_SpiUartReadRxData                     CONCATENATE(SPI_NAME, _ReadRxData)
  86:.\lib_Fat/sdcard.c ****     #define mmSPI_GetMasterInterruptSource              CONCATENATE(SPI_NAME, _GetMasterInterruptSo
  87:.\lib_Fat/sdcard.c ****     #define mmSPI_ClearMasterInterruptSource(value)     CONCATENATE(SPI_NAME, _ClearMasterInterrupt
  88:.\lib_Fat/sdcard.c ****     #define mmSPI_INTR_MASTER_SPI_DONE                  CONCATENATE(SPI_NAME, _INTR_MASTER_SPI_DONE
  89:.\lib_Fat/sdcard.c **** #endif 
  90:.\lib_Fat/sdcard.c **** 
  91:.\lib_Fat/sdcard.c ****     /* Delays. */
  92:.\lib_Fat/sdcard.c **** #define dly_us(n)               CyDelayUs(n); /* Delay n microseconds. */
  93:.\lib_Fat/sdcard.c **** 
  94:.\lib_Fat/sdcard.c **** /*--------------------------------------------------------------------------
  95:.\lib_Fat/sdcard.c **** 
  96:.\lib_Fat/sdcard.c ****    Module Private Functions
  97:.\lib_Fat/sdcard.c **** 
  98:.\lib_Fat/sdcard.c **** ---------------------------------------------------------------------------*/
  99:.\lib_Fat/sdcard.c **** 
 100:.\lib_Fat/sdcard.c **** /* MMC/SD command (SPI mode) */
 101:.\lib_Fat/sdcard.c **** #define CMD0	(0)			/* GO_IDLE_STATE */
 102:.\lib_Fat/sdcard.c **** #define CMD1	(1)			/* SEND_OP_COND */
 103:.\lib_Fat/sdcard.c **** #define	ACMD41	(0x80+41)	/* SEND_OP_COND (SDC) */
 104:.\lib_Fat/sdcard.c **** #define CMD8	(8)			/* SEND_IF_COND */
 105:.\lib_Fat/sdcard.c **** #define CMD9	(9)			/* SEND_CSD */
 106:.\lib_Fat/sdcard.c **** #define CMD10	(10)		/* SEND_CID */
 107:.\lib_Fat/sdcard.c **** #define CMD12	(12)		/* STOP_TRANSMISSION */
 108:.\lib_Fat/sdcard.c **** #define CMD13	(13)		/* SEND_STATUS */
 109:.\lib_Fat/sdcard.c **** #define ACMD13	(0x80+13)	/* SD_STATUS (SDC) */
 110:.\lib_Fat/sdcard.c **** #define CMD16	(16)		/* SET_BLOCKLEN */
 111:.\lib_Fat/sdcard.c **** #define CMD17	(17)		/* READ_SINGLE_BLOCK */
 112:.\lib_Fat/sdcard.c **** #define CMD18	(18)		/* READ_MULTIPLE_BLOCK */
 113:.\lib_Fat/sdcard.c **** #define CMD23	(23)		/* SET_BLOCK_COUNT */
 114:.\lib_Fat/sdcard.c **** #define	ACMD23	(0x80+23)	/* SET_WR_BLK_ERASE_COUNT (SDC) */
 115:.\lib_Fat/sdcard.c **** #define CMD24	(24)		/* WRITE_BLOCK */
 116:.\lib_Fat/sdcard.c **** #define CMD25	(25)		/* WRITE_MULTIPLE_BLOCK */
 117:.\lib_Fat/sdcard.c **** #define CMD32	(32)		/* ERASE_ER_BLK_START */
 118:.\lib_Fat/sdcard.c **** #define CMD33	(33)		/* ERASE_ER_BLK_END */
 119:.\lib_Fat/sdcard.c **** #define CMD38	(38)		/* ERASE */
 120:.\lib_Fat/sdcard.c **** #define CMD55	(55)		/* APP_CMD */
 121:.\lib_Fat/sdcard.c **** #define CMD58	(58)		/* READ_OCR */
 122:.\lib_Fat/sdcard.c **** 
 123:.\lib_Fat/sdcard.c **** 
 124:.\lib_Fat/sdcard.c **** static DSTATUS Stat = STA_NOINIT;	/* Disk status */
 125:.\lib_Fat/sdcard.c **** 
 126:.\lib_Fat/sdcard.c **** static BYTE CardType;			/* b0:MMC, b1:SDv1, b2:SDv2, b3:Block addressing */
 127:.\lib_Fat/sdcard.c **** 
 128:.\lib_Fat/sdcard.c **** /*-----------------------------------------------------------------------*/
 129:.\lib_Fat/sdcard.c **** /* Transmit bytes to the card                                            */
 130:.\lib_Fat/sdcard.c **** /*-----------------------------------------------------------------------*/
 131:.\lib_Fat/sdcard.c **** 
 132:.\lib_Fat/sdcard.c **** static void xmit_mmc(const BYTE* buff, UINT bc)
 133:.\lib_Fat/sdcard.c **** {
  33              		.loc 1 133 0
  34              		.cfi_startproc
  35 0000 80B5     		push	{r7, lr}
  36              		.cfi_def_cfa_offset 8
  37              		.cfi_offset 7, -8
  38              		.cfi_offset 14, -4
ARM GAS  C:\Users\Petro\AppData\Local\Temp\ccWz19ga.s 			page 4


  39 0002 82B0     		sub	sp, sp, #8
  40              		.cfi_def_cfa_offset 16
  41 0004 00AF     		add	r7, sp, #0
  42              		.cfi_def_cfa_register 7
  43 0006 7860     		str	r0, [r7, #4]
  44 0008 3960     		str	r1, [r7]
 134:.\lib_Fat/sdcard.c **** 
 135:.\lib_Fat/sdcard.c **** #if (CY_PSOC4)
 136:.\lib_Fat/sdcard.c **** 
 137:.\lib_Fat/sdcard.c **** //    mmSPI_SpiUartClearTxBuffer();
 138:.\lib_Fat/sdcard.c **** //    mmSPI_SpiUartClearRxBuffer();
 139:.\lib_Fat/sdcard.c ****       mmSPI_SpiUartPutArray(buff, bc);
  45              		.loc 1 139 0
  46 000a 3B68     		ldr	r3, [r7]
  47 000c 9BB2     		uxth	r3, r3
  48 000e 7A68     		ldr	r2, [r7, #4]
  49 0010 101C     		mov	r0, r2
  50 0012 191C     		mov	r1, r3
  51 0014 FFF7FEFF 		bl	SwSPI_Master_SendBuff
 140:.\lib_Fat/sdcard.c ****       CyDelay(5);
  52              		.loc 1 140 0
  53 0018 0520     		mov	r0, #5
  54 001a FFF7FEFF 		bl	CyDelay
 141:.\lib_Fat/sdcard.c ****     //while(0u == (mmSPI_GetMasterInterruptSource() & mmSPI_INTR_MASTER_SPI_DONE));
 142:.\lib_Fat/sdcard.c ****     
 143:.\lib_Fat/sdcard.c **** #endif
 144:.\lib_Fat/sdcard.c **** 
 145:.\lib_Fat/sdcard.c **** #if (CY_PSOC5LP)
 146:.\lib_Fat/sdcard.c ****     
 147:.\lib_Fat/sdcard.c ****     UINT loop;
 148:.\lib_Fat/sdcard.c ****     
 149:.\lib_Fat/sdcard.c ****     SPI_ClearTxBuffer();
 150:.\lib_Fat/sdcard.c ****     SPI_ClearRxBuffer();
 151:.\lib_Fat/sdcard.c ****     
 152:.\lib_Fat/sdcard.c ****     for (loop = 0; loop < bc; loop++)
 153:.\lib_Fat/sdcard.c ****         SPI_WriteTxData(buff[loop]);
 154:.\lib_Fat/sdcard.c ****     
 155:.\lib_Fat/sdcard.c ****     while (SPI_GetTxBufferSize()) {};
 156:.\lib_Fat/sdcard.c ****     
 157:.\lib_Fat/sdcard.c **** #endif    
 158:.\lib_Fat/sdcard.c **** }
  55              		.loc 1 158 0
  56 001e BD46     		mov	sp, r7
  57 0020 02B0     		add	sp, sp, #8
  58              		@ sp needed
  59 0022 80BD     		pop	{r7, pc}
  60              		.cfi_endproc
  61              	.LFE63:
  62              		.size	xmit_mmc, .-xmit_mmc
  63              		.section	.text.rcvr_mmc,"ax",%progbits
  64              		.align	2
  65              		.code	16
  66              		.thumb_func
  67              		.type	rcvr_mmc, %function
  68              	rcvr_mmc:
  69              	.LFB64:
 159:.\lib_Fat/sdcard.c **** 
ARM GAS  C:\Users\Petro\AppData\Local\Temp\ccWz19ga.s 			page 5


 160:.\lib_Fat/sdcard.c **** 
 161:.\lib_Fat/sdcard.c **** 
 162:.\lib_Fat/sdcard.c **** /*-----------------------------------------------------------------------*/
 163:.\lib_Fat/sdcard.c **** /* Receive bytes from the card                                           */
 164:.\lib_Fat/sdcard.c **** /*-----------------------------------------------------------------------*/
 165:.\lib_Fat/sdcard.c **** 
 166:.\lib_Fat/sdcard.c **** static void rcvr_mmc(BYTE *buff, UINT bc)
 167:.\lib_Fat/sdcard.c **** {
  70              		.loc 1 167 0
  71              		.cfi_startproc
  72 0000 90B5     		push	{r4, r7, lr}
  73              		.cfi_def_cfa_offset 12
  74              		.cfi_offset 4, -12
  75              		.cfi_offset 7, -8
  76              		.cfi_offset 14, -4
  77 0002 83B0     		sub	sp, sp, #12
  78              		.cfi_def_cfa_offset 24
  79 0004 00AF     		add	r7, sp, #0
  80              		.cfi_def_cfa_register 7
  81 0006 7860     		str	r0, [r7, #4]
  82 0008 3960     		str	r1, [r7]
  83              	.L3:
 168:.\lib_Fat/sdcard.c **** 
 169:.\lib_Fat/sdcard.c **** #if (CY_PSOC4) 
 170:.\lib_Fat/sdcard.c ****     
 171:.\lib_Fat/sdcard.c ****     //mmSPI_SpiUartClearTxBuffer();
 172:.\lib_Fat/sdcard.c ****     //mmSPI_SpiUartClearRxBuffer();
 173:.\lib_Fat/sdcard.c ****     
 174:.\lib_Fat/sdcard.c ****     do
 175:.\lib_Fat/sdcard.c ****     {
 176:.\lib_Fat/sdcard.c **** 
 177:.\lib_Fat/sdcard.c ****         //while(0u == (mmSPI_GetMasterInterruptSource() & mmSPI_INTR_MASTER_SPI_DONE));
 178:.\lib_Fat/sdcard.c ****         //CyDelayUs(M_DELAY_US); // <*> adjust, why?
 179:.\lib_Fat/sdcard.c ****         //mmSPI_SpiUartWriteTxData(0xFF);
 180:.\lib_Fat/sdcard.c ****         *buff++ = (BYTE)mmSPI_SpiUartReadRxData();
  84              		.loc 1 180 0 discriminator 1
  85 000a 7C68     		ldr	r4, [r7, #4]
  86 000c 631C     		add	r3, r4, #1
  87 000e 7B60     		str	r3, [r7, #4]
  88 0010 FFF7FEFF 		bl	SwSPI_Master_RecvByte
  89 0014 031C     		mov	r3, r0
  90 0016 2370     		strb	r3, [r4]
 181:.\lib_Fat/sdcard.c **** 
 182:.\lib_Fat/sdcard.c ****     } while (--bc);   
  91              		.loc 1 182 0 discriminator 1
  92 0018 3B68     		ldr	r3, [r7]
  93 001a 013B     		sub	r3, r3, #1
  94 001c 3B60     		str	r3, [r7]
  95 001e 3B68     		ldr	r3, [r7]
  96 0020 002B     		cmp	r3, #0
  97 0022 F2D1     		bne	.L3
 183:.\lib_Fat/sdcard.c ****     
 184:.\lib_Fat/sdcard.c **** #endif    
 185:.\lib_Fat/sdcard.c ****     
 186:.\lib_Fat/sdcard.c **** #if (CY_PSOC5LP)
 187:.\lib_Fat/sdcard.c ****     
 188:.\lib_Fat/sdcard.c ****     SPI_ClearTxBuffer();
ARM GAS  C:\Users\Petro\AppData\Local\Temp\ccWz19ga.s 			page 6


 189:.\lib_Fat/sdcard.c ****     SPI_ClearRxBuffer();
 190:.\lib_Fat/sdcard.c ****     
 191:.\lib_Fat/sdcard.c ****     do
 192:.\lib_Fat/sdcard.c ****     {
 193:.\lib_Fat/sdcard.c **** 
 194:.\lib_Fat/sdcard.c ****         SPI_WriteTxData(0xFF);
 195:.\lib_Fat/sdcard.c ****         while (SPI_GetTxBufferSize()) {};
 196:.\lib_Fat/sdcard.c ****         CyDelayUs(M_DELAY_US); // <*> adjust, why?
 197:.\lib_Fat/sdcard.c ****         *buff++ = (BYTE)SPI_ReadRxData();
 198:.\lib_Fat/sdcard.c **** 
 199:.\lib_Fat/sdcard.c ****     } while (--bc);    
 200:.\lib_Fat/sdcard.c ****     
 201:.\lib_Fat/sdcard.c **** #endif        
 202:.\lib_Fat/sdcard.c **** 
 203:.\lib_Fat/sdcard.c **** }
  98              		.loc 1 203 0
  99 0024 BD46     		mov	sp, r7
 100 0026 03B0     		add	sp, sp, #12
 101              		@ sp needed
 102 0028 90BD     		pop	{r4, r7, pc}
 103              		.cfi_endproc
 104              	.LFE64:
 105              		.size	rcvr_mmc, .-rcvr_mmc
 106 002a C046     		.section	.text.wait_ready,"ax",%progbits
 107              		.align	2
 108              		.code	16
 109              		.thumb_func
 110              		.type	wait_ready, %function
 111              	wait_ready:
 112              	.LFB65:
 204:.\lib_Fat/sdcard.c **** 
 205:.\lib_Fat/sdcard.c **** 
 206:.\lib_Fat/sdcard.c **** 
 207:.\lib_Fat/sdcard.c **** /*-----------------------------------------------------------------------*/
 208:.\lib_Fat/sdcard.c **** /* Wait for card ready                                                   */
 209:.\lib_Fat/sdcard.c **** /*-----------------------------------------------------------------------*/
 210:.\lib_Fat/sdcard.c **** 
 211:.\lib_Fat/sdcard.c **** static int wait_ready(void)	/* 1:OK, 0:Timeout */
 212:.\lib_Fat/sdcard.c **** {
 113              		.loc 1 212 0
 114              		.cfi_startproc
 115 0000 80B5     		push	{r7, lr}
 116              		.cfi_def_cfa_offset 8
 117              		.cfi_offset 7, -8
 118              		.cfi_offset 14, -4
 119 0002 82B0     		sub	sp, sp, #8
 120              		.cfi_def_cfa_offset 16
 121 0004 00AF     		add	r7, sp, #0
 122              		.cfi_def_cfa_register 7
 213:.\lib_Fat/sdcard.c **** 	BYTE d;
 214:.\lib_Fat/sdcard.c **** 	UINT tmr;
 215:.\lib_Fat/sdcard.c **** 
 216:.\lib_Fat/sdcard.c **** 	for (tmr = 5000; tmr; tmr--) {	/* Wait for ready in timeout of 500ms */
 123              		.loc 1 216 0
 124 0006 0F4B     		ldr	r3, .L10
 125 0008 7B60     		str	r3, [r7, #4]
 126 000a 0FE0     		b	.L5
ARM GAS  C:\Users\Petro\AppData\Local\Temp\ccWz19ga.s 			page 7


 127              	.L8:
 217:.\lib_Fat/sdcard.c **** 		rcvr_mmc(&d, 1);
 128              		.loc 1 217 0
 129 000c FB1C     		add	r3, r7, #3
 130 000e 181C     		mov	r0, r3
 131 0010 0121     		mov	r1, #1
 132 0012 FFF7FEFF 		bl	rcvr_mmc
 218:.\lib_Fat/sdcard.c **** 		if (d == 0xFF) break;
 133              		.loc 1 218 0
 134 0016 FB1C     		add	r3, r7, #3
 135 0018 1B78     		ldrb	r3, [r3]
 136 001a FF2B     		cmp	r3, #255
 137 001c 00D1     		bne	.L6
 138 001e 08E0     		b	.L7
 139              	.L6:
 219:.\lib_Fat/sdcard.c **** 		dly_us(100);
 140              		.loc 1 219 0 discriminator 2
 141 0020 6420     		mov	r0, #100
 142 0022 FFF7FEFF 		bl	CyDelayUs
 216:.\lib_Fat/sdcard.c **** 		rcvr_mmc(&d, 1);
 143              		.loc 1 216 0 discriminator 2
 144 0026 7B68     		ldr	r3, [r7, #4]
 145 0028 013B     		sub	r3, r3, #1
 146 002a 7B60     		str	r3, [r7, #4]
 147              	.L5:
 216:.\lib_Fat/sdcard.c **** 		rcvr_mmc(&d, 1);
 148              		.loc 1 216 0 is_stmt 0 discriminator 1
 149 002c 7B68     		ldr	r3, [r7, #4]
 150 002e 002B     		cmp	r3, #0
 151 0030 ECD1     		bne	.L8
 152              	.L7:
 220:.\lib_Fat/sdcard.c **** 	}
 221:.\lib_Fat/sdcard.c **** 
 222:.\lib_Fat/sdcard.c **** 	return tmr ? 1 : 0;
 153              		.loc 1 222 0 is_stmt 1
 154 0032 7B68     		ldr	r3, [r7, #4]
 155 0034 5A1E     		sub	r2, r3, #1
 156 0036 9341     		sbc	r3, r3, r2
 157 0038 DBB2     		uxtb	r3, r3
 223:.\lib_Fat/sdcard.c **** }
 158              		.loc 1 223 0
 159 003a 181C     		mov	r0, r3
 160 003c BD46     		mov	sp, r7
 161 003e 02B0     		add	sp, sp, #8
 162              		@ sp needed
 163 0040 80BD     		pop	{r7, pc}
 164              	.L11:
 165 0042 C046     		.align	2
 166              	.L10:
 167 0044 88130000 		.word	5000
 168              		.cfi_endproc
 169              	.LFE65:
 170              		.size	wait_ready, .-wait_ready
 171              		.section	.text.deselect,"ax",%progbits
 172              		.align	2
 173              		.code	16
 174              		.thumb_func
ARM GAS  C:\Users\Petro\AppData\Local\Temp\ccWz19ga.s 			page 8


 175              		.type	deselect, %function
 176              	deselect:
 177              	.LFB66:
 224:.\lib_Fat/sdcard.c **** 
 225:.\lib_Fat/sdcard.c **** /*-----------------------------------------------------------------------*/
 226:.\lib_Fat/sdcard.c **** /* Deselect the card and release SPI bus                                 */
 227:.\lib_Fat/sdcard.c **** /*-----------------------------------------------------------------------*/
 228:.\lib_Fat/sdcard.c **** 
 229:.\lib_Fat/sdcard.c **** static void deselect(void)
 230:.\lib_Fat/sdcard.c **** {
 178              		.loc 1 230 0
 179              		.cfi_startproc
 180 0000 80B5     		push	{r7, lr}
 181              		.cfi_def_cfa_offset 8
 182              		.cfi_offset 7, -8
 183              		.cfi_offset 14, -4
 184 0002 82B0     		sub	sp, sp, #8
 185              		.cfi_def_cfa_offset 16
 186 0004 00AF     		add	r7, sp, #0
 187              		.cfi_def_cfa_register 7
 231:.\lib_Fat/sdcard.c **** 	BYTE d;
 232:.\lib_Fat/sdcard.c **** 
 233:.\lib_Fat/sdcard.c ****     CyDelayUs(CS_DELAY_US); // <*> adjust
 188              		.loc 1 233 0
 189 0006 0120     		mov	r0, #1
 190 0008 FFF7FEFF 		bl	CyDelayUs
 234:.\lib_Fat/sdcard.c **** 	rcvr_mmc(&d, 1);	/* Dummy clock (force DO hi-z for multiple slave SPI) */
 191              		.loc 1 234 0
 192 000c FB1D     		add	r3, r7, #7
 193 000e 181C     		mov	r0, r3
 194 0010 0121     		mov	r1, #1
 195 0012 FFF7FEFF 		bl	rcvr_mmc
 235:.\lib_Fat/sdcard.c **** }
 196              		.loc 1 235 0
 197 0016 BD46     		mov	sp, r7
 198 0018 02B0     		add	sp, sp, #8
 199              		@ sp needed
 200 001a 80BD     		pop	{r7, pc}
 201              		.cfi_endproc
 202              	.LFE66:
 203              		.size	deselect, .-deselect
 204              		.section	.text.select,"ax",%progbits
 205              		.align	2
 206              		.code	16
 207              		.thumb_func
 208              		.type	select, %function
 209              	select:
 210              	.LFB67:
 236:.\lib_Fat/sdcard.c **** 
 237:.\lib_Fat/sdcard.c **** /*-----------------------------------------------------------------------*/
 238:.\lib_Fat/sdcard.c **** /* Select the card and wait for ready                                    */
 239:.\lib_Fat/sdcard.c **** /*-----------------------------------------------------------------------*/
 240:.\lib_Fat/sdcard.c **** 
 241:.\lib_Fat/sdcard.c **** static int select(void)	/* 1:OK, 0:Timeout */
 242:.\lib_Fat/sdcard.c **** {
 211              		.loc 1 242 0
 212              		.cfi_startproc
ARM GAS  C:\Users\Petro\AppData\Local\Temp\ccWz19ga.s 			page 9


 213 0000 80B5     		push	{r7, lr}
 214              		.cfi_def_cfa_offset 8
 215              		.cfi_offset 7, -8
 216              		.cfi_offset 14, -4
 217 0002 82B0     		sub	sp, sp, #8
 218              		.cfi_def_cfa_offset 16
 219 0004 00AF     		add	r7, sp, #0
 220              		.cfi_def_cfa_register 7
 243:.\lib_Fat/sdcard.c **** 	BYTE d;
 244:.\lib_Fat/sdcard.c **** 
 245:.\lib_Fat/sdcard.c ****     CyDelayUs(CS_DELAY_US); // <*> adjust
 221              		.loc 1 245 0
 222 0006 0120     		mov	r0, #1
 223 0008 FFF7FEFF 		bl	CyDelayUs
 246:.\lib_Fat/sdcard.c **** 	rcvr_mmc(&d, 1);	/* Dummy clock (force DO enabled) */
 224              		.loc 1 246 0
 225 000c FB1D     		add	r3, r7, #7
 226 000e 181C     		mov	r0, r3
 227 0010 0121     		mov	r1, #1
 228 0012 FFF7FEFF 		bl	rcvr_mmc
 247:.\lib_Fat/sdcard.c **** 	if (wait_ready()) return 1;	/* Wait for card ready */
 229              		.loc 1 247 0
 230 0016 FFF7FEFF 		bl	wait_ready
 231 001a 031E     		sub	r3, r0, #0
 232 001c 01D0     		beq	.L14
 233              		.loc 1 247 0 is_stmt 0 discriminator 1
 234 001e 0123     		mov	r3, #1
 235 0020 02E0     		b	.L16
 236              	.L14:
 248:.\lib_Fat/sdcard.c **** 
 249:.\lib_Fat/sdcard.c **** 	deselect();
 237              		.loc 1 249 0 is_stmt 1
 238 0022 FFF7FEFF 		bl	deselect
 250:.\lib_Fat/sdcard.c **** 	return 0;			/* Failed */
 239              		.loc 1 250 0
 240 0026 0023     		mov	r3, #0
 241              	.L16:
 251:.\lib_Fat/sdcard.c **** }
 242              		.loc 1 251 0 discriminator 1
 243 0028 181C     		mov	r0, r3
 244 002a BD46     		mov	sp, r7
 245 002c 02B0     		add	sp, sp, #8
 246              		@ sp needed
 247 002e 80BD     		pop	{r7, pc}
 248              		.cfi_endproc
 249              	.LFE67:
 250              		.size	select, .-select
 251              		.section	.text.rcvr_datablock,"ax",%progbits
 252              		.align	2
 253              		.code	16
 254              		.thumb_func
 255              		.type	rcvr_datablock, %function
 256              	rcvr_datablock:
 257              	.LFB68:
 252:.\lib_Fat/sdcard.c **** 
 253:.\lib_Fat/sdcard.c **** /*-----------------------------------------------------------------------*/
 254:.\lib_Fat/sdcard.c **** /* Receive a data packet from the card                                   */
ARM GAS  C:\Users\Petro\AppData\Local\Temp\ccWz19ga.s 			page 10


 255:.\lib_Fat/sdcard.c **** /*-----------------------------------------------------------------------*/
 256:.\lib_Fat/sdcard.c **** 
 257:.\lib_Fat/sdcard.c **** static int rcvr_datablock(BYTE *buff, UINT btr) 	/* 1:OK, 0:Failed */
 258:.\lib_Fat/sdcard.c **** {
 258              		.loc 1 258 0
 259              		.cfi_startproc
 260 0000 80B5     		push	{r7, lr}
 261              		.cfi_def_cfa_offset 8
 262              		.cfi_offset 7, -8
 263              		.cfi_offset 14, -4
 264 0002 84B0     		sub	sp, sp, #16
 265              		.cfi_def_cfa_offset 24
 266 0004 00AF     		add	r7, sp, #0
 267              		.cfi_def_cfa_register 7
 268 0006 7860     		str	r0, [r7, #4]
 269 0008 3960     		str	r1, [r7]
 259:.\lib_Fat/sdcard.c **** 	BYTE d[2];
 260:.\lib_Fat/sdcard.c **** 	UINT tmr;
 261:.\lib_Fat/sdcard.c **** 
 262:.\lib_Fat/sdcard.c **** 	for (tmr = 1000; tmr; tmr--) {	/* Wait for data packet in timeout of 100ms */
 270              		.loc 1 262 0
 271 000a FA23     		mov	r3, #250
 272 000c 9B00     		lsl	r3, r3, #2
 273 000e FB60     		str	r3, [r7, #12]
 274 0010 11E0     		b	.L18
 275              	.L21:
 263:.\lib_Fat/sdcard.c **** 		rcvr_mmc(d, 1);
 276              		.loc 1 263 0
 277 0012 0823     		mov	r3, #8
 278 0014 FB18     		add	r3, r7, r3
 279 0016 181C     		mov	r0, r3
 280 0018 0121     		mov	r1, #1
 281 001a FFF7FEFF 		bl	rcvr_mmc
 264:.\lib_Fat/sdcard.c **** 		if (d[0] != 0xFF) break;
 282              		.loc 1 264 0
 283 001e 0823     		mov	r3, #8
 284 0020 FB18     		add	r3, r7, r3
 285 0022 1B78     		ldrb	r3, [r3]
 286 0024 FF2B     		cmp	r3, #255
 287 0026 00D0     		beq	.L19
 288 0028 08E0     		b	.L20
 289              	.L19:
 265:.\lib_Fat/sdcard.c **** 		dly_us(100);
 290              		.loc 1 265 0 discriminator 2
 291 002a 6420     		mov	r0, #100
 292 002c FFF7FEFF 		bl	CyDelayUs
 262:.\lib_Fat/sdcard.c **** 		rcvr_mmc(d, 1);
 293              		.loc 1 262 0 discriminator 2
 294 0030 FB68     		ldr	r3, [r7, #12]
 295 0032 013B     		sub	r3, r3, #1
 296 0034 FB60     		str	r3, [r7, #12]
 297              	.L18:
 262:.\lib_Fat/sdcard.c **** 		rcvr_mmc(d, 1);
 298              		.loc 1 262 0 is_stmt 0 discriminator 1
 299 0036 FB68     		ldr	r3, [r7, #12]
 300 0038 002B     		cmp	r3, #0
 301 003a EAD1     		bne	.L21
ARM GAS  C:\Users\Petro\AppData\Local\Temp\ccWz19ga.s 			page 11


 302              	.L20:
 266:.\lib_Fat/sdcard.c **** 	}
 267:.\lib_Fat/sdcard.c **** 	if (d[0] != 0xFE) return 0;		/* If not valid data token, return with error */
 303              		.loc 1 267 0 is_stmt 1
 304 003c 0823     		mov	r3, #8
 305 003e FB18     		add	r3, r7, r3
 306 0040 1B78     		ldrb	r3, [r3]
 307 0042 FE2B     		cmp	r3, #254
 308 0044 01D0     		beq	.L22
 309              		.loc 1 267 0 is_stmt 0 discriminator 1
 310 0046 0023     		mov	r3, #0
 311 0048 0CE0     		b	.L24
 312              	.L22:
 268:.\lib_Fat/sdcard.c **** 
 269:.\lib_Fat/sdcard.c **** 	rcvr_mmc(buff, btr);			/* Receive the data block into buffer */
 313              		.loc 1 269 0 is_stmt 1
 314 004a 7A68     		ldr	r2, [r7, #4]
 315 004c 3B68     		ldr	r3, [r7]
 316 004e 101C     		mov	r0, r2
 317 0050 191C     		mov	r1, r3
 318 0052 FFF7FEFF 		bl	rcvr_mmc
 270:.\lib_Fat/sdcard.c **** 	rcvr_mmc(d, 2);					/* Discard CRC */
 319              		.loc 1 270 0
 320 0056 0823     		mov	r3, #8
 321 0058 FB18     		add	r3, r7, r3
 322 005a 181C     		mov	r0, r3
 323 005c 0221     		mov	r1, #2
 324 005e FFF7FEFF 		bl	rcvr_mmc
 271:.\lib_Fat/sdcard.c **** 
 272:.\lib_Fat/sdcard.c **** 	return 1;						/* Return with success */
 325              		.loc 1 272 0
 326 0062 0123     		mov	r3, #1
 327              	.L24:
 273:.\lib_Fat/sdcard.c **** }
 328              		.loc 1 273 0 discriminator 1
 329 0064 181C     		mov	r0, r3
 330 0066 BD46     		mov	sp, r7
 331 0068 04B0     		add	sp, sp, #16
 332              		@ sp needed
 333 006a 80BD     		pop	{r7, pc}
 334              		.cfi_endproc
 335              	.LFE68:
 336              		.size	rcvr_datablock, .-rcvr_datablock
 337              		.section	.text.xmit_datablock,"ax",%progbits
 338              		.align	2
 339              		.code	16
 340              		.thumb_func
 341              		.type	xmit_datablock, %function
 342              	xmit_datablock:
 343              	.LFB69:
 274:.\lib_Fat/sdcard.c **** 
 275:.\lib_Fat/sdcard.c **** /*-----------------------------------------------------------------------*/
 276:.\lib_Fat/sdcard.c **** /* Send a data packet to the card                                        */
 277:.\lib_Fat/sdcard.c **** /*-----------------------------------------------------------------------*/
 278:.\lib_Fat/sdcard.c **** 
 279:.\lib_Fat/sdcard.c **** static int xmit_datablock(const BYTE *buff, BYTE token)	/* 1:OK, 0:Failed */
 280:.\lib_Fat/sdcard.c **** {
ARM GAS  C:\Users\Petro\AppData\Local\Temp\ccWz19ga.s 			page 12


 344              		.loc 1 280 0
 345              		.cfi_startproc
 346 0000 80B5     		push	{r7, lr}
 347              		.cfi_def_cfa_offset 8
 348              		.cfi_offset 7, -8
 349              		.cfi_offset 14, -4
 350 0002 84B0     		sub	sp, sp, #16
 351              		.cfi_def_cfa_offset 24
 352 0004 00AF     		add	r7, sp, #0
 353              		.cfi_def_cfa_register 7
 354 0006 7860     		str	r0, [r7, #4]
 355 0008 0A1C     		mov	r2, r1
 356 000a FB1C     		add	r3, r7, #3
 357 000c 1A70     		strb	r2, [r3]
 281:.\lib_Fat/sdcard.c **** 	BYTE d[2];
 282:.\lib_Fat/sdcard.c **** 
 283:.\lib_Fat/sdcard.c **** 	if (!wait_ready()) return 0;
 358              		.loc 1 283 0
 359 000e FFF7FEFF 		bl	wait_ready
 360 0012 031E     		sub	r3, r0, #0
 361 0014 01D1     		bne	.L26
 362              		.loc 1 283 0 is_stmt 0 discriminator 1
 363 0016 0023     		mov	r3, #0
 364 0018 32E0     		b	.L29
 365              	.L26:
 284:.\lib_Fat/sdcard.c **** 
 285:.\lib_Fat/sdcard.c **** 	d[0] = token;
 366              		.loc 1 285 0 is_stmt 1
 367 001a 0C23     		mov	r3, #12
 368 001c FB18     		add	r3, r7, r3
 369 001e FA1C     		add	r2, r7, #3
 370 0020 1278     		ldrb	r2, [r2]
 371 0022 1A70     		strb	r2, [r3]
 286:.\lib_Fat/sdcard.c **** 	xmit_mmc(d, 1);				/* Xmit a token */
 372              		.loc 1 286 0
 373 0024 0C23     		mov	r3, #12
 374 0026 FB18     		add	r3, r7, r3
 375 0028 181C     		mov	r0, r3
 376 002a 0121     		mov	r1, #1
 377 002c FFF7FEFF 		bl	xmit_mmc
 287:.\lib_Fat/sdcard.c ****     CyDelayUs(M_DELAY_US); // <*> why?
 378              		.loc 1 287 0
 379 0030 6420     		mov	r0, #100
 380 0032 FFF7FEFF 		bl	CyDelayUs
 288:.\lib_Fat/sdcard.c **** 	if (token != 0xFD) {		/* Is it data token? */
 381              		.loc 1 288 0
 382 0036 FB1C     		add	r3, r7, #3
 383 0038 1B78     		ldrb	r3, [r3]
 384 003a FD2B     		cmp	r3, #253
 385 003c 1FD0     		beq	.L28
 289:.\lib_Fat/sdcard.c **** 		xmit_mmc(buff, 512);	/* Xmit the 512 byte data block to MMC */
 386              		.loc 1 289 0
 387 003e 7A68     		ldr	r2, [r7, #4]
 388 0040 8023     		mov	r3, #128
 389 0042 9B00     		lsl	r3, r3, #2
 390 0044 101C     		mov	r0, r2
 391 0046 191C     		mov	r1, r3
ARM GAS  C:\Users\Petro\AppData\Local\Temp\ccWz19ga.s 			page 13


 392 0048 FFF7FEFF 		bl	xmit_mmc
 290:.\lib_Fat/sdcard.c ****         CyDelayUs(M_DELAY_US); // <*> why?
 393              		.loc 1 290 0
 394 004c 6420     		mov	r0, #100
 395 004e FFF7FEFF 		bl	CyDelayUs
 291:.\lib_Fat/sdcard.c **** 		rcvr_mmc(d, 2);			/* Xmit dummy CRC (0xFF,0xFF) */
 396              		.loc 1 291 0
 397 0052 0C23     		mov	r3, #12
 398 0054 FB18     		add	r3, r7, r3
 399 0056 181C     		mov	r0, r3
 400 0058 0221     		mov	r1, #2
 401 005a FFF7FEFF 		bl	rcvr_mmc
 292:.\lib_Fat/sdcard.c **** 		rcvr_mmc(d, 1);			/* Receive data response */
 402              		.loc 1 292 0
 403 005e 0C23     		mov	r3, #12
 404 0060 FB18     		add	r3, r7, r3
 405 0062 181C     		mov	r0, r3
 406 0064 0121     		mov	r1, #1
 407 0066 FFF7FEFF 		bl	rcvr_mmc
 293:.\lib_Fat/sdcard.c **** 		if ((d[0] & 0x1F) != 0x05)	/* If not accepted, return with error */
 408              		.loc 1 293 0
 409 006a 0C23     		mov	r3, #12
 410 006c FB18     		add	r3, r7, r3
 411 006e 1B78     		ldrb	r3, [r3]
 412 0070 1A1C     		mov	r2, r3
 413 0072 1F23     		mov	r3, #31
 414 0074 1340     		and	r3, r2
 415 0076 052B     		cmp	r3, #5
 416 0078 01D0     		beq	.L28
 294:.\lib_Fat/sdcard.c **** 			return 0;
 417              		.loc 1 294 0
 418 007a 0023     		mov	r3, #0
 419 007c 00E0     		b	.L29
 420              	.L28:
 295:.\lib_Fat/sdcard.c **** 	}
 296:.\lib_Fat/sdcard.c **** 
 297:.\lib_Fat/sdcard.c **** 	return 1;
 421              		.loc 1 297 0
 422 007e 0123     		mov	r3, #1
 423              	.L29:
 298:.\lib_Fat/sdcard.c **** }
 424              		.loc 1 298 0 discriminator 1
 425 0080 181C     		mov	r0, r3
 426 0082 BD46     		mov	sp, r7
 427 0084 04B0     		add	sp, sp, #16
 428              		@ sp needed
 429 0086 80BD     		pop	{r7, pc}
 430              		.cfi_endproc
 431              	.LFE69:
 432              		.size	xmit_datablock, .-xmit_datablock
 433              		.section	.text.send_cmd,"ax",%progbits
 434              		.align	2
 435              		.code	16
 436              		.thumb_func
 437              		.type	send_cmd, %function
 438              	send_cmd:
 439              	.LFB70:
ARM GAS  C:\Users\Petro\AppData\Local\Temp\ccWz19ga.s 			page 14


 299:.\lib_Fat/sdcard.c **** 
 300:.\lib_Fat/sdcard.c **** /*-----------------------------------------------------------------------*/
 301:.\lib_Fat/sdcard.c **** /* Send a command packet to the card                                     */
 302:.\lib_Fat/sdcard.c **** /*-----------------------------------------------------------------------*/
 303:.\lib_Fat/sdcard.c **** 
 304:.\lib_Fat/sdcard.c **** static BYTE send_cmd(BYTE cmd,	DWORD arg)		/* Returns command response (bit7==1:Send failed)*/
 305:.\lib_Fat/sdcard.c **** {
 440              		.loc 1 305 0
 441              		.cfi_startproc
 442 0000 90B5     		push	{r4, r7, lr}
 443              		.cfi_def_cfa_offset 12
 444              		.cfi_offset 4, -12
 445              		.cfi_offset 7, -8
 446              		.cfi_offset 14, -4
 447 0002 85B0     		sub	sp, sp, #20
 448              		.cfi_def_cfa_offset 32
 449 0004 00AF     		add	r7, sp, #0
 450              		.cfi_def_cfa_register 7
 451 0006 021C     		mov	r2, r0
 452 0008 3960     		str	r1, [r7]
 453 000a FB1D     		add	r3, r7, #7
 454 000c 1A70     		strb	r2, [r3]
 306:.\lib_Fat/sdcard.c **** 	BYTE n, d, buf[6];
 307:.\lib_Fat/sdcard.c **** 
 308:.\lib_Fat/sdcard.c **** 
 309:.\lib_Fat/sdcard.c **** 	if (cmd & 0x80) {	/* ACMD<n> is the command sequense of CMD55-CMD<n> */
 455              		.loc 1 309 0
 456 000e FB1D     		add	r3, r7, #7
 457 0010 1B78     		ldrb	r3, [r3]
 458 0012 5BB2     		sxtb	r3, r3
 459 0014 002B     		cmp	r3, #0
 460 0016 16DA     		bge	.L31
 310:.\lib_Fat/sdcard.c **** 		cmd &= 0x7F;
 461              		.loc 1 310 0
 462 0018 FB1D     		add	r3, r7, #7
 463 001a FA1D     		add	r2, r7, #7
 464 001c 1278     		ldrb	r2, [r2]
 465 001e 7F21     		mov	r1, #127
 466 0020 0A40     		and	r2, r1
 467 0022 1A70     		strb	r2, [r3]
 311:.\lib_Fat/sdcard.c **** 		n = send_cmd(CMD55, 0);
 468              		.loc 1 311 0
 469 0024 0F23     		mov	r3, #15
 470 0026 FC18     		add	r4, r7, r3
 471 0028 3720     		mov	r0, #55
 472 002a 0021     		mov	r1, #0
 473 002c FFF7E8FF 		bl	send_cmd
 474 0030 031C     		mov	r3, r0
 475 0032 2370     		strb	r3, [r4]
 312:.\lib_Fat/sdcard.c **** 		if (n > 1) return n;
 476              		.loc 1 312 0
 477 0034 0F23     		mov	r3, #15
 478 0036 FB18     		add	r3, r7, r3
 479 0038 1B78     		ldrb	r3, [r3]
 480 003a 012B     		cmp	r3, #1
 481 003c 03D9     		bls	.L31
 482              		.loc 1 312 0 is_stmt 0 discriminator 1
ARM GAS  C:\Users\Petro\AppData\Local\Temp\ccWz19ga.s 			page 15


 483 003e 0F23     		mov	r3, #15
 484 0040 FB18     		add	r3, r7, r3
 485 0042 1B78     		ldrb	r3, [r3]
 486 0044 77E0     		b	.L39
 487              	.L31:
 313:.\lib_Fat/sdcard.c **** 	}
 314:.\lib_Fat/sdcard.c **** 
 315:.\lib_Fat/sdcard.c **** 	/* Select the card and wait for ready except to stop multiple block read */
 316:.\lib_Fat/sdcard.c **** 	if (cmd != CMD12) {
 488              		.loc 1 316 0 is_stmt 1
 489 0046 FB1D     		add	r3, r7, #7
 490 0048 1B78     		ldrb	r3, [r3]
 491 004a 0C2B     		cmp	r3, #12
 492 004c 07D0     		beq	.L33
 317:.\lib_Fat/sdcard.c **** 		deselect();
 493              		.loc 1 317 0
 494 004e FFF7FEFF 		bl	deselect
 318:.\lib_Fat/sdcard.c **** 		if (!select()) return 0xFF;
 495              		.loc 1 318 0
 496 0052 FFF7FEFF 		bl	select
 497 0056 031E     		sub	r3, r0, #0
 498 0058 01D1     		bne	.L33
 499              		.loc 1 318 0 is_stmt 0 discriminator 1
 500 005a FF23     		mov	r3, #255
 501 005c 6BE0     		b	.L39
 502              	.L33:
 319:.\lib_Fat/sdcard.c **** 	}
 320:.\lib_Fat/sdcard.c **** 
 321:.\lib_Fat/sdcard.c **** 	/* Send a command packet */
 322:.\lib_Fat/sdcard.c **** 	buf[0] = 0x40 | cmd;			/* Start + Command index */
 503              		.loc 1 322 0 is_stmt 1
 504 005e FB1D     		add	r3, r7, #7
 505 0060 1B78     		ldrb	r3, [r3]
 506 0062 4022     		mov	r2, #64
 507 0064 1343     		orr	r3, r2
 508 0066 DAB2     		uxtb	r2, r3
 509 0068 0823     		mov	r3, #8
 510 006a FB18     		add	r3, r7, r3
 511 006c 1A70     		strb	r2, [r3]
 323:.\lib_Fat/sdcard.c **** 	buf[1] = (BYTE)(arg >> 24);		/* Argument[31..24] */
 512              		.loc 1 323 0
 513 006e 3B68     		ldr	r3, [r7]
 514 0070 1B0E     		lsr	r3, r3, #24
 515 0072 DAB2     		uxtb	r2, r3
 516 0074 0823     		mov	r3, #8
 517 0076 FB18     		add	r3, r7, r3
 518 0078 5A70     		strb	r2, [r3, #1]
 324:.\lib_Fat/sdcard.c **** 	buf[2] = (BYTE)(arg >> 16);		/* Argument[23..16] */
 519              		.loc 1 324 0
 520 007a 3B68     		ldr	r3, [r7]
 521 007c 1B0C     		lsr	r3, r3, #16
 522 007e DAB2     		uxtb	r2, r3
 523 0080 0823     		mov	r3, #8
 524 0082 FB18     		add	r3, r7, r3
 525 0084 9A70     		strb	r2, [r3, #2]
 325:.\lib_Fat/sdcard.c **** 	buf[3] = (BYTE)(arg >> 8);		/* Argument[15..8] */
 526              		.loc 1 325 0
ARM GAS  C:\Users\Petro\AppData\Local\Temp\ccWz19ga.s 			page 16


 527 0086 3B68     		ldr	r3, [r7]
 528 0088 1B0A     		lsr	r3, r3, #8
 529 008a DAB2     		uxtb	r2, r3
 530 008c 0823     		mov	r3, #8
 531 008e FB18     		add	r3, r7, r3
 532 0090 DA70     		strb	r2, [r3, #3]
 326:.\lib_Fat/sdcard.c **** 	buf[4] = (BYTE)arg;				/* Argument[7..0] */
 533              		.loc 1 326 0
 534 0092 3B68     		ldr	r3, [r7]
 535 0094 DAB2     		uxtb	r2, r3
 536 0096 0823     		mov	r3, #8
 537 0098 FB18     		add	r3, r7, r3
 538 009a 1A71     		strb	r2, [r3, #4]
 327:.\lib_Fat/sdcard.c **** 	n = 0x01;						/* Dummy CRC + Stop */
 539              		.loc 1 327 0
 540 009c 0F23     		mov	r3, #15
 541 009e FB18     		add	r3, r7, r3
 542 00a0 0122     		mov	r2, #1
 543 00a2 1A70     		strb	r2, [r3]
 328:.\lib_Fat/sdcard.c **** 	if (cmd == CMD0) n = 0x95;		/* (valid CRC for CMD0(0)) */
 544              		.loc 1 328 0
 545 00a4 FB1D     		add	r3, r7, #7
 546 00a6 1B78     		ldrb	r3, [r3]
 547 00a8 002B     		cmp	r3, #0
 548 00aa 03D1     		bne	.L34
 549              		.loc 1 328 0 is_stmt 0 discriminator 1
 550 00ac 0F23     		mov	r3, #15
 551 00ae FB18     		add	r3, r7, r3
 552 00b0 9522     		mov	r2, #149
 553 00b2 1A70     		strb	r2, [r3]
 554              	.L34:
 329:.\lib_Fat/sdcard.c **** 	if (cmd == CMD8) n = 0x87;		/* (valid CRC for CMD8(0x1AA)) */
 555              		.loc 1 329 0 is_stmt 1
 556 00b4 FB1D     		add	r3, r7, #7
 557 00b6 1B78     		ldrb	r3, [r3]
 558 00b8 082B     		cmp	r3, #8
 559 00ba 03D1     		bne	.L35
 560              		.loc 1 329 0 is_stmt 0 discriminator 1
 561 00bc 0F23     		mov	r3, #15
 562 00be FB18     		add	r3, r7, r3
 563 00c0 8722     		mov	r2, #135
 564 00c2 1A70     		strb	r2, [r3]
 565              	.L35:
 330:.\lib_Fat/sdcard.c **** 	buf[5] = n;
 566              		.loc 1 330 0 is_stmt 1
 567 00c4 0823     		mov	r3, #8
 568 00c6 FB18     		add	r3, r7, r3
 569 00c8 0F22     		mov	r2, #15
 570 00ca BA18     		add	r2, r7, r2
 571 00cc 1278     		ldrb	r2, [r2]
 572 00ce 5A71     		strb	r2, [r3, #5]
 331:.\lib_Fat/sdcard.c **** 	xmit_mmc(buf, 6);
 573              		.loc 1 331 0
 574 00d0 0823     		mov	r3, #8
 575 00d2 FB18     		add	r3, r7, r3
 576 00d4 181C     		mov	r0, r3
 577 00d6 0621     		mov	r1, #6
ARM GAS  C:\Users\Petro\AppData\Local\Temp\ccWz19ga.s 			page 17


 578 00d8 FFF7FEFF 		bl	xmit_mmc
 332:.\lib_Fat/sdcard.c ****     CyDelayUs(M_DELAY_US); // <*> why?
 579              		.loc 1 332 0
 580 00dc 6420     		mov	r0, #100
 581 00de FFF7FEFF 		bl	CyDelayUs
 333:.\lib_Fat/sdcard.c **** 
 334:.\lib_Fat/sdcard.c **** 	/* Receive command response */
 335:.\lib_Fat/sdcard.c **** 	if (cmd == CMD12) rcvr_mmc(&d, 1);	/* Skip a stuff byte when stop reading */
 582              		.loc 1 335 0
 583 00e2 FB1D     		add	r3, r7, #7
 584 00e4 1B78     		ldrb	r3, [r3]
 585 00e6 0C2B     		cmp	r3, #12
 586 00e8 05D1     		bne	.L36
 587              		.loc 1 335 0 is_stmt 0 discriminator 1
 588 00ea 0E23     		mov	r3, #14
 589 00ec FB18     		add	r3, r7, r3
 590 00ee 181C     		mov	r0, r3
 591 00f0 0121     		mov	r1, #1
 592 00f2 FFF7FEFF 		bl	rcvr_mmc
 593              	.L36:
 336:.\lib_Fat/sdcard.c **** 	n = 20;								/* Wait for a valid response in timeout of 10 attempts */
 594              		.loc 1 336 0 is_stmt 1
 595 00f6 0F23     		mov	r3, #15
 596 00f8 FB18     		add	r3, r7, r3
 597 00fa 1422     		mov	r2, #20
 598 00fc 1A70     		strb	r2, [r3]
 599              	.L38:
 337:.\lib_Fat/sdcard.c **** 	do
 338:.\lib_Fat/sdcard.c ****     {
 339:.\lib_Fat/sdcard.c **** 		rcvr_mmc(&d, 1);
 600              		.loc 1 339 0 discriminator 2
 601 00fe 0E23     		mov	r3, #14
 602 0100 FB18     		add	r3, r7, r3
 603 0102 181C     		mov	r0, r3
 604 0104 0121     		mov	r1, #1
 605 0106 FFF7FEFF 		bl	rcvr_mmc
 340:.\lib_Fat/sdcard.c ****     }
 341:.\lib_Fat/sdcard.c **** 	while ((d & 0x80) && --n);
 606              		.loc 1 341 0 discriminator 2
 607 010a 0E23     		mov	r3, #14
 608 010c FB18     		add	r3, r7, r3
 609 010e 1B78     		ldrb	r3, [r3]
 610 0110 DBB2     		uxtb	r3, r3
 611 0112 5BB2     		sxtb	r3, r3
 612 0114 002B     		cmp	r3, #0
 613 0116 0BDA     		bge	.L37
 614              		.loc 1 341 0 is_stmt 0 discriminator 1
 615 0118 0F23     		mov	r3, #15
 616 011a FB18     		add	r3, r7, r3
 617 011c 0F22     		mov	r2, #15
 618 011e BA18     		add	r2, r7, r2
 619 0120 1278     		ldrb	r2, [r2]
 620 0122 013A     		sub	r2, r2, #1
 621 0124 1A70     		strb	r2, [r3]
 622 0126 0F23     		mov	r3, #15
 623 0128 FB18     		add	r3, r7, r3
 624 012a 1B78     		ldrb	r3, [r3]
ARM GAS  C:\Users\Petro\AppData\Local\Temp\ccWz19ga.s 			page 18


 625 012c 002B     		cmp	r3, #0
 626 012e E6D1     		bne	.L38
 627              	.L37:
 342:.\lib_Fat/sdcard.c **** 
 343:.\lib_Fat/sdcard.c **** 	return d;			/* Return with the response value */
 628              		.loc 1 343 0 is_stmt 1
 629 0130 0E23     		mov	r3, #14
 630 0132 FB18     		add	r3, r7, r3
 631 0134 1B78     		ldrb	r3, [r3]
 632              	.L39:
 344:.\lib_Fat/sdcard.c **** }
 633              		.loc 1 344 0 discriminator 1
 634 0136 181C     		mov	r0, r3
 635 0138 BD46     		mov	sp, r7
 636 013a 05B0     		add	sp, sp, #20
 637              		@ sp needed
 638 013c 90BD     		pop	{r4, r7, pc}
 639              		.cfi_endproc
 640              	.LFE70:
 641              		.size	send_cmd, .-send_cmd
 642 013e C046     		.section	.text.disk_status,"ax",%progbits
 643              		.align	2
 644              		.global	disk_status
 645              		.code	16
 646              		.thumb_func
 647              		.type	disk_status, %function
 648              	disk_status:
 649              	.LFB71:
 345:.\lib_Fat/sdcard.c **** 
 346:.\lib_Fat/sdcard.c **** /*--------------------------------------------------------------------------
 347:.\lib_Fat/sdcard.c **** 
 348:.\lib_Fat/sdcard.c ****    Public Functions
 349:.\lib_Fat/sdcard.c **** 
 350:.\lib_Fat/sdcard.c **** ---------------------------------------------------------------------------*/
 351:.\lib_Fat/sdcard.c **** 
 352:.\lib_Fat/sdcard.c **** /*-----------------------------------------------------------------------*/
 353:.\lib_Fat/sdcard.c **** /* Get Disk Status                                                       */
 354:.\lib_Fat/sdcard.c **** /*-----------------------------------------------------------------------*/
 355:.\lib_Fat/sdcard.c **** 
 356:.\lib_Fat/sdcard.c **** DSTATUS disk_status(BYTE drv) /* Drive number (always 0) */
 357:.\lib_Fat/sdcard.c **** {
 650              		.loc 1 357 0
 651              		.cfi_startproc
 652 0000 80B5     		push	{r7, lr}
 653              		.cfi_def_cfa_offset 8
 654              		.cfi_offset 7, -8
 655              		.cfi_offset 14, -4
 656 0002 82B0     		sub	sp, sp, #8
 657              		.cfi_def_cfa_offset 16
 658 0004 00AF     		add	r7, sp, #0
 659              		.cfi_def_cfa_register 7
 660 0006 021C     		mov	r2, r0
 661 0008 FB1D     		add	r3, r7, #7
 662 000a 1A70     		strb	r2, [r3]
 358:.\lib_Fat/sdcard.c **** 	if (drv) return STA_NOINIT;
 663              		.loc 1 358 0
 664 000c FB1D     		add	r3, r7, #7
ARM GAS  C:\Users\Petro\AppData\Local\Temp\ccWz19ga.s 			page 19


 665 000e 1B78     		ldrb	r3, [r3]
 666 0010 002B     		cmp	r3, #0
 667 0012 01D0     		beq	.L41
 668              		.loc 1 358 0 is_stmt 0 discriminator 1
 669 0014 0123     		mov	r3, #1
 670 0016 01E0     		b	.L42
 671              	.L41:
 359:.\lib_Fat/sdcard.c **** 
 360:.\lib_Fat/sdcard.c **** 	return Stat;
 672              		.loc 1 360 0 is_stmt 1
 673 0018 024B     		ldr	r3, .L43
 674 001a 1B78     		ldrb	r3, [r3]
 675              	.L42:
 361:.\lib_Fat/sdcard.c **** }
 676              		.loc 1 361 0
 677 001c 181C     		mov	r0, r3
 678 001e BD46     		mov	sp, r7
 679 0020 02B0     		add	sp, sp, #8
 680              		@ sp needed
 681 0022 80BD     		pop	{r7, pc}
 682              	.L44:
 683              		.align	2
 684              	.L43:
 685 0024 00000000 		.word	Stat
 686              		.cfi_endproc
 687              	.LFE71:
 688              		.size	disk_status, .-disk_status
 689              		.section	.text.disk_initialize,"ax",%progbits
 690              		.align	2
 691              		.global	disk_initialize
 692              		.code	16
 693              		.thumb_func
 694              		.type	disk_initialize, %function
 695              	disk_initialize:
 696              	.LFB72:
 362:.\lib_Fat/sdcard.c **** 
 363:.\lib_Fat/sdcard.c **** /*-----------------------------------------------------------------------*/
 364:.\lib_Fat/sdcard.c **** /* Initialize Disk Drive                                                 */
 365:.\lib_Fat/sdcard.c **** /*-----------------------------------------------------------------------*/
 366:.\lib_Fat/sdcard.c **** 
 367:.\lib_Fat/sdcard.c **** DSTATUS disk_initialize(BYTE drv) /* Physical drive nmuber (0) */
 368:.\lib_Fat/sdcard.c **** {
 697              		.loc 1 368 0
 698              		.cfi_startproc
 699 0000 80B5     		push	{r7, lr}
 700              		.cfi_def_cfa_offset 8
 701              		.cfi_offset 7, -8
 702              		.cfi_offset 14, -4
 703 0002 86B0     		sub	sp, sp, #24
 704              		.cfi_def_cfa_offset 32
 705 0004 00AF     		add	r7, sp, #0
 706              		.cfi_def_cfa_register 7
 707 0006 021C     		mov	r2, r0
 708 0008 FB1D     		add	r3, r7, #7
 709 000a 1A70     		strb	r2, [r3]
 369:.\lib_Fat/sdcard.c **** 	BYTE n, ty, cmd, buf[4];
 370:.\lib_Fat/sdcard.c **** 	UINT tmr;
ARM GAS  C:\Users\Petro\AppData\Local\Temp\ccWz19ga.s 			page 20


 371:.\lib_Fat/sdcard.c **** 	DSTATUS s;
 372:.\lib_Fat/sdcard.c **** 
 373:.\lib_Fat/sdcard.c **** 	if (drv) return RES_NOTRDY;
 710              		.loc 1 373 0
 711 000c FB1D     		add	r3, r7, #7
 712 000e 1B78     		ldrb	r3, [r3]
 713 0010 002B     		cmp	r3, #0
 714 0012 01D0     		beq	.L46
 715              		.loc 1 373 0 is_stmt 0 discriminator 1
 716 0014 0323     		mov	r3, #3
 717 0016 CEE0     		b	.L66
 718              	.L46:
 374:.\lib_Fat/sdcard.c **** 
 375:.\lib_Fat/sdcard.c **** 	dly_us(10000);			/* 10ms */
 719              		.loc 1 375 0 is_stmt 1
 720 0018 694B     		ldr	r3, .L67
 721 001a 181C     		mov	r0, r3
 722 001c FFF7FEFF 		bl	CyDelayUs
 376:.\lib_Fat/sdcard.c **** 
 377:.\lib_Fat/sdcard.c **** 	for (n = 10; n; n--) rcvr_mmc(buf, 1);	/* Apply 80 dummy clocks and the card gets ready to receive
 723              		.loc 1 377 0
 724 0020 1723     		mov	r3, #23
 725 0022 FB18     		add	r3, r7, r3
 726 0024 0A22     		mov	r2, #10
 727 0026 1A70     		strb	r2, [r3]
 728 0028 0CE0     		b	.L48
 729              	.L49:
 730              		.loc 1 377 0 is_stmt 0 discriminator 3
 731 002a 0823     		mov	r3, #8
 732 002c FB18     		add	r3, r7, r3
 733 002e 181C     		mov	r0, r3
 734 0030 0121     		mov	r1, #1
 735 0032 FFF7FEFF 		bl	rcvr_mmc
 736 0036 1723     		mov	r3, #23
 737 0038 FB18     		add	r3, r7, r3
 738 003a 1A78     		ldrb	r2, [r3]
 739 003c 1723     		mov	r3, #23
 740 003e FB18     		add	r3, r7, r3
 741 0040 013A     		sub	r2, r2, #1
 742 0042 1A70     		strb	r2, [r3]
 743              	.L48:
 744              		.loc 1 377 0 discriminator 1
 745 0044 1723     		mov	r3, #23
 746 0046 FB18     		add	r3, r7, r3
 747 0048 1B78     		ldrb	r3, [r3]
 748 004a 002B     		cmp	r3, #0
 749 004c EDD1     		bne	.L49
 378:.\lib_Fat/sdcard.c **** 
 379:.\lib_Fat/sdcard.c **** 	ty = 0;
 750              		.loc 1 379 0 is_stmt 1
 751 004e 1623     		mov	r3, #22
 752 0050 FB18     		add	r3, r7, r3
 753 0052 0022     		mov	r2, #0
 754 0054 1A70     		strb	r2, [r3]
 380:.\lib_Fat/sdcard.c **** 	if (send_cmd(CMD0, 0) == 1) {			/* Enter Idle state */
 755              		.loc 1 380 0
 756 0056 0020     		mov	r0, #0
ARM GAS  C:\Users\Petro\AppData\Local\Temp\ccWz19ga.s 			page 21


 757 0058 0021     		mov	r1, #0
 758 005a FFF7FEFF 		bl	send_cmd
 759 005e 031E     		sub	r3, r0, #0
 760 0060 012B     		cmp	r3, #1
 761 0062 00D0     		beq	.LCB663
 762 0064 8FE0     		b	.L50	@long jump
 763              	.LCB663:
 381:.\lib_Fat/sdcard.c **** 		if (send_cmd(CMD8, 0x1AA) == 1) {	/* SDv2? */
 764              		.loc 1 381 0
 765 0066 D523     		mov	r3, #213
 766 0068 5B00     		lsl	r3, r3, #1
 767 006a 0820     		mov	r0, #8
 768 006c 191C     		mov	r1, r3
 769 006e FFF7FEFF 		bl	send_cmd
 770 0072 031E     		sub	r3, r0, #0
 771 0074 012B     		cmp	r3, #1
 772 0076 46D1     		bne	.L51
 382:.\lib_Fat/sdcard.c **** 			rcvr_mmc(buf, 4);							/* Get trailing return value of R7 resp */
 773              		.loc 1 382 0
 774 0078 0823     		mov	r3, #8
 775 007a FB18     		add	r3, r7, r3
 776 007c 181C     		mov	r0, r3
 777 007e 0421     		mov	r1, #4
 778 0080 FFF7FEFF 		bl	rcvr_mmc
 383:.\lib_Fat/sdcard.c **** 			if (buf[2] == 0x01 && buf[3] == 0xAA) {		/* The card can work at vdd range of 2.7-3.6V */
 779              		.loc 1 383 0
 780 0084 0823     		mov	r3, #8
 781 0086 FB18     		add	r3, r7, r3
 782 0088 9B78     		ldrb	r3, [r3, #2]
 783 008a 012B     		cmp	r3, #1
 784 008c 00D0     		beq	.LCB681
 785 008e 7AE0     		b	.L50	@long jump
 786              	.LCB681:
 787              		.loc 1 383 0 is_stmt 0 discriminator 1
 788 0090 0823     		mov	r3, #8
 789 0092 FB18     		add	r3, r7, r3
 790 0094 DB78     		ldrb	r3, [r3, #3]
 791 0096 AA2B     		cmp	r3, #170
 792 0098 00D0     		beq	.LCB686
 793 009a 74E0     		b	.L50	@long jump
 794              	.LCB686:
 384:.\lib_Fat/sdcard.c **** 				for (tmr = 1000; tmr; tmr--) {			/* Wait for leaving idle state (ACMD41 with HCS bit) */
 795              		.loc 1 384 0 is_stmt 1
 796 009c FA23     		mov	r3, #250
 797 009e 9B00     		lsl	r3, r3, #2
 798 00a0 3B61     		str	r3, [r7, #16]
 799 00a2 10E0     		b	.L53
 800              	.L56:
 385:.\lib_Fat/sdcard.c **** 					if (send_cmd(ACMD41, 1UL << 30) == 0) break;
 801              		.loc 1 385 0
 802 00a4 8023     		mov	r3, #128
 803 00a6 DB05     		lsl	r3, r3, #23
 804 00a8 A920     		mov	r0, #169
 805 00aa 191C     		mov	r1, r3
 806 00ac FFF7FEFF 		bl	send_cmd
 807 00b0 031E     		sub	r3, r0, #0
 808 00b2 00D1     		bne	.L54
ARM GAS  C:\Users\Petro\AppData\Local\Temp\ccWz19ga.s 			page 22


 809 00b4 0AE0     		b	.L55
 810              	.L54:
 386:.\lib_Fat/sdcard.c **** 					dly_us(1000);
 811              		.loc 1 386 0 discriminator 2
 812 00b6 FA23     		mov	r3, #250
 813 00b8 9B00     		lsl	r3, r3, #2
 814 00ba 181C     		mov	r0, r3
 815 00bc FFF7FEFF 		bl	CyDelayUs
 384:.\lib_Fat/sdcard.c **** 				for (tmr = 1000; tmr; tmr--) {			/* Wait for leaving idle state (ACMD41 with HCS bit) */
 816              		.loc 1 384 0 discriminator 2
 817 00c0 3B69     		ldr	r3, [r7, #16]
 818 00c2 013B     		sub	r3, r3, #1
 819 00c4 3B61     		str	r3, [r7, #16]
 820              	.L53:
 384:.\lib_Fat/sdcard.c **** 				for (tmr = 1000; tmr; tmr--) {			/* Wait for leaving idle state (ACMD41 with HCS bit) */
 821              		.loc 1 384 0 is_stmt 0 discriminator 1
 822 00c6 3B69     		ldr	r3, [r7, #16]
 823 00c8 002B     		cmp	r3, #0
 824 00ca EBD1     		bne	.L56
 825              	.L55:
 387:.\lib_Fat/sdcard.c **** 				}
 388:.\lib_Fat/sdcard.c **** 				if (tmr && send_cmd(CMD58, 0) == 0) {	/* Check CCS bit in the OCR */
 826              		.loc 1 388 0 is_stmt 1
 827 00cc 3B69     		ldr	r3, [r7, #16]
 828 00ce 002B     		cmp	r3, #0
 829 00d0 59D0     		beq	.L50
 830              		.loc 1 388 0 is_stmt 0 discriminator 1
 831 00d2 3A20     		mov	r0, #58
 832 00d4 0021     		mov	r1, #0
 833 00d6 FFF7FEFF 		bl	send_cmd
 834 00da 031E     		sub	r3, r0, #0
 835 00dc 53D1     		bne	.L50
 389:.\lib_Fat/sdcard.c **** 					rcvr_mmc(buf, 4);
 836              		.loc 1 389 0 is_stmt 1
 837 00de 0823     		mov	r3, #8
 838 00e0 FB18     		add	r3, r7, r3
 839 00e2 181C     		mov	r0, r3
 840 00e4 0421     		mov	r1, #4
 841 00e6 FFF7FEFF 		bl	rcvr_mmc
 390:.\lib_Fat/sdcard.c **** 					ty = (buf[0] & 0x40) ? CT_SD2 | CT_BLOCK : CT_SD2;	/* SDv2 */
 842              		.loc 1 390 0
 843 00ea 0823     		mov	r3, #8
 844 00ec FB18     		add	r3, r7, r3
 845 00ee 1B78     		ldrb	r3, [r3]
 846 00f0 1A1C     		mov	r2, r3
 847 00f2 4023     		mov	r3, #64
 848 00f4 1340     		and	r3, r2
 849 00f6 01D0     		beq	.L57
 850              		.loc 1 390 0 is_stmt 0 discriminator 1
 851 00f8 0C22     		mov	r2, #12
 852 00fa 00E0     		b	.L58
 853              	.L57:
 854              		.loc 1 390 0 discriminator 2
 855 00fc 0422     		mov	r2, #4
 856              	.L58:
 857              		.loc 1 390 0 discriminator 4
 858 00fe 1623     		mov	r3, #22
ARM GAS  C:\Users\Petro\AppData\Local\Temp\ccWz19ga.s 			page 23


 859 0100 FB18     		add	r3, r7, r3
 860 0102 1A70     		strb	r2, [r3]
 861 0104 3FE0     		b	.L50
 862              	.L51:
 391:.\lib_Fat/sdcard.c **** 				}
 392:.\lib_Fat/sdcard.c **** 			}
 393:.\lib_Fat/sdcard.c **** 		} else {							/* SDv1 or MMCv3 */
 394:.\lib_Fat/sdcard.c **** 			if (send_cmd(ACMD41, 0) <= 1) 	{
 863              		.loc 1 394 0 is_stmt 1
 864 0106 A920     		mov	r0, #169
 865 0108 0021     		mov	r1, #0
 866 010a FFF7FEFF 		bl	send_cmd
 867 010e 031E     		sub	r3, r0, #0
 868 0110 012B     		cmp	r3, #1
 869 0112 08D8     		bhi	.L59
 395:.\lib_Fat/sdcard.c **** 				ty = CT_SD1; cmd = ACMD41;	/* SDv1 */
 870              		.loc 1 395 0
 871 0114 1623     		mov	r3, #22
 872 0116 FB18     		add	r3, r7, r3
 873 0118 0222     		mov	r2, #2
 874 011a 1A70     		strb	r2, [r3]
 875 011c 1523     		mov	r3, #21
 876 011e FB18     		add	r3, r7, r3
 877 0120 A922     		mov	r2, #169
 878 0122 1A70     		strb	r2, [r3]
 879 0124 07E0     		b	.L60
 880              	.L59:
 396:.\lib_Fat/sdcard.c **** 			} else {
 397:.\lib_Fat/sdcard.c **** 				ty = CT_MMC; cmd = CMD1;	/* MMCv3 */
 881              		.loc 1 397 0
 882 0126 1623     		mov	r3, #22
 883 0128 FB18     		add	r3, r7, r3
 884 012a 0122     		mov	r2, #1
 885 012c 1A70     		strb	r2, [r3]
 886 012e 1523     		mov	r3, #21
 887 0130 FB18     		add	r3, r7, r3
 888 0132 0122     		mov	r2, #1
 889 0134 1A70     		strb	r2, [r3]
 890              	.L60:
 398:.\lib_Fat/sdcard.c **** 			}
 399:.\lib_Fat/sdcard.c **** 			for (tmr = 1000; tmr; tmr--) {			/* Wait for leaving idle state */
 891              		.loc 1 399 0
 892 0136 FA23     		mov	r3, #250
 893 0138 9B00     		lsl	r3, r3, #2
 894 013a 3B61     		str	r3, [r7, #16]
 895 013c 11E0     		b	.L61
 896              	.L64:
 400:.\lib_Fat/sdcard.c **** 				if (send_cmd(cmd, 0) == 0) break;
 897              		.loc 1 400 0
 898 013e 1523     		mov	r3, #21
 899 0140 FB18     		add	r3, r7, r3
 900 0142 1B78     		ldrb	r3, [r3]
 901 0144 181C     		mov	r0, r3
 902 0146 0021     		mov	r1, #0
 903 0148 FFF7FEFF 		bl	send_cmd
 904 014c 031E     		sub	r3, r0, #0
 905 014e 00D1     		bne	.L62
ARM GAS  C:\Users\Petro\AppData\Local\Temp\ccWz19ga.s 			page 24


 906 0150 0AE0     		b	.L63
 907              	.L62:
 401:.\lib_Fat/sdcard.c **** 				dly_us(1000);
 908              		.loc 1 401 0 discriminator 2
 909 0152 FA23     		mov	r3, #250
 910 0154 9B00     		lsl	r3, r3, #2
 911 0156 181C     		mov	r0, r3
 912 0158 FFF7FEFF 		bl	CyDelayUs
 399:.\lib_Fat/sdcard.c **** 				if (send_cmd(cmd, 0) == 0) break;
 913              		.loc 1 399 0 discriminator 2
 914 015c 3B69     		ldr	r3, [r7, #16]
 915 015e 013B     		sub	r3, r3, #1
 916 0160 3B61     		str	r3, [r7, #16]
 917              	.L61:
 399:.\lib_Fat/sdcard.c **** 				if (send_cmd(cmd, 0) == 0) break;
 918              		.loc 1 399 0 is_stmt 0 discriminator 1
 919 0162 3B69     		ldr	r3, [r7, #16]
 920 0164 002B     		cmp	r3, #0
 921 0166 EAD1     		bne	.L64
 922              	.L63:
 402:.\lib_Fat/sdcard.c **** 			}
 403:.\lib_Fat/sdcard.c **** 			if (!tmr || send_cmd(CMD16, 512) != 0)	/* Set R/W block length to 512 */
 923              		.loc 1 403 0 is_stmt 1
 924 0168 3B69     		ldr	r3, [r7, #16]
 925 016a 002B     		cmp	r3, #0
 926 016c 07D0     		beq	.L65
 927              		.loc 1 403 0 is_stmt 0 discriminator 1
 928 016e 8023     		mov	r3, #128
 929 0170 9B00     		lsl	r3, r3, #2
 930 0172 1020     		mov	r0, #16
 931 0174 191C     		mov	r1, r3
 932 0176 FFF7FEFF 		bl	send_cmd
 933 017a 031E     		sub	r3, r0, #0
 934 017c 03D0     		beq	.L50
 935              	.L65:
 404:.\lib_Fat/sdcard.c **** 				ty = 0;
 936              		.loc 1 404 0 is_stmt 1
 937 017e 1623     		mov	r3, #22
 938 0180 FB18     		add	r3, r7, r3
 939 0182 0022     		mov	r2, #0
 940 0184 1A70     		strb	r2, [r3]
 941              	.L50:
 405:.\lib_Fat/sdcard.c **** 		}
 406:.\lib_Fat/sdcard.c **** 	}
 407:.\lib_Fat/sdcard.c **** 	CardType = ty;
 942              		.loc 1 407 0
 943 0186 0F4B     		ldr	r3, .L67+4
 944 0188 1622     		mov	r2, #22
 945 018a BA18     		add	r2, r7, r2
 946 018c 1278     		ldrb	r2, [r2]
 947 018e 1A70     		strb	r2, [r3]
 408:.\lib_Fat/sdcard.c **** 	s = ty ? 0 : STA_NOINIT;
 948              		.loc 1 408 0
 949 0190 1623     		mov	r3, #22
 950 0192 FB18     		add	r3, r7, r3
 951 0194 1B78     		ldrb	r3, [r3]
 952 0196 5A42     		neg	r2, r3
ARM GAS  C:\Users\Petro\AppData\Local\Temp\ccWz19ga.s 			page 25


 953 0198 5341     		adc	r3, r3, r2
 954 019a DAB2     		uxtb	r2, r3
 955 019c 0F23     		mov	r3, #15
 956 019e FB18     		add	r3, r7, r3
 957 01a0 1A70     		strb	r2, [r3]
 409:.\lib_Fat/sdcard.c **** 	Stat = s;
 958              		.loc 1 409 0
 959 01a2 094B     		ldr	r3, .L67+8
 960 01a4 0F22     		mov	r2, #15
 961 01a6 BA18     		add	r2, r7, r2
 962 01a8 1278     		ldrb	r2, [r2]
 963 01aa 1A70     		strb	r2, [r3]
 410:.\lib_Fat/sdcard.c **** 
 411:.\lib_Fat/sdcard.c **** 	deselect();
 964              		.loc 1 411 0
 965 01ac FFF7FEFF 		bl	deselect
 412:.\lib_Fat/sdcard.c **** 
 413:.\lib_Fat/sdcard.c **** 	return s;
 966              		.loc 1 413 0
 967 01b0 0F23     		mov	r3, #15
 968 01b2 FB18     		add	r3, r7, r3
 969 01b4 1B78     		ldrb	r3, [r3]
 970              	.L66:
 414:.\lib_Fat/sdcard.c **** }
 971              		.loc 1 414 0 discriminator 1
 972 01b6 181C     		mov	r0, r3
 973 01b8 BD46     		mov	sp, r7
 974 01ba 06B0     		add	sp, sp, #24
 975              		@ sp needed
 976 01bc 80BD     		pop	{r7, pc}
 977              	.L68:
 978 01be C046     		.align	2
 979              	.L67:
 980 01c0 10270000 		.word	10000
 981 01c4 00000000 		.word	CardType
 982 01c8 00000000 		.word	Stat
 983              		.cfi_endproc
 984              	.LFE72:
 985              		.size	disk_initialize, .-disk_initialize
 986              		.section	.text.disk_read,"ax",%progbits
 987              		.align	2
 988              		.global	disk_read
 989              		.code	16
 990              		.thumb_func
 991              		.type	disk_read, %function
 992              	disk_read:
 993              	.LFB73:
 415:.\lib_Fat/sdcard.c **** 
 416:.\lib_Fat/sdcard.c **** /*-----------------------------------------------------------------------*/
 417:.\lib_Fat/sdcard.c **** /* Read Sector(s)                                                        */
 418:.\lib_Fat/sdcard.c **** /*-----------------------------------------------------------------------*/
 419:.\lib_Fat/sdcard.c **** 
 420:.\lib_Fat/sdcard.c **** DRESULT disk_read(BYTE drv,	BYTE *buff,	DWORD sector, UINT count) /* Physical drive nmuber (0) */
 421:.\lib_Fat/sdcard.c **** {
 994              		.loc 1 421 0
 995              		.cfi_startproc
 996 0000 80B5     		push	{r7, lr}
ARM GAS  C:\Users\Petro\AppData\Local\Temp\ccWz19ga.s 			page 26


 997              		.cfi_def_cfa_offset 8
 998              		.cfi_offset 7, -8
 999              		.cfi_offset 14, -4
 1000 0002 86B0     		sub	sp, sp, #24
 1001              		.cfi_def_cfa_offset 32
 1002 0004 00AF     		add	r7, sp, #0
 1003              		.cfi_def_cfa_register 7
 1004 0006 B960     		str	r1, [r7, #8]
 1005 0008 7A60     		str	r2, [r7, #4]
 1006 000a 3B60     		str	r3, [r7]
 1007 000c 0F23     		mov	r3, #15
 1008 000e FB18     		add	r3, r7, r3
 1009 0010 021C     		add	r2, r0, #0
 1010 0012 1A70     		strb	r2, [r3]
 422:.\lib_Fat/sdcard.c **** 	BYTE cmd;
 423:.\lib_Fat/sdcard.c **** 
 424:.\lib_Fat/sdcard.c **** 	if (disk_status(drv) & STA_NOINIT) return RES_NOTRDY;
 1011              		.loc 1 424 0
 1012 0014 0F23     		mov	r3, #15
 1013 0016 FB18     		add	r3, r7, r3
 1014 0018 1B78     		ldrb	r3, [r3]
 1015 001a 181C     		mov	r0, r3
 1016 001c FFF7FEFF 		bl	disk_status
 1017 0020 031C     		mov	r3, r0
 1018 0022 1A1C     		mov	r2, r3
 1019 0024 0123     		mov	r3, #1
 1020 0026 1340     		and	r3, r2
 1021 0028 01D0     		beq	.L70
 1022              		.loc 1 424 0 is_stmt 0 discriminator 1
 1023 002a 0323     		mov	r3, #3
 1024 002c 40E0     		b	.L71
 1025              	.L70:
 425:.\lib_Fat/sdcard.c **** 	if (!(CardType & CT_BLOCK)) sector *= 512;	/* Convert LBA to byte address if needed */
 1026              		.loc 1 425 0 is_stmt 1
 1027 002e 224B     		ldr	r3, .L79
 1028 0030 1B78     		ldrb	r3, [r3]
 1029 0032 1A1C     		mov	r2, r3
 1030 0034 0823     		mov	r3, #8
 1031 0036 1340     		and	r3, r2
 1032 0038 02D1     		bne	.L72
 1033              		.loc 1 425 0 is_stmt 0 discriminator 1
 1034 003a 7B68     		ldr	r3, [r7, #4]
 1035 003c 5B02     		lsl	r3, r3, #9
 1036 003e 7B60     		str	r3, [r7, #4]
 1037              	.L72:
 426:.\lib_Fat/sdcard.c **** 
 427:.\lib_Fat/sdcard.c **** 	cmd = count > 1 ? CMD18 : CMD17;			/*  READ_MULTIPLE_BLOCK : READ_SINGLE_BLOCK */
 1038              		.loc 1 427 0 is_stmt 1
 1039 0040 3B68     		ldr	r3, [r7]
 1040 0042 012B     		cmp	r3, #1
 1041 0044 01D9     		bls	.L73
 1042              		.loc 1 427 0 is_stmt 0 discriminator 1
 1043 0046 1222     		mov	r2, #18
 1044 0048 00E0     		b	.L74
 1045              	.L73:
 1046              		.loc 1 427 0 discriminator 2
 1047 004a 1122     		mov	r2, #17
ARM GAS  C:\Users\Petro\AppData\Local\Temp\ccWz19ga.s 			page 27


 1048              	.L74:
 1049              		.loc 1 427 0 discriminator 4
 1050 004c 1723     		mov	r3, #23
 1051 004e FB18     		add	r3, r7, r3
 1052 0050 1A70     		strb	r2, [r3]
 428:.\lib_Fat/sdcard.c **** 	if (send_cmd(cmd, sector) == 0) {
 1053              		.loc 1 428 0 is_stmt 1 discriminator 4
 1054 0052 1723     		mov	r3, #23
 1055 0054 FB18     		add	r3, r7, r3
 1056 0056 1A78     		ldrb	r2, [r3]
 1057 0058 7B68     		ldr	r3, [r7, #4]
 1058 005a 101C     		mov	r0, r2
 1059 005c 191C     		mov	r1, r3
 1060 005e FFF7FEFF 		bl	send_cmd
 1061 0062 031E     		sub	r3, r0, #0
 1062 0064 1ED1     		bne	.L75
 1063              	.L78:
 429:.\lib_Fat/sdcard.c **** 		do {
 430:.\lib_Fat/sdcard.c **** 			if (!rcvr_datablock(buff, 512)) break;
 1064              		.loc 1 430 0
 1065 0066 BA68     		ldr	r2, [r7, #8]
 1066 0068 8023     		mov	r3, #128
 1067 006a 9B00     		lsl	r3, r3, #2
 1068 006c 101C     		mov	r0, r2
 1069 006e 191C     		mov	r1, r3
 1070 0070 FFF7FEFF 		bl	rcvr_datablock
 1071 0074 031E     		sub	r3, r0, #0
 1072 0076 00D1     		bne	.L76
 1073 0078 0BE0     		b	.L77
 1074              	.L76:
 431:.\lib_Fat/sdcard.c **** 			buff += 512;
 1075              		.loc 1 431 0
 1076 007a BB68     		ldr	r3, [r7, #8]
 1077 007c 8022     		mov	r2, #128
 1078 007e 9200     		lsl	r2, r2, #2
 1079 0080 9446     		mov	ip, r2
 1080 0082 6344     		add	r3, r3, ip
 1081 0084 BB60     		str	r3, [r7, #8]
 432:.\lib_Fat/sdcard.c **** 		} while (--count);
 1082              		.loc 1 432 0
 1083 0086 3B68     		ldr	r3, [r7]
 1084 0088 013B     		sub	r3, r3, #1
 1085 008a 3B60     		str	r3, [r7]
 1086 008c 3B68     		ldr	r3, [r7]
 1087 008e 002B     		cmp	r3, #0
 1088 0090 E9D1     		bne	.L78
 1089              	.L77:
 433:.\lib_Fat/sdcard.c **** 		if (cmd == CMD18) send_cmd(CMD12, 0);	/* STOP_TRANSMISSION */
 1090              		.loc 1 433 0
 1091 0092 1723     		mov	r3, #23
 1092 0094 FB18     		add	r3, r7, r3
 1093 0096 1B78     		ldrb	r3, [r3]
 1094 0098 122B     		cmp	r3, #18
 1095 009a 03D1     		bne	.L75
 1096              		.loc 1 433 0 is_stmt 0 discriminator 1
 1097 009c 0C20     		mov	r0, #12
 1098 009e 0021     		mov	r1, #0
ARM GAS  C:\Users\Petro\AppData\Local\Temp\ccWz19ga.s 			page 28


 1099 00a0 FFF7FEFF 		bl	send_cmd
 1100              	.L75:
 434:.\lib_Fat/sdcard.c **** 	}
 435:.\lib_Fat/sdcard.c **** 	deselect();
 1101              		.loc 1 435 0 is_stmt 1
 1102 00a4 FFF7FEFF 		bl	deselect
 436:.\lib_Fat/sdcard.c **** 
 437:.\lib_Fat/sdcard.c **** 	return count ? RES_ERROR : RES_OK;
 1103              		.loc 1 437 0
 1104 00a8 3B68     		ldr	r3, [r7]
 1105 00aa 5A1E     		sub	r2, r3, #1
 1106 00ac 9341     		sbc	r3, r3, r2
 1107 00ae DBB2     		uxtb	r3, r3
 1108              	.L71:
 438:.\lib_Fat/sdcard.c **** }
 1109              		.loc 1 438 0
 1110 00b0 181C     		mov	r0, r3
 1111 00b2 BD46     		mov	sp, r7
 1112 00b4 06B0     		add	sp, sp, #24
 1113              		@ sp needed
 1114 00b6 80BD     		pop	{r7, pc}
 1115              	.L80:
 1116              		.align	2
 1117              	.L79:
 1118 00b8 00000000 		.word	CardType
 1119              		.cfi_endproc
 1120              	.LFE73:
 1121              		.size	disk_read, .-disk_read
 1122              		.section	.text.disk_write,"ax",%progbits
 1123              		.align	2
 1124              		.global	disk_write
 1125              		.code	16
 1126              		.thumb_func
 1127              		.type	disk_write, %function
 1128              	disk_write:
 1129              	.LFB74:
 439:.\lib_Fat/sdcard.c **** 
 440:.\lib_Fat/sdcard.c **** /*-----------------------------------------------------------------------*/
 441:.\lib_Fat/sdcard.c **** /* Write Sector(s)                                                       */
 442:.\lib_Fat/sdcard.c **** /*-----------------------------------------------------------------------*/
 443:.\lib_Fat/sdcard.c **** 
 444:.\lib_Fat/sdcard.c **** DRESULT disk_write (
 445:.\lib_Fat/sdcard.c **** 	BYTE drv,			/* Physical drive nmuber (0) */
 446:.\lib_Fat/sdcard.c **** 	const BYTE *buff,	/* Pointer to the data to be written */
 447:.\lib_Fat/sdcard.c **** 	DWORD sector,		/* Start sector number (LBA) */
 448:.\lib_Fat/sdcard.c **** 	UINT count			/* Sector count (1..128) */
 449:.\lib_Fat/sdcard.c **** )
 450:.\lib_Fat/sdcard.c **** {
 1130              		.loc 1 450 0
 1131              		.cfi_startproc
 1132 0000 80B5     		push	{r7, lr}
 1133              		.cfi_def_cfa_offset 8
 1134              		.cfi_offset 7, -8
 1135              		.cfi_offset 14, -4
 1136 0002 84B0     		sub	sp, sp, #16
 1137              		.cfi_def_cfa_offset 24
 1138 0004 00AF     		add	r7, sp, #0
ARM GAS  C:\Users\Petro\AppData\Local\Temp\ccWz19ga.s 			page 29


 1139              		.cfi_def_cfa_register 7
 1140 0006 B960     		str	r1, [r7, #8]
 1141 0008 7A60     		str	r2, [r7, #4]
 1142 000a 3B60     		str	r3, [r7]
 1143 000c 0F23     		mov	r3, #15
 1144 000e FB18     		add	r3, r7, r3
 1145 0010 021C     		add	r2, r0, #0
 1146 0012 1A70     		strb	r2, [r3]
 451:.\lib_Fat/sdcard.c **** 	if (disk_status(drv) & STA_NOINIT) return RES_NOTRDY;
 1147              		.loc 1 451 0
 1148 0014 0F23     		mov	r3, #15
 1149 0016 FB18     		add	r3, r7, r3
 1150 0018 1B78     		ldrb	r3, [r3]
 1151 001a 181C     		mov	r0, r3
 1152 001c FFF7FEFF 		bl	disk_status
 1153 0020 031C     		mov	r3, r0
 1154 0022 1A1C     		mov	r2, r3
 1155 0024 0123     		mov	r3, #1
 1156 0026 1340     		and	r3, r2
 1157 0028 01D0     		beq	.L82
 1158              		.loc 1 451 0 is_stmt 0 discriminator 1
 1159 002a 0323     		mov	r3, #3
 1160 002c 50E0     		b	.L83
 1161              	.L82:
 452:.\lib_Fat/sdcard.c **** 	if (!(CardType & CT_BLOCK)) sector *= 512;	/* Convert LBA to byte address if needed */
 1162              		.loc 1 452 0 is_stmt 1
 1163 002e 2A4B     		ldr	r3, .L92
 1164 0030 1B78     		ldrb	r3, [r3]
 1165 0032 1A1C     		mov	r2, r3
 1166 0034 0823     		mov	r3, #8
 1167 0036 1340     		and	r3, r2
 1168 0038 02D1     		bne	.L84
 1169              		.loc 1 452 0 is_stmt 0 discriminator 1
 1170 003a 7B68     		ldr	r3, [r7, #4]
 1171 003c 5B02     		lsl	r3, r3, #9
 1172 003e 7B60     		str	r3, [r7, #4]
 1173              	.L84:
 453:.\lib_Fat/sdcard.c **** 
 454:.\lib_Fat/sdcard.c **** 	if (count == 1) {	/* Single block write */
 1174              		.loc 1 454 0 is_stmt 1
 1175 0040 3B68     		ldr	r3, [r7]
 1176 0042 012B     		cmp	r3, #1
 1177 0044 10D1     		bne	.L85
 455:.\lib_Fat/sdcard.c **** 		if ((send_cmd(CMD24, sector) == 0)	/* WRITE_BLOCK */
 1178              		.loc 1 455 0
 1179 0046 7B68     		ldr	r3, [r7, #4]
 1180 0048 1820     		mov	r0, #24
 1181 004a 191C     		mov	r1, r3
 1182 004c FFF7FEFF 		bl	send_cmd
 1183 0050 031E     		sub	r3, r0, #0
 1184 0052 37D1     		bne	.L87
 456:.\lib_Fat/sdcard.c **** 			&& xmit_datablock(buff, 0xFE))
 1185              		.loc 1 456 0
 1186 0054 BB68     		ldr	r3, [r7, #8]
 1187 0056 181C     		mov	r0, r3
 1188 0058 FE21     		mov	r1, #254
 1189 005a FFF7FEFF 		bl	xmit_datablock
ARM GAS  C:\Users\Petro\AppData\Local\Temp\ccWz19ga.s 			page 30


 1190 005e 031E     		sub	r3, r0, #0
 1191 0060 30D0     		beq	.L87
 457:.\lib_Fat/sdcard.c **** 			count = 0;
 1192              		.loc 1 457 0
 1193 0062 0023     		mov	r3, #0
 1194 0064 3B60     		str	r3, [r7]
 1195 0066 2DE0     		b	.L87
 1196              	.L85:
 458:.\lib_Fat/sdcard.c **** 	}
 459:.\lib_Fat/sdcard.c **** 	else {				/* Multiple block write */
 460:.\lib_Fat/sdcard.c **** 		if (CardType & CT_SDC) send_cmd(ACMD23, count);
 1197              		.loc 1 460 0
 1198 0068 1B4B     		ldr	r3, .L92
 1199 006a 1B78     		ldrb	r3, [r3]
 1200 006c 1A1C     		mov	r2, r3
 1201 006e 0623     		mov	r3, #6
 1202 0070 1340     		and	r3, r2
 1203 0072 04D0     		beq	.L88
 1204              		.loc 1 460 0 is_stmt 0 discriminator 1
 1205 0074 3B68     		ldr	r3, [r7]
 1206 0076 9720     		mov	r0, #151
 1207 0078 191C     		mov	r1, r3
 1208 007a FFF7FEFF 		bl	send_cmd
 1209              	.L88:
 461:.\lib_Fat/sdcard.c **** 		if (send_cmd(CMD25, sector) == 0) {	/* WRITE_MULTIPLE_BLOCK */
 1210              		.loc 1 461 0 is_stmt 1
 1211 007e 7B68     		ldr	r3, [r7, #4]
 1212 0080 1920     		mov	r0, #25
 1213 0082 191C     		mov	r1, r3
 1214 0084 FFF7FEFF 		bl	send_cmd
 1215 0088 031E     		sub	r3, r0, #0
 1216 008a 1BD1     		bne	.L87
 1217              	.L91:
 462:.\lib_Fat/sdcard.c **** 			do {
 463:.\lib_Fat/sdcard.c **** 				if (!xmit_datablock(buff, 0xFC)) break;
 1218              		.loc 1 463 0
 1219 008c BB68     		ldr	r3, [r7, #8]
 1220 008e 181C     		mov	r0, r3
 1221 0090 FC21     		mov	r1, #252
 1222 0092 FFF7FEFF 		bl	xmit_datablock
 1223 0096 031E     		sub	r3, r0, #0
 1224 0098 00D1     		bne	.L89
 1225 009a 0BE0     		b	.L90
 1226              	.L89:
 464:.\lib_Fat/sdcard.c **** 				buff += 512;
 1227              		.loc 1 464 0
 1228 009c BB68     		ldr	r3, [r7, #8]
 1229 009e 8022     		mov	r2, #128
 1230 00a0 9200     		lsl	r2, r2, #2
 1231 00a2 9446     		mov	ip, r2
 1232 00a4 6344     		add	r3, r3, ip
 1233 00a6 BB60     		str	r3, [r7, #8]
 465:.\lib_Fat/sdcard.c **** 			} while (--count);
 1234              		.loc 1 465 0
 1235 00a8 3B68     		ldr	r3, [r7]
 1236 00aa 013B     		sub	r3, r3, #1
 1237 00ac 3B60     		str	r3, [r7]
ARM GAS  C:\Users\Petro\AppData\Local\Temp\ccWz19ga.s 			page 31


 1238 00ae 3B68     		ldr	r3, [r7]
 1239 00b0 002B     		cmp	r3, #0
 1240 00b2 EBD1     		bne	.L91
 1241              	.L90:
 466:.\lib_Fat/sdcard.c **** 			if (!xmit_datablock(0, 0xFD))	/* STOP_TRAN token */
 1242              		.loc 1 466 0
 1243 00b4 0020     		mov	r0, #0
 1244 00b6 FD21     		mov	r1, #253
 1245 00b8 FFF7FEFF 		bl	xmit_datablock
 1246 00bc 031E     		sub	r3, r0, #0
 1247 00be 01D1     		bne	.L87
 467:.\lib_Fat/sdcard.c **** 				count = 1;
 1248              		.loc 1 467 0
 1249 00c0 0123     		mov	r3, #1
 1250 00c2 3B60     		str	r3, [r7]
 1251              	.L87:
 468:.\lib_Fat/sdcard.c **** 		}
 469:.\lib_Fat/sdcard.c **** 	}
 470:.\lib_Fat/sdcard.c **** 	deselect();
 1252              		.loc 1 470 0
 1253 00c4 FFF7FEFF 		bl	deselect
 471:.\lib_Fat/sdcard.c **** 
 472:.\lib_Fat/sdcard.c **** 	return count ? RES_ERROR : RES_OK;
 1254              		.loc 1 472 0
 1255 00c8 3B68     		ldr	r3, [r7]
 1256 00ca 5A1E     		sub	r2, r3, #1
 1257 00cc 9341     		sbc	r3, r3, r2
 1258 00ce DBB2     		uxtb	r3, r3
 1259              	.L83:
 473:.\lib_Fat/sdcard.c **** }
 1260              		.loc 1 473 0
 1261 00d0 181C     		mov	r0, r3
 1262 00d2 BD46     		mov	sp, r7
 1263 00d4 04B0     		add	sp, sp, #16
 1264              		@ sp needed
 1265 00d6 80BD     		pop	{r7, pc}
 1266              	.L93:
 1267              		.align	2
 1268              	.L92:
 1269 00d8 00000000 		.word	CardType
 1270              		.cfi_endproc
 1271              	.LFE74:
 1272              		.size	disk_write, .-disk_write
 1273              		.section	.text.disk_ioctl,"ax",%progbits
 1274              		.align	2
 1275              		.global	disk_ioctl
 1276              		.code	16
 1277              		.thumb_func
 1278              		.type	disk_ioctl, %function
 1279              	disk_ioctl:
 1280              	.LFB75:
 474:.\lib_Fat/sdcard.c **** 
 475:.\lib_Fat/sdcard.c **** 
 476:.\lib_Fat/sdcard.c **** /*-----------------------------------------------------------------------*/
 477:.\lib_Fat/sdcard.c **** /* Miscellaneous Functions                                               */
 478:.\lib_Fat/sdcard.c **** /*-----------------------------------------------------------------------*/
 479:.\lib_Fat/sdcard.c **** 
ARM GAS  C:\Users\Petro\AppData\Local\Temp\ccWz19ga.s 			page 32


 480:.\lib_Fat/sdcard.c **** DRESULT disk_ioctl (
 481:.\lib_Fat/sdcard.c **** 	BYTE drv,		/* Physical drive nmuber (0) */
 482:.\lib_Fat/sdcard.c **** 	BYTE ctrl,		/* Control code */
 483:.\lib_Fat/sdcard.c **** 	void *buff		/* Buffer to send/receive control data */
 484:.\lib_Fat/sdcard.c **** )
 485:.\lib_Fat/sdcard.c **** {
 1281              		.loc 1 485 0
 1282              		.cfi_startproc
 1283 0000 80B5     		push	{r7, lr}
 1284              		.cfi_def_cfa_offset 8
 1285              		.cfi_offset 7, -8
 1286              		.cfi_offset 14, -4
 1287 0002 8AB0     		sub	sp, sp, #40
 1288              		.cfi_def_cfa_offset 48
 1289 0004 00AF     		add	r7, sp, #0
 1290              		.cfi_def_cfa_register 7
 1291 0006 3A60     		str	r2, [r7]
 1292 0008 FB1D     		add	r3, r7, #7
 1293 000a 021C     		add	r2, r0, #0
 1294 000c 1A70     		strb	r2, [r3]
 1295 000e BB1D     		add	r3, r7, #6
 1296 0010 0A1C     		add	r2, r1, #0
 1297 0012 1A70     		strb	r2, [r3]
 486:.\lib_Fat/sdcard.c **** 	DRESULT res;
 487:.\lib_Fat/sdcard.c **** 	BYTE n, csd[16];
 488:.\lib_Fat/sdcard.c **** 	DWORD cs;
 489:.\lib_Fat/sdcard.c **** 
 490:.\lib_Fat/sdcard.c **** 
 491:.\lib_Fat/sdcard.c **** 	if (disk_status(drv) & STA_NOINIT) return RES_NOTRDY;	/* Check if card is in the socket */
 1298              		.loc 1 491 0
 1299 0014 FB1D     		add	r3, r7, #7
 1300 0016 1B78     		ldrb	r3, [r3]
 1301 0018 181C     		mov	r0, r3
 1302 001a FFF7FEFF 		bl	disk_status
 1303 001e 031C     		mov	r3, r0
 1304 0020 1A1C     		mov	r2, r3
 1305 0022 0123     		mov	r3, #1
 1306 0024 1340     		and	r3, r2
 1307 0026 01D0     		beq	.L95
 1308              		.loc 1 491 0 is_stmt 0 discriminator 1
 1309 0028 0323     		mov	r3, #3
 1310 002a 94E0     		b	.L106
 1311              	.L95:
 492:.\lib_Fat/sdcard.c **** 
 493:.\lib_Fat/sdcard.c **** 	res = RES_ERROR;
 1312              		.loc 1 493 0 is_stmt 1
 1313 002c 2723     		mov	r3, #39
 1314 002e FB18     		add	r3, r7, r3
 1315 0030 0122     		mov	r2, #1
 1316 0032 1A70     		strb	r2, [r3]
 494:.\lib_Fat/sdcard.c **** 	switch (ctrl) {
 1317              		.loc 1 494 0
 1318 0034 BB1D     		add	r3, r7, #6
 1319 0036 1B78     		ldrb	r3, [r3]
 1320 0038 012B     		cmp	r3, #1
 1321 003a 0FD0     		beq	.L98
 1322 003c 032B     		cmp	r3, #3
ARM GAS  C:\Users\Petro\AppData\Local\Temp\ccWz19ga.s 			page 33


 1323 003e 00D1     		bne	.LCB1200
 1324 0040 78E0     		b	.L99	@long jump
 1325              	.LCB1200:
 1326 0042 002B     		cmp	r3, #0
 1327 0044 00D0     		beq	.LCB1202
 1328 0046 7DE0     		b	.L107	@long jump
 1329              	.LCB1202:
 495:.\lib_Fat/sdcard.c **** 		case CTRL_SYNC :		/* Make sure that no pending write process */
 496:.\lib_Fat/sdcard.c **** 			if (select()) res = RES_OK;
 1330              		.loc 1 496 0
 1331 0048 FFF7FEFF 		bl	select
 1332 004c 031E     		sub	r3, r0, #0
 1333 004e 04D0     		beq	.L101
 1334              		.loc 1 496 0 is_stmt 0 discriminator 1
 1335 0050 2723     		mov	r3, #39
 1336 0052 FB18     		add	r3, r7, r3
 1337 0054 0022     		mov	r2, #0
 1338 0056 1A70     		strb	r2, [r3]
 497:.\lib_Fat/sdcard.c **** 			break;
 1339              		.loc 1 497 0 is_stmt 1 discriminator 1
 1340 0058 78E0     		b	.L102
 1341              	.L101:
 1342              		.loc 1 497 0 is_stmt 0
 1343 005a 77E0     		b	.L102
 1344              	.L98:
 498:.\lib_Fat/sdcard.c **** 
 499:.\lib_Fat/sdcard.c **** 		case GET_SECTOR_COUNT :	/* Get number of sectors on the disk (DWORD) */
 500:.\lib_Fat/sdcard.c **** 			if ((send_cmd(CMD9, 0) == 0) && rcvr_datablock(csd, 16)) {
 1345              		.loc 1 500 0 is_stmt 1
 1346 005c 0920     		mov	r0, #9
 1347 005e 0021     		mov	r1, #0
 1348 0060 FFF7FEFF 		bl	send_cmd
 1349 0064 031E     		sub	r3, r0, #0
 1350 0066 64D1     		bne	.L103
 1351              		.loc 1 500 0 is_stmt 0 discriminator 1
 1352 0068 0C23     		mov	r3, #12
 1353 006a FB18     		add	r3, r7, r3
 1354 006c 181C     		mov	r0, r3
 1355 006e 1021     		mov	r1, #16
 1356 0070 FFF7FEFF 		bl	rcvr_datablock
 1357 0074 031E     		sub	r3, r0, #0
 1358 0076 5CD0     		beq	.L103
 501:.\lib_Fat/sdcard.c **** 				if ((csd[0] >> 6) == 1) {	/* SDC ver 2.00 */
 1359              		.loc 1 501 0 is_stmt 1
 1360 0078 0C23     		mov	r3, #12
 1361 007a FB18     		add	r3, r7, r3
 1362 007c 1B78     		ldrb	r3, [r3]
 1363 007e 9B09     		lsr	r3, r3, #6
 1364 0080 DBB2     		uxtb	r3, r3
 1365 0082 012B     		cmp	r3, #1
 1366 0084 18D1     		bne	.L104
 502:.\lib_Fat/sdcard.c **** 					cs = csd[9] + ((WORD)csd[8] << 8) + ((DWORD)(csd[7] & 63) << 16) + 1;
 1367              		.loc 1 502 0
 1368 0086 0C23     		mov	r3, #12
 1369 0088 FB18     		add	r3, r7, r3
 1370 008a 5B7A     		ldrb	r3, [r3, #9]
 1371 008c 1A1C     		mov	r2, r3
ARM GAS  C:\Users\Petro\AppData\Local\Temp\ccWz19ga.s 			page 34


 1372 008e 0C23     		mov	r3, #12
 1373 0090 FB18     		add	r3, r7, r3
 1374 0092 1B7A     		ldrb	r3, [r3, #8]
 1375 0094 1B02     		lsl	r3, r3, #8
 1376 0096 D318     		add	r3, r2, r3
 1377 0098 1A1C     		mov	r2, r3
 1378 009a 0C23     		mov	r3, #12
 1379 009c FB18     		add	r3, r7, r3
 1380 009e DB79     		ldrb	r3, [r3, #7]
 1381 00a0 191C     		mov	r1, r3
 1382 00a2 3F23     		mov	r3, #63
 1383 00a4 0B40     		and	r3, r1
 1384 00a6 1B04     		lsl	r3, r3, #16
 1385 00a8 D318     		add	r3, r2, r3
 1386 00aa 0133     		add	r3, r3, #1
 1387 00ac 3B62     		str	r3, [r7, #32]
 503:.\lib_Fat/sdcard.c **** 					*(DWORD*)buff = cs << 10;
 1388              		.loc 1 503 0
 1389 00ae 3B6A     		ldr	r3, [r7, #32]
 1390 00b0 9A02     		lsl	r2, r3, #10
 1391 00b2 3B68     		ldr	r3, [r7]
 1392 00b4 1A60     		str	r2, [r3]
 1393 00b6 37E0     		b	.L105
 1394              	.L104:
 504:.\lib_Fat/sdcard.c **** 				} else {					/* SDC ver 1.XX or MMC */
 505:.\lib_Fat/sdcard.c **** 					n = (csd[5] & 15) + ((csd[10] & 128) >> 7) + ((csd[9] & 3) << 1) + 2;
 1395              		.loc 1 505 0
 1396 00b8 0C23     		mov	r3, #12
 1397 00ba FB18     		add	r3, r7, r3
 1398 00bc 5B79     		ldrb	r3, [r3, #5]
 1399 00be 0F22     		mov	r2, #15
 1400 00c0 1340     		and	r3, r2
 1401 00c2 DAB2     		uxtb	r2, r3
 1402 00c4 0C23     		mov	r3, #12
 1403 00c6 FB18     		add	r3, r7, r3
 1404 00c8 9B7A     		ldrb	r3, [r3, #10]
 1405 00ca DB09     		lsr	r3, r3, #7
 1406 00cc DBB2     		uxtb	r3, r3
 1407 00ce D318     		add	r3, r2, r3
 1408 00d0 DAB2     		uxtb	r2, r3
 1409 00d2 0C23     		mov	r3, #12
 1410 00d4 FB18     		add	r3, r7, r3
 1411 00d6 5B7A     		ldrb	r3, [r3, #9]
 1412 00d8 0321     		mov	r1, #3
 1413 00da 0B40     		and	r3, r1
 1414 00dc DBB2     		uxtb	r3, r3
 1415 00de DB18     		add	r3, r3, r3
 1416 00e0 DBB2     		uxtb	r3, r3
 1417 00e2 D318     		add	r3, r2, r3
 1418 00e4 DAB2     		uxtb	r2, r3
 1419 00e6 1F23     		mov	r3, #31
 1420 00e8 FB18     		add	r3, r7, r3
 1421 00ea 0232     		add	r2, r2, #2
 1422 00ec 1A70     		strb	r2, [r3]
 506:.\lib_Fat/sdcard.c **** 					cs = (csd[8] >> 6) + ((WORD)csd[7] << 2) + ((WORD)(csd[6] & 3) << 10) + 1;
 1423              		.loc 1 506 0
 1424 00ee 0C23     		mov	r3, #12
ARM GAS  C:\Users\Petro\AppData\Local\Temp\ccWz19ga.s 			page 35


 1425 00f0 FB18     		add	r3, r7, r3
 1426 00f2 1B7A     		ldrb	r3, [r3, #8]
 1427 00f4 9B09     		lsr	r3, r3, #6
 1428 00f6 DBB2     		uxtb	r3, r3
 1429 00f8 1A1C     		mov	r2, r3
 1430 00fa 0C23     		mov	r3, #12
 1431 00fc FB18     		add	r3, r7, r3
 1432 00fe DB79     		ldrb	r3, [r3, #7]
 1433 0100 9B00     		lsl	r3, r3, #2
 1434 0102 D218     		add	r2, r2, r3
 1435 0104 0C23     		mov	r3, #12
 1436 0106 FB18     		add	r3, r7, r3
 1437 0108 9B79     		ldrb	r3, [r3, #6]
 1438 010a 191C     		mov	r1, r3
 1439 010c 0323     		mov	r3, #3
 1440 010e 0B40     		and	r3, r1
 1441 0110 9B02     		lsl	r3, r3, #10
 1442 0112 D318     		add	r3, r2, r3
 1443 0114 0133     		add	r3, r3, #1
 1444 0116 3B62     		str	r3, [r7, #32]
 507:.\lib_Fat/sdcard.c **** 					*(DWORD*)buff = cs << (n - 9);
 1445              		.loc 1 507 0
 1446 0118 1F23     		mov	r3, #31
 1447 011a FB18     		add	r3, r7, r3
 1448 011c 1B78     		ldrb	r3, [r3]
 1449 011e 093B     		sub	r3, r3, #9
 1450 0120 3A6A     		ldr	r2, [r7, #32]
 1451 0122 9A40     		lsl	r2, r2, r3
 1452 0124 3B68     		ldr	r3, [r7]
 1453 0126 1A60     		str	r2, [r3]
 1454              	.L105:
 508:.\lib_Fat/sdcard.c **** 				}
 509:.\lib_Fat/sdcard.c **** 				res = RES_OK;
 1455              		.loc 1 509 0
 1456 0128 2723     		mov	r3, #39
 1457 012a FB18     		add	r3, r7, r3
 1458 012c 0022     		mov	r2, #0
 1459 012e 1A70     		strb	r2, [r3]
 510:.\lib_Fat/sdcard.c **** 			}
 511:.\lib_Fat/sdcard.c **** 			break;
 1460              		.loc 1 511 0
 1461 0130 0CE0     		b	.L102
 1462              	.L103:
 1463 0132 0BE0     		b	.L102
 1464              	.L99:
 512:.\lib_Fat/sdcard.c **** 
 513:.\lib_Fat/sdcard.c **** 		case GET_BLOCK_SIZE :	/* Get erase block size in unit of sector (DWORD) */
 514:.\lib_Fat/sdcard.c **** 			*(DWORD*)buff = 128;
 1465              		.loc 1 514 0
 1466 0134 3B68     		ldr	r3, [r7]
 1467 0136 8022     		mov	r2, #128
 1468 0138 1A60     		str	r2, [r3]
 515:.\lib_Fat/sdcard.c **** 			res = RES_OK;
 1469              		.loc 1 515 0
 1470 013a 2723     		mov	r3, #39
 1471 013c FB18     		add	r3, r7, r3
 1472 013e 0022     		mov	r2, #0
ARM GAS  C:\Users\Petro\AppData\Local\Temp\ccWz19ga.s 			page 36


 1473 0140 1A70     		strb	r2, [r3]
 516:.\lib_Fat/sdcard.c **** 			break;
 1474              		.loc 1 516 0
 1475 0142 03E0     		b	.L102
 1476              	.L107:
 517:.\lib_Fat/sdcard.c **** 
 518:.\lib_Fat/sdcard.c **** 		default:
 519:.\lib_Fat/sdcard.c **** 			res = RES_PARERR;
 1477              		.loc 1 519 0
 1478 0144 2723     		mov	r3, #39
 1479 0146 FB18     		add	r3, r7, r3
 1480 0148 0422     		mov	r2, #4
 1481 014a 1A70     		strb	r2, [r3]
 1482              	.L102:
 520:.\lib_Fat/sdcard.c **** 	}
 521:.\lib_Fat/sdcard.c **** 
 522:.\lib_Fat/sdcard.c **** 	deselect();
 1483              		.loc 1 522 0
 1484 014c FFF7FEFF 		bl	deselect
 523:.\lib_Fat/sdcard.c **** 
 524:.\lib_Fat/sdcard.c **** 	return res;
 1485              		.loc 1 524 0
 1486 0150 2723     		mov	r3, #39
 1487 0152 FB18     		add	r3, r7, r3
 1488 0154 1B78     		ldrb	r3, [r3]
 1489              	.L106:
 525:.\lib_Fat/sdcard.c **** }
 1490              		.loc 1 525 0 discriminator 1
 1491 0156 181C     		mov	r0, r3
 1492 0158 BD46     		mov	sp, r7
 1493 015a 0AB0     		add	sp, sp, #40
 1494              		@ sp needed
 1495 015c 80BD     		pop	{r7, pc}
 1496              		.cfi_endproc
 1497              	.LFE75:
 1498              		.size	disk_ioctl, .-disk_ioctl
 1499 015e C046     		.text
 1500              	.Letext0:
 1501              		.file 2 ".\\lib_Fat\\integer.h"
 1502              		.file 3 ".\\lib_Fat\\diskio.h"