ARM GAS  C:\Users\Petro\AppData\Local\Temp\cc1ayeyf.s 			page 1


   1              		.cpu cortex-m0
   2              		.fpu softvfp
   3              		.eabi_attribute 20, 1
   4              		.eabi_attribute 21, 1
   5              		.eabi_attribute 23, 3
   6              		.eabi_attribute 24, 1
   7              		.eabi_attribute 25, 1
   8              		.eabi_attribute 26, 1
   9              		.eabi_attribute 30, 6
  10              		.eabi_attribute 34, 0
  11              		.eabi_attribute 18, 4
  12              		.code	16
  13              		.file	"SW_UART_PC.c"
  14              		.text
  15              	.Ltext0:
  16              		.cfi_sections	.debug_frame
  17              		.global	SW_UART_PC_pinNumber
  18              		.data
  19              		.align	2
  20              		.type	SW_UART_PC_pinNumber, %object
  21              		.size	SW_UART_PC_pinNumber, 4
  22              	SW_UART_PC_pinNumber:
  23 0000 05000000 		.word	5
  24              		.global	SW_UART_PC_pinPortNumber
  25              		.bss
  26              		.align	2
  27              		.type	SW_UART_PC_pinPortNumber, %object
  28              		.size	SW_UART_PC_pinPortNumber, 4
  29              	SW_UART_PC_pinPortNumber:
  30 0000 00000000 		.space	4
  31              		.global	SW_UART_PC_pinDrAdress
  32              		.data
  33              		.align	2
  34              		.type	SW_UART_PC_pinDrAdress, %object
  35              		.size	SW_UART_PC_pinDrAdress, 4
  36              	SW_UART_PC_pinDrAdress:
  37 0004 00000440 		.word	1074003968
  38              		.section	.text.SW_UART_PC_Start,"ax",%progbits
  39              		.align	2
  40              		.global	SW_UART_PC_Start
  41              		.code	16
  42              		.thumb_func
  43              		.type	SW_UART_PC_Start, %function
  44              	SW_UART_PC_Start:
  45              	.LFB0:
  46              		.file 1 ".\\Generated_Source\\PSoC4\\SW_UART_PC.c"
   1:.\Generated_Source\PSoC4/SW_UART_PC.c **** /*******************************************************************************
   2:.\Generated_Source\PSoC4/SW_UART_PC.c **** * File Name: SW_UART_PC.c
   3:.\Generated_Source\PSoC4/SW_UART_PC.c **** * Version 1.50
   4:.\Generated_Source\PSoC4/SW_UART_PC.c **** *
   5:.\Generated_Source\PSoC4/SW_UART_PC.c **** * Description:
   6:.\Generated_Source\PSoC4/SW_UART_PC.c **** *  This file provides the source code to the API for the Software Transmit UART.
   7:.\Generated_Source\PSoC4/SW_UART_PC.c **** *
   8:.\Generated_Source\PSoC4/SW_UART_PC.c **** ********************************************************************************
   9:.\Generated_Source\PSoC4/SW_UART_PC.c **** * Copyright 2013-2015, Cypress Semiconductor Corporation.  All rights reserved.
  10:.\Generated_Source\PSoC4/SW_UART_PC.c **** * You may use this file only in accordance with the license, terms, conditions,
  11:.\Generated_Source\PSoC4/SW_UART_PC.c **** * disclaimers, and limitations in the end user license agreement accompanying
ARM GAS  C:\Users\Petro\AppData\Local\Temp\cc1ayeyf.s 			page 2


  12:.\Generated_Source\PSoC4/SW_UART_PC.c **** * the software package with which this file was provided.
  13:.\Generated_Source\PSoC4/SW_UART_PC.c **** *******************************************************************************/
  14:.\Generated_Source\PSoC4/SW_UART_PC.c **** 
  15:.\Generated_Source\PSoC4/SW_UART_PC.c **** #include "SW_UART_PC_PVT.h"
  16:.\Generated_Source\PSoC4/SW_UART_PC.c **** 
  17:.\Generated_Source\PSoC4/SW_UART_PC.c **** #if(SW_UART_PC_PIN_STATIC_MODE == 1u)
  18:.\Generated_Source\PSoC4/SW_UART_PC.c ****     uint32 SW_UART_PC_pinNumber = SW_UART_PC_PIN_NUMBER;
  19:.\Generated_Source\PSoC4/SW_UART_PC.c ****     uint32 SW_UART_PC_pinPortNumber = SW_UART_PC_PIN_PORT_NUMBER;
  20:.\Generated_Source\PSoC4/SW_UART_PC.c ****     #if(CY_PSOC3)
  21:.\Generated_Source\PSoC4/SW_UART_PC.c ****         uint32 pdata SW_UART_PC_pinDrAdress = SW_UART_PC_PIN_DR;
  22:.\Generated_Source\PSoC4/SW_UART_PC.c ****     #else
  23:.\Generated_Source\PSoC4/SW_UART_PC.c ****         uint32 SW_UART_PC_pinDrAdress = SW_UART_PC_PIN_DR;
  24:.\Generated_Source\PSoC4/SW_UART_PC.c ****     #endif /* (CY_PSOC3) */
  25:.\Generated_Source\PSoC4/SW_UART_PC.c **** #else
  26:.\Generated_Source\PSoC4/SW_UART_PC.c ****     uint32 SW_UART_PC_pinNumber;
  27:.\Generated_Source\PSoC4/SW_UART_PC.c ****     uint32 SW_UART_PC_pinPortNumber;
  28:.\Generated_Source\PSoC4/SW_UART_PC.c ****     #if(CY_PSOC3)
  29:.\Generated_Source\PSoC4/SW_UART_PC.c ****         uint32 pdata SW_UART_PC_pinDrAdress;
  30:.\Generated_Source\PSoC4/SW_UART_PC.c ****     #else
  31:.\Generated_Source\PSoC4/SW_UART_PC.c ****         uint32 SW_UART_PC_pinDrAdress;
  32:.\Generated_Source\PSoC4/SW_UART_PC.c ****     #endif /* (CY_PSOC3) */
  33:.\Generated_Source\PSoC4/SW_UART_PC.c **** #endif /* (SW_UART_PC_PIN_STATIC_MODE == 1u) */
  34:.\Generated_Source\PSoC4/SW_UART_PC.c **** 
  35:.\Generated_Source\PSoC4/SW_UART_PC.c **** 
  36:.\Generated_Source\PSoC4/SW_UART_PC.c **** #if(SW_UART_PC_PIN_STATIC_MODE == 1u)
  37:.\Generated_Source\PSoC4/SW_UART_PC.c ****     /*******************************************************************************
  38:.\Generated_Source\PSoC4/SW_UART_PC.c ****     * Function Name: SW_UART_PC_Start
  39:.\Generated_Source\PSoC4/SW_UART_PC.c ****     ********************************************************************************
  40:.\Generated_Source\PSoC4/SW_UART_PC.c ****     *
  41:.\Generated_Source\PSoC4/SW_UART_PC.c ****     * Summary:
  42:.\Generated_Source\PSoC4/SW_UART_PC.c ****     *  Empty function. Included for consistency with other
  43:.\Generated_Source\PSoC4/SW_UART_PC.c ****     *  components. This API is not available when PinAssignmentMethod
  44:.\Generated_Source\PSoC4/SW_UART_PC.c ****     *  is set to Dynamic.
  45:.\Generated_Source\PSoC4/SW_UART_PC.c ****     *
  46:.\Generated_Source\PSoC4/SW_UART_PC.c ****     * Parameters:
  47:.\Generated_Source\PSoC4/SW_UART_PC.c ****     *  None
  48:.\Generated_Source\PSoC4/SW_UART_PC.c ****     *
  49:.\Generated_Source\PSoC4/SW_UART_PC.c ****     * Return:
  50:.\Generated_Source\PSoC4/SW_UART_PC.c ****     *  None
  51:.\Generated_Source\PSoC4/SW_UART_PC.c ****     *
  52:.\Generated_Source\PSoC4/SW_UART_PC.c ****     *******************************************************************************/
  53:.\Generated_Source\PSoC4/SW_UART_PC.c ****     void SW_UART_PC_Start(void) 
  54:.\Generated_Source\PSoC4/SW_UART_PC.c ****     {
  47              		.loc 1 54 0
  48              		.cfi_startproc
  49 0000 80B5     		push	{r7, lr}
  50              		.cfi_def_cfa_offset 8
  51              		.cfi_offset 7, -8
  52              		.cfi_offset 14, -4
  53 0002 00AF     		add	r7, sp, #0
  54              		.cfi_def_cfa_register 7
  55:.\Generated_Source\PSoC4/SW_UART_PC.c **** 
  56:.\Generated_Source\PSoC4/SW_UART_PC.c ****     }
  55              		.loc 1 56 0
  56 0004 BD46     		mov	sp, r7
  57              		@ sp needed
  58 0006 80BD     		pop	{r7, pc}
ARM GAS  C:\Users\Petro\AppData\Local\Temp\cc1ayeyf.s 			page 3


  59              		.cfi_endproc
  60              	.LFE0:
  61              		.size	SW_UART_PC_Start, .-SW_UART_PC_Start
  62              		.section	.text.SW_UART_PC_Stop,"ax",%progbits
  63              		.align	2
  64              		.global	SW_UART_PC_Stop
  65              		.code	16
  66              		.thumb_func
  67              		.type	SW_UART_PC_Stop, %function
  68              	SW_UART_PC_Stop:
  69              	.LFB1:
  57:.\Generated_Source\PSoC4/SW_UART_PC.c **** #else
  58:.\Generated_Source\PSoC4/SW_UART_PC.c ****     /*******************************************************************************
  59:.\Generated_Source\PSoC4/SW_UART_PC.c ****     * Function Name: SW_UART_PC_StartEx
  60:.\Generated_Source\PSoC4/SW_UART_PC.c ****     ********************************************************************************
  61:.\Generated_Source\PSoC4/SW_UART_PC.c ****     *
  62:.\Generated_Source\PSoC4/SW_UART_PC.c ****     * Summary:
  63:.\Generated_Source\PSoC4/SW_UART_PC.c ****     *  Configures the SW Tx UART to use the pin specified
  64:.\Generated_Source\PSoC4/SW_UART_PC.c ****     *  by the parameters. This API is only available when
  65:.\Generated_Source\PSoC4/SW_UART_PC.c ****     *  PinAssignmentMethod is set to Dynamic.
  66:.\Generated_Source\PSoC4/SW_UART_PC.c ****     *
  67:.\Generated_Source\PSoC4/SW_UART_PC.c ****     * Parameters:
  68:.\Generated_Source\PSoC4/SW_UART_PC.c ****     *  port:  Port number for dynamic pin assignment
  69:.\Generated_Source\PSoC4/SW_UART_PC.c ****     *  pin:   Pin number for dynamic pin assignment
  70:.\Generated_Source\PSoC4/SW_UART_PC.c ****     *
  71:.\Generated_Source\PSoC4/SW_UART_PC.c ****     * Return:
  72:.\Generated_Source\PSoC4/SW_UART_PC.c ****     *  None
  73:.\Generated_Source\PSoC4/SW_UART_PC.c ****     *
  74:.\Generated_Source\PSoC4/SW_UART_PC.c ****     *******************************************************************************/
  75:.\Generated_Source\PSoC4/SW_UART_PC.c ****     void SW_UART_PC_StartEx(uint8 port, uint8 pin) 
  76:.\Generated_Source\PSoC4/SW_UART_PC.c ****     {
  77:.\Generated_Source\PSoC4/SW_UART_PC.c ****         uint32 portConfigAddr;
  78:.\Generated_Source\PSoC4/SW_UART_PC.c **** 
  79:.\Generated_Source\PSoC4/SW_UART_PC.c ****         #if (CY_PSOC4)
  80:.\Generated_Source\PSoC4/SW_UART_PC.c ****             uint32 portDataRegAddr;
  81:.\Generated_Source\PSoC4/SW_UART_PC.c ****         #endif /* (CY_PSOC4) */
  82:.\Generated_Source\PSoC4/SW_UART_PC.c **** 
  83:.\Generated_Source\PSoC4/SW_UART_PC.c ****         if ((pin <= SW_UART_PC_MAX_PIN_NUMBER) && (port <= SW_UART_PC_MAX_PORT_NUMBER))
  84:.\Generated_Source\PSoC4/SW_UART_PC.c ****         {
  85:.\Generated_Source\PSoC4/SW_UART_PC.c ****             #if (!CY_PSOC4)
  86:.\Generated_Source\PSoC4/SW_UART_PC.c ****                 portConfigAddr = SW_UART_PC_PORT_CNF_BASE;
  87:.\Generated_Source\PSoC4/SW_UART_PC.c ****                 portConfigAddr += ((uint32)port * (SW_UART_PC_MAX_PIN_NUMBER + 1u)) + pin;
  88:.\Generated_Source\PSoC4/SW_UART_PC.c ****                 CyPins_SetPinDriveMode(portConfigAddr, CY_PINS_DM_STRONG);
  89:.\Generated_Source\PSoC4/SW_UART_PC.c ****                 CyPins_SetPin(portConfigAddr);
  90:.\Generated_Source\PSoC4/SW_UART_PC.c ****                 SW_UART_PC_pinDrAdress = portConfigAddr;
  91:.\Generated_Source\PSoC4/SW_UART_PC.c ****             #else
  92:.\Generated_Source\PSoC4/SW_UART_PC.c ****                 portConfigAddr = SW_UART_PC_PORT_CNF_BASE + (SW_UART_PC_PORT_CNF_SIZE * port) +
  93:.\Generated_Source\PSoC4/SW_UART_PC.c ****                                                                                 SW_UART_PC_PORT_CNF
  94:.\Generated_Source\PSoC4/SW_UART_PC.c ****                 CY_SYS_PINS_SET_DRIVE_MODE(portConfigAddr, pin, CY_SYS_PINS_DM_STRONG);
  95:.\Generated_Source\PSoC4/SW_UART_PC.c ****                 portDataRegAddr = SW_UART_PC_PORT_CNF_BASE + (SW_UART_PC_PORT_CNF_SIZE * port) +
  96:.\Generated_Source\PSoC4/SW_UART_PC.c ****                                                                                 SW_UART_PC_PORT_CNF
  97:.\Generated_Source\PSoC4/SW_UART_PC.c ****                 CY_SYS_PINS_SET_PIN(portDataRegAddr, pin);
  98:.\Generated_Source\PSoC4/SW_UART_PC.c ****                 SW_UART_PC_pinDrAdress = portDataRegAddr;
  99:.\Generated_Source\PSoC4/SW_UART_PC.c ****             #endif /* (!CY_PSOC4) */
 100:.\Generated_Source\PSoC4/SW_UART_PC.c ****             SW_UART_PC_pinNumber = pin;
 101:.\Generated_Source\PSoC4/SW_UART_PC.c ****             SW_UART_PC_pinPortNumber = port;
 102:.\Generated_Source\PSoC4/SW_UART_PC.c ****         }
ARM GAS  C:\Users\Petro\AppData\Local\Temp\cc1ayeyf.s 			page 4


 103:.\Generated_Source\PSoC4/SW_UART_PC.c ****     }
 104:.\Generated_Source\PSoC4/SW_UART_PC.c **** #endif /* (SW_UART_PC_PIN_STATIC_MODE == 1u) */
 105:.\Generated_Source\PSoC4/SW_UART_PC.c **** 
 106:.\Generated_Source\PSoC4/SW_UART_PC.c **** 
 107:.\Generated_Source\PSoC4/SW_UART_PC.c **** /*******************************************************************************
 108:.\Generated_Source\PSoC4/SW_UART_PC.c **** * Function Name: SW_UART_PC_Stop
 109:.\Generated_Source\PSoC4/SW_UART_PC.c **** ********************************************************************************
 110:.\Generated_Source\PSoC4/SW_UART_PC.c **** *
 111:.\Generated_Source\PSoC4/SW_UART_PC.c **** * Summary:
 112:.\Generated_Source\PSoC4/SW_UART_PC.c **** *  Empty function. Included for consistency with other components.
 113:.\Generated_Source\PSoC4/SW_UART_PC.c **** *
 114:.\Generated_Source\PSoC4/SW_UART_PC.c **** * Parameters:
 115:.\Generated_Source\PSoC4/SW_UART_PC.c **** *  None
 116:.\Generated_Source\PSoC4/SW_UART_PC.c **** *
 117:.\Generated_Source\PSoC4/SW_UART_PC.c **** * Return:
 118:.\Generated_Source\PSoC4/SW_UART_PC.c **** *  None
 119:.\Generated_Source\PSoC4/SW_UART_PC.c **** *
 120:.\Generated_Source\PSoC4/SW_UART_PC.c **** *******************************************************************************/
 121:.\Generated_Source\PSoC4/SW_UART_PC.c **** void SW_UART_PC_Stop(void) 
 122:.\Generated_Source\PSoC4/SW_UART_PC.c **** {
  70              		.loc 1 122 0
  71              		.cfi_startproc
  72 0000 80B5     		push	{r7, lr}
  73              		.cfi_def_cfa_offset 8
  74              		.cfi_offset 7, -8
  75              		.cfi_offset 14, -4
  76 0002 00AF     		add	r7, sp, #0
  77              		.cfi_def_cfa_register 7
 123:.\Generated_Source\PSoC4/SW_UART_PC.c **** 
 124:.\Generated_Source\PSoC4/SW_UART_PC.c **** }
  78              		.loc 1 124 0
  79 0004 BD46     		mov	sp, r7
  80              		@ sp needed
  81 0006 80BD     		pop	{r7, pc}
  82              		.cfi_endproc
  83              	.LFE1:
  84              		.size	SW_UART_PC_Stop, .-SW_UART_PC_Stop
  85              		.section	.text.SW_UART_PC_PutString,"ax",%progbits
  86              		.align	2
  87              		.global	SW_UART_PC_PutString
  88              		.code	16
  89              		.thumb_func
  90              		.type	SW_UART_PC_PutString, %function
  91              	SW_UART_PC_PutString:
  92              	.LFB2:
 125:.\Generated_Source\PSoC4/SW_UART_PC.c **** 
 126:.\Generated_Source\PSoC4/SW_UART_PC.c **** 
 127:.\Generated_Source\PSoC4/SW_UART_PC.c **** /*******************************************************************************
 128:.\Generated_Source\PSoC4/SW_UART_PC.c **** * Function Name: SW_UART_PC_PutString
 129:.\Generated_Source\PSoC4/SW_UART_PC.c **** ********************************************************************************
 130:.\Generated_Source\PSoC4/SW_UART_PC.c **** *
 131:.\Generated_Source\PSoC4/SW_UART_PC.c **** * Summary:
 132:.\Generated_Source\PSoC4/SW_UART_PC.c **** *  Sends a NULL terminated string via the Tx pin.
 133:.\Generated_Source\PSoC4/SW_UART_PC.c **** *
 134:.\Generated_Source\PSoC4/SW_UART_PC.c **** * Parameters:
 135:.\Generated_Source\PSoC4/SW_UART_PC.c **** *  string: Pointer to the null terminated string to send
 136:.\Generated_Source\PSoC4/SW_UART_PC.c **** *
ARM GAS  C:\Users\Petro\AppData\Local\Temp\cc1ayeyf.s 			page 5


 137:.\Generated_Source\PSoC4/SW_UART_PC.c **** * Return:
 138:.\Generated_Source\PSoC4/SW_UART_PC.c **** *  None
 139:.\Generated_Source\PSoC4/SW_UART_PC.c **** *
 140:.\Generated_Source\PSoC4/SW_UART_PC.c **** *******************************************************************************/
 141:.\Generated_Source\PSoC4/SW_UART_PC.c **** void SW_UART_PC_PutString(const char8 string[]) 
 142:.\Generated_Source\PSoC4/SW_UART_PC.c **** {
  93              		.loc 1 142 0
  94              		.cfi_startproc
  95 0000 80B5     		push	{r7, lr}
  96              		.cfi_def_cfa_offset 8
  97              		.cfi_offset 7, -8
  98              		.cfi_offset 14, -4
  99 0002 84B0     		sub	sp, sp, #16
 100              		.cfi_def_cfa_offset 24
 101 0004 00AF     		add	r7, sp, #0
 102              		.cfi_def_cfa_register 7
 103 0006 7860     		str	r0, [r7, #4]
 143:.\Generated_Source\PSoC4/SW_UART_PC.c ****     uint8 stringIndex = 1u;
 104              		.loc 1 143 0
 105 0008 0F23     		mov	r3, #15
 106 000a FB18     		add	r3, r7, r3
 107 000c 0122     		mov	r2, #1
 108 000e 1A70     		strb	r2, [r3]
 144:.\Generated_Source\PSoC4/SW_UART_PC.c ****     char8 current = *string;
 109              		.loc 1 144 0
 110 0010 0E23     		mov	r3, #14
 111 0012 FB18     		add	r3, r7, r3
 112 0014 7A68     		ldr	r2, [r7, #4]
 113 0016 1278     		ldrb	r2, [r2]
 114 0018 1A70     		strb	r2, [r3]
 145:.\Generated_Source\PSoC4/SW_UART_PC.c **** 
 146:.\Generated_Source\PSoC4/SW_UART_PC.c ****     /* Until null is reached, print next character */
 147:.\Generated_Source\PSoC4/SW_UART_PC.c ****     while((char8) '\0' != current)
 115              		.loc 1 147 0
 116 001a 15E0     		b	.L4
 117              	.L5:
 148:.\Generated_Source\PSoC4/SW_UART_PC.c ****     {
 149:.\Generated_Source\PSoC4/SW_UART_PC.c ****         SW_UART_PC_PutChar((uint8)current);
 118              		.loc 1 149 0
 119 001c 0E23     		mov	r3, #14
 120 001e FB18     		add	r3, r7, r3
 121 0020 1B78     		ldrb	r3, [r3]
 122 0022 181C     		mov	r0, r3
 123 0024 FFF7FEFF 		bl	SW_UART_PC_PutChar
 150:.\Generated_Source\PSoC4/SW_UART_PC.c ****         current = string[stringIndex];
 124              		.loc 1 150 0
 125 0028 0F23     		mov	r3, #15
 126 002a FB18     		add	r3, r7, r3
 127 002c 1B78     		ldrb	r3, [r3]
 128 002e 7A68     		ldr	r2, [r7, #4]
 129 0030 D218     		add	r2, r2, r3
 130 0032 0E23     		mov	r3, #14
 131 0034 FB18     		add	r3, r7, r3
 132 0036 1278     		ldrb	r2, [r2]
 133 0038 1A70     		strb	r2, [r3]
 151:.\Generated_Source\PSoC4/SW_UART_PC.c ****         stringIndex++;
 134              		.loc 1 151 0
ARM GAS  C:\Users\Petro\AppData\Local\Temp\cc1ayeyf.s 			page 6


 135 003a 0F23     		mov	r3, #15
 136 003c FB18     		add	r3, r7, r3
 137 003e 1A78     		ldrb	r2, [r3]
 138 0040 0F23     		mov	r3, #15
 139 0042 FB18     		add	r3, r7, r3
 140 0044 0132     		add	r2, r2, #1
 141 0046 1A70     		strb	r2, [r3]
 142              	.L4:
 147:.\Generated_Source\PSoC4/SW_UART_PC.c ****     {
 143              		.loc 1 147 0
 144 0048 0E23     		mov	r3, #14
 145 004a FB18     		add	r3, r7, r3
 146 004c 1B78     		ldrb	r3, [r3]
 147 004e 002B     		cmp	r3, #0
 148 0050 E4D1     		bne	.L5
 152:.\Generated_Source\PSoC4/SW_UART_PC.c ****     }
 153:.\Generated_Source\PSoC4/SW_UART_PC.c **** }
 149              		.loc 1 153 0
 150 0052 BD46     		mov	sp, r7
 151 0054 04B0     		add	sp, sp, #16
 152              		@ sp needed
 153 0056 80BD     		pop	{r7, pc}
 154              		.cfi_endproc
 155              	.LFE2:
 156              		.size	SW_UART_PC_PutString, .-SW_UART_PC_PutString
 157              		.section	.text.SW_UART_PC_PutArray,"ax",%progbits
 158              		.align	2
 159              		.global	SW_UART_PC_PutArray
 160              		.code	16
 161              		.thumb_func
 162              		.type	SW_UART_PC_PutArray, %function
 163              	SW_UART_PC_PutArray:
 164              	.LFB3:
 154:.\Generated_Source\PSoC4/SW_UART_PC.c **** 
 155:.\Generated_Source\PSoC4/SW_UART_PC.c **** 
 156:.\Generated_Source\PSoC4/SW_UART_PC.c **** /*******************************************************************************
 157:.\Generated_Source\PSoC4/SW_UART_PC.c **** * Function Name: SW_UART_PC_PutArray
 158:.\Generated_Source\PSoC4/SW_UART_PC.c **** ********************************************************************************
 159:.\Generated_Source\PSoC4/SW_UART_PC.c **** *
 160:.\Generated_Source\PSoC4/SW_UART_PC.c **** * Summary:
 161:.\Generated_Source\PSoC4/SW_UART_PC.c **** *  Sends byteCount bytes from a memory array via the Tx pin.
 162:.\Generated_Source\PSoC4/SW_UART_PC.c **** *
 163:.\Generated_Source\PSoC4/SW_UART_PC.c **** * Parameters:
 164:.\Generated_Source\PSoC4/SW_UART_PC.c **** *  data: Pointer to the memory array
 165:.\Generated_Source\PSoC4/SW_UART_PC.c **** *  byteCount: Number of bytes to be transmitted
 166:.\Generated_Source\PSoC4/SW_UART_PC.c **** *
 167:.\Generated_Source\PSoC4/SW_UART_PC.c **** * Return:
 168:.\Generated_Source\PSoC4/SW_UART_PC.c **** *  None
 169:.\Generated_Source\PSoC4/SW_UART_PC.c **** *
 170:.\Generated_Source\PSoC4/SW_UART_PC.c **** *******************************************************************************/
 171:.\Generated_Source\PSoC4/SW_UART_PC.c **** void SW_UART_PC_PutArray(const uint8 array[], uint32 byteCount) 
 172:.\Generated_Source\PSoC4/SW_UART_PC.c **** {
 165              		.loc 1 172 0
 166              		.cfi_startproc
 167 0000 80B5     		push	{r7, lr}
 168              		.cfi_def_cfa_offset 8
 169              		.cfi_offset 7, -8
ARM GAS  C:\Users\Petro\AppData\Local\Temp\cc1ayeyf.s 			page 7


 170              		.cfi_offset 14, -4
 171 0002 84B0     		sub	sp, sp, #16
 172              		.cfi_def_cfa_offset 24
 173 0004 00AF     		add	r7, sp, #0
 174              		.cfi_def_cfa_register 7
 175 0006 7860     		str	r0, [r7, #4]
 176 0008 3960     		str	r1, [r7]
 173:.\Generated_Source\PSoC4/SW_UART_PC.c ****     uint32 arrayIndex;
 174:.\Generated_Source\PSoC4/SW_UART_PC.c **** 
 175:.\Generated_Source\PSoC4/SW_UART_PC.c ****     for (arrayIndex = 0u; arrayIndex < byteCount; arrayIndex++)
 177              		.loc 1 175 0
 178 000a 0023     		mov	r3, #0
 179 000c FB60     		str	r3, [r7, #12]
 180 000e 09E0     		b	.L7
 181              	.L8:
 176:.\Generated_Source\PSoC4/SW_UART_PC.c ****     {
 177:.\Generated_Source\PSoC4/SW_UART_PC.c ****         SW_UART_PC_PutChar(array[arrayIndex]);
 182              		.loc 1 177 0 discriminator 3
 183 0010 7A68     		ldr	r2, [r7, #4]
 184 0012 FB68     		ldr	r3, [r7, #12]
 185 0014 D318     		add	r3, r2, r3
 186 0016 1B78     		ldrb	r3, [r3]
 187 0018 181C     		mov	r0, r3
 188 001a FFF7FEFF 		bl	SW_UART_PC_PutChar
 175:.\Generated_Source\PSoC4/SW_UART_PC.c ****     {
 189              		.loc 1 175 0 discriminator 3
 190 001e FB68     		ldr	r3, [r7, #12]
 191 0020 0133     		add	r3, r3, #1
 192 0022 FB60     		str	r3, [r7, #12]
 193              	.L7:
 175:.\Generated_Source\PSoC4/SW_UART_PC.c ****     {
 194              		.loc 1 175 0 is_stmt 0 discriminator 1
 195 0024 FA68     		ldr	r2, [r7, #12]
 196 0026 3B68     		ldr	r3, [r7]
 197 0028 9A42     		cmp	r2, r3
 198 002a F1D3     		bcc	.L8
 178:.\Generated_Source\PSoC4/SW_UART_PC.c ****     }
 179:.\Generated_Source\PSoC4/SW_UART_PC.c **** }
 199              		.loc 1 179 0 is_stmt 1
 200 002c BD46     		mov	sp, r7
 201 002e 04B0     		add	sp, sp, #16
 202              		@ sp needed
 203 0030 80BD     		pop	{r7, pc}
 204              		.cfi_endproc
 205              	.LFE3:
 206              		.size	SW_UART_PC_PutArray, .-SW_UART_PC_PutArray
 207 0032 C046     		.section	.text.SW_UART_PC_PutHexByte,"ax",%progbits
 208              		.align	2
 209              		.global	SW_UART_PC_PutHexByte
 210              		.code	16
 211              		.thumb_func
 212              		.type	SW_UART_PC_PutHexByte, %function
 213              	SW_UART_PC_PutHexByte:
 214              	.LFB4:
 180:.\Generated_Source\PSoC4/SW_UART_PC.c **** 
 181:.\Generated_Source\PSoC4/SW_UART_PC.c **** 
 182:.\Generated_Source\PSoC4/SW_UART_PC.c **** /*******************************************************************************
ARM GAS  C:\Users\Petro\AppData\Local\Temp\cc1ayeyf.s 			page 8


 183:.\Generated_Source\PSoC4/SW_UART_PC.c **** * Function Name: SW_UART_PC_PutHexByte
 184:.\Generated_Source\PSoC4/SW_UART_PC.c **** ********************************************************************************
 185:.\Generated_Source\PSoC4/SW_UART_PC.c **** *
 186:.\Generated_Source\PSoC4/SW_UART_PC.c **** * Summary:
 187:.\Generated_Source\PSoC4/SW_UART_PC.c **** *  Sends a byte in Hex representation (two characters, uppercase for A-F) via
 188:.\Generated_Source\PSoC4/SW_UART_PC.c **** *  the Tx pin.
 189:.\Generated_Source\PSoC4/SW_UART_PC.c **** *
 190:.\Generated_Source\PSoC4/SW_UART_PC.c **** * Parameters:
 191:.\Generated_Source\PSoC4/SW_UART_PC.c **** *  TxHexByte: The byte to be converted to ASCII characters and
 192:.\Generated_Source\PSoC4/SW_UART_PC.c **** *             sent via the Tx pin.
 193:.\Generated_Source\PSoC4/SW_UART_PC.c **** *
 194:.\Generated_Source\PSoC4/SW_UART_PC.c **** * Return:
 195:.\Generated_Source\PSoC4/SW_UART_PC.c **** *  None
 196:.\Generated_Source\PSoC4/SW_UART_PC.c **** *
 197:.\Generated_Source\PSoC4/SW_UART_PC.c **** *******************************************************************************/
 198:.\Generated_Source\PSoC4/SW_UART_PC.c **** void SW_UART_PC_PutHexByte(uint8 txHexByte) 
 199:.\Generated_Source\PSoC4/SW_UART_PC.c **** {
 215              		.loc 1 199 0
 216              		.cfi_startproc
 217 0000 80B5     		push	{r7, lr}
 218              		.cfi_def_cfa_offset 8
 219              		.cfi_offset 7, -8
 220              		.cfi_offset 14, -4
 221 0002 82B0     		sub	sp, sp, #8
 222              		.cfi_def_cfa_offset 16
 223 0004 00AF     		add	r7, sp, #0
 224              		.cfi_def_cfa_register 7
 225 0006 021C     		mov	r2, r0
 226 0008 FB1D     		add	r3, r7, #7
 227 000a 1A70     		strb	r2, [r3]
 200:.\Generated_Source\PSoC4/SW_UART_PC.c ****     static char8 const CYCODE SW_UART_PC_hex[] = "0123456789ABCDEF";
 201:.\Generated_Source\PSoC4/SW_UART_PC.c **** 
 202:.\Generated_Source\PSoC4/SW_UART_PC.c ****     SW_UART_PC_PutChar((uint8) SW_UART_PC_hex[txHexByte >> SW_UART_PC_BYTE_UPPER_NIBBLE_SHIFT]);
 228              		.loc 1 202 0
 229 000c FB1D     		add	r3, r7, #7
 230 000e 1B78     		ldrb	r3, [r3]
 231 0010 1B09     		lsr	r3, r3, #4
 232 0012 DBB2     		uxtb	r3, r3
 233 0014 1A1C     		mov	r2, r3
 234 0016 084B     		ldr	r3, .L10
 235 0018 9B5C     		ldrb	r3, [r3, r2]
 236 001a 181C     		mov	r0, r3
 237 001c FFF7FEFF 		bl	SW_UART_PC_PutChar
 203:.\Generated_Source\PSoC4/SW_UART_PC.c ****     SW_UART_PC_PutChar((uint8) SW_UART_PC_hex[txHexByte & SW_UART_PC_BYTE_LOWER_NIBBLE_MASK]);
 238              		.loc 1 203 0
 239 0020 FB1D     		add	r3, r7, #7
 240 0022 1B78     		ldrb	r3, [r3]
 241 0024 0F22     		mov	r2, #15
 242 0026 1340     		and	r3, r2
 243 0028 034A     		ldr	r2, .L10
 244 002a D35C     		ldrb	r3, [r2, r3]
 245 002c 181C     		mov	r0, r3
 246 002e FFF7FEFF 		bl	SW_UART_PC_PutChar
 204:.\Generated_Source\PSoC4/SW_UART_PC.c **** }
 247              		.loc 1 204 0
 248 0032 BD46     		mov	sp, r7
 249 0034 02B0     		add	sp, sp, #8
ARM GAS  C:\Users\Petro\AppData\Local\Temp\cc1ayeyf.s 			page 9


 250              		@ sp needed
 251 0036 80BD     		pop	{r7, pc}
 252              	.L11:
 253              		.align	2
 254              	.L10:
 255 0038 00000000 		.word	SW_UART_PC_hex.4188
 256              		.cfi_endproc
 257              	.LFE4:
 258              		.size	SW_UART_PC_PutHexByte, .-SW_UART_PC_PutHexByte
 259              		.section	.text.SW_UART_PC_PutHexInt,"ax",%progbits
 260              		.align	2
 261              		.global	SW_UART_PC_PutHexInt
 262              		.code	16
 263              		.thumb_func
 264              		.type	SW_UART_PC_PutHexInt, %function
 265              	SW_UART_PC_PutHexInt:
 266              	.LFB5:
 205:.\Generated_Source\PSoC4/SW_UART_PC.c **** 
 206:.\Generated_Source\PSoC4/SW_UART_PC.c **** 
 207:.\Generated_Source\PSoC4/SW_UART_PC.c **** /*******************************************************************************
 208:.\Generated_Source\PSoC4/SW_UART_PC.c **** * Function Name: SW_UART_PC_PutHexInt
 209:.\Generated_Source\PSoC4/SW_UART_PC.c **** ********************************************************************************
 210:.\Generated_Source\PSoC4/SW_UART_PC.c **** *
 211:.\Generated_Source\PSoC4/SW_UART_PC.c **** * Summary:
 212:.\Generated_Source\PSoC4/SW_UART_PC.c **** *  Sends a 16-bit unsigned integer in Hex representation (four characters,
 213:.\Generated_Source\PSoC4/SW_UART_PC.c **** *  uppercase for A-F) via the Tx pin.
 214:.\Generated_Source\PSoC4/SW_UART_PC.c **** *
 215:.\Generated_Source\PSoC4/SW_UART_PC.c **** * Parameters:
 216:.\Generated_Source\PSoC4/SW_UART_PC.c **** *  TxHexInt: The uint16 to be converted to ASCII characters and sent via
 217:.\Generated_Source\PSoC4/SW_UART_PC.c **** *            the Tx pin.
 218:.\Generated_Source\PSoC4/SW_UART_PC.c **** *
 219:.\Generated_Source\PSoC4/SW_UART_PC.c **** * Return:
 220:.\Generated_Source\PSoC4/SW_UART_PC.c **** *  None
 221:.\Generated_Source\PSoC4/SW_UART_PC.c **** *
 222:.\Generated_Source\PSoC4/SW_UART_PC.c **** *******************************************************************************/
 223:.\Generated_Source\PSoC4/SW_UART_PC.c **** void SW_UART_PC_PutHexInt(uint16 txHexInt) 
 224:.\Generated_Source\PSoC4/SW_UART_PC.c **** {
 267              		.loc 1 224 0
 268              		.cfi_startproc
 269 0000 80B5     		push	{r7, lr}
 270              		.cfi_def_cfa_offset 8
 271              		.cfi_offset 7, -8
 272              		.cfi_offset 14, -4
 273 0002 82B0     		sub	sp, sp, #8
 274              		.cfi_def_cfa_offset 16
 275 0004 00AF     		add	r7, sp, #0
 276              		.cfi_def_cfa_register 7
 277 0006 021C     		mov	r2, r0
 278 0008 BB1D     		add	r3, r7, #6
 279 000a 1A80     		strh	r2, [r3]
 225:.\Generated_Source\PSoC4/SW_UART_PC.c ****     SW_UART_PC_PutHexByte((uint8)(txHexInt >> SW_UART_PC_U16_UPPER_BYTE_SHIFT));
 280              		.loc 1 225 0
 281 000c BB1D     		add	r3, r7, #6
 282 000e 1B88     		ldrh	r3, [r3]
 283 0010 1B0A     		lsr	r3, r3, #8
 284 0012 9BB2     		uxth	r3, r3
 285 0014 DBB2     		uxtb	r3, r3
ARM GAS  C:\Users\Petro\AppData\Local\Temp\cc1ayeyf.s 			page 10


 286 0016 181C     		mov	r0, r3
 287 0018 FFF7FEFF 		bl	SW_UART_PC_PutHexByte
 226:.\Generated_Source\PSoC4/SW_UART_PC.c ****     SW_UART_PC_PutHexByte((uint8)(txHexInt & SW_UART_PC_U16_LOWER_BYTE_MASK));
 288              		.loc 1 226 0
 289 001c BB1D     		add	r3, r7, #6
 290 001e 1B88     		ldrh	r3, [r3]
 291 0020 DBB2     		uxtb	r3, r3
 292 0022 181C     		mov	r0, r3
 293 0024 FFF7FEFF 		bl	SW_UART_PC_PutHexByte
 227:.\Generated_Source\PSoC4/SW_UART_PC.c **** }
 294              		.loc 1 227 0
 295 0028 BD46     		mov	sp, r7
 296 002a 02B0     		add	sp, sp, #8
 297              		@ sp needed
 298 002c 80BD     		pop	{r7, pc}
 299              		.cfi_endproc
 300              	.LFE5:
 301              		.size	SW_UART_PC_PutHexInt, .-SW_UART_PC_PutHexInt
 302 002e C046     		.section	.text.SW_UART_PC_PutCRLF,"ax",%progbits
 303              		.align	2
 304              		.global	SW_UART_PC_PutCRLF
 305              		.code	16
 306              		.thumb_func
 307              		.type	SW_UART_PC_PutCRLF, %function
 308              	SW_UART_PC_PutCRLF:
 309              	.LFB6:
 228:.\Generated_Source\PSoC4/SW_UART_PC.c **** 
 229:.\Generated_Source\PSoC4/SW_UART_PC.c **** 
 230:.\Generated_Source\PSoC4/SW_UART_PC.c **** /*******************************************************************************
 231:.\Generated_Source\PSoC4/SW_UART_PC.c **** * Function Name: SW_UART_PC_PutCRLF
 232:.\Generated_Source\PSoC4/SW_UART_PC.c **** ********************************************************************************
 233:.\Generated_Source\PSoC4/SW_UART_PC.c **** *
 234:.\Generated_Source\PSoC4/SW_UART_PC.c **** * Summary:
 235:.\Generated_Source\PSoC4/SW_UART_PC.c **** *  Sends a carriage return (0x0D) and a line feed (0x0A) via the Tx pin.
 236:.\Generated_Source\PSoC4/SW_UART_PC.c **** *
 237:.\Generated_Source\PSoC4/SW_UART_PC.c **** * Parameters:
 238:.\Generated_Source\PSoC4/SW_UART_PC.c **** *  None
 239:.\Generated_Source\PSoC4/SW_UART_PC.c **** *
 240:.\Generated_Source\PSoC4/SW_UART_PC.c **** * Return:
 241:.\Generated_Source\PSoC4/SW_UART_PC.c **** *  None
 242:.\Generated_Source\PSoC4/SW_UART_PC.c **** *
 243:.\Generated_Source\PSoC4/SW_UART_PC.c **** *******************************************************************************/
 244:.\Generated_Source\PSoC4/SW_UART_PC.c **** void SW_UART_PC_PutCRLF(void) 
 245:.\Generated_Source\PSoC4/SW_UART_PC.c **** {
 310              		.loc 1 245 0
 311              		.cfi_startproc
 312 0000 80B5     		push	{r7, lr}
 313              		.cfi_def_cfa_offset 8
 314              		.cfi_offset 7, -8
 315              		.cfi_offset 14, -4
 316 0002 00AF     		add	r7, sp, #0
 317              		.cfi_def_cfa_register 7
 246:.\Generated_Source\PSoC4/SW_UART_PC.c ****     SW_UART_PC_PutChar(0x0Du);
 318              		.loc 1 246 0
 319 0004 0D20     		mov	r0, #13
 320 0006 FFF7FEFF 		bl	SW_UART_PC_PutChar
 247:.\Generated_Source\PSoC4/SW_UART_PC.c ****     SW_UART_PC_PutChar(0x0Au);
ARM GAS  C:\Users\Petro\AppData\Local\Temp\cc1ayeyf.s 			page 11


 321              		.loc 1 247 0
 322 000a 0A20     		mov	r0, #10
 323 000c FFF7FEFF 		bl	SW_UART_PC_PutChar
 248:.\Generated_Source\PSoC4/SW_UART_PC.c **** }
 324              		.loc 1 248 0
 325 0010 BD46     		mov	sp, r7
 326              		@ sp needed
 327 0012 80BD     		pop	{r7, pc}
 328              		.cfi_endproc
 329              	.LFE6:
 330              		.size	SW_UART_PC_PutCRLF, .-SW_UART_PC_PutCRLF
 331              		.section	.rodata
 332              		.align	2
 333              		.type	SW_UART_PC_hex.4188, %object
 334              		.size	SW_UART_PC_hex.4188, 17
 335              	SW_UART_PC_hex.4188:
 336 0000 30313233 		.ascii	"0123456789ABCDEF\000"
 336      34353637 
 336      38394142 
 336      43444546 
 336      00
 337 0011 000000   		.text
 338              	.Letext0:
 339              		.file 2 ".\\Generated_Source\\PSoC4\\cytypes.h"