ARM GAS  C:\Users\Petro\AppData\Local\Temp\cceRirEh.s 			page 1


   1              		.cpu cortex-m0
   2              		.fpu softvfp
   3              		.eabi_attribute 20, 1
   4              		.eabi_attribute 21, 1
   5              		.eabi_attribute 23, 3
   6              		.eabi_attribute 24, 1
   7              		.eabi_attribute 25, 1
   8              		.eabi_attribute 26, 1
   9              		.eabi_attribute 30, 6
  10              		.eabi_attribute 34, 0
  11              		.eabi_attribute 18, 4
  12              		.code	16
  13              		.file	"testMode.c"
  14              		.text
  15              	.Ltext0:
  16              		.cfi_sections	.debug_frame
  17              		.global	statusTestMode
  18              		.bss
  19              		.type	statusTestMode, %object
  20              		.size	statusTestMode, 1
  21              	statusTestMode:
  22 0000 00       		.space	1
  23              		.global	switchState
  24              		.data
  25              		.type	switchState, %object
  26              		.size	switchState, 1
  27              	switchState:
  28 0000 03       		.byte	3
  29              		.global	networkState
  30              		.type	networkState, %object
  31              		.size	networkState, 1
  32              	networkState:
  33 0001 03       		.byte	3
  34              		.bss
  35              	enableTestMode:
  36 0001 00       		.space	1
  37              		.section	.text.testModeHandler,"ax",%progbits
  38              		.align	2
  39              		.global	testModeHandler
  40              		.code	16
  41              		.thumb_func
  42              		.type	testModeHandler, %function
  43              	testModeHandler:
  44              	.LFB63:
  45              		.file 1 "lib_testMode\\testMode.c"
   1:lib_testMode/testMode.c **** #include "project.h"
   2:lib_testMode/testMode.c **** #include <stdlib.h>
   3:lib_testMode/testMode.c **** 
   4:lib_testMode/testMode.c **** #include <stdio.h>
   5:lib_testMode/testMode.c **** #include <lib_Display\Display.h>
   6:lib_testMode/testMode.c **** #include <lib_Network\network.h>
   7:lib_testMode/testMode.c **** #include <lib_Testmode\testMode.h>
   8:lib_testMode/testMode.c **** 
   9:lib_testMode/testMode.c **** #define COUNTER_TEST_MODE_ON   20
  10:lib_testMode/testMode.c **** 
  11:lib_testMode/testMode.c **** enum status {STOPPED=0, RUN};
  12:lib_testMode/testMode.c **** typedef enum {HIGH_LEVEL, RISING_EDGE, FALLING_EDGE, LOW_LEVEL}funcReturnValue;
ARM GAS  C:\Users\Petro\AppData\Local\Temp\cceRirEh.s 			page 2


  13:lib_testMode/testMode.c **** 
  14:lib_testMode/testMode.c **** uint8_t statusTestMode = STOPPED;
  15:lib_testMode/testMode.c **** 
  16:lib_testMode/testMode.c **** funcReturnValue switchState = LOW_LEVEL;
  17:lib_testMode/testMode.c **** funcReturnValue networkState = LOW_LEVEL;
  18:lib_testMode/testMode.c **** 
  19:lib_testMode/testMode.c **** funcReturnValue ReadSwitchState();
  20:lib_testMode/testMode.c **** funcReturnValue ReadNetworkState();
  21:lib_testMode/testMode.c **** 
  22:lib_testMode/testMode.c **** static uint8_t enableTestMode;
  23:lib_testMode/testMode.c **** 
  24:lib_testMode/testMode.c **** CY_ISR(testModeHandler)
  25:lib_testMode/testMode.c **** {
  46              		.loc 1 25 0
  47              		.cfi_startproc
  48 0000 80B5     		push	{r7, lr}
  49              		.cfi_def_cfa_offset 8
  50              		.cfi_offset 7, -8
  51              		.cfi_offset 14, -4
  52 0002 00AF     		add	r7, sp, #0
  53              		.cfi_def_cfa_register 7
  26:lib_testMode/testMode.c ****     Pin_testMode_Write(0);
  54              		.loc 1 26 0
  55 0004 0020     		mov	r0, #0
  56 0006 FFF7FEFF 		bl	Pin_testMode_Write
  27:lib_testMode/testMode.c ****     Pin_testMode_Write(1);
  57              		.loc 1 27 0
  58 000a 0120     		mov	r0, #1
  59 000c FFF7FEFF 		bl	Pin_testMode_Write
  28:lib_testMode/testMode.c ****     
  29:lib_testMode/testMode.c ****     TimerTestMode_ClearInterrupt(TimerTestMode_INTR_MASK_CC_MATCH);
  60              		.loc 1 29 0
  61 0010 0220     		mov	r0, #2
  62 0012 FFF7FEFF 		bl	TimerTestMode_ClearInterrupt
  30:lib_testMode/testMode.c ****     statusTestMode = STOPPED;
  63              		.loc 1 30 0
  64 0016 024B     		ldr	r3, .L2
  65 0018 0022     		mov	r2, #0
  66 001a 1A70     		strb	r2, [r3]
  31:lib_testMode/testMode.c **** }
  67              		.loc 1 31 0
  68 001c BD46     		mov	sp, r7
  69              		@ sp needed
  70 001e 80BD     		pop	{r7, pc}
  71              	.L3:
  72              		.align	2
  73              	.L2:
  74 0020 00000000 		.word	statusTestMode
  75              		.cfi_endproc
  76              	.LFE63:
  77              		.size	testModeHandler, .-testModeHandler
  78              		.section	.text.TestMode,"ax",%progbits
  79              		.align	2
  80              		.global	TestMode
  81              		.code	16
  82              		.thumb_func
  83              		.type	TestMode, %function
ARM GAS  C:\Users\Petro\AppData\Local\Temp\cceRirEh.s 			page 3


  84              	TestMode:
  85              	.LFB64:
  32:lib_testMode/testMode.c **** 
  33:lib_testMode/testMode.c **** 
  34:lib_testMode/testMode.c **** void TestMode()
  35:lib_testMode/testMode.c **** {   
  86              		.loc 1 35 0
  87              		.cfi_startproc
  88 0000 80B5     		push	{r7, lr}
  89              		.cfi_def_cfa_offset 8
  90              		.cfi_offset 7, -8
  91              		.cfi_offset 14, -4
  92 0002 00AF     		add	r7, sp, #0
  93              		.cfi_def_cfa_register 7
  36:lib_testMode/testMode.c ****     ReadSwitchState();
  94              		.loc 1 36 0
  95 0004 FFF7FEFF 		bl	ReadSwitchState
  37:lib_testMode/testMode.c ****     ReadNetworkState();
  96              		.loc 1 37 0
  97 0008 FFF7FEFF 		bl	ReadNetworkState
  38:lib_testMode/testMode.c ****     
  39:lib_testMode/testMode.c ****     if(switchState == RISING_EDGE || networkState == RISING_EDGE)   //enable test mode
  98              		.loc 1 39 0
  99 000c 374B     		ldr	r3, .L11
 100 000e 1B78     		ldrb	r3, [r3]
 101 0010 012B     		cmp	r3, #1
 102 0012 03D0     		beq	.L5
 103              		.loc 1 39 0 is_stmt 0 discriminator 1
 104 0014 364B     		ldr	r3, .L11+4
 105 0016 1B78     		ldrb	r3, [r3]
 106 0018 012B     		cmp	r3, #1
 107 001a 1ED1     		bne	.L6
 108              	.L5:
  40:lib_testMode/testMode.c ****     {
  41:lib_testMode/testMode.c ****         DisplayTestMode(1);
 109              		.loc 1 41 0 is_stmt 1
 110 001c 0120     		mov	r0, #1
 111 001e FFF7FEFF 		bl	DisplayTestMode
  42:lib_testMode/testMode.c ****         NetworkSendTestModeStatus(1);
 112              		.loc 1 42 0
 113 0022 0120     		mov	r0, #1
 114 0024 FFF7FEFF 		bl	NetworkSendTestModeStatus
  43:lib_testMode/testMode.c ****         statusTestMode = STOPPED;
 115              		.loc 1 43 0
 116 0028 324B     		ldr	r3, .L11+8
 117 002a 0022     		mov	r2, #0
 118 002c 1A70     		strb	r2, [r3]
  44:lib_testMode/testMode.c ****         if(networkState == RISING_EDGE && switchState == LOW_LEVEL)
 119              		.loc 1 44 0
 120 002e 304B     		ldr	r3, .L11+4
 121 0030 1B78     		ldrb	r3, [r3]
 122 0032 012B     		cmp	r3, #1
 123 0034 06D1     		bne	.L7
 124              		.loc 1 44 0 is_stmt 0 discriminator 1
 125 0036 2D4B     		ldr	r3, .L11
 126 0038 1B78     		ldrb	r3, [r3]
 127 003a 032B     		cmp	r3, #3
ARM GAS  C:\Users\Petro\AppData\Local\Temp\cceRirEh.s 			page 4


 128 003c 02D1     		bne	.L7
  45:lib_testMode/testMode.c ****             switchState = RISING_EDGE;
 129              		.loc 1 45 0 is_stmt 1
 130 003e 2B4B     		ldr	r3, .L11
 131 0040 0122     		mov	r2, #1
 132 0042 1A70     		strb	r2, [r3]
 133              	.L7:
  46:lib_testMode/testMode.c ****         if(networkState == LOW_LEVEL && switchState == RISING_EDGE)
 134              		.loc 1 46 0
 135 0044 2A4B     		ldr	r3, .L11+4
 136 0046 1B78     		ldrb	r3, [r3]
 137 0048 032B     		cmp	r3, #3
 138 004a 06D1     		bne	.L6
 139              		.loc 1 46 0 is_stmt 0 discriminator 1
 140 004c 274B     		ldr	r3, .L11
 141 004e 1B78     		ldrb	r3, [r3]
 142 0050 012B     		cmp	r3, #1
 143 0052 02D1     		bne	.L6
  47:lib_testMode/testMode.c ****             networkState = RISING_EDGE;
 144              		.loc 1 47 0 is_stmt 1
 145 0054 264B     		ldr	r3, .L11+4
 146 0056 0122     		mov	r2, #1
 147 0058 1A70     		strb	r2, [r3]
 148              	.L6:
  48:lib_testMode/testMode.c ****     }
  49:lib_testMode/testMode.c ****     if(/*switchState == FALLING_EDGE ||*/ networkState == FALLING_EDGE)        //disable test mode
 149              		.loc 1 49 0
 150 005a 254B     		ldr	r3, .L11+4
 151 005c 1B78     		ldrb	r3, [r3]
 152 005e 022B     		cmp	r3, #2
 153 0060 20D1     		bne	.L8
  50:lib_testMode/testMode.c ****     {
  51:lib_testMode/testMode.c ****         TimerTestMode_Stop();
 154              		.loc 1 51 0
 155 0062 FFF7FEFF 		bl	TimerTestMode_Stop
  52:lib_testMode/testMode.c ****         DisplayTestMode(0);
 156              		.loc 1 52 0
 157 0066 0020     		mov	r0, #0
 158 0068 FFF7FEFF 		bl	DisplayTestMode
  53:lib_testMode/testMode.c ****         NetworkSendTestModeStatus(0);
 159              		.loc 1 53 0
 160 006c 0020     		mov	r0, #0
 161 006e FFF7FEFF 		bl	NetworkSendTestModeStatus
  54:lib_testMode/testMode.c ****         statusTestMode = STOPPED;
 162              		.loc 1 54 0
 163 0072 204B     		ldr	r3, .L11+8
 164 0074 0022     		mov	r2, #0
 165 0076 1A70     		strb	r2, [r3]
  55:lib_testMode/testMode.c ****         if(networkState == FALLING_EDGE && switchState != FALLING_EDGE)
 166              		.loc 1 55 0
 167 0078 1D4B     		ldr	r3, .L11+4
 168 007a 1B78     		ldrb	r3, [r3]
 169 007c 022B     		cmp	r3, #2
 170 007e 06D1     		bne	.L9
 171              		.loc 1 55 0 is_stmt 0 discriminator 1
 172 0080 1A4B     		ldr	r3, .L11
 173 0082 1B78     		ldrb	r3, [r3]
ARM GAS  C:\Users\Petro\AppData\Local\Temp\cceRirEh.s 			page 5


 174 0084 022B     		cmp	r3, #2
 175 0086 02D0     		beq	.L9
  56:lib_testMode/testMode.c ****             switchState = LOW_LEVEL;
 176              		.loc 1 56 0 is_stmt 1
 177 0088 184B     		ldr	r3, .L11
 178 008a 0322     		mov	r2, #3
 179 008c 1A70     		strb	r2, [r3]
 180              	.L9:
  57:lib_testMode/testMode.c ****         if(networkState != FALLING_EDGE && switchState == FALLING_EDGE)
 181              		.loc 1 57 0
 182 008e 184B     		ldr	r3, .L11+4
 183 0090 1B78     		ldrb	r3, [r3]
 184 0092 022B     		cmp	r3, #2
 185 0094 06D0     		beq	.L8
 186              		.loc 1 57 0 is_stmt 0 discriminator 1
 187 0096 154B     		ldr	r3, .L11
 188 0098 1B78     		ldrb	r3, [r3]
 189 009a 022B     		cmp	r3, #2
 190 009c 02D1     		bne	.L8
  58:lib_testMode/testMode.c ****             networkState = LOW_LEVEL;
 191              		.loc 1 58 0 is_stmt 1
 192 009e 144B     		ldr	r3, .L11+4
 193 00a0 0322     		mov	r2, #3
 194 00a2 1A70     		strb	r2, [r3]
 195              	.L8:
  59:lib_testMode/testMode.c ****     }
  60:lib_testMode/testMode.c ****     //else    
  61:lib_testMode/testMode.c ****     //{
  62:lib_testMode/testMode.c ****     /*update test mode*/
  63:lib_testMode/testMode.c ****     if(networkState == HIGH_LEVEL && switchState == HIGH_LEVEL )
 196              		.loc 1 63 0
 197 00a4 124B     		ldr	r3, .L11+4
 198 00a6 1B78     		ldrb	r3, [r3]
 199 00a8 002B     		cmp	r3, #0
 200 00aa 1CD1     		bne	.L4
 201              		.loc 1 63 0 is_stmt 0 discriminator 1
 202 00ac 0F4B     		ldr	r3, .L11
 203 00ae 1B78     		ldrb	r3, [r3]
 204 00b0 002B     		cmp	r3, #0
 205 00b2 18D1     		bne	.L4
  64:lib_testMode/testMode.c ****     {
  65:lib_testMode/testMode.c ****         if(NetworkStatus() != NETWORK_DISCONN && FinWriteInDB() != NO_WRITE && FinReady() != NO_REA
 206              		.loc 1 65 0 is_stmt 1
 207 00b4 FFF7FEFF 		bl	NetworkStatus
 208 00b8 031E     		sub	r3, r0, #0
 209 00ba 14D0     		beq	.L4
 210              		.loc 1 65 0 is_stmt 0 discriminator 1
 211 00bc FFF7FEFF 		bl	FinWriteInDB
 212 00c0 031E     		sub	r3, r0, #0
 213 00c2 10D0     		beq	.L4
 214              		.loc 1 65 0 discriminator 2
 215 00c4 FFF7FEFF 		bl	FinReady
 216 00c8 031E     		sub	r3, r0, #0
 217 00ca 0CD0     		beq	.L4
 218              		.loc 1 65 0 discriminator 3
 219 00cc 094B     		ldr	r3, .L11+8
 220 00ce 1B78     		ldrb	r3, [r3]
ARM GAS  C:\Users\Petro\AppData\Local\Temp\cceRirEh.s 			page 6


 221 00d0 002B     		cmp	r3, #0
 222 00d2 08D1     		bne	.L4
  66:lib_testMode/testMode.c ****         {
  67:lib_testMode/testMode.c ****             /*start timer*/
  68:lib_testMode/testMode.c ****             TestMode_UpdateNewRandomTime();
 223              		.loc 1 68 0 is_stmt 1
 224 00d4 FFF7FEFF 		bl	TestMode_UpdateNewRandomTime
  69:lib_testMode/testMode.c ****             Int_timerTestMode_StartEx(testModeHandler);
 225              		.loc 1 69 0
 226 00d8 074B     		ldr	r3, .L11+12
 227 00da 181C     		mov	r0, r3
 228 00dc FFF7FEFF 		bl	Int_timerTestMode_StartEx
  70:lib_testMode/testMode.c ****             statusTestMode = RUN;
 229              		.loc 1 70 0
 230 00e0 044B     		ldr	r3, .L11+8
 231 00e2 0122     		mov	r2, #1
 232 00e4 1A70     		strb	r2, [r3]
 233              	.L4:
  71:lib_testMode/testMode.c ****         }
  72:lib_testMode/testMode.c ****     }
  73:lib_testMode/testMode.c ****     //}
  74:lib_testMode/testMode.c **** }
 234              		.loc 1 74 0
 235 00e6 BD46     		mov	sp, r7
 236              		@ sp needed
 237 00e8 80BD     		pop	{r7, pc}
 238              	.L12:
 239 00ea C046     		.align	2
 240              	.L11:
 241 00ec 00000000 		.word	switchState
 242 00f0 00000000 		.word	networkState
 243 00f4 00000000 		.word	statusTestMode
 244 00f8 00000000 		.word	testModeHandler
 245              		.cfi_endproc
 246              	.LFE64:
 247              		.size	TestMode, .-TestMode
 248              		.global	__aeabi_idivmod
 249              		.section	.text.TestMode_UpdateNewRandomTime,"ax",%progbits
 250              		.align	2
 251              		.global	TestMode_UpdateNewRandomTime
 252              		.code	16
 253              		.thumb_func
 254              		.type	TestMode_UpdateNewRandomTime, %function
 255              	TestMode_UpdateNewRandomTime:
 256              	.LFB65:
  75:lib_testMode/testMode.c **** 
  76:lib_testMode/testMode.c **** 
  77:lib_testMode/testMode.c **** void TestMode_UpdateNewRandomTime()
  78:lib_testMode/testMode.c **** {
 257              		.loc 1 78 0
 258              		.cfi_startproc
 259 0000 80B5     		push	{r7, lr}
 260              		.cfi_def_cfa_offset 8
 261              		.cfi_offset 7, -8
 262              		.cfi_offset 14, -4
 263 0002 82B0     		sub	sp, sp, #8
 264              		.cfi_def_cfa_offset 16
ARM GAS  C:\Users\Petro\AppData\Local\Temp\cceRirEh.s 			page 7


 265 0004 00AF     		add	r7, sp, #0
 266              		.cfi_def_cfa_register 7
  79:lib_testMode/testMode.c ****     uint8_t num;
  80:lib_testMode/testMode.c ****     
  81:lib_testMode/testMode.c ****     num = 30+rand()%60;
 267              		.loc 1 81 0
 268 0006 FFF7FEFF 		bl	rand
 269 000a 031C     		mov	r3, r0
 270 000c 181C     		mov	r0, r3
 271 000e 3C21     		mov	r1, #60
 272 0010 FFF7FEFF 		bl	__aeabi_idivmod
 273 0014 0B1C     		mov	r3, r1
 274 0016 DAB2     		uxtb	r2, r3
 275 0018 FB1D     		add	r3, r7, #7
 276 001a 1E32     		add	r2, r2, #30
 277 001c 1A70     		strb	r2, [r3]
  82:lib_testMode/testMode.c ****     
  83:lib_testMode/testMode.c **** //    char buff[11];
  84:lib_testMode/testMode.c **** //    sprintf(buff,"%d",num);
  85:lib_testMode/testMode.c **** //    Display(buff);
  86:lib_testMode/testMode.c ****     
  87:lib_testMode/testMode.c ****     TimerTestMode_WriteCounter(0);
 278              		.loc 1 87 0
 279 001e 0020     		mov	r0, #0
 280 0020 FFF7FEFF 		bl	TimerTestMode_WriteCounter
  88:lib_testMode/testMode.c ****     TimerTestMode_WriteCompare(num*100);
 281              		.loc 1 88 0
 282 0024 FB1D     		add	r3, r7, #7
 283 0026 1B78     		ldrb	r3, [r3]
 284 0028 6422     		mov	r2, #100
 285 002a 5343     		mul	r3, r2
 286 002c 181C     		mov	r0, r3
 287 002e FFF7FEFF 		bl	TimerTestMode_WriteCompare
  89:lib_testMode/testMode.c ****     TimerTestMode_Start();   
 288              		.loc 1 89 0
 289 0032 FFF7FEFF 		bl	TimerTestMode_Start
  90:lib_testMode/testMode.c **** }
 290              		.loc 1 90 0
 291 0036 BD46     		mov	sp, r7
 292 0038 02B0     		add	sp, sp, #8
 293              		@ sp needed
 294 003a 80BD     		pop	{r7, pc}
 295              		.cfi_endproc
 296              	.LFE65:
 297              		.size	TestMode_UpdateNewRandomTime, .-TestMode_UpdateNewRandomTime
 298              		.section	.text.ReadSwitchState,"ax",%progbits
 299              		.align	2
 300              		.global	ReadSwitchState
 301              		.code	16
 302              		.thumb_func
 303              		.type	ReadSwitchState, %function
 304              	ReadSwitchState:
 305              	.LFB66:
  91:lib_testMode/testMode.c **** 
  92:lib_testMode/testMode.c **** funcReturnValue ReadSwitchState()
  93:lib_testMode/testMode.c **** {  
 306              		.loc 1 93 0
ARM GAS  C:\Users\Petro\AppData\Local\Temp\cceRirEh.s 			page 8


 307              		.cfi_startproc
 308 0000 80B5     		push	{r7, lr}
 309              		.cfi_def_cfa_offset 8
 310              		.cfi_offset 7, -8
 311              		.cfi_offset 14, -4
 312 0002 00AF     		add	r7, sp, #0
 313              		.cfi_def_cfa_register 7
  94:lib_testMode/testMode.c ****     static uint8_t tmpCounter;
  95:lib_testMode/testMode.c ****     
  96:lib_testMode/testMode.c ****     if(SW_RunTestMode_Read() == 0)
 314              		.loc 1 96 0
 315 0004 FFF7FEFF 		bl	SW_RunTestMode_Read
 316 0008 031E     		sub	r3, r0, #0
 317 000a 06D1     		bne	.L15
  97:lib_testMode/testMode.c ****         tmpCounter++;
 318              		.loc 1 97 0
 319 000c 1A4B     		ldr	r3, .L23
 320 000e 1B78     		ldrb	r3, [r3]
 321 0010 0133     		add	r3, r3, #1
 322 0012 DAB2     		uxtb	r2, r3
 323 0014 184B     		ldr	r3, .L23
 324 0016 1A70     		strb	r2, [r3]
 325 0018 02E0     		b	.L16
 326              	.L15:
  98:lib_testMode/testMode.c ****     else
  99:lib_testMode/testMode.c ****         tmpCounter = 0;
 327              		.loc 1 99 0
 328 001a 174B     		ldr	r3, .L23
 329 001c 0022     		mov	r2, #0
 330 001e 1A70     		strb	r2, [r3]
 331              	.L16:
 100:lib_testMode/testMode.c ****     
 101:lib_testMode/testMode.c ****     if(tmpCounter > COUNTER_TEST_MODE_ON)
 332              		.loc 1 101 0
 333 0020 154B     		ldr	r3, .L23
 334 0022 1B78     		ldrb	r3, [r3]
 335 0024 142B     		cmp	r3, #20
 336 0026 12D9     		bls	.L17
 102:lib_testMode/testMode.c ****     {
 103:lib_testMode/testMode.c ****         if(switchState == LOW_LEVEL)switchState = RISING_EDGE;
 337              		.loc 1 103 0
 338 0028 144B     		ldr	r3, .L23+4
 339 002a 1B78     		ldrb	r3, [r3]
 340 002c 032B     		cmp	r3, #3
 341 002e 03D1     		bne	.L18
 342              		.loc 1 103 0 is_stmt 0 discriminator 1
 343 0030 124B     		ldr	r3, .L23+4
 344 0032 0122     		mov	r2, #1
 345 0034 1A70     		strb	r2, [r3]
 346 0036 19E0     		b	.L20
 347              	.L18:
 104:lib_testMode/testMode.c ****         else if(switchState == HIGH_LEVEL)
 348              		.loc 1 104 0 is_stmt 1
 349 0038 104B     		ldr	r3, .L23+4
 350 003a 1B78     		ldrb	r3, [r3]
 351 003c 002B     		cmp	r3, #0
 352 003e 15D1     		bne	.L20
ARM GAS  C:\Users\Petro\AppData\Local\Temp\cceRirEh.s 			page 9


 105:lib_testMode/testMode.c ****         {
 106:lib_testMode/testMode.c ****             switchState = FALLING_EDGE;
 353              		.loc 1 106 0
 354 0040 0E4B     		ldr	r3, .L23+4
 355 0042 0222     		mov	r2, #2
 356 0044 1A70     		strb	r2, [r3]
 107:lib_testMode/testMode.c ****             NetworkSendTestModeStatus(0);
 357              		.loc 1 107 0
 358 0046 0020     		mov	r0, #0
 359 0048 FFF7FEFF 		bl	NetworkSendTestModeStatus
 360 004c 0EE0     		b	.L20
 361              	.L17:
 108:lib_testMode/testMode.c ****         }
 109:lib_testMode/testMode.c ****     }
 110:lib_testMode/testMode.c ****     else
 111:lib_testMode/testMode.c ****     {
 112:lib_testMode/testMode.c ****         if(switchState == RISING_EDGE)switchState = HIGH_LEVEL;
 362              		.loc 1 112 0
 363 004e 0B4B     		ldr	r3, .L23+4
 364 0050 1B78     		ldrb	r3, [r3]
 365 0052 012B     		cmp	r3, #1
 366 0054 03D1     		bne	.L21
 367              		.loc 1 112 0 is_stmt 0 discriminator 1
 368 0056 094B     		ldr	r3, .L23+4
 369 0058 0022     		mov	r2, #0
 370 005a 1A70     		strb	r2, [r3]
 371 005c 06E0     		b	.L20
 372              	.L21:
 113:lib_testMode/testMode.c ****         else if(switchState == FALLING_EDGE)switchState = LOW_LEVEL;
 373              		.loc 1 113 0 is_stmt 1
 374 005e 074B     		ldr	r3, .L23+4
 375 0060 1B78     		ldrb	r3, [r3]
 376 0062 022B     		cmp	r3, #2
 377 0064 02D1     		bne	.L20
 378              		.loc 1 113 0 is_stmt 0 discriminator 1
 379 0066 054B     		ldr	r3, .L23+4
 380 0068 0322     		mov	r2, #3
 381 006a 1A70     		strb	r2, [r3]
 382              	.L20:
 114:lib_testMode/testMode.c ****     }
 115:lib_testMode/testMode.c **** 
 116:lib_testMode/testMode.c ****       
 117:lib_testMode/testMode.c ****     return switchState;
 383              		.loc 1 117 0 is_stmt 1
 384 006c 034B     		ldr	r3, .L23+4
 385 006e 1B78     		ldrb	r3, [r3]
 118:lib_testMode/testMode.c **** }
 386              		.loc 1 118 0
 387 0070 181C     		mov	r0, r3
 388 0072 BD46     		mov	sp, r7
 389              		@ sp needed
 390 0074 80BD     		pop	{r7, pc}
 391              	.L24:
 392 0076 C046     		.align	2
 393              	.L23:
 394 0078 02000000 		.word	tmpCounter.7636
 395 007c 00000000 		.word	switchState
ARM GAS  C:\Users\Petro\AppData\Local\Temp\cceRirEh.s 			page 10


 396              		.cfi_endproc
 397              	.LFE66:
 398              		.size	ReadSwitchState, .-ReadSwitchState
 399              		.section	.text.ReadNetworkState,"ax",%progbits
 400              		.align	2
 401              		.global	ReadNetworkState
 402              		.code	16
 403              		.thumb_func
 404              		.type	ReadNetworkState, %function
 405              	ReadNetworkState:
 406              	.LFB67:
 119:lib_testMode/testMode.c **** 
 120:lib_testMode/testMode.c **** 
 121:lib_testMode/testMode.c **** funcReturnValue ReadNetworkState()
 122:lib_testMode/testMode.c **** {
 407              		.loc 1 122 0
 408              		.cfi_startproc
 409 0000 80B5     		push	{r7, lr}
 410              		.cfi_def_cfa_offset 8
 411              		.cfi_offset 7, -8
 412              		.cfi_offset 14, -4
 413 0002 00AF     		add	r7, sp, #0
 414              		.cfi_def_cfa_register 7
 123:lib_testMode/testMode.c ****     if(networkState == LOW_LEVEL && NetworkReadTestModeStatus()==1)  networkState = RISING_EDGE;
 415              		.loc 1 123 0
 416 0004 1A4B     		ldr	r3, .L31
 417 0006 1B78     		ldrb	r3, [r3]
 418 0008 032B     		cmp	r3, #3
 419 000a 08D1     		bne	.L26
 420              		.loc 1 123 0 is_stmt 0 discriminator 1
 421 000c FFF7FEFF 		bl	NetworkReadTestModeStatus
 422 0010 031E     		sub	r3, r0, #0
 423 0012 012B     		cmp	r3, #1
 424 0014 03D1     		bne	.L26
 425              		.loc 1 123 0 discriminator 2
 426 0016 164B     		ldr	r3, .L31
 427 0018 0122     		mov	r2, #1
 428 001a 1A70     		strb	r2, [r3]
 429 001c 23E0     		b	.L27
 430              	.L26:
 124:lib_testMode/testMode.c ****     else if(networkState == HIGH_LEVEL && NetworkReadTestModeStatus() == 0)  networkState = FALLING
 431              		.loc 1 124 0 is_stmt 1
 432 001e 144B     		ldr	r3, .L31
 433 0020 1B78     		ldrb	r3, [r3]
 434 0022 002B     		cmp	r3, #0
 435 0024 07D1     		bne	.L28
 436              		.loc 1 124 0 is_stmt 0 discriminator 1
 437 0026 FFF7FEFF 		bl	NetworkReadTestModeStatus
 438 002a 031E     		sub	r3, r0, #0
 439 002c 03D1     		bne	.L28
 440              		.loc 1 124 0 discriminator 2
 441 002e 104B     		ldr	r3, .L31
 442 0030 0222     		mov	r2, #2
 443 0032 1A70     		strb	r2, [r3]
 444 0034 17E0     		b	.L27
 445              	.L28:
 125:lib_testMode/testMode.c ****     else if(networkState == RISING_EDGE && NetworkReadTestModeStatus() ==1)  networkState = HIGH_LE
ARM GAS  C:\Users\Petro\AppData\Local\Temp\cceRirEh.s 			page 11


 446              		.loc 1 125 0 is_stmt 1
 447 0036 0E4B     		ldr	r3, .L31
 448 0038 1B78     		ldrb	r3, [r3]
 449 003a 012B     		cmp	r3, #1
 450 003c 08D1     		bne	.L29
 451              		.loc 1 125 0 is_stmt 0 discriminator 1
 452 003e FFF7FEFF 		bl	NetworkReadTestModeStatus
 453 0042 031E     		sub	r3, r0, #0
 454 0044 012B     		cmp	r3, #1
 455 0046 03D1     		bne	.L29
 456              		.loc 1 125 0 discriminator 2
 457 0048 094B     		ldr	r3, .L31
 458 004a 0022     		mov	r2, #0
 459 004c 1A70     		strb	r2, [r3]
 460 004e 0AE0     		b	.L27
 461              	.L29:
 126:lib_testMode/testMode.c ****     else if(networkState == FALLING_EDGE && NetworkReadTestModeStatus() == 0)  networkState = LOW_L
 462              		.loc 1 126 0 is_stmt 1
 463 0050 074B     		ldr	r3, .L31
 464 0052 1B78     		ldrb	r3, [r3]
 465 0054 022B     		cmp	r3, #2
 466 0056 06D1     		bne	.L27
 467              		.loc 1 126 0 is_stmt 0 discriminator 1
 468 0058 FFF7FEFF 		bl	NetworkReadTestModeStatus
 469 005c 031E     		sub	r3, r0, #0
 470 005e 02D1     		bne	.L27
 471              		.loc 1 126 0 discriminator 2
 472 0060 034B     		ldr	r3, .L31
 473 0062 0322     		mov	r2, #3
 474 0064 1A70     		strb	r2, [r3]
 475              	.L27:
 127:lib_testMode/testMode.c **** 
 128:lib_testMode/testMode.c ****     return networkState;   
 476              		.loc 1 128 0 is_stmt 1
 477 0066 024B     		ldr	r3, .L31
 478 0068 1B78     		ldrb	r3, [r3]
 129:lib_testMode/testMode.c **** }...
 479              		.loc 1 129 0
 480 006a 181C     		mov	r0, r3
 481 006c BD46     		mov	sp, r7
 482              		@ sp needed
 483 006e 80BD     		pop	{r7, pc}
 484              	.L32:
 485              		.align	2
 486              	.L31:
 487 0070 00000000 		.word	networkState
 488              		.cfi_endproc
 489              	.LFE67:
 490              		.size	ReadNetworkState, .-ReadNetworkState
 491              		.bss
 492              	tmpCounter.7636:
 493 0002 00       		.space	1
 494              		.text
 495              	.Letext0:
 496              		.file 2 "c:\\program files (x86)\\cypress\\psoc creator\\4.0\\psoc creator\\import\\gnu\\arm\\4.9.
 497              		.file 3 "c:\\program files (x86)\\cypress\\psoc creator\\4.0\\psoc creator\\import\\gnu\\arm\\4.9.
 498              		.file 4 "Generated_Source\\PSoC4/cytypes.h"
ARM GAS  C:\Users\Petro\AppData\Local\Temp\cceRirEh.s 			page 12

