ARM GAS  C:\DOCUME~1\9335~1\LOCALS~1\Temp\cct2uhY4.s 			page 1


   1              		.cpu cortex-m0
   2              		.fpu softvfp
   3              		.eabi_attribute 20, 1
   4              		.eabi_attribute 21, 1
   5              		.eabi_attribute 23, 3
   6              		.eabi_attribute 24, 1
   7              		.eabi_attribute 25, 1
   8              		.eabi_attribute 26, 1
   9              		.eabi_attribute 30, 6
  10              		.eabi_attribute 34, 0
  11              		.eabi_attribute 18, 4
  12              		.code	16
  13              		.file	"LED.c"
  14              		.text
  15              	.Ltext0:
  16              		.cfi_sections	.debug_frame
  17              		.comm	LED_InitValue,1,1
  18              		.section	.text.LedInit,"ax",%progbits
  19              		.align	2
  20              		.global	LedInit
  21              		.code	16
  22              		.thumb_func
  23              		.type	LedInit, %function
  24              	LedInit:
  25              	.LFB2:
  26              		.file 1 ".\\LED.c"
   1:.\LED.c       **** /* ========================================
   2:.\LED.c       ****  *
   3:.\LED.c       ****  * Copyright YOUR COMPANY, THE YEAR
   4:.\LED.c       ****  * All Rights Reserved
   5:.\LED.c       ****  * UNPUBLISHED, LICENSED SOFTWARE.
   6:.\LED.c       ****  *
   7:.\LED.c       ****  * CONFIDENTIAL AND PROPRIETARY INFORMATION
   8:.\LED.c       ****  * WHICH IS THE PROPERTY OF your company.
   9:.\LED.c       ****  *
  10:.\LED.c       ****  * ========================================
  11:.\LED.c       **** */
  12:.\LED.c       **** #include "LED.h"
  13:.\LED.c       **** 
  14:.\LED.c       **** uint8_t LED_InitValue;
  15:.\LED.c       **** 
  16:.\LED.c       **** void LedInit(void)
  17:.\LED.c       **** {
  27              		.loc 1 17 0
  28              		.cfi_startproc
  29 0000 80B5     		push	{r7, lr}
  30              		.cfi_def_cfa_offset 8
  31              		.cfi_offset 7, -8
  32              		.cfi_offset 14, -4
  33 0002 00AF     		add	r7, sp, #0
  34              		.cfi_def_cfa_register 7
  18:.\LED.c       ****         Timer_LED_Init();
  35              		.loc 1 18 0
  36 0004 FFF7FEFF 		bl	Timer_LED_Init
  19:.\LED.c       ****         if (!LED_InitValue)
  37              		.loc 1 19 0
  38 0008 064B     		ldr	r3, .L3
ARM GAS  C:\DOCUME~1\9335~1\LOCALS~1\Temp\cct2uhY4.s 			page 2


  39 000a 1B78     		ldrb	r3, [r3]
  40 000c 002B     		cmp	r3, #0
  41 000e 03D1     		bne	.L2
  20:.\LED.c       ****         {
  21:.\LED.c       ****             Int_Timer_Led_StartEx(LedHandler);
  42              		.loc 1 21 0
  43 0010 054B     		ldr	r3, .L3+4
  44 0012 181C     		mov	r0, r3
  45 0014 FFF7FEFF 		bl	Int_Timer_Led_StartEx
  46              	.L2:
  22:.\LED.c       ****         }
  23:.\LED.c       ****         LED_InitValue = 1;
  47              		.loc 1 23 0
  48 0018 024B     		ldr	r3, .L3
  49 001a 0122     		mov	r2, #1
  50 001c 1A70     		strb	r2, [r3]
  24:.\LED.c       **** }
  51              		.loc 1 24 0
  52 001e BD46     		mov	sp, r7
  53              		@ sp needed
  54 0020 80BD     		pop	{r7, pc}
  55              	.L4:
  56 0022 C046     		.align	2
  57              	.L3:
  58 0024 00000000 		.word	LED_InitValue
  59 0028 00000000 		.word	LedHandler
  60              		.cfi_endproc
  61              	.LFE2:
  62              		.size	LedInit, .-LedInit
  63              		.section	.text.LedHandler,"ax",%progbits
  64              		.align	2
  65              		.global	LedHandler
  66              		.code	16
  67              		.thumb_func
  68              		.type	LedHandler, %function
  69              	LedHandler:
  70              	.LFB3:
  25:.\LED.c       **** 
  26:.\LED.c       **** CY_ISR(LedHandler)
  27:.\LED.c       **** {
  71              		.loc 1 27 0
  72              		.cfi_startproc
  73 0000 80B5     		push	{r7, lr}
  74              		.cfi_def_cfa_offset 8
  75              		.cfi_offset 7, -8
  76              		.cfi_offset 14, -4
  77 0002 00AF     		add	r7, sp, #0
  78              		.cfi_def_cfa_register 7
  28:.\LED.c       ****     LED_PIN_Write(~LED_PIN_Read());
  79              		.loc 1 28 0
  80 0004 FFF7FEFF 		bl	LED_PIN_Read
  81 0008 031C     		mov	r3, r0
  82 000a DB43     		mvn	r3, r3
  83 000c DBB2     		uxtb	r3, r3
  84 000e 181C     		mov	r0, r3
  85 0010 FFF7FEFF 		bl	LED_PIN_Write
  29:.\LED.c       ****     Timer_LED_ClearInterrupt(Timer_LED_INTR_MASK_CC_MATCH);
ARM GAS  C:\DOCUME~1\9335~1\LOCALS~1\Temp\cct2uhY4.s 			page 3


  86              		.loc 1 29 0
  87 0014 0220     		mov	r0, #2
  88 0016 FFF7FEFF 		bl	Timer_LED_ClearInterrupt
  30:.\LED.c       **** }
  89              		.loc 1 30 0
  90 001a BD46     		mov	sp, r7
  91              		@ sp needed
  92 001c 80BD     		pop	{r7, pc}
  93              		.cfi_endproc
  94              	.LFE3:
  95              		.size	LedHandler, .-LedHandler
  96              		.global	__aeabi_uidiv
  97 001e C046     		.section	.text.LedBlink,"ax",%progbits
  98              		.align	2
  99              		.global	LedBlink
 100              		.code	16
 101              		.thumb_func
 102              		.type	LedBlink, %function
 103              	LedBlink:
 104              	.LFB4:
  31:.\LED.c       **** 
  32:.\LED.c       **** void LedBlink(uint16_t Frequency)
  33:.\LED.c       **** {
 105              		.loc 1 33 0
 106              		.cfi_startproc
 107 0000 80B5     		push	{r7, lr}
 108              		.cfi_def_cfa_offset 8
 109              		.cfi_offset 7, -8
 110              		.cfi_offset 14, -4
 111 0002 84B0     		sub	sp, sp, #16
 112              		.cfi_def_cfa_offset 24
 113 0004 00AF     		add	r7, sp, #0
 114              		.cfi_def_cfa_register 7
 115 0006 021C     		mov	r2, r0
 116 0008 BB1D     		add	r3, r7, #6
 117 000a 1A80     		strh	r2, [r3]
  34:.\LED.c       ****     uint32_t time_l;
  35:.\LED.c       ****     time_l = FreqToTicks(Frequency);
 118              		.loc 1 35 0
 119 000c BB1D     		add	r3, r7, #6
 120 000e 1B88     		ldrh	r3, [r3]
 121 0010 5B00     		lsl	r3, r3, #1
 122 0012 1A1C     		mov	r2, r3
 123 0014 FA23     		mov	r3, #250
 124 0016 9800     		lsl	r0, r3, #2
 125 0018 111C     		mov	r1, r2
 126 001a FFF7FEFF 		bl	__aeabi_uidiv
 127 001e 031C     		mov	r3, r0
 128 0020 FB60     		str	r3, [r7, #12]
  36:.\LED.c       ****     Timer_LED_WritePeriod(time_l);
 129              		.loc 1 36 0
 130 0022 FB68     		ldr	r3, [r7, #12]
 131 0024 181C     		mov	r0, r3
 132 0026 FFF7FEFF 		bl	Timer_LED_WritePeriod
  37:.\LED.c       ****     Timer_LED_Enable();
 133              		.loc 1 37 0
 134 002a FFF7FEFF 		bl	Timer_LED_Enable
ARM GAS  C:\DOCUME~1\9335~1\LOCALS~1\Temp\cct2uhY4.s 			page 4


  38:.\LED.c       ****     time_l = Timer_LED_ReadPeriod();
 135              		.loc 1 38 0
 136 002e FFF7FEFF 		bl	Timer_LED_ReadPeriod
 137 0032 031C     		mov	r3, r0
 138 0034 FB60     		str	r3, [r7, #12]
  39:.\LED.c       **** }
 139              		.loc 1 39 0
 140 0036 BD46     		mov	sp, r7
 141 0038 04B0     		add	sp, sp, #16
 142              		@ sp needed
 143 003a 80BD     		pop	{r7, pc}
 144              		.cfi_endproc
 145              	.LFE4:
 146              		.size	LedBlink, .-LedBlink
 147              		.section	.text.SetPWMValue,"ax",%progbits
 148              		.align	2
 149              		.global	SetPWMValue
 150              		.code	16
 151              		.thumb_func
 152              		.type	SetPWMValue, %function
 153              	SetPWMValue:
 154              	.LFB5:
  40:.\LED.c       **** 
  41:.\LED.c       **** void SetPWMValue(uint8_t Value)
  42:.\LED.c       **** {
 155              		.loc 1 42 0
 156              		.cfi_startproc
 157 0000 80B5     		push	{r7, lr}
 158              		.cfi_def_cfa_offset 8
 159              		.cfi_offset 7, -8
 160              		.cfi_offset 14, -4
 161 0002 82B0     		sub	sp, sp, #8
 162              		.cfi_def_cfa_offset 16
 163 0004 00AF     		add	r7, sp, #0
 164              		.cfi_def_cfa_register 7
 165 0006 021C     		mov	r2, r0
 166 0008 FB1D     		add	r3, r7, #7
 167 000a 1A70     		strb	r2, [r3]
  43:.\LED.c       ****     /* TBD: Implementation Here; */
  44:.\LED.c       **** }
 168              		.loc 1 44 0
 169 000c BD46     		mov	sp, r7
 170 000e 02B0     		add	sp, sp, #8
 171              		@ sp needed
 172 0010 80BD     		pop	{r7, pc}
 173              		.cfi_endproc
 174              	.LFE5:
 175              		.size	SetPWMValue, .-SetPWMValue
 176 0012 C046     		.section	.text.SetLedState,"ax",%progbits
 177              		.align	2
 178              		.global	SetLedState
 179              		.code	16
 180              		.thumb_func
 181              		.type	SetLedState, %function
 182              	SetLedState:
 183              	.LFB6:
  45:.\LED.c       **** 
ARM GAS  C:\DOCUME~1\9335~1\LOCALS~1\Temp\cct2uhY4.s 			page 5


  46:.\LED.c       **** void SetLedState(uint8_t State)
  47:.\LED.c       **** {
 184              		.loc 1 47 0
 185              		.cfi_startproc
 186 0000 80B5     		push	{r7, lr}
 187              		.cfi_def_cfa_offset 8
 188              		.cfi_offset 7, -8
 189              		.cfi_offset 14, -4
 190 0002 82B0     		sub	sp, sp, #8
 191              		.cfi_def_cfa_offset 16
 192 0004 00AF     		add	r7, sp, #0
 193              		.cfi_def_cfa_register 7
 194 0006 021C     		mov	r2, r0
 195 0008 FB1D     		add	r3, r7, #7
 196 000a 1A70     		strb	r2, [r3]
  48:.\LED.c       ****     Timer_LED_Stop();
 197              		.loc 1 48 0
 198 000c FFF7FEFF 		bl	Timer_LED_Stop
  49:.\LED.c       ****     LED_PIN_Write(State);
 199              		.loc 1 49 0
 200 0010 FB1D     		add	r3, r7, #7
 201 0012 1B78     		ldrb	r3, [r3]
 202 0014 181C     		mov	r0, r3
 203 0016 FFF7FEFF 		bl	LED_PIN_Write
  50:.\LED.c       **** }
 204              		.loc 1 50 0
 205 001a BD46     		mov	sp, r7
 206 001c 02B0     		add	sp, sp, #8
 207              		@ sp needed
 208 001e 80BD     		pop	{r7, pc}
 209              		.cfi_endproc
 210              	.LFE6:
 211              		.size	SetLedState, .-SetLedState
 212              		.text
 213              	.Letext0:
 214              		.file 2 "c:\\program files\\cypress\\psoc creator\\3.3\\psoc creator\\import\\gnu\\arm\\4.9.3\\arm
 215              		.file 3 "c:\\program files\\cypress\\psoc creator\\3.3\\psoc creator\\import\\gnu\\arm\\4.9.3\\arm
 216              		.file 4 "Generated_Source\\PSoC4/cytypes.h"