ARM GAS  C:\Users\Petro\AppData\Local\Temp\cc4zUsr9.s 			page 1


   1              		.cpu cortex-m0
   2              		.fpu softvfp
   3              		.eabi_attribute 20, 1
   4              		.eabi_attribute 21, 1
   5              		.eabi_attribute 23, 3
   6              		.eabi_attribute 24, 1
   7              		.eabi_attribute 25, 1
   8              		.eabi_attribute 26, 1
   9              		.eabi_attribute 30, 6
  10              		.eabi_attribute 34, 0
  11              		.eabi_attribute 18, 4
  12              		.code	16
  13              		.file	"main.c"
  14              		.text
  15              	.Ltext0:
  16              		.cfi_sections	.debug_frame
  17              		.section	.rodata
  18              		.align	2
  19              		.type	default_format, %object
  20              		.size	default_format, 15
  21              	default_format:
  22 0000 25612025 		.ascii	"%a %b %d %Y %T\000"
  22      62202564 
  22      20255920 
  22      255400
  23 000f 00       		.align	2
  24              		.type	ERR_RTC_SYNC, %object
  25              		.size	ERR_RTC_SYNC, 13
  26              	ERR_RTC_SYNC:
  27 0010 52544320 		.ascii	"RTC Not Sync\000"
  27      4E6F7420 
  27      53796E63 
  27      00
  28 001d 000000   		.align	2
  29              		.type	ERR_CHECK_CON, %object
  30              		.size	ERR_CHECK_CON, 16
  31              	ERR_CHECK_CON:
  32 0020 4E6F2043 		.ascii	"No Conn wth Fin\000"
  32      6F6E6E20 
  32      77746820 
  32      46696E00 
  33              		.align	2
  34              		.type	LR, %object
  35              		.size	LR, 3
  36              	LR:
  37 0030 0D0A00   		.ascii	"\015\012\000"
  38              		.comm	ResTime,32,4
  39              		.comm	lt,36,4
  40              		.comm	buff,50,4
  41              		.comm	GateState,1,1
  42              		.comm	InChar,4,4
  43              		.comm	UTime,8,8
  44 0033 00       		.align	2
  45              	.LC0:
  46 0034 53797374 		.ascii	"SystemNotInit\000"
  46      656D4E6F 
  46      74496E69 
ARM GAS  C:\Users\Petro\AppData\Local\Temp\cc4zUsr9.s 			page 2


  46      7400
  47 0042 0000     		.align	2
  48              	.LC3:
  49 0044 53797374 		.ascii	"SystemInit\000"
  49      656D496E 
  49      697400
  50              		.section	.text.main,"ax",%progbits
  51              		.align	2
  52              		.global	main
  53              		.code	16
  54              		.thumb_func
  55              		.type	main, %function
  56              	main:
  57              	.LFB63:
  58              		.file 1 ".\\main.c"
   1:.\main.c      **** /* ========================================
   2:.\main.c      ****  *
   3:.\main.c      ****  * Copyright YOUR COMPANY, THE YEAR
   4:.\main.c      ****  * All Rights Reserved
   5:.\main.c      ****  * UNPUBLISHED, LICENSED SOFTWARE.
   6:.\main.c      ****  *
   7:.\main.c      ****  * CONFIDENTIAL AND PROPRIETARY INFORMATION
   8:.\main.c      ****  * WHICH IS THE PROPERTY OF your company.
   9:.\main.c      ****  *
  10:.\main.c      ****  * ========================================
  11:.\main.c      **** */
  12:.\main.c      **** 
  13:.\main.c      **** /* 
  14:.\main.c      ****     CARCAS FINISH SYSTEM
  15:.\main.c      **** */
  16:.\main.c      **** 
  17:.\main.c      **** #include "AppGlobal.h"
  18:.\main.c      **** #include "LED.h"
  19:.\main.c      **** #include "test.h"
  20:.\main.c      **** #include "RTC_WDT.h"
  21:.\main.c      **** #include "network.h"
  22:.\main.c      **** 
  23:.\main.c      **** int main()
  24:.\main.c      **** {
  59              		.loc 1 24 0
  60              		.cfi_startproc
  61 0000 80B5     		push	{r7, lr}
  62              		.cfi_def_cfa_offset 8
  63              		.cfi_offset 7, -8
  64              		.cfi_offset 14, -4
  65 0002 00AF     		add	r7, sp, #0
  66              		.cfi_def_cfa_register 7
  25:.\main.c      ****     CyGlobalIntEnable; /* Enable global interrupts. */
  67              		.loc 1 25 0
  68              	@ 25 ".\main.c" 1
  69 0004 62B6     		CPSIE   i
  70              	@ 0 "" 2
  26:.\main.c      ****     
  27:.\main.c      ****     SystemInit();
  71              		.loc 1 27 0
  72              		.code	16
  73 0006 FFF7FEFF 		bl	SystemInit
ARM GAS  C:\Users\Petro\AppData\Local\Temp\cc4zUsr9.s 			page 3


  28:.\main.c      ****     
  29:.\main.c      ****     while (!SystemStart())
  74              		.loc 1 29 0
  75 000a 10E0     		b	.L2
  76              	.L3:
  30:.\main.c      ****     {
  31:.\main.c      ****         LCD_1_PrintString("SystemNotInit");
  77              		.loc 1 31 0
  78 000c 104B     		ldr	r3, .L5
  79 000e 181C     		mov	r0, r3
  80 0010 FFF7FEFF 		bl	LCD_1_PrintString
  32:.\main.c      ****             #ifdef DEBUG_W_UART
  33:.\main.c      ****                 UART_PC_UartPutString("SystemNotInit");
  81              		.loc 1 33 0
  82 0014 0E4B     		ldr	r3, .L5
  83 0016 181C     		mov	r0, r3
  84 0018 FFF7FEFF 		bl	UART_PC_UartPutString
  34:.\main.c      ****                 UART_PC_UartPutString(LR);
  85              		.loc 1 34 0
  86 001c 0D4B     		ldr	r3, .L5+4
  87 001e 181C     		mov	r0, r3
  88 0020 FFF7FEFF 		bl	UART_PC_UartPutString
  35:.\main.c      ****             #endif
  36:.\main.c      ****         // If System Can't Be inited Then try again after 1s 
  37:.\main.c      ****         CyDelay(1000);
  89              		.loc 1 37 0
  90 0024 FA23     		mov	r3, #250
  91 0026 9B00     		lsl	r3, r3, #2
  92 0028 181C     		mov	r0, r3
  93 002a FFF7FEFF 		bl	CyDelay
  94              	.L2:
  29:.\main.c      ****     {
  95              		.loc 1 29 0
  96 002e FFF7FEFF 		bl	SystemStart
  97 0032 031E     		sub	r3, r0, #0
  98 0034 EAD0     		beq	.L3
  38:.\main.c      ****     }
  39:.\main.c      ****     
  40:.\main.c      ****     LCD_1_PrintString("SystemInit");
  99              		.loc 1 40 0
 100 0036 084B     		ldr	r3, .L5+8
 101 0038 181C     		mov	r0, r3
 102 003a FFF7FEFF 		bl	LCD_1_PrintString
  41:.\main.c      ****     
  42:.\main.c      ****     #ifdef DEBUG_W_UART
  43:.\main.c      ****         UART_PC_UartPutString("SystemInit");
 103              		.loc 1 43 0
 104 003e 064B     		ldr	r3, .L5+8
 105 0040 181C     		mov	r0, r3
 106 0042 FFF7FEFF 		bl	UART_PC_UartPutString
  44:.\main.c      ****         UART_PC_UartPutString(LR);
 107              		.loc 1 44 0
 108 0046 034B     		ldr	r3, .L5+4
 109 0048 181C     		mov	r0, r3
 110 004a FFF7FEFF 		bl	UART_PC_UartPutString
 111              	.L4:
  45:.\main.c      ****     #endif
ARM GAS  C:\Users\Petro\AppData\Local\Temp\cc4zUsr9.s 			page 4


  46:.\main.c      ****     
  47:.\main.c      ****     
  48:.\main.c      ****     for(;;)
  49:.\main.c      ****     {
  50:.\main.c      ****         /* Application Here */
  51:.\main.c      ****     }
 112              		.loc 1 51 0 discriminator 1
 113 004e FEE7     		b	.L4
 114              	.L6:
 115              		.align	2
 116              	.L5:
 117 0050 34000000 		.word	.LC0
 118 0054 30000000 		.word	LR
 119 0058 44000000 		.word	.LC3
 120              		.cfi_endproc
 121              	.LFE63:
 122              		.size	main, .-main
 123              		.section	.rodata
 124 004f 00       		.align	2
 125              	.LC5:
 126 0050 50432043 		.ascii	"PC COM Test Succeful\000"
 126      4F4D2054 
 126      65737420 
 126      53756363 
 126      6566756C 
 127 0065 000000   		.align	2
 128              	.LC8:
 129 0068 55415254 		.ascii	"UART Translator v1.0\000"
 129      20547261 
 129      6E736C61 
 129      746F7220 
 129      76312E30 
 130 007d 000000   		.section	.text.SystemInit,"ax",%progbits
 131              		.align	2
 132              		.global	SystemInit
 133              		.code	16
 134              		.thumb_func
 135              		.type	SystemInit, %function
 136              	SystemInit:
 137              	.LFB64:
  52:.\main.c      **** }
  53:.\main.c      **** 
  54:.\main.c      **** void SystemInit()
  55:.\main.c      **** {
 138              		.loc 1 55 0
 139              		.cfi_startproc
 140 0000 80B5     		push	{r7, lr}
 141              		.cfi_def_cfa_offset 8
 142              		.cfi_offset 7, -8
 143              		.cfi_offset 14, -4
 144 0002 00AF     		add	r7, sp, #0
 145              		.cfi_def_cfa_register 7
  56:.\main.c      ****     // UARTPC ----> To PC
  57:.\main.c      ****     UART_PC_Start();
 146              		.loc 1 57 0
 147 0004 FFF7FEFF 		bl	UART_PC_Start
  58:.\main.c      ****     // UARTXP ----> To Xbee Module
ARM GAS  C:\Users\Petro\AppData\Local\Temp\cc4zUsr9.s 			page 5


  59:.\main.c      ****     UART_XB_Start();
 148              		.loc 1 59 0
 149 0008 FFF7FEFF 		bl	UART_XB_Start
  60:.\main.c      ****     // RTC With WatchDog Timer.
  61:.\main.c      ****     // Up Resolution to 1ms. 
  62:.\main.c      ****     RTC_WDT_Init();
 150              		.loc 1 62 0
 151 000c FFF7FEFF 		bl	RTC_WDT_Init
  63:.\main.c      ****     // Init Timer for Blink LED
  64:.\main.c      ****     LedInit();
 152              		.loc 1 64 0
 153 0010 FFF7FEFF 		bl	LedInit
  65:.\main.c      ****     
  66:.\main.c      ****     LCD_1_Start();
 154              		.loc 1 66 0
 155 0014 FFF7FEFF 		bl	LCD_1_Start
  67:.\main.c      ****     LCD_1_DisplayOn();
 156              		.loc 1 67 0
 157 0018 0C20     		mov	r0, #12
 158 001a FFF7FEFF 		bl	LCD_1_WriteControl
  68:.\main.c      ****     
  69:.\main.c      ****     /*
  70:.\main.c      ****     UART_XB_UartPutString("XB COM Test Succeful");
  71:.\main.c      ****     UART_XB_UartPutString(LR);
  72:.\main.c      ****     */
  73:.\main.c      ****     
  74:.\main.c      ****     #ifdef DEBUG_W_UART
  75:.\main.c      ****     UART_PC_UartPutString("PC COM Test Succeful");
 159              		.loc 1 75 0
 160 001e 094B     		ldr	r3, .L8
 161 0020 181C     		mov	r0, r3
 162 0022 FFF7FEFF 		bl	UART_PC_UartPutString
  76:.\main.c      ****     UART_PC_UartPutString(LR);
 163              		.loc 1 76 0
 164 0026 084B     		ldr	r3, .L8+4
 165 0028 181C     		mov	r0, r3
 166 002a FFF7FEFF 		bl	UART_PC_UartPutString
  77:.\main.c      ****     UART_PC_UartPutString("UART Translator v1.0");
 167              		.loc 1 77 0
 168 002e 074B     		ldr	r3, .L8+8
 169 0030 181C     		mov	r0, r3
 170 0032 FFF7FEFF 		bl	UART_PC_UartPutString
  78:.\main.c      ****     UART_PC_UartPutString(LR);
 171              		.loc 1 78 0
 172 0036 044B     		ldr	r3, .L8+4
 173 0038 181C     		mov	r0, r3
 174 003a FFF7FEFF 		bl	UART_PC_UartPutString
  79:.\main.c      ****     #endif
  80:.\main.c      **** }
 175              		.loc 1 80 0
 176 003e BD46     		mov	sp, r7
 177              		@ sp needed
 178 0040 80BD     		pop	{r7, pc}
 179              	.L9:
 180 0042 C046     		.align	2
 181              	.L8:
 182 0044 50000000 		.word	.LC5
ARM GAS  C:\Users\Petro\AppData\Local\Temp\cc4zUsr9.s 			page 6


 183 0048 30000000 		.word	LR
 184 004c 68000000 		.word	.LC8
 185              		.cfi_endproc
 186              	.LFE64:
 187              		.size	SystemInit, .-SystemInit
 188              		.section	.text.SystemStart,"ax",%progbits
 189              		.align	2
 190              		.global	SystemStart
 191              		.code	16
 192              		.thumb_func
 193              		.type	SystemStart, %function
 194              	SystemStart:
 195              	.LFB65:
  81:.\main.c      ****     
  82:.\main.c      **** 
  83:.\main.c      **** uint32_t SystemStart(void) 
  84:.\main.c      **** {
 196              		.loc 1 84 0
 197              		.cfi_startproc
 198 0000 80B5     		push	{r7, lr}
 199              		.cfi_def_cfa_offset 8
 200              		.cfi_offset 7, -8
 201              		.cfi_offset 14, -4
 202 0002 82B0     		sub	sp, sp, #8
 203              		.cfi_def_cfa_offset 16
 204 0004 00AF     		add	r7, sp, #0
 205              		.cfi_def_cfa_register 7
  85:.\main.c      ****     uint32_t SysStat = 1;
 206              		.loc 1 85 0
 207 0006 0123     		mov	r3, #1
 208 0008 7B60     		str	r3, [r7, #4]
  86:.\main.c      ****     
  87:.\main.c      ****     LedBlink(FREQ_INIT_BLINK);
 209              		.loc 1 87 0
 210 000a 0320     		mov	r0, #3
 211 000c FFF7FEFF 		bl	LedBlink
  88:.\main.c      ****     LCD_1_Position(CURSOR_ROW_0, CURSOR_COL_0);
 212              		.loc 1 88 0
 213 0010 0020     		mov	r0, #0
 214 0012 0021     		mov	r1, #0
 215 0014 FFF7FEFF 		bl	LCD_1_Position
  89:.\main.c      ****     
  90:.\main.c      ****     if (!CheckConnection()){
 216              		.loc 1 90 0
 217 0018 FFF7FEFF 		bl	CheckConnection
 218 001c 031E     		sub	r3, r0, #0
 219 001e 0DD1     		bne	.L11
  91:.\main.c      ****         SysStat = 0;
 220              		.loc 1 91 0
 221 0020 0023     		mov	r3, #0
 222 0022 7B60     		str	r3, [r7, #4]
  92:.\main.c      ****         LCD_1_PrintString(ERR_CHECK_CON);
 223              		.loc 1 92 0
 224 0024 0A4B     		ldr	r3, .L13
 225 0026 181C     		mov	r0, r3
 226 0028 FFF7FEFF 		bl	LCD_1_PrintString
  93:.\main.c      ****         #ifdef DEBUG_W_UART
ARM GAS  C:\Users\Petro\AppData\Local\Temp\cc4zUsr9.s 			page 7


  94:.\main.c      ****             UART_PC_UartPutString(ERR_CHECK_CON);
 227              		.loc 1 94 0
 228 002c 084B     		ldr	r3, .L13
 229 002e 181C     		mov	r0, r3
 230 0030 FFF7FEFF 		bl	UART_PC_UartPutString
  95:.\main.c      ****             UART_PC_UartPutString(LR);
 231              		.loc 1 95 0
 232 0034 074B     		ldr	r3, .L13+4
 233 0036 181C     		mov	r0, r3
 234 0038 FFF7FEFF 		bl	UART_PC_UartPutString
 235              	.L11:
  96:.\main.c      ****         #endif
  97:.\main.c      ****         
  98:.\main.c      ****     }
  99:.\main.c      ****     
 100:.\main.c      ****     /* RTC SYNC NO NEED ON START MODULE
 101:.\main.c      ****     if (!RTCSync()){
 102:.\main.c      ****         SysStat = 0;
 103:.\main.c      ****         LCD_1_PrintString(ERR_RTC_SYNC);
 104:.\main.c      ****         #ifdef DEBUG_W_UART
 105:.\main.c      ****             UART_PC_UartPutString(ERR_RTC_SYNC);
 106:.\main.c      ****             UART_PC_UartPutString(LR);
 107:.\main.c      ****         #endif
 108:.\main.c      ****     }
 109:.\main.c      ****     */
 110:.\main.c      ****     
 111:.\main.c      ****     LCD_1_Position(CURSOR_ROW_1, CURSOR_COL_0);
 236              		.loc 1 111 0
 237 003c 0120     		mov	r0, #1
 238 003e 0021     		mov	r1, #0
 239 0040 FFF7FEFF 		bl	LCD_1_Position
 112:.\main.c      ****     // 0u or 1u 
 113:.\main.c      ****     return SysStat;   
 240              		.loc 1 113 0
 241 0044 7B68     		ldr	r3, [r7, #4]
 114:.\main.c      **** }
 242              		.loc 1 114 0
 243 0046 181C     		mov	r0, r3
 244 0048 BD46     		mov	sp, r7
 245 004a 02B0     		add	sp, sp, #8
 246              		@ sp needed
 247 004c 80BD     		pop	{r7, pc}
 248              	.L14:
 249 004e C046     		.align	2
 250              	.L13:
 251 0050 20000000 		.word	ERR_CHECK_CON
 252 0054 30000000 		.word	LR
 253              		.cfi_endproc
 254              	.LFE65:
 255              		.size	SystemStart, .-SystemStart
 256              		.text
 257              	.Letext0:
 258              		.file 2 "c:\\program files (x86)\\cypress\\psoc creator\\3.3\\psoc creator\\import\\gnu\\arm\\4.9.
 259              		.file 3 "c:\\program files (x86)\\cypress\\psoc creator\\3.3\\psoc creator\\import\\gnu\\arm\\4.9.
 260              		.file 4 "c:\\program files (x86)\\cypress\\psoc creator\\3.3\\psoc creator\\import\\gnu\\arm\\4.9.
 261              		.file 5 ".\\AppGlobal.h"