ARM GAS  C:\Users\Petro\AppData\Local\Temp\cczTqWDg.s 			page 1


   1              		.cpu cortex-m0
   2              		.fpu softvfp
   3              		.eabi_attribute 20, 1
   4              		.eabi_attribute 21, 1
   5              		.eabi_attribute 23, 3
   6              		.eabi_attribute 24, 1
   7              		.eabi_attribute 25, 1
   8              		.eabi_attribute 26, 1
   9              		.eabi_attribute 30, 6
  10              		.eabi_attribute 34, 0
  11              		.eabi_attribute 18, 4
  12              		.code	16
  13              		.file	"network.c"
  14              		.text
  15              	.Ltext0:
  16              		.cfi_sections	.debug_frame
  17              		.section	.rodata
  18              		.align	2
  19              	.LC0:
  20 0000 53656E64 		.ascii	"Sending Packet For Ready Start Module\015\012\000"
  20      696E6720 
  20      5061636B 
  20      65742046 
  20      6F722052 
  21              		.align	2
  22              	.LC2:
  23 0028 4F4B2052 		.ascii	"OK RECIEVED\015\012\000"
  23      45434945 
  23      5645440D 
  23      0A00
  24 0036 0000     		.align	2
  25              	.LC4:
  26 0038 4552523A 		.ascii	"ERR: TIMEOUT\015\012\000"
  26      2054494D 
  26      454F5554 
  26      0D0A00
  27 0047 00       		.section	.text.CheckConnection,"ax",%progbits
  28              		.align	2
  29              		.global	CheckConnection
  30              		.code	16
  31              		.thumb_func
  32              		.type	CheckConnection, %function
  33              	CheckConnection:
  34              	.LFB2:
  35              		.file 1 ".\\network.c"
   1:.\network.c   **** /* ========================================
   2:.\network.c   ****  *
   3:.\network.c   ****  * Copyright YOUR COMPANY, THE YEAR
   4:.\network.c   ****  * All Rights Reserved
   5:.\network.c   ****  * UNPUBLISHED, LICENSED SOFTWARE.
   6:.\network.c   ****  *
   7:.\network.c   ****  * CONFIDENTIAL AND PROPRIETARY INFORMATION
   8:.\network.c   ****  * WHICH IS THE PROPERTY OF your company.
   9:.\network.c   ****  *
  10:.\network.c   ****  * ========================================
  11:.\network.c   **** */
  12:.\network.c   **** #include <network.h>
ARM GAS  C:\Users\Petro\AppData\Local\Temp\cczTqWDg.s 			page 2


  13:.\network.c   **** 
  14:.\network.c   **** uint32_t CheckConnection()
  15:.\network.c   **** {
  36              		.loc 1 15 0
  37              		.cfi_startproc
  38 0000 80B5     		push	{r7, lr}
  39              		.cfi_def_cfa_offset 8
  40              		.cfi_offset 7, -8
  41              		.cfi_offset 14, -4
  42 0002 84B0     		sub	sp, sp, #16
  43              		.cfi_def_cfa_offset 24
  44 0004 00AF     		add	r7, sp, #0
  45              		.cfi_def_cfa_register 7
  16:.\network.c   ****     uint32_t Stat = 0;
  46              		.loc 1 16 0
  47 0006 0023     		mov	r3, #0
  48 0008 FB60     		str	r3, [r7, #12]
  17:.\network.c   ****     uint32_t Resp = 0;
  49              		.loc 1 17 0
  50 000a 0023     		mov	r3, #0
  51 000c 7B60     		str	r3, [r7, #4]
  18:.\network.c   ****     uint32_t Ticks = 0;
  52              		.loc 1 18 0
  53 000e 0023     		mov	r3, #0
  54 0010 BB60     		str	r3, [r7, #8]
  19:.\network.c   **** 
  20:.\network.c   ****     
  21:.\network.c   ****     UART_XB_UartPutChar(XBEE_COMM_RD);
  55              		.loc 1 21 0
  56 0012 5220     		mov	r0, #82
  57 0014 FFF7FEFF 		bl	UART_XB_SpiUartWriteTxData
  22:.\network.c   ****     
  23:.\network.c   ****     #ifdef DEBUG_W_UART
  24:.\network.c   ****     UART_PC_UartPutString("Sending Packet For Ready Start Module\r\n");
  58              		.loc 1 24 0
  59 0018 154B     		ldr	r3, .L7
  60 001a 181C     		mov	r0, r3
  61 001c FFF7FEFF 		bl	UART_PC_UartPutString
  25:.\network.c   ****     #endif
  26:.\network.c   ****     
  27:.\network.c   ****     while ((++Ticks<50) && !Stat)
  62              		.loc 1 27 0
  63 0020 11E0     		b	.L2
  64              	.L4:
  28:.\network.c   ****     {
  29:.\network.c   ****         CyDelay(100);
  65              		.loc 1 29 0
  66 0022 6420     		mov	r0, #100
  67 0024 FFF7FEFF 		bl	CyDelay
  30:.\network.c   ****         Resp = (UART_XB_UartGetChar() & 0xFF);
  68              		.loc 1 30 0
  69 0028 FFF7FEFF 		bl	UART_XB_UartGetChar
  70 002c 021C     		mov	r2, r0
  71 002e FF23     		mov	r3, #255
  72 0030 1340     		and	r3, r2
  73 0032 7B60     		str	r3, [r7, #4]
  31:.\network.c   ****         if (XBEE_COMM_OK == Resp)
ARM GAS  C:\Users\Petro\AppData\Local\Temp\cczTqWDg.s 			page 3


  74              		.loc 1 31 0
  75 0034 7B68     		ldr	r3, [r7, #4]
  76 0036 4F2B     		cmp	r3, #79
  77 0038 05D1     		bne	.L2
  32:.\network.c   ****         {
  33:.\network.c   ****             Stat = 1;
  78              		.loc 1 33 0
  79 003a 0123     		mov	r3, #1
  80 003c FB60     		str	r3, [r7, #12]
  34:.\network.c   ****             
  35:.\network.c   ****             #ifdef DEBUG_W_UART
  36:.\network.c   ****             UART_PC_UartPutString("OK RECIEVED\r\n");
  81              		.loc 1 36 0
  82 003e 0D4B     		ldr	r3, .L7+4
  83 0040 181C     		mov	r0, r3
  84 0042 FFF7FEFF 		bl	UART_PC_UartPutString
  85              	.L2:
  27:.\network.c   ****     {
  86              		.loc 1 27 0
  87 0046 BB68     		ldr	r3, [r7, #8]
  88 0048 0133     		add	r3, r3, #1
  89 004a BB60     		str	r3, [r7, #8]
  90 004c BB68     		ldr	r3, [r7, #8]
  91 004e 312B     		cmp	r3, #49
  92 0050 02D8     		bhi	.L3
  27:.\network.c   ****     {
  93              		.loc 1 27 0 is_stmt 0 discriminator 1
  94 0052 FB68     		ldr	r3, [r7, #12]
  95 0054 002B     		cmp	r3, #0
  96 0056 E4D0     		beq	.L4
  97              	.L3:
  37:.\network.c   ****             #endif
  38:.\network.c   ****         }
  39:.\network.c   ****     }
  40:.\network.c   ****     
  41:.\network.c   ****     #ifdef DEBUG_W_UART
  42:.\network.c   ****     if (!Stat)
  98              		.loc 1 42 0 is_stmt 1
  99 0058 FB68     		ldr	r3, [r7, #12]
 100 005a 002B     		cmp	r3, #0
 101 005c 03D1     		bne	.L5
  43:.\network.c   ****         UART_PC_UartPutString("ERR: TIMEOUT\r\n");
 102              		.loc 1 43 0
 103 005e 064B     		ldr	r3, .L7+8
 104 0060 181C     		mov	r0, r3
 105 0062 FFF7FEFF 		bl	UART_PC_UartPutString
 106              	.L5:
  44:.\network.c   ****     #endif    
  45:.\network.c   ****     
  46:.\network.c   ****     return Stat;
 107              		.loc 1 46 0
 108 0066 FB68     		ldr	r3, [r7, #12]
  47:.\network.c   **** }
 109              		.loc 1 47 0
 110 0068 181C     		mov	r0, r3
 111 006a BD46     		mov	sp, r7
 112 006c 04B0     		add	sp, sp, #16
ARM GAS  C:\Users\Petro\AppData\Local\Temp\cczTqWDg.s 			page 4


 113              		@ sp needed
 114 006e 80BD     		pop	{r7, pc}
 115              	.L8:
 116              		.align	2
 117              	.L7:
 118 0070 00000000 		.word	.LC0
 119 0074 28000000 		.word	.LC2
 120 0078 38000000 		.word	.LC4
 121              		.cfi_endproc
 122              	.LFE2:
 123              		.size	CheckConnection, .-CheckConnection
 124              		.section	.text.NTP_Send,"ax",%progbits
 125              		.align	2
 126              		.global	NTP_Send
 127              		.code	16
 128              		.thumb_func
 129              		.type	NTP_Send, %function
 130              	NTP_Send:
 131              	.LFB3:
  48:.\network.c   **** 
  49:.\network.c   **** uint32_t NTP_Send()
  50:.\network.c   **** {
 132              		.loc 1 50 0
 133              		.cfi_startproc
 134 0000 80B5     		push	{r7, lr}
 135              		.cfi_def_cfa_offset 8
 136              		.cfi_offset 7, -8
 137              		.cfi_offset 14, -4
 138 0002 00AF     		add	r7, sp, #0
 139              		.cfi_def_cfa_register 7
  51:.\network.c   ****     return 1u;
 140              		.loc 1 51 0
 141 0004 0123     		mov	r3, #1
  52:.\network.c   **** }
 142              		.loc 1 52 0
 143 0006 181C     		mov	r0, r3
 144 0008 BD46     		mov	sp, r7
 145              		@ sp needed
 146 000a 80BD     		pop	{r7, pc}
 147              		.cfi_endproc
 148              	.LFE3:
 149              		.size	NTP_Send, .-NTP_Send
 150              		.text
 151              	.Letext0:
 152              		.file 2 "c:\\program files (x86)\\cypress\\psoc creator\\3.3\\psoc creator\\import\\gnu\\arm\\4.9.
 153              		.file 3 "c:\\program files (x86)\\cypress\\psoc creator\\3.3\\psoc creator\\import\\gnu\\arm\\4.9.
 154              		.file 4 "Generated_Source\\PSoC4/cytypes.h"