ARM GAS  C:\DOCUME~1\9335~1\LOCALS~1\Temp\ccOoUTJJ.s 			page 1


   1              		.cpu cortex-m0
   2              		.fpu softvfp
   3              		.eabi_attribute 20, 1
   4              		.eabi_attribute 21, 1
   5              		.eabi_attribute 23, 3
   6              		.eabi_attribute 24, 1
   7              		.eabi_attribute 25, 1
   8              		.eabi_attribute 26, 1
   9              		.eabi_attribute 30, 6
  10              		.eabi_attribute 34, 0
  11              		.eabi_attribute 18, 4
  12              		.code	16
  13              		.file	"network.c"
  14              		.text
  15              	.Ltext0:
  16              		.cfi_sections	.debug_frame
  17              		.comm	PROTO_STATE,1,1
  18              		.comm	LenD1,1,1
  19              		.comm	LenD2,1,1
  20              		.comm	LenSeq,1,1
  21              		.comm	LenChS,1,1
  22              		.comm	LenC,1,1
  23              		.comm	szSeq,20,4
  24              		.comm	szData,20,4
  25              		.comm	szCheckSum,20,4
  26              		.comm	TX_RESP,32,8
  27              		.comm	RXSTATUS,1,1
  28              		.comm	RespBuff,50,4
  29              		.section	.rodata
  30              		.align	2
  31              	.LC2:
  32 0000 4552524F 		.ascii	"ERROR: %d\015\012\000"
  32      523A2025 
  32      640D0A00 
  33              		.align	2
  34              	.LC5:
  35 000c 44617461 		.ascii	"Data:\015\012\000"
  35      3A0D0A00 
  36              		.align	2
  37              	.LC7:
  38 0014 0D0A00   		.ascii	"\015\012\000"
  39              		.section	.text.UART_Read,"ax",%progbits
  40              		.align	2
  41              		.global	UART_Read
  42              		.code	16
  43              		.thumb_func
  44              		.type	UART_Read, %function
  45              	UART_Read:
  46              	.LFB2:
  47              		.file 1 ".\\network.c"
   1:.\network.c   **** /* ========================================
   2:.\network.c   ****  *
   3:.\network.c   ****  * Copyright YOUR COMPANY, THE YEAR
   4:.\network.c   ****  * All Rights Reserved
   5:.\network.c   ****  * UNPUBLISHED, LICENSED SOFTWARE.
   6:.\network.c   ****  *
   7:.\network.c   ****  * CONFIDENTIAL AND PROPRIETARY INFORMATION
ARM GAS  C:\DOCUME~1\9335~1\LOCALS~1\Temp\ccOoUTJJ.s 			page 2


   8:.\network.c   ****  * WHICH IS THE PROPERTY OF your company.
   9:.\network.c   ****  *
  10:.\network.c   ****  * ========================================
  11:.\network.c   **** */
  12:.\network.c   **** #include <network.h>
  13:.\network.c   **** 
  14:.\network.c   **** void UART_Read(void)
  15:.\network.c   **** {
  48              		.loc 1 15 0
  49              		.cfi_startproc
  50 0000 80B5     		push	{r7, lr}
  51              		.cfi_def_cfa_offset 8
  52              		.cfi_offset 7, -8
  53              		.cfi_offset 14, -4
  54 0002 94B0     		sub	sp, sp, #80
  55              		.cfi_def_cfa_offset 88
  56 0004 00AF     		add	r7, sp, #0
  57              		.cfi_def_cfa_register 7
  16:.\network.c   ****     uint8_t ReadData;
  17:.\network.c   ****     ReadData = UART_XB_UartGetChar();
  58              		.loc 1 17 0
  59 0006 FFF7FEFF 		bl	UART_XB_UartGetChar
  60 000a 021C     		mov	r2, r0
  61 000c 4F23     		mov	r3, #79
  62 000e FB18     		add	r3, r7, r3
  63 0010 1A70     		strb	r2, [r3]
  18:.\network.c   ****     UART_PC_UartPutChar(ReadData);
  64              		.loc 1 18 0
  65 0012 4F23     		mov	r3, #79
  66 0014 FB18     		add	r3, r7, r3
  67 0016 1B78     		ldrb	r3, [r3]
  68 0018 181C     		mov	r0, r3
  69 001a FFF7FEFF 		bl	UART_PC_SpiUartWriteTxData
  19:.\network.c   **** 
  20:.\network.c   ****     uint32_t ERR;
  21:.\network.c   **** 	RXSTATUS = 0;
  70              		.loc 1 21 0
  71 001e 244B     		ldr	r3, .L4
  72 0020 0022     		mov	r2, #0
  73 0022 1A70     		strb	r2, [r3]
  22:.\network.c   **** 	ERR = UnpackData(&TX_RESP, ReadData);
  74              		.loc 1 22 0
  75 0024 234A     		ldr	r2, .L4+4
  76 0026 4F23     		mov	r3, #79
  77 0028 FB18     		add	r3, r7, r3
  78 002a 1B78     		ldrb	r3, [r3]
  79 002c 101C     		mov	r0, r2
  80 002e 191C     		mov	r1, r3
  81 0030 FFF7FEFF 		bl	UnpackData
  82 0034 031C     		mov	r3, r0
  83 0036 BB64     		str	r3, [r7, #72]
  23:.\network.c   **** 	if (ERR)
  84              		.loc 1 23 0
  85 0038 BB6C     		ldr	r3, [r7, #72]
  86 003a 002B     		cmp	r3, #0
  87 003c 0DD0     		beq	.L2
  88              	.LBB2:
ARM GAS  C:\DOCUME~1\9335~1\LOCALS~1\Temp\ccOoUTJJ.s 			page 3


  24:.\network.c   **** 	{   
  25:.\network.c   ****         char _tmp[15];
  26:.\network.c   **** 	    sprintf(_tmp, "ERROR: %d\r\n", ERR);
  89              		.loc 1 26 0
  90 003e 3823     		mov	r3, #56
  91 0040 F918     		add	r1, r7, r3
  92 0042 1D4A     		ldr	r2, .L4+8
  93 0044 BB6C     		ldr	r3, [r7, #72]
  94 0046 081C     		mov	r0, r1
  95 0048 111C     		mov	r1, r2
  96 004a 1A1C     		mov	r2, r3
  97 004c FFF7FEFF 		bl	sprintf
  27:.\network.c   ****         UART_PC_UartPutString(_tmp);
  98              		.loc 1 27 0
  99 0050 3823     		mov	r3, #56
 100 0052 FB18     		add	r3, r7, r3
 101 0054 181C     		mov	r0, r3
 102 0056 FFF7FEFF 		bl	UART_PC_UartPutString
 103              	.L2:
 104              	.LBE2:
  28:.\network.c   **** 	}
  29:.\network.c   ****     
  30:.\network.c   ****     if (ProcPacket(&TX_RESP, &RXSTATUS, RespBuff))
 105              		.loc 1 30 0
 106 005a 1649     		ldr	r1, .L4+4
 107 005c 144A     		ldr	r2, .L4
 108 005e 174B     		ldr	r3, .L4+12
 109 0060 081C     		mov	r0, r1
 110 0062 111C     		mov	r1, r2
 111 0064 1A1C     		mov	r2, r3
 112 0066 FFF7FEFF 		bl	ProcPacket
 113 006a 031E     		sub	r3, r0, #0
 114 006c 1AD0     		beq	.L3
  31:.\network.c   **** 	{
  32:.\network.c   ****         if (RXSTATUS == 10U)
 115              		.loc 1 32 0
 116 006e 104B     		ldr	r3, .L4
 117 0070 1B78     		ldrb	r3, [r3]
 118 0072 0A2B     		cmp	r3, #10
 119 0074 16D1     		bne	.L3
 120              	.LBB3:
  33:.\network.c   ****         {
  34:.\network.c   ****             char _tmprecv[50];
  35:.\network.c   ****             PackData(_tmprecv, RespBuff, 0u); 
 121              		.loc 1 35 0
 122 0076 3A1D     		add	r2, r7, #4
 123 0078 104B     		ldr	r3, .L4+12
 124 007a 101C     		mov	r0, r2
 125 007c 191C     		mov	r1, r3
 126 007e 0022     		mov	r2, #0
 127 0080 FFF7FEFF 		bl	PackData
  36:.\network.c   ****             UART_PC_UartPutString("Data:\r\n");
 128              		.loc 1 36 0
 129 0084 0E4B     		ldr	r3, .L4+16
 130 0086 181C     		mov	r0, r3
 131 0088 FFF7FEFF 		bl	UART_PC_UartPutString
  37:.\network.c   ****             UART_PC_UartPutString(_tmprecv);
ARM GAS  C:\DOCUME~1\9335~1\LOCALS~1\Temp\ccOoUTJJ.s 			page 4


 132              		.loc 1 37 0
 133 008c 3B1D     		add	r3, r7, #4
 134 008e 181C     		mov	r0, r3
 135 0090 FFF7FEFF 		bl	UART_PC_UartPutString
  38:.\network.c   ****             UART_PC_UartPutString("\r\n"); 
 136              		.loc 1 38 0
 137 0094 0B4B     		ldr	r3, .L4+20
 138 0096 181C     		mov	r0, r3
 139 0098 FFF7FEFF 		bl	UART_PC_UartPutString
  39:.\network.c   ****             UART_XB_UartPutString(_tmprecv);
 140              		.loc 1 39 0
 141 009c 3B1D     		add	r3, r7, #4
 142 009e 181C     		mov	r0, r3
 143 00a0 FFF7FEFF 		bl	UART_XB_UartPutString
 144              	.L3:
 145              	.LBE3:
  40:.\network.c   ****         }    
  41:.\network.c   **** 		//printf("RXSTATUS: %d\n", RXSTATUS);
  42:.\network.c   **** 	}   
  43:.\network.c   ****     UART_XB_ClearRxInterruptSource(UART_XB_INTR_RX_NOT_EMPTY);
 146              		.loc 1 43 0
 147 00a4 084B     		ldr	r3, .L4+24
 148 00a6 0422     		mov	r2, #4
 149 00a8 1A60     		str	r2, [r3]
  44:.\network.c   **** }
 150              		.loc 1 44 0
 151 00aa BD46     		mov	sp, r7
 152 00ac 14B0     		add	sp, sp, #80
 153              		@ sp needed
 154 00ae 80BD     		pop	{r7, pc}
 155              	.L5:
 156              		.align	2
 157              	.L4:
 158 00b0 00000000 		.word	RXSTATUS
 159 00b4 00000000 		.word	TX_RESP
 160 00b8 00000000 		.word	.LC2
 161 00bc 00000000 		.word	RespBuff
 162 00c0 0C000000 		.word	.LC5
 163 00c4 14000000 		.word	.LC7
 164 00c8 C00F2540 		.word	1076170688
 165              		.cfi_endproc
 166              	.LFE2:
 167              		.size	UART_Read, .-UART_Read
 168              		.section	.text.NetworkInit,"ax",%progbits
 169              		.align	2
 170              		.global	NetworkInit
 171              		.code	16
 172              		.thumb_func
 173              		.type	NetworkInit, %function
 174              	NetworkInit:
 175              	.LFB3:
  45:.\network.c   **** 
  46:.\network.c   **** void NetworkInit()
  47:.\network.c   **** {
 176              		.loc 1 47 0
 177              		.cfi_startproc
 178 0000 80B5     		push	{r7, lr}
ARM GAS  C:\DOCUME~1\9335~1\LOCALS~1\Temp\ccOoUTJJ.s 			page 5


 179              		.cfi_def_cfa_offset 8
 180              		.cfi_offset 7, -8
 181              		.cfi_offset 14, -4
 182 0002 82B0     		sub	sp, sp, #8
 183              		.cfi_def_cfa_offset 16
 184 0004 00AF     		add	r7, sp, #0
 185              		.cfi_def_cfa_register 7
  48:.\network.c   ****     void (* XB)(void);
  49:.\network.c   ****     XB = UART_Read;
 186              		.loc 1 49 0
 187 0006 044B     		ldr	r3, .L7
 188 0008 7B60     		str	r3, [r7, #4]
  50:.\network.c   ****     UART_XB_SetCustomInterruptHandler(XB);
 189              		.loc 1 50 0
 190 000a 7B68     		ldr	r3, [r7, #4]
 191 000c 181C     		mov	r0, r3
 192 000e FFF7FEFF 		bl	UART_XB_SetCustomInterruptHandler
  51:.\network.c   **** }
 193              		.loc 1 51 0
 194 0012 BD46     		mov	sp, r7
 195 0014 02B0     		add	sp, sp, #8
 196              		@ sp needed
 197 0016 80BD     		pop	{r7, pc}
 198              	.L8:
 199              		.align	2
 200              	.L7:
 201 0018 00000000 		.word	UART_Read
 202              		.cfi_endproc
 203              	.LFE3:
 204              		.size	NetworkInit, .-NetworkInit
 205              		.section	.rodata
 206 0017 00       		.align	2
 207              	.LC10:
 208 0018 53656E64 		.ascii	"Sending Packet For Ready Start Module\015\012\000"
 208      696E6720 
 208      5061636B 
 208      65742046 
 208      6F722052 
 209              		.align	2
 210              	.LC13:
 211 0040 25303258 		.ascii	"%02X:%016LX%04X\000"
 211      3A253031 
 211      364C5825 
 211      30345800 
 212              		.align	2
 213              	.LC18:
 214 0050 52454144 		.ascii	"READY RESPONSE RECIEVED. HAVE CONNECTION\015\012\000"
 214      59205245 
 214      53504F4E 
 214      53452052 
 214      45434945 
 215              		.section	.text.CheckConnection,"ax",%progbits
 216              		.align	2
 217              		.global	CheckConnection
 218              		.code	16
 219              		.thumb_func
 220              		.type	CheckConnection, %function
ARM GAS  C:\DOCUME~1\9335~1\LOCALS~1\Temp\ccOoUTJJ.s 			page 6


 221              	CheckConnection:
 222              	.LFB4:
  52:.\network.c   **** 
  53:.\network.c   **** uint32_t CheckConnection()
  54:.\network.c   **** {
 223              		.loc 1 54 0
 224              		.cfi_startproc
 225 0000 90B5     		push	{r4, r7, lr}
 226              		.cfi_def_cfa_offset 12
 227              		.cfi_offset 4, -12
 228              		.cfi_offset 7, -8
 229              		.cfi_offset 14, -4
 230 0002 93B0     		sub	sp, sp, #76
 231              		.cfi_def_cfa_offset 88
 232 0004 04AF     		add	r7, sp, #16
 233              		.cfi_def_cfa 7, 72
  55:.\network.c   ****     char buffer[BUFF_LEN];
  56:.\network.c   ****     uint32_t Seq = 0U, OkResponse = 0U;
 234              		.loc 1 56 0
 235 0006 0023     		mov	r3, #0
 236 0008 7B63     		str	r3, [r7, #52]
 237 000a 0023     		mov	r3, #0
 238 000c 3B63     		str	r3, [r7, #48]
  57:.\network.c   ****     uint32_t Ticks = 0U;
 239              		.loc 1 57 0
 240 000e 0023     		mov	r3, #0
 241 0010 FB62     		str	r3, [r7, #44]
  58:.\network.c   ****     
  59:.\network.c   ****     #ifdef DEBUG_W_UART
  60:.\network.c   ****     UART_PC_UartPutString("Sending Packet For Ready Start Module\r\n");
 242              		.loc 1 60 0
 243 0012 2A4B     		ldr	r3, .L18
 244 0014 181C     		mov	r0, r3
 245 0016 FFF7FEFF 		bl	UART_PC_UartPutString
  61:.\network.c   ****     #endif
  62:.\network.c   ****     uint32_t Stat = 0;
 246              		.loc 1 62 0
 247 001a 0023     		mov	r3, #0
 248 001c BB62     		str	r3, [r7, #40]
  63:.\network.c   ****     while((!OkResponse) && (Seq<5)){
 249              		.loc 1 63 0
 250 001e 42E0     		b	.L10
 251              	.L16:
  64:.\network.c   ****         sprintf(szData, "%02X:%016LX%04X", RDY, (uint64_t)0u, (uint32_t)0u);
 252              		.loc 1 64 0
 253 0020 2749     		ldr	r1, .L18+4
 254 0022 284A     		ldr	r2, .L18+8
 255 0024 0023     		mov	r3, #0
 256 0026 0024     		mov	r4, #0
 257 0028 0093     		str	r3, [sp]
 258 002a 0194     		str	r4, [sp, #4]
 259 002c 0023     		mov	r3, #0
 260 002e 0293     		str	r3, [sp, #8]
 261 0030 081C     		mov	r0, r1
 262 0032 111C     		mov	r1, r2
 263 0034 1A22     		mov	r2, #26
 264 0036 FFF7FEFF 		bl	sprintf
ARM GAS  C:\DOCUME~1\9335~1\LOCALS~1\Temp\ccOoUTJJ.s 			page 7


  65:.\network.c   ****     
  66:.\network.c   ****         PackData(buffer, szData, Seq);
 265              		.loc 1 66 0
 266 003a 391C     		mov	r1, r7
 267 003c 204A     		ldr	r2, .L18+4
 268 003e 7B6B     		ldr	r3, [r7, #52]
 269 0040 081C     		mov	r0, r1
 270 0042 111C     		mov	r1, r2
 271 0044 1A1C     		mov	r2, r3
 272 0046 FFF7FEFF 		bl	PackData
  67:.\network.c   ****     
  68:.\network.c   ****         #ifdef DEBUG_W_UART
  69:.\network.c   ****             UART_PC_UartPutString("Data:\r\n");
 273              		.loc 1 69 0
 274 004a 1F4B     		ldr	r3, .L18+12
 275 004c 181C     		mov	r0, r3
 276 004e FFF7FEFF 		bl	UART_PC_UartPutString
  70:.\network.c   ****             UART_PC_UartPutString(buffer);
 277              		.loc 1 70 0
 278 0052 3B1C     		mov	r3, r7
 279 0054 181C     		mov	r0, r3
 280 0056 FFF7FEFF 		bl	UART_PC_UartPutString
  71:.\network.c   ****             UART_PC_UartPutString("\r\n");    
 281              		.loc 1 71 0
 282 005a 1C4B     		ldr	r3, .L18+16
 283 005c 181C     		mov	r0, r3
 284 005e FFF7FEFF 		bl	UART_PC_UartPutString
  72:.\network.c   ****         #endif    
  73:.\network.c   ****         
  74:.\network.c   ****         UART_XB_UartPutString(buffer);
 285              		.loc 1 74 0
 286 0062 3B1C     		mov	r3, r7
 287 0064 181C     		mov	r0, r3
 288 0066 FFF7FEFF 		bl	UART_XB_UartPutString
  75:.\network.c   ****         
  76:.\network.c   ****         Ticks = 0U;
 289              		.loc 1 76 0
 290 006a 0023     		mov	r3, #0
 291 006c FB62     		str	r3, [r7, #44]
  77:.\network.c   ****         
  78:.\network.c   ****         while((Ticks<50) && (!OkResponse)){
 292              		.loc 1 78 0
 293 006e 11E0     		b	.L11
 294              	.L14:
  79:.\network.c   ****             if (RXSTATUS == 20U) 
 295              		.loc 1 79 0
 296 0070 174B     		ldr	r3, .L18+20
 297 0072 1B78     		ldrb	r3, [r3]
 298 0074 142B     		cmp	r3, #20
 299 0076 07D1     		bne	.L12
  80:.\network.c   **** 		        {
  81:.\network.c   **** 			        UART_PC_UartPutString("READY RESPONSE RECIEVED. HAVE CONNECTION\r\n");
 300              		.loc 1 81 0
 301 0078 164B     		ldr	r3, .L18+24
 302 007a 181C     		mov	r0, r3
 303 007c FFF7FEFF 		bl	UART_PC_UartPutString
  82:.\network.c   **** 		            OkResponse = 1;
ARM GAS  C:\DOCUME~1\9335~1\LOCALS~1\Temp\ccOoUTJJ.s 			page 8


 304              		.loc 1 82 0
 305 0080 0123     		mov	r3, #1
 306 0082 3B63     		str	r3, [r7, #48]
  83:.\network.c   ****                     Stat = 1;
 307              		.loc 1 83 0
 308 0084 0123     		mov	r3, #1
 309 0086 BB62     		str	r3, [r7, #40]
 310              	.L12:
  84:.\network.c   ****                 }
  85:.\network.c   ****             CyDelay(50);      
 311              		.loc 1 85 0
 312 0088 3220     		mov	r0, #50
 313 008a FFF7FEFF 		bl	CyDelay
  86:.\network.c   ****             Ticks++;
 314              		.loc 1 86 0
 315 008e FB6A     		ldr	r3, [r7, #44]
 316 0090 0133     		add	r3, r3, #1
 317 0092 FB62     		str	r3, [r7, #44]
 318              	.L11:
  78:.\network.c   ****             if (RXSTATUS == 20U) 
 319              		.loc 1 78 0
 320 0094 FB6A     		ldr	r3, [r7, #44]
 321 0096 312B     		cmp	r3, #49
 322 0098 02D8     		bhi	.L13
  78:.\network.c   ****             if (RXSTATUS == 20U) 
 323              		.loc 1 78 0 is_stmt 0 discriminator 1
 324 009a 3B6B     		ldr	r3, [r7, #48]
 325 009c 002B     		cmp	r3, #0
 326 009e E7D0     		beq	.L14
 327              	.L13:
  87:.\network.c   ****             //char _tmp[20];
  88:.\network.c   ****             //sprintf(_tmp, "Ticks: %d\r\n", Ticks);
  89:.\network.c   ****             //UART_PC_UartPutString(_tmp);
  90:.\network.c   ****         }
  91:.\network.c   ****         Seq++;
 328              		.loc 1 91 0 is_stmt 1
 329 00a0 7B6B     		ldr	r3, [r7, #52]
 330 00a2 0133     		add	r3, r3, #1
 331 00a4 7B63     		str	r3, [r7, #52]
 332              	.L10:
  63:.\network.c   ****         sprintf(szData, "%02X:%016LX%04X", RDY, (uint64_t)0u, (uint32_t)0u);
 333              		.loc 1 63 0
 334 00a6 3B6B     		ldr	r3, [r7, #48]
 335 00a8 002B     		cmp	r3, #0
 336 00aa 02D1     		bne	.L15
  63:.\network.c   ****         sprintf(szData, "%02X:%016LX%04X", RDY, (uint64_t)0u, (uint32_t)0u);
 337              		.loc 1 63 0 is_stmt 0 discriminator 1
 338 00ac 7B6B     		ldr	r3, [r7, #52]
 339 00ae 042B     		cmp	r3, #4
 340 00b0 B6D9     		bls	.L16
 341              	.L15:
  92:.\network.c   ****     }
  93:.\network.c   ****     
  94:.\network.c   ****     return Stat;
 342              		.loc 1 94 0 is_stmt 1
 343 00b2 BB6A     		ldr	r3, [r7, #40]
  95:.\network.c   **** }
ARM GAS  C:\DOCUME~1\9335~1\LOCALS~1\Temp\ccOoUTJJ.s 			page 9


 344              		.loc 1 95 0
 345 00b4 181C     		mov	r0, r3
 346 00b6 BD46     		mov	sp, r7
 347 00b8 0FB0     		add	sp, sp, #60
 348              		@ sp needed
 349 00ba 90BD     		pop	{r4, r7, pc}
 350              	.L19:
 351              		.align	2
 352              	.L18:
 353 00bc 18000000 		.word	.LC10
 354 00c0 00000000 		.word	szData
 355 00c4 40000000 		.word	.LC13
 356 00c8 0C000000 		.word	.LC5
 357 00cc 14000000 		.word	.LC7
 358 00d0 00000000 		.word	RXSTATUS
 359 00d4 50000000 		.word	.LC18
 360              		.cfi_endproc
 361              	.LFE4:
 362              		.size	CheckConnection, .-CheckConnection
 363              		.section	.text.NTP_Send,"ax",%progbits
 364              		.align	2
 365              		.global	NTP_Send
 366              		.code	16
 367              		.thumb_func
 368              		.type	NTP_Send, %function
 369              	NTP_Send:
 370              	.LFB5:
  96:.\network.c   **** 
  97:.\network.c   **** 
  98:.\network.c   **** uint32_t NTP_Send()
  99:.\network.c   **** {
 371              		.loc 1 99 0
 372              		.cfi_startproc
 373 0000 80B5     		push	{r7, lr}
 374              		.cfi_def_cfa_offset 8
 375              		.cfi_offset 7, -8
 376              		.cfi_offset 14, -4
 377 0002 00AF     		add	r7, sp, #0
 378              		.cfi_def_cfa_register 7
 100:.\network.c   ****     return 1u;
 379              		.loc 1 100 0
 380 0004 0123     		mov	r3, #1
 101:.\network.c   **** }
 381              		.loc 1 101 0
 382 0006 181C     		mov	r0, r3
 383 0008 BD46     		mov	sp, r7
 384              		@ sp needed
 385 000a 80BD     		pop	{r7, pc}
 386              		.cfi_endproc
 387              	.LFE5:
 388              		.size	NTP_Send, .-NTP_Send
 389              		.section	.rodata
 390 007b 00       		.align	2
 391              	.LC21:
 392 007c 25303458 		.ascii	"%04X\000"
 392      00
 393 0081 000000   		.align	2
ARM GAS  C:\DOCUME~1\9335~1\LOCALS~1\Temp\ccOoUTJJ.s 			page 10


 394              	.LC23:
 395 0084 4100     		.ascii	"A\000"
 396 0086 0000     		.align	2
 397              	.LC25:
 398 0088 4600     		.ascii	"F\000"
 399 008a 0000     		.align	2
 400              	.LC28:
 401 008c 25303858 		.ascii	"%08X\000"
 401      00
 402 0091 000000   		.align	2
 403              	.LC30:
 404 0094 3C00     		.ascii	"<\000"
 405 0096 0000     		.align	2
 406              	.LC32:
 407 0098 2100     		.ascii	"!\000"
 408 009a 0000     		.align	2
 409              	.LC34:
 410 009c 4000     		.ascii	"@\000"
 411 009e 0000     		.align	2
 412              	.LC36:
 413 00a0 3E00     		.ascii	">\000"
 414 00a2 0000     		.section	.text.PackData,"ax",%progbits
 415              		.align	2
 416              		.global	PackData
 417              		.code	16
 418              		.thumb_func
 419              		.type	PackData, %function
 420              	PackData:
 421              	.LFB6:
 102:.\network.c   **** 
 103:.\network.c   **** uint8_t PackData(char *buff, char* data, uint32_t Sequence)
 104:.\network.c   **** {
 422              		.loc 1 104 0
 423              		.cfi_startproc
 424 0000 80B5     		push	{r7, lr}
 425              		.cfi_def_cfa_offset 8
 426              		.cfi_offset 7, -8
 427              		.cfi_offset 14, -4
 428 0002 86B0     		sub	sp, sp, #24
 429              		.cfi_def_cfa_offset 32
 430 0004 00AF     		add	r7, sp, #0
 431              		.cfi_def_cfa_register 7
 432 0006 F860     		str	r0, [r7, #12]
 433 0008 B960     		str	r1, [r7, #8]
 434 000a 7A60     		str	r2, [r7, #4]
 105:.\network.c   ****     uint32_t _crc;
 106:.\network.c   ****     char* _p;
 107:.\network.c   ****     
 108:.\network.c   ****     _p = data;
 435              		.loc 1 108 0
 436 000c BB68     		ldr	r3, [r7, #8]
 437 000e 7B61     		str	r3, [r7, #20]
 109:.\network.c   ****     
 110:.\network.c   ****     sprintf(szSeq, "%04X", Sequence);
 438              		.loc 1 110 0
 439 0010 4649     		ldr	r1, .L24
 440 0012 474A     		ldr	r2, .L24+4
ARM GAS  C:\DOCUME~1\9335~1\LOCALS~1\Temp\ccOoUTJJ.s 			page 11


 441 0014 7B68     		ldr	r3, [r7, #4]
 442 0016 081C     		mov	r0, r1
 443 0018 111C     		mov	r1, r2
 444 001a 1A1C     		mov	r2, r3
 445 001c FFF7FEFF 		bl	sprintf
 111:.\network.c   ****     
 112:.\network.c   ****     _crc = crc32_reset();
 446              		.loc 1 112 0
 447 0020 0123     		mov	r3, #1
 448 0022 5B42     		neg	r3, r3
 449 0024 3B61     		str	r3, [r7, #16]
 113:.\network.c   ****     _crc = crc32_calc_block((uint8_t *)"A", 1, _crc);
 450              		.loc 1 113 0
 451 0026 434A     		ldr	r2, .L24+8
 452 0028 3B69     		ldr	r3, [r7, #16]
 453 002a 101C     		mov	r0, r2
 454 002c 0121     		mov	r1, #1
 455 002e 1A1C     		mov	r2, r3
 456 0030 FFF7FEFF 		bl	crc32_calc_block
 457 0034 031C     		mov	r3, r0
 458 0036 3B61     		str	r3, [r7, #16]
 114:.\network.c   ****     _crc = crc32_calc_block((uint8_t *)_p, strlen(_p), _crc);
 459              		.loc 1 114 0
 460 0038 7B69     		ldr	r3, [r7, #20]
 461 003a 181C     		mov	r0, r3
 462 003c FFF7FEFF 		bl	strlen
 463 0040 011C     		mov	r1, r0
 464 0042 7A69     		ldr	r2, [r7, #20]
 465 0044 3B69     		ldr	r3, [r7, #16]
 466 0046 101C     		mov	r0, r2
 467 0048 1A1C     		mov	r2, r3
 468 004a FFF7FEFF 		bl	crc32_calc_block
 469 004e 031C     		mov	r3, r0
 470 0050 3B61     		str	r3, [r7, #16]
 115:.\network.c   ****     _crc = crc32_calc_block((uint8_t *)"F", 1, _crc);
 471              		.loc 1 115 0
 472 0052 394A     		ldr	r2, .L24+12
 473 0054 3B69     		ldr	r3, [r7, #16]
 474 0056 101C     		mov	r0, r2
 475 0058 0121     		mov	r1, #1
 476 005a 1A1C     		mov	r2, r3
 477 005c FFF7FEFF 		bl	crc32_calc_block
 478 0060 031C     		mov	r3, r0
 479 0062 3B61     		str	r3, [r7, #16]
 116:.\network.c   ****     _crc = crc32_final(_crc);
 480              		.loc 1 116 0
 481 0064 3B69     		ldr	r3, [r7, #16]
 482 0066 DB43     		mvn	r3, r3
 483 0068 3B61     		str	r3, [r7, #16]
 117:.\network.c   ****     
 118:.\network.c   ****     sprintf(szCheckSum, "%08X", _crc);
 484              		.loc 1 118 0
 485 006a 3449     		ldr	r1, .L24+16
 486 006c 344A     		ldr	r2, .L24+20
 487 006e 3B69     		ldr	r3, [r7, #16]
 488 0070 081C     		mov	r0, r1
 489 0072 111C     		mov	r1, r2
ARM GAS  C:\DOCUME~1\9335~1\LOCALS~1\Temp\ccOoUTJJ.s 			page 12


 490 0074 1A1C     		mov	r2, r3
 491 0076 FFF7FEFF 		bl	sprintf
 119:.\network.c   ****     
 120:.\network.c   ****     strcpy(buff, "<");
 492              		.loc 1 120 0
 493 007a FA68     		ldr	r2, [r7, #12]
 494 007c 314B     		ldr	r3, .L24+24
 495 007e 111C     		mov	r1, r2
 496 0080 1A1C     		mov	r2, r3
 497 0082 0223     		mov	r3, #2
 498 0084 081C     		mov	r0, r1
 499 0086 111C     		mov	r1, r2
 500 0088 1A1C     		mov	r2, r3
 501 008a FFF7FEFF 		bl	memcpy
 121:.\network.c   ****     strcat(buff, szSeq);
 502              		.loc 1 121 0
 503 008e FA68     		ldr	r2, [r7, #12]
 504 0090 264B     		ldr	r3, .L24
 505 0092 101C     		mov	r0, r2
 506 0094 191C     		mov	r1, r3
 507 0096 FFF7FEFF 		bl	strcat
 122:.\network.c   ****     strcat(buff, FRM0);
 508              		.loc 1 122 0
 509 009a FB68     		ldr	r3, [r7, #12]
 510 009c 181C     		mov	r0, r3
 511 009e FFF7FEFF 		bl	strlen
 512 00a2 031C     		mov	r3, r0
 513 00a4 1A1C     		mov	r2, r3
 514 00a6 FB68     		ldr	r3, [r7, #12]
 515 00a8 9A18     		add	r2, r3, r2
 516 00aa 274B     		ldr	r3, .L24+28
 517 00ac 111C     		mov	r1, r2
 518 00ae 1A1C     		mov	r2, r3
 519 00b0 0223     		mov	r3, #2
 520 00b2 081C     		mov	r0, r1
 521 00b4 111C     		mov	r1, r2
 522 00b6 1A1C     		mov	r2, r3
 523 00b8 FFF7FEFF 		bl	memcpy
 123:.\network.c   ****     strcat(buff, _p);
 524              		.loc 1 123 0
 525 00bc FA68     		ldr	r2, [r7, #12]
 526 00be 7B69     		ldr	r3, [r7, #20]
 527 00c0 101C     		mov	r0, r2
 528 00c2 191C     		mov	r1, r3
 529 00c4 FFF7FEFF 		bl	strcat
 124:.\network.c   ****     strcat(buff, FRM1);    
 530              		.loc 1 124 0
 531 00c8 FB68     		ldr	r3, [r7, #12]
 532 00ca 181C     		mov	r0, r3
 533 00cc FFF7FEFF 		bl	strlen
 534 00d0 031C     		mov	r3, r0
 535 00d2 1A1C     		mov	r2, r3
 536 00d4 FB68     		ldr	r3, [r7, #12]
 537 00d6 9A18     		add	r2, r3, r2
 538 00d8 1C4B     		ldr	r3, .L24+32
 539 00da 111C     		mov	r1, r2
 540 00dc 1A1C     		mov	r2, r3
ARM GAS  C:\DOCUME~1\9335~1\LOCALS~1\Temp\ccOoUTJJ.s 			page 13


 541 00de 0223     		mov	r3, #2
 542 00e0 081C     		mov	r0, r1
 543 00e2 111C     		mov	r1, r2
 544 00e4 1A1C     		mov	r2, r3
 545 00e6 FFF7FEFF 		bl	memcpy
 125:.\network.c   ****     strcat(buff, szCheckSum);
 546              		.loc 1 125 0
 547 00ea FA68     		ldr	r2, [r7, #12]
 548 00ec 134B     		ldr	r3, .L24+16
 549 00ee 101C     		mov	r0, r2
 550 00f0 191C     		mov	r1, r3
 551 00f2 FFF7FEFF 		bl	strcat
 126:.\network.c   ****     strcat(buff, ">");
 552              		.loc 1 126 0
 553 00f6 FB68     		ldr	r3, [r7, #12]
 554 00f8 181C     		mov	r0, r3
 555 00fa FFF7FEFF 		bl	strlen
 556 00fe 031C     		mov	r3, r0
 557 0100 1A1C     		mov	r2, r3
 558 0102 FB68     		ldr	r3, [r7, #12]
 559 0104 9A18     		add	r2, r3, r2
 560 0106 124B     		ldr	r3, .L24+36
 561 0108 111C     		mov	r1, r2
 562 010a 1A1C     		mov	r2, r3
 563 010c 0223     		mov	r3, #2
 564 010e 081C     		mov	r0, r1
 565 0110 111C     		mov	r1, r2
 566 0112 1A1C     		mov	r2, r3
 567 0114 FFF7FEFF 		bl	memcpy
 127:.\network.c   ****     
 128:.\network.c   ****     return strlen(buff);
 568              		.loc 1 128 0
 569 0118 FB68     		ldr	r3, [r7, #12]
 570 011a 181C     		mov	r0, r3
 571 011c FFF7FEFF 		bl	strlen
 572 0120 031C     		mov	r3, r0
 573 0122 DBB2     		uxtb	r3, r3
 129:.\network.c   **** }
 574              		.loc 1 129 0
 575 0124 181C     		mov	r0, r3
 576 0126 BD46     		mov	sp, r7
 577 0128 06B0     		add	sp, sp, #24
 578              		@ sp needed
 579 012a 80BD     		pop	{r7, pc}
 580              	.L25:
 581              		.align	2
 582              	.L24:
 583 012c 00000000 		.word	szSeq
 584 0130 7C000000 		.word	.LC21
 585 0134 84000000 		.word	.LC23
 586 0138 88000000 		.word	.LC25
 587 013c 00000000 		.word	szCheckSum
 588 0140 8C000000 		.word	.LC28
 589 0144 94000000 		.word	.LC30
 590 0148 98000000 		.word	.LC32
 591 014c 9C000000 		.word	.LC34
 592 0150 A0000000 		.word	.LC36
ARM GAS  C:\DOCUME~1\9335~1\LOCALS~1\Temp\ccOoUTJJ.s 			page 14


 593              		.cfi_endproc
 594              	.LFE6:
 595              		.size	PackData, .-PackData
 596              		.text
 597              	.Letext0:
 598              		.file 2 "c:\\program files\\cypress\\psoc creator\\3.3\\psoc creator\\import\\gnu\\arm\\4.9.3\\arm
 599              		.file 3 "c:\\program files\\cypress\\psoc creator\\3.3\\psoc creator\\import\\gnu\\arm\\4.9.3\\arm
 600              		.file 4 "Generated_Source\\PSoC4/cytypes.h"
 601              		.file 5 "./svt.h"
 602              		.file 6 "./network.h"
 603              		.section	.debug_info,"",%progbits
 604              	.Ldebug_info0:
 605 0000 C6030000 		.4byte	0x3c6
 606 0004 0400     		.2byte	0x4
 607 0006 00000000 		.4byte	.Ldebug_abbrev0
 608 000a 04       		.byte	0x4
 609 000b 01       		.uleb128 0x1
 610 000c 4B020000 		.4byte	.LASF53
 611 0010 01       		.byte	0x1
 612 0011 2E010000 		.4byte	.LASF54
 613 0015 5A010000 		.4byte	.LASF55
 614 0019 00000000 		.4byte	.Ldebug_ranges0+0
 615 001d 00000000 		.4byte	0
 616 0021 00000000 		.4byte	.Ldebug_line0
 617 0025 02       		.uleb128 0x2
 618 0026 01       		.byte	0x1
 619 0027 06       		.byte	0x6
 620 0028 4D000000 		.4byte	.LASF0
 621 002c 03       		.uleb128 0x3
 622 002d 11000000 		.4byte	.LASF3
 623 0031 02       		.byte	0x2
 624 0032 1D       		.byte	0x1d
 625 0033 37000000 		.4byte	0x37
 626 0037 02       		.uleb128 0x2
 627 0038 01       		.byte	0x1
 628 0039 08       		.byte	0x8
 629 003a C4010000 		.4byte	.LASF1
 630 003e 02       		.uleb128 0x2
 631 003f 02       		.byte	0x2
 632 0040 05       		.byte	0x5
 633 0041 DD010000 		.4byte	.LASF2
 634 0045 03       		.uleb128 0x3
 635 0046 FC010000 		.4byte	.LASF4
 636 004a 02       		.byte	0x2
 637 004b 2B       		.byte	0x2b
 638 004c 50000000 		.4byte	0x50
 639 0050 02       		.uleb128 0x2
 640 0051 02       		.byte	0x2
 641 0052 07       		.byte	0x7
 642 0053 DA000000 		.4byte	.LASF5
 643 0057 02       		.uleb128 0x2
 644 0058 04       		.byte	0x4
 645 0059 05       		.byte	0x5
 646 005a 5E000000 		.4byte	.LASF6
 647 005e 03       		.uleb128 0x3
 648 005f A1000000 		.4byte	.LASF7
 649 0063 02       		.byte	0x2
ARM GAS  C:\DOCUME~1\9335~1\LOCALS~1\Temp\ccOoUTJJ.s 			page 15


 650 0064 41       		.byte	0x41
 651 0065 69000000 		.4byte	0x69
 652 0069 02       		.uleb128 0x2
 653 006a 04       		.byte	0x4
 654 006b 07       		.byte	0x7
 655 006c BE000000 		.4byte	.LASF8
 656 0070 02       		.uleb128 0x2
 657 0071 08       		.byte	0x8
 658 0072 05       		.byte	0x5
 659 0073 3F000000 		.4byte	.LASF9
 660 0077 03       		.uleb128 0x3
 661 0078 A5010000 		.4byte	.LASF10
 662 007c 02       		.byte	0x2
 663 007d 5B       		.byte	0x5b
 664 007e 82000000 		.4byte	0x82
 665 0082 02       		.uleb128 0x2
 666 0083 08       		.byte	0x8
 667 0084 07       		.byte	0x7
 668 0085 1B000000 		.4byte	.LASF11
 669 0089 04       		.uleb128 0x4
 670 008a 04       		.byte	0x4
 671 008b 05       		.byte	0x5
 672 008c 696E7400 		.ascii	"int\000"
 673 0090 02       		.uleb128 0x2
 674 0091 04       		.byte	0x4
 675 0092 07       		.byte	0x7
 676 0093 B1000000 		.4byte	.LASF12
 677 0097 03       		.uleb128 0x3
 678 0098 43020000 		.4byte	.LASF13
 679 009c 03       		.byte	0x3
 680 009d 15       		.byte	0x15
 681 009e 2C000000 		.4byte	0x2c
 682 00a2 03       		.uleb128 0x3
 683 00a3 67000000 		.4byte	.LASF14
 684 00a7 03       		.byte	0x3
 685 00a8 21       		.byte	0x21
 686 00a9 45000000 		.4byte	0x45
 687 00ad 03       		.uleb128 0x3
 688 00ae EE010000 		.4byte	.LASF15
 689 00b2 03       		.byte	0x3
 690 00b3 2D       		.byte	0x2d
 691 00b4 5E000000 		.4byte	0x5e
 692 00b8 03       		.uleb128 0x3
 693 00b9 08000000 		.4byte	.LASF16
 694 00bd 03       		.byte	0x3
 695 00be 39       		.byte	0x39
 696 00bf 77000000 		.4byte	0x77
 697 00c3 05       		.uleb128 0x5
 698 00c4 92000000 		.4byte	.LASF17
 699 00c8 04       		.byte	0x4
 700 00c9 9A01     		.2byte	0x19a
 701 00cb 69000000 		.4byte	0x69
 702 00cf 02       		.uleb128 0x2
 703 00d0 04       		.byte	0x4
 704 00d1 04       		.byte	0x4
 705 00d2 B0010000 		.4byte	.LASF18
 706 00d6 02       		.uleb128 0x2
ARM GAS  C:\DOCUME~1\9335~1\LOCALS~1\Temp\ccOoUTJJ.s 			page 16


 707 00d7 08       		.byte	0x8
 708 00d8 04       		.byte	0x4
 709 00d9 70000000 		.4byte	.LASF19
 710 00dd 02       		.uleb128 0x2
 711 00de 01       		.byte	0x1
 712 00df 08       		.byte	0x8
 713 00e0 F7010000 		.4byte	.LASF20
 714 00e4 05       		.uleb128 0x5
 715 00e5 1F010000 		.4byte	.LASF21
 716 00e9 04       		.byte	0x4
 717 00ea 4402     		.2byte	0x244
 718 00ec F0000000 		.4byte	0xf0
 719 00f0 06       		.uleb128 0x6
 720 00f1 C3000000 		.4byte	0xc3
 721 00f5 07       		.uleb128 0x7
 722 00f6 04       		.byte	0x4
 723 00f7 FB000000 		.4byte	0xfb
 724 00fb 08       		.uleb128 0x8
 725 00fc 02       		.uleb128 0x2
 726 00fd 04       		.byte	0x4
 727 00fe 07       		.byte	0x7
 728 00ff 4C010000 		.4byte	.LASF22
 729 0103 07       		.uleb128 0x7
 730 0104 04       		.byte	0x4
 731 0105 DD000000 		.4byte	0xdd
 732 0109 09       		.uleb128 0x9
 733 010a 55010000 		.4byte	.LASF56
 734 010e 20       		.byte	0x20
 735 010f 05       		.byte	0x5
 736 0110 09       		.byte	0x9
 737 0111 5E010000 		.4byte	0x15e
 738 0115 0A       		.uleb128 0xa
 739 0116 53657100 		.ascii	"Seq\000"
 740 011a 05       		.byte	0x5
 741 011b 0B       		.byte	0xb
 742 011c A2000000 		.4byte	0xa2
 743 0120 00       		.byte	0
 744 0121 0B       		.uleb128 0xb
 745 0122 99000000 		.4byte	.LASF23
 746 0126 05       		.byte	0x5
 747 0127 0C       		.byte	0xc
 748 0128 89000000 		.4byte	0x89
 749 012c 04       		.byte	0x4
 750 012d 0B       		.uleb128 0xb
 751 012e ED000000 		.4byte	.LASF24
 752 0132 05       		.byte	0x5
 753 0133 0D       		.byte	0xd
 754 0134 B8000000 		.4byte	0xb8
 755 0138 08       		.byte	0x8
 756 0139 0B       		.uleb128 0xb
 757 013a F3000000 		.4byte	.LASF25
 758 013e 05       		.byte	0x5
 759 013f 0E       		.byte	0xe
 760 0140 97000000 		.4byte	0x97
 761 0144 10       		.byte	0x10
 762 0145 0B       		.uleb128 0xb
 763 0146 B6010000 		.4byte	.LASF26
ARM GAS  C:\DOCUME~1\9335~1\LOCALS~1\Temp\ccOoUTJJ.s 			page 17


 764 014a 05       		.byte	0x5
 765 014b 0F       		.byte	0xf
 766 014c AD000000 		.4byte	0xad
 767 0150 14       		.byte	0x14
 768 0151 0B       		.uleb128 0xb
 769 0152 D9020000 		.4byte	.LASF27
 770 0156 05       		.byte	0x5
 771 0157 10       		.byte	0x10
 772 0158 97000000 		.4byte	0x97
 773 015c 18       		.byte	0x18
 774 015d 00       		.byte	0
 775 015e 0C       		.uleb128 0xc
 776 015f 0E020000 		.4byte	.LASF31
 777 0163 01       		.byte	0x1
 778 0164 0E       		.byte	0xe
 779 0165 00000000 		.4byte	.LFB2
 780 0169 CC000000 		.4byte	.LFE2-.LFB2
 781 016d 01       		.uleb128 0x1
 782 016e 9C       		.byte	0x9c
 783 016f C5010000 		.4byte	0x1c5
 784 0173 0D       		.uleb128 0xd
 785 0174 89000000 		.4byte	.LASF28
 786 0178 01       		.byte	0x1
 787 0179 10       		.byte	0x10
 788 017a 97000000 		.4byte	0x97
 789 017e 02       		.uleb128 0x2
 790 017f 91       		.byte	0x91
 791 0180 77       		.sleb128 -9
 792 0181 0E       		.uleb128 0xe
 793 0182 45525200 		.ascii	"ERR\000"
 794 0186 01       		.byte	0x1
 795 0187 14       		.byte	0x14
 796 0188 AD000000 		.4byte	0xad
 797 018c 02       		.uleb128 0x2
 798 018d 91       		.byte	0x91
 799 018e 70       		.sleb128 -16
 800 018f 0F       		.uleb128 0xf
 801 0190 3E000000 		.4byte	.LBB2
 802 0194 1C000000 		.4byte	.LBE2-.LBB2
 803 0198 AB010000 		.4byte	0x1ab
 804 019c 0D       		.uleb128 0xd
 805 019d BF010000 		.4byte	.LASF29
 806 01a1 01       		.byte	0x1
 807 01a2 19       		.byte	0x19
 808 01a3 C5010000 		.4byte	0x1c5
 809 01a7 02       		.uleb128 0x2
 810 01a8 91       		.byte	0x91
 811 01a9 60       		.sleb128 -32
 812 01aa 00       		.byte	0
 813 01ab 10       		.uleb128 0x10
 814 01ac 76000000 		.4byte	.LBB3
 815 01b0 2E000000 		.4byte	.LBE3-.LBB3
 816 01b4 0D       		.uleb128 0xd
 817 01b5 31020000 		.4byte	.LASF30
 818 01b9 01       		.byte	0x1
 819 01ba 22       		.byte	0x22
 820 01bb D5010000 		.4byte	0x1d5
ARM GAS  C:\DOCUME~1\9335~1\LOCALS~1\Temp\ccOoUTJJ.s 			page 18


 821 01bf 03       		.uleb128 0x3
 822 01c0 91       		.byte	0x91
 823 01c1 AC7F     		.sleb128 -84
 824 01c3 00       		.byte	0
 825 01c4 00       		.byte	0
 826 01c5 11       		.uleb128 0x11
 827 01c6 DD000000 		.4byte	0xdd
 828 01ca D5010000 		.4byte	0x1d5
 829 01ce 12       		.uleb128 0x12
 830 01cf FC000000 		.4byte	0xfc
 831 01d3 0E       		.byte	0xe
 832 01d4 00       		.byte	0
 833 01d5 11       		.uleb128 0x11
 834 01d6 DD000000 		.4byte	0xdd
 835 01da E5010000 		.4byte	0x1e5
 836 01de 12       		.uleb128 0x12
 837 01df FC000000 		.4byte	0xfc
 838 01e3 31       		.byte	0x31
 839 01e4 00       		.byte	0
 840 01e5 13       		.uleb128 0x13
 841 01e6 F9000000 		.4byte	.LASF57
 842 01ea 01       		.byte	0x1
 843 01eb 2E       		.byte	0x2e
 844 01ec 00000000 		.4byte	.LFB3
 845 01f0 1C000000 		.4byte	.LFE3-.LFB3
 846 01f4 01       		.uleb128 0x1
 847 01f5 9C       		.byte	0x9c
 848 01f6 08020000 		.4byte	0x208
 849 01fa 0E       		.uleb128 0xe
 850 01fb 584200   		.ascii	"XB\000"
 851 01fe 01       		.byte	0x1
 852 01ff 30       		.byte	0x30
 853 0200 F5000000 		.4byte	0xf5
 854 0204 02       		.uleb128 0x2
 855 0205 91       		.byte	0x91
 856 0206 74       		.sleb128 -12
 857 0207 00       		.byte	0
 858 0208 14       		.uleb128 0x14
 859 0209 18020000 		.4byte	.LASF32
 860 020d 01       		.byte	0x1
 861 020e 35       		.byte	0x35
 862 020f AD000000 		.4byte	0xad
 863 0213 00000000 		.4byte	.LFB4
 864 0217 D8000000 		.4byte	.LFE4-.LFB4
 865 021b 01       		.uleb128 0x1
 866 021c 9C       		.byte	0x9c
 867 021d 69020000 		.4byte	0x269
 868 0221 0D       		.uleb128 0xd
 869 0222 07020000 		.4byte	.LASF33
 870 0226 01       		.byte	0x1
 871 0227 37       		.byte	0x37
 872 0228 69020000 		.4byte	0x269
 873 022c 03       		.uleb128 0x3
 874 022d 91       		.byte	0x91
 875 022e B87F     		.sleb128 -72
 876 0230 0E       		.uleb128 0xe
 877 0231 53657100 		.ascii	"Seq\000"
ARM GAS  C:\DOCUME~1\9335~1\LOCALS~1\Temp\ccOoUTJJ.s 			page 19


 878 0235 01       		.byte	0x1
 879 0236 38       		.byte	0x38
 880 0237 AD000000 		.4byte	0xad
 881 023b 02       		.uleb128 0x2
 882 023c 91       		.byte	0x91
 883 023d 6C       		.sleb128 -20
 884 023e 0D       		.uleb128 0xd
 885 023f 3A010000 		.4byte	.LASF34
 886 0243 01       		.byte	0x1
 887 0244 38       		.byte	0x38
 888 0245 AD000000 		.4byte	0xad
 889 0249 02       		.uleb128 0x2
 890 024a 91       		.byte	0x91
 891 024b 68       		.sleb128 -24
 892 024c 0D       		.uleb128 0xd
 893 024d 77000000 		.4byte	.LASF35
 894 0251 01       		.byte	0x1
 895 0252 39       		.byte	0x39
 896 0253 AD000000 		.4byte	0xad
 897 0257 02       		.uleb128 0x2
 898 0258 91       		.byte	0x91
 899 0259 64       		.sleb128 -28
 900 025a 0D       		.uleb128 0xd
 901 025b D0000000 		.4byte	.LASF36
 902 025f 01       		.byte	0x1
 903 0260 3E       		.byte	0x3e
 904 0261 AD000000 		.4byte	0xad
 905 0265 02       		.uleb128 0x2
 906 0266 91       		.byte	0x91
 907 0267 60       		.sleb128 -32
 908 0268 00       		.byte	0
 909 0269 11       		.uleb128 0x11
 910 026a DD000000 		.4byte	0xdd
 911 026e 79020000 		.4byte	0x279
 912 0272 12       		.uleb128 0x12
 913 0273 FC000000 		.4byte	0xfc
 914 0277 27       		.byte	0x27
 915 0278 00       		.byte	0
 916 0279 15       		.uleb128 0x15
 917 027a 25010000 		.4byte	.LASF58
 918 027e 01       		.byte	0x1
 919 027f 62       		.byte	0x62
 920 0280 AD000000 		.4byte	0xad
 921 0284 00000000 		.4byte	.LFB5
 922 0288 0C000000 		.4byte	.LFE5-.LFB5
 923 028c 01       		.uleb128 0x1
 924 028d 9C       		.byte	0x9c
 925 028e 16       		.uleb128 0x16
 926 028f 0A010000 		.4byte	.LASF59
 927 0293 01       		.byte	0x1
 928 0294 67       		.byte	0x67
 929 0295 97000000 		.4byte	0x97
 930 0299 00000000 		.4byte	.LFB6
 931 029d 54010000 		.4byte	.LFE6-.LFB6
 932 02a1 01       		.uleb128 0x1
 933 02a2 9C       		.byte	0x9c
 934 02a3 ED020000 		.4byte	0x2ed
ARM GAS  C:\DOCUME~1\9335~1\LOCALS~1\Temp\ccOoUTJJ.s 			page 20


 935 02a7 17       		.uleb128 0x17
 936 02a8 59000000 		.4byte	.LASF37
 937 02ac 01       		.byte	0x1
 938 02ad 67       		.byte	0x67
 939 02ae 03010000 		.4byte	0x103
 940 02b2 02       		.uleb128 0x2
 941 02b3 91       		.byte	0x91
 942 02b4 6C       		.sleb128 -20
 943 02b5 17       		.uleb128 0x17
 944 02b6 D5000000 		.4byte	.LASF38
 945 02ba 01       		.byte	0x1
 946 02bb 67       		.byte	0x67
 947 02bc 03010000 		.4byte	0x103
 948 02c0 02       		.uleb128 0x2
 949 02c1 91       		.byte	0x91
 950 02c2 68       		.sleb128 -24
 951 02c3 17       		.uleb128 0x17
 952 02c4 3A020000 		.4byte	.LASF39
 953 02c8 01       		.byte	0x1
 954 02c9 67       		.byte	0x67
 955 02ca AD000000 		.4byte	0xad
 956 02ce 02       		.uleb128 0x2
 957 02cf 91       		.byte	0x91
 958 02d0 64       		.sleb128 -28
 959 02d1 0D       		.uleb128 0xd
 960 02d2 AC000000 		.4byte	.LASF40
 961 02d6 01       		.byte	0x1
 962 02d7 69       		.byte	0x69
 963 02d8 AD000000 		.4byte	0xad
 964 02dc 02       		.uleb128 0x2
 965 02dd 91       		.byte	0x91
 966 02de 70       		.sleb128 -16
 967 02df 0E       		.uleb128 0xe
 968 02e0 5F7000   		.ascii	"_p\000"
 969 02e3 01       		.byte	0x1
 970 02e4 6A       		.byte	0x6a
 971 02e5 03010000 		.4byte	0x103
 972 02e9 02       		.uleb128 0x2
 973 02ea 91       		.byte	0x91
 974 02eb 74       		.sleb128 -12
 975 02ec 00       		.byte	0
 976 02ed 18       		.uleb128 0x18
 977 02ee 13010000 		.4byte	.LASF41
 978 02f2 05       		.byte	0x5
 979 02f3 3F       		.byte	0x3f
 980 02f4 97000000 		.4byte	0x97
 981 02f8 05       		.uleb128 0x5
 982 02f9 03       		.byte	0x3
 983 02fa 00000000 		.4byte	PROTO_STATE
 984 02fe 18       		.uleb128 0x18
 985 02ff 7D000000 		.4byte	.LASF42
 986 0303 05       		.byte	0x5
 987 0304 3F       		.byte	0x3f
 988 0305 97000000 		.4byte	0x97
 989 0309 05       		.uleb128 0x5
 990 030a 03       		.byte	0x3
 991 030b 00000000 		.4byte	LenD1
ARM GAS  C:\DOCUME~1\9335~1\LOCALS~1\Temp\ccOoUTJJ.s 			page 21


 992 030f 18       		.uleb128 0x18
 993 0310 83000000 		.4byte	.LASF43
 994 0314 05       		.byte	0x5
 995 0315 3F       		.byte	0x3f
 996 0316 97000000 		.4byte	0x97
 997 031a 05       		.uleb128 0x5
 998 031b 03       		.byte	0x3
 999 031c 00000000 		.4byte	LenD2
 1000 0320 18       		.uleb128 0x18
 1001 0321 45010000 		.4byte	.LASF44
 1002 0325 05       		.byte	0x5
 1003 0326 3F       		.byte	0x3f
 1004 0327 97000000 		.4byte	0x97
 1005 032b 05       		.uleb128 0x5
 1006 032c 03       		.byte	0x3
 1007 032d 00000000 		.4byte	LenSeq
 1008 0331 18       		.uleb128 0x18
 1009 0332 E7010000 		.4byte	.LASF45
 1010 0336 05       		.byte	0x5
 1011 0337 3F       		.byte	0x3f
 1012 0338 97000000 		.4byte	0x97
 1013 033c 05       		.uleb128 0x5
 1014 033d 03       		.byte	0x3
 1015 033e 00000000 		.4byte	LenChS
 1016 0342 18       		.uleb128 0x18
 1017 0343 05010000 		.4byte	.LASF46
 1018 0347 05       		.byte	0x5
 1019 0348 3F       		.byte	0x3f
 1020 0349 97000000 		.4byte	0x97
 1021 034d 05       		.uleb128 0x5
 1022 034e 03       		.byte	0x3
 1023 034f 00000000 		.4byte	LenC
 1024 0353 11       		.uleb128 0x11
 1025 0354 DD000000 		.4byte	0xdd
 1026 0358 63030000 		.4byte	0x363
 1027 035c 12       		.uleb128 0x12
 1028 035d FC000000 		.4byte	0xfc
 1029 0361 13       		.byte	0x13
 1030 0362 00       		.byte	0
 1031 0363 18       		.uleb128 0x18
 1032 0364 39000000 		.4byte	.LASF47
 1033 0368 06       		.byte	0x6
 1034 0369 2B       		.byte	0x2b
 1035 036a 53030000 		.4byte	0x353
 1036 036e 05       		.uleb128 0x5
 1037 036f 03       		.byte	0x3
 1038 0370 00000000 		.4byte	szSeq
 1039 0374 18       		.uleb128 0x18
 1040 0375 32000000 		.4byte	.LASF48
 1041 0379 06       		.byte	0x6
 1042 037a 2C       		.byte	0x2c
 1043 037b 53030000 		.4byte	0x353
 1044 037f 05       		.uleb128 0x5
 1045 0380 03       		.byte	0x3
 1046 0381 00000000 		.4byte	szData
 1047 0385 18       		.uleb128 0x18
 1048 0386 D2010000 		.4byte	.LASF49
ARM GAS  C:\DOCUME~1\9335~1\LOCALS~1\Temp\ccOoUTJJ.s 			page 22


 1049 038a 06       		.byte	0x6
 1050 038b 2D       		.byte	0x2d
 1051 038c 53030000 		.4byte	0x353
 1052 0390 05       		.uleb128 0x5
 1053 0391 03       		.byte	0x3
 1054 0392 00000000 		.4byte	szCheckSum
 1055 0396 18       		.uleb128 0x18
 1056 0397 00000000 		.4byte	.LASF50
 1057 039b 06       		.byte	0x6
 1058 039c 2F       		.byte	0x2f
 1059 039d 09010000 		.4byte	0x109
 1060 03a1 05       		.uleb128 0x5
 1061 03a2 03       		.byte	0x3
 1062 03a3 00000000 		.4byte	TX_RESP
 1063 03a7 18       		.uleb128 0x18
 1064 03a8 28020000 		.4byte	.LASF51
 1065 03ac 06       		.byte	0x6
 1066 03ad 30       		.byte	0x30
 1067 03ae 97000000 		.4byte	0x97
 1068 03b2 05       		.uleb128 0x5
 1069 03b3 03       		.byte	0x3
 1070 03b4 00000000 		.4byte	RXSTATUS
 1071 03b8 18       		.uleb128 0x18
 1072 03b9 9C010000 		.4byte	.LASF52
 1073 03bd 06       		.byte	0x6
 1074 03be 31       		.byte	0x31
 1075 03bf D5010000 		.4byte	0x1d5
 1076 03c3 05       		.uleb128 0x5
 1077 03c4 03       		.byte	0x3
 1078 03c5 00000000 		.4byte	RespBuff
 1079 03c9 00       		.byte	0
 1080              		.section	.debug_abbrev,"",%progbits
 1081              	.Ldebug_abbrev0:
 1082 0000 01       		.uleb128 0x1
 1083 0001 11       		.uleb128 0x11
 1084 0002 01       		.byte	0x1
 1085 0003 25       		.uleb128 0x25
 1086 0004 0E       		.uleb128 0xe
 1087 0005 13       		.uleb128 0x13
 1088 0006 0B       		.uleb128 0xb
 1089 0007 03       		.uleb128 0x3
 1090 0008 0E       		.uleb128 0xe
 1091 0009 1B       		.uleb128 0x1b
 1092 000a 0E       		.uleb128 0xe
 1093 000b 55       		.uleb128 0x55
 1094 000c 17       		.uleb128 0x17
 1095 000d 11       		.uleb128 0x11
 1096 000e 01       		.uleb128 0x1
 1097 000f 10       		.uleb128 0x10
 1098 0010 17       		.uleb128 0x17
 1099 0011 00       		.byte	0
 1100 0012 00       		.byte	0
 1101 0013 02       		.uleb128 0x2
 1102 0014 24       		.uleb128 0x24
 1103 0015 00       		.byte	0
 1104 0016 0B       		.uleb128 0xb
 1105 0017 0B       		.uleb128 0xb
ARM GAS  C:\DOCUME~1\9335~1\LOCALS~1\Temp\ccOoUTJJ.s 			page 23


 1106 0018 3E       		.uleb128 0x3e
 1107 0019 0B       		.uleb128 0xb
 1108 001a 03       		.uleb128 0x3
 1109 001b 0E       		.uleb128 0xe
 1110 001c 00       		.byte	0
 1111 001d 00       		.byte	0
 1112 001e 03       		.uleb128 0x3
 1113 001f 16       		.uleb128 0x16
 1114 0020 00       		.byte	0
 1115 0021 03       		.uleb128 0x3
 1116 0022 0E       		.uleb128 0xe
 1117 0023 3A       		.uleb128 0x3a
 1118 0024 0B       		.uleb128 0xb
 1119 0025 3B       		.uleb128 0x3b
 1120 0026 0B       		.uleb128 0xb
 1121 0027 49       		.uleb128 0x49
 1122 0028 13       		.uleb128 0x13
 1123 0029 00       		.byte	0
 1124 002a 00       		.byte	0
 1125 002b 04       		.uleb128 0x4
 1126 002c 24       		.uleb128 0x24
 1127 002d 00       		.byte	0
 1128 002e 0B       		.uleb128 0xb
 1129 002f 0B       		.uleb128 0xb
 1130 0030 3E       		.uleb128 0x3e
 1131 0031 0B       		.uleb128 0xb
 1132 0032 03       		.uleb128 0x3
 1133 0033 08       		.uleb128 0x8
 1134 0034 00       		.byte	0
 1135 0035 00       		.byte	0
 1136 0036 05       		.uleb128 0x5
 1137 0037 16       		.uleb128 0x16
 1138 0038 00       		.byte	0
 1139 0039 03       		.uleb128 0x3
 1140 003a 0E       		.uleb128 0xe
 1141 003b 3A       		.uleb128 0x3a
 1142 003c 0B       		.uleb128 0xb
 1143 003d 3B       		.uleb128 0x3b
 1144 003e 05       		.uleb128 0x5
 1145 003f 49       		.uleb128 0x49
 1146 0040 13       		.uleb128 0x13
 1147 0041 00       		.byte	0
 1148 0042 00       		.byte	0
 1149 0043 06       		.uleb128 0x6
 1150 0044 35       		.uleb128 0x35
 1151 0045 00       		.byte	0
 1152 0046 49       		.uleb128 0x49
 1153 0047 13       		.uleb128 0x13
 1154 0048 00       		.byte	0
 1155 0049 00       		.byte	0
 1156 004a 07       		.uleb128 0x7
 1157 004b 0F       		.uleb128 0xf
 1158 004c 00       		.byte	0
 1159 004d 0B       		.uleb128 0xb
 1160 004e 0B       		.uleb128 0xb
 1161 004f 49       		.uleb128 0x49
 1162 0050 13       		.uleb128 0x13
ARM GAS  C:\DOCUME~1\9335~1\LOCALS~1\Temp\ccOoUTJJ.s 			page 24


 1163 0051 00       		.byte	0
 1164 0052 00       		.byte	0
 1165 0053 08       		.uleb128 0x8
 1166 0054 15       		.uleb128 0x15
 1167 0055 00       		.byte	0
 1168 0056 27       		.uleb128 0x27
 1169 0057 19       		.uleb128 0x19
 1170 0058 00       		.byte	0
 1171 0059 00       		.byte	0
 1172 005a 09       		.uleb128 0x9
 1173 005b 13       		.uleb128 0x13
 1174 005c 01       		.byte	0x1
 1175 005d 03       		.uleb128 0x3
 1176 005e 0E       		.uleb128 0xe
 1177 005f 0B       		.uleb128 0xb
 1178 0060 0B       		.uleb128 0xb
 1179 0061 3A       		.uleb128 0x3a
 1180 0062 0B       		.uleb128 0xb
 1181 0063 3B       		.uleb128 0x3b
 1182 0064 0B       		.uleb128 0xb
 1183 0065 01       		.uleb128 0x1
 1184 0066 13       		.uleb128 0x13
 1185 0067 00       		.byte	0
 1186 0068 00       		.byte	0
 1187 0069 0A       		.uleb128 0xa
 1188 006a 0D       		.uleb128 0xd
 1189 006b 00       		.byte	0
 1190 006c 03       		.uleb128 0x3
 1191 006d 08       		.uleb128 0x8
 1192 006e 3A       		.uleb128 0x3a
 1193 006f 0B       		.uleb128 0xb
 1194 0070 3B       		.uleb128 0x3b
 1195 0071 0B       		.uleb128 0xb
 1196 0072 49       		.uleb128 0x49
 1197 0073 13       		.uleb128 0x13
 1198 0074 38       		.uleb128 0x38
 1199 0075 0B       		.uleb128 0xb
 1200 0076 00       		.byte	0
 1201 0077 00       		.byte	0
 1202 0078 0B       		.uleb128 0xb
 1203 0079 0D       		.uleb128 0xd
 1204 007a 00       		.byte	0
 1205 007b 03       		.uleb128 0x3
 1206 007c 0E       		.uleb128 0xe
 1207 007d 3A       		.uleb128 0x3a
 1208 007e 0B       		.uleb128 0xb
 1209 007f 3B       		.uleb128 0x3b
 1210 0080 0B       		.uleb128 0xb
 1211 0081 49       		.uleb128 0x49
 1212 0082 13       		.uleb128 0x13
 1213 0083 38       		.uleb128 0x38
 1214 0084 0B       		.uleb128 0xb
 1215 0085 00       		.byte	0
 1216 0086 00       		.byte	0
 1217 0087 0C       		.uleb128 0xc
 1218 0088 2E       		.uleb128 0x2e
 1219 0089 01       		.byte	0x1
ARM GAS  C:\DOCUME~1\9335~1\LOCALS~1\Temp\ccOoUTJJ.s 			page 25


 1220 008a 3F       		.uleb128 0x3f
 1221 008b 19       		.uleb128 0x19
 1222 008c 03       		.uleb128 0x3
 1223 008d 0E       		.uleb128 0xe
 1224 008e 3A       		.uleb128 0x3a
 1225 008f 0B       		.uleb128 0xb
 1226 0090 3B       		.uleb128 0x3b
 1227 0091 0B       		.uleb128 0xb
 1228 0092 27       		.uleb128 0x27
 1229 0093 19       		.uleb128 0x19
 1230 0094 11       		.uleb128 0x11
 1231 0095 01       		.uleb128 0x1
 1232 0096 12       		.uleb128 0x12
 1233 0097 06       		.uleb128 0x6
 1234 0098 40       		.uleb128 0x40
 1235 0099 18       		.uleb128 0x18
 1236 009a 9642     		.uleb128 0x2116
 1237 009c 19       		.uleb128 0x19
 1238 009d 01       		.uleb128 0x1
 1239 009e 13       		.uleb128 0x13
 1240 009f 00       		.byte	0
 1241 00a0 00       		.byte	0
 1242 00a1 0D       		.uleb128 0xd
 1243 00a2 34       		.uleb128 0x34
 1244 00a3 00       		.byte	0
 1245 00a4 03       		.uleb128 0x3
 1246 00a5 0E       		.uleb128 0xe
 1247 00a6 3A       		.uleb128 0x3a
 1248 00a7 0B       		.uleb128 0xb
 1249 00a8 3B       		.uleb128 0x3b
 1250 00a9 0B       		.uleb128 0xb
 1251 00aa 49       		.uleb128 0x49
 1252 00ab 13       		.uleb128 0x13
 1253 00ac 02       		.uleb128 0x2
 1254 00ad 18       		.uleb128 0x18
 1255 00ae 00       		.byte	0
 1256 00af 00       		.byte	0
 1257 00b0 0E       		.uleb128 0xe
 1258 00b1 34       		.uleb128 0x34
 1259 00b2 00       		.byte	0
 1260 00b3 03       		.uleb128 0x3
 1261 00b4 08       		.uleb128 0x8
 1262 00b5 3A       		.uleb128 0x3a
 1263 00b6 0B       		.uleb128 0xb
 1264 00b7 3B       		.uleb128 0x3b
 1265 00b8 0B       		.uleb128 0xb
 1266 00b9 49       		.uleb128 0x49
 1267 00ba 13       		.uleb128 0x13
 1268 00bb 02       		.uleb128 0x2
 1269 00bc 18       		.uleb128 0x18
 1270 00bd 00       		.byte	0
 1271 00be 00       		.byte	0
 1272 00bf 0F       		.uleb128 0xf
 1273 00c0 0B       		.uleb128 0xb
 1274 00c1 01       		.byte	0x1
 1275 00c2 11       		.uleb128 0x11
 1276 00c3 01       		.uleb128 0x1
ARM GAS  C:\DOCUME~1\9335~1\LOCALS~1\Temp\ccOoUTJJ.s 			page 26


 1277 00c4 12       		.uleb128 0x12
 1278 00c5 06       		.uleb128 0x6
 1279 00c6 01       		.uleb128 0x1
 1280 00c7 13       		.uleb128 0x13
 1281 00c8 00       		.byte	0
 1282 00c9 00       		.byte	0
 1283 00ca 10       		.uleb128 0x10
 1284 00cb 0B       		.uleb128 0xb
 1285 00cc 01       		.byte	0x1
 1286 00cd 11       		.uleb128 0x11
 1287 00ce 01       		.uleb128 0x1
 1288 00cf 12       		.uleb128 0x12
 1289 00d0 06       		.uleb128 0x6
 1290 00d1 00       		.byte	0
 1291 00d2 00       		.byte	0
 1292 00d3 11       		.uleb128 0x11
 1293 00d4 01       		.uleb128 0x1
 1294 00d5 01       		.byte	0x1
 1295 00d6 49       		.uleb128 0x49
 1296 00d7 13       		.uleb128 0x13
 1297 00d8 01       		.uleb128 0x1
 1298 00d9 13       		.uleb128 0x13
 1299 00da 00       		.byte	0
 1300 00db 00       		.byte	0
 1301 00dc 12       		.uleb128 0x12
 1302 00dd 21       		.uleb128 0x21
 1303 00de 00       		.byte	0
 1304 00df 49       		.uleb128 0x49
 1305 00e0 13       		.uleb128 0x13
 1306 00e1 2F       		.uleb128 0x2f
 1307 00e2 0B       		.uleb128 0xb
 1308 00e3 00       		.byte	0
 1309 00e4 00       		.byte	0
 1310 00e5 13       		.uleb128 0x13
 1311 00e6 2E       		.uleb128 0x2e
 1312 00e7 01       		.byte	0x1
 1313 00e8 3F       		.uleb128 0x3f
 1314 00e9 19       		.uleb128 0x19
 1315 00ea 03       		.uleb128 0x3
 1316 00eb 0E       		.uleb128 0xe
 1317 00ec 3A       		.uleb128 0x3a
 1318 00ed 0B       		.uleb128 0xb
 1319 00ee 3B       		.uleb128 0x3b
 1320 00ef 0B       		.uleb128 0xb
 1321 00f0 11       		.uleb128 0x11
 1322 00f1 01       		.uleb128 0x1
 1323 00f2 12       		.uleb128 0x12
 1324 00f3 06       		.uleb128 0x6
 1325 00f4 40       		.uleb128 0x40
 1326 00f5 18       		.uleb128 0x18
 1327 00f6 9642     		.uleb128 0x2116
 1328 00f8 19       		.uleb128 0x19
 1329 00f9 01       		.uleb128 0x1
 1330 00fa 13       		.uleb128 0x13
 1331 00fb 00       		.byte	0
 1332 00fc 00       		.byte	0
 1333 00fd 14       		.uleb128 0x14
ARM GAS  C:\DOCUME~1\9335~1\LOCALS~1\Temp\ccOoUTJJ.s 			page 27


 1334 00fe 2E       		.uleb128 0x2e
 1335 00ff 01       		.byte	0x1
 1336 0100 3F       		.uleb128 0x3f
 1337 0101 19       		.uleb128 0x19
 1338 0102 03       		.uleb128 0x3
 1339 0103 0E       		.uleb128 0xe
 1340 0104 3A       		.uleb128 0x3a
 1341 0105 0B       		.uleb128 0xb
 1342 0106 3B       		.uleb128 0x3b
 1343 0107 0B       		.uleb128 0xb
 1344 0108 49       		.uleb128 0x49
 1345 0109 13       		.uleb128 0x13
 1346 010a 11       		.uleb128 0x11
 1347 010b 01       		.uleb128 0x1
 1348 010c 12       		.uleb128 0x12
 1349 010d 06       		.uleb128 0x6
 1350 010e 40       		.uleb128 0x40
 1351 010f 18       		.uleb128 0x18
 1352 0110 9642     		.uleb128 0x2116
 1353 0112 19       		.uleb128 0x19
 1354 0113 01       		.uleb128 0x1
 1355 0114 13       		.uleb128 0x13
 1356 0115 00       		.byte	0
 1357 0116 00       		.byte	0
 1358 0117 15       		.uleb128 0x15
 1359 0118 2E       		.uleb128 0x2e
 1360 0119 00       		.byte	0
 1361 011a 3F       		.uleb128 0x3f
 1362 011b 19       		.uleb128 0x19
 1363 011c 03       		.uleb128 0x3
 1364 011d 0E       		.uleb128 0xe
 1365 011e 3A       		.uleb128 0x3a
 1366 011f 0B       		.uleb128 0xb
 1367 0120 3B       		.uleb128 0x3b
 1368 0121 0B       		.uleb128 0xb
 1369 0122 49       		.uleb128 0x49
 1370 0123 13       		.uleb128 0x13
 1371 0124 11       		.uleb128 0x11
 1372 0125 01       		.uleb128 0x1
 1373 0126 12       		.uleb128 0x12
 1374 0127 06       		.uleb128 0x6
 1375 0128 40       		.uleb128 0x40
 1376 0129 18       		.uleb128 0x18
 1377 012a 9742     		.uleb128 0x2117
 1378 012c 19       		.uleb128 0x19
 1379 012d 00       		.byte	0
 1380 012e 00       		.byte	0
 1381 012f 16       		.uleb128 0x16
 1382 0130 2E       		.uleb128 0x2e
 1383 0131 01       		.byte	0x1
 1384 0132 3F       		.uleb128 0x3f
 1385 0133 19       		.uleb128 0x19
 1386 0134 03       		.uleb128 0x3
 1387 0135 0E       		.uleb128 0xe
 1388 0136 3A       		.uleb128 0x3a
 1389 0137 0B       		.uleb128 0xb
 1390 0138 3B       		.uleb128 0x3b
ARM GAS  C:\DOCUME~1\9335~1\LOCALS~1\Temp\ccOoUTJJ.s 			page 28


 1391 0139 0B       		.uleb128 0xb
 1392 013a 27       		.uleb128 0x27
 1393 013b 19       		.uleb128 0x19
 1394 013c 49       		.uleb128 0x49
 1395 013d 13       		.uleb128 0x13
 1396 013e 11       		.uleb128 0x11
 1397 013f 01       		.uleb128 0x1
 1398 0140 12       		.uleb128 0x12
 1399 0141 06       		.uleb128 0x6
 1400 0142 40       		.uleb128 0x40
 1401 0143 18       		.uleb128 0x18
 1402 0144 9642     		.uleb128 0x2116
 1403 0146 19       		.uleb128 0x19
 1404 0147 01       		.uleb128 0x1
 1405 0148 13       		.uleb128 0x13
 1406 0149 00       		.byte	0
 1407 014a 00       		.byte	0
 1408 014b 17       		.uleb128 0x17
 1409 014c 05       		.uleb128 0x5
 1410 014d 00       		.byte	0
 1411 014e 03       		.uleb128 0x3
 1412 014f 0E       		.uleb128 0xe
 1413 0150 3A       		.uleb128 0x3a
 1414 0151 0B       		.uleb128 0xb
 1415 0152 3B       		.uleb128 0x3b
 1416 0153 0B       		.uleb128 0xb
 1417 0154 49       		.uleb128 0x49
 1418 0155 13       		.uleb128 0x13
 1419 0156 02       		.uleb128 0x2
 1420 0157 18       		.uleb128 0x18
 1421 0158 00       		.byte	0
 1422 0159 00       		.byte	0
 1423 015a 18       		.uleb128 0x18
 1424 015b 34       		.uleb128 0x34
 1425 015c 00       		.byte	0
 1426 015d 03       		.uleb128 0x3
 1427 015e 0E       		.uleb128 0xe
 1428 015f 3A       		.uleb128 0x3a
 1429 0160 0B       		.uleb128 0xb
 1430 0161 3B       		.uleb128 0x3b
 1431 0162 0B       		.uleb128 0xb
 1432 0163 49       		.uleb128 0x49
 1433 0164 13       		.uleb128 0x13
 1434 0165 3F       		.uleb128 0x3f
 1435 0166 19       		.uleb128 0x19
 1436 0167 02       		.uleb128 0x2
 1437 0168 18       		.uleb128 0x18
 1438 0169 00       		.byte	0
 1439 016a 00       		.byte	0
 1440 016b 00       		.byte	0
 1441              		.section	.debug_aranges,"",%progbits
 1442 0000 3C000000 		.4byte	0x3c
 1443 0004 0200     		.2byte	0x2
 1444 0006 00000000 		.4byte	.Ldebug_info0
 1445 000a 04       		.byte	0x4
 1446 000b 00       		.byte	0
 1447 000c 0000     		.2byte	0
ARM GAS  C:\DOCUME~1\9335~1\LOCALS~1\Temp\ccOoUTJJ.s 			page 29


 1448 000e 0000     		.2byte	0
 1449 0010 00000000 		.4byte	.LFB2
 1450 0014 CC000000 		.4byte	.LFE2-.LFB2
 1451 0018 00000000 		.4byte	.LFB3
 1452 001c 1C000000 		.4byte	.LFE3-.LFB3
 1453 0020 00000000 		.4byte	.LFB4
 1454 0024 D8000000 		.4byte	.LFE4-.LFB4
 1455 0028 00000000 		.4byte	.LFB5
 1456 002c 0C000000 		.4byte	.LFE5-.LFB5
 1457 0030 00000000 		.4byte	.LFB6
 1458 0034 54010000 		.4byte	.LFE6-.LFB6
 1459 0038 00000000 		.4byte	0
 1460 003c 00000000 		.4byte	0
 1461              		.section	.debug_ranges,"",%progbits
 1462              	.Ldebug_ranges0:
 1463 0000 00000000 		.4byte	.LFB2
 1464 0004 CC000000 		.4byte	.LFE2
 1465 0008 00000000 		.4byte	.LFB3
 1466 000c 1C000000 		.4byte	.LFE3
 1467 0010 00000000 		.4byte	.LFB4
 1468 0014 D8000000 		.4byte	.LFE4
 1469 0018 00000000 		.4byte	.LFB5
 1470 001c 0C000000 		.4byte	.LFE5
 1471 0020 00000000 		.4byte	.LFB6
 1472 0024 54010000 		.4byte	.LFE6
 1473 0028 00000000 		.4byte	0
 1474 002c 00000000 		.4byte	0
 1475              		.section	.debug_line,"",%progbits
 1476              	.Ldebug_line0:
 1477 0000 F5010000 		.section	.debug_str,"MS",%progbits,1
 1477      02004C01 
 1477      00000201 
 1477      FB0E0D00 
 1477      01010101 
 1478              	.LASF50:
 1479 0000 54585F52 		.ascii	"TX_RESP\000"
 1479      45535000 
 1480              	.LASF16:
 1481 0008 75696E74 		.ascii	"uint64_t\000"
 1481      36345F74 
 1481      00
 1482              	.LASF3:
 1483 0011 5F5F7569 		.ascii	"__uint8_t\000"
 1483      6E74385F 
 1483      7400
 1484              	.LASF11:
 1485 001b 6C6F6E67 		.ascii	"long long unsigned int\000"
 1485      206C6F6E 
 1485      6720756E 
 1485      7369676E 
 1485      65642069 
 1486              	.LASF48:
 1487 0032 737A4461 		.ascii	"szData\000"
 1487      746100
 1488              	.LASF47:
 1489 0039 737A5365 		.ascii	"szSeq\000"
 1489      7100
ARM GAS  C:\DOCUME~1\9335~1\LOCALS~1\Temp\ccOoUTJJ.s 			page 30


 1490              	.LASF9:
 1491 003f 6C6F6E67 		.ascii	"long long int\000"
 1491      206C6F6E 
 1491      6720696E 
 1491      7400
 1492              	.LASF0:
 1493 004d 7369676E 		.ascii	"signed char\000"
 1493      65642063 
 1493      68617200 
 1494              	.LASF37:
 1495 0059 62756666 		.ascii	"buff\000"
 1495      00
 1496              	.LASF6:
 1497 005e 6C6F6E67 		.ascii	"long int\000"
 1497      20696E74 
 1497      00
 1498              	.LASF14:
 1499 0067 75696E74 		.ascii	"uint16_t\000"
 1499      31365F74 
 1499      00
 1500              	.LASF19:
 1501 0070 646F7562 		.ascii	"double\000"
 1501      6C6500
 1502              	.LASF35:
 1503 0077 5469636B 		.ascii	"Ticks\000"
 1503      7300
 1504              	.LASF42:
 1505 007d 4C656E44 		.ascii	"LenD1\000"
 1505      3100
 1506              	.LASF43:
 1507 0083 4C656E44 		.ascii	"LenD2\000"
 1507      3200
 1508              	.LASF28:
 1509 0089 52656164 		.ascii	"ReadData\000"
 1509      44617461 
 1509      00
 1510              	.LASF17:
 1511 0092 75696E74 		.ascii	"uint32\000"
 1511      333200
 1512              	.LASF23:
 1513 0099 436F6D6D 		.ascii	"Command\000"
 1513      616E6400 
 1514              	.LASF7:
 1515 00a1 5F5F7569 		.ascii	"__uint32_t\000"
 1515      6E743332 
 1515      5F7400
 1516              	.LASF40:
 1517 00ac 5F637263 		.ascii	"_crc\000"
 1517      00
 1518              	.LASF12:
 1519 00b1 756E7369 		.ascii	"unsigned int\000"
 1519      676E6564 
 1519      20696E74 
 1519      00
 1520              	.LASF8:
 1521 00be 6C6F6E67 		.ascii	"long unsigned int\000"
 1521      20756E73 
ARM GAS  C:\DOCUME~1\9335~1\LOCALS~1\Temp\ccOoUTJJ.s 			page 31


 1521      69676E65 
 1521      6420696E 
 1521      7400
 1522              	.LASF36:
 1523 00d0 53746174 		.ascii	"Stat\000"
 1523      00
 1524              	.LASF38:
 1525 00d5 64617461 		.ascii	"data\000"
 1525      00
 1526              	.LASF5:
 1527 00da 73686F72 		.ascii	"short unsigned int\000"
 1527      7420756E 
 1527      7369676E 
 1527      65642069 
 1527      6E7400
 1528              	.LASF24:
 1529 00ed 44617461 		.ascii	"Data1\000"
 1529      3100
 1530              	.LASF25:
 1531 00f3 44617461 		.ascii	"Data2\000"
 1531      3200
 1532              	.LASF57:
 1533 00f9 4E657477 		.ascii	"NetworkInit\000"
 1533      6F726B49 
 1533      6E697400 
 1534              	.LASF46:
 1535 0105 4C656E43 		.ascii	"LenC\000"
 1535      00
 1536              	.LASF59:
 1537 010a 5061636B 		.ascii	"PackData\000"
 1537      44617461 
 1537      00
 1538              	.LASF41:
 1539 0113 50524F54 		.ascii	"PROTO_STATE\000"
 1539      4F5F5354 
 1539      41544500 
 1540              	.LASF21:
 1541 011f 72656733 		.ascii	"reg32\000"
 1541      3200
 1542              	.LASF58:
 1543 0125 4E54505F 		.ascii	"NTP_Send\000"
 1543      53656E64 
 1543      00
 1544              	.LASF54:
 1545 012e 2E5C6E65 		.ascii	".\\network.c\000"
 1545      74776F72 
 1545      6B2E6300 
 1546              	.LASF34:
 1547 013a 4F6B5265 		.ascii	"OkResponse\000"
 1547      73706F6E 
 1547      736500
 1548              	.LASF44:
 1549 0145 4C656E53 		.ascii	"LenSeq\000"
 1549      657100
 1550              	.LASF22:
 1551 014c 73697A65 		.ascii	"sizetype\000"
 1551      74797065 
ARM GAS  C:\DOCUME~1\9335~1\LOCALS~1\Temp\ccOoUTJJ.s 			page 32


 1551      00
 1552              	.LASF56:
 1553 0155 52657370 		.ascii	"Resp\000"
 1553      00
 1554              	.LASF55:
 1555 015a 433A5C43 		.ascii	"C:\\Cypress\\Cypress_Projects\\Start-Finish_System_"
 1555      79707265 
 1555      73735C43 
 1555      79707265 
 1555      73735F50 
 1556 018a 53746172 		.ascii	"StartModule.cydsn\000"
 1556      744D6F64 
 1556      756C652E 
 1556      63796473 
 1556      6E00
 1557              	.LASF52:
 1558 019c 52657370 		.ascii	"RespBuff\000"
 1558      42756666 
 1558      00
 1559              	.LASF10:
 1560 01a5 5F5F7569 		.ascii	"__uint64_t\000"
 1560      6E743634 
 1560      5F7400
 1561              	.LASF18:
 1562 01b0 666C6F61 		.ascii	"float\000"
 1562      7400
 1563              	.LASF26:
 1564 01b6 43686563 		.ascii	"CheckSum\000"
 1564      6B53756D 
 1564      00
 1565              	.LASF29:
 1566 01bf 5F746D70 		.ascii	"_tmp\000"
 1566      00
 1567              	.LASF1:
 1568 01c4 756E7369 		.ascii	"unsigned char\000"
 1568      676E6564 
 1568      20636861 
 1568      7200
 1569              	.LASF49:
 1570 01d2 737A4368 		.ascii	"szCheckSum\000"
 1570      65636B53 
 1570      756D00
 1571              	.LASF2:
 1572 01dd 73686F72 		.ascii	"short int\000"
 1572      7420696E 
 1572      7400
 1573              	.LASF45:
 1574 01e7 4C656E43 		.ascii	"LenChS\000"
 1574      685300
 1575              	.LASF15:
 1576 01ee 75696E74 		.ascii	"uint32_t\000"
 1576      33325F74 
 1576      00
 1577              	.LASF20:
 1578 01f7 63686172 		.ascii	"char\000"
 1578      00
 1579              	.LASF4:
ARM GAS  C:\DOCUME~1\9335~1\LOCALS~1\Temp\ccOoUTJJ.s 			page 33


 1580 01fc 5F5F7569 		.ascii	"__uint16_t\000"
 1580      6E743136 
 1580      5F7400
 1581              	.LASF33:
 1582 0207 62756666 		.ascii	"buffer\000"
 1582      657200
 1583              	.LASF31:
 1584 020e 55415254 		.ascii	"UART_Read\000"
 1584      5F526561 
 1584      6400
 1585              	.LASF32:
 1586 0218 43686563 		.ascii	"CheckConnection\000"
 1586      6B436F6E 
 1586      6E656374 
 1586      696F6E00 
 1587              	.LASF51:
 1588 0228 52585354 		.ascii	"RXSTATUS\000"
 1588      41545553 
 1588      00
 1589              	.LASF30:
 1590 0231 5F746D70 		.ascii	"_tmprecv\000"
 1590      72656376 
 1590      00
 1591              	.LASF39:
 1592 023a 53657175 		.ascii	"Sequence\000"
 1592      656E6365 
 1592      00
 1593              	.LASF13:
 1594 0243 75696E74 		.ascii	"uint8_t\000"
 1594      385F7400 
 1595              	.LASF53:
 1596 024b 474E5520 		.ascii	"GNU C 4.9.3 20150303 (release) [ARM/embedded-4_9-br"
 1596      4320342E 
 1596      392E3320 
 1596      32303135 
 1596      30333033 
 1597 027e 616E6368 		.ascii	"anch revision 221220] -mcpu=cortex-m0 -mthumb -g -O"
 1597      20726576 
 1597      6973696F 
 1597      6E203232 
 1597      31323230 
 1598 02b1 30202D66 		.ascii	"0 -ffunction-sections -ffat-lto-objects\000"
 1598      66756E63 
 1598      74696F6E 
 1598      2D736563 
 1598      74696F6E 
 1599              	.LASF27:
 1600 02d9 456E6450 		.ascii	"EndPacket\000"
 1600      61636B65 
 1600      7400
 1601              		.ident	"GCC: (GNU Tools for ARM Embedded Processors) 4.9.3 20150303 (release) [ARM/embedded-4_9-br
