ARM GAS  C:\Users\Petro\AppData\Local\Temp\ccrqvwj9.s 			page 1


   1              		.cpu cortex-m0
   2              		.fpu softvfp
   3              		.eabi_attribute 20, 1
   4              		.eabi_attribute 21, 1
   5              		.eabi_attribute 23, 3
   6              		.eabi_attribute 24, 1
   7              		.eabi_attribute 25, 1
   8              		.eabi_attribute 26, 1
   9              		.eabi_attribute 30, 1
  10              		.eabi_attribute 34, 0
  11              		.eabi_attribute 18, 4
  12              		.code	16
  13              		.file	"main.c"
  14              		.text
  15              	.Ltext0:
  16              		.cfi_sections	.debug_frame
  17              		.section	.text.finishHandler,"ax",%progbits
  18              		.align	2
  19              		.global	finishHandler
  20              		.code	16
  21              		.thumb_func
  22              		.type	finishHandler, %function
  23              	finishHandler:
  24              	.LFB34:
  25              		.file 1 ".\\main.c"
   1:.\main.c      **** #include <project.h>
   2:.\main.c      **** #include <stdio.h>          
   3:.\main.c      **** #include <string.h>
   4:.\main.c      **** #include <stdbool.h>
   5:.\main.c      **** 
   6:.\main.c      **** /* max number skier */
   7:.\main.c      **** #define MAXSKIER 9       
   8:.\main.c      **** 
   9:.\main.c      **** /*Commands*/
  10:.\main.c      **** #define COMMAND_START       's'
  11:.\main.c      **** #define COMMAND_CANCEL      'c'
  12:.\main.c      **** #define COMMAND_READ        'r'
  13:.\main.c      **** #define COMMAND_ST_CONNECT  'q'
  14:.\main.c      **** #define COMMAND_OK          "OK\n\r"
  15:.\main.c      **** 
  16:.\main.c      **** /* Structure for have current skier time */
  17:.\main.c      **** struct time{           
  18:.\main.c      ****     uint16_t hour;
  19:.\main.c      ****     uint16_t min;
  20:.\main.c      ****     uint16_t sec;
  21:.\main.c      ****     uint16_t msec;
  22:.\main.c      **** };
  23:.\main.c      **** 
  24:.\main.c      **** /* Structure for have start, finish 
  25:.\main.c      **** *   and rezult  skier time*/
  26:.\main.c      **** struct SKIERRESULT{
  27:.\main.c      ****     struct time start;
  28:.\main.c      ****     struct time finish;
  29:.\main.c      ****     struct time rezult;
  30:.\main.c      **** }skierRezult[MAXSKIER];
  31:.\main.c      **** 
  32:.\main.c      **** /*struct for real time*/
ARM GAS  C:\Users\Petro\AppData\Local\Temp\ccrqvwj9.s 			page 2


  33:.\main.c      **** struct time RealTime;
  34:.\main.c      **** 
  35:.\main.c      **** 
  36:.\main.c      **** void ShowTime(int maxSkier,struct SKIERRESULT skierTime[]);       
  37:.\main.c      **** void LedIndication(void);  
  38:.\main.c      **** void deletTimeSkier(int number, struct SKIERRESULT skierTime[]);
  39:.\main.c      **** void deletTimeSkier(int numSkier, struct SKIERRESULT skier[]);
  40:.\main.c      **** void quantifyTimeRezult(struct SKIERRESULT *skierTime);
  41:.\main.c      **** void displaySkierInfoOneSkier(int numSkier, struct time *skierInfo);
  42:.\main.c      **** void displaySkierInfoAllTable(struct SKIERRESULT skierInfo[]);
  43:.\main.c      **** void sleepSystem(void);
  44:.\main.c      **** 
  45:.\main.c      **** /* flags status */
  46:.\main.c      **** /* skiers on track */
  47:.\main.c      **** bool onTrack = false;
  48:.\main.c      **** /* request read time skiers  */
  49:.\main.c      **** bool requestRead = false;
  50:.\main.c      **** 
  51:.\main.c      **** /*press button finish*/
  52:.\main.c      **** bool pressFinish = false;
  53:.\main.c      **** 
  54:.\main.c      **** /*number sportsmen last started and finished*/
  55:.\main.c      **** int last_started = 0;
  56:.\main.c      **** int last_finished = 0;
  57:.\main.c      **** 
  58:.\main.c      **** /*number free slots*/
  59:.\main.c      **** int free_slots = 0;
  60:.\main.c      **** /*the number of skiers who finished*/
  61:.\main.c      **** int finish_skier = 0;
  62:.\main.c      **** 
  63:.\main.c      **** /*for read number skiers for add or delet*/
  64:.\main.c      **** char lastCommand;  
  65:.\main.c      ****         
  66:.\main.c      **** 
  67:.\main.c      **** 
  68:.\main.c      **** /*interrupt for press finish button*/
  69:.\main.c      **** CY_ISR(finishHandler)
  70:.\main.c      **** {       
  26              		.loc 1 70 0
  27              		.cfi_startproc
  28 0000 70B5     		push	{r4, r5, r6, lr}
  29              		.cfi_def_cfa_offset 16
  30              		.cfi_offset 4, -16
  31              		.cfi_offset 5, -12
  32              		.cfi_offset 6, -8
  33              		.cfi_offset 14, -4
  71:.\main.c      ****     /*kopi real time in finished skier rezult*/
  72:.\main.c      ****     if(last_finished < last_started){
  34              		.loc 1 72 0
  35 0002 0F4B     		ldr	r3, .L3
  36 0004 1C68     		ldr	r4, [r3]
  37 0006 5B68     		ldr	r3, [r3, #4]
  38 0008 9C42     		cmp	r4, r3
  39 000a 15DA     		bge	.L2
  73:.\main.c      ****         skierRezult[last_finished].finish= RealTime;
  40              		.loc 1 73 0
  41 000c 0D4D     		ldr	r5, .L3+4
ARM GAS  C:\Users\Petro\AppData\Local\Temp\ccrqvwj9.s 			page 3


  42 000e 6600     		lsl	r6, r4, #1
  43 0010 3019     		add	r0, r6, r4
  44 0012 C000     		lsl	r0, r0, #3
  45 0014 2818     		add	r0, r5, r0
  46 0016 0830     		add	r0, r0, #8
  47 0018 0B49     		ldr	r1, .L3+8
  48 001a 0822     		mov	r2, #8
  49 001c FFF7FEFF 		bl	memcpy
  50              	.LVL0:
  74:.\main.c      ****         skierRezult[last_finished].finish.msec = timer_ReadCounter();
  51              		.loc 1 74 0
  52 0020 FFF7FEFF 		bl	timer_ReadCounter
  53              	.LVL1:
  54 0024 3419     		add	r4, r6, r4
  55 0026 E400     		lsl	r4, r4, #3
  56 0028 2C19     		add	r4, r5, r4
  57 002a E081     		strh	r0, [r4, #14]
  75:.\main.c      ****         
  76:.\main.c      ****         /*increment last skier finished*/
  77:.\main.c      ****         last_finished++;
  58              		.loc 1 77 0
  59 002c 044B     		ldr	r3, .L3
  60 002e 1A68     		ldr	r2, [r3]
  61 0030 0132     		add	r2, r2, #1
  62 0032 1A60     		str	r2, [r3]
  78:.\main.c      ****         
  79:.\main.c      ****         /*button pressed flag*/
  80:.\main.c      ****         pressFinish = true;
  63              		.loc 1 80 0
  64 0034 0122     		mov	r2, #1
  65 0036 1A72     		strb	r2, [r3, #8]
  66              	.L2:
  81:.\main.c      ****     }
  82:.\main.c      ****     
  83:.\main.c      ****     finish_ClearInterrupt();
  67              		.loc 1 83 0
  68 0038 FFF7FEFF 		bl	finish_ClearInterrupt
  69              	.LVL2:
  84:.\main.c      **** }
  70              		.loc 1 84 0
  71              		@ sp needed
  72 003c 70BD     		pop	{r4, r5, r6, pc}
  73              	.L4:
  74 003e C046     		.align	2
  75              	.L3:
  76 0040 00000000 		.word	.LANCHOR0
  77 0044 00000000 		.word	skierRezult
  78 0048 00000000 		.word	RealTime
  79              		.cfi_endproc
  80              	.LFE34:
  81              		.size	finishHandler, .-finishHandler
  82              		.section	.text.timerHandler,"ax",%progbits
  83              		.align	2
  84              		.global	timerHandler
  85              		.code	16
  86              		.thumb_func
  87              		.type	timerHandler, %function
ARM GAS  C:\Users\Petro\AppData\Local\Temp\ccrqvwj9.s 			page 4


  88              	timerHandler:
  89              	.LFB35:
  85:.\main.c      **** 
  86:.\main.c      **** /*interrupt for counter timer */
  87:.\main.c      **** CY_ISR(timerHandler)
  88:.\main.c      **** {   
  90              		.loc 1 88 0
  91              		.cfi_startproc
  92 0000 08B5     		push	{r3, lr}
  93              		.cfi_def_cfa_offset 8
  94              		.cfi_offset 3, -8
  95              		.cfi_offset 14, -4
  89:.\main.c      ****     /*if run stopwach, timer start*/
  90:.\main.c      ****     if(onTrack){
  96              		.loc 1 90 0
  97 0002 0F4B     		ldr	r3, .L7
  98 0004 5B7A     		ldrb	r3, [r3, #9]
  99 0006 002B     		cmp	r3, #0
 100 0008 16D0     		beq	.L6
  91:.\main.c      ****         if (++RealTime.sec==59){
 101              		.loc 1 91 0
 102 000a 0E4A     		ldr	r2, .L7+4
 103 000c 9388     		ldrh	r3, [r2, #4]
 104 000e 0133     		add	r3, r3, #1
 105 0010 9BB2     		uxth	r3, r3
 106 0012 9380     		strh	r3, [r2, #4]
 107 0014 3B2B     		cmp	r3, #59
 108 0016 0FD1     		bne	.L6
  92:.\main.c      ****             RealTime.sec = 0;   
 109              		.loc 1 92 0
 110 0018 0023     		mov	r3, #0
 111 001a 9380     		strh	r3, [r2, #4]
  93:.\main.c      ****             if (++RealTime.min==59){
 112              		.loc 1 93 0
 113 001c 5388     		ldrh	r3, [r2, #2]
 114 001e 0133     		add	r3, r3, #1
 115 0020 9BB2     		uxth	r3, r3
 116 0022 5380     		strh	r3, [r2, #2]
 117 0024 3B2B     		cmp	r3, #59
 118 0026 07D1     		bne	.L6
  94:.\main.c      ****                 RealTime.min = 0;    
 119              		.loc 1 94 0
 120 0028 131C     		mov	r3, r2
 121 002a 0022     		mov	r2, #0
 122 002c 5A80     		strh	r2, [r3, #2]
  95:.\main.c      ****                 if (RealTime.hour==24) 
 123              		.loc 1 95 0
 124 002e 1B88     		ldrh	r3, [r3]
 125 0030 182B     		cmp	r3, #24
 126 0032 01D1     		bne	.L6
  96:.\main.c      ****                     RealTime.hour = 0;   
 127              		.loc 1 96 0
 128 0034 034B     		ldr	r3, .L7+4
 129 0036 1A80     		strh	r2, [r3]
 130              	.L6:
  97:.\main.c      ****             }  
  98:.\main.c      ****         }
ARM GAS  C:\Users\Petro\AppData\Local\Temp\ccrqvwj9.s 			page 5


  99:.\main.c      ****     }
 100:.\main.c      ****     
 101:.\main.c      ****     timer_ClearInterrupt(timer_INTR_MASK_CC_MATCH); 
 131              		.loc 1 101 0
 132 0038 0220     		mov	r0, #2
 133 003a FFF7FEFF 		bl	timer_ClearInterrupt
 134              	.LVL3:
 102:.\main.c      **** }
 135              		.loc 1 102 0
 136              		@ sp needed
 137 003e 08BD     		pop	{r3, pc}
 138              	.L8:
 139              		.align	2
 140              	.L7:
 141 0040 00000000 		.word	.LANCHOR0
 142 0044 00000000 		.word	RealTime
 143              		.cfi_endproc
 144              	.LFE35:
 145              		.size	timerHandler, .-timerHandler
 146              		.section	.text.quantifyTimeRezult,"ax",%progbits
 147              		.align	2
 148              		.global	quantifyTimeRezult
 149              		.code	16
 150              		.thumb_func
 151              		.type	quantifyTimeRezult, %function
 152              	quantifyTimeRezult:
 153              	.LFB38:
 103:.\main.c      **** 
 104:.\main.c      **** /*interrupt for input simbol from xbee*/
 105:.\main.c      **** CY_ISR(xbeeHandler)
 106:.\main.c      **** {
 107:.\main.c      ****     char input = xbee_GetChar();
 108:.\main.c      ****     
 109:.\main.c      ****     switch (input){
 110:.\main.c      ****         case COMMAND_START:       
 111:.\main.c      ****             RealTime.msec = timer_ReadCounter();
 112:.\main.c      ****             skierRezult[last_started].start = RealTime;
 113:.\main.c      ****             
 114:.\main.c      ****             /*command accepted*/
 115:.\main.c      ****             xbee_PutString(COMMAND_OK);
 116:.\main.c      ****             onTrack = true;
 117:.\main.c      ****             last_started++;
 118:.\main.c      ****             break;
 119:.\main.c      ****         case COMMAND_CANCEL:
 120:.\main.c      ****             /*command accepted*/
 121:.\main.c      ****             xbee_PutString(COMMAND_OK);
 122:.\main.c      ****             break;
 123:.\main.c      ****         case COMMAND_READ:
 124:.\main.c      ****             requestRead = true;
 125:.\main.c      ****             break;
 126:.\main.c      ****         case COMMAND_ST_CONNECT:
 127:.\main.c      ****             /*command accepted*/
 128:.\main.c      ****             xbee_PutString(COMMAND_OK);
 129:.\main.c      ****             break;
 130:.\main.c      ****         default:
 131:.\main.c      ****             /*delet number skier*/
 132:.\main.c      ****             if(lastCommand == COMMAND_CANCEL)            
ARM GAS  C:\Users\Petro\AppData\Local\Temp\ccrqvwj9.s 			page 6


 133:.\main.c      ****                     deletTimeSkier((input-'0'),skierRezult);
 134:.\main.c      ****             break;       
 135:.\main.c      ****     }
 136:.\main.c      ****     lastCommand = input;
 137:.\main.c      **** }
 138:.\main.c      **** 
 139:.\main.c      **** 
 140:.\main.c      **** int main()
 141:.\main.c      **** {
 142:.\main.c      ****     CyGlobalIntEnable; /* Enable global interrupts. */
 143:.\main.c      ****     timer_Start();
 144:.\main.c      ****     xbee_Start();
 145:.\main.c      ****     display_Start();
 146:.\main.c      **** 
 147:.\main.c      ****     isr_finish_StartEx(finishHandler);      
 148:.\main.c      ****     isr_timer_StartEx(timerHandler);     
 149:.\main.c      ****     isr_xbee_StartEx(xbeeHandler);
 150:.\main.c      ****     
 151:.\main.c      ****     for(;;)
 152:.\main.c      ****     {          
 153:.\main.c      ****         /*check skiers on the track*/
 154:.\main.c      ****         if(last_finished == last_started)
 155:.\main.c      ****             onTrack = false;   
 156:.\main.c      ****         if(onTrack) 
 157:.\main.c      ****             LedIndication();
 158:.\main.c      ****             
 159:.\main.c      ****         /*if incomming command read*/
 160:.\main.c      ****         if(requestRead){
 161:.\main.c      ****             ShowTime(MAXSKIER,skierRezult);
 162:.\main.c      ****             requestRead = false;
 163:.\main.c      ****         }
 164:.\main.c      ****         
 165:.\main.c      ****         /*write rezult if pressed button finish*/
 166:.\main.c      ****         if(pressFinish){
 167:.\main.c      ****             quantifyTimeRezult(&skierRezult[last_finished-1]);
 168:.\main.c      ****             pressFinish = false;
 169:.\main.c      ****         }
 170:.\main.c      ****         
 171:.\main.c      ****         /*print skiers rezult to display*/
 172:.\main.c      ****         displaySkierInfoAllTable(skierRezult);
 173:.\main.c      ****         
 174:.\main.c      ****         sleepSystem();
 175:.\main.c      ****     }
 176:.\main.c      **** }
 177:.\main.c      **** 
 178:.\main.c      **** 
 179:.\main.c      **** /*******************************************************
 180:.\main.c      **** * Function name: quantifyTimeRezult
 181:.\main.c      **** *
 182:.\main.c      **** * Function write rezult subtraction between start and finish
 183:.\main.c      **** * 
 184:.\main.c      **** * Parameters:
 185:.\main.c      **** * skierTime - struct from time skier
 186:.\main.c      **** *******************************************************/
 187:.\main.c      **** void quantifyTimeRezult(struct SKIERRESULT *skierTime)
 188:.\main.c      **** {
 154              		.loc 1 188 0
ARM GAS  C:\Users\Petro\AppData\Local\Temp\ccrqvwj9.s 			page 7


 155              		.cfi_startproc
 156              	.LVL4:
 189:.\main.c      ****     int rezult;
 190:.\main.c      ****     /*if previous rezult is negative*/
 191:.\main.c      ****     int negative = 0;
 192:.\main.c      ****        
 193:.\main.c      ****     rezult = skierTime->finish.msec - skierTime->start.msec;
 157              		.loc 1 193 0
 158 0000 C389     		ldrh	r3, [r0, #14]
 159 0002 C288     		ldrh	r2, [r0, #6]
 160 0004 9A1A     		sub	r2, r3, r2
 161              	.LVL5:
 194:.\main.c      ****     if(rezult < 0){
 162              		.loc 1 194 0
 163 0006 06D5     		bpl	.L16
 195:.\main.c      ****         rezult =1000+rezult;
 164              		.loc 1 195 0
 165 0008 FA23     		mov	r3, #250
 166 000a 9B00     		lsl	r3, r3, #2
 167 000c 9C46     		mov	ip, r3
 168 000e 6244     		add	r2, r2, ip
 169              	.LVL6:
 196:.\main.c      ****         negative = -1;
 170              		.loc 1 196 0
 171 0010 0121     		mov	r1, #1
 172 0012 4942     		neg	r1, r1
 173 0014 00E0     		b	.L10
 174              	.LVL7:
 175              	.L16:
 191:.\main.c      ****        
 176              		.loc 1 191 0
 177 0016 0021     		mov	r1, #0
 178              	.LVL8:
 179              	.L10:
 197:.\main.c      ****     }
 198:.\main.c      ****     skierTime->rezult.msec = rezult;
 180              		.loc 1 198 0
 181 0018 C282     		strh	r2, [r0, #22]
 199:.\main.c      ****     
 200:.\main.c      ****     rezult = skierTime->finish.sec - skierTime->start.sec;
 182              		.loc 1 200 0
 183 001a 8289     		ldrh	r2, [r0, #12]
 184              	.LVL9:
 185 001c 8388     		ldrh	r3, [r0, #4]
 186 001e D31A     		sub	r3, r2, r3
 187              	.LVL10:
 201:.\main.c      ****     if(rezult < 0){
 188              		.loc 1 201 0
 189 0020 04D5     		bpl	.L11
 202:.\main.c      ****         rezult = 60+rezult+negative; 
 190              		.loc 1 202 0
 191 0022 3C33     		add	r3, r3, #60
 192              	.LVL11:
 193 0024 5B18     		add	r3, r3, r1
 194              	.LVL12:
 203:.\main.c      ****         negative = -1;
 195              		.loc 1 203 0
ARM GAS  C:\Users\Petro\AppData\Local\Temp\ccrqvwj9.s 			page 8


 196 0026 0121     		mov	r1, #1
 197 0028 4942     		neg	r1, r1
 198 002a 01E0     		b	.L12
 199              	.LVL13:
 200              	.L11:
 204:.\main.c      ****     }
 205:.\main.c      ****     else {
 206:.\main.c      ****         rezult = rezult+negative;
 201              		.loc 1 206 0
 202 002c 5B18     		add	r3, r3, r1
 203              	.LVL14:
 207:.\main.c      ****         negative = 0;
 204              		.loc 1 207 0
 205 002e 0021     		mov	r1, #0
 206              	.LVL15:
 207              	.L12:
 208:.\main.c      ****     }
 209:.\main.c      ****     skierTime->rezult.sec = rezult;
 208              		.loc 1 209 0
 209 0030 8382     		strh	r3, [r0, #20]
 210:.\main.c      ****        
 211:.\main.c      ****     rezult = skierTime->finish.min - skierTime->start.min;
 210              		.loc 1 211 0
 211 0032 4289     		ldrh	r2, [r0, #10]
 212 0034 4388     		ldrh	r3, [r0, #2]
 213              	.LVL16:
 214 0036 D31A     		sub	r3, r2, r3
 215              	.LVL17:
 212:.\main.c      ****     if(rezult < 0){
 216              		.loc 1 212 0
 217 0038 04D5     		bpl	.L13
 213:.\main.c      ****         rezult = 60+rezult+negative; 
 218              		.loc 1 213 0
 219 003a 3C33     		add	r3, r3, #60
 220              	.LVL18:
 221 003c 5B18     		add	r3, r3, r1
 222              	.LVL19:
 214:.\main.c      ****         negative = -1;
 223              		.loc 1 214 0
 224 003e 0121     		mov	r1, #1
 225 0040 4942     		neg	r1, r1
 226 0042 01E0     		b	.L14
 227              	.LVL20:
 228              	.L13:
 215:.\main.c      ****     }
 216:.\main.c      ****     else {
 217:.\main.c      ****         rezult = rezult+negative;
 229              		.loc 1 217 0
 230 0044 5B18     		add	r3, r3, r1
 231              	.LVL21:
 218:.\main.c      ****         negative = 0;
 232              		.loc 1 218 0
 233 0046 0021     		mov	r1, #0
 234              	.LVL22:
 235              	.L14:
 219:.\main.c      ****     }
 220:.\main.c      ****     skierTime->rezult.min = rezult;
ARM GAS  C:\Users\Petro\AppData\Local\Temp\ccrqvwj9.s 			page 9


 236              		.loc 1 220 0
 237 0048 4382     		strh	r3, [r0, #18]
 221:.\main.c      ****    
 222:.\main.c      ****     rezult = skierTime->finish.hour - skierTime->start.hour + negative;
 238              		.loc 1 222 0
 239 004a 0289     		ldrh	r2, [r0, #8]
 240 004c 0388     		ldrh	r3, [r0]
 241              	.LVL23:
 242 004e D31A     		sub	r3, r2, r3
 243 0050 5B18     		add	r3, r3, r1
 244              	.LVL24:
 223:.\main.c      ****     if(rezult > 0)skierTime->rezult.hour = rezult + negative;
 245              		.loc 1 223 0
 246 0052 002B     		cmp	r3, #0
 247 0054 01DD     		ble	.L9
 248              		.loc 1 223 0 is_stmt 0 discriminator 1
 249 0056 5B18     		add	r3, r3, r1
 250              	.LVL25:
 251 0058 0382     		strh	r3, [r0, #16]
 252              	.L9:
 224:.\main.c      **** }
 253              		.loc 1 224 0 is_stmt 1
 254              		@ sp needed
 255 005a 7047     		bx	lr
 256              		.cfi_endproc
 257              	.LFE38:
 258              		.size	quantifyTimeRezult, .-quantifyTimeRezult
 259              		.section	.text.deletTimeSkier,"ax",%progbits
 260              		.align	2
 261              		.global	deletTimeSkier
 262              		.code	16
 263              		.thumb_func
 264              		.type	deletTimeSkier, %function
 265              	deletTimeSkier:
 266              	.LFB39:
 225:.\main.c      **** 
 226:.\main.c      **** 
 227:.\main.c      **** /*******************************************************
 228:.\main.c      **** * Function name: deletTimeSkier
 229:.\main.c      **** *
 230:.\main.c      **** * Function remove rezult from the table
 231:.\main.c      **** * 
 232:.\main.c      **** * Parameters:
 233:.\main.c      **** * numSkier - number skier for remove.
 234:.\main.c      **** * skier[] - struct from time skiers
 235:.\main.c      **** *******************************************************/
 236:.\main.c      **** void deletTimeSkier(int numSkier, struct SKIERRESULT skier[])
 237:.\main.c      **** {
 267              		.loc 1 237 0
 268              		.cfi_startproc
 269              	.LVL26:
 270 0000 08B5     		push	{r3, lr}
 271              		.cfi_def_cfa_offset 8
 272              		.cfi_offset 3, -8
 273              		.cfi_offset 14, -4
 238:.\main.c      ****     memset(&skier[numSkier-1],0,sizeof(skier[numSkier-1]));
 274              		.loc 1 238 0
ARM GAS  C:\Users\Petro\AppData\Local\Temp\ccrqvwj9.s 			page 10


 275 0002 4300     		lsl	r3, r0, #1
 276 0004 1818     		add	r0, r3, r0
 277              	.LVL27:
 278 0006 C000     		lsl	r0, r0, #3
 279 0008 1838     		sub	r0, r0, #24
 280 000a 0818     		add	r0, r1, r0
 281 000c 0021     		mov	r1, #0
 282              	.LVL28:
 283 000e 1822     		mov	r2, #24
 284 0010 FFF7FEFF 		bl	memset
 285              	.LVL29:
 239:.\main.c      **** }
 286              		.loc 1 239 0
 287              		@ sp needed
 288 0014 08BD     		pop	{r3, pc}
 289              		.cfi_endproc
 290              	.LFE39:
 291              		.size	deletTimeSkier, .-deletTimeSkier
 292 0016 C046     		.section	.text.xbeeHandler,"ax",%progbits
 293              		.align	2
 294              		.global	xbeeHandler
 295              		.code	16
 296              		.thumb_func
 297              		.type	xbeeHandler, %function
 298              	xbeeHandler:
 299              	.LFB36:
 106:.\main.c      ****     char input = xbee_GetChar();
 300              		.loc 1 106 0
 301              		.cfi_startproc
 302 0000 38B5     		push	{r3, r4, r5, lr}
 303              		.cfi_def_cfa_offset 16
 304              		.cfi_offset 3, -16
 305              		.cfi_offset 4, -12
 306              		.cfi_offset 5, -8
 307              		.cfi_offset 14, -4
 107:.\main.c      ****     
 308              		.loc 1 107 0
 309 0002 FFF7FEFF 		bl	xbee_GetChar
 310              	.LVL30:
 311 0006 041E     		sub	r4, r0, #0
 312              	.LVL31:
 109:.\main.c      ****         case COMMAND_START:       
 313              		.loc 1 109 0
 314 0008 712C     		cmp	r4, #113
 315 000a 27D0     		beq	.L20
 316 000c 7128     		cmp	r0, #113
 317 000e 02D8     		bhi	.L21
 318 0010 6328     		cmp	r0, #99
 319 0012 1BD0     		beq	.L22
 320 0014 26E0     		b	.L19
 321              	.L21:
 322 0016 7228     		cmp	r0, #114
 323 0018 1CD0     		beq	.L23
 324 001a 7328     		cmp	r0, #115
 325 001c 22D1     		bne	.L19
 111:.\main.c      ****             skierRezult[last_started].start = RealTime;
 326              		.loc 1 111 0
ARM GAS  C:\Users\Petro\AppData\Local\Temp\ccrqvwj9.s 			page 11


 327 001e FFF7FEFF 		bl	timer_ReadCounter
 328              	.LVL32:
 329 0022 1649     		ldr	r1, .L26
 330 0024 C880     		strh	r0, [r1, #6]
 112:.\main.c      ****             
 331              		.loc 1 112 0
 332 0026 164D     		ldr	r5, .L26+4
 333 0028 6A68     		ldr	r2, [r5, #4]
 334 002a 5300     		lsl	r3, r2, #1
 335 002c 9B18     		add	r3, r3, r2
 336 002e DB00     		lsl	r3, r3, #3
 337 0030 1448     		ldr	r0, .L26+8
 338 0032 C018     		add	r0, r0, r3
 339 0034 0822     		mov	r2, #8
 340 0036 FFF7FEFF 		bl	memcpy
 341              	.LVL33:
 115:.\main.c      ****             onTrack = true;
 342              		.loc 1 115 0
 343 003a 1348     		ldr	r0, .L26+12
 344 003c FFF7FEFF 		bl	xbee_PutString
 345              	.LVL34:
 116:.\main.c      ****             last_started++;
 346              		.loc 1 116 0
 347 0040 0123     		mov	r3, #1
 348 0042 6B72     		strb	r3, [r5, #9]
 117:.\main.c      ****             break;
 349              		.loc 1 117 0
 350 0044 6B68     		ldr	r3, [r5, #4]
 351 0046 0133     		add	r3, r3, #1
 352 0048 6B60     		str	r3, [r5, #4]
 118:.\main.c      ****         case COMMAND_CANCEL:
 353              		.loc 1 118 0
 354 004a 14E0     		b	.L25
 355              	.LVL35:
 356              	.L22:
 121:.\main.c      ****             break;
 357              		.loc 1 121 0
 358 004c 0E48     		ldr	r0, .L26+12
 359              	.LVL36:
 360 004e FFF7FEFF 		bl	xbee_PutString
 361              	.LVL37:
 122:.\main.c      ****         case COMMAND_READ:
 362              		.loc 1 122 0
 363 0052 10E0     		b	.L25
 364              	.LVL38:
 365              	.L23:
 124:.\main.c      ****             break;
 366              		.loc 1 124 0
 367 0054 0122     		mov	r2, #1
 368 0056 0A4B     		ldr	r3, .L26+4
 369 0058 9A72     		strb	r2, [r3, #10]
 125:.\main.c      ****         case COMMAND_ST_CONNECT:
 370              		.loc 1 125 0
 371 005a 0CE0     		b	.L25
 372              	.L20:
 128:.\main.c      ****             break;
 373              		.loc 1 128 0
ARM GAS  C:\Users\Petro\AppData\Local\Temp\ccrqvwj9.s 			page 12


 374 005c 0A48     		ldr	r0, .L26+12
 375              	.LVL39:
 376 005e FFF7FEFF 		bl	xbee_PutString
 377              	.LVL40:
 129:.\main.c      ****         default:
 378              		.loc 1 129 0
 379 0062 08E0     		b	.L25
 380              	.LVL41:
 381              	.L19:
 132:.\main.c      ****                     deletTimeSkier((input-'0'),skierRezult);
 382              		.loc 1 132 0
 383 0064 094B     		ldr	r3, .L26+16
 384 0066 1B78     		ldrb	r3, [r3]
 385 0068 632B     		cmp	r3, #99
 386 006a 04D1     		bne	.L25
 133:.\main.c      ****             break;       
 387              		.loc 1 133 0
 388 006c 201C     		mov	r0, r4
 389              	.LVL42:
 390 006e 3038     		sub	r0, r0, #48
 391 0070 0449     		ldr	r1, .L26+8
 392 0072 FFF7FEFF 		bl	deletTimeSkier
 393              	.LVL43:
 394              	.L25:
 136:.\main.c      **** }
 395              		.loc 1 136 0
 396 0076 054B     		ldr	r3, .L26+16
 397 0078 1C70     		strb	r4, [r3]
 137:.\main.c      **** 
 398              		.loc 1 137 0
 399              		@ sp needed
 400 007a 38BD     		pop	{r3, r4, r5, pc}
 401              	.L27:
 402              		.align	2
 403              	.L26:
 404 007c 00000000 		.word	RealTime
 405 0080 00000000 		.word	.LANCHOR0
 406 0084 00000000 		.word	skierRezult
 407 0088 00000000 		.word	.LC8
 408 008c 00000000 		.word	lastCommand
 409              		.cfi_endproc
 410              	.LFE36:
 411              		.size	xbeeHandler, .-xbeeHandler
 412              		.section	.text.ShowTime,"ax",%progbits
 413              		.align	2
 414              		.global	ShowTime
 415              		.code	16
 416              		.thumb_func
 417              		.type	ShowTime, %function
 418              	ShowTime:
 419              	.LFB40:
 240:.\main.c      **** 
 241:.\main.c      **** 
 242:.\main.c      **** /*******************************************************
 243:.\main.c      **** * Function name: ShowTime
 244:.\main.c      **** *
 245:.\main.c      **** * Function displays data for all skiers
ARM GAS  C:\Users\Petro\AppData\Local\Temp\ccrqvwj9.s 			page 13


 246:.\main.c      **** * 
 247:.\main.c      **** * Parameters:
 248:.\main.c      **** * maxSkier - max skier on distancion.
 249:.\main.c      **** * skier[] - struct from time skiers
 250:.\main.c      **** *******************************************************/
 251:.\main.c      **** void ShowTime(int maxSkier,struct SKIERRESULT skier[])
 252:.\main.c      **** {
 420              		.loc 1 252 0
 421              		.cfi_startproc
 422              	.LVL44:
 423 0000 F0B5     		push	{r4, r5, r6, r7, lr}
 424              		.cfi_def_cfa_offset 20
 425              		.cfi_offset 4, -20
 426              		.cfi_offset 5, -16
 427              		.cfi_offset 6, -12
 428              		.cfi_offset 7, -8
 429              		.cfi_offset 14, -4
 430 0002 4746     		mov	r7, r8
 431 0004 80B4     		push	{r7}
 432              		.cfi_def_cfa_offset 24
 433              		.cfi_offset 8, -24
 434 0006 86B0     		sub	sp, sp, #24
 435              		.cfi_def_cfa_offset 48
 436 0008 071C     		mov	r7, r0
 437 000a 8846     		mov	r8, r1
 438              	.LVL45:
 253:.\main.c      ****     char buffer[16]; 
 254:.\main.c      ****     int num;
 255:.\main.c      ****     
 256:.\main.c      ****     for(num=0; num < maxSkier; num++){
 439              		.loc 1 256 0
 440 000c 0025     		mov	r5, #0
 441 000e 2CE0     		b	.L29
 442              	.LVL46:
 443              	.L30:
 257:.\main.c      ****         sprintf(buffer, "%i:%i:%i:%i   ",
 258:.\main.c      ****             skier[num].start.hour, skier[num].start.min, 
 444              		.loc 1 258 0 discriminator 3
 445 0010 6C00     		lsl	r4, r5, #1
 446 0012 6419     		add	r4, r4, r5
 447 0014 E400     		lsl	r4, r4, #3
 448 0016 4444     		add	r4, r4, r8
 449 0018 2288     		ldrh	r2, [r4]
 450 001a 6388     		ldrh	r3, [r4, #2]
 259:.\main.c      ****             skier[num].start.sec ,skier[num].start.msec);
 451              		.loc 1 259 0 discriminator 3
 452 001c A088     		ldrh	r0, [r4, #4]
 453 001e E188     		ldrh	r1, [r4, #6]
 257:.\main.c      ****         sprintf(buffer, "%i:%i:%i:%i   ",
 454              		.loc 1 257 0 discriminator 3
 455 0020 154E     		ldr	r6, .L31
 456 0022 0090     		str	r0, [sp]
 457 0024 0191     		str	r1, [sp, #4]
 458 0026 02A8     		add	r0, sp, #8
 459 0028 311C     		mov	r1, r6
 460 002a FFF7FEFF 		bl	sprintf
 461              	.LVL47:
ARM GAS  C:\Users\Petro\AppData\Local\Temp\ccrqvwj9.s 			page 14


 260:.\main.c      ****         xbee_PutString(buffer);
 462              		.loc 1 260 0 discriminator 3
 463 002e 02A8     		add	r0, sp, #8
 464 0030 FFF7FEFF 		bl	xbee_PutString
 465              	.LVL48:
 261:.\main.c      ****         sprintf(buffer, "%i:%i:%i:%i   ",
 262:.\main.c      ****             skier[num].finish.hour, skier[num].finish.min, 
 466              		.loc 1 262 0 discriminator 3
 467 0034 2289     		ldrh	r2, [r4, #8]
 468 0036 6389     		ldrh	r3, [r4, #10]
 263:.\main.c      ****             skier[num].finish.sec ,skier[num].finish.msec);
 469              		.loc 1 263 0 discriminator 3
 470 0038 A089     		ldrh	r0, [r4, #12]
 471 003a E189     		ldrh	r1, [r4, #14]
 261:.\main.c      ****         sprintf(buffer, "%i:%i:%i:%i   ",
 472              		.loc 1 261 0 discriminator 3
 473 003c 0090     		str	r0, [sp]
 474 003e 0191     		str	r1, [sp, #4]
 475 0040 02A8     		add	r0, sp, #8
 476 0042 311C     		mov	r1, r6
 477 0044 FFF7FEFF 		bl	sprintf
 478              	.LVL49:
 264:.\main.c      ****         xbee_PutString(buffer);
 479              		.loc 1 264 0 discriminator 3
 480 0048 02A8     		add	r0, sp, #8
 481 004a FFF7FEFF 		bl	xbee_PutString
 482              	.LVL50:
 265:.\main.c      ****         sprintf(buffer, "%i:%i:%i:%i\n\r",
 266:.\main.c      ****             skier[num].rezult.hour, skier[num].rezult.min, 
 483              		.loc 1 266 0 discriminator 3
 484 004e 228A     		ldrh	r2, [r4, #16]
 485 0050 638A     		ldrh	r3, [r4, #18]
 267:.\main.c      ****             skier[num].rezult.sec ,skier[num].rezult.msec);
 486              		.loc 1 267 0 discriminator 3
 487 0052 A08A     		ldrh	r0, [r4, #20]
 488 0054 E18A     		ldrh	r1, [r4, #22]
 265:.\main.c      ****         sprintf(buffer, "%i:%i:%i:%i\n\r",
 489              		.loc 1 265 0 discriminator 3
 490 0056 0090     		str	r0, [sp]
 491 0058 0191     		str	r1, [sp, #4]
 492 005a 02A8     		add	r0, sp, #8
 493 005c 0749     		ldr	r1, .L31+4
 494 005e FFF7FEFF 		bl	sprintf
 495              	.LVL51:
 268:.\main.c      ****         xbee_PutString(buffer);
 496              		.loc 1 268 0 discriminator 3
 497 0062 02A8     		add	r0, sp, #8
 498 0064 FFF7FEFF 		bl	xbee_PutString
 499              	.LVL52:
 256:.\main.c      ****         sprintf(buffer, "%i:%i:%i:%i   ",
 500              		.loc 1 256 0 discriminator 3
 501 0068 0135     		add	r5, r5, #1
 502              	.LVL53:
 503              	.L29:
 256:.\main.c      ****         sprintf(buffer, "%i:%i:%i:%i   ",
 504              		.loc 1 256 0 is_stmt 0 discriminator 1
 505 006a BD42     		cmp	r5, r7
ARM GAS  C:\Users\Petro\AppData\Local\Temp\ccrqvwj9.s 			page 15


 506 006c D0DB     		blt	.L30
 269:.\main.c      ****     }
 270:.\main.c      **** }
 507              		.loc 1 270 0 is_stmt 1
 508 006e 06B0     		add	sp, sp, #24
 509              		@ sp needed
 510              	.LVL54:
 511              	.LVL55:
 512              	.LVL56:
 513 0070 04BC     		pop	{r2}
 514 0072 9046     		mov	r8, r2
 515 0074 F0BD     		pop	{r4, r5, r6, r7, pc}
 516              	.L32:
 517 0076 C046     		.align	2
 518              	.L31:
 519 0078 08000000 		.word	.LC11
 520 007c 18000000 		.word	.LC13
 521              		.cfi_endproc
 522              	.LFE40:
 523              		.size	ShowTime, .-ShowTime
 524              		.section	.text.LedIndication,"ax",%progbits
 525              		.align	2
 526              		.global	LedIndication
 527              		.code	16
 528              		.thumb_func
 529              		.type	LedIndication, %function
 530              	LedIndication:
 531              	.LFB41:
 271:.\main.c      **** 
 272:.\main.c      **** /*******************************************************
 273:.\main.c      **** * Function name: LedIndication
 274:.\main.c      **** *
 275:.\main.c      **** * Function led off(led on in interrrupt timer
 276:.\main.c      **** * if skier on distancion)
 277:.\main.c      **** * 
 278:.\main.c      **** *******************************************************/
 279:.\main.c      **** void LedIndication(void)
 280:.\main.c      **** {
 532              		.loc 1 280 0
 533              		.cfi_startproc
 534 0000 08B5     		push	{r3, lr}
 535              		.cfi_def_cfa_offset 8
 536              		.cfi_offset 3, -8
 537              		.cfi_offset 14, -4
 538              	.LVL57:
 281:.\main.c      ****     int LED_ON = 0;
 282:.\main.c      ****     int LED_OFF = 1;
 283:.\main.c      ****     
 284:.\main.c      ****     /*blink led*/
 285:.\main.c      ****     led_green_Write(LED_ON);
 539              		.loc 1 285 0
 540 0002 0020     		mov	r0, #0
 541 0004 FFF7FEFF 		bl	led_green_Write
 542              	.LVL58:
 286:.\main.c      ****     CyDelay(10);
 543              		.loc 1 286 0
 544 0008 0A20     		mov	r0, #10
ARM GAS  C:\Users\Petro\AppData\Local\Temp\ccrqvwj9.s 			page 16


 545 000a FFF7FEFF 		bl	CyDelay
 546              	.LVL59:
 287:.\main.c      ****     led_green_Write(LED_OFF);
 547              		.loc 1 287 0
 548 000e 0120     		mov	r0, #1
 549 0010 FFF7FEFF 		bl	led_green_Write
 550              	.LVL60:
 288:.\main.c      **** }
 551              		.loc 1 288 0
 552              		@ sp needed
 553 0014 08BD     		pop	{r3, pc}
 554              		.cfi_endproc
 555              	.LFE41:
 556              		.size	LedIndication, .-LedIndication
 557 0016 C046     		.section	.text.displaySkierInfoAllTable,"ax",%progbits
 558              		.align	2
 559              		.global	displaySkierInfoAllTable
 560              		.code	16
 561              		.thumb_func
 562              		.type	displaySkierInfoAllTable, %function
 563              	displaySkierInfoAllTable:
 564              	.LFB42:
 289:.\main.c      **** 
 290:.\main.c      **** /*******************************************************
 291:.\main.c      **** * Function name: displaySkierInfoAllTable
 292:.\main.c      **** *
 293:.\main.c      **** * Function  print time all skier on display
 294:.\main.c      **** * display - row = 2, column = 16
 295:.\main.c      **** *
 296:.\main.c      **** * Parameters:
 297:.\main.c      **** * numSkier - num skier, you want to print
 298:.\main.c      **** * *skierInfo - struct from data about time skiers
 299:.\main.c      **** *
 300:.\main.c      **** *******************************************************/
 301:.\main.c      **** void displaySkierInfoAllTable(struct SKIERRESULT skierInfo[])
 302:.\main.c      **** {
 565              		.loc 1 302 0
 566              		.cfi_startproc
 567              	.LVL61:
 568 0000 70B5     		push	{r4, r5, r6, lr}
 569              		.cfi_def_cfa_offset 16
 570              		.cfi_offset 4, -16
 571              		.cfi_offset 5, -12
 572              		.cfi_offset 6, -8
 573              		.cfi_offset 14, -4
 574 0002 88B0     		sub	sp, sp, #32
 575              		.cfi_def_cfa_offset 48
 576 0004 061C     		mov	r6, r0
 577              	.LVL62:
 303:.\main.c      ****     int i;
 304:.\main.c      ****     /*row and column display*/
 305:.\main.c      ****     int row = 2;
 306:.\main.c      ****     int column = 16;
 307:.\main.c      ****     char string_buff[column];
 308:.\main.c      **** 
 309:.\main.c      ****     for(i=0; i<row;i++)
 578              		.loc 1 309 0
ARM GAS  C:\Users\Petro\AppData\Local\Temp\ccrqvwj9.s 			page 17


 579 0006 0025     		mov	r5, #0
 580 0008 18E0     		b	.L35
 581              	.LVL63:
 582              	.L36:
 310:.\main.c      ****     {
 311:.\main.c      ****         sprintf(string_buff,"%i - %d:%d:%d:%d",  
 583              		.loc 1 311 0 discriminator 3
 584 000a 6C1C     		add	r4, r5, #1
 312:.\main.c      ****             i+1,skierInfo[i].rezult.hour, skierInfo[i].rezult.min, 
 585              		.loc 1 312 0 discriminator 3
 586 000c 6A00     		lsl	r2, r5, #1
 587 000e 5219     		add	r2, r2, r5
 588 0010 D200     		lsl	r2, r2, #3
 589 0012 B218     		add	r2, r6, r2
 590 0014 138A     		ldrh	r3, [r2, #16]
 591 0016 508A     		ldrh	r0, [r2, #18]
 313:.\main.c      ****             skierInfo[i].rezult.sec, skierInfo[i].rezult.msec);
 592              		.loc 1 313 0 discriminator 3
 593 0018 918A     		ldrh	r1, [r2, #20]
 594 001a D28A     		ldrh	r2, [r2, #22]
 311:.\main.c      ****             i+1,skierInfo[i].rezult.hour, skierInfo[i].rezult.min, 
 595              		.loc 1 311 0 discriminator 3
 596 001c 0090     		str	r0, [sp]
 597 001e 0191     		str	r1, [sp, #4]
 598 0020 0292     		str	r2, [sp, #8]
 599 0022 04A8     		add	r0, sp, #16
 600              	.LVL64:
 601 0024 0749     		ldr	r1, .L37
 602 0026 221C     		mov	r2, r4
 603 0028 FFF7FEFF 		bl	sprintf
 604              	.LVL65:
 314:.\main.c      ****         display_Position(i,0);
 605              		.loc 1 314 0 discriminator 3
 606 002c E8B2     		uxtb	r0, r5
 607 002e 0021     		mov	r1, #0
 608 0030 FFF7FEFF 		bl	display_Position
 609              	.LVL66:
 315:.\main.c      ****         display_PrintString(string_buff);        
 610              		.loc 1 315 0 discriminator 3
 611 0034 04A8     		add	r0, sp, #16
 612              	.LVL67:
 613 0036 FFF7FEFF 		bl	display_PrintString
 614              	.LVL68:
 309:.\main.c      ****     {
 615              		.loc 1 309 0 discriminator 3
 616 003a 251C     		mov	r5, r4
 617              	.LVL69:
 618              	.L35:
 309:.\main.c      ****     {
 619              		.loc 1 309 0 is_stmt 0 discriminator 1
 620 003c 012D     		cmp	r5, #1
 621 003e E4DD     		ble	.L36
 316:.\main.c      ****     }  
 317:.\main.c      **** }
 622              		.loc 1 317 0 is_stmt 1
 623 0040 08B0     		add	sp, sp, #32
 624              		@ sp needed
ARM GAS  C:\Users\Petro\AppData\Local\Temp\ccrqvwj9.s 			page 18


 625              	.LVL70:
 626              	.LVL71:
 627 0042 70BD     		pop	{r4, r5, r6, pc}
 628              	.L38:
 629              		.align	2
 630              	.L37:
 631 0044 28000000 		.word	.LC15
 632              		.cfi_endproc
 633              	.LFE42:
 634              		.size	displaySkierInfoAllTable, .-displaySkierInfoAllTable
 635              		.section	.text.displaySkierInfoOneSkier,"ax",%progbits
 636              		.align	2
 637              		.global	displaySkierInfoOneSkier
 638              		.code	16
 639              		.thumb_func
 640              		.type	displaySkierInfoOneSkier, %function
 641              	displaySkierInfoOneSkier:
 642              	.LFB43:
 318:.\main.c      **** 
 319:.\main.c      **** 
 320:.\main.c      **** /*******************************************************
 321:.\main.c      **** * Function name: displaySkierInfoOneSkier
 322:.\main.c      **** *
 323:.\main.c      **** * Function  print time one skier on display
 324:.\main.c      **** * time skier print in position (0,0)
 325:.\main.c      **** *
 326:.\main.c      **** * Parameters:
 327:.\main.c      **** * numSkier - num skier, you want to print
 328:.\main.c      **** * *skierInfo - struct from data about time skiers
 329:.\main.c      **** *
 330:.\main.c      **** *******************************************************/
 331:.\main.c      **** void displaySkierInfoOneSkier(int numSkier, struct time *skierInfo)
 332:.\main.c      **** {    
 643              		.loc 1 332 0
 644              		.cfi_startproc
 645              	.LVL72:
 646 0000 30B5     		push	{r4, r5, lr}
 647              		.cfi_def_cfa_offset 12
 648              		.cfi_offset 4, -12
 649              		.cfi_offset 5, -8
 650              		.cfi_offset 14, -4
 651 0002 89B0     		sub	sp, sp, #36
 652              		.cfi_def_cfa_offset 48
 333:.\main.c      ****     char string_buff[16];
 334:.\main.c      ****     
 335:.\main.c      ****     sprintf(string_buff,"%i - %d:%d:%d:%d",  
 336:.\main.c      ****         numSkier+1,skierInfo->hour, skierInfo->min, 
 653              		.loc 1 336 0
 654 0004 0B88     		ldrh	r3, [r1]
 655 0006 4D88     		ldrh	r5, [r1, #2]
 337:.\main.c      ****         skierInfo->sec, skierInfo->msec);
 656              		.loc 1 337 0
 657 0008 8C88     		ldrh	r4, [r1, #4]
 658 000a C988     		ldrh	r1, [r1, #6]
 659              	.LVL73:
 335:.\main.c      ****         numSkier+1,skierInfo->hour, skierInfo->min, 
 660              		.loc 1 335 0
ARM GAS  C:\Users\Petro\AppData\Local\Temp\ccrqvwj9.s 			page 19


 661 000c 421C     		add	r2, r0, #1
 662 000e 0095     		str	r5, [sp]
 663 0010 0194     		str	r4, [sp, #4]
 664 0012 0291     		str	r1, [sp, #8]
 665 0014 04A8     		add	r0, sp, #16
 666              	.LVL74:
 667 0016 0749     		ldr	r1, .L40
 668 0018 FFF7FEFF 		bl	sprintf
 669              	.LVL75:
 338:.\main.c      ****     display_ClearDisplay();
 670              		.loc 1 338 0
 671 001c 0120     		mov	r0, #1
 672 001e FFF7FEFF 		bl	display_WriteControl
 673              	.LVL76:
 339:.\main.c      ****     display_Position(0,0);
 674              		.loc 1 339 0
 675 0022 0020     		mov	r0, #0
 676 0024 0021     		mov	r1, #0
 677 0026 FFF7FEFF 		bl	display_Position
 678              	.LVL77:
 340:.\main.c      ****     display_PrintString(string_buff);
 679              		.loc 1 340 0
 680 002a 04A8     		add	r0, sp, #16
 681 002c FFF7FEFF 		bl	display_PrintString
 682              	.LVL78:
 341:.\main.c      **** }
 683              		.loc 1 341 0
 684 0030 09B0     		add	sp, sp, #36
 685              		@ sp needed
 686 0032 30BD     		pop	{r4, r5, pc}
 687              	.L41:
 688              		.align	2
 689              	.L40:
 690 0034 28000000 		.word	.LC15
 691              		.cfi_endproc
 692              	.LFE43:
 693              		.size	displaySkierInfoOneSkier, .-displaySkierInfoOneSkier
 694              		.section	.text.sleepSystem,"ax",%progbits
 695              		.align	2
 696              		.global	sleepSystem
 697              		.code	16
 698              		.thumb_func
 699              		.type	sleepSystem, %function
 700              	sleepSystem:
 701              	.LFB44:
 342:.\main.c      **** 
 343:.\main.c      **** /*******************************************************
 344:.\main.c      **** * Function name: sleepSystem
 345:.\main.c      **** *
 346:.\main.c      **** * Function  sleep the system
 347:.\main.c      **** *
 348:.\main.c      **** *******************************************************/
 349:.\main.c      **** void sleepSystem(void)
 350:.\main.c      **** {
 702              		.loc 1 350 0
 703              		.cfi_startproc
 704 0000 08B5     		push	{r3, lr}
ARM GAS  C:\Users\Petro\AppData\Local\Temp\ccrqvwj9.s 			page 20


 705              		.cfi_def_cfa_offset 8
 706              		.cfi_offset 3, -8
 707              		.cfi_offset 14, -4
 351:.\main.c      ****     CyDelay(1000);
 708              		.loc 1 351 0
 709 0002 FA20     		mov	r0, #250
 710 0004 8000     		lsl	r0, r0, #2
 711 0006 FFF7FEFF 		bl	CyDelay
 712              	.LVL79:
 352:.\main.c      **** }...
 713              		.loc 1 352 0
 714              		@ sp needed
 715 000a 08BD     		pop	{r3, pc}
 716              		.cfi_endproc
 717              	.LFE44:
 718              		.size	sleepSystem, .-sleepSystem
 719              		.section	.text.main,"ax",%progbits
 720              		.align	2
 721              		.global	main
 722              		.code	16
 723              		.thumb_func
 724              		.type	main, %function
 725              	main:
 726              	.LFB37:
 141:.\main.c      **** {
 727              		.loc 1 141 0
 728              		.cfi_startproc
 729 0000 10B5     		push	{r4, lr}
 730              		.cfi_def_cfa_offset 8
 731              		.cfi_offset 4, -8
 732              		.cfi_offset 14, -4
 142:.\main.c      ****     CyGlobalIntEnable; /* Enable global interrupts. */
 733              		.loc 1 142 0
 734              	@ 142 ".\main.c" 1
 735 0002 62B6     		CPSIE   i
 736              	@ 0 "" 2
 143:.\main.c      ****     timer_Start();
 737              		.loc 1 143 0
 738              		.code	16
 739 0004 FFF7FEFF 		bl	timer_Start
 740              	.LVL80:
 144:.\main.c      ****     xbee_Start();
 741              		.loc 1 144 0
 742 0008 FFF7FEFF 		bl	xbee_Start
 743              	.LVL81:
 145:.\main.c      ****     display_Start();
 744              		.loc 1 145 0
 745 000c FFF7FEFF 		bl	display_Start
 746              	.LVL82:
 147:.\main.c      ****     isr_finish_StartEx(finishHandler);      
 747              		.loc 1 147 0
 748 0010 1B48     		ldr	r0, .L49
 749 0012 FFF7FEFF 		bl	isr_finish_StartEx
 750              	.LVL83:
 148:.\main.c      ****     isr_timer_StartEx(timerHandler);     
 751              		.loc 1 148 0
 752 0016 1B48     		ldr	r0, .L49+4
ARM GAS  C:\Users\Petro\AppData\Local\Temp\ccrqvwj9.s 			page 21


 753 0018 FFF7FEFF 		bl	isr_timer_StartEx
 754              	.LVL84:
 149:.\main.c      ****     isr_xbee_StartEx(xbeeHandler);
 755              		.loc 1 149 0
 756 001c 1A48     		ldr	r0, .L49+8
 757 001e FFF7FEFF 		bl	isr_xbee_StartEx
 758              	.LVL85:
 759              	.L48:
 154:.\main.c      ****         if(last_finished == last_started)
 760              		.loc 1 154 0
 761 0022 1A4B     		ldr	r3, .L49+12
 762 0024 1A68     		ldr	r2, [r3]
 763 0026 5B68     		ldr	r3, [r3, #4]
 764 0028 9A42     		cmp	r2, r3
 765 002a 02D1     		bne	.L44
 155:.\main.c      ****             onTrack = false;   
 766              		.loc 1 155 0
 767 002c 0022     		mov	r2, #0
 768 002e 174B     		ldr	r3, .L49+12
 769 0030 5A72     		strb	r2, [r3, #9]
 770              	.L44:
 156:.\main.c      ****         if(onTrack) 
 771              		.loc 1 156 0
 772 0032 164B     		ldr	r3, .L49+12
 773 0034 5B7A     		ldrb	r3, [r3, #9]
 774 0036 002B     		cmp	r3, #0
 775 0038 01D0     		beq	.L45
 157:.\main.c      ****             LedIndication();
 776              		.loc 1 157 0
 777 003a FFF7FEFF 		bl	LedIndication
 778              	.LVL86:
 779              	.L45:
 160:.\main.c      ****         if(requestRead){
 780              		.loc 1 160 0
 781 003e 134B     		ldr	r3, .L49+12
 782 0040 9B7A     		ldrb	r3, [r3, #10]
 783 0042 002B     		cmp	r3, #0
 784 0044 06D0     		beq	.L46
 161:.\main.c      ****             ShowTime(MAXSKIER,skierRezult);
 785              		.loc 1 161 0
 786 0046 0920     		mov	r0, #9
 787 0048 1149     		ldr	r1, .L49+16
 788 004a FFF7FEFF 		bl	ShowTime
 789              	.LVL87:
 162:.\main.c      ****             requestRead = false;
 790              		.loc 1 162 0
 791 004e 0022     		mov	r2, #0
 792 0050 0E4B     		ldr	r3, .L49+12
 793 0052 9A72     		strb	r2, [r3, #10]
 794              	.L46:
 166:.\main.c      ****         if(pressFinish){
 795              		.loc 1 166 0
 796 0054 0D4B     		ldr	r3, .L49+12
 797 0056 1B7A     		ldrb	r3, [r3, #8]
 798 0058 002B     		cmp	r3, #0
 799 005a 0BD0     		beq	.L47
 167:.\main.c      ****             quantifyTimeRezult(&skierRezult[last_finished-1]);
ARM GAS  C:\Users\Petro\AppData\Local\Temp\ccrqvwj9.s 			page 22


 800              		.loc 1 167 0
 801 005c 0B4C     		ldr	r4, .L49+12
 802 005e 2368     		ldr	r3, [r4]
 803 0060 013B     		sub	r3, r3, #1
 804 0062 5800     		lsl	r0, r3, #1
 805 0064 C318     		add	r3, r0, r3
 806 0066 DB00     		lsl	r3, r3, #3
 807 0068 0948     		ldr	r0, .L49+16
 808 006a 1818     		add	r0, r3, r0
 809 006c FFF7FEFF 		bl	quantifyTimeRezult
 810              	.LVL88:
 168:.\main.c      ****             pressFinish = false;
 811              		.loc 1 168 0
 812 0070 0023     		mov	r3, #0
 813 0072 2372     		strb	r3, [r4, #8]
 814              	.L47:
 172:.\main.c      ****         displaySkierInfoAllTable(skierRezult);
 815              		.loc 1 172 0
 816 0074 0648     		ldr	r0, .L49+16
 817 0076 FFF7FEFF 		bl	displaySkierInfoAllTable
 818              	.LVL89:
 174:.\main.c      ****         sleepSystem();
 819              		.loc 1 174 0
 820 007a FFF7FEFF 		bl	sleepSystem
 821              	.LVL90:
 175:.\main.c      ****     }
 822              		.loc 1 175 0
 823 007e D0E7     		b	.L48
 824              	.L50:
 825              		.align	2
 826              	.L49:
 827 0080 00000000 		.word	finishHandler
 828 0084 00000000 		.word	timerHandler
 829 0088 00000000 		.word	xbeeHandler
 830 008c 00000000 		.word	.LANCHOR0
 831 0090 00000000 		.word	skierRezult
 832              		.cfi_endproc
 833              	.LFE37:
 834              		.size	main, .-main
 835              		.comm	lastCommand,1,1
 836              		.global	finish_skier
 837              		.global	free_slots
 838              		.global	last_finished
 839              		.global	last_started
 840              		.global	pressFinish
 841              		.global	requestRead
 842              		.global	onTrack
 843              		.comm	RealTime,8,4
 844              		.comm	skierRezult,216,4
 845              		.section	.rodata.str1.4,"aMS",%progbits,1
 846              		.align	2
 847              	.LC8:
 848 0000 4F4B0A0D 		.ascii	"OK\012\015\000"
 848      00
 849 0005 000000   		.space	3
 850              	.LC11:
 851 0008 25693A25 		.ascii	"%i:%i:%i:%i   \000"
ARM GAS  C:\Users\Petro\AppData\Local\Temp\ccrqvwj9.s 			page 23


 851      693A2569 
 851      3A256920 
 851      202000
 852 0017 00       		.space	1
 853              	.LC13:
 854 0018 25693A25 		.ascii	"%i:%i:%i:%i\012\015\000"
 854      693A2569 
 854      3A25690A 
 854      0D00
 855 0026 0000     		.space	2
 856              	.LC15:
 857 0028 2569202D 		.ascii	"%i - %d:%d:%d:%d\000"
 857      2025643A 
 857      25643A25 
 857      643A2564 
 857      00
 858 0039 000000   		.bss
 859              		.align	2
 860              		.set	.LANCHOR0,. + 0
 861              		.type	last_finished, %object
 862              		.size	last_finished, 4
 863              	last_finished:
 864 0000 00000000 		.space	4
 865              		.type	last_started, %object
 866              		.size	last_started, 4
 867              	last_started:
 868 0004 00000000 		.space	4
 869              		.type	pressFinish, %object
 870              		.size	pressFinish, 1
 871              	pressFinish:
 872 0008 00       		.space	1
 873              		.type	onTrack, %object
 874              		.size	onTrack, 1
 875              	onTrack:
 876 0009 00       		.space	1
 877              		.type	requestRead, %object
 878              		.size	requestRead, 1
 879              	requestRead:
 880 000a 00       		.space	1
 881 000b 00       		.space	1
 882              		.type	finish_skier, %object
 883              		.size	finish_skier, 4
 884              	finish_skier:
 885 000c 00000000 		.space	4
 886              		.type	free_slots, %object
 887              		.size	free_slots, 4
 888              	free_slots:
 889 0010 00000000 		.space	4
 890              		.text
 891              	.Letext0:
 892              		.file 2 "c:\\program files (x86)\\cypress\\psoc creator\\3.3\\psoc creator\\import\\gnu\\arm\\4.9.
 893              		.file 3 "c:\\program files (x86)\\cypress\\psoc creator\\3.3\\psoc creator\\import\\gnu\\arm\\4.9.
 894              		.file 4 "Generated_Source\\PSoC4/cytypes.h"
 895              		.file 5 "Generated_Source\\PSoC4/timer.h"
 896              		.file 6 "Generated_Source\\PSoC4/finish.h"
 897              		.file 7 "Generated_Source\\PSoC4/xbee.h"
 898              		.file 8 "Generated_Source\\PSoC4/led_green.h"
ARM GAS  C:\Users\Petro\AppData\Local\Temp\ccrqvwj9.s 			page 24


 899              		.file 9 "Generated_Source\\PSoC4/CyLib.h"
 900              		.file 10 "Generated_Source\\PSoC4/display.h"
 901              		.file 11 "Generated_Source\\PSoC4/isr_finish.h"
 902              		.file 12 "Generated_Source\\PSoC4/isr_timer.h"
 903              		.file 13 "c:\\program files (x86)\\cypress\\psoc creator\\3.3\\psoc creator\\import\\gnu\\arm\\4.9
 904              		.file 14 "Generated_Source\\PSoC4/isr_xbee.h"