ARM GAS  C:\Users\Petro\AppData\Local\Temp\ccDwZwQ1.s 			page 1


   1              		.cpu cortex-m0
   2              		.fpu softvfp
   3              		.eabi_attribute 20, 1
   4              		.eabi_attribute 21, 1
   5              		.eabi_attribute 23, 3
   6              		.eabi_attribute 24, 1
   7              		.eabi_attribute 25, 1
   8              		.eabi_attribute 26, 1
   9              		.eabi_attribute 30, 6
  10              		.eabi_attribute 34, 0
  11              		.eabi_attribute 18, 4
  12              		.code	16
  13              		.file	"LCD_PM.c"
  14              		.text
  15              	.Ltext0:
  16              		.cfi_sections	.debug_frame
  17              		.bss
  18              		.align	2
  19              	LCD_backup:
  20 0000 00       		.space	1
  21 0001 000000   		.section	.text.LCD_SaveConfig,"ax",%progbits
  22              		.align	2
  23              		.global	LCD_SaveConfig
  24              		.code	16
  25              		.thumb_func
  26              		.type	LCD_SaveConfig, %function
  27              	LCD_SaveConfig:
  28              	.LFB0:
  29              		.file 1 "Generated_Source\\PSoC4\\LCD_PM.c"
   1:Generated_Source\PSoC4/LCD_PM.c **** /*******************************************************************************
   2:Generated_Source\PSoC4/LCD_PM.c **** * File Name: LCD_PM.c
   3:Generated_Source\PSoC4/LCD_PM.c **** * Version 2.20
   4:Generated_Source\PSoC4/LCD_PM.c **** *
   5:Generated_Source\PSoC4/LCD_PM.c **** * Description:
   6:Generated_Source\PSoC4/LCD_PM.c **** *  This file provides the API source code for the Static Segment LCD component.
   7:Generated_Source\PSoC4/LCD_PM.c **** *
   8:Generated_Source\PSoC4/LCD_PM.c **** * Note:
   9:Generated_Source\PSoC4/LCD_PM.c **** *
  10:Generated_Source\PSoC4/LCD_PM.c **** ********************************************************************************
  11:Generated_Source\PSoC4/LCD_PM.c **** * Copyright 2008-2014, Cypress Semiconductor Corporation.  All rights reserved.
  12:Generated_Source\PSoC4/LCD_PM.c **** * You may use this file only in accordance with the license, terms, conditions,
  13:Generated_Source\PSoC4/LCD_PM.c **** * disclaimers, and limitations in the end user license agreement accompanying
  14:Generated_Source\PSoC4/LCD_PM.c **** * the software package with which this file was provided.
  15:Generated_Source\PSoC4/LCD_PM.c **** *******************************************************************************/
  16:Generated_Source\PSoC4/LCD_PM.c **** 
  17:Generated_Source\PSoC4/LCD_PM.c **** #include "LCD.h"
  18:Generated_Source\PSoC4/LCD_PM.c **** 
  19:Generated_Source\PSoC4/LCD_PM.c **** 
  20:Generated_Source\PSoC4/LCD_PM.c **** static LCD_BACKUP_STRUCT LCD_backup;
  21:Generated_Source\PSoC4/LCD_PM.c **** 
  22:Generated_Source\PSoC4/LCD_PM.c **** 
  23:Generated_Source\PSoC4/LCD_PM.c **** /*******************************************************************************
  24:Generated_Source\PSoC4/LCD_PM.c **** * Function Name: LCD_SaveConfig
  25:Generated_Source\PSoC4/LCD_PM.c **** ********************************************************************************
  26:Generated_Source\PSoC4/LCD_PM.c **** *
  27:Generated_Source\PSoC4/LCD_PM.c **** * Summary:
  28:Generated_Source\PSoC4/LCD_PM.c **** *  Does nothing, provided for consistency.
ARM GAS  C:\Users\Petro\AppData\Local\Temp\ccDwZwQ1.s 			page 2


  29:Generated_Source\PSoC4/LCD_PM.c **** *
  30:Generated_Source\PSoC4/LCD_PM.c **** * Parameters:
  31:Generated_Source\PSoC4/LCD_PM.c **** *  None.
  32:Generated_Source\PSoC4/LCD_PM.c **** *
  33:Generated_Source\PSoC4/LCD_PM.c **** * Return:
  34:Generated_Source\PSoC4/LCD_PM.c **** *  None.
  35:Generated_Source\PSoC4/LCD_PM.c **** *
  36:Generated_Source\PSoC4/LCD_PM.c **** *******************************************************************************/
  37:Generated_Source\PSoC4/LCD_PM.c **** void LCD_SaveConfig(void) 
  38:Generated_Source\PSoC4/LCD_PM.c **** {
  30              		.loc 1 38 0
  31              		.cfi_startproc
  32 0000 80B5     		push	{r7, lr}
  33              		.cfi_def_cfa_offset 8
  34              		.cfi_offset 7, -8
  35              		.cfi_offset 14, -4
  36 0002 00AF     		add	r7, sp, #0
  37              		.cfi_def_cfa_register 7
  39:Generated_Source\PSoC4/LCD_PM.c **** }
  38              		.loc 1 39 0
  39 0004 BD46     		mov	sp, r7
  40              		@ sp needed
  41 0006 80BD     		pop	{r7, pc}
  42              		.cfi_endproc
  43              	.LFE0:
  44              		.size	LCD_SaveConfig, .-LCD_SaveConfig
  45              		.section	.text.LCD_RestoreConfig,"ax",%progbits
  46              		.align	2
  47              		.global	LCD_RestoreConfig
  48              		.code	16
  49              		.thumb_func
  50              		.type	LCD_RestoreConfig, %function
  51              	LCD_RestoreConfig:
  52              	.LFB1:
  40:Generated_Source\PSoC4/LCD_PM.c **** 
  41:Generated_Source\PSoC4/LCD_PM.c **** 
  42:Generated_Source\PSoC4/LCD_PM.c **** /*******************************************************************************
  43:Generated_Source\PSoC4/LCD_PM.c **** * Function Name: LCD_RestoreConfig
  44:Generated_Source\PSoC4/LCD_PM.c **** ********************************************************************************
  45:Generated_Source\PSoC4/LCD_PM.c **** *
  46:Generated_Source\PSoC4/LCD_PM.c **** * Summary:
  47:Generated_Source\PSoC4/LCD_PM.c **** *  Does nothing, provided for consistency.
  48:Generated_Source\PSoC4/LCD_PM.c **** *
  49:Generated_Source\PSoC4/LCD_PM.c **** * Parameters:
  50:Generated_Source\PSoC4/LCD_PM.c **** *  None.
  51:Generated_Source\PSoC4/LCD_PM.c **** *
  52:Generated_Source\PSoC4/LCD_PM.c **** * Return:
  53:Generated_Source\PSoC4/LCD_PM.c **** *  None.
  54:Generated_Source\PSoC4/LCD_PM.c **** *
  55:Generated_Source\PSoC4/LCD_PM.c **** *******************************************************************************/
  56:Generated_Source\PSoC4/LCD_PM.c **** void LCD_RestoreConfig(void) 
  57:Generated_Source\PSoC4/LCD_PM.c **** {
  53              		.loc 1 57 0
  54              		.cfi_startproc
  55 0000 80B5     		push	{r7, lr}
  56              		.cfi_def_cfa_offset 8
  57              		.cfi_offset 7, -8
ARM GAS  C:\Users\Petro\AppData\Local\Temp\ccDwZwQ1.s 			page 3


  58              		.cfi_offset 14, -4
  59 0002 00AF     		add	r7, sp, #0
  60              		.cfi_def_cfa_register 7
  58:Generated_Source\PSoC4/LCD_PM.c **** }
  61              		.loc 1 58 0
  62 0004 BD46     		mov	sp, r7
  63              		@ sp needed
  64 0006 80BD     		pop	{r7, pc}
  65              		.cfi_endproc
  66              	.LFE1:
  67              		.size	LCD_RestoreConfig, .-LCD_RestoreConfig
  68              		.section	.text.LCD_Sleep,"ax",%progbits
  69              		.align	2
  70              		.global	LCD_Sleep
  71              		.code	16
  72              		.thumb_func
  73              		.type	LCD_Sleep, %function
  74              	LCD_Sleep:
  75              	.LFB2:
  59:Generated_Source\PSoC4/LCD_PM.c **** 
  60:Generated_Source\PSoC4/LCD_PM.c **** 
  61:Generated_Source\PSoC4/LCD_PM.c **** /*******************************************************************************
  62:Generated_Source\PSoC4/LCD_PM.c **** * Function Name: LCD_Sleep
  63:Generated_Source\PSoC4/LCD_PM.c **** ********************************************************************************
  64:Generated_Source\PSoC4/LCD_PM.c **** *
  65:Generated_Source\PSoC4/LCD_PM.c **** * Summary:
  66:Generated_Source\PSoC4/LCD_PM.c **** *  Prepares the component for entering the sleep mode.
  67:Generated_Source\PSoC4/LCD_PM.c **** *
  68:Generated_Source\PSoC4/LCD_PM.c **** * Parameters:
  69:Generated_Source\PSoC4/LCD_PM.c **** *  None.
  70:Generated_Source\PSoC4/LCD_PM.c **** *
  71:Generated_Source\PSoC4/LCD_PM.c **** * Return:
  72:Generated_Source\PSoC4/LCD_PM.c **** *  None.
  73:Generated_Source\PSoC4/LCD_PM.c **** *
  74:Generated_Source\PSoC4/LCD_PM.c **** * Reentrant:
  75:Generated_Source\PSoC4/LCD_PM.c **** *  No.
  76:Generated_Source\PSoC4/LCD_PM.c **** *
  77:Generated_Source\PSoC4/LCD_PM.c **** *******************************************************************************/
  78:Generated_Source\PSoC4/LCD_PM.c **** void LCD_Sleep(void) 
  79:Generated_Source\PSoC4/LCD_PM.c **** {
  76              		.loc 1 79 0
  77              		.cfi_startproc
  78 0000 80B5     		push	{r7, lr}
  79              		.cfi_def_cfa_offset 8
  80              		.cfi_offset 7, -8
  81              		.cfi_offset 14, -4
  82 0002 00AF     		add	r7, sp, #0
  83              		.cfi_def_cfa_register 7
  80:Generated_Source\PSoC4/LCD_PM.c ****     LCD_backup.enableState = LCD_enableState;
  84              		.loc 1 80 0
  85 0004 044B     		ldr	r3, .L4
  86 0006 1A78     		ldrb	r2, [r3]
  87 0008 044B     		ldr	r3, .L4+4
  88 000a 1A70     		strb	r2, [r3]
  81:Generated_Source\PSoC4/LCD_PM.c ****     LCD_SaveConfig();
  89              		.loc 1 81 0
  90 000c FFF7FEFF 		bl	LCD_SaveConfig
ARM GAS  C:\Users\Petro\AppData\Local\Temp\ccDwZwQ1.s 			page 4


  82:Generated_Source\PSoC4/LCD_PM.c ****     LCD_Stop();
  91              		.loc 1 82 0
  92 0010 FFF7FEFF 		bl	LCD_Stop
  83:Generated_Source\PSoC4/LCD_PM.c **** }
  93              		.loc 1 83 0
  94 0014 BD46     		mov	sp, r7
  95              		@ sp needed
  96 0016 80BD     		pop	{r7, pc}
  97              	.L5:
  98              		.align	2
  99              	.L4:
 100 0018 00000000 		.word	LCD_enableState
 101 001c 00000000 		.word	LCD_backup
 102              		.cfi_endproc
 103              	.LFE2:
 104              		.size	LCD_Sleep, .-LCD_Sleep
 105              		.section	.text.LCD_Wakeup,"ax",%progbits
 106              		.align	2
 107              		.global	LCD_Wakeup
 108              		.code	16
 109              		.thumb_func
 110              		.type	LCD_Wakeup, %function
 111              	LCD_Wakeup:
 112              	.LFB3:
  84:Generated_Source\PSoC4/LCD_PM.c **** 
  85:Generated_Source\PSoC4/LCD_PM.c **** 
  86:Generated_Source\PSoC4/LCD_PM.c **** /*******************************************************************************
  87:Generated_Source\PSoC4/LCD_PM.c **** * Function Name: LCD_Wakeup
  88:Generated_Source\PSoC4/LCD_PM.c **** ********************************************************************************
  89:Generated_Source\PSoC4/LCD_PM.c **** *
  90:Generated_Source\PSoC4/LCD_PM.c **** * Summary:
  91:Generated_Source\PSoC4/LCD_PM.c **** *  Wakes the component from sleep mode. Configures DMA and enables the component
  92:Generated_Source\PSoC4/LCD_PM.c **** *  for normal operation.
  93:Generated_Source\PSoC4/LCD_PM.c **** *
  94:Generated_Source\PSoC4/LCD_PM.c **** * Parameters:
  95:Generated_Source\PSoC4/LCD_PM.c **** *  LCD_enableState - Global variable.
  96:Generated_Source\PSoC4/LCD_PM.c **** *
  97:Generated_Source\PSoC4/LCD_PM.c **** * Return:
  98:Generated_Source\PSoC4/LCD_PM.c **** *  Status one of standard status for PSoC3 Component
  99:Generated_Source\PSoC4/LCD_PM.c **** *       CYRET_SUCCESS - Function completed successfully.
 100:Generated_Source\PSoC4/LCD_PM.c **** *       CYRET_LOCKED - The object was locked, already in use. Some of TDs or
 101:Generated_Source\PSoC4/LCD_PM.c **** *                      a channel already in use.
 102:Generated_Source\PSoC4/LCD_PM.c **** *
 103:Generated_Source\PSoC4/LCD_PM.c **** * Reentrant:
 104:Generated_Source\PSoC4/LCD_PM.c **** *  No.
 105:Generated_Source\PSoC4/LCD_PM.c **** *
 106:Generated_Source\PSoC4/LCD_PM.c **** *******************************************************************************/
 107:Generated_Source\PSoC4/LCD_PM.c **** void LCD_Wakeup(void) 
 108:Generated_Source\PSoC4/LCD_PM.c **** {
 113              		.loc 1 108 0
 114              		.cfi_startproc
 115 0000 80B5     		push	{r7, lr}
 116              		.cfi_def_cfa_offset 8
 117              		.cfi_offset 7, -8
 118              		.cfi_offset 14, -4
 119 0002 00AF     		add	r7, sp, #0
 120              		.cfi_def_cfa_register 7
ARM GAS  C:\Users\Petro\AppData\Local\Temp\ccDwZwQ1.s 			page 5


 109:Generated_Source\PSoC4/LCD_PM.c ****     LCD_RestoreConfig();
 121              		.loc 1 109 0
 122 0004 FFF7FEFF 		bl	LCD_RestoreConfig
 110:Generated_Source\PSoC4/LCD_PM.c **** 
 111:Generated_Source\PSoC4/LCD_PM.c ****     if(LCD_backup.enableState == 1u)
 123              		.loc 1 111 0
 124 0008 034B     		ldr	r3, .L8
 125 000a 1B78     		ldrb	r3, [r3]
 126 000c 012B     		cmp	r3, #1
 127 000e 01D1     		bne	.L6
 112:Generated_Source\PSoC4/LCD_PM.c ****     {
 113:Generated_Source\PSoC4/LCD_PM.c ****         LCD_Enable();
 128              		.loc 1 113 0
 129 0010 FFF7FEFF 		bl	LCD_Enable
 130              	.L6:
 114:Generated_Source\PSoC4/LCD_PM.c ****     }
 115:Generated_Source\PSoC4/LCD_PM.c **** }
 131              		.loc 1 115 0
 132 0014 BD46     		mov	sp, r7
 133              		@ sp needed
 134 0016 80BD     		pop	{r7, pc}
 135              	.L9:
 136              		.align	2
 137              	.L8:
 138 0018 00000000 		.word	LCD_backup
 139              		.cfi_endproc
 140              	.LFE3:
 141              		.size	LCD_Wakeup, .-LCD_Wakeup
 142              		.text
 143              	.Letext0:
 144              		.file 2 "Generated_Source\\PSoC4\\cytypes.h"
 145              		.file 3 "Generated_Source\\PSoC4\\LCD.h"