ARM GAS  C:\Users\Petro\AppData\Local\Temp\ccKvTgPp.s 			page 1


   1              		.cpu cortex-m0
   2              		.fpu softvfp
   3              		.eabi_attribute 20, 1
   4              		.eabi_attribute 21, 1
   5              		.eabi_attribute 23, 3
   6              		.eabi_attribute 24, 1
   7              		.eabi_attribute 25, 1
   8              		.eabi_attribute 26, 1
   9              		.eabi_attribute 30, 6
  10              		.eabi_attribute 34, 0
  11              		.eabi_attribute 18, 4
  12              		.code	16
  13              		.file	"myDelay.c"
  14              		.text
  15              	.Ltext0:
  16              		.cfi_sections	.debug_frame
  17              		.bss
  18              		.align	1
  19              	writeFlag:
  20 0000 0000     		.space	2
  21              		.global	__aeabi_ui2d
  22              		.global	__aeabi_ddiv
  23              		.global	__aeabi_d2uiz
  24              		.section	.text.MyDelay,"ax",%progbits
  25              		.align	2
  26              		.global	MyDelay
  27              		.code	16
  28              		.thumb_func
  29              		.type	MyDelay, %function
  30              	MyDelay:
  31              	.LFB2:
  32              		.file 1 "lib_MyDelay\\myDelay.c"
   1:lib_MyDelay/myDelay.c **** #include "lib_MyDelay\myDelay.h"
   2:lib_MyDelay/myDelay.c **** #include <AppDelay.h>
   3:lib_MyDelay/myDelay.c **** 
   4:lib_MyDelay/myDelay.c **** #include "lib_Network\network.h"
   5:lib_MyDelay/myDelay.c **** #include "lib_Display\display.h"
   6:lib_MyDelay/myDelay.c **** 
   7:lib_MyDelay/myDelay.c **** #define MIN_DELAY_MS    150
   8:lib_MyDelay/myDelay.c **** #define WRITE_ERROR     1
   9:lib_MyDelay/myDelay.c **** #define WRITE_NO_ERROR  0
  10:lib_MyDelay/myDelay.c **** 
  11:lib_MyDelay/myDelay.c **** static uint16_t writeFlag;
  12:lib_MyDelay/myDelay.c **** 
  13:lib_MyDelay/myDelay.c **** /*user func*/
  14:lib_MyDelay/myDelay.c **** static void UserFunc_1(void);
  15:lib_MyDelay/myDelay.c **** static void UserFunc_2(void);
  16:lib_MyDelay/myDelay.c **** static void UserFunc_3(void);
  17:lib_MyDelay/myDelay.c **** 
  18:lib_MyDelay/myDelay.c **** 
  19:lib_MyDelay/myDelay.c **** 
  20:lib_MyDelay/myDelay.c **** /*******************************************************************************
  21:lib_MyDelay/myDelay.c **** * Function Name: MyDelay
  22:lib_MyDelay/myDelay.c **** ********************************************************************************
  23:lib_MyDelay/myDelay.c **** *
  24:lib_MyDelay/myDelay.c **** * Summary:
  25:lib_MyDelay/myDelay.c **** *   delay feature where users performed free time
ARM GAS  C:\Users\Petro\AppData\Local\Temp\ccKvTgPp.s 			page 2


  26:lib_MyDelay/myDelay.c **** *
  27:lib_MyDelay/myDelay.c **** * Parameters:
  28:lib_MyDelay/myDelay.c **** *  delayMs - delay time in miliseconds
  29:lib_MyDelay/myDelay.c **** *
  30:lib_MyDelay/myDelay.c **** *******************************************************************************/
  31:lib_MyDelay/myDelay.c **** void MyDelay(uint32_t delayMs)
  32:lib_MyDelay/myDelay.c **** {
  33              		.loc 1 32 0
  34              		.cfi_startproc
  35 0000 90B5     		push	{r4, r7, lr}
  36              		.cfi_def_cfa_offset 12
  37              		.cfi_offset 4, -12
  38              		.cfi_offset 7, -8
  39              		.cfi_offset 14, -4
  40 0002 87B0     		sub	sp, sp, #28
  41              		.cfi_def_cfa_offset 40
  42 0004 00AF     		add	r7, sp, #0
  43              		.cfi_def_cfa_register 7
  44 0006 7860     		str	r0, [r7, #4]
  33:lib_MyDelay/myDelay.c ****     
  34:lib_MyDelay/myDelay.c ****     if(delayMs < MIN_DELAY_MS)
  45              		.loc 1 34 0
  46 0008 7B68     		ldr	r3, [r7, #4]
  47 000a 952B     		cmp	r3, #149
  48 000c 04D8     		bhi	.L2
  35:lib_MyDelay/myDelay.c ****     {
  36:lib_MyDelay/myDelay.c ****         CyDelay(delayMs);
  49              		.loc 1 36 0
  50 000e 7B68     		ldr	r3, [r7, #4]
  51 0010 181C     		mov	r0, r3
  52 0012 FFF7FEFF 		bl	CyDelay
  53 0016 44E0     		b	.L1
  54              	.L2:
  55              	.LBB2:
  37:lib_MyDelay/myDelay.c ****     }else
  38:lib_MyDelay/myDelay.c ****     {
  39:lib_MyDelay/myDelay.c ****         uint32_t runTime;
  40:lib_MyDelay/myDelay.c ****         uint32_t counter ;
  41:lib_MyDelay/myDelay.c ****         uint32_t period;
  42:lib_MyDelay/myDelay.c ****         
  43:lib_MyDelay/myDelay.c ****         runTime = 0;
  56              		.loc 1 43 0
  57 0018 0023     		mov	r3, #0
  58 001a 7B61     		str	r3, [r7, #20]
  44:lib_MyDelay/myDelay.c ****         period = AppDelay_ReadPeriod();
  59              		.loc 1 44 0
  60 001c FFF7FEFF 		bl	AppDelay_ReadPeriod
  61 0020 031C     		mov	r3, r0
  62 0022 3B61     		str	r3, [r7, #16]
  45:lib_MyDelay/myDelay.c ****         AppDelay_WriteCounter(period);       
  63              		.loc 1 45 0
  64 0024 3B69     		ldr	r3, [r7, #16]
  65 0026 181C     		mov	r0, r3
  66 0028 FFF7FEFF 		bl	AppDelay_WriteCounter
  46:lib_MyDelay/myDelay.c ****         AppDelay_Start();
  67              		.loc 1 46 0
  68 002c FFF7FEFF 		bl	AppDelay_Start
ARM GAS  C:\Users\Petro\AppData\Local\Temp\ccKvTgPp.s 			page 3


  47:lib_MyDelay/myDelay.c ****         
  48:lib_MyDelay/myDelay.c ****         while(((delayMs - runTime) > MIN_DELAY_MS) && (runTime <= delayMs))
  69              		.loc 1 48 0
  70 0030 22E0     		b	.L4
  71              	.L6:
  49:lib_MyDelay/myDelay.c ****         {
  50:lib_MyDelay/myDelay.c ****             /*user function*/      
  51:lib_MyDelay/myDelay.c ****             UserFunc_1();
  72              		.loc 1 51 0
  73 0032 FFF7FEFF 		bl	UserFunc_1
  52:lib_MyDelay/myDelay.c ****             UserFunc_2();
  74              		.loc 1 52 0
  75 0036 FFF7FEFF 		bl	UserFunc_2
  53:lib_MyDelay/myDelay.c ****             UserFunc_3();
  76              		.loc 1 53 0
  77 003a FFF7FEFF 		bl	UserFunc_3
  54:lib_MyDelay/myDelay.c ****             /*user function*/  
  55:lib_MyDelay/myDelay.c ****             
  56:lib_MyDelay/myDelay.c ****             CyDelay(MIN_DELAY_MS);
  78              		.loc 1 56 0
  79 003e 9620     		mov	r0, #150
  80 0040 FFF7FEFF 		bl	CyDelay
  57:lib_MyDelay/myDelay.c ****                             
  58:lib_MyDelay/myDelay.c ****             counter = AppDelay_ReadCounter();
  81              		.loc 1 58 0
  82 0044 FFF7FEFF 		bl	AppDelay_ReadCounter
  83 0048 031C     		mov	r3, r0
  84 004a FB60     		str	r3, [r7, #12]
  59:lib_MyDelay/myDelay.c ****             runTime = (period -  counter)/32.768;
  85              		.loc 1 59 0
  86 004c 3A69     		ldr	r2, [r7, #16]
  87 004e FB68     		ldr	r3, [r7, #12]
  88 0050 D31A     		sub	r3, r2, r3
  89 0052 181C     		mov	r0, r3
  90 0054 FFF7FEFF 		bl	__aeabi_ui2d
  91 0058 031C     		mov	r3, r0
  92 005a 0C1C     		mov	r4, r1
  93 005c 181C     		mov	r0, r3
  94 005e 211C     		mov	r1, r4
  95 0060 114A     		ldr	r2, .L7
  96 0062 124B     		ldr	r3, .L7+4
  97 0064 FFF7FEFF 		bl	__aeabi_ddiv
  98 0068 031C     		mov	r3, r0
  99 006a 0C1C     		mov	r4, r1
 100 006c 181C     		mov	r0, r3
 101 006e 211C     		mov	r1, r4
 102 0070 FFF7FEFF 		bl	__aeabi_d2uiz
 103 0074 031C     		mov	r3, r0
 104 0076 7B61     		str	r3, [r7, #20]
 105              	.L4:
  48:lib_MyDelay/myDelay.c ****         {
 106              		.loc 1 48 0
 107 0078 7A68     		ldr	r2, [r7, #4]
 108 007a 7B69     		ldr	r3, [r7, #20]
 109 007c D31A     		sub	r3, r2, r3
 110 007e 962B     		cmp	r3, #150
 111 0080 03D9     		bls	.L5
ARM GAS  C:\Users\Petro\AppData\Local\Temp\ccKvTgPp.s 			page 4


  48:lib_MyDelay/myDelay.c ****         {
 112              		.loc 1 48 0 is_stmt 0 discriminator 1
 113 0082 7A69     		ldr	r2, [r7, #20]
 114 0084 7B68     		ldr	r3, [r7, #4]
 115 0086 9A42     		cmp	r2, r3
 116 0088 D3D9     		bls	.L6
 117              	.L5:
  60:lib_MyDelay/myDelay.c ****         }
  61:lib_MyDelay/myDelay.c ****         AppDelay_Stop();
 118              		.loc 1 61 0 is_stmt 1
 119 008a FFF7FEFF 		bl	AppDelay_Stop
  62:lib_MyDelay/myDelay.c ****         
  63:lib_MyDelay/myDelay.c ****         #ifdef DEBUG_PC
  64:lib_MyDelay/myDelay.c ****         char buffer[100];
  65:lib_MyDelay/myDelay.c ****         sprintf(buffer,"time send data %u\n\r", (runTime));
  66:lib_MyDelay/myDelay.c ****         SW_UART_DEBUG_PutString(buffer);
  67:lib_MyDelay/myDelay.c ****         #endif
  68:lib_MyDelay/myDelay.c ****         
  69:lib_MyDelay/myDelay.c ****         if (delayMs > runTime)
 120              		.loc 1 69 0
 121 008e 7A68     		ldr	r2, [r7, #4]
 122 0090 7B69     		ldr	r3, [r7, #20]
 123 0092 9A42     		cmp	r2, r3
 124 0094 05D9     		bls	.L1
  70:lib_MyDelay/myDelay.c ****         {
  71:lib_MyDelay/myDelay.c ****             CyDelay(delayMs - runTime);
 125              		.loc 1 71 0
 126 0096 7A68     		ldr	r2, [r7, #4]
 127 0098 7B69     		ldr	r3, [r7, #20]
 128 009a D31A     		sub	r3, r2, r3
 129 009c 181C     		mov	r0, r3
 130 009e FFF7FEFF 		bl	CyDelay
 131              	.L1:
 132              	.LBE2:
  72:lib_MyDelay/myDelay.c ****         }
  73:lib_MyDelay/myDelay.c ****     }
  74:lib_MyDelay/myDelay.c **** }
 133              		.loc 1 74 0
 134 00a2 BD46     		mov	sp, r7
 135 00a4 07B0     		add	sp, sp, #28
 136              		@ sp needed
 137 00a6 90BD     		pop	{r4, r7, pc}
 138              	.L8:
 139              		.align	2
 140              	.L7:
 141 00a8 FCA9F1D2 		.word	-755914244
 142 00ac 4D624040 		.word	1077961293
 143              		.cfi_endproc
 144              	.LFE2:
 145              		.size	MyDelay, .-MyDelay
 146              		.section	.text.UserFunc_1,"ax",%progbits
 147              		.align	2
 148              		.code	16
 149              		.thumb_func
 150              		.type	UserFunc_1, %function
 151              	UserFunc_1:
 152              	.LFB3:
ARM GAS  C:\Users\Petro\AppData\Local\Temp\ccKvTgPp.s 			page 5


  75:lib_MyDelay/myDelay.c **** 
  76:lib_MyDelay/myDelay.c **** 
  77:lib_MyDelay/myDelay.c **** static void UserFunc_1(void)
  78:lib_MyDelay/myDelay.c **** {
 153              		.loc 1 78 0
 154              		.cfi_startproc
 155 0000 80B5     		push	{r7, lr}
 156              		.cfi_def_cfa_offset 8
 157              		.cfi_offset 7, -8
 158              		.cfi_offset 14, -4
 159 0002 00AF     		add	r7, sp, #0
 160              		.cfi_def_cfa_register 7
  79:lib_MyDelay/myDelay.c ****     /*network*/
  80:lib_MyDelay/myDelay.c ****         
  81:lib_MyDelay/myDelay.c ****     ReceiveData();
 161              		.loc 1 81 0
 162 0004 FFF7FEFF 		bl	ReceiveData
  82:lib_MyDelay/myDelay.c ****     SendData(); 
 163              		.loc 1 82 0
 164 0008 FFF7FEFF 		bl	SendData
  83:lib_MyDelay/myDelay.c ****     
  84:lib_MyDelay/myDelay.c ****     #ifdef DEBUG_PC
  85:lib_MyDelay/myDelay.c ****     //inData.readStatus = READ_OK;
  86:lib_MyDelay/myDelay.c ****     #endif
  87:lib_MyDelay/myDelay.c ****  
  88:lib_MyDelay/myDelay.c **** }
 165              		.loc 1 88 0
 166 000c BD46     		mov	sp, r7
 167              		@ sp needed
 168 000e 80BD     		pop	{r7, pc}
 169              		.cfi_endproc
 170              	.LFE3:
 171              		.size	UserFunc_1, .-UserFunc_1
 172              		.section	.text.UserFunc_2,"ax",%progbits
 173              		.align	2
 174              		.code	16
 175              		.thumb_func
 176              		.type	UserFunc_2, %function
 177              	UserFunc_2:
 178              	.LFB4:
  89:lib_MyDelay/myDelay.c **** 
  90:lib_MyDelay/myDelay.c **** 
  91:lib_MyDelay/myDelay.c **** static void UserFunc_2(void)
  92:lib_MyDelay/myDelay.c **** {
 179              		.loc 1 92 0
 180              		.cfi_startproc
 181 0000 80B5     		push	{r7, lr}
 182              		.cfi_def_cfa_offset 8
 183              		.cfi_offset 7, -8
 184              		.cfi_offset 14, -4
 185 0002 00AF     		add	r7, sp, #0
 186              		.cfi_def_cfa_register 7
  93:lib_MyDelay/myDelay.c ****     DisplayRealTime();
 187              		.loc 1 93 0
 188 0004 FFF7FEFF 		bl	DisplayRealTime
  94:lib_MyDelay/myDelay.c **** }
 189              		.loc 1 94 0
ARM GAS  C:\Users\Petro\AppData\Local\Temp\ccKvTgPp.s 			page 6


 190 0008 BD46     		mov	sp, r7
 191              		@ sp needed
 192 000a 80BD     		pop	{r7, pc}
 193              		.cfi_endproc
 194              	.LFE4:
 195              		.size	UserFunc_2, .-UserFunc_2
 196              		.section	.text.UserFunc_3,"ax",%progbits
 197              		.align	2
 198              		.code	16
 199              		.thumb_func
 200              		.type	UserFunc_3, %function
 201              	UserFunc_3:
 202              	.LFB5:
  95:lib_MyDelay/myDelay.c **** 
  96:lib_MyDelay/myDelay.c **** static void UserFunc_3(void)
  97:lib_MyDelay/myDelay.c **** {
 203              		.loc 1 97 0
 204              		.cfi_startproc
 205 0000 80B5     		push	{r7, lr}
 206              		.cfi_def_cfa_offset 8
 207              		.cfi_offset 7, -8
 208              		.cfi_offset 14, -4
 209 0002 00AF     		add	r7, sp, #0
 210              		.cfi_def_cfa_register 7
  98:lib_MyDelay/myDelay.c ****     /*indicator network*/
  99:lib_MyDelay/myDelay.c ****     if(NetworkStatus() == NETWORK_CONN)
 211              		.loc 1 99 0
 212 0004 FFF7FEFF 		bl	NetworkStatus
 213 0008 031E     		sub	r3, r0, #0
 214 000a 012B     		cmp	r3, #1
 215 000c 03D1     		bne	.L12
 100:lib_MyDelay/myDelay.c ****     {
 101:lib_MyDelay/myDelay.c ****         DisplayIndicatorNetwork(CONNECT);
 216              		.loc 1 101 0
 217 000e 0020     		mov	r0, #0
 218 0010 FFF7FEFF 		bl	DisplayIndicatorNetwork
 219 0014 02E0     		b	.L11
 220              	.L12:
 102:lib_MyDelay/myDelay.c ****     }
 103:lib_MyDelay/myDelay.c ****     else
 104:lib_MyDelay/myDelay.c ****     {
 105:lib_MyDelay/myDelay.c ****         DisplayIndicatorNetwork(DISCONNECT);
 221              		.loc 1 105 0
 222 0016 0120     		mov	r0, #1
 223 0018 FFF7FEFF 		bl	DisplayIndicatorNetwork
 224              	.L11:
 106:lib_MyDelay/myDelay.c ****     }      
 107:lib_MyDelay/myDelay.c **** }...
 225              		.loc 1 107 0
 226 001c BD46     		mov	sp, r7
 227              		@ sp needed
 228 001e 80BD     		pop	{r7, pc}
 229              		.cfi_endproc
 230              	.LFE5:
 231              		.size	UserFunc_3, .-UserFunc_3
 232              		.text
 233              	.Letext0:
ARM GAS  C:\Users\Petro\AppData\Local\Temp\ccKvTgPp.s 			page 7


 234              		.file 2 "c:\\program files (x86)\\cypress\\psoc creator\\4.0\\psoc creator\\import\\gnu\\arm\\4.9.
 235              		.file 3 "c:\\program files (x86)\\cypress\\psoc creator\\4.0\\psoc creator\\import\\gnu\\arm\\4.9.
 236              		.file 4 "./lib_Display\\display.h"