ARM GAS  C:\Users\Petro\AppData\Local\Temp\cclwd5AX.s 			page 1


   1              		.cpu cortex-m0
   2              		.fpu softvfp
   3              		.eabi_attribute 20, 1
   4              		.eabi_attribute 21, 1
   5              		.eabi_attribute 23, 3
   6              		.eabi_attribute 24, 1
   7              		.eabi_attribute 25, 1
   8              		.eabi_attribute 26, 1
   9              		.eabi_attribute 30, 1
  10              		.eabi_attribute 34, 0
  11              		.eabi_attribute 18, 4
  12              		.code	16
  13              		.file	"BLE_eventHandler.c"
  14              		.text
  15              	.Ltext0:
  16              		.cfi_sections	.debug_frame
  17              		.section	.text.CyBle_IsDeviceAddressValid,"ax",%progbits
  18              		.align	2
  19              		.code	16
  20              		.thumb_func
  21              		.type	CyBle_IsDeviceAddressValid, %function
  22              	CyBle_IsDeviceAddressValid:
  23              	.LFB7:
  24              		.file 1 ".\\Generated_Source\\PSoC4\\BLE_eventHandler.c"
   1:.\Generated_Source\PSoC4/BLE_eventHandler.c **** /***************************************************************************//**
   2:.\Generated_Source\PSoC4/BLE_eventHandler.c **** * \file CYBLE_eventHandler.c
   3:.\Generated_Source\PSoC4/BLE_eventHandler.c **** * \version 2.30
   4:.\Generated_Source\PSoC4/BLE_eventHandler.c **** * 
   5:.\Generated_Source\PSoC4/BLE_eventHandler.c **** * \brief
   6:.\Generated_Source\PSoC4/BLE_eventHandler.c **** *  This file contains the source code for the Event Handler State Machine
   7:.\Generated_Source\PSoC4/BLE_eventHandler.c **** *  of the BLE Component.
   8:.\Generated_Source\PSoC4/BLE_eventHandler.c **** * 
   9:.\Generated_Source\PSoC4/BLE_eventHandler.c **** ********************************************************************************
  10:.\Generated_Source\PSoC4/BLE_eventHandler.c **** * \copyright
  11:.\Generated_Source\PSoC4/BLE_eventHandler.c **** * Copyright 2014-2015, Cypress Semiconductor Corporation.  All rights reserved.
  12:.\Generated_Source\PSoC4/BLE_eventHandler.c **** * You may use this file only in accordance with the license, terms, conditions,
  13:.\Generated_Source\PSoC4/BLE_eventHandler.c **** * disclaimers, and limitations in the end user license agreement accompanying
  14:.\Generated_Source\PSoC4/BLE_eventHandler.c **** * the software package with which this file was provided.
  15:.\Generated_Source\PSoC4/BLE_eventHandler.c **** *******************************************************************************/
  16:.\Generated_Source\PSoC4/BLE_eventHandler.c **** 
  17:.\Generated_Source\PSoC4/BLE_eventHandler.c **** #include "BLE_eventHandler.h"
  18:.\Generated_Source\PSoC4/BLE_eventHandler.c **** 
  19:.\Generated_Source\PSoC4/BLE_eventHandler.c **** 
  20:.\Generated_Source\PSoC4/BLE_eventHandler.c **** /***************************************
  21:.\Generated_Source\PSoC4/BLE_eventHandler.c **** * Private Function Prototypes
  22:.\Generated_Source\PSoC4/BLE_eventHandler.c **** ***************************************/
  23:.\Generated_Source\PSoC4/BLE_eventHandler.c **** 
  24:.\Generated_Source\PSoC4/BLE_eventHandler.c **** #if (CYBLE_GATT_ROLE_SERVER || CYBLE_GATT_ROLE_CLIENT)
  25:.\Generated_Source\PSoC4/BLE_eventHandler.c **** 
  26:.\Generated_Source\PSoC4/BLE_eventHandler.c **** static uint8 CyBle_IsDeviceAddressValid(const CYBLE_GAP_BD_ADDR_T *sflashDeviceAddress);
  27:.\Generated_Source\PSoC4/BLE_eventHandler.c **** 
  28:.\Generated_Source\PSoC4/BLE_eventHandler.c **** #endif /* CYBLE_GATT_ROLE_SERVER || CYBLE_GATT_ROLE_CLIENT */
  29:.\Generated_Source\PSoC4/BLE_eventHandler.c **** 
  30:.\Generated_Source\PSoC4/BLE_eventHandler.c **** static void CyBle_GattDisconnectEventHandler(void);
  31:.\Generated_Source\PSoC4/BLE_eventHandler.c **** static void CyBle_TimeOutEventHandler(const CYBLE_TO_REASON_CODE_T *eventParam);
  32:.\Generated_Source\PSoC4/BLE_eventHandler.c **** static void CyBle_GattConnectReqHandler(void);
  33:.\Generated_Source\PSoC4/BLE_eventHandler.c **** static void CyBle_L2Cap_ConnParamUpdateRspEventHandler(uint16 response);
ARM GAS  C:\Users\Petro\AppData\Local\Temp\cclwd5AX.s 			page 2


  34:.\Generated_Source\PSoC4/BLE_eventHandler.c **** static void CyBle_GapConnUpdateCompleteEventHandler(const CYBLE_GAP_CONN_PARAM_UPDATED_IN_CONTROLLE
  35:.\Generated_Source\PSoC4/BLE_eventHandler.c **** 
  36:.\Generated_Source\PSoC4/BLE_eventHandler.c **** 
  37:.\Generated_Source\PSoC4/BLE_eventHandler.c **** #if (CYBLE_GATT_ROLE_SERVER)
  38:.\Generated_Source\PSoC4/BLE_eventHandler.c **** 
  39:.\Generated_Source\PSoC4/BLE_eventHandler.c **** static void CyBle_WriteReqHandler(CYBLE_GATTS_WRITE_REQ_PARAM_T *eventParam);
  40:.\Generated_Source\PSoC4/BLE_eventHandler.c **** static void CyBle_ValueConfirmation(const CYBLE_CONN_HANDLE_T *eventParam);
  41:.\Generated_Source\PSoC4/BLE_eventHandler.c **** 
  42:.\Generated_Source\PSoC4/BLE_eventHandler.c **** #endif /* CYBLE_GATT_ROLE_SERVER */
  43:.\Generated_Source\PSoC4/BLE_eventHandler.c **** 
  44:.\Generated_Source\PSoC4/BLE_eventHandler.c **** #if (CYBLE_GATT_ROLE_CLIENT)
  45:.\Generated_Source\PSoC4/BLE_eventHandler.c **** 
  46:.\Generated_Source\PSoC4/BLE_eventHandler.c **** static void CyBle_GapcDiscoverCharacteristicsEventHandler(CYBLE_DISC_CHAR_INFO_T *discCharInfo);
  47:.\Generated_Source\PSoC4/BLE_eventHandler.c **** static CYBLE_GATT_ATTR_HANDLE_RANGE_T CyBle_GetCharRange(void);
  48:.\Generated_Source\PSoC4/BLE_eventHandler.c **** static void CyBle_GattcWriteResponseEventHandler(const CYBLE_CONN_HANDLE_T *eventParam);
  49:.\Generated_Source\PSoC4/BLE_eventHandler.c **** static void CyBle_NotificationEventHandler(CYBLE_GATTC_HANDLE_VALUE_NTF_PARAM_T *eventParam);
  50:.\Generated_Source\PSoC4/BLE_eventHandler.c **** static void CyBle_IndicationEventHandler(CYBLE_GATTC_HANDLE_VALUE_IND_PARAM_T *eventParam);
  51:.\Generated_Source\PSoC4/BLE_eventHandler.c **** static void CyBle_ReadResponseEventHandler(CYBLE_GATTC_READ_RSP_PARAM_T *eventParam);
  52:.\Generated_Source\PSoC4/BLE_eventHandler.c **** 
  53:.\Generated_Source\PSoC4/BLE_eventHandler.c **** #endif /* CYBLE_GATT_ROLE_CLIENT */
  54:.\Generated_Source\PSoC4/BLE_eventHandler.c **** 
  55:.\Generated_Source\PSoC4/BLE_eventHandler.c **** 
  56:.\Generated_Source\PSoC4/BLE_eventHandler.c **** /***************************************
  57:.\Generated_Source\PSoC4/BLE_eventHandler.c **** * Global Variables
  58:.\Generated_Source\PSoC4/BLE_eventHandler.c **** ***************************************/
  59:.\Generated_Source\PSoC4/BLE_eventHandler.c **** 
  60:.\Generated_Source\PSoC4/BLE_eventHandler.c **** /* This global variable is initialized after connection with peer device, 
  61:.\Generated_Source\PSoC4/BLE_eventHandler.c ****    after CYBLE_EVT_GATT_CONNECT_IND event, and could be used by application code
  62:.\Generated_Source\PSoC4/BLE_eventHandler.c ****    to send data to peer device. 
  63:.\Generated_Source\PSoC4/BLE_eventHandler.c **** */
  64:.\Generated_Source\PSoC4/BLE_eventHandler.c **** CYBLE_CONN_HANDLE_T cyBle_connHandle;
  65:.\Generated_Source\PSoC4/BLE_eventHandler.c **** 
  66:.\Generated_Source\PSoC4/BLE_eventHandler.c **** volatile uint8 cyBle_eventHandlerFlag;
  67:.\Generated_Source\PSoC4/BLE_eventHandler.c **** volatile uint8 cyBle_busyStatus;
  68:.\Generated_Source\PSoC4/BLE_eventHandler.c **** 
  69:.\Generated_Source\PSoC4/BLE_eventHandler.c **** #if(CYBLE_GAP_ROLE_PERIPHERAL || CYBLE_GAP_ROLE_BROADCASTER) 
  70:.\Generated_Source\PSoC4/BLE_eventHandler.c ****     uint8 cyBle_advertisingIntervalType;
  71:.\Generated_Source\PSoC4/BLE_eventHandler.c **** #endif /* CYBLE_GAP_ROLE_PERIPHERAL || CYBLE_GAP_ROLE_BROADCASTER) */
  72:.\Generated_Source\PSoC4/BLE_eventHandler.c **** 
  73:.\Generated_Source\PSoC4/BLE_eventHandler.c **** #if(CYBLE_GAP_ROLE_CENTRAL || CYBLE_GAP_ROLE_OBSERVER) 
  74:.\Generated_Source\PSoC4/BLE_eventHandler.c ****     uint8 cyBle_scanningIntervalType;
  75:.\Generated_Source\PSoC4/BLE_eventHandler.c **** #endif /* CYBLE_GAP_ROLE_CENTRAL || CYBLE_GAP_ROLE_OBSERVER */
  76:.\Generated_Source\PSoC4/BLE_eventHandler.c **** 
  77:.\Generated_Source\PSoC4/BLE_eventHandler.c **** #if(CYBLE_GATT_ROLE_SERVER)
  78:.\Generated_Source\PSoC4/BLE_eventHandler.c **** #if defined CYBLE_CTS_SERVER || defined CYBLE_ESS_SERVER
  79:.\Generated_Source\PSoC4/BLE_eventHandler.c **** CYBLE_GATT_ERR_CODE_T cyBle_gattError;
  80:.\Generated_Source\PSoC4/BLE_eventHandler.c **** #endif /* defined CYBLE_CTS_SERVER || defined CYBLE_ESS_SERVER */
  81:.\Generated_Source\PSoC4/BLE_eventHandler.c **** #endif /* CYBLE_GATT_ROLE_SERVER */
  82:.\Generated_Source\PSoC4/BLE_eventHandler.c **** 
  83:.\Generated_Source\PSoC4/BLE_eventHandler.c **** #if(CYBLE_GATT_ROLE_CLIENT)
  84:.\Generated_Source\PSoC4/BLE_eventHandler.c **** uint8 cyBle_disCount; /* Counter for discovery procedures */
  85:.\Generated_Source\PSoC4/BLE_eventHandler.c **** static CYBLE_GATT_DB_ATTR_HANDLE_T cyBle_charEndHandle;
  86:.\Generated_Source\PSoC4/BLE_eventHandler.c **** /* Discovery included service information, used for 128-bit UUID read response handle 
  87:.\Generated_Source\PSoC4/BLE_eventHandler.c ****    and for continue discovery. 
  88:.\Generated_Source\PSoC4/BLE_eventHandler.c **** */
  89:.\Generated_Source\PSoC4/BLE_eventHandler.c **** static CYBLE_DISC_INCL_INFO_T cyBle_discInclInfo;
  90:.\Generated_Source\PSoC4/BLE_eventHandler.c **** #ifdef CYBLE_HIDS_CLIENT
ARM GAS  C:\Users\Petro\AppData\Local\Temp\cclwd5AX.s 			page 3


  91:.\Generated_Source\PSoC4/BLE_eventHandler.c ****     static uint8 disServiceIndex;      /* To discovery descriptors for multiple HID service instanc
  92:.\Generated_Source\PSoC4/BLE_eventHandler.c **** #endif /* CYBLE_HIDS_CLIENT */
  93:.\Generated_Source\PSoC4/BLE_eventHandler.c **** 
  94:.\Generated_Source\PSoC4/BLE_eventHandler.c **** CYBLE_DISC_SRVC_INFO_T cyBle_serverInfo[CYBLE_SRVI_COUNT] = /*3*/
  95:.\Generated_Source\PSoC4/BLE_eventHandler.c **** {
  96:.\Generated_Source\PSoC4/BLE_eventHandler.c ****     {{CYBLE_GATT_INVALID_ATTR_HANDLE_VALUE, CYBLE_GATT_INVALID_ATTR_HANDLE_VALUE}, CYBLE_UUID_GAP_S
  97:.\Generated_Source\PSoC4/BLE_eventHandler.c ****     {{CYBLE_GATT_INVALID_ATTR_HANDLE_VALUE, CYBLE_GATT_INVALID_ATTR_HANDLE_VALUE}, CYBLE_UUID_GATT_
  98:.\Generated_Source\PSoC4/BLE_eventHandler.c **** #ifdef CYBLE_ANCS_CLIENT
  99:.\Generated_Source\PSoC4/BLE_eventHandler.c ****     {{CYBLE_GATT_INVALID_ATTR_HANDLE_VALUE, CYBLE_GATT_INVALID_ATTR_HANDLE_VALUE}, 0x0000u},
 100:.\Generated_Source\PSoC4/BLE_eventHandler.c **** #endif /* CYBLE_ANCS_CLIENT */
 101:.\Generated_Source\PSoC4/BLE_eventHandler.c **** #ifdef CYBLE_ANS_CLIENT
 102:.\Generated_Source\PSoC4/BLE_eventHandler.c ****     {{CYBLE_GATT_INVALID_ATTR_HANDLE_VALUE, CYBLE_GATT_INVALID_ATTR_HANDLE_VALUE}, 
 103:.\Generated_Source\PSoC4/BLE_eventHandler.c ****         CYBLE_UUID_ALERT_NOTIFICATION_SERVICE},
 104:.\Generated_Source\PSoC4/BLE_eventHandler.c **** #endif /* CYBLE_ANS_CLIENT */
 105:.\Generated_Source\PSoC4/BLE_eventHandler.c **** #ifdef CYBLE_BAS_CLIENT
 106:.\Generated_Source\PSoC4/BLE_eventHandler.c ****     {{CYBLE_GATT_INVALID_ATTR_HANDLE_VALUE, CYBLE_GATT_INVALID_ATTR_HANDLE_VALUE}, CYBLE_UUID_BAS_S
 107:.\Generated_Source\PSoC4/BLE_eventHandler.c ****     #if(CYBLE_BASC_SERVICE_COUNT > 1u) /* Generate it by GUI */
 108:.\Generated_Source\PSoC4/BLE_eventHandler.c ****         
 109:.\Generated_Source\PSoC4/BLE_eventHandler.c ****     #endif /* CYBLE_BASC_SERVICE_COUNT > 1u */
 110:.\Generated_Source\PSoC4/BLE_eventHandler.c **** #endif /* CYBLE_BAS_CLIENT */
 111:.\Generated_Source\PSoC4/BLE_eventHandler.c **** #ifdef CYBLE_BCS_CLIENT
 112:.\Generated_Source\PSoC4/BLE_eventHandler.c ****     {{CYBLE_GATT_INVALID_ATTR_HANDLE_VALUE, CYBLE_GATT_INVALID_ATTR_HANDLE_VALUE}, CYBLE_UUID_BODY_
 113:.\Generated_Source\PSoC4/BLE_eventHandler.c **** #endif /* CYBLE_BCS_CLIENT */
 114:.\Generated_Source\PSoC4/BLE_eventHandler.c **** #ifdef CYBLE_BLS_CLIENT
 115:.\Generated_Source\PSoC4/BLE_eventHandler.c ****     {{CYBLE_GATT_INVALID_ATTR_HANDLE_VALUE, CYBLE_GATT_INVALID_ATTR_HANDLE_VALUE}, CYBLE_UUID_BLOOD
 116:.\Generated_Source\PSoC4/BLE_eventHandler.c **** #endif /* CYBLE_BLS_CLIENT */
 117:.\Generated_Source\PSoC4/BLE_eventHandler.c **** #ifdef CYBLE_BMS_CLIENT
 118:.\Generated_Source\PSoC4/BLE_eventHandler.c ****     {{CYBLE_GATT_INVALID_ATTR_HANDLE_VALUE, CYBLE_GATT_INVALID_ATTR_HANDLE_VALUE}, CYBLE_UUID_BOND_
 119:.\Generated_Source\PSoC4/BLE_eventHandler.c **** #endif /* CYBLE_BMS_CLIENT */
 120:.\Generated_Source\PSoC4/BLE_eventHandler.c **** #ifdef CYBLE_CGMS_CLIENT
 121:.\Generated_Source\PSoC4/BLE_eventHandler.c ****     {{CYBLE_GATT_INVALID_ATTR_HANDLE_VALUE, CYBLE_GATT_INVALID_ATTR_HANDLE_VALUE}, CYBLE_UUID_CGM_S
 122:.\Generated_Source\PSoC4/BLE_eventHandler.c **** #endif /* CYBLE_CGMS_CLIENT */
 123:.\Generated_Source\PSoC4/BLE_eventHandler.c **** #ifdef CYBLE_CPS_CLIENT
 124:.\Generated_Source\PSoC4/BLE_eventHandler.c ****     {{CYBLE_GATT_INVALID_ATTR_HANDLE_VALUE, CYBLE_GATT_INVALID_ATTR_HANDLE_VALUE}, CYBLE_UUID_CPS_S
 125:.\Generated_Source\PSoC4/BLE_eventHandler.c **** #endif /* CYBLE_CPS_CLIENT */
 126:.\Generated_Source\PSoC4/BLE_eventHandler.c **** #ifdef CYBLE_CSCS_CLIENT
 127:.\Generated_Source\PSoC4/BLE_eventHandler.c ****     {{CYBLE_GATT_INVALID_ATTR_HANDLE_VALUE, CYBLE_GATT_INVALID_ATTR_HANDLE_VALUE}, 
 128:.\Generated_Source\PSoC4/BLE_eventHandler.c ****         CYBLE_UUID_CYCLING_SPEED_AND_CADENCE_SERVICE},
 129:.\Generated_Source\PSoC4/BLE_eventHandler.c **** #endif /* CYBLE_CSCS_CLIENT */
 130:.\Generated_Source\PSoC4/BLE_eventHandler.c **** #ifdef CYBLE_CTS_CLIENT
 131:.\Generated_Source\PSoC4/BLE_eventHandler.c ****     {{CYBLE_GATT_INVALID_ATTR_HANDLE_VALUE, CYBLE_GATT_INVALID_ATTR_HANDLE_VALUE}, CYBLE_UUID_CURRE
 132:.\Generated_Source\PSoC4/BLE_eventHandler.c **** #endif /* CYBLE_CTS_CLIENT */
 133:.\Generated_Source\PSoC4/BLE_eventHandler.c **** #ifdef CYBLE_CUSTOM_CLIENT
 134:.\Generated_Source\PSoC4/BLE_eventHandler.c ****     
 135:.\Generated_Source\PSoC4/BLE_eventHandler.c **** #endif /* CYBLE_CUSTOM_CLIENT */
 136:.\Generated_Source\PSoC4/BLE_eventHandler.c **** #ifdef CYBLE_DIS_CLIENT
 137:.\Generated_Source\PSoC4/BLE_eventHandler.c ****     {{CYBLE_GATT_INVALID_ATTR_HANDLE_VALUE, CYBLE_GATT_INVALID_ATTR_HANDLE_VALUE}, CYBLE_UUID_DEVIC
 138:.\Generated_Source\PSoC4/BLE_eventHandler.c **** #endif /* CYBLE_DIS_CLIENT */
 139:.\Generated_Source\PSoC4/BLE_eventHandler.c **** #ifdef CYBLE_ESS_CLIENT
 140:.\Generated_Source\PSoC4/BLE_eventHandler.c ****     {{CYBLE_GATT_INVALID_ATTR_HANDLE_VALUE, CYBLE_GATT_INVALID_ATTR_HANDLE_VALUE}, 
 141:.\Generated_Source\PSoC4/BLE_eventHandler.c ****         CYBLE_UUID_ENVIRONMENTAL_SENSING_SERVICE},
 142:.\Generated_Source\PSoC4/BLE_eventHandler.c **** #endif /* CYBLE_ESS_CLIENT */
 143:.\Generated_Source\PSoC4/BLE_eventHandler.c **** #ifdef CYBLE_GLS_CLIENT
 144:.\Generated_Source\PSoC4/BLE_eventHandler.c ****     {{CYBLE_GATT_INVALID_ATTR_HANDLE_VALUE, CYBLE_GATT_INVALID_ATTR_HANDLE_VALUE}, CYBLE_UUID_GLUCO
 145:.\Generated_Source\PSoC4/BLE_eventHandler.c **** #endif /* CYBLE_GLS_CLIENT */
 146:.\Generated_Source\PSoC4/BLE_eventHandler.c **** #ifdef CYBLE_HIDS_CLIENT
 147:.\Generated_Source\PSoC4/BLE_eventHandler.c ****     {{CYBLE_GATT_INVALID_ATTR_HANDLE_VALUE, CYBLE_GATT_INVALID_ATTR_HANDLE_VALUE}, CYBLE_UUID_HIDS_
ARM GAS  C:\Users\Petro\AppData\Local\Temp\cclwd5AX.s 			page 4


 148:.\Generated_Source\PSoC4/BLE_eventHandler.c ****     #if(CYBLE_HIDSC_SERVICE_COUNT > 1u) /* Generate it by GUI */
 149:.\Generated_Source\PSoC4/BLE_eventHandler.c ****         
 150:.\Generated_Source\PSoC4/BLE_eventHandler.c ****     #endif /* CYBLE_HIDSC_SERVICE_COUNT > 1u */
 151:.\Generated_Source\PSoC4/BLE_eventHandler.c **** #endif /* CYBLE_HIDS_CLIENT */
 152:.\Generated_Source\PSoC4/BLE_eventHandler.c **** #ifdef CYBLE_HRS_CLIENT
 153:.\Generated_Source\PSoC4/BLE_eventHandler.c ****     {{CYBLE_GATT_INVALID_ATTR_HANDLE_VALUE, CYBLE_GATT_INVALID_ATTR_HANDLE_VALUE}, CYBLE_UUID_HEART
 154:.\Generated_Source\PSoC4/BLE_eventHandler.c **** #endif /* CYBLE_HRS_CLIENT */
 155:.\Generated_Source\PSoC4/BLE_eventHandler.c **** #ifdef CYBLE_HTS_CLIENT
 156:.\Generated_Source\PSoC4/BLE_eventHandler.c ****     {{CYBLE_GATT_INVALID_ATTR_HANDLE_VALUE, CYBLE_GATT_INVALID_ATTR_HANDLE_VALUE}, CYBLE_UUID_HEALT
 157:.\Generated_Source\PSoC4/BLE_eventHandler.c **** #endif /* CYBLE_HTS_CLIENT */
 158:.\Generated_Source\PSoC4/BLE_eventHandler.c **** #ifdef CYBLE_IAS_CLIENT
 159:.\Generated_Source\PSoC4/BLE_eventHandler.c ****     {{CYBLE_GATT_INVALID_ATTR_HANDLE_VALUE, CYBLE_GATT_INVALID_ATTR_HANDLE_VALUE}, CYBLE_UUID_IMMED
 160:.\Generated_Source\PSoC4/BLE_eventHandler.c **** #endif /* CYBLE_IAS_CLIENT */
 161:.\Generated_Source\PSoC4/BLE_eventHandler.c **** #ifdef CYBLE_LLS_CLIENT
 162:.\Generated_Source\PSoC4/BLE_eventHandler.c ****     {{CYBLE_GATT_INVALID_ATTR_HANDLE_VALUE, CYBLE_GATT_INVALID_ATTR_HANDLE_VALUE}, CYBLE_UUID_LINK_
 163:.\Generated_Source\PSoC4/BLE_eventHandler.c **** #endif /* CYBLE_LLS_CLIENT */
 164:.\Generated_Source\PSoC4/BLE_eventHandler.c **** #ifdef CYBLE_LNS_CLIENT
 165:.\Generated_Source\PSoC4/BLE_eventHandler.c ****     {{CYBLE_GATT_INVALID_ATTR_HANDLE_VALUE, CYBLE_GATT_INVALID_ATTR_HANDLE_VALUE}, CYBLE_UUID_LOCAT
 166:.\Generated_Source\PSoC4/BLE_eventHandler.c **** #endif /* CYBLE_LNS_CLIENT */
 167:.\Generated_Source\PSoC4/BLE_eventHandler.c **** #ifdef CYBLE_NDCS_CLIENT
 168:.\Generated_Source\PSoC4/BLE_eventHandler.c ****     {{CYBLE_GATT_INVALID_ATTR_HANDLE_VALUE, CYBLE_GATT_INVALID_ATTR_HANDLE_VALUE}, CYBLE_UUID_NEXT_
 169:.\Generated_Source\PSoC4/BLE_eventHandler.c **** #endif /* CYBLE_NDCS_CLIENT */
 170:.\Generated_Source\PSoC4/BLE_eventHandler.c **** #ifdef CYBLE_IPSS_CLIENT
 171:.\Generated_Source\PSoC4/BLE_eventHandler.c ****     {{CYBLE_GATT_INVALID_ATTR_HANDLE_VALUE, CYBLE_GATT_INVALID_ATTR_HANDLE_VALUE}, CYBLE_UUID_INTER
 172:.\Generated_Source\PSoC4/BLE_eventHandler.c **** #endif /* CYBLE_IPSS_CLIENT */
 173:.\Generated_Source\PSoC4/BLE_eventHandler.c **** #ifdef CYBLE_PASS_CLIENT
 174:.\Generated_Source\PSoC4/BLE_eventHandler.c ****     {{CYBLE_GATT_INVALID_ATTR_HANDLE_VALUE, CYBLE_GATT_INVALID_ATTR_HANDLE_VALUE}, CYBLE_UUID_PHONE
 175:.\Generated_Source\PSoC4/BLE_eventHandler.c **** #endif /* CYBLE_PASS_CLIENT */
 176:.\Generated_Source\PSoC4/BLE_eventHandler.c **** #ifdef CYBLE_RSCS_CLIENT
 177:.\Generated_Source\PSoC4/BLE_eventHandler.c ****     {{CYBLE_GATT_INVALID_ATTR_HANDLE_VALUE, CYBLE_GATT_INVALID_ATTR_HANDLE_VALUE}, CYBLE_UUID_RUNNI
 178:.\Generated_Source\PSoC4/BLE_eventHandler.c **** #endif /* CYBLE_RSCS_CLIENT */
 179:.\Generated_Source\PSoC4/BLE_eventHandler.c **** #ifdef CYBLE_RTUS_CLIENT
 180:.\Generated_Source\PSoC4/BLE_eventHandler.c ****     {{CYBLE_GATT_INVALID_ATTR_HANDLE_VALUE, CYBLE_GATT_INVALID_ATTR_HANDLE_VALUE}, CYBLE_UUID_REF_T
 181:.\Generated_Source\PSoC4/BLE_eventHandler.c **** #endif /* CYBLE_RTUS_CLIENT */
 182:.\Generated_Source\PSoC4/BLE_eventHandler.c **** #ifdef CYBLE_SCPS_CLIENT
 183:.\Generated_Source\PSoC4/BLE_eventHandler.c ****     {{CYBLE_GATT_INVALID_ATTR_HANDLE_VALUE, CYBLE_GATT_INVALID_ATTR_HANDLE_VALUE}, CYBLE_UUID_SCAN_
 184:.\Generated_Source\PSoC4/BLE_eventHandler.c **** #endif /* CYBLE_SCPS_CLIENT */
 185:.\Generated_Source\PSoC4/BLE_eventHandler.c **** #ifdef CYBLE_TPS_CLIENT
 186:.\Generated_Source\PSoC4/BLE_eventHandler.c ****     {{CYBLE_GATT_INVALID_ATTR_HANDLE_VALUE, CYBLE_GATT_INVALID_ATTR_HANDLE_VALUE}, CYBLE_UUID_TX_PO
 187:.\Generated_Source\PSoC4/BLE_eventHandler.c **** #endif /* CYBLE_TPS_CLIENT */
 188:.\Generated_Source\PSoC4/BLE_eventHandler.c **** #ifdef CYBLE_UDS_CLIENT
 189:.\Generated_Source\PSoC4/BLE_eventHandler.c ****     {{CYBLE_GATT_INVALID_ATTR_HANDLE_VALUE, CYBLE_GATT_INVALID_ATTR_HANDLE_VALUE}, CYBLE_UUID_USER_
 190:.\Generated_Source\PSoC4/BLE_eventHandler.c **** #endif /* CYBLE_UDS_CLIENT */
 191:.\Generated_Source\PSoC4/BLE_eventHandler.c **** #ifdef CYBLE_WSS_CLIENT
 192:.\Generated_Source\PSoC4/BLE_eventHandler.c ****     {{CYBLE_GATT_INVALID_ATTR_HANDLE_VALUE, CYBLE_GATT_INVALID_ATTR_HANDLE_VALUE}, CYBLE_UUID_WEIGH
 193:.\Generated_Source\PSoC4/BLE_eventHandler.c **** #endif /* CYBLE_WSS_CLIENT */
 194:.\Generated_Source\PSoC4/BLE_eventHandler.c **** #ifdef CYBLE_WPTS_CLIENT
 195:.\Generated_Source\PSoC4/BLE_eventHandler.c ****     {{CYBLE_GATT_INVALID_ATTR_HANDLE_VALUE, CYBLE_GATT_INVALID_ATTR_HANDLE_VALUE}, CYBLE_UUID_WIREL
 196:.\Generated_Source\PSoC4/BLE_eventHandler.c **** #endif /* CYBLE_WPTS_CLIENT */
 197:.\Generated_Source\PSoC4/BLE_eventHandler.c **** };
 198:.\Generated_Source\PSoC4/BLE_eventHandler.c **** 
 199:.\Generated_Source\PSoC4/BLE_eventHandler.c **** CYBLE_GAPC_T cyBle_gapc;
 200:.\Generated_Source\PSoC4/BLE_eventHandler.c **** 
 201:.\Generated_Source\PSoC4/BLE_eventHandler.c **** #endif /* CYBLE_GATT_ROLE_CLIENT */
 202:.\Generated_Source\PSoC4/BLE_eventHandler.c **** 
 203:.\Generated_Source\PSoC4/BLE_eventHandler.c **** /* Default device security */
 204:.\Generated_Source\PSoC4/BLE_eventHandler.c **** CYBLE_GAP_AUTH_INFO_T cyBle_authInfo =
ARM GAS  C:\Users\Petro\AppData\Local\Temp\cclwd5AX.s 			page 5


 205:.\Generated_Source\PSoC4/BLE_eventHandler.c **** {
 206:.\Generated_Source\PSoC4/BLE_eventHandler.c ****     (CYBLE_GAP_SEC_MODE_1 | CYBLE_GAP_SEC_LEVEL_1 ), /* uint8 security */
 207:.\Generated_Source\PSoC4/BLE_eventHandler.c ****     CYBLE_GAP_BONDING, /* uint8 bonding */
 208:.\Generated_Source\PSoC4/BLE_eventHandler.c ****     0x10u,      /* uint8 ekeySize */
 209:.\Generated_Source\PSoC4/BLE_eventHandler.c ****     CYBLE_GAP_AUTH_ERROR_NONE, /* CYBLE_AUTH_FAILED_REASON_T authErr */
 210:.\Generated_Source\PSoC4/BLE_eventHandler.c **** };
 211:.\Generated_Source\PSoC4/BLE_eventHandler.c **** 
 212:.\Generated_Source\PSoC4/BLE_eventHandler.c **** #if(CYBLE_GATT_ROLE_SERVER)
 213:.\Generated_Source\PSoC4/BLE_eventHandler.c **** 
 214:.\Generated_Source\PSoC4/BLE_eventHandler.c **** 
 215:.\Generated_Source\PSoC4/BLE_eventHandler.c **** /******************************************************************************    
 216:.\Generated_Source\PSoC4/BLE_eventHandler.c **** * Function Name: CyBle_WriteReqHandler
 217:.\Generated_Source\PSoC4/BLE_eventHandler.c **** ***************************************************************************//**
 218:.\Generated_Source\PSoC4/BLE_eventHandler.c **** * 
 219:.\Generated_Source\PSoC4/BLE_eventHandler.c **** *  Handles the Write Request event from BLE stack.
 220:.\Generated_Source\PSoC4/BLE_eventHandler.c **** * 
 221:.\Generated_Source\PSoC4/BLE_eventHandler.c **** *  CYBLE_GATTS_WRITE_REQ_PARAM_T * eventParam - event parameter
 222:.\Generated_Source\PSoC4/BLE_eventHandler.c **** * 
 223:.\Generated_Source\PSoC4/BLE_eventHandler.c **** * \return
 224:.\Generated_Source\PSoC4/BLE_eventHandler.c **** *  None
 225:.\Generated_Source\PSoC4/BLE_eventHandler.c **** * 
 226:.\Generated_Source\PSoC4/BLE_eventHandler.c **** ******************************************************************************/
 227:.\Generated_Source\PSoC4/BLE_eventHandler.c **** static void CyBle_WriteReqHandler(CYBLE_GATTS_WRITE_REQ_PARAM_T *eventParam)
 228:.\Generated_Source\PSoC4/BLE_eventHandler.c **** {
 229:.\Generated_Source\PSoC4/BLE_eventHandler.c ****     CYBLE_GATT_ERR_CODE_T gattErr;
 230:.\Generated_Source\PSoC4/BLE_eventHandler.c **** #if defined CYBLE_CTS_SERVER || defined CYBLE_ESS_SERVER
 231:.\Generated_Source\PSoC4/BLE_eventHandler.c ****     cyBle_gattError = CYBLE_GATT_ERR_NONE;
 232:.\Generated_Source\PSoC4/BLE_eventHandler.c **** #endif /* defined CYBLE_CTS_SERVER || defined CYBLE_ESS_SERVER */
 233:.\Generated_Source\PSoC4/BLE_eventHandler.c ****     
 234:.\Generated_Source\PSoC4/BLE_eventHandler.c ****     gattErr = CyBle_GattsWriteEventHandler(eventParam);
 235:.\Generated_Source\PSoC4/BLE_eventHandler.c **** #ifdef CYBLE_ANCS_SERVER
 236:.\Generated_Source\PSoC4/BLE_eventHandler.c ****     if(((cyBle_eventHandlerFlag & CYBLE_CALLBACK) != 0u) && (gattErr == CYBLE_GATT_ERR_NONE))
 237:.\Generated_Source\PSoC4/BLE_eventHandler.c ****     {
 238:.\Generated_Source\PSoC4/BLE_eventHandler.c ****         gattErr = CyBle_AncssWriteEventHandler(eventParam);
 239:.\Generated_Source\PSoC4/BLE_eventHandler.c ****     }
 240:.\Generated_Source\PSoC4/BLE_eventHandler.c **** #endif /* CYBLE_ANCS_SERVER */
 241:.\Generated_Source\PSoC4/BLE_eventHandler.c **** #ifdef CYBLE_ANS_SERVER
 242:.\Generated_Source\PSoC4/BLE_eventHandler.c ****     if(((cyBle_eventHandlerFlag & CYBLE_CALLBACK) != 0u) && (gattErr == CYBLE_GATT_ERR_NONE))
 243:.\Generated_Source\PSoC4/BLE_eventHandler.c ****     {
 244:.\Generated_Source\PSoC4/BLE_eventHandler.c ****         gattErr = CyBle_AnssWriteEventHandler(eventParam);
 245:.\Generated_Source\PSoC4/BLE_eventHandler.c ****     }
 246:.\Generated_Source\PSoC4/BLE_eventHandler.c **** #endif /* CYBLE_ANS_SERVER */
 247:.\Generated_Source\PSoC4/BLE_eventHandler.c **** #ifdef CYBLE_BAS_SERVER
 248:.\Generated_Source\PSoC4/BLE_eventHandler.c ****     if(((cyBle_eventHandlerFlag & CYBLE_CALLBACK) != 0u) && (gattErr == CYBLE_GATT_ERR_NONE))
 249:.\Generated_Source\PSoC4/BLE_eventHandler.c ****     {
 250:.\Generated_Source\PSoC4/BLE_eventHandler.c ****         gattErr = CyBle_BassWriteEventHandler(eventParam);
 251:.\Generated_Source\PSoC4/BLE_eventHandler.c ****     }
 252:.\Generated_Source\PSoC4/BLE_eventHandler.c **** #endif /* CYBLE_BAS_SERVER */
 253:.\Generated_Source\PSoC4/BLE_eventHandler.c **** #ifdef CYBLE_BCS_SERVER
 254:.\Generated_Source\PSoC4/BLE_eventHandler.c ****     if(((cyBle_eventHandlerFlag & CYBLE_CALLBACK) != 0u) && (gattErr == CYBLE_GATT_ERR_NONE))
 255:.\Generated_Source\PSoC4/BLE_eventHandler.c ****     {
 256:.\Generated_Source\PSoC4/BLE_eventHandler.c ****         gattErr = CyBle_BcssWriteEventHandler(eventParam);
 257:.\Generated_Source\PSoC4/BLE_eventHandler.c ****     }
 258:.\Generated_Source\PSoC4/BLE_eventHandler.c **** #endif /* CYBLE_BCS_SERVER */
 259:.\Generated_Source\PSoC4/BLE_eventHandler.c **** #ifdef CYBLE_BLS_SERVER
 260:.\Generated_Source\PSoC4/BLE_eventHandler.c ****     if(((cyBle_eventHandlerFlag & CYBLE_CALLBACK) != 0u) && (gattErr == CYBLE_GATT_ERR_NONE))
 261:.\Generated_Source\PSoC4/BLE_eventHandler.c ****     {
ARM GAS  C:\Users\Petro\AppData\Local\Temp\cclwd5AX.s 			page 6


 262:.\Generated_Source\PSoC4/BLE_eventHandler.c ****         gattErr = CyBle_BlssWriteEventHandler(eventParam);
 263:.\Generated_Source\PSoC4/BLE_eventHandler.c ****     }
 264:.\Generated_Source\PSoC4/BLE_eventHandler.c **** #endif /* CYBLE_BLS_SERVER */
 265:.\Generated_Source\PSoC4/BLE_eventHandler.c **** #ifdef CYBLE_BMS_SERVER
 266:.\Generated_Source\PSoC4/BLE_eventHandler.c ****     if(((cyBle_eventHandlerFlag & CYBLE_CALLBACK) != 0u) && (gattErr == CYBLE_GATT_ERR_NONE))
 267:.\Generated_Source\PSoC4/BLE_eventHandler.c ****     {
 268:.\Generated_Source\PSoC4/BLE_eventHandler.c ****         gattErr = CyBle_BmssWriteEventHandler(eventParam);
 269:.\Generated_Source\PSoC4/BLE_eventHandler.c ****     }
 270:.\Generated_Source\PSoC4/BLE_eventHandler.c **** #endif /* CYBLE_BMS_SERVER */
 271:.\Generated_Source\PSoC4/BLE_eventHandler.c **** #ifdef CYBLE_BTS_SERVER
 272:.\Generated_Source\PSoC4/BLE_eventHandler.c ****     if((cyBle_eventHandlerFlag & CYBLE_CALLBACK) != 0u)
 273:.\Generated_Source\PSoC4/BLE_eventHandler.c ****     {
 274:.\Generated_Source\PSoC4/BLE_eventHandler.c ****         gattErr = CyBle_BtsWriteEventHandler(eventParam);
 275:.\Generated_Source\PSoC4/BLE_eventHandler.c ****     }
 276:.\Generated_Source\PSoC4/BLE_eventHandler.c **** #endif /* CYBLE_BTS_SERVER */
 277:.\Generated_Source\PSoC4/BLE_eventHandler.c **** #ifdef CYBLE_CGMS_SERVER
 278:.\Generated_Source\PSoC4/BLE_eventHandler.c ****     if(((cyBle_eventHandlerFlag & CYBLE_CALLBACK) != 0u) && (gattErr == CYBLE_GATT_ERR_NONE))
 279:.\Generated_Source\PSoC4/BLE_eventHandler.c ****     {
 280:.\Generated_Source\PSoC4/BLE_eventHandler.c ****         gattErr = CyBle_CgmssWriteEventHandler(eventParam);
 281:.\Generated_Source\PSoC4/BLE_eventHandler.c ****     }
 282:.\Generated_Source\PSoC4/BLE_eventHandler.c **** #endif /* CYBLE_CGMS_SERVER */
 283:.\Generated_Source\PSoC4/BLE_eventHandler.c **** #ifdef CYBLE_CPS_SERVER
 284:.\Generated_Source\PSoC4/BLE_eventHandler.c ****     if(((cyBle_eventHandlerFlag & CYBLE_CALLBACK) != 0u) && (gattErr == CYBLE_GATT_ERR_NONE))
 285:.\Generated_Source\PSoC4/BLE_eventHandler.c ****     {
 286:.\Generated_Source\PSoC4/BLE_eventHandler.c ****         gattErr = CyBle_CpssWriteEventHandler(eventParam);
 287:.\Generated_Source\PSoC4/BLE_eventHandler.c ****     }
 288:.\Generated_Source\PSoC4/BLE_eventHandler.c **** #endif /* CYBLE_CPS_SERVER */
 289:.\Generated_Source\PSoC4/BLE_eventHandler.c **** #ifdef CYBLE_CSCS_SERVER
 290:.\Generated_Source\PSoC4/BLE_eventHandler.c ****     if(((cyBle_eventHandlerFlag & CYBLE_CALLBACK) != 0u) && (gattErr == CYBLE_GATT_ERR_NONE))
 291:.\Generated_Source\PSoC4/BLE_eventHandler.c ****     {
 292:.\Generated_Source\PSoC4/BLE_eventHandler.c ****         gattErr = CyBle_CscssWriteEventHandler(eventParam);
 293:.\Generated_Source\PSoC4/BLE_eventHandler.c ****     }
 294:.\Generated_Source\PSoC4/BLE_eventHandler.c **** #endif /* CYBLE_CSCS_SERVER */
 295:.\Generated_Source\PSoC4/BLE_eventHandler.c **** #ifdef CYBLE_CTS_SERVER
 296:.\Generated_Source\PSoC4/BLE_eventHandler.c ****     if(((cyBle_eventHandlerFlag & CYBLE_CALLBACK) != 0u) && (gattErr == CYBLE_GATT_ERR_NONE))
 297:.\Generated_Source\PSoC4/BLE_eventHandler.c ****     {
 298:.\Generated_Source\PSoC4/BLE_eventHandler.c ****         gattErr = CyBle_CtssWriteEventHandler(eventParam);
 299:.\Generated_Source\PSoC4/BLE_eventHandler.c ****     }
 300:.\Generated_Source\PSoC4/BLE_eventHandler.c **** #endif /* CYBLE_CTS_SERVER */
 301:.\Generated_Source\PSoC4/BLE_eventHandler.c **** #ifdef CYBLE_ESS_SERVER
 302:.\Generated_Source\PSoC4/BLE_eventHandler.c ****     if(((cyBle_eventHandlerFlag & CYBLE_CALLBACK) != 0u) && (gattErr == CYBLE_GATT_ERR_NONE))
 303:.\Generated_Source\PSoC4/BLE_eventHandler.c ****     {
 304:.\Generated_Source\PSoC4/BLE_eventHandler.c ****         gattErr = CyBle_EsssWriteEventHandler(eventParam);
 305:.\Generated_Source\PSoC4/BLE_eventHandler.c ****     }
 306:.\Generated_Source\PSoC4/BLE_eventHandler.c **** #endif /* CYBLE_ESS_SERVER */
 307:.\Generated_Source\PSoC4/BLE_eventHandler.c **** #ifdef CYBLE_GLS_SERVER
 308:.\Generated_Source\PSoC4/BLE_eventHandler.c ****     if(((cyBle_eventHandlerFlag & CYBLE_CALLBACK) != 0u) && (gattErr == CYBLE_GATT_ERR_NONE))
 309:.\Generated_Source\PSoC4/BLE_eventHandler.c ****     {
 310:.\Generated_Source\PSoC4/BLE_eventHandler.c ****         gattErr = CyBle_GlssWriteEventHandler(eventParam);
 311:.\Generated_Source\PSoC4/BLE_eventHandler.c ****     }
 312:.\Generated_Source\PSoC4/BLE_eventHandler.c **** #endif /* CYBLE_GLS_SERVER */
 313:.\Generated_Source\PSoC4/BLE_eventHandler.c **** #ifdef CYBLE_HIDS_SERVER
 314:.\Generated_Source\PSoC4/BLE_eventHandler.c ****     if(((cyBle_eventHandlerFlag & CYBLE_CALLBACK) != 0u) && (gattErr == CYBLE_GATT_ERR_NONE))
 315:.\Generated_Source\PSoC4/BLE_eventHandler.c ****     {
 316:.\Generated_Source\PSoC4/BLE_eventHandler.c ****         gattErr = CyBle_HidssWriteEventHandler(eventParam);
 317:.\Generated_Source\PSoC4/BLE_eventHandler.c ****     }
 318:.\Generated_Source\PSoC4/BLE_eventHandler.c **** #endif /* CYBLE_HIDS_SERVER */
ARM GAS  C:\Users\Petro\AppData\Local\Temp\cclwd5AX.s 			page 7


 319:.\Generated_Source\PSoC4/BLE_eventHandler.c **** #ifdef CYBLE_HRS_SERVER
 320:.\Generated_Source\PSoC4/BLE_eventHandler.c ****     if(((cyBle_eventHandlerFlag & CYBLE_CALLBACK) != 0u) && (gattErr == CYBLE_GATT_ERR_NONE))
 321:.\Generated_Source\PSoC4/BLE_eventHandler.c ****     {
 322:.\Generated_Source\PSoC4/BLE_eventHandler.c ****         gattErr = CyBle_HrssWriteEventHandler(eventParam);
 323:.\Generated_Source\PSoC4/BLE_eventHandler.c ****     }
 324:.\Generated_Source\PSoC4/BLE_eventHandler.c **** #endif /* CYBLE_HRS_SERVER */
 325:.\Generated_Source\PSoC4/BLE_eventHandler.c **** #ifdef CYBLE_HTS_SERVER
 326:.\Generated_Source\PSoC4/BLE_eventHandler.c ****     if(((cyBle_eventHandlerFlag & CYBLE_CALLBACK) != 0u) && (gattErr == CYBLE_GATT_ERR_NONE))
 327:.\Generated_Source\PSoC4/BLE_eventHandler.c ****     {
 328:.\Generated_Source\PSoC4/BLE_eventHandler.c ****         gattErr = CyBle_HtssWriteEventHandler(eventParam);
 329:.\Generated_Source\PSoC4/BLE_eventHandler.c ****     }
 330:.\Generated_Source\PSoC4/BLE_eventHandler.c **** #endif /* CYBLE_HTS_SERVER */
 331:.\Generated_Source\PSoC4/BLE_eventHandler.c **** #ifdef CYBLE_LLS_SERVER
 332:.\Generated_Source\PSoC4/BLE_eventHandler.c ****     if(((cyBle_eventHandlerFlag & CYBLE_CALLBACK) != 0u) && (gattErr == CYBLE_GATT_ERR_NONE))
 333:.\Generated_Source\PSoC4/BLE_eventHandler.c ****     {
 334:.\Generated_Source\PSoC4/BLE_eventHandler.c ****         gattErr = CyBle_LlssWriteEventHandler(eventParam);
 335:.\Generated_Source\PSoC4/BLE_eventHandler.c ****     }
 336:.\Generated_Source\PSoC4/BLE_eventHandler.c **** #endif /* CYBLE_LLS_SERVER */
 337:.\Generated_Source\PSoC4/BLE_eventHandler.c **** #ifdef CYBLE_LNS_SERVER
 338:.\Generated_Source\PSoC4/BLE_eventHandler.c ****     if(((cyBle_eventHandlerFlag & CYBLE_CALLBACK) != 0u) && (gattErr == CYBLE_GATT_ERR_NONE))
 339:.\Generated_Source\PSoC4/BLE_eventHandler.c ****     {
 340:.\Generated_Source\PSoC4/BLE_eventHandler.c ****         gattErr = CyBle_LnssWriteEventHandler(eventParam);
 341:.\Generated_Source\PSoC4/BLE_eventHandler.c ****     }
 342:.\Generated_Source\PSoC4/BLE_eventHandler.c **** #endif /* CYBLE_LNS_SERVER */
 343:.\Generated_Source\PSoC4/BLE_eventHandler.c **** #ifdef CYBLE_PASS_SERVER
 344:.\Generated_Source\PSoC4/BLE_eventHandler.c ****     if(((cyBle_eventHandlerFlag & CYBLE_CALLBACK) != 0u) && (gattErr == CYBLE_GATT_ERR_NONE))
 345:.\Generated_Source\PSoC4/BLE_eventHandler.c ****     {
 346:.\Generated_Source\PSoC4/BLE_eventHandler.c ****         gattErr = CyBle_PasssWriteEventHandler(eventParam);
 347:.\Generated_Source\PSoC4/BLE_eventHandler.c ****     }
 348:.\Generated_Source\PSoC4/BLE_eventHandler.c **** #endif /* CYBLE_PASS_SERVER */
 349:.\Generated_Source\PSoC4/BLE_eventHandler.c **** #ifdef CYBLE_RSCS_SERVER
 350:.\Generated_Source\PSoC4/BLE_eventHandler.c ****     if(((cyBle_eventHandlerFlag & CYBLE_CALLBACK) != 0u) && (gattErr == CYBLE_GATT_ERR_NONE))
 351:.\Generated_Source\PSoC4/BLE_eventHandler.c ****     {
 352:.\Generated_Source\PSoC4/BLE_eventHandler.c ****         gattErr = CyBle_RscssWriteEventHandler(eventParam);
 353:.\Generated_Source\PSoC4/BLE_eventHandler.c ****     }
 354:.\Generated_Source\PSoC4/BLE_eventHandler.c **** #endif /* CYBLE_RSCS_SERVER */
 355:.\Generated_Source\PSoC4/BLE_eventHandler.c **** #ifdef CYBLE_SCPS_SERVER
 356:.\Generated_Source\PSoC4/BLE_eventHandler.c ****     if(((cyBle_eventHandlerFlag & CYBLE_CALLBACK) != 0u) && (gattErr == CYBLE_GATT_ERR_NONE))
 357:.\Generated_Source\PSoC4/BLE_eventHandler.c ****     {
 358:.\Generated_Source\PSoC4/BLE_eventHandler.c ****         gattErr = CyBle_ScpssWriteEventHandler(eventParam);
 359:.\Generated_Source\PSoC4/BLE_eventHandler.c ****     }
 360:.\Generated_Source\PSoC4/BLE_eventHandler.c **** #endif /* CYBLE_SCPS_SERVER */
 361:.\Generated_Source\PSoC4/BLE_eventHandler.c **** #ifdef CYBLE_TPS_SERVER
 362:.\Generated_Source\PSoC4/BLE_eventHandler.c ****     if(((cyBle_eventHandlerFlag & CYBLE_CALLBACK) != 0u) && (gattErr == CYBLE_GATT_ERR_NONE))
 363:.\Generated_Source\PSoC4/BLE_eventHandler.c ****     {
 364:.\Generated_Source\PSoC4/BLE_eventHandler.c ****         gattErr = CyBle_TpssWriteEventHandler(eventParam);
 365:.\Generated_Source\PSoC4/BLE_eventHandler.c ****     }
 366:.\Generated_Source\PSoC4/BLE_eventHandler.c **** #endif /* CYBLE_TPS_SERVER */
 367:.\Generated_Source\PSoC4/BLE_eventHandler.c **** #ifdef CYBLE_UDS_SERVER
 368:.\Generated_Source\PSoC4/BLE_eventHandler.c ****     if(((cyBle_eventHandlerFlag & CYBLE_CALLBACK) != 0u) && (gattErr == CYBLE_GATT_ERR_NONE))
 369:.\Generated_Source\PSoC4/BLE_eventHandler.c ****     {
 370:.\Generated_Source\PSoC4/BLE_eventHandler.c ****         gattErr = CyBle_UdssWriteEventHandler(eventParam);
 371:.\Generated_Source\PSoC4/BLE_eventHandler.c ****     }
 372:.\Generated_Source\PSoC4/BLE_eventHandler.c **** #endif /* CYBLE_UDS_SERVER */
 373:.\Generated_Source\PSoC4/BLE_eventHandler.c **** #ifdef CYBLE_WPTS_SERVER
 374:.\Generated_Source\PSoC4/BLE_eventHandler.c ****     if(((cyBle_eventHandlerFlag & CYBLE_CALLBACK) != 0u) && (gattErr == CYBLE_GATT_ERR_NONE))
 375:.\Generated_Source\PSoC4/BLE_eventHandler.c ****     {
ARM GAS  C:\Users\Petro\AppData\Local\Temp\cclwd5AX.s 			page 8


 376:.\Generated_Source\PSoC4/BLE_eventHandler.c ****         gattErr = CyBle_WptssWriteEventHandler(eventParam);
 377:.\Generated_Source\PSoC4/BLE_eventHandler.c ****     }
 378:.\Generated_Source\PSoC4/BLE_eventHandler.c **** #endif /* CYBLE_WPTS_SERVER */
 379:.\Generated_Source\PSoC4/BLE_eventHandler.c **** #ifdef CYBLE_WSS_SERVER
 380:.\Generated_Source\PSoC4/BLE_eventHandler.c ****     if(((cyBle_eventHandlerFlag & CYBLE_CALLBACK) != 0u) && (gattErr == CYBLE_GATT_ERR_NONE))
 381:.\Generated_Source\PSoC4/BLE_eventHandler.c ****     {
 382:.\Generated_Source\PSoC4/BLE_eventHandler.c ****         gattErr = CyBle_WsssWriteEventHandler(eventParam);
 383:.\Generated_Source\PSoC4/BLE_eventHandler.c ****     }
 384:.\Generated_Source\PSoC4/BLE_eventHandler.c **** #endif /* CYBLE_WSS_SERVER */
 385:.\Generated_Source\PSoC4/BLE_eventHandler.c **** 
 386:.\Generated_Source\PSoC4/BLE_eventHandler.c ****     /* Send response when event was handled by service */
 387:.\Generated_Source\PSoC4/BLE_eventHandler.c ****     if((cyBle_eventHandlerFlag & CYBLE_CALLBACK) == 0u)
 388:.\Generated_Source\PSoC4/BLE_eventHandler.c ****     {
 389:.\Generated_Source\PSoC4/BLE_eventHandler.c ****         if(gattErr != CYBLE_GATT_ERR_NONE)
 390:.\Generated_Source\PSoC4/BLE_eventHandler.c ****         {
 391:.\Generated_Source\PSoC4/BLE_eventHandler.c ****             CYBLE_GATTS_ERR_PARAM_T err_param;
 392:.\Generated_Source\PSoC4/BLE_eventHandler.c ****             
 393:.\Generated_Source\PSoC4/BLE_eventHandler.c ****             err_param.opcode = (uint8) CYBLE_GATT_WRITE_REQ;
 394:.\Generated_Source\PSoC4/BLE_eventHandler.c ****             err_param.attrHandle = eventParam->handleValPair.attrHandle;
 395:.\Generated_Source\PSoC4/BLE_eventHandler.c ****             err_param.errorCode = gattErr;
 396:.\Generated_Source\PSoC4/BLE_eventHandler.c **** 
 397:.\Generated_Source\PSoC4/BLE_eventHandler.c ****             /* Send Error Response */
 398:.\Generated_Source\PSoC4/BLE_eventHandler.c ****             (void)CyBle_GattsErrorRsp(eventParam->connHandle, &err_param);
 399:.\Generated_Source\PSoC4/BLE_eventHandler.c ****         }
 400:.\Generated_Source\PSoC4/BLE_eventHandler.c ****         else
 401:.\Generated_Source\PSoC4/BLE_eventHandler.c ****         {
 402:.\Generated_Source\PSoC4/BLE_eventHandler.c ****             (void)CyBle_GattsWriteRsp(eventParam->connHandle);
 403:.\Generated_Source\PSoC4/BLE_eventHandler.c ****         }
 404:.\Generated_Source\PSoC4/BLE_eventHandler.c ****     }
 405:.\Generated_Source\PSoC4/BLE_eventHandler.c **** }
 406:.\Generated_Source\PSoC4/BLE_eventHandler.c **** 
 407:.\Generated_Source\PSoC4/BLE_eventHandler.c **** 
 408:.\Generated_Source\PSoC4/BLE_eventHandler.c **** /****************************************************************************** 
 409:.\Generated_Source\PSoC4/BLE_eventHandler.c **** * Function Name: CyBle_ValueConfirmation
 410:.\Generated_Source\PSoC4/BLE_eventHandler.c **** ***************************************************************************//**
 411:.\Generated_Source\PSoC4/BLE_eventHandler.c **** * 
 412:.\Generated_Source\PSoC4/BLE_eventHandler.c **** *  Handles the Value Confirmation request event from the BLE stack.
 413:.\Generated_Source\PSoC4/BLE_eventHandler.c **** * 
 414:.\Generated_Source\PSoC4/BLE_eventHandler.c **** *  \param eventParam: Pointer to a structure of type 'CYBLE_CONN_HANDLE_T'
 415:.\Generated_Source\PSoC4/BLE_eventHandler.c **** * 
 416:.\Generated_Source\PSoC4/BLE_eventHandler.c **** * \return
 417:.\Generated_Source\PSoC4/BLE_eventHandler.c **** *  None
 418:.\Generated_Source\PSoC4/BLE_eventHandler.c **** * 
 419:.\Generated_Source\PSoC4/BLE_eventHandler.c **** ******************************************************************************/
 420:.\Generated_Source\PSoC4/BLE_eventHandler.c **** static void CyBle_ValueConfirmation(const CYBLE_CONN_HANDLE_T *eventParam)
 421:.\Generated_Source\PSoC4/BLE_eventHandler.c **** {
 422:.\Generated_Source\PSoC4/BLE_eventHandler.c ****     if(eventParam != NULL)
 423:.\Generated_Source\PSoC4/BLE_eventHandler.c ****     {
 424:.\Generated_Source\PSoC4/BLE_eventHandler.c ****     #ifdef CYBLE_BCS_SERVER
 425:.\Generated_Source\PSoC4/BLE_eventHandler.c ****         CyBle_BcssConfirmationEventHandler(eventParam);
 426:.\Generated_Source\PSoC4/BLE_eventHandler.c ****     #endif /* CYBLE_BCS_SERVER */
 427:.\Generated_Source\PSoC4/BLE_eventHandler.c ****     #ifdef CYBLE_BLS_SERVER
 428:.\Generated_Source\PSoC4/BLE_eventHandler.c ****         if((cyBle_eventHandlerFlag & CYBLE_CALLBACK) != 0u)
 429:.\Generated_Source\PSoC4/BLE_eventHandler.c ****         {
 430:.\Generated_Source\PSoC4/BLE_eventHandler.c ****             CyBle_BlssConfirmationEventHandler(eventParam);
 431:.\Generated_Source\PSoC4/BLE_eventHandler.c ****         }
 432:.\Generated_Source\PSoC4/BLE_eventHandler.c ****     #endif /* CYBLE_BLS_SERVER */
ARM GAS  C:\Users\Petro\AppData\Local\Temp\cclwd5AX.s 			page 9


 433:.\Generated_Source\PSoC4/BLE_eventHandler.c ****     
 434:.\Generated_Source\PSoC4/BLE_eventHandler.c ****     #ifdef CYBLE_CGMS_SERVER
 435:.\Generated_Source\PSoC4/BLE_eventHandler.c ****         if((cyBle_eventHandlerFlag & CYBLE_CALLBACK) != 0u)
 436:.\Generated_Source\PSoC4/BLE_eventHandler.c ****         {
 437:.\Generated_Source\PSoC4/BLE_eventHandler.c ****             CyBle_CgmssConfirmationEventHandler(eventParam);
 438:.\Generated_Source\PSoC4/BLE_eventHandler.c ****         }
 439:.\Generated_Source\PSoC4/BLE_eventHandler.c ****     #endif /* CYBLE_CGMS_SERVER */
 440:.\Generated_Source\PSoC4/BLE_eventHandler.c ****     
 441:.\Generated_Source\PSoC4/BLE_eventHandler.c ****     #ifdef CYBLE_CPS_SERVER
 442:.\Generated_Source\PSoC4/BLE_eventHandler.c ****         if((cyBle_eventHandlerFlag & CYBLE_CALLBACK) != 0u)
 443:.\Generated_Source\PSoC4/BLE_eventHandler.c ****         {
 444:.\Generated_Source\PSoC4/BLE_eventHandler.c ****             CyBle_CpssConfirmationEventHandler(eventParam);
 445:.\Generated_Source\PSoC4/BLE_eventHandler.c ****         }
 446:.\Generated_Source\PSoC4/BLE_eventHandler.c ****     #endif /* CYBLE_CPS_SERVER */
 447:.\Generated_Source\PSoC4/BLE_eventHandler.c ****     
 448:.\Generated_Source\PSoC4/BLE_eventHandler.c ****     #ifdef CYBLE_CSCS_SERVER
 449:.\Generated_Source\PSoC4/BLE_eventHandler.c ****         if((cyBle_eventHandlerFlag & CYBLE_CALLBACK) != 0u)
 450:.\Generated_Source\PSoC4/BLE_eventHandler.c ****         {
 451:.\Generated_Source\PSoC4/BLE_eventHandler.c ****             CyBle_CscssConfirmationEventHandler(eventParam);
 452:.\Generated_Source\PSoC4/BLE_eventHandler.c ****         }
 453:.\Generated_Source\PSoC4/BLE_eventHandler.c ****     #endif /* CYBLE_CSCS_SERVER */
 454:.\Generated_Source\PSoC4/BLE_eventHandler.c ****     
 455:.\Generated_Source\PSoC4/BLE_eventHandler.c ****     #ifdef CYBLE_ESS_SERVER
 456:.\Generated_Source\PSoC4/BLE_eventHandler.c ****         if((cyBle_eventHandlerFlag & CYBLE_CALLBACK) != 0u)
 457:.\Generated_Source\PSoC4/BLE_eventHandler.c ****         {
 458:.\Generated_Source\PSoC4/BLE_eventHandler.c ****             CyBle_EsssConfirmationEventHandler(eventParam);
 459:.\Generated_Source\PSoC4/BLE_eventHandler.c ****         }
 460:.\Generated_Source\PSoC4/BLE_eventHandler.c ****     #endif /* CYBLE_ESS_SERVER */
 461:.\Generated_Source\PSoC4/BLE_eventHandler.c ****     
 462:.\Generated_Source\PSoC4/BLE_eventHandler.c ****     #ifdef CYBLE_GLS_SERVER
 463:.\Generated_Source\PSoC4/BLE_eventHandler.c ****         if((cyBle_eventHandlerFlag & CYBLE_CALLBACK) != 0u)
 464:.\Generated_Source\PSoC4/BLE_eventHandler.c ****         {
 465:.\Generated_Source\PSoC4/BLE_eventHandler.c ****             CyBle_GlssConfirmationEventHandler(eventParam);
 466:.\Generated_Source\PSoC4/BLE_eventHandler.c ****         }
 467:.\Generated_Source\PSoC4/BLE_eventHandler.c ****     #endif /* CYBLE_GLS_SERVER */
 468:.\Generated_Source\PSoC4/BLE_eventHandler.c ****     
 469:.\Generated_Source\PSoC4/BLE_eventHandler.c ****     #ifdef CYBLE_HTS_SERVER
 470:.\Generated_Source\PSoC4/BLE_eventHandler.c ****         if((cyBle_eventHandlerFlag & CYBLE_CALLBACK) != 0u)
 471:.\Generated_Source\PSoC4/BLE_eventHandler.c ****         {
 472:.\Generated_Source\PSoC4/BLE_eventHandler.c ****             CyBle_HtssConfirmationEventHandler(eventParam);
 473:.\Generated_Source\PSoC4/BLE_eventHandler.c ****         }
 474:.\Generated_Source\PSoC4/BLE_eventHandler.c ****     #endif /* CYBLE_HTS_SERVER */
 475:.\Generated_Source\PSoC4/BLE_eventHandler.c **** 
 476:.\Generated_Source\PSoC4/BLE_eventHandler.c ****     #ifdef CYBLE_LNS_SERVER
 477:.\Generated_Source\PSoC4/BLE_eventHandler.c ****         if((cyBle_eventHandlerFlag & CYBLE_CALLBACK) != 0u)
 478:.\Generated_Source\PSoC4/BLE_eventHandler.c ****         {
 479:.\Generated_Source\PSoC4/BLE_eventHandler.c ****             CyBle_LnssConfirmationEventHandler(eventParam);
 480:.\Generated_Source\PSoC4/BLE_eventHandler.c ****         }
 481:.\Generated_Source\PSoC4/BLE_eventHandler.c ****     #endif /* CYBLE_LNS_SERVER */
 482:.\Generated_Source\PSoC4/BLE_eventHandler.c ****     
 483:.\Generated_Source\PSoC4/BLE_eventHandler.c ****     #ifdef CYBLE_RSCS_SERVER
 484:.\Generated_Source\PSoC4/BLE_eventHandler.c ****         if((cyBle_eventHandlerFlag & CYBLE_CALLBACK) != 0u)
 485:.\Generated_Source\PSoC4/BLE_eventHandler.c ****         {
 486:.\Generated_Source\PSoC4/BLE_eventHandler.c ****             CyBle_RscssConfirmationEventHandler(eventParam);
 487:.\Generated_Source\PSoC4/BLE_eventHandler.c ****         }
 488:.\Generated_Source\PSoC4/BLE_eventHandler.c ****     #endif /* CYBLE_RSCS_SERVER */
 489:.\Generated_Source\PSoC4/BLE_eventHandler.c ****     
ARM GAS  C:\Users\Petro\AppData\Local\Temp\cclwd5AX.s 			page 10


 490:.\Generated_Source\PSoC4/BLE_eventHandler.c ****     #ifdef CYBLE_UDS_SERVER
 491:.\Generated_Source\PSoC4/BLE_eventHandler.c ****         if((cyBle_eventHandlerFlag & CYBLE_CALLBACK) != 0u)
 492:.\Generated_Source\PSoC4/BLE_eventHandler.c ****         {
 493:.\Generated_Source\PSoC4/BLE_eventHandler.c ****             CyBle_UdssConfirmationEventHandler(eventParam);
 494:.\Generated_Source\PSoC4/BLE_eventHandler.c ****         }
 495:.\Generated_Source\PSoC4/BLE_eventHandler.c ****     #endif /* CYBLE_UDS_SERVER */
 496:.\Generated_Source\PSoC4/BLE_eventHandler.c ****     
 497:.\Generated_Source\PSoC4/BLE_eventHandler.c ****     #ifdef CYBLE_WPTS_SERVER
 498:.\Generated_Source\PSoC4/BLE_eventHandler.c ****         if((cyBle_eventHandlerFlag & CYBLE_CALLBACK) != 0u)
 499:.\Generated_Source\PSoC4/BLE_eventHandler.c ****         {
 500:.\Generated_Source\PSoC4/BLE_eventHandler.c ****             CyBle_WptssConfirmationEventHandler(eventParam);
 501:.\Generated_Source\PSoC4/BLE_eventHandler.c ****         }
 502:.\Generated_Source\PSoC4/BLE_eventHandler.c ****     #endif /* CYBLE_WPTS_SERVER */
 503:.\Generated_Source\PSoC4/BLE_eventHandler.c ****     
 504:.\Generated_Source\PSoC4/BLE_eventHandler.c ****     #ifdef CYBLE_WSS_SERVER
 505:.\Generated_Source\PSoC4/BLE_eventHandler.c ****         if((cyBle_eventHandlerFlag & CYBLE_CALLBACK) != 0u)
 506:.\Generated_Source\PSoC4/BLE_eventHandler.c ****         {
 507:.\Generated_Source\PSoC4/BLE_eventHandler.c ****             CyBle_WsssConfirmationEventHandler(eventParam);
 508:.\Generated_Source\PSoC4/BLE_eventHandler.c ****         }
 509:.\Generated_Source\PSoC4/BLE_eventHandler.c ****     #endif /* CYBLE_WSS_SERVER */
 510:.\Generated_Source\PSoC4/BLE_eventHandler.c ****     }
 511:.\Generated_Source\PSoC4/BLE_eventHandler.c **** }
 512:.\Generated_Source\PSoC4/BLE_eventHandler.c **** 
 513:.\Generated_Source\PSoC4/BLE_eventHandler.c **** #endif /* CYBLE_GATT_ROLE_SERVER */
 514:.\Generated_Source\PSoC4/BLE_eventHandler.c **** 
 515:.\Generated_Source\PSoC4/BLE_eventHandler.c **** 
 516:.\Generated_Source\PSoC4/BLE_eventHandler.c **** #if (CYBLE_GATT_ROLE_CLIENT)
 517:.\Generated_Source\PSoC4/BLE_eventHandler.c **** 
 518:.\Generated_Source\PSoC4/BLE_eventHandler.c **** /****************************************************************************** 
 519:.\Generated_Source\PSoC4/BLE_eventHandler.c **** * Function Name: CyBle_GattcWriteResponseEventHandler
 520:.\Generated_Source\PSoC4/BLE_eventHandler.c **** ***************************************************************************//**
 521:.\Generated_Source\PSoC4/BLE_eventHandler.c **** * 
 522:.\Generated_Source\PSoC4/BLE_eventHandler.c **** *  Handles the Write response event from the BLE stack.
 523:.\Generated_Source\PSoC4/BLE_eventHandler.c **** * 
 524:.\Generated_Source\PSoC4/BLE_eventHandler.c **** *  \param eventParam: Pointer to a structure of type 'CYBLE_CONN_HANDLE_T'
 525:.\Generated_Source\PSoC4/BLE_eventHandler.c **** * 
 526:.\Generated_Source\PSoC4/BLE_eventHandler.c **** * \return
 527:.\Generated_Source\PSoC4/BLE_eventHandler.c **** *  None
 528:.\Generated_Source\PSoC4/BLE_eventHandler.c **** * 
 529:.\Generated_Source\PSoC4/BLE_eventHandler.c **** ******************************************************************************/
 530:.\Generated_Source\PSoC4/BLE_eventHandler.c **** static void CyBle_GattcWriteResponseEventHandler(const CYBLE_CONN_HANDLE_T *eventParam)
 531:.\Generated_Source\PSoC4/BLE_eventHandler.c **** {
 532:.\Generated_Source\PSoC4/BLE_eventHandler.c **** #ifdef CYBLE_ANCS_CLIENT
 533:.\Generated_Source\PSoC4/BLE_eventHandler.c ****     CyBle_AncscWriteResponseEventHandler(eventParam);
 534:.\Generated_Source\PSoC4/BLE_eventHandler.c **** #endif /* CYBLE_ANCS_CLIENT */
 535:.\Generated_Source\PSoC4/BLE_eventHandler.c **** 
 536:.\Generated_Source\PSoC4/BLE_eventHandler.c **** #ifdef CYBLE_ANS_CLIENT
 537:.\Generated_Source\PSoC4/BLE_eventHandler.c ****     if((cyBle_eventHandlerFlag & CYBLE_CALLBACK) != 0u)
 538:.\Generated_Source\PSoC4/BLE_eventHandler.c ****     {
 539:.\Generated_Source\PSoC4/BLE_eventHandler.c ****         CyBle_AnscWriteResponseEventHandler(eventParam);
 540:.\Generated_Source\PSoC4/BLE_eventHandler.c ****     }
 541:.\Generated_Source\PSoC4/BLE_eventHandler.c **** #endif /* CYBLE_ANS_CLIENT */
 542:.\Generated_Source\PSoC4/BLE_eventHandler.c **** 
 543:.\Generated_Source\PSoC4/BLE_eventHandler.c **** #ifdef CYBLE_BAS_CLIENT
 544:.\Generated_Source\PSoC4/BLE_eventHandler.c ****     if((cyBle_eventHandlerFlag & CYBLE_CALLBACK) != 0u)
 545:.\Generated_Source\PSoC4/BLE_eventHandler.c ****     {
 546:.\Generated_Source\PSoC4/BLE_eventHandler.c ****         CyBle_BascWriteResponseEventHandler(eventParam);
ARM GAS  C:\Users\Petro\AppData\Local\Temp\cclwd5AX.s 			page 11


 547:.\Generated_Source\PSoC4/BLE_eventHandler.c ****     }
 548:.\Generated_Source\PSoC4/BLE_eventHandler.c **** #endif /* CYBLE_BAS_CLIENT */
 549:.\Generated_Source\PSoC4/BLE_eventHandler.c **** 
 550:.\Generated_Source\PSoC4/BLE_eventHandler.c **** #ifdef CYBLE_BCS_CLIENT
 551:.\Generated_Source\PSoC4/BLE_eventHandler.c ****     if((cyBle_eventHandlerFlag & CYBLE_CALLBACK) != 0u)
 552:.\Generated_Source\PSoC4/BLE_eventHandler.c ****     {
 553:.\Generated_Source\PSoC4/BLE_eventHandler.c ****         CyBle_BcscWriteResponseEventHandler(eventParam);
 554:.\Generated_Source\PSoC4/BLE_eventHandler.c ****     }
 555:.\Generated_Source\PSoC4/BLE_eventHandler.c **** #endif /* CYBLE_BCS_CLIENT */
 556:.\Generated_Source\PSoC4/BLE_eventHandler.c **** 
 557:.\Generated_Source\PSoC4/BLE_eventHandler.c **** #ifdef CYBLE_BLS_CLIENT
 558:.\Generated_Source\PSoC4/BLE_eventHandler.c ****     if((cyBle_eventHandlerFlag & CYBLE_CALLBACK) != 0u)
 559:.\Generated_Source\PSoC4/BLE_eventHandler.c ****     {
 560:.\Generated_Source\PSoC4/BLE_eventHandler.c ****         CyBle_BlscWriteResponseEventHandler(eventParam);
 561:.\Generated_Source\PSoC4/BLE_eventHandler.c ****     }
 562:.\Generated_Source\PSoC4/BLE_eventHandler.c **** #endif /* CYBLE_BLS_CLIENT */
 563:.\Generated_Source\PSoC4/BLE_eventHandler.c **** 
 564:.\Generated_Source\PSoC4/BLE_eventHandler.c **** #ifdef CYBLE_BMS_CLIENT
 565:.\Generated_Source\PSoC4/BLE_eventHandler.c ****     if((cyBle_eventHandlerFlag & CYBLE_CALLBACK) != 0u)
 566:.\Generated_Source\PSoC4/BLE_eventHandler.c ****     {
 567:.\Generated_Source\PSoC4/BLE_eventHandler.c ****         CyBle_BmscWriteResponseEventHandler(eventParam);
 568:.\Generated_Source\PSoC4/BLE_eventHandler.c ****     }
 569:.\Generated_Source\PSoC4/BLE_eventHandler.c **** #endif /* CYBLE_BMS_CLIENT */
 570:.\Generated_Source\PSoC4/BLE_eventHandler.c **** 
 571:.\Generated_Source\PSoC4/BLE_eventHandler.c **** #ifdef CYBLE_CGMS_CLIENT
 572:.\Generated_Source\PSoC4/BLE_eventHandler.c ****     if((cyBle_eventHandlerFlag & CYBLE_CALLBACK) != 0u)
 573:.\Generated_Source\PSoC4/BLE_eventHandler.c ****     {
 574:.\Generated_Source\PSoC4/BLE_eventHandler.c ****         CyBle_CgmscWriteResponseEventHandler(eventParam);
 575:.\Generated_Source\PSoC4/BLE_eventHandler.c ****     }
 576:.\Generated_Source\PSoC4/BLE_eventHandler.c **** #endif /* CYBLE_CGMS_CLIENT */
 577:.\Generated_Source\PSoC4/BLE_eventHandler.c **** 
 578:.\Generated_Source\PSoC4/BLE_eventHandler.c **** #ifdef CYBLE_CPS_CLIENT
 579:.\Generated_Source\PSoC4/BLE_eventHandler.c ****     if((cyBle_eventHandlerFlag & CYBLE_CALLBACK) != 0u)
 580:.\Generated_Source\PSoC4/BLE_eventHandler.c ****     {
 581:.\Generated_Source\PSoC4/BLE_eventHandler.c ****         CyBle_CpscWriteResponseEventHandler(eventParam);
 582:.\Generated_Source\PSoC4/BLE_eventHandler.c ****     }
 583:.\Generated_Source\PSoC4/BLE_eventHandler.c **** #endif /* CYBLE_CPS_CLIENT */
 584:.\Generated_Source\PSoC4/BLE_eventHandler.c **** 
 585:.\Generated_Source\PSoC4/BLE_eventHandler.c **** #ifdef CYBLE_CSCS_CLIENT
 586:.\Generated_Source\PSoC4/BLE_eventHandler.c ****     if((cyBle_eventHandlerFlag & CYBLE_CALLBACK) != 0u)
 587:.\Generated_Source\PSoC4/BLE_eventHandler.c ****     {
 588:.\Generated_Source\PSoC4/BLE_eventHandler.c ****         CyBle_CscscWriteResponseEventHandler(eventParam);
 589:.\Generated_Source\PSoC4/BLE_eventHandler.c ****     }
 590:.\Generated_Source\PSoC4/BLE_eventHandler.c **** #endif /* CYBLE_CSCS_CLIENT */
 591:.\Generated_Source\PSoC4/BLE_eventHandler.c **** 
 592:.\Generated_Source\PSoC4/BLE_eventHandler.c **** #ifdef CYBLE_CTS_CLIENT
 593:.\Generated_Source\PSoC4/BLE_eventHandler.c ****     if((cyBle_eventHandlerFlag & CYBLE_CALLBACK) != 0u)
 594:.\Generated_Source\PSoC4/BLE_eventHandler.c ****     {
 595:.\Generated_Source\PSoC4/BLE_eventHandler.c ****         CyBle_CtscWriteResponseEventHandler(eventParam);
 596:.\Generated_Source\PSoC4/BLE_eventHandler.c ****     }
 597:.\Generated_Source\PSoC4/BLE_eventHandler.c **** #endif /* CYBLE_CTS_CLIENT */
 598:.\Generated_Source\PSoC4/BLE_eventHandler.c **** 
 599:.\Generated_Source\PSoC4/BLE_eventHandler.c **** #ifdef CYBLE_ESS_CLIENT
 600:.\Generated_Source\PSoC4/BLE_eventHandler.c ****     if((cyBle_eventHandlerFlag & CYBLE_CALLBACK) != 0u)
 601:.\Generated_Source\PSoC4/BLE_eventHandler.c ****     {
 602:.\Generated_Source\PSoC4/BLE_eventHandler.c ****         CyBle_EsscWriteResponseEventHandler(eventParam);
 603:.\Generated_Source\PSoC4/BLE_eventHandler.c ****     }
ARM GAS  C:\Users\Petro\AppData\Local\Temp\cclwd5AX.s 			page 12


 604:.\Generated_Source\PSoC4/BLE_eventHandler.c **** #endif /* CYBLE_ESS_CLIENT */
 605:.\Generated_Source\PSoC4/BLE_eventHandler.c **** 
 606:.\Generated_Source\PSoC4/BLE_eventHandler.c **** #ifdef CYBLE_GLS_CLIENT
 607:.\Generated_Source\PSoC4/BLE_eventHandler.c ****     if((cyBle_eventHandlerFlag & CYBLE_CALLBACK) != 0u)
 608:.\Generated_Source\PSoC4/BLE_eventHandler.c ****     {
 609:.\Generated_Source\PSoC4/BLE_eventHandler.c ****         CyBle_GlscWriteResponseEventHandler(eventParam);
 610:.\Generated_Source\PSoC4/BLE_eventHandler.c ****     }
 611:.\Generated_Source\PSoC4/BLE_eventHandler.c **** #endif /* CYBLE_GLS_CLIENT */
 612:.\Generated_Source\PSoC4/BLE_eventHandler.c **** 
 613:.\Generated_Source\PSoC4/BLE_eventHandler.c **** #ifdef CYBLE_HIDS_CLIENT
 614:.\Generated_Source\PSoC4/BLE_eventHandler.c ****     if((cyBle_eventHandlerFlag & CYBLE_CALLBACK) != 0u)
 615:.\Generated_Source\PSoC4/BLE_eventHandler.c ****     {
 616:.\Generated_Source\PSoC4/BLE_eventHandler.c ****         CyBle_HidscWriteResponseEventHandler(eventParam);
 617:.\Generated_Source\PSoC4/BLE_eventHandler.c ****     }
 618:.\Generated_Source\PSoC4/BLE_eventHandler.c **** #endif /* CYBLE_HIDS_CLIENT */
 619:.\Generated_Source\PSoC4/BLE_eventHandler.c **** 
 620:.\Generated_Source\PSoC4/BLE_eventHandler.c **** #ifdef CYBLE_HRS_CLIENT
 621:.\Generated_Source\PSoC4/BLE_eventHandler.c ****     if((cyBle_eventHandlerFlag & CYBLE_CALLBACK) != 0u)
 622:.\Generated_Source\PSoC4/BLE_eventHandler.c ****     {
 623:.\Generated_Source\PSoC4/BLE_eventHandler.c ****         CyBle_HrscWriteResponseEventHandler(eventParam);
 624:.\Generated_Source\PSoC4/BLE_eventHandler.c ****     }
 625:.\Generated_Source\PSoC4/BLE_eventHandler.c **** #endif /* CYBLE_HRS_CLIENT */
 626:.\Generated_Source\PSoC4/BLE_eventHandler.c **** 
 627:.\Generated_Source\PSoC4/BLE_eventHandler.c **** #ifdef CYBLE_HTS_CLIENT
 628:.\Generated_Source\PSoC4/BLE_eventHandler.c ****     if((cyBle_eventHandlerFlag & CYBLE_CALLBACK) != 0u)
 629:.\Generated_Source\PSoC4/BLE_eventHandler.c ****     {
 630:.\Generated_Source\PSoC4/BLE_eventHandler.c ****         CyBle_HtscWriteResponseEventHandler(eventParam);
 631:.\Generated_Source\PSoC4/BLE_eventHandler.c ****     }
 632:.\Generated_Source\PSoC4/BLE_eventHandler.c **** #endif /* CYBLE_HTS_CLIENT */
 633:.\Generated_Source\PSoC4/BLE_eventHandler.c **** 
 634:.\Generated_Source\PSoC4/BLE_eventHandler.c **** #ifdef CYBLE_LLS_CLIENT
 635:.\Generated_Source\PSoC4/BLE_eventHandler.c ****     if((cyBle_eventHandlerFlag & CYBLE_CALLBACK) != 0u)
 636:.\Generated_Source\PSoC4/BLE_eventHandler.c ****     {
 637:.\Generated_Source\PSoC4/BLE_eventHandler.c ****         CyBle_LlscWriteResponseEventHandler(eventParam);
 638:.\Generated_Source\PSoC4/BLE_eventHandler.c ****     }
 639:.\Generated_Source\PSoC4/BLE_eventHandler.c **** #endif /* CYBLE_LLS_CLIENT */
 640:.\Generated_Source\PSoC4/BLE_eventHandler.c **** 
 641:.\Generated_Source\PSoC4/BLE_eventHandler.c **** #ifdef CYBLE_LNS_CLIENT
 642:.\Generated_Source\PSoC4/BLE_eventHandler.c ****     if((cyBle_eventHandlerFlag & CYBLE_CALLBACK) != 0u)
 643:.\Generated_Source\PSoC4/BLE_eventHandler.c ****     {
 644:.\Generated_Source\PSoC4/BLE_eventHandler.c ****         CyBle_LnscWriteResponseEventHandler(eventParam);
 645:.\Generated_Source\PSoC4/BLE_eventHandler.c ****     }
 646:.\Generated_Source\PSoC4/BLE_eventHandler.c **** #endif /* CYBLE_LNS_CLIENT */
 647:.\Generated_Source\PSoC4/BLE_eventHandler.c **** 
 648:.\Generated_Source\PSoC4/BLE_eventHandler.c **** #ifdef CYBLE_PASS_CLIENT
 649:.\Generated_Source\PSoC4/BLE_eventHandler.c ****     if((cyBle_eventHandlerFlag & CYBLE_CALLBACK) != 0u)
 650:.\Generated_Source\PSoC4/BLE_eventHandler.c ****     {
 651:.\Generated_Source\PSoC4/BLE_eventHandler.c ****         CyBle_PasscWriteResponseEventHandler(eventParam);
 652:.\Generated_Source\PSoC4/BLE_eventHandler.c ****     }
 653:.\Generated_Source\PSoC4/BLE_eventHandler.c **** #endif /* CYBLE_PASS_CLIENT */
 654:.\Generated_Source\PSoC4/BLE_eventHandler.c **** 
 655:.\Generated_Source\PSoC4/BLE_eventHandler.c **** #ifdef CYBLE_RSCS_CLIENT
 656:.\Generated_Source\PSoC4/BLE_eventHandler.c ****     if((cyBle_eventHandlerFlag & CYBLE_CALLBACK) != 0u)
 657:.\Generated_Source\PSoC4/BLE_eventHandler.c ****     {
 658:.\Generated_Source\PSoC4/BLE_eventHandler.c ****         CyBle_RscscWriteResponseEventHandler(eventParam);
 659:.\Generated_Source\PSoC4/BLE_eventHandler.c ****     }
 660:.\Generated_Source\PSoC4/BLE_eventHandler.c **** #endif /* CYBLE_RSCS_CLIENT */
ARM GAS  C:\Users\Petro\AppData\Local\Temp\cclwd5AX.s 			page 13


 661:.\Generated_Source\PSoC4/BLE_eventHandler.c **** 
 662:.\Generated_Source\PSoC4/BLE_eventHandler.c **** #ifdef CYBLE_SCPS_CLIENT
 663:.\Generated_Source\PSoC4/BLE_eventHandler.c ****     if((cyBle_eventHandlerFlag & CYBLE_CALLBACK) != 0u)
 664:.\Generated_Source\PSoC4/BLE_eventHandler.c ****     {
 665:.\Generated_Source\PSoC4/BLE_eventHandler.c ****         CyBle_ScpscWriteResponseEventHandler(eventParam);
 666:.\Generated_Source\PSoC4/BLE_eventHandler.c ****     }
 667:.\Generated_Source\PSoC4/BLE_eventHandler.c **** #endif /* CYBLE_SCPS_CLIENT */
 668:.\Generated_Source\PSoC4/BLE_eventHandler.c **** 
 669:.\Generated_Source\PSoC4/BLE_eventHandler.c **** #ifdef CYBLE_TPS_CLIENT
 670:.\Generated_Source\PSoC4/BLE_eventHandler.c ****     if((cyBle_eventHandlerFlag & CYBLE_CALLBACK) != 0u)
 671:.\Generated_Source\PSoC4/BLE_eventHandler.c ****     {
 672:.\Generated_Source\PSoC4/BLE_eventHandler.c ****         CyBle_TpscWriteResponseEventHandler(eventParam);
 673:.\Generated_Source\PSoC4/BLE_eventHandler.c ****     }
 674:.\Generated_Source\PSoC4/BLE_eventHandler.c **** #endif /* CYBLE_TPS_CLIENT */
 675:.\Generated_Source\PSoC4/BLE_eventHandler.c **** 
 676:.\Generated_Source\PSoC4/BLE_eventHandler.c **** #ifdef CYBLE_UDS_CLIENT
 677:.\Generated_Source\PSoC4/BLE_eventHandler.c ****     if((cyBle_eventHandlerFlag & CYBLE_CALLBACK) != 0u)
 678:.\Generated_Source\PSoC4/BLE_eventHandler.c ****     {
 679:.\Generated_Source\PSoC4/BLE_eventHandler.c ****         CyBle_UdscWriteResponseEventHandler(eventParam);
 680:.\Generated_Source\PSoC4/BLE_eventHandler.c ****     }
 681:.\Generated_Source\PSoC4/BLE_eventHandler.c **** #endif /* CYBLE_UDS_CLIENT */
 682:.\Generated_Source\PSoC4/BLE_eventHandler.c **** #ifdef CYBLE_WPTS_CLIENT
 683:.\Generated_Source\PSoC4/BLE_eventHandler.c ****     if((cyBle_eventHandlerFlag & CYBLE_CALLBACK) != 0u)
 684:.\Generated_Source\PSoC4/BLE_eventHandler.c ****     {
 685:.\Generated_Source\PSoC4/BLE_eventHandler.c ****         CyBle_WptscWriteResponseEventHandler(eventParam);
 686:.\Generated_Source\PSoC4/BLE_eventHandler.c ****     }
 687:.\Generated_Source\PSoC4/BLE_eventHandler.c **** #endif /* CYBLE_WPTS_CLIENT */
 688:.\Generated_Source\PSoC4/BLE_eventHandler.c **** #ifdef CYBLE_WSS_CLIENT
 689:.\Generated_Source\PSoC4/BLE_eventHandler.c ****     if((cyBle_eventHandlerFlag & CYBLE_CALLBACK) != 0u)
 690:.\Generated_Source\PSoC4/BLE_eventHandler.c ****     {
 691:.\Generated_Source\PSoC4/BLE_eventHandler.c ****         CyBle_WsscWriteResponseEventHandler(eventParam);
 692:.\Generated_Source\PSoC4/BLE_eventHandler.c ****     }
 693:.\Generated_Source\PSoC4/BLE_eventHandler.c **** #endif /* CYBLE_WSS_CLIENT */
 694:.\Generated_Source\PSoC4/BLE_eventHandler.c **** }
 695:.\Generated_Source\PSoC4/BLE_eventHandler.c **** 
 696:.\Generated_Source\PSoC4/BLE_eventHandler.c **** 
 697:.\Generated_Source\PSoC4/BLE_eventHandler.c **** /******************************************************************************    
 698:.\Generated_Source\PSoC4/BLE_eventHandler.c **** * Function Name: CyBle_NotificationEventHandler
 699:.\Generated_Source\PSoC4/BLE_eventHandler.c **** ***************************************************************************//**
 700:.\Generated_Source\PSoC4/BLE_eventHandler.c **** * 
 701:.\Generated_Source\PSoC4/BLE_eventHandler.c **** *  Handles the Notification event from BLE stack.
 702:.\Generated_Source\PSoC4/BLE_eventHandler.c **** * 
 703:.\Generated_Source\PSoC4/BLE_eventHandler.c **** *  \param eventParam: event parameter
 704:.\Generated_Source\PSoC4/BLE_eventHandler.c **** * 
 705:.\Generated_Source\PSoC4/BLE_eventHandler.c **** * \return
 706:.\Generated_Source\PSoC4/BLE_eventHandler.c **** *  None
 707:.\Generated_Source\PSoC4/BLE_eventHandler.c **** * 
 708:.\Generated_Source\PSoC4/BLE_eventHandler.c **** ******************************************************************************/
 709:.\Generated_Source\PSoC4/BLE_eventHandler.c **** static void CyBle_NotificationEventHandler(CYBLE_GATTC_HANDLE_VALUE_NTF_PARAM_T *eventParam)
 710:.\Generated_Source\PSoC4/BLE_eventHandler.c **** {
 711:.\Generated_Source\PSoC4/BLE_eventHandler.c **** #ifdef CYBLE_ANCS_CLIENT
 712:.\Generated_Source\PSoC4/BLE_eventHandler.c ****     CyBle_AncscNotificationEventHandler(eventParam);
 713:.\Generated_Source\PSoC4/BLE_eventHandler.c **** #endif /* CYBLE_ANCS_CLIENT */
 714:.\Generated_Source\PSoC4/BLE_eventHandler.c **** #ifdef CYBLE_ANS_CLIENT
 715:.\Generated_Source\PSoC4/BLE_eventHandler.c ****     if((cyBle_eventHandlerFlag & CYBLE_CALLBACK) != 0u)
 716:.\Generated_Source\PSoC4/BLE_eventHandler.c ****     {
 717:.\Generated_Source\PSoC4/BLE_eventHandler.c ****         CyBle_AnscNotificationEventHandler(eventParam);
ARM GAS  C:\Users\Petro\AppData\Local\Temp\cclwd5AX.s 			page 14


 718:.\Generated_Source\PSoC4/BLE_eventHandler.c ****     }
 719:.\Generated_Source\PSoC4/BLE_eventHandler.c **** #endif /* CYBLE_ANS_CLIENT */
 720:.\Generated_Source\PSoC4/BLE_eventHandler.c **** #ifdef CYBLE_BAS_CLIENT
 721:.\Generated_Source\PSoC4/BLE_eventHandler.c ****     if((cyBle_eventHandlerFlag & CYBLE_CALLBACK) != 0u)
 722:.\Generated_Source\PSoC4/BLE_eventHandler.c ****     {
 723:.\Generated_Source\PSoC4/BLE_eventHandler.c ****         CyBle_BascNotificationEventHandler(eventParam);
 724:.\Generated_Source\PSoC4/BLE_eventHandler.c ****     }
 725:.\Generated_Source\PSoC4/BLE_eventHandler.c **** #endif /* CYBLE_BAS_CLIENT */
 726:.\Generated_Source\PSoC4/BLE_eventHandler.c **** #ifdef CYBLE_BLS_CLIENT
 727:.\Generated_Source\PSoC4/BLE_eventHandler.c ****     if((cyBle_eventHandlerFlag & CYBLE_CALLBACK) != 0u)
 728:.\Generated_Source\PSoC4/BLE_eventHandler.c ****     {
 729:.\Generated_Source\PSoC4/BLE_eventHandler.c ****         CyBle_BlscNotificationEventHandler(eventParam);
 730:.\Generated_Source\PSoC4/BLE_eventHandler.c ****     }
 731:.\Generated_Source\PSoC4/BLE_eventHandler.c **** #endif /* CYBLE_BLS_CLIENT */
 732:.\Generated_Source\PSoC4/BLE_eventHandler.c **** #ifdef CYBLE_CGMS_CLIENT
 733:.\Generated_Source\PSoC4/BLE_eventHandler.c ****     if((cyBle_eventHandlerFlag & CYBLE_CALLBACK) != 0u)
 734:.\Generated_Source\PSoC4/BLE_eventHandler.c ****     {
 735:.\Generated_Source\PSoC4/BLE_eventHandler.c ****         CyBle_CgmscNotificationEventHandler(eventParam);
 736:.\Generated_Source\PSoC4/BLE_eventHandler.c ****     }
 737:.\Generated_Source\PSoC4/BLE_eventHandler.c **** #endif /* CYBLE_CGMS_CLIENT */
 738:.\Generated_Source\PSoC4/BLE_eventHandler.c **** #ifdef CYBLE_CPS_CLIENT
 739:.\Generated_Source\PSoC4/BLE_eventHandler.c ****     if((cyBle_eventHandlerFlag & CYBLE_CALLBACK) != 0u)
 740:.\Generated_Source\PSoC4/BLE_eventHandler.c ****     {
 741:.\Generated_Source\PSoC4/BLE_eventHandler.c ****         CyBle_CpscNotificationEventHandler(eventParam);
 742:.\Generated_Source\PSoC4/BLE_eventHandler.c ****     }
 743:.\Generated_Source\PSoC4/BLE_eventHandler.c **** #endif /* CYBLE_CPS_CLIENT */
 744:.\Generated_Source\PSoC4/BLE_eventHandler.c **** #ifdef CYBLE_CSCS_CLIENT
 745:.\Generated_Source\PSoC4/BLE_eventHandler.c ****     if((cyBle_eventHandlerFlag & CYBLE_CALLBACK) != 0u)
 746:.\Generated_Source\PSoC4/BLE_eventHandler.c ****     {
 747:.\Generated_Source\PSoC4/BLE_eventHandler.c ****         CyBle_CscscNotificationEventHandler(eventParam);
 748:.\Generated_Source\PSoC4/BLE_eventHandler.c ****     }
 749:.\Generated_Source\PSoC4/BLE_eventHandler.c **** #endif /* CYBLE_CSCS_CLIENT */
 750:.\Generated_Source\PSoC4/BLE_eventHandler.c **** #ifdef CYBLE_CTS_CLIENT
 751:.\Generated_Source\PSoC4/BLE_eventHandler.c ****     if((cyBle_eventHandlerFlag & CYBLE_CALLBACK) != 0u)
 752:.\Generated_Source\PSoC4/BLE_eventHandler.c ****     {
 753:.\Generated_Source\PSoC4/BLE_eventHandler.c ****         CyBle_CtscNotificationEventHandler(eventParam);
 754:.\Generated_Source\PSoC4/BLE_eventHandler.c ****     }
 755:.\Generated_Source\PSoC4/BLE_eventHandler.c **** #endif /* CYBLE_CTS_CLIENT */
 756:.\Generated_Source\PSoC4/BLE_eventHandler.c **** #ifdef CYBLE_ESS_CLIENT
 757:.\Generated_Source\PSoC4/BLE_eventHandler.c ****     if((cyBle_eventHandlerFlag & CYBLE_CALLBACK) != 0u)
 758:.\Generated_Source\PSoC4/BLE_eventHandler.c ****     {
 759:.\Generated_Source\PSoC4/BLE_eventHandler.c ****         CyBle_EsscNotificationEventHandler(eventParam);
 760:.\Generated_Source\PSoC4/BLE_eventHandler.c ****     }
 761:.\Generated_Source\PSoC4/BLE_eventHandler.c **** #endif /* CYBLE_ESS_CLIENT */
 762:.\Generated_Source\PSoC4/BLE_eventHandler.c **** #ifdef CYBLE_GLS_CLIENT
 763:.\Generated_Source\PSoC4/BLE_eventHandler.c ****     if((cyBle_eventHandlerFlag & CYBLE_CALLBACK) != 0u)
 764:.\Generated_Source\PSoC4/BLE_eventHandler.c ****     {
 765:.\Generated_Source\PSoC4/BLE_eventHandler.c ****         CyBle_GlscNotificationEventHandler(eventParam);
 766:.\Generated_Source\PSoC4/BLE_eventHandler.c ****     }
 767:.\Generated_Source\PSoC4/BLE_eventHandler.c **** #endif /* CYBLE_GLS_CLIENT */
 768:.\Generated_Source\PSoC4/BLE_eventHandler.c **** #ifdef CYBLE_HIDS_CLIENT
 769:.\Generated_Source\PSoC4/BLE_eventHandler.c ****     if((cyBle_eventHandlerFlag & CYBLE_CALLBACK) != 0u)
 770:.\Generated_Source\PSoC4/BLE_eventHandler.c ****     {
 771:.\Generated_Source\PSoC4/BLE_eventHandler.c ****         CyBle_HidscNotificationEventHandler(eventParam);
 772:.\Generated_Source\PSoC4/BLE_eventHandler.c ****     }
 773:.\Generated_Source\PSoC4/BLE_eventHandler.c **** #endif /* CYBLE_HIDS_CLIENT */
 774:.\Generated_Source\PSoC4/BLE_eventHandler.c **** #ifdef CYBLE_HRS_CLIENT
ARM GAS  C:\Users\Petro\AppData\Local\Temp\cclwd5AX.s 			page 15


 775:.\Generated_Source\PSoC4/BLE_eventHandler.c ****     if((cyBle_eventHandlerFlag & CYBLE_CALLBACK) != 0u)
 776:.\Generated_Source\PSoC4/BLE_eventHandler.c ****     {
 777:.\Generated_Source\PSoC4/BLE_eventHandler.c ****         CyBle_HrscNotificationEventHandler(eventParam);
 778:.\Generated_Source\PSoC4/BLE_eventHandler.c ****     }
 779:.\Generated_Source\PSoC4/BLE_eventHandler.c **** #endif /* CYBLE_HRS_CLIENT */
 780:.\Generated_Source\PSoC4/BLE_eventHandler.c **** #ifdef CYBLE_HTS_CLIENT
 781:.\Generated_Source\PSoC4/BLE_eventHandler.c ****     if((cyBle_eventHandlerFlag & CYBLE_CALLBACK) != 0u)
 782:.\Generated_Source\PSoC4/BLE_eventHandler.c ****     {
 783:.\Generated_Source\PSoC4/BLE_eventHandler.c ****         CyBle_HtscNotificationEventHandler(eventParam);
 784:.\Generated_Source\PSoC4/BLE_eventHandler.c ****     }
 785:.\Generated_Source\PSoC4/BLE_eventHandler.c **** #endif /* CYBLE_HTS_CLIENT */
 786:.\Generated_Source\PSoC4/BLE_eventHandler.c **** #ifdef CYBLE_LNS_CLIENT
 787:.\Generated_Source\PSoC4/BLE_eventHandler.c ****     if((cyBle_eventHandlerFlag & CYBLE_CALLBACK) != 0u)
 788:.\Generated_Source\PSoC4/BLE_eventHandler.c ****     {
 789:.\Generated_Source\PSoC4/BLE_eventHandler.c ****         CyBle_LnscNotificationEventHandler(eventParam);
 790:.\Generated_Source\PSoC4/BLE_eventHandler.c ****     }
 791:.\Generated_Source\PSoC4/BLE_eventHandler.c **** #endif /* CYBLE_LNS_CLIENT */
 792:.\Generated_Source\PSoC4/BLE_eventHandler.c **** #ifdef CYBLE_PASS_CLIENT
 793:.\Generated_Source\PSoC4/BLE_eventHandler.c ****     if((cyBle_eventHandlerFlag & CYBLE_CALLBACK) != 0u)
 794:.\Generated_Source\PSoC4/BLE_eventHandler.c ****     {
 795:.\Generated_Source\PSoC4/BLE_eventHandler.c ****         CyBle_PasscNotificationEventHandler(eventParam);
 796:.\Generated_Source\PSoC4/BLE_eventHandler.c ****     }
 797:.\Generated_Source\PSoC4/BLE_eventHandler.c **** #endif /* CYBLE_PASS_CLIENT */
 798:.\Generated_Source\PSoC4/BLE_eventHandler.c **** #ifdef CYBLE_RSCS_CLIENT
 799:.\Generated_Source\PSoC4/BLE_eventHandler.c ****     if((cyBle_eventHandlerFlag & CYBLE_CALLBACK) != 0u)
 800:.\Generated_Source\PSoC4/BLE_eventHandler.c ****     {
 801:.\Generated_Source\PSoC4/BLE_eventHandler.c ****         CyBle_RscscNotificationEventHandler(eventParam);
 802:.\Generated_Source\PSoC4/BLE_eventHandler.c ****     }
 803:.\Generated_Source\PSoC4/BLE_eventHandler.c **** #endif /* CYBLE_RSCS_CLIENT */
 804:.\Generated_Source\PSoC4/BLE_eventHandler.c **** #ifdef CYBLE_SCPS_CLIENT
 805:.\Generated_Source\PSoC4/BLE_eventHandler.c ****     if((cyBle_eventHandlerFlag & CYBLE_CALLBACK) != 0u)
 806:.\Generated_Source\PSoC4/BLE_eventHandler.c ****     {
 807:.\Generated_Source\PSoC4/BLE_eventHandler.c ****         CyBle_ScpscNotificationEventHandler(eventParam);
 808:.\Generated_Source\PSoC4/BLE_eventHandler.c ****     }
 809:.\Generated_Source\PSoC4/BLE_eventHandler.c **** #endif /* CYBLE_SCPS_CLIENT */
 810:.\Generated_Source\PSoC4/BLE_eventHandler.c **** #ifdef CYBLE_TPS_CLIENT
 811:.\Generated_Source\PSoC4/BLE_eventHandler.c ****     if((cyBle_eventHandlerFlag & CYBLE_CALLBACK) != 0u)
 812:.\Generated_Source\PSoC4/BLE_eventHandler.c ****     {
 813:.\Generated_Source\PSoC4/BLE_eventHandler.c ****         CyBle_TpscNotificationEventHandler(eventParam);
 814:.\Generated_Source\PSoC4/BLE_eventHandler.c ****     }
 815:.\Generated_Source\PSoC4/BLE_eventHandler.c **** #endif /* CYBLE_TPS_CLIENT */
 816:.\Generated_Source\PSoC4/BLE_eventHandler.c **** #ifdef CYBLE_UDS_CLIENT
 817:.\Generated_Source\PSoC4/BLE_eventHandler.c ****     if((cyBle_eventHandlerFlag & CYBLE_CALLBACK) != 0u)
 818:.\Generated_Source\PSoC4/BLE_eventHandler.c ****     {
 819:.\Generated_Source\PSoC4/BLE_eventHandler.c ****         CyBle_UdscNotificationEventHandler(eventParam);
 820:.\Generated_Source\PSoC4/BLE_eventHandler.c ****     }
 821:.\Generated_Source\PSoC4/BLE_eventHandler.c **** #endif /* CYBLE_UDS_CLIENT */
 822:.\Generated_Source\PSoC4/BLE_eventHandler.c **** #ifdef CYBLE_WPTS_CLIENT
 823:.\Generated_Source\PSoC4/BLE_eventHandler.c ****     if((cyBle_eventHandlerFlag & CYBLE_CALLBACK) != 0u)
 824:.\Generated_Source\PSoC4/BLE_eventHandler.c ****     {
 825:.\Generated_Source\PSoC4/BLE_eventHandler.c ****         CyBle_WptscNotificationEventHandler(eventParam);
 826:.\Generated_Source\PSoC4/BLE_eventHandler.c ****     }
 827:.\Generated_Source\PSoC4/BLE_eventHandler.c **** #endif /* CYBLE_WPTS_CLIENT */
 828:.\Generated_Source\PSoC4/BLE_eventHandler.c **** }
 829:.\Generated_Source\PSoC4/BLE_eventHandler.c **** 
 830:.\Generated_Source\PSoC4/BLE_eventHandler.c **** 
 831:.\Generated_Source\PSoC4/BLE_eventHandler.c **** /******************************************************************************    
ARM GAS  C:\Users\Petro\AppData\Local\Temp\cclwd5AX.s 			page 16


 832:.\Generated_Source\PSoC4/BLE_eventHandler.c **** * Function Name: CyBle_IndicationEventHandler
 833:.\Generated_Source\PSoC4/BLE_eventHandler.c **** ***************************************************************************//**
 834:.\Generated_Source\PSoC4/BLE_eventHandler.c **** * 
 835:.\Generated_Source\PSoC4/BLE_eventHandler.c **** *  Handles the Indication event from BLE stack.
 836:.\Generated_Source\PSoC4/BLE_eventHandler.c **** * 
 837:.\Generated_Source\PSoC4/BLE_eventHandler.c **** *  \param eventParam: event parameter
 838:.\Generated_Source\PSoC4/BLE_eventHandler.c **** * 
 839:.\Generated_Source\PSoC4/BLE_eventHandler.c **** * \return
 840:.\Generated_Source\PSoC4/BLE_eventHandler.c **** *  None
 841:.\Generated_Source\PSoC4/BLE_eventHandler.c **** * 
 842:.\Generated_Source\PSoC4/BLE_eventHandler.c **** ******************************************************************************/
 843:.\Generated_Source\PSoC4/BLE_eventHandler.c **** static void CyBle_IndicationEventHandler(CYBLE_GATTC_HANDLE_VALUE_IND_PARAM_T *eventParam)
 844:.\Generated_Source\PSoC4/BLE_eventHandler.c **** {
 845:.\Generated_Source\PSoC4/BLE_eventHandler.c **** #ifdef CYBLE_BCS_CLIENT
 846:.\Generated_Source\PSoC4/BLE_eventHandler.c ****     if((cyBle_eventHandlerFlag & CYBLE_CALLBACK) != 0u)
 847:.\Generated_Source\PSoC4/BLE_eventHandler.c ****     {
 848:.\Generated_Source\PSoC4/BLE_eventHandler.c ****         CyBle_BcscIndicationEventHandler(eventParam);
 849:.\Generated_Source\PSoC4/BLE_eventHandler.c ****     }
 850:.\Generated_Source\PSoC4/BLE_eventHandler.c **** #endif /* CYBLE_BCS_CLIENT */
 851:.\Generated_Source\PSoC4/BLE_eventHandler.c **** #ifdef CYBLE_BLS_CLIENT
 852:.\Generated_Source\PSoC4/BLE_eventHandler.c ****     if((cyBle_eventHandlerFlag & CYBLE_CALLBACK) != 0u)
 853:.\Generated_Source\PSoC4/BLE_eventHandler.c ****     {
 854:.\Generated_Source\PSoC4/BLE_eventHandler.c ****         CyBle_BlscIndicationEventHandler(eventParam);
 855:.\Generated_Source\PSoC4/BLE_eventHandler.c ****     }
 856:.\Generated_Source\PSoC4/BLE_eventHandler.c **** #endif /* CYBLE_BLS_CLIENT */
 857:.\Generated_Source\PSoC4/BLE_eventHandler.c **** #ifdef CYBLE_CGMS_CLIENT
 858:.\Generated_Source\PSoC4/BLE_eventHandler.c ****     if((cyBle_eventHandlerFlag & CYBLE_CALLBACK) != 0u)
 859:.\Generated_Source\PSoC4/BLE_eventHandler.c ****     {
 860:.\Generated_Source\PSoC4/BLE_eventHandler.c ****         CyBle_CgmscIndicationEventHandler(eventParam);
 861:.\Generated_Source\PSoC4/BLE_eventHandler.c ****     }
 862:.\Generated_Source\PSoC4/BLE_eventHandler.c **** #endif /* CYBLE_CGMS_CLIENT */
 863:.\Generated_Source\PSoC4/BLE_eventHandler.c **** #ifdef CYBLE_CPS_CLIENT
 864:.\Generated_Source\PSoC4/BLE_eventHandler.c ****     if((cyBle_eventHandlerFlag & CYBLE_CALLBACK) != 0u)
 865:.\Generated_Source\PSoC4/BLE_eventHandler.c ****     {
 866:.\Generated_Source\PSoC4/BLE_eventHandler.c ****         CyBle_CpscIndicationEventHandler(eventParam);
 867:.\Generated_Source\PSoC4/BLE_eventHandler.c ****     }
 868:.\Generated_Source\PSoC4/BLE_eventHandler.c **** #endif /* CYBLE_CPS_CLIENT */
 869:.\Generated_Source\PSoC4/BLE_eventHandler.c **** #ifdef CYBLE_CSCS_CLIENT
 870:.\Generated_Source\PSoC4/BLE_eventHandler.c ****     if((cyBle_eventHandlerFlag & CYBLE_CALLBACK) != 0u)
 871:.\Generated_Source\PSoC4/BLE_eventHandler.c ****     {
 872:.\Generated_Source\PSoC4/BLE_eventHandler.c ****         CyBle_CscscIndicationEventHandler(eventParam);
 873:.\Generated_Source\PSoC4/BLE_eventHandler.c ****     }
 874:.\Generated_Source\PSoC4/BLE_eventHandler.c **** #endif /* CYBLE_CSCS_CLIENT */
 875:.\Generated_Source\PSoC4/BLE_eventHandler.c **** #ifdef CYBLE_ESS_CLIENT
 876:.\Generated_Source\PSoC4/BLE_eventHandler.c ****     if((cyBle_eventHandlerFlag & CYBLE_CALLBACK) != 0u)
 877:.\Generated_Source\PSoC4/BLE_eventHandler.c ****     {
 878:.\Generated_Source\PSoC4/BLE_eventHandler.c ****         CyBle_EsscIndicationEventHandler(eventParam);
 879:.\Generated_Source\PSoC4/BLE_eventHandler.c ****     }
 880:.\Generated_Source\PSoC4/BLE_eventHandler.c **** #endif /* CYBLE_ESS_CLIENT */
 881:.\Generated_Source\PSoC4/BLE_eventHandler.c **** #ifdef CYBLE_GLS_CLIENT
 882:.\Generated_Source\PSoC4/BLE_eventHandler.c ****     if((cyBle_eventHandlerFlag & CYBLE_CALLBACK) != 0u)
 883:.\Generated_Source\PSoC4/BLE_eventHandler.c ****     {
 884:.\Generated_Source\PSoC4/BLE_eventHandler.c ****         CyBle_GlscIndicationEventHandler(eventParam);
 885:.\Generated_Source\PSoC4/BLE_eventHandler.c ****     }
 886:.\Generated_Source\PSoC4/BLE_eventHandler.c **** #endif /* CYBLE_GLS_CLIENT */
 887:.\Generated_Source\PSoC4/BLE_eventHandler.c **** #ifdef CYBLE_HTS_CLIENT
 888:.\Generated_Source\PSoC4/BLE_eventHandler.c ****     if((cyBle_eventHandlerFlag & CYBLE_CALLBACK) != 0u)
ARM GAS  C:\Users\Petro\AppData\Local\Temp\cclwd5AX.s 			page 17


 889:.\Generated_Source\PSoC4/BLE_eventHandler.c ****     {
 890:.\Generated_Source\PSoC4/BLE_eventHandler.c ****         CyBle_HtscIndicationEventHandler(eventParam);
 891:.\Generated_Source\PSoC4/BLE_eventHandler.c ****     }
 892:.\Generated_Source\PSoC4/BLE_eventHandler.c **** #endif /* CYBLE_HTS_CLIENT */
 893:.\Generated_Source\PSoC4/BLE_eventHandler.c **** #ifdef CYBLE_LNS_CLIENT
 894:.\Generated_Source\PSoC4/BLE_eventHandler.c ****     if((cyBle_eventHandlerFlag & CYBLE_CALLBACK) != 0u)
 895:.\Generated_Source\PSoC4/BLE_eventHandler.c ****     {
 896:.\Generated_Source\PSoC4/BLE_eventHandler.c ****         CyBle_LnscIndicationEventHandler(eventParam);
 897:.\Generated_Source\PSoC4/BLE_eventHandler.c ****     }
 898:.\Generated_Source\PSoC4/BLE_eventHandler.c **** #endif /* CYBLE_LNS_CLIENT */
 899:.\Generated_Source\PSoC4/BLE_eventHandler.c **** #ifdef CYBLE_RSCS_CLIENT
 900:.\Generated_Source\PSoC4/BLE_eventHandler.c ****     if((cyBle_eventHandlerFlag & CYBLE_CALLBACK) != 0u)
 901:.\Generated_Source\PSoC4/BLE_eventHandler.c ****     {
 902:.\Generated_Source\PSoC4/BLE_eventHandler.c ****         CyBle_RscscIndicationEventHandler(eventParam);
 903:.\Generated_Source\PSoC4/BLE_eventHandler.c ****     }
 904:.\Generated_Source\PSoC4/BLE_eventHandler.c **** #endif /* CYBLE_RSCS_CLIENT */
 905:.\Generated_Source\PSoC4/BLE_eventHandler.c **** #ifdef CYBLE_UDS_CLIENT
 906:.\Generated_Source\PSoC4/BLE_eventHandler.c ****     if((cyBle_eventHandlerFlag & CYBLE_CALLBACK) != 0u)
 907:.\Generated_Source\PSoC4/BLE_eventHandler.c ****     {
 908:.\Generated_Source\PSoC4/BLE_eventHandler.c ****         CyBle_UdscIndicationEventHandler(eventParam);
 909:.\Generated_Source\PSoC4/BLE_eventHandler.c ****     }
 910:.\Generated_Source\PSoC4/BLE_eventHandler.c **** #endif /* CYBLE_UDS_CLIENT */
 911:.\Generated_Source\PSoC4/BLE_eventHandler.c **** #ifdef CYBLE_WPTS_CLIENT
 912:.\Generated_Source\PSoC4/BLE_eventHandler.c ****     if((cyBle_eventHandlerFlag & CYBLE_CALLBACK) != 0u)
 913:.\Generated_Source\PSoC4/BLE_eventHandler.c ****     {
 914:.\Generated_Source\PSoC4/BLE_eventHandler.c ****         CyBle_WptscIndicationEventHandler(eventParam);
 915:.\Generated_Source\PSoC4/BLE_eventHandler.c ****     }
 916:.\Generated_Source\PSoC4/BLE_eventHandler.c **** #endif /* CYBLE_WPTS_CLIENT */
 917:.\Generated_Source\PSoC4/BLE_eventHandler.c **** #ifdef CYBLE_WSS_CLIENT
 918:.\Generated_Source\PSoC4/BLE_eventHandler.c ****     if((cyBle_eventHandlerFlag & CYBLE_CALLBACK) != 0u)
 919:.\Generated_Source\PSoC4/BLE_eventHandler.c ****     {
 920:.\Generated_Source\PSoC4/BLE_eventHandler.c ****         CyBle_WsscIndicationEventHandler(eventParam);
 921:.\Generated_Source\PSoC4/BLE_eventHandler.c ****     }
 922:.\Generated_Source\PSoC4/BLE_eventHandler.c **** #endif /* CYBLE_WSS_CLIENT */
 923:.\Generated_Source\PSoC4/BLE_eventHandler.c **** }
 924:.\Generated_Source\PSoC4/BLE_eventHandler.c **** 
 925:.\Generated_Source\PSoC4/BLE_eventHandler.c **** 
 926:.\Generated_Source\PSoC4/BLE_eventHandler.c **** 
 927:.\Generated_Source\PSoC4/BLE_eventHandler.c **** /******************************************************************************    
 928:.\Generated_Source\PSoC4/BLE_eventHandler.c **** * Function Name: CyBle_ReadResponseEventHandler
 929:.\Generated_Source\PSoC4/BLE_eventHandler.c **** ***************************************************************************//**
 930:.\Generated_Source\PSoC4/BLE_eventHandler.c **** * 
 931:.\Generated_Source\PSoC4/BLE_eventHandler.c **** *  Handles the Read Response event from BLE stack.
 932:.\Generated_Source\PSoC4/BLE_eventHandler.c **** * 
 933:.\Generated_Source\PSoC4/BLE_eventHandler.c **** *  \param eventParam: event parameter
 934:.\Generated_Source\PSoC4/BLE_eventHandler.c **** * 
 935:.\Generated_Source\PSoC4/BLE_eventHandler.c **** * \return
 936:.\Generated_Source\PSoC4/BLE_eventHandler.c **** *  None
 937:.\Generated_Source\PSoC4/BLE_eventHandler.c **** * 
 938:.\Generated_Source\PSoC4/BLE_eventHandler.c **** ******************************************************************************/
 939:.\Generated_Source\PSoC4/BLE_eventHandler.c **** static void CyBle_ReadResponseEventHandler(CYBLE_GATTC_READ_RSP_PARAM_T *eventParam)
 940:.\Generated_Source\PSoC4/BLE_eventHandler.c **** {
 941:.\Generated_Source\PSoC4/BLE_eventHandler.c **** #ifdef CYBLE_CUSTOM_CLIENT
 942:.\Generated_Source\PSoC4/BLE_eventHandler.c ****     /* Read response with 128-bit included service uuid */
 943:.\Generated_Source\PSoC4/BLE_eventHandler.c ****     if((CYBLE_CLIENT_STATE_INCL_DISCOVERING == CyBle_GetClientState()) &&
 944:.\Generated_Source\PSoC4/BLE_eventHandler.c ****        (cyBle_discInclInfo.inclDefHandle != 0u))
 945:.\Generated_Source\PSoC4/BLE_eventHandler.c ****     {
ARM GAS  C:\Users\Petro\AppData\Local\Temp\cclwd5AX.s 			page 18


 946:.\Generated_Source\PSoC4/BLE_eventHandler.c ****         CYBLE_DISC_SRVC128_INFO_T discServInfo;
 947:.\Generated_Source\PSoC4/BLE_eventHandler.c **** 
 948:.\Generated_Source\PSoC4/BLE_eventHandler.c ****         /* Store service range */
 949:.\Generated_Source\PSoC4/BLE_eventHandler.c ****         discServInfo.range = cyBle_discInclInfo.inclHandleRange;
 950:.\Generated_Source\PSoC4/BLE_eventHandler.c ****         (void)memcpy((void *) discServInfo.uuid.uuid128.value, (void *)eventParam->value.val, event
 951:.\Generated_Source\PSoC4/BLE_eventHandler.c ****         CyBle_CustomcDiscoverServiceEventHandler(&discServInfo);
 952:.\Generated_Source\PSoC4/BLE_eventHandler.c ****         
 953:.\Generated_Source\PSoC4/BLE_eventHandler.c ****         /* Re-initiate CyBle_GattcFindIncludedServices function, setting the start
 954:.\Generated_Source\PSoC4/BLE_eventHandler.c ****            handle to the attribute handle which is placed next to the one used in
 955:.\Generated_Source\PSoC4/BLE_eventHandler.c ****            the above step.
 956:.\Generated_Source\PSoC4/BLE_eventHandler.c ****         */
 957:.\Generated_Source\PSoC4/BLE_eventHandler.c ****         discServInfo.range.startHandle = cyBle_discInclInfo.inclDefHandle + 1;
 958:.\Generated_Source\PSoC4/BLE_eventHandler.c ****         discServInfo.range.endHandle = cyBle_serverInfo[cyBle_disCount].range.endHandle;
 959:.\Generated_Source\PSoC4/BLE_eventHandler.c ****         if(discServInfo.range.startHandle <= discServInfo.range.endHandle)
 960:.\Generated_Source\PSoC4/BLE_eventHandler.c ****         {
 961:.\Generated_Source\PSoC4/BLE_eventHandler.c ****             if(CYBLE_ERROR_OK != CyBle_GattcFindIncludedServices(cyBle_connHandle, &discServInfo.ra
 962:.\Generated_Source\PSoC4/BLE_eventHandler.c ****             {
 963:.\Generated_Source\PSoC4/BLE_eventHandler.c ****                 CyBle_ApplCallback(CYBLE_EVT_GATTC_INCL_DISCOVERY_FAILED, NULL);
 964:.\Generated_Source\PSoC4/BLE_eventHandler.c ****                 cyBle_eventHandlerFlag &= (uint8)~CYBLE_AUTO_DISCOVERY;
 965:.\Generated_Source\PSoC4/BLE_eventHandler.c ****             }
 966:.\Generated_Source\PSoC4/BLE_eventHandler.c ****         }
 967:.\Generated_Source\PSoC4/BLE_eventHandler.c ****         else /* Continue discovery of the following service */
 968:.\Generated_Source\PSoC4/BLE_eventHandler.c ****         {
 969:.\Generated_Source\PSoC4/BLE_eventHandler.c ****             CyBle_NextInclDiscovery(CYBLE_DISCOVERY_CONTINUE);
 970:.\Generated_Source\PSoC4/BLE_eventHandler.c ****         }
 971:.\Generated_Source\PSoC4/BLE_eventHandler.c ****         
 972:.\Generated_Source\PSoC4/BLE_eventHandler.c ****         cyBle_eventHandlerFlag &= (uint8)~CYBLE_CALLBACK;
 973:.\Generated_Source\PSoC4/BLE_eventHandler.c ****         cyBle_discInclInfo.inclDefHandle = 0u;
 974:.\Generated_Source\PSoC4/BLE_eventHandler.c ****         
 975:.\Generated_Source\PSoC4/BLE_eventHandler.c ****     }
 976:.\Generated_Source\PSoC4/BLE_eventHandler.c **** #endif /* CYBLE_CUSTOM_CLIENT */
 977:.\Generated_Source\PSoC4/BLE_eventHandler.c **** #ifdef CYBLE_ANCS_CLIENT
 978:.\Generated_Source\PSoC4/BLE_eventHandler.c ****     if((cyBle_eventHandlerFlag & CYBLE_CALLBACK) != 0u)
 979:.\Generated_Source\PSoC4/BLE_eventHandler.c ****     {
 980:.\Generated_Source\PSoC4/BLE_eventHandler.c ****         CyBle_AncscReadResponseEventHandler(eventParam);
 981:.\Generated_Source\PSoC4/BLE_eventHandler.c ****     }
 982:.\Generated_Source\PSoC4/BLE_eventHandler.c **** #endif /* CYBLE_ANCS_CLIENT */
 983:.\Generated_Source\PSoC4/BLE_eventHandler.c **** #ifdef CYBLE_ANS_CLIENT
 984:.\Generated_Source\PSoC4/BLE_eventHandler.c ****     if((cyBle_eventHandlerFlag & CYBLE_CALLBACK) != 0u)
 985:.\Generated_Source\PSoC4/BLE_eventHandler.c ****     {
 986:.\Generated_Source\PSoC4/BLE_eventHandler.c ****         CyBle_AnscReadResponseEventHandler(eventParam);
 987:.\Generated_Source\PSoC4/BLE_eventHandler.c ****     }
 988:.\Generated_Source\PSoC4/BLE_eventHandler.c **** #endif /* CYBLE_ANS_CLIENT */
 989:.\Generated_Source\PSoC4/BLE_eventHandler.c **** #ifdef CYBLE_BAS_CLIENT
 990:.\Generated_Source\PSoC4/BLE_eventHandler.c ****     if((cyBle_eventHandlerFlag & CYBLE_CALLBACK) != 0u)
 991:.\Generated_Source\PSoC4/BLE_eventHandler.c ****     {
 992:.\Generated_Source\PSoC4/BLE_eventHandler.c ****         CyBle_BascReadResponseEventHandler(eventParam);
 993:.\Generated_Source\PSoC4/BLE_eventHandler.c ****     }
 994:.\Generated_Source\PSoC4/BLE_eventHandler.c **** #endif /* CYBLE_BAS_CLIENT */
 995:.\Generated_Source\PSoC4/BLE_eventHandler.c **** #ifdef CYBLE_BLS_CLIENT
 996:.\Generated_Source\PSoC4/BLE_eventHandler.c ****     if((cyBle_eventHandlerFlag & CYBLE_CALLBACK) != 0u)
 997:.\Generated_Source\PSoC4/BLE_eventHandler.c ****     {
 998:.\Generated_Source\PSoC4/BLE_eventHandler.c ****         CyBle_BlscReadResponseEventHandler(eventParam);
 999:.\Generated_Source\PSoC4/BLE_eventHandler.c ****     }
1000:.\Generated_Source\PSoC4/BLE_eventHandler.c **** #endif /* CYBLE_BLS_CLIENT */
1001:.\Generated_Source\PSoC4/BLE_eventHandler.c **** #ifdef CYBLE_BCS_CLIENT
1002:.\Generated_Source\PSoC4/BLE_eventHandler.c ****     if((cyBle_eventHandlerFlag & CYBLE_CALLBACK) != 0u)
ARM GAS  C:\Users\Petro\AppData\Local\Temp\cclwd5AX.s 			page 19


1003:.\Generated_Source\PSoC4/BLE_eventHandler.c ****     {
1004:.\Generated_Source\PSoC4/BLE_eventHandler.c ****         CyBle_BcscReadResponseEventHandler(eventParam);
1005:.\Generated_Source\PSoC4/BLE_eventHandler.c ****     }
1006:.\Generated_Source\PSoC4/BLE_eventHandler.c **** #endif /* CYBLE_BCS_CLIENT */
1007:.\Generated_Source\PSoC4/BLE_eventHandler.c **** #ifdef CYBLE_BMS_CLIENT
1008:.\Generated_Source\PSoC4/BLE_eventHandler.c ****     if((cyBle_eventHandlerFlag & CYBLE_CALLBACK) != 0u)
1009:.\Generated_Source\PSoC4/BLE_eventHandler.c ****     {
1010:.\Generated_Source\PSoC4/BLE_eventHandler.c ****         CyBle_BmscReadResponseEventHandler(eventParam);
1011:.\Generated_Source\PSoC4/BLE_eventHandler.c ****     }
1012:.\Generated_Source\PSoC4/BLE_eventHandler.c **** #endif /* CYBLE_BMS_CLIENT */
1013:.\Generated_Source\PSoC4/BLE_eventHandler.c **** #ifdef CYBLE_CGMS_CLIENT
1014:.\Generated_Source\PSoC4/BLE_eventHandler.c ****     if((cyBle_eventHandlerFlag & CYBLE_CALLBACK) != 0u)
1015:.\Generated_Source\PSoC4/BLE_eventHandler.c ****     {
1016:.\Generated_Source\PSoC4/BLE_eventHandler.c ****         CyBle_CgmscReadResponseEventHandler(eventParam);
1017:.\Generated_Source\PSoC4/BLE_eventHandler.c ****     }
1018:.\Generated_Source\PSoC4/BLE_eventHandler.c **** #endif /* CYBLE_CGMS_CLIENT */
1019:.\Generated_Source\PSoC4/BLE_eventHandler.c **** #ifdef CYBLE_CPS_CLIENT
1020:.\Generated_Source\PSoC4/BLE_eventHandler.c ****     if((cyBle_eventHandlerFlag & CYBLE_CALLBACK) != 0u)
1021:.\Generated_Source\PSoC4/BLE_eventHandler.c ****     {
1022:.\Generated_Source\PSoC4/BLE_eventHandler.c ****         CyBle_CpscReadResponseEventHandler(eventParam);
1023:.\Generated_Source\PSoC4/BLE_eventHandler.c ****     }
1024:.\Generated_Source\PSoC4/BLE_eventHandler.c **** #endif /* CYBLE_CPS_CLIENT */
1025:.\Generated_Source\PSoC4/BLE_eventHandler.c **** #ifdef CYBLE_CSCS_CLIENT
1026:.\Generated_Source\PSoC4/BLE_eventHandler.c ****     if((cyBle_eventHandlerFlag & CYBLE_CALLBACK) != 0u)
1027:.\Generated_Source\PSoC4/BLE_eventHandler.c ****     {
1028:.\Generated_Source\PSoC4/BLE_eventHandler.c ****         CyBle_CscscReadResponseEventHandler(eventParam);
1029:.\Generated_Source\PSoC4/BLE_eventHandler.c ****     }
1030:.\Generated_Source\PSoC4/BLE_eventHandler.c **** #endif /* CYBLE_CSCS_CLIENT */
1031:.\Generated_Source\PSoC4/BLE_eventHandler.c **** #ifdef CYBLE_CTS_CLIENT
1032:.\Generated_Source\PSoC4/BLE_eventHandler.c ****     if((cyBle_eventHandlerFlag & CYBLE_CALLBACK) != 0u)
1033:.\Generated_Source\PSoC4/BLE_eventHandler.c ****     {
1034:.\Generated_Source\PSoC4/BLE_eventHandler.c ****         CyBle_CtscReadResponseEventHandler(eventParam);
1035:.\Generated_Source\PSoC4/BLE_eventHandler.c ****     }
1036:.\Generated_Source\PSoC4/BLE_eventHandler.c **** #endif /* CYBLE_BAS_CLIENT */
1037:.\Generated_Source\PSoC4/BLE_eventHandler.c **** #ifdef CYBLE_DIS_CLIENT
1038:.\Generated_Source\PSoC4/BLE_eventHandler.c ****     if((cyBle_eventHandlerFlag & CYBLE_CALLBACK) != 0u)
1039:.\Generated_Source\PSoC4/BLE_eventHandler.c ****     {
1040:.\Generated_Source\PSoC4/BLE_eventHandler.c ****         CyBle_DiscReadResponseEventHandler(eventParam);
1041:.\Generated_Source\PSoC4/BLE_eventHandler.c ****     }
1042:.\Generated_Source\PSoC4/BLE_eventHandler.c **** #endif /* CYBLE_DIS_CLIENT */
1043:.\Generated_Source\PSoC4/BLE_eventHandler.c **** #ifdef CYBLE_ESS_CLIENT
1044:.\Generated_Source\PSoC4/BLE_eventHandler.c ****     if((cyBle_eventHandlerFlag & CYBLE_CALLBACK) != 0u)
1045:.\Generated_Source\PSoC4/BLE_eventHandler.c ****     {
1046:.\Generated_Source\PSoC4/BLE_eventHandler.c ****         CyBle_EsscReadResponseEventHandler(eventParam);
1047:.\Generated_Source\PSoC4/BLE_eventHandler.c ****     }
1048:.\Generated_Source\PSoC4/BLE_eventHandler.c **** #endif /* CYBLE_ESS_CLIENT */
1049:.\Generated_Source\PSoC4/BLE_eventHandler.c **** #ifdef CYBLE_GLS_CLIENT
1050:.\Generated_Source\PSoC4/BLE_eventHandler.c ****     if((cyBle_eventHandlerFlag & CYBLE_CALLBACK) != 0u)
1051:.\Generated_Source\PSoC4/BLE_eventHandler.c ****     {
1052:.\Generated_Source\PSoC4/BLE_eventHandler.c ****         CyBle_GlscReadResponseEventHandler(eventParam);
1053:.\Generated_Source\PSoC4/BLE_eventHandler.c ****     }
1054:.\Generated_Source\PSoC4/BLE_eventHandler.c **** #endif /* CYBLE_GLS_CLIENT */
1055:.\Generated_Source\PSoC4/BLE_eventHandler.c **** #ifdef CYBLE_HIDS_CLIENT
1056:.\Generated_Source\PSoC4/BLE_eventHandler.c ****     if((cyBle_eventHandlerFlag & CYBLE_CALLBACK) != 0u)
1057:.\Generated_Source\PSoC4/BLE_eventHandler.c ****     {
1058:.\Generated_Source\PSoC4/BLE_eventHandler.c ****         CyBle_HidscReadResponseEventHandler(eventParam);
1059:.\Generated_Source\PSoC4/BLE_eventHandler.c ****     }
ARM GAS  C:\Users\Petro\AppData\Local\Temp\cclwd5AX.s 			page 20


1060:.\Generated_Source\PSoC4/BLE_eventHandler.c **** #endif /* CYBLE_HIDS_CLIENT */
1061:.\Generated_Source\PSoC4/BLE_eventHandler.c **** #ifdef CYBLE_HRS_CLIENT
1062:.\Generated_Source\PSoC4/BLE_eventHandler.c ****     if((cyBle_eventHandlerFlag & CYBLE_CALLBACK) != 0u)
1063:.\Generated_Source\PSoC4/BLE_eventHandler.c ****     {
1064:.\Generated_Source\PSoC4/BLE_eventHandler.c ****         CyBle_HrscReadResponseEventHandler(eventParam);
1065:.\Generated_Source\PSoC4/BLE_eventHandler.c ****     }
1066:.\Generated_Source\PSoC4/BLE_eventHandler.c **** #endif /* CYBLE_HRS_CLIENT */
1067:.\Generated_Source\PSoC4/BLE_eventHandler.c **** #ifdef CYBLE_HTS_CLIENT
1068:.\Generated_Source\PSoC4/BLE_eventHandler.c ****     if((cyBle_eventHandlerFlag & CYBLE_CALLBACK) != 0u)
1069:.\Generated_Source\PSoC4/BLE_eventHandler.c ****     {
1070:.\Generated_Source\PSoC4/BLE_eventHandler.c ****         CyBle_HtscReadResponseEventHandler(eventParam);
1071:.\Generated_Source\PSoC4/BLE_eventHandler.c ****     }
1072:.\Generated_Source\PSoC4/BLE_eventHandler.c **** #endif /* CYBLE_HTS_CLIENT */
1073:.\Generated_Source\PSoC4/BLE_eventHandler.c **** #ifdef CYBLE_LLS_CLIENT
1074:.\Generated_Source\PSoC4/BLE_eventHandler.c ****     if((cyBle_eventHandlerFlag & CYBLE_CALLBACK) != 0u)
1075:.\Generated_Source\PSoC4/BLE_eventHandler.c ****     {
1076:.\Generated_Source\PSoC4/BLE_eventHandler.c ****         CyBle_LlscReadResponseEventHandler(eventParam);
1077:.\Generated_Source\PSoC4/BLE_eventHandler.c ****     }
1078:.\Generated_Source\PSoC4/BLE_eventHandler.c **** #endif /* CYBLE_LLS_CLIENT */
1079:.\Generated_Source\PSoC4/BLE_eventHandler.c **** #ifdef CYBLE_LNS_CLIENT
1080:.\Generated_Source\PSoC4/BLE_eventHandler.c ****     if((cyBle_eventHandlerFlag & CYBLE_CALLBACK) != 0u)
1081:.\Generated_Source\PSoC4/BLE_eventHandler.c ****     {
1082:.\Generated_Source\PSoC4/BLE_eventHandler.c ****         CyBle_LnscReadResponseEventHandler(eventParam);
1083:.\Generated_Source\PSoC4/BLE_eventHandler.c ****     }
1084:.\Generated_Source\PSoC4/BLE_eventHandler.c **** #endif /* CYBLE_LNS_CLIENT */
1085:.\Generated_Source\PSoC4/BLE_eventHandler.c **** #ifdef CYBLE_NDCS_CLIENT
1086:.\Generated_Source\PSoC4/BLE_eventHandler.c ****     if((cyBle_eventHandlerFlag & CYBLE_CALLBACK) != 0u)
1087:.\Generated_Source\PSoC4/BLE_eventHandler.c ****     {
1088:.\Generated_Source\PSoC4/BLE_eventHandler.c ****         CyBle_NdcscReadResponseEventHandler(eventParam);
1089:.\Generated_Source\PSoC4/BLE_eventHandler.c ****     }
1090:.\Generated_Source\PSoC4/BLE_eventHandler.c **** #endif /* CYBLE_NDCS_CLIENT */
1091:.\Generated_Source\PSoC4/BLE_eventHandler.c **** #ifdef CYBLE_PASS_CLIENT
1092:.\Generated_Source\PSoC4/BLE_eventHandler.c ****     if((cyBle_eventHandlerFlag & CYBLE_CALLBACK) != 0u)
1093:.\Generated_Source\PSoC4/BLE_eventHandler.c ****     {
1094:.\Generated_Source\PSoC4/BLE_eventHandler.c ****         CyBle_PasscReadResponseEventHandler(eventParam);
1095:.\Generated_Source\PSoC4/BLE_eventHandler.c ****     }
1096:.\Generated_Source\PSoC4/BLE_eventHandler.c **** #endif /* CYBLE_PASS_CLIENT */
1097:.\Generated_Source\PSoC4/BLE_eventHandler.c **** #ifdef CYBLE_RSCS_CLIENT
1098:.\Generated_Source\PSoC4/BLE_eventHandler.c ****     if((cyBle_eventHandlerFlag & CYBLE_CALLBACK) != 0u)
1099:.\Generated_Source\PSoC4/BLE_eventHandler.c ****     {
1100:.\Generated_Source\PSoC4/BLE_eventHandler.c ****         CyBle_RscscReadResponseEventHandler(eventParam);
1101:.\Generated_Source\PSoC4/BLE_eventHandler.c ****     }
1102:.\Generated_Source\PSoC4/BLE_eventHandler.c **** #endif /* CYBLE_RSCS_CLIENT */
1103:.\Generated_Source\PSoC4/BLE_eventHandler.c **** #ifdef CYBLE_RTUS_CLIENT
1104:.\Generated_Source\PSoC4/BLE_eventHandler.c ****     if((cyBle_eventHandlerFlag & CYBLE_CALLBACK) != 0u)
1105:.\Generated_Source\PSoC4/BLE_eventHandler.c ****     {
1106:.\Generated_Source\PSoC4/BLE_eventHandler.c ****         CyBle_RtuscReadResponseEventHandler(eventParam);
1107:.\Generated_Source\PSoC4/BLE_eventHandler.c ****     }
1108:.\Generated_Source\PSoC4/BLE_eventHandler.c **** #endif /* CYBLE_RTUS_CLIENT */
1109:.\Generated_Source\PSoC4/BLE_eventHandler.c **** #ifdef CYBLE_SCPS_CLIENT
1110:.\Generated_Source\PSoC4/BLE_eventHandler.c ****     if((cyBle_eventHandlerFlag & CYBLE_CALLBACK) != 0u)
1111:.\Generated_Source\PSoC4/BLE_eventHandler.c ****     {
1112:.\Generated_Source\PSoC4/BLE_eventHandler.c ****         CyBle_ScpscReadResponseEventHandler(eventParam);
1113:.\Generated_Source\PSoC4/BLE_eventHandler.c ****     }
1114:.\Generated_Source\PSoC4/BLE_eventHandler.c **** #endif /* CYBLE_SCPS_CLIENT */
1115:.\Generated_Source\PSoC4/BLE_eventHandler.c **** #ifdef CYBLE_TPS_CLIENT
1116:.\Generated_Source\PSoC4/BLE_eventHandler.c ****     if((cyBle_eventHandlerFlag & CYBLE_CALLBACK) != 0u)
ARM GAS  C:\Users\Petro\AppData\Local\Temp\cclwd5AX.s 			page 21


1117:.\Generated_Source\PSoC4/BLE_eventHandler.c ****     {
1118:.\Generated_Source\PSoC4/BLE_eventHandler.c ****         CyBle_TpscReadResponseEventHandler(eventParam);
1119:.\Generated_Source\PSoC4/BLE_eventHandler.c ****     }
1120:.\Generated_Source\PSoC4/BLE_eventHandler.c **** #endif /* CYBLE_TPS_CLIENT */
1121:.\Generated_Source\PSoC4/BLE_eventHandler.c **** #ifdef CYBLE_UDS_CLIENT
1122:.\Generated_Source\PSoC4/BLE_eventHandler.c ****     if((cyBle_eventHandlerFlag & CYBLE_CALLBACK) != 0u)
1123:.\Generated_Source\PSoC4/BLE_eventHandler.c ****     {
1124:.\Generated_Source\PSoC4/BLE_eventHandler.c ****         CyBle_UdscReadResponseEventHandler(eventParam);
1125:.\Generated_Source\PSoC4/BLE_eventHandler.c ****     }
1126:.\Generated_Source\PSoC4/BLE_eventHandler.c **** #endif /* CYBLE_UDS_CLIENT */
1127:.\Generated_Source\PSoC4/BLE_eventHandler.c **** #ifdef CYBLE_WPTS_CLIENT
1128:.\Generated_Source\PSoC4/BLE_eventHandler.c ****     if((cyBle_eventHandlerFlag & CYBLE_CALLBACK) != 0u)
1129:.\Generated_Source\PSoC4/BLE_eventHandler.c ****     {
1130:.\Generated_Source\PSoC4/BLE_eventHandler.c ****         CyBle_WptscReadResponseEventHandler(eventParam);
1131:.\Generated_Source\PSoC4/BLE_eventHandler.c ****     }
1132:.\Generated_Source\PSoC4/BLE_eventHandler.c **** #endif /* CYBLE_WPTS_CLIENT */
1133:.\Generated_Source\PSoC4/BLE_eventHandler.c **** #ifdef CYBLE_WSS_CLIENT
1134:.\Generated_Source\PSoC4/BLE_eventHandler.c ****     if((cyBle_eventHandlerFlag & CYBLE_CALLBACK) != 0u)
1135:.\Generated_Source\PSoC4/BLE_eventHandler.c ****     {
1136:.\Generated_Source\PSoC4/BLE_eventHandler.c ****         CyBle_WsscReadResponseEventHandler(eventParam);
1137:.\Generated_Source\PSoC4/BLE_eventHandler.c ****     }
1138:.\Generated_Source\PSoC4/BLE_eventHandler.c **** #endif /* CYBLE_WSS_CLIENT */
1139:.\Generated_Source\PSoC4/BLE_eventHandler.c **** }
1140:.\Generated_Source\PSoC4/BLE_eventHandler.c **** #endif /* CYBLE_GATT_ROLE_CLIENT */
1141:.\Generated_Source\PSoC4/BLE_eventHandler.c **** 
1142:.\Generated_Source\PSoC4/BLE_eventHandler.c **** 
1143:.\Generated_Source\PSoC4/BLE_eventHandler.c **** /****************************************************************************** 
1144:.\Generated_Source\PSoC4/BLE_eventHandler.c **** * Function Name: CyBle_DisconnectEventHandler
1145:.\Generated_Source\PSoC4/BLE_eventHandler.c **** ***************************************************************************//**
1146:.\Generated_Source\PSoC4/BLE_eventHandler.c **** * 
1147:.\Generated_Source\PSoC4/BLE_eventHandler.c **** *  Handles the GATT Disconnection event from the BLE stack.
1148:.\Generated_Source\PSoC4/BLE_eventHandler.c **** * 
1149:.\Generated_Source\PSoC4/BLE_eventHandler.c **** * \return
1150:.\Generated_Source\PSoC4/BLE_eventHandler.c **** *  None
1151:.\Generated_Source\PSoC4/BLE_eventHandler.c **** * 
1152:.\Generated_Source\PSoC4/BLE_eventHandler.c **** ******************************************************************************/
1153:.\Generated_Source\PSoC4/BLE_eventHandler.c **** static void CyBle_GattDisconnectEventHandler(void)
1154:.\Generated_Source\PSoC4/BLE_eventHandler.c **** {
1155:.\Generated_Source\PSoC4/BLE_eventHandler.c ****     cyBle_connHandle.attId = 0u;
1156:.\Generated_Source\PSoC4/BLE_eventHandler.c ****     cyBle_connHandle.bdHandle = 0u;
1157:.\Generated_Source\PSoC4/BLE_eventHandler.c ****     
1158:.\Generated_Source\PSoC4/BLE_eventHandler.c ****     #if (CYBLE_GATT_ROLE_CLIENT)
1159:.\Generated_Source\PSoC4/BLE_eventHandler.c ****         if(CYBLE_CLIENT_STATE_DISCOVERED == CyBle_GetClientState())
1160:.\Generated_Source\PSoC4/BLE_eventHandler.c ****         {
1161:.\Generated_Source\PSoC4/BLE_eventHandler.c ****             CyBle_SetClientState(CYBLE_CLIENT_STATE_DISCONNECTED_DISCOVERED);
1162:.\Generated_Source\PSoC4/BLE_eventHandler.c ****         }
1163:.\Generated_Source\PSoC4/BLE_eventHandler.c ****         else
1164:.\Generated_Source\PSoC4/BLE_eventHandler.c ****         {
1165:.\Generated_Source\PSoC4/BLE_eventHandler.c ****             CyBle_SetClientState(CYBLE_CLIENT_STATE_DISCONNECTED);
1166:.\Generated_Source\PSoC4/BLE_eventHandler.c ****         }
1167:.\Generated_Source\PSoC4/BLE_eventHandler.c ****     #endif /* CYBLE_GATT_ROLE_CLIENT */
1168:.\Generated_Source\PSoC4/BLE_eventHandler.c ****         
1169:.\Generated_Source\PSoC4/BLE_eventHandler.c ****     #ifdef CYBLE_CPS_SERVER
1170:.\Generated_Source\PSoC4/BLE_eventHandler.c ****         #if CYBLE_GAP_ROLE_BROADCASTER
1171:.\Generated_Source\PSoC4/BLE_eventHandler.c ****             CyBle_CpssDisconnectEventHandler();
1172:.\Generated_Source\PSoC4/BLE_eventHandler.c ****         #endif /* CYBLE_GAP_ROLE_BROADCASTER */
1173:.\Generated_Source\PSoC4/BLE_eventHandler.c ****     #endif /* CYBLE_CPS_SERVER */
ARM GAS  C:\Users\Petro\AppData\Local\Temp\cclwd5AX.s 			page 22


1174:.\Generated_Source\PSoC4/BLE_eventHandler.c **** 
1175:.\Generated_Source\PSoC4/BLE_eventHandler.c ****     #ifdef CYBLE_CPS_CLIENT
1176:.\Generated_Source\PSoC4/BLE_eventHandler.c ****         CyBle_CpscDisconnectEventHandler();
1177:.\Generated_Source\PSoC4/BLE_eventHandler.c ****     #endif /* CYBLE_CPS_CLIENT */
1178:.\Generated_Source\PSoC4/BLE_eventHandler.c **** 
1179:.\Generated_Source\PSoC4/BLE_eventHandler.c ****     #ifdef CYBLE_IAS_SERVER
1180:.\Generated_Source\PSoC4/BLE_eventHandler.c ****         CyBle_IassDisconnectEventHandler();
1181:.\Generated_Source\PSoC4/BLE_eventHandler.c ****     #endif /* CYBLE_IAS_SERVER */
1182:.\Generated_Source\PSoC4/BLE_eventHandler.c ****     
1183:.\Generated_Source\PSoC4/BLE_eventHandler.c ****     #ifdef CYBLE_GLS_SERVER
1184:.\Generated_Source\PSoC4/BLE_eventHandler.c ****         CyBle_GlsInit();
1185:.\Generated_Source\PSoC4/BLE_eventHandler.c ****     #endif /* CYBLE_GLS_SERVER */
1186:.\Generated_Source\PSoC4/BLE_eventHandler.c ****     
1187:.\Generated_Source\PSoC4/BLE_eventHandler.c ****     #ifdef CYBLE_LNS_SERVER
1188:.\Generated_Source\PSoC4/BLE_eventHandler.c ****         CyBle_LnsInit();
1189:.\Generated_Source\PSoC4/BLE_eventHandler.c ****     #endif /* CYBLE_LNS_SERVER */
1190:.\Generated_Source\PSoC4/BLE_eventHandler.c ****     
1191:.\Generated_Source\PSoC4/BLE_eventHandler.c ****     #ifdef CYBLE_UDS_SERVER
1192:.\Generated_Source\PSoC4/BLE_eventHandler.c ****         CyBle_UdsInit();
1193:.\Generated_Source\PSoC4/BLE_eventHandler.c ****     #endif /* CYBLE_UDS_SERVER */
1194:.\Generated_Source\PSoC4/BLE_eventHandler.c **** }
1195:.\Generated_Source\PSoC4/BLE_eventHandler.c **** 
1196:.\Generated_Source\PSoC4/BLE_eventHandler.c **** 
1197:.\Generated_Source\PSoC4/BLE_eventHandler.c **** /****************************************************************************** 
1198:.\Generated_Source\PSoC4/BLE_eventHandler.c **** * Function Name: CyBle_TimeOutEventHandler
1199:.\Generated_Source\PSoC4/BLE_eventHandler.c **** ***************************************************************************//**
1200:.\Generated_Source\PSoC4/BLE_eventHandler.c **** * 
1201:.\Generated_Source\PSoC4/BLE_eventHandler.c **** *  Handles the CYBLE_EVT_TIMEOUT event from the BLE stack.
1202:.\Generated_Source\PSoC4/BLE_eventHandler.c **** * 
1203:.\Generated_Source\PSoC4/BLE_eventHandler.c **** *  \param eventParam: The pointer to a structure of type CYBLE_TO_REASON_CODE_T.
1204:.\Generated_Source\PSoC4/BLE_eventHandler.c **** * 
1205:.\Generated_Source\PSoC4/BLE_eventHandler.c **** * \return
1206:.\Generated_Source\PSoC4/BLE_eventHandler.c **** *  None
1207:.\Generated_Source\PSoC4/BLE_eventHandler.c **** * 
1208:.\Generated_Source\PSoC4/BLE_eventHandler.c **** ******************************************************************************/
1209:.\Generated_Source\PSoC4/BLE_eventHandler.c **** static void CyBle_TimeOutEventHandler(const CYBLE_TO_REASON_CODE_T *eventParam)
1210:.\Generated_Source\PSoC4/BLE_eventHandler.c **** {
1211:.\Generated_Source\PSoC4/BLE_eventHandler.c ****     if(*eventParam == CYBLE_GATT_RSP_TO)
1212:.\Generated_Source\PSoC4/BLE_eventHandler.c ****     {
1213:.\Generated_Source\PSoC4/BLE_eventHandler.c ****     #if (CYBLE_GATT_ROLE_CLIENT)
1214:.\Generated_Source\PSoC4/BLE_eventHandler.c ****         if((cyBle_eventHandlerFlag & CYBLE_AUTO_DISCOVERY) != 0u)
1215:.\Generated_Source\PSoC4/BLE_eventHandler.c ****         {
1216:.\Generated_Source\PSoC4/BLE_eventHandler.c ****             switch(CyBle_GetClientState())
1217:.\Generated_Source\PSoC4/BLE_eventHandler.c ****             {
1218:.\Generated_Source\PSoC4/BLE_eventHandler.c ****                 case CYBLE_CLIENT_STATE_SRVC_DISCOVERING:
1219:.\Generated_Source\PSoC4/BLE_eventHandler.c ****                     CyBle_ApplCallback(CYBLE_EVT_GATTC_SRVC_DISCOVERY_FAILED, NULL);
1220:.\Generated_Source\PSoC4/BLE_eventHandler.c ****                     break;
1221:.\Generated_Source\PSoC4/BLE_eventHandler.c ****                 case CYBLE_CLIENT_STATE_INCL_DISCOVERING:
1222:.\Generated_Source\PSoC4/BLE_eventHandler.c ****                     CyBle_ApplCallback(CYBLE_EVT_GATTC_INCL_DISCOVERY_FAILED, NULL);
1223:.\Generated_Source\PSoC4/BLE_eventHandler.c ****                     break;
1224:.\Generated_Source\PSoC4/BLE_eventHandler.c ****                 case CYBLE_CLIENT_STATE_CHAR_DISCOVERING:
1225:.\Generated_Source\PSoC4/BLE_eventHandler.c ****                     CyBle_ApplCallback(CYBLE_EVT_GATTC_CHAR_DISCOVERY_FAILED, NULL);
1226:.\Generated_Source\PSoC4/BLE_eventHandler.c ****                     break;
1227:.\Generated_Source\PSoC4/BLE_eventHandler.c ****                 case CYBLE_CLIENT_STATE_DESCR_DISCOVERING:
1228:.\Generated_Source\PSoC4/BLE_eventHandler.c ****                     CyBle_ApplCallback(CYBLE_EVT_GATTC_DESCR_DISCOVERY_FAILED, NULL);
1229:.\Generated_Source\PSoC4/BLE_eventHandler.c ****                     break;
1230:.\Generated_Source\PSoC4/BLE_eventHandler.c ****                 default:        /* Other states should not be set in Auto discovery mode */
ARM GAS  C:\Users\Petro\AppData\Local\Temp\cclwd5AX.s 			page 23


1231:.\Generated_Source\PSoC4/BLE_eventHandler.c ****                     break;
1232:.\Generated_Source\PSoC4/BLE_eventHandler.c ****             }
1233:.\Generated_Source\PSoC4/BLE_eventHandler.c ****             cyBle_eventHandlerFlag &= (uint8)~CYBLE_AUTO_DISCOVERY;
1234:.\Generated_Source\PSoC4/BLE_eventHandler.c ****             CyBle_SetClientState(CYBLE_CLIENT_STATE_CONNECTED);
1235:.\Generated_Source\PSoC4/BLE_eventHandler.c ****         }
1236:.\Generated_Source\PSoC4/BLE_eventHandler.c ****     #endif /* CYBLE_GATT_ROLE_CLIENT */
1237:.\Generated_Source\PSoC4/BLE_eventHandler.c ****     #ifdef CYBLE_CPS_SERVER
1238:.\Generated_Source\PSoC4/BLE_eventHandler.c ****         CyBle_CpssTimeOutEventHandler();
1239:.\Generated_Source\PSoC4/BLE_eventHandler.c ****     #endif /* CYBLE_CPS_SERVER */
1240:.\Generated_Source\PSoC4/BLE_eventHandler.c ****     }
1241:.\Generated_Source\PSoC4/BLE_eventHandler.c ****     
1242:.\Generated_Source\PSoC4/BLE_eventHandler.c ****     /* Connection procedure timeout */
1243:.\Generated_Source\PSoC4/BLE_eventHandler.c ****     if(*eventParam == CYBLE_GENERIC_TO)
1244:.\Generated_Source\PSoC4/BLE_eventHandler.c ****     {
1245:.\Generated_Source\PSoC4/BLE_eventHandler.c ****     #if(CYBLE_GAP_ROLE_CENTRAL)
1246:.\Generated_Source\PSoC4/BLE_eventHandler.c ****         if(CYBLE_STATE_CONNECTING == CyBle_GetState())
1247:.\Generated_Source\PSoC4/BLE_eventHandler.c ****         {
1248:.\Generated_Source\PSoC4/BLE_eventHandler.c ****             (void)CyBle_GapcCancelDeviceConnection();
1249:.\Generated_Source\PSoC4/BLE_eventHandler.c ****         }
1250:.\Generated_Source\PSoC4/BLE_eventHandler.c ****     #endif /* CYBLE_GAP_ROLE_CENTRAL */
1251:.\Generated_Source\PSoC4/BLE_eventHandler.c ****     }
1252:.\Generated_Source\PSoC4/BLE_eventHandler.c **** }
1253:.\Generated_Source\PSoC4/BLE_eventHandler.c **** 
1254:.\Generated_Source\PSoC4/BLE_eventHandler.c **** 
1255:.\Generated_Source\PSoC4/BLE_eventHandler.c **** /****************************************************************************** 
1256:.\Generated_Source\PSoC4/BLE_eventHandler.c **** * Function Name: CyBle_GattConnectReqHandler
1257:.\Generated_Source\PSoC4/BLE_eventHandler.c **** ***************************************************************************//**
1258:.\Generated_Source\PSoC4/BLE_eventHandler.c **** * 
1259:.\Generated_Source\PSoC4/BLE_eventHandler.c **** *  Handles the GATT connect event from the BLE stack.
1260:.\Generated_Source\PSoC4/BLE_eventHandler.c **** * 
1261:.\Generated_Source\PSoC4/BLE_eventHandler.c **** * \return
1262:.\Generated_Source\PSoC4/BLE_eventHandler.c **** *  None
1263:.\Generated_Source\PSoC4/BLE_eventHandler.c **** * 
1264:.\Generated_Source\PSoC4/BLE_eventHandler.c **** ******************************************************************************/
1265:.\Generated_Source\PSoC4/BLE_eventHandler.c **** static void CyBle_GattConnectReqHandler(void)
1266:.\Generated_Source\PSoC4/BLE_eventHandler.c **** {
1267:.\Generated_Source\PSoC4/BLE_eventHandler.c ****     #ifdef CYBLE_CGMS_SERVER
1268:.\Generated_Source\PSoC4/BLE_eventHandler.c ****         CyBle_CgmsInit();
1269:.\Generated_Source\PSoC4/BLE_eventHandler.c ****     #endif /* CYBLE_CGMS_SERVER */
1270:.\Generated_Source\PSoC4/BLE_eventHandler.c ****     
1271:.\Generated_Source\PSoC4/BLE_eventHandler.c ****     #ifdef CYBLE_CPS_SERVER
1272:.\Generated_Source\PSoC4/BLE_eventHandler.c ****         CyBle_CpssConnectEventHandler();
1273:.\Generated_Source\PSoC4/BLE_eventHandler.c ****     #endif /* CYBLE_CPS_SERVER */
1274:.\Generated_Source\PSoC4/BLE_eventHandler.c ****     
1275:.\Generated_Source\PSoC4/BLE_eventHandler.c ****     #ifdef CYBLE_CSCS_SERVER
1276:.\Generated_Source\PSoC4/BLE_eventHandler.c ****             CyBle_CscsInit();
1277:.\Generated_Source\PSoC4/BLE_eventHandler.c ****     #endif /* CYBLE_CSCS_SERVER */
1278:.\Generated_Source\PSoC4/BLE_eventHandler.c ****     
1279:.\Generated_Source\PSoC4/BLE_eventHandler.c ****     #ifdef CYBLE_LLS_SERVER
1280:.\Generated_Source\PSoC4/BLE_eventHandler.c ****         CyBle_LlssConnectEventHandler();
1281:.\Generated_Source\PSoC4/BLE_eventHandler.c ****     #endif /* CYBLE_LLS_SERVER */
1282:.\Generated_Source\PSoC4/BLE_eventHandler.c ****     
1283:.\Generated_Source\PSoC4/BLE_eventHandler.c ****     #ifdef CYBLE_HIDS_SERVER
1284:.\Generated_Source\PSoC4/BLE_eventHandler.c ****         CyBle_HidssOnDeviceConnected();
1285:.\Generated_Source\PSoC4/BLE_eventHandler.c ****     #endif /* CYBLE_HIDS_SERVER */
1286:.\Generated_Source\PSoC4/BLE_eventHandler.c **** 
1287:.\Generated_Source\PSoC4/BLE_eventHandler.c ****     #ifdef CYBLE_RSCS_SERVER
ARM GAS  C:\Users\Petro\AppData\Local\Temp\cclwd5AX.s 			page 24


1288:.\Generated_Source\PSoC4/BLE_eventHandler.c ****         CyBle_RscsInit();
1289:.\Generated_Source\PSoC4/BLE_eventHandler.c ****     #endif /* CYBLE_RSCS_SERVER */
1290:.\Generated_Source\PSoC4/BLE_eventHandler.c **** }
1291:.\Generated_Source\PSoC4/BLE_eventHandler.c **** 
1292:.\Generated_Source\PSoC4/BLE_eventHandler.c **** 
1293:.\Generated_Source\PSoC4/BLE_eventHandler.c **** #if (CYBLE_GATT_ROLE_SERVER || CYBLE_GATT_ROLE_CLIENT)
1294:.\Generated_Source\PSoC4/BLE_eventHandler.c **** 
1295:.\Generated_Source\PSoC4/BLE_eventHandler.c **** /****************************************************************************** 
1296:.\Generated_Source\PSoC4/BLE_eventHandler.c **** * Function Name: CyBle_IsDeviceAddressValid
1297:.\Generated_Source\PSoC4/BLE_eventHandler.c **** ***************************************************************************//**
1298:.\Generated_Source\PSoC4/BLE_eventHandler.c **** * 
1299:.\Generated_Source\PSoC4/BLE_eventHandler.c **** *  This function verifies that BLE public address has been programmed to SFLASH 
1300:.\Generated_Source\PSoC4/BLE_eventHandler.c **** *  during manufacture.
1301:.\Generated_Source\PSoC4/BLE_eventHandler.c **** * 
1302:.\Generated_Source\PSoC4/BLE_eventHandler.c **** *  \param CYBLE_GAP_BD_ADDR_T *sflashDeviceAddress: the pointer to the BD address of 
1303:.\Generated_Source\PSoC4/BLE_eventHandler.c **** *                                            type CYBLE_GAP_BD_ADDR_T. 
1304:.\Generated_Source\PSoC4/BLE_eventHandler.c **** * 
1305:.\Generated_Source\PSoC4/BLE_eventHandler.c **** * \return
1306:.\Generated_Source\PSoC4/BLE_eventHandler.c **** *  Non zero value when a device address differs from the default SFLASH content.
1307:.\Generated_Source\PSoC4/BLE_eventHandler.c **** * 
1308:.\Generated_Source\PSoC4/BLE_eventHandler.c **** ******************************************************************************/
1309:.\Generated_Source\PSoC4/BLE_eventHandler.c **** static uint8 CyBle_IsDeviceAddressValid(const CYBLE_GAP_BD_ADDR_T *sflashDeviceAddress)
1310:.\Generated_Source\PSoC4/BLE_eventHandler.c **** {
  25              		.loc 1 1310 0
  26              		.cfi_startproc
  27              	.LVL0:
1311:.\Generated_Source\PSoC4/BLE_eventHandler.c ****     uint8 i;
1312:.\Generated_Source\PSoC4/BLE_eventHandler.c ****     uint8 sflashAddressValid = 0u;
1313:.\Generated_Source\PSoC4/BLE_eventHandler.c ****     
1314:.\Generated_Source\PSoC4/BLE_eventHandler.c ****     if(sflashDeviceAddress -> type == CYBLE_GAP_ADDR_TYPE_PUBLIC)  
  28              		.loc 1 1314 0
  29 0000 8379     		ldrb	r3, [r0, #6]
  30 0002 002B     		cmp	r3, #0
  31 0004 07D0     		beq	.L5
1312:.\Generated_Source\PSoC4/BLE_eventHandler.c ****     
  32              		.loc 1 1312 0
  33 0006 0020     		mov	r0, #0
  34              	.LVL1:
  35 0008 0BE0     		b	.L3
  36              	.LVL2:
  37              	.L4:
1315:.\Generated_Source\PSoC4/BLE_eventHandler.c ****     {
1316:.\Generated_Source\PSoC4/BLE_eventHandler.c ****         for(i = 0u; i < CYBLE_GAP_BD_ADDR_SIZE; i++)
1317:.\Generated_Source\PSoC4/BLE_eventHandler.c ****         {
1318:.\Generated_Source\PSoC4/BLE_eventHandler.c ****             if(sflashDeviceAddress->bdAddr[i] != 0u)
  38              		.loc 1 1318 0
  39 000a C25C     		ldrb	r2, [r0, r3]
  40 000c 002A     		cmp	r2, #0
  41 000e 07D1     		bne	.L6
1316:.\Generated_Source\PSoC4/BLE_eventHandler.c ****         {
  42              		.loc 1 1316 0 discriminator 2
  43 0010 0133     		add	r3, r3, #1
  44              	.LVL3:
  45 0012 DBB2     		uxtb	r3, r3
  46              	.LVL4:
  47 0014 00E0     		b	.L2
  48              	.LVL5:
ARM GAS  C:\Users\Petro\AppData\Local\Temp\cclwd5AX.s 			page 25


  49              	.L5:
  50 0016 0023     		mov	r3, #0
  51              	.L2:
  52              	.LVL6:
1316:.\Generated_Source\PSoC4/BLE_eventHandler.c ****         {
  53              		.loc 1 1316 0 is_stmt 0 discriminator 1
  54 0018 052B     		cmp	r3, #5
  55 001a F6D9     		bls	.L4
1312:.\Generated_Source\PSoC4/BLE_eventHandler.c ****     
  56              		.loc 1 1312 0 is_stmt 1
  57 001c 0020     		mov	r0, #0
  58              	.LVL7:
  59 001e 00E0     		b	.L3
  60              	.LVL8:
  61              	.L6:
1319:.\Generated_Source\PSoC4/BLE_eventHandler.c ****             {
1320:.\Generated_Source\PSoC4/BLE_eventHandler.c ****                 sflashAddressValid = 1u;
  62              		.loc 1 1320 0
  63 0020 0120     		mov	r0, #1
  64              	.LVL9:
  65              	.L3:
1321:.\Generated_Source\PSoC4/BLE_eventHandler.c ****                 break;
1322:.\Generated_Source\PSoC4/BLE_eventHandler.c ****             }
1323:.\Generated_Source\PSoC4/BLE_eventHandler.c ****         }
1324:.\Generated_Source\PSoC4/BLE_eventHandler.c ****     }
1325:.\Generated_Source\PSoC4/BLE_eventHandler.c **** #if (CYBLE_M0S8BLESS_VERSION != 1)
1326:.\Generated_Source\PSoC4/BLE_eventHandler.c ****     sflashAddressValid = 0u;
1327:.\Generated_Source\PSoC4/BLE_eventHandler.c **** #endif
1328:.\Generated_Source\PSoC4/BLE_eventHandler.c ****     
1329:.\Generated_Source\PSoC4/BLE_eventHandler.c ****     return (sflashAddressValid);
1330:.\Generated_Source\PSoC4/BLE_eventHandler.c **** }
  66              		.loc 1 1330 0
  67              		@ sp needed
  68 0022 7047     		bx	lr
  69              		.cfi_endproc
  70              	.LFE7:
  71              		.size	CyBle_IsDeviceAddressValid, .-CyBle_IsDeviceAddressValid
  72              		.section	.text.CyBle_GattDisconnectEventHandler,"ax",%progbits
  73              		.align	2
  74              		.code	16
  75              		.thumb_func
  76              		.type	CyBle_GattDisconnectEventHandler, %function
  77              	CyBle_GattDisconnectEventHandler:
  78              	.LFB4:
1154:.\Generated_Source\PSoC4/BLE_eventHandler.c ****     cyBle_connHandle.attId = 0u;
  79              		.loc 1 1154 0
  80              		.cfi_startproc
  81 0000 08B5     		push	{r3, lr}
  82              		.cfi_def_cfa_offset 8
  83              		.cfi_offset 3, -8
  84              		.cfi_offset 14, -4
1155:.\Generated_Source\PSoC4/BLE_eventHandler.c ****     cyBle_connHandle.bdHandle = 0u;
  85              		.loc 1 1155 0
  86 0002 034B     		ldr	r3, .L8
  87 0004 0022     		mov	r2, #0
  88 0006 5A70     		strb	r2, [r3, #1]
1156:.\Generated_Source\PSoC4/BLE_eventHandler.c ****     
ARM GAS  C:\Users\Petro\AppData\Local\Temp\cclwd5AX.s 			page 26


  89              		.loc 1 1156 0
  90 0008 1A70     		strb	r2, [r3]
1180:.\Generated_Source\PSoC4/BLE_eventHandler.c ****     #endif /* CYBLE_IAS_SERVER */
  91              		.loc 1 1180 0
  92 000a FFF7FEFF 		bl	CyBle_IassDisconnectEventHandler
  93              	.LVL10:
1194:.\Generated_Source\PSoC4/BLE_eventHandler.c **** 
  94              		.loc 1 1194 0
  95              		@ sp needed
  96 000e 08BD     		pop	{r3, pc}
  97              	.L9:
  98              		.align	2
  99              	.L8:
 100 0010 00000000 		.word	cyBle_connHandle
 101              		.cfi_endproc
 102              	.LFE4:
 103              		.size	CyBle_GattDisconnectEventHandler, .-CyBle_GattDisconnectEventHandler
 104              		.section	.text.CyBle_WriteReqHandler,"ax",%progbits
 105              		.align	2
 106              		.code	16
 107              		.thumb_func
 108              		.type	CyBle_WriteReqHandler, %function
 109              	CyBle_WriteReqHandler:
 110              	.LFB2:
 228:.\Generated_Source\PSoC4/BLE_eventHandler.c ****     CYBLE_GATT_ERR_CODE_T gattErr;
 111              		.loc 1 228 0
 112              		.cfi_startproc
 113              	.LVL11:
 114 0000 10B5     		push	{r4, lr}
 115              		.cfi_def_cfa_offset 8
 116              		.cfi_offset 4, -8
 117              		.cfi_offset 14, -4
 118 0002 82B0     		sub	sp, sp, #8
 119              		.cfi_def_cfa_offset 16
 120 0004 041C     		mov	r4, r0
 234:.\Generated_Source\PSoC4/BLE_eventHandler.c **** #ifdef CYBLE_ANCS_SERVER
 121              		.loc 1 234 0
 122 0006 FFF7FEFF 		bl	CyBle_GattsWriteEventHandler
 123              	.LVL12:
 387:.\Generated_Source\PSoC4/BLE_eventHandler.c ****     {
 124              		.loc 1 387 0
 125 000a 0A4B     		ldr	r3, .L13
 126 000c 1B78     		ldrb	r3, [r3]
 127 000e DB07     		lsl	r3, r3, #31
 128 0010 0ED4     		bmi	.L10
 389:.\Generated_Source\PSoC4/BLE_eventHandler.c ****         {
 129              		.loc 1 389 0
 130 0012 0028     		cmp	r0, #0
 131 0014 09D0     		beq	.L12
 132              	.LBB2:
 393:.\Generated_Source\PSoC4/BLE_eventHandler.c ****             err_param.attrHandle = eventParam->handleValPair.attrHandle;
 133              		.loc 1 393 0
 134 0016 01A9     		add	r1, sp, #4
 135 0018 1223     		mov	r3, #18
 136 001a 8B70     		strb	r3, [r1, #2]
 394:.\Generated_Source\PSoC4/BLE_eventHandler.c ****             err_param.errorCode = gattErr;
 137              		.loc 1 394 0
ARM GAS  C:\Users\Petro\AppData\Local\Temp\cclwd5AX.s 			page 27


 138 001c A389     		ldrh	r3, [r4, #12]
 139 001e 0B80     		strh	r3, [r1]
 395:.\Generated_Source\PSoC4/BLE_eventHandler.c **** 
 140              		.loc 1 395 0
 141 0020 C870     		strb	r0, [r1, #3]
 398:.\Generated_Source\PSoC4/BLE_eventHandler.c ****         }
 142              		.loc 1 398 0
 143 0022 2068     		ldr	r0, [r4]
 144              	.LVL13:
 145 0024 FFF7FEFF 		bl	CyBle_GattsErrorRsp
 146              	.LVL14:
 147              	.LBE2:
 148 0028 02E0     		b	.L10
 149              	.LVL15:
 150              	.L12:
 402:.\Generated_Source\PSoC4/BLE_eventHandler.c ****         }
 151              		.loc 1 402 0
 152 002a 2068     		ldr	r0, [r4]
 153              	.LVL16:
 154 002c FFF7FEFF 		bl	CyBle_GattsWriteRsp
 155              	.LVL17:
 156              	.L10:
 405:.\Generated_Source\PSoC4/BLE_eventHandler.c **** 
 157              		.loc 1 405 0
 158 0030 02B0     		add	sp, sp, #8
 159              		@ sp needed
 160              	.LVL18:
 161 0032 10BD     		pop	{r4, pc}
 162              	.L14:
 163              		.align	2
 164              	.L13:
 165 0034 00000000 		.word	cyBle_eventHandlerFlag
 166              		.cfi_endproc
 167              	.LFE2:
 168              		.size	CyBle_WriteReqHandler, .-CyBle_WriteReqHandler
 169              		.section	.text.CyBle_EventHandler,"ax",%progbits
 170              		.align	2
 171              		.global	CyBle_EventHandler
 172              		.code	16
 173              		.thumb_func
 174              		.type	CyBle_EventHandler, %function
 175              	CyBle_EventHandler:
 176              	.LFB10:
1331:.\Generated_Source\PSoC4/BLE_eventHandler.c **** #endif /* CYBLE_GATT_ROLE_SERVER || CYBLE_GATT_ROLE_CLIENT */
1332:.\Generated_Source\PSoC4/BLE_eventHandler.c **** 
1333:.\Generated_Source\PSoC4/BLE_eventHandler.c **** 
1334:.\Generated_Source\PSoC4/BLE_eventHandler.c **** /****************************************************************************** 
1335:.\Generated_Source\PSoC4/BLE_eventHandler.c **** * Function Name: CyBle_L2Cap_ConnParamUpdateRspHandler
1336:.\Generated_Source\PSoC4/BLE_eventHandler.c **** ***************************************************************************//**
1337:.\Generated_Source\PSoC4/BLE_eventHandler.c **** * 
1338:.\Generated_Source\PSoC4/BLE_eventHandler.c **** *  Handles the L2CAP connection parameter response event from
1339:.\Generated_Source\PSoC4/BLE_eventHandler.c **** *  the BLE stack.
1340:.\Generated_Source\PSoC4/BLE_eventHandler.c **** * 
1341:.\Generated_Source\PSoC4/BLE_eventHandler.c **** *  \param response:
1342:.\Generated_Source\PSoC4/BLE_eventHandler.c **** *      * Accepted = 0x0000
1343:.\Generated_Source\PSoC4/BLE_eventHandler.c **** *      * Rejected = 0x0001
1344:.\Generated_Source\PSoC4/BLE_eventHandler.c **** * 
ARM GAS  C:\Users\Petro\AppData\Local\Temp\cclwd5AX.s 			page 28


1345:.\Generated_Source\PSoC4/BLE_eventHandler.c **** * \return
1346:.\Generated_Source\PSoC4/BLE_eventHandler.c **** *  None
1347:.\Generated_Source\PSoC4/BLE_eventHandler.c **** * 
1348:.\Generated_Source\PSoC4/BLE_eventHandler.c **** ******************************************************************************/
1349:.\Generated_Source\PSoC4/BLE_eventHandler.c **** static void CyBle_L2Cap_ConnParamUpdateRspEventHandler(uint16 response)
1350:.\Generated_Source\PSoC4/BLE_eventHandler.c **** {
1351:.\Generated_Source\PSoC4/BLE_eventHandler.c ****     #ifdef CYBLE_CPS_SERVER
1352:.\Generated_Source\PSoC4/BLE_eventHandler.c ****         CyBle_CpssConnParamUpdateRspEventHandler(response);
1353:.\Generated_Source\PSoC4/BLE_eventHandler.c ****     #endif /* CYBLE_CPS_SERVER */
1354:.\Generated_Source\PSoC4/BLE_eventHandler.c ****     
1355:.\Generated_Source\PSoC4/BLE_eventHandler.c ****     /* Unreferenced variable warning workaround */
1356:.\Generated_Source\PSoC4/BLE_eventHandler.c ****     if(response != 0u)
1357:.\Generated_Source\PSoC4/BLE_eventHandler.c ****     {
1358:.\Generated_Source\PSoC4/BLE_eventHandler.c ****     }
1359:.\Generated_Source\PSoC4/BLE_eventHandler.c **** }
1360:.\Generated_Source\PSoC4/BLE_eventHandler.c **** 
1361:.\Generated_Source\PSoC4/BLE_eventHandler.c **** 
1362:.\Generated_Source\PSoC4/BLE_eventHandler.c **** /****************************************************************************** 
1363:.\Generated_Source\PSoC4/BLE_eventHandler.c **** * Function Name: CyBle_GapConnUpdateCompleteEventHandler
1364:.\Generated_Source\PSoC4/BLE_eventHandler.c **** ***************************************************************************//**
1365:.\Generated_Source\PSoC4/BLE_eventHandler.c **** * 
1366:.\Generated_Source\PSoC4/BLE_eventHandler.c **** *  Handles the CYBLE_EVT_GAP_CONNECTION_UPDATE_COMPLETE event from
1367:.\Generated_Source\PSoC4/BLE_eventHandler.c **** *  the BLE stack.
1368:.\Generated_Source\PSoC4/BLE_eventHandler.c **** * 
1369:.\Generated_Source\PSoC4/BLE_eventHandler.c **** *  \param eventParam: The pointer to the data structure specified by the event.
1370:.\Generated_Source\PSoC4/BLE_eventHandler.c **** * 
1371:.\Generated_Source\PSoC4/BLE_eventHandler.c **** * \return
1372:.\Generated_Source\PSoC4/BLE_eventHandler.c **** *  None
1373:.\Generated_Source\PSoC4/BLE_eventHandler.c **** * 
1374:.\Generated_Source\PSoC4/BLE_eventHandler.c **** ******************************************************************************/
1375:.\Generated_Source\PSoC4/BLE_eventHandler.c **** static void CyBle_GapConnUpdateCompleteEventHandler(const CYBLE_GAP_CONN_PARAM_UPDATED_IN_CONTROLLE
1376:.\Generated_Source\PSoC4/BLE_eventHandler.c **** {
1377:.\Generated_Source\PSoC4/BLE_eventHandler.c ****     #ifdef CYBLE_CPS_SERVER
1378:.\Generated_Source\PSoC4/BLE_eventHandler.c ****         CyBle_CpssConnUpdateCompleteEventHandler(eventParam);
1379:.\Generated_Source\PSoC4/BLE_eventHandler.c ****     #endif /* CYBLE_CPS_SERVER */
1380:.\Generated_Source\PSoC4/BLE_eventHandler.c ****     
1381:.\Generated_Source\PSoC4/BLE_eventHandler.c ****     /* Unreferenced variable warning workaround */
1382:.\Generated_Source\PSoC4/BLE_eventHandler.c ****     if(eventParam != 0u)
1383:.\Generated_Source\PSoC4/BLE_eventHandler.c ****     {
1384:.\Generated_Source\PSoC4/BLE_eventHandler.c ****     }
1385:.\Generated_Source\PSoC4/BLE_eventHandler.c **** }
1386:.\Generated_Source\PSoC4/BLE_eventHandler.c **** 
1387:.\Generated_Source\PSoC4/BLE_eventHandler.c **** 
1388:.\Generated_Source\PSoC4/BLE_eventHandler.c **** /****************************************************************************** 
1389:.\Generated_Source\PSoC4/BLE_eventHandler.c **** * Function Name: CyBle_EventHandler
1390:.\Generated_Source\PSoC4/BLE_eventHandler.c **** ***************************************************************************//**
1391:.\Generated_Source\PSoC4/BLE_eventHandler.c **** * 
1392:.\Generated_Source\PSoC4/BLE_eventHandler.c **** *  Handles the events from the BLE stack
1393:.\Generated_Source\PSoC4/BLE_eventHandler.c **** * 
1394:.\Generated_Source\PSoC4/BLE_eventHandler.c **** *  \param eventCode:    the event code
1395:.\Generated_Source\PSoC4/BLE_eventHandler.c **** *  \param eventParam:  the event parameters
1396:.\Generated_Source\PSoC4/BLE_eventHandler.c **** * 
1397:.\Generated_Source\PSoC4/BLE_eventHandler.c **** * \return
1398:.\Generated_Source\PSoC4/BLE_eventHandler.c **** *  None.
1399:.\Generated_Source\PSoC4/BLE_eventHandler.c **** * 
1400:.\Generated_Source\PSoC4/BLE_eventHandler.c **** ******************************************************************************/
1401:.\Generated_Source\PSoC4/BLE_eventHandler.c **** void CyBle_EventHandler(uint8 eventCode, void *eventParam)
ARM GAS  C:\Users\Petro\AppData\Local\Temp\cclwd5AX.s 			page 29


1402:.\Generated_Source\PSoC4/BLE_eventHandler.c **** {
 177              		.loc 1 1402 0
 178              		.cfi_startproc
 179              	.LVL19:
 180 0000 F0B5     		push	{r4, r5, r6, r7, lr}
 181              		.cfi_def_cfa_offset 20
 182              		.cfi_offset 4, -20
 183              		.cfi_offset 5, -16
 184              		.cfi_offset 6, -12
 185              		.cfi_offset 7, -8
 186              		.cfi_offset 14, -4
 187 0002 83B0     		sub	sp, sp, #12
 188              		.cfi_def_cfa_offset 32
 189 0004 041C     		mov	r4, r0
 190 0006 0D1C     		mov	r5, r1
1403:.\Generated_Source\PSoC4/BLE_eventHandler.c ****     cyBle_eventHandlerFlag |= CYBLE_CALLBACK;
 191              		.loc 1 1403 0
 192 0008 7E4A     		ldr	r2, .L40
 193 000a 1178     		ldrb	r1, [r2]
 194              	.LVL20:
 195 000c 0123     		mov	r3, #1
 196 000e 0B43     		orr	r3, r1
 197 0010 1370     		strb	r3, [r2]
1404:.\Generated_Source\PSoC4/BLE_eventHandler.c **** 
1405:.\Generated_Source\PSoC4/BLE_eventHandler.c ****     /* Common Profile event handling */
1406:.\Generated_Source\PSoC4/BLE_eventHandler.c ****     switch(eventCode)
 198              		.loc 1 1406 0
 199 0012 2828     		cmp	r0, #40
 200 0014 00D1     		bne	.LCB174
 201 0016 7EE0     		b	.L17	@long jump
 202              	.LCB174:
 203 0018 0DD8     		bhi	.L18
 204 001a 2128     		cmp	r0, #33
 205 001c 62D0     		beq	.L19
 206 001e 04D8     		bhi	.L20
 207 0020 0128     		cmp	r0, #1
 208 0022 1DD0     		beq	.L21
 209 0024 0528     		cmp	r0, #5
 210 0026 59D0     		beq	.L22
 211 0028 DAE0     		b	.L16
 212              	.L20:
 213 002a 2628     		cmp	r0, #38
 214 002c 77D0     		beq	.L23
 215 002e 6ED8     		bhi	.L24
 216 0030 2428     		cmp	r0, #36
 217 0032 68D0     		beq	.L25
 218 0034 D4E0     		b	.L16
 219              	.L18:
 220 0036 4328     		cmp	r0, #67
 221 0038 00D1     		bne	.LCB200
 222 003a B8E0     		b	.L26	@long jump
 223              	.LCB200:
 224 003c 06D8     		bhi	.L27
 225 003e 4128     		cmp	r0, #65
 226 0040 00D1     		bne	.LCB204
 227 0042 A0E0     		b	.L28	@long jump
 228              	.LCB204:
ARM GAS  C:\Users\Petro\AppData\Local\Temp\cclwd5AX.s 			page 30


 229 0044 4228     		cmp	r0, #66
 230 0046 00D1     		bne	.LCB206
 231 0048 AEE0     		b	.L29	@long jump
 232              	.LCB206:
 233 004a C9E0     		b	.L16
 234              	.L27:
 235 004c 4E28     		cmp	r0, #78
 236 004e 00D1     		bne	.LCB212
 237 0050 B9E0     		b	.L30	@long jump
 238              	.LCB212:
 239 0052 FA28     		cmp	r0, #250
 240 0054 00D1     		bne	.LCB214
 241 0056 BEE0     		b	.L31	@long jump
 242              	.LCB214:
 243 0058 4C28     		cmp	r0, #76
 244 005a 00D0     		beq	.LCB216
 245 005c C0E0     		b	.L16	@long jump
 246              	.LCB216:
 247 005e AEE0     		b	.L32
 248              	.L21:
 249              	.LBB3:
1407:.\Generated_Source\PSoC4/BLE_eventHandler.c ****     {
1408:.\Generated_Source\PSoC4/BLE_eventHandler.c ****         /**********************************************************
1409:.\Generated_Source\PSoC4/BLE_eventHandler.c ****         * General events
1410:.\Generated_Source\PSoC4/BLE_eventHandler.c ****         ************************************************************/
1411:.\Generated_Source\PSoC4/BLE_eventHandler.c ****         case CYBLE_EVT_STACK_ON:
1412:.\Generated_Source\PSoC4/BLE_eventHandler.c ****         #if(CYBLE_MODE_PROFILE)
1413:.\Generated_Source\PSoC4/BLE_eventHandler.c ****         {
1414:.\Generated_Source\PSoC4/BLE_eventHandler.c ****             CYBLE_BLESS_PWR_IN_DB_T bleSsPowerLevel;
1415:.\Generated_Source\PSoC4/BLE_eventHandler.c ****             
1416:.\Generated_Source\PSoC4/BLE_eventHandler.c ****             /* Set Tx Power Level for advertising and connection channels */
1417:.\Generated_Source\PSoC4/BLE_eventHandler.c ****             bleSsPowerLevel.blePwrLevelInDbm = CYBLE_TX_POWER_LEVEL_ADV;
 250              		.loc 1 1417 0
 251 0060 01AE     		add	r6, sp, #4
 252 0062 0727     		mov	r7, #7
 253 0064 3770     		strb	r7, [r6]
1418:.\Generated_Source\PSoC4/BLE_eventHandler.c ****             bleSsPowerLevel.bleSsChId = CYBLE_LL_ADV_CH_TYPE;
 254              		.loc 1 1418 0
 255 0066 0023     		mov	r3, #0
 256 0068 7370     		strb	r3, [r6, #1]
1419:.\Generated_Source\PSoC4/BLE_eventHandler.c ****             (void) CyBle_SetTxPowerLevel (&bleSsPowerLevel);
 257              		.loc 1 1419 0
 258 006a 301C     		mov	r0, r6
 259              	.LVL21:
 260 006c FFF7FEFF 		bl	CyBle_SetTxPowerLevel
 261              	.LVL22:
1420:.\Generated_Source\PSoC4/BLE_eventHandler.c ****             bleSsPowerLevel.blePwrLevelInDbm = CYBLE_TX_POWER_LEVEL_CONN;
 262              		.loc 1 1420 0
 263 0070 3770     		strb	r7, [r6]
1421:.\Generated_Source\PSoC4/BLE_eventHandler.c ****             bleSsPowerLevel.bleSsChId = CYBLE_LL_CONN_CH_TYPE;
 264              		.loc 1 1421 0
 265 0072 0123     		mov	r3, #1
 266 0074 7370     		strb	r3, [r6, #1]
1422:.\Generated_Source\PSoC4/BLE_eventHandler.c ****             (void) CyBle_SetTxPowerLevel (&bleSsPowerLevel);
 267              		.loc 1 1422 0
 268 0076 301C     		mov	r0, r6
 269 0078 FFF7FEFF 		bl	CyBle_SetTxPowerLevel
ARM GAS  C:\Users\Petro\AppData\Local\Temp\cclwd5AX.s 			page 31


 270              	.LVL23:
 271              	.LBE3:
1423:.\Generated_Source\PSoC4/BLE_eventHandler.c ****         }
1424:.\Generated_Source\PSoC4/BLE_eventHandler.c ****         #endif /* CYBLE_MODE_PROFILE */
1425:.\Generated_Source\PSoC4/BLE_eventHandler.c ****         #if (CYBLE_GATT_ROLE_SERVER || CYBLE_GATT_ROLE_CLIENT)
1426:.\Generated_Source\PSoC4/BLE_eventHandler.c ****             /* Set device Address  */
1427:.\Generated_Source\PSoC4/BLE_eventHandler.c ****             if(CyBle_IsDeviceAddressValid(cyBle_sflashDeviceAddress) != 0u)
 272              		.loc 1 1427 0
 273 007c 624B     		ldr	r3, .L40+4
 274 007e 1E68     		ldr	r6, [r3]
 275 0080 301C     		mov	r0, r6
 276 0082 FFF7FEFF 		bl	CyBle_IsDeviceAddressValid
 277              	.LVL24:
 278 0086 0028     		cmp	r0, #0
 279 0088 0CD0     		beq	.L33
1428:.\Generated_Source\PSoC4/BLE_eventHandler.c ****             {
1429:.\Generated_Source\PSoC4/BLE_eventHandler.c ****                 (void) CyBle_SetDeviceAddress(cyBle_sflashDeviceAddress);
 280              		.loc 1 1429 0
 281 008a 301C     		mov	r0, r6
 282 008c FFF7FEFF 		bl	CyBle_SetDeviceAddress
 283              	.LVL25:
1430:.\Generated_Source\PSoC4/BLE_eventHandler.c ****                 #if(CYBLE_GAP_ROLE_PERIPHERAL || CYBLE_GAP_ROLE_BROADCASTER)
1431:.\Generated_Source\PSoC4/BLE_eventHandler.c ****                     CyBle_ChangeAdDeviceAddress(cyBle_sflashDeviceAddress, 0u);
 284              		.loc 1 1431 0
 285 0090 5D4E     		ldr	r6, .L40+4
 286 0092 3068     		ldr	r0, [r6]
 287 0094 0021     		mov	r1, #0
 288 0096 FFF7FEFF 		bl	CyBle_ChangeAdDeviceAddress
 289              	.LVL26:
1432:.\Generated_Source\PSoC4/BLE_eventHandler.c ****                     CyBle_ChangeAdDeviceAddress(cyBle_sflashDeviceAddress, 1u);
 290              		.loc 1 1432 0
 291 009a 3068     		ldr	r0, [r6]
 292 009c 0121     		mov	r1, #1
 293 009e FFF7FEFF 		bl	CyBle_ChangeAdDeviceAddress
 294              	.LVL27:
 295 00a2 14E0     		b	.L34
 296              	.L33:
1433:.\Generated_Source\PSoC4/BLE_eventHandler.c ****                 #endif /* CYBLE_GAP_ROLE_PERIPHERAL || CYBLE_GAP_ROLE_BROADCASTER */    
1434:.\Generated_Source\PSoC4/BLE_eventHandler.c ****             }
1435:.\Generated_Source\PSoC4/BLE_eventHandler.c ****             else
1436:.\Generated_Source\PSoC4/BLE_eventHandler.c ****             {
1437:.\Generated_Source\PSoC4/BLE_eventHandler.c ****             #if (SILICON_GENERATED_DEVICE_ADDRESS != 0u)
1438:.\Generated_Source\PSoC4/BLE_eventHandler.c ****                 cyBle_deviceAddress.bdAddr[0] = CYBLE_SFLASH_DIE_X_REG;
 297              		.loc 1 1438 0
 298 00a4 594B     		ldr	r3, .L40+8
 299 00a6 1B78     		ldrb	r3, [r3]
 300 00a8 594E     		ldr	r6, .L40+12
 301 00aa 3370     		strb	r3, [r6]
1439:.\Generated_Source\PSoC4/BLE_eventHandler.c ****                 cyBle_deviceAddress.bdAddr[1] = CYBLE_SFLASH_DIE_Y_REG;
 302              		.loc 1 1439 0
 303 00ac 594B     		ldr	r3, .L40+16
 304 00ae 1B78     		ldrb	r3, [r3]
 305 00b0 7370     		strb	r3, [r6, #1]
1440:.\Generated_Source\PSoC4/BLE_eventHandler.c ****                 cyBle_deviceAddress.bdAddr[2] = CYBLE_SFLASH_DIE_WAFER_REG;
 306              		.loc 1 1440 0
 307 00b2 594B     		ldr	r3, .L40+20
 308 00b4 1B78     		ldrb	r3, [r3]
ARM GAS  C:\Users\Petro\AppData\Local\Temp\cclwd5AX.s 			page 32


 309 00b6 B370     		strb	r3, [r6, #2]
1441:.\Generated_Source\PSoC4/BLE_eventHandler.c ****             #endif /* SILICON_GENERATED_DEVICE_ADDRESS != 0u */
1442:.\Generated_Source\PSoC4/BLE_eventHandler.c ****                 (void) CyBle_SetDeviceAddress(&cyBle_deviceAddress);
 310              		.loc 1 1442 0
 311 00b8 301C     		mov	r0, r6
 312 00ba FFF7FEFF 		bl	CyBle_SetDeviceAddress
 313              	.LVL28:
1443:.\Generated_Source\PSoC4/BLE_eventHandler.c ****                 #if(CYBLE_GAP_ROLE_PERIPHERAL || CYBLE_GAP_ROLE_BROADCASTER)
1444:.\Generated_Source\PSoC4/BLE_eventHandler.c ****                     CyBle_ChangeAdDeviceAddress(&cyBle_deviceAddress, 0u);
 314              		.loc 1 1444 0
 315 00be 301C     		mov	r0, r6
 316 00c0 0021     		mov	r1, #0
 317 00c2 FFF7FEFF 		bl	CyBle_ChangeAdDeviceAddress
 318              	.LVL29:
1445:.\Generated_Source\PSoC4/BLE_eventHandler.c ****                     CyBle_ChangeAdDeviceAddress(&cyBle_deviceAddress, 1u);
 319              		.loc 1 1445 0
 320 00c6 301C     		mov	r0, r6
 321 00c8 0121     		mov	r1, #1
 322 00ca FFF7FEFF 		bl	CyBle_ChangeAdDeviceAddress
 323              	.LVL30:
 324              	.L34:
1446:.\Generated_Source\PSoC4/BLE_eventHandler.c ****                 #endif /* CYBLE_GAP_ROLE_PERIPHERAL || CYBLE_GAP_ROLE_BROADCASTER */    
1447:.\Generated_Source\PSoC4/BLE_eventHandler.c ****             }
1448:.\Generated_Source\PSoC4/BLE_eventHandler.c ****             /* Set device IO Capability  */
1449:.\Generated_Source\PSoC4/BLE_eventHandler.c ****             (void) CyBle_GapSetIoCap(CYBLE_IO_CAPABILITY);    
 325              		.loc 1 1449 0
 326 00ce 0020     		mov	r0, #0
 327 00d0 FFF7FEFF 		bl	CyBle_GapSetIoCap
 328              	.LVL31:
1450:.\Generated_Source\PSoC4/BLE_eventHandler.c ****         #endif /* CYBLE_GATT_ROLE_SERVER || CYBLE_GATT_ROLE_CLIENT */
1451:.\Generated_Source\PSoC4/BLE_eventHandler.c ****             CyBle_SetState(CYBLE_STATE_DISCONNECTED);
 329              		.loc 1 1451 0
 330 00d4 0422     		mov	r2, #4
 331 00d6 514B     		ldr	r3, .L40+24
 332 00d8 1A70     		strb	r2, [r3]
1452:.\Generated_Source\PSoC4/BLE_eventHandler.c ****             break;
 333              		.loc 1 1452 0
 334 00da 81E0     		b	.L16
 335              	.LVL32:
 336              	.L22:
1453:.\Generated_Source\PSoC4/BLE_eventHandler.c ****         case CYBLE_EVT_TIMEOUT:
1454:.\Generated_Source\PSoC4/BLE_eventHandler.c ****             CyBle_TimeOutEventHandler((CYBLE_TO_REASON_CODE_T *)eventParam);
1455:.\Generated_Source\PSoC4/BLE_eventHandler.c ****             break;
1456:.\Generated_Source\PSoC4/BLE_eventHandler.c ****     	case CYBLE_EVT_STACK_BUSY_STATUS:
1457:.\Generated_Source\PSoC4/BLE_eventHandler.c ****             cyBle_busyStatus = *(uint8 *)eventParam;
 337              		.loc 1 1457 0
 338 00dc 2A78     		ldrb	r2, [r5]
 339 00de 504B     		ldr	r3, .L40+28
 340 00e0 1A70     		strb	r2, [r3]
1458:.\Generated_Source\PSoC4/BLE_eventHandler.c ****             break;
 341              		.loc 1 1458 0
 342 00e2 7DE0     		b	.L16
 343              	.L19:
1459:.\Generated_Source\PSoC4/BLE_eventHandler.c **** 
1460:.\Generated_Source\PSoC4/BLE_eventHandler.c ****         /**********************************************************
1461:.\Generated_Source\PSoC4/BLE_eventHandler.c ****         * GAP events
1462:.\Generated_Source\PSoC4/BLE_eventHandler.c ****         ************************************************************/
ARM GAS  C:\Users\Petro\AppData\Local\Temp\cclwd5AX.s 			page 33


1463:.\Generated_Source\PSoC4/BLE_eventHandler.c ****         case CYBLE_EVT_GAP_AUTH_REQ:
1464:.\Generated_Source\PSoC4/BLE_eventHandler.c ****         #if(CYBLE_MODE_PROFILE)
1465:.\Generated_Source\PSoC4/BLE_eventHandler.c ****             if(0u == (cyBle_eventHandlerFlag & CYBLE_DISABLE_AUTOMATIC_AUTH))
 344              		.loc 1 1465 0
 345 00e4 474B     		ldr	r3, .L40
 346 00e6 1B78     		ldrb	r3, [r3]
 347 00e8 9B06     		lsl	r3, r3, #26
 348 00ea 79D4     		bmi	.L16
1466:.\Generated_Source\PSoC4/BLE_eventHandler.c ****             {
1467:.\Generated_Source\PSoC4/BLE_eventHandler.c ****                 /* If the responding device does not support pairing then the responding 
1468:.\Generated_Source\PSoC4/BLE_eventHandler.c ****                    device shall respond using the Pairing Failed message with the error 
1469:.\Generated_Source\PSoC4/BLE_eventHandler.c ****                    code "Pairing Not Supported" otherwise it responds with a Pairing 
1470:.\Generated_Source\PSoC4/BLE_eventHandler.c ****                    Response message.
1471:.\Generated_Source\PSoC4/BLE_eventHandler.c ****                 */
1472:.\Generated_Source\PSoC4/BLE_eventHandler.c ****                 if(cyBle_authInfo.security == (CYBLE_GAP_SEC_MODE_1 | CYBLE_GAP_SEC_LEVEL_1))
 349              		.loc 1 1472 0
 350 00ec 4D4B     		ldr	r3, .L40+32
 351 00ee 1B78     		ldrb	r3, [r3]
 352 00f0 102B     		cmp	r3, #16
 353 00f2 02D1     		bne	.L35
1473:.\Generated_Source\PSoC4/BLE_eventHandler.c ****                 {
1474:.\Generated_Source\PSoC4/BLE_eventHandler.c ****                     cyBle_authInfo.authErr = CYBLE_GAP_AUTH_ERROR_PAIRING_NOT_SUPPORTED;
 354              		.loc 1 1474 0
 355 00f4 0522     		mov	r2, #5
 356 00f6 4B4B     		ldr	r3, .L40+32
 357 00f8 DA70     		strb	r2, [r3, #3]
 358              	.L35:
1475:.\Generated_Source\PSoC4/BLE_eventHandler.c ****                 }    
1476:.\Generated_Source\PSoC4/BLE_eventHandler.c ****             #if(CYBLE_GAP_ROLE_PERIPHERAL)
1477:.\Generated_Source\PSoC4/BLE_eventHandler.c ****                 (void)CyBle_GappAuthReqReply(cyBle_connHandle.bdHandle, &cyBle_authInfo);
 359              		.loc 1 1477 0
 360 00fa 4B4B     		ldr	r3, .L40+36
 361 00fc 1878     		ldrb	r0, [r3]
 362              	.LVL33:
 363 00fe 4949     		ldr	r1, .L40+32
 364 0100 FFF7FEFF 		bl	CyBle_GappAuthReqReply
 365              	.LVL34:
 366 0104 6CE0     		b	.L16
 367              	.LVL35:
 368              	.L25:
1478:.\Generated_Source\PSoC4/BLE_eventHandler.c ****             #endif /* CYBLE_GAP_ROLE_PERIPHERAL */
1479:.\Generated_Source\PSoC4/BLE_eventHandler.c ****             #if (CYBLE_GAP_ROLE_CENTRAL)
1480:.\Generated_Source\PSoC4/BLE_eventHandler.c ****                 (void)CyBle_GapAuthReq(cyBle_connHandle.bdHandle, &cyBle_authInfo);
1481:.\Generated_Source\PSoC4/BLE_eventHandler.c ****             #endif /* CYBLE_GAP_ROLE_CENTRAL */
1482:.\Generated_Source\PSoC4/BLE_eventHandler.c ****             }
1483:.\Generated_Source\PSoC4/BLE_eventHandler.c ****         #endif /* CYBLE_MODE_PROFILE */
1484:.\Generated_Source\PSoC4/BLE_eventHandler.c ****             break;
1485:.\Generated_Source\PSoC4/BLE_eventHandler.c ****         
1486:.\Generated_Source\PSoC4/BLE_eventHandler.c ****         case CYBLE_EVT_GAP_AUTH_COMPLETE:
1487:.\Generated_Source\PSoC4/BLE_eventHandler.c ****         #if((CYBLE_GAP_ROLE_PERIPHERAL || CYBLE_GAP_ROLE_CENTRAL) && (CYBLE_BONDING_REQUIREMENT == 
1488:.\Generated_Source\PSoC4/BLE_eventHandler.c ****             cyBle_peerBonding = ((CYBLE_GAP_AUTH_INFO_T *)eventParam)->bonding;
 369              		.loc 1 1488 0
 370 0106 6A78     		ldrb	r2, [r5, #1]
 371 0108 484B     		ldr	r3, .L40+40
 372 010a 1A70     		strb	r2, [r3]
1489:.\Generated_Source\PSoC4/BLE_eventHandler.c ****         #endif  /* CYBLE_BONDING_REQUIREMENT == CYBLE_BONDING_YES */
1490:.\Generated_Source\PSoC4/BLE_eventHandler.c ****             break;
ARM GAS  C:\Users\Petro\AppData\Local\Temp\cclwd5AX.s 			page 34


 373              		.loc 1 1490 0
 374 010c 68E0     		b	.L16
 375              	.L24:
1491:.\Generated_Source\PSoC4/BLE_eventHandler.c ****         
1492:.\Generated_Source\PSoC4/BLE_eventHandler.c ****         case CYBLE_EVT_GAP_CONNECTION_UPDATE_COMPLETE:
1493:.\Generated_Source\PSoC4/BLE_eventHandler.c ****             CyBle_GapConnUpdateCompleteEventHandler((const CYBLE_GAP_CONN_PARAM_UPDATED_IN_CONTROLL
1494:.\Generated_Source\PSoC4/BLE_eventHandler.c ****             break;
1495:.\Generated_Source\PSoC4/BLE_eventHandler.c ****             
1496:.\Generated_Source\PSoC4/BLE_eventHandler.c ****         case CYBLE_EVT_GAP_DEVICE_CONNECTED:
1497:.\Generated_Source\PSoC4/BLE_eventHandler.c ****             CyBle_GapConnUpdateCompleteEventHandler((const CYBLE_GAP_CONN_PARAM_UPDATED_IN_CONTROLL
1498:.\Generated_Source\PSoC4/BLE_eventHandler.c ****             #if(CYBLE_GAP_ROLE_CENTRAL)
1499:.\Generated_Source\PSoC4/BLE_eventHandler.c ****                 if(cyBle_connectingTimeout != 0u)
1500:.\Generated_Source\PSoC4/BLE_eventHandler.c ****                 {
1501:.\Generated_Source\PSoC4/BLE_eventHandler.c ****                    (void)CyBle_StopTimer();
1502:.\Generated_Source\PSoC4/BLE_eventHandler.c ****                 }
1503:.\Generated_Source\PSoC4/BLE_eventHandler.c ****             #endif /* CYBLE_GAP_ROLE_CENTRAL */
1504:.\Generated_Source\PSoC4/BLE_eventHandler.c ****             CyBle_SetState(CYBLE_STATE_CONNECTED);
 376              		.loc 1 1504 0
 377 010e 0222     		mov	r2, #2
 378 0110 424B     		ldr	r3, .L40+24
 379 0112 1A70     		strb	r2, [r3]
1505:.\Generated_Source\PSoC4/BLE_eventHandler.c ****             break;
 380              		.loc 1 1505 0
 381 0114 64E0     		b	.L16
 382              	.L17:
1506:.\Generated_Source\PSoC4/BLE_eventHandler.c **** 
1507:.\Generated_Source\PSoC4/BLE_eventHandler.c ****         case CYBLE_EVT_GAP_DEVICE_DISCONNECTED:
1508:.\Generated_Source\PSoC4/BLE_eventHandler.c ****             CyBle_SetState(CYBLE_STATE_DISCONNECTED);
 383              		.loc 1 1508 0
 384 0116 0422     		mov	r2, #4
 385 0118 404B     		ldr	r3, .L40+24
 386 011a 1A70     		strb	r2, [r3]
1509:.\Generated_Source\PSoC4/BLE_eventHandler.c ****             break;
 387              		.loc 1 1509 0
 388 011c 60E0     		b	.L16
 389              	.L23:
1510:.\Generated_Source\PSoC4/BLE_eventHandler.c ****         #if(CYBLE_GAP_ROLE_PERIPHERAL || CYBLE_GAP_ROLE_BROADCASTER)
1511:.\Generated_Source\PSoC4/BLE_eventHandler.c ****             
1512:.\Generated_Source\PSoC4/BLE_eventHandler.c ****         case CYBLE_EVT_GAPP_ADVERTISEMENT_START_STOP:
1513:.\Generated_Source\PSoC4/BLE_eventHandler.c ****             #ifdef CYBLE_CPS_SERVER
1514:.\Generated_Source\PSoC4/BLE_eventHandler.c ****                 #if(CYBLE_GAP_ROLE_BROADCASTER)
1515:.\Generated_Source\PSoC4/BLE_eventHandler.c ****                     CyBle_CpssAdvertisementStartStopEventHandler();
1516:.\Generated_Source\PSoC4/BLE_eventHandler.c ****                 #endif /* CYBLE_GAP_ROLE_BROADCASTER */
1517:.\Generated_Source\PSoC4/BLE_eventHandler.c ****             #endif /* CYBLE_CPS_SERVER */
1518:.\Generated_Source\PSoC4/BLE_eventHandler.c ****             
1519:.\Generated_Source\PSoC4/BLE_eventHandler.c ****             if((CYBLE_STATE_CONNECTED != CyBle_GetState()) && ((cyBle_eventHandlerFlag & CYBLE_CALL
 390              		.loc 1 1519 0
 391 011e 3F4B     		ldr	r3, .L40+24
 392 0120 1B78     		ldrb	r3, [r3]
 393 0122 022B     		cmp	r3, #2
 394 0124 5CD0     		beq	.L16
 395              		.loc 1 1519 0 is_stmt 0 discriminator 1
 396 0126 374A     		ldr	r2, .L40
 397 0128 1278     		ldrb	r2, [r2]
 398 012a D207     		lsl	r2, r2, #31
 399 012c 58D5     		bpl	.L16
1520:.\Generated_Source\PSoC4/BLE_eventHandler.c ****             {
ARM GAS  C:\Users\Petro\AppData\Local\Temp\cclwd5AX.s 			page 35


1521:.\Generated_Source\PSoC4/BLE_eventHandler.c ****                 /* After CyBle_GappStartAdvertisement first event indicates that advertising has be
1522:.\Generated_Source\PSoC4/BLE_eventHandler.c ****                 if(0u != (cyBle_eventHandlerFlag & CYBLE_START_FLAG))
 400              		.loc 1 1522 0 is_stmt 1
 401 012e 354A     		ldr	r2, .L40
 402 0130 1278     		ldrb	r2, [r2]
 403 0132 5207     		lsl	r2, r2, #29
 404 0134 08D5     		bpl	.L36
1523:.\Generated_Source\PSoC4/BLE_eventHandler.c ****                 {
1524:.\Generated_Source\PSoC4/BLE_eventHandler.c ****                     CyBle_SetState(CYBLE_STATE_ADVERTISING);
 405              		.loc 1 1524 0
 406 0136 0322     		mov	r2, #3
 407 0138 384B     		ldr	r3, .L40+24
 408 013a 1A70     		strb	r2, [r3]
1525:.\Generated_Source\PSoC4/BLE_eventHandler.c ****                     cyBle_eventHandlerFlag &= (uint8)~CYBLE_START_FLAG;
 409              		.loc 1 1525 0
 410 013c 314A     		ldr	r2, .L40
 411 013e 1378     		ldrb	r3, [r2]
 412 0140 0421     		mov	r1, #4
 413 0142 8B43     		bic	r3, r1
 414 0144 1370     		strb	r3, [r2]
 415 0146 4BE0     		b	.L16
 416              	.L36:
1526:.\Generated_Source\PSoC4/BLE_eventHandler.c ****                 }
1527:.\Generated_Source\PSoC4/BLE_eventHandler.c ****                 /* When application initiated stop advertisement */
1528:.\Generated_Source\PSoC4/BLE_eventHandler.c ****                 else if(0u != (cyBle_eventHandlerFlag & CYBLE_STOP_FLAG))
 417              		.loc 1 1528 0
 418 0148 2E4A     		ldr	r2, .L40
 419 014a 1278     		ldrb	r2, [r2]
 420 014c 1207     		lsl	r2, r2, #28
 421 014e 08D5     		bpl	.L37
1529:.\Generated_Source\PSoC4/BLE_eventHandler.c ****                 {
1530:.\Generated_Source\PSoC4/BLE_eventHandler.c ****                     CyBle_SetState(CYBLE_STATE_DISCONNECTED);  
 422              		.loc 1 1530 0
 423 0150 0422     		mov	r2, #4
 424 0152 324B     		ldr	r3, .L40+24
 425 0154 1A70     		strb	r2, [r3]
1531:.\Generated_Source\PSoC4/BLE_eventHandler.c ****                     cyBle_eventHandlerFlag &= (uint8)~CYBLE_STOP_FLAG;
 426              		.loc 1 1531 0
 427 0156 2B4A     		ldr	r2, .L40
 428 0158 1378     		ldrb	r3, [r2]
 429 015a 0821     		mov	r1, #8
 430 015c 8B43     		bic	r3, r1
 431 015e 1370     		strb	r3, [r2]
 432 0160 3EE0     		b	.L16
 433              	.L37:
1532:.\Generated_Source\PSoC4/BLE_eventHandler.c ****                 }
1533:.\Generated_Source\PSoC4/BLE_eventHandler.c ****                 else /* Following event indicates that advertising has been stopped */
1534:.\Generated_Source\PSoC4/BLE_eventHandler.c ****                 {
1535:.\Generated_Source\PSoC4/BLE_eventHandler.c ****                     if(CYBLE_STATE_ADVERTISING == CyBle_GetState())
 434              		.loc 1 1535 0
 435 0162 032B     		cmp	r3, #3
 436 0164 3CD1     		bne	.L16
1536:.\Generated_Source\PSoC4/BLE_eventHandler.c ****                     {
1537:.\Generated_Source\PSoC4/BLE_eventHandler.c ****                         CyBle_SetState(CYBLE_STATE_DISCONNECTED);
 437              		.loc 1 1537 0
 438 0166 0422     		mov	r2, #4
 439 0168 2C4B     		ldr	r3, .L40+24
ARM GAS  C:\Users\Petro\AppData\Local\Temp\cclwd5AX.s 			page 36


 440 016a 1A70     		strb	r2, [r3]
1538:.\Generated_Source\PSoC4/BLE_eventHandler.c ****                     #if ((CYBLE_SLOW_ADV_ENABLED != 0u) && (CYBLE_FAST_ADV_TIMEOUT != 0u))
1539:.\Generated_Source\PSoC4/BLE_eventHandler.c ****                         if(cyBle_advertisingIntervalType == CYBLE_ADVERTISING_FAST)
 441              		.loc 1 1539 0
 442 016c 304B     		ldr	r3, .L40+44
 443 016e 1B78     		ldrb	r3, [r3]
 444 0170 002B     		cmp	r3, #0
 445 0172 35D1     		bne	.L16
1540:.\Generated_Source\PSoC4/BLE_eventHandler.c ****                         {
1541:.\Generated_Source\PSoC4/BLE_eventHandler.c ****                             /* When fast advertising time out occur: Start slow advertising */
1542:.\Generated_Source\PSoC4/BLE_eventHandler.c ****                             if(CYBLE_ERROR_OK == CyBle_GappStartAdvertisement(CYBLE_ADVERTISING_SLO
 446              		.loc 1 1542 0
 447 0174 0120     		mov	r0, #1
 448              	.LVL36:
 449 0176 FFF7FEFF 		bl	CyBle_GappStartAdvertisement
 450              	.LVL37:
 451 017a 0028     		cmp	r0, #0
 452 017c 30D1     		bne	.L16
1543:.\Generated_Source\PSoC4/BLE_eventHandler.c ****                             {
1544:.\Generated_Source\PSoC4/BLE_eventHandler.c ****                                 CyBle_SetState(CYBLE_STATE_ADVERTISING);
 453              		.loc 1 1544 0
 454 017e 0322     		mov	r2, #3
 455 0180 264B     		ldr	r3, .L40+24
 456 0182 1A70     		strb	r2, [r3]
 457 0184 2CE0     		b	.L16
 458              	.LVL38:
 459              	.L28:
1545:.\Generated_Source\PSoC4/BLE_eventHandler.c ****                             }
1546:.\Generated_Source\PSoC4/BLE_eventHandler.c ****                         }
1547:.\Generated_Source\PSoC4/BLE_eventHandler.c ****                     #endif /* CYBLE_SLOW_ADV_ENABLED */
1548:.\Generated_Source\PSoC4/BLE_eventHandler.c ****                     }
1549:.\Generated_Source\PSoC4/BLE_eventHandler.c ****                 }
1550:.\Generated_Source\PSoC4/BLE_eventHandler.c ****             }
1551:.\Generated_Source\PSoC4/BLE_eventHandler.c ****             break;
1552:.\Generated_Source\PSoC4/BLE_eventHandler.c ****         #endif /* CYBLE_GAP_ROLE_PERIPHERAL || CYBLE_GAP_ROLE_BROADCASTER */
1553:.\Generated_Source\PSoC4/BLE_eventHandler.c ****         
1554:.\Generated_Source\PSoC4/BLE_eventHandler.c ****         #if(CYBLE_GAP_ROLE_CENTRAL || CYBLE_GAP_ROLE_OBSERVER)    
1555:.\Generated_Source\PSoC4/BLE_eventHandler.c ****         case CYBLE_EVT_GAPC_SCAN_START_STOP:
1556:.\Generated_Source\PSoC4/BLE_eventHandler.c ****             #ifdef CYBLE_CPS_CLIENT
1557:.\Generated_Source\PSoC4/BLE_eventHandler.c ****                 CyBle_CpscScanStartStopEventHandler();
1558:.\Generated_Source\PSoC4/BLE_eventHandler.c ****             #endif /* CYBLE_CPS_CLIENT */
1559:.\Generated_Source\PSoC4/BLE_eventHandler.c ****             
1560:.\Generated_Source\PSoC4/BLE_eventHandler.c ****             if((CYBLE_STATE_CONNECTED != CyBle_GetState()) && ((cyBle_eventHandlerFlag & CYBLE_CALL
1561:.\Generated_Source\PSoC4/BLE_eventHandler.c ****             {
1562:.\Generated_Source\PSoC4/BLE_eventHandler.c ****                 /* After CyBle_GapcStartScan first event indicates that scanning has been started *
1563:.\Generated_Source\PSoC4/BLE_eventHandler.c ****                 if(0u != (cyBle_eventHandlerFlag & CYBLE_START_FLAG))
1564:.\Generated_Source\PSoC4/BLE_eventHandler.c ****                 {
1565:.\Generated_Source\PSoC4/BLE_eventHandler.c ****                     CyBle_SetState(CYBLE_STATE_SCANNING);
1566:.\Generated_Source\PSoC4/BLE_eventHandler.c ****                     cyBle_eventHandlerFlag &= (uint8)~CYBLE_START_FLAG;
1567:.\Generated_Source\PSoC4/BLE_eventHandler.c ****                 }
1568:.\Generated_Source\PSoC4/BLE_eventHandler.c ****                 /* When application initiated stop scanning */
1569:.\Generated_Source\PSoC4/BLE_eventHandler.c ****                 else if(0u != (cyBle_eventHandlerFlag & CYBLE_STOP_FLAG))
1570:.\Generated_Source\PSoC4/BLE_eventHandler.c ****                 {
1571:.\Generated_Source\PSoC4/BLE_eventHandler.c ****                     CyBle_SetState(CYBLE_STATE_DISCONNECTED);  
1572:.\Generated_Source\PSoC4/BLE_eventHandler.c ****                     cyBle_eventHandlerFlag &= (uint8)~CYBLE_STOP_FLAG;
1573:.\Generated_Source\PSoC4/BLE_eventHandler.c ****                 }
1574:.\Generated_Source\PSoC4/BLE_eventHandler.c ****                 else /* Following event indicates that scanning has been stopped by stack */
ARM GAS  C:\Users\Petro\AppData\Local\Temp\cclwd5AX.s 			page 37


1575:.\Generated_Source\PSoC4/BLE_eventHandler.c ****                 {
1576:.\Generated_Source\PSoC4/BLE_eventHandler.c ****                     if(CYBLE_STATE_SCANNING == CyBle_GetState())
1577:.\Generated_Source\PSoC4/BLE_eventHandler.c ****                     {
1578:.\Generated_Source\PSoC4/BLE_eventHandler.c ****                         CyBle_SetState(CYBLE_STATE_DISCONNECTED);  
1579:.\Generated_Source\PSoC4/BLE_eventHandler.c ****                     #if ((CYBLE_SLOW_SCAN_ENABLED != 0u) && (CYBLE_FAST_SCAN_TIMEOUT != 0u))
1580:.\Generated_Source\PSoC4/BLE_eventHandler.c ****                         if(cyBle_scanningIntervalType == CYBLE_SCANNING_FAST)
1581:.\Generated_Source\PSoC4/BLE_eventHandler.c ****                         {
1582:.\Generated_Source\PSoC4/BLE_eventHandler.c ****                             /* When fast scanning time out occur: Start slow scanning */
1583:.\Generated_Source\PSoC4/BLE_eventHandler.c ****                             if(CYBLE_ERROR_OK == CyBle_GapcStartScan(CYBLE_SCANNING_SLOW))
1584:.\Generated_Source\PSoC4/BLE_eventHandler.c ****                             {
1585:.\Generated_Source\PSoC4/BLE_eventHandler.c ****                                 CyBle_SetState(CYBLE_STATE_SCANNING);
1586:.\Generated_Source\PSoC4/BLE_eventHandler.c ****                             }
1587:.\Generated_Source\PSoC4/BLE_eventHandler.c ****                         }
1588:.\Generated_Source\PSoC4/BLE_eventHandler.c ****                     #endif /* CYBLE_SLOW_SCAN_ENABLED */
1589:.\Generated_Source\PSoC4/BLE_eventHandler.c ****                     }
1590:.\Generated_Source\PSoC4/BLE_eventHandler.c ****                 }
1591:.\Generated_Source\PSoC4/BLE_eventHandler.c ****             }
1592:.\Generated_Source\PSoC4/BLE_eventHandler.c ****             break;
1593:.\Generated_Source\PSoC4/BLE_eventHandler.c ****         #endif /* CYBLE_GAP_ROLE_CENTRAL || CYBLE_GAP_ROLE_OBSERVER */
1594:.\Generated_Source\PSoC4/BLE_eventHandler.c **** 
1595:.\Generated_Source\PSoC4/BLE_eventHandler.c ****         /**********************************************************
1596:.\Generated_Source\PSoC4/BLE_eventHandler.c ****         * L2AP events 
1597:.\Generated_Source\PSoC4/BLE_eventHandler.c ****         ************************************************************/
1598:.\Generated_Source\PSoC4/BLE_eventHandler.c ****         case CYBLE_EVT_L2CAP_CONN_PARAM_UPDATE_RSP:
1599:.\Generated_Source\PSoC4/BLE_eventHandler.c ****             CyBle_L2Cap_ConnParamUpdateRspEventHandler(*(uint16 *)eventParam);
1600:.\Generated_Source\PSoC4/BLE_eventHandler.c ****             break;
1601:.\Generated_Source\PSoC4/BLE_eventHandler.c ****         
1602:.\Generated_Source\PSoC4/BLE_eventHandler.c ****         /**********************************************************
1603:.\Generated_Source\PSoC4/BLE_eventHandler.c ****         * GATT events
1604:.\Generated_Source\PSoC4/BLE_eventHandler.c ****         ************************************************************/        
1605:.\Generated_Source\PSoC4/BLE_eventHandler.c ****         case CYBLE_EVT_GATT_CONNECT_IND:
1606:.\Generated_Source\PSoC4/BLE_eventHandler.c ****             cyBle_connHandle = *(CYBLE_CONN_HANDLE_T *)eventParam;
 460              		.loc 1 1606 0
 461 0186 284E     		ldr	r6, .L40+36
 462 0188 301C     		mov	r0, r6
 463              	.LVL39:
 464 018a 291C     		mov	r1, r5
 465 018c 0222     		mov	r2, #2
 466 018e FFF7FEFF 		bl	memcpy
 467              	.LVL40:
1607:.\Generated_Source\PSoC4/BLE_eventHandler.c ****             
1608:.\Generated_Source\PSoC4/BLE_eventHandler.c ****         #if((CYBLE_GATT_ROLE_SERVER) && (CYBLE_GATT_DB_CCCD_COUNT != 0u))
1609:.\Generated_Source\PSoC4/BLE_eventHandler.c ****             /* Init CCCD values in RAM */
1610:.\Generated_Source\PSoC4/BLE_eventHandler.c ****         	(void) memcpy (cyBle_attValuesCCCD, cyBle_flashStorage.attValuesCCCDFlashMemory[cyBle_conn
 468              		.loc 1 1610 0
 469 0192 3178     		ldrb	r1, [r6]
 470 0194 B431     		add	r1, r1, #180
 471 0196 4900     		lsl	r1, r1, #1
 472 0198 264B     		ldr	r3, .L40+48
 473 019a 5918     		add	r1, r3, r1
 474 019c 0531     		add	r1, r1, #5
 475 019e 2648     		ldr	r0, .L40+52
 476 01a0 0222     		mov	r2, #2
 477 01a2 FFF7FEFF 		bl	memcpy
 478              	.LVL41:
1611:.\Generated_Source\PSoC4/BLE_eventHandler.c ****                             CYBLE_GATT_DB_CCCD_COUNT);
1612:.\Generated_Source\PSoC4/BLE_eventHandler.c ****         #endif /* CYBLE_GATT_ROLE_SERVER */
ARM GAS  C:\Users\Petro\AppData\Local\Temp\cclwd5AX.s 			page 38


1613:.\Generated_Source\PSoC4/BLE_eventHandler.c ****         
1614:.\Generated_Source\PSoC4/BLE_eventHandler.c ****         #if (CYBLE_GATT_ROLE_CLIENT)
1615:.\Generated_Source\PSoC4/BLE_eventHandler.c ****             CyBle_SetClientState(CYBLE_CLIENT_STATE_CONNECTED);
1616:.\Generated_Source\PSoC4/BLE_eventHandler.c ****         #endif /* CYBLE_GATT_ROLE_CLIENT */
1617:.\Generated_Source\PSoC4/BLE_eventHandler.c ****         
1618:.\Generated_Source\PSoC4/BLE_eventHandler.c ****             CyBle_GattConnectReqHandler();
1619:.\Generated_Source\PSoC4/BLE_eventHandler.c ****             break;
 479              		.loc 1 1619 0
 480 01a6 1BE0     		b	.L16
 481              	.LVL42:
 482              	.L29:
1620:.\Generated_Source\PSoC4/BLE_eventHandler.c **** 
1621:.\Generated_Source\PSoC4/BLE_eventHandler.c ****         case CYBLE_EVT_GATT_DISCONNECT_IND:
1622:.\Generated_Source\PSoC4/BLE_eventHandler.c ****             CyBle_GattDisconnectEventHandler();
 483              		.loc 1 1622 0
 484 01a8 FFF7FEFF 		bl	CyBle_GattDisconnectEventHandler
 485              	.LVL43:
1623:.\Generated_Source\PSoC4/BLE_eventHandler.c ****             break;
 486              		.loc 1 1623 0
 487 01ac 18E0     		b	.L16
 488              	.LVL44:
 489              	.L26:
 490              	.LBB4:
1624:.\Generated_Source\PSoC4/BLE_eventHandler.c **** 
1625:.\Generated_Source\PSoC4/BLE_eventHandler.c ****     #if((CYBLE_GATT_ROLE_SERVER) || (CYBLE_GATT_ROLE_CLIENT))
1626:.\Generated_Source\PSoC4/BLE_eventHandler.c ****         case CYBLE_EVT_GATTS_XCNHG_MTU_REQ:
1627:.\Generated_Source\PSoC4/BLE_eventHandler.c ****             {
1628:.\Generated_Source\PSoC4/BLE_eventHandler.c ****                 uint16 cyBle_mtuSize;
1629:.\Generated_Source\PSoC4/BLE_eventHandler.c ****                 if(CYBLE_GATT_MTU > ((CYBLE_GATT_XCHG_MTU_PARAM_T *)eventParam)->mtu)
 491              		.loc 1 1629 0
 492 01ae 6988     		ldrh	r1, [r5, #2]
 493 01b0 1629     		cmp	r1, #22
 494 01b2 00D9     		bls	.L38
1630:.\Generated_Source\PSoC4/BLE_eventHandler.c ****                 {
1631:.\Generated_Source\PSoC4/BLE_eventHandler.c ****                     cyBle_mtuSize = ((CYBLE_GATT_XCHG_MTU_PARAM_T *)eventParam)->mtu;
1632:.\Generated_Source\PSoC4/BLE_eventHandler.c ****                 }
1633:.\Generated_Source\PSoC4/BLE_eventHandler.c ****                 else
1634:.\Generated_Source\PSoC4/BLE_eventHandler.c ****                 {
1635:.\Generated_Source\PSoC4/BLE_eventHandler.c ****                     cyBle_mtuSize = CYBLE_GATT_MTU;
 495              		.loc 1 1635 0
 496 01b4 1721     		mov	r1, #23
 497              	.L38:
 498              	.LVL45:
1636:.\Generated_Source\PSoC4/BLE_eventHandler.c ****                 }
1637:.\Generated_Source\PSoC4/BLE_eventHandler.c ****                 (void)CyBle_GattsExchangeMtuRsp(((CYBLE_GATT_XCHG_MTU_PARAM_T *)eventParam)->connHa
 499              		.loc 1 1637 0
 500 01b6 2888     		ldrh	r0, [r5]
 501              	.LVL46:
 502 01b8 FFF7FEFF 		bl	CyBle_GattsExchangeMtuRsp
 503              	.LVL47:
 504              	.LBE4:
1638:.\Generated_Source\PSoC4/BLE_eventHandler.c ****             }
1639:.\Generated_Source\PSoC4/BLE_eventHandler.c ****             break;
 505              		.loc 1 1639 0
 506 01bc 10E0     		b	.L16
 507              	.LVL48:
 508              	.L32:
ARM GAS  C:\Users\Petro\AppData\Local\Temp\cclwd5AX.s 			page 39


1640:.\Generated_Source\PSoC4/BLE_eventHandler.c ****     #endif /* CYBLE_GATT_ROLE_SERVER || CYBLE_GATT_ROLE_CLIENT */
1641:.\Generated_Source\PSoC4/BLE_eventHandler.c ****     
1642:.\Generated_Source\PSoC4/BLE_eventHandler.c ****     #if (CYBLE_GATT_ROLE_CLIENT)
1643:.\Generated_Source\PSoC4/BLE_eventHandler.c ****         case CYBLE_EVT_GAPC_SCAN_PROGRESS_RESULT:
1644:.\Generated_Source\PSoC4/BLE_eventHandler.c ****         #ifdef CYBLE_CPS_CLIENT
1645:.\Generated_Source\PSoC4/BLE_eventHandler.c ****                 CyBle_CpscScanProcessEventHandler((CYBLE_GAPC_ADV_REPORT_T *)eventParam);
1646:.\Generated_Source\PSoC4/BLE_eventHandler.c ****         #endif /* CYBLE_CPS_CLIENT */
1647:.\Generated_Source\PSoC4/BLE_eventHandler.c ****             break;
1648:.\Generated_Source\PSoC4/BLE_eventHandler.c ****     #endif /* CYBLE_GATT_ROLE_CLIENT */
1649:.\Generated_Source\PSoC4/BLE_eventHandler.c **** 
1650:.\Generated_Source\PSoC4/BLE_eventHandler.c ****     #if(CYBLE_GATT_ROLE_SERVER)
1651:.\Generated_Source\PSoC4/BLE_eventHandler.c ****         case CYBLE_EVT_GATTS_WRITE_REQ:
1652:.\Generated_Source\PSoC4/BLE_eventHandler.c ****             CyBle_WriteReqHandler((CYBLE_GATTS_WRITE_REQ_PARAM_T *)eventParam);
 509              		.loc 1 1652 0
 510 01be 281C     		mov	r0, r5
 511              	.LVL49:
 512 01c0 FFF7FEFF 		bl	CyBle_WriteReqHandler
 513              	.LVL50:
1653:.\Generated_Source\PSoC4/BLE_eventHandler.c ****             break;
 514              		.loc 1 1653 0
 515 01c4 0CE0     		b	.L16
 516              	.LVL51:
 517              	.L30:
1654:.\Generated_Source\PSoC4/BLE_eventHandler.c **** 
1655:.\Generated_Source\PSoC4/BLE_eventHandler.c ****         case CYBLE_EVT_GATTS_WRITE_CMD_REQ:
1656:.\Generated_Source\PSoC4/BLE_eventHandler.c ****         #ifdef CYBLE_IAS_SERVER
1657:.\Generated_Source\PSoC4/BLE_eventHandler.c ****             if((cyBle_eventHandlerFlag & CYBLE_CALLBACK) != 0u)
 518              		.loc 1 1657 0
 519 01c6 0F4B     		ldr	r3, .L40
 520 01c8 1B78     		ldrb	r3, [r3]
 521 01ca DB07     		lsl	r3, r3, #31
 522 01cc 08D5     		bpl	.L16
1658:.\Generated_Source\PSoC4/BLE_eventHandler.c ****             {
1659:.\Generated_Source\PSoC4/BLE_eventHandler.c ****                 (void)CyBle_IassWriteCmdEventHandler((CYBLE_GATTS_WRITE_REQ_PARAM_T *)eventParam);
 523              		.loc 1 1659 0
 524 01ce 281C     		mov	r0, r5
 525              	.LVL52:
 526 01d0 FFF7FEFF 		bl	CyBle_IassWriteCmdEventHandler
 527              	.LVL53:
 528 01d4 04E0     		b	.L16
 529              	.LVL54:
 530              	.L31:
1660:.\Generated_Source\PSoC4/BLE_eventHandler.c ****             }
1661:.\Generated_Source\PSoC4/BLE_eventHandler.c ****         #endif /* CYBLE_IAS_SERVER */
1662:.\Generated_Source\PSoC4/BLE_eventHandler.c ****         #ifdef CYBLE_HIDS_SERVER
1663:.\Generated_Source\PSoC4/BLE_eventHandler.c ****             if((cyBle_eventHandlerFlag & CYBLE_CALLBACK) != 0u)
1664:.\Generated_Source\PSoC4/BLE_eventHandler.c ****             {
1665:.\Generated_Source\PSoC4/BLE_eventHandler.c ****                 (void)CyBle_HidssWriteEventHandler((CYBLE_GATTS_WRITE_REQ_PARAM_T *)eventParam);
1666:.\Generated_Source\PSoC4/BLE_eventHandler.c ****             }
1667:.\Generated_Source\PSoC4/BLE_eventHandler.c ****         #endif /* CYBLE_HIDS_SERVER */
1668:.\Generated_Source\PSoC4/BLE_eventHandler.c ****         #ifdef CYBLE_PASS_SERVER
1669:.\Generated_Source\PSoC4/BLE_eventHandler.c ****             if((cyBle_eventHandlerFlag & CYBLE_CALLBACK) != 0u)
1670:.\Generated_Source\PSoC4/BLE_eventHandler.c ****             {
1671:.\Generated_Source\PSoC4/BLE_eventHandler.c ****                 (void)CyBle_PasssWriteCmdEventHandler((CYBLE_GATTS_WRITE_REQ_PARAM_T *)eventParam);
1672:.\Generated_Source\PSoC4/BLE_eventHandler.c ****             }
1673:.\Generated_Source\PSoC4/BLE_eventHandler.c ****         #endif /* CYBLE_PASS_SERVER */
1674:.\Generated_Source\PSoC4/BLE_eventHandler.c ****         #ifdef CYBLE_RTUS_SERVER
ARM GAS  C:\Users\Petro\AppData\Local\Temp\cclwd5AX.s 			page 40


1675:.\Generated_Source\PSoC4/BLE_eventHandler.c ****             if((cyBle_eventHandlerFlag & CYBLE_CALLBACK) != 0u)
1676:.\Generated_Source\PSoC4/BLE_eventHandler.c ****             {
1677:.\Generated_Source\PSoC4/BLE_eventHandler.c ****                 (void)CyBle_RtussWriteCmdEventHandler((CYBLE_GATTS_WRITE_REQ_PARAM_T *)eventParam);
1678:.\Generated_Source\PSoC4/BLE_eventHandler.c ****             }
1679:.\Generated_Source\PSoC4/BLE_eventHandler.c ****         #endif /* CYBLE_RTUS_SERVER */
1680:.\Generated_Source\PSoC4/BLE_eventHandler.c ****         #ifdef CYBLE_SCPS_SERVER
1681:.\Generated_Source\PSoC4/BLE_eventHandler.c ****             if((cyBle_eventHandlerFlag & CYBLE_CALLBACK) != 0u)
1682:.\Generated_Source\PSoC4/BLE_eventHandler.c ****             {
1683:.\Generated_Source\PSoC4/BLE_eventHandler.c ****                 (void)CyBle_ScpssWriteEventHandler((CYBLE_GATTS_WRITE_REQ_PARAM_T *)eventParam);
1684:.\Generated_Source\PSoC4/BLE_eventHandler.c ****             }
1685:.\Generated_Source\PSoC4/BLE_eventHandler.c ****         #endif /* CYBLE_SCPS_SERVER */
1686:.\Generated_Source\PSoC4/BLE_eventHandler.c ****             break;
1687:.\Generated_Source\PSoC4/BLE_eventHandler.c ****         
1688:.\Generated_Source\PSoC4/BLE_eventHandler.c ****         case CYBLE_EVT_GATTS_PREP_WRITE_REQ:
1689:.\Generated_Source\PSoC4/BLE_eventHandler.c ****         #ifdef CYBLE_BMS_SERVER
1690:.\Generated_Source\PSoC4/BLE_eventHandler.c ****             CyBle_BmssPrepareWriteRequestEventHandler((CYBLE_GATTS_PREP_WRITE_REQ_PARAM_T *)eventPa
1691:.\Generated_Source\PSoC4/BLE_eventHandler.c ****         #endif /* CYBLE_BMS_SERVER */
1692:.\Generated_Source\PSoC4/BLE_eventHandler.c ****         #ifdef CYBLE_BTS_SERVER
1693:.\Generated_Source\PSoC4/BLE_eventHandler.c ****             if((cyBle_eventHandlerFlag & CYBLE_CALLBACK) != 0u)
1694:.\Generated_Source\PSoC4/BLE_eventHandler.c ****             {
1695:.\Generated_Source\PSoC4/BLE_eventHandler.c ****                 CyBle_BtssPrepareWriteRequestEventHandler((CYBLE_GATTS_PREP_WRITE_REQ_PARAM_T *)eve
1696:.\Generated_Source\PSoC4/BLE_eventHandler.c ****             }
1697:.\Generated_Source\PSoC4/BLE_eventHandler.c ****         #endif /* CYBLE_BTS_SERVER */
1698:.\Generated_Source\PSoC4/BLE_eventHandler.c ****         #ifdef CYBLE_ESS_SERVER
1699:.\Generated_Source\PSoC4/BLE_eventHandler.c ****             if((cyBle_eventHandlerFlag & CYBLE_CALLBACK) != 0u)
1700:.\Generated_Source\PSoC4/BLE_eventHandler.c ****             {
1701:.\Generated_Source\PSoC4/BLE_eventHandler.c ****                 CyBle_EsssPrepareWriteRequestEventHandler((CYBLE_GATTS_PREP_WRITE_REQ_PARAM_T *)eve
1702:.\Generated_Source\PSoC4/BLE_eventHandler.c ****             }
1703:.\Generated_Source\PSoC4/BLE_eventHandler.c ****         #endif /* CYBLE_ESS_SERVER */
1704:.\Generated_Source\PSoC4/BLE_eventHandler.c **** 		#ifdef CYBLE_UDS_SERVER
1705:.\Generated_Source\PSoC4/BLE_eventHandler.c ****             if((cyBle_eventHandlerFlag & CYBLE_CALLBACK) != 0u)
1706:.\Generated_Source\PSoC4/BLE_eventHandler.c ****             {
1707:.\Generated_Source\PSoC4/BLE_eventHandler.c ****                 CyBle_UdssPrepareWriteRequestEventHandler((CYBLE_GATTS_PREP_WRITE_REQ_PARAM_T *)eve
1708:.\Generated_Source\PSoC4/BLE_eventHandler.c ****             }
1709:.\Generated_Source\PSoC4/BLE_eventHandler.c ****         #endif /* CYBLE_UDS_SERVER */
1710:.\Generated_Source\PSoC4/BLE_eventHandler.c ****             break;
1711:.\Generated_Source\PSoC4/BLE_eventHandler.c **** 
1712:.\Generated_Source\PSoC4/BLE_eventHandler.c ****         case CYBLE_EVT_GATTS_EXEC_WRITE_REQ:
1713:.\Generated_Source\PSoC4/BLE_eventHandler.c ****         #ifdef CYBLE_BMS_SERVER
1714:.\Generated_Source\PSoC4/BLE_eventHandler.c ****             CyBle_BmssExecuteWriteRequestEventHandler((CYBLE_GATTS_EXEC_WRITE_REQ_T *)eventParam);
1715:.\Generated_Source\PSoC4/BLE_eventHandler.c ****         #endif /* CYBLE_BMS_SERVER */
1716:.\Generated_Source\PSoC4/BLE_eventHandler.c ****         #ifdef CYBLE_BTS_SERVER
1717:.\Generated_Source\PSoC4/BLE_eventHandler.c ****             CyBle_BtssExecuteWriteRequestEventHandler((CYBLE_GATTS_EXEC_WRITE_REQ_T *)eventParam);
1718:.\Generated_Source\PSoC4/BLE_eventHandler.c ****         #endif /* CYBLE_BTS_SERVER */
1719:.\Generated_Source\PSoC4/BLE_eventHandler.c ****         #ifdef CYBLE_ESS_SERVER
1720:.\Generated_Source\PSoC4/BLE_eventHandler.c ****             CyBle_EsssExecuteWriteRequestEventHandler((CYBLE_GATTS_EXEC_WRITE_REQ_T *)eventParam);
1721:.\Generated_Source\PSoC4/BLE_eventHandler.c ****         #endif /* CYBLE_ESS_SERVER */
1722:.\Generated_Source\PSoC4/BLE_eventHandler.c **** 		#ifdef CYBLE_UDS_SERVER
1723:.\Generated_Source\PSoC4/BLE_eventHandler.c ****             CyBle_UdssExecuteWriteRequestEventHandler((CYBLE_GATTS_EXEC_WRITE_REQ_T *)eventParam);
1724:.\Generated_Source\PSoC4/BLE_eventHandler.c ****         #endif /* CYBLE_UDS_SERVER */
1725:.\Generated_Source\PSoC4/BLE_eventHandler.c ****             break;
1726:.\Generated_Source\PSoC4/BLE_eventHandler.c ****         
1727:.\Generated_Source\PSoC4/BLE_eventHandler.c ****         case CYBLE_EVT_GATTS_HANDLE_VALUE_CNF:
1728:.\Generated_Source\PSoC4/BLE_eventHandler.c ****             CyBle_ValueConfirmation((CYBLE_CONN_HANDLE_T *)eventParam);
1729:.\Generated_Source\PSoC4/BLE_eventHandler.c ****             break;
1730:.\Generated_Source\PSoC4/BLE_eventHandler.c ****             
1731:.\Generated_Source\PSoC4/BLE_eventHandler.c ****         case CYBLE_EVT_GATTS_READ_CHAR_VAL_ACCESS_REQ:
ARM GAS  C:\Users\Petro\AppData\Local\Temp\cclwd5AX.s 			page 41


1732:.\Generated_Source\PSoC4/BLE_eventHandler.c ****         #ifdef CYBLE_UDS_SERVER
1733:.\Generated_Source\PSoC4/BLE_eventHandler.c ****             CyBle_UdssReadRequestEventHandler((CYBLE_GATTS_CHAR_VAL_READ_REQ_T *)eventParam);
1734:.\Generated_Source\PSoC4/BLE_eventHandler.c ****         #endif /* CYBLE_UDS_SERVER */
1735:.\Generated_Source\PSoC4/BLE_eventHandler.c ****             break;
1736:.\Generated_Source\PSoC4/BLE_eventHandler.c ****             
1737:.\Generated_Source\PSoC4/BLE_eventHandler.c ****     #endif /* CYBLE_GATT_ROLE_SERVER */
1738:.\Generated_Source\PSoC4/BLE_eventHandler.c **** 
1739:.\Generated_Source\PSoC4/BLE_eventHandler.c ****     #if (CYBLE_GATT_ROLE_CLIENT)
1740:.\Generated_Source\PSoC4/BLE_eventHandler.c ****         
1741:.\Generated_Source\PSoC4/BLE_eventHandler.c ****         case CYBLE_EVT_GATTC_READ_BY_GROUP_TYPE_RSP:
1742:.\Generated_Source\PSoC4/BLE_eventHandler.c ****             CyBle_ReadByGroupEventHandler((CYBLE_GATTC_READ_BY_GRP_RSP_PARAM_T *)eventParam);
1743:.\Generated_Source\PSoC4/BLE_eventHandler.c ****             break;
1744:.\Generated_Source\PSoC4/BLE_eventHandler.c **** 
1745:.\Generated_Source\PSoC4/BLE_eventHandler.c ****         case CYBLE_EVT_GATTC_READ_BY_TYPE_RSP:
1746:.\Generated_Source\PSoC4/BLE_eventHandler.c ****             CyBle_ReadByTypeEventHandler((CYBLE_GATTC_READ_BY_TYPE_RSP_PARAM_T *)eventParam);
1747:.\Generated_Source\PSoC4/BLE_eventHandler.c ****             break;
1748:.\Generated_Source\PSoC4/BLE_eventHandler.c **** 
1749:.\Generated_Source\PSoC4/BLE_eventHandler.c ****         case CYBLE_EVT_GATTC_READ_BLOB_RSP:
1750:.\Generated_Source\PSoC4/BLE_eventHandler.c ****         #ifdef CYBLE_ESS_CLIENT
1751:.\Generated_Source\PSoC4/BLE_eventHandler.c ****             CyBle_EsscReadLongRespEventHandler((CYBLE_GATTC_READ_RSP_PARAM_T *)eventParam);
1752:.\Generated_Source\PSoC4/BLE_eventHandler.c ****         #endif /* CYBLE_ESS_CLIENT */
1753:.\Generated_Source\PSoC4/BLE_eventHandler.c ****         #ifdef CYBLE_UDS_CLIENT
1754:.\Generated_Source\PSoC4/BLE_eventHandler.c ****             if((cyBle_eventHandlerFlag & CYBLE_CALLBACK) != 0u)
1755:.\Generated_Source\PSoC4/BLE_eventHandler.c ****             {
1756:.\Generated_Source\PSoC4/BLE_eventHandler.c ****                 CyBle_UdscReadLongRespEventHandler((CYBLE_GATTC_READ_RSP_PARAM_T *)eventParam);
1757:.\Generated_Source\PSoC4/BLE_eventHandler.c ****             }
1758:.\Generated_Source\PSoC4/BLE_eventHandler.c ****         #endif /* CYBLE_UDS_CLIENT */
1759:.\Generated_Source\PSoC4/BLE_eventHandler.c ****             break;
1760:.\Generated_Source\PSoC4/BLE_eventHandler.c ****         
1761:.\Generated_Source\PSoC4/BLE_eventHandler.c ****         case CYBLE_EVT_GATTC_FIND_INFO_RSP:
1762:.\Generated_Source\PSoC4/BLE_eventHandler.c ****             CyBle_FindInfoEventHandler((CYBLE_GATTC_FIND_INFO_RSP_PARAM_T *)eventParam);
1763:.\Generated_Source\PSoC4/BLE_eventHandler.c ****             break;
1764:.\Generated_Source\PSoC4/BLE_eventHandler.c **** 
1765:.\Generated_Source\PSoC4/BLE_eventHandler.c ****         case CYBLE_EVT_GATTC_ERROR_RSP:
1766:.\Generated_Source\PSoC4/BLE_eventHandler.c ****             CyBle_ErrorResponseEventHandler((CYBLE_GATTC_ERR_RSP_PARAM_T *)eventParam);
1767:.\Generated_Source\PSoC4/BLE_eventHandler.c ****             break;
1768:.\Generated_Source\PSoC4/BLE_eventHandler.c **** 
1769:.\Generated_Source\PSoC4/BLE_eventHandler.c ****         case CYBLE_EVT_GATTC_HANDLE_VALUE_NTF:
1770:.\Generated_Source\PSoC4/BLE_eventHandler.c ****             CyBle_NotificationEventHandler((CYBLE_GATTC_HANDLE_VALUE_NTF_PARAM_T *)eventParam);
1771:.\Generated_Source\PSoC4/BLE_eventHandler.c ****             break;
1772:.\Generated_Source\PSoC4/BLE_eventHandler.c **** 
1773:.\Generated_Source\PSoC4/BLE_eventHandler.c ****         case CYBLE_EVT_GATTC_HANDLE_VALUE_IND:
1774:.\Generated_Source\PSoC4/BLE_eventHandler.c ****             CyBle_GattcIndicationEventHandler((CYBLE_GATTC_HANDLE_VALUE_IND_PARAM_T *)eventParam);
1775:.\Generated_Source\PSoC4/BLE_eventHandler.c ****             CyBle_IndicationEventHandler((CYBLE_GATTC_HANDLE_VALUE_IND_PARAM_T *)eventParam);
1776:.\Generated_Source\PSoC4/BLE_eventHandler.c ****         
1777:.\Generated_Source\PSoC4/BLE_eventHandler.c ****             /* Respond with a Handle Value Confirmation when request handled */
1778:.\Generated_Source\PSoC4/BLE_eventHandler.c ****             if((cyBle_eventHandlerFlag & CYBLE_CALLBACK) == 0u)
1779:.\Generated_Source\PSoC4/BLE_eventHandler.c ****             {
1780:.\Generated_Source\PSoC4/BLE_eventHandler.c ****                 (void)CyBle_GattcConfirmation(((CYBLE_GATTC_HANDLE_VALUE_IND_PARAM_T *)eventParam)-
1781:.\Generated_Source\PSoC4/BLE_eventHandler.c ****             }
1782:.\Generated_Source\PSoC4/BLE_eventHandler.c ****             break;
1783:.\Generated_Source\PSoC4/BLE_eventHandler.c ****         
1784:.\Generated_Source\PSoC4/BLE_eventHandler.c ****         case CYBLE_EVT_GATTC_READ_RSP:
1785:.\Generated_Source\PSoC4/BLE_eventHandler.c ****             CyBle_ReadResponseEventHandler((CYBLE_GATTC_READ_RSP_PARAM_T *)eventParam);
1786:.\Generated_Source\PSoC4/BLE_eventHandler.c ****             break;
1787:.\Generated_Source\PSoC4/BLE_eventHandler.c **** 
1788:.\Generated_Source\PSoC4/BLE_eventHandler.c ****         case CYBLE_EVT_GATTC_WRITE_RSP:
ARM GAS  C:\Users\Petro\AppData\Local\Temp\cclwd5AX.s 			page 42


1789:.\Generated_Source\PSoC4/BLE_eventHandler.c ****             CyBle_GattcWriteResponseEventHandler((CYBLE_CONN_HANDLE_T *)eventParam);
1790:.\Generated_Source\PSoC4/BLE_eventHandler.c ****             break;
1791:.\Generated_Source\PSoC4/BLE_eventHandler.c ****             
1792:.\Generated_Source\PSoC4/BLE_eventHandler.c ****         case CYBLE_EVT_GATTC_EXEC_WRITE_RSP:
1793:.\Generated_Source\PSoC4/BLE_eventHandler.c ****         #ifdef CYBLE_BMS_CLIENT
1794:.\Generated_Source\PSoC4/BLE_eventHandler.c ****             CyBle_BmscExecuteWriteResponseEventHandler((CYBLE_GATTC_EXEC_WRITE_RSP_T *)eventParam);
1795:.\Generated_Source\PSoC4/BLE_eventHandler.c ****         #endif /* CYBLE_BMS_CLIENT */
1796:.\Generated_Source\PSoC4/BLE_eventHandler.c ****         #ifdef CYBLE_ESS_CLIENT
1797:.\Generated_Source\PSoC4/BLE_eventHandler.c ****             if((cyBle_eventHandlerFlag & CYBLE_CALLBACK) != 0u)
1798:.\Generated_Source\PSoC4/BLE_eventHandler.c ****             {
1799:.\Generated_Source\PSoC4/BLE_eventHandler.c ****                 CyBle_EsscExecuteWriteResponseEventHandler((CYBLE_GATTC_EXEC_WRITE_RSP_T *)eventPar
1800:.\Generated_Source\PSoC4/BLE_eventHandler.c ****             }
1801:.\Generated_Source\PSoC4/BLE_eventHandler.c ****         #endif /* CYBLE_ESS_CLIENT */
1802:.\Generated_Source\PSoC4/BLE_eventHandler.c ****         #ifdef CYBLE_UDS_CLIENT
1803:.\Generated_Source\PSoC4/BLE_eventHandler.c ****             if((cyBle_eventHandlerFlag & CYBLE_CALLBACK) != 0u)
1804:.\Generated_Source\PSoC4/BLE_eventHandler.c ****             {
1805:.\Generated_Source\PSoC4/BLE_eventHandler.c ****                 CyBle_UdscExecuteWriteResponseEventHandler((CYBLE_GATTC_EXEC_WRITE_RSP_T *)eventPar
1806:.\Generated_Source\PSoC4/BLE_eventHandler.c ****             }
1807:.\Generated_Source\PSoC4/BLE_eventHandler.c ****         #endif /* CYBLE_UDS_CLIENT */
1808:.\Generated_Source\PSoC4/BLE_eventHandler.c ****             break;
1809:.\Generated_Source\PSoC4/BLE_eventHandler.c ****             
1810:.\Generated_Source\PSoC4/BLE_eventHandler.c ****     #endif /* CYBLE_GATT_ROLE_CLIENT */
1811:.\Generated_Source\PSoC4/BLE_eventHandler.c **** 
1812:.\Generated_Source\PSoC4/BLE_eventHandler.c ****     #if((CYBLE_GAP_ROLE_PERIPHERAL || CYBLE_GAP_ROLE_CENTRAL) && (CYBLE_BONDING_REQUIREMENT == CYBL
1813:.\Generated_Source\PSoC4/BLE_eventHandler.c **** 
1814:.\Generated_Source\PSoC4/BLE_eventHandler.c ****         case CYBLE_EVT_PENDING_FLASH_WRITE:
1815:.\Generated_Source\PSoC4/BLE_eventHandler.c ****             cyBle_pendingFlashWrite |= CYBLE_PENDING_STACK_FLASH_WRITE_BIT;
 531              		.loc 1 1815 0
 532 01d6 194A     		ldr	r2, .L40+56
 533 01d8 1178     		ldrb	r1, [r2]
 534 01da 0123     		mov	r3, #1
 535 01dc 0B43     		orr	r3, r1
 536 01de 1370     		strb	r3, [r2]
 537              	.LVL55:
 538              	.L16:
1816:.\Generated_Source\PSoC4/BLE_eventHandler.c ****             break;
1817:.\Generated_Source\PSoC4/BLE_eventHandler.c ****         
1818:.\Generated_Source\PSoC4/BLE_eventHandler.c ****     #endif  /* (CYBLE_BONDING_REQUIREMENT == CYBLE_BONDING_YES) */
1819:.\Generated_Source\PSoC4/BLE_eventHandler.c ****     
1820:.\Generated_Source\PSoC4/BLE_eventHandler.c ****         default:
1821:.\Generated_Source\PSoC4/BLE_eventHandler.c ****             break;
1822:.\Generated_Source\PSoC4/BLE_eventHandler.c ****     }
1823:.\Generated_Source\PSoC4/BLE_eventHandler.c **** 
1824:.\Generated_Source\PSoC4/BLE_eventHandler.c ****     if(0u != (cyBle_eventHandlerFlag & (CYBLE_CALLBACK | CYBLE_ENABLE_ALL_EVENTS))) 
 539              		.loc 1 1824 0
 540 01e0 084B     		ldr	r3, .L40
 541 01e2 1A78     		ldrb	r2, [r3]
 542 01e4 1123     		mov	r3, #17
 543 01e6 1A42     		tst	r2, r3
 544 01e8 09D0     		beq	.L15
1825:.\Generated_Source\PSoC4/BLE_eventHandler.c ****     {
1826:.\Generated_Source\PSoC4/BLE_eventHandler.c ****         cyBle_eventHandlerFlag &= (uint8)~CYBLE_CALLBACK;
 545              		.loc 1 1826 0
 546 01ea 064A     		ldr	r2, .L40
 547 01ec 1378     		ldrb	r3, [r2]
 548 01ee 0121     		mov	r1, #1
 549 01f0 8B43     		bic	r3, r1
ARM GAS  C:\Users\Petro\AppData\Local\Temp\cclwd5AX.s 			page 43


 550 01f2 1370     		strb	r3, [r2]
1827:.\Generated_Source\PSoC4/BLE_eventHandler.c ****         CyBle_ApplCallback((uint32)eventCode, eventParam);
 551              		.loc 1 1827 0
 552 01f4 124B     		ldr	r3, .L40+60
 553 01f6 1B68     		ldr	r3, [r3]
 554 01f8 201C     		mov	r0, r4
 555 01fa 291C     		mov	r1, r5
 556 01fc 9847     		blx	r3
 557              	.LVL56:
 558              	.L15:
1828:.\Generated_Source\PSoC4/BLE_eventHandler.c ****     }
1829:.\Generated_Source\PSoC4/BLE_eventHandler.c **** }
 559              		.loc 1 1829 0
 560 01fe 03B0     		add	sp, sp, #12
 561              		@ sp needed
 562              	.LVL57:
 563 0200 F0BD     		pop	{r4, r5, r6, r7, pc}
 564              	.L41:
 565 0202 C046     		.align	2
 566              	.L40:
 567 0204 00000000 		.word	cyBle_eventHandlerFlag
 568 0208 00000000 		.word	cyBle_sflashDeviceAddress
 569 020c 7CF1FF0F 		.word	268431740
 570 0210 00000000 		.word	cyBle_deviceAddress
 571 0214 7DF1FF0F 		.word	268431741
 572 0218 7BF1FF0F 		.word	268431739
 573 021c 00000000 		.word	cyBle_state
 574 0220 00000000 		.word	cyBle_busyStatus
 575 0224 00000000 		.word	.LANCHOR0
 576 0228 00000000 		.word	cyBle_connHandle
 577 022c 00000000 		.word	cyBle_peerBonding
 578 0230 00000000 		.word	cyBle_advertisingIntervalType
 579 0234 00000000 		.word	cyBle_flashStorage
 580 0238 00000000 		.word	cyBle_attValuesCCCD
 581 023c 00000000 		.word	cyBle_pendingFlashWrite
 582 0240 00000000 		.word	CyBle_ApplCallback
 583              		.cfi_endproc
 584              	.LFE10:
 585              		.size	CyBle_EventHandler, .-CyBle_EventHandler
 586              		.global	cyBle_authInfo
 587              		.comm	cyBle_advertisingIntervalType,1,1
 588              		.comm	cyBle_busyStatus,1,1
 589              		.comm	cyBle_eventHandlerFlag,1,1
 590              		.comm	cyBle_connHandle,2,4
 591              		.data
 592              		.align	2
 593              		.set	.LANCHOR0,. + 0
 594              		.type	cyBle_authInfo, %object
 595              		.size	cyBle_authInfo, 4
 596              	cyBle_authInfo:
 597 0000 10       		.byte	16
 598 0001 01       		.byte	1
 599 0002 10       		.byte	16
 600 0003 00       		.byte	0
 601              		.text
 602              	.Letext0:
 603              		.file 2 ".\\Generated_Source\\PSoC4\\cytypes.h"
ARM GAS  C:\Users\Petro\AppData\Local\Temp\cclwd5AX.s 			page 44


 604              		.file 3 ".\\Generated_Source\\PSoC4\\BLE_Stack.h"
 605              		.file 4 ".\\Generated_Source\\PSoC4\\BLE_StackHostMain.h"
 606              		.file 5 ".\\Generated_Source\\PSoC4\\BLE_StackGap.h"
 607              		.file 6 ".\\Generated_Source\\PSoC4\\BLE_StackGatt.h"
 608              		.file 7 ".\\Generated_Source\\PSoC4\\BLE_StackGattServer.h"
 609              		.file 8 ".\\Generated_Source\\PSoC4\\BLE.h"
 610              		.file 9 ".\\Generated_Source\\PSoC4\\BLE_gatt.h"
 611              		.file 10 ".\\Generated_Source\\PSoC4\\BLE_eventHandler.h"
 612              		.file 11 ".\\Generated_Source\\PSoC4\\BLE_ias.h"
 613              		.section	.debug_info,"",%progbits
 614              	.Ldebug_info0:
 615 0000 070E0000 		.4byte	0xe07
 616 0004 0400     		.2byte	0x4
 617 0006 00000000 		.4byte	.Ldebug_abbrev0
 618 000a 04       		.byte	0x4
 619 000b 01       		.uleb128 0x1
 620 000c 4E0E0000 		.4byte	.LASF291
 621 0010 01       		.byte	0x1
 622 0011 89050000 		.4byte	.LASF292
 623 0015 701E0000 		.4byte	.LASF293
 624 0019 00000000 		.4byte	.Ldebug_ranges0+0
 625 001d 00000000 		.4byte	0
 626 0021 00000000 		.4byte	.Ldebug_line0
 627 0025 02       		.uleb128 0x2
 628 0026 01       		.byte	0x1
 629 0027 06       		.byte	0x6
 630 0028 83060000 		.4byte	.LASF0
 631 002c 02       		.uleb128 0x2
 632 002d 01       		.byte	0x1
 633 002e 08       		.byte	0x8
 634 002f 98070000 		.4byte	.LASF1
 635 0033 02       		.uleb128 0x2
 636 0034 02       		.byte	0x2
 637 0035 05       		.byte	0x5
 638 0036 9D190000 		.4byte	.LASF2
 639 003a 02       		.uleb128 0x2
 640 003b 02       		.byte	0x2
 641 003c 07       		.byte	0x7
 642 003d 751D0000 		.4byte	.LASF3
 643 0041 02       		.uleb128 0x2
 644 0042 04       		.byte	0x4
 645 0043 05       		.byte	0x5
 646 0044 B7040000 		.4byte	.LASF4
 647 0048 02       		.uleb128 0x2
 648 0049 04       		.byte	0x4
 649 004a 07       		.byte	0x7
 650 004b 660D0000 		.4byte	.LASF5
 651 004f 02       		.uleb128 0x2
 652 0050 08       		.byte	0x8
 653 0051 05       		.byte	0x5
 654 0052 82100000 		.4byte	.LASF6
 655 0056 02       		.uleb128 0x2
 656 0057 08       		.byte	0x8
 657 0058 07       		.byte	0x7
 658 0059 A4160000 		.4byte	.LASF7
 659 005d 03       		.uleb128 0x3
 660 005e 04       		.byte	0x4
ARM GAS  C:\Users\Petro\AppData\Local\Temp\cclwd5AX.s 			page 45


 661 005f 05       		.byte	0x5
 662 0060 696E7400 		.ascii	"int\000"
 663 0064 02       		.uleb128 0x2
 664 0065 04       		.byte	0x4
 665 0066 07       		.byte	0x7
 666 0067 DA120000 		.4byte	.LASF8
 667 006b 04       		.uleb128 0x4
 668 006c 6A190000 		.4byte	.LASF9
 669 0070 02       		.byte	0x2
 670 0071 3801     		.2byte	0x138
 671 0073 2C000000 		.4byte	0x2c
 672 0077 04       		.uleb128 0x4
 673 0078 3C1F0000 		.4byte	.LASF10
 674 007c 02       		.byte	0x2
 675 007d 3901     		.2byte	0x139
 676 007f 3A000000 		.4byte	0x3a
 677 0083 04       		.uleb128 0x4
 678 0084 15010000 		.4byte	.LASF11
 679 0088 02       		.byte	0x2
 680 0089 3A01     		.2byte	0x13a
 681 008b 48000000 		.4byte	0x48
 682 008f 02       		.uleb128 0x2
 683 0090 04       		.byte	0x4
 684 0091 04       		.byte	0x4
 685 0092 24120000 		.4byte	.LASF12
 686 0096 02       		.uleb128 0x2
 687 0097 08       		.byte	0x8
 688 0098 04       		.byte	0x4
 689 0099 30110000 		.4byte	.LASF13
 690 009d 02       		.uleb128 0x2
 691 009e 01       		.byte	0x1
 692 009f 08       		.byte	0x8
 693 00a0 9A080000 		.4byte	.LASF14
 694 00a4 05       		.uleb128 0x5
 695 00a5 6B000000 		.4byte	0x6b
 696 00a9 02       		.uleb128 0x2
 697 00aa 04       		.byte	0x4
 698 00ab 07       		.byte	0x7
 699 00ac 2D000000 		.4byte	.LASF15
 700 00b0 06       		.uleb128 0x6
 701 00b1 04       		.byte	0x4
 702 00b2 07       		.uleb128 0x7
 703 00b3 01       		.byte	0x1
 704 00b4 03       		.byte	0x3
 705 00b5 A4       		.byte	0xa4
 706 00b6 37020000 		.4byte	0x237
 707 00ba 08       		.uleb128 0x8
 708 00bb 22090000 		.4byte	.LASF16
 709 00bf 00       		.sleb128 0
 710 00c0 08       		.uleb128 0x8
 711 00c1 24050000 		.4byte	.LASF17
 712 00c5 01       		.sleb128 1
 713 00c6 08       		.uleb128 0x8
 714 00c7 D9160000 		.4byte	.LASF18
 715 00cb 02       		.sleb128 2
 716 00cc 08       		.uleb128 0x8
 717 00cd C4060000 		.4byte	.LASF19
ARM GAS  C:\Users\Petro\AppData\Local\Temp\cclwd5AX.s 			page 46


 718 00d1 03       		.sleb128 3
 719 00d2 08       		.uleb128 0x8
 720 00d3 3D1E0000 		.4byte	.LASF20
 721 00d7 04       		.sleb128 4
 722 00d8 08       		.uleb128 0x8
 723 00d9 451C0000 		.4byte	.LASF21
 724 00dd 05       		.sleb128 5
 725 00de 08       		.uleb128 0x8
 726 00df 911A0000 		.4byte	.LASF22
 727 00e3 20       		.sleb128 32
 728 00e4 08       		.uleb128 0x8
 729 00e5 48030000 		.4byte	.LASF23
 730 00e9 21       		.sleb128 33
 731 00ea 08       		.uleb128 0x8
 732 00eb D30F0000 		.4byte	.LASF24
 733 00ef 22       		.sleb128 34
 734 00f0 08       		.uleb128 0x8
 735 00f1 9E140000 		.4byte	.LASF25
 736 00f5 23       		.sleb128 35
 737 00f6 08       		.uleb128 0x8
 738 00f7 930C0000 		.4byte	.LASF26
 739 00fb 24       		.sleb128 36
 740 00fc 08       		.uleb128 0x8
 741 00fd AF0C0000 		.4byte	.LASF27
 742 0101 25       		.sleb128 37
 743 0102 08       		.uleb128 0x8
 744 0103 42190000 		.4byte	.LASF28
 745 0107 26       		.sleb128 38
 746 0108 08       		.uleb128 0x8
 747 0109 A5000000 		.4byte	.LASF29
 748 010d 27       		.sleb128 39
 749 010e 08       		.uleb128 0x8
 750 010f F91E0000 		.4byte	.LASF30
 751 0113 28       		.sleb128 40
 752 0114 08       		.uleb128 0x8
 753 0115 F7150000 		.4byte	.LASF31
 754 0119 29       		.sleb128 41
 755 011a 08       		.uleb128 0x8
 756 011b 0E0F0000 		.4byte	.LASF32
 757 011f 2A       		.sleb128 42
 758 0120 08       		.uleb128 0x8
 759 0121 2B140000 		.4byte	.LASF33
 760 0125 2B       		.sleb128 43
 761 0126 08       		.uleb128 0x8
 762 0127 AD1C0000 		.4byte	.LASF34
 763 012b 2C       		.sleb128 44
 764 012c 08       		.uleb128 0x8
 765 012d 0B1A0000 		.4byte	.LASF35
 766 0131 C000     		.sleb128 64
 767 0133 08       		.uleb128 0x8
 768 0134 E5000000 		.4byte	.LASF36
 769 0138 C100     		.sleb128 65
 770 013a 08       		.uleb128 0x8
 771 013b 521E0000 		.4byte	.LASF37
 772 013f C200     		.sleb128 66
 773 0141 08       		.uleb128 0x8
 774 0142 14160000 		.4byte	.LASF38
ARM GAS  C:\Users\Petro\AppData\Local\Temp\cclwd5AX.s 			page 47


 775 0146 C300     		.sleb128 67
 776 0148 08       		.uleb128 0x8
 777 0149 A6070000 		.4byte	.LASF39
 778 014d C400     		.sleb128 68
 779 014f 08       		.uleb128 0x8
 780 0150 45070000 		.4byte	.LASF40
 781 0154 C500     		.sleb128 69
 782 0156 08       		.uleb128 0x8
 783 0157 C1180000 		.4byte	.LASF41
 784 015b C600     		.sleb128 70
 785 015d 08       		.uleb128 0x8
 786 015e A3180000 		.4byte	.LASF42
 787 0162 C700     		.sleb128 71
 788 0164 08       		.uleb128 0x8
 789 0165 73080000 		.4byte	.LASF43
 790 0169 C800     		.sleb128 72
 791 016b 08       		.uleb128 0x8
 792 016c 13150000 		.4byte	.LASF44
 793 0170 C900     		.sleb128 73
 794 0172 08       		.uleb128 0x8
 795 0173 A8090000 		.4byte	.LASF45
 796 0177 CA00     		.sleb128 74
 797 0179 08       		.uleb128 0x8
 798 017a CF080000 		.4byte	.LASF46
 799 017e CB00     		.sleb128 75
 800 0180 08       		.uleb128 0x8
 801 0181 84140000 		.4byte	.LASF47
 802 0185 CC00     		.sleb128 76
 803 0187 08       		.uleb128 0x8
 804 0188 0F190000 		.4byte	.LASF48
 805 018c CD00     		.sleb128 77
 806 018e 08       		.uleb128 0x8
 807 018f 99040000 		.4byte	.LASF49
 808 0193 CE00     		.sleb128 78
 809 0195 08       		.uleb128 0x8
 810 0196 E7120000 		.4byte	.LASF50
 811 019a CF00     		.sleb128 79
 812 019c 08       		.uleb128 0x8
 813 019d 721A0000 		.4byte	.LASF51
 814 01a1 D000     		.sleb128 80
 815 01a3 08       		.uleb128 0x8
 816 01a4 DD090000 		.4byte	.LASF52
 817 01a8 D100     		.sleb128 81
 818 01aa 08       		.uleb128 0x8
 819 01ab 27030000 		.4byte	.LASF53
 820 01af D200     		.sleb128 82
 821 01b1 08       		.uleb128 0x8
 822 01b2 031C0000 		.4byte	.LASF54
 823 01b6 D300     		.sleb128 83
 824 01b8 08       		.uleb128 0x8
 825 01b9 1B1F0000 		.4byte	.LASF55
 826 01bd D400     		.sleb128 84
 827 01bf 08       		.uleb128 0x8
 828 01c0 13020000 		.4byte	.LASF56
 829 01c4 D500     		.sleb128 85
 830 01c6 08       		.uleb128 0x8
 831 01c7 8C0A0000 		.4byte	.LASF57
ARM GAS  C:\Users\Petro\AppData\Local\Temp\cclwd5AX.s 			page 48


 832 01cb D600     		.sleb128 86
 833 01cd 08       		.uleb128 0x8
 834 01ce 4F120000 		.4byte	.LASF58
 835 01d2 D700     		.sleb128 87
 836 01d4 08       		.uleb128 0x8
 837 01d5 1B1D0000 		.4byte	.LASF59
 838 01d9 F000     		.sleb128 112
 839 01db 08       		.uleb128 0x8
 840 01dc 0A0C0000 		.4byte	.LASF60
 841 01e0 F100     		.sleb128 113
 842 01e2 08       		.uleb128 0x8
 843 01e3 01060000 		.4byte	.LASF61
 844 01e7 F200     		.sleb128 114
 845 01e9 08       		.uleb128 0x8
 846 01ea 541A0000 		.4byte	.LASF62
 847 01ee F300     		.sleb128 115
 848 01f0 08       		.uleb128 0x8
 849 01f1 66150000 		.4byte	.LASF63
 850 01f5 F400     		.sleb128 116
 851 01f7 08       		.uleb128 0x8
 852 01f8 B20F0000 		.4byte	.LASF64
 853 01fc F500     		.sleb128 117
 854 01fe 08       		.uleb128 0x8
 855 01ff 52080000 		.4byte	.LASF65
 856 0203 F600     		.sleb128 118
 857 0205 08       		.uleb128 0x8
 858 0206 5F170000 		.4byte	.LASF66
 859 020a F700     		.sleb128 119
 860 020c 08       		.uleb128 0x8
 861 020d 37020000 		.4byte	.LASF67
 862 0211 F800     		.sleb128 120
 863 0213 08       		.uleb128 0x8
 864 0214 E0070000 		.4byte	.LASF68
 865 0218 F900     		.sleb128 121
 866 021a 08       		.uleb128 0x8
 867 021b D51E0000 		.4byte	.LASF69
 868 021f FA00     		.sleb128 122
 869 0221 08       		.uleb128 0x8
 870 0222 59110000 		.4byte	.LASF70
 871 0226 FA01     		.sleb128 250
 872 0228 08       		.uleb128 0x8
 873 0229 BD1B0000 		.4byte	.LASF71
 874 022d FB01     		.sleb128 251
 875 022f 08       		.uleb128 0x8
 876 0230 1D140000 		.4byte	.LASF72
 877 0234 FF01     		.sleb128 255
 878 0236 00       		.byte	0
 879 0237 09       		.uleb128 0x9
 880 0238 02       		.byte	0x2
 881 0239 03       		.byte	0x3
 882 023a 0C02     		.2byte	0x20c
 883 023c EE020000 		.4byte	0x2ee
 884 0240 08       		.uleb128 0x8
 885 0241 F0060000 		.4byte	.LASF73
 886 0245 00       		.sleb128 0
 887 0246 08       		.uleb128 0x8
 888 0247 F60A0000 		.4byte	.LASF74
ARM GAS  C:\Users\Petro\AppData\Local\Temp\cclwd5AX.s 			page 49


 889 024b 01       		.sleb128 1
 890 024c 08       		.uleb128 0x8
 891 024d 1F1E0000 		.4byte	.LASF75
 892 0251 02       		.sleb128 2
 893 0252 08       		.uleb128 0x8
 894 0253 240B0000 		.4byte	.LASF76
 895 0257 03       		.sleb128 3
 896 0258 08       		.uleb128 0x8
 897 0259 E60C0000 		.4byte	.LASF77
 898 025d 04       		.sleb128 4
 899 025e 08       		.uleb128 0x8
 900 025f 12110000 		.4byte	.LASF78
 901 0263 05       		.sleb128 5
 902 0264 08       		.uleb128 0x8
 903 0265 701B0000 		.4byte	.LASF79
 904 0269 06       		.sleb128 6
 905 026a 08       		.uleb128 0x8
 906 026b 8B090000 		.4byte	.LASF80
 907 026f 07       		.sleb128 7
 908 0270 08       		.uleb128 0x8
 909 0271 06120000 		.4byte	.LASF81
 910 0275 08       		.sleb128 8
 911 0276 08       		.uleb128 0x8
 912 0277 E51A0000 		.4byte	.LASF82
 913 027b 09       		.sleb128 9
 914 027c 08       		.uleb128 0x8
 915 027d 431F0000 		.4byte	.LASF83
 916 0281 0A       		.sleb128 10
 917 0282 08       		.uleb128 0x8
 918 0283 73030000 		.4byte	.LASF84
 919 0287 0B       		.sleb128 11
 920 0288 08       		.uleb128 0x8
 921 0289 2E1C0000 		.4byte	.LASF85
 922 028d 0C       		.sleb128 12
 923 028e 08       		.uleb128 0x8
 924 028f B8130000 		.4byte	.LASF86
 925 0293 0D       		.sleb128 13
 926 0294 08       		.uleb128 0x8
 927 0295 250E0000 		.4byte	.LASF87
 928 0299 0E       		.sleb128 14
 929 029a 08       		.uleb128 0x8
 930 029b ED100000 		.4byte	.LASF88
 931 029f 0F       		.sleb128 15
 932 02a0 08       		.uleb128 0x8
 933 02a1 C9010000 		.4byte	.LASF89
 934 02a5 10       		.sleb128 16
 935 02a6 08       		.uleb128 0x8
 936 02a7 E2110000 		.4byte	.LASF90
 937 02ab 11       		.sleb128 17
 938 02ac 08       		.uleb128 0x8
 939 02ad 37050000 		.4byte	.LASF91
 940 02b1 12       		.sleb128 18
 941 02b2 08       		.uleb128 0x8
 942 02b3 5B060000 		.4byte	.LASF92
 943 02b7 13       		.sleb128 19
 944 02b8 08       		.uleb128 0x8
 945 02b9 37110000 		.4byte	.LASF93
ARM GAS  C:\Users\Petro\AppData\Local\Temp\cclwd5AX.s 			page 50


 946 02bd 27       		.sleb128 39
 947 02be 08       		.uleb128 0x8
 948 02bf 2A120000 		.4byte	.LASF94
 949 02c3 28       		.sleb128 40
 950 02c4 08       		.uleb128 0x8
 951 02c5 F7010000 		.4byte	.LASF95
 952 02c9 29       		.sleb128 41
 953 02ca 08       		.uleb128 0x8
 954 02cb FA0B0000 		.4byte	.LASF96
 955 02cf FF01     		.sleb128 255
 956 02d1 08       		.uleb128 0x8
 957 02d2 DD140000 		.4byte	.LASF97
 958 02d6 8002     		.sleb128 256
 959 02d8 08       		.uleb128 0x8
 960 02d9 C4140000 		.4byte	.LASF98
 961 02dd 8102     		.sleb128 257
 962 02df 08       		.uleb128 0x8
 963 02e0 B5050000 		.4byte	.LASF99
 964 02e4 8202     		.sleb128 258
 965 02e6 08       		.uleb128 0x8
 966 02e7 19170000 		.4byte	.LASF100
 967 02eb 8302     		.sleb128 259
 968 02ed 00       		.byte	0
 969 02ee 04       		.uleb128 0x4
 970 02ef DC1B0000 		.4byte	.LASF101
 971 02f3 03       		.byte	0x3
 972 02f4 6902     		.2byte	0x269
 973 02f6 37020000 		.4byte	0x237
 974 02fa 09       		.uleb128 0x9
 975 02fb 01       		.byte	0x1
 976 02fc 03       		.byte	0x3
 977 02fd 9A02     		.2byte	0x29a
 978 02ff 3A030000 		.4byte	0x33a
 979 0303 08       		.uleb128 0x8
 980 0304 8F060000 		.4byte	.LASF102
 981 0308 01       		.sleb128 1
 982 0309 08       		.uleb128 0x8
 983 030a 64040000 		.4byte	.LASF103
 984 030e 02       		.sleb128 2
 985 030f 08       		.uleb128 0x8
 986 0310 C2150000 		.4byte	.LASF104
 987 0314 03       		.sleb128 3
 988 0315 08       		.uleb128 0x8
 989 0316 B0030000 		.4byte	.LASF105
 990 031a 04       		.sleb128 4
 991 031b 08       		.uleb128 0x8
 992 031c 9F080000 		.4byte	.LASF106
 993 0320 05       		.sleb128 5
 994 0321 08       		.uleb128 0x8
 995 0322 930D0000 		.4byte	.LASF107
 996 0326 06       		.sleb128 6
 997 0327 08       		.uleb128 0x8
 998 0328 8A1B0000 		.4byte	.LASF108
 999 032c 07       		.sleb128 7
 1000 032d 08       		.uleb128 0x8
 1001 032e 4F0D0000 		.4byte	.LASF109
 1002 0332 08       		.sleb128 8
ARM GAS  C:\Users\Petro\AppData\Local\Temp\cclwd5AX.s 			page 51


 1003 0333 08       		.uleb128 0x8
 1004 0334 A0110000 		.4byte	.LASF110
 1005 0338 09       		.sleb128 9
 1006 0339 00       		.byte	0
 1007 033a 04       		.uleb128 0x4
 1008 033b F70F0000 		.4byte	.LASF111
 1009 033f 03       		.byte	0x3
 1010 0340 B102     		.2byte	0x2b1
 1011 0342 FA020000 		.4byte	0x2fa
 1012 0346 09       		.uleb128 0x9
 1013 0347 01       		.byte	0x1
 1014 0348 03       		.byte	0x3
 1015 0349 B502     		.2byte	0x2b5
 1016 034b 62030000 		.4byte	0x362
 1017 034f 08       		.uleb128 0x8
 1018 0350 A81B0000 		.4byte	.LASF112
 1019 0354 00       		.sleb128 0
 1020 0355 08       		.uleb128 0x8
 1021 0356 4D130000 		.4byte	.LASF113
 1022 035a 01       		.sleb128 1
 1023 035b 08       		.uleb128 0x8
 1024 035c 061D0000 		.4byte	.LASF114
 1025 0360 02       		.sleb128 2
 1026 0361 00       		.byte	0
 1027 0362 04       		.uleb128 0x4
 1028 0363 FF060000 		.4byte	.LASF115
 1029 0367 03       		.byte	0x3
 1030 0368 BC02     		.2byte	0x2bc
 1031 036a 46030000 		.4byte	0x346
 1032 036e 0A       		.uleb128 0xa
 1033 036f 02       		.byte	0x2
 1034 0370 03       		.byte	0x3
 1035 0371 BF02     		.2byte	0x2bf
 1036 0373 92030000 		.4byte	0x392
 1037 0377 0B       		.uleb128 0xb
 1038 0378 2E010000 		.4byte	.LASF116
 1039 037c 03       		.byte	0x3
 1040 037d C202     		.2byte	0x2c2
 1041 037f 3A030000 		.4byte	0x33a
 1042 0383 00       		.byte	0
 1043 0384 0B       		.uleb128 0xb
 1044 0385 F7050000 		.4byte	.LASF117
 1045 0389 03       		.byte	0x3
 1046 038a C402     		.2byte	0x2c4
 1047 038c 62030000 		.4byte	0x362
 1048 0390 01       		.byte	0x1
 1049 0391 00       		.byte	0
 1050 0392 04       		.uleb128 0x4
 1051 0393 EE1C0000 		.4byte	.LASF118
 1052 0397 03       		.byte	0x3
 1053 0398 C502     		.2byte	0x2c5
 1054 039a 6E030000 		.4byte	0x36e
 1055 039e 0A       		.uleb128 0xa
 1056 039f 07       		.byte	0x7
 1057 03a0 03       		.byte	0x3
 1058 03a1 0503     		.2byte	0x305
 1059 03a3 C2030000 		.4byte	0x3c2
ARM GAS  C:\Users\Petro\AppData\Local\Temp\cclwd5AX.s 			page 52


 1060 03a7 0B       		.uleb128 0xb
 1061 03a8 181B0000 		.4byte	.LASF119
 1062 03ac 03       		.byte	0x3
 1063 03ad 0803     		.2byte	0x308
 1064 03af C2030000 		.4byte	0x3c2
 1065 03b3 00       		.byte	0
 1066 03b4 0B       		.uleb128 0xb
 1067 03b5 8A020000 		.4byte	.LASF120
 1068 03b9 03       		.byte	0x3
 1069 03ba 0A03     		.2byte	0x30a
 1070 03bc 6B000000 		.4byte	0x6b
 1071 03c0 06       		.byte	0x6
 1072 03c1 00       		.byte	0
 1073 03c2 0C       		.uleb128 0xc
 1074 03c3 6B000000 		.4byte	0x6b
 1075 03c7 D2030000 		.4byte	0x3d2
 1076 03cb 0D       		.uleb128 0xd
 1077 03cc A9000000 		.4byte	0xa9
 1078 03d0 05       		.byte	0x5
 1079 03d1 00       		.byte	0
 1080 03d2 04       		.uleb128 0x4
 1081 03d3 F3170000 		.4byte	.LASF121
 1082 03d7 03       		.byte	0x3
 1083 03d8 0B03     		.2byte	0x30b
 1084 03da 9E030000 		.4byte	0x39e
 1085 03de 07       		.uleb128 0x7
 1086 03df 01       		.byte	0x1
 1087 03e0 04       		.byte	0x4
 1088 03e1 4B       		.byte	0x4b
 1089 03e2 FF030000 		.4byte	0x3ff
 1090 03e6 08       		.uleb128 0x8
 1091 03e7 20180000 		.4byte	.LASF122
 1092 03eb 01       		.sleb128 1
 1093 03ec 08       		.uleb128 0x8
 1094 03ed C1170000 		.4byte	.LASF123
 1095 03f1 02       		.sleb128 2
 1096 03f2 08       		.uleb128 0x8
 1097 03f3 C31E0000 		.4byte	.LASF124
 1098 03f7 03       		.sleb128 3
 1099 03f8 08       		.uleb128 0x8
 1100 03f9 7A180000 		.4byte	.LASF125
 1101 03fd 04       		.sleb128 4
 1102 03fe 00       		.byte	0
 1103 03ff 0E       		.uleb128 0xe
 1104 0400 8F020000 		.4byte	.LASF126
 1105 0404 04       		.byte	0x4
 1106 0405 58       		.byte	0x58
 1107 0406 DE030000 		.4byte	0x3de
 1108 040a 07       		.uleb128 0x7
 1109 040b 01       		.byte	0x1
 1110 040c 05       		.byte	0x5
 1111 040d B8       		.byte	0xb8
 1112 040e 2B040000 		.4byte	0x42b
 1113 0412 08       		.uleb128 0x8
 1114 0413 C0040000 		.4byte	.LASF127
 1115 0417 00       		.sleb128 0
 1116 0418 08       		.uleb128 0x8
ARM GAS  C:\Users\Petro\AppData\Local\Temp\cclwd5AX.s 			page 53


 1117 0419 D6040000 		.4byte	.LASF128
 1118 041d 01       		.sleb128 1
 1119 041e 08       		.uleb128 0x8
 1120 041f EC040000 		.4byte	.LASF129
 1121 0423 02       		.sleb128 2
 1122 0424 08       		.uleb128 0x8
 1123 0425 540A0000 		.4byte	.LASF130
 1124 0429 0F       		.sleb128 15
 1125 042a 00       		.byte	0
 1126 042b 07       		.uleb128 0x7
 1127 042c 01       		.byte	0x1
 1128 042d 05       		.byte	0x5
 1129 042e D2       		.byte	0xd2
 1130 042f 52040000 		.4byte	0x452
 1131 0433 08       		.uleb128 0x8
 1132 0434 93030000 		.4byte	.LASF131
 1133 0438 00       		.sleb128 0
 1134 0439 08       		.uleb128 0x8
 1135 043a 8F1C0000 		.4byte	.LASF132
 1136 043e 01       		.sleb128 1
 1137 043f 08       		.uleb128 0x8
 1138 0440 04090000 		.4byte	.LASF133
 1139 0444 02       		.sleb128 2
 1140 0445 08       		.uleb128 0x8
 1141 0446 C4000000 		.4byte	.LASF134
 1142 044a 03       		.sleb128 3
 1143 044b 08       		.uleb128 0x8
 1144 044c 251A0000 		.4byte	.LASF135
 1145 0450 04       		.sleb128 4
 1146 0451 00       		.byte	0
 1147 0452 0E       		.uleb128 0xe
 1148 0453 1C010000 		.4byte	.LASF136
 1149 0457 05       		.byte	0x5
 1150 0458 E4       		.byte	0xe4
 1151 0459 2B040000 		.4byte	0x42b
 1152 045d 07       		.uleb128 0x7
 1153 045e 01       		.byte	0x1
 1154 045f 05       		.byte	0x5
 1155 0460 E8       		.byte	0xe8
 1156 0461 B4040000 		.4byte	0x4b4
 1157 0465 08       		.uleb128 0x8
 1158 0466 DD150000 		.4byte	.LASF137
 1159 046a 00       		.sleb128 0
 1160 046b 08       		.uleb128 0x8
 1161 046c 00040000 		.4byte	.LASF138
 1162 0470 01       		.sleb128 1
 1163 0471 08       		.uleb128 0x8
 1164 0472 4B160000 		.4byte	.LASF139
 1165 0476 02       		.sleb128 2
 1166 0477 08       		.uleb128 0x8
 1167 0478 D90D0000 		.4byte	.LASF140
 1168 047c 03       		.sleb128 3
 1169 047d 08       		.uleb128 0x8
 1170 047e EC1D0000 		.4byte	.LASF141
 1171 0482 04       		.sleb128 4
 1172 0483 08       		.uleb128 0x8
 1173 0484 4F180000 		.4byte	.LASF142
ARM GAS  C:\Users\Petro\AppData\Local\Temp\cclwd5AX.s 			page 54


 1174 0488 05       		.sleb128 5
 1175 0489 08       		.uleb128 0x8
 1176 048a 4C100000 		.4byte	.LASF143
 1177 048e 06       		.sleb128 6
 1178 048f 08       		.uleb128 0x8
 1179 0490 AE0D0000 		.4byte	.LASF144
 1180 0494 07       		.sleb128 7
 1181 0495 08       		.uleb128 0x8
 1182 0496 D2020000 		.4byte	.LASF145
 1183 049a 08       		.sleb128 8
 1184 049b 08       		.uleb128 0x8
 1185 049c 8B0F0000 		.4byte	.LASF146
 1186 04a0 09       		.sleb128 9
 1187 04a1 08       		.uleb128 0x8
 1188 04a2 2A080000 		.4byte	.LASF147
 1189 04a6 0A       		.sleb128 10
 1190 04a7 08       		.uleb128 0x8
 1191 04a8 A6020000 		.4byte	.LASF148
 1192 04ac 15       		.sleb128 21
 1193 04ad 08       		.uleb128 0x8
 1194 04ae 300C0000 		.4byte	.LASF149
 1195 04b2 18       		.sleb128 24
 1196 04b3 00       		.byte	0
 1197 04b4 04       		.uleb128 0x4
 1198 04b5 65140000 		.4byte	.LASF150
 1199 04b9 05       		.byte	0x5
 1200 04ba 1401     		.2byte	0x114
 1201 04bc 5D040000 		.4byte	0x45d
 1202 04c0 0A       		.uleb128 0xa
 1203 04c1 04       		.byte	0x4
 1204 04c2 05       		.byte	0x5
 1205 04c3 2D01     		.2byte	0x12d
 1206 04c5 FE040000 		.4byte	0x4fe
 1207 04c9 0B       		.uleb128 0xb
 1208 04ca 7F190000 		.4byte	.LASF151
 1209 04ce 05       		.byte	0x5
 1210 04cf 3601     		.2byte	0x136
 1211 04d1 6B000000 		.4byte	0x6b
 1212 04d5 00       		.byte	0
 1213 04d6 0B       		.uleb128 0xb
 1214 04d7 B4120000 		.4byte	.LASF152
 1215 04db 05       		.byte	0x5
 1216 04dc 3C01     		.2byte	0x13c
 1217 04de 6B000000 		.4byte	0x6b
 1218 04e2 01       		.byte	0x1
 1219 04e3 0B       		.uleb128 0xb
 1220 04e4 36000000 		.4byte	.LASF153
 1221 04e8 05       		.byte	0x5
 1222 04e9 4201     		.2byte	0x142
 1223 04eb 6B000000 		.4byte	0x6b
 1224 04ef 02       		.byte	0x2
 1225 04f0 0B       		.uleb128 0xb
 1226 04f1 A7190000 		.4byte	.LASF154
 1227 04f5 05       		.byte	0x5
 1228 04f6 4601     		.2byte	0x146
 1229 04f8 B4040000 		.4byte	0x4b4
 1230 04fc 03       		.byte	0x3
ARM GAS  C:\Users\Petro\AppData\Local\Temp\cclwd5AX.s 			page 55


 1231 04fd 00       		.byte	0
 1232 04fe 04       		.uleb128 0x4
 1233 04ff EE080000 		.4byte	.LASF155
 1234 0503 05       		.byte	0x5
 1235 0504 4801     		.2byte	0x148
 1236 0506 C0040000 		.4byte	0x4c0
 1237 050a 0F       		.uleb128 0xf
 1238 050b 04       		.byte	0x4
 1239 050c 6B000000 		.4byte	0x6b
 1240 0510 0A       		.uleb128 0xa
 1241 0511 08       		.byte	0x8
 1242 0512 05       		.byte	0x5
 1243 0513 B402     		.2byte	0x2b4
 1244 0515 4E050000 		.4byte	0x54e
 1245 0519 0B       		.uleb128 0xb
 1246 051a 8C0D0000 		.4byte	.LASF156
 1247 051e 05       		.byte	0x5
 1248 051f B802     		.2byte	0x2b8
 1249 0521 6B000000 		.4byte	0x6b
 1250 0525 00       		.byte	0
 1251 0526 0B       		.uleb128 0xb
 1252 0527 6C1D0000 		.4byte	.LASF157
 1253 052b 05       		.byte	0x5
 1254 052c BE02     		.2byte	0x2be
 1255 052e 77000000 		.4byte	0x77
 1256 0532 02       		.byte	0x2
 1257 0533 0B       		.uleb128 0xb
 1258 0534 611C0000 		.4byte	.LASF158
 1259 0538 05       		.byte	0x5
 1260 0539 C302     		.2byte	0x2c3
 1261 053b 77000000 		.4byte	0x77
 1262 053f 04       		.byte	0x4
 1263 0540 0B       		.uleb128 0xb
 1264 0541 000F0000 		.4byte	.LASF159
 1265 0545 05       		.byte	0x5
 1266 0546 C902     		.2byte	0x2c9
 1267 0548 77000000 		.4byte	0x77
 1268 054c 06       		.byte	0x6
 1269 054d 00       		.byte	0
 1270 054e 04       		.uleb128 0x4
 1271 054f 77160000 		.4byte	.LASF160
 1272 0553 05       		.byte	0x5
 1273 0554 CB02     		.2byte	0x2cb
 1274 0556 10050000 		.4byte	0x510
 1275 055a 07       		.uleb128 0x7
 1276 055b 01       		.byte	0x1
 1277 055c 06       		.byte	0x6
 1278 055d 4E       		.byte	0x4e
 1279 055e 14060000 		.4byte	0x614
 1280 0562 08       		.uleb128 0x8
 1281 0563 E10A0000 		.4byte	.LASF161
 1282 0567 01       		.sleb128 1
 1283 0568 08       		.uleb128 0x8
 1284 0569 72090000 		.4byte	.LASF162
 1285 056d 02       		.sleb128 2
 1286 056e 08       		.uleb128 0x8
 1287 056f 80040000 		.4byte	.LASF163
ARM GAS  C:\Users\Petro\AppData\Local\Temp\cclwd5AX.s 			page 56


 1288 0573 03       		.sleb128 3
 1289 0574 08       		.uleb128 0x8
 1290 0575 AB060000 		.4byte	.LASF164
 1291 0579 04       		.sleb128 4
 1292 057a 08       		.uleb128 0x8
 1293 057b 32160000 		.4byte	.LASF165
 1294 057f 05       		.sleb128 5
 1295 0580 08       		.uleb128 0x8
 1296 0581 A0150000 		.4byte	.LASF166
 1297 0585 06       		.sleb128 6
 1298 0586 08       		.uleb128 0x8
 1299 0587 02050000 		.4byte	.LASF167
 1300 058b 07       		.sleb128 7
 1301 058c 08       		.uleb128 0x8
 1302 058d 4A150000 		.4byte	.LASF168
 1303 0591 08       		.sleb128 8
 1304 0592 08       		.uleb128 0x8
 1305 0593 FA020000 		.4byte	.LASF169
 1306 0597 09       		.sleb128 9
 1307 0598 08       		.uleb128 0x8
 1308 0599 780D0000 		.4byte	.LASF170
 1309 059d 0A       		.sleb128 10
 1310 059e 08       		.uleb128 0x8
 1311 059f 5C1B0000 		.4byte	.LASF171
 1312 05a3 0B       		.sleb128 11
 1313 05a4 08       		.uleb128 0x8
 1314 05a5 07180000 		.4byte	.LASF172
 1315 05a9 0C       		.sleb128 12
 1316 05aa 08       		.uleb128 0x8
 1317 05ab 1D060000 		.4byte	.LASF173
 1318 05af 0D       		.sleb128 13
 1319 05b0 08       		.uleb128 0x8
 1320 05b1 F6140000 		.4byte	.LASF174
 1321 05b5 0E       		.sleb128 14
 1322 05b6 08       		.uleb128 0x8
 1323 05b7 6D020000 		.4byte	.LASF175
 1324 05bb 0F       		.sleb128 15
 1325 05bc 08       		.uleb128 0x8
 1326 05bd CF1D0000 		.4byte	.LASF176
 1327 05c1 10       		.sleb128 16
 1328 05c2 08       		.uleb128 0x8
 1329 05c3 C90C0000 		.4byte	.LASF177
 1330 05c7 11       		.sleb128 17
 1331 05c8 08       		.uleb128 0x8
 1332 05c9 88190000 		.4byte	.LASF178
 1333 05cd 12       		.sleb128 18
 1334 05ce 08       		.uleb128 0x8
 1335 05cf BA080000 		.4byte	.LASF179
 1336 05d3 13       		.sleb128 19
 1337 05d4 08       		.uleb128 0x8
 1338 05d5 00010000 		.4byte	.LASF180
 1339 05d9 D200     		.sleb128 82
 1340 05db 08       		.uleb128 0x8
 1341 05dc 86010000 		.4byte	.LASF181
 1342 05e0 16       		.sleb128 22
 1343 05e1 08       		.uleb128 0x8
 1344 05e2 DD130000 		.4byte	.LASF182
ARM GAS  C:\Users\Petro\AppData\Local\Temp\cclwd5AX.s 			page 57


 1345 05e6 17       		.sleb128 23
 1346 05e7 08       		.uleb128 0x8
 1347 05e8 D11C0000 		.4byte	.LASF183
 1348 05ec 18       		.sleb128 24
 1349 05ed 08       		.uleb128 0x8
 1350 05ee DD0B0000 		.4byte	.LASF184
 1351 05f2 19       		.sleb128 25
 1352 05f3 08       		.uleb128 0x8
 1353 05f4 090E0000 		.4byte	.LASF185
 1354 05f8 1B       		.sleb128 27
 1355 05f9 08       		.uleb128 0x8
 1356 05fa C4070000 		.4byte	.LASF186
 1357 05fe 1D       		.sleb128 29
 1358 05ff 08       		.uleb128 0x8
 1359 0600 3F000000 		.4byte	.LASF187
 1360 0604 1E       		.sleb128 30
 1361 0605 08       		.uleb128 0x8
 1362 0606 7C0B0000 		.4byte	.LASF188
 1363 060a D201     		.sleb128 210
 1364 060c 08       		.uleb128 0x8
 1365 060d FE160000 		.4byte	.LASF189
 1366 0611 FF01     		.sleb128 255
 1367 0613 00       		.byte	0
 1368 0614 07       		.uleb128 0x7
 1369 0615 01       		.byte	0x1
 1370 0616 06       		.byte	0x6
 1371 0617 AA       		.byte	0xaa
 1372 0618 07070000 		.4byte	0x707
 1373 061c 08       		.uleb128 0x8
 1374 061d 7E170000 		.4byte	.LASF190
 1375 0621 00       		.sleb128 0
 1376 0622 08       		.uleb128 0x8
 1377 0623 BB160000 		.4byte	.LASF191
 1378 0627 01       		.sleb128 1
 1379 0628 08       		.uleb128 0x8
 1380 0629 3F010000 		.4byte	.LASF192
 1381 062d 02       		.sleb128 2
 1382 062e 08       		.uleb128 0x8
 1383 062f 491D0000 		.4byte	.LASF193
 1384 0633 03       		.sleb128 3
 1385 0634 08       		.uleb128 0x8
 1386 0635 6E050000 		.4byte	.LASF194
 1387 0639 04       		.sleb128 4
 1388 063a 08       		.uleb128 0x8
 1389 063b 06130000 		.4byte	.LASF195
 1390 063f 05       		.sleb128 5
 1391 0640 08       		.uleb128 0x8
 1392 0641 E6190000 		.4byte	.LASF196
 1393 0645 06       		.sleb128 6
 1394 0646 08       		.uleb128 0x8
 1395 0647 2C150000 		.4byte	.LASF197
 1396 064b 07       		.sleb128 7
 1397 064c 08       		.uleb128 0x8
 1398 064d 7F120000 		.4byte	.LASF198
 1399 0651 08       		.sleb128 8
 1400 0652 08       		.uleb128 0x8
 1401 0653 C5100000 		.4byte	.LASF199
ARM GAS  C:\Users\Petro\AppData\Local\Temp\cclwd5AX.s 			page 58


 1402 0657 09       		.sleb128 9
 1403 0658 08       		.uleb128 0x8
 1404 0659 FA130000 		.4byte	.LASF200
 1405 065d 0A       		.sleb128 10
 1406 065e 08       		.uleb128 0x8
 1407 065f 320A0000 		.4byte	.LASF201
 1408 0663 0B       		.sleb128 11
 1409 0664 08       		.uleb128 0x8
 1410 0665 77110000 		.4byte	.LASF202
 1411 0669 0C       		.sleb128 12
 1412 066a 08       		.uleb128 0x8
 1413 066b 36060000 		.4byte	.LASF203
 1414 066f 0D       		.sleb128 13
 1415 0670 08       		.uleb128 0x8
 1416 0671 54090000 		.4byte	.LASF204
 1417 0675 0E       		.sleb128 14
 1418 0676 08       		.uleb128 0x8
 1419 0677 881D0000 		.4byte	.LASF205
 1420 067b 0F       		.sleb128 15
 1421 067c 08       		.uleb128 0x8
 1422 067d A3010000 		.4byte	.LASF206
 1423 0681 10       		.sleb128 16
 1424 0682 08       		.uleb128 0x8
 1425 0683 61010000 		.4byte	.LASF207
 1426 0687 11       		.sleb128 17
 1427 0688 08       		.uleb128 0x8
 1428 0689 FC090000 		.4byte	.LASF208
 1429 068d 8001     		.sleb128 128
 1430 068f 08       		.uleb128 0x8
 1431 0690 650C0000 		.4byte	.LASF209
 1432 0694 8001     		.sleb128 128
 1433 0696 08       		.uleb128 0x8
 1434 0697 AF190000 		.4byte	.LASF210
 1435 069b 8001     		.sleb128 128
 1436 069d 08       		.uleb128 0x8
 1437 069e D3170000 		.4byte	.LASF211
 1438 06a2 8001     		.sleb128 128
 1439 06a4 08       		.uleb128 0x8
 1440 06a5 80130000 		.4byte	.LASF212
 1441 06a9 8001     		.sleb128 128
 1442 06ab 08       		.uleb128 0x8
 1443 06ac 090D0000 		.4byte	.LASF213
 1444 06b0 8001     		.sleb128 128
 1445 06b2 08       		.uleb128 0x8
 1446 06b3 39090000 		.4byte	.LASF214
 1447 06b7 8001     		.sleb128 128
 1448 06b9 08       		.uleb128 0x8
 1449 06ba 980B0000 		.4byte	.LASF215
 1450 06be 8101     		.sleb128 129
 1451 06c0 08       		.uleb128 0x8
 1452 06c1 E2180000 		.4byte	.LASF216
 1453 06c5 8101     		.sleb128 129
 1454 06c7 08       		.uleb128 0x8
 1455 06c8 12000000 		.4byte	.LASF217
 1456 06cc 8101     		.sleb128 129
 1457 06ce 08       		.uleb128 0x8
 1458 06cf 1F1B0000 		.4byte	.LASF218
ARM GAS  C:\Users\Petro\AppData\Local\Temp\cclwd5AX.s 			page 59


 1459 06d3 A001     		.sleb128 160
 1460 06d5 08       		.uleb128 0x8
 1461 06d6 DC0E0000 		.4byte	.LASF219
 1462 06da A001     		.sleb128 160
 1463 06dc 08       		.uleb128 0x8
 1464 06dd 2A040000 		.4byte	.LASF220
 1465 06e1 A101     		.sleb128 161
 1466 06e3 08       		.uleb128 0x8
 1467 06e4 BF1A0000 		.4byte	.LASF221
 1468 06e8 A201     		.sleb128 162
 1469 06ea 08       		.uleb128 0x8
 1470 06eb AE0A0000 		.4byte	.LASF222
 1471 06ef A301     		.sleb128 163
 1472 06f1 08       		.uleb128 0x8
 1473 06f2 1B070000 		.4byte	.LASF223
 1474 06f6 FD01     		.sleb128 253
 1475 06f8 08       		.uleb128 0x8
 1476 06f9 B5110000 		.4byte	.LASF224
 1477 06fd FE01     		.sleb128 254
 1478 06ff 08       		.uleb128 0x8
 1479 0700 84150000 		.4byte	.LASF225
 1480 0704 FF01     		.sleb128 255
 1481 0706 00       		.byte	0
 1482 0707 04       		.uleb128 0x4
 1483 0708 AB170000 		.4byte	.LASF226
 1484 070c 06       		.byte	0x6
 1485 070d 5901     		.2byte	0x159
 1486 070f 14060000 		.4byte	0x614
 1487 0713 04       		.uleb128 0x4
 1488 0714 33170000 		.4byte	.LASF227
 1489 0718 06       		.byte	0x6
 1490 0719 8801     		.2byte	0x188
 1491 071b 77000000 		.4byte	0x77
 1492 071f 0A       		.uleb128 0xa
 1493 0720 02       		.byte	0x2
 1494 0721 06       		.byte	0x6
 1495 0722 9201     		.2byte	0x192
 1496 0724 43070000 		.4byte	0x743
 1497 0728 0B       		.uleb128 0xb
 1498 0729 F7030000 		.4byte	.LASF228
 1499 072d 06       		.byte	0x6
 1500 072e 9901     		.2byte	0x199
 1501 0730 6B000000 		.4byte	0x6b
 1502 0734 00       		.byte	0
 1503 0735 0B       		.uleb128 0xb
 1504 0736 191E0000 		.4byte	.LASF229
 1505 073a 06       		.byte	0x6
 1506 073b 9F01     		.2byte	0x19f
 1507 073d 6B000000 		.4byte	0x6b
 1508 0741 01       		.byte	0x1
 1509 0742 00       		.byte	0
 1510 0743 04       		.uleb128 0x4
 1511 0744 5F030000 		.4byte	.LASF230
 1512 0748 06       		.byte	0x6
 1513 0749 A101     		.2byte	0x1a1
 1514 074b 1F070000 		.4byte	0x71f
 1515 074f 0A       		.uleb128 0xa
ARM GAS  C:\Users\Petro\AppData\Local\Temp\cclwd5AX.s 			page 60


 1516 0750 08       		.byte	0x8
 1517 0751 06       		.byte	0x6
 1518 0752 BD01     		.2byte	0x1bd
 1519 0754 80070000 		.4byte	0x780
 1520 0758 10       		.uleb128 0x10
 1521 0759 76616C00 		.ascii	"val\000"
 1522 075d 06       		.byte	0x6
 1523 075e C001     		.2byte	0x1c0
 1524 0760 0A050000 		.4byte	0x50a
 1525 0764 00       		.byte	0
 1526 0765 10       		.uleb128 0x10
 1527 0766 6C656E00 		.ascii	"len\000"
 1528 076a 06       		.byte	0x6
 1529 076b C301     		.2byte	0x1c3
 1530 076d 77000000 		.4byte	0x77
 1531 0771 04       		.byte	0x4
 1532 0772 0B       		.uleb128 0xb
 1533 0773 C51D0000 		.4byte	.LASF231
 1534 0777 06       		.byte	0x6
 1535 0778 CA01     		.2byte	0x1ca
 1536 077a 77000000 		.4byte	0x77
 1537 077e 06       		.byte	0x6
 1538 077f 00       		.byte	0
 1539 0780 04       		.uleb128 0x4
 1540 0781 5A020000 		.4byte	.LASF232
 1541 0785 06       		.byte	0x6
 1542 0786 CC01     		.2byte	0x1cc
 1543 0788 4F070000 		.4byte	0x74f
 1544 078c 0A       		.uleb128 0xa
 1545 078d 0C       		.byte	0xc
 1546 078e 06       		.byte	0x6
 1547 078f CF01     		.2byte	0x1cf
 1548 0791 B0070000 		.4byte	0x7b0
 1549 0795 0B       		.uleb128 0xb
 1550 0796 92170000 		.4byte	.LASF233
 1551 079a 06       		.byte	0x6
 1552 079b D201     		.2byte	0x1d2
 1553 079d 80070000 		.4byte	0x780
 1554 07a1 00       		.byte	0
 1555 07a2 0B       		.uleb128 0xb
 1556 07a3 A9120000 		.4byte	.LASF234
 1557 07a7 06       		.byte	0x6
 1558 07a8 D501     		.2byte	0x1d5
 1559 07aa 13070000 		.4byte	0x713
 1560 07ae 08       		.byte	0x8
 1561 07af 00       		.byte	0
 1562 07b0 04       		.uleb128 0x4
 1563 07b1 D8050000 		.4byte	.LASF235
 1564 07b5 06       		.byte	0x6
 1565 07b6 D701     		.2byte	0x1d7
 1566 07b8 8C070000 		.4byte	0x78c
 1567 07bc 0A       		.uleb128 0xa
 1568 07bd 04       		.byte	0x4
 1569 07be 06       		.byte	0x6
 1570 07bf E501     		.2byte	0x1e5
 1571 07c1 E0070000 		.4byte	0x7e0
 1572 07c5 0B       		.uleb128 0xb
ARM GAS  C:\Users\Petro\AppData\Local\Temp\cclwd5AX.s 			page 61


 1573 07c6 44180000 		.4byte	.LASF236
 1574 07ca 06       		.byte	0x6
 1575 07cb E801     		.2byte	0x1e8
 1576 07cd 43070000 		.4byte	0x743
 1577 07d1 00       		.byte	0
 1578 07d2 10       		.uleb128 0x10
 1579 07d3 6D747500 		.ascii	"mtu\000"
 1580 07d7 06       		.byte	0x6
 1581 07d8 EB01     		.2byte	0x1eb
 1582 07da 77000000 		.4byte	0x77
 1583 07de 02       		.byte	0x2
 1584 07df 00       		.byte	0
 1585 07e0 04       		.uleb128 0x4
 1586 07e1 31130000 		.4byte	.LASF237
 1587 07e5 06       		.byte	0x6
 1588 07e6 ED01     		.2byte	0x1ed
 1589 07e8 BC070000 		.4byte	0x7bc
 1590 07ec 11       		.uleb128 0x11
 1591 07ed 04       		.byte	0x4
 1592 07ee 07       		.byte	0x7
 1593 07ef 3A       		.byte	0x3a
 1594 07f0 19080000 		.4byte	0x819
 1595 07f4 12       		.uleb128 0x12
 1596 07f5 A9120000 		.4byte	.LASF234
 1597 07f9 07       		.byte	0x7
 1598 07fa 3D       		.byte	0x3d
 1599 07fb 13070000 		.4byte	0x713
 1600 07ff 00       		.byte	0
 1601 0800 12       		.uleb128 0x12
 1602 0801 78120000 		.4byte	.LASF238
 1603 0805 07       		.byte	0x7
 1604 0806 43       		.byte	0x43
 1605 0807 6B000000 		.4byte	0x6b
 1606 080b 02       		.byte	0x2
 1607 080c 12       		.uleb128 0x12
 1608 080d 20080000 		.4byte	.LASF239
 1609 0811 07       		.byte	0x7
 1610 0812 46       		.byte	0x46
 1611 0813 07070000 		.4byte	0x707
 1612 0817 03       		.byte	0x3
 1613 0818 00       		.byte	0
 1614 0819 0E       		.uleb128 0xe
 1615 081a 80070000 		.4byte	.LASF240
 1616 081e 07       		.byte	0x7
 1617 081f 48       		.byte	0x48
 1618 0820 EC070000 		.4byte	0x7ec
 1619 0824 11       		.uleb128 0x11
 1620 0825 10       		.byte	0x10
 1621 0826 07       		.byte	0x7
 1622 0827 8A       		.byte	0x8a
 1623 0828 45080000 		.4byte	0x845
 1624 082c 12       		.uleb128 0x12
 1625 082d 44180000 		.4byte	.LASF236
 1626 0831 07       		.byte	0x7
 1627 0832 8D       		.byte	0x8d
 1628 0833 43070000 		.4byte	0x743
 1629 0837 00       		.byte	0
ARM GAS  C:\Users\Petro\AppData\Local\Temp\cclwd5AX.s 			page 62


 1630 0838 12       		.uleb128 0x12
 1631 0839 36180000 		.4byte	.LASF241
 1632 083d 07       		.byte	0x7
 1633 083e 90       		.byte	0x90
 1634 083f B0070000 		.4byte	0x7b0
 1635 0843 04       		.byte	0x4
 1636 0844 00       		.byte	0
 1637 0845 0E       		.uleb128 0xe
 1638 0846 BC120000 		.4byte	.LASF242
 1639 084a 07       		.byte	0x7
 1640 084b 92       		.byte	0x92
 1641 084c 24080000 		.4byte	0x824
 1642 0850 0E       		.uleb128 0xe
 1643 0851 6D1C0000 		.4byte	.LASF243
 1644 0855 07       		.byte	0x7
 1645 0856 95       		.byte	0x95
 1646 0857 45080000 		.4byte	0x845
 1647 085b 04       		.uleb128 0x4
 1648 085c 16030000 		.4byte	.LASF244
 1649 0860 08       		.byte	0x8
 1650 0861 4101     		.2byte	0x141
 1651 0863 67080000 		.4byte	0x867
 1652 0867 0F       		.uleb128 0xf
 1653 0868 04       		.byte	0x4
 1654 0869 6D080000 		.4byte	0x86d
 1655 086d 13       		.uleb128 0x13
 1656 086e 7D080000 		.4byte	0x87d
 1657 0872 14       		.uleb128 0x14
 1658 0873 83000000 		.4byte	0x83
 1659 0877 14       		.uleb128 0x14
 1660 0878 B0000000 		.4byte	0xb0
 1661 087c 00       		.byte	0
 1662 087d 15       		.uleb128 0x15
 1663 087e 7901     		.2byte	0x179
 1664 0880 09       		.byte	0x9
 1665 0881 9B       		.byte	0x9b
 1666 0882 BA080000 		.4byte	0x8ba
 1667 0886 12       		.uleb128 0x12
 1668 0887 570C0000 		.4byte	.LASF245
 1669 088b 09       		.byte	0x9
 1670 088c 9D       		.byte	0x9d
 1671 088d BA080000 		.4byte	0x8ba
 1672 0891 00       		.byte	0
 1673 0892 16       		.uleb128 0x16
 1674 0893 630B0000 		.4byte	.LASF246
 1675 0897 09       		.byte	0x9
 1676 0898 9E       		.byte	0x9e
 1677 0899 CB080000 		.4byte	0x8cb
 1678 089d 6D01     		.2byte	0x16d
 1679 089f 16       		.uleb128 0x16
 1680 08a0 B51A0000 		.4byte	.LASF247
 1681 08a4 09       		.byte	0x9
 1682 08a5 9F       		.byte	0x9f
 1683 08a6 6B000000 		.4byte	0x6b
 1684 08aa 7701     		.2byte	0x177
 1685 08ac 16       		.uleb128 0x16
 1686 08ad 140B0000 		.4byte	.LASF248
ARM GAS  C:\Users\Petro\AppData\Local\Temp\cclwd5AX.s 			page 63


 1687 08b1 09       		.byte	0x9
 1688 08b2 A0       		.byte	0xa0
 1689 08b3 6B000000 		.4byte	0x6b
 1690 08b7 7801     		.2byte	0x178
 1691 08b9 00       		.byte	0
 1692 08ba 0C       		.uleb128 0xc
 1693 08bb 6B000000 		.4byte	0x6b
 1694 08bf CB080000 		.4byte	0x8cb
 1695 08c3 17       		.uleb128 0x17
 1696 08c4 A9000000 		.4byte	0xa9
 1697 08c8 6C01     		.2byte	0x16c
 1698 08ca 00       		.byte	0
 1699 08cb 0C       		.uleb128 0xc
 1700 08cc 6B000000 		.4byte	0x6b
 1701 08d0 E1080000 		.4byte	0x8e1
 1702 08d4 0D       		.uleb128 0xd
 1703 08d5 A9000000 		.4byte	0xa9
 1704 08d9 04       		.byte	0x4
 1705 08da 0D       		.uleb128 0xd
 1706 08db A9000000 		.4byte	0xa9
 1707 08df 01       		.byte	0x1
 1708 08e0 00       		.byte	0
 1709 08e1 0E       		.uleb128 0xe
 1710 08e2 0D100000 		.4byte	.LASF249
 1711 08e6 09       		.byte	0x9
 1712 08e7 A1       		.byte	0xa1
 1713 08e8 7D080000 		.4byte	0x87d
 1714 08ec 09       		.uleb128 0x9
 1715 08ed 01       		.byte	0x1
 1716 08ee 0A       		.byte	0xa
 1717 08ef 3707     		.2byte	0x737
 1718 08f1 14090000 		.4byte	0x914
 1719 08f5 08       		.uleb128 0x8
 1720 08f6 6C070000 		.4byte	.LASF250
 1721 08fa 00       		.sleb128 0
 1722 08fb 08       		.uleb128 0x8
 1723 08fc 640F0000 		.4byte	.LASF251
 1724 0900 01       		.sleb128 1
 1725 0901 08       		.uleb128 0x8
 1726 0902 AF1D0000 		.4byte	.LASF252
 1727 0906 02       		.sleb128 2
 1728 0907 08       		.uleb128 0x8
 1729 0908 CB030000 		.4byte	.LASF253
 1730 090c 03       		.sleb128 3
 1731 090d 08       		.uleb128 0x8
 1732 090e 29190000 		.4byte	.LASF254
 1733 0912 04       		.sleb128 4
 1734 0913 00       		.byte	0
 1735 0914 04       		.uleb128 0x4
 1736 0915 461A0000 		.4byte	.LASF255
 1737 0919 0A       		.byte	0xa
 1738 091a 4507     		.2byte	0x745
 1739 091c EC080000 		.4byte	0x8ec
 1740 0920 18       		.uleb128 0x18
 1741 0921 4A140000 		.4byte	.LASF294
 1742 0925 01       		.byte	0x1
 1743 0926 1D05     		.2byte	0x51d
ARM GAS  C:\Users\Petro\AppData\Local\Temp\cclwd5AX.s 			page 64


 1744 0928 6B000000 		.4byte	0x6b
 1745 092c 00000000 		.4byte	.LFB7
 1746 0930 24000000 		.4byte	.LFE7-.LFB7
 1747 0934 01       		.uleb128 0x1
 1748 0935 9C       		.byte	0x9c
 1749 0936 69090000 		.4byte	0x969
 1750 093a 19       		.uleb128 0x19
 1751 093b B1100000 		.4byte	.LASF259
 1752 093f 01       		.byte	0x1
 1753 0940 1D05     		.2byte	0x51d
 1754 0942 69090000 		.4byte	0x969
 1755 0946 00000000 		.4byte	.LLST0
 1756 094a 1A       		.uleb128 0x1a
 1757 094b 6900     		.ascii	"i\000"
 1758 094d 01       		.byte	0x1
 1759 094e 1F05     		.2byte	0x51f
 1760 0950 6B000000 		.4byte	0x6b
 1761 0954 53000000 		.4byte	.LLST1
 1762 0958 1B       		.uleb128 0x1b
 1763 0959 EB160000 		.4byte	.LASF256
 1764 095d 01       		.byte	0x1
 1765 095e 2005     		.2byte	0x520
 1766 0960 6B000000 		.4byte	0x6b
 1767 0964 7C000000 		.4byte	.LLST2
 1768 0968 00       		.byte	0
 1769 0969 0F       		.uleb128 0xf
 1770 096a 04       		.byte	0x4
 1771 096b 6F090000 		.4byte	0x96f
 1772 096f 1C       		.uleb128 0x1c
 1773 0970 D2030000 		.4byte	0x3d2
 1774 0974 1D       		.uleb128 0x1d
 1775 0975 90100000 		.4byte	.LASF257
 1776 0979 01       		.byte	0x1
 1777 097a 8104     		.2byte	0x481
 1778 097c 00000000 		.4byte	.LFB4
 1779 0980 14000000 		.4byte	.LFE4-.LFB4
 1780 0984 01       		.uleb128 0x1
 1781 0985 9C       		.byte	0x9c
 1782 0986 94090000 		.4byte	0x994
 1783 098a 1E       		.uleb128 0x1e
 1784 098b 0E000000 		.4byte	.LVL10
 1785 098f CB0C0000 		.4byte	0xccb
 1786 0993 00       		.byte	0
 1787 0994 1F       		.uleb128 0x1f
 1788 0995 84000000 		.4byte	.LASF258
 1789 0999 01       		.byte	0x1
 1790 099a E3       		.byte	0xe3
 1791 099b 00000000 		.4byte	.LFB2
 1792 099f 38000000 		.4byte	.LFE2-.LFB2
 1793 09a3 01       		.uleb128 0x1
 1794 09a4 9C       		.byte	0x9c
 1795 09a5 120A0000 		.4byte	0xa12
 1796 09a9 20       		.uleb128 0x20
 1797 09aa 9A000000 		.4byte	.LASF260
 1798 09ae 01       		.byte	0x1
 1799 09af E3       		.byte	0xe3
 1800 09b0 120A0000 		.4byte	0xa12
ARM GAS  C:\Users\Petro\AppData\Local\Temp\cclwd5AX.s 			page 65


 1801 09b4 9B000000 		.4byte	.LLST3
 1802 09b8 21       		.uleb128 0x21
 1803 09b9 411D0000 		.4byte	.LASF261
 1804 09bd 01       		.byte	0x1
 1805 09be E5       		.byte	0xe5
 1806 09bf 07070000 		.4byte	0x707
 1807 09c3 C7000000 		.4byte	.LLST4
 1808 09c7 22       		.uleb128 0x22
 1809 09c8 16000000 		.4byte	.LBB2
 1810 09cc 12000000 		.4byte	.LBE2-.LBB2
 1811 09d0 F4090000 		.4byte	0x9f4
 1812 09d4 23       		.uleb128 0x23
 1813 09d5 AE130000 		.4byte	.LASF262
 1814 09d9 01       		.byte	0x1
 1815 09da 8701     		.2byte	0x187
 1816 09dc 19080000 		.4byte	0x819
 1817 09e0 02       		.uleb128 0x2
 1818 09e1 91       		.byte	0x91
 1819 09e2 74       		.sleb128 -12
 1820 09e3 24       		.uleb128 0x24
 1821 09e4 28000000 		.4byte	.LVL14
 1822 09e8 D20C0000 		.4byte	0xcd2
 1823 09ec 25       		.uleb128 0x25
 1824 09ed 01       		.uleb128 0x1
 1825 09ee 51       		.byte	0x51
 1826 09ef 02       		.uleb128 0x2
 1827 09f0 91       		.byte	0x91
 1828 09f1 74       		.sleb128 -12
 1829 09f2 00       		.byte	0
 1830 09f3 00       		.byte	0
 1831 09f4 26       		.uleb128 0x26
 1832 09f5 0A000000 		.4byte	.LVL12
 1833 09f9 F30C0000 		.4byte	0xcf3
 1834 09fd 080A0000 		.4byte	0xa08
 1835 0a01 25       		.uleb128 0x25
 1836 0a02 01       		.uleb128 0x1
 1837 0a03 50       		.byte	0x50
 1838 0a04 02       		.uleb128 0x2
 1839 0a05 74       		.byte	0x74
 1840 0a06 00       		.sleb128 0
 1841 0a07 00       		.byte	0
 1842 0a08 1E       		.uleb128 0x1e
 1843 0a09 30000000 		.4byte	.LVL17
 1844 0a0d 080D0000 		.4byte	0xd08
 1845 0a11 00       		.byte	0
 1846 0a12 0F       		.uleb128 0xf
 1847 0a13 04       		.byte	0x4
 1848 0a14 45080000 		.4byte	0x845
 1849 0a18 27       		.uleb128 0x27
 1850 0a19 DD060000 		.4byte	.LASF295
 1851 0a1d 01       		.byte	0x1
 1852 0a1e 7905     		.2byte	0x579
 1853 0a20 00000000 		.4byte	.LFB10
 1854 0a24 44020000 		.4byte	.LFE10-.LFB10
 1855 0a28 01       		.uleb128 0x1
 1856 0a29 9C       		.byte	0x9c
 1857 0a2a FD0B0000 		.4byte	0xbfd
ARM GAS  C:\Users\Petro\AppData\Local\Temp\cclwd5AX.s 			page 66


 1858 0a2e 19       		.uleb128 0x19
 1859 0a2f 241C0000 		.4byte	.LASF263
 1860 0a33 01       		.byte	0x1
 1861 0a34 7905     		.2byte	0x579
 1862 0a36 6B000000 		.4byte	0x6b
 1863 0a3a F1000000 		.4byte	.LLST5
 1864 0a3e 19       		.uleb128 0x19
 1865 0a3f 9A000000 		.4byte	.LASF260
 1866 0a43 01       		.byte	0x1
 1867 0a44 7905     		.2byte	0x579
 1868 0a46 B0000000 		.4byte	0xb0
 1869 0a4a DA010000 		.4byte	.LLST6
 1870 0a4e 22       		.uleb128 0x22
 1871 0a4f 60000000 		.4byte	.LBB3
 1872 0a53 1C000000 		.4byte	.LBE3-.LBB3
 1873 0a57 8F0A0000 		.4byte	0xa8f
 1874 0a5b 23       		.uleb128 0x23
 1875 0a5c 4F170000 		.4byte	.LASF264
 1876 0a60 01       		.byte	0x1
 1877 0a61 8605     		.2byte	0x586
 1878 0a63 92030000 		.4byte	0x392
 1879 0a67 02       		.uleb128 0x2
 1880 0a68 91       		.byte	0x91
 1881 0a69 64       		.sleb128 -28
 1882 0a6a 26       		.uleb128 0x26
 1883 0a6b 70000000 		.4byte	.LVL22
 1884 0a6f 1E0D0000 		.4byte	0xd1e
 1885 0a73 7E0A0000 		.4byte	0xa7e
 1886 0a77 25       		.uleb128 0x25
 1887 0a78 01       		.uleb128 0x1
 1888 0a79 50       		.byte	0x50
 1889 0a7a 02       		.uleb128 0x2
 1890 0a7b 76       		.byte	0x76
 1891 0a7c 00       		.sleb128 0
 1892 0a7d 00       		.byte	0
 1893 0a7e 24       		.uleb128 0x24
 1894 0a7f 7C000000 		.4byte	.LVL23
 1895 0a83 1E0D0000 		.4byte	0xd1e
 1896 0a87 25       		.uleb128 0x25
 1897 0a88 01       		.uleb128 0x1
 1898 0a89 50       		.byte	0x50
 1899 0a8a 02       		.uleb128 0x2
 1900 0a8b 76       		.byte	0x76
 1901 0a8c 00       		.sleb128 0
 1902 0a8d 00       		.byte	0
 1903 0a8e 00       		.byte	0
 1904 0a8f 22       		.uleb128 0x22
 1905 0a90 AE010000 		.4byte	.LBB4
 1906 0a94 0E000000 		.4byte	.LBE4-.LBB4
 1907 0a98 B60A0000 		.4byte	0xab6
 1908 0a9c 1B       		.uleb128 0x1b
 1909 0a9d 7D0F0000 		.4byte	.LASF265
 1910 0aa1 01       		.byte	0x1
 1911 0aa2 5C06     		.2byte	0x65c
 1912 0aa4 77000000 		.4byte	0x77
 1913 0aa8 06020000 		.4byte	.LLST7
 1914 0aac 1E       		.uleb128 0x1e
ARM GAS  C:\Users\Petro\AppData\Local\Temp\cclwd5AX.s 			page 67


 1915 0aad BC010000 		.4byte	.LVL47
 1916 0ab1 3A0D0000 		.4byte	0xd3a
 1917 0ab5 00       		.byte	0
 1918 0ab6 26       		.uleb128 0x26
 1919 0ab7 86000000 		.4byte	.LVL24
 1920 0abb 20090000 		.4byte	0x920
 1921 0abf CA0A0000 		.4byte	0xaca
 1922 0ac3 25       		.uleb128 0x25
 1923 0ac4 01       		.uleb128 0x1
 1924 0ac5 50       		.byte	0x50
 1925 0ac6 02       		.uleb128 0x2
 1926 0ac7 76       		.byte	0x76
 1927 0ac8 00       		.sleb128 0
 1928 0ac9 00       		.byte	0
 1929 0aca 26       		.uleb128 0x26
 1930 0acb 90000000 		.4byte	.LVL25
 1931 0acf 550D0000 		.4byte	0xd55
 1932 0ad3 DE0A0000 		.4byte	0xade
 1933 0ad7 25       		.uleb128 0x25
 1934 0ad8 01       		.uleb128 0x1
 1935 0ad9 50       		.byte	0x50
 1936 0ada 02       		.uleb128 0x2
 1937 0adb 76       		.byte	0x76
 1938 0adc 00       		.sleb128 0
 1939 0add 00       		.byte	0
 1940 0ade 26       		.uleb128 0x26
 1941 0adf 9A000000 		.4byte	.LVL26
 1942 0ae3 6B0D0000 		.4byte	0xd6b
 1943 0ae7 F10A0000 		.4byte	0xaf1
 1944 0aeb 25       		.uleb128 0x25
 1945 0aec 01       		.uleb128 0x1
 1946 0aed 51       		.byte	0x51
 1947 0aee 01       		.uleb128 0x1
 1948 0aef 30       		.byte	0x30
 1949 0af0 00       		.byte	0
 1950 0af1 26       		.uleb128 0x26
 1951 0af2 A2000000 		.4byte	.LVL27
 1952 0af6 6B0D0000 		.4byte	0xd6b
 1953 0afa 040B0000 		.4byte	0xb04
 1954 0afe 25       		.uleb128 0x25
 1955 0aff 01       		.uleb128 0x1
 1956 0b00 51       		.byte	0x51
 1957 0b01 01       		.uleb128 0x1
 1958 0b02 31       		.byte	0x31
 1959 0b03 00       		.byte	0
 1960 0b04 26       		.uleb128 0x26
 1961 0b05 BE000000 		.4byte	.LVL28
 1962 0b09 550D0000 		.4byte	0xd55
 1963 0b0d 180B0000 		.4byte	0xb18
 1964 0b11 25       		.uleb128 0x25
 1965 0b12 01       		.uleb128 0x1
 1966 0b13 50       		.byte	0x50
 1967 0b14 02       		.uleb128 0x2
 1968 0b15 76       		.byte	0x76
 1969 0b16 00       		.sleb128 0
 1970 0b17 00       		.byte	0
 1971 0b18 26       		.uleb128 0x26
ARM GAS  C:\Users\Petro\AppData\Local\Temp\cclwd5AX.s 			page 68


 1972 0b19 C6000000 		.4byte	.LVL29
 1973 0b1d 6B0D0000 		.4byte	0xd6b
 1974 0b21 310B0000 		.4byte	0xb31
 1975 0b25 25       		.uleb128 0x25
 1976 0b26 01       		.uleb128 0x1
 1977 0b27 51       		.byte	0x51
 1978 0b28 01       		.uleb128 0x1
 1979 0b29 30       		.byte	0x30
 1980 0b2a 25       		.uleb128 0x25
 1981 0b2b 01       		.uleb128 0x1
 1982 0b2c 50       		.byte	0x50
 1983 0b2d 02       		.uleb128 0x2
 1984 0b2e 76       		.byte	0x76
 1985 0b2f 00       		.sleb128 0
 1986 0b30 00       		.byte	0
 1987 0b31 26       		.uleb128 0x26
 1988 0b32 CE000000 		.4byte	.LVL30
 1989 0b36 6B0D0000 		.4byte	0xd6b
 1990 0b3a 4A0B0000 		.4byte	0xb4a
 1991 0b3e 25       		.uleb128 0x25
 1992 0b3f 01       		.uleb128 0x1
 1993 0b40 51       		.byte	0x51
 1994 0b41 01       		.uleb128 0x1
 1995 0b42 31       		.byte	0x31
 1996 0b43 25       		.uleb128 0x25
 1997 0b44 01       		.uleb128 0x1
 1998 0b45 50       		.byte	0x50
 1999 0b46 02       		.uleb128 0x2
 2000 0b47 76       		.byte	0x76
 2001 0b48 00       		.sleb128 0
 2002 0b49 00       		.byte	0
 2003 0b4a 26       		.uleb128 0x26
 2004 0b4b D4000000 		.4byte	.LVL31
 2005 0b4f 820D0000 		.4byte	0xd82
 2006 0b53 5D0B0000 		.4byte	0xb5d
 2007 0b57 25       		.uleb128 0x25
 2008 0b58 01       		.uleb128 0x1
 2009 0b59 50       		.byte	0x50
 2010 0b5a 01       		.uleb128 0x1
 2011 0b5b 30       		.byte	0x30
 2012 0b5c 00       		.byte	0
 2013 0b5d 26       		.uleb128 0x26
 2014 0b5e 04010000 		.4byte	.LVL34
 2015 0b62 980D0000 		.4byte	0xd98
 2016 0b66 740B0000 		.4byte	0xb74
 2017 0b6a 25       		.uleb128 0x25
 2018 0b6b 01       		.uleb128 0x1
 2019 0b6c 51       		.byte	0x51
 2020 0b6d 05       		.uleb128 0x5
 2021 0b6e 03       		.byte	0x3
 2022 0b6f 00000000 		.4byte	.LANCHOR0
 2023 0b73 00       		.byte	0
 2024 0b74 26       		.uleb128 0x26
 2025 0b75 7A010000 		.4byte	.LVL37
 2026 0b79 B90D0000 		.4byte	0xdb9
 2027 0b7d 870B0000 		.4byte	0xb87
 2028 0b81 25       		.uleb128 0x25
ARM GAS  C:\Users\Petro\AppData\Local\Temp\cclwd5AX.s 			page 69


 2029 0b82 01       		.uleb128 0x1
 2030 0b83 50       		.byte	0x50
 2031 0b84 01       		.uleb128 0x1
 2032 0b85 31       		.byte	0x31
 2033 0b86 00       		.byte	0
 2034 0b87 26       		.uleb128 0x26
 2035 0b88 92010000 		.4byte	.LVL40
 2036 0b8c CF0D0000 		.4byte	0xdcf
 2037 0b90 A60B0000 		.4byte	0xba6
 2038 0b94 25       		.uleb128 0x25
 2039 0b95 01       		.uleb128 0x1
 2040 0b96 52       		.byte	0x52
 2041 0b97 01       		.uleb128 0x1
 2042 0b98 32       		.byte	0x32
 2043 0b99 25       		.uleb128 0x25
 2044 0b9a 01       		.uleb128 0x1
 2045 0b9b 51       		.byte	0x51
 2046 0b9c 02       		.uleb128 0x2
 2047 0b9d 75       		.byte	0x75
 2048 0b9e 00       		.sleb128 0
 2049 0b9f 25       		.uleb128 0x25
 2050 0ba0 01       		.uleb128 0x1
 2051 0ba1 50       		.byte	0x50
 2052 0ba2 02       		.uleb128 0x2
 2053 0ba3 76       		.byte	0x76
 2054 0ba4 00       		.sleb128 0
 2055 0ba5 00       		.byte	0
 2056 0ba6 26       		.uleb128 0x26
 2057 0ba7 A6010000 		.4byte	.LVL41
 2058 0bab CF0D0000 		.4byte	0xdcf
 2059 0baf B90B0000 		.4byte	0xbb9
 2060 0bb3 25       		.uleb128 0x25
 2061 0bb4 01       		.uleb128 0x1
 2062 0bb5 52       		.byte	0x52
 2063 0bb6 01       		.uleb128 0x1
 2064 0bb7 32       		.byte	0x32
 2065 0bb8 00       		.byte	0
 2066 0bb9 1E       		.uleb128 0x1e
 2067 0bba AC010000 		.4byte	.LVL43
 2068 0bbe 74090000 		.4byte	0x974
 2069 0bc2 26       		.uleb128 0x26
 2070 0bc3 C4010000 		.4byte	.LVL50
 2071 0bc7 94090000 		.4byte	0x994
 2072 0bcb D60B0000 		.4byte	0xbd6
 2073 0bcf 25       		.uleb128 0x25
 2074 0bd0 01       		.uleb128 0x1
 2075 0bd1 50       		.byte	0x50
 2076 0bd2 02       		.uleb128 0x2
 2077 0bd3 75       		.byte	0x75
 2078 0bd4 00       		.sleb128 0
 2079 0bd5 00       		.byte	0
 2080 0bd6 26       		.uleb128 0x26
 2081 0bd7 D4010000 		.4byte	.LVL53
 2082 0bdb F30D0000 		.4byte	0xdf3
 2083 0bdf EA0B0000 		.4byte	0xbea
 2084 0be3 25       		.uleb128 0x25
 2085 0be4 01       		.uleb128 0x1
ARM GAS  C:\Users\Petro\AppData\Local\Temp\cclwd5AX.s 			page 70


 2086 0be5 50       		.byte	0x50
 2087 0be6 02       		.uleb128 0x2
 2088 0be7 75       		.byte	0x75
 2089 0be8 00       		.sleb128 0
 2090 0be9 00       		.byte	0
 2091 0bea 28       		.uleb128 0x28
 2092 0beb FE010000 		.4byte	.LVL56
 2093 0bef 25       		.uleb128 0x25
 2094 0bf0 01       		.uleb128 0x1
 2095 0bf1 51       		.byte	0x51
 2096 0bf2 02       		.uleb128 0x2
 2097 0bf3 75       		.byte	0x75
 2098 0bf4 00       		.sleb128 0
 2099 0bf5 25       		.uleb128 0x25
 2100 0bf6 01       		.uleb128 0x1
 2101 0bf7 50       		.byte	0x50
 2102 0bf8 02       		.uleb128 0x2
 2103 0bf9 74       		.byte	0x74
 2104 0bfa 00       		.sleb128 0
 2105 0bfb 00       		.byte	0
 2106 0bfc 00       		.byte	0
 2107 0bfd 29       		.uleb128 0x29
 2108 0bfe 98170000 		.4byte	.LASF266
 2109 0c02 08       		.byte	0x8
 2110 0c03 CC01     		.2byte	0x1cc
 2111 0c05 5B080000 		.4byte	0x85b
 2112 0c09 2A       		.uleb128 0x2a
 2113 0c0a C6090000 		.4byte	.LASF267
 2114 0c0e 01       		.byte	0x1
 2115 0c0f 42       		.byte	0x42
 2116 0c10 A4000000 		.4byte	0xa4
 2117 0c14 05       		.uleb128 0x5
 2118 0c15 03       		.byte	0x3
 2119 0c16 00000000 		.4byte	cyBle_eventHandlerFlag
 2120 0c1a 29       		.uleb128 0x29
 2121 0c1b 5A050000 		.4byte	.LASF268
 2122 0c1f 08       		.byte	0x8
 2123 0c20 D401     		.2byte	0x1d4
 2124 0c22 D2030000 		.4byte	0x3d2
 2125 0c26 29       		.uleb128 0x29
 2126 0c27 490B0000 		.4byte	.LASF269
 2127 0c2b 08       		.byte	0x8
 2128 0c2c D501     		.2byte	0x1d5
 2129 0c2e 320C0000 		.4byte	0xc32
 2130 0c32 0F       		.uleb128 0xf
 2131 0c33 04       		.byte	0x4
 2132 0c34 D2030000 		.4byte	0x3d2
 2133 0c38 2A       		.uleb128 0x2a
 2134 0c39 70190000 		.4byte	.LASF270
 2135 0c3d 01       		.byte	0x1
 2136 0c3e CC       		.byte	0xcc
 2137 0c3f FE040000 		.4byte	0x4fe
 2138 0c43 05       		.uleb128 0x5
 2139 0c44 03       		.byte	0x3
 2140 0c45 00000000 		.4byte	cyBle_authInfo
 2141 0c49 29       		.uleb128 0x29
 2142 0c4a 8B180000 		.4byte	.LASF271
ARM GAS  C:\Users\Petro\AppData\Local\Temp\cclwd5AX.s 			page 71


 2143 0c4e 08       		.byte	0x8
 2144 0c4f F601     		.2byte	0x1f6
 2145 0c51 6B000000 		.4byte	0x6b
 2146 0c55 29       		.uleb128 0x29
 2147 0c56 00000000 		.4byte	.LASF272
 2148 0c5a 08       		.byte	0x8
 2149 0c5b FC01     		.2byte	0x1fc
 2150 0c5d 6B000000 		.4byte	0x6b
 2151 0c61 0C       		.uleb128 0xc
 2152 0c62 6B000000 		.4byte	0x6b
 2153 0c66 710C0000 		.4byte	0xc71
 2154 0c6a 0D       		.uleb128 0xd
 2155 0c6b A9000000 		.4byte	0xa9
 2156 0c6f 01       		.byte	0x1
 2157 0c70 00       		.byte	0
 2158 0c71 2B       		.uleb128 0x2b
 2159 0c72 EF1B0000 		.4byte	.LASF273
 2160 0c76 09       		.byte	0x9
 2161 0c77 E2       		.byte	0xe2
 2162 0c78 610C0000 		.4byte	0xc61
 2163 0c7c 2B       		.uleb128 0x2b
 2164 0c7d 22100000 		.4byte	.LASF274
 2165 0c81 09       		.byte	0x9
 2166 0c82 E9       		.byte	0xe9
 2167 0c83 870C0000 		.4byte	0xc87
 2168 0c87 1C       		.uleb128 0x1c
 2169 0c88 E1080000 		.4byte	0x8e1
 2170 0c8c 29       		.uleb128 0x29
 2171 0c8d 03190000 		.4byte	.LASF275
 2172 0c91 0A       		.byte	0xa
 2173 0c92 2C09     		.2byte	0x92c
 2174 0c94 14090000 		.4byte	0x914
 2175 0c98 2A       		.uleb128 0x2a
 2176 0c99 D00A0000 		.4byte	.LASF276
 2177 0c9d 01       		.byte	0x1
 2178 0c9e 40       		.byte	0x40
 2179 0c9f 43070000 		.4byte	0x743
 2180 0ca3 05       		.uleb128 0x5
 2181 0ca4 03       		.byte	0x3
 2182 0ca5 00000000 		.4byte	cyBle_connHandle
 2183 0ca9 2A       		.uleb128 0x2a
 2184 0caa 370F0000 		.4byte	.LASF277
 2185 0cae 01       		.byte	0x1
 2186 0caf 43       		.byte	0x43
 2187 0cb0 A4000000 		.4byte	0xa4
 2188 0cb4 05       		.uleb128 0x5
 2189 0cb5 03       		.byte	0x3
 2190 0cb6 00000000 		.4byte	cyBle_busyStatus
 2191 0cba 2A       		.uleb128 0x2a
 2192 0cbb FA1A0000 		.4byte	.LASF278
 2193 0cbf 01       		.byte	0x1
 2194 0cc0 46       		.byte	0x46
 2195 0cc1 6B000000 		.4byte	0x6b
 2196 0cc5 05       		.uleb128 0x5
 2197 0cc6 03       		.byte	0x3
 2198 0cc7 00000000 		.4byte	cyBle_advertisingIntervalType
 2199 0ccb 2C       		.uleb128 0x2c
ARM GAS  C:\Users\Petro\AppData\Local\Temp\cclwd5AX.s 			page 72


 2200 0ccc 2E0D0000 		.4byte	.LASF296
 2201 0cd0 0B       		.byte	0xb
 2202 0cd1 6F       		.byte	0x6f
 2203 0cd2 2D       		.uleb128 0x2d
 2204 0cd3 481B0000 		.4byte	.LASF279
 2205 0cd7 07       		.byte	0x7
 2206 0cd8 2D01     		.2byte	0x12d
 2207 0cda EE020000 		.4byte	0x2ee
 2208 0cde ED0C0000 		.4byte	0xced
 2209 0ce2 14       		.uleb128 0x14
 2210 0ce3 43070000 		.4byte	0x743
 2211 0ce7 14       		.uleb128 0x14
 2212 0ce8 ED0C0000 		.4byte	0xced
 2213 0cec 00       		.byte	0
 2214 0ced 0F       		.uleb128 0xf
 2215 0cee 04       		.byte	0x4
 2216 0cef 19080000 		.4byte	0x819
 2217 0cf3 2E       		.uleb128 0x2e
 2218 0cf4 63130000 		.4byte	.LASF280
 2219 0cf8 09       		.byte	0x9
 2220 0cf9 C9       		.byte	0xc9
 2221 0cfa 07070000 		.4byte	0x707
 2222 0cfe 080D0000 		.4byte	0xd08
 2223 0d02 14       		.uleb128 0x14
 2224 0d03 120A0000 		.4byte	0xa12
 2225 0d07 00       		.byte	0
 2226 0d08 2D       		.uleb128 0x2d
 2227 0d09 E3030000 		.4byte	.LASF281
 2228 0d0d 07       		.byte	0x7
 2229 0d0e B301     		.2byte	0x1b3
 2230 0d10 EE020000 		.4byte	0x2ee
 2231 0d14 1E0D0000 		.4byte	0xd1e
 2232 0d18 14       		.uleb128 0x14
 2233 0d19 43070000 		.4byte	0x743
 2234 0d1d 00       		.byte	0
 2235 0d1e 2D       		.uleb128 0x2d
 2236 0d1f 4E040000 		.4byte	.LASF282
 2237 0d23 03       		.byte	0x3
 2238 0d24 4105     		.2byte	0x541
 2239 0d26 EE020000 		.4byte	0x2ee
 2240 0d2a 340D0000 		.4byte	0xd34
 2241 0d2e 14       		.uleb128 0x14
 2242 0d2f 340D0000 		.4byte	0xd34
 2243 0d33 00       		.byte	0
 2244 0d34 0F       		.uleb128 0xf
 2245 0d35 04       		.byte	0x4
 2246 0d36 92030000 		.4byte	0x392
 2247 0d3a 2D       		.uleb128 0x2d
 2248 0d3b C30B0000 		.4byte	.LASF283
 2249 0d3f 07       		.byte	0x7
 2250 0d40 6901     		.2byte	0x169
 2251 0d42 EE020000 		.4byte	0x2ee
 2252 0d46 550D0000 		.4byte	0xd55
 2253 0d4a 14       		.uleb128 0x14
 2254 0d4b 43070000 		.4byte	0x743
 2255 0d4f 14       		.uleb128 0x14
 2256 0d50 77000000 		.4byte	0x77
ARM GAS  C:\Users\Petro\AppData\Local\Temp\cclwd5AX.s 			page 73


 2257 0d54 00       		.byte	0
 2258 0d55 2D       		.uleb128 0x2d
 2259 0d56 5B000000 		.4byte	.LASF284
 2260 0d5a 03       		.byte	0x3
 2261 0d5b C304     		.2byte	0x4c3
 2262 0d5d EE020000 		.4byte	0x2ee
 2263 0d61 6B0D0000 		.4byte	0xd6b
 2264 0d65 14       		.uleb128 0x14
 2265 0d66 320C0000 		.4byte	0xc32
 2266 0d6a 00       		.byte	0
 2267 0d6b 2F       		.uleb128 0x2f
 2268 0d6c 480F0000 		.4byte	.LASF288
 2269 0d70 08       		.byte	0x8
 2270 0d71 B201     		.2byte	0x1b2
 2271 0d73 820D0000 		.4byte	0xd82
 2272 0d77 14       		.uleb128 0x14
 2273 0d78 69090000 		.4byte	0x969
 2274 0d7c 14       		.uleb128 0x14
 2275 0d7d 6B000000 		.4byte	0x6b
 2276 0d81 00       		.byte	0
 2277 0d82 2D       		.uleb128 0x2d
 2278 0d83 72000000 		.4byte	.LASF285
 2279 0d87 05       		.byte	0x5
 2280 0d88 1A03     		.2byte	0x31a
 2281 0d8a EE020000 		.4byte	0x2ee
 2282 0d8e 980D0000 		.4byte	0xd98
 2283 0d92 14       		.uleb128 0x14
 2284 0d93 52040000 		.4byte	0x452
 2285 0d97 00       		.byte	0
 2286 0d98 2D       		.uleb128 0x2d
 2287 0d99 35100000 		.4byte	.LASF286
 2288 0d9d 05       		.byte	0x5
 2289 0d9e 3F06     		.2byte	0x63f
 2290 0da0 EE020000 		.4byte	0x2ee
 2291 0da4 B30D0000 		.4byte	0xdb3
 2292 0da8 14       		.uleb128 0x14
 2293 0da9 6B000000 		.4byte	0x6b
 2294 0dad 14       		.uleb128 0x14
 2295 0dae B30D0000 		.4byte	0xdb3
 2296 0db2 00       		.byte	0
 2297 0db3 0F       		.uleb128 0xf
 2298 0db4 04       		.byte	0x4
 2299 0db5 FE040000 		.4byte	0x4fe
 2300 0db9 2D       		.uleb128 0x2d
 2301 0dba 03080000 		.4byte	.LASF287
 2302 0dbe 08       		.byte	0x8
 2303 0dbf B001     		.2byte	0x1b0
 2304 0dc1 EE020000 		.4byte	0x2ee
 2305 0dc5 CF0D0000 		.4byte	0xdcf
 2306 0dc9 14       		.uleb128 0x14
 2307 0dca 6B000000 		.4byte	0x6b
 2308 0dce 00       		.byte	0
 2309 0dcf 30       		.uleb128 0x30
 2310 0dd0 A11B0000 		.4byte	.LASF289
 2311 0dd4 B0000000 		.4byte	0xb0
 2312 0dd8 EC0D0000 		.4byte	0xdec
 2313 0ddc 14       		.uleb128 0x14
ARM GAS  C:\Users\Petro\AppData\Local\Temp\cclwd5AX.s 			page 74


 2314 0ddd B0000000 		.4byte	0xb0
 2315 0de1 14       		.uleb128 0x14
 2316 0de2 EC0D0000 		.4byte	0xdec
 2317 0de6 14       		.uleb128 0x14
 2318 0de7 A9000000 		.4byte	0xa9
 2319 0deb 00       		.byte	0
 2320 0dec 0F       		.uleb128 0xf
 2321 0ded 04       		.byte	0x4
 2322 0dee F20D0000 		.4byte	0xdf2
 2323 0df2 31       		.uleb128 0x31
 2324 0df3 32       		.uleb128 0x32
 2325 0df4 6D0A0000 		.4byte	.LASF290
 2326 0df8 0B       		.byte	0xb
 2327 0df9 70       		.byte	0x70
 2328 0dfa 040E0000 		.4byte	0xe04
 2329 0dfe 14       		.uleb128 0x14
 2330 0dff 040E0000 		.4byte	0xe04
 2331 0e03 00       		.byte	0
 2332 0e04 0F       		.uleb128 0xf
 2333 0e05 04       		.byte	0x4
 2334 0e06 50080000 		.4byte	0x850
 2335 0e0a 00       		.byte	0
 2336              		.section	.debug_abbrev,"",%progbits
 2337              	.Ldebug_abbrev0:
 2338 0000 01       		.uleb128 0x1
 2339 0001 11       		.uleb128 0x11
 2340 0002 01       		.byte	0x1
 2341 0003 25       		.uleb128 0x25
 2342 0004 0E       		.uleb128 0xe
 2343 0005 13       		.uleb128 0x13
 2344 0006 0B       		.uleb128 0xb
 2345 0007 03       		.uleb128 0x3
 2346 0008 0E       		.uleb128 0xe
 2347 0009 1B       		.uleb128 0x1b
 2348 000a 0E       		.uleb128 0xe
 2349 000b 55       		.uleb128 0x55
 2350 000c 17       		.uleb128 0x17
 2351 000d 11       		.uleb128 0x11
 2352 000e 01       		.uleb128 0x1
 2353 000f 10       		.uleb128 0x10
 2354 0010 17       		.uleb128 0x17
 2355 0011 00       		.byte	0
 2356 0012 00       		.byte	0
 2357 0013 02       		.uleb128 0x2
 2358 0014 24       		.uleb128 0x24
 2359 0015 00       		.byte	0
 2360 0016 0B       		.uleb128 0xb
 2361 0017 0B       		.uleb128 0xb
 2362 0018 3E       		.uleb128 0x3e
 2363 0019 0B       		.uleb128 0xb
 2364 001a 03       		.uleb128 0x3
 2365 001b 0E       		.uleb128 0xe
 2366 001c 00       		.byte	0
 2367 001d 00       		.byte	0
 2368 001e 03       		.uleb128 0x3
 2369 001f 24       		.uleb128 0x24
 2370 0020 00       		.byte	0
ARM GAS  C:\Users\Petro\AppData\Local\Temp\cclwd5AX.s 			page 75


 2371 0021 0B       		.uleb128 0xb
 2372 0022 0B       		.uleb128 0xb
 2373 0023 3E       		.uleb128 0x3e
 2374 0024 0B       		.uleb128 0xb
 2375 0025 03       		.uleb128 0x3
 2376 0026 08       		.uleb128 0x8
 2377 0027 00       		.byte	0
 2378 0028 00       		.byte	0
 2379 0029 04       		.uleb128 0x4
 2380 002a 16       		.uleb128 0x16
 2381 002b 00       		.byte	0
 2382 002c 03       		.uleb128 0x3
 2383 002d 0E       		.uleb128 0xe
 2384 002e 3A       		.uleb128 0x3a
 2385 002f 0B       		.uleb128 0xb
 2386 0030 3B       		.uleb128 0x3b
 2387 0031 05       		.uleb128 0x5
 2388 0032 49       		.uleb128 0x49
 2389 0033 13       		.uleb128 0x13
 2390 0034 00       		.byte	0
 2391 0035 00       		.byte	0
 2392 0036 05       		.uleb128 0x5
 2393 0037 35       		.uleb128 0x35
 2394 0038 00       		.byte	0
 2395 0039 49       		.uleb128 0x49
 2396 003a 13       		.uleb128 0x13
 2397 003b 00       		.byte	0
 2398 003c 00       		.byte	0
 2399 003d 06       		.uleb128 0x6
 2400 003e 0F       		.uleb128 0xf
 2401 003f 00       		.byte	0
 2402 0040 0B       		.uleb128 0xb
 2403 0041 0B       		.uleb128 0xb
 2404 0042 00       		.byte	0
 2405 0043 00       		.byte	0
 2406 0044 07       		.uleb128 0x7
 2407 0045 04       		.uleb128 0x4
 2408 0046 01       		.byte	0x1
 2409 0047 0B       		.uleb128 0xb
 2410 0048 0B       		.uleb128 0xb
 2411 0049 3A       		.uleb128 0x3a
 2412 004a 0B       		.uleb128 0xb
 2413 004b 3B       		.uleb128 0x3b
 2414 004c 0B       		.uleb128 0xb
 2415 004d 01       		.uleb128 0x1
 2416 004e 13       		.uleb128 0x13
 2417 004f 00       		.byte	0
 2418 0050 00       		.byte	0
 2419 0051 08       		.uleb128 0x8
 2420 0052 28       		.uleb128 0x28
 2421 0053 00       		.byte	0
 2422 0054 03       		.uleb128 0x3
 2423 0055 0E       		.uleb128 0xe
 2424 0056 1C       		.uleb128 0x1c
 2425 0057 0D       		.uleb128 0xd
 2426 0058 00       		.byte	0
 2427 0059 00       		.byte	0
ARM GAS  C:\Users\Petro\AppData\Local\Temp\cclwd5AX.s 			page 76


 2428 005a 09       		.uleb128 0x9
 2429 005b 04       		.uleb128 0x4
 2430 005c 01       		.byte	0x1
 2431 005d 0B       		.uleb128 0xb
 2432 005e 0B       		.uleb128 0xb
 2433 005f 3A       		.uleb128 0x3a
 2434 0060 0B       		.uleb128 0xb
 2435 0061 3B       		.uleb128 0x3b
 2436 0062 05       		.uleb128 0x5
 2437 0063 01       		.uleb128 0x1
 2438 0064 13       		.uleb128 0x13
 2439 0065 00       		.byte	0
 2440 0066 00       		.byte	0
 2441 0067 0A       		.uleb128 0xa
 2442 0068 13       		.uleb128 0x13
 2443 0069 01       		.byte	0x1
 2444 006a 0B       		.uleb128 0xb
 2445 006b 0B       		.uleb128 0xb
 2446 006c 3A       		.uleb128 0x3a
 2447 006d 0B       		.uleb128 0xb
 2448 006e 3B       		.uleb128 0x3b
 2449 006f 05       		.uleb128 0x5
 2450 0070 01       		.uleb128 0x1
 2451 0071 13       		.uleb128 0x13
 2452 0072 00       		.byte	0
 2453 0073 00       		.byte	0
 2454 0074 0B       		.uleb128 0xb
 2455 0075 0D       		.uleb128 0xd
 2456 0076 00       		.byte	0
 2457 0077 03       		.uleb128 0x3
 2458 0078 0E       		.uleb128 0xe
 2459 0079 3A       		.uleb128 0x3a
 2460 007a 0B       		.uleb128 0xb
 2461 007b 3B       		.uleb128 0x3b
 2462 007c 05       		.uleb128 0x5
 2463 007d 49       		.uleb128 0x49
 2464 007e 13       		.uleb128 0x13
 2465 007f 38       		.uleb128 0x38
 2466 0080 0B       		.uleb128 0xb
 2467 0081 00       		.byte	0
 2468 0082 00       		.byte	0
 2469 0083 0C       		.uleb128 0xc
 2470 0084 01       		.uleb128 0x1
 2471 0085 01       		.byte	0x1
 2472 0086 49       		.uleb128 0x49
 2473 0087 13       		.uleb128 0x13
 2474 0088 01       		.uleb128 0x1
 2475 0089 13       		.uleb128 0x13
 2476 008a 00       		.byte	0
 2477 008b 00       		.byte	0
 2478 008c 0D       		.uleb128 0xd
 2479 008d 21       		.uleb128 0x21
 2480 008e 00       		.byte	0
 2481 008f 49       		.uleb128 0x49
 2482 0090 13       		.uleb128 0x13
 2483 0091 2F       		.uleb128 0x2f
 2484 0092 0B       		.uleb128 0xb
ARM GAS  C:\Users\Petro\AppData\Local\Temp\cclwd5AX.s 			page 77


 2485 0093 00       		.byte	0
 2486 0094 00       		.byte	0
 2487 0095 0E       		.uleb128 0xe
 2488 0096 16       		.uleb128 0x16
 2489 0097 00       		.byte	0
 2490 0098 03       		.uleb128 0x3
 2491 0099 0E       		.uleb128 0xe
 2492 009a 3A       		.uleb128 0x3a
 2493 009b 0B       		.uleb128 0xb
 2494 009c 3B       		.uleb128 0x3b
 2495 009d 0B       		.uleb128 0xb
 2496 009e 49       		.uleb128 0x49
 2497 009f 13       		.uleb128 0x13
 2498 00a0 00       		.byte	0
 2499 00a1 00       		.byte	0
 2500 00a2 0F       		.uleb128 0xf
 2501 00a3 0F       		.uleb128 0xf
 2502 00a4 00       		.byte	0
 2503 00a5 0B       		.uleb128 0xb
 2504 00a6 0B       		.uleb128 0xb
 2505 00a7 49       		.uleb128 0x49
 2506 00a8 13       		.uleb128 0x13
 2507 00a9 00       		.byte	0
 2508 00aa 00       		.byte	0
 2509 00ab 10       		.uleb128 0x10
 2510 00ac 0D       		.uleb128 0xd
 2511 00ad 00       		.byte	0
 2512 00ae 03       		.uleb128 0x3
 2513 00af 08       		.uleb128 0x8
 2514 00b0 3A       		.uleb128 0x3a
 2515 00b1 0B       		.uleb128 0xb
 2516 00b2 3B       		.uleb128 0x3b
 2517 00b3 05       		.uleb128 0x5
 2518 00b4 49       		.uleb128 0x49
 2519 00b5 13       		.uleb128 0x13
 2520 00b6 38       		.uleb128 0x38
 2521 00b7 0B       		.uleb128 0xb
 2522 00b8 00       		.byte	0
 2523 00b9 00       		.byte	0
 2524 00ba 11       		.uleb128 0x11
 2525 00bb 13       		.uleb128 0x13
 2526 00bc 01       		.byte	0x1
 2527 00bd 0B       		.uleb128 0xb
 2528 00be 0B       		.uleb128 0xb
 2529 00bf 3A       		.uleb128 0x3a
 2530 00c0 0B       		.uleb128 0xb
 2531 00c1 3B       		.uleb128 0x3b
 2532 00c2 0B       		.uleb128 0xb
 2533 00c3 01       		.uleb128 0x1
 2534 00c4 13       		.uleb128 0x13
 2535 00c5 00       		.byte	0
 2536 00c6 00       		.byte	0
 2537 00c7 12       		.uleb128 0x12
 2538 00c8 0D       		.uleb128 0xd
 2539 00c9 00       		.byte	0
 2540 00ca 03       		.uleb128 0x3
 2541 00cb 0E       		.uleb128 0xe
ARM GAS  C:\Users\Petro\AppData\Local\Temp\cclwd5AX.s 			page 78


 2542 00cc 3A       		.uleb128 0x3a
 2543 00cd 0B       		.uleb128 0xb
 2544 00ce 3B       		.uleb128 0x3b
 2545 00cf 0B       		.uleb128 0xb
 2546 00d0 49       		.uleb128 0x49
 2547 00d1 13       		.uleb128 0x13
 2548 00d2 38       		.uleb128 0x38
 2549 00d3 0B       		.uleb128 0xb
 2550 00d4 00       		.byte	0
 2551 00d5 00       		.byte	0
 2552 00d6 13       		.uleb128 0x13
 2553 00d7 15       		.uleb128 0x15
 2554 00d8 01       		.byte	0x1
 2555 00d9 27       		.uleb128 0x27
 2556 00da 19       		.uleb128 0x19
 2557 00db 01       		.uleb128 0x1
 2558 00dc 13       		.uleb128 0x13
 2559 00dd 00       		.byte	0
 2560 00de 00       		.byte	0
 2561 00df 14       		.uleb128 0x14
 2562 00e0 05       		.uleb128 0x5
 2563 00e1 00       		.byte	0
 2564 00e2 49       		.uleb128 0x49
 2565 00e3 13       		.uleb128 0x13
 2566 00e4 00       		.byte	0
 2567 00e5 00       		.byte	0
 2568 00e6 15       		.uleb128 0x15
 2569 00e7 13       		.uleb128 0x13
 2570 00e8 01       		.byte	0x1
 2571 00e9 0B       		.uleb128 0xb
 2572 00ea 05       		.uleb128 0x5
 2573 00eb 3A       		.uleb128 0x3a
 2574 00ec 0B       		.uleb128 0xb
 2575 00ed 3B       		.uleb128 0x3b
 2576 00ee 0B       		.uleb128 0xb
 2577 00ef 01       		.uleb128 0x1
 2578 00f0 13       		.uleb128 0x13
 2579 00f1 00       		.byte	0
 2580 00f2 00       		.byte	0
 2581 00f3 16       		.uleb128 0x16
 2582 00f4 0D       		.uleb128 0xd
 2583 00f5 00       		.byte	0
 2584 00f6 03       		.uleb128 0x3
 2585 00f7 0E       		.uleb128 0xe
 2586 00f8 3A       		.uleb128 0x3a
 2587 00f9 0B       		.uleb128 0xb
 2588 00fa 3B       		.uleb128 0x3b
 2589 00fb 0B       		.uleb128 0xb
 2590 00fc 49       		.uleb128 0x49
 2591 00fd 13       		.uleb128 0x13
 2592 00fe 38       		.uleb128 0x38
 2593 00ff 05       		.uleb128 0x5
 2594 0100 00       		.byte	0
 2595 0101 00       		.byte	0
 2596 0102 17       		.uleb128 0x17
 2597 0103 21       		.uleb128 0x21
 2598 0104 00       		.byte	0
ARM GAS  C:\Users\Petro\AppData\Local\Temp\cclwd5AX.s 			page 79


 2599 0105 49       		.uleb128 0x49
 2600 0106 13       		.uleb128 0x13
 2601 0107 2F       		.uleb128 0x2f
 2602 0108 05       		.uleb128 0x5
 2603 0109 00       		.byte	0
 2604 010a 00       		.byte	0
 2605 010b 18       		.uleb128 0x18
 2606 010c 2E       		.uleb128 0x2e
 2607 010d 01       		.byte	0x1
 2608 010e 03       		.uleb128 0x3
 2609 010f 0E       		.uleb128 0xe
 2610 0110 3A       		.uleb128 0x3a
 2611 0111 0B       		.uleb128 0xb
 2612 0112 3B       		.uleb128 0x3b
 2613 0113 05       		.uleb128 0x5
 2614 0114 27       		.uleb128 0x27
 2615 0115 19       		.uleb128 0x19
 2616 0116 49       		.uleb128 0x49
 2617 0117 13       		.uleb128 0x13
 2618 0118 11       		.uleb128 0x11
 2619 0119 01       		.uleb128 0x1
 2620 011a 12       		.uleb128 0x12
 2621 011b 06       		.uleb128 0x6
 2622 011c 40       		.uleb128 0x40
 2623 011d 18       		.uleb128 0x18
 2624 011e 9742     		.uleb128 0x2117
 2625 0120 19       		.uleb128 0x19
 2626 0121 01       		.uleb128 0x1
 2627 0122 13       		.uleb128 0x13
 2628 0123 00       		.byte	0
 2629 0124 00       		.byte	0
 2630 0125 19       		.uleb128 0x19
 2631 0126 05       		.uleb128 0x5
 2632 0127 00       		.byte	0
 2633 0128 03       		.uleb128 0x3
 2634 0129 0E       		.uleb128 0xe
 2635 012a 3A       		.uleb128 0x3a
 2636 012b 0B       		.uleb128 0xb
 2637 012c 3B       		.uleb128 0x3b
 2638 012d 05       		.uleb128 0x5
 2639 012e 49       		.uleb128 0x49
 2640 012f 13       		.uleb128 0x13
 2641 0130 02       		.uleb128 0x2
 2642 0131 17       		.uleb128 0x17
 2643 0132 00       		.byte	0
 2644 0133 00       		.byte	0
 2645 0134 1A       		.uleb128 0x1a
 2646 0135 34       		.uleb128 0x34
 2647 0136 00       		.byte	0
 2648 0137 03       		.uleb128 0x3
 2649 0138 08       		.uleb128 0x8
 2650 0139 3A       		.uleb128 0x3a
 2651 013a 0B       		.uleb128 0xb
 2652 013b 3B       		.uleb128 0x3b
 2653 013c 05       		.uleb128 0x5
 2654 013d 49       		.uleb128 0x49
 2655 013e 13       		.uleb128 0x13
ARM GAS  C:\Users\Petro\AppData\Local\Temp\cclwd5AX.s 			page 80


 2656 013f 02       		.uleb128 0x2
 2657 0140 17       		.uleb128 0x17
 2658 0141 00       		.byte	0
 2659 0142 00       		.byte	0
 2660 0143 1B       		.uleb128 0x1b
 2661 0144 34       		.uleb128 0x34
 2662 0145 00       		.byte	0
 2663 0146 03       		.uleb128 0x3
 2664 0147 0E       		.uleb128 0xe
 2665 0148 3A       		.uleb128 0x3a
 2666 0149 0B       		.uleb128 0xb
 2667 014a 3B       		.uleb128 0x3b
 2668 014b 05       		.uleb128 0x5
 2669 014c 49       		.uleb128 0x49
 2670 014d 13       		.uleb128 0x13
 2671 014e 02       		.uleb128 0x2
 2672 014f 17       		.uleb128 0x17
 2673 0150 00       		.byte	0
 2674 0151 00       		.byte	0
 2675 0152 1C       		.uleb128 0x1c
 2676 0153 26       		.uleb128 0x26
 2677 0154 00       		.byte	0
 2678 0155 49       		.uleb128 0x49
 2679 0156 13       		.uleb128 0x13
 2680 0157 00       		.byte	0
 2681 0158 00       		.byte	0
 2682 0159 1D       		.uleb128 0x1d
 2683 015a 2E       		.uleb128 0x2e
 2684 015b 01       		.byte	0x1
 2685 015c 03       		.uleb128 0x3
 2686 015d 0E       		.uleb128 0xe
 2687 015e 3A       		.uleb128 0x3a
 2688 015f 0B       		.uleb128 0xb
 2689 0160 3B       		.uleb128 0x3b
 2690 0161 05       		.uleb128 0x5
 2691 0162 27       		.uleb128 0x27
 2692 0163 19       		.uleb128 0x19
 2693 0164 11       		.uleb128 0x11
 2694 0165 01       		.uleb128 0x1
 2695 0166 12       		.uleb128 0x12
 2696 0167 06       		.uleb128 0x6
 2697 0168 40       		.uleb128 0x40
 2698 0169 18       		.uleb128 0x18
 2699 016a 9742     		.uleb128 0x2117
 2700 016c 19       		.uleb128 0x19
 2701 016d 01       		.uleb128 0x1
 2702 016e 13       		.uleb128 0x13
 2703 016f 00       		.byte	0
 2704 0170 00       		.byte	0
 2705 0171 1E       		.uleb128 0x1e
 2706 0172 898201   		.uleb128 0x4109
 2707 0175 00       		.byte	0
 2708 0176 11       		.uleb128 0x11
 2709 0177 01       		.uleb128 0x1
 2710 0178 31       		.uleb128 0x31
 2711 0179 13       		.uleb128 0x13
 2712 017a 00       		.byte	0
ARM GAS  C:\Users\Petro\AppData\Local\Temp\cclwd5AX.s 			page 81


 2713 017b 00       		.byte	0
 2714 017c 1F       		.uleb128 0x1f
 2715 017d 2E       		.uleb128 0x2e
 2716 017e 01       		.byte	0x1
 2717 017f 03       		.uleb128 0x3
 2718 0180 0E       		.uleb128 0xe
 2719 0181 3A       		.uleb128 0x3a
 2720 0182 0B       		.uleb128 0xb
 2721 0183 3B       		.uleb128 0x3b
 2722 0184 0B       		.uleb128 0xb
 2723 0185 27       		.uleb128 0x27
 2724 0186 19       		.uleb128 0x19
 2725 0187 11       		.uleb128 0x11
 2726 0188 01       		.uleb128 0x1
 2727 0189 12       		.uleb128 0x12
 2728 018a 06       		.uleb128 0x6
 2729 018b 40       		.uleb128 0x40
 2730 018c 18       		.uleb128 0x18
 2731 018d 9742     		.uleb128 0x2117
 2732 018f 19       		.uleb128 0x19
 2733 0190 01       		.uleb128 0x1
 2734 0191 13       		.uleb128 0x13
 2735 0192 00       		.byte	0
 2736 0193 00       		.byte	0
 2737 0194 20       		.uleb128 0x20
 2738 0195 05       		.uleb128 0x5
 2739 0196 00       		.byte	0
 2740 0197 03       		.uleb128 0x3
 2741 0198 0E       		.uleb128 0xe
 2742 0199 3A       		.uleb128 0x3a
 2743 019a 0B       		.uleb128 0xb
 2744 019b 3B       		.uleb128 0x3b
 2745 019c 0B       		.uleb128 0xb
 2746 019d 49       		.uleb128 0x49
 2747 019e 13       		.uleb128 0x13
 2748 019f 02       		.uleb128 0x2
 2749 01a0 17       		.uleb128 0x17
 2750 01a1 00       		.byte	0
 2751 01a2 00       		.byte	0
 2752 01a3 21       		.uleb128 0x21
 2753 01a4 34       		.uleb128 0x34
 2754 01a5 00       		.byte	0
 2755 01a6 03       		.uleb128 0x3
 2756 01a7 0E       		.uleb128 0xe
 2757 01a8 3A       		.uleb128 0x3a
 2758 01a9 0B       		.uleb128 0xb
 2759 01aa 3B       		.uleb128 0x3b
 2760 01ab 0B       		.uleb128 0xb
 2761 01ac 49       		.uleb128 0x49
 2762 01ad 13       		.uleb128 0x13
 2763 01ae 02       		.uleb128 0x2
 2764 01af 17       		.uleb128 0x17
 2765 01b0 00       		.byte	0
 2766 01b1 00       		.byte	0
 2767 01b2 22       		.uleb128 0x22
 2768 01b3 0B       		.uleb128 0xb
 2769 01b4 01       		.byte	0x1
ARM GAS  C:\Users\Petro\AppData\Local\Temp\cclwd5AX.s 			page 82


 2770 01b5 11       		.uleb128 0x11
 2771 01b6 01       		.uleb128 0x1
 2772 01b7 12       		.uleb128 0x12
 2773 01b8 06       		.uleb128 0x6
 2774 01b9 01       		.uleb128 0x1
 2775 01ba 13       		.uleb128 0x13
 2776 01bb 00       		.byte	0
 2777 01bc 00       		.byte	0
 2778 01bd 23       		.uleb128 0x23
 2779 01be 34       		.uleb128 0x34
 2780 01bf 00       		.byte	0
 2781 01c0 03       		.uleb128 0x3
 2782 01c1 0E       		.uleb128 0xe
 2783 01c2 3A       		.uleb128 0x3a
 2784 01c3 0B       		.uleb128 0xb
 2785 01c4 3B       		.uleb128 0x3b
 2786 01c5 05       		.uleb128 0x5
 2787 01c6 49       		.uleb128 0x49
 2788 01c7 13       		.uleb128 0x13
 2789 01c8 02       		.uleb128 0x2
 2790 01c9 18       		.uleb128 0x18
 2791 01ca 00       		.byte	0
 2792 01cb 00       		.byte	0
 2793 01cc 24       		.uleb128 0x24
 2794 01cd 898201   		.uleb128 0x4109
 2795 01d0 01       		.byte	0x1
 2796 01d1 11       		.uleb128 0x11
 2797 01d2 01       		.uleb128 0x1
 2798 01d3 31       		.uleb128 0x31
 2799 01d4 13       		.uleb128 0x13
 2800 01d5 00       		.byte	0
 2801 01d6 00       		.byte	0
 2802 01d7 25       		.uleb128 0x25
 2803 01d8 8A8201   		.uleb128 0x410a
 2804 01db 00       		.byte	0
 2805 01dc 02       		.uleb128 0x2
 2806 01dd 18       		.uleb128 0x18
 2807 01de 9142     		.uleb128 0x2111
 2808 01e0 18       		.uleb128 0x18
 2809 01e1 00       		.byte	0
 2810 01e2 00       		.byte	0
 2811 01e3 26       		.uleb128 0x26
 2812 01e4 898201   		.uleb128 0x4109
 2813 01e7 01       		.byte	0x1
 2814 01e8 11       		.uleb128 0x11
 2815 01e9 01       		.uleb128 0x1
 2816 01ea 31       		.uleb128 0x31
 2817 01eb 13       		.uleb128 0x13
 2818 01ec 01       		.uleb128 0x1
 2819 01ed 13       		.uleb128 0x13
 2820 01ee 00       		.byte	0
 2821 01ef 00       		.byte	0
 2822 01f0 27       		.uleb128 0x27
 2823 01f1 2E       		.uleb128 0x2e
 2824 01f2 01       		.byte	0x1
 2825 01f3 3F       		.uleb128 0x3f
 2826 01f4 19       		.uleb128 0x19
ARM GAS  C:\Users\Petro\AppData\Local\Temp\cclwd5AX.s 			page 83


 2827 01f5 03       		.uleb128 0x3
 2828 01f6 0E       		.uleb128 0xe
 2829 01f7 3A       		.uleb128 0x3a
 2830 01f8 0B       		.uleb128 0xb
 2831 01f9 3B       		.uleb128 0x3b
 2832 01fa 05       		.uleb128 0x5
 2833 01fb 27       		.uleb128 0x27
 2834 01fc 19       		.uleb128 0x19
 2835 01fd 11       		.uleb128 0x11
 2836 01fe 01       		.uleb128 0x1
 2837 01ff 12       		.uleb128 0x12
 2838 0200 06       		.uleb128 0x6
 2839 0201 40       		.uleb128 0x40
 2840 0202 18       		.uleb128 0x18
 2841 0203 9742     		.uleb128 0x2117
 2842 0205 19       		.uleb128 0x19
 2843 0206 01       		.uleb128 0x1
 2844 0207 13       		.uleb128 0x13
 2845 0208 00       		.byte	0
 2846 0209 00       		.byte	0
 2847 020a 28       		.uleb128 0x28
 2848 020b 898201   		.uleb128 0x4109
 2849 020e 01       		.byte	0x1
 2850 020f 11       		.uleb128 0x11
 2851 0210 01       		.uleb128 0x1
 2852 0211 00       		.byte	0
 2853 0212 00       		.byte	0
 2854 0213 29       		.uleb128 0x29
 2855 0214 34       		.uleb128 0x34
 2856 0215 00       		.byte	0
 2857 0216 03       		.uleb128 0x3
 2858 0217 0E       		.uleb128 0xe
 2859 0218 3A       		.uleb128 0x3a
 2860 0219 0B       		.uleb128 0xb
 2861 021a 3B       		.uleb128 0x3b
 2862 021b 05       		.uleb128 0x5
 2863 021c 49       		.uleb128 0x49
 2864 021d 13       		.uleb128 0x13
 2865 021e 3F       		.uleb128 0x3f
 2866 021f 19       		.uleb128 0x19
 2867 0220 3C       		.uleb128 0x3c
 2868 0221 19       		.uleb128 0x19
 2869 0222 00       		.byte	0
 2870 0223 00       		.byte	0
 2871 0224 2A       		.uleb128 0x2a
 2872 0225 34       		.uleb128 0x34
 2873 0226 00       		.byte	0
 2874 0227 03       		.uleb128 0x3
 2875 0228 0E       		.uleb128 0xe
 2876 0229 3A       		.uleb128 0x3a
 2877 022a 0B       		.uleb128 0xb
 2878 022b 3B       		.uleb128 0x3b
 2879 022c 0B       		.uleb128 0xb
 2880 022d 49       		.uleb128 0x49
 2881 022e 13       		.uleb128 0x13
 2882 022f 3F       		.uleb128 0x3f
 2883 0230 19       		.uleb128 0x19
ARM GAS  C:\Users\Petro\AppData\Local\Temp\cclwd5AX.s 			page 84


 2884 0231 02       		.uleb128 0x2
 2885 0232 18       		.uleb128 0x18
 2886 0233 00       		.byte	0
 2887 0234 00       		.byte	0
 2888 0235 2B       		.uleb128 0x2b
 2889 0236 34       		.uleb128 0x34
 2890 0237 00       		.byte	0
 2891 0238 03       		.uleb128 0x3
 2892 0239 0E       		.uleb128 0xe
 2893 023a 3A       		.uleb128 0x3a
 2894 023b 0B       		.uleb128 0xb
 2895 023c 3B       		.uleb128 0x3b
 2896 023d 0B       		.uleb128 0xb
 2897 023e 49       		.uleb128 0x49
 2898 023f 13       		.uleb128 0x13
 2899 0240 3F       		.uleb128 0x3f
 2900 0241 19       		.uleb128 0x19
 2901 0242 3C       		.uleb128 0x3c
 2902 0243 19       		.uleb128 0x19
 2903 0244 00       		.byte	0
 2904 0245 00       		.byte	0
 2905 0246 2C       		.uleb128 0x2c
 2906 0247 2E       		.uleb128 0x2e
 2907 0248 00       		.byte	0
 2908 0249 3F       		.uleb128 0x3f
 2909 024a 19       		.uleb128 0x19
 2910 024b 03       		.uleb128 0x3
 2911 024c 0E       		.uleb128 0xe
 2912 024d 3A       		.uleb128 0x3a
 2913 024e 0B       		.uleb128 0xb
 2914 024f 3B       		.uleb128 0x3b
 2915 0250 0B       		.uleb128 0xb
 2916 0251 27       		.uleb128 0x27
 2917 0252 19       		.uleb128 0x19
 2918 0253 3C       		.uleb128 0x3c
 2919 0254 19       		.uleb128 0x19
 2920 0255 00       		.byte	0
 2921 0256 00       		.byte	0
 2922 0257 2D       		.uleb128 0x2d
 2923 0258 2E       		.uleb128 0x2e
 2924 0259 01       		.byte	0x1
 2925 025a 3F       		.uleb128 0x3f
 2926 025b 19       		.uleb128 0x19
 2927 025c 03       		.uleb128 0x3
 2928 025d 0E       		.uleb128 0xe
 2929 025e 3A       		.uleb128 0x3a
 2930 025f 0B       		.uleb128 0xb
 2931 0260 3B       		.uleb128 0x3b
 2932 0261 05       		.uleb128 0x5
 2933 0262 27       		.uleb128 0x27
 2934 0263 19       		.uleb128 0x19
 2935 0264 49       		.uleb128 0x49
 2936 0265 13       		.uleb128 0x13
 2937 0266 3C       		.uleb128 0x3c
 2938 0267 19       		.uleb128 0x19
 2939 0268 01       		.uleb128 0x1
 2940 0269 13       		.uleb128 0x13
ARM GAS  C:\Users\Petro\AppData\Local\Temp\cclwd5AX.s 			page 85


 2941 026a 00       		.byte	0
 2942 026b 00       		.byte	0
 2943 026c 2E       		.uleb128 0x2e
 2944 026d 2E       		.uleb128 0x2e
 2945 026e 01       		.byte	0x1
 2946 026f 3F       		.uleb128 0x3f
 2947 0270 19       		.uleb128 0x19
 2948 0271 03       		.uleb128 0x3
 2949 0272 0E       		.uleb128 0xe
 2950 0273 3A       		.uleb128 0x3a
 2951 0274 0B       		.uleb128 0xb
 2952 0275 3B       		.uleb128 0x3b
 2953 0276 0B       		.uleb128 0xb
 2954 0277 27       		.uleb128 0x27
 2955 0278 19       		.uleb128 0x19
 2956 0279 49       		.uleb128 0x49
 2957 027a 13       		.uleb128 0x13
 2958 027b 3C       		.uleb128 0x3c
 2959 027c 19       		.uleb128 0x19
 2960 027d 01       		.uleb128 0x1
 2961 027e 13       		.uleb128 0x13
 2962 027f 00       		.byte	0
 2963 0280 00       		.byte	0
 2964 0281 2F       		.uleb128 0x2f
 2965 0282 2E       		.uleb128 0x2e
 2966 0283 01       		.byte	0x1
 2967 0284 3F       		.uleb128 0x3f
 2968 0285 19       		.uleb128 0x19
 2969 0286 03       		.uleb128 0x3
 2970 0287 0E       		.uleb128 0xe
 2971 0288 3A       		.uleb128 0x3a
 2972 0289 0B       		.uleb128 0xb
 2973 028a 3B       		.uleb128 0x3b
 2974 028b 05       		.uleb128 0x5
 2975 028c 27       		.uleb128 0x27
 2976 028d 19       		.uleb128 0x19
 2977 028e 3C       		.uleb128 0x3c
 2978 028f 19       		.uleb128 0x19
 2979 0290 01       		.uleb128 0x1
 2980 0291 13       		.uleb128 0x13
 2981 0292 00       		.byte	0
 2982 0293 00       		.byte	0
 2983 0294 30       		.uleb128 0x30
 2984 0295 2E       		.uleb128 0x2e
 2985 0296 01       		.byte	0x1
 2986 0297 3F       		.uleb128 0x3f
 2987 0298 19       		.uleb128 0x19
 2988 0299 03       		.uleb128 0x3
 2989 029a 0E       		.uleb128 0xe
 2990 029b 27       		.uleb128 0x27
 2991 029c 19       		.uleb128 0x19
 2992 029d 49       		.uleb128 0x49
 2993 029e 13       		.uleb128 0x13
 2994 029f 34       		.uleb128 0x34
 2995 02a0 19       		.uleb128 0x19
 2996 02a1 3C       		.uleb128 0x3c
 2997 02a2 19       		.uleb128 0x19
ARM GAS  C:\Users\Petro\AppData\Local\Temp\cclwd5AX.s 			page 86


 2998 02a3 01       		.uleb128 0x1
 2999 02a4 13       		.uleb128 0x13
 3000 02a5 00       		.byte	0
 3001 02a6 00       		.byte	0
 3002 02a7 31       		.uleb128 0x31
 3003 02a8 26       		.uleb128 0x26
 3004 02a9 00       		.byte	0
 3005 02aa 00       		.byte	0
 3006 02ab 00       		.byte	0
 3007 02ac 32       		.uleb128 0x32
 3008 02ad 2E       		.uleb128 0x2e
 3009 02ae 01       		.byte	0x1
 3010 02af 3F       		.uleb128 0x3f
 3011 02b0 19       		.uleb128 0x19
 3012 02b1 03       		.uleb128 0x3
 3013 02b2 0E       		.uleb128 0xe
 3014 02b3 3A       		.uleb128 0x3a
 3015 02b4 0B       		.uleb128 0xb
 3016 02b5 3B       		.uleb128 0x3b
 3017 02b6 0B       		.uleb128 0xb
 3018 02b7 27       		.uleb128 0x27
 3019 02b8 19       		.uleb128 0x19
 3020 02b9 3C       		.uleb128 0x3c
 3021 02ba 19       		.uleb128 0x19
 3022 02bb 01       		.uleb128 0x1
 3023 02bc 13       		.uleb128 0x13
 3024 02bd 00       		.byte	0
 3025 02be 00       		.byte	0
 3026 02bf 00       		.byte	0
 3027              		.section	.debug_loc,"",%progbits
 3028              	.Ldebug_loc0:
 3029              	.LLST0:
 3030 0000 00000000 		.4byte	.LVL0
 3031 0004 08000000 		.4byte	.LVL1
 3032 0008 0100     		.2byte	0x1
 3033 000a 50       		.byte	0x50
 3034 000b 08000000 		.4byte	.LVL1
 3035 000f 0A000000 		.4byte	.LVL2
 3036 0013 0400     		.2byte	0x4
 3037 0015 F3       		.byte	0xf3
 3038 0016 01       		.uleb128 0x1
 3039 0017 50       		.byte	0x50
 3040 0018 9F       		.byte	0x9f
 3041 0019 0A000000 		.4byte	.LVL2
 3042 001d 1E000000 		.4byte	.LVL7
 3043 0021 0100     		.2byte	0x1
 3044 0023 50       		.byte	0x50
 3045 0024 1E000000 		.4byte	.LVL7
 3046 0028 20000000 		.4byte	.LVL8
 3047 002c 0400     		.2byte	0x4
 3048 002e F3       		.byte	0xf3
 3049 002f 01       		.uleb128 0x1
 3050 0030 50       		.byte	0x50
 3051 0031 9F       		.byte	0x9f
 3052 0032 20000000 		.4byte	.LVL8
 3053 0036 22000000 		.4byte	.LVL9
 3054 003a 0100     		.2byte	0x1
ARM GAS  C:\Users\Petro\AppData\Local\Temp\cclwd5AX.s 			page 87


 3055 003c 50       		.byte	0x50
 3056 003d 22000000 		.4byte	.LVL9
 3057 0041 24000000 		.4byte	.LFE7
 3058 0045 0400     		.2byte	0x4
 3059 0047 F3       		.byte	0xf3
 3060 0048 01       		.uleb128 0x1
 3061 0049 50       		.byte	0x50
 3062 004a 9F       		.byte	0x9f
 3063 004b 00000000 		.4byte	0
 3064 004f 00000000 		.4byte	0
 3065              	.LLST1:
 3066 0053 0A000000 		.4byte	.LVL2
 3067 0057 12000000 		.4byte	.LVL3
 3068 005b 0100     		.2byte	0x1
 3069 005d 53       		.byte	0x53
 3070 005e 14000000 		.4byte	.LVL4
 3071 0062 16000000 		.4byte	.LVL5
 3072 0066 0100     		.2byte	0x1
 3073 0068 53       		.byte	0x53
 3074 0069 18000000 		.4byte	.LVL6
 3075 006d 22000000 		.4byte	.LVL9
 3076 0071 0100     		.2byte	0x1
 3077 0073 53       		.byte	0x53
 3078 0074 00000000 		.4byte	0
 3079 0078 00000000 		.4byte	0
 3080              	.LLST2:
 3081 007c 00000000 		.4byte	.LVL0
 3082 0080 22000000 		.4byte	.LVL9
 3083 0084 0200     		.2byte	0x2
 3084 0086 30       		.byte	0x30
 3085 0087 9F       		.byte	0x9f
 3086 0088 22000000 		.4byte	.LVL9
 3087 008c 24000000 		.4byte	.LFE7
 3088 0090 0100     		.2byte	0x1
 3089 0092 50       		.byte	0x50
 3090 0093 00000000 		.4byte	0
 3091 0097 00000000 		.4byte	0
 3092              	.LLST3:
 3093 009b 00000000 		.4byte	.LVL11
 3094 009f 09000000 		.4byte	.LVL12-1
 3095 00a3 0100     		.2byte	0x1
 3096 00a5 50       		.byte	0x50
 3097 00a6 09000000 		.4byte	.LVL12-1
 3098 00aa 32000000 		.4byte	.LVL18
 3099 00ae 0100     		.2byte	0x1
 3100 00b0 54       		.byte	0x54
 3101 00b1 32000000 		.4byte	.LVL18
 3102 00b5 38000000 		.4byte	.LFE2
 3103 00b9 0400     		.2byte	0x4
 3104 00bb F3       		.byte	0xf3
 3105 00bc 01       		.uleb128 0x1
 3106 00bd 50       		.byte	0x50
 3107 00be 9F       		.byte	0x9f
 3108 00bf 00000000 		.4byte	0
 3109 00c3 00000000 		.4byte	0
 3110              	.LLST4:
 3111 00c7 0A000000 		.4byte	.LVL12
ARM GAS  C:\Users\Petro\AppData\Local\Temp\cclwd5AX.s 			page 88


 3112 00cb 24000000 		.4byte	.LVL13
 3113 00cf 0100     		.2byte	0x1
 3114 00d1 50       		.byte	0x50
 3115 00d2 24000000 		.4byte	.LVL13
 3116 00d6 27000000 		.4byte	.LVL14-1
 3117 00da 0200     		.2byte	0x2
 3118 00dc 71       		.byte	0x71
 3119 00dd 03       		.sleb128 3
 3120 00de 2A000000 		.4byte	.LVL15
 3121 00e2 2C000000 		.4byte	.LVL16
 3122 00e6 0100     		.2byte	0x1
 3123 00e8 50       		.byte	0x50
 3124 00e9 00000000 		.4byte	0
 3125 00ed 00000000 		.4byte	0
 3126              	.LLST5:
 3127 00f1 00000000 		.4byte	.LVL19
 3128 00f5 6C000000 		.4byte	.LVL21
 3129 00f9 0100     		.2byte	0x1
 3130 00fb 50       		.byte	0x50
 3131 00fc 6C000000 		.4byte	.LVL21
 3132 0100 DC000000 		.4byte	.LVL32
 3133 0104 0400     		.2byte	0x4
 3134 0106 F3       		.byte	0xf3
 3135 0107 01       		.uleb128 0x1
 3136 0108 50       		.byte	0x50
 3137 0109 9F       		.byte	0x9f
 3138 010a DC000000 		.4byte	.LVL32
 3139 010e FE000000 		.4byte	.LVL33
 3140 0112 0100     		.2byte	0x1
 3141 0114 50       		.byte	0x50
 3142 0115 FE000000 		.4byte	.LVL33
 3143 0119 06010000 		.4byte	.LVL35
 3144 011d 0400     		.2byte	0x4
 3145 011f F3       		.byte	0xf3
 3146 0120 01       		.uleb128 0x1
 3147 0121 50       		.byte	0x50
 3148 0122 9F       		.byte	0x9f
 3149 0123 06010000 		.4byte	.LVL35
 3150 0127 76010000 		.4byte	.LVL36
 3151 012b 0100     		.2byte	0x1
 3152 012d 50       		.byte	0x50
 3153 012e 76010000 		.4byte	.LVL36
 3154 0132 86010000 		.4byte	.LVL38
 3155 0136 0400     		.2byte	0x4
 3156 0138 F3       		.byte	0xf3
 3157 0139 01       		.uleb128 0x1
 3158 013a 50       		.byte	0x50
 3159 013b 9F       		.byte	0x9f
 3160 013c 86010000 		.4byte	.LVL38
 3161 0140 8A010000 		.4byte	.LVL39
 3162 0144 0100     		.2byte	0x1
 3163 0146 50       		.byte	0x50
 3164 0147 8A010000 		.4byte	.LVL39
 3165 014b A8010000 		.4byte	.LVL42
 3166 014f 0400     		.2byte	0x4
 3167 0151 F3       		.byte	0xf3
 3168 0152 01       		.uleb128 0x1
ARM GAS  C:\Users\Petro\AppData\Local\Temp\cclwd5AX.s 			page 89


 3169 0153 50       		.byte	0x50
 3170 0154 9F       		.byte	0x9f
 3171 0155 A8010000 		.4byte	.LVL42
 3172 0159 AB010000 		.4byte	.LVL43-1
 3173 015d 0100     		.2byte	0x1
 3174 015f 50       		.byte	0x50
 3175 0160 AB010000 		.4byte	.LVL43-1
 3176 0164 AE010000 		.4byte	.LVL44
 3177 0168 0400     		.2byte	0x4
 3178 016a F3       		.byte	0xf3
 3179 016b 01       		.uleb128 0x1
 3180 016c 50       		.byte	0x50
 3181 016d 9F       		.byte	0x9f
 3182 016e AE010000 		.4byte	.LVL44
 3183 0172 B8010000 		.4byte	.LVL46
 3184 0176 0100     		.2byte	0x1
 3185 0178 50       		.byte	0x50
 3186 0179 B8010000 		.4byte	.LVL46
 3187 017d BE010000 		.4byte	.LVL48
 3188 0181 0400     		.2byte	0x4
 3189 0183 F3       		.byte	0xf3
 3190 0184 01       		.uleb128 0x1
 3191 0185 50       		.byte	0x50
 3192 0186 9F       		.byte	0x9f
 3193 0187 BE010000 		.4byte	.LVL48
 3194 018b C0010000 		.4byte	.LVL49
 3195 018f 0100     		.2byte	0x1
 3196 0191 50       		.byte	0x50
 3197 0192 C0010000 		.4byte	.LVL49
 3198 0196 C6010000 		.4byte	.LVL51
 3199 019a 0400     		.2byte	0x4
 3200 019c F3       		.byte	0xf3
 3201 019d 01       		.uleb128 0x1
 3202 019e 50       		.byte	0x50
 3203 019f 9F       		.byte	0x9f
 3204 01a0 C6010000 		.4byte	.LVL51
 3205 01a4 D0010000 		.4byte	.LVL52
 3206 01a8 0100     		.2byte	0x1
 3207 01aa 50       		.byte	0x50
 3208 01ab D0010000 		.4byte	.LVL52
 3209 01af D6010000 		.4byte	.LVL54
 3210 01b3 0400     		.2byte	0x4
 3211 01b5 F3       		.byte	0xf3
 3212 01b6 01       		.uleb128 0x1
 3213 01b7 50       		.byte	0x50
 3214 01b8 9F       		.byte	0x9f
 3215 01b9 D6010000 		.4byte	.LVL54
 3216 01bd E0010000 		.4byte	.LVL55
 3217 01c1 0100     		.2byte	0x1
 3218 01c3 50       		.byte	0x50
 3219 01c4 E0010000 		.4byte	.LVL55
 3220 01c8 44020000 		.4byte	.LFE10
 3221 01cc 0400     		.2byte	0x4
 3222 01ce F3       		.byte	0xf3
 3223 01cf 01       		.uleb128 0x1
 3224 01d0 50       		.byte	0x50
 3225 01d1 9F       		.byte	0x9f
ARM GAS  C:\Users\Petro\AppData\Local\Temp\cclwd5AX.s 			page 90


 3226 01d2 00000000 		.4byte	0
 3227 01d6 00000000 		.4byte	0
 3228              	.LLST6:
 3229 01da 00000000 		.4byte	.LVL19
 3230 01de 0C000000 		.4byte	.LVL20
 3231 01e2 0100     		.2byte	0x1
 3232 01e4 51       		.byte	0x51
 3233 01e5 0C000000 		.4byte	.LVL20
 3234 01e9 00020000 		.4byte	.LVL57
 3235 01ed 0100     		.2byte	0x1
 3236 01ef 55       		.byte	0x55
 3237 01f0 00020000 		.4byte	.LVL57
 3238 01f4 44020000 		.4byte	.LFE10
 3239 01f8 0400     		.2byte	0x4
 3240 01fa F3       		.byte	0xf3
 3241 01fb 01       		.uleb128 0x1
 3242 01fc 51       		.byte	0x51
 3243 01fd 9F       		.byte	0x9f
 3244 01fe 00000000 		.4byte	0
 3245 0202 00000000 		.4byte	0
 3246              	.LLST7:
 3247 0206 B6010000 		.4byte	.LVL45
 3248 020a BB010000 		.4byte	.LVL47-1
 3249 020e 0100     		.2byte	0x1
 3250 0210 51       		.byte	0x51
 3251 0211 00000000 		.4byte	0
 3252 0215 00000000 		.4byte	0
 3253              		.section	.debug_aranges,"",%progbits
 3254 0000 34000000 		.4byte	0x34
 3255 0004 0200     		.2byte	0x2
 3256 0006 00000000 		.4byte	.Ldebug_info0
 3257 000a 04       		.byte	0x4
 3258 000b 00       		.byte	0
 3259 000c 0000     		.2byte	0
 3260 000e 0000     		.2byte	0
 3261 0010 00000000 		.4byte	.LFB7
 3262 0014 24000000 		.4byte	.LFE7-.LFB7
 3263 0018 00000000 		.4byte	.LFB4
 3264 001c 14000000 		.4byte	.LFE4-.LFB4
 3265 0020 00000000 		.4byte	.LFB2
 3266 0024 38000000 		.4byte	.LFE2-.LFB2
 3267 0028 00000000 		.4byte	.LFB10
 3268 002c 44020000 		.4byte	.LFE10-.LFB10
 3269 0030 00000000 		.4byte	0
 3270 0034 00000000 		.4byte	0
 3271              		.section	.debug_ranges,"",%progbits
 3272              	.Ldebug_ranges0:
 3273 0000 00000000 		.4byte	.LFB7
 3274 0004 24000000 		.4byte	.LFE7
 3275 0008 00000000 		.4byte	.LFB4
 3276 000c 14000000 		.4byte	.LFE4
 3277 0010 00000000 		.4byte	.LFB2
 3278 0014 38000000 		.4byte	.LFE2
 3279 0018 00000000 		.4byte	.LFB10
 3280 001c 44020000 		.4byte	.LFE10
 3281 0020 00000000 		.4byte	0
 3282 0024 00000000 		.4byte	0
ARM GAS  C:\Users\Petro\AppData\Local\Temp\cclwd5AX.s 			page 91


 3283              		.section	.debug_line,"",%progbits
 3284              	.Ldebug_line0:
 3285 0000 B6010000 		.section	.debug_str,"MS",%progbits,1
 3285      0200ED00 
 3285      00000201 
 3285      FB0E0D00 
 3285      01010101 
 3286              	.LASF272:
 3287 0000 6379426C 		.ascii	"cyBle_peerBonding\000"
 3287      655F7065 
 3287      6572426F 
 3287      6E64696E 
 3287      6700
 3288              	.LASF217:
 3289 0012 4359424C 		.ascii	"CYBLE_GATT_ERR_INVALID_CRC\000"
 3289      455F4741 
 3289      54545F45 
 3289      52525F49 
 3289      4E56414C 
 3290              	.LASF15:
 3291 002d 73697A65 		.ascii	"sizetype\000"
 3291      74797065 
 3291      00
 3292              	.LASF153:
 3293 0036 656B6579 		.ascii	"ekeySize\000"
 3293      53697A65 
 3293      00
 3294              	.LASF187:
 3295 003f 4359424C 		.ascii	"CYBLE_GATT_HANDLE_VALUE_CNF\000"
 3295      455F4741 
 3295      54545F48 
 3295      414E444C 
 3295      455F5641 
 3296              	.LASF284:
 3297 005b 4379426C 		.ascii	"CyBle_SetDeviceAddress\000"
 3297      655F5365 
 3297      74446576 
 3297      69636541 
 3297      64647265 
 3298              	.LASF285:
 3299 0072 4379426C 		.ascii	"CyBle_GapSetIoCap\000"
 3299      655F4761 
 3299      70536574 
 3299      496F4361 
 3299      7000
 3300              	.LASF258:
 3301 0084 4379426C 		.ascii	"CyBle_WriteReqHandler\000"
 3301      655F5772 
 3301      69746552 
 3301      65714861 
 3301      6E646C65 
 3302              	.LASF260:
 3303 009a 6576656E 		.ascii	"eventParam\000"
 3303      74506172 
 3303      616D00
 3304              	.LASF29:
 3305 00a5 4359424C 		.ascii	"CYBLE_EVT_GAP_DEVICE_CONNECTED\000"
ARM GAS  C:\Users\Petro\AppData\Local\Temp\cclwd5AX.s 			page 92


 3305      455F4556 
 3305      545F4741 
 3305      505F4445 
 3305      56494345 
 3306              	.LASF134:
 3307 00c4 4359424C 		.ascii	"CYBLE_GAP_IOCAP_NOINPUT_NOOUTPUT\000"
 3307      455F4741 
 3307      505F494F 
 3307      4341505F 
 3307      4E4F494E 
 3308              	.LASF36:
 3309 00e5 4359424C 		.ascii	"CYBLE_EVT_GATT_CONNECT_IND\000"
 3309      455F4556 
 3309      545F4741 
 3309      54545F43 
 3309      4F4E4E45 
 3310              	.LASF180:
 3311 0100 4359424C 		.ascii	"CYBLE_GATT_WRITE_CMD\000"
 3311      455F4741 
 3311      54545F57 
 3311      52495445 
 3311      5F434D44 
 3312              	.LASF11:
 3313 0115 75696E74 		.ascii	"uint32\000"
 3313      333200
 3314              	.LASF136:
 3315 011c 4359424C 		.ascii	"CYBLE_GAP_IOCAP_T\000"
 3315      455F4741 
 3315      505F494F 
 3315      4341505F 
 3315      5400
 3316              	.LASF116:
 3317 012e 626C6550 		.ascii	"blePwrLevelInDbm\000"
 3317      77724C65 
 3317      76656C49 
 3317      6E44626D 
 3317      00
 3318              	.LASF192:
 3319 013f 4359424C 		.ascii	"CYBLE_GATT_ERR_READ_NOT_PERMITTED\000"
 3319      455F4741 
 3319      54545F45 
 3319      52525F52 
 3319      4541445F 
 3320              	.LASF207:
 3321 0161 4359424C 		.ascii	"CYBLE_GATT_ERR_INSUFFICIENT_RESOURCE\000"
 3321      455F4741 
 3321      54545F45 
 3321      52525F49 
 3321      4E535546 
 3322              	.LASF181:
 3323 0186 4359424C 		.ascii	"CYBLE_GATT_PREPARE_WRITE_REQ\000"
 3323      455F4741 
 3323      54545F50 
 3323      52455041 
 3323      52455F57 
 3324              	.LASF206:
 3325 01a3 4359424C 		.ascii	"CYBLE_GATT_ERR_UNSUPPORTED_GROUP_TYPE\000"
ARM GAS  C:\Users\Petro\AppData\Local\Temp\cclwd5AX.s 			page 93


 3325      455F4741 
 3325      54545F45 
 3325      52525F55 
 3325      4E535550 
 3326              	.LASF89:
 3327 01c9 4359424C 		.ascii	"CYBLE_ERROR_L2CAP_CONNECTION_ENTITY_NOT_FOUND\000"
 3327      455F4552 
 3327      524F525F 
 3327      4C324341 
 3327      505F434F 
 3328              	.LASF95:
 3329 01f7 4359424C 		.ascii	"CYBLE_ERROR_MIC_AUTH_FAILED\000"
 3329      455F4552 
 3329      524F525F 
 3329      4D49435F 
 3329      41555448 
 3330              	.LASF56:
 3331 0213 4359424C 		.ascii	"CYBLE_EVT_GATTS_DATA_SIGNED_CMD_REQ\000"
 3331      455F4556 
 3331      545F4741 
 3331      5454535F 
 3331      44415441 
 3332              	.LASF67:
 3333 0237 4359424C 		.ascii	"CYBLE_EVT_L2CAP_CBFC_RX_CREDIT_IND\000"
 3333      455F4556 
 3333      545F4C32 
 3333      4341505F 
 3333      43424643 
 3334              	.LASF232:
 3335 025a 4359424C 		.ascii	"CYBLE_GATT_VALUE_T\000"
 3335      455F4741 
 3335      54545F56 
 3335      414C5545 
 3335      5F5400
 3336              	.LASF175:
 3337 026d 4359424C 		.ascii	"CYBLE_GATT_READ_MULTIPLE_RSP\000"
 3337      455F4741 
 3337      54545F52 
 3337      4541445F 
 3337      4D554C54 
 3338              	.LASF120:
 3339 028a 74797065 		.ascii	"type\000"
 3339      00
 3340              	.LASF126:
 3341 028f 4359424C 		.ascii	"CYBLE_TO_REASON_CODE_T\000"
 3341      455F544F 
 3341      5F524541 
 3341      534F4E5F 
 3341      434F4445 
 3342              	.LASF148:
 3343 02a6 4359424C 		.ascii	"CYBLE_GAP_AUTH_ERROR_AUTHENTICATION_TIMEOUT\000"
 3343      455F4741 
 3343      505F4155 
 3343      54485F45 
 3343      52524F52 
 3344              	.LASF145:
 3345 02d2 4359424C 		.ascii	"CYBLE_GAP_AUTH_ERROR_UNSPECIFIED_REASON\000"
ARM GAS  C:\Users\Petro\AppData\Local\Temp\cclwd5AX.s 			page 94


 3345      455F4741 
 3345      505F4155 
 3345      54485F45 
 3345      52524F52 
 3346              	.LASF169:
 3347 02fa 4359424C 		.ascii	"CYBLE_GATT_READ_BY_TYPE_RSP\000"
 3347      455F4741 
 3347      54545F52 
 3347      4541445F 
 3347      42595F54 
 3348              	.LASF244:
 3349 0316 4359424C 		.ascii	"CYBLE_CALLBACK_T\000"
 3349      455F4341 
 3349      4C4C4241 
 3349      434B5F54 
 3349      00
 3350              	.LASF53:
 3351 0327 4359424C 		.ascii	"CYBLE_EVT_GATTC_HANDLE_VALUE_NTF\000"
 3351      455F4556 
 3351      545F4741 
 3351      5454435F 
 3351      48414E44 
 3352              	.LASF23:
 3353 0348 4359424C 		.ascii	"CYBLE_EVT_GAP_AUTH_REQ\000"
 3353      455F4556 
 3353      545F4741 
 3353      505F4155 
 3353      54485F52 
 3354              	.LASF230:
 3355 035f 4359424C 		.ascii	"CYBLE_CONN_HANDLE_T\000"
 3355      455F434F 
 3355      4E4E5F48 
 3355      414E444C 
 3355      455F5400 
 3356              	.LASF84:
 3357 0373 4359424C 		.ascii	"CYBLE_ERROR_BT_ON_NOT_COMPLETED\000"
 3357      455F4552 
 3357      524F525F 
 3357      42545F4F 
 3357      4E5F4E4F 
 3358              	.LASF131:
 3359 0393 4359424C 		.ascii	"CYBLE_GAP_IOCAP_DISPLAY_ONLY\000"
 3359      455F4741 
 3359      505F494F 
 3359      4341505F 
 3359      44495350 
 3360              	.LASF105:
 3361 03b0 4359424C 		.ascii	"CYBLE_LL_PWR_LVL_NEG_3_DBM\000"
 3361      455F4C4C 
 3361      5F505752 
 3361      5F4C564C 
 3361      5F4E4547 
 3362              	.LASF253:
 3363 03cb 4359424C 		.ascii	"CYBLE_STATE_ADVERTISING\000"
 3363      455F5354 
 3363      4154455F 
 3363      41445645 
ARM GAS  C:\Users\Petro\AppData\Local\Temp\cclwd5AX.s 			page 95


 3363      52544953 
 3364              	.LASF281:
 3365 03e3 4379426C 		.ascii	"CyBle_GattsWriteRsp\000"
 3365      655F4761 
 3365      74747357 
 3365      72697465 
 3365      52737000 
 3366              	.LASF228:
 3367 03f7 62644861 		.ascii	"bdHandle\000"
 3367      6E646C65 
 3367      00
 3368              	.LASF138:
 3369 0400 4359424C 		.ascii	"CYBLE_GAP_AUTH_ERROR_PASSKEY_ENTRY_FAILED\000"
 3369      455F4741 
 3369      505F4155 
 3369      54485F45 
 3369      52524F52 
 3370              	.LASF220:
 3371 042a 4359424C 		.ascii	"CYBLE_GATT_ERR_ANCS_INVALID_COMMAND\000"
 3371      455F4741 
 3371      54545F45 
 3371      52525F41 
 3371      4E43535F 
 3372              	.LASF282:
 3373 044e 4379426C 		.ascii	"CyBle_SetTxPowerLevel\000"
 3373      655F5365 
 3373      74547850 
 3373      6F776572 
 3373      4C657665 
 3374              	.LASF103:
 3375 0464 4359424C 		.ascii	"CYBLE_LL_PWR_LVL_NEG_12_DBM\000"
 3375      455F4C4C 
 3375      5F505752 
 3375      5F4C564C 
 3375      5F4E4547 
 3376              	.LASF163:
 3377 0480 4359424C 		.ascii	"CYBLE_GATT_XCHNG_MTU_RSP\000"
 3377      455F4741 
 3377      54545F58 
 3377      43484E47 
 3377      5F4D5455 
 3378              	.LASF49:
 3379 0499 4359424C 		.ascii	"CYBLE_EVT_GATTS_WRITE_CMD_REQ\000"
 3379      455F4556 
 3379      545F4741 
 3379      5454535F 
 3379      57524954 
 3380              	.LASF4:
 3381 04b7 6C6F6E67 		.ascii	"long int\000"
 3381      20696E74 
 3381      00
 3382              	.LASF127:
 3383 04c0 4359424C 		.ascii	"CYBLE_GAP_SEC_LEVEL_1\000"
 3383      455F4741 
 3383      505F5345 
 3383      435F4C45 
 3383      56454C5F 
ARM GAS  C:\Users\Petro\AppData\Local\Temp\cclwd5AX.s 			page 96


 3384              	.LASF128:
 3385 04d6 4359424C 		.ascii	"CYBLE_GAP_SEC_LEVEL_2\000"
 3385      455F4741 
 3385      505F5345 
 3385      435F4C45 
 3385      56454C5F 
 3386              	.LASF129:
 3387 04ec 4359424C 		.ascii	"CYBLE_GAP_SEC_LEVEL_3\000"
 3387      455F4741 
 3387      505F5345 
 3387      435F4C45 
 3387      56454C5F 
 3388              	.LASF167:
 3389 0502 4359424C 		.ascii	"CYBLE_GATT_FIND_BY_TYPE_VALUE_RSP\000"
 3389      455F4741 
 3389      54545F46 
 3389      494E445F 
 3389      42595F54 
 3390              	.LASF17:
 3391 0524 4359424C 		.ascii	"CYBLE_EVT_STACK_ON\000"
 3391      455F4556 
 3391      545F5354 
 3391      41434B5F 
 3391      4F4E00
 3392              	.LASF91:
 3393 0537 4359424C 		.ascii	"CYBLE_ERROR_L2CAP_PSM_NOT_IN_RANGE\000"
 3393      455F4552 
 3393      524F525F 
 3393      4C324341 
 3393      505F5053 
 3394              	.LASF268:
 3395 055a 6379426C 		.ascii	"cyBle_deviceAddress\000"
 3395      655F6465 
 3395      76696365 
 3395      41646472 
 3395      65737300 
 3396              	.LASF194:
 3397 056e 4359424C 		.ascii	"CYBLE_GATT_ERR_INVALID_PDU\000"
 3397      455F4741 
 3397      54545F45 
 3397      52525F49 
 3397      4E56414C 
 3398              	.LASF292:
 3399 0589 2E5C4765 		.ascii	".\\Generated_Source\\PSoC4\\BLE_eventHandler.c\000"
 3399      6E657261 
 3399      7465645F 
 3399      536F7572 
 3399      63655C50 
 3400              	.LASF99:
 3401 05b5 4359424C 		.ascii	"CYBLE_ERROR_CHAR_IS_NOT_DISCOVERED\000"
 3401      455F4552 
 3401      524F525F 
 3401      43484152 
 3401      5F49535F 
 3402              	.LASF235:
 3403 05d8 4359424C 		.ascii	"CYBLE_GATT_HANDLE_VALUE_PAIR_T\000"
 3403      455F4741 
ARM GAS  C:\Users\Petro\AppData\Local\Temp\cclwd5AX.s 			page 97


 3403      54545F48 
 3403      414E444C 
 3403      455F5641 
 3404              	.LASF117:
 3405 05f7 626C6553 		.ascii	"bleSsChId\000"
 3405      73436849 
 3405      6400
 3406              	.LASF61:
 3407 0601 4359424C 		.ascii	"CYBLE_EVT_L2CAP_COMMAND_REJ\000"
 3407      455F4556 
 3407      545F4C32 
 3407      4341505F 
 3407      434F4D4D 
 3408              	.LASF173:
 3409 061d 4359424C 		.ascii	"CYBLE_GATT_READ_BLOB_RSP\000"
 3409      455F4741 
 3409      54545F52 
 3409      4541445F 
 3409      424C4F42 
 3410              	.LASF203:
 3411 0636 4359424C 		.ascii	"CYBLE_GATT_ERR_INVALID_ATTRIBUTE_LEN\000"
 3411      455F4741 
 3411      54545F45 
 3411      52525F49 
 3411      4E56414C 
 3412              	.LASF92:
 3413 065b 4359424C 		.ascii	"CYBLE_ERROR_GATT_DB_INVALID_ATTR_HANDLE\000"
 3413      455F4552 
 3413      524F525F 
 3413      47415454 
 3413      5F44425F 
 3414              	.LASF0:
 3415 0683 7369676E 		.ascii	"signed char\000"
 3415      65642063 
 3415      68617200 
 3416              	.LASF102:
 3417 068f 4359424C 		.ascii	"CYBLE_LL_PWR_LVL_NEG_18_DBM\000"
 3417      455F4C4C 
 3417      5F505752 
 3417      5F4C564C 
 3417      5F4E4547 
 3418              	.LASF164:
 3419 06ab 4359424C 		.ascii	"CYBLE_GATT_FIND_INFO_REQ\000"
 3419      455F4741 
 3419      54545F46 
 3419      494E445F 
 3419      494E464F 
 3420              	.LASF19:
 3421 06c4 4359424C 		.ascii	"CYBLE_EVT_HARDWARE_ERROR\000"
 3421      455F4556 
 3421      545F4841 
 3421      52445741 
 3421      52455F45 
 3422              	.LASF295:
 3423 06dd 4379426C 		.ascii	"CyBle_EventHandler\000"
 3423      655F4576 
 3423      656E7448 
ARM GAS  C:\Users\Petro\AppData\Local\Temp\cclwd5AX.s 			page 98


 3423      616E646C 
 3423      657200
 3424              	.LASF73:
 3425 06f0 4359424C 		.ascii	"CYBLE_ERROR_OK\000"
 3425      455F4552 
 3425      524F525F 
 3425      4F4B00
 3426              	.LASF115:
 3427 06ff 4359424C 		.ascii	"CYBLE_BLESS_PHY_CH_GRP_ID_T\000"
 3427      455F424C 
 3427      4553535F 
 3427      5048595F 
 3427      43485F47 
 3428              	.LASF223:
 3429 071b 4359424C 		.ascii	"CYBLE_GATT_ERR_CCCD_IMPROPERLY_CONFIGURED\000"
 3429      455F4741 
 3429      54545F45 
 3429      52525F43 
 3429      4343445F 
 3430              	.LASF40:
 3431 0745 4359424C 		.ascii	"CYBLE_EVT_GATTC_READ_BY_GROUP_TYPE_RSP\000"
 3431      455F4556 
 3431      545F4741 
 3431      5454435F 
 3431      52454144 
 3432              	.LASF250:
 3433 076c 4359424C 		.ascii	"CYBLE_STATE_STOPPED\000"
 3433      455F5354 
 3433      4154455F 
 3433      53544F50 
 3433      50454400 
 3434              	.LASF240:
 3435 0780 4359424C 		.ascii	"CYBLE_GATTS_ERR_PARAM_T\000"
 3435      455F4741 
 3435      5454535F 
 3435      4552525F 
 3435      50415241 
 3436              	.LASF1:
 3437 0798 756E7369 		.ascii	"unsigned char\000"
 3437      676E6564 
 3437      20636861 
 3437      7200
 3438              	.LASF39:
 3439 07a6 4359424C 		.ascii	"CYBLE_EVT_GATTC_XCHNG_MTU_RSP\000"
 3439      455F4556 
 3439      545F4741 
 3439      5454435F 
 3439      5843484E 
 3440              	.LASF186:
 3441 07c4 4359424C 		.ascii	"CYBLE_GATT_HANDLE_VALUE_IND\000"
 3441      455F4741 
 3441      54545F48 
 3441      414E444C 
 3441      455F5641 
 3442              	.LASF68:
 3443 07e0 4359424C 		.ascii	"CYBLE_EVT_L2CAP_CBFC_TX_CREDIT_IND\000"
 3443      455F4556 
ARM GAS  C:\Users\Petro\AppData\Local\Temp\cclwd5AX.s 			page 99


 3443      545F4C32 
 3443      4341505F 
 3443      43424643 
 3444              	.LASF287:
 3445 0803 4379426C 		.ascii	"CyBle_GappStartAdvertisement\000"
 3445      655F4761 
 3445      70705374 
 3445      61727441 
 3445      64766572 
 3446              	.LASF239:
 3447 0820 6572726F 		.ascii	"errorCode\000"
 3447      72436F64 
 3447      6500
 3448              	.LASF147:
 3449 082a 4359424C 		.ascii	"CYBLE_GAP_AUTH_ERROR_INVALID_PARAMETERS\000"
 3449      455F4741 
 3449      505F4155 
 3449      54485F45 
 3449      52524F52 
 3450              	.LASF65:
 3451 0852 4359424C 		.ascii	"CYBLE_EVT_L2CAP_CBFC_DISCONN_CNF\000"
 3451      455F4556 
 3451      545F4C32 
 3451      4341505F 
 3451      43424643 
 3452              	.LASF43:
 3453 0873 4359424C 		.ascii	"CYBLE_EVT_GATTC_FIND_BY_TYPE_VALUE_RSP\000"
 3453      455F4556 
 3453      545F4741 
 3453      5454435F 
 3453      46494E44 
 3454              	.LASF14:
 3455 089a 63686172 		.ascii	"char\000"
 3455      00
 3456              	.LASF106:
 3457 089f 4359424C 		.ascii	"CYBLE_LL_PWR_LVL_NEG_2_DBM\000"
 3457      455F4C4C 
 3457      5F505752 
 3457      5F4C564C 
 3457      5F4E4547 
 3458              	.LASF179:
 3459 08ba 4359424C 		.ascii	"CYBLE_GATT_WRITE_RSP\000"
 3459      455F4741 
 3459      54545F57 
 3459      52495445 
 3459      5F525350 
 3460              	.LASF46:
 3461 08cf 4359424C 		.ascii	"CYBLE_EVT_GATTC_READ_MULTI_RSP\000"
 3461      455F4556 
 3461      545F4741 
 3461      5454435F 
 3461      52454144 
 3462              	.LASF155:
 3463 08ee 4359424C 		.ascii	"CYBLE_GAP_AUTH_INFO_T\000"
 3463      455F4741 
 3463      505F4155 
 3463      54485F49 
ARM GAS  C:\Users\Petro\AppData\Local\Temp\cclwd5AX.s 			page 100


 3463      4E464F5F 
 3464              	.LASF133:
 3465 0904 4359424C 		.ascii	"CYBLE_GAP_IOCAP_KEYBOARD_ONLY\000"
 3465      455F4741 
 3465      505F494F 
 3465      4341505F 
 3465      4B455942 
 3466              	.LASF16:
 3467 0922 4359424C 		.ascii	"CYBLE_EVT_HOST_INVALID\000"
 3467      455F4556 
 3467      545F484F 
 3467      53545F49 
 3467      4E56414C 
 3468              	.LASF214:
 3469 0939 4359424C 		.ascii	"CYBLE_GATT_ERR_MISSING_CRC\000"
 3469      455F4741 
 3469      54545F45 
 3469      52525F4D 
 3469      49535349 
 3470              	.LASF204:
 3471 0954 4359424C 		.ascii	"CYBLE_GATT_ERR_UNLIKELY_ERROR\000"
 3471      455F4741 
 3471      54545F45 
 3471      52525F55 
 3471      4E4C494B 
 3472              	.LASF162:
 3473 0972 4359424C 		.ascii	"CYBLE_GATT_XCNHG_MTU_REQ\000"
 3473      455F4741 
 3473      54545F58 
 3473      434E4847 
 3473      5F4D5455 
 3474              	.LASF80:
 3475 098b 4359424C 		.ascii	"CYBLE_ERROR_NO_DEVICE_ENTITY\000"
 3475      455F4552 
 3475      524F525F 
 3475      4E4F5F44 
 3475      45564943 
 3476              	.LASF45:
 3477 09a8 4359424C 		.ascii	"CYBLE_EVT_GATTC_READ_BLOB_RSP\000"
 3477      455F4556 
 3477      545F4741 
 3477      5454435F 
 3477      52454144 
 3478              	.LASF267:
 3479 09c6 6379426C 		.ascii	"cyBle_eventHandlerFlag\000"
 3479      655F6576 
 3479      656E7448 
 3479      616E646C 
 3479      6572466C 
 3480              	.LASF52:
 3481 09dd 4359424C 		.ascii	"CYBLE_EVT_GATTC_EXEC_WRITE_RSP\000"
 3481      455F4556 
 3481      545F4741 
 3481      5454435F 
 3481      45584543 
 3482              	.LASF208:
 3483 09fc 4359424C 		.ascii	"CYBLE_GATT_ERR_HEART_RATE_CONTROL_POINT_NOT_SUPPORT"
ARM GAS  C:\Users\Petro\AppData\Local\Temp\cclwd5AX.s 			page 101


 3483      455F4741 
 3483      54545F45 
 3483      52525F48 
 3483      45415254 
 3484 0a2f 454400   		.ascii	"ED\000"
 3485              	.LASF201:
 3486 0a32 4359424C 		.ascii	"CYBLE_GATT_ERR_ATTRIBUTE_NOT_LONG\000"
 3486      455F4741 
 3486      54545F45 
 3486      52525F41 
 3486      54545249 
 3487              	.LASF130:
 3488 0a54 4359424C 		.ascii	"CYBLE_GAP_SEC_LEVEL_MASK\000"
 3488      455F4741 
 3488      505F5345 
 3488      435F4C45 
 3488      56454C5F 
 3489              	.LASF290:
 3490 0a6d 4379426C 		.ascii	"CyBle_IassWriteCmdEventHandler\000"
 3490      655F4961 
 3490      73735772 
 3490      69746543 
 3490      6D644576 
 3491              	.LASF57:
 3492 0a8c 4359424C 		.ascii	"CYBLE_EVT_GATTC_STOP_CMD_COMPLETE\000"
 3492      455F4556 
 3492      545F4741 
 3492      5454435F 
 3492      53544F50 
 3493              	.LASF222:
 3494 0aae 4359424C 		.ascii	"CYBLE_GATT_ERR_ANCS_ACTION_FAILED\000"
 3494      455F4741 
 3494      54545F45 
 3494      52525F41 
 3494      4E43535F 
 3495              	.LASF276:
 3496 0ad0 6379426C 		.ascii	"cyBle_connHandle\000"
 3496      655F636F 
 3496      6E6E4861 
 3496      6E646C65 
 3496      00
 3497              	.LASF161:
 3498 0ae1 4359424C 		.ascii	"CYBLE_GATT_ERROR_RSP\000"
 3498      455F4741 
 3498      54545F45 
 3498      52524F52 
 3498      5F525350 
 3499              	.LASF74:
 3500 0af6 4359424C 		.ascii	"CYBLE_ERROR_INVALID_PARAMETER\000"
 3500      455F4552 
 3500      524F525F 
 3500      494E5641 
 3500      4C49445F 
 3501              	.LASF248:
 3502 0b14 626F756E 		.ascii	"boundedDevCount\000"
 3502      64656444 
 3502      6576436F 
ARM GAS  C:\Users\Petro\AppData\Local\Temp\cclwd5AX.s 			page 102


 3502      756E7400 
 3503              	.LASF76:
 3504 0b24 4359424C 		.ascii	"CYBLE_ERROR_MEMORY_ALLOCATION_FAILED\000"
 3504      455F4552 
 3504      524F525F 
 3504      4D454D4F 
 3504      52595F41 
 3505              	.LASF269:
 3506 0b49 6379426C 		.ascii	"cyBle_sflashDeviceAddress\000"
 3506      655F7366 
 3506      6C617368 
 3506      44657669 
 3506      63654164 
 3507              	.LASF246:
 3508 0b63 61747456 		.ascii	"attValuesCCCDFlashMemory\000"
 3508      616C7565 
 3508      73434343 
 3508      44466C61 
 3508      73684D65 
 3509              	.LASF188:
 3510 0b7c 4359424C 		.ascii	"CYBLE_GATT_SIGNED_WRITE_CMD\000"
 3510      455F4741 
 3510      54545F53 
 3510      49474E45 
 3510      445F5752 
 3511              	.LASF215:
 3512 0b98 4359424C 		.ascii	"CYBLE_GATTS_ERR_CCCD_IMPROPERLY_CONFIGURED\000"
 3512      455F4741 
 3512      5454535F 
 3512      4552525F 
 3512      43434344 
 3513              	.LASF283:
 3514 0bc3 4379426C 		.ascii	"CyBle_GattsExchangeMtuRsp\000"
 3514      655F4761 
 3514      74747345 
 3514      78636861 
 3514      6E67654D 
 3515              	.LASF184:
 3516 0bdd 4359424C 		.ascii	"CYBLE_GATT_EXECUTE_WRITE_RSP\000"
 3516      455F4741 
 3516      54545F45 
 3516      58454355 
 3516      54455F57 
 3517              	.LASF96:
 3518 0bfa 4359424C 		.ascii	"CYBLE_ERROR_MAX\000"
 3518      455F4552 
 3518      524F525F 
 3518      4D415800 
 3519              	.LASF60:
 3520 0c0a 4359424C 		.ascii	"CYBLE_EVT_L2CAP_CONN_PARAM_UPDATE_RSP\000"
 3520      455F4556 
 3520      545F4C32 
 3520      4341505F 
 3520      434F4E4E 
 3521              	.LASF149:
 3522 0c30 4359424C 		.ascii	"CYBLE_GAP_AUTH_ERROR_LINK_DISCONNECTED\000"
 3522      455F4741 
ARM GAS  C:\Users\Petro\AppData\Local\Temp\cclwd5AX.s 			page 103


 3522      505F4155 
 3522      54485F45 
 3522      52524F52 
 3523              	.LASF245:
 3524 0c57 73746163 		.ascii	"stackFlashptr\000"
 3524      6B466C61 
 3524      73687074 
 3524      7200
 3525              	.LASF209:
 3526 0c65 4359424C 		.ascii	"CYBLE_GATT_ERR_USER_DATA_ACCESS_NOT_PERMITTED\000"
 3526      455F4741 
 3526      54545F45 
 3526      52525F55 
 3526      5345525F 
 3527              	.LASF26:
 3528 0c93 4359424C 		.ascii	"CYBLE_EVT_GAP_AUTH_COMPLETE\000"
 3528      455F4556 
 3528      545F4741 
 3528      505F4155 
 3528      54485F43 
 3529              	.LASF27:
 3530 0caf 4359424C 		.ascii	"CYBLE_EVT_GAP_AUTH_FAILED\000"
 3530      455F4556 
 3530      545F4741 
 3530      505F4155 
 3530      54485F46 
 3531              	.LASF177:
 3532 0cc9 4359424C 		.ascii	"CYBLE_GATT_READ_BY_GROUP_RSP\000"
 3532      455F4741 
 3532      54545F52 
 3532      4541445F 
 3532      42595F47 
 3533              	.LASF77:
 3534 0ce6 4359424C 		.ascii	"CYBLE_ERROR_INSUFFICIENT_RESOURCES\000"
 3534      455F4552 
 3534      524F525F 
 3534      494E5355 
 3534      46464943 
 3535              	.LASF213:
 3536 0d09 4359424C 		.ascii	"CYBLE_GATT_ERR_OP_CODE_NOT_SUPPORTED\000"
 3536      455F4741 
 3536      54545F45 
 3536      52525F4F 
 3536      505F434F 
 3537              	.LASF296:
 3538 0d2e 4379426C 		.ascii	"CyBle_IassDisconnectEventHandler\000"
 3538      655F4961 
 3538      73734469 
 3538      73636F6E 
 3538      6E656374 
 3539              	.LASF109:
 3540 0d4f 4359424C 		.ascii	"CYBLE_LL_PWR_LVL_3_DBM\000"
 3540      455F4C4C 
 3540      5F505752 
 3540      5F4C564C 
 3540      5F335F44 
 3541              	.LASF5:
ARM GAS  C:\Users\Petro\AppData\Local\Temp\cclwd5AX.s 			page 104


 3542 0d66 6C6F6E67 		.ascii	"long unsigned int\000"
 3542      20756E73 
 3542      69676E65 
 3542      6420696E 
 3542      7400
 3543              	.LASF170:
 3544 0d78 4359424C 		.ascii	"CYBLE_GATT_READ_REQ\000"
 3544      455F4741 
 3544      54545F52 
 3544      4541445F 
 3544      52455100 
 3545              	.LASF156:
 3546 0d8c 73746174 		.ascii	"status\000"
 3546      757300
 3547              	.LASF107:
 3548 0d93 4359424C 		.ascii	"CYBLE_LL_PWR_LVL_NEG_1_DBM\000"
 3548      455F4C4C 
 3548      5F505752 
 3548      5F4C564C 
 3548      5F4E4547 
 3549              	.LASF144:
 3550 0dae 4359424C 		.ascii	"CYBLE_GAP_AUTH_ERROR_COMMAND_NOT_SUPPORTED\000"
 3550      455F4741 
 3550      505F4155 
 3550      54485F45 
 3550      52524F52 
 3551              	.LASF140:
 3552 0dd9 4359424C 		.ascii	"CYBLE_GAP_AUTH_ERROR_AUTHENTICATION_REQ_NOT_MET\000"
 3552      455F4741 
 3552      505F4155 
 3552      54485F45 
 3552      52524F52 
 3553              	.LASF185:
 3554 0e09 4359424C 		.ascii	"CYBLE_GATT_HANDLE_VALUE_NTF\000"
 3554      455F4741 
 3554      54545F48 
 3554      414E444C 
 3554      455F5641 
 3555              	.LASF87:
 3556 0e25 4359424C 		.ascii	"CYBLE_ERROR_L2CAP_PSM_ALREADY_REGISTERED\000"
 3556      455F4552 
 3556      524F525F 
 3556      4C324341 
 3556      505F5053 
 3557              	.LASF291:
 3558 0e4e 474E5520 		.ascii	"GNU C 4.9.3 20150303 (release) [ARM/embedded-4_9-br"
 3558      4320342E 
 3558      392E3320 
 3558      32303135 
 3558      30333033 
 3559 0e81 616E6368 		.ascii	"anch revision 221220] -mcpu=cortex-m0 -mthumb -g -O"
 3559      20726576 
 3559      6973696F 
 3559      6E203232 
 3559      31323230 
 3560 0eb4 67202D66 		.ascii	"g -ffunction-sections -ffat-lto-objects\000"
 3560      66756E63 
ARM GAS  C:\Users\Petro\AppData\Local\Temp\cclwd5AX.s 			page 105


 3560      74696F6E 
 3560      2D736563 
 3560      74696F6E 
 3561              	.LASF219:
 3562 0edc 4359424C 		.ascii	"CYBLE_GATT_ERR_ANCS_UNKNOWN_COMMAND\000"
 3562      455F4741 
 3562      54545F45 
 3562      52525F41 
 3562      4E43535F 
 3563              	.LASF159:
 3564 0f00 73757065 		.ascii	"supervisionTO\000"
 3564      72766973 
 3564      696F6E54 
 3564      4F00
 3565              	.LASF32:
 3566 0f0e 4359424C 		.ascii	"CYBLE_EVT_GAP_CONNECTION_UPDATE_COMPLETE\000"
 3566      455F4556 
 3566      545F4741 
 3566      505F434F 
 3566      4E4E4543 
 3567              	.LASF277:
 3568 0f37 6379426C 		.ascii	"cyBle_busyStatus\000"
 3568      655F6275 
 3568      73795374 
 3568      61747573 
 3568      00
 3569              	.LASF288:
 3570 0f48 4379426C 		.ascii	"CyBle_ChangeAdDeviceAddress\000"
 3570      655F4368 
 3570      616E6765 
 3570      41644465 
 3570      76696365 
 3571              	.LASF251:
 3572 0f64 4359424C 		.ascii	"CYBLE_STATE_INITIALIZING\000"
 3572      455F5354 
 3572      4154455F 
 3572      494E4954 
 3572      49414C49 
 3573              	.LASF265:
 3574 0f7d 6379426C 		.ascii	"cyBle_mtuSize\000"
 3574      655F6D74 
 3574      7553697A 
 3574      6500
 3575              	.LASF146:
 3576 0f8b 4359424C 		.ascii	"CYBLE_GAP_AUTH_ERROR_REPEATED_ATTEMPTS\000"
 3576      455F4741 
 3576      505F4155 
 3576      54485F45 
 3576      52524F52 
 3577              	.LASF64:
 3578 0fb2 4359424C 		.ascii	"CYBLE_EVT_L2CAP_CBFC_DISCONN_IND\000"
 3578      455F4556 
 3578      545F4C32 
 3578      4341505F 
 3578      43424643 
 3579              	.LASF24:
 3580 0fd3 4359424C 		.ascii	"CYBLE_EVT_GAP_PASSKEY_ENTRY_REQUEST\000"
ARM GAS  C:\Users\Petro\AppData\Local\Temp\cclwd5AX.s 			page 106


 3580      455F4556 
 3580      545F4741 
 3580      505F5041 
 3580      53534B45 
 3581              	.LASF111:
 3582 0ff7 4359424C 		.ascii	"CYBLE_BLESS_PWR_LVL_T\000"
 3582      455F424C 
 3582      4553535F 
 3582      5057525F 
 3582      4C564C5F 
 3583              	.LASF249:
 3584 100d 43595F42 		.ascii	"CY_BLE_FLASH_STORAGE\000"
 3584      4C455F46 
 3584      4C415348 
 3584      5F53544F 
 3584      52414745 
 3585              	.LASF274:
 3586 1022 6379426C 		.ascii	"cyBle_flashStorage\000"
 3586      655F666C 
 3586      61736853 
 3586      746F7261 
 3586      676500
 3587              	.LASF286:
 3588 1035 4379426C 		.ascii	"CyBle_GappAuthReqReply\000"
 3588      655F4761 
 3588      70704175 
 3588      74685265 
 3588      71526570 
 3589              	.LASF143:
 3590 104c 4359424C 		.ascii	"CYBLE_GAP_AUTH_ERROR_INSUFFICIENT_ENCRYPTION_KEY_SI"
 3590      455F4741 
 3590      505F4155 
 3590      54485F45 
 3590      52524F52 
 3591 107f 5A4500   		.ascii	"ZE\000"
 3592              	.LASF6:
 3593 1082 6C6F6E67 		.ascii	"long long int\000"
 3593      206C6F6E 
 3593      6720696E 
 3593      7400
 3594              	.LASF257:
 3595 1090 4379426C 		.ascii	"CyBle_GattDisconnectEventHandler\000"
 3595      655F4761 
 3595      74744469 
 3595      73636F6E 
 3595      6E656374 
 3596              	.LASF259:
 3597 10b1 73666C61 		.ascii	"sflashDeviceAddress\000"
 3597      73684465 
 3597      76696365 
 3597      41646472 
 3597      65737300 
 3598              	.LASF199:
 3599 10c5 4359424C 		.ascii	"CYBLE_GATT_ERR_PREPARE_WRITE_QUEUE_FULL\000"
 3599      455F4741 
 3599      54545F45 
 3599      52525F50 
ARM GAS  C:\Users\Petro\AppData\Local\Temp\cclwd5AX.s 			page 107


 3599      52455041 
 3600              	.LASF88:
 3601 10ed 4359424C 		.ascii	"CYBLE_ERROR_L2CAP_PSM_NOT_REGISTERED\000"
 3601      455F4552 
 3601      524F525F 
 3601      4C324341 
 3601      505F5053 
 3602              	.LASF78:
 3603 1112 4359424C 		.ascii	"CYBLE_ERROR_OOB_NOT_AVAILABLE\000"
 3603      455F4552 
 3603      524F525F 
 3603      4F4F425F 
 3603      4E4F545F 
 3604              	.LASF13:
 3605 1130 646F7562 		.ascii	"double\000"
 3605      6C6500
 3606              	.LASF93:
 3607 1137 4359424C 		.ascii	"CYBLE_ERROR_DEVICE_ALREADY_EXISTS\000"
 3607      455F4552 
 3607      524F525F 
 3607      44455649 
 3607      43455F41 
 3608              	.LASF70:
 3609 1159 4359424C 		.ascii	"CYBLE_EVT_PENDING_FLASH_WRITE\000"
 3609      455F4556 
 3609      545F5045 
 3609      4E44494E 
 3609      475F464C 
 3610              	.LASF202:
 3611 1177 4359424C 		.ascii	"CYBLE_GATT_ERR_INSUFFICIENT_ENC_KEY_SIZE\000"
 3611      455F4741 
 3611      54545F45 
 3611      52525F49 
 3611      4E535546 
 3612              	.LASF110:
 3613 11a0 4359424C 		.ascii	"CYBLE_LL_PWR_LVL_MAX\000"
 3613      455F4C4C 
 3613      5F505752 
 3613      5F4C564C 
 3613      5F4D4158 
 3614              	.LASF224:
 3615 11b5 4359424C 		.ascii	"CYBLE_GATT_ERR_PROCEDURE_ALREADY_IN_PROGRESS\000"
 3615      455F4741 
 3615      54545F45 
 3615      52525F50 
 3615      524F4345 
 3616              	.LASF90:
 3617 11e2 4359424C 		.ascii	"CYBLE_ERROR_L2CAP_CHANNEL_NOT_FOUND\000"
 3617      455F4552 
 3617      524F525F 
 3617      4C324341 
 3617      505F4348 
 3618              	.LASF81:
 3619 1206 4359424C 		.ascii	"CYBLE_ERROR_REPEATED_ATTEMPTS\000"
 3619      455F4552 
 3619      524F525F 
 3619      52455045 
ARM GAS  C:\Users\Petro\AppData\Local\Temp\cclwd5AX.s 			page 108


 3619      41544544 
 3620              	.LASF12:
 3621 1224 666C6F61 		.ascii	"float\000"
 3621      7400
 3622              	.LASF94:
 3623 122a 4359424C 		.ascii	"CYBLE_ERROR_FLASH_WRITE_NOT_PERMITED\000"
 3623      455F4552 
 3623      524F525F 
 3623      464C4153 
 3623      485F5752 
 3624              	.LASF58:
 3625 124f 4359424C 		.ascii	"CYBLE_EVT_GATTS_READ_CHAR_VAL_ACCESS_REQ\000"
 3625      455F4556 
 3625      545F4741 
 3625      5454535F 
 3625      52454144 
 3626              	.LASF238:
 3627 1278 6F70636F 		.ascii	"opcode\000"
 3627      646500
 3628              	.LASF198:
 3629 127f 4359424C 		.ascii	"CYBLE_GATT_ERR_INSUFFICIENT_AUTHORIZATION\000"
 3629      455F4741 
 3629      54545F45 
 3629      52525F49 
 3629      4E535546 
 3630              	.LASF234:
 3631 12a9 61747472 		.ascii	"attrHandle\000"
 3631      48616E64 
 3631      6C6500
 3632              	.LASF152:
 3633 12b4 626F6E64 		.ascii	"bonding\000"
 3633      696E6700 
 3634              	.LASF242:
 3635 12bc 4359424C 		.ascii	"CYBLE_GATTS_WRITE_REQ_PARAM_T\000"
 3635      455F4741 
 3635      5454535F 
 3635      57524954 
 3635      455F5245 
 3636              	.LASF8:
 3637 12da 756E7369 		.ascii	"unsigned int\000"
 3637      676E6564 
 3637      20696E74 
 3637      00
 3638              	.LASF50:
 3639 12e7 4359424C 		.ascii	"CYBLE_EVT_GATTS_PREP_WRITE_REQ\000"
 3639      455F4556 
 3639      545F4741 
 3639      5454535F 
 3639      50524550 
 3640              	.LASF195:
 3641 1306 4359424C 		.ascii	"CYBLE_GATT_ERR_INSUFFICIENT_AUTHENTICATION\000"
 3641      455F4741 
 3641      54545F45 
 3641      52525F49 
 3641      4E535546 
 3642              	.LASF237:
 3643 1331 4359424C 		.ascii	"CYBLE_GATT_XCHG_MTU_PARAM_T\000"
ARM GAS  C:\Users\Petro\AppData\Local\Temp\cclwd5AX.s 			page 109


 3643      455F4741 
 3643      54545F58 
 3643      4348475F 
 3643      4D54555F 
 3644              	.LASF113:
 3645 134d 4359424C 		.ascii	"CYBLE_LL_CONN_CH_TYPE\000"
 3645      455F4C4C 
 3645      5F434F4E 
 3645      4E5F4348 
 3645      5F545950 
 3646              	.LASF280:
 3647 1363 4379426C 		.ascii	"CyBle_GattsWriteEventHandler\000"
 3647      655F4761 
 3647      74747357 
 3647      72697465 
 3647      4576656E 
 3648              	.LASF212:
 3649 1380 4359424C 		.ascii	"CYBLE_GATTS_ERR_PROCEDURE_ALREADY_IN_PROGRESS\000"
 3649      455F4741 
 3649      5454535F 
 3649      4552525F 
 3649      50524F43 
 3650              	.LASF262:
 3651 13ae 6572725F 		.ascii	"err_param\000"
 3651      70617261 
 3651      6D00
 3652              	.LASF86:
 3653 13b8 4359424C 		.ascii	"CYBLE_ERROR_L2CAP_PSM_WRONG_ENCODING\000"
 3653      455F4552 
 3653      524F525F 
 3653      4C324341 
 3653      505F5053 
 3654              	.LASF182:
 3655 13dd 4359424C 		.ascii	"CYBLE_GATT_PREPARE_WRITE_RSP\000"
 3655      455F4741 
 3655      54545F50 
 3655      52455041 
 3655      52455F57 
 3656              	.LASF200:
 3657 13fa 4359424C 		.ascii	"CYBLE_GATT_ERR_ATTRIBUTE_NOT_FOUND\000"
 3657      455F4741 
 3657      54545F45 
 3657      52525F41 
 3657      54545249 
 3658              	.LASF72:
 3659 141d 4359424C 		.ascii	"CYBLE_EVT_MAX\000"
 3659      455F4556 
 3659      545F4D41 
 3659      5800
 3660              	.LASF33:
 3661 142b 4359424C 		.ascii	"CYBLE_EVT_GAPC_SCAN_START_STOP\000"
 3661      455F4556 
 3661      545F4741 
 3661      50435F53 
 3661      43414E5F 
 3662              	.LASF294:
 3663 144a 4379426C 		.ascii	"CyBle_IsDeviceAddressValid\000"
ARM GAS  C:\Users\Petro\AppData\Local\Temp\cclwd5AX.s 			page 110


 3663      655F4973 
 3663      44657669 
 3663      63654164 
 3663      64726573 
 3664              	.LASF150:
 3665 1465 4359424C 		.ascii	"CYBLE_GAP_AUTH_FAILED_REASON_T\000"
 3665      455F4741 
 3665      505F4155 
 3665      54485F46 
 3665      41494C45 
 3666              	.LASF47:
 3667 1484 4359424C 		.ascii	"CYBLE_EVT_GATTS_WRITE_REQ\000"
 3667      455F4556 
 3667      545F4741 
 3667      5454535F 
 3667      57524954 
 3668              	.LASF25:
 3669 149e 4359424C 		.ascii	"CYBLE_EVT_GAP_PASSKEY_DISPLAY_REQUEST\000"
 3669      455F4556 
 3669      545F4741 
 3669      505F5041 
 3669      53534B45 
 3670              	.LASF98:
 3671 14c4 4359424C 		.ascii	"CYBLE_ERROR_IND_DISABLED\000"
 3671      455F4552 
 3671      524F525F 
 3671      494E445F 
 3671      44495341 
 3672              	.LASF97:
 3673 14dd 4359424C 		.ascii	"CYBLE_ERROR_NTF_DISABLED\000"
 3673      455F4552 
 3673      524F525F 
 3673      4E54465F 
 3673      44495341 
 3674              	.LASF174:
 3675 14f6 4359424C 		.ascii	"CYBLE_GATT_READ_MULTIPLE_REQ\000"
 3675      455F4741 
 3675      54545F52 
 3675      4541445F 
 3675      4D554C54 
 3676              	.LASF44:
 3677 1513 4359424C 		.ascii	"CYBLE_EVT_GATTC_READ_RSP\000"
 3677      455F4556 
 3677      545F4741 
 3677      5454435F 
 3677      52454144 
 3678              	.LASF197:
 3679 152c 4359424C 		.ascii	"CYBLE_GATT_ERR_INVALID_OFFSET\000"
 3679      455F4741 
 3679      54545F45 
 3679      52525F49 
 3679      4E56414C 
 3680              	.LASF168:
 3681 154a 4359424C 		.ascii	"CYBLE_GATT_READ_BY_TYPE_REQ\000"
 3681      455F4741 
 3681      54545F52 
 3681      4541445F 
ARM GAS  C:\Users\Petro\AppData\Local\Temp\cclwd5AX.s 			page 111


 3681      42595F54 
 3682              	.LASF63:
 3683 1566 4359424C 		.ascii	"CYBLE_EVT_L2CAP_CBFC_CONN_CNF\000"
 3683      455F4556 
 3683      545F4C32 
 3683      4341505F 
 3683      43424643 
 3684              	.LASF225:
 3685 1584 4359424C 		.ascii	"CYBLE_GATT_ERR_OUT_OF_RANGE\000"
 3685      455F4741 
 3685      54545F45 
 3685      52525F4F 
 3685      55545F4F 
 3686              	.LASF166:
 3687 15a0 4359424C 		.ascii	"CYBLE_GATT_FIND_BY_TYPE_VALUE_REQ\000"
 3687      455F4741 
 3687      54545F46 
 3687      494E445F 
 3687      42595F54 
 3688              	.LASF104:
 3689 15c2 4359424C 		.ascii	"CYBLE_LL_PWR_LVL_NEG_6_DBM\000"
 3689      455F4C4C 
 3689      5F505752 
 3689      5F4C564C 
 3689      5F4E4547 
 3690              	.LASF137:
 3691 15dd 4359424C 		.ascii	"CYBLE_GAP_AUTH_ERROR_NONE\000"
 3691      455F4741 
 3691      505F4155 
 3691      54485F45 
 3691      52524F52 
 3692              	.LASF31:
 3693 15f7 4359424C 		.ascii	"CYBLE_EVT_GAP_ENCRYPT_CHANGE\000"
 3693      455F4556 
 3693      545F4741 
 3693      505F454E 
 3693      43525950 
 3694              	.LASF38:
 3695 1614 4359424C 		.ascii	"CYBLE_EVT_GATTS_XCNHG_MTU_REQ\000"
 3695      455F4556 
 3695      545F4741 
 3695      5454535F 
 3695      58434E48 
 3696              	.LASF165:
 3697 1632 4359424C 		.ascii	"CYBLE_GATT_FIND_INFO_RSP\000"
 3697      455F4741 
 3697      54545F46 
 3697      494E445F 
 3697      494E464F 
 3698              	.LASF139:
 3699 164b 4359424C 		.ascii	"CYBLE_GAP_AUTH_ERROR_OOB_DATA_NOT_AVAILABLE\000"
 3699      455F4741 
 3699      505F4155 
 3699      54485F45 
 3699      52524F52 
 3700              	.LASF160:
 3701 1677 4359424C 		.ascii	"CYBLE_GAP_CONN_PARAM_UPDATED_IN_CONTROLLER_T\000"
ARM GAS  C:\Users\Petro\AppData\Local\Temp\cclwd5AX.s 			page 112


 3701      455F4741 
 3701      505F434F 
 3701      4E4E5F50 
 3701      4152414D 
 3702              	.LASF7:
 3703 16a4 6C6F6E67 		.ascii	"long long unsigned int\000"
 3703      206C6F6E 
 3703      6720756E 
 3703      7369676E 
 3703      65642069 
 3704              	.LASF191:
 3705 16bb 4359424C 		.ascii	"CYBLE_GATT_ERR_INVALID_HANDLE\000"
 3705      455F4741 
 3705      54545F45 
 3705      52525F49 
 3705      4E56414C 
 3706              	.LASF18:
 3707 16d9 4359424C 		.ascii	"CYBLE_EVT_TIMEOUT\000"
 3707      455F4556 
 3707      545F5449 
 3707      4D454F55 
 3707      5400
 3708              	.LASF256:
 3709 16eb 73666C61 		.ascii	"sflashAddressValid\000"
 3709      73684164 
 3709      64726573 
 3709      7356616C 
 3709      696400
 3710              	.LASF189:
 3711 16fe 4359424C 		.ascii	"CYBLE_GATT_UNKNOWN_PDU_IND\000"
 3711      455F4741 
 3711      54545F55 
 3711      4E4B4E4F 
 3711      574E5F50 
 3712              	.LASF100:
 3713 1719 4359424C 		.ascii	"CYBLE_ERROR_INVALID_STATE\000"
 3713      455F4552 
 3713      524F525F 
 3713      494E5641 
 3713      4C49445F 
 3714              	.LASF227:
 3715 1733 4359424C 		.ascii	"CYBLE_GATT_DB_ATTR_HANDLE_T\000"
 3715      455F4741 
 3715      54545F44 
 3715      425F4154 
 3715      54525F48 
 3716              	.LASF264:
 3717 174f 626C6553 		.ascii	"bleSsPowerLevel\000"
 3717      73506F77 
 3717      65724C65 
 3717      76656C00 
 3718              	.LASF66:
 3719 175f 4359424C 		.ascii	"CYBLE_EVT_L2CAP_CBFC_DATA_READ\000"
 3719      455F4556 
 3719      545F4C32 
 3719      4341505F 
 3719      43424643 
ARM GAS  C:\Users\Petro\AppData\Local\Temp\cclwd5AX.s 			page 113


 3720              	.LASF190:
 3721 177e 4359424C 		.ascii	"CYBLE_GATT_ERR_NONE\000"
 3721      455F4741 
 3721      54545F45 
 3721      52525F4E 
 3721      4F4E4500 
 3722              	.LASF233:
 3723 1792 76616C75 		.ascii	"value\000"
 3723      6500
 3724              	.LASF266:
 3725 1798 4379426C 		.ascii	"CyBle_ApplCallback\000"
 3725      655F4170 
 3725      706C4361 
 3725      6C6C6261 
 3725      636B00
 3726              	.LASF226:
 3727 17ab 4359424C 		.ascii	"CYBLE_GATT_ERR_CODE_T\000"
 3727      455F4741 
 3727      54545F45 
 3727      52525F43 
 3727      4F44455F 
 3728              	.LASF123:
 3729 17c1 4359424C 		.ascii	"CYBLE_GAP_SCAN_TO\000"
 3729      455F4741 
 3729      505F5343 
 3729      414E5F54 
 3729      4F00
 3730              	.LASF211:
 3731 17d3 4359424C 		.ascii	"CYBLE_GATT_ERR_HTS_OUT_OF_RANGE\000"
 3731      455F4741 
 3731      54545F45 
 3731      52525F48 
 3731      54535F4F 
 3732              	.LASF121:
 3733 17f3 4359424C 		.ascii	"CYBLE_GAP_BD_ADDR_T\000"
 3733      455F4741 
 3733      505F4244 
 3733      5F414444 
 3733      525F5400 
 3734              	.LASF172:
 3735 1807 4359424C 		.ascii	"CYBLE_GATT_READ_BLOB_REQ\000"
 3735      455F4741 
 3735      54545F52 
 3735      4541445F 
 3735      424C4F42 
 3736              	.LASF122:
 3737 1820 4359424C 		.ascii	"CYBLE_GAP_ADV_MODE_TO\000"
 3737      455F4741 
 3737      505F4144 
 3737      565F4D4F 
 3737      44455F54 
 3738              	.LASF241:
 3739 1836 68616E64 		.ascii	"handleValPair\000"
 3739      6C655661 
 3739      6C506169 
 3739      7200
 3740              	.LASF236:
ARM GAS  C:\Users\Petro\AppData\Local\Temp\cclwd5AX.s 			page 114


 3741 1844 636F6E6E 		.ascii	"connHandle\000"
 3741      48616E64 
 3741      6C6500
 3742              	.LASF142:
 3743 184f 4359424C 		.ascii	"CYBLE_GAP_AUTH_ERROR_PAIRING_NOT_SUPPORTED\000"
 3743      455F4741 
 3743      505F4155 
 3743      54485F45 
 3743      52524F52 
 3744              	.LASF125:
 3745 187a 4359424C 		.ascii	"CYBLE_GENERIC_TO\000"
 3745      455F4745 
 3745      4E455249 
 3745      435F544F 
 3745      00
 3746              	.LASF271:
 3747 188b 6379426C 		.ascii	"cyBle_pendingFlashWrite\000"
 3747      655F7065 
 3747      6E64696E 
 3747      67466C61 
 3747      73685772 
 3748              	.LASF42:
 3749 18a3 4359424C 		.ascii	"CYBLE_EVT_GATTC_FIND_INFO_RSP\000"
 3749      455F4556 
 3749      545F4741 
 3749      5454435F 
 3749      46494E44 
 3750              	.LASF41:
 3751 18c1 4359424C 		.ascii	"CYBLE_EVT_GATTC_READ_BY_TYPE_RSP\000"
 3751      455F4556 
 3751      545F4741 
 3751      5454435F 
 3751      52454144 
 3752              	.LASF216:
 3753 18e2 4359424C 		.ascii	"CYBLE_GATTS_ERR_OPERATION_FAILED\000"
 3753      455F4741 
 3753      5454535F 
 3753      4552525F 
 3753      4F504552 
 3754              	.LASF275:
 3755 1903 6379426C 		.ascii	"cyBle_state\000"
 3755      655F7374 
 3755      61746500 
 3756              	.LASF48:
 3757 190f 4359424C 		.ascii	"CYBLE_EVT_GATTC_WRITE_RSP\000"
 3757      455F4556 
 3757      545F4741 
 3757      5454435F 
 3757      57524954 
 3758              	.LASF254:
 3759 1929 4359424C 		.ascii	"CYBLE_STATE_DISCONNECTED\000"
 3759      455F5354 
 3759      4154455F 
 3759      44495343 
 3759      4F4E4E45 
 3760              	.LASF28:
 3761 1942 4359424C 		.ascii	"CYBLE_EVT_GAPP_ADVERTISEMENT_START_STOP\000"
ARM GAS  C:\Users\Petro\AppData\Local\Temp\cclwd5AX.s 			page 115


 3761      455F4556 
 3761      545F4741 
 3761      50505F41 
 3761      44564552 
 3762              	.LASF9:
 3763 196a 75696E74 		.ascii	"uint8\000"
 3763      3800
 3764              	.LASF270:
 3765 1970 6379426C 		.ascii	"cyBle_authInfo\000"
 3765      655F6175 
 3765      7468496E 
 3765      666F00
 3766              	.LASF151:
 3767 197f 73656375 		.ascii	"security\000"
 3767      72697479 
 3767      00
 3768              	.LASF178:
 3769 1988 4359424C 		.ascii	"CYBLE_GATT_WRITE_REQ\000"
 3769      455F4741 
 3769      54545F57 
 3769      52495445 
 3769      5F524551 
 3770              	.LASF2:
 3771 199d 73686F72 		.ascii	"short int\000"
 3771      7420696E 
 3771      7400
 3772              	.LASF154:
 3773 19a7 61757468 		.ascii	"authErr\000"
 3773      45727200 
 3774              	.LASF210:
 3775 19af 4359424C 		.ascii	"CYBLE_GATT_ERR_CPS_INAPPROPRIATE_CONNECTION_PARAMET"
 3775      455F4741 
 3775      54545F45 
 3775      52525F43 
 3775      50535F49 
 3776 19e2 45525300 		.ascii	"ERS\000"
 3777              	.LASF196:
 3778 19e6 4359424C 		.ascii	"CYBLE_GATT_ERR_REQUEST_NOT_SUPPORTED\000"
 3778      455F4741 
 3778      54545F45 
 3778      52525F52 
 3778      45515545 
 3779              	.LASF35:
 3780 1a0b 4359424C 		.ascii	"CYBLE_EVT_GATTC_ERROR_RSP\000"
 3780      455F4556 
 3780      545F4741 
 3780      5454435F 
 3780      4552524F 
 3781              	.LASF135:
 3782 1a25 4359424C 		.ascii	"CYBLE_GAP_IOCAP_KEYBOARD_DISPLAY\000"
 3782      455F4741 
 3782      505F494F 
 3782      4341505F 
 3782      4B455942 
 3783              	.LASF255:
 3784 1a46 4359424C 		.ascii	"CYBLE_STATE_T\000"
 3784      455F5354 
ARM GAS  C:\Users\Petro\AppData\Local\Temp\cclwd5AX.s 			page 116


 3784      4154455F 
 3784      5400
 3785              	.LASF62:
 3786 1a54 4359424C 		.ascii	"CYBLE_EVT_L2CAP_CBFC_CONN_IND\000"
 3786      455F4556 
 3786      545F4C32 
 3786      4341505F 
 3786      43424643 
 3787              	.LASF51:
 3788 1a72 4359424C 		.ascii	"CYBLE_EVT_GATTS_EXEC_WRITE_REQ\000"
 3788      455F4556 
 3788      545F4741 
 3788      5454535F 
 3788      45584543 
 3789              	.LASF22:
 3790 1a91 4359424C 		.ascii	"CYBLE_EVT_GAPC_SCAN_PROGRESS_RESULT\000"
 3790      455F4556 
 3790      545F4741 
 3790      50435F53 
 3790      43414E5F 
 3791              	.LASF247:
 3792 1ab5 63636364 		.ascii	"cccdCount\000"
 3792      436F756E 
 3792      7400
 3793              	.LASF221:
 3794 1abf 4359424C 		.ascii	"CYBLE_GATT_ERR_ANCS_INVALID_PARAMETER\000"
 3794      455F4741 
 3794      54545F45 
 3794      52525F41 
 3794      4E43535F 
 3795              	.LASF82:
 3796 1ae5 4359424C 		.ascii	"CYBLE_ERROR_GAP_ROLE\000"
 3796      455F4552 
 3796      524F525F 
 3796      4741505F 
 3796      524F4C45 
 3797              	.LASF278:
 3798 1afa 6379426C 		.ascii	"cyBle_advertisingIntervalType\000"
 3798      655F6164 
 3798      76657274 
 3798      6973696E 
 3798      67496E74 
 3799              	.LASF119:
 3800 1b18 62644164 		.ascii	"bdAddr\000"
 3800      647200
 3801              	.LASF218:
 3802 1b1f 4359424C 		.ascii	"CYBLE_GATT_ERR_ANS_COMMAND_NOT_SUPPORTED\000"
 3802      455F4741 
 3802      54545F45 
 3802      52525F41 
 3802      4E535F43 
 3803              	.LASF279:
 3804 1b48 4379426C 		.ascii	"CyBle_GattsErrorRsp\000"
 3804      655F4761 
 3804      74747345 
 3804      72726F72 
 3804      52737000 
ARM GAS  C:\Users\Petro\AppData\Local\Temp\cclwd5AX.s 			page 117


 3805              	.LASF171:
 3806 1b5c 4359424C 		.ascii	"CYBLE_GATT_READ_RSP\000"
 3806      455F4741 
 3806      54545F52 
 3806      4541445F 
 3806      52535000 
 3807              	.LASF79:
 3808 1b70 4359424C 		.ascii	"CYBLE_ERROR_NO_CONNECTION\000"
 3808      455F4552 
 3808      524F525F 
 3808      4E4F5F43 
 3808      4F4E4E45 
 3809              	.LASF108:
 3810 1b8a 4359424C 		.ascii	"CYBLE_LL_PWR_LVL_0_DBM\000"
 3810      455F4C4C 
 3810      5F505752 
 3810      5F4C564C 
 3810      5F305F44 
 3811              	.LASF289:
 3812 1ba1 6D656D63 		.ascii	"memcpy\000"
 3812      707900
 3813              	.LASF112:
 3814 1ba8 4359424C 		.ascii	"CYBLE_LL_ADV_CH_TYPE\000"
 3814      455F4C4C 
 3814      5F414456 
 3814      5F43485F 
 3814      54595045 
 3815              	.LASF71:
 3816 1bbd 4359424C 		.ascii	"CYBLE_EVT_LE_PING_AUTH_TIMEOUT\000"
 3816      455F4556 
 3816      545F4C45 
 3816      5F50494E 
 3816      475F4155 
 3817              	.LASF101:
 3818 1bdc 4359424C 		.ascii	"CYBLE_API_RESULT_T\000"
 3818      455F4150 
 3818      495F5245 
 3818      53554C54 
 3818      5F5400
 3819              	.LASF273:
 3820 1bef 6379426C 		.ascii	"cyBle_attValuesCCCD\000"
 3820      655F6174 
 3820      7456616C 
 3820      75657343 
 3820      43434400 
 3821              	.LASF54:
 3822 1c03 4359424C 		.ascii	"CYBLE_EVT_GATTC_HANDLE_VALUE_IND\000"
 3822      455F4556 
 3822      545F4741 
 3822      5454435F 
 3822      48414E44 
 3823              	.LASF263:
 3824 1c24 6576656E 		.ascii	"eventCode\000"
 3824      74436F64 
 3824      6500
 3825              	.LASF85:
 3826 1c2e 4359424C 		.ascii	"CYBLE_ERROR_SEC_FAILED\000"
ARM GAS  C:\Users\Petro\AppData\Local\Temp\cclwd5AX.s 			page 118


 3826      455F4552 
 3826      524F525F 
 3826      5345435F 
 3826      4641494C 
 3827              	.LASF21:
 3828 1c45 4359424C 		.ascii	"CYBLE_EVT_STACK_BUSY_STATUS\000"
 3828      455F4556 
 3828      545F5354 
 3828      41434B5F 
 3828      42555359 
 3829              	.LASF158:
 3830 1c61 636F6E6E 		.ascii	"connLatency\000"
 3830      4C617465 
 3830      6E637900 
 3831              	.LASF243:
 3832 1c6d 4359424C 		.ascii	"CYBLE_GATTS_WRITE_CMD_REQ_PARAM_T\000"
 3832      455F4741 
 3832      5454535F 
 3832      57524954 
 3832      455F434D 
 3833              	.LASF132:
 3834 1c8f 4359424C 		.ascii	"CYBLE_GAP_IOCAP_DISPLAY_YESNO\000"
 3834      455F4741 
 3834      505F494F 
 3834      4341505F 
 3834      44495350 
 3835              	.LASF34:
 3836 1cad 4359424C 		.ascii	"CYBLE_EVT_GAP_KEYINFO_EXCHNGE_CMPLT\000"
 3836      455F4556 
 3836      545F4741 
 3836      505F4B45 
 3836      59494E46 
 3837              	.LASF183:
 3838 1cd1 4359424C 		.ascii	"CYBLE_GATT_EXECUTE_WRITE_REQ\000"
 3838      455F4741 
 3838      54545F45 
 3838      58454355 
 3838      54455F57 
 3839              	.LASF118:
 3840 1cee 4359424C 		.ascii	"CYBLE_BLESS_PWR_IN_DB_T\000"
 3840      455F424C 
 3840      4553535F 
 3840      5057525F 
 3840      494E5F44 
 3841              	.LASF114:
 3842 1d06 4359424C 		.ascii	"CYBLE_LL_MAX_CH_TYPE\000"
 3842      455F4C4C 
 3842      5F4D4158 
 3842      5F43485F 
 3842      54595045 
 3843              	.LASF59:
 3844 1d1b 4359424C 		.ascii	"CYBLE_EVT_L2CAP_CONN_PARAM_UPDATE_REQ\000"
 3844      455F4556 
 3844      545F4C32 
 3844      4341505F 
 3844      434F4E4E 
 3845              	.LASF261:
ARM GAS  C:\Users\Petro\AppData\Local\Temp\cclwd5AX.s 			page 119


 3846 1d41 67617474 		.ascii	"gattErr\000"
 3846      45727200 
 3847              	.LASF193:
 3848 1d49 4359424C 		.ascii	"CYBLE_GATT_ERR_WRITE_NOT_PERMITTED\000"
 3848      455F4741 
 3848      54545F45 
 3848      52525F57 
 3848      52495445 
 3849              	.LASF157:
 3850 1d6c 636F6E6E 		.ascii	"connIntv\000"
 3850      496E7476 
 3850      00
 3851              	.LASF3:
 3852 1d75 73686F72 		.ascii	"short unsigned int\000"
 3852      7420756E 
 3852      7369676E 
 3852      65642069 
 3852      6E7400
 3853              	.LASF205:
 3854 1d88 4359424C 		.ascii	"CYBLE_GATT_ERR_INSUFFICIENT_ENCRYPTION\000"
 3854      455F4741 
 3854      54545F45 
 3854      52525F49 
 3854      4E535546 
 3855              	.LASF252:
 3856 1daf 4359424C 		.ascii	"CYBLE_STATE_CONNECTED\000"
 3856      455F5354 
 3856      4154455F 
 3856      434F4E4E 
 3856      45435445 
 3857              	.LASF231:
 3858 1dc5 61637475 		.ascii	"actualLen\000"
 3858      616C4C65 
 3858      6E00
 3859              	.LASF176:
 3860 1dcf 4359424C 		.ascii	"CYBLE_GATT_READ_BY_GROUP_REQ\000"
 3860      455F4741 
 3860      54545F52 
 3860      4541445F 
 3860      42595F47 
 3861              	.LASF141:
 3862 1dec 4359424C 		.ascii	"CYBLE_GAP_AUTH_ERROR_CONFIRM_VALUE_NOT_MATCH\000"
 3862      455F4741 
 3862      505F4155 
 3862      54485F45 
 3862      52524F52 
 3863              	.LASF229:
 3864 1e19 61747449 		.ascii	"attId\000"
 3864      6400
 3865              	.LASF75:
 3866 1e1f 4359424C 		.ascii	"CYBLE_ERROR_INVALID_OPERATION\000"
 3866      455F4552 
 3866      524F525F 
 3866      494E5641 
 3866      4C49445F 
 3867              	.LASF20:
 3868 1e3d 4359424C 		.ascii	"CYBLE_EVT_HCI_STATUS\000"
ARM GAS  C:\Users\Petro\AppData\Local\Temp\cclwd5AX.s 			page 120


 3868      455F4556 
 3868      545F4843 
 3868      495F5354 
 3868      41545553 
 3869              	.LASF37:
 3870 1e52 4359424C 		.ascii	"CYBLE_EVT_GATT_DISCONNECT_IND\000"
 3870      455F4556 
 3870      545F4741 
 3870      54545F44 
 3870      4953434F 
 3871              	.LASF293:
 3872 1e70 443A5C43 		.ascii	"D:\\Cypress(2)\\system-start-finish\\fw\\finish\\sa"
 3872      79707265 
 3872      73732832 
 3872      295C7379 
 3872      7374656D 
 3873 1e9e 6E64626F 		.ascii	"ndbox\\Workspace01_ble\\Design01.cydsn\000"
 3873      785C576F 
 3873      726B7370 
 3873      61636530 
 3873      315F626C 
 3874              	.LASF124:
 3875 1ec3 4359424C 		.ascii	"CYBLE_GATT_RSP_TO\000"
 3875      455F4741 
 3875      54545F52 
 3875      53505F54 
 3875      4F00
 3876              	.LASF69:
 3877 1ed5 4359424C 		.ascii	"CYBLE_EVT_L2CAP_CBFC_DATA_WRITE_IND\000"
 3877      455F4556 
 3877      545F4C32 
 3877      4341505F 
 3877      43424643 
 3878              	.LASF30:
 3879 1ef9 4359424C 		.ascii	"CYBLE_EVT_GAP_DEVICE_DISCONNECTED\000"
 3879      455F4556 
 3879      545F4741 
 3879      505F4445 
 3879      56494345 
 3880              	.LASF55:
 3881 1f1b 4359424C 		.ascii	"CYBLE_EVT_GATTS_HANDLE_VALUE_CNF\000"
 3881      455F4556 
 3881      545F4741 
 3881      5454535F 
 3881      48414E44 
 3882              	.LASF10:
 3883 1f3c 75696E74 		.ascii	"uint16\000"
 3883      313600
 3884              	.LASF83:
 3885 1f43 4359424C 		.ascii	"CYBLE_ERROR_TX_POWER_READ\000"
 3885      455F4552 
 3885      524F525F 
 3885      54585F50 
 3885      4F574552 
 3886              		.ident	"GCC: (GNU Tools for ARM Embedded Processors) 4.9.3 20150303 (release) [ARM/embedded-4_9-br
