ARM GAS  C:\Users\Petro\AppData\Local\Temp\cczfLymr.s 			page 1


   1              		.cpu cortex-m0
   2              		.fpu softvfp
   3              		.eabi_attribute 20, 1
   4              		.eabi_attribute 21, 1
   5              		.eabi_attribute 23, 3
   6              		.eabi_attribute 24, 1
   7              		.eabi_attribute 25, 1
   8              		.eabi_attribute 26, 1
   9              		.eabi_attribute 30, 1
  10              		.eabi_attribute 34, 0
  11              		.eabi_attribute 18, 4
  12              		.code	16
  13              		.file	"main.c"
  14              		.text
  15              	.Ltext0:
  16              		.cfi_sections	.debug_frame
  17              		.section	.text.stakHandler,"ax",%progbits
  18              		.align	2
  19              		.global	stakHandler
  20              		.code	16
  21              		.thumb_func
  22              		.type	stakHandler, %function
  23              	stakHandler:
  24              	.LFB37:
  25              		.file 1 ".\\main.c"
   1:.\main.c      **** /* ========================================
   2:.\main.c      ****  *
   3:.\main.c      ****  * Copyright YOUR COMPANY, THE YEAR
   4:.\main.c      ****  * All Rights Reserved
   5:.\main.c      ****  * UNPUBLISHED, LICENSED SOFTWARE.
   6:.\main.c      ****  *
   7:.\main.c      ****  * CONFIDENTIAL AND PROPRIETARY INFORMATION
   8:.\main.c      ****  * WHICH IS THE PROPERTY OF your company.
   9:.\main.c      ****  *
  10:.\main.c      ****  * ========================================
  11:.\main.c      **** */
  12:.\main.c      **** #include <project.h>
  13:.\main.c      **** 
  14:.\main.c      **** int capsenseNitifity;
  15:.\main.c      **** int bleConected = 0;
  16:.\main.c      **** CYBLE_CONN_HANDLE_T connectionHandler;
  17:.\main.c      **** 
  18:.\main.c      **** void stakHandler(uint32 eventCode, void *eventParam)
  19:.\main.c      **** {
  26              		.loc 1 19 0
  27              		.cfi_startproc
  28              	.LVL0:
  29 0000 10B5     		push	{r4, lr}
  30              		.cfi_def_cfa_offset 8
  31              		.cfi_offset 4, -8
  32              		.cfi_offset 14, -4
  33 0002 0C1C     		mov	r4, r1
  20:.\main.c      ****     CYBLE_GATTS_WRITE_REQ_PARAM_T *wrReg;
  21:.\main.c      ****     switch (eventCode)
  34              		.loc 1 21 0
  35 0004 2828     		cmp	r0, #40
  36 0006 08D0     		beq	.L3
ARM GAS  C:\Users\Petro\AppData\Local\Temp\cczfLymr.s 			page 2


  37 0008 02D8     		bhi	.L4
  38 000a 0128     		cmp	r0, #1
  39 000c 05D0     		beq	.L3
  40 000e 24E0     		b	.L1
  41              	.L4:
  42 0010 4128     		cmp	r0, #65
  43 0012 09D0     		beq	.L5
  44 0014 4C28     		cmp	r0, #76
  45 0016 0CD0     		beq	.L6
  46 0018 1FE0     		b	.L1
  47              	.L3:
  22:.\main.c      ****     {
  23:.\main.c      ****         case CYBLE_EVT_STACK_ON:
  24:.\main.c      ****         case CYBLE_EVT_GAP_DEVICE_DISCONNECTED :
  25:.\main.c      ****             CyBle_GappStartAdvertisement(CYBLE_ADVERTISING_FAST);
  48              		.loc 1 25 0
  49 001a 0020     		mov	r0, #0
  50              	.LVL1:
  51 001c FFF7FEFF 		bl	CyBle_GappStartAdvertisement
  52              	.LVL2:
  26:.\main.c      ****             bleConected = 0;
  53              		.loc 1 26 0
  54 0020 0022     		mov	r2, #0
  55 0022 0E4B     		ldr	r3, .L8
  56 0024 1A60     		str	r2, [r3]
  27:.\main.c      ****             break;
  57              		.loc 1 27 0
  58 0026 18E0     		b	.L1
  59              	.LVL3:
  60              	.L5:
  28:.\main.c      ****         case CYBLE_EVT_GATT_CONNECT_IND:
  29:.\main.c      ****             connectionHandler = *(CYBLE_CONN_HANDLE_T *)eventParam;
  61              		.loc 1 29 0
  62 0028 0D48     		ldr	r0, .L8+4
  63              	.LVL4:
  64 002a 0222     		mov	r2, #2
  65 002c FFF7FEFF 		bl	memcpy
  66              	.LVL5:
  30:.\main.c      ****             break;
  67              		.loc 1 30 0
  68 0030 13E0     		b	.L1
  69              	.LVL6:
  70              	.L6:
  31:.\main.c      ****         case CYBLE_EVT_GATTS_WRITE_REQ:
  32:.\main.c      ****             wrReg = (CYBLE_CONN_HANDLE_T *)eventParam;
  33:.\main.c      ****             if(wrReg->handleValPair.attrHandle == CYBLE_CAPSENSE_SLIDER_SLIDERCCCD_DESC_HANDLE)
  71              		.loc 1 33 0
  72 0032 8B89     		ldrh	r3, [r1, #12]
  73 0034 0F2B     		cmp	r3, #15
  74 0036 09D1     		bne	.L7
  34:.\main.c      ****             {
  35:.\main.c      ****                 CyBle_GattsWriteAttributeValue(&wrReg->handleValPair,0,&connectionHandler,CYBLE_GAT
  75              		.loc 1 35 0
  76 0038 081D     		add	r0, r1, #4
  77              	.LVL7:
  78 003a 0021     		mov	r1, #0
  79              	.LVL8:
ARM GAS  C:\Users\Petro\AppData\Local\Temp\cczfLymr.s 			page 3


  80 003c 084A     		ldr	r2, .L8+4
  81 003e 0023     		mov	r3, #0
  82 0040 FFF7FEFF 		bl	CyBle_GattsWriteAttributeValue
  83              	.LVL9:
  36:.\main.c      ****                 capsenseNitifity = wrReg->handleValPair.value.val[0];
  84              		.loc 1 36 0
  85 0044 6368     		ldr	r3, [r4, #4]
  86 0046 1A78     		ldrb	r2, [r3]
  87 0048 064B     		ldr	r3, .L8+8
  88 004a 1A60     		str	r2, [r3]
  89              	.L7:
  37:.\main.c      ****             }
  38:.\main.c      ****             CyBle_GattsWriteRsp(connectionHandler);
  90              		.loc 1 38 0
  91 004c 044A     		ldr	r2, .L8+4
  92 004e 1378     		ldrb	r3, [r2]
  93 0050 5078     		ldrb	r0, [r2, #1]
  94 0052 0002     		lsl	r0, r0, #8
  95 0054 1843     		orr	r0, r3
  96 0056 FFF7FEFF 		bl	CyBle_GattsWriteRsp
  97              	.LVL10:
  98              	.L1:
  39:.\main.c      ****             break;
  40:.\main.c      ****             default:
  41:.\main.c      ****             break;
  42:.\main.c      ****     }
  43:.\main.c      **** }
  99              		.loc 1 43 0
 100              		@ sp needed
 101              	.LVL11:
 102 005a 10BD     		pop	{r4, pc}
 103              	.L9:
 104              		.align	2
 105              	.L8:
 106 005c 00000000 		.word	.LANCHOR0
 107 0060 00000000 		.word	connectionHandler
 108 0064 00000000 		.word	capsenseNitifity
 109              		.cfi_endproc
 110              	.LFE37:
 111              		.size	stakHandler, .-stakHandler
 112              		.section	.text.main,"ax",%progbits
 113              		.align	2
 114              		.global	main
 115              		.code	16
 116              		.thumb_func
 117              		.type	main, %function
 118              	main:
 119              	.LFB38:
  44:.\main.c      **** int main()
  45:.\main.c      **** {
 120              		.loc 1 45 0
 121              		.cfi_startproc
 122 0000 10B5     		push	{r4, lr}
 123              		.cfi_def_cfa_offset 8
 124              		.cfi_offset 4, -8
 125              		.cfi_offset 14, -4
 126 0002 84B0     		sub	sp, sp, #16
ARM GAS  C:\Users\Petro\AppData\Local\Temp\cczfLymr.s 			page 4


 127              		.cfi_def_cfa_offset 24
  46:.\main.c      ****     CyGlobalIntEnable; /* Enable global interrupts. */
 128              		.loc 1 46 0
 129              	@ 46 ".\main.c" 1
 130 0004 62B6     		CPSIE   i
 131              	@ 0 "" 2
  47:.\main.c      ****     CapSense_Start();
 132              		.loc 1 47 0
 133              		.code	16
 134 0006 FFF7FEFF 		bl	CapSense_Start
 135              	.LVL12:
  48:.\main.c      ****     CapSense_InitializeAllBaselines();
 136              		.loc 1 48 0
 137 000a FFF7FEFF 		bl	CapSense_InitializeAllBaselines
 138              	.LVL13:
  49:.\main.c      ****     CapSense_ScanEnabledWidgets();
 139              		.loc 1 49 0
 140 000e FFF7FEFF 		bl	CapSense_ScanEnabledWidgets
 141              	.LVL14:
  50:.\main.c      ****     
  51:.\main.c      ****     CyBle_Start(stakHandler);
 142              		.loc 1 51 0
 143 0012 1A48     		ldr	r0, .L15
 144 0014 FFF7FEFF 		bl	CyBle_Start
 145              	.LVL15:
 146              	.L11:
  52:.\main.c      **** 
  53:.\main.c      ****     for(;;)
  54:.\main.c      ****     {
  55:.\main.c      ****         CyBle_ProcessEvents();
 147              		.loc 1 55 0
 148 0018 FFF7FEFF 		bl	CyBle_ProcessEvents
 149              	.LVL16:
  56:.\main.c      ****         if(!CapSense_IsBusy() && bleConected)
 150              		.loc 1 56 0
 151 001c FFF7FEFF 		bl	CapSense_IsBusy
 152              	.LVL17:
 153 0020 0028     		cmp	r0, #0
 154 0022 F9D1     		bne	.L11
 155              		.loc 1 56 0 is_stmt 0 discriminator 1
 156 0024 164B     		ldr	r3, .L15+4
 157 0026 1B68     		ldr	r3, [r3]
 158 0028 002B     		cmp	r3, #0
 159 002a F5D0     		beq	.L11
 160              	.LBB2:
  57:.\main.c      ****         {
  58:.\main.c      ****             uint8 pos = (uint8)CapSense_GetCentroidPos(CapSense_LINEAR_SLIDERS_POS_FILTERS_MASK);
 161              		.loc 1 58 0 is_stmt 1
 162 002c 0830     		add	r0, r0, #8
 163 002e FFF7FEFF 		bl	CapSense_GetCentroidPos
 164              	.LVL18:
 165 0032 6B46     		mov	r3, sp
 166 0034 DC1C     		add	r4, r3, #3
 167 0036 D870     		strb	r0, [r3, #3]
  59:.\main.c      ****             CapSense_UpdateEnabledBaselines();
 168              		.loc 1 59 0
 169 0038 FFF7FEFF 		bl	CapSense_UpdateEnabledBaselines
ARM GAS  C:\Users\Petro\AppData\Local\Temp\cczfLymr.s 			page 5


 170              	.LVL19:
  60:.\main.c      ****             CapSense_ScanEnabledWidgets();
 171              		.loc 1 60 0
 172 003c FFF7FEFF 		bl	CapSense_ScanEnabledWidgets
 173              	.LVL20:
  61:.\main.c      ****             if(pos!=0xFF)
 174              		.loc 1 61 0
 175 0040 2378     		ldrb	r3, [r4]
 176 0042 FF2B     		cmp	r3, #255
 177 0044 E8D0     		beq	.L11
 178              	.LBB3:
  62:.\main.c      ****             {  
  63:.\main.c      ****                 CYBLE_GATTS_HANDLE_VALUE_NTF_T capsenseHandler;
  64:.\main.c      ****                 capsenseHandler.attrHandle = CYBLE_CAPSENSE_SLIDER_CHAR_HANDLE;
 179              		.loc 1 64 0
 180 0046 01A8     		add	r0, sp, #4
 181 0048 0E23     		mov	r3, #14
 182 004a 0381     		strh	r3, [r0, #8]
  65:.\main.c      ****                 capsenseHandler.value.val = &pos;
 183              		.loc 1 65 0
 184 004c 6B46     		mov	r3, sp
 185 004e 0333     		add	r3, r3, #3
 186 0050 0193     		str	r3, [sp, #4]
  66:.\main.c      ****                 capsenseHandler.value.len = 1;
 187              		.loc 1 66 0
 188 0052 0123     		mov	r3, #1
 189 0054 8380     		strh	r3, [r0, #4]
  67:.\main.c      ****                 CyBle_GattsWriteAttributeValue(&capsenseHandler,0,&connectionHandler,0);
 190              		.loc 1 67 0
 191 0056 0021     		mov	r1, #0
 192 0058 0A4A     		ldr	r2, .L15+8
 193 005a 0023     		mov	r3, #0
 194 005c FFF7FEFF 		bl	CyBle_GattsWriteAttributeValue
 195              	.LVL21:
  68:.\main.c      ****                 if(capsenseNitifity)
 196              		.loc 1 68 0
 197 0060 094B     		ldr	r3, .L15+12
 198 0062 1B68     		ldr	r3, [r3]
 199 0064 002B     		cmp	r3, #0
 200 0066 D7D0     		beq	.L11
  69:.\main.c      ****                 {
  70:.\main.c      ****                     CyBle_GattsNotification(connectionHandler,&capsenseHandler);
 201              		.loc 1 70 0
 202 0068 064A     		ldr	r2, .L15+8
 203 006a 1378     		ldrb	r3, [r2]
 204 006c 5078     		ldrb	r0, [r2, #1]
 205 006e 0002     		lsl	r0, r0, #8
 206 0070 1843     		orr	r0, r3
 207 0072 01A9     		add	r1, sp, #4
 208 0074 FFF7FEFF 		bl	CyBle_GattsNotification
 209              	.LVL22:
 210 0078 CEE7     		b	.L11
 211              	.L16:
 212 007a C046     		.align	2
 213              	.L15:
 214 007c 00000000 		.word	stakHandler
 215 0080 00000000 		.word	.LANCHOR0
ARM GAS  C:\Users\Petro\AppData\Local\Temp\cczfLymr.s 			page 6


 216 0084 00000000 		.word	connectionHandler
 217 0088 00000000 		.word	capsenseNitifity
 218              	.LBE3:
 219              	.LBE2:
 220              		.cfi_endproc
 221              	.LFE38:
 222              		.size	main, .-main
 223              		.comm	connectionHandler,2,4
 224              		.global	bleConected
 225              		.comm	capsenseNitifity,4,4
 226              		.bss
 227              		.align	2
 228              		.set	.LANCHOR0,. + 0
 229              		.type	bleConected, %object
 230              		.size	bleConected, 4
 231              	bleConected:
 232 0000 00000000 		.space	4
 233              		.text
 234              	.Letext0:
 235              		.file 2 "Generated_Source\\PSoC4/cytypes.h"
 236              		.file 3 "Generated_Source\\PSoC4/BLE_Stack.h"
 237              		.file 4 "Generated_Source\\PSoC4/BLE_StackGatt.h"
 238              		.file 5 "Generated_Source\\PSoC4/BLE_StackGattServer.h"
 239              		.file 6 "Generated_Source\\PSoC4/BLE.h"
 240              		.file 7 "Generated_Source\\PSoC4/BLE_StackGattDb.h"
 241              		.file 8 "Generated_Source\\PSoC4/CapSense_CSHL.h"
 242              		.file 9 "Generated_Source\\PSoC4/CapSense.h"