Archive member included because of file (symbol)

.\CortexM0\ARM_GCC_493\Debug\start_v11.a(cyfitter_cfg.o)
                              .\CortexM0\ARM_GCC_493\Debug\Cm0Start.o (cyfitter_cfg)
.\CortexM0\ARM_GCC_493\Debug\start_v11.a(CyLib.o)
                              .\CortexM0\ARM_GCC_493\Debug\start_v11.a(cyfitter_cfg.o) (CySysClkWriteImoFreq)
.\CortexM0\ARM_GCC_493\Debug\start_v11.a(CyLFClk.o)
                              .\CortexM0\ARM_GCC_493\Debug\start_v11.a(cyfitter_cfg.o) (CySysClkWcoStart)
.\CortexM0\ARM_GCC_493\Debug\start_v11.a(RTC.o)
                              .\CortexM0\ARM_GCC_493\Debug\RTC_WDT.o (RTC_Start)
.\CortexM0\ARM_GCC_493\Debug\start_v11.a(GatePin.o)
                              .\CortexM0\ARM_GCC_493\Debug\gate.o (GatePin_ClearInterrupt)
.\CortexM0\ARM_GCC_493\Debug\start_v11.a(Timer_LED.o)
                              .\CortexM0\ARM_GCC_493\Debug\LED.o (Timer_LED_Init)
.\CortexM0\ARM_GCC_493\Debug\start_v11.a(Int_Timer_Led.o)
                              .\CortexM0\ARM_GCC_493\Debug\LED.o (Int_Timer_Led_StartEx)
.\CortexM0\ARM_GCC_493\Debug\start_v11.a(UART_XB.o)
                              .\CortexM0\ARM_GCC_493\Debug\network.o (UART_XB_Start)
.\CortexM0\ARM_GCC_493\Debug\start_v11.a(UART_XB_SPI_UART.o)
                              .\CortexM0\ARM_GCC_493\Debug\network.o (UART_XB_SpiUartGetRxBufferSize)
.\CortexM0\ARM_GCC_493\Debug\start_v11.a(UART_XB_UART.o)
                              .\CortexM0\ARM_GCC_493\Debug\start_v11.a(UART_XB.o) (UART_XB_UartInit)
.\CortexM0\ARM_GCC_493\Debug\start_v11.a(SwSPI_Master.o)
                              .\CortexM0\ARM_GCC_493\Debug\LCD5110_Graph.o (SwSPI_Master_SendByte)
.\CortexM0\ARM_GCC_493\Debug\start_v11.a(GATE_INT.o)
                              .\CortexM0\ARM_GCC_493\Debug\gate.o (GATE_INT_Disable)
.\CortexM0\ARM_GCC_493\Debug\start_v11.a(debug.o)
                              .\CortexM0\ARM_GCC_493\Debug\RTC_WDT.o (debug_Write)
.\CortexM0\ARM_GCC_493\Debug\start_v11.a(ADC.o)
                              .\CortexM0\ARM_GCC_493\Debug\batt.o (ADC_Start)
.\CortexM0\ARM_GCC_493\Debug\start_v11.a(ADC_INT.o)
                              .\CortexM0\ARM_GCC_493\Debug\start_v11.a(ADC.o) (ADC_ISR)
.\CortexM0\ARM_GCC_493\Debug\start_v11.a(CE.o)
                              .\CortexM0\ARM_GCC_493\Debug\LCD5110_Graph.o (CE_Write)
.\CortexM0\ARM_GCC_493\Debug\start_v11.a(RST.o)
                              .\CortexM0\ARM_GCC_493\Debug\LCD5110_Graph.o (RST_Write)
.\CortexM0\ARM_GCC_493\Debug\start_v11.a(DC.o)
                              .\CortexM0\ARM_GCC_493\Debug\LCD5110_Graph.o (DC_Write)
.\CortexM0\ARM_GCC_493\Debug\start_v11.a(LCD_BL.o)
                              .\CortexM0\ARM_GCC_493\Debug\display.o (LCD_BL_Write)
.\CortexM0\ARM_GCC_493\Debug\start_v11.a(TimerTestMode.o)
                              .\CortexM0\ARM_GCC_493\Debug\testMode.o (TimerTestMode_WriteCompare)
.\CortexM0\ARM_GCC_493\Debug\start_v11.a(Int_timerTestMode.o)
                              .\CortexM0\ARM_GCC_493\Debug\testMode.o (Int_timerTestMode_StartEx)
.\CortexM0\ARM_GCC_493\Debug\start_v11.a(Pin_testMode.o)
                              .\CortexM0\ARM_GCC_493\Debug\testMode.o (Pin_testMode_Write)
.\CortexM0\ARM_GCC_493\Debug\start_v11.a(SW_RunTestMode.o)
                              .\CortexM0\ARM_GCC_493\Debug\testMode.o (SW_RunTestMode_Read)
.\CortexM0\ARM_GCC_493\Debug\start_v11.a(LED_RED_PIN.o)
                              .\CortexM0\ARM_GCC_493\Debug\LED.o (LED_RED_PIN_Write)
.\CortexM0\ARM_GCC_493\Debug\start_v11.a(LED_GREEN_PIN.o)
                              .\CortexM0\ARM_GCC_493\Debug\LED.o (LED_GREEN_PIN_Write)
.\CortexM0\ARM_GCC_493\Debug\start_v11.a(Timer.o)
                              .\CortexM0\ARM_GCC_493\Debug\taskAutomat.o (Timer_Start)
.\CortexM0\ARM_GCC_493\Debug\start_v11.a(isr_timer.o)
                              .\CortexM0\ARM_GCC_493\Debug\taskAutomat.o (isr_timer_StartEx)
.\CortexM0\ARM_GCC_493\Debug\start_v11.a(BtnUp.o)
                              .\CortexM0\ARM_GCC_493\Debug\Buttons.o (BtnUp_Read)
.\CortexM0\ARM_GCC_493\Debug\start_v11.a(BtnDown.o)
                              .\CortexM0\ARM_GCC_493\Debug\Buttons.o (BtnDown_Read)
.\CortexM0\ARM_GCC_493\Debug\start_v11.a(BUTT_DOWN_INT.o)
                              .\CortexM0\ARM_GCC_493\Debug\Buttons.o (BUTT_DOWN_INT_Disable)
.\CortexM0\ARM_GCC_493\Debug\start_v11.a(BUTT_UP_INT.o)
                              .\CortexM0\ARM_GCC_493\Debug\Buttons.o (BUTT_UP_INT_Disable)
.\CortexM0\ARM_GCC_493\Debug\start_v11.a(CyBootAsmGnu.o)
                              .\CortexM0\ARM_GCC_493\Debug\start_v11.a(cyfitter_cfg.o) (CyDelayCycles)
.\CortexM0\ARM_GCC_493\Debug\start_v11.a(UART_XB_SPI_UART_INT.o)
                              .\CortexM0\ARM_GCC_493\Debug\start_v11.a(UART_XB_UART.o) (UART_XB_SPI_UART_ISR)
c:/program files (x86)/cypress/psoc creator/4.0/psoc creator/import/gnu/arm/4.9.3/bin/../lib/gcc/arm-none-eabi/4.9.3/armv6-m\libgcc.a(_udivsi3.o)
                              .\CortexM0\ARM_GCC_493\Debug\display.o (__aeabi_uidiv)
c:/program files (x86)/cypress/psoc creator/4.0/psoc creator/import/gnu/arm/4.9.3/bin/../lib/gcc/arm-none-eabi/4.9.3/armv6-m\libgcc.a(_divsi3.o)
                              .\CortexM0\ARM_GCC_493\Debug\LCD5110_Graph.o (__aeabi_idiv)
c:/program files (x86)/cypress/psoc creator/4.0/psoc creator/import/gnu/arm/4.9.3/bin/../lib/gcc/arm-none-eabi/4.9.3/armv6-m\libgcc.a(_dvmd_tls.o)
                              c:/program files (x86)/cypress/psoc creator/4.0/psoc creator/import/gnu/arm/4.9.3/bin/../lib/gcc/arm-none-eabi/4.9.3/armv6-m\libgcc.a(_udivsi3.o) (__aeabi_idiv0)
c:/program files (x86)/cypress/psoc creator/4.0/psoc creator/import/gnu/arm/4.9.3/bin/../lib/gcc/arm-none-eabi/4.9.3/armv6-m\libgcc.a(_arm_cmpdf2.o)
                              .\CortexM0\ARM_GCC_493\Debug\LCD5110_Graph.o (__aeabi_dcmplt)
c:/program files (x86)/cypress/psoc creator/4.0/psoc creator/import/gnu/arm/4.9.3/bin/../lib/gcc/arm-none-eabi/4.9.3/armv6-m\libgcc.a(_arm_cmpsf2.o)
                              .\CortexM0\ARM_GCC_493\Debug\display.o (__aeabi_fcmplt)
c:/program files (x86)/cypress/psoc creator/4.0/psoc creator/import/gnu/arm/4.9.3/bin/../lib/gcc/arm-none-eabi/4.9.3/armv6-m\libgcc.a(_aeabi_ldivmod.o)
                              .\CortexM0\ARM_GCC_493\Debug\start_v11.a(ADC.o) (__aeabi_ldivmod)
c:/program files (x86)/cypress/psoc creator/4.0/psoc creator/import/gnu/arm/4.9.3/bin/../lib/gcc/arm-none-eabi/4.9.3/armv6-m\libgcc.a(_aeabi_uldivmod.o)
                              .\CortexM0\ARM_GCC_493\Debug\RTC_WDT.o (__aeabi_uldivmod)
c:/program files (x86)/cypress/psoc creator/4.0/psoc creator/import/gnu/arm/4.9.3/bin/../lib/gcc/arm-none-eabi/4.9.3/armv6-m\libgcc.a(_muldi3.o)
                              .\CortexM0\ARM_GCC_493\Debug\start_v11.a(ADC.o) (__aeabi_lmul)
c:/program files (x86)/cypress/psoc creator/4.0/psoc creator/import/gnu/arm/4.9.3/bin/../lib/gcc/arm-none-eabi/4.9.3/armv6-m\libgcc.a(bpabi.o)
                              c:/program files (x86)/cypress/psoc creator/4.0/psoc creator/import/gnu/arm/4.9.3/bin/../lib/gcc/arm-none-eabi/4.9.3/armv6-m\libgcc.a(_aeabi_ldivmod.o) (__gnu_ldivmod_helper)
c:/program files (x86)/cypress/psoc creator/4.0/psoc creator/import/gnu/arm/4.9.3/bin/../lib/gcc/arm-none-eabi/4.9.3/armv6-m\libgcc.a(divsf3.o)
                              .\CortexM0\ARM_GCC_493\Debug\LCD5110_Graph.o (__aeabi_fdiv)
c:/program files (x86)/cypress/psoc creator/4.0/psoc creator/import/gnu/arm/4.9.3/bin/../lib/gcc/arm-none-eabi/4.9.3/armv6-m\libgcc.a(eqsf2.o)
                              c:/program files (x86)/cypress/psoc creator/4.0/psoc creator/import/gnu/arm/4.9.3/bin/../lib/gcc/arm-none-eabi/4.9.3/armv6-m\libgcc.a(_arm_cmpsf2.o) (__eqsf2)
c:/program files (x86)/cypress/psoc creator/4.0/psoc creator/import/gnu/arm/4.9.3/bin/../lib/gcc/arm-none-eabi/4.9.3/armv6-m\libgcc.a(gesf2.o)
                              c:/program files (x86)/cypress/psoc creator/4.0/psoc creator/import/gnu/arm/4.9.3/bin/../lib/gcc/arm-none-eabi/4.9.3/armv6-m\libgcc.a(_arm_cmpsf2.o) (__gesf2)
c:/program files (x86)/cypress/psoc creator/4.0/psoc creator/import/gnu/arm/4.9.3/bin/../lib/gcc/arm-none-eabi/4.9.3/armv6-m\libgcc.a(lesf2.o)
                              c:/program files (x86)/cypress/psoc creator/4.0/psoc creator/import/gnu/arm/4.9.3/bin/../lib/gcc/arm-none-eabi/4.9.3/armv6-m\libgcc.a(_arm_cmpsf2.o) (__lesf2)
c:/program files (x86)/cypress/psoc creator/4.0/psoc creator/import/gnu/arm/4.9.3/bin/../lib/gcc/arm-none-eabi/4.9.3/armv6-m\libgcc.a(mulsf3.o)
                              .\CortexM0\ARM_GCC_493\Debug\start_v11.a(ADC.o) (__aeabi_fmul)
c:/program files (x86)/cypress/psoc creator/4.0/psoc creator/import/gnu/arm/4.9.3/bin/../lib/gcc/arm-none-eabi/4.9.3/armv6-m\libgcc.a(floatsisf.o)
                              .\CortexM0\ARM_GCC_493\Debug\LCD5110_Graph.o (__aeabi_i2f)
c:/program files (x86)/cypress/psoc creator/4.0/psoc creator/import/gnu/arm/4.9.3/bin/../lib/gcc/arm-none-eabi/4.9.3/armv6-m\libgcc.a(adddf3.o)
                              .\CortexM0\ARM_GCC_493\Debug\LCD5110_Graph.o (__aeabi_dadd)
c:/program files (x86)/cypress/psoc creator/4.0/psoc creator/import/gnu/arm/4.9.3/bin/../lib/gcc/arm-none-eabi/4.9.3/armv6-m\libgcc.a(divdf3.o)
                              .\CortexM0\ARM_GCC_493\Debug\LCD5110_Graph.o (__aeabi_ddiv)
c:/program files (x86)/cypress/psoc creator/4.0/psoc creator/import/gnu/arm/4.9.3/bin/../lib/gcc/arm-none-eabi/4.9.3/armv6-m\libgcc.a(eqdf2.o)
                              c:/program files (x86)/cypress/psoc creator/4.0/psoc creator/import/gnu/arm/4.9.3/bin/../lib/gcc/arm-none-eabi/4.9.3/armv6-m\libgcc.a(_arm_cmpdf2.o) (__eqdf2)
c:/program files (x86)/cypress/psoc creator/4.0/psoc creator/import/gnu/arm/4.9.3/bin/../lib/gcc/arm-none-eabi/4.9.3/armv6-m\libgcc.a(gedf2.o)
                              c:/program files (x86)/cypress/psoc creator/4.0/psoc creator/import/gnu/arm/4.9.3/bin/../lib/gcc/arm-none-eabi/4.9.3/armv6-m\libgcc.a(_arm_cmpdf2.o) (__gedf2)
c:/program files (x86)/cypress/psoc creator/4.0/psoc creator/import/gnu/arm/4.9.3/bin/../lib/gcc/arm-none-eabi/4.9.3/armv6-m\libgcc.a(ledf2.o)
                              c:/program files (x86)/cypress/psoc creator/4.0/psoc creator/import/gnu/arm/4.9.3/bin/../lib/gcc/arm-none-eabi/4.9.3/armv6-m\libgcc.a(_arm_cmpdf2.o) (__ledf2)
c:/program files (x86)/cypress/psoc creator/4.0/psoc creator/import/gnu/arm/4.9.3/bin/../lib/gcc/arm-none-eabi/4.9.3/armv6-m\libgcc.a(subdf3.o)
                              .\CortexM0\ARM_GCC_493\Debug\LCD5110_Graph.o (__aeabi_dsub)
c:/program files (x86)/cypress/psoc creator/4.0/psoc creator/import/gnu/arm/4.9.3/bin/../lib/gcc/arm-none-eabi/4.9.3/armv6-m\libgcc.a(fixdfsi.o)
                              .\CortexM0\ARM_GCC_493\Debug\LCD5110_Graph.o (__aeabi_d2iz)
c:/program files (x86)/cypress/psoc creator/4.0/psoc creator/import/gnu/arm/4.9.3/bin/../lib/gcc/arm-none-eabi/4.9.3/armv6-m\libgcc.a(floatsidf.o)
                              .\CortexM0\ARM_GCC_493\Debug\LCD5110_Graph.o (__aeabi_i2d)
c:/program files (x86)/cypress/psoc creator/4.0/psoc creator/import/gnu/arm/4.9.3/bin/../lib/gcc/arm-none-eabi/4.9.3/armv6-m\libgcc.a(extendsfdf2.o)
                              .\CortexM0\ARM_GCC_493\Debug\display.o (__aeabi_f2d)
c:/program files (x86)/cypress/psoc creator/4.0/psoc creator/import/gnu/arm/4.9.3/bin/../lib/gcc/arm-none-eabi/4.9.3/armv6-m\libgcc.a(_clzsi2.o)
                              c:/program files (x86)/cypress/psoc creator/4.0/psoc creator/import/gnu/arm/4.9.3/bin/../lib/gcc/arm-none-eabi/4.9.3/armv6-m\libgcc.a(divsf3.o) (__clzsi2)
c:/program files (x86)/cypress/psoc creator/4.0/psoc creator/import/gnu/arm/4.9.3/bin/../lib/gcc/arm-none-eabi/4.9.3/armv6-m\libgcc.a(_divdi3.o)
                              c:/program files (x86)/cypress/psoc creator/4.0/psoc creator/import/gnu/arm/4.9.3/bin/../lib/gcc/arm-none-eabi/4.9.3/armv6-m\libgcc.a(bpabi.o) (__divdi3)
c:/program files (x86)/cypress/psoc creator/4.0/psoc creator/import/gnu/arm/4.9.3/bin/../lib/gcc/arm-none-eabi/4.9.3/armv6-m\libgcc.a(_udivdi3.o)
                              c:/program files (x86)/cypress/psoc creator/4.0/psoc creator/import/gnu/arm/4.9.3/bin/../lib/gcc/arm-none-eabi/4.9.3/armv6-m\libgcc.a(bpabi.o) (__udivdi3)
c:/program files (x86)/cypress/psoc creator/4.0/psoc creator/import/gnu/arm/4.9.3/bin/../lib/gcc/arm-none-eabi/4.9.3/armv6-m\libgcc.a(_clzdi2.o)
                              c:/program files (x86)/cypress/psoc creator/4.0/psoc creator/import/gnu/arm/4.9.3/bin/../lib/gcc/arm-none-eabi/4.9.3/armv6-m\libgcc.a(_divdi3.o) (__clzdi2)
c:/program files (x86)/cypress/psoc creator/4.0/psoc creator/import/gnu/arm/4.9.3/bin/../lib/gcc/arm-none-eabi/4.9.3/../../../../arm-none-eabi/lib/armv6-m\libg.a(lib_a-errno.o)
                              .\CortexM0\ARM_GCC_493\Debug\Cm0Start.o (__errno)
c:/program files (x86)/cypress/psoc creator/4.0/psoc creator/import/gnu/arm/4.9.3/bin/../lib/gcc/arm-none-eabi/4.9.3/../../../../arm-none-eabi/lib/armv6-m\libg.a(lib_a-exit.o)
                              c:/program files (x86)/cypress/psoc creator/4.0/psoc creator/import/gnu/arm/4.9.3/bin/../lib/gcc/arm-none-eabi/4.9.3/../../../../arm-none-eabi/lib/armv6-m/crt0.o (exit)
c:/program files (x86)/cypress/psoc creator/4.0/psoc creator/import/gnu/arm/4.9.3/bin/../lib/gcc/arm-none-eabi/4.9.3/../../../../arm-none-eabi/lib/armv6-m\libg.a(lib_a-impure.o)
                              c:/program files (x86)/cypress/psoc creator/4.0/psoc creator/import/gnu/arm/4.9.3/bin/../lib/gcc/arm-none-eabi/4.9.3/../../../../arm-none-eabi/lib/armv6-m\libg.a(lib_a-exit.o) (_global_impure_ptr)
c:/program files (x86)/cypress/psoc creator/4.0/psoc creator/import/gnu/arm/4.9.3/bin/../lib/gcc/arm-none-eabi/4.9.3/../../../../arm-none-eabi/lib/armv6-m\libg.a(lib_a-init.o)
                              c:/program files (x86)/cypress/psoc creator/4.0/psoc creator/import/gnu/arm/4.9.3/bin/../lib/gcc/arm-none-eabi/4.9.3/../../../../arm-none-eabi/lib/armv6-m/crt0.o (__libc_init_array)
c:/program files (x86)/cypress/psoc creator/4.0/psoc creator/import/gnu/arm/4.9.3/bin/../lib/gcc/arm-none-eabi/4.9.3/../../../../arm-none-eabi/lib/armv6-m\libg.a(lib_a-memcpy.o)
                              .\CortexM0\ARM_GCC_493\Debug\svt.o (memcpy)
c:/program files (x86)/cypress/psoc creator/4.0/psoc creator/import/gnu/arm/4.9.3/bin/../lib/gcc/arm-none-eabi/4.9.3/../../../../arm-none-eabi/lib/armv6-m\libg.a(lib_a-memset.o)
                              c:/program files (x86)/cypress/psoc creator/4.0/psoc creator/import/gnu/arm/4.9.3/bin/../lib/gcc/arm-none-eabi/4.9.3/../../../../arm-none-eabi/lib/armv6-m/crt0.o (memset)
c:/program files (x86)/cypress/psoc creator/4.0/psoc creator/import/gnu/arm/4.9.3/bin/../lib/gcc/arm-none-eabi/4.9.3/../../../../arm-none-eabi/lib/armv6-m\libg.a(lib_a-rand.o)
                              .\CortexM0\ARM_GCC_493\Debug\testMode.o (rand)
c:/program files (x86)/cypress/psoc creator/4.0/psoc creator/import/gnu/arm/4.9.3/bin/../lib/gcc/arm-none-eabi/4.9.3/../../../../arm-none-eabi/lib/armv6-m\libg.a(lib_a-sprintf.o)
                              .\CortexM0\ARM_GCC_493\Debug\display.o (sprintf)
c:/program files (x86)/cypress/psoc creator/4.0/psoc creator/import/gnu/arm/4.9.3/bin/../lib/gcc/arm-none-eabi/4.9.3/../../../../arm-none-eabi/lib/armv6-m\libg.a(lib_a-strcat.o)
                              .\CortexM0\ARM_GCC_493\Debug\svt.o (strcat)
c:/program files (x86)/cypress/psoc creator/4.0/psoc creator/import/gnu/arm/4.9.3/bin/../lib/gcc/arm-none-eabi/4.9.3/../../../../arm-none-eabi/lib/armv6-m\libg.a(lib_a-strcpy.o)
                              .\CortexM0\ARM_GCC_493\Debug\network.o (strcpy)
c:/program files (x86)/cypress/psoc creator/4.0/psoc creator/import/gnu/arm/4.9.3/bin/../lib/gcc/arm-none-eabi/4.9.3/../../../../arm-none-eabi/lib/armv6-m\libg.a(lib_a-strlen.o)
                              .\CortexM0\ARM_GCC_493\Debug\display.o (strlen)
c:/program files (x86)/cypress/psoc creator/4.0/psoc creator/import/gnu/arm/4.9.3/bin/../lib/gcc/arm-none-eabi/4.9.3/../../../../arm-none-eabi/lib/armv6-m\libg.a(lib_a-strncat.o)
                              .\CortexM0\ARM_GCC_493\Debug\display.o (strncat)
c:/program files (x86)/cypress/psoc creator/4.0/psoc creator/import/gnu/arm/4.9.3/bin/../lib/gcc/arm-none-eabi/4.9.3/../../../../arm-none-eabi/lib/armv6-m\libg.a(lib_a-strncpy.o)
                              .\CortexM0\ARM_GCC_493\Debug\display.o (strncpy)
c:/program files (x86)/cypress/psoc creator/4.0/psoc creator/import/gnu/arm/4.9.3/bin/../lib/gcc/arm-none-eabi/4.9.3/../../../../arm-none-eabi/lib/armv6-m\libg.a(lib_a-svfprintf.o)
                              c:/program files (x86)/cypress/psoc creator/4.0/psoc creator/import/gnu/arm/4.9.3/bin/../lib/gcc/arm-none-eabi/4.9.3/../../../../arm-none-eabi/lib/armv6-m\libg.a(lib_a-sprintf.o) (_svfprintf_r)
c:/program files (x86)/cypress/psoc creator/4.0/psoc creator/import/gnu/arm/4.9.3/bin/../lib/gcc/arm-none-eabi/4.9.3/../../../../arm-none-eabi/lib/armv6-m\libg.a(lib_a-__call_atexit.o)
                              c:/program files (x86)/cypress/psoc creator/4.0/psoc creator/import/gnu/arm/4.9.3/bin/../lib/gcc/arm-none-eabi/4.9.3/../../../../arm-none-eabi/lib/armv6-m\libg.a(lib_a-exit.o) (__call_exitprocs)
c:/program files (x86)/cypress/psoc creator/4.0/psoc creator/import/gnu/arm/4.9.3/bin/../lib/gcc/arm-none-eabi/4.9.3/../../../../arm-none-eabi/lib/armv6-m\libg.a(lib_a-atexit.o)
                              c:/program files (x86)/cypress/psoc creator/4.0/psoc creator/import/gnu/arm/4.9.3/bin/../lib/gcc/arm-none-eabi/4.9.3/../../../../arm-none-eabi/lib/armv6-m\libg.a(lib_a-__call_atexit.o) (atexit)
c:/program files (x86)/cypress/psoc creator/4.0/psoc creator/import/gnu/arm/4.9.3/bin/../lib/gcc/arm-none-eabi/4.9.3/../../../../arm-none-eabi/lib/armv6-m\libg.a(lib_a-dtoa.o)
                              c:/program files (x86)/cypress/psoc creator/4.0/psoc creator/import/gnu/arm/4.9.3/bin/../lib/gcc/arm-none-eabi/4.9.3/../../../../arm-none-eabi/lib/armv6-m\libg.a(lib_a-svfprintf.o) (_dtoa_r)
c:/program files (x86)/cypress/psoc creator/4.0/psoc creator/import/gnu/arm/4.9.3/bin/../lib/gcc/arm-none-eabi/4.9.3/../../../../arm-none-eabi/lib/armv6-m\libg.a(lib_a-fini.o)
                              c:/program files (x86)/cypress/psoc creator/4.0/psoc creator/import/gnu/arm/4.9.3/bin/../lib/gcc/arm-none-eabi/4.9.3/../../../../arm-none-eabi/lib/armv6-m\libg.a(lib_a-__call_atexit.o) (__libc_fini_array)
c:/program files (x86)/cypress/psoc creator/4.0/psoc creator/import/gnu/arm/4.9.3/bin/../lib/gcc/arm-none-eabi/4.9.3/../../../../arm-none-eabi/lib/armv6-m\libg.a(lib_a-locale.o)
                              c:/program files (x86)/cypress/psoc creator/4.0/psoc creator/import/gnu/arm/4.9.3/bin/../lib/gcc/arm-none-eabi/4.9.3/../../../../arm-none-eabi/lib/armv6-m\libg.a(lib_a-svfprintf.o) (_localeconv_r)
c:/program files (x86)/cypress/psoc creator/4.0/psoc creator/import/gnu/arm/4.9.3/bin/../lib/gcc/arm-none-eabi/4.9.3/../../../../arm-none-eabi/lib/armv6-m\libg.a(lib_a-mallocr.o)
                              c:/program files (x86)/cypress/psoc creator/4.0/psoc creator/import/gnu/arm/4.9.3/bin/../lib/gcc/arm-none-eabi/4.9.3/../../../../arm-none-eabi/lib/armv6-m\libg.a(lib_a-svfprintf.o) (_malloc_r)
c:/program files (x86)/cypress/psoc creator/4.0/psoc creator/import/gnu/arm/4.9.3/bin/../lib/gcc/arm-none-eabi/4.9.3/../../../../arm-none-eabi/lib/armv6-m\libg.a(lib_a-memchr.o)
                              c:/program files (x86)/cypress/psoc creator/4.0/psoc creator/import/gnu/arm/4.9.3/bin/../lib/gcc/arm-none-eabi/4.9.3/../../../../arm-none-eabi/lib/armv6-m\libg.a(lib_a-svfprintf.o) (memchr)
c:/program files (x86)/cypress/psoc creator/4.0/psoc creator/import/gnu/arm/4.9.3/bin/../lib/gcc/arm-none-eabi/4.9.3/../../../../arm-none-eabi/lib/armv6-m\libg.a(lib_a-mlock.o)
                              c:/program files (x86)/cypress/psoc creator/4.0/psoc creator/import/gnu/arm/4.9.3/bin/../lib/gcc/arm-none-eabi/4.9.3/../../../../arm-none-eabi/lib/armv6-m\libg.a(lib_a-mallocr.o) (__malloc_lock)
c:/program files (x86)/cypress/psoc creator/4.0/psoc creator/import/gnu/arm/4.9.3/bin/../lib/gcc/arm-none-eabi/4.9.3/../../../../arm-none-eabi/lib/armv6-m\libg.a(lib_a-mprec.o)
                              c:/program files (x86)/cypress/psoc creator/4.0/psoc creator/import/gnu/arm/4.9.3/bin/../lib/gcc/arm-none-eabi/4.9.3/../../../../arm-none-eabi/lib/armv6-m\libg.a(lib_a-dtoa.o) (_Balloc)
c:/program files (x86)/cypress/psoc creator/4.0/psoc creator/import/gnu/arm/4.9.3/bin/../lib/gcc/arm-none-eabi/4.9.3/../../../../arm-none-eabi/lib/armv6-m\libg.a(lib_a-s_fpclassify.o)
                              c:/program files (x86)/cypress/psoc creator/4.0/psoc creator/import/gnu/arm/4.9.3/bin/../lib/gcc/arm-none-eabi/4.9.3/../../../../arm-none-eabi/lib/armv6-m\libg.a(lib_a-svfprintf.o) (__fpclassifyd)
c:/program files (x86)/cypress/psoc creator/4.0/psoc creator/import/gnu/arm/4.9.3/bin/../lib/gcc/arm-none-eabi/4.9.3/../../../../arm-none-eabi/lib/armv6-m\libg.a(lib_a-sbrkr.o)
                              c:/program files (x86)/cypress/psoc creator/4.0/psoc creator/import/gnu/arm/4.9.3/bin/../lib/gcc/arm-none-eabi/4.9.3/../../../../arm-none-eabi/lib/armv6-m\libg.a(lib_a-mallocr.o) (_sbrk_r)
c:/program files (x86)/cypress/psoc creator/4.0/psoc creator/import/gnu/arm/4.9.3/bin/../lib/gcc/arm-none-eabi/4.9.3/../../../../arm-none-eabi/lib/armv6-m\libg.a(lib_a-strcmp.o)
                              c:/program files (x86)/cypress/psoc creator/4.0/psoc creator/import/gnu/arm/4.9.3/bin/../lib/gcc/arm-none-eabi/4.9.3/../../../../arm-none-eabi/lib/armv6-m\libg.a(lib_a-locale.o) (strcmp)
c:/program files (x86)/cypress/psoc creator/4.0/psoc creator/import/gnu/arm/4.9.3/bin/../lib/gcc/arm-none-eabi/4.9.3/../../../../arm-none-eabi/lib/armv6-m\libg.a(lib_a-svfiprintf.o)
                              c:/program files (x86)/cypress/psoc creator/4.0/psoc creator/import/gnu/arm/4.9.3/bin/../lib/gcc/arm-none-eabi/4.9.3/../../../../arm-none-eabi/lib/armv6-m\libg.a(lib_a-svfprintf.o) (__ssprint_r)
c:/program files (x86)/cypress/psoc creator/4.0/psoc creator/import/gnu/arm/4.9.3/bin/../lib/gcc/arm-none-eabi/4.9.3/../../../../arm-none-eabi/lib/armv6-m\libg.a(lib_a-__atexit.o)
                              c:/program files (x86)/cypress/psoc creator/4.0/psoc creator/import/gnu/arm/4.9.3/bin/../lib/gcc/arm-none-eabi/4.9.3/../../../../arm-none-eabi/lib/armv6-m\libg.a(lib_a-atexit.o) (__register_exitproc)
c:/program files (x86)/cypress/psoc creator/4.0/psoc creator/import/gnu/arm/4.9.3/bin/../lib/gcc/arm-none-eabi/4.9.3/../../../../arm-none-eabi/lib/armv6-m\libg.a(lib_a-callocr.o)
                              c:/program files (x86)/cypress/psoc creator/4.0/psoc creator/import/gnu/arm/4.9.3/bin/../lib/gcc/arm-none-eabi/4.9.3/../../../../arm-none-eabi/lib/armv6-m\libg.a(lib_a-mprec.o) (_calloc_r)
c:/program files (x86)/cypress/psoc creator/4.0/psoc creator/import/gnu/arm/4.9.3/bin/../lib/gcc/arm-none-eabi/4.9.3/../../../../arm-none-eabi/lib/armv6-m\libg.a(lib_a-freer.o)
                              c:/program files (x86)/cypress/psoc creator/4.0/psoc creator/import/gnu/arm/4.9.3/bin/../lib/gcc/arm-none-eabi/4.9.3/../../../../arm-none-eabi/lib/armv6-m\libg.a(lib_a-mallocr.o) (_free_r)
c:/program files (x86)/cypress/psoc creator/4.0/psoc creator/import/gnu/arm/4.9.3/bin/../lib/gcc/arm-none-eabi/4.9.3/../../../../arm-none-eabi/lib/armv6-m\libg.a(lib_a-memmove.o)
                              c:/program files (x86)/cypress/psoc creator/4.0/psoc creator/import/gnu/arm/4.9.3/bin/../lib/gcc/arm-none-eabi/4.9.3/../../../../arm-none-eabi/lib/armv6-m\libg.a(lib_a-svfiprintf.o) (memmove)
c:/program files (x86)/cypress/psoc creator/4.0/psoc creator/import/gnu/arm/4.9.3/bin/../lib/gcc/arm-none-eabi/4.9.3/../../../../arm-none-eabi/lib/armv6-m\libg.a(lib_a-reallocr.o)
                              c:/program files (x86)/cypress/psoc creator/4.0/psoc creator/import/gnu/arm/4.9.3/bin/../lib/gcc/arm-none-eabi/4.9.3/../../../../arm-none-eabi/lib/armv6-m\libg.a(lib_a-svfiprintf.o) (_realloc_r)
c:/program files (x86)/cypress/psoc creator/4.0/psoc creator/import/gnu/arm/4.9.3/bin/../lib/gcc/arm-none-eabi/4.9.3/../../../../arm-none-eabi/lib/armv6-m\libg.a(lib_a-reent.o)
                              c:/program files (x86)/cypress/psoc creator/4.0/psoc creator/import/gnu/arm/4.9.3/bin/../lib/gcc/arm-none-eabi/4.9.3/../../../../arm-none-eabi/lib/armv6-m\libg.a(lib_a-sbrkr.o) (errno)
c:/program files (x86)/cypress/psoc creator/4.0/psoc creator/import/gnu/arm/4.9.3/bin/../lib/gcc/arm-none-eabi/4.9.3/armv6-m\libgcc.a(muldf3.o)
                              c:/program files (x86)/cypress/psoc creator/4.0/psoc creator/import/gnu/arm/4.9.3/bin/../lib/gcc/arm-none-eabi/4.9.3/../../../../arm-none-eabi/lib/armv6-m\libg.a(lib_a-dtoa.o) (__aeabi_dmul)
c:/program files (x86)/cypress/psoc creator/4.0/psoc creator/import/gnu/arm/4.9.3/bin/../lib/gcc/arm-none-eabi/4.9.3/armv6-m\libgcc.a(floatunsidf.o)
                              c:/program files (x86)/cypress/psoc creator/4.0/psoc creator/import/gnu/arm/4.9.3/bin/../lib/gcc/arm-none-eabi/4.9.3/../../../../arm-none-eabi/lib/armv6-m\libg.a(lib_a-dtoa.o) (__aeabi_ui2d)

Allocating common symbols
Common symbol       size              file

IDreceivePacket     0x2               .\CortexM0\ARM_GCC_493\Debug\network.o
NtpLenChS           0x1               .\CortexM0\ARM_GCC_493\Debug\ntp.o
RTC_initVar         0x1               .\CortexM0\ARM_GCC_493\Debug\start_v11.a(RTC.o)
LenC                0x1               .\CortexM0\ARM_GCC_493\Debug\svt.o
UART_XB_rxBufferTail
                    0x4               .\CortexM0\ARM_GCC_493\Debug\start_v11.a(UART_XB_SPI_UART.o)
_sleep              0x1               .\CortexM0\ARM_GCC_493\Debug\display.o
UART_XB_rxBufferOverflow
                    0x1               .\CortexM0\ARM_GCC_493\Debug\start_v11.a(UART_XB_SPI_UART.o)
errno               0x4               c:/program files (x86)/cypress/psoc creator/4.0/psoc creator/import/gnu/arm/4.9.3/bin/../lib/gcc/arm-none-eabi/4.9.3/../../../../arm-none-eabi/lib/armv6-m\libg.a(lib_a-reent.o)
currentState        0x1               .\CortexM0\ARM_GCC_493\Debug\RTC_WDT.o
NtpLenMsD1          0x1               .\CortexM0\ARM_GCC_493\Debug\ntp.o
scrbuf              0x1f8             .\CortexM0\ARM_GCC_493\Debug\display.o
flag                0x5               .\CortexM0\ARM_GCC_493\Debug\taskAutomat.o
outData             0x18              .\CortexM0\ARM_GCC_493\Debug\network.o
UART_XB_txBufferHead
                    0x4               .\CortexM0\ARM_GCC_493\Debug\start_v11.a(UART_XB_SPI_UART.o)
recvDataNTP         0x14              .\CortexM0\ARM_GCC_493\Debug\network.o
UART_XB_txBufferInternal
                    0x64              .\CortexM0\ARM_GCC_493\Debug\start_v11.a(UART_XB_SPI_UART.o)
ADC_countsPer10Volt
                    0x4               .\CortexM0\ARM_GCC_493\Debug\start_v11.a(ADC.o)
NtpLenId            0x1               .\CortexM0\ARM_GCC_493\Debug\ntp.o
ntpFlagReadyForReceive
                    0x1               .\CortexM0\ARM_GCC_493\Debug\network.o
LenChS              0x1               .\CortexM0\ARM_GCC_493\Debug\svt.o
inData              0x18              .\CortexM0\ARM_GCC_493\Debug\network.o
LenD1               0x1               .\CortexM0\ARM_GCC_493\Debug\svt.o
LenSeq              0x1               .\CortexM0\ARM_GCC_493\Debug\svt.o
voltage             0x4               .\CortexM0\ARM_GCC_493\Debug\batt.o
ADC_offset          0x2               .\CortexM0\ARM_GCC_493\Debug\start_v11.a(ADC.o)
unixTime            0x10              .\CortexM0\ARM_GCC_493\Debug\network.o
LenD2               0x1               .\CortexM0\ARM_GCC_493\Debug\svt.o
resultReceive       0x4               .\CortexM0\ARM_GCC_493\Debug\network.o
networkFlagReadyForReceive
                    0x1               .\CortexM0\ARM_GCC_493\Debug\network.o
buffNetworkQualyty  0x1               .\CortexM0\ARM_GCC_493\Debug\network.o
cfont               0xc               .\CortexM0\ARM_GCC_493\Debug\display.o
PROTO_STATE         0x1               .\CortexM0\ARM_GCC_493\Debug\svt.o
RTC_currentTimeDate
                    0x10              .\CortexM0\ARM_GCC_493\Debug\start_v11.a(RTC.o)
LED_InitValue       0x1               .\CortexM0\ARM_GCC_493\Debug\LED.o
recvData            0x20              .\CortexM0\ARM_GCC_493\Debug\network.o
networkFlagEndReceivePacket
                    0x1               .\CortexM0\ARM_GCC_493\Debug\network.o
ntpFlagEndReceivePacket
                    0x1               .\CortexM0\ARM_GCC_493\Debug\network.o
RTC_alarmCurStatus  0x4               .\CortexM0\ARM_GCC_493\Debug\start_v11.a(RTC.o)
RTC_dstStatus       0x1               .\CortexM0\ARM_GCC_493\Debug\start_v11.a(RTC.o)
LenD3               0x1               .\CortexM0\ARM_GCC_493\Debug\svt.o
NtpLenD1            0x1               .\CortexM0\ARM_GCC_493\Debug\ntp.o
RTC_unixTime        0x8               .\CortexM0\ARM_GCC_493\Debug\start_v11.a(RTC.o)
_contrast           0x4               .\CortexM0\ARM_GCC_493\Debug\display.o
UART_XB_rxBufferInternal
                    0x65              .\CortexM0\ARM_GCC_493\Debug\start_v11.a(UART_XB_SPI_UART.o)
millisTime          0x8               .\CortexM0\ARM_GCC_493\Debug\network.o
UART_XB_rxBufferHead
                    0x4               .\CortexM0\ARM_GCC_493\Debug\start_v11.a(UART_XB_SPI_UART.o)
UART_XB_txBufferTail
                    0x4               .\CortexM0\ARM_GCC_493\Debug\start_v11.a(UART_XB_SPI_UART.o)
previousData        0x64              .\CortexM0\ARM_GCC_493\Debug\network.o

Memory Configuration

Name             Origin             Length             Attributes
rom              0x00000000         0x00020000         xr
ram              0x20000000         0x00004000         xrw
*default*        0x00000000         0xffffffff

Linker script and memory map

LOAD c:/program files (x86)/cypress/psoc creator/4.0/psoc creator/import/gnu/arm/4.9.3/bin/../lib/gcc/arm-none-eabi/4.9.3/armv6-m/crti.o
LOAD c:/program files (x86)/cypress/psoc creator/4.0/psoc creator/import/gnu/arm/4.9.3/bin/../lib/gcc/arm-none-eabi/4.9.3/armv6-m/crtbegin.o
LOAD c:/program files (x86)/cypress/psoc creator/4.0/psoc creator/import/gnu/arm/4.9.3/bin/../lib/gcc/arm-none-eabi/4.9.3/../../../../arm-none-eabi/lib/armv6-m/crt0.o
START GROUP
LOAD .\CortexM0\ARM_GCC_493\Debug\RTC_WDT.o
LOAD .\CortexM0\ARM_GCC_493\Debug\display.o
LOAD .\CortexM0\ARM_GCC_493\Debug\DefaultFonts.o
LOAD .\CortexM0\ARM_GCC_493\Debug\Graphics.o
LOAD .\CortexM0\ARM_GCC_493\Debug\LCD5110_Graph.o
LOAD .\CortexM0\ARM_GCC_493\Debug\gate.o
LOAD .\CortexM0\ARM_GCC_493\Debug\LED.o
LOAD .\CortexM0\ARM_GCC_493\Debug\crc32.o
LOAD .\CortexM0\ARM_GCC_493\Debug\svt.o
LOAD .\CortexM0\ARM_GCC_493\Debug\ntp.o
LOAD .\CortexM0\ARM_GCC_493\Debug\network.o
LOAD .\CortexM0\ARM_GCC_493\Debug\batt.o
LOAD .\CortexM0\ARM_GCC_493\Debug\testMode.o
LOAD .\CortexM0\ARM_GCC_493\Debug\taskAutomat.o
LOAD .\CortexM0\ARM_GCC_493\Debug\Buttons.o
LOAD .\CortexM0\ARM_GCC_493\Debug\main.o
LOAD .\CortexM0\ARM_GCC_493\Debug\cymetadata.o
LOAD .\CortexM0\ARM_GCC_493\Debug\Cm0Start.o
LOAD .\CortexM0\ARM_GCC_493\Debug\start_v11.a
LOAD C:\Program Files (x86)\Cypress\PSoC Creator\4.0\PSoC Creator\psoc\content\cycomponentlibrary\CyComponentLibrary.cylib\CortexM0\ARM_GCC_493\Debug\CyComponentLibrary.a
END GROUP
START GROUP
LOAD c:/program files (x86)/cypress/psoc creator/4.0/psoc creator/import/gnu/arm/4.9.3/bin/../lib/gcc/arm-none-eabi/4.9.3/armv6-m\libgcc.a
LOAD c:/program files (x86)/cypress/psoc creator/4.0/psoc creator/import/gnu/arm/4.9.3/bin/../lib/gcc/arm-none-eabi/4.9.3/../../../../arm-none-eabi/lib/armv6-m\libg.a
LOAD c:/program files (x86)/cypress/psoc creator/4.0/psoc creator/import/gnu/arm/4.9.3/bin/../lib/gcc/arm-none-eabi/4.9.3/../../../../arm-none-eabi/lib/armv6-m\libc.a
END GROUP
LOAD c:/program files (x86)/cypress/psoc creator/4.0/psoc creator/import/gnu/arm/4.9.3/bin/../lib/gcc/arm-none-eabi/4.9.3/armv6-m/crtend.o
LOAD c:/program files (x86)/cypress/psoc creator/4.0/psoc creator/import/gnu/arm/4.9.3/bin/../lib/gcc/arm-none-eabi/4.9.3/armv6-m/crtn.o
START GROUP
LOAD c:/program files (x86)/cypress/psoc creator/4.0/psoc creator/import/gnu/arm/4.9.3/bin/../lib/gcc/arm-none-eabi/4.9.3/armv6-m\libgcc.a
LOAD c:/program files (x86)/cypress/psoc creator/4.0/psoc creator/import/gnu/arm/4.9.3/bin/../lib/gcc/arm-none-eabi/4.9.3/../../../../arm-none-eabi/lib/armv6-m\libc.a
LOAD c:/program files (x86)/cypress/psoc creator/4.0/psoc creator/import/gnu/arm/4.9.3/bin/../lib/gcc/arm-none-eabi/4.9.3/../../../../arm-none-eabi/lib/armv6-m\libnosys.a
END GROUP
                0x00000000                CY_APPL_ORIGIN = 0x0
                0x00000080                CY_FLASH_ROW_SIZE = 0x80
                0x00000001                CY_APPL_NUM = 0x1
                0x00000001                CY_APPL_MAX = 0x1
                0x00000040                CY_METADATA_SIZE = 0x40
                0x00000000                CY_APPL_LOADABLE = 0x0
                0x00000000                CY_CHECKSUM_EXCLUDE_SIZE = ALIGN (0x0, CY_FLASH_ROW_SIZE)
                0x00000000                CY_APP_FOR_STACK_AND_COPIER = 0x0
                0x20001388                PROVIDE (__cy_heap_start, _end)
                0x00000001                PROVIDE (__cy_region_num, ((__cy_regions_end - __cy_regions) / 0x10))
                0x20004000                PROVIDE (__cy_stack, (ORIGIN (ram) + 0x4000))
                0x20003800                PROVIDE (__cy_heap_end, (__cy_stack - 0x800))

.cybootloader   0x00000000        0x0
 *(.cybootloader)
                0x00000000                appl1_start = CY_APPL_ORIGIN?CY_APPL_ORIGIN:ALIGN (CY_FLASH_ROW_SIZE)
                0x0000ff80                appl2_start = (appl1_start + ALIGN ((((0x20000 - appl1_start) - (0x2 * CY_FLASH_ROW_SIZE)) / 0x2), CY_FLASH_ROW_SIZE))
                0x00000000                appl_start = (CY_APPL_NUM == 0x1)?appl1_start:appl2_start
                0x00000001                cy_project_type_bootloader = (appl_start == 0x0)?0x1:0x0
                0x00000000                cy_project_type_app_for_stack_and_copier = (CY_APP_FOR_STACK_AND_COPIER == 0x1)?0x1:0x0

.text           0x00000000    0x13070
 CREATE_OBJECT_SYMBOLS
                0x00000000                PROVIDE (__cy_interrupt_vector, RomVectors)
 *(.romvectors)
 .romvectors    0x00000000       0x10 .\CortexM0\ARM_GCC_493\Debug\Cm0Start.o
                0x00000000                RomVectors
                0x00000001                ASSERT ((. != __cy_interrupt_vector), No interrupt vector)
                0x00000001                ASSERT (CY_APPL_ORIGIN?(SIZEOF (.cybootloader) <= CY_APPL_ORIGIN):0x1, Wrong image location)
                0x00000010                PROVIDE (__cy_reset, Reset)
 *(.text.Reset)
 .text.Reset    0x00000010        0x8 .\CortexM0\ARM_GCC_493\Debug\Cm0Start.o
                0x00000010                Reset
                0x00000001                ASSERT ((. != __cy_reset), No reset code)
 *(.psocinit)
 .psocinit      0x00000018      0x32c .\CortexM0\ARM_GCC_493\Debug\start_v11.a(cyfitter_cfg.o)
                0x000001b0                cyfitter_cfg
                0x00000344                . = MAX (., 0x100)
 *(.text .text.* .gnu.linkonce.t.*)
 .text          0x00000344        0x0 c:/program files (x86)/cypress/psoc creator/4.0/psoc creator/import/gnu/arm/4.9.3/bin/../lib/gcc/arm-none-eabi/4.9.3/armv6-m/crti.o
 .text          0x00000344       0x60 c:/program files (x86)/cypress/psoc creator/4.0/psoc creator/import/gnu/arm/4.9.3/bin/../lib/gcc/arm-none-eabi/4.9.3/armv6-m/crtbegin.o
 .text          0x000003a4       0x78 c:/program files (x86)/cypress/psoc creator/4.0/psoc creator/import/gnu/arm/4.9.3/bin/../lib/gcc/arm-none-eabi/4.9.3/../../../../arm-none-eabi/lib/armv6-m/crt0.o
                0x000003a4                _start
                0x000003a4                _mainCRTStartup
 .text          0x0000041c        0x0 .\CortexM0\ARM_GCC_493\Debug\RTC_WDT.o
 .text.RTC_IsBitSet
                0x0000041c       0x24 .\CortexM0\ARM_GCC_493\Debug\RTC_WDT.o
 .text.RTC_GetSecond
                0x00000440       0x30 .\CortexM0\ARM_GCC_493\Debug\RTC_WDT.o
 .text.RTC_GetMinutes
                0x00000470       0x38 .\CortexM0\ARM_GCC_493\Debug\RTC_WDT.o
 .text.RTC_GetHours
                0x000004a8       0x38 .\CortexM0\ARM_GCC_493\Debug\RTC_WDT.o
 .text.RTC_GetAmPm
                0x000004e0       0x20 .\CortexM0\ARM_GCC_493\Debug\RTC_WDT.o
 .text.CallBackCounter
                0x00000500       0x3c .\CortexM0\ARM_GCC_493\Debug\RTC_WDT.o
                0x00000500                CallBackCounter
 .text.RTC_WDT_Init
                0x0000053c       0x24 .\CortexM0\ARM_GCC_493\Debug\RTC_WDT.o
                0x0000053c                RTC_WDT_Init
 .text.RTCgetTime
                0x00000560      0x3f8 .\CortexM0\ARM_GCC_493\Debug\RTC_WDT.o
                0x00000560                RTCgetTime
 .text.RTCGetUnixTime
                0x00000958       0x14 .\CortexM0\ARM_GCC_493\Debug\RTC_WDT.o
                0x00000958                RTCGetUnixTime
 .text.RTCgetHours
                0x0000096c       0x78 .\CortexM0\ARM_GCC_493\Debug\RTC_WDT.o
                0x0000096c                RTCgetHours
 .text.RTCgetMinutes
                0x000009e4       0x90 .\CortexM0\ARM_GCC_493\Debug\RTC_WDT.o
                0x000009e4                RTCgetMinutes
 .text.RTCgetSecond
                0x00000a74       0x6c .\CortexM0\ARM_GCC_493\Debug\RTC_WDT.o
                0x00000a74                RTCgetSecond
 .text.RTCgetMiliecond
                0x00000ae0       0x80 .\CortexM0\ARM_GCC_493\Debug\RTC_WDT.o
                0x00000ae0                RTCgetMiliecond
 .text.RTCgetRecentMs
                0x00000b60       0x14 .\CortexM0\ARM_GCC_493\Debug\RTC_WDT.o
                0x00000b60                RTCgetRecentMs
 .text.RTCSync  0x00000b74       0x30 .\CortexM0\ARM_GCC_493\Debug\RTC_WDT.o
                0x00000b74                RTCSync
 .text          0x00000ba4        0x0 .\CortexM0\ARM_GCC_493\Debug\display.o
 .text.RTC_GetSecond
                0x00000ba4       0x30 .\CortexM0\ARM_GCC_493\Debug\display.o
 .text.RTC_GetMinutes
                0x00000bd4       0x38 .\CortexM0\ARM_GCC_493\Debug\display.o
 .text.RTC_GetHours
                0x00000c0c       0x38 .\CortexM0\ARM_GCC_493\Debug\display.o
 .text.DisplayStart
                0x00000c44       0x40 .\CortexM0\ARM_GCC_493\Debug\display.o
                0x00000c44                DisplayStart
 .text.Display  0x00000c84       0x88 .\CortexM0\ARM_GCC_493\Debug\display.o
                0x00000c84                Display
 .text.DisplayIndicatorSD
                0x00000d0c       0x48 .\CortexM0\ARM_GCC_493\Debug\display.o
                0x00000d0c                DisplayIndicatorSD
 .text.DisplayIndicatorNetwork
                0x00000d54       0x68 .\CortexM0\ARM_GCC_493\Debug\display.o
                0x00000d54                DisplayIndicatorNetwork
 .text.DisplayNetworkQuality
                0x00000dbc       0xf4 .\CortexM0\ARM_GCC_493\Debug\display.o
                0x00000dbc                DisplayNetworkQuality
 .text.DisplayRealTime
                0x00000eb0       0x68 .\CortexM0\ARM_GCC_493\Debug\display.o
                0x00000eb0                DisplayRealTime
 .text.DisplayLoading
                0x00000f18       0x10 .\CortexM0\ARM_GCC_493\Debug\display.o
                0x00000f18                DisplayLoading
 .text.DisplayBattVoltage
                0x00000f28      0x174 .\CortexM0\ARM_GCC_493\Debug\display.o
                0x00000f28                DisplayBattVoltage
 .text.DisplayLastSkierTime
                0x0000109c       0x8c .\CortexM0\ARM_GCC_493\Debug\display.o
                0x0000109c                DisplayLastSkierTime
 .text.DisplayNumSkierOnWay
                0x00001128       0x40 .\CortexM0\ARM_GCC_493\Debug\display.o
                0x00001128                DisplayNumSkierOnWay
 .text.DisplayTestMode
                0x00001168       0x48 .\CortexM0\ARM_GCC_493\Debug\display.o
                0x00001168                DisplayTestMode
 .text.DisplaBacklightOn
                0x000011b0       0x10 .\CortexM0\ARM_GCC_493\Debug\display.o
                0x000011b0                DisplaBacklightOn
 .text.DisplaBacklightOff
                0x000011c0       0x10 .\CortexM0\ARM_GCC_493\Debug\display.o
                0x000011c0                DisplaBacklightOff
 .text.DisplayIDskier
                0x000011d0       0xd4 .\CortexM0\ARM_GCC_493\Debug\display.o
                0x000011d0                DisplayIDskier
 .text          0x000012a4        0x0 .\CortexM0\ARM_GCC_493\Debug\DefaultFonts.o
 .text          0x000012a4        0x0 .\CortexM0\ARM_GCC_493\Debug\Graphics.o
 .text          0x000012a4        0x0 .\CortexM0\ARM_GCC_493\Debug\LCD5110_Graph.o
 .text._convert_float
                0x000012a4       0x40 .\CortexM0\ARM_GCC_493\Debug\LCD5110_Graph.o
                0x000012a4                _convert_float
 .text._LCD_Write
                0x000012e4       0x44 .\CortexM0\ARM_GCC_493\Debug\LCD5110_Graph.o
                0x000012e4                _LCD_Write
 .text.InitLCD  0x00001328       0xa4 .\CortexM0\ARM_GCC_493\Debug\LCD5110_Graph.o
                0x00001328                InitLCD
 .text.setContrast
                0x000013cc       0x54 .\CortexM0\ARM_GCC_493\Debug\LCD5110_Graph.o
                0x000013cc                setContrast
 .text.enableSleep
                0x00001420       0x4c .\CortexM0\ARM_GCC_493\Debug\LCD5110_Graph.o
                0x00001420                enableSleep
 .text.disableSleep
                0x0000146c       0x5c .\CortexM0\ARM_GCC_493\Debug\LCD5110_Graph.o
                0x0000146c                disableSleep
 .text.update   0x000014c8       0x58 .\CortexM0\ARM_GCC_493\Debug\LCD5110_Graph.o
                0x000014c8                update
 .text.clrScr   0x00001520       0x30 .\CortexM0\ARM_GCC_493\Debug\LCD5110_Graph.o
                0x00001520                clrScr
 .text.fillScr  0x00001550       0x30 .\CortexM0\ARM_GCC_493\Debug\LCD5110_Graph.o
                0x00001550                fillScr
 .text.invert   0x00001580       0x2c .\CortexM0\ARM_GCC_493\Debug\LCD5110_Graph.o
                0x00001580                invert
 .text.setPixel
                0x000015ac       0x74 .\CortexM0\ARM_GCC_493\Debug\LCD5110_Graph.o
                0x000015ac                setPixel
 .text.clrPixel
                0x00001620       0x78 .\CortexM0\ARM_GCC_493\Debug\LCD5110_Graph.o
                0x00001620                clrPixel
 .text.invPixel
                0x00001698       0xb4 .\CortexM0\ARM_GCC_493\Debug\LCD5110_Graph.o
                0x00001698                invPixel
 .text.invertText
                0x0000174c       0x2c .\CortexM0\ARM_GCC_493\Debug\LCD5110_Graph.o
                0x0000174c                invertText
 .text.print    0x00001778       0x98 .\CortexM0\ARM_GCC_493\Debug\LCD5110_Graph.o
                0x00001778                print
 .text.prints   0x00001810       0x24 .\CortexM0\ARM_GCC_493\Debug\LCD5110_Graph.o
                0x00001810                prints
 .text.printNumI
                0x00001834      0x1a8 .\CortexM0\ARM_GCC_493\Debug\LCD5110_Graph.o
                0x00001834                printNumI
 .text.printNumF
                0x000019dc      0x154 .\CortexM0\ARM_GCC_493\Debug\LCD5110_Graph.o
                0x000019dc                printNumF
 .text._print_char
                0x00001b30      0x2b4 .\CortexM0\ARM_GCC_493\Debug\LCD5110_Graph.o
                0x00001b30                _print_char
 .text.setFont  0x00001de4       0x48 .\CortexM0\ARM_GCC_493\Debug\LCD5110_Graph.o
                0x00001de4                setFont
 .text.drawHLine
                0x00001e2c       0x98 .\CortexM0\ARM_GCC_493\Debug\LCD5110_Graph.o
                0x00001e2c                drawHLine
 .text.clrHLine
                0x00001ec4       0x9c .\CortexM0\ARM_GCC_493\Debug\LCD5110_Graph.o
                0x00001ec4                clrHLine
 .text.drawVLine
                0x00001f60       0x58 .\CortexM0\ARM_GCC_493\Debug\LCD5110_Graph.o
                0x00001f60                drawVLine
 .text.clrVLine
                0x00001fb8       0x58 .\CortexM0\ARM_GCC_493\Debug\LCD5110_Graph.o
                0x00001fb8                clrVLine
 .text.drawLine
                0x00002010      0x2c0 .\CortexM0\ARM_GCC_493\Debug\LCD5110_Graph.o
                0x00002010                drawLine
 .text.clrLine  0x000022d0      0x2c0 .\CortexM0\ARM_GCC_493\Debug\LCD5110_Graph.o
                0x000022d0                clrLine
 .text.drawRect
                0x00002590       0x90 .\CortexM0\ARM_GCC_493\Debug\LCD5110_Graph.o
                0x00002590                drawRect
 .text.clrRect  0x00002620       0x90 .\CortexM0\ARM_GCC_493\Debug\LCD5110_Graph.o
                0x00002620                clrRect
 .text.drawRoundRect
                0x000026b0      0x10c .\CortexM0\ARM_GCC_493\Debug\LCD5110_Graph.o
                0x000026b0                drawRoundRect
 .text.clrRoundRect
                0x000027bc      0x10c .\CortexM0\ARM_GCC_493\Debug\LCD5110_Graph.o
                0x000027bc                clrRoundRect
 .text.drawCircle
                0x000028c8      0x1cc .\CortexM0\ARM_GCC_493\Debug\LCD5110_Graph.o
                0x000028c8                drawCircle
 .text.clrCircle
                0x00002a94      0x1cc .\CortexM0\ARM_GCC_493\Debug\LCD5110_Graph.o
                0x00002a94                clrCircle
 .text.drawBitmap
                0x00002c60       0xcc .\CortexM0\ARM_GCC_493\Debug\LCD5110_Graph.o
                0x00002c60                drawBitmap
 .text          0x00002d2c        0x0 .\CortexM0\ARM_GCC_493\Debug\gate.o
 .text.GATE_INTERRUPT
                0x00002d2c       0x3c .\CortexM0\ARM_GCC_493\Debug\gate.o
                0x00002d2c                GATE_INTERRUPT
 .text.GateInit
                0x00002d68       0x28 .\CortexM0\ARM_GCC_493\Debug\gate.o
                0x00002d68                GateInit
 .text.GateIsOpen
                0x00002d90       0x20 .\CortexM0\ARM_GCC_493\Debug\gate.o
                0x00002d90                GateIsOpen
 .text.AllowNextSkier
                0x00002db0       0x10 .\CortexM0\ARM_GCC_493\Debug\gate.o
                0x00002db0                AllowNextSkier
 .text.DisAllowNextSkier
                0x00002dc0       0x20 .\CortexM0\ARM_GCC_493\Debug\gate.o
                0x00002dc0                DisAllowNextSkier
 .text.GetStartTime
                0x00002de0       0x2c .\CortexM0\ARM_GCC_493\Debug\gate.o
                0x00002de0                GetStartTime
 .text          0x00002e0c        0x0 .\CortexM0\ARM_GCC_493\Debug\LED.o
 .text.LedInit  0x00002e0c       0x2c .\CortexM0\ARM_GCC_493\Debug\LED.o
                0x00002e0c                LedInit
 .text.LedHandler
                0x00002e38       0x20 .\CortexM0\ARM_GCC_493\Debug\LED.o
                0x00002e38                LedHandler
 .text.LedRedBlink
                0x00002e58       0x34 .\CortexM0\ARM_GCC_493\Debug\LED.o
                0x00002e58                LedRedBlink
 .text.SetLedsState
                0x00002e8c       0x30 .\CortexM0\ARM_GCC_493\Debug\LED.o
                0x00002e8c                SetLedsState
 .text          0x00002ebc        0x0 .\CortexM0\ARM_GCC_493\Debug\crc32.o
 .text.crc32_update
                0x00002ebc       0x50 .\CortexM0\ARM_GCC_493\Debug\crc32.o
                0x00002ebc                crc32_update
 .text.crc32_calc_block
                0x00002f0c       0x44 .\CortexM0\ARM_GCC_493\Debug\crc32.o
                0x00002f0c                crc32_calc_block
 .text.crc32_calc
                0x00002f50       0x30 .\CortexM0\ARM_GCC_493\Debug\crc32.o
                0x00002f50                crc32_calc
 .text.crc32_init_tab
                0x00002f80       0x6c .\CortexM0\ARM_GCC_493\Debug\crc32.o
 .text          0x00002fec        0x0 .\CortexM0\ARM_GCC_493\Debug\svt.o
 .text.UnpackData
                0x00002fec      0x464 .\CortexM0\ARM_GCC_493\Debug\svt.o
                0x00002fec                UnpackData
 .text.DecodeByte
                0x00003450       0x50 .\CortexM0\ARM_GCC_493\Debug\svt.o
                0x00003450                DecodeByte
 .text.CheckSymb
                0x000034a0       0x34 .\CortexM0\ARM_GCC_493\Debug\svt.o
                0x000034a0                CheckSymb
 .text.ResetPacket
                0x000034d4       0x3c .\CortexM0\ARM_GCC_493\Debug\svt.o
                0x000034d4                ResetPacket
 .text.PackData
                0x00003510      0x158 .\CortexM0\ARM_GCC_493\Debug\svt.o
                0x00003510                PackData
 .text          0x00003668        0x0 .\CortexM0\ARM_GCC_493\Debug\ntp.o
 .text.NtpUnpackData
                0x00003668      0x268 .\CortexM0\ARM_GCC_493\Debug\ntp.o
                0x00003668                NtpUnpackData
 .text.NtpDecodeByte
                0x000038d0       0x50 .\CortexM0\ARM_GCC_493\Debug\ntp.o
                0x000038d0                NtpDecodeByte
 .text.NtpCheckSymb
                0x00003920       0x34 .\CortexM0\ARM_GCC_493\Debug\ntp.o
                0x00003920                NtpCheckSymb
 .text.NtpResetPacket
                0x00003954       0x2c .\CortexM0\ARM_GCC_493\Debug\ntp.o
                0x00003954                NtpResetPacket
 .text          0x00003980        0x0 .\CortexM0\ARM_GCC_493\Debug\network.o
 .text.CallBackNetworkCounter
                0x00003980       0x54 .\CortexM0\ARM_GCC_493\Debug\network.o
                0x00003980                CallBackNetworkCounter
 .text.InitNetwork
                0x000039d4       0x58 .\CortexM0\ARM_GCC_493\Debug\network.o
                0x000039d4                InitNetwork
 .text.CustomInterruptHandler
                0x00003a2c      0x164 .\CortexM0\ARM_GCC_493\Debug\network.o
                0x00003a2c                CustomInterruptHandler
 .text.SendData
                0x00003b90       0xf8 .\CortexM0\ARM_GCC_493\Debug\network.o
                0x00003b90                SendData
 .text.NetworkStatus
                0x00003c88       0x14 .\CortexM0\ARM_GCC_493\Debug\network.o
                0x00003c88                NetworkStatus
 .text.SendSkierStart
                0x00003c9c       0x30 .\CortexM0\ARM_GCC_493\Debug\network.o
                0x00003c9c                SendSkierStart
 .text.FinReady
                0x00003ccc       0x14 .\CortexM0\ARM_GCC_493\Debug\network.o
                0x00003ccc                FinReady
 .text.FinWriteInDB
                0x00003ce0       0x28 .\CortexM0\ARM_GCC_493\Debug\network.o
                0x00003ce0                FinWriteInDB
 .text.IsRebootFinishFlag
                0x00003d08       0x44 .\CortexM0\ARM_GCC_493\Debug\network.o
                0x00003d08                IsRebootFinishFlag
 .text.SetRebootFlag
                0x00003d4c       0x14 .\CortexM0\ARM_GCC_493\Debug\network.o
                0x00003d4c                SetRebootFlag
 .text.ClearRebootFlag
                0x00003d60       0x1c .\CortexM0\ARM_GCC_493\Debug\network.o
                0x00003d60                ClearRebootFlag
 .text.NetworkReadTestModeStatus
                0x00003d7c       0x14 .\CortexM0\ARM_GCC_493\Debug\network.o
                0x00003d7c                NetworkReadTestModeStatus
 .text.NetworkSendTestModeStatus
                0x00003d90       0x2c .\CortexM0\ARM_GCC_493\Debug\network.o
                0x00003d90                NetworkSendTestModeStatus
 .text.NetworkQuality
                0x00003dbc       0x60 .\CortexM0\ARM_GCC_493\Debug\network.o
                0x00003dbc                NetworkQuality
 .text.NTPsync  0x00003e1c      0x274 .\CortexM0\ARM_GCC_493\Debug\network.o
                0x00003e1c                NTPsync
 .text.NTPsendTime
                0x00004090       0x68 .\CortexM0\ARM_GCC_493\Debug\network.o
                0x00004090                NTPsendTime
 .text          0x000040f8        0x0 .\CortexM0\ARM_GCC_493\Debug\batt.o
 .text.BattADC_Init
                0x000040f8       0x18 .\CortexM0\ARM_GCC_493\Debug\batt.o
                0x000040f8                BattADC_Init
 .text.ReadBattVoltage
                0x00004110       0x34 .\CortexM0\ARM_GCC_493\Debug\batt.o
                0x00004110                ReadBattVoltage
 .text          0x00004144        0x0 .\CortexM0\ARM_GCC_493\Debug\testMode.o
 .text.testModeHandler
                0x00004144       0x30 .\CortexM0\ARM_GCC_493\Debug\testMode.o
                0x00004144                testModeHandler
 .text.TestMode
                0x00004174      0x10c .\CortexM0\ARM_GCC_493\Debug\testMode.o
                0x00004174                TestMode
 .text.TestMode_UpdateNewRandomTime
                0x00004280       0x3c .\CortexM0\ARM_GCC_493\Debug\testMode.o
                0x00004280                TestMode_UpdateNewRandomTime
 .text.ReadSwitchState
                0x000042bc       0x80 .\CortexM0\ARM_GCC_493\Debug\testMode.o
                0x000042bc                ReadSwitchState
 .text.ReadNetworkState
                0x0000433c       0x74 .\CortexM0\ARM_GCC_493\Debug\testMode.o
                0x0000433c                ReadNetworkState
 .text.AllowNextTestSkier
                0x000043b0       0x14 .\CortexM0\ARM_GCC_493\Debug\testMode.o
                0x000043b0                AllowNextTestSkier
 .text          0x000043c4        0x0 .\CortexM0\ARM_GCC_493\Debug\taskAutomat.o
 .text.TIMER_HANDLER
                0x000043c4       0x8c .\CortexM0\ARM_GCC_493\Debug\taskAutomat.o
                0x000043c4                TIMER_HANDLER
 .text.TaskCheck
                0x00004450       0x48 .\CortexM0\ARM_GCC_493\Debug\taskAutomat.o
                0x00004450                TaskCheck
 .text.TaskTimerInit
                0x00004498       0x3c .\CortexM0\ARM_GCC_493\Debug\taskAutomat.o
                0x00004498                TaskTimerInit
 .text.SetTaskTimer
                0x000044d4       0x8c .\CortexM0\ARM_GCC_493\Debug\taskAutomat.o
                0x000044d4                SetTaskTimer
 .text.Action1  0x00004560       0x24 .\CortexM0\ARM_GCC_493\Debug\taskAutomat.o
                0x00004560                Action1
 .text.Action2  0x00004584       0x3c .\CortexM0\ARM_GCC_493\Debug\taskAutomat.o
                0x00004584                Action2
 .text.Action3  0x000045c0       0x2c .\CortexM0\ARM_GCC_493\Debug\taskAutomat.o
                0x000045c0                Action3
 .text.Action4  0x000045ec       0x14 .\CortexM0\ARM_GCC_493\Debug\taskAutomat.o
                0x000045ec                Action4
 .text.Action5  0x00004600       0x14 .\CortexM0\ARM_GCC_493\Debug\taskAutomat.o
                0x00004600                Action5
 .text          0x00004614        0x0 .\CortexM0\ARM_GCC_493\Debug\Buttons.o
 .text.BUTT_UP_INTERRUPT
                0x00004614       0x1c .\CortexM0\ARM_GCC_493\Debug\Buttons.o
                0x00004614                BUTT_UP_INTERRUPT
 .text.BUTT_DOWN_INTERRUPT
                0x00004630       0x1c .\CortexM0\ARM_GCC_493\Debug\Buttons.o
                0x00004630                BUTT_DOWN_INTERRUPT
 .text.ButtInit
                0x0000464c       0x30 .\CortexM0\ARM_GCC_493\Debug\Buttons.o
                0x0000464c                ButtInit
 .text.ButtCheck
                0x0000467c       0xc8 .\CortexM0\ARM_GCC_493\Debug\Buttons.o
                0x0000467c                ButtCheck
 .text.ReadIdSkier
                0x00004744       0x14 .\CortexM0\ARM_GCC_493\Debug\Buttons.o
                0x00004744                ReadIdSkier
 .text          0x00004758        0x0 .\CortexM0\ARM_GCC_493\Debug\main.o
 .text.main     0x00004758       0xb4 .\CortexM0\ARM_GCC_493\Debug\main.o
                0x00004758                main
 .text.SystemInit
                0x0000480c       0x68 .\CortexM0\ARM_GCC_493\Debug\main.o
                0x0000480c                SystemInit
 .text.TimeSynchronize
                0x00004874       0x8c .\CortexM0\ARM_GCC_493\Debug\main.o
                0x00004874                TimeSynchronize
 .text.GetFinishStatus
                0x00004900       0x68 .\CortexM0\ARM_GCC_493\Debug\main.o
                0x00004900                GetFinishStatus
 .text.CheckGate
                0x00004968       0x5c .\CortexM0\ARM_GCC_493\Debug\main.o
                0x00004968                CheckGate
 .text.SaveResult
                0x000049c4       0x68 .\CortexM0\ARM_GCC_493\Debug\main.o
                0x000049c4                SaveResult
 .text.Delay    0x00004a2c       0x24 .\CortexM0\ARM_GCC_493\Debug\main.o
                0x00004a2c                Delay
 .text          0x00004a50        0x0 .\CortexM0\ARM_GCC_493\Debug\cymetadata.o
 .text          0x00004a50        0x0 .\CortexM0\ARM_GCC_493\Debug\Cm0Start.o
 .text.IntDefaultHandler
                0x00004a50        0x8 .\CortexM0\ARM_GCC_493\Debug\Cm0Start.o
                0x00004a50                IntDefaultHandler
 .text._exit    0x00004a58       0x14 .\CortexM0\ARM_GCC_493\Debug\Cm0Start.o
                0x00004a58                _exit
 .text._sbrk    0x00004a6c       0x54 .\CortexM0\ARM_GCC_493\Debug\Cm0Start.o
                0x00004a6c                _sbrk
 .text.Start_c  0x00004ac0       0x98 .\CortexM0\ARM_GCC_493\Debug\Cm0Start.o
                0x00004ac0                Start_c
 .text.initialize_psoc
                0x00004b58       0x70 .\CortexM0\ARM_GCC_493\Debug\Cm0Start.o
                0x00004b58                initialize_psoc
 .text          0x00004bc8        0x0 .\CortexM0\ARM_GCC_493\Debug\start_v11.a(cyfitter_cfg.o)
 .text.CYMEMZERO
                0x00004bc8       0x20 .\CortexM0\ARM_GCC_493\Debug\start_v11.a(cyfitter_cfg.o)
 .text.CYCONFIGCPY
                0x00004be8       0x24 .\CortexM0\ARM_GCC_493\Debug\start_v11.a(cyfitter_cfg.o)
 .text.CYCONFIGCPYCODE
                0x00004c0c       0x24 .\CortexM0\ARM_GCC_493\Debug\start_v11.a(cyfitter_cfg.o)
 .text.cfg_write_bytes32
                0x00004c30       0x80 .\CortexM0\ARM_GCC_493\Debug\start_v11.a(cyfitter_cfg.o)
 .text.AnalogSetDefault
                0x00004cb0       0x44 .\CortexM0\ARM_GCC_493\Debug\start_v11.a(cyfitter_cfg.o)
 .text.SetAnalogRoutingPumps
                0x00004cf4       0x40 .\CortexM0\ARM_GCC_493\Debug\start_v11.a(cyfitter_cfg.o)
                0x00004cf4                SetAnalogRoutingPumps
 .text          0x00004d34        0x0 .\CortexM0\ARM_GCC_493\Debug\start_v11.a(CyLib.o)
 .text.CySysClkImoStart
                0x00004d34       0x1c .\CortexM0\ARM_GCC_493\Debug\start_v11.a(CyLib.o)
                0x00004d34                CySysClkImoStart
 .text.CySysClkImoStop
                0x00004d50       0x18 .\CortexM0\ARM_GCC_493\Debug\start_v11.a(CyLib.o)
                0x00004d50                CySysClkImoStop
 .text.CySysClkWriteHfclkDirect
                0x00004d68       0x48 .\CortexM0\ARM_GCC_493\Debug\start_v11.a(CyLib.o)
                0x00004d68                CySysClkWriteHfclkDirect
 .text.CySysClkGetSysclkSource
                0x00004db0       0x34 .\CortexM0\ARM_GCC_493\Debug\start_v11.a(CyLib.o)
                0x00004db0                CySysClkGetSysclkSource
 .text.CySysClkWriteSysclkDiv
                0x00004de4       0x44 .\CortexM0\ARM_GCC_493\Debug\start_v11.a(CyLib.o)
                0x00004de4                CySysClkWriteSysclkDiv
 .text.CySysClkWriteImoFreq
                0x00004e28       0x98 .\CortexM0\ARM_GCC_493\Debug\start_v11.a(CyLib.o)
                0x00004e28                CySysClkWriteImoFreq
 .text.CySysClkEcoStart
                0x00004ec0       0x74 .\CortexM0\ARM_GCC_493\Debug\start_v11.a(CyLib.o)
                0x00004ec0                CySysClkEcoStart
 .text.CySysClkEcoStop
                0x00004f34       0x2c .\CortexM0\ARM_GCC_493\Debug\start_v11.a(CyLib.o)
                0x00004f34                CySysClkEcoStop
 .text.CySysClkEcoReadStatus
                0x00004f60       0x20 .\CortexM0\ARM_GCC_493\Debug\start_v11.a(CyLib.o)
                0x00004f60                CySysClkEcoReadStatus
 .text.CySysClkWriteEcoDiv
                0x00004f80       0x58 .\CortexM0\ARM_GCC_493\Debug\start_v11.a(CyLib.o)
                0x00004f80                CySysClkWriteEcoDiv
 .text.CySysLvdEnable
                0x00004fd8       0x60 .\CortexM0\ARM_GCC_493\Debug\start_v11.a(CyLib.o)
                0x00004fd8                CySysLvdEnable
 .text.CySysLvdDisable
                0x00005038       0x28 .\CortexM0\ARM_GCC_493\Debug\start_v11.a(CyLib.o)
                0x00005038                CySysLvdDisable
 .text.CySysLvdGetInterruptSource
                0x00005060       0x18 .\CortexM0\ARM_GCC_493\Debug\start_v11.a(CyLib.o)
                0x00005060                CySysLvdGetInterruptSource
 .text.CySysLvdClearInterrupt
                0x00005078       0x14 .\CortexM0\ARM_GCC_493\Debug\start_v11.a(CyLib.o)
                0x00005078                CySysLvdClearInterrupt
 .text.CySysGetResetReason
                0x0000508c       0x30 .\CortexM0\ARM_GCC_493\Debug\start_v11.a(CyLib.o)
                0x0000508c                CySysGetResetReason
 .text.CyDisableInts
                0x000050bc       0x24 .\CortexM0\ARM_GCC_493\Debug\start_v11.a(CyLib.o)
                0x000050bc                CyDisableInts
 .text.CyEnableInts
                0x000050e0       0x18 .\CortexM0\ARM_GCC_493\Debug\start_v11.a(CyLib.o)
                0x000050e0                CyEnableInts
 .text.CyIntSetSysVector
                0x000050f8       0x48 .\CortexM0\ARM_GCC_493\Debug\start_v11.a(CyLib.o)
                0x000050f8                CyIntSetSysVector
 .text.CyIntGetSysVector
                0x00005140       0x34 .\CortexM0\ARM_GCC_493\Debug\start_v11.a(CyLib.o)
                0x00005140                CyIntGetSysVector
 .text.CyIntSetVector
                0x00005174       0x4c .\CortexM0\ARM_GCC_493\Debug\start_v11.a(CyLib.o)
                0x00005174                CyIntSetVector
 .text.CyIntGetVector
                0x000051c0       0x38 .\CortexM0\ARM_GCC_493\Debug\start_v11.a(CyLib.o)
                0x000051c0                CyIntGetVector
 .text.CyIntSetPriority
                0x000051f8       0xa8 .\CortexM0\ARM_GCC_493\Debug\start_v11.a(CyLib.o)
                0x000051f8                CyIntSetPriority
 .text.CyIntGetPriority
                0x000052a0       0x5c .\CortexM0\ARM_GCC_493\Debug\start_v11.a(CyLib.o)
                0x000052a0                CyIntGetPriority
 .text.CyIntEnable
                0x000052fc       0x28 .\CortexM0\ARM_GCC_493\Debug\start_v11.a(CyLib.o)
                0x000052fc                CyIntEnable
 .text.CyIntGetState
                0x00005324       0x30 .\CortexM0\ARM_GCC_493\Debug\start_v11.a(CyLib.o)
                0x00005324                CyIntGetState
 .text.CyIntDisable
                0x00005354       0x28 .\CortexM0\ARM_GCC_493\Debug\start_v11.a(CyLib.o)
                0x00005354                CyIntDisable
 .text.CyIntSetPending
                0x0000537c       0x28 .\CortexM0\ARM_GCC_493\Debug\start_v11.a(CyLib.o)
                0x0000537c                CyIntSetPending
 .text.CyIntClearPending
                0x000053a4       0x28 .\CortexM0\ARM_GCC_493\Debug\start_v11.a(CyLib.o)
                0x000053a4                CyIntClearPending
 .text.CyHalt   0x000053cc       0x14 .\CortexM0\ARM_GCC_493\Debug\start_v11.a(CyLib.o)
                0x000053cc                CyHalt
 .text.CySoftwareReset
                0x000053e0       0x20 .\CortexM0\ARM_GCC_493\Debug\start_v11.a(CyLib.o)
                0x000053e0                CySoftwareReset
 .text.CyDelay  0x00005400       0x48 .\CortexM0\ARM_GCC_493\Debug\start_v11.a(CyLib.o)
                0x00005400                CyDelay
 .text.CyDelayUs
                0x00005448       0x28 .\CortexM0\ARM_GCC_493\Debug\start_v11.a(CyLib.o)
                0x00005448                CyDelayUs
 .text.CyDelayFreq
                0x00005470       0x84 .\CortexM0\ARM_GCC_493\Debug\start_v11.a(CyLib.o)
                0x00005470                CyDelayFreq
 .text.CySysTickStart
                0x000054f4       0x24 .\CortexM0\ARM_GCC_493\Debug\start_v11.a(CyLib.o)
                0x000054f4                CySysTickStart
 .text.CySysTickInit
                0x00005518       0x64 .\CortexM0\ARM_GCC_493\Debug\start_v11.a(CyLib.o)
                0x00005518                CySysTickInit
 .text.CySysTickEnable
                0x0000557c       0x1c .\CortexM0\ARM_GCC_493\Debug\start_v11.a(CyLib.o)
                0x0000557c                CySysTickEnable
 .text.CySysTickStop
                0x00005598       0x18 .\CortexM0\ARM_GCC_493\Debug\start_v11.a(CyLib.o)
                0x00005598                CySysTickStop
 .text.CySysTickEnableInterrupt
                0x000055b0       0x18 .\CortexM0\ARM_GCC_493\Debug\start_v11.a(CyLib.o)
                0x000055b0                CySysTickEnableInterrupt
 .text.CySysTickDisableInterrupt
                0x000055c8       0x18 .\CortexM0\ARM_GCC_493\Debug\start_v11.a(CyLib.o)
                0x000055c8                CySysTickDisableInterrupt
 .text.CySysTickSetReload
                0x000055e0       0x1c .\CortexM0\ARM_GCC_493\Debug\start_v11.a(CyLib.o)
                0x000055e0                CySysTickSetReload
 .text.CySysTickGetReload
                0x000055fc       0x18 .\CortexM0\ARM_GCC_493\Debug\start_v11.a(CyLib.o)
                0x000055fc                CySysTickGetReload
 .text.CySysTickGetValue
                0x00005614       0x18 .\CortexM0\ARM_GCC_493\Debug\start_v11.a(CyLib.o)
                0x00005614                CySysTickGetValue
 .text.CySysTickSetClockSource
                0x0000562c       0x34 .\CortexM0\ARM_GCC_493\Debug\start_v11.a(CyLib.o)
                0x0000562c                CySysTickSetClockSource
 .text.CySysTickGetCountFlag
                0x00005660       0x18 .\CortexM0\ARM_GCC_493\Debug\start_v11.a(CyLib.o)
                0x00005660                CySysTickGetCountFlag
 .text.CySysTickClear
                0x00005678       0x14 .\CortexM0\ARM_GCC_493\Debug\start_v11.a(CyLib.o)
                0x00005678                CySysTickClear
 .text.CySysTickSetCallback
                0x0000568c       0x2c .\CortexM0\ARM_GCC_493\Debug\start_v11.a(CyLib.o)
                0x0000568c                CySysTickSetCallback
 .text.CySysTickGetCallback
                0x000056b8       0x1c .\CortexM0\ARM_GCC_493\Debug\start_v11.a(CyLib.o)
                0x000056b8                CySysTickGetCallback
 .text.CySysTickServiceCallbacks
                0x000056d4       0x44 .\CortexM0\ARM_GCC_493\Debug\start_v11.a(CyLib.o)
 .text.CyGetUniqueId
                0x00005718       0xc0 .\CortexM0\ARM_GCC_493\Debug\start_v11.a(CyLib.o)
                0x00005718                CyGetUniqueId
 .text          0x000057d8        0x0 .\CortexM0\ARM_GCC_493\Debug\start_v11.a(CyLFClk.o)
 .text.CySysClkWcoSetHighPowerMode
                0x000057d8       0x48 .\CortexM0\ARM_GCC_493\Debug\start_v11.a(CyLFClk.o)
 .text.CySysClkWcoSetLowPowerMode
                0x00005820       0x48 .\CortexM0\ARM_GCC_493\Debug\start_v11.a(CyLFClk.o)
 .text.CySysClkIloStart
                0x00005868       0x1c .\CortexM0\ARM_GCC_493\Debug\start_v11.a(CyLFClk.o)
                0x00005868                CySysClkIloStart
 .text.CySysClkIloStop
                0x00005884       0x60 .\CortexM0\ARM_GCC_493\Debug\start_v11.a(CyLFClk.o)
                0x00005884                CySysClkIloStop
 .text.CySysClkIloStartMeasurement
                0x000058e4       0x6c .\CortexM0\ARM_GCC_493\Debug\start_v11.a(CyLFClk.o)
                0x000058e4                CySysClkIloStartMeasurement
 .text.CySysClkIloStopMeasurement
                0x00005950       0x1c .\CortexM0\ARM_GCC_493\Debug\start_v11.a(CyLFClk.o)
                0x00005950                CySysClkIloStopMeasurement
 .text.CySysClkIloCompensate
                0x0000596c      0x15c .\CortexM0\ARM_GCC_493\Debug\start_v11.a(CyLFClk.o)
                0x0000596c                CySysClkIloCompensate
 .text.CySysClkIloEnabled
                0x00005ac8       0x1c .\CortexM0\ARM_GCC_493\Debug\start_v11.a(CyLFClk.o)
 .text.CySysClkIloTrim
                0x00005ae4      0x124 .\CortexM0\ARM_GCC_493\Debug\start_v11.a(CyLFClk.o)
                0x00005ae4                CySysClkIloTrim
 .text.CySysClkIloUpdateTrimReg
                0x00005c08       0xfc .\CortexM0\ARM_GCC_493\Debug\start_v11.a(CyLFClk.o)
                0x00005c08                CySysClkIloUpdateTrimReg
 .text.CySysClkIloRestoreFactoryTrim
                0x00005d04       0x4c .\CortexM0\ARM_GCC_493\Debug\start_v11.a(CyLFClk.o)
                0x00005d04                CySysClkIloRestoreFactoryTrim
 .text.CySysClkGetLfclkSource
                0x00005d50       0x20 .\CortexM0\ARM_GCC_493\Debug\start_v11.a(CyLFClk.o)
 .text.CySysClkSetLfclkSource
                0x00005d70       0x54 .\CortexM0\ARM_GCC_493\Debug\start_v11.a(CyLFClk.o)
                0x00005d70                CySysClkSetLfclkSource
 .text.CySysClkWcoStart
                0x00005dc4       0x20 .\CortexM0\ARM_GCC_493\Debug\start_v11.a(CyLFClk.o)
                0x00005dc4                CySysClkWcoStart
 .text.CySysClkWcoStop
                0x00005de4       0x5c .\CortexM0\ARM_GCC_493\Debug\start_v11.a(CyLFClk.o)
                0x00005de4                CySysClkWcoStop
 .text.CySysClkWcoEnabled
                0x00005e40       0x1c .\CortexM0\ARM_GCC_493\Debug\start_v11.a(CyLFClk.o)
                0x00005e40                CySysClkWcoEnabled
 .text.CySysClkWcoSetPowerMode
                0x00005e5c       0x40 .\CortexM0\ARM_GCC_493\Debug\start_v11.a(CyLFClk.o)
                0x00005e5c                CySysClkWcoSetPowerMode
 .text.CySysClkWcoClockOutSelect
                0x00005e9c       0x3c .\CortexM0\ARM_GCC_493\Debug\start_v11.a(CyLFClk.o)
                0x00005e9c                CySysClkWcoClockOutSelect
 .text.CySysWdtLock
                0x00005ed8       0x34 .\CortexM0\ARM_GCC_493\Debug\start_v11.a(CyLFClk.o)
                0x00005ed8                CySysWdtLock
 .text.CySysWdtLocked
                0x00005f0c       0x20 .\CortexM0\ARM_GCC_493\Debug\start_v11.a(CyLFClk.o)
 .text.CySysWdtUnlock
                0x00005f2c       0x4c .\CortexM0\ARM_GCC_493\Debug\start_v11.a(CyLFClk.o)
                0x00005f2c                CySysWdtUnlock
 .text.CySysWdtGetEnabledStatus
                0x00005f78       0x30 .\CortexM0\ARM_GCC_493\Debug\start_v11.a(CyLFClk.o)
                0x00005f78                CySysWdtGetEnabledStatus
 .text.CySysWdtSetMode
                0x00005fa8       0x58 .\CortexM0\ARM_GCC_493\Debug\start_v11.a(CyLFClk.o)
                0x00005fa8                CySysWdtSetMode
 .text.CySysWdtGetMode
                0x00006000       0x24 .\CortexM0\ARM_GCC_493\Debug\start_v11.a(CyLFClk.o)
                0x00006000                CySysWdtGetMode
 .text.CySysWdtSetClearOnMatch
                0x00006024       0x6c .\CortexM0\ARM_GCC_493\Debug\start_v11.a(CyLFClk.o)
                0x00006024                CySysWdtSetClearOnMatch
 .text.CySysWdtGetClearOnMatch
                0x00006090       0x40 .\CortexM0\ARM_GCC_493\Debug\start_v11.a(CyLFClk.o)
                0x00006090                CySysWdtGetClearOnMatch
 .text.CySysWdtEnable
                0x000060d0       0x60 .\CortexM0\ARM_GCC_493\Debug\start_v11.a(CyLFClk.o)
                0x000060d0                CySysWdtEnable
 .text.CySysWdtDisable
                0x00006130       0x68 .\CortexM0\ARM_GCC_493\Debug\start_v11.a(CyLFClk.o)
                0x00006130                CySysWdtDisable
 .text.CySysWdtSetCascade
                0x00006198       0x58 .\CortexM0\ARM_GCC_493\Debug\start_v11.a(CyLFClk.o)
                0x00006198                CySysWdtSetCascade
 .text.CySysWdtGetCascade
                0x000061f0       0x1c .\CortexM0\ARM_GCC_493\Debug\start_v11.a(CyLFClk.o)
                0x000061f0                CySysWdtGetCascade
 .text.CySysWdtSetMatch
                0x0000620c       0x90 .\CortexM0\ARM_GCC_493\Debug\start_v11.a(CyLFClk.o)
                0x0000620c                CySysWdtSetMatch
 .text.CySysWdtSetToggleBit
                0x0000629c       0x44 .\CortexM0\ARM_GCC_493\Debug\start_v11.a(CyLFClk.o)
                0x0000629c                CySysWdtSetToggleBit
 .text.CySysWdtGetToggleBit
                0x000062e0       0x18 .\CortexM0\ARM_GCC_493\Debug\start_v11.a(CyLFClk.o)
                0x000062e0                CySysWdtGetToggleBit
 .text.CySysWdtGetMatch
                0x000062f8       0x40 .\CortexM0\ARM_GCC_493\Debug\start_v11.a(CyLFClk.o)
                0x000062f8                CySysWdtGetMatch
 .text.CySysWdtGetCount
                0x00006338       0x54 .\CortexM0\ARM_GCC_493\Debug\start_v11.a(CyLFClk.o)
                0x00006338                CySysWdtGetCount
 .text.CySysWdtGetInterruptSource
                0x0000638c       0x1c .\CortexM0\ARM_GCC_493\Debug\start_v11.a(CyLFClk.o)
                0x0000638c                CySysWdtGetInterruptSource
 .text.CySysWdtClearInterrupt
                0x000063a8       0x70 .\CortexM0\ARM_GCC_493\Debug\start_v11.a(CyLFClk.o)
                0x000063a8                CySysWdtClearInterrupt
 .text.CySysWdtResetCounters
                0x00006418       0x34 .\CortexM0\ARM_GCC_493\Debug\start_v11.a(CyLFClk.o)
                0x00006418                CySysWdtResetCounters
 .text.CySysWdtSetInterruptCallback
                0x0000644c       0x40 .\CortexM0\ARM_GCC_493\Debug\start_v11.a(CyLFClk.o)
                0x0000644c                CySysWdtSetInterruptCallback
 .text.CySysWdtGetInterruptCallback
                0x0000648c       0x34 .\CortexM0\ARM_GCC_493\Debug\start_v11.a(CyLFClk.o)
                0x0000648c                CySysWdtGetInterruptCallback
 .text.CySysWdtEnableCounterIsr
                0x000064c0       0x50 .\CortexM0\ARM_GCC_493\Debug\start_v11.a(CyLFClk.o)
                0x000064c0                CySysWdtEnableCounterIsr
 .text.CySysWdtDisableCounterIsr
                0x00006510       0x38 .\CortexM0\ARM_GCC_493\Debug\start_v11.a(CyLFClk.o)
                0x00006510                CySysWdtDisableCounterIsr
 .text.CySysWdtIsr
                0x00006548       0xe8 .\CortexM0\ARM_GCC_493\Debug\start_v11.a(CyLFClk.o)
                0x00006548                CySysWdtIsr
 .text.CySysWatchdogFeed
                0x00006630       0x88 .\CortexM0\ARM_GCC_493\Debug\start_v11.a(CyLFClk.o)
                0x00006630                CySysWatchdogFeed
 .text.CySysClkLfclkPosedgeCatch
                0x000066b8       0x98 .\CortexM0\ARM_GCC_493\Debug\start_v11.a(CyLFClk.o)
 .text.CySysClkLfclkPosedgeRestore
                0x00006750       0x3c .\CortexM0\ARM_GCC_493\Debug\start_v11.a(CyLFClk.o)
 .text.CySysTimerDelay
                0x0000678c       0x6c .\CortexM0\ARM_GCC_493\Debug\start_v11.a(CyLFClk.o)
                0x0000678c                CySysTimerDelay
 .text.CySysTimerDelayUntilMatch
                0x000067f8       0xac .\CortexM0\ARM_GCC_493\Debug\start_v11.a(CyLFClk.o)
                0x000067f8                CySysTimerDelayUntilMatch
 .text          0x000068a4        0x0 .\CortexM0\ARM_GCC_493\Debug\start_v11.a(RTC.o)
 .text.RTC_IsBitSet
                0x000068a4       0x24 .\CortexM0\ARM_GCC_493\Debug\start_v11.a(RTC.o)
 .text.RTC_LeapYear
                0x000068c8       0x44 .\CortexM0\ARM_GCC_493\Debug\start_v11.a(RTC.o)
 .text.RTC_GetSecond
                0x0000690c       0x30 .\CortexM0\ARM_GCC_493\Debug\start_v11.a(RTC.o)
 .text.RTC_GetMinutes
                0x0000693c       0x38 .\CortexM0\ARM_GCC_493\Debug\start_v11.a(RTC.o)
 .text.RTC_GetHours
                0x00006974       0x38 .\CortexM0\ARM_GCC_493\Debug\start_v11.a(RTC.o)
 .text.RTC_GetAmPm
                0x000069ac       0x20 .\CortexM0\ARM_GCC_493\Debug\start_v11.a(RTC.o)
 .text.RTC_GetDay
                0x000069cc       0x38 .\CortexM0\ARM_GCC_493\Debug\start_v11.a(RTC.o)
 .text.RTC_GetMonth
                0x00006a04       0x38 .\CortexM0\ARM_GCC_493\Debug\start_v11.a(RTC.o)
 .text.RTC_GetYear
                0x00006a3c       0x5c .\CortexM0\ARM_GCC_493\Debug\start_v11.a(RTC.o)
 .text.RTC_GetTimeFormat
                0x00006a98       0x20 .\CortexM0\ARM_GCC_493\Debug\start_v11.a(RTC.o)
 .text.RTC_ConstructTime
                0x00006ab8       0xa0 .\CortexM0\ARM_GCC_493\Debug\start_v11.a(RTC.o)
 .text.RTC_ConstructDate
                0x00006b58       0xd8 .\CortexM0\ARM_GCC_493\Debug\start_v11.a(RTC.o)
 .text.RTC_GetDayOfWeek
                0x00006c30       0x88 .\CortexM0\ARM_GCC_493\Debug\start_v11.a(RTC.o)
 .text.RTC_Start
                0x00006cb8       0x18 .\CortexM0\ARM_GCC_493\Debug\start_v11.a(RTC.o)
                0x00006cb8                RTC_Start
 .text.RTC_Stop
                0x00006cd0        0x8 .\CortexM0\ARM_GCC_493\Debug\start_v11.a(RTC.o)
                0x00006cd0                RTC_Stop
 .text.RTC_Init
                0x00006cd8       0x70 .\CortexM0\ARM_GCC_493\Debug\start_v11.a(RTC.o)
                0x00006cd8                RTC_Init
 .text.RTC_SetDateAndTime
                0x00006d48       0x74 .\CortexM0\ARM_GCC_493\Debug\start_v11.a(RTC.o)
                0x00006d48                RTC_SetDateAndTime
 .text.RTC_SetUnixTime
                0x00006dbc       0x34 .\CortexM0\ARM_GCC_493\Debug\start_v11.a(RTC.o)
                0x00006dbc                RTC_SetUnixTime
 .text.RTC_GetUnixTime
                0x00006df0       0x18 .\CortexM0\ARM_GCC_493\Debug\start_v11.a(RTC.o)
                0x00006df0                RTC_GetUnixTime
 .text.RTC_SetPeriod
                0x00006e08       0x24 .\CortexM0\ARM_GCC_493\Debug\start_v11.a(RTC.o)
                0x00006e08                RTC_SetPeriod
 .text.RTC_GetPeriod
                0x00006e2c       0x14 .\CortexM0\ARM_GCC_493\Debug\start_v11.a(RTC.o)
                0x00006e2c                RTC_GetPeriod
 .text.RTC_GetRefOneSec
                0x00006e40       0x14 .\CortexM0\ARM_GCC_493\Debug\start_v11.a(RTC.o)
                0x00006e40                RTC_GetRefOneSec
 .text.RTC_GetDateAndTime
                0x00006e54       0x3c .\CortexM0\ARM_GCC_493\Debug\start_v11.a(RTC.o)
                0x00006e54                RTC_GetDateAndTime
 .text.RTC_GetTime
                0x00006e90       0x44 .\CortexM0\ARM_GCC_493\Debug\start_v11.a(RTC.o)
                0x00006e90                RTC_GetTime
 .text.RTC_GetDate
                0x00006ed4       0x44 .\CortexM0\ARM_GCC_493\Debug\start_v11.a(RTC.o)
                0x00006ed4                RTC_GetDate
 .text.RTC_ReadStatus
                0x00006f18       0x80 .\CortexM0\ARM_GCC_493\Debug\start_v11.a(RTC.o)
                0x00006f18                RTC_ReadStatus
 .text.RTC_ConvertBCDToDec
                0x00006f98       0x50 .\CortexM0\ARM_GCC_493\Debug\start_v11.a(RTC.o)
                0x00006f98                RTC_ConvertBCDToDec
 .text.RTC_ConvertDecToBCD
                0x00006fe8       0x60 .\CortexM0\ARM_GCC_493\Debug\start_v11.a(RTC.o)
                0x00006fe8                RTC_ConvertDecToBCD
 .text.RTC_Update
                0x00007048       0x4c .\CortexM0\ARM_GCC_493\Debug\start_v11.a(RTC.o)
                0x00007048                RTC_Update
 .text.RTC_DateTimeToUnix
                0x00007094      0x190 .\CortexM0\ARM_GCC_493\Debug\start_v11.a(RTC.o)
                0x00007094                RTC_DateTimeToUnix
 .text.RTC_UnixToDateTime
                0x00007224      0x2ac .\CortexM0\ARM_GCC_493\Debug\start_v11.a(RTC.o)
                0x00007224                RTC_UnixToDateTime
 .text.RTC_RelativeToFixed
                0x000074d0       0x84 .\CortexM0\ARM_GCC_493\Debug\start_v11.a(RTC.o)
                0x000074d0                RTC_RelativeToFixed
 .text.RTC_DaysInMonth
                0x00007554       0x3c .\CortexM0\ARM_GCC_493\Debug\start_v11.a(RTC.o)
                0x00007554                RTC_DaysInMonth
 .text.RTC_DaysBeforeMonth
                0x00007590       0x3c .\CortexM0\ARM_GCC_493\Debug\start_v11.a(RTC.o)
                0x00007590                RTC_DaysBeforeMonth
 .text          0x000075cc        0x0 .\CortexM0\ARM_GCC_493\Debug\start_v11.a(GatePin.o)
 .text.GatePin_SetDriveMode
                0x000075cc       0x2c .\CortexM0\ARM_GCC_493\Debug\start_v11.a(GatePin.o)
                0x000075cc                GatePin_SetDriveMode
 .text.GatePin_Write
                0x000075f8       0x4c .\CortexM0\ARM_GCC_493\Debug\start_v11.a(GatePin.o)
                0x000075f8                GatePin_Write
 .text.GatePin_Read
                0x00007644       0x1c .\CortexM0\ARM_GCC_493\Debug\start_v11.a(GatePin.o)
                0x00007644                GatePin_Read
 .text.GatePin_ReadDataReg
                0x00007660       0x1c .\CortexM0\ARM_GCC_493\Debug\start_v11.a(GatePin.o)
                0x00007660                GatePin_ReadDataReg
 .text.GatePin_SetInterruptMode
                0x0000767c       0x40 .\CortexM0\ARM_GCC_493\Debug\start_v11.a(GatePin.o)
                0x0000767c                GatePin_SetInterruptMode
 .text.GatePin_ClearInterrupt
                0x000076bc       0x30 .\CortexM0\ARM_GCC_493\Debug\start_v11.a(GatePin.o)
                0x000076bc                GatePin_ClearInterrupt
 .text          0x000076ec        0x0 .\CortexM0\ARM_GCC_493\Debug\start_v11.a(Timer_LED.o)
 .text.Timer_LED_Init
                0x000076ec       0x40 .\CortexM0\ARM_GCC_493\Debug\start_v11.a(Timer_LED.o)
                0x000076ec                Timer_LED_Init
 .text.Timer_LED_Enable
                0x0000772c       0x38 .\CortexM0\ARM_GCC_493\Debug\start_v11.a(Timer_LED.o)
                0x0000772c                Timer_LED_Enable
 .text.Timer_LED_Start
                0x00007764       0x24 .\CortexM0\ARM_GCC_493\Debug\start_v11.a(Timer_LED.o)
                0x00007764                Timer_LED_Start
 .text.Timer_LED_Stop
                0x00007788       0x30 .\CortexM0\ARM_GCC_493\Debug\start_v11.a(Timer_LED.o)
                0x00007788                Timer_LED_Stop
 .text.Timer_LED_SetMode
                0x000077b8       0x48 .\CortexM0\ARM_GCC_493\Debug\start_v11.a(Timer_LED.o)
                0x000077b8                Timer_LED_SetMode
 .text.Timer_LED_SetQDMode
                0x00007800       0x48 .\CortexM0\ARM_GCC_493\Debug\start_v11.a(Timer_LED.o)
                0x00007800                Timer_LED_SetQDMode
 .text.Timer_LED_SetPrescaler
                0x00007848       0x48 .\CortexM0\ARM_GCC_493\Debug\start_v11.a(Timer_LED.o)
                0x00007848                Timer_LED_SetPrescaler
 .text.Timer_LED_SetOneShot
                0x00007890       0x4c .\CortexM0\ARM_GCC_493\Debug\start_v11.a(Timer_LED.o)
                0x00007890                Timer_LED_SetOneShot
 .text.Timer_LED_SetPWMMode
                0x000078dc       0x1c .\CortexM0\ARM_GCC_493\Debug\start_v11.a(Timer_LED.o)
                0x000078dc                Timer_LED_SetPWMMode
 .text.Timer_LED_SetPWMSyncKill
                0x000078f8       0x48 .\CortexM0\ARM_GCC_493\Debug\start_v11.a(Timer_LED.o)
                0x000078f8                Timer_LED_SetPWMSyncKill
 .text.Timer_LED_SetPWMStopOnKill
                0x00007940       0x48 .\CortexM0\ARM_GCC_493\Debug\start_v11.a(Timer_LED.o)
                0x00007940                Timer_LED_SetPWMStopOnKill
 .text.Timer_LED_SetPWMDeadTime
                0x00007988       0x4c .\CortexM0\ARM_GCC_493\Debug\start_v11.a(Timer_LED.o)
                0x00007988                Timer_LED_SetPWMDeadTime
 .text.Timer_LED_SetPWMInvert
                0x000079d4       0x48 .\CortexM0\ARM_GCC_493\Debug\start_v11.a(Timer_LED.o)
                0x000079d4                Timer_LED_SetPWMInvert
 .text.Timer_LED_WriteCounter
                0x00007a1c       0x1c .\CortexM0\ARM_GCC_493\Debug\start_v11.a(Timer_LED.o)
                0x00007a1c                Timer_LED_WriteCounter
 .text.Timer_LED_ReadCounter
                0x00007a38       0x18 .\CortexM0\ARM_GCC_493\Debug\start_v11.a(Timer_LED.o)
                0x00007a38                Timer_LED_ReadCounter
 .text.Timer_LED_SetCounterMode
                0x00007a50       0x48 .\CortexM0\ARM_GCC_493\Debug\start_v11.a(Timer_LED.o)
                0x00007a50                Timer_LED_SetCounterMode
 .text.Timer_LED_WritePeriod
                0x00007a98       0x1c .\CortexM0\ARM_GCC_493\Debug\start_v11.a(Timer_LED.o)
                0x00007a98                Timer_LED_WritePeriod
 .text.Timer_LED_ReadPeriod
                0x00007ab4       0x18 .\CortexM0\ARM_GCC_493\Debug\start_v11.a(Timer_LED.o)
                0x00007ab4                Timer_LED_ReadPeriod
 .text.Timer_LED_SetCompareSwap
                0x00007acc       0x48 .\CortexM0\ARM_GCC_493\Debug\start_v11.a(Timer_LED.o)
                0x00007acc                Timer_LED_SetCompareSwap
 .text.Timer_LED_WritePeriodBuf
                0x00007b14       0x1c .\CortexM0\ARM_GCC_493\Debug\start_v11.a(Timer_LED.o)
                0x00007b14                Timer_LED_WritePeriodBuf
 .text.Timer_LED_ReadPeriodBuf
                0x00007b30       0x18 .\CortexM0\ARM_GCC_493\Debug\start_v11.a(Timer_LED.o)
                0x00007b30                Timer_LED_ReadPeriodBuf
 .text.Timer_LED_SetPeriodSwap
                0x00007b48       0x48 .\CortexM0\ARM_GCC_493\Debug\start_v11.a(Timer_LED.o)
                0x00007b48                Timer_LED_SetPeriodSwap
 .text.Timer_LED_WriteCompare
                0x00007b90       0x1c .\CortexM0\ARM_GCC_493\Debug\start_v11.a(Timer_LED.o)
                0x00007b90                Timer_LED_WriteCompare
 .text.Timer_LED_ReadCompare
                0x00007bac       0x18 .\CortexM0\ARM_GCC_493\Debug\start_v11.a(Timer_LED.o)
                0x00007bac                Timer_LED_ReadCompare
 .text.Timer_LED_WriteCompareBuf
                0x00007bc4       0x1c .\CortexM0\ARM_GCC_493\Debug\start_v11.a(Timer_LED.o)
                0x00007bc4                Timer_LED_WriteCompareBuf
 .text.Timer_LED_ReadCompareBuf
                0x00007be0       0x18 .\CortexM0\ARM_GCC_493\Debug\start_v11.a(Timer_LED.o)
                0x00007be0                Timer_LED_ReadCompareBuf
 .text.Timer_LED_ReadCapture
                0x00007bf8       0x18 .\CortexM0\ARM_GCC_493\Debug\start_v11.a(Timer_LED.o)
                0x00007bf8                Timer_LED_ReadCapture
 .text.Timer_LED_ReadCaptureBuf
                0x00007c10       0x18 .\CortexM0\ARM_GCC_493\Debug\start_v11.a(Timer_LED.o)
                0x00007c10                Timer_LED_ReadCaptureBuf
 .text.Timer_LED_SetCaptureMode
                0x00007c28       0x44 .\CortexM0\ARM_GCC_493\Debug\start_v11.a(Timer_LED.o)
                0x00007c28                Timer_LED_SetCaptureMode
 .text.Timer_LED_SetReloadMode
                0x00007c6c       0x44 .\CortexM0\ARM_GCC_493\Debug\start_v11.a(Timer_LED.o)
                0x00007c6c                Timer_LED_SetReloadMode
 .text.Timer_LED_SetStartMode
                0x00007cb0       0x48 .\CortexM0\ARM_GCC_493\Debug\start_v11.a(Timer_LED.o)
                0x00007cb0                Timer_LED_SetStartMode
 .text.Timer_LED_SetStopMode
                0x00007cf8       0x44 .\CortexM0\ARM_GCC_493\Debug\start_v11.a(Timer_LED.o)
                0x00007cf8                Timer_LED_SetStopMode
 .text.Timer_LED_SetCountMode
                0x00007d3c       0x44 .\CortexM0\ARM_GCC_493\Debug\start_v11.a(Timer_LED.o)
                0x00007d3c                Timer_LED_SetCountMode
 .text.Timer_LED_TriggerCommand
                0x00007d80       0x38 .\CortexM0\ARM_GCC_493\Debug\start_v11.a(Timer_LED.o)
                0x00007d80                Timer_LED_TriggerCommand
 .text.Timer_LED_ReadStatus
                0x00007db8       0x20 .\CortexM0\ARM_GCC_493\Debug\start_v11.a(Timer_LED.o)
                0x00007db8                Timer_LED_ReadStatus
 .text.Timer_LED_SetInterruptMode
                0x00007dd8       0x18 .\CortexM0\ARM_GCC_493\Debug\start_v11.a(Timer_LED.o)
                0x00007dd8                Timer_LED_SetInterruptMode
 .text.Timer_LED_GetInterruptSourceMasked
                0x00007df0       0x14 .\CortexM0\ARM_GCC_493\Debug\start_v11.a(Timer_LED.o)
                0x00007df0                Timer_LED_GetInterruptSourceMasked
 .text.Timer_LED_GetInterruptSource
                0x00007e04       0x14 .\CortexM0\ARM_GCC_493\Debug\start_v11.a(Timer_LED.o)
                0x00007e04                Timer_LED_GetInterruptSource
 .text.Timer_LED_ClearInterrupt
                0x00007e18       0x18 .\CortexM0\ARM_GCC_493\Debug\start_v11.a(Timer_LED.o)
                0x00007e18                Timer_LED_ClearInterrupt
 .text.Timer_LED_SetInterrupt
                0x00007e30       0x18 .\CortexM0\ARM_GCC_493\Debug\start_v11.a(Timer_LED.o)
                0x00007e30                Timer_LED_SetInterrupt
 .text          0x00007e48        0x0 .\CortexM0\ARM_GCC_493\Debug\start_v11.a(Int_Timer_Led.o)
 .text.Int_Timer_Led_Start
                0x00007e48       0x24 .\CortexM0\ARM_GCC_493\Debug\start_v11.a(Int_Timer_Led.o)
                0x00007e48                Int_Timer_Led_Start
 .text.Int_Timer_Led_StartEx
                0x00007e6c       0x24 .\CortexM0\ARM_GCC_493\Debug\start_v11.a(Int_Timer_Led.o)
                0x00007e6c                Int_Timer_Led_StartEx
 .text.Int_Timer_Led_Stop
                0x00007e90       0x18 .\CortexM0\ARM_GCC_493\Debug\start_v11.a(Int_Timer_Led.o)
                0x00007e90                Int_Timer_Led_Stop
 .text.Int_Timer_Led_Interrupt
                0x00007ea8        0x8 .\CortexM0\ARM_GCC_493\Debug\start_v11.a(Int_Timer_Led.o)
                0x00007ea8                Int_Timer_Led_Interrupt
 .text.Int_Timer_Led_SetVector
                0x00007eb0       0x1c .\CortexM0\ARM_GCC_493\Debug\start_v11.a(Int_Timer_Led.o)
                0x00007eb0                Int_Timer_Led_SetVector
 .text.Int_Timer_Led_GetVector
                0x00007ecc       0x14 .\CortexM0\ARM_GCC_493\Debug\start_v11.a(Int_Timer_Led.o)
                0x00007ecc                Int_Timer_Led_GetVector
 .text.Int_Timer_Led_SetPriority
                0x00007ee0       0x50 .\CortexM0\ARM_GCC_493\Debug\start_v11.a(Int_Timer_Led.o)
                0x00007ee0                Int_Timer_Led_SetPriority
 .text.Int_Timer_Led_GetPriority
                0x00007f30       0x2c .\CortexM0\ARM_GCC_493\Debug\start_v11.a(Int_Timer_Led.o)
                0x00007f30                Int_Timer_Led_GetPriority
 .text.Int_Timer_Led_Enable
                0x00007f5c       0x14 .\CortexM0\ARM_GCC_493\Debug\start_v11.a(Int_Timer_Led.o)
                0x00007f5c                Int_Timer_Led_Enable
 .text.Int_Timer_Led_GetState
                0x00007f70       0x20 .\CortexM0\ARM_GCC_493\Debug\start_v11.a(Int_Timer_Led.o)
                0x00007f70                Int_Timer_Led_GetState
 .text.Int_Timer_Led_Disable
                0x00007f90       0x14 .\CortexM0\ARM_GCC_493\Debug\start_v11.a(Int_Timer_Led.o)
                0x00007f90                Int_Timer_Led_Disable
 .text.Int_Timer_Led_SetPending
                0x00007fa4       0x14 .\CortexM0\ARM_GCC_493\Debug\start_v11.a(Int_Timer_Led.o)
                0x00007fa4                Int_Timer_Led_SetPending
 .text.Int_Timer_Led_ClearPending
                0x00007fb8       0x14 .\CortexM0\ARM_GCC_493\Debug\start_v11.a(Int_Timer_Led.o)
                0x00007fb8                Int_Timer_Led_ClearPending
 .text          0x00007fcc        0x0 .\CortexM0\ARM_GCC_493\Debug\start_v11.a(UART_XB.o)
 .text.UART_XB_Init
                0x00007fcc        0xc .\CortexM0\ARM_GCC_493\Debug\start_v11.a(UART_XB.o)
                0x00007fcc                UART_XB_Init
 .text.UART_XB_Enable
                0x00007fd8       0x24 .\CortexM0\ARM_GCC_493\Debug\start_v11.a(UART_XB.o)
                0x00007fd8                UART_XB_Enable
 .text.UART_XB_Start
                0x00007ffc       0x24 .\CortexM0\ARM_GCC_493\Debug\start_v11.a(UART_XB.o)
                0x00007ffc                UART_XB_Start
 .text.UART_XB_Stop
                0x00008020       0x34 .\CortexM0\ARM_GCC_493\Debug\start_v11.a(UART_XB.o)
                0x00008020                UART_XB_Stop
 .text.UART_XB_SetRxFifoLevel
                0x00008054       0x34 .\CortexM0\ARM_GCC_493\Debug\start_v11.a(UART_XB.o)
                0x00008054                UART_XB_SetRxFifoLevel
 .text.UART_XB_SetTxFifoLevel
                0x00008088       0x34 .\CortexM0\ARM_GCC_493\Debug\start_v11.a(UART_XB.o)
                0x00008088                UART_XB_SetTxFifoLevel
 .text.UART_XB_SetCustomInterruptHandler
                0x000080bc       0x18 .\CortexM0\ARM_GCC_493\Debug\start_v11.a(UART_XB.o)
                0x000080bc                UART_XB_SetCustomInterruptHandler
 .text.UART_XB_ScbEnableIntr
                0x000080d4       0x10 .\CortexM0\ARM_GCC_493\Debug\start_v11.a(UART_XB.o)
 .text.UART_XB_ScbModePostEnable
                0x000080e4        0xc .\CortexM0\ARM_GCC_493\Debug\start_v11.a(UART_XB.o)
 .text.UART_XB_ScbModeStop
                0x000080f0        0xc .\CortexM0\ARM_GCC_493\Debug\start_v11.a(UART_XB.o)
 .text          0x000080fc        0x0 .\CortexM0\ARM_GCC_493\Debug\start_v11.a(UART_XB_SPI_UART.o)
 .text.UART_XB_SpiUartReadRxData
                0x000080fc       0x50 .\CortexM0\ARM_GCC_493\Debug\start_v11.a(UART_XB_SPI_UART.o)
                0x000080fc                UART_XB_SpiUartReadRxData
 .text.UART_XB_SpiUartGetRxBufferSize
                0x0000814c       0x40 .\CortexM0\ARM_GCC_493\Debug\start_v11.a(UART_XB_SPI_UART.o)
                0x0000814c                UART_XB_SpiUartGetRxBufferSize
 .text.UART_XB_SpiUartClearRxBuffer
                0x0000818c       0x60 .\CortexM0\ARM_GCC_493\Debug\start_v11.a(UART_XB_SPI_UART.o)
                0x0000818c                UART_XB_SpiUartClearRxBuffer
 .text.UART_XB_SpiUartWriteTxData
                0x000081ec       0x98 .\CortexM0\ARM_GCC_493\Debug\start_v11.a(UART_XB_SPI_UART.o)
                0x000081ec                UART_XB_SpiUartWriteTxData
 .text.UART_XB_SpiUartPutArray
                0x00008284       0x34 .\CortexM0\ARM_GCC_493\Debug\start_v11.a(UART_XB_SPI_UART.o)
                0x00008284                UART_XB_SpiUartPutArray
 .text.UART_XB_SpiUartGetTxBufferSize
                0x000082b8       0x40 .\CortexM0\ARM_GCC_493\Debug\start_v11.a(UART_XB_SPI_UART.o)
                0x000082b8                UART_XB_SpiUartGetTxBufferSize
 .text.UART_XB_SpiUartClearTxBuffer
                0x000082f8       0x64 .\CortexM0\ARM_GCC_493\Debug\start_v11.a(UART_XB_SPI_UART.o)
                0x000082f8                UART_XB_SpiUartClearTxBuffer
 .text.UART_XB_SpiUartDisableIntRx
                0x0000835c       0x20 .\CortexM0\ARM_GCC_493\Debug\start_v11.a(UART_XB_SPI_UART.o)
                0x0000835c                UART_XB_SpiUartDisableIntRx
 .text.UART_XB_SpiUartDisableIntTx
                0x0000837c       0x20 .\CortexM0\ARM_GCC_493\Debug\start_v11.a(UART_XB_SPI_UART.o)
                0x0000837c                UART_XB_SpiUartDisableIntTx
 .text          0x0000839c        0x0 .\CortexM0\ARM_GCC_493\Debug\start_v11.a(UART_XB_UART.o)
 .text.UART_XB_UartInit
                0x0000839c      0x10c .\CortexM0\ARM_GCC_493\Debug\start_v11.a(UART_XB_UART.o)
                0x0000839c                UART_XB_UartInit
 .text.UART_XB_UartPostEnable
                0x000084a8       0x34 .\CortexM0\ARM_GCC_493\Debug\start_v11.a(UART_XB_UART.o)
                0x000084a8                UART_XB_UartPostEnable
 .text.UART_XB_UartStop
                0x000084dc       0x38 .\CortexM0\ARM_GCC_493\Debug\start_v11.a(UART_XB_UART.o)
                0x000084dc                UART_XB_UartStop
 .text.UART_XB_UartSetRxAddress
                0x00008514       0x34 .\CortexM0\ARM_GCC_493\Debug\start_v11.a(UART_XB_UART.o)
                0x00008514                UART_XB_UartSetRxAddress
 .text.UART_XB_UartSetRxAddressMask
                0x00008548       0x34 .\CortexM0\ARM_GCC_493\Debug\start_v11.a(UART_XB_UART.o)
                0x00008548                UART_XB_UartSetRxAddressMask
 .text.UART_XB_UartGetChar
                0x0000857c       0x40 .\CortexM0\ARM_GCC_493\Debug\start_v11.a(UART_XB_UART.o)
                0x0000857c                UART_XB_UartGetChar
 .text.UART_XB_UartGetByte
                0x000085bc       0x68 .\CortexM0\ARM_GCC_493\Debug\start_v11.a(UART_XB_UART.o)
                0x000085bc                UART_XB_UartGetByte
 .text.UART_XB_UartSetRtsPolarity
                0x00008624       0x38 .\CortexM0\ARM_GCC_493\Debug\start_v11.a(UART_XB_UART.o)
                0x00008624                UART_XB_UartSetRtsPolarity
 .text.UART_XB_UartSetRtsFifoLevel
                0x0000865c       0x34 .\CortexM0\ARM_GCC_493\Debug\start_v11.a(UART_XB_UART.o)
                0x0000865c                UART_XB_UartSetRtsFifoLevel
 .text.UART_XB_UartPutString
                0x00008690       0x34 .\CortexM0\ARM_GCC_493\Debug\start_v11.a(UART_XB_UART.o)
                0x00008690                UART_XB_UartPutString
 .text.UART_XB_UartPutCRLF
                0x000086c4       0x24 .\CortexM0\ARM_GCC_493\Debug\start_v11.a(UART_XB_UART.o)
                0x000086c4                UART_XB_UartPutCRLF
 .text.UART_XB_UartEnableCts
                0x000086e8       0x1c .\CortexM0\ARM_GCC_493\Debug\start_v11.a(UART_XB_UART.o)
                0x000086e8                UART_XB_UartEnableCts
 .text.UART_XB_UartDisableCts
                0x00008704       0x1c .\CortexM0\ARM_GCC_493\Debug\start_v11.a(UART_XB_UART.o)
                0x00008704                UART_XB_UartDisableCts
 .text.UART_XB_UartSetCtsPolarity
                0x00008720       0x38 .\CortexM0\ARM_GCC_493\Debug\start_v11.a(UART_XB_UART.o)
                0x00008720                UART_XB_UartSetCtsPolarity
 .text          0x00008758        0x0 .\CortexM0\ARM_GCC_493\Debug\start_v11.a(SwSPI_Master.o)
 .text.SwSPI_Master_Init
                0x00008758       0x34 .\CortexM0\ARM_GCC_493\Debug\start_v11.a(SwSPI_Master.o)
                0x00008758                SwSPI_Master_Init
 .text.SwSPI_Master_ChipSelect
                0x0000878c        0x8 .\CortexM0\ARM_GCC_493\Debug\start_v11.a(SwSPI_Master.o)
                0x0000878c                SwSPI_Master_ChipSelect
 .text.SwSPI_Master_ChipDeselect
                0x00008794        0x8 .\CortexM0\ARM_GCC_493\Debug\start_v11.a(SwSPI_Master.o)
                0x00008794                SwSPI_Master_ChipDeselect
 .text.SwSPI_Master_SendByte
                0x0000879c       0x98 .\CortexM0\ARM_GCC_493\Debug\start_v11.a(SwSPI_Master.o)
                0x0000879c                SwSPI_Master_SendByte
 .text.SwSPI_Master_SendBuff
                0x00008834       0x4c .\CortexM0\ARM_GCC_493\Debug\start_v11.a(SwSPI_Master.o)
                0x00008834                SwSPI_Master_SendBuff
 .text.SwSPI_Master_RecvByte
                0x00008880       0x98 .\CortexM0\ARM_GCC_493\Debug\start_v11.a(SwSPI_Master.o)
                0x00008880                SwSPI_Master_RecvByte
 .text.SwSPI_Master_RecvBuff
                0x00008918       0x4c .\CortexM0\ARM_GCC_493\Debug\start_v11.a(SwSPI_Master.o)
                0x00008918                SwSPI_Master_RecvBuff
 .text.SwSPI_Master_ReadAndWriteByte
                0x00008964       0xc8 .\CortexM0\ARM_GCC_493\Debug\start_v11.a(SwSPI_Master.o)
                0x00008964                SwSPI_Master_ReadAndWriteByte
 .text          0x00008a2c        0x0 .\CortexM0\ARM_GCC_493\Debug\start_v11.a(GATE_INT.o)
 .text.GATE_INT_Start
                0x00008a2c       0x24 .\CortexM0\ARM_GCC_493\Debug\start_v11.a(GATE_INT.o)
                0x00008a2c                GATE_INT_Start
 .text.GATE_INT_StartEx
                0x00008a50       0x24 .\CortexM0\ARM_GCC_493\Debug\start_v11.a(GATE_INT.o)
                0x00008a50                GATE_INT_StartEx
 .text.GATE_INT_Stop
                0x00008a74       0x18 .\CortexM0\ARM_GCC_493\Debug\start_v11.a(GATE_INT.o)
                0x00008a74                GATE_INT_Stop
 .text.GATE_INT_Interrupt
                0x00008a8c        0x8 .\CortexM0\ARM_GCC_493\Debug\start_v11.a(GATE_INT.o)
                0x00008a8c                GATE_INT_Interrupt
 .text.GATE_INT_SetVector
                0x00008a94       0x18 .\CortexM0\ARM_GCC_493\Debug\start_v11.a(GATE_INT.o)
                0x00008a94                GATE_INT_SetVector
 .text.GATE_INT_GetVector
                0x00008aac       0x14 .\CortexM0\ARM_GCC_493\Debug\start_v11.a(GATE_INT.o)
                0x00008aac                GATE_INT_GetVector
 .text.GATE_INT_SetPriority
                0x00008ac0       0x4c .\CortexM0\ARM_GCC_493\Debug\start_v11.a(GATE_INT.o)
                0x00008ac0                GATE_INT_SetPriority
 .text.GATE_INT_GetPriority
                0x00008b0c       0x2c .\CortexM0\ARM_GCC_493\Debug\start_v11.a(GATE_INT.o)
                0x00008b0c                GATE_INT_GetPriority
 .text.GATE_INT_Enable
                0x00008b38       0x14 .\CortexM0\ARM_GCC_493\Debug\start_v11.a(GATE_INT.o)
                0x00008b38                GATE_INT_Enable
 .text.GATE_INT_GetState
                0x00008b4c       0x20 .\CortexM0\ARM_GCC_493\Debug\start_v11.a(GATE_INT.o)
                0x00008b4c                GATE_INT_GetState
 .text.GATE_INT_Disable
                0x00008b6c       0x14 .\CortexM0\ARM_GCC_493\Debug\start_v11.a(GATE_INT.o)
                0x00008b6c                GATE_INT_Disable
 .text.GATE_INT_SetPending
                0x00008b80       0x14 .\CortexM0\ARM_GCC_493\Debug\start_v11.a(GATE_INT.o)
                0x00008b80                GATE_INT_SetPending
 .text.GATE_INT_ClearPending
                0x00008b94       0x14 .\CortexM0\ARM_GCC_493\Debug\start_v11.a(GATE_INT.o)
                0x00008b94                GATE_INT_ClearPending
 .text          0x00008ba8        0x0 .\CortexM0\ARM_GCC_493\Debug\start_v11.a(debug.o)
 .text.debug_SetDriveMode
                0x00008ba8       0x2c .\CortexM0\ARM_GCC_493\Debug\start_v11.a(debug.o)
                0x00008ba8                debug_SetDriveMode
 .text.debug_Write
                0x00008bd4       0x48 .\CortexM0\ARM_GCC_493\Debug\start_v11.a(debug.o)
                0x00008bd4                debug_Write
 .text.debug_Read
                0x00008c1c       0x1c .\CortexM0\ARM_GCC_493\Debug\start_v11.a(debug.o)
                0x00008c1c                debug_Read
 .text.debug_ReadDataReg
                0x00008c38       0x1c .\CortexM0\ARM_GCC_493\Debug\start_v11.a(debug.o)
                0x00008c38                debug_ReadDataReg
 .text.debug_SetInterruptMode
                0x00008c54       0x40 .\CortexM0\ARM_GCC_493\Debug\start_v11.a(debug.o)
                0x00008c54                debug_SetInterruptMode
 .text.debug_ClearInterrupt
                0x00008c94       0x2c .\CortexM0\ARM_GCC_493\Debug\start_v11.a(debug.o)
                0x00008c94                debug_ClearInterrupt
 .text          0x00008cc0        0x0 .\CortexM0\ARM_GCC_493\Debug\start_v11.a(ADC.o)
 .text.ADC_Start
                0x00008cc0       0x24 .\CortexM0\ARM_GCC_493\Debug\start_v11.a(ADC.o)
                0x00008cc0                ADC_Start
 .text.ADC_Init
                0x00008ce4      0x1d0 .\CortexM0\ARM_GCC_493\Debug\start_v11.a(ADC.o)
                0x00008ce4                ADC_Init
 .text.ADC_Enable
                0x00008eb4       0x38 .\CortexM0\ARM_GCC_493\Debug\start_v11.a(ADC.o)
                0x00008eb4                ADC_Enable
 .text.ADC_Stop
                0x00008eec       0x18 .\CortexM0\ARM_GCC_493\Debug\start_v11.a(ADC.o)
                0x00008eec                ADC_Stop
 .text.ADC_StartConvert
                0x00008f04       0x1c .\CortexM0\ARM_GCC_493\Debug\start_v11.a(ADC.o)
                0x00008f04                ADC_StartConvert
 .text.ADC_StopConvert
                0x00008f20       0x1c .\CortexM0\ARM_GCC_493\Debug\start_v11.a(ADC.o)
                0x00008f20                ADC_StopConvert
 .text.ADC_IsEndConversion
                0x00008f3c       0x48 .\CortexM0\ARM_GCC_493\Debug\start_v11.a(ADC.o)
                0x00008f3c                ADC_IsEndConversion
 .text.ADC_GetResult16
                0x00008f84       0x44 .\CortexM0\ARM_GCC_493\Debug\start_v11.a(ADC.o)
                0x00008f84                ADC_GetResult16
 .text.ADC_SetChanMask
                0x00008fc8       0x1c .\CortexM0\ARM_GCC_493\Debug\start_v11.a(ADC.o)
                0x00008fc8                ADC_SetChanMask
 .text.ADC_SetLowLimit
                0x00008fe4       0x30 .\CortexM0\ARM_GCC_493\Debug\start_v11.a(ADC.o)
                0x00008fe4                ADC_SetLowLimit
 .text.ADC_SetHighLimit
                0x00009014       0x2c .\CortexM0\ARM_GCC_493\Debug\start_v11.a(ADC.o)
                0x00009014                ADC_SetHighLimit
 .text.ADC_SetLimitMask
                0x00009040       0x1c .\CortexM0\ARM_GCC_493\Debug\start_v11.a(ADC.o)
                0x00009040                ADC_SetLimitMask
 .text.ADC_SetSatMask
                0x0000905c       0x1c .\CortexM0\ARM_GCC_493\Debug\start_v11.a(ADC.o)
                0x0000905c                ADC_SetSatMask
 .text.ADC_SetOffset
                0x00009078       0x30 .\CortexM0\ARM_GCC_493\Debug\start_v11.a(ADC.o)
                0x00009078                ADC_SetOffset
 .text.ADC_SetGain
                0x000090a8       0x2c .\CortexM0\ARM_GCC_493\Debug\start_v11.a(ADC.o)
                0x000090a8                ADC_SetGain
 .text.ADC_CountsTo_mVolts
                0x000090d4       0xa4 .\CortexM0\ARM_GCC_493\Debug\start_v11.a(ADC.o)
                0x000090d4                ADC_CountsTo_mVolts
 .text.ADC_CountsTo_uVolts
                0x00009178       0x90 .\CortexM0\ARM_GCC_493\Debug\start_v11.a(ADC.o)
                0x00009178                ADC_CountsTo_uVolts
 .text.ADC_CountsTo_Volts
                0x00009208       0x80 .\CortexM0\ARM_GCC_493\Debug\start_v11.a(ADC.o)
                0x00009208                ADC_CountsTo_Volts
 .text          0x00009288        0x0 .\CortexM0\ARM_GCC_493\Debug\start_v11.a(ADC_INT.o)
 .text.ADC_ISR  0x00009288       0x1c .\CortexM0\ARM_GCC_493\Debug\start_v11.a(ADC_INT.o)
                0x00009288                ADC_ISR
 .text          0x000092a4        0x0 .\CortexM0\ARM_GCC_493\Debug\start_v11.a(CE.o)
 .text.CE_SetDriveMode
                0x000092a4       0x30 .\CortexM0\ARM_GCC_493\Debug\start_v11.a(CE.o)
                0x000092a4                CE_SetDriveMode
 .text.CE_Write
                0x000092d4       0x4c .\CortexM0\ARM_GCC_493\Debug\start_v11.a(CE.o)
                0x000092d4                CE_Write
 .text.CE_Read  0x00009320       0x1c .\CortexM0\ARM_GCC_493\Debug\start_v11.a(CE.o)
                0x00009320                CE_Read
 .text.CE_ReadDataReg
                0x0000933c       0x1c .\CortexM0\ARM_GCC_493\Debug\start_v11.a(CE.o)
                0x0000933c                CE_ReadDataReg
 .text.CE_SetInterruptMode
                0x00009358       0x40 .\CortexM0\ARM_GCC_493\Debug\start_v11.a(CE.o)
                0x00009358                CE_SetInterruptMode
 .text.CE_ClearInterrupt
                0x00009398       0x30 .\CortexM0\ARM_GCC_493\Debug\start_v11.a(CE.o)
                0x00009398                CE_ClearInterrupt
 .text          0x000093c8        0x0 .\CortexM0\ARM_GCC_493\Debug\start_v11.a(RST.o)
 .text.RST_SetDriveMode
                0x000093c8       0x30 .\CortexM0\ARM_GCC_493\Debug\start_v11.a(RST.o)
                0x000093c8                RST_SetDriveMode
 .text.RST_Write
                0x000093f8       0x4c .\CortexM0\ARM_GCC_493\Debug\start_v11.a(RST.o)
                0x000093f8                RST_Write
 .text.RST_Read
                0x00009444       0x1c .\CortexM0\ARM_GCC_493\Debug\start_v11.a(RST.o)
                0x00009444                RST_Read
 .text.RST_ReadDataReg
                0x00009460       0x1c .\CortexM0\ARM_GCC_493\Debug\start_v11.a(RST.o)
                0x00009460                RST_ReadDataReg
 .text.RST_SetInterruptMode
                0x0000947c       0x40 .\CortexM0\ARM_GCC_493\Debug\start_v11.a(RST.o)
                0x0000947c                RST_SetInterruptMode
 .text.RST_ClearInterrupt
                0x000094bc       0x30 .\CortexM0\ARM_GCC_493\Debug\start_v11.a(RST.o)
                0x000094bc                RST_ClearInterrupt
 .text          0x000094ec        0x0 .\CortexM0\ARM_GCC_493\Debug\start_v11.a(DC.o)
 .text.DC_SetDriveMode
                0x000094ec       0x30 .\CortexM0\ARM_GCC_493\Debug\start_v11.a(DC.o)
                0x000094ec                DC_SetDriveMode
 .text.DC_Write
                0x0000951c       0x4c .\CortexM0\ARM_GCC_493\Debug\start_v11.a(DC.o)
                0x0000951c                DC_Write
 .text.DC_Read  0x00009568       0x1c .\CortexM0\ARM_GCC_493\Debug\start_v11.a(DC.o)
                0x00009568                DC_Read
 .text.DC_ReadDataReg
                0x00009584       0x1c .\CortexM0\ARM_GCC_493\Debug\start_v11.a(DC.o)
                0x00009584                DC_ReadDataReg
 .text.DC_SetInterruptMode
                0x000095a0       0x40 .\CortexM0\ARM_GCC_493\Debug\start_v11.a(DC.o)
                0x000095a0                DC_SetInterruptMode
 .text.DC_ClearInterrupt
                0x000095e0       0x30 .\CortexM0\ARM_GCC_493\Debug\start_v11.a(DC.o)
                0x000095e0                DC_ClearInterrupt
 .text          0x00009610        0x0 .\CortexM0\ARM_GCC_493\Debug\start_v11.a(LCD_BL.o)
 .text.LCD_BL_SetDriveMode
                0x00009610       0x30 .\CortexM0\ARM_GCC_493\Debug\start_v11.a(LCD_BL.o)
                0x00009610                LCD_BL_SetDriveMode
 .text.LCD_BL_Write
                0x00009640       0x4c .\CortexM0\ARM_GCC_493\Debug\start_v11.a(LCD_BL.o)
                0x00009640                LCD_BL_Write
 .text.LCD_BL_Read
                0x0000968c       0x1c .\CortexM0\ARM_GCC_493\Debug\start_v11.a(LCD_BL.o)
                0x0000968c                LCD_BL_Read
 .text.LCD_BL_ReadDataReg
                0x000096a8       0x1c .\CortexM0\ARM_GCC_493\Debug\start_v11.a(LCD_BL.o)
                0x000096a8                LCD_BL_ReadDataReg
 .text.LCD_BL_SetInterruptMode
                0x000096c4       0x40 .\CortexM0\ARM_GCC_493\Debug\start_v11.a(LCD_BL.o)
                0x000096c4                LCD_BL_SetInterruptMode
 .text.LCD_BL_ClearInterrupt
                0x00009704       0x30 .\CortexM0\ARM_GCC_493\Debug\start_v11.a(LCD_BL.o)
                0x00009704                LCD_BL_ClearInterrupt
 .text          0x00009734        0x0 .\CortexM0\ARM_GCC_493\Debug\start_v11.a(TimerTestMode.o)
 .text.TimerTestMode_Init
                0x00009734       0x44 .\CortexM0\ARM_GCC_493\Debug\start_v11.a(TimerTestMode.o)
                0x00009734                TimerTestMode_Init
 .text.TimerTestMode_Enable
                0x00009778       0x38 .\CortexM0\ARM_GCC_493\Debug\start_v11.a(TimerTestMode.o)
                0x00009778                TimerTestMode_Enable
 .text.TimerTestMode_Start
                0x000097b0       0x24 .\CortexM0\ARM_GCC_493\Debug\start_v11.a(TimerTestMode.o)
                0x000097b0                TimerTestMode_Start
 .text.TimerTestMode_Stop
                0x000097d4       0x30 .\CortexM0\ARM_GCC_493\Debug\start_v11.a(TimerTestMode.o)
                0x000097d4                TimerTestMode_Stop
 .text.TimerTestMode_SetMode
                0x00009804       0x48 .\CortexM0\ARM_GCC_493\Debug\start_v11.a(TimerTestMode.o)
                0x00009804                TimerTestMode_SetMode
 .text.TimerTestMode_SetQDMode
                0x0000984c       0x48 .\CortexM0\ARM_GCC_493\Debug\start_v11.a(TimerTestMode.o)
                0x0000984c                TimerTestMode_SetQDMode
 .text.TimerTestMode_SetPrescaler
                0x00009894       0x48 .\CortexM0\ARM_GCC_493\Debug\start_v11.a(TimerTestMode.o)
                0x00009894                TimerTestMode_SetPrescaler
 .text.TimerTestMode_SetOneShot
                0x000098dc       0x4c .\CortexM0\ARM_GCC_493\Debug\start_v11.a(TimerTestMode.o)
                0x000098dc                TimerTestMode_SetOneShot
 .text.TimerTestMode_SetPWMMode
                0x00009928       0x1c .\CortexM0\ARM_GCC_493\Debug\start_v11.a(TimerTestMode.o)
                0x00009928                TimerTestMode_SetPWMMode
 .text.TimerTestMode_SetPWMSyncKill
                0x00009944       0x48 .\CortexM0\ARM_GCC_493\Debug\start_v11.a(TimerTestMode.o)
                0x00009944                TimerTestMode_SetPWMSyncKill
 .text.TimerTestMode_SetPWMStopOnKill
                0x0000998c       0x48 .\CortexM0\ARM_GCC_493\Debug\start_v11.a(TimerTestMode.o)
                0x0000998c                TimerTestMode_SetPWMStopOnKill
 .text.TimerTestMode_SetPWMDeadTime
                0x000099d4       0x4c .\CortexM0\ARM_GCC_493\Debug\start_v11.a(TimerTestMode.o)
                0x000099d4                TimerTestMode_SetPWMDeadTime
 .text.TimerTestMode_SetPWMInvert
                0x00009a20       0x48 .\CortexM0\ARM_GCC_493\Debug\start_v11.a(TimerTestMode.o)
                0x00009a20                TimerTestMode_SetPWMInvert
 .text.TimerTestMode_WriteCounter
                0x00009a68       0x1c .\CortexM0\ARM_GCC_493\Debug\start_v11.a(TimerTestMode.o)
                0x00009a68                TimerTestMode_WriteCounter
 .text.TimerTestMode_ReadCounter
                0x00009a84       0x18 .\CortexM0\ARM_GCC_493\Debug\start_v11.a(TimerTestMode.o)
                0x00009a84                TimerTestMode_ReadCounter
 .text.TimerTestMode_SetCounterMode
                0x00009a9c       0x48 .\CortexM0\ARM_GCC_493\Debug\start_v11.a(TimerTestMode.o)
                0x00009a9c                TimerTestMode_SetCounterMode
 .text.TimerTestMode_WritePeriod
                0x00009ae4       0x1c .\CortexM0\ARM_GCC_493\Debug\start_v11.a(TimerTestMode.o)
                0x00009ae4                TimerTestMode_WritePeriod
 .text.TimerTestMode_ReadPeriod
                0x00009b00       0x18 .\CortexM0\ARM_GCC_493\Debug\start_v11.a(TimerTestMode.o)
                0x00009b00                TimerTestMode_ReadPeriod
 .text.TimerTestMode_SetCompareSwap
                0x00009b18       0x48 .\CortexM0\ARM_GCC_493\Debug\start_v11.a(TimerTestMode.o)
                0x00009b18                TimerTestMode_SetCompareSwap
 .text.TimerTestMode_WritePeriodBuf
                0x00009b60       0x1c .\CortexM0\ARM_GCC_493\Debug\start_v11.a(TimerTestMode.o)
                0x00009b60                TimerTestMode_WritePeriodBuf
 .text.TimerTestMode_ReadPeriodBuf
                0x00009b7c       0x18 .\CortexM0\ARM_GCC_493\Debug\start_v11.a(TimerTestMode.o)
                0x00009b7c                TimerTestMode_ReadPeriodBuf
 .text.TimerTestMode_SetPeriodSwap
                0x00009b94       0x48 .\CortexM0\ARM_GCC_493\Debug\start_v11.a(TimerTestMode.o)
                0x00009b94                TimerTestMode_SetPeriodSwap
 .text.TimerTestMode_WriteCompare
                0x00009bdc       0x1c .\CortexM0\ARM_GCC_493\Debug\start_v11.a(TimerTestMode.o)
                0x00009bdc                TimerTestMode_WriteCompare
 .text.TimerTestMode_ReadCompare
                0x00009bf8       0x18 .\CortexM0\ARM_GCC_493\Debug\start_v11.a(TimerTestMode.o)
                0x00009bf8                TimerTestMode_ReadCompare
 .text.TimerTestMode_WriteCompareBuf
                0x00009c10       0x1c .\CortexM0\ARM_GCC_493\Debug\start_v11.a(TimerTestMode.o)
                0x00009c10                TimerTestMode_WriteCompareBuf
 .text.TimerTestMode_ReadCompareBuf
                0x00009c2c       0x18 .\CortexM0\ARM_GCC_493\Debug\start_v11.a(TimerTestMode.o)
                0x00009c2c                TimerTestMode_ReadCompareBuf
 .text.TimerTestMode_ReadCapture
                0x00009c44       0x18 .\CortexM0\ARM_GCC_493\Debug\start_v11.a(TimerTestMode.o)
                0x00009c44                TimerTestMode_ReadCapture
 .text.TimerTestMode_ReadCaptureBuf
                0x00009c5c       0x18 .\CortexM0\ARM_GCC_493\Debug\start_v11.a(TimerTestMode.o)
                0x00009c5c                TimerTestMode_ReadCaptureBuf
 .text.TimerTestMode_SetCaptureMode
                0x00009c74       0x44 .\CortexM0\ARM_GCC_493\Debug\start_v11.a(TimerTestMode.o)
                0x00009c74                TimerTestMode_SetCaptureMode
 .text.TimerTestMode_SetReloadMode
                0x00009cb8       0x44 .\CortexM0\ARM_GCC_493\Debug\start_v11.a(TimerTestMode.o)
                0x00009cb8                TimerTestMode_SetReloadMode
 .text.TimerTestMode_SetStartMode
                0x00009cfc       0x48 .\CortexM0\ARM_GCC_493\Debug\start_v11.a(TimerTestMode.o)
                0x00009cfc                TimerTestMode_SetStartMode
 .text.TimerTestMode_SetStopMode
                0x00009d44       0x44 .\CortexM0\ARM_GCC_493\Debug\start_v11.a(TimerTestMode.o)
                0x00009d44                TimerTestMode_SetStopMode
 .text.TimerTestMode_SetCountMode
                0x00009d88       0x44 .\CortexM0\ARM_GCC_493\Debug\start_v11.a(TimerTestMode.o)
                0x00009d88                TimerTestMode_SetCountMode
 .text.TimerTestMode_TriggerCommand
                0x00009dcc       0x38 .\CortexM0\ARM_GCC_493\Debug\start_v11.a(TimerTestMode.o)
                0x00009dcc                TimerTestMode_TriggerCommand
 .text.TimerTestMode_ReadStatus
                0x00009e04       0x20 .\CortexM0\ARM_GCC_493\Debug\start_v11.a(TimerTestMode.o)
                0x00009e04                TimerTestMode_ReadStatus
 .text.TimerTestMode_SetInterruptMode
                0x00009e24       0x18 .\CortexM0\ARM_GCC_493\Debug\start_v11.a(TimerTestMode.o)
                0x00009e24                TimerTestMode_SetInterruptMode
 .text.TimerTestMode_GetInterruptSourceMasked
                0x00009e3c       0x14 .\CortexM0\ARM_GCC_493\Debug\start_v11.a(TimerTestMode.o)
                0x00009e3c                TimerTestMode_GetInterruptSourceMasked
 .text.TimerTestMode_GetInterruptSource
                0x00009e50       0x14 .\CortexM0\ARM_GCC_493\Debug\start_v11.a(TimerTestMode.o)
                0x00009e50                TimerTestMode_GetInterruptSource
 .text.TimerTestMode_ClearInterrupt
                0x00009e64       0x18 .\CortexM0\ARM_GCC_493\Debug\start_v11.a(TimerTestMode.o)
                0x00009e64                TimerTestMode_ClearInterrupt
 .text.TimerTestMode_SetInterrupt
                0x00009e7c       0x18 .\CortexM0\ARM_GCC_493\Debug\start_v11.a(TimerTestMode.o)
                0x00009e7c                TimerTestMode_SetInterrupt
 .text          0x00009e94        0x0 .\CortexM0\ARM_GCC_493\Debug\start_v11.a(Int_timerTestMode.o)
 .text.Int_timerTestMode_Start
                0x00009e94       0x24 .\CortexM0\ARM_GCC_493\Debug\start_v11.a(Int_timerTestMode.o)
                0x00009e94                Int_timerTestMode_Start
 .text.Int_timerTestMode_StartEx
                0x00009eb8       0x24 .\CortexM0\ARM_GCC_493\Debug\start_v11.a(Int_timerTestMode.o)
                0x00009eb8                Int_timerTestMode_StartEx
 .text.Int_timerTestMode_Stop
                0x00009edc       0x18 .\CortexM0\ARM_GCC_493\Debug\start_v11.a(Int_timerTestMode.o)
                0x00009edc                Int_timerTestMode_Stop
 .text.Int_timerTestMode_Interrupt
                0x00009ef4        0x8 .\CortexM0\ARM_GCC_493\Debug\start_v11.a(Int_timerTestMode.o)
                0x00009ef4                Int_timerTestMode_Interrupt
 .text.Int_timerTestMode_SetVector
                0x00009efc       0x1c .\CortexM0\ARM_GCC_493\Debug\start_v11.a(Int_timerTestMode.o)
                0x00009efc                Int_timerTestMode_SetVector
 .text.Int_timerTestMode_GetVector
                0x00009f18       0x14 .\CortexM0\ARM_GCC_493\Debug\start_v11.a(Int_timerTestMode.o)
                0x00009f18                Int_timerTestMode_GetVector
 .text.Int_timerTestMode_SetPriority
                0x00009f2c       0x4c .\CortexM0\ARM_GCC_493\Debug\start_v11.a(Int_timerTestMode.o)
                0x00009f2c                Int_timerTestMode_SetPriority
 .text.Int_timerTestMode_GetPriority
                0x00009f78       0x2c .\CortexM0\ARM_GCC_493\Debug\start_v11.a(Int_timerTestMode.o)
                0x00009f78                Int_timerTestMode_GetPriority
 .text.Int_timerTestMode_Enable
                0x00009fa4       0x14 .\CortexM0\ARM_GCC_493\Debug\start_v11.a(Int_timerTestMode.o)
                0x00009fa4                Int_timerTestMode_Enable
 .text.Int_timerTestMode_GetState
                0x00009fb8       0x20 .\CortexM0\ARM_GCC_493\Debug\start_v11.a(Int_timerTestMode.o)
                0x00009fb8                Int_timerTestMode_GetState
 .text.Int_timerTestMode_Disable
                0x00009fd8       0x14 .\CortexM0\ARM_GCC_493\Debug\start_v11.a(Int_timerTestMode.o)
                0x00009fd8                Int_timerTestMode_Disable
 .text.Int_timerTestMode_SetPending
                0x00009fec       0x14 .\CortexM0\ARM_GCC_493\Debug\start_v11.a(Int_timerTestMode.o)
                0x00009fec                Int_timerTestMode_SetPending
 .text.Int_timerTestMode_ClearPending
                0x0000a000       0x14 .\CortexM0\ARM_GCC_493\Debug\start_v11.a(Int_timerTestMode.o)
                0x0000a000                Int_timerTestMode_ClearPending
 .text          0x0000a014        0x0 .\CortexM0\ARM_GCC_493\Debug\start_v11.a(Pin_testMode.o)
 .text.Pin_testMode_SetDriveMode
                0x0000a014       0x30 .\CortexM0\ARM_GCC_493\Debug\start_v11.a(Pin_testMode.o)
                0x0000a014                Pin_testMode_SetDriveMode
 .text.Pin_testMode_Write
                0x0000a044       0x48 .\CortexM0\ARM_GCC_493\Debug\start_v11.a(Pin_testMode.o)
                0x0000a044                Pin_testMode_Write
 .text.Pin_testMode_Read
                0x0000a08c       0x1c .\CortexM0\ARM_GCC_493\Debug\start_v11.a(Pin_testMode.o)
                0x0000a08c                Pin_testMode_Read
 .text.Pin_testMode_ReadDataReg
                0x0000a0a8       0x1c .\CortexM0\ARM_GCC_493\Debug\start_v11.a(Pin_testMode.o)
                0x0000a0a8                Pin_testMode_ReadDataReg
 .text.Pin_testMode_SetInterruptMode
                0x0000a0c4       0x40 .\CortexM0\ARM_GCC_493\Debug\start_v11.a(Pin_testMode.o)
                0x0000a0c4                Pin_testMode_SetInterruptMode
 .text.Pin_testMode_ClearInterrupt
                0x0000a104       0x30 .\CortexM0\ARM_GCC_493\Debug\start_v11.a(Pin_testMode.o)
                0x0000a104                Pin_testMode_ClearInterrupt
 .text          0x0000a134        0x0 .\CortexM0\ARM_GCC_493\Debug\start_v11.a(SW_RunTestMode.o)
 .text.SW_RunTestMode_SetDriveMode
                0x0000a134       0x30 .\CortexM0\ARM_GCC_493\Debug\start_v11.a(SW_RunTestMode.o)
                0x0000a134                SW_RunTestMode_SetDriveMode
 .text.SW_RunTestMode_Write
                0x0000a164       0x4c .\CortexM0\ARM_GCC_493\Debug\start_v11.a(SW_RunTestMode.o)
                0x0000a164                SW_RunTestMode_Write
 .text.SW_RunTestMode_Read
                0x0000a1b0       0x1c .\CortexM0\ARM_GCC_493\Debug\start_v11.a(SW_RunTestMode.o)
                0x0000a1b0                SW_RunTestMode_Read
 .text.SW_RunTestMode_ReadDataReg
                0x0000a1cc       0x1c .\CortexM0\ARM_GCC_493\Debug\start_v11.a(SW_RunTestMode.o)
                0x0000a1cc                SW_RunTestMode_ReadDataReg
 .text.SW_RunTestMode_SetInterruptMode
                0x0000a1e8       0x40 .\CortexM0\ARM_GCC_493\Debug\start_v11.a(SW_RunTestMode.o)
                0x0000a1e8                SW_RunTestMode_SetInterruptMode
 .text.SW_RunTestMode_ClearInterrupt
                0x0000a228       0x30 .\CortexM0\ARM_GCC_493\Debug\start_v11.a(SW_RunTestMode.o)
                0x0000a228                SW_RunTestMode_ClearInterrupt
 .text          0x0000a258        0x0 .\CortexM0\ARM_GCC_493\Debug\start_v11.a(LED_RED_PIN.o)
 .text.LED_RED_PIN_SetDriveMode
                0x0000a258       0x30 .\CortexM0\ARM_GCC_493\Debug\start_v11.a(LED_RED_PIN.o)
                0x0000a258                LED_RED_PIN_SetDriveMode
 .text.LED_RED_PIN_Write
                0x0000a288       0x4c .\CortexM0\ARM_GCC_493\Debug\start_v11.a(LED_RED_PIN.o)
                0x0000a288                LED_RED_PIN_Write
 .text.LED_RED_PIN_Read
                0x0000a2d4       0x1c .\CortexM0\ARM_GCC_493\Debug\start_v11.a(LED_RED_PIN.o)
                0x0000a2d4                LED_RED_PIN_Read
 .text.LED_RED_PIN_ReadDataReg
                0x0000a2f0       0x1c .\CortexM0\ARM_GCC_493\Debug\start_v11.a(LED_RED_PIN.o)
                0x0000a2f0                LED_RED_PIN_ReadDataReg
 .text.LED_RED_PIN_SetInterruptMode
                0x0000a30c       0x40 .\CortexM0\ARM_GCC_493\Debug\start_v11.a(LED_RED_PIN.o)
                0x0000a30c                LED_RED_PIN_SetInterruptMode
 .text.LED_RED_PIN_ClearInterrupt
                0x0000a34c       0x30 .\CortexM0\ARM_GCC_493\Debug\start_v11.a(LED_RED_PIN.o)
                0x0000a34c                LED_RED_PIN_ClearInterrupt
 .text          0x0000a37c        0x0 .\CortexM0\ARM_GCC_493\Debug\start_v11.a(LED_GREEN_PIN.o)
 .text.LED_GREEN_PIN_SetDriveMode
                0x0000a37c       0x30 .\CortexM0\ARM_GCC_493\Debug\start_v11.a(LED_GREEN_PIN.o)
                0x0000a37c                LED_GREEN_PIN_SetDriveMode
 .text.LED_GREEN_PIN_Write
                0x0000a3ac       0x4c .\CortexM0\ARM_GCC_493\Debug\start_v11.a(LED_GREEN_PIN.o)
                0x0000a3ac                LED_GREEN_PIN_Write
 .text.LED_GREEN_PIN_Read
                0x0000a3f8       0x1c .\CortexM0\ARM_GCC_493\Debug\start_v11.a(LED_GREEN_PIN.o)
                0x0000a3f8                LED_GREEN_PIN_Read
 .text.LED_GREEN_PIN_ReadDataReg
                0x0000a414       0x1c .\CortexM0\ARM_GCC_493\Debug\start_v11.a(LED_GREEN_PIN.o)
                0x0000a414                LED_GREEN_PIN_ReadDataReg
 .text.LED_GREEN_PIN_SetInterruptMode
                0x0000a430       0x40 .\CortexM0\ARM_GCC_493\Debug\start_v11.a(LED_GREEN_PIN.o)
                0x0000a430                LED_GREEN_PIN_SetInterruptMode
 .text.LED_GREEN_PIN_ClearInterrupt
                0x0000a470       0x30 .\CortexM0\ARM_GCC_493\Debug\start_v11.a(LED_GREEN_PIN.o)
                0x0000a470                LED_GREEN_PIN_ClearInterrupt
 .text          0x0000a4a0        0x0 .\CortexM0\ARM_GCC_493\Debug\start_v11.a(Timer.o)
 .text.Timer_Init
                0x0000a4a0       0x38 .\CortexM0\ARM_GCC_493\Debug\start_v11.a(Timer.o)
                0x0000a4a0                Timer_Init
 .text.Timer_Enable
                0x0000a4d8       0x38 .\CortexM0\ARM_GCC_493\Debug\start_v11.a(Timer.o)
                0x0000a4d8                Timer_Enable
 .text.Timer_Start
                0x0000a510       0x24 .\CortexM0\ARM_GCC_493\Debug\start_v11.a(Timer.o)
                0x0000a510                Timer_Start
 .text.Timer_Stop
                0x0000a534       0x30 .\CortexM0\ARM_GCC_493\Debug\start_v11.a(Timer.o)
                0x0000a534                Timer_Stop
 .text.Timer_SetMode
                0x0000a564       0x48 .\CortexM0\ARM_GCC_493\Debug\start_v11.a(Timer.o)
                0x0000a564                Timer_SetMode
 .text.Timer_SetQDMode
                0x0000a5ac       0x48 .\CortexM0\ARM_GCC_493\Debug\start_v11.a(Timer.o)
                0x0000a5ac                Timer_SetQDMode
 .text.Timer_SetPrescaler
                0x0000a5f4       0x48 .\CortexM0\ARM_GCC_493\Debug\start_v11.a(Timer.o)
                0x0000a5f4                Timer_SetPrescaler
 .text.Timer_SetOneShot
                0x0000a63c       0x4c .\CortexM0\ARM_GCC_493\Debug\start_v11.a(Timer.o)
                0x0000a63c                Timer_SetOneShot
 .text.Timer_SetPWMMode
                0x0000a688       0x1c .\CortexM0\ARM_GCC_493\Debug\start_v11.a(Timer.o)
                0x0000a688                Timer_SetPWMMode
 .text.Timer_SetPWMSyncKill
                0x0000a6a4       0x48 .\CortexM0\ARM_GCC_493\Debug\start_v11.a(Timer.o)
                0x0000a6a4                Timer_SetPWMSyncKill
 .text.Timer_SetPWMStopOnKill
                0x0000a6ec       0x48 .\CortexM0\ARM_GCC_493\Debug\start_v11.a(Timer.o)
                0x0000a6ec                Timer_SetPWMStopOnKill
 .text.Timer_SetPWMDeadTime
                0x0000a734       0x4c .\CortexM0\ARM_GCC_493\Debug\start_v11.a(Timer.o)
                0x0000a734                Timer_SetPWMDeadTime
 .text.Timer_SetPWMInvert
                0x0000a780       0x48 .\CortexM0\ARM_GCC_493\Debug\start_v11.a(Timer.o)
                0x0000a780                Timer_SetPWMInvert
 .text.Timer_WriteCounter
                0x0000a7c8       0x1c .\CortexM0\ARM_GCC_493\Debug\start_v11.a(Timer.o)
                0x0000a7c8                Timer_WriteCounter
 .text.Timer_ReadCounter
                0x0000a7e4       0x18 .\CortexM0\ARM_GCC_493\Debug\start_v11.a(Timer.o)
                0x0000a7e4                Timer_ReadCounter
 .text.Timer_SetCounterMode
                0x0000a7fc       0x48 .\CortexM0\ARM_GCC_493\Debug\start_v11.a(Timer.o)
                0x0000a7fc                Timer_SetCounterMode
 .text.Timer_WritePeriod
                0x0000a844       0x1c .\CortexM0\ARM_GCC_493\Debug\start_v11.a(Timer.o)
                0x0000a844                Timer_WritePeriod
 .text.Timer_ReadPeriod
                0x0000a860       0x18 .\CortexM0\ARM_GCC_493\Debug\start_v11.a(Timer.o)
                0x0000a860                Timer_ReadPeriod
 .text.Timer_SetCompareSwap
                0x0000a878       0x48 .\CortexM0\ARM_GCC_493\Debug\start_v11.a(Timer.o)
                0x0000a878                Timer_SetCompareSwap
 .text.Timer_WritePeriodBuf
                0x0000a8c0       0x1c .\CortexM0\ARM_GCC_493\Debug\start_v11.a(Timer.o)
                0x0000a8c0                Timer_WritePeriodBuf
 .text.Timer_ReadPeriodBuf
                0x0000a8dc       0x18 .\CortexM0\ARM_GCC_493\Debug\start_v11.a(Timer.o)
                0x0000a8dc                Timer_ReadPeriodBuf
 .text.Timer_SetPeriodSwap
                0x0000a8f4       0x48 .\CortexM0\ARM_GCC_493\Debug\start_v11.a(Timer.o)
                0x0000a8f4                Timer_SetPeriodSwap
 .text.Timer_WriteCompare
                0x0000a93c       0x1c .\CortexM0\ARM_GCC_493\Debug\start_v11.a(Timer.o)
                0x0000a93c                Timer_WriteCompare
 .text.Timer_ReadCompare
                0x0000a958       0x18 .\CortexM0\ARM_GCC_493\Debug\start_v11.a(Timer.o)
                0x0000a958                Timer_ReadCompare
 .text.Timer_WriteCompareBuf
                0x0000a970       0x1c .\CortexM0\ARM_GCC_493\Debug\start_v11.a(Timer.o)
                0x0000a970                Timer_WriteCompareBuf
 .text.Timer_ReadCompareBuf
                0x0000a98c       0x18 .\CortexM0\ARM_GCC_493\Debug\start_v11.a(Timer.o)
                0x0000a98c                Timer_ReadCompareBuf
 .text.Timer_ReadCapture
                0x0000a9a4       0x18 .\CortexM0\ARM_GCC_493\Debug\start_v11.a(Timer.o)
                0x0000a9a4                Timer_ReadCapture
 .text.Timer_ReadCaptureBuf
                0x0000a9bc       0x18 .\CortexM0\ARM_GCC_493\Debug\start_v11.a(Timer.o)
                0x0000a9bc                Timer_ReadCaptureBuf
 .text.Timer_SetCaptureMode
                0x0000a9d4       0x44 .\CortexM0\ARM_GCC_493\Debug\start_v11.a(Timer.o)
                0x0000a9d4                Timer_SetCaptureMode
 .text.Timer_SetReloadMode
                0x0000aa18       0x44 .\CortexM0\ARM_GCC_493\Debug\start_v11.a(Timer.o)
                0x0000aa18                Timer_SetReloadMode
 .text.Timer_SetStartMode
                0x0000aa5c       0x48 .\CortexM0\ARM_GCC_493\Debug\start_v11.a(Timer.o)
                0x0000aa5c                Timer_SetStartMode
 .text.Timer_SetStopMode
                0x0000aaa4       0x44 .\CortexM0\ARM_GCC_493\Debug\start_v11.a(Timer.o)
                0x0000aaa4                Timer_SetStopMode
 .text.Timer_SetCountMode
                0x0000aae8       0x44 .\CortexM0\ARM_GCC_493\Debug\start_v11.a(Timer.o)
                0x0000aae8                Timer_SetCountMode
 .text.Timer_TriggerCommand
                0x0000ab2c       0x38 .\CortexM0\ARM_GCC_493\Debug\start_v11.a(Timer.o)
                0x0000ab2c                Timer_TriggerCommand
 .text.Timer_ReadStatus
                0x0000ab64       0x20 .\CortexM0\ARM_GCC_493\Debug\start_v11.a(Timer.o)
                0x0000ab64                Timer_ReadStatus
 .text.Timer_SetInterruptMode
                0x0000ab84       0x18 .\CortexM0\ARM_GCC_493\Debug\start_v11.a(Timer.o)
                0x0000ab84                Timer_SetInterruptMode
 .text.Timer_GetInterruptSourceMasked
                0x0000ab9c       0x14 .\CortexM0\ARM_GCC_493\Debug\start_v11.a(Timer.o)
                0x0000ab9c                Timer_GetInterruptSourceMasked
 .text.Timer_GetInterruptSource
                0x0000abb0       0x14 .\CortexM0\ARM_GCC_493\Debug\start_v11.a(Timer.o)
                0x0000abb0                Timer_GetInterruptSource
 .text.Timer_ClearInterrupt
                0x0000abc4       0x18 .\CortexM0\ARM_GCC_493\Debug\start_v11.a(Timer.o)
                0x0000abc4                Timer_ClearInterrupt
 .text.Timer_SetInterrupt
                0x0000abdc       0x18 .\CortexM0\ARM_GCC_493\Debug\start_v11.a(Timer.o)
                0x0000abdc                Timer_SetInterrupt
 .text          0x0000abf4        0x0 .\CortexM0\ARM_GCC_493\Debug\start_v11.a(isr_timer.o)
 .text.isr_timer_Start
                0x0000abf4       0x24 .\CortexM0\ARM_GCC_493\Debug\start_v11.a(isr_timer.o)
                0x0000abf4                isr_timer_Start
 .text.isr_timer_StartEx
                0x0000ac18       0x24 .\CortexM0\ARM_GCC_493\Debug\start_v11.a(isr_timer.o)
                0x0000ac18                isr_timer_StartEx
 .text.isr_timer_Stop
                0x0000ac3c       0x18 .\CortexM0\ARM_GCC_493\Debug\start_v11.a(isr_timer.o)
                0x0000ac3c                isr_timer_Stop
 .text.isr_timer_Interrupt
                0x0000ac54        0x8 .\CortexM0\ARM_GCC_493\Debug\start_v11.a(isr_timer.o)
                0x0000ac54                isr_timer_Interrupt
 .text.isr_timer_SetVector
                0x0000ac5c       0x1c .\CortexM0\ARM_GCC_493\Debug\start_v11.a(isr_timer.o)
                0x0000ac5c                isr_timer_SetVector
 .text.isr_timer_GetVector
                0x0000ac78       0x14 .\CortexM0\ARM_GCC_493\Debug\start_v11.a(isr_timer.o)
                0x0000ac78                isr_timer_GetVector
 .text.isr_timer_SetPriority
                0x0000ac8c       0x50 .\CortexM0\ARM_GCC_493\Debug\start_v11.a(isr_timer.o)
                0x0000ac8c                isr_timer_SetPriority
 .text.isr_timer_GetPriority
                0x0000acdc       0x2c .\CortexM0\ARM_GCC_493\Debug\start_v11.a(isr_timer.o)
                0x0000acdc                isr_timer_GetPriority
 .text.isr_timer_Enable
                0x0000ad08       0x14 .\CortexM0\ARM_GCC_493\Debug\start_v11.a(isr_timer.o)
                0x0000ad08                isr_timer_Enable
 .text.isr_timer_GetState
                0x0000ad1c       0x20 .\CortexM0\ARM_GCC_493\Debug\start_v11.a(isr_timer.o)
                0x0000ad1c                isr_timer_GetState
 .text.isr_timer_Disable
                0x0000ad3c       0x14 .\CortexM0\ARM_GCC_493\Debug\start_v11.a(isr_timer.o)
                0x0000ad3c                isr_timer_Disable
 .text.isr_timer_SetPending
                0x0000ad50       0x14 .\CortexM0\ARM_GCC_493\Debug\start_v11.a(isr_timer.o)
                0x0000ad50                isr_timer_SetPending
 .text.isr_timer_ClearPending
                0x0000ad64       0x14 .\CortexM0\ARM_GCC_493\Debug\start_v11.a(isr_timer.o)
                0x0000ad64                isr_timer_ClearPending
 .text          0x0000ad78        0x0 .\CortexM0\ARM_GCC_493\Debug\start_v11.a(BtnUp.o)
 .text.BtnUp_SetDriveMode
                0x0000ad78       0x2c .\CortexM0\ARM_GCC_493\Debug\start_v11.a(BtnUp.o)
                0x0000ad78                BtnUp_SetDriveMode
 .text.BtnUp_Write
                0x0000ada4       0x48 .\CortexM0\ARM_GCC_493\Debug\start_v11.a(BtnUp.o)
                0x0000ada4                BtnUp_Write
 .text.BtnUp_Read
                0x0000adec       0x1c .\CortexM0\ARM_GCC_493\Debug\start_v11.a(BtnUp.o)
                0x0000adec                BtnUp_Read
 .text.BtnUp_ReadDataReg
                0x0000ae08       0x1c .\CortexM0\ARM_GCC_493\Debug\start_v11.a(BtnUp.o)
                0x0000ae08                BtnUp_ReadDataReg
 .text.BtnUp_SetInterruptMode
                0x0000ae24       0x40 .\CortexM0\ARM_GCC_493\Debug\start_v11.a(BtnUp.o)
                0x0000ae24                BtnUp_SetInterruptMode
 .text.BtnUp_ClearInterrupt
                0x0000ae64       0x2c .\CortexM0\ARM_GCC_493\Debug\start_v11.a(BtnUp.o)
                0x0000ae64                BtnUp_ClearInterrupt
 .text          0x0000ae90        0x0 .\CortexM0\ARM_GCC_493\Debug\start_v11.a(BtnDown.o)
 .text.BtnDown_SetDriveMode
                0x0000ae90       0x2c .\CortexM0\ARM_GCC_493\Debug\start_v11.a(BtnDown.o)
                0x0000ae90                BtnDown_SetDriveMode
 .text.BtnDown_Write
                0x0000aebc       0x4c .\CortexM0\ARM_GCC_493\Debug\start_v11.a(BtnDown.o)
                0x0000aebc                BtnDown_Write
 .text.BtnDown_Read
                0x0000af08       0x1c .\CortexM0\ARM_GCC_493\Debug\start_v11.a(BtnDown.o)
                0x0000af08                BtnDown_Read
 .text.BtnDown_ReadDataReg
                0x0000af24       0x1c .\CortexM0\ARM_GCC_493\Debug\start_v11.a(BtnDown.o)
                0x0000af24                BtnDown_ReadDataReg
 .text.BtnDown_SetInterruptMode
                0x0000af40       0x40 .\CortexM0\ARM_GCC_493\Debug\start_v11.a(BtnDown.o)
                0x0000af40                BtnDown_SetInterruptMode
 .text.BtnDown_ClearInterrupt
                0x0000af80       0x30 .\CortexM0\ARM_GCC_493\Debug\start_v11.a(BtnDown.o)
                0x0000af80                BtnDown_ClearInterrupt
 .text          0x0000afb0        0x0 .\CortexM0\ARM_GCC_493\Debug\start_v11.a(BUTT_DOWN_INT.o)
 .text.BUTT_DOWN_INT_Start
                0x0000afb0       0x24 .\CortexM0\ARM_GCC_493\Debug\start_v11.a(BUTT_DOWN_INT.o)
                0x0000afb0                BUTT_DOWN_INT_Start
 .text.BUTT_DOWN_INT_StartEx
                0x0000afd4       0x24 .\CortexM0\ARM_GCC_493\Debug\start_v11.a(BUTT_DOWN_INT.o)
                0x0000afd4                BUTT_DOWN_INT_StartEx
 .text.BUTT_DOWN_INT_Stop
                0x0000aff8       0x18 .\CortexM0\ARM_GCC_493\Debug\start_v11.a(BUTT_DOWN_INT.o)
                0x0000aff8                BUTT_DOWN_INT_Stop
 .text.BUTT_DOWN_INT_Interrupt
                0x0000b010        0x8 .\CortexM0\ARM_GCC_493\Debug\start_v11.a(BUTT_DOWN_INT.o)
                0x0000b010                BUTT_DOWN_INT_Interrupt
 .text.BUTT_DOWN_INT_SetVector
                0x0000b018       0x18 .\CortexM0\ARM_GCC_493\Debug\start_v11.a(BUTT_DOWN_INT.o)
                0x0000b018                BUTT_DOWN_INT_SetVector
 .text.BUTT_DOWN_INT_GetVector
                0x0000b030       0x14 .\CortexM0\ARM_GCC_493\Debug\start_v11.a(BUTT_DOWN_INT.o)
                0x0000b030                BUTT_DOWN_INT_GetVector
 .text.BUTT_DOWN_INT_SetPriority
                0x0000b044       0x50 .\CortexM0\ARM_GCC_493\Debug\start_v11.a(BUTT_DOWN_INT.o)
                0x0000b044                BUTT_DOWN_INT_SetPriority
 .text.BUTT_DOWN_INT_GetPriority
                0x0000b094       0x2c .\CortexM0\ARM_GCC_493\Debug\start_v11.a(BUTT_DOWN_INT.o)
                0x0000b094                BUTT_DOWN_INT_GetPriority
 .text.BUTT_DOWN_INT_Enable
                0x0000b0c0       0x14 .\CortexM0\ARM_GCC_493\Debug\start_v11.a(BUTT_DOWN_INT.o)
                0x0000b0c0                BUTT_DOWN_INT_Enable
 .text.BUTT_DOWN_INT_GetState
                0x0000b0d4       0x20 .\CortexM0\ARM_GCC_493\Debug\start_v11.a(BUTT_DOWN_INT.o)
                0x0000b0d4                BUTT_DOWN_INT_GetState
 .text.BUTT_DOWN_INT_Disable
                0x0000b0f4       0x14 .\CortexM0\ARM_GCC_493\Debug\start_v11.a(BUTT_DOWN_INT.o)
                0x0000b0f4                BUTT_DOWN_INT_Disable
 .text.BUTT_DOWN_INT_SetPending
                0x0000b108       0x14 .\CortexM0\ARM_GCC_493\Debug\start_v11.a(BUTT_DOWN_INT.o)
                0x0000b108                BUTT_DOWN_INT_SetPending
 .text.BUTT_DOWN_INT_ClearPending
                0x0000b11c       0x14 .\CortexM0\ARM_GCC_493\Debug\start_v11.a(BUTT_DOWN_INT.o)
                0x0000b11c                BUTT_DOWN_INT_ClearPending
 .text          0x0000b130        0x0 .\CortexM0\ARM_GCC_493\Debug\start_v11.a(BUTT_UP_INT.o)
 .text.BUTT_UP_INT_Start
                0x0000b130       0x24 .\CortexM0\ARM_GCC_493\Debug\start_v11.a(BUTT_UP_INT.o)
                0x0000b130                BUTT_UP_INT_Start
 .text.BUTT_UP_INT_StartEx
                0x0000b154       0x24 .\CortexM0\ARM_GCC_493\Debug\start_v11.a(BUTT_UP_INT.o)
                0x0000b154                BUTT_UP_INT_StartEx
 .text.BUTT_UP_INT_Stop
                0x0000b178       0x18 .\CortexM0\ARM_GCC_493\Debug\start_v11.a(BUTT_UP_INT.o)
                0x0000b178                BUTT_UP_INT_Stop
 .text.BUTT_UP_INT_Interrupt
                0x0000b190        0x8 .\CortexM0\ARM_GCC_493\Debug\start_v11.a(BUTT_UP_INT.o)
                0x0000b190                BUTT_UP_INT_Interrupt
 .text.BUTT_UP_INT_SetVector
                0x0000b198       0x18 .\CortexM0\ARM_GCC_493\Debug\start_v11.a(BUTT_UP_INT.o)
                0x0000b198                BUTT_UP_INT_SetVector
 .text.BUTT_UP_INT_GetVector
                0x0000b1b0       0x14 .\CortexM0\ARM_GCC_493\Debug\start_v11.a(BUTT_UP_INT.o)
                0x0000b1b0                BUTT_UP_INT_GetVector
 .text.BUTT_UP_INT_SetPriority
                0x0000b1c4       0x50 .\CortexM0\ARM_GCC_493\Debug\start_v11.a(BUTT_UP_INT.o)
                0x0000b1c4                BUTT_UP_INT_SetPriority
 .text.BUTT_UP_INT_GetPriority
                0x0000b214       0x2c .\CortexM0\ARM_GCC_493\Debug\start_v11.a(BUTT_UP_INT.o)
                0x0000b214                BUTT_UP_INT_GetPriority
 .text.BUTT_UP_INT_Enable
                0x0000b240       0x14 .\CortexM0\ARM_GCC_493\Debug\start_v11.a(BUTT_UP_INT.o)
                0x0000b240                BUTT_UP_INT_Enable
 .text.BUTT_UP_INT_GetState
                0x0000b254       0x20 .\CortexM0\ARM_GCC_493\Debug\start_v11.a(BUTT_UP_INT.o)
                0x0000b254                BUTT_UP_INT_GetState
 .text.BUTT_UP_INT_Disable
                0x0000b274       0x14 .\CortexM0\ARM_GCC_493\Debug\start_v11.a(BUTT_UP_INT.o)
                0x0000b274                BUTT_UP_INT_Disable
 .text.BUTT_UP_INT_SetPending
                0x0000b288       0x14 .\CortexM0\ARM_GCC_493\Debug\start_v11.a(BUTT_UP_INT.o)
                0x0000b288                BUTT_UP_INT_SetPending
 .text.BUTT_UP_INT_ClearPending
                0x0000b29c       0x14 .\CortexM0\ARM_GCC_493\Debug\start_v11.a(BUTT_UP_INT.o)
                0x0000b29c                BUTT_UP_INT_ClearPending
 .text          0x0000b2b0       0x20 .\CortexM0\ARM_GCC_493\Debug\start_v11.a(CyBootAsmGnu.o)
                0x0000b2b0                CyDelayCycles
                0x0000b2c2                CyEnterCriticalSection
                0x0000b2ca                CyExitCriticalSection
 .text          0x0000b2d0        0x0 .\CortexM0\ARM_GCC_493\Debug\start_v11.a(UART_XB_SPI_UART_INT.o)
 .text.UART_XB_SPI_UART_ISR
                0x0000b2d0      0x114 .\CortexM0\ARM_GCC_493\Debug\start_v11.a(UART_XB_SPI_UART_INT.o)
                0x0000b2d0                UART_XB_SPI_UART_ISR
 .text          0x0000b3e4      0x120 c:/program files (x86)/cypress/psoc creator/4.0/psoc creator/import/gnu/arm/4.9.3/bin/../lib/gcc/arm-none-eabi/4.9.3/armv6-m\libgcc.a(_udivsi3.o)
                0x0000b3e4                __aeabi_uidiv
                0x0000b3e4                __udivsi3
                0x0000b4f0                __aeabi_uidivmod
 .text          0x0000b504      0x1e0 c:/program files (x86)/cypress/psoc creator/4.0/psoc creator/import/gnu/arm/4.9.3/bin/../lib/gcc/arm-none-eabi/4.9.3/armv6-m\libgcc.a(_divsi3.o)
                0x0000b504                __divsi3
                0x0000b504                __aeabi_idiv
                0x0000b6d0                __aeabi_idivmod
 .text          0x0000b6e4        0x4 c:/program files (x86)/cypress/psoc creator/4.0/psoc creator/import/gnu/arm/4.9.3/bin/../lib/gcc/arm-none-eabi/4.9.3/armv6-m\libgcc.a(_dvmd_tls.o)
                0x0000b6e4                __aeabi_idiv0
                0x0000b6e4                __aeabi_ldiv0
 .text          0x0000b6e8       0x7c c:/program files (x86)/cypress/psoc creator/4.0/psoc creator/import/gnu/arm/4.9.3/bin/../lib/gcc/arm-none-eabi/4.9.3/armv6-m\libgcc.a(_arm_cmpdf2.o)
                0x0000b6e8                __aeabi_cdrcmple
                0x0000b6f8                __aeabi_cdcmple
                0x0000b6f8                __aeabi_cdcmpeq
                0x0000b708                __aeabi_dcmpeq
                0x0000b714                __aeabi_dcmplt
                0x0000b728                __aeabi_dcmple
                0x0000b73c                __aeabi_dcmpgt
                0x0000b750                __aeabi_dcmpge
 .text          0x0000b764       0x74 c:/program files (x86)/cypress/psoc creator/4.0/psoc creator/import/gnu/arm/4.9.3/bin/../lib/gcc/arm-none-eabi/4.9.3/armv6-m\libgcc.a(_arm_cmpsf2.o)
                0x0000b764                __aeabi_cfrcmple
                0x0000b76c                __aeabi_cfcmpeq
                0x0000b76c                __aeabi_cfcmple
                0x0000b77c                __aeabi_fcmpeq
                0x0000b788                __aeabi_fcmplt
                0x0000b79c                __aeabi_fcmple
                0x0000b7b0                __aeabi_fcmpgt
                0x0000b7c4                __aeabi_fcmpge
 .text          0x0000b7d8       0x48 c:/program files (x86)/cypress/psoc creator/4.0/psoc creator/import/gnu/arm/4.9.3/bin/../lib/gcc/arm-none-eabi/4.9.3/armv6-m\libgcc.a(_aeabi_ldivmod.o)
                0x0000b7d8                __aeabi_ldivmod
 .text          0x0000b820       0x40 c:/program files (x86)/cypress/psoc creator/4.0/psoc creator/import/gnu/arm/4.9.3/bin/../lib/gcc/arm-none-eabi/4.9.3/armv6-m\libgcc.a(_aeabi_uldivmod.o)
                0x0000b820                __aeabi_uldivmod
 .text          0x0000b860       0x54 c:/program files (x86)/cypress/psoc creator/4.0/psoc creator/import/gnu/arm/4.9.3/bin/../lib/gcc/arm-none-eabi/4.9.3/armv6-m\libgcc.a(_muldi3.o)
                0x0000b860                __muldi3
                0x0000b860                __aeabi_lmul
 .text          0x0000b8b4       0x6c c:/program files (x86)/cypress/psoc creator/4.0/psoc creator/import/gnu/arm/4.9.3/bin/../lib/gcc/arm-none-eabi/4.9.3/armv6-m\libgcc.a(bpabi.o)
                0x0000b8b4                __gnu_ldivmod_helper
                0x0000b8ec                __gnu_uldivmod_helper
 .text          0x0000b920      0x270 c:/program files (x86)/cypress/psoc creator/4.0/psoc creator/import/gnu/arm/4.9.3/bin/../lib/gcc/arm-none-eabi/4.9.3/armv6-m\libgcc.a(divsf3.o)
                0x0000b920                __aeabi_fdiv
 .text          0x0000bb90       0x54 c:/program files (x86)/cypress/psoc creator/4.0/psoc creator/import/gnu/arm/4.9.3/bin/../lib/gcc/arm-none-eabi/4.9.3/armv6-m\libgcc.a(eqsf2.o)
                0x0000bb90                __eqsf2
                0x0000bb90                __nesf2
 .text          0x0000bbe4       0x94 c:/program files (x86)/cypress/psoc creator/4.0/psoc creator/import/gnu/arm/4.9.3/bin/../lib/gcc/arm-none-eabi/4.9.3/armv6-m\libgcc.a(gesf2.o)
                0x0000bbe4                __gesf2
                0x0000bbe4                __gtsf2
 .text          0x0000bc78       0x8c c:/program files (x86)/cypress/psoc creator/4.0/psoc creator/import/gnu/arm/4.9.3/bin/../lib/gcc/arm-none-eabi/4.9.3/armv6-m\libgcc.a(lesf2.o)
                0x0000bc78                __ltsf2
                0x0000bc78                __lesf2
 .text          0x0000bd04      0x264 c:/program files (x86)/cypress/psoc creator/4.0/psoc creator/import/gnu/arm/4.9.3/bin/../lib/gcc/arm-none-eabi/4.9.3/armv6-m\libgcc.a(mulsf3.o)
                0x0000bd04                __aeabi_fmul
 .text          0x0000bf68       0x90 c:/program files (x86)/cypress/psoc creator/4.0/psoc creator/import/gnu/arm/4.9.3/bin/../lib/gcc/arm-none-eabi/4.9.3/armv6-m\libgcc.a(floatsisf.o)
                0x0000bf68                __aeabi_i2f
 .text          0x0000bff8      0x650 c:/program files (x86)/cypress/psoc creator/4.0/psoc creator/import/gnu/arm/4.9.3/bin/../lib/gcc/arm-none-eabi/4.9.3/armv6-m\libgcc.a(adddf3.o)
                0x0000bff8                __aeabi_dadd
 .text          0x0000c648      0x648 c:/program files (x86)/cypress/psoc creator/4.0/psoc creator/import/gnu/arm/4.9.3/bin/../lib/gcc/arm-none-eabi/4.9.3/armv6-m\libgcc.a(divdf3.o)
                0x0000c648                __aeabi_ddiv
 .text          0x0000cc90       0x88 c:/program files (x86)/cypress/psoc creator/4.0/psoc creator/import/gnu/arm/4.9.3/bin/../lib/gcc/arm-none-eabi/4.9.3/armv6-m\libgcc.a(eqdf2.o)
                0x0000cc90                __nedf2
                0x0000cc90                __eqdf2
 .text          0x0000cd18       0xe0 c:/program files (x86)/cypress/psoc creator/4.0/psoc creator/import/gnu/arm/4.9.3/bin/../lib/gcc/arm-none-eabi/4.9.3/armv6-m\libgcc.a(gedf2.o)
                0x0000cd18                __gedf2
                0x0000cd18                __gtdf2
 .text          0x0000cdf8       0xcc c:/program files (x86)/cypress/psoc creator/4.0/psoc creator/import/gnu/arm/4.9.3/bin/../lib/gcc/arm-none-eabi/4.9.3/armv6-m\libgcc.a(ledf2.o)
                0x0000cdf8                __ledf2
                0x0000cdf8                __ltdf2
 .text          0x0000cec4      0x6f4 c:/program files (x86)/cypress/psoc creator/4.0/psoc creator/import/gnu/arm/4.9.3/bin/../lib/gcc/arm-none-eabi/4.9.3/armv6-m\libgcc.a(subdf3.o)
                0x0000cec4                __aeabi_dsub
 .text          0x0000d5b8       0x6c c:/program files (x86)/cypress/psoc creator/4.0/psoc creator/import/gnu/arm/4.9.3/bin/../lib/gcc/arm-none-eabi/4.9.3/armv6-m\libgcc.a(fixdfsi.o)
                0x0000d5b8                __aeabi_d2iz
 .text          0x0000d624       0x78 c:/program files (x86)/cypress/psoc creator/4.0/psoc creator/import/gnu/arm/4.9.3/bin/../lib/gcc/arm-none-eabi/4.9.3/armv6-m\libgcc.a(floatsidf.o)
                0x0000d624                __aeabi_i2d
 .text          0x0000d69c       0xa8 c:/program files (x86)/cypress/psoc creator/4.0/psoc creator/import/gnu/arm/4.9.3/bin/../lib/gcc/arm-none-eabi/4.9.3/armv6-m\libgcc.a(extendsfdf2.o)
                0x0000d69c                __aeabi_f2d
 .text          0x0000d744       0x3c c:/program files (x86)/cypress/psoc creator/4.0/psoc creator/import/gnu/arm/4.9.3/bin/../lib/gcc/arm-none-eabi/4.9.3/armv6-m\libgcc.a(_clzsi2.o)
                0x0000d744                __clzsi2
 .text          0x0000d780      0x1f0 c:/program files (x86)/cypress/psoc creator/4.0/psoc creator/import/gnu/arm/4.9.3/bin/../lib/gcc/arm-none-eabi/4.9.3/armv6-m\libgcc.a(_divdi3.o)
                0x0000d780                __divdi3
 .text          0x0000d970      0x158 c:/program files (x86)/cypress/psoc creator/4.0/psoc creator/import/gnu/arm/4.9.3/bin/../lib/gcc/arm-none-eabi/4.9.3/armv6-m\libgcc.a(_udivdi3.o)
                0x0000d970                __udivdi3
 .text          0x0000dac8       0x18 c:/program files (x86)/cypress/psoc creator/4.0/psoc creator/import/gnu/arm/4.9.3/bin/../lib/gcc/arm-none-eabi/4.9.3/armv6-m\libgcc.a(_clzdi2.o)
                0x0000dac8                __clzdi2
 .text          0x0000dae0        0x0 c:/program files (x86)/cypress/psoc creator/4.0/psoc creator/import/gnu/arm/4.9.3/bin/../lib/gcc/arm-none-eabi/4.9.3/../../../../arm-none-eabi/lib/armv6-m\libg.a(lib_a-errno.o)
 .text.__errno  0x0000dae0        0xc c:/program files (x86)/cypress/psoc creator/4.0/psoc creator/import/gnu/arm/4.9.3/bin/../lib/gcc/arm-none-eabi/4.9.3/../../../../arm-none-eabi/lib/armv6-m\libg.a(lib_a-errno.o)
                0x0000dae0                __errno
 .text          0x0000daec        0x0 c:/program files (x86)/cypress/psoc creator/4.0/psoc creator/import/gnu/arm/4.9.3/bin/../lib/gcc/arm-none-eabi/4.9.3/../../../../arm-none-eabi/lib/armv6-m\libg.a(lib_a-exit.o)
 .text.exit     0x0000daec       0x20 c:/program files (x86)/cypress/psoc creator/4.0/psoc creator/import/gnu/arm/4.9.3/bin/../lib/gcc/arm-none-eabi/4.9.3/../../../../arm-none-eabi/lib/armv6-m\libg.a(lib_a-exit.o)
                0x0000daec                exit
 .text          0x0000db0c        0x0 c:/program files (x86)/cypress/psoc creator/4.0/psoc creator/import/gnu/arm/4.9.3/bin/../lib/gcc/arm-none-eabi/4.9.3/../../../../arm-none-eabi/lib/armv6-m\libg.a(lib_a-impure.o)
 .text          0x0000db0c        0x0 c:/program files (x86)/cypress/psoc creator/4.0/psoc creator/import/gnu/arm/4.9.3/bin/../lib/gcc/arm-none-eabi/4.9.3/../../../../arm-none-eabi/lib/armv6-m\libg.a(lib_a-init.o)
 .text.__libc_init_array
                0x0000db0c       0x48 c:/program files (x86)/cypress/psoc creator/4.0/psoc creator/import/gnu/arm/4.9.3/bin/../lib/gcc/arm-none-eabi/4.9.3/../../../../arm-none-eabi/lib/armv6-m\libg.a(lib_a-init.o)
                0x0000db0c                __libc_init_array
 .text          0x0000db54        0x0 c:/program files (x86)/cypress/psoc creator/4.0/psoc creator/import/gnu/arm/4.9.3/bin/../lib/gcc/arm-none-eabi/4.9.3/../../../../arm-none-eabi/lib/armv6-m\libg.a(lib_a-memcpy.o)
 .text.memcpy   0x0000db54       0x7c c:/program files (x86)/cypress/psoc creator/4.0/psoc creator/import/gnu/arm/4.9.3/bin/../lib/gcc/arm-none-eabi/4.9.3/../../../../arm-none-eabi/lib/armv6-m\libg.a(lib_a-memcpy.o)
                0x0000db54                memcpy
 .text          0x0000dbd0        0x0 c:/program files (x86)/cypress/psoc creator/4.0/psoc creator/import/gnu/arm/4.9.3/bin/../lib/gcc/arm-none-eabi/4.9.3/../../../../arm-none-eabi/lib/armv6-m\libg.a(lib_a-memset.o)
 .text.memset   0x0000dbd0       0x8c c:/program files (x86)/cypress/psoc creator/4.0/psoc creator/import/gnu/arm/4.9.3/bin/../lib/gcc/arm-none-eabi/4.9.3/../../../../arm-none-eabi/lib/armv6-m\libg.a(lib_a-memset.o)
                0x0000dbd0                memset
 .text          0x0000dc5c        0x0 c:/program files (x86)/cypress/psoc creator/4.0/psoc creator/import/gnu/arm/4.9.3/bin/../lib/gcc/arm-none-eabi/4.9.3/../../../../arm-none-eabi/lib/armv6-m\libg.a(lib_a-rand.o)
 .text.srand    0x0000dc5c       0x14 c:/program files (x86)/cypress/psoc creator/4.0/psoc creator/import/gnu/arm/4.9.3/bin/../lib/gcc/arm-none-eabi/4.9.3/../../../../arm-none-eabi/lib/armv6-m\libg.a(lib_a-rand.o)
                0x0000dc5c                srand
 .text.rand     0x0000dc70       0x34 c:/program files (x86)/cypress/psoc creator/4.0/psoc creator/import/gnu/arm/4.9.3/bin/../lib/gcc/arm-none-eabi/4.9.3/../../../../arm-none-eabi/lib/armv6-m\libg.a(lib_a-rand.o)
                0x0000dc70                rand
 .text          0x0000dca4        0x0 c:/program files (x86)/cypress/psoc creator/4.0/psoc creator/import/gnu/arm/4.9.3/bin/../lib/gcc/arm-none-eabi/4.9.3/../../../../arm-none-eabi/lib/armv6-m\libg.a(lib_a-sprintf.o)
 .text._sprintf_r
                0x0000dca4       0x40 c:/program files (x86)/cypress/psoc creator/4.0/psoc creator/import/gnu/arm/4.9.3/bin/../lib/gcc/arm-none-eabi/4.9.3/../../../../arm-none-eabi/lib/armv6-m\libg.a(lib_a-sprintf.o)
                0x0000dca4                _sprintf_r
 .text.sprintf  0x0000dce4       0x44 c:/program files (x86)/cypress/psoc creator/4.0/psoc creator/import/gnu/arm/4.9.3/bin/../lib/gcc/arm-none-eabi/4.9.3/../../../../arm-none-eabi/lib/armv6-m\libg.a(lib_a-sprintf.o)
                0x0000dce4                sprintf
 .text          0x0000dd28        0x0 c:/program files (x86)/cypress/psoc creator/4.0/psoc creator/import/gnu/arm/4.9.3/bin/../lib/gcc/arm-none-eabi/4.9.3/../../../../arm-none-eabi/lib/armv6-m\libg.a(lib_a-strcat.o)
 .text.strcat   0x0000dd28       0x50 c:/program files (x86)/cypress/psoc creator/4.0/psoc creator/import/gnu/arm/4.9.3/bin/../lib/gcc/arm-none-eabi/4.9.3/../../../../arm-none-eabi/lib/armv6-m\libg.a(lib_a-strcat.o)
                0x0000dd28                strcat
 .text          0x0000dd78        0x0 c:/program files (x86)/cypress/psoc creator/4.0/psoc creator/import/gnu/arm/4.9.3/bin/../lib/gcc/arm-none-eabi/4.9.3/../../../../arm-none-eabi/lib/armv6-m\libg.a(lib_a-strcpy.o)
 .text.strcpy   0x0000dd78       0x10 c:/program files (x86)/cypress/psoc creator/4.0/psoc creator/import/gnu/arm/4.9.3/bin/../lib/gcc/arm-none-eabi/4.9.3/../../../../arm-none-eabi/lib/armv6-m\libg.a(lib_a-strcpy.o)
                0x0000dd78                strcpy
 .text          0x0000dd88        0x0 c:/program files (x86)/cypress/psoc creator/4.0/psoc creator/import/gnu/arm/4.9.3/bin/../lib/gcc/arm-none-eabi/4.9.3/../../../../arm-none-eabi/lib/armv6-m\libg.a(lib_a-strlen.o)
 .text.strlen   0x0000dd88       0x68 c:/program files (x86)/cypress/psoc creator/4.0/psoc creator/import/gnu/arm/4.9.3/bin/../lib/gcc/arm-none-eabi/4.9.3/../../../../arm-none-eabi/lib/armv6-m\libg.a(lib_a-strlen.o)
                0x0000dd88                strlen
 .text          0x0000ddf0        0x0 c:/program files (x86)/cypress/psoc creator/4.0/psoc creator/import/gnu/arm/4.9.3/bin/../lib/gcc/arm-none-eabi/4.9.3/../../../../arm-none-eabi/lib/armv6-m\libg.a(lib_a-strncat.o)
 .text.strncat  0x0000ddf0       0x60 c:/program files (x86)/cypress/psoc creator/4.0/psoc creator/import/gnu/arm/4.9.3/bin/../lib/gcc/arm-none-eabi/4.9.3/../../../../arm-none-eabi/lib/armv6-m\libg.a(lib_a-strncat.o)
                0x0000ddf0                strncat
 .text          0x0000de50        0x0 c:/program files (x86)/cypress/psoc creator/4.0/psoc creator/import/gnu/arm/4.9.3/bin/../lib/gcc/arm-none-eabi/4.9.3/../../../../arm-none-eabi/lib/armv6-m\libg.a(lib_a-strncpy.o)
 .text.strncpy  0x0000de50       0x78 c:/program files (x86)/cypress/psoc creator/4.0/psoc creator/import/gnu/arm/4.9.3/bin/../lib/gcc/arm-none-eabi/4.9.3/../../../../arm-none-eabi/lib/armv6-m\libg.a(lib_a-strncpy.o)
                0x0000de50                strncpy
 .text          0x0000dec8        0x0 c:/program files (x86)/cypress/psoc creator/4.0/psoc creator/import/gnu/arm/4.9.3/bin/../lib/gcc/arm-none-eabi/4.9.3/../../../../arm-none-eabi/lib/armv6-m\libg.a(lib_a-svfprintf.o)
 .text._svfprintf_r
                0x0000dec8     0x14e4 c:/program files (x86)/cypress/psoc creator/4.0/psoc creator/import/gnu/arm/4.9.3/bin/../lib/gcc/arm-none-eabi/4.9.3/../../../../arm-none-eabi/lib/armv6-m\libg.a(lib_a-svfprintf.o)
                0x0000dec8                _svfprintf_r
 .text          0x0000f3ac        0x0 c:/program files (x86)/cypress/psoc creator/4.0/psoc creator/import/gnu/arm/4.9.3/bin/../lib/gcc/arm-none-eabi/4.9.3/../../../../arm-none-eabi/lib/armv6-m\libg.a(lib_a-__call_atexit.o)
 .text.startup.register_fini
                0x0000f3ac       0x18 c:/program files (x86)/cypress/psoc creator/4.0/psoc creator/import/gnu/arm/4.9.3/bin/../lib/gcc/arm-none-eabi/4.9.3/../../../../arm-none-eabi/lib/armv6-m\libg.a(lib_a-__call_atexit.o)
 .text.__call_exitprocs
                0x0000f3c4      0x108 c:/program files (x86)/cypress/psoc creator/4.0/psoc creator/import/gnu/arm/4.9.3/bin/../lib/gcc/arm-none-eabi/4.9.3/../../../../arm-none-eabi/lib/armv6-m\libg.a(lib_a-__call_atexit.o)
                0x0000f3c4                __call_exitprocs
 .text          0x0000f4cc        0x0 c:/program files (x86)/cypress/psoc creator/4.0/psoc creator/import/gnu/arm/4.9.3/bin/../lib/gcc/arm-none-eabi/4.9.3/../../../../arm-none-eabi/lib/armv6-m\libg.a(lib_a-atexit.o)
 .text.atexit   0x0000f4cc       0x10 c:/program files (x86)/cypress/psoc creator/4.0/psoc creator/import/gnu/arm/4.9.3/bin/../lib/gcc/arm-none-eabi/4.9.3/../../../../arm-none-eabi/lib/armv6-m\libg.a(lib_a-atexit.o)
                0x0000f4cc                atexit
 .text          0x0000f4dc        0x0 c:/program files (x86)/cypress/psoc creator/4.0/psoc creator/import/gnu/arm/4.9.3/bin/../lib/gcc/arm-none-eabi/4.9.3/../../../../arm-none-eabi/lib/armv6-m\libg.a(lib_a-dtoa.o)
 .text.quorem   0x0000f4dc      0x158 c:/program files (x86)/cypress/psoc creator/4.0/psoc creator/import/gnu/arm/4.9.3/bin/../lib/gcc/arm-none-eabi/4.9.3/../../../../arm-none-eabi/lib/armv6-m\libg.a(lib_a-dtoa.o)
 .text._dtoa_r  0x0000f634      0xfb4 c:/program files (x86)/cypress/psoc creator/4.0/psoc creator/import/gnu/arm/4.9.3/bin/../lib/gcc/arm-none-eabi/4.9.3/../../../../arm-none-eabi/lib/armv6-m\libg.a(lib_a-dtoa.o)
                0x0000f634                _dtoa_r
 .text          0x000105e8        0x0 c:/program files (x86)/cypress/psoc creator/4.0/psoc creator/import/gnu/arm/4.9.3/bin/../lib/gcc/arm-none-eabi/4.9.3/../../../../arm-none-eabi/lib/armv6-m\libg.a(lib_a-fini.o)
 .text.__libc_fini_array
                0x000105e8       0x34 c:/program files (x86)/cypress/psoc creator/4.0/psoc creator/import/gnu/arm/4.9.3/bin/../lib/gcc/arm-none-eabi/4.9.3/../../../../arm-none-eabi/lib/armv6-m\libg.a(lib_a-fini.o)
                0x000105e8                __libc_fini_array
 .text          0x0001061c        0x0 c:/program files (x86)/cypress/psoc creator/4.0/psoc creator/import/gnu/arm/4.9.3/bin/../lib/gcc/arm-none-eabi/4.9.3/../../../../arm-none-eabi/lib/armv6-m\libg.a(lib_a-locale.o)
 .text._setlocale_r
                0x0001061c       0x44 c:/program files (x86)/cypress/psoc creator/4.0/psoc creator/import/gnu/arm/4.9.3/bin/../lib/gcc/arm-none-eabi/4.9.3/../../../../arm-none-eabi/lib/armv6-m\libg.a(lib_a-locale.o)
                0x0001061c                _setlocale_r
 .text.__locale_charset
                0x00010660        0x8 c:/program files (x86)/cypress/psoc creator/4.0/psoc creator/import/gnu/arm/4.9.3/bin/../lib/gcc/arm-none-eabi/4.9.3/../../../../arm-none-eabi/lib/armv6-m\libg.a(lib_a-locale.o)
                0x00010660                __locale_charset
 .text.__locale_mb_cur_max
                0x00010668        0xc c:/program files (x86)/cypress/psoc creator/4.0/psoc creator/import/gnu/arm/4.9.3/bin/../lib/gcc/arm-none-eabi/4.9.3/../../../../arm-none-eabi/lib/armv6-m\libg.a(lib_a-locale.o)
                0x00010668                __locale_mb_cur_max
 .text.__locale_msgcharset
                0x00010674        0x8 c:/program files (x86)/cypress/psoc creator/4.0/psoc creator/import/gnu/arm/4.9.3/bin/../lib/gcc/arm-none-eabi/4.9.3/../../../../arm-none-eabi/lib/armv6-m\libg.a(lib_a-locale.o)
                0x00010674                __locale_msgcharset
 .text.__locale_cjk_lang
                0x0001067c        0x4 c:/program files (x86)/cypress/psoc creator/4.0/psoc creator/import/gnu/arm/4.9.3/bin/../lib/gcc/arm-none-eabi/4.9.3/../../../../arm-none-eabi/lib/armv6-m\libg.a(lib_a-locale.o)
                0x0001067c                __locale_cjk_lang
 .text._localeconv_r
                0x00010680        0x8 c:/program files (x86)/cypress/psoc creator/4.0/psoc creator/import/gnu/arm/4.9.3/bin/../lib/gcc/arm-none-eabi/4.9.3/../../../../arm-none-eabi/lib/armv6-m\libg.a(lib_a-locale.o)
                0x00010680                _localeconv_r
 .text.setlocale
                0x00010688       0x18 c:/program files (x86)/cypress/psoc creator/4.0/psoc creator/import/gnu/arm/4.9.3/bin/../lib/gcc/arm-none-eabi/4.9.3/../../../../arm-none-eabi/lib/armv6-m\libg.a(lib_a-locale.o)
                0x00010688                setlocale
 .text.localeconv
                0x000106a0        0x8 c:/program files (x86)/cypress/psoc creator/4.0/psoc creator/import/gnu/arm/4.9.3/bin/../lib/gcc/arm-none-eabi/4.9.3/../../../../arm-none-eabi/lib/armv6-m\libg.a(lib_a-locale.o)
                0x000106a0                localeconv
 .text          0x000106a8        0x0 c:/program files (x86)/cypress/psoc creator/4.0/psoc creator/import/gnu/arm/4.9.3/bin/../lib/gcc/arm-none-eabi/4.9.3/../../../../arm-none-eabi/lib/armv6-m\libg.a(lib_a-mallocr.o)
 .text._malloc_r
                0x000106a8      0x53c c:/program files (x86)/cypress/psoc creator/4.0/psoc creator/import/gnu/arm/4.9.3/bin/../lib/gcc/arm-none-eabi/4.9.3/../../../../arm-none-eabi/lib/armv6-m\libg.a(lib_a-mallocr.o)
                0x000106a8                _malloc_r
 .text          0x00010be4        0x0 c:/program files (x86)/cypress/psoc creator/4.0/psoc creator/import/gnu/arm/4.9.3/bin/../lib/gcc/arm-none-eabi/4.9.3/../../../../arm-none-eabi/lib/armv6-m\libg.a(lib_a-memchr.o)
 .text.memchr   0x00010be4       0x84 c:/program files (x86)/cypress/psoc creator/4.0/psoc creator/import/gnu/arm/4.9.3/bin/../lib/gcc/arm-none-eabi/4.9.3/../../../../arm-none-eabi/lib/armv6-m\libg.a(lib_a-memchr.o)
                0x00010be4                memchr
 .text          0x00010c68        0x0 c:/program files (x86)/cypress/psoc creator/4.0/psoc creator/import/gnu/arm/4.9.3/bin/../lib/gcc/arm-none-eabi/4.9.3/../../../../arm-none-eabi/lib/armv6-m\libg.a(lib_a-mlock.o)
 .text.__malloc_lock
                0x00010c68        0x4 c:/program files (x86)/cypress/psoc creator/4.0/psoc creator/import/gnu/arm/4.9.3/bin/../lib/gcc/arm-none-eabi/4.9.3/../../../../arm-none-eabi/lib/armv6-m\libg.a(lib_a-mlock.o)
                0x00010c68                __malloc_lock
 .text.__malloc_unlock
                0x00010c6c        0x4 c:/program files (x86)/cypress/psoc creator/4.0/psoc creator/import/gnu/arm/4.9.3/bin/../lib/gcc/arm-none-eabi/4.9.3/../../../../arm-none-eabi/lib/armv6-m\libg.a(lib_a-mlock.o)
                0x00010c6c                __malloc_unlock
 .text          0x00010c70        0x0 c:/program files (x86)/cypress/psoc creator/4.0/psoc creator/import/gnu/arm/4.9.3/bin/../lib/gcc/arm-none-eabi/4.9.3/../../../../arm-none-eabi/lib/armv6-m\libg.a(lib_a-mprec.o)
 .text._Balloc  0x00010c70       0x50 c:/program files (x86)/cypress/psoc creator/4.0/psoc creator/import/gnu/arm/4.9.3/bin/../lib/gcc/arm-none-eabi/4.9.3/../../../../arm-none-eabi/lib/armv6-m\libg.a(lib_a-mprec.o)
                0x00010c70                _Balloc
 .text._Bfree   0x00010cc0       0x14 c:/program files (x86)/cypress/psoc creator/4.0/psoc creator/import/gnu/arm/4.9.3/bin/../lib/gcc/arm-none-eabi/4.9.3/../../../../arm-none-eabi/lib/armv6-m\libg.a(lib_a-mprec.o)
                0x00010cc0                _Bfree
 .text.__multadd
                0x00010cd4       0x8c c:/program files (x86)/cypress/psoc creator/4.0/psoc creator/import/gnu/arm/4.9.3/bin/../lib/gcc/arm-none-eabi/4.9.3/../../../../arm-none-eabi/lib/armv6-m\libg.a(lib_a-mprec.o)
                0x00010cd4                __multadd
 .text.__s2b    0x00010d60       0x94 c:/program files (x86)/cypress/psoc creator/4.0/psoc creator/import/gnu/arm/4.9.3/bin/../lib/gcc/arm-none-eabi/4.9.3/../../../../arm-none-eabi/lib/armv6-m\libg.a(lib_a-mprec.o)
                0x00010d60                __s2b
 .text.__hi0bits
                0x00010df4       0x3c c:/program files (x86)/cypress/psoc creator/4.0/psoc creator/import/gnu/arm/4.9.3/bin/../lib/gcc/arm-none-eabi/4.9.3/../../../../arm-none-eabi/lib/armv6-m\libg.a(lib_a-mprec.o)
                0x00010df4                __hi0bits
 .text.__lo0bits
                0x00010e30       0x5c c:/program files (x86)/cypress/psoc creator/4.0/psoc creator/import/gnu/arm/4.9.3/bin/../lib/gcc/arm-none-eabi/4.9.3/../../../../arm-none-eabi/lib/armv6-m\libg.a(lib_a-mprec.o)
                0x00010e30                __lo0bits
 .text.__i2b    0x00010e8c       0x14 c:/program files (x86)/cypress/psoc creator/4.0/psoc creator/import/gnu/arm/4.9.3/bin/../lib/gcc/arm-none-eabi/4.9.3/../../../../arm-none-eabi/lib/armv6-m\libg.a(lib_a-mprec.o)
                0x00010e8c                __i2b
 .text.__multiply
                0x00010ea0      0x15c c:/program files (x86)/cypress/psoc creator/4.0/psoc creator/import/gnu/arm/4.9.3/bin/../lib/gcc/arm-none-eabi/4.9.3/../../../../arm-none-eabi/lib/armv6-m\libg.a(lib_a-mprec.o)
                0x00010ea0                __multiply
 .text.__pow5mult
                0x00010ffc       0xbc c:/program files (x86)/cypress/psoc creator/4.0/psoc creator/import/gnu/arm/4.9.3/bin/../lib/gcc/arm-none-eabi/4.9.3/../../../../arm-none-eabi/lib/armv6-m\libg.a(lib_a-mprec.o)
                0x00010ffc                __pow5mult
 .text.__lshift
                0x000110b8       0xcc c:/program files (x86)/cypress/psoc creator/4.0/psoc creator/import/gnu/arm/4.9.3/bin/../lib/gcc/arm-none-eabi/4.9.3/../../../../arm-none-eabi/lib/armv6-m\libg.a(lib_a-mprec.o)
                0x000110b8                __lshift
 .text.__mcmp   0x00011184       0x38 c:/program files (x86)/cypress/psoc creator/4.0/psoc creator/import/gnu/arm/4.9.3/bin/../lib/gcc/arm-none-eabi/4.9.3/../../../../arm-none-eabi/lib/armv6-m\libg.a(lib_a-mprec.o)
                0x00011184                __mcmp
 .text.__mdiff  0x000111bc       0xec c:/program files (x86)/cypress/psoc creator/4.0/psoc creator/import/gnu/arm/4.9.3/bin/../lib/gcc/arm-none-eabi/4.9.3/../../../../arm-none-eabi/lib/armv6-m\libg.a(lib_a-mprec.o)
                0x000111bc                __mdiff
 .text.__ulp    0x000112a8       0x48 c:/program files (x86)/cypress/psoc creator/4.0/psoc creator/import/gnu/arm/4.9.3/bin/../lib/gcc/arm-none-eabi/4.9.3/../../../../arm-none-eabi/lib/armv6-m\libg.a(lib_a-mprec.o)
                0x000112a8                __ulp
 .text.__b2d    0x000112f0       0xdc c:/program files (x86)/cypress/psoc creator/4.0/psoc creator/import/gnu/arm/4.9.3/bin/../lib/gcc/arm-none-eabi/4.9.3/../../../../arm-none-eabi/lib/armv6-m\libg.a(lib_a-mprec.o)
                0x000112f0                __b2d
 .text.__d2b    0x000113cc       0xbc c:/program files (x86)/cypress/psoc creator/4.0/psoc creator/import/gnu/arm/4.9.3/bin/../lib/gcc/arm-none-eabi/4.9.3/../../../../arm-none-eabi/lib/armv6-m\libg.a(lib_a-mprec.o)
                0x000113cc                __d2b
 .text.__ratio  0x00011488       0x70 c:/program files (x86)/cypress/psoc creator/4.0/psoc creator/import/gnu/arm/4.9.3/bin/../lib/gcc/arm-none-eabi/4.9.3/../../../../arm-none-eabi/lib/armv6-m\libg.a(lib_a-mprec.o)
                0x00011488                __ratio
 .text._mprec_log10
                0x000114f8       0x34 c:/program files (x86)/cypress/psoc creator/4.0/psoc creator/import/gnu/arm/4.9.3/bin/../lib/gcc/arm-none-eabi/4.9.3/../../../../arm-none-eabi/lib/armv6-m\libg.a(lib_a-mprec.o)
                0x000114f8                _mprec_log10
 .text.__copybits
                0x0001152c       0x40 c:/program files (x86)/cypress/psoc creator/4.0/psoc creator/import/gnu/arm/4.9.3/bin/../lib/gcc/arm-none-eabi/4.9.3/../../../../arm-none-eabi/lib/armv6-m\libg.a(lib_a-mprec.o)
                0x0001152c                __copybits
 .text.__any_on
                0x0001156c       0x60 c:/program files (x86)/cypress/psoc creator/4.0/psoc creator/import/gnu/arm/4.9.3/bin/../lib/gcc/arm-none-eabi/4.9.3/../../../../arm-none-eabi/lib/armv6-m\libg.a(lib_a-mprec.o)
                0x0001156c                __any_on
 .text          0x000115cc        0x0 c:/program files (x86)/cypress/psoc creator/4.0/psoc creator/import/gnu/arm/4.9.3/bin/../lib/gcc/arm-none-eabi/4.9.3/../../../../arm-none-eabi/lib/armv6-m\libg.a(lib_a-s_fpclassify.o)
 .text.__fpclassifyd
                0x000115cc       0x5c c:/program files (x86)/cypress/psoc creator/4.0/psoc creator/import/gnu/arm/4.9.3/bin/../lib/gcc/arm-none-eabi/4.9.3/../../../../arm-none-eabi/lib/armv6-m\libg.a(lib_a-s_fpclassify.o)
                0x000115cc                __fpclassifyd
 .text          0x00011628        0x0 c:/program files (x86)/cypress/psoc creator/4.0/psoc creator/import/gnu/arm/4.9.3/bin/../lib/gcc/arm-none-eabi/4.9.3/../../../../arm-none-eabi/lib/armv6-m\libg.a(lib_a-sbrkr.o)
 .text._sbrk_r  0x00011628       0x24 c:/program files (x86)/cypress/psoc creator/4.0/psoc creator/import/gnu/arm/4.9.3/bin/../lib/gcc/arm-none-eabi/4.9.3/../../../../arm-none-eabi/lib/armv6-m\libg.a(lib_a-sbrkr.o)
                0x00011628                _sbrk_r
 .text          0x0001164c       0x88 c:/program files (x86)/cypress/psoc creator/4.0/psoc creator/import/gnu/arm/4.9.3/bin/../lib/gcc/arm-none-eabi/4.9.3/../../../../arm-none-eabi/lib/armv6-m\libg.a(lib_a-strcmp.o)
                0x0001164c                strcmp
 .text          0x000116d4        0x0 c:/program files (x86)/cypress/psoc creator/4.0/psoc creator/import/gnu/arm/4.9.3/bin/../lib/gcc/arm-none-eabi/4.9.3/../../../../arm-none-eabi/lib/armv6-m\libg.a(lib_a-svfiprintf.o)
 .text.__ssprint_r
                0x000116d4      0x12c c:/program files (x86)/cypress/psoc creator/4.0/psoc creator/import/gnu/arm/4.9.3/bin/../lib/gcc/arm-none-eabi/4.9.3/../../../../arm-none-eabi/lib/armv6-m\libg.a(lib_a-svfiprintf.o)
                0x000116d4                __ssprint_r
 .text._svfiprintf_r
                0x00011800      0xa3c c:/program files (x86)/cypress/psoc creator/4.0/psoc creator/import/gnu/arm/4.9.3/bin/../lib/gcc/arm-none-eabi/4.9.3/../../../../arm-none-eabi/lib/armv6-m\libg.a(lib_a-svfiprintf.o)
                0x00011800                _svfiprintf_r
 .text          0x0001223c        0x0 c:/program files (x86)/cypress/psoc creator/4.0/psoc creator/import/gnu/arm/4.9.3/bin/../lib/gcc/arm-none-eabi/4.9.3/../../../../arm-none-eabi/lib/armv6-m\libg.a(lib_a-__atexit.o)
 .text.__register_exitproc
                0x0001223c       0xd4 c:/program files (x86)/cypress/psoc creator/4.0/psoc creator/import/gnu/arm/4.9.3/bin/../lib/gcc/arm-none-eabi/4.9.3/../../../../arm-none-eabi/lib/armv6-m\libg.a(lib_a-__atexit.o)
                0x0001223c                __register_exitproc
 .text          0x00012310        0x0 c:/program files (x86)/cypress/psoc creator/4.0/psoc creator/import/gnu/arm/4.9.3/bin/../lib/gcc/arm-none-eabi/4.9.3/../../../../arm-none-eabi/lib/armv6-m\libg.a(lib_a-callocr.o)
 .text._calloc_r
                0x00012310       0x60 c:/program files (x86)/cypress/psoc creator/4.0/psoc creator/import/gnu/arm/4.9.3/bin/../lib/gcc/arm-none-eabi/4.9.3/../../../../arm-none-eabi/lib/armv6-m\libg.a(lib_a-callocr.o)
                0x00012310                _calloc_r
 .text          0x00012370        0x0 c:/program files (x86)/cypress/psoc creator/4.0/psoc creator/import/gnu/arm/4.9.3/bin/../lib/gcc/arm-none-eabi/4.9.3/../../../../arm-none-eabi/lib/armv6-m\libg.a(lib_a-freer.o)
 .text._malloc_trim_r
                0x00012370       0xa0 c:/program files (x86)/cypress/psoc creator/4.0/psoc creator/import/gnu/arm/4.9.3/bin/../lib/gcc/arm-none-eabi/4.9.3/../../../../arm-none-eabi/lib/armv6-m\libg.a(lib_a-freer.o)
                0x00012370                _malloc_trim_r
 .text._free_r  0x00012410      0x1b0 c:/program files (x86)/cypress/psoc creator/4.0/psoc creator/import/gnu/arm/4.9.3/bin/../lib/gcc/arm-none-eabi/4.9.3/../../../../arm-none-eabi/lib/armv6-m\libg.a(lib_a-freer.o)
                0x00012410                _free_r
 .text          0x000125c0        0x0 c:/program files (x86)/cypress/psoc creator/4.0/psoc creator/import/gnu/arm/4.9.3/bin/../lib/gcc/arm-none-eabi/4.9.3/../../../../arm-none-eabi/lib/armv6-m\libg.a(lib_a-memmove.o)
 .text.memmove  0x000125c0       0x98 c:/program files (x86)/cypress/psoc creator/4.0/psoc creator/import/gnu/arm/4.9.3/bin/../lib/gcc/arm-none-eabi/4.9.3/../../../../arm-none-eabi/lib/armv6-m\libg.a(lib_a-memmove.o)
                0x000125c0                memmove
 .text          0x00012658        0x0 c:/program files (x86)/cypress/psoc creator/4.0/psoc creator/import/gnu/arm/4.9.3/bin/../lib/gcc/arm-none-eabi/4.9.3/../../../../arm-none-eabi/lib/armv6-m\libg.a(lib_a-reallocr.o)
 .text._realloc_r
                0x00012658      0x3d0 c:/program files (x86)/cypress/psoc creator/4.0/psoc creator/import/gnu/arm/4.9.3/bin/../lib/gcc/arm-none-eabi/4.9.3/../../../../arm-none-eabi/lib/armv6-m\libg.a(lib_a-reallocr.o)
                0x00012658                _realloc_r
 .text          0x00012a28        0x0 c:/program files (x86)/cypress/psoc creator/4.0/psoc creator/import/gnu/arm/4.9.3/bin/../lib/gcc/arm-none-eabi/4.9.3/../../../../arm-none-eabi/lib/armv6-m\libg.a(lib_a-reent.o)
 .text.cleanup_glue
                0x00012a28       0x1c c:/program files (x86)/cypress/psoc creator/4.0/psoc creator/import/gnu/arm/4.9.3/bin/../lib/gcc/arm-none-eabi/4.9.3/../../../../arm-none-eabi/lib/armv6-m\libg.a(lib_a-reent.o)
                0x00012a28                cleanup_glue
 .text._reclaim_reent
                0x00012a44       0x94 c:/program files (x86)/cypress/psoc creator/4.0/psoc creator/import/gnu/arm/4.9.3/bin/../lib/gcc/arm-none-eabi/4.9.3/../../../../arm-none-eabi/lib/armv6-m\libg.a(lib_a-reent.o)
                0x00012a44                _reclaim_reent
 .text          0x00012ad8      0x534 c:/program files (x86)/cypress/psoc creator/4.0/psoc creator/import/gnu/arm/4.9.3/bin/../lib/gcc/arm-none-eabi/4.9.3/armv6-m\libgcc.a(muldf3.o)
                0x00012ad8                __aeabi_dmul
 .text          0x0001300c       0x64 c:/program files (x86)/cypress/psoc creator/4.0/psoc creator/import/gnu/arm/4.9.3/bin/../lib/gcc/arm-none-eabi/4.9.3/armv6-m\libgcc.a(floatunsidf.o)
                0x0001300c                __aeabi_ui2d
 .text          0x00013070        0x0 c:/program files (x86)/cypress/psoc creator/4.0/psoc creator/import/gnu/arm/4.9.3/bin/../lib/gcc/arm-none-eabi/4.9.3/armv6-m/crtend.o
 .text          0x00013070        0x0 c:/program files (x86)/cypress/psoc creator/4.0/psoc creator/import/gnu/arm/4.9.3/bin/../lib/gcc/arm-none-eabi/4.9.3/armv6-m/crtn.o
 *(.plt)
 *(.gnu.warning)
 *(.glue_7t)
 .glue_7t       0x00000000        0x0 linker stubs
 *(.glue_7)
 .glue_7        0x00000000        0x0 linker stubs
 *(.vfp11_veneer)
 .vfp11_veneer  0x00000000        0x0 linker stubs
 *(.bootloader)
 *(.ARM.extab* .gnu.linkonce.armextab.*)
 .ARM.extab     0x00013070        0x0 c:/program files (x86)/cypress/psoc creator/4.0/psoc creator/import/gnu/arm/4.9.3/bin/../lib/gcc/arm-none-eabi/4.9.3/../../../../arm-none-eabi/lib/armv6-m/crt0.o
 .ARM.extab     0x00013070        0x0 c:/program files (x86)/cypress/psoc creator/4.0/psoc creator/import/gnu/arm/4.9.3/bin/../lib/gcc/arm-none-eabi/4.9.3/armv6-m\libgcc.a(_divdi3.o)
 .ARM.extab     0x00013070        0x0 c:/program files (x86)/cypress/psoc creator/4.0/psoc creator/import/gnu/arm/4.9.3/bin/../lib/gcc/arm-none-eabi/4.9.3/armv6-m\libgcc.a(_udivdi3.o)
 *(.gcc_except_table)

.v4_bx          0x00013070        0x0
 .v4_bx         0x00000000        0x0 linker stubs

.iplt           0x00013070        0x0
 .iplt          0x00000000        0x0 c:/program files (x86)/cypress/psoc creator/4.0/psoc creator/import/gnu/arm/4.9.3/bin/../lib/gcc/arm-none-eabi/4.9.3/armv6-m/crtbegin.o

.eh_frame_hdr
 *(.eh_frame_hdr)

.eh_frame       0x00013070       0x2c
 *(.eh_frame)
 .eh_frame      0x00013070        0x0 c:/program files (x86)/cypress/psoc creator/4.0/psoc creator/import/gnu/arm/4.9.3/bin/../lib/gcc/arm-none-eabi/4.9.3/armv6-m/crtbegin.o
 .eh_frame      0x00013070       0x28 c:/program files (x86)/cypress/psoc creator/4.0/psoc creator/import/gnu/arm/4.9.3/bin/../lib/gcc/arm-none-eabi/4.9.3/../../../../arm-none-eabi/lib/armv6-m\libg.a(lib_a-strcmp.o)
 .eh_frame      0x00013098        0x4 c:/program files (x86)/cypress/psoc creator/4.0/psoc creator/import/gnu/arm/4.9.3/bin/../lib/gcc/arm-none-eabi/4.9.3/armv6-m/crtend.o
                0x0001309c                PROVIDE (__exidx_start, .)

.ARM.exidx      0x0001309c        0x8
 *(.ARM.exidx* .gnu.linkonce.armexidx.*)
 .ARM.exidx     0x0001309c        0x8 c:/program files (x86)/cypress/psoc creator/4.0/psoc creator/import/gnu/arm/4.9.3/bin/../lib/gcc/arm-none-eabi/4.9.3/../../../../arm-none-eabi/lib/armv6-m/crt0.o
 .ARM.exidx     0x000130a4        0x0 c:/program files (x86)/cypress/psoc creator/4.0/psoc creator/import/gnu/arm/4.9.3/bin/../lib/gcc/arm-none-eabi/4.9.3/armv6-m\libgcc.a(_divdi3.o)
                                  0x8 (size before relaxing)
 .ARM.exidx     0x000130a4        0x0 c:/program files (x86)/cypress/psoc creator/4.0/psoc creator/import/gnu/arm/4.9.3/bin/../lib/gcc/arm-none-eabi/4.9.3/armv6-m\libgcc.a(_udivdi3.o)
                                  0x8 (size before relaxing)
                0x000130a4                __exidx_end = .

.rodata         0x000130a8     0x1368
 *(.rodata .rodata.* .gnu.linkonce.r.*)
 .rodata        0x000130a8       0x34 .\CortexM0\ARM_GCC_493\Debug\display.o
 .rodata        0x000130dc      0x6c8 .\CortexM0\ARM_GCC_493\Debug\DefaultFonts.o
                0x000130dc                SmallFont
                0x0001331c                MediumNumbers
                0x00013458                BigNumbers
                0x00013680                TinyFont
 .rodata        0x000137a4      0x424 .\CortexM0\ARM_GCC_493\Debug\Graphics.o
                0x000137a4                logoCypress
                0x0001399c                homeSkreenNull
                0x00013b94                networkOn
                0x00013bb0                SDinsert
                0x00013bbc                SDnoInsert
 .rodata        0x00013bc8        0xc .\CortexM0\ARM_GCC_493\Debug\LCD5110_Graph.o
 .rodata        0x00013bd4       0x6c .\CortexM0\ARM_GCC_493\Debug\svt.o
 .rodata        0x00013c40       0x20 .\CortexM0\ARM_GCC_493\Debug\ntp.o
 .rodata        0x00013c60       0x30 .\CortexM0\ARM_GCC_493\Debug\network.o
 .rodata        0x00013c90       0x84 .\CortexM0\ARM_GCC_493\Debug\main.o
 .rodata        0x00013d14       0x84 .\CortexM0\ARM_GCC_493\Debug\start_v11.a(cyfitter_cfg.o)
 .rodata        0x00013d98       0x30 .\CortexM0\ARM_GCC_493\Debug\start_v11.a(CyLib.o)
                0x00013d98                cyImoFreqMhz2Reg
 .rodata        0x00013dc8        0xc .\CortexM0\ARM_GCC_493\Debug\start_v11.a(CyLFClk.o)
 .rodata        0x00013dd4       0x24 .\CortexM0\ARM_GCC_493\Debug\start_v11.a(RTC.o)
                0x00013dd4                RTC_daysBeforeMonthTbl
                0x00013dec                RTC_daysInMonthTbl
 .rodata        0x00013df8        0x4 .\CortexM0\ARM_GCC_493\Debug\start_v11.a(ADC.o)
 .rodata        0x00013dfc       0x80 c:/program files (x86)/cypress/psoc creator/4.0/psoc creator/import/gnu/arm/4.9.3/bin/../lib/gcc/arm-none-eabi/4.9.3/armv6-m\libgcc.a(divsf3.o)
 .rodata        0x00013e7c       0x40 c:/program files (x86)/cypress/psoc creator/4.0/psoc creator/import/gnu/arm/4.9.3/bin/../lib/gcc/arm-none-eabi/4.9.3/armv6-m\libgcc.a(mulsf3.o)
 .rodata        0x00013ebc       0x40 c:/program files (x86)/cypress/psoc creator/4.0/psoc creator/import/gnu/arm/4.9.3/bin/../lib/gcc/arm-none-eabi/4.9.3/armv6-m\libgcc.a(divdf3.o)
 .rodata.str1.4
                0x00013efc        0x2 c:/program files (x86)/cypress/psoc creator/4.0/psoc creator/import/gnu/arm/4.9.3/bin/../lib/gcc/arm-none-eabi/4.9.3/../../../../arm-none-eabi/lib/armv6-m\libg.a(lib_a-impure.o)
                                  0x4 (size before relaxing)
 *fill*         0x00013efe        0x2 
 .rodata._global_impure_ptr
                0x00013f00        0x4 c:/program files (x86)/cypress/psoc creator/4.0/psoc creator/import/gnu/arm/4.9.3/bin/../lib/gcc/arm-none-eabi/4.9.3/../../../../arm-none-eabi/lib/armv6-m\libg.a(lib_a-impure.o)
                0x00013f00                _global_impure_ptr
 .rodata._svfprintf_r
                0x00013f04      0x164 c:/program files (x86)/cypress/psoc creator/4.0/psoc creator/import/gnu/arm/4.9.3/bin/../lib/gcc/arm-none-eabi/4.9.3/../../../../arm-none-eabi/lib/armv6-m\libg.a(lib_a-svfprintf.o)
 .rodata.zeroes.6916
                0x00014068       0x10 c:/program files (x86)/cypress/psoc creator/4.0/psoc creator/import/gnu/arm/4.9.3/bin/../lib/gcc/arm-none-eabi/4.9.3/../../../../arm-none-eabi/lib/armv6-m\libg.a(lib_a-svfprintf.o)
 .rodata.str1.4
                0x00014078       0x42 c:/program files (x86)/cypress/psoc creator/4.0/psoc creator/import/gnu/arm/4.9.3/bin/../lib/gcc/arm-none-eabi/4.9.3/../../../../arm-none-eabi/lib/armv6-m\libg.a(lib_a-svfprintf.o)
                                 0x44 (size before relaxing)
 *fill*         0x000140ba        0x2 
 .rodata.blanks.6915
                0x000140bc       0x10 c:/program files (x86)/cypress/psoc creator/4.0/psoc creator/import/gnu/arm/4.9.3/bin/../lib/gcc/arm-none-eabi/4.9.3/../../../../arm-none-eabi/lib/armv6-m\libg.a(lib_a-svfprintf.o)
 .rodata.str1.4
                0x000140cc       0x10 c:/program files (x86)/cypress/psoc creator/4.0/psoc creator/import/gnu/arm/4.9.3/bin/../lib/gcc/arm-none-eabi/4.9.3/../../../../arm-none-eabi/lib/armv6-m\libg.a(lib_a-dtoa.o)
                                 0x14 (size before relaxing)
 .rodata.str1.4
                0x000140dc        0xc c:/program files (x86)/cypress/psoc creator/4.0/psoc creator/import/gnu/arm/4.9.3/bin/../lib/gcc/arm-none-eabi/4.9.3/../../../../arm-none-eabi/lib/armv6-m\libg.a(lib_a-locale.o)
                                 0x14 (size before relaxing)
 .rodata.p05.5296
                0x000140e8        0xc c:/program files (x86)/cypress/psoc creator/4.0/psoc creator/import/gnu/arm/4.9.3/bin/../lib/gcc/arm-none-eabi/4.9.3/../../../../arm-none-eabi/lib/armv6-m\libg.a(lib_a-mprec.o)
 *fill*         0x000140f4        0x4 
 .rodata.__mprec_tens
                0x000140f8       0xc8 c:/program files (x86)/cypress/psoc creator/4.0/psoc creator/import/gnu/arm/4.9.3/bin/../lib/gcc/arm-none-eabi/4.9.3/../../../../arm-none-eabi/lib/armv6-m\libg.a(lib_a-mprec.o)
                0x000140f8                __mprec_tens
 .rodata.__mprec_bigtens
                0x000141c0       0x28 c:/program files (x86)/cypress/psoc creator/4.0/psoc creator/import/gnu/arm/4.9.3/bin/../lib/gcc/arm-none-eabi/4.9.3/../../../../arm-none-eabi/lib/armv6-m\libg.a(lib_a-mprec.o)
                0x000141c0                __mprec_bigtens
 .rodata.__mprec_tinytens
                0x000141e8       0x28 c:/program files (x86)/cypress/psoc creator/4.0/psoc creator/import/gnu/arm/4.9.3/bin/../lib/gcc/arm-none-eabi/4.9.3/../../../../arm-none-eabi/lib/armv6-m\libg.a(lib_a-mprec.o)
                0x000141e8                __mprec_tinytens
 .rodata._svfiprintf_r
                0x00014210      0x164 c:/program files (x86)/cypress/psoc creator/4.0/psoc creator/import/gnu/arm/4.9.3/bin/../lib/gcc/arm-none-eabi/4.9.3/../../../../arm-none-eabi/lib/armv6-m\libg.a(lib_a-svfiprintf.o)
 .rodata.str1.4
                0x00000000       0x30 c:/program files (x86)/cypress/psoc creator/4.0/psoc creator/import/gnu/arm/4.9.3/bin/../lib/gcc/arm-none-eabi/4.9.3/../../../../arm-none-eabi/lib/armv6-m\libg.a(lib_a-svfiprintf.o)
 .rodata.blanks.6859
                0x00014374       0x10 c:/program files (x86)/cypress/psoc creator/4.0/psoc creator/import/gnu/arm/4.9.3/bin/../lib/gcc/arm-none-eabi/4.9.3/../../../../arm-none-eabi/lib/armv6-m\libg.a(lib_a-svfiprintf.o)
 .rodata.zeroes.6860
                0x00014384       0x10 c:/program files (x86)/cypress/psoc creator/4.0/psoc creator/import/gnu/arm/4.9.3/bin/../lib/gcc/arm-none-eabi/4.9.3/../../../../arm-none-eabi/lib/armv6-m\libg.a(lib_a-svfiprintf.o)
 .rodata        0x00014394       0x40 c:/program files (x86)/cypress/psoc creator/4.0/psoc creator/import/gnu/arm/4.9.3/bin/../lib/gcc/arm-none-eabi/4.9.3/armv6-m\libgcc.a(muldf3.o)
                0x000143d4                . = ALIGN (0x4)
 *(.init)
 .init          0x000143d4        0x4 c:/program files (x86)/cypress/psoc creator/4.0/psoc creator/import/gnu/arm/4.9.3/bin/../lib/gcc/arm-none-eabi/4.9.3/armv6-m/crti.o
                0x000143d4                _init
 .init          0x000143d8        0x8 c:/program files (x86)/cypress/psoc creator/4.0/psoc creator/import/gnu/arm/4.9.3/bin/../lib/gcc/arm-none-eabi/4.9.3/armv6-m/crtn.o
                0x000143e0                . = ALIGN (0x4)
                0x000143e0                __preinit_array_start = .
 *(.preinit_array)
                0x000143e0                __preinit_array_end = .
                0x000143e0                . = ALIGN (0x4)
                0x000143e0                __init_array_start = .
 *(SORT(.init_array.*))
 .init_array.00000
                0x000143e0        0x4 c:/program files (x86)/cypress/psoc creator/4.0/psoc creator/import/gnu/arm/4.9.3/bin/../lib/gcc/arm-none-eabi/4.9.3/../../../../arm-none-eabi/lib/armv6-m\libg.a(lib_a-__call_atexit.o)
 *(.init_array)
 .init_array    0x000143e4        0x4 c:/program files (x86)/cypress/psoc creator/4.0/psoc creator/import/gnu/arm/4.9.3/bin/../lib/gcc/arm-none-eabi/4.9.3/armv6-m/crtbegin.o
 .init_array    0x000143e8        0x4 .\CortexM0\ARM_GCC_493\Debug\Cm0Start.o
                0x000143ec                __init_array_end = .
                0x000143ec                . = ALIGN (0x4)
 *(.fini)
 .fini          0x000143ec        0x4 c:/program files (x86)/cypress/psoc creator/4.0/psoc creator/import/gnu/arm/4.9.3/bin/../lib/gcc/arm-none-eabi/4.9.3/armv6-m/crti.o
                0x000143ec                _fini
 .fini          0x000143f0        0x8 c:/program files (x86)/cypress/psoc creator/4.0/psoc creator/import/gnu/arm/4.9.3/bin/../lib/gcc/arm-none-eabi/4.9.3/armv6-m/crtn.o
                0x000143f8                . = ALIGN (0x4)
                0x000143f8                __fini_array_start = .
 *(.fini_array)
 .fini_array    0x000143f8        0x4 c:/program files (x86)/cypress/psoc creator/4.0/psoc creator/import/gnu/arm/4.9.3/bin/../lib/gcc/arm-none-eabi/4.9.3/armv6-m/crtbegin.o
 *(SORT(.fini_array.*))
                0x000143fc                __fini_array_end = .
                0x000143fc                . = ALIGN (0x4)
 *crtbegin.o(.ctors)
 *(EXCLUDE_FILE(*crtend.o) .ctors)
 *(SORT(.ctors.*))
 *crtend.o(.ctors)
                0x000143fc                . = ALIGN (0x4)
 *crtbegin.o(.dtors)
 *(EXCLUDE_FILE(*crtend.o) .dtors)
 *(SORT(.dtors.*))
 *crtend.o(.dtors)
                0x000143fc                . = ALIGN (0x4)
                0x000143fc                __cy_regions = .
                0x000143fc        0x4 LONG 0x14410 __cy_region_init_ram
                0x00014400        0x4 LONG 0x200000c8 __cy_region_start_data
                0x00014404        0x4 LONG 0x8e0 __cy_region_init_size_ram
                0x00014408        0x4 LONG 0x9e0 __cy_region_zero_size_ram
                0x0001440c                __cy_regions_end = .
                0x00014410                . = ALIGN (0x8)
 *fill*         0x0001440c        0x4 
                0x00014410                _etext = .

.cy_checksum_exclude
                0x00014410        0x0
 *(.cy_checksum_exclude)

.ramvectors     0x20000000       0xc0
                0x20000000                __cy_region_start_ram = .
 *(.ramvectors)
 .ramvectors    0x20000000       0xc0 .\CortexM0\ARM_GCC_493\Debug\Cm0Start.o
                0x20000000                CyRamVectors

.noinit         0x200000c0        0x4
 *(.noinit)
 .noinit        0x200000c0        0x4 .\CortexM0\ARM_GCC_493\Debug\Cm0Start.o

.data           0x200000c8      0x8e0 load address 0x00014410
                0x200000c8                __cy_region_start_data = .
 *(.jcr)
 .jcr           0x200000c8        0x0 c:/program files (x86)/cypress/psoc creator/4.0/psoc creator/import/gnu/arm/4.9.3/bin/../lib/gcc/arm-none-eabi/4.9.3/armv6-m/crtbegin.o
 .jcr           0x200000c8        0x4 c:/program files (x86)/cypress/psoc creator/4.0/psoc creator/import/gnu/arm/4.9.3/bin/../lib/gcc/arm-none-eabi/4.9.3/armv6-m/crtend.o
 *(.got.plt)
 *(.got)
 *(.shdata)
 *(.data .data.* .gnu.linkonce.d.*)
 .data          0x200000cc        0x0 c:/program files (x86)/cypress/psoc creator/4.0/psoc creator/import/gnu/arm/4.9.3/bin/../lib/gcc/arm-none-eabi/4.9.3/armv6-m/crti.o
 .data          0x200000cc        0x4 c:/program files (x86)/cypress/psoc creator/4.0/psoc creator/import/gnu/arm/4.9.3/bin/../lib/gcc/arm-none-eabi/4.9.3/armv6-m/crtbegin.o
                0x200000cc                __dso_handle
 .data          0x200000d0        0x0 c:/program files (x86)/cypress/psoc creator/4.0/psoc creator/import/gnu/arm/4.9.3/bin/../lib/gcc/arm-none-eabi/4.9.3/../../../../arm-none-eabi/lib/armv6-m/crt0.o
 .data          0x200000d0        0x0 .\CortexM0\ARM_GCC_493\Debug\RTC_WDT.o
 .data          0x200000d0        0x0 .\CortexM0\ARM_GCC_493\Debug\display.o
 .data          0x200000d0        0x0 .\CortexM0\ARM_GCC_493\Debug\DefaultFonts.o
 .data          0x200000d0        0x0 .\CortexM0\ARM_GCC_493\Debug\Graphics.o
 .data          0x200000d0        0x0 .\CortexM0\ARM_GCC_493\Debug\LCD5110_Graph.o
 .data          0x200000d0        0x0 .\CortexM0\ARM_GCC_493\Debug\gate.o
 .data          0x200000d0        0x0 .\CortexM0\ARM_GCC_493\Debug\LED.o
 .data          0x200000d0        0x0 .\CortexM0\ARM_GCC_493\Debug\crc32.o
 .data          0x200000d0        0x0 .\CortexM0\ARM_GCC_493\Debug\svt.o
 .data          0x200000d0        0x0 .\CortexM0\ARM_GCC_493\Debug\ntp.o
 .data          0x200000d0        0x0 .\CortexM0\ARM_GCC_493\Debug\network.o
 .data          0x200000d0        0x0 .\CortexM0\ARM_GCC_493\Debug\batt.o
 .data          0x200000d0        0x2 .\CortexM0\ARM_GCC_493\Debug\testMode.o
                0x200000d0                switchState
                0x200000d1                networkState
 .data          0x200000d2        0x0 .\CortexM0\ARM_GCC_493\Debug\taskAutomat.o
 .data          0x200000d2        0x1 .\CortexM0\ARM_GCC_493\Debug\Buttons.o
                0x200000d2                stepScroll
 .data          0x200000d3        0x0 .\CortexM0\ARM_GCC_493\Debug\main.o
 .data          0x200000d3        0x0 .\CortexM0\ARM_GCC_493\Debug\cymetadata.o
 *fill*         0x200000d3        0x1 
 .data          0x200000d4        0x4 .\CortexM0\ARM_GCC_493\Debug\Cm0Start.o
 .data          0x200000d8        0x0 .\CortexM0\ARM_GCC_493\Debug\start_v11.a(cyfitter_cfg.o)
 .data          0x200000d8       0x10 .\CortexM0\ARM_GCC_493\Debug\start_v11.a(CyLib.o)
                0x200000d8                cydelayFreqHz
                0x200000dc                cydelayFreqKhz
                0x200000e0                cydelayFreqMhz
                0x200000e4                cydelay32kMs
 .data          0x200000e8        0x8 .\CortexM0\ARM_GCC_493\Debug\start_v11.a(CyLFClk.o)
 .data          0x200000f0        0x0 .\CortexM0\ARM_GCC_493\Debug\start_v11.a(RTC.o)
 .data          0x200000f0        0x0 .\CortexM0\ARM_GCC_493\Debug\start_v11.a(GatePin.o)
 .data          0x200000f0        0x0 .\CortexM0\ARM_GCC_493\Debug\start_v11.a(Timer_LED.o)
 .data          0x200000f0        0x0 .\CortexM0\ARM_GCC_493\Debug\start_v11.a(Int_Timer_Led.o)
 .data          0x200000f0        0x0 .\CortexM0\ARM_GCC_493\Debug\start_v11.a(UART_XB.o)
 .data          0x200000f0        0x0 .\CortexM0\ARM_GCC_493\Debug\start_v11.a(UART_XB_SPI_UART.o)
 .data          0x200000f0        0x0 .\CortexM0\ARM_GCC_493\Debug\start_v11.a(UART_XB_UART.o)
 .data          0x200000f0        0x0 .\CortexM0\ARM_GCC_493\Debug\start_v11.a(SwSPI_Master.o)
 .data          0x200000f0        0x0 .\CortexM0\ARM_GCC_493\Debug\start_v11.a(GATE_INT.o)
 .data          0x200000f0        0x0 .\CortexM0\ARM_GCC_493\Debug\start_v11.a(debug.o)
 .data          0x200000f0        0x0 .\CortexM0\ARM_GCC_493\Debug\start_v11.a(ADC.o)
 .data          0x200000f0        0x0 .\CortexM0\ARM_GCC_493\Debug\start_v11.a(ADC_INT.o)
 .data          0x200000f0        0x0 .\CortexM0\ARM_GCC_493\Debug\start_v11.a(CE.o)
 .data          0x200000f0        0x0 .\CortexM0\ARM_GCC_493\Debug\start_v11.a(RST.o)
 .data          0x200000f0        0x0 .\CortexM0\ARM_GCC_493\Debug\start_v11.a(DC.o)
 .data          0x200000f0        0x0 .\CortexM0\ARM_GCC_493\Debug\start_v11.a(LCD_BL.o)
 .data          0x200000f0        0x0 .\CortexM0\ARM_GCC_493\Debug\start_v11.a(TimerTestMode.o)
 .data          0x200000f0        0x0 .\CortexM0\ARM_GCC_493\Debug\start_v11.a(Int_timerTestMode.o)
 .data          0x200000f0        0x0 .\CortexM0\ARM_GCC_493\Debug\start_v11.a(Pin_testMode.o)
 .data          0x200000f0        0x0 .\CortexM0\ARM_GCC_493\Debug\start_v11.a(SW_RunTestMode.o)
 .data          0x200000f0        0x0 .\CortexM0\ARM_GCC_493\Debug\start_v11.a(LED_RED_PIN.o)
 .data          0x200000f0        0x0 .\CortexM0\ARM_GCC_493\Debug\start_v11.a(LED_GREEN_PIN.o)
 .data          0x200000f0        0x0 .\CortexM0\ARM_GCC_493\Debug\start_v11.a(Timer.o)
 .data          0x200000f0        0x0 .\CortexM0\ARM_GCC_493\Debug\start_v11.a(isr_timer.o)
 .data          0x200000f0        0x0 .\CortexM0\ARM_GCC_493\Debug\start_v11.a(BtnUp.o)
 .data          0x200000f0        0x0 .\CortexM0\ARM_GCC_493\Debug\start_v11.a(BtnDown.o)
 .data          0x200000f0        0x0 .\CortexM0\ARM_GCC_493\Debug\start_v11.a(BUTT_DOWN_INT.o)
 .data          0x200000f0        0x0 .\CortexM0\ARM_GCC_493\Debug\start_v11.a(BUTT_UP_INT.o)
 .data          0x200000f0        0x0 .\CortexM0\ARM_GCC_493\Debug\start_v11.a(CyBootAsmGnu.o)
 .data          0x200000f0        0x0 .\CortexM0\ARM_GCC_493\Debug\start_v11.a(UART_XB_SPI_UART_INT.o)
 .data          0x200000f0        0x0 c:/program files (x86)/cypress/psoc creator/4.0/psoc creator/import/gnu/arm/4.9.3/bin/../lib/gcc/arm-none-eabi/4.9.3/armv6-m\libgcc.a(_udivsi3.o)
 .data          0x200000f0        0x0 c:/program files (x86)/cypress/psoc creator/4.0/psoc creator/import/gnu/arm/4.9.3/bin/../lib/gcc/arm-none-eabi/4.9.3/armv6-m\libgcc.a(_divsi3.o)
 .data          0x200000f0        0x0 c:/program files (x86)/cypress/psoc creator/4.0/psoc creator/import/gnu/arm/4.9.3/bin/../lib/gcc/arm-none-eabi/4.9.3/armv6-m\libgcc.a(_dvmd_tls.o)
 .data          0x200000f0        0x0 c:/program files (x86)/cypress/psoc creator/4.0/psoc creator/import/gnu/arm/4.9.3/bin/../lib/gcc/arm-none-eabi/4.9.3/armv6-m\libgcc.a(_arm_cmpdf2.o)
 .data          0x200000f0        0x0 c:/program files (x86)/cypress/psoc creator/4.0/psoc creator/import/gnu/arm/4.9.3/bin/../lib/gcc/arm-none-eabi/4.9.3/armv6-m\libgcc.a(_arm_cmpsf2.o)
 .data          0x200000f0        0x0 c:/program files (x86)/cypress/psoc creator/4.0/psoc creator/import/gnu/arm/4.9.3/bin/../lib/gcc/arm-none-eabi/4.9.3/armv6-m\libgcc.a(_aeabi_ldivmod.o)
 .data          0x200000f0        0x0 c:/program files (x86)/cypress/psoc creator/4.0/psoc creator/import/gnu/arm/4.9.3/bin/../lib/gcc/arm-none-eabi/4.9.3/armv6-m\libgcc.a(_aeabi_uldivmod.o)
 .data          0x200000f0        0x0 c:/program files (x86)/cypress/psoc creator/4.0/psoc creator/import/gnu/arm/4.9.3/bin/../lib/gcc/arm-none-eabi/4.9.3/armv6-m\libgcc.a(_muldi3.o)
 .data          0x200000f0        0x0 c:/program files (x86)/cypress/psoc creator/4.0/psoc creator/import/gnu/arm/4.9.3/bin/../lib/gcc/arm-none-eabi/4.9.3/armv6-m\libgcc.a(bpabi.o)
 .data          0x200000f0        0x0 c:/program files (x86)/cypress/psoc creator/4.0/psoc creator/import/gnu/arm/4.9.3/bin/../lib/gcc/arm-none-eabi/4.9.3/armv6-m\libgcc.a(divsf3.o)
 .data          0x200000f0        0x0 c:/program files (x86)/cypress/psoc creator/4.0/psoc creator/import/gnu/arm/4.9.3/bin/../lib/gcc/arm-none-eabi/4.9.3/armv6-m\libgcc.a(eqsf2.o)
 .data          0x200000f0        0x0 c:/program files (x86)/cypress/psoc creator/4.0/psoc creator/import/gnu/arm/4.9.3/bin/../lib/gcc/arm-none-eabi/4.9.3/armv6-m\libgcc.a(gesf2.o)
 .data          0x200000f0        0x0 c:/program files (x86)/cypress/psoc creator/4.0/psoc creator/import/gnu/arm/4.9.3/bin/../lib/gcc/arm-none-eabi/4.9.3/armv6-m\libgcc.a(lesf2.o)
 .data          0x200000f0        0x0 c:/program files (x86)/cypress/psoc creator/4.0/psoc creator/import/gnu/arm/4.9.3/bin/../lib/gcc/arm-none-eabi/4.9.3/armv6-m\libgcc.a(mulsf3.o)
 .data          0x200000f0        0x0 c:/program files (x86)/cypress/psoc creator/4.0/psoc creator/import/gnu/arm/4.9.3/bin/../lib/gcc/arm-none-eabi/4.9.3/armv6-m\libgcc.a(floatsisf.o)
 .data          0x200000f0        0x0 c:/program files (x86)/cypress/psoc creator/4.0/psoc creator/import/gnu/arm/4.9.3/bin/../lib/gcc/arm-none-eabi/4.9.3/armv6-m\libgcc.a(adddf3.o)
 .data          0x200000f0        0x0 c:/program files (x86)/cypress/psoc creator/4.0/psoc creator/import/gnu/arm/4.9.3/bin/../lib/gcc/arm-none-eabi/4.9.3/armv6-m\libgcc.a(divdf3.o)
 .data          0x200000f0        0x0 c:/program files (x86)/cypress/psoc creator/4.0/psoc creator/import/gnu/arm/4.9.3/bin/../lib/gcc/arm-none-eabi/4.9.3/armv6-m\libgcc.a(eqdf2.o)
 .data          0x200000f0        0x0 c:/program files (x86)/cypress/psoc creator/4.0/psoc creator/import/gnu/arm/4.9.3/bin/../lib/gcc/arm-none-eabi/4.9.3/armv6-m\libgcc.a(gedf2.o)
 .data          0x200000f0        0x0 c:/program files (x86)/cypress/psoc creator/4.0/psoc creator/import/gnu/arm/4.9.3/bin/../lib/gcc/arm-none-eabi/4.9.3/armv6-m\libgcc.a(ledf2.o)
 .data          0x200000f0        0x0 c:/program files (x86)/cypress/psoc creator/4.0/psoc creator/import/gnu/arm/4.9.3/bin/../lib/gcc/arm-none-eabi/4.9.3/armv6-m\libgcc.a(subdf3.o)
 .data          0x200000f0        0x0 c:/program files (x86)/cypress/psoc creator/4.0/psoc creator/import/gnu/arm/4.9.3/bin/../lib/gcc/arm-none-eabi/4.9.3/armv6-m\libgcc.a(fixdfsi.o)
 .data          0x200000f0        0x0 c:/program files (x86)/cypress/psoc creator/4.0/psoc creator/import/gnu/arm/4.9.3/bin/../lib/gcc/arm-none-eabi/4.9.3/armv6-m\libgcc.a(floatsidf.o)
 .data          0x200000f0        0x0 c:/program files (x86)/cypress/psoc creator/4.0/psoc creator/import/gnu/arm/4.9.3/bin/../lib/gcc/arm-none-eabi/4.9.3/armv6-m\libgcc.a(extendsfdf2.o)
 .data          0x200000f0        0x0 c:/program files (x86)/cypress/psoc creator/4.0/psoc creator/import/gnu/arm/4.9.3/bin/../lib/gcc/arm-none-eabi/4.9.3/armv6-m\libgcc.a(_clzsi2.o)
 .data          0x200000f0        0x0 c:/program files (x86)/cypress/psoc creator/4.0/psoc creator/import/gnu/arm/4.9.3/bin/../lib/gcc/arm-none-eabi/4.9.3/armv6-m\libgcc.a(_divdi3.o)
 .data          0x200000f0        0x0 c:/program files (x86)/cypress/psoc creator/4.0/psoc creator/import/gnu/arm/4.9.3/bin/../lib/gcc/arm-none-eabi/4.9.3/armv6-m\libgcc.a(_udivdi3.o)
 .data          0x200000f0        0x0 c:/program files (x86)/cypress/psoc creator/4.0/psoc creator/import/gnu/arm/4.9.3/bin/../lib/gcc/arm-none-eabi/4.9.3/armv6-m\libgcc.a(_clzdi2.o)
 .data          0x200000f0        0x0 c:/program files (x86)/cypress/psoc creator/4.0/psoc creator/import/gnu/arm/4.9.3/bin/../lib/gcc/arm-none-eabi/4.9.3/../../../../arm-none-eabi/lib/armv6-m\libg.a(lib_a-errno.o)
 .data          0x200000f0        0x0 c:/program files (x86)/cypress/psoc creator/4.0/psoc creator/import/gnu/arm/4.9.3/bin/../lib/gcc/arm-none-eabi/4.9.3/../../../../arm-none-eabi/lib/armv6-m\libg.a(lib_a-exit.o)
 .data          0x200000f0        0x0 c:/program files (x86)/cypress/psoc creator/4.0/psoc creator/import/gnu/arm/4.9.3/bin/../lib/gcc/arm-none-eabi/4.9.3/../../../../arm-none-eabi/lib/armv6-m\libg.a(lib_a-impure.o)
 .data.impure_data
                0x200000f0      0x428 c:/program files (x86)/cypress/psoc creator/4.0/psoc creator/import/gnu/arm/4.9.3/bin/../lib/gcc/arm-none-eabi/4.9.3/../../../../arm-none-eabi/lib/armv6-m\libg.a(lib_a-impure.o)
 .data._impure_ptr
                0x20000518        0x4 c:/program files (x86)/cypress/psoc creator/4.0/psoc creator/import/gnu/arm/4.9.3/bin/../lib/gcc/arm-none-eabi/4.9.3/../../../../arm-none-eabi/lib/armv6-m\libg.a(lib_a-impure.o)
                0x20000518                _impure_ptr
 .data          0x2000051c        0x0 c:/program files (x86)/cypress/psoc creator/4.0/psoc creator/import/gnu/arm/4.9.3/bin/../lib/gcc/arm-none-eabi/4.9.3/../../../../arm-none-eabi/lib/armv6-m\libg.a(lib_a-init.o)
 .data          0x2000051c        0x0 c:/program files (x86)/cypress/psoc creator/4.0/psoc creator/import/gnu/arm/4.9.3/bin/../lib/gcc/arm-none-eabi/4.9.3/../../../../arm-none-eabi/lib/armv6-m\libg.a(lib_a-memcpy.o)
 .data          0x2000051c        0x0 c:/program files (x86)/cypress/psoc creator/4.0/psoc creator/import/gnu/arm/4.9.3/bin/../lib/gcc/arm-none-eabi/4.9.3/../../../../arm-none-eabi/lib/armv6-m\libg.a(lib_a-memset.o)
 .data          0x2000051c        0x0 c:/program files (x86)/cypress/psoc creator/4.0/psoc creator/import/gnu/arm/4.9.3/bin/../lib/gcc/arm-none-eabi/4.9.3/../../../../arm-none-eabi/lib/armv6-m\libg.a(lib_a-rand.o)
 .data          0x2000051c        0x0 c:/program files (x86)/cypress/psoc creator/4.0/psoc creator/import/gnu/arm/4.9.3/bin/../lib/gcc/arm-none-eabi/4.9.3/../../../../arm-none-eabi/lib/armv6-m\libg.a(lib_a-sprintf.o)
 .data          0x2000051c        0x0 c:/program files (x86)/cypress/psoc creator/4.0/psoc creator/import/gnu/arm/4.9.3/bin/../lib/gcc/arm-none-eabi/4.9.3/../../../../arm-none-eabi/lib/armv6-m\libg.a(lib_a-strcat.o)
 .data          0x2000051c        0x0 c:/program files (x86)/cypress/psoc creator/4.0/psoc creator/import/gnu/arm/4.9.3/bin/../lib/gcc/arm-none-eabi/4.9.3/../../../../arm-none-eabi/lib/armv6-m\libg.a(lib_a-strcpy.o)
 .data          0x2000051c        0x0 c:/program files (x86)/cypress/psoc creator/4.0/psoc creator/import/gnu/arm/4.9.3/bin/../lib/gcc/arm-none-eabi/4.9.3/../../../../arm-none-eabi/lib/armv6-m\libg.a(lib_a-strlen.o)
 .data          0x2000051c        0x0 c:/program files (x86)/cypress/psoc creator/4.0/psoc creator/import/gnu/arm/4.9.3/bin/../lib/gcc/arm-none-eabi/4.9.3/../../../../arm-none-eabi/lib/armv6-m\libg.a(lib_a-strncat.o)
 .data          0x2000051c        0x0 c:/program files (x86)/cypress/psoc creator/4.0/psoc creator/import/gnu/arm/4.9.3/bin/../lib/gcc/arm-none-eabi/4.9.3/../../../../arm-none-eabi/lib/armv6-m\libg.a(lib_a-strncpy.o)
 .data          0x2000051c        0x0 c:/program files (x86)/cypress/psoc creator/4.0/psoc creator/import/gnu/arm/4.9.3/bin/../lib/gcc/arm-none-eabi/4.9.3/../../../../arm-none-eabi/lib/armv6-m\libg.a(lib_a-svfprintf.o)
 .data          0x2000051c        0x0 c:/program files (x86)/cypress/psoc creator/4.0/psoc creator/import/gnu/arm/4.9.3/bin/../lib/gcc/arm-none-eabi/4.9.3/../../../../arm-none-eabi/lib/armv6-m\libg.a(lib_a-__call_atexit.o)
 .data          0x2000051c        0x0 c:/program files (x86)/cypress/psoc creator/4.0/psoc creator/import/gnu/arm/4.9.3/bin/../lib/gcc/arm-none-eabi/4.9.3/../../../../arm-none-eabi/lib/armv6-m\libg.a(lib_a-atexit.o)
 .data          0x2000051c        0x0 c:/program files (x86)/cypress/psoc creator/4.0/psoc creator/import/gnu/arm/4.9.3/bin/../lib/gcc/arm-none-eabi/4.9.3/../../../../arm-none-eabi/lib/armv6-m\libg.a(lib_a-dtoa.o)
 .data          0x2000051c        0x0 c:/program files (x86)/cypress/psoc creator/4.0/psoc creator/import/gnu/arm/4.9.3/bin/../lib/gcc/arm-none-eabi/4.9.3/../../../../arm-none-eabi/lib/armv6-m\libg.a(lib_a-fini.o)
 .data          0x2000051c        0x0 c:/program files (x86)/cypress/psoc creator/4.0/psoc creator/import/gnu/arm/4.9.3/bin/../lib/gcc/arm-none-eabi/4.9.3/../../../../arm-none-eabi/lib/armv6-m\libg.a(lib_a-locale.o)
 .data.lc_message_charset
                0x2000051c       0x20 c:/program files (x86)/cypress/psoc creator/4.0/psoc creator/import/gnu/arm/4.9.3/bin/../lib/gcc/arm-none-eabi/4.9.3/../../../../arm-none-eabi/lib/armv6-m\libg.a(lib_a-locale.o)
 .data.lconv    0x2000053c       0x38 c:/program files (x86)/cypress/psoc creator/4.0/psoc creator/import/gnu/arm/4.9.3/bin/../lib/gcc/arm-none-eabi/4.9.3/../../../../arm-none-eabi/lib/armv6-m\libg.a(lib_a-locale.o)
 .data.lc_ctype_charset
                0x20000574       0x20 c:/program files (x86)/cypress/psoc creator/4.0/psoc creator/import/gnu/arm/4.9.3/bin/../lib/gcc/arm-none-eabi/4.9.3/../../../../arm-none-eabi/lib/armv6-m\libg.a(lib_a-locale.o)
 .data.__mb_cur_max
                0x20000594        0x4 c:/program files (x86)/cypress/psoc creator/4.0/psoc creator/import/gnu/arm/4.9.3/bin/../lib/gcc/arm-none-eabi/4.9.3/../../../../arm-none-eabi/lib/armv6-m\libg.a(lib_a-locale.o)
                0x20000594                __mb_cur_max
 .data          0x20000598        0x0 c:/program files (x86)/cypress/psoc creator/4.0/psoc creator/import/gnu/arm/4.9.3/bin/../lib/gcc/arm-none-eabi/4.9.3/../../../../arm-none-eabi/lib/armv6-m\libg.a(lib_a-mallocr.o)
 .data.__malloc_av_
                0x20000598      0x408 c:/program files (x86)/cypress/psoc creator/4.0/psoc creator/import/gnu/arm/4.9.3/bin/../lib/gcc/arm-none-eabi/4.9.3/../../../../arm-none-eabi/lib/armv6-m\libg.a(lib_a-mallocr.o)
                0x20000598                __malloc_av_
 .data.__malloc_trim_threshold
                0x200009a0        0x4 c:/program files (x86)/cypress/psoc creator/4.0/psoc creator/import/gnu/arm/4.9.3/bin/../lib/gcc/arm-none-eabi/4.9.3/../../../../arm-none-eabi/lib/armv6-m\libg.a(lib_a-mallocr.o)
                0x200009a0                __malloc_trim_threshold
 .data.__malloc_sbrk_base
                0x200009a4        0x4 c:/program files (x86)/cypress/psoc creator/4.0/psoc creator/import/gnu/arm/4.9.3/bin/../lib/gcc/arm-none-eabi/4.9.3/../../../../arm-none-eabi/lib/armv6-m\libg.a(lib_a-mallocr.o)
                0x200009a4                __malloc_sbrk_base
 .data          0x200009a8        0x0 c:/program files (x86)/cypress/psoc creator/4.0/psoc creator/import/gnu/arm/4.9.3/bin/../lib/gcc/arm-none-eabi/4.9.3/../../../../arm-none-eabi/lib/armv6-m\libg.a(lib_a-memchr.o)
 .data          0x200009a8        0x0 c:/program files (x86)/cypress/psoc creator/4.0/psoc creator/import/gnu/arm/4.9.3/bin/../lib/gcc/arm-none-eabi/4.9.3/../../../../arm-none-eabi/lib/armv6-m\libg.a(lib_a-mlock.o)
 .data          0x200009a8        0x0 c:/program files (x86)/cypress/psoc creator/4.0/psoc creator/import/gnu/arm/4.9.3/bin/../lib/gcc/arm-none-eabi/4.9.3/../../../../arm-none-eabi/lib/armv6-m\libg.a(lib_a-mprec.o)
 .data          0x200009a8        0x0 c:/program files (x86)/cypress/psoc creator/4.0/psoc creator/import/gnu/arm/4.9.3/bin/../lib/gcc/arm-none-eabi/4.9.3/../../../../arm-none-eabi/lib/armv6-m\libg.a(lib_a-s_fpclassify.o)
 .data          0x200009a8        0x0 c:/program files (x86)/cypress/psoc creator/4.0/psoc creator/import/gnu/arm/4.9.3/bin/../lib/gcc/arm-none-eabi/4.9.3/../../../../arm-none-eabi/lib/armv6-m\libg.a(lib_a-sbrkr.o)
 .data          0x200009a8        0x0 c:/program files (x86)/cypress/psoc creator/4.0/psoc creator/import/gnu/arm/4.9.3/bin/../lib/gcc/arm-none-eabi/4.9.3/../../../../arm-none-eabi/lib/armv6-m\libg.a(lib_a-strcmp.o)
 .data          0x200009a8        0x0 c:/program files (x86)/cypress/psoc creator/4.0/psoc creator/import/gnu/arm/4.9.3/bin/../lib/gcc/arm-none-eabi/4.9.3/../../../../arm-none-eabi/lib/armv6-m\libg.a(lib_a-svfiprintf.o)
 .data          0x200009a8        0x0 c:/program files (x86)/cypress/psoc creator/4.0/psoc creator/import/gnu/arm/4.9.3/bin/../lib/gcc/arm-none-eabi/4.9.3/../../../../arm-none-eabi/lib/armv6-m\libg.a(lib_a-__atexit.o)
 .data          0x200009a8        0x0 c:/program files (x86)/cypress/psoc creator/4.0/psoc creator/import/gnu/arm/4.9.3/bin/../lib/gcc/arm-none-eabi/4.9.3/../../../../arm-none-eabi/lib/armv6-m\libg.a(lib_a-callocr.o)
 .data          0x200009a8        0x0 c:/program files (x86)/cypress/psoc creator/4.0/psoc creator/import/gnu/arm/4.9.3/bin/../lib/gcc/arm-none-eabi/4.9.3/../../../../arm-none-eabi/lib/armv6-m\libg.a(lib_a-freer.o)
 .data          0x200009a8        0x0 c:/program files (x86)/cypress/psoc creator/4.0/psoc creator/import/gnu/arm/4.9.3/bin/../lib/gcc/arm-none-eabi/4.9.3/../../../../arm-none-eabi/lib/armv6-m\libg.a(lib_a-memmove.o)
 .data          0x200009a8        0x0 c:/program files (x86)/cypress/psoc creator/4.0/psoc creator/import/gnu/arm/4.9.3/bin/../lib/gcc/arm-none-eabi/4.9.3/../../../../arm-none-eabi/lib/armv6-m\libg.a(lib_a-reallocr.o)
 .data          0x200009a8        0x0 c:/program files (x86)/cypress/psoc creator/4.0/psoc creator/import/gnu/arm/4.9.3/bin/../lib/gcc/arm-none-eabi/4.9.3/../../../../arm-none-eabi/lib/armv6-m\libg.a(lib_a-reent.o)
 .data          0x200009a8        0x0 c:/program files (x86)/cypress/psoc creator/4.0/psoc creator/import/gnu/arm/4.9.3/bin/../lib/gcc/arm-none-eabi/4.9.3/armv6-m\libgcc.a(muldf3.o)
 .data          0x200009a8        0x0 c:/program files (x86)/cypress/psoc creator/4.0/psoc creator/import/gnu/arm/4.9.3/bin/../lib/gcc/arm-none-eabi/4.9.3/armv6-m\libgcc.a(floatunsidf.o)
 .data          0x200009a8        0x0 c:/program files (x86)/cypress/psoc creator/4.0/psoc creator/import/gnu/arm/4.9.3/bin/../lib/gcc/arm-none-eabi/4.9.3/armv6-m/crtend.o
 .data          0x200009a8        0x0 c:/program files (x86)/cypress/psoc creator/4.0/psoc creator/import/gnu/arm/4.9.3/bin/../lib/gcc/arm-none-eabi/4.9.3/armv6-m/crtn.o
                0x200009a8                . = ALIGN (0x8)
 *(.ram)
                0x200009a8                _edata = .

.igot.plt       0x200009a8        0x0 load address 0x00014cf0
 .igot.plt      0x00000000        0x0 c:/program files (x86)/cypress/psoc creator/4.0/psoc creator/import/gnu/arm/4.9.3/bin/../lib/gcc/arm-none-eabi/4.9.3/armv6-m/crtbegin.o

.bss            0x200009a8      0x9e0 load address 0x00014cf0
                0x200009a8                PROVIDE (__bss_start__, .)
 *(.shbss)
 *(.bss .bss.* .gnu.linkonce.b.*)
 .bss           0x200009a8        0x0 c:/program files (x86)/cypress/psoc creator/4.0/psoc creator/import/gnu/arm/4.9.3/bin/../lib/gcc/arm-none-eabi/4.9.3/armv6-m/crti.o
 .bss           0x200009a8       0x1c c:/program files (x86)/cypress/psoc creator/4.0/psoc creator/import/gnu/arm/4.9.3/bin/../lib/gcc/arm-none-eabi/4.9.3/armv6-m/crtbegin.o
 .bss           0x200009c4        0x0 c:/program files (x86)/cypress/psoc creator/4.0/psoc creator/import/gnu/arm/4.9.3/bin/../lib/gcc/arm-none-eabi/4.9.3/../../../../arm-none-eabi/lib/armv6-m/crt0.o
 *fill*         0x200009c4        0x4 
 .bss           0x200009c8       0x18 .\CortexM0\ARM_GCC_493\Debug\RTC_WDT.o
 .bss           0x200009e0       0x64 .\CortexM0\ARM_GCC_493\Debug\display.o
 .bss           0x20000a44        0x0 .\CortexM0\ARM_GCC_493\Debug\DefaultFonts.o
 .bss           0x20000a44        0x4 .\CortexM0\ARM_GCC_493\Debug\Graphics.o
 .bss           0x20000a48        0x0 .\CortexM0\ARM_GCC_493\Debug\LCD5110_Graph.o
 .bss           0x20000a48       0x18 .\CortexM0\ARM_GCC_493\Debug\gate.o
 .bss           0x20000a60        0x4 .\CortexM0\ARM_GCC_493\Debug\LED.o
 .bss           0x20000a64      0x404 .\CortexM0\ARM_GCC_493\Debug\crc32.o
 .bss           0x20000e68        0x0 .\CortexM0\ARM_GCC_493\Debug\svt.o
 .bss           0x20000e68        0x1 .\CortexM0\ARM_GCC_493\Debug\ntp.o
                0x20000e68                NTP_STATE
 *fill*         0x20000e69        0x3 
 .bss           0x20000e6c       0x14 .\CortexM0\ARM_GCC_493\Debug\network.o
                0x20000e7d                onNtpSync
                0x20000e7e                flagStartSendPacket
                0x20000e7f                flagFinSendPacket
 .bss           0x20000e80        0x0 .\CortexM0\ARM_GCC_493\Debug\batt.o
 .bss           0x20000e80        0x8 .\CortexM0\ARM_GCC_493\Debug\testMode.o
                0x20000e84                statusTestMode
 .bss           0x20000e88       0x1c .\CortexM0\ARM_GCC_493\Debug\taskAutomat.o
 .bss           0x20000ea4        0x4 .\CortexM0\ARM_GCC_493\Debug\Buttons.o
                0x20000ea4                idNumSkier
                0x20000ea5                btnUpClick
                0x20000ea6                btnDownClick
                0x20000ea7                scroll
 .bss           0x20000ea8        0x4 .\CortexM0\ARM_GCC_493\Debug\main.o
 .bss           0x20000eac        0x0 .\CortexM0\ARM_GCC_493\Debug\cymetadata.o
 .bss           0x20000eac        0x0 .\CortexM0\ARM_GCC_493\Debug\Cm0Start.o
 .bss           0x20000eac        0x0 .\CortexM0\ARM_GCC_493\Debug\start_v11.a(cyfitter_cfg.o)
 .bss           0x20000eac       0x18 .\CortexM0\ARM_GCC_493\Debug\start_v11.a(CyLib.o)
                0x20000ec0                CySysTickInitVar
 .bss           0x20000ec4       0x28 .\CortexM0\ARM_GCC_493\Debug\start_v11.a(CyLFClk.o)
 .bss           0x20000eec       0x10 .\CortexM0\ARM_GCC_493\Debug\start_v11.a(RTC.o)
 .bss           0x20000efc        0x0 .\CortexM0\ARM_GCC_493\Debug\start_v11.a(GatePin.o)
 .bss           0x20000efc        0x1 .\CortexM0\ARM_GCC_493\Debug\start_v11.a(Timer_LED.o)
                0x20000efc                Timer_LED_initVar
 .bss           0x20000efd        0x0 .\CortexM0\ARM_GCC_493\Debug\start_v11.a(Int_Timer_Led.o)
 *fill*         0x20000efd        0x3 
 .bss           0x20000f00        0x8 .\CortexM0\ARM_GCC_493\Debug\start_v11.a(UART_XB.o)
                0x20000f00                UART_XB_initVar
                0x20000f02                UART_XB_IntrTxMask
                0x20000f04                UART_XB_customIntrHandler
 .bss           0x20000f08        0x0 .\CortexM0\ARM_GCC_493\Debug\start_v11.a(UART_XB_SPI_UART.o)
 .bss           0x20000f08        0x0 .\CortexM0\ARM_GCC_493\Debug\start_v11.a(UART_XB_UART.o)
 .bss           0x20000f08        0x0 .\CortexM0\ARM_GCC_493\Debug\start_v11.a(SwSPI_Master.o)
 .bss           0x20000f08        0x0 .\CortexM0\ARM_GCC_493\Debug\start_v11.a(GATE_INT.o)
 .bss           0x20000f08        0x0 .\CortexM0\ARM_GCC_493\Debug\start_v11.a(debug.o)
 .bss           0x20000f08        0x1 .\CortexM0\ARM_GCC_493\Debug\start_v11.a(ADC.o)
                0x20000f08                ADC_initVar
 .bss           0x20000f09        0x0 .\CortexM0\ARM_GCC_493\Debug\start_v11.a(ADC_INT.o)
 .bss           0x20000f09        0x0 .\CortexM0\ARM_GCC_493\Debug\start_v11.a(CE.o)
 .bss           0x20000f09        0x0 .\CortexM0\ARM_GCC_493\Debug\start_v11.a(RST.o)
 .bss           0x20000f09        0x0 .\CortexM0\ARM_GCC_493\Debug\start_v11.a(DC.o)
 .bss           0x20000f09        0x0 .\CortexM0\ARM_GCC_493\Debug\start_v11.a(LCD_BL.o)
 .bss           0x20000f09        0x1 .\CortexM0\ARM_GCC_493\Debug\start_v11.a(TimerTestMode.o)
                0x20000f09                TimerTestMode_initVar
 .bss           0x20000f0a        0x0 .\CortexM0\ARM_GCC_493\Debug\start_v11.a(Int_timerTestMode.o)
 .bss           0x20000f0a        0x0 .\CortexM0\ARM_GCC_493\Debug\start_v11.a(Pin_testMode.o)
 .bss           0x20000f0a        0x0 .\CortexM0\ARM_GCC_493\Debug\start_v11.a(SW_RunTestMode.o)
 .bss           0x20000f0a        0x0 .\CortexM0\ARM_GCC_493\Debug\start_v11.a(LED_RED_PIN.o)
 .bss           0x20000f0a        0x0 .\CortexM0\ARM_GCC_493\Debug\start_v11.a(LED_GREEN_PIN.o)
 .bss           0x20000f0a        0x1 .\CortexM0\ARM_GCC_493\Debug\start_v11.a(Timer.o)
                0x20000f0a                Timer_initVar
 .bss           0x20000f0b        0x0 .\CortexM0\ARM_GCC_493\Debug\start_v11.a(isr_timer.o)
 .bss           0x20000f0b        0x0 .\CortexM0\ARM_GCC_493\Debug\start_v11.a(BtnUp.o)
 .bss           0x20000f0b        0x0 .\CortexM0\ARM_GCC_493\Debug\start_v11.a(BtnDown.o)
 .bss           0x20000f0b        0x0 .\CortexM0\ARM_GCC_493\Debug\start_v11.a(BUTT_DOWN_INT.o)
 .bss           0x20000f0b        0x0 .\CortexM0\ARM_GCC_493\Debug\start_v11.a(BUTT_UP_INT.o)
 .bss           0x20000f0b        0x0 .\CortexM0\ARM_GCC_493\Debug\start_v11.a(CyBootAsmGnu.o)
 .bss           0x20000f0b        0x0 .\CortexM0\ARM_GCC_493\Debug\start_v11.a(UART_XB_SPI_UART_INT.o)
 .bss           0x20000f0b        0x0 c:/program files (x86)/cypress/psoc creator/4.0/psoc creator/import/gnu/arm/4.9.3/bin/../lib/gcc/arm-none-eabi/4.9.3/armv6-m\libgcc.a(_udivsi3.o)
 .bss           0x20000f0b        0x0 c:/program files (x86)/cypress/psoc creator/4.0/psoc creator/import/gnu/arm/4.9.3/bin/../lib/gcc/arm-none-eabi/4.9.3/armv6-m\libgcc.a(_divsi3.o)
 .bss           0x20000f0b        0x0 c:/program files (x86)/cypress/psoc creator/4.0/psoc creator/import/gnu/arm/4.9.3/bin/../lib/gcc/arm-none-eabi/4.9.3/armv6-m\libgcc.a(_dvmd_tls.o)
 .bss           0x20000f0b        0x0 c:/program files (x86)/cypress/psoc creator/4.0/psoc creator/import/gnu/arm/4.9.3/bin/../lib/gcc/arm-none-eabi/4.9.3/armv6-m\libgcc.a(_arm_cmpdf2.o)
 .bss           0x20000f0b        0x0 c:/program files (x86)/cypress/psoc creator/4.0/psoc creator/import/gnu/arm/4.9.3/bin/../lib/gcc/arm-none-eabi/4.9.3/armv6-m\libgcc.a(_arm_cmpsf2.o)
 .bss           0x20000f0b        0x0 c:/program files (x86)/cypress/psoc creator/4.0/psoc creator/import/gnu/arm/4.9.3/bin/../lib/gcc/arm-none-eabi/4.9.3/armv6-m\libgcc.a(_aeabi_ldivmod.o)
 .bss           0x20000f0b        0x0 c:/program files (x86)/cypress/psoc creator/4.0/psoc creator/import/gnu/arm/4.9.3/bin/../lib/gcc/arm-none-eabi/4.9.3/armv6-m\libgcc.a(_aeabi_uldivmod.o)
 .bss           0x20000f0b        0x0 c:/program files (x86)/cypress/psoc creator/4.0/psoc creator/import/gnu/arm/4.9.3/bin/../lib/gcc/arm-none-eabi/4.9.3/armv6-m\libgcc.a(_muldi3.o)
 .bss           0x20000f0b        0x0 c:/program files (x86)/cypress/psoc creator/4.0/psoc creator/import/gnu/arm/4.9.3/bin/../lib/gcc/arm-none-eabi/4.9.3/armv6-m\libgcc.a(bpabi.o)
 .bss           0x20000f0b        0x0 c:/program files (x86)/cypress/psoc creator/4.0/psoc creator/import/gnu/arm/4.9.3/bin/../lib/gcc/arm-none-eabi/4.9.3/armv6-m\libgcc.a(divsf3.o)
 .bss           0x20000f0b        0x0 c:/program files (x86)/cypress/psoc creator/4.0/psoc creator/import/gnu/arm/4.9.3/bin/../lib/gcc/arm-none-eabi/4.9.3/armv6-m\libgcc.a(eqsf2.o)
 .bss           0x20000f0b        0x0 c:/program files (x86)/cypress/psoc creator/4.0/psoc creator/import/gnu/arm/4.9.3/bin/../lib/gcc/arm-none-eabi/4.9.3/armv6-m\libgcc.a(gesf2.o)
 .bss           0x20000f0b        0x0 c:/program files (x86)/cypress/psoc creator/4.0/psoc creator/import/gnu/arm/4.9.3/bin/../lib/gcc/arm-none-eabi/4.9.3/armv6-m\libgcc.a(lesf2.o)
 .bss           0x20000f0b        0x0 c:/program files (x86)/cypress/psoc creator/4.0/psoc creator/import/gnu/arm/4.9.3/bin/../lib/gcc/arm-none-eabi/4.9.3/armv6-m\libgcc.a(mulsf3.o)
 .bss           0x20000f0b        0x0 c:/program files (x86)/cypress/psoc creator/4.0/psoc creator/import/gnu/arm/4.9.3/bin/../lib/gcc/arm-none-eabi/4.9.3/armv6-m\libgcc.a(floatsisf.o)
 .bss           0x20000f0b        0x0 c:/program files (x86)/cypress/psoc creator/4.0/psoc creator/import/gnu/arm/4.9.3/bin/../lib/gcc/arm-none-eabi/4.9.3/armv6-m\libgcc.a(adddf3.o)
 .bss           0x20000f0b        0x0 c:/program files (x86)/cypress/psoc creator/4.0/psoc creator/import/gnu/arm/4.9.3/bin/../lib/gcc/arm-none-eabi/4.9.3/armv6-m\libgcc.a(divdf3.o)
 .bss           0x20000f0b        0x0 c:/program files (x86)/cypress/psoc creator/4.0/psoc creator/import/gnu/arm/4.9.3/bin/../lib/gcc/arm-none-eabi/4.9.3/armv6-m\libgcc.a(eqdf2.o)
 .bss           0x20000f0b        0x0 c:/program files (x86)/cypress/psoc creator/4.0/psoc creator/import/gnu/arm/4.9.3/bin/../lib/gcc/arm-none-eabi/4.9.3/armv6-m\libgcc.a(gedf2.o)
 .bss           0x20000f0b        0x0 c:/program files (x86)/cypress/psoc creator/4.0/psoc creator/import/gnu/arm/4.9.3/bin/../lib/gcc/arm-none-eabi/4.9.3/armv6-m\libgcc.a(ledf2.o)
 .bss           0x20000f0b        0x0 c:/program files (x86)/cypress/psoc creator/4.0/psoc creator/import/gnu/arm/4.9.3/bin/../lib/gcc/arm-none-eabi/4.9.3/armv6-m\libgcc.a(subdf3.o)
 .bss           0x20000f0b        0x0 c:/program files (x86)/cypress/psoc creator/4.0/psoc creator/import/gnu/arm/4.9.3/bin/../lib/gcc/arm-none-eabi/4.9.3/armv6-m\libgcc.a(fixdfsi.o)
 .bss           0x20000f0b        0x0 c:/program files (x86)/cypress/psoc creator/4.0/psoc creator/import/gnu/arm/4.9.3/bin/../lib/gcc/arm-none-eabi/4.9.3/armv6-m\libgcc.a(floatsidf.o)
 .bss           0x20000f0b        0x0 c:/program files (x86)/cypress/psoc creator/4.0/psoc creator/import/gnu/arm/4.9.3/bin/../lib/gcc/arm-none-eabi/4.9.3/armv6-m\libgcc.a(extendsfdf2.o)
 .bss           0x20000f0b        0x0 c:/program files (x86)/cypress/psoc creator/4.0/psoc creator/import/gnu/arm/4.9.3/bin/../lib/gcc/arm-none-eabi/4.9.3/armv6-m\libgcc.a(_clzsi2.o)
 .bss           0x20000f0b        0x0 c:/program files (x86)/cypress/psoc creator/4.0/psoc creator/import/gnu/arm/4.9.3/bin/../lib/gcc/arm-none-eabi/4.9.3/armv6-m\libgcc.a(_divdi3.o)
 .bss           0x20000f0b        0x0 c:/program files (x86)/cypress/psoc creator/4.0/psoc creator/import/gnu/arm/4.9.3/bin/../lib/gcc/arm-none-eabi/4.9.3/armv6-m\libgcc.a(_udivdi3.o)
 .bss           0x20000f0b        0x0 c:/program files (x86)/cypress/psoc creator/4.0/psoc creator/import/gnu/arm/4.9.3/bin/../lib/gcc/arm-none-eabi/4.9.3/armv6-m\libgcc.a(_clzdi2.o)
 .bss           0x20000f0b        0x0 c:/program files (x86)/cypress/psoc creator/4.0/psoc creator/import/gnu/arm/4.9.3/bin/../lib/gcc/arm-none-eabi/4.9.3/../../../../arm-none-eabi/lib/armv6-m\libg.a(lib_a-errno.o)
 .bss           0x20000f0b        0x0 c:/program files (x86)/cypress/psoc creator/4.0/psoc creator/import/gnu/arm/4.9.3/bin/../lib/gcc/arm-none-eabi/4.9.3/../../../../arm-none-eabi/lib/armv6-m\libg.a(lib_a-exit.o)
 .bss           0x20000f0b        0x0 c:/program files (x86)/cypress/psoc creator/4.0/psoc creator/import/gnu/arm/4.9.3/bin/../lib/gcc/arm-none-eabi/4.9.3/../../../../arm-none-eabi/lib/armv6-m\libg.a(lib_a-impure.o)
 .bss           0x20000f0b        0x0 c:/program files (x86)/cypress/psoc creator/4.0/psoc creator/import/gnu/arm/4.9.3/bin/../lib/gcc/arm-none-eabi/4.9.3/../../../../arm-none-eabi/lib/armv6-m\libg.a(lib_a-init.o)
 .bss           0x20000f0b        0x0 c:/program files (x86)/cypress/psoc creator/4.0/psoc creator/import/gnu/arm/4.9.3/bin/../lib/gcc/arm-none-eabi/4.9.3/../../../../arm-none-eabi/lib/armv6-m\libg.a(lib_a-memcpy.o)
 .bss           0x20000f0b        0x0 c:/program files (x86)/cypress/psoc creator/4.0/psoc creator/import/gnu/arm/4.9.3/bin/../lib/gcc/arm-none-eabi/4.9.3/../../../../arm-none-eabi/lib/armv6-m\libg.a(lib_a-memset.o)
 .bss           0x20000f0b        0x0 c:/program files (x86)/cypress/psoc creator/4.0/psoc creator/import/gnu/arm/4.9.3/bin/../lib/gcc/arm-none-eabi/4.9.3/../../../../arm-none-eabi/lib/armv6-m\libg.a(lib_a-rand.o)
 .bss           0x20000f0b        0x0 c:/program files (x86)/cypress/psoc creator/4.0/psoc creator/import/gnu/arm/4.9.3/bin/../lib/gcc/arm-none-eabi/4.9.3/../../../../arm-none-eabi/lib/armv6-m\libg.a(lib_a-sprintf.o)
 .bss           0x20000f0b        0x0 c:/program files (x86)/cypress/psoc creator/4.0/psoc creator/import/gnu/arm/4.9.3/bin/../lib/gcc/arm-none-eabi/4.9.3/../../../../arm-none-eabi/lib/armv6-m\libg.a(lib_a-strcat.o)
 .bss           0x20000f0b        0x0 c:/program files (x86)/cypress/psoc creator/4.0/psoc creator/import/gnu/arm/4.9.3/bin/../lib/gcc/arm-none-eabi/4.9.3/../../../../arm-none-eabi/lib/armv6-m\libg.a(lib_a-strcpy.o)
 .bss           0x20000f0b        0x0 c:/program files (x86)/cypress/psoc creator/4.0/psoc creator/import/gnu/arm/4.9.3/bin/../lib/gcc/arm-none-eabi/4.9.3/../../../../arm-none-eabi/lib/armv6-m\libg.a(lib_a-strlen.o)
 .bss           0x20000f0b        0x0 c:/program files (x86)/cypress/psoc creator/4.0/psoc creator/import/gnu/arm/4.9.3/bin/../lib/gcc/arm-none-eabi/4.9.3/../../../../arm-none-eabi/lib/armv6-m\libg.a(lib_a-strncat.o)
 .bss           0x20000f0b        0x0 c:/program files (x86)/cypress/psoc creator/4.0/psoc creator/import/gnu/arm/4.9.3/bin/../lib/gcc/arm-none-eabi/4.9.3/../../../../arm-none-eabi/lib/armv6-m\libg.a(lib_a-strncpy.o)
 .bss           0x20000f0b        0x0 c:/program files (x86)/cypress/psoc creator/4.0/psoc creator/import/gnu/arm/4.9.3/bin/../lib/gcc/arm-none-eabi/4.9.3/../../../../arm-none-eabi/lib/armv6-m\libg.a(lib_a-svfprintf.o)
 .bss           0x20000f0b        0x0 c:/program files (x86)/cypress/psoc creator/4.0/psoc creator/import/gnu/arm/4.9.3/bin/../lib/gcc/arm-none-eabi/4.9.3/../../../../arm-none-eabi/lib/armv6-m\libg.a(lib_a-__call_atexit.o)
 .bss           0x20000f0b        0x0 c:/program files (x86)/cypress/psoc creator/4.0/psoc creator/import/gnu/arm/4.9.3/bin/../lib/gcc/arm-none-eabi/4.9.3/../../../../arm-none-eabi/lib/armv6-m\libg.a(lib_a-atexit.o)
 .bss           0x20000f0b        0x0 c:/program files (x86)/cypress/psoc creator/4.0/psoc creator/import/gnu/arm/4.9.3/bin/../lib/gcc/arm-none-eabi/4.9.3/../../../../arm-none-eabi/lib/armv6-m\libg.a(lib_a-dtoa.o)
 .bss           0x20000f0b        0x0 c:/program files (x86)/cypress/psoc creator/4.0/psoc creator/import/gnu/arm/4.9.3/bin/../lib/gcc/arm-none-eabi/4.9.3/../../../../arm-none-eabi/lib/armv6-m\libg.a(lib_a-fini.o)
 .bss           0x20000f0b        0x0 c:/program files (x86)/cypress/psoc creator/4.0/psoc creator/import/gnu/arm/4.9.3/bin/../lib/gcc/arm-none-eabi/4.9.3/../../../../arm-none-eabi/lib/armv6-m\libg.a(lib_a-locale.o)
 *fill*         0x20000f0b        0x1 
 .bss._PathLocale
                0x20000f0c        0x4 c:/program files (x86)/cypress/psoc creator/4.0/psoc creator/import/gnu/arm/4.9.3/bin/../lib/gcc/arm-none-eabi/4.9.3/../../../../arm-none-eabi/lib/armv6-m\libg.a(lib_a-locale.o)
                0x20000f0c                _PathLocale
 .bss.__nlocale_changed
                0x20000f10        0x4 c:/program files (x86)/cypress/psoc creator/4.0/psoc creator/import/gnu/arm/4.9.3/bin/../lib/gcc/arm-none-eabi/4.9.3/../../../../arm-none-eabi/lib/armv6-m\libg.a(lib_a-locale.o)
                0x20000f10                __nlocale_changed
 .bss.__mlocale_changed
                0x20000f14        0x4 c:/program files (x86)/cypress/psoc creator/4.0/psoc creator/import/gnu/arm/4.9.3/bin/../lib/gcc/arm-none-eabi/4.9.3/../../../../arm-none-eabi/lib/armv6-m\libg.a(lib_a-locale.o)
                0x20000f14                __mlocale_changed
 .bss           0x20000f18        0x0 c:/program files (x86)/cypress/psoc creator/4.0/psoc creator/import/gnu/arm/4.9.3/bin/../lib/gcc/arm-none-eabi/4.9.3/../../../../arm-none-eabi/lib/armv6-m\libg.a(lib_a-mallocr.o)
 .bss.__malloc_max_total_mem
                0x20000f18        0x4 c:/program files (x86)/cypress/psoc creator/4.0/psoc creator/import/gnu/arm/4.9.3/bin/../lib/gcc/arm-none-eabi/4.9.3/../../../../arm-none-eabi/lib/armv6-m\libg.a(lib_a-mallocr.o)
                0x20000f18                __malloc_max_total_mem
 .bss.__malloc_max_sbrked_mem
                0x20000f1c        0x4 c:/program files (x86)/cypress/psoc creator/4.0/psoc creator/import/gnu/arm/4.9.3/bin/../lib/gcc/arm-none-eabi/4.9.3/../../../../arm-none-eabi/lib/armv6-m\libg.a(lib_a-mallocr.o)
                0x20000f1c                __malloc_max_sbrked_mem
 .bss.__malloc_top_pad
                0x20000f20        0x4 c:/program files (x86)/cypress/psoc creator/4.0/psoc creator/import/gnu/arm/4.9.3/bin/../lib/gcc/arm-none-eabi/4.9.3/../../../../arm-none-eabi/lib/armv6-m\libg.a(lib_a-mallocr.o)
                0x20000f20                __malloc_top_pad
 .bss.__malloc_current_mallinfo
                0x20000f24       0x28 c:/program files (x86)/cypress/psoc creator/4.0/psoc creator/import/gnu/arm/4.9.3/bin/../lib/gcc/arm-none-eabi/4.9.3/../../../../arm-none-eabi/lib/armv6-m\libg.a(lib_a-mallocr.o)
                0x20000f24                __malloc_current_mallinfo
 .bss           0x20000f4c        0x0 c:/program files (x86)/cypress/psoc creator/4.0/psoc creator/import/gnu/arm/4.9.3/bin/../lib/gcc/arm-none-eabi/4.9.3/../../../../arm-none-eabi/lib/armv6-m\libg.a(lib_a-memchr.o)
 .bss           0x20000f4c        0x0 c:/program files (x86)/cypress/psoc creator/4.0/psoc creator/import/gnu/arm/4.9.3/bin/../lib/gcc/arm-none-eabi/4.9.3/../../../../arm-none-eabi/lib/armv6-m\libg.a(lib_a-mlock.o)
 .bss           0x20000f4c        0x0 c:/program files (x86)/cypress/psoc creator/4.0/psoc creator/import/gnu/arm/4.9.3/bin/../lib/gcc/arm-none-eabi/4.9.3/../../../../arm-none-eabi/lib/armv6-m\libg.a(lib_a-mprec.o)
 .bss           0x20000f4c        0x0 c:/program files (x86)/cypress/psoc creator/4.0/psoc creator/import/gnu/arm/4.9.3/bin/../lib/gcc/arm-none-eabi/4.9.3/../../../../arm-none-eabi/lib/armv6-m\libg.a(lib_a-s_fpclassify.o)
 .bss           0x20000f4c        0x0 c:/program files (x86)/cypress/psoc creator/4.0/psoc creator/import/gnu/arm/4.9.3/bin/../lib/gcc/arm-none-eabi/4.9.3/../../../../arm-none-eabi/lib/armv6-m\libg.a(lib_a-sbrkr.o)
 .bss           0x20000f4c        0x0 c:/program files (x86)/cypress/psoc creator/4.0/psoc creator/import/gnu/arm/4.9.3/bin/../lib/gcc/arm-none-eabi/4.9.3/../../../../arm-none-eabi/lib/armv6-m\libg.a(lib_a-strcmp.o)
 .bss           0x20000f4c        0x0 c:/program files (x86)/cypress/psoc creator/4.0/psoc creator/import/gnu/arm/4.9.3/bin/../lib/gcc/arm-none-eabi/4.9.3/../../../../arm-none-eabi/lib/armv6-m\libg.a(lib_a-svfiprintf.o)
 .bss           0x20000f4c        0x0 c:/program files (x86)/cypress/psoc creator/4.0/psoc creator/import/gnu/arm/4.9.3/bin/../lib/gcc/arm-none-eabi/4.9.3/../../../../arm-none-eabi/lib/armv6-m\libg.a(lib_a-__atexit.o)
 .bss           0x20000f4c        0x0 c:/program files (x86)/cypress/psoc creator/4.0/psoc creator/import/gnu/arm/4.9.3/bin/../lib/gcc/arm-none-eabi/4.9.3/../../../../arm-none-eabi/lib/armv6-m\libg.a(lib_a-callocr.o)
 .bss           0x20000f4c        0x0 c:/program files (x86)/cypress/psoc creator/4.0/psoc creator/import/gnu/arm/4.9.3/bin/../lib/gcc/arm-none-eabi/4.9.3/../../../../arm-none-eabi/lib/armv6-m\libg.a(lib_a-freer.o)
 .bss           0x20000f4c        0x0 c:/program files (x86)/cypress/psoc creator/4.0/psoc creator/import/gnu/arm/4.9.3/bin/../lib/gcc/arm-none-eabi/4.9.3/../../../../arm-none-eabi/lib/armv6-m\libg.a(lib_a-memmove.o)
 .bss           0x20000f4c        0x0 c:/program files (x86)/cypress/psoc creator/4.0/psoc creator/import/gnu/arm/4.9.3/bin/../lib/gcc/arm-none-eabi/4.9.3/../../../../arm-none-eabi/lib/armv6-m\libg.a(lib_a-reallocr.o)
 .bss           0x20000f4c        0x0 c:/program files (x86)/cypress/psoc creator/4.0/psoc creator/import/gnu/arm/4.9.3/bin/../lib/gcc/arm-none-eabi/4.9.3/../../../../arm-none-eabi/lib/armv6-m\libg.a(lib_a-reent.o)
 .bss           0x20000f4c        0x0 c:/program files (x86)/cypress/psoc creator/4.0/psoc creator/import/gnu/arm/4.9.3/bin/../lib/gcc/arm-none-eabi/4.9.3/armv6-m\libgcc.a(muldf3.o)
 .bss           0x20000f4c        0x0 c:/program files (x86)/cypress/psoc creator/4.0/psoc creator/import/gnu/arm/4.9.3/bin/../lib/gcc/arm-none-eabi/4.9.3/armv6-m\libgcc.a(floatunsidf.o)
 .bss           0x20000f4c        0x0 c:/program files (x86)/cypress/psoc creator/4.0/psoc creator/import/gnu/arm/4.9.3/bin/../lib/gcc/arm-none-eabi/4.9.3/armv6-m/crtend.o
 .bss           0x20000f4c        0x0 c:/program files (x86)/cypress/psoc creator/4.0/psoc creator/import/gnu/arm/4.9.3/bin/../lib/gcc/arm-none-eabi/4.9.3/armv6-m/crtn.o
 *(COMMON)
 COMMON         0x20000f4c        0x1 .\CortexM0\ARM_GCC_493\Debug\RTC_WDT.o
                0x20000f4c                currentState
 *fill*         0x20000f4d        0x3 
 COMMON         0x20000f50      0x20c .\CortexM0\ARM_GCC_493\Debug\display.o
                0x20000f50                _sleep
                0x20000f54                scrbuf
                0x2000114c                cfont
                0x20001158                _contrast
 COMMON         0x2000115c        0x1 .\CortexM0\ARM_GCC_493\Debug\LED.o
                0x2000115c                LED_InitValue
 COMMON         0x2000115d        0x7 .\CortexM0\ARM_GCC_493\Debug\svt.o
                0x2000115d                LenC
                0x2000115e                LenChS
                0x2000115f                LenD1
                0x20001160                LenSeq
                0x20001161                LenD2
                0x20001162                PROTO_STATE
                0x20001163                LenD3
 COMMON         0x20001164        0x4 .\CortexM0\ARM_GCC_493\Debug\ntp.o
                0x20001164                NtpLenChS
                0x20001165                NtpLenMsD1
                0x20001166                NtpLenId
                0x20001167                NtpLenD1
 COMMON         0x20001168       0xf8 .\CortexM0\ARM_GCC_493\Debug\network.o
                0x20001168                IDreceivePacket
                0x20001170                outData
                0x20001188                recvDataNTP
                0x2000119c                ntpFlagReadyForReceive
                0x200011a0                inData
                0x200011b8                unixTime
                0x200011c8                resultReceive
                0x200011cc                networkFlagReadyForReceive
                0x200011cd                buffNetworkQualyty
                0x200011d0                recvData
                0x200011f0                networkFlagEndReceivePacket
                0x200011f1                ntpFlagEndReceivePacket
                0x200011f4                millisTime
                0x200011fc                previousData
 COMMON         0x20001260        0x4 .\CortexM0\ARM_GCC_493\Debug\batt.o
                0x20001260                voltage
 COMMON         0x20001264        0x5 .\CortexM0\ARM_GCC_493\Debug\taskAutomat.o
                0x20001264                flag
 *fill*         0x20001269        0x7 
 COMMON         0x20001270       0x28 .\CortexM0\ARM_GCC_493\Debug\start_v11.a(RTC.o)
                0x20001270                RTC_initVar
                0x20001274                RTC_currentTimeDate
                0x20001284                RTC_alarmCurStatus
                0x20001288                RTC_dstStatus
                0x20001290                RTC_unixTime
 COMMON         0x20001298       0xe0 .\CortexM0\ARM_GCC_493\Debug\start_v11.a(UART_XB_SPI_UART.o)
                0x20001298                UART_XB_rxBufferTail
                0x2000129c                UART_XB_rxBufferOverflow
                0x200012a0                UART_XB_txBufferHead
                0x200012a4                UART_XB_txBufferInternal
                0x20001308                UART_XB_rxBufferInternal
                0x20001370                UART_XB_rxBufferHead
                0x20001374                UART_XB_txBufferTail
 COMMON         0x20001378        0x6 .\CortexM0\ARM_GCC_493\Debug\start_v11.a(ADC.o)
                0x20001378                ADC_countsPer10Volt
                0x2000137c                ADC_offset
 *fill*         0x2000137e        0x2 
 COMMON         0x20001380        0x4 c:/program files (x86)/cypress/psoc creator/4.0/psoc creator/import/gnu/arm/4.9.3/bin/../lib/gcc/arm-none-eabi/4.9.3/../../../../arm-none-eabi/lib/armv6-m\libg.a(lib_a-reent.o)
                0x20001380                errno
                0x20001388                . = ALIGN (0x8)
 *fill*         0x20001384        0x4 
 *(.ram.b)
                0x20001388                _end = .
                0x20001388                __end = .
                0x20001388                PROVIDE (end, .)
                0x20001388                PROVIDE (__bss_end__, .)
                0x00014410                __cy_region_init_ram = LOADADDR (.data)
                0x000008e0                __cy_region_init_size_ram = (_edata - ADDR (.data))
                0x000009e0                __cy_region_zero_size_ram = (_end - _edata)

.heap           0x20001388     0x1000 load address 0x00014cf0
                0x20001388                . = _end
                0x20002388                . = (. + 0x1000)
 *fill*         0x20001388     0x1000 
                0x20002388                __cy_heap_limit = .

.stack          0x20003800      0x800
                0x20003800                __cy_stack_limit = .
                0x20004000                . = (. + 0x800)
 *fill*         0x20003800      0x800 
                0x00000001                ASSERT ((__cy_stack_limit >= __cy_heap_limit), region RAM overflowed with stack)
                0x00000000                cy_checksum_exclude_size = (CY_APPL_LOADABLE == 0x1)?SIZEOF (.cy_checksum_exclude):0x0
                0x00000001                ASSERT ((cy_checksum_exclude_size <= CY_CHECKSUM_EXCLUDE_SIZE), CY_BOOT: Section .cy_checksum_exclude size exceedes specified limit.)
                0x0001ffc0                cyloadermeta_start = (cy_project_type_bootloader || cy_project_type_app_for_stack_and_copier)?(0x20000 - CY_METADATA_SIZE):0xf0000000

.cyloadermeta
 *(.cyloadermeta)
                0x0001ffc0                cyloadablemeta_start = cy_project_type_app_for_stack_and_copier?((0x20000 - CY_FLASH_ROW_SIZE) - CY_METADATA_SIZE):((0x20000 - (CY_FLASH_ROW_SIZE * (CY_APPL_NUM - 0x1))) - CY_METADATA_SIZE)

.cyloadablemeta
 *(.cyloadablemeta)

.cyflashprotect
                0x90400000       0x80
 *(.cyflashprotect)
 .cyflashprotect
                0x90400000       0x80 .\CortexM0\ARM_GCC_493\Debug\cymetadata.o
                0x90400000                cy_meta_flashprotect

.cymeta         0x90500000        0xc
 *(.cymeta)
 .cymeta        0x90500000        0xc .\CortexM0\ARM_GCC_493\Debug\cymetadata.o
                0x90500000                cy_metadata

.cychipprotect  0x90600000        0x4
 *(.cychipprotect)
 .cychipprotect
                0x90600000        0x4 .\CortexM0\ARM_GCC_493\Debug\cymetadata.o
                0x90600000                cy_meta_chipprotect

.rel.dyn        0x00014cf0        0x0 load address 0x90600004
 .rel.iplt      0x00000000        0x0 c:/program files (x86)/cypress/psoc creator/4.0/psoc creator/import/gnu/arm/4.9.3/bin/../lib/gcc/arm-none-eabi/4.9.3/armv6-m/crtbegin.o

.stab
 *(.stab)

.stabstr
 *(.stabstr)

.debug
 *(.debug)

.line
 *(.line)

.debug_srcinfo
 *(.debug_srcinfo)

.debug_sfnames
 *(.debug_sfnames)

.debug_aranges  0x00000000     0x17d8
 *(.debug_aranges)
 .debug_aranges
                0x00000000       0x90 .\CortexM0\ARM_GCC_493\Debug\RTC_WDT.o
 .debug_aranges
                0x00000090       0xa0 .\CortexM0\ARM_GCC_493\Debug\display.o
 .debug_aranges
                0x00000130       0x18 .\CortexM0\ARM_GCC_493\Debug\DefaultFonts.o
 .debug_aranges
                0x00000148       0x18 .\CortexM0\ARM_GCC_493\Debug\Graphics.o
 .debug_aranges
                0x00000160      0x120 .\CortexM0\ARM_GCC_493\Debug\LCD5110_Graph.o
 .debug_aranges
                0x00000280       0x48 .\CortexM0\ARM_GCC_493\Debug\gate.o
 .debug_aranges
                0x000002c8       0x38 .\CortexM0\ARM_GCC_493\Debug\LED.o
 .debug_aranges
                0x00000300       0x38 .\CortexM0\ARM_GCC_493\Debug\crc32.o
 .debug_aranges
                0x00000338       0x40 .\CortexM0\ARM_GCC_493\Debug\svt.o
 .debug_aranges
                0x00000378       0x38 .\CortexM0\ARM_GCC_493\Debug\ntp.o
 .debug_aranges
                0x000003b0       0x98 .\CortexM0\ARM_GCC_493\Debug\network.o
 .debug_aranges
                0x00000448       0x28 .\CortexM0\ARM_GCC_493\Debug\batt.o
 .debug_aranges
                0x00000470       0x48 .\CortexM0\ARM_GCC_493\Debug\testMode.o
 .debug_aranges
                0x000004b8       0x60 .\CortexM0\ARM_GCC_493\Debug\taskAutomat.o
 .debug_aranges
                0x00000518       0x40 .\CortexM0\ARM_GCC_493\Debug\Buttons.o
 .debug_aranges
                0x00000558       0x50 .\CortexM0\ARM_GCC_493\Debug\main.o
 .debug_aranges
                0x000005a8       0x18 .\CortexM0\ARM_GCC_493\Debug\cymetadata.o
 .debug_aranges
                0x000005c0       0x48 .\CortexM0\ARM_GCC_493\Debug\Cm0Start.o
 .debug_aranges
                0x00000608       0x58 .\CortexM0\ARM_GCC_493\Debug\start_v11.a(cyfitter_cfg.o)
 .debug_aranges
                0x00000660      0x1a0 .\CortexM0\ARM_GCC_493\Debug\start_v11.a(CyLib.o)
 .debug_aranges
                0x00000800      0x198 .\CortexM0\ARM_GCC_493\Debug\start_v11.a(CyLFClk.o)
 .debug_aranges
                0x00000998      0x128 .\CortexM0\ARM_GCC_493\Debug\start_v11.a(RTC.o)
 .debug_aranges
                0x00000ac0       0x48 .\CortexM0\ARM_GCC_493\Debug\start_v11.a(GatePin.o)
 .debug_aranges
                0x00000b08      0x158 .\CortexM0\ARM_GCC_493\Debug\start_v11.a(Timer_LED.o)
 .debug_aranges
                0x00000c60       0x80 .\CortexM0\ARM_GCC_493\Debug\start_v11.a(Int_Timer_Led.o)
 .debug_aranges
                0x00000ce0       0x68 .\CortexM0\ARM_GCC_493\Debug\start_v11.a(UART_XB.o)
 .debug_aranges
                0x00000d48       0x60 .\CortexM0\ARM_GCC_493\Debug\start_v11.a(UART_XB_SPI_UART.o)
 .debug_aranges
                0x00000da8       0x88 .\CortexM0\ARM_GCC_493\Debug\start_v11.a(UART_XB_UART.o)
 .debug_aranges
                0x00000e30       0x58 .\CortexM0\ARM_GCC_493\Debug\start_v11.a(SwSPI_Master.o)
 .debug_aranges
                0x00000e88       0x80 .\CortexM0\ARM_GCC_493\Debug\start_v11.a(GATE_INT.o)
 .debug_aranges
                0x00000f08       0x48 .\CortexM0\ARM_GCC_493\Debug\start_v11.a(debug.o)
 .debug_aranges
                0x00000f50       0xa8 .\CortexM0\ARM_GCC_493\Debug\start_v11.a(ADC.o)
 .debug_aranges
                0x00000ff8       0x20 .\CortexM0\ARM_GCC_493\Debug\start_v11.a(ADC_INT.o)
 .debug_aranges
                0x00001018       0x48 .\CortexM0\ARM_GCC_493\Debug\start_v11.a(CE.o)
 .debug_aranges
                0x00001060       0x48 .\CortexM0\ARM_GCC_493\Debug\start_v11.a(RST.o)
 .debug_aranges
                0x000010a8       0x48 .\CortexM0\ARM_GCC_493\Debug\start_v11.a(DC.o)
 .debug_aranges
                0x000010f0       0x48 .\CortexM0\ARM_GCC_493\Debug\start_v11.a(LCD_BL.o)
 .debug_aranges
                0x00001138      0x158 .\CortexM0\ARM_GCC_493\Debug\start_v11.a(TimerTestMode.o)
 .debug_aranges
                0x00001290       0x80 .\CortexM0\ARM_GCC_493\Debug\start_v11.a(Int_timerTestMode.o)
 .debug_aranges
                0x00001310       0x48 .\CortexM0\ARM_GCC_493\Debug\start_v11.a(Pin_testMode.o)
 .debug_aranges
                0x00001358       0x48 .\CortexM0\ARM_GCC_493\Debug\start_v11.a(SW_RunTestMode.o)
 .debug_aranges
                0x000013a0       0x48 .\CortexM0\ARM_GCC_493\Debug\start_v11.a(LED_RED_PIN.o)
 .debug_aranges
                0x000013e8       0x48 .\CortexM0\ARM_GCC_493\Debug\start_v11.a(LED_GREEN_PIN.o)
 .debug_aranges
                0x00001430      0x158 .\CortexM0\ARM_GCC_493\Debug\start_v11.a(Timer.o)
 .debug_aranges
                0x00001588       0x80 .\CortexM0\ARM_GCC_493\Debug\start_v11.a(isr_timer.o)
 .debug_aranges
                0x00001608       0x48 .\CortexM0\ARM_GCC_493\Debug\start_v11.a(BtnUp.o)
 .debug_aranges
                0x00001650       0x48 .\CortexM0\ARM_GCC_493\Debug\start_v11.a(BtnDown.o)
 .debug_aranges
                0x00001698       0x80 .\CortexM0\ARM_GCC_493\Debug\start_v11.a(BUTT_DOWN_INT.o)
 .debug_aranges
                0x00001718       0x80 .\CortexM0\ARM_GCC_493\Debug\start_v11.a(BUTT_UP_INT.o)
 .debug_aranges
                0x00001798       0x20 .\CortexM0\ARM_GCC_493\Debug\start_v11.a(CyBootAsmGnu.o)
 .debug_aranges
                0x000017b8       0x20 .\CortexM0\ARM_GCC_493\Debug\start_v11.a(UART_XB_SPI_UART_INT.o)

.debug_pubnames
 *(.debug_pubnames)

.debug_info     0x00000000     0xa55f
 *(.debug_info .gnu.linkonce.wi.*)
 .debug_info    0x00000000      0x44d .\CortexM0\ARM_GCC_493\Debug\RTC_WDT.o
 .debug_info    0x0000044d      0x519 .\CortexM0\ARM_GCC_493\Debug\display.o
 .debug_info    0x00000966       0xc8 .\CortexM0\ARM_GCC_493\Debug\DefaultFonts.o
 .debug_info    0x00000a2e      0x183 .\CortexM0\ARM_GCC_493\Debug\Graphics.o
 .debug_info    0x00000bb1      0xf23 .\CortexM0\ARM_GCC_493\Debug\LCD5110_Graph.o
 .debug_info    0x00001ad4      0x1df .\CortexM0\ARM_GCC_493\Debug\gate.o
 .debug_info    0x00001cb3      0x1bb .\CortexM0\ARM_GCC_493\Debug\LED.o
 .debug_info    0x00001e6e      0x205 .\CortexM0\ARM_GCC_493\Debug\crc32.o
 .debug_info    0x00002073      0x402 .\CortexM0\ARM_GCC_493\Debug\svt.o
 .debug_info    0x00002475      0x2b4 .\CortexM0\ARM_GCC_493\Debug\ntp.o
 .debug_info    0x00002729      0x74c .\CortexM0\ARM_GCC_493\Debug\network.o
 .debug_info    0x00002e75       0xe8 .\CortexM0\ARM_GCC_493\Debug\batt.o
 .debug_info    0x00002f5d      0x23f .\CortexM0\ARM_GCC_493\Debug\testMode.o
 .debug_info    0x0000319c      0x2ac .\CortexM0\ARM_GCC_493\Debug\taskAutomat.o
 .debug_info    0x00003448      0x14c .\CortexM0\ARM_GCC_493\Debug\Buttons.o
 .debug_info    0x00003594      0x22f .\CortexM0\ARM_GCC_493\Debug\main.o
 .debug_info    0x000037c3       0xfe .\CortexM0\ARM_GCC_493\Debug\cymetadata.o
 .debug_info    0x000038c1      0x300 .\CortexM0\ARM_GCC_493\Debug\Cm0Start.o
 .debug_info    0x00003bc1      0x38c .\CortexM0\ARM_GCC_493\Debug\start_v11.a(cyfitter_cfg.o)
 .debug_info    0x00003f4d      0x985 .\CortexM0\ARM_GCC_493\Debug\start_v11.a(CyLib.o)
 .debug_info    0x000048d2      0xaa3 .\CortexM0\ARM_GCC_493\Debug\start_v11.a(CyLFClk.o)
 .debug_info    0x00005375      0xa4c .\CortexM0\ARM_GCC_493\Debug\start_v11.a(RTC.o)
 .debug_info    0x00005dc1      0x19a .\CortexM0\ARM_GCC_493\Debug\start_v11.a(GatePin.o)
 .debug_info    0x00005f5b      0x6f4 .\CortexM0\ARM_GCC_493\Debug\start_v11.a(Timer_LED.o)
 .debug_info    0x0000664f      0x246 .\CortexM0\ARM_GCC_493\Debug\start_v11.a(Int_Timer_Led.o)
 .debug_info    0x00006895      0x201 .\CortexM0\ARM_GCC_493\Debug\start_v11.a(UART_XB.o)
 .debug_info    0x00006a96      0x2f5 .\CortexM0\ARM_GCC_493\Debug\start_v11.a(UART_XB_SPI_UART.o)
 .debug_info    0x00006d8b      0x31d .\CortexM0\ARM_GCC_493\Debug\start_v11.a(UART_XB_UART.o)
 .debug_info    0x000070a8      0x28c .\CortexM0\ARM_GCC_493\Debug\start_v11.a(SwSPI_Master.o)
 .debug_info    0x00007334      0x246 .\CortexM0\ARM_GCC_493\Debug\start_v11.a(GATE_INT.o)
 .debug_info    0x0000757a      0x19a .\CortexM0\ARM_GCC_493\Debug\start_v11.a(debug.o)
 .debug_info    0x00007714      0x47b .\CortexM0\ARM_GCC_493\Debug\start_v11.a(ADC.o)
 .debug_info    0x00007b8f       0xc5 .\CortexM0\ARM_GCC_493\Debug\start_v11.a(ADC_INT.o)
 .debug_info    0x00007c54      0x19a .\CortexM0\ARM_GCC_493\Debug\start_v11.a(CE.o)
 .debug_info    0x00007dee      0x19a .\CortexM0\ARM_GCC_493\Debug\start_v11.a(RST.o)
 .debug_info    0x00007f88      0x19a .\CortexM0\ARM_GCC_493\Debug\start_v11.a(DC.o)
 .debug_info    0x00008122      0x19a .\CortexM0\ARM_GCC_493\Debug\start_v11.a(LCD_BL.o)
 .debug_info    0x000082bc      0x6f4 .\CortexM0\ARM_GCC_493\Debug\start_v11.a(TimerTestMode.o)
 .debug_info    0x000089b0      0x246 .\CortexM0\ARM_GCC_493\Debug\start_v11.a(Int_timerTestMode.o)
 .debug_info    0x00008bf6      0x19a .\CortexM0\ARM_GCC_493\Debug\start_v11.a(Pin_testMode.o)
 .debug_info    0x00008d90      0x19a .\CortexM0\ARM_GCC_493\Debug\start_v11.a(SW_RunTestMode.o)
 .debug_info    0x00008f2a      0x19a .\CortexM0\ARM_GCC_493\Debug\start_v11.a(LED_RED_PIN.o)
 .debug_info    0x000090c4      0x19a .\CortexM0\ARM_GCC_493\Debug\start_v11.a(LED_GREEN_PIN.o)
 .debug_info    0x0000925e      0x6f4 .\CortexM0\ARM_GCC_493\Debug\start_v11.a(Timer.o)
 .debug_info    0x00009952      0x246 .\CortexM0\ARM_GCC_493\Debug\start_v11.a(isr_timer.o)
 .debug_info    0x00009b98      0x19a .\CortexM0\ARM_GCC_493\Debug\start_v11.a(BtnUp.o)
 .debug_info    0x00009d32      0x19a .\CortexM0\ARM_GCC_493\Debug\start_v11.a(BtnDown.o)
 .debug_info    0x00009ecc      0x246 .\CortexM0\ARM_GCC_493\Debug\start_v11.a(BUTT_DOWN_INT.o)
 .debug_info    0x0000a112      0x246 .\CortexM0\ARM_GCC_493\Debug\start_v11.a(BUTT_UP_INT.o)
 .debug_info    0x0000a358       0x8a .\CortexM0\ARM_GCC_493\Debug\start_v11.a(CyBootAsmGnu.o)
 .debug_info    0x0000a3e2      0x17d .\CortexM0\ARM_GCC_493\Debug\start_v11.a(UART_XB_SPI_UART_INT.o)

.debug_abbrev   0x00000000     0x34d5
 *(.debug_abbrev)
 .debug_abbrev  0x00000000      0x1a7 .\CortexM0\ARM_GCC_493\Debug\RTC_WDT.o
 .debug_abbrev  0x000001a7      0x1b3 .\CortexM0\ARM_GCC_493\Debug\display.o
 .debug_abbrev  0x0000035a       0x45 .\CortexM0\ARM_GCC_493\Debug\DefaultFonts.o
 .debug_abbrev  0x0000039f       0x8b .\CortexM0\ARM_GCC_493\Debug\Graphics.o
 .debug_abbrev  0x0000042a      0x1e9 .\CortexM0\ARM_GCC_493\Debug\LCD5110_Graph.o
 .debug_abbrev  0x00000613       0xd3 .\CortexM0\ARM_GCC_493\Debug\gate.o
 .debug_abbrev  0x000006e6       0xbb .\CortexM0\ARM_GCC_493\Debug\LED.o
 .debug_abbrev  0x000007a1       0xc2 .\CortexM0\ARM_GCC_493\Debug\crc32.o
 .debug_abbrev  0x00000863      0x179 .\CortexM0\ARM_GCC_493\Debug\svt.o
 .debug_abbrev  0x000009dc      0x122 .\CortexM0\ARM_GCC_493\Debug\ntp.o
 .debug_abbrev  0x00000afe      0x203 .\CortexM0\ARM_GCC_493\Debug\network.o
 .debug_abbrev  0x00000d01       0x8b .\CortexM0\ARM_GCC_493\Debug\batt.o
 .debug_abbrev  0x00000d8c      0x12f .\CortexM0\ARM_GCC_493\Debug\testMode.o
 .debug_abbrev  0x00000ebb      0x131 .\CortexM0\ARM_GCC_493\Debug\taskAutomat.o
 .debug_abbrev  0x00000fec       0x7a .\CortexM0\ARM_GCC_493\Debug\Buttons.o
 .debug_abbrev  0x00001066       0xe2 .\CortexM0\ARM_GCC_493\Debug\main.o
 .debug_abbrev  0x00001148       0x5d .\CortexM0\ARM_GCC_493\Debug\cymetadata.o
 .debug_abbrev  0x000011a5      0x1a5 .\CortexM0\ARM_GCC_493\Debug\Cm0Start.o
 .debug_abbrev  0x0000134a      0x1b3 .\CortexM0\ARM_GCC_493\Debug\start_v11.a(cyfitter_cfg.o)
 .debug_abbrev  0x000014fd      0x1a7 .\CortexM0\ARM_GCC_493\Debug\start_v11.a(CyLib.o)
 .debug_abbrev  0x000016a4      0x228 .\CortexM0\ARM_GCC_493\Debug\start_v11.a(CyLFClk.o)
 .debug_abbrev  0x000018cc      0x212 .\CortexM0\ARM_GCC_493\Debug\start_v11.a(RTC.o)
 .debug_abbrev  0x00001ade       0xaa .\CortexM0\ARM_GCC_493\Debug\start_v11.a(GatePin.o)
 .debug_abbrev  0x00001b88       0xfc .\CortexM0\ARM_GCC_493\Debug\start_v11.a(Timer_LED.o)
 .debug_abbrev  0x00001c84      0x16a .\CortexM0\ARM_GCC_493\Debug\start_v11.a(Int_Timer_Led.o)
 .debug_abbrev  0x00001dee       0xc5 .\CortexM0\ARM_GCC_493\Debug\start_v11.a(UART_XB.o)
 .debug_abbrev  0x00001eb3      0x149 .\CortexM0\ARM_GCC_493\Debug\start_v11.a(UART_XB_SPI_UART.o)
 .debug_abbrev  0x00001ffc       0xfd .\CortexM0\ARM_GCC_493\Debug\start_v11.a(UART_XB_UART.o)
 .debug_abbrev  0x000020f9      0x10e .\CortexM0\ARM_GCC_493\Debug\start_v11.a(SwSPI_Master.o)
 .debug_abbrev  0x00002207      0x16a .\CortexM0\ARM_GCC_493\Debug\start_v11.a(GATE_INT.o)
 .debug_abbrev  0x00002371       0xaa .\CortexM0\ARM_GCC_493\Debug\start_v11.a(debug.o)
 .debug_abbrev  0x0000241b      0x163 .\CortexM0\ARM_GCC_493\Debug\start_v11.a(ADC.o)
 .debug_abbrev  0x0000257e       0x65 .\CortexM0\ARM_GCC_493\Debug\start_v11.a(ADC_INT.o)
 .debug_abbrev  0x000025e3       0xaa .\CortexM0\ARM_GCC_493\Debug\start_v11.a(CE.o)
 .debug_abbrev  0x0000268d       0xaa .\CortexM0\ARM_GCC_493\Debug\start_v11.a(RST.o)
 .debug_abbrev  0x00002737       0xaa .\CortexM0\ARM_GCC_493\Debug\start_v11.a(DC.o)
 .debug_abbrev  0x000027e1       0xaa .\CortexM0\ARM_GCC_493\Debug\start_v11.a(LCD_BL.o)
 .debug_abbrev  0x0000288b       0xfc .\CortexM0\ARM_GCC_493\Debug\start_v11.a(TimerTestMode.o)
 .debug_abbrev  0x00002987      0x16a .\CortexM0\ARM_GCC_493\Debug\start_v11.a(Int_timerTestMode.o)
 .debug_abbrev  0x00002af1       0xaa .\CortexM0\ARM_GCC_493\Debug\start_v11.a(Pin_testMode.o)
 .debug_abbrev  0x00002b9b       0xaa .\CortexM0\ARM_GCC_493\Debug\start_v11.a(SW_RunTestMode.o)
 .debug_abbrev  0x00002c45       0xaa .\CortexM0\ARM_GCC_493\Debug\start_v11.a(LED_RED_PIN.o)
 .debug_abbrev  0x00002cef       0xaa .\CortexM0\ARM_GCC_493\Debug\start_v11.a(LED_GREEN_PIN.o)
 .debug_abbrev  0x00002d99       0xfc .\CortexM0\ARM_GCC_493\Debug\start_v11.a(Timer.o)
 .debug_abbrev  0x00002e95      0x16a .\CortexM0\ARM_GCC_493\Debug\start_v11.a(isr_timer.o)
 .debug_abbrev  0x00002fff       0xaa .\CortexM0\ARM_GCC_493\Debug\start_v11.a(BtnUp.o)
 .debug_abbrev  0x000030a9       0xaa .\CortexM0\ARM_GCC_493\Debug\start_v11.a(BtnDown.o)
 .debug_abbrev  0x00003153      0x16a .\CortexM0\ARM_GCC_493\Debug\start_v11.a(BUTT_DOWN_INT.o)
 .debug_abbrev  0x000032bd      0x16a .\CortexM0\ARM_GCC_493\Debug\start_v11.a(BUTT_UP_INT.o)
 .debug_abbrev  0x00003427       0x14 .\CortexM0\ARM_GCC_493\Debug\start_v11.a(CyBootAsmGnu.o)
 .debug_abbrev  0x0000343b       0x9a .\CortexM0\ARM_GCC_493\Debug\start_v11.a(UART_XB_SPI_UART_INT.o)

.debug_line     0x00000000     0x626b
 *(.debug_line)
 .debug_line    0x00000000      0x2e9 .\CortexM0\ARM_GCC_493\Debug\RTC_WDT.o
 .debug_line    0x000002e9      0x394 .\CortexM0\ARM_GCC_493\Debug\display.o
 .debug_line    0x0000067d       0x4a .\CortexM0\ARM_GCC_493\Debug\DefaultFonts.o
 .debug_line    0x000006c7      0x14f .\CortexM0\ARM_GCC_493\Debug\Graphics.o
 .debug_line    0x00000816      0x833 .\CortexM0\ARM_GCC_493\Debug\LCD5110_Graph.o
 .debug_line    0x00001049      0x1c1 .\CortexM0\ARM_GCC_493\Debug\gate.o
 .debug_line    0x0000120a      0x1bb .\CortexM0\ARM_GCC_493\Debug\LED.o
 .debug_line    0x000013c5      0x1bd .\CortexM0\ARM_GCC_493\Debug\crc32.o
 .debug_line    0x00001582      0x259 .\CortexM0\ARM_GCC_493\Debug\svt.o
 .debug_line    0x000017db      0x1f7 .\CortexM0\ARM_GCC_493\Debug\ntp.o
 .debug_line    0x000019d2      0x376 .\CortexM0\ARM_GCC_493\Debug\network.o
 .debug_line    0x00001d48      0x15d .\CortexM0\ARM_GCC_493\Debug\batt.o
 .debug_line    0x00001ea5      0x292 .\CortexM0\ARM_GCC_493\Debug\testMode.o
 .debug_line    0x00002137      0x2d8 .\CortexM0\ARM_GCC_493\Debug\taskAutomat.o
 .debug_line    0x0000240f      0x1c4 .\CortexM0\ARM_GCC_493\Debug\Buttons.o
 .debug_line    0x000025d3      0x235 .\CortexM0\ARM_GCC_493\Debug\main.o
 .debug_line    0x00002808       0x51 .\CortexM0\ARM_GCC_493\Debug\cymetadata.o
 .debug_line    0x00002859      0x1c8 .\CortexM0\ARM_GCC_493\Debug\Cm0Start.o
 .debug_line    0x00002a21      0x1d7 .\CortexM0\ARM_GCC_493\Debug\start_v11.a(cyfitter_cfg.o)
 .debug_line    0x00002bf8      0x4ad .\CortexM0\ARM_GCC_493\Debug\start_v11.a(CyLib.o)
 .debug_line    0x000030a5      0x6ec .\CortexM0\ARM_GCC_493\Debug\start_v11.a(CyLFClk.o)
 .debug_line    0x00003791      0x49a .\CortexM0\ARM_GCC_493\Debug\start_v11.a(RTC.o)
 .debug_line    0x00003c2b       0xbf .\CortexM0\ARM_GCC_493\Debug\start_v11.a(GatePin.o)
 .debug_line    0x00003cea      0x373 .\CortexM0\ARM_GCC_493\Debug\start_v11.a(Timer_LED.o)
 .debug_line    0x0000405d      0x15c .\CortexM0\ARM_GCC_493\Debug\start_v11.a(Int_Timer_Led.o)
 .debug_line    0x000041b9      0x11d .\CortexM0\ARM_GCC_493\Debug\start_v11.a(UART_XB.o)
 .debug_line    0x000042d6      0x14c .\CortexM0\ARM_GCC_493\Debug\start_v11.a(UART_XB_SPI_UART.o)
 .debug_line    0x00004422      0x1c3 .\CortexM0\ARM_GCC_493\Debug\start_v11.a(UART_XB_UART.o)
 .debug_line    0x000045e5      0x289 .\CortexM0\ARM_GCC_493\Debug\start_v11.a(SwSPI_Master.o)
 .debug_line    0x0000486e      0x157 .\CortexM0\ARM_GCC_493\Debug\start_v11.a(GATE_INT.o)
 .debug_line    0x000049c5       0xbd .\CortexM0\ARM_GCC_493\Debug\start_v11.a(debug.o)
 .debug_line    0x00004a82      0x29a .\CortexM0\ARM_GCC_493\Debug\start_v11.a(ADC.o)
 .debug_line    0x00004d1c       0x62 .\CortexM0\ARM_GCC_493\Debug\start_v11.a(ADC_INT.o)
 .debug_line    0x00004d7e       0xba .\CortexM0\ARM_GCC_493\Debug\start_v11.a(CE.o)
 .debug_line    0x00004e38       0xbb .\CortexM0\ARM_GCC_493\Debug\start_v11.a(RST.o)
 .debug_line    0x00004ef3       0xba .\CortexM0\ARM_GCC_493\Debug\start_v11.a(DC.o)
 .debug_line    0x00004fad       0xbe .\CortexM0\ARM_GCC_493\Debug\start_v11.a(LCD_BL.o)
 .debug_line    0x0000506b      0x377 .\CortexM0\ARM_GCC_493\Debug\start_v11.a(TimerTestMode.o)
 .debug_line    0x000053e2      0x160 .\CortexM0\ARM_GCC_493\Debug\start_v11.a(Int_timerTestMode.o)
 .debug_line    0x00005542       0xc4 .\CortexM0\ARM_GCC_493\Debug\start_v11.a(Pin_testMode.o)
 .debug_line    0x00005606       0xc6 .\CortexM0\ARM_GCC_493\Debug\start_v11.a(SW_RunTestMode.o)
 .debug_line    0x000056cc       0xc3 .\CortexM0\ARM_GCC_493\Debug\start_v11.a(LED_RED_PIN.o)
 .debug_line    0x0000578f       0xc5 .\CortexM0\ARM_GCC_493\Debug\start_v11.a(LED_GREEN_PIN.o)
 .debug_line    0x00005854      0x36f .\CortexM0\ARM_GCC_493\Debug\start_v11.a(Timer.o)
 .debug_line    0x00005bc3      0x158 .\CortexM0\ARM_GCC_493\Debug\start_v11.a(isr_timer.o)
 .debug_line    0x00005d1b       0xbd .\CortexM0\ARM_GCC_493\Debug\start_v11.a(BtnUp.o)
 .debug_line    0x00005dd8       0xbf .\CortexM0\ARM_GCC_493\Debug\start_v11.a(BtnDown.o)
 .debug_line    0x00005e97      0x15c .\CortexM0\ARM_GCC_493\Debug\start_v11.a(BUTT_DOWN_INT.o)
 .debug_line    0x00005ff3      0x15a .\CortexM0\ARM_GCC_493\Debug\start_v11.a(BUTT_UP_INT.o)
 .debug_line    0x0000614d       0x68 .\CortexM0\ARM_GCC_493\Debug\start_v11.a(CyBootAsmGnu.o)
 .debug_line    0x000061b5       0xb6 .\CortexM0\ARM_GCC_493\Debug\start_v11.a(UART_XB_SPI_UART_INT.o)

.debug_frame    0x00000000     0x5bbc
 *(.debug_frame)
 .debug_frame   0x00000000      0x220 .\CortexM0\ARM_GCC_493\Debug\RTC_WDT.o
 .debug_frame   0x00000220      0x238 .\CortexM0\ARM_GCC_493\Debug\display.o
 .debug_frame   0x00000458      0x444 .\CortexM0\ARM_GCC_493\Debug\LCD5110_Graph.o
 .debug_frame   0x0000089c       0xcc .\CortexM0\ARM_GCC_493\Debug\gate.o
 .debug_frame   0x00000968       0x88 .\CortexM0\ARM_GCC_493\Debug\LED.o
 .debug_frame   0x000009f0       0x90 .\CortexM0\ARM_GCC_493\Debug\crc32.o
 .debug_frame   0x00000a80       0xc0 .\CortexM0\ARM_GCC_493\Debug\svt.o
 .debug_frame   0x00000b40       0x94 .\CortexM0\ARM_GCC_493\Debug\ntp.o
 .debug_frame   0x00000bd4      0x220 .\CortexM0\ARM_GCC_493\Debug\network.o
 .debug_frame   0x00000df4       0x4c .\CortexM0\ARM_GCC_493\Debug\batt.o
 .debug_frame   0x00000e40       0xbc .\CortexM0\ARM_GCC_493\Debug\testMode.o
 .debug_frame   0x00000efc      0x118 .\CortexM0\ARM_GCC_493\Debug\taskAutomat.o
 .debug_frame   0x00001014       0x9c .\CortexM0\ARM_GCC_493\Debug\Buttons.o
 .debug_frame   0x000010b0       0xec .\CortexM0\ARM_GCC_493\Debug\main.o
 .debug_frame   0x0000119c       0xc8 .\CortexM0\ARM_GCC_493\Debug\Cm0Start.o
 .debug_frame   0x00001264      0x108 .\CortexM0\ARM_GCC_493\Debug\start_v11.a(cyfitter_cfg.o)
 .debug_frame   0x0000136c      0x608 .\CortexM0\ARM_GCC_493\Debug\start_v11.a(CyLib.o)
 .debug_frame   0x00001974      0x5f8 .\CortexM0\ARM_GCC_493\Debug\start_v11.a(CyLFClk.o)
 .debug_frame   0x00001f6c      0x46c .\CortexM0\ARM_GCC_493\Debug\start_v11.a(RTC.o)
 .debug_frame   0x000023d8       0xc8 .\CortexM0\ARM_GCC_493\Debug\start_v11.a(GatePin.o)
 .debug_frame   0x000024a0      0x52c .\CortexM0\ARM_GCC_493\Debug\start_v11.a(Timer_LED.o)
 .debug_frame   0x000029cc      0x190 .\CortexM0\ARM_GCC_493\Debug\start_v11.a(Int_Timer_Led.o)
 .debug_frame   0x00002b5c      0x134 .\CortexM0\ARM_GCC_493\Debug\start_v11.a(UART_XB.o)
 .debug_frame   0x00002c90      0x128 .\CortexM0\ARM_GCC_493\Debug\start_v11.a(UART_XB_SPI_UART.o)
 .debug_frame   0x00002db8      0x1bc .\CortexM0\ARM_GCC_493\Debug\start_v11.a(UART_XB_UART.o)
 .debug_frame   0x00002f74      0x108 .\CortexM0\ARM_GCC_493\Debug\start_v11.a(SwSPI_Master.o)
 .debug_frame   0x0000307c      0x190 .\CortexM0\ARM_GCC_493\Debug\start_v11.a(GATE_INT.o)
 .debug_frame   0x0000320c       0xc8 .\CortexM0\ARM_GCC_493\Debug\start_v11.a(debug.o)
 .debug_frame   0x000032d4      0x248 .\CortexM0\ARM_GCC_493\Debug\start_v11.a(ADC.o)
 .debug_frame   0x0000351c       0x30 .\CortexM0\ARM_GCC_493\Debug\start_v11.a(ADC_INT.o)
 .debug_frame   0x0000354c       0xc8 .\CortexM0\ARM_GCC_493\Debug\start_v11.a(CE.o)
 .debug_frame   0x00003614       0xc8 .\CortexM0\ARM_GCC_493\Debug\start_v11.a(RST.o)
 .debug_frame   0x000036dc       0xc8 .\CortexM0\ARM_GCC_493\Debug\start_v11.a(DC.o)
 .debug_frame   0x000037a4       0xc8 .\CortexM0\ARM_GCC_493\Debug\start_v11.a(LCD_BL.o)
 .debug_frame   0x0000386c      0x52c .\CortexM0\ARM_GCC_493\Debug\start_v11.a(TimerTestMode.o)
 .debug_frame   0x00003d98      0x190 .\CortexM0\ARM_GCC_493\Debug\start_v11.a(Int_timerTestMode.o)
 .debug_frame   0x00003f28       0xc8 .\CortexM0\ARM_GCC_493\Debug\start_v11.a(Pin_testMode.o)
 .debug_frame   0x00003ff0       0xc8 .\CortexM0\ARM_GCC_493\Debug\start_v11.a(SW_RunTestMode.o)
 .debug_frame   0x000040b8       0xc8 .\CortexM0\ARM_GCC_493\Debug\start_v11.a(LED_RED_PIN.o)
 .debug_frame   0x00004180       0xc8 .\CortexM0\ARM_GCC_493\Debug\start_v11.a(LED_GREEN_PIN.o)
 .debug_frame   0x00004248      0x52c .\CortexM0\ARM_GCC_493\Debug\start_v11.a(Timer.o)
 .debug_frame   0x00004774      0x190 .\CortexM0\ARM_GCC_493\Debug\start_v11.a(isr_timer.o)
 .debug_frame   0x00004904       0xc8 .\CortexM0\ARM_GCC_493\Debug\start_v11.a(BtnUp.o)
 .debug_frame   0x000049cc       0xc8 .\CortexM0\ARM_GCC_493\Debug\start_v11.a(BtnDown.o)
 .debug_frame   0x00004a94      0x190 .\CortexM0\ARM_GCC_493\Debug\start_v11.a(BUTT_DOWN_INT.o)
 .debug_frame   0x00004c24      0x190 .\CortexM0\ARM_GCC_493\Debug\start_v11.a(BUTT_UP_INT.o)
 .debug_frame   0x00004db4       0x30 .\CortexM0\ARM_GCC_493\Debug\start_v11.a(UART_XB_SPI_UART_INT.o)
 .debug_frame   0x00004de4       0x20 c:/program files (x86)/cypress/psoc creator/4.0/psoc creator/import/gnu/arm/4.9.3/bin/../lib/gcc/arm-none-eabi/4.9.3/armv6-m\libgcc.a(_udivsi3.o)
 .debug_frame   0x00004e04       0x20 c:/program files (x86)/cypress/psoc creator/4.0/psoc creator/import/gnu/arm/4.9.3/bin/../lib/gcc/arm-none-eabi/4.9.3/armv6-m\libgcc.a(_divsi3.o)
 .debug_frame   0x00004e24       0x34 c:/program files (x86)/cypress/psoc creator/4.0/psoc creator/import/gnu/arm/4.9.3/bin/../lib/gcc/arm-none-eabi/4.9.3/armv6-m\libgcc.a(_muldi3.o)
 .debug_frame   0x00004e58       0x50 c:/program files (x86)/cypress/psoc creator/4.0/psoc creator/import/gnu/arm/4.9.3/bin/../lib/gcc/arm-none-eabi/4.9.3/armv6-m\libgcc.a(bpabi.o)
 .debug_frame   0x00004ea8       0x3c c:/program files (x86)/cypress/psoc creator/4.0/psoc creator/import/gnu/arm/4.9.3/bin/../lib/gcc/arm-none-eabi/4.9.3/armv6-m\libgcc.a(divsf3.o)
 .debug_frame   0x00004ee4       0x2c c:/program files (x86)/cypress/psoc creator/4.0/psoc creator/import/gnu/arm/4.9.3/bin/../lib/gcc/arm-none-eabi/4.9.3/armv6-m\libgcc.a(eqsf2.o)
 .debug_frame   0x00004f10       0x30 c:/program files (x86)/cypress/psoc creator/4.0/psoc creator/import/gnu/arm/4.9.3/bin/../lib/gcc/arm-none-eabi/4.9.3/armv6-m\libgcc.a(gesf2.o)
 .debug_frame   0x00004f40       0x30 c:/program files (x86)/cypress/psoc creator/4.0/psoc creator/import/gnu/arm/4.9.3/bin/../lib/gcc/arm-none-eabi/4.9.3/armv6-m\libgcc.a(lesf2.o)
 .debug_frame   0x00004f70       0x3c c:/program files (x86)/cypress/psoc creator/4.0/psoc creator/import/gnu/arm/4.9.3/bin/../lib/gcc/arm-none-eabi/4.9.3/armv6-m\libgcc.a(mulsf3.o)
 .debug_frame   0x00004fac       0x2c c:/program files (x86)/cypress/psoc creator/4.0/psoc creator/import/gnu/arm/4.9.3/bin/../lib/gcc/arm-none-eabi/4.9.3/armv6-m\libgcc.a(floatsisf.o)
 .debug_frame   0x00004fd8       0x38 c:/program files (x86)/cypress/psoc creator/4.0/psoc creator/import/gnu/arm/4.9.3/bin/../lib/gcc/arm-none-eabi/4.9.3/armv6-m\libgcc.a(adddf3.o)
 .debug_frame   0x00005010       0x3c c:/program files (x86)/cypress/psoc creator/4.0/psoc creator/import/gnu/arm/4.9.3/bin/../lib/gcc/arm-none-eabi/4.9.3/armv6-m\libgcc.a(divdf3.o)
 .debug_frame   0x0000504c       0x38 c:/program files (x86)/cypress/psoc creator/4.0/psoc creator/import/gnu/arm/4.9.3/bin/../lib/gcc/arm-none-eabi/4.9.3/armv6-m\libgcc.a(eqdf2.o)
 .debug_frame   0x00005084       0x38 c:/program files (x86)/cypress/psoc creator/4.0/psoc creator/import/gnu/arm/4.9.3/bin/../lib/gcc/arm-none-eabi/4.9.3/armv6-m\libgcc.a(gedf2.o)
 .debug_frame   0x000050bc       0x38 c:/program files (x86)/cypress/psoc creator/4.0/psoc creator/import/gnu/arm/4.9.3/bin/../lib/gcc/arm-none-eabi/4.9.3/armv6-m\libgcc.a(ledf2.o)
 .debug_frame   0x000050f4       0x3c c:/program files (x86)/cypress/psoc creator/4.0/psoc creator/import/gnu/arm/4.9.3/bin/../lib/gcc/arm-none-eabi/4.9.3/armv6-m\libgcc.a(subdf3.o)
 .debug_frame   0x00005130       0x2c c:/program files (x86)/cypress/psoc creator/4.0/psoc creator/import/gnu/arm/4.9.3/bin/../lib/gcc/arm-none-eabi/4.9.3/armv6-m\libgcc.a(fixdfsi.o)
 .debug_frame   0x0000515c       0x2c c:/program files (x86)/cypress/psoc creator/4.0/psoc creator/import/gnu/arm/4.9.3/bin/../lib/gcc/arm-none-eabi/4.9.3/armv6-m\libgcc.a(floatsidf.o)
 .debug_frame   0x00005188       0x2c c:/program files (x86)/cypress/psoc creator/4.0/psoc creator/import/gnu/arm/4.9.3/bin/../lib/gcc/arm-none-eabi/4.9.3/armv6-m\libgcc.a(extendsfdf2.o)
 .debug_frame   0x000051b4       0x3c c:/program files (x86)/cypress/psoc creator/4.0/psoc creator/import/gnu/arm/4.9.3/bin/../lib/gcc/arm-none-eabi/4.9.3/armv6-m\libgcc.a(_divdi3.o)
 .debug_frame   0x000051f0       0x3c c:/program files (x86)/cypress/psoc creator/4.0/psoc creator/import/gnu/arm/4.9.3/bin/../lib/gcc/arm-none-eabi/4.9.3/armv6-m\libgcc.a(_udivdi3.o)
 .debug_frame   0x0000522c       0x20 c:/program files (x86)/cypress/psoc creator/4.0/psoc creator/import/gnu/arm/4.9.3/bin/../lib/gcc/arm-none-eabi/4.9.3/../../../../arm-none-eabi/lib/armv6-m\libg.a(lib_a-errno.o)
 .debug_frame   0x0000524c       0x28 c:/program files (x86)/cypress/psoc creator/4.0/psoc creator/import/gnu/arm/4.9.3/bin/../lib/gcc/arm-none-eabi/4.9.3/../../../../arm-none-eabi/lib/armv6-m\libg.a(lib_a-exit.o)
 .debug_frame   0x00005274       0x2c c:/program files (x86)/cypress/psoc creator/4.0/psoc creator/import/gnu/arm/4.9.3/bin/../lib/gcc/arm-none-eabi/4.9.3/../../../../arm-none-eabi/lib/armv6-m\libg.a(lib_a-init.o)
 .debug_frame   0x000052a0       0x2c c:/program files (x86)/cypress/psoc creator/4.0/psoc creator/import/gnu/arm/4.9.3/bin/../lib/gcc/arm-none-eabi/4.9.3/../../../../arm-none-eabi/lib/armv6-m\libg.a(lib_a-memcpy.o)
 .debug_frame   0x000052cc       0x2c c:/program files (x86)/cypress/psoc creator/4.0/psoc creator/import/gnu/arm/4.9.3/bin/../lib/gcc/arm-none-eabi/4.9.3/../../../../arm-none-eabi/lib/armv6-m\libg.a(lib_a-memset.o)
 .debug_frame   0x000052f8       0x38 c:/program files (x86)/cypress/psoc creator/4.0/psoc creator/import/gnu/arm/4.9.3/bin/../lib/gcc/arm-none-eabi/4.9.3/../../../../arm-none-eabi/lib/armv6-m\libg.a(lib_a-rand.o)
 .debug_frame   0x00005330       0x50 c:/program files (x86)/cypress/psoc creator/4.0/psoc creator/import/gnu/arm/4.9.3/bin/../lib/gcc/arm-none-eabi/4.9.3/../../../../arm-none-eabi/lib/armv6-m\libg.a(lib_a-sprintf.o)
 .debug_frame   0x00005380       0x2c c:/program files (x86)/cypress/psoc creator/4.0/psoc creator/import/gnu/arm/4.9.3/bin/../lib/gcc/arm-none-eabi/4.9.3/../../../../arm-none-eabi/lib/armv6-m\libg.a(lib_a-strcat.o)
 .debug_frame   0x000053ac       0x20 c:/program files (x86)/cypress/psoc creator/4.0/psoc creator/import/gnu/arm/4.9.3/bin/../lib/gcc/arm-none-eabi/4.9.3/../../../../arm-none-eabi/lib/armv6-m\libg.a(lib_a-strcpy.o)
 .debug_frame   0x000053cc       0x28 c:/program files (x86)/cypress/psoc creator/4.0/psoc creator/import/gnu/arm/4.9.3/bin/../lib/gcc/arm-none-eabi/4.9.3/../../../../arm-none-eabi/lib/armv6-m\libg.a(lib_a-strlen.o)
 .debug_frame   0x000053f4       0x2c c:/program files (x86)/cypress/psoc creator/4.0/psoc creator/import/gnu/arm/4.9.3/bin/../lib/gcc/arm-none-eabi/4.9.3/../../../../arm-none-eabi/lib/armv6-m\libg.a(lib_a-strncat.o)
 .debug_frame   0x00005420       0x2c c:/program files (x86)/cypress/psoc creator/4.0/psoc creator/import/gnu/arm/4.9.3/bin/../lib/gcc/arm-none-eabi/4.9.3/../../../../arm-none-eabi/lib/armv6-m\libg.a(lib_a-strncpy.o)
 .debug_frame   0x0000544c       0x3c c:/program files (x86)/cypress/psoc creator/4.0/psoc creator/import/gnu/arm/4.9.3/bin/../lib/gcc/arm-none-eabi/4.9.3/../../../../arm-none-eabi/lib/armv6-m\libg.a(lib_a-svfprintf.o)
 .debug_frame   0x00005488       0x54 c:/program files (x86)/cypress/psoc creator/4.0/psoc creator/import/gnu/arm/4.9.3/bin/../lib/gcc/arm-none-eabi/4.9.3/../../../../arm-none-eabi/lib/armv6-m\libg.a(lib_a-__call_atexit.o)
 .debug_frame   0x000054dc       0x28 c:/program files (x86)/cypress/psoc creator/4.0/psoc creator/import/gnu/arm/4.9.3/bin/../lib/gcc/arm-none-eabi/4.9.3/../../../../arm-none-eabi/lib/armv6-m\libg.a(lib_a-atexit.o)
 .debug_frame   0x00005504       0x68 c:/program files (x86)/cypress/psoc creator/4.0/psoc creator/import/gnu/arm/4.9.3/bin/../lib/gcc/arm-none-eabi/4.9.3/../../../../arm-none-eabi/lib/armv6-m\libg.a(lib_a-dtoa.o)
 .debug_frame   0x0000556c       0x2c c:/program files (x86)/cypress/psoc creator/4.0/psoc creator/import/gnu/arm/4.9.3/bin/../lib/gcc/arm-none-eabi/4.9.3/../../../../arm-none-eabi/lib/armv6-m\libg.a(lib_a-fini.o)
 .debug_frame   0x00005598       0xa4 c:/program files (x86)/cypress/psoc creator/4.0/psoc creator/import/gnu/arm/4.9.3/bin/../lib/gcc/arm-none-eabi/4.9.3/../../../../arm-none-eabi/lib/armv6-m\libg.a(lib_a-locale.o)
 .debug_frame   0x0000563c       0x3c c:/program files (x86)/cypress/psoc creator/4.0/psoc creator/import/gnu/arm/4.9.3/bin/../lib/gcc/arm-none-eabi/4.9.3/../../../../arm-none-eabi/lib/armv6-m\libg.a(lib_a-mallocr.o)
 .debug_frame   0x00005678       0x2c c:/program files (x86)/cypress/psoc creator/4.0/psoc creator/import/gnu/arm/4.9.3/bin/../lib/gcc/arm-none-eabi/4.9.3/../../../../arm-none-eabi/lib/armv6-m\libg.a(lib_a-memchr.o)
 .debug_frame   0x000056a4       0x30 c:/program files (x86)/cypress/psoc creator/4.0/psoc creator/import/gnu/arm/4.9.3/bin/../lib/gcc/arm-none-eabi/4.9.3/../../../../arm-none-eabi/lib/armv6-m\libg.a(lib_a-mlock.o)
 .debug_frame   0x000056d4      0x25c c:/program files (x86)/cypress/psoc creator/4.0/psoc creator/import/gnu/arm/4.9.3/bin/../lib/gcc/arm-none-eabi/4.9.3/../../../../arm-none-eabi/lib/armv6-m\libg.a(lib_a-mprec.o)
 .debug_frame   0x00005930       0x2c c:/program files (x86)/cypress/psoc creator/4.0/psoc creator/import/gnu/arm/4.9.3/bin/../lib/gcc/arm-none-eabi/4.9.3/../../../../arm-none-eabi/lib/armv6-m\libg.a(lib_a-s_fpclassify.o)
 .debug_frame   0x0000595c       0x2c c:/program files (x86)/cypress/psoc creator/4.0/psoc creator/import/gnu/arm/4.9.3/bin/../lib/gcc/arm-none-eabi/4.9.3/../../../../arm-none-eabi/lib/armv6-m\libg.a(lib_a-sbrkr.o)
 .debug_frame   0x00005988       0x68 c:/program files (x86)/cypress/psoc creator/4.0/psoc creator/import/gnu/arm/4.9.3/bin/../lib/gcc/arm-none-eabi/4.9.3/../../../../arm-none-eabi/lib/armv6-m\libg.a(lib_a-svfiprintf.o)
 .debug_frame   0x000059f0       0x3c c:/program files (x86)/cypress/psoc creator/4.0/psoc creator/import/gnu/arm/4.9.3/bin/../lib/gcc/arm-none-eabi/4.9.3/../../../../arm-none-eabi/lib/armv6-m\libg.a(lib_a-__atexit.o)
 .debug_frame   0x00005a2c       0x28 c:/program files (x86)/cypress/psoc creator/4.0/psoc creator/import/gnu/arm/4.9.3/bin/../lib/gcc/arm-none-eabi/4.9.3/../../../../arm-none-eabi/lib/armv6-m\libg.a(lib_a-callocr.o)
 .debug_frame   0x00005a54       0x54 c:/program files (x86)/cypress/psoc creator/4.0/psoc creator/import/gnu/arm/4.9.3/bin/../lib/gcc/arm-none-eabi/4.9.3/../../../../arm-none-eabi/lib/armv6-m\libg.a(lib_a-freer.o)
 .debug_frame   0x00005aa8       0x2c c:/program files (x86)/cypress/psoc creator/4.0/psoc creator/import/gnu/arm/4.9.3/bin/../lib/gcc/arm-none-eabi/4.9.3/../../../../arm-none-eabi/lib/armv6-m\libg.a(lib_a-memmove.o)
 .debug_frame   0x00005ad4       0x3c c:/program files (x86)/cypress/psoc creator/4.0/psoc creator/import/gnu/arm/4.9.3/bin/../lib/gcc/arm-none-eabi/4.9.3/../../../../arm-none-eabi/lib/armv6-m\libg.a(lib_a-reallocr.o)
 .debug_frame   0x00005b10       0x48 c:/program files (x86)/cypress/psoc creator/4.0/psoc creator/import/gnu/arm/4.9.3/bin/../lib/gcc/arm-none-eabi/4.9.3/../../../../arm-none-eabi/lib/armv6-m\libg.a(lib_a-reent.o)
 .debug_frame   0x00005b58       0x3c c:/program files (x86)/cypress/psoc creator/4.0/psoc creator/import/gnu/arm/4.9.3/bin/../lib/gcc/arm-none-eabi/4.9.3/armv6-m\libgcc.a(muldf3.o)
 .debug_frame   0x00005b94       0x28 c:/program files (x86)/cypress/psoc creator/4.0/psoc creator/import/gnu/arm/4.9.3/bin/../lib/gcc/arm-none-eabi/4.9.3/armv6-m\libgcc.a(floatunsidf.o)

.debug_str      0x00000000     0x477c
 *(.debug_str)
 .debug_str     0x00000000      0x2ec .\CortexM0\ARM_GCC_493\Debug\RTC_WDT.o
                                0x34f (size before relaxing)
 .debug_str     0x000002ec      0x248 .\CortexM0\ARM_GCC_493\Debug\display.o
                                0x446 (size before relaxing)
 .debug_str     0x00000534       0x35 .\CortexM0\ARM_GCC_493\Debug\DefaultFonts.o
                                0x137 (size before relaxing)
 .debug_str     0x00000569       0x32 .\CortexM0\ARM_GCC_493\Debug\Graphics.o
                                0x22a (size before relaxing)
 .debug_str     0x0000059b      0x1d4 .\CortexM0\ARM_GCC_493\Debug\LCD5110_Graph.o
                                0x3db (size before relaxing)
 .debug_str     0x0000076f       0x88 .\CortexM0\ARM_GCC_493\Debug\gate.o
                                0x288 (size before relaxing)
 .debug_str     0x000007f7       0x7e .\CortexM0\ARM_GCC_493\Debug\LED.o
                                0x276 (size before relaxing)
 .debug_str     0x00000875       0x71 .\CortexM0\ARM_GCC_493\Debug\crc32.o
                                0x1f8 (size before relaxing)
 .debug_str     0x000008e6      0x100 .\CortexM0\ARM_GCC_493\Debug\svt.o
                                0x384 (size before relaxing)
 .debug_str     0x000009e6      0x171 .\CortexM0\ARM_GCC_493\Debug\ntp.o
                                0x335 (size before relaxing)
 .debug_str     0x00000b57      0x343 .\CortexM0\ARM_GCC_493\Debug\network.o
                                0x5d6 (size before relaxing)
 .debug_str     0x00000e9a       0x53 .\CortexM0\ARM_GCC_493\Debug\batt.o
                                0x1cc (size before relaxing)
 .debug_str     0x00000eed      0x125 .\CortexM0\ARM_GCC_493\Debug\testMode.o
                                0x319 (size before relaxing)
 .debug_str     0x00001012       0xdb .\CortexM0\ARM_GCC_493\Debug\taskAutomat.o
                                0x2df (size before relaxing)
 .debug_str     0x000010ed       0xa1 .\CortexM0\ARM_GCC_493\Debug\Buttons.o
                                0x21c (size before relaxing)
 .debug_str     0x0000118e       0x70 .\CortexM0\ARM_GCC_493\Debug\main.o
                                0x27d (size before relaxing)
 .debug_str     0x000011fe       0x59 .\CortexM0\ARM_GCC_493\Debug\cymetadata.o
                                0x1c8 (size before relaxing)
 .debug_str     0x00001257      0x127 .\CortexM0\ARM_GCC_493\Debug\Cm0Start.o
                                0x2bc (size before relaxing)
 .debug_str     0x0000137e      0x122 .\CortexM0\ARM_GCC_493\Debug\start_v11.a(cyfitter_cfg.o)
                                0x2d5 (size before relaxing)
 .debug_str     0x000014a0      0x4dd .\CortexM0\ARM_GCC_493\Debug\start_v11.a(CyLib.o)
                                0x6a7 (size before relaxing)
 .debug_str     0x0000197d      0x715 .\CortexM0\ARM_GCC_493\Debug\start_v11.a(CyLFClk.o)
                                0x8e8 (size before relaxing)
 .debug_str     0x00002092      0x39b .\CortexM0\ARM_GCC_493\Debug\start_v11.a(RTC.o)
                                0x5ba (size before relaxing)
 .debug_str     0x0000242d       0xb9 .\CortexM0\ARM_GCC_493\Debug\start_v11.a(GatePin.o)
                                0x23e (size before relaxing)
 .debug_str     0x000024e6      0x48e .\CortexM0\ARM_GCC_493\Debug\start_v11.a(Timer_LED.o)
                                0x61a (size before relaxing)
 .debug_str     0x00002974      0x165 .\CortexM0\ARM_GCC_493\Debug\start_v11.a(Int_Timer_Led.o)
                                0x31b (size before relaxing)
 .debug_str     0x00002ad9      0x14a .\CortexM0\ARM_GCC_493\Debug\start_v11.a(UART_XB.o)
                                0x2cd (size before relaxing)
 .debug_str     0x00002c23      0x202 .\CortexM0\ARM_GCC_493\Debug\start_v11.a(UART_XB_SPI_UART.o)
                                0x389 (size before relaxing)
 .debug_str     0x00002e25      0x1bc .\CortexM0\ARM_GCC_493\Debug\start_v11.a(UART_XB_UART.o)
                                0x3d4 (size before relaxing)
 .debug_str     0x00002fe1      0x102 .\CortexM0\ARM_GCC_493\Debug\start_v11.a(SwSPI_Master.o)
                                0x2c9 (size before relaxing)
 .debug_str     0x000030e3      0x110 .\CortexM0\ARM_GCC_493\Debug\start_v11.a(GATE_INT.o)
                                0x2d5 (size before relaxing)
 .debug_str     0x000031f3       0x87 .\CortexM0\ARM_GCC_493\Debug\start_v11.a(debug.o)
                                0x230 (size before relaxing)
 .debug_str     0x0000327a      0x1bb .\CortexM0\ARM_GCC_493\Debug\start_v11.a(ADC.o)
                                0x381 (size before relaxing)
 .debug_str     0x00003435       0x35 .\CortexM0\ARM_GCC_493\Debug\start_v11.a(ADC_INT.o)
                                0x1ab (size before relaxing)
 .debug_str     0x0000346a       0x72 .\CortexM0\ARM_GCC_493\Debug\start_v11.a(CE.o)
                                0x21b (size before relaxing)
 .debug_str     0x000034dc       0x79 .\CortexM0\ARM_GCC_493\Debug\start_v11.a(RST.o)
                                0x222 (size before relaxing)
 .debug_str     0x00003555       0x72 .\CortexM0\ARM_GCC_493\Debug\start_v11.a(DC.o)
                                0x21b (size before relaxing)
 .debug_str     0x000035c7       0x8e .\CortexM0\ARM_GCC_493\Debug\start_v11.a(LCD_BL.o)
                                0x237 (size before relaxing)
 .debug_str     0x00003655      0x477 .\CortexM0\ARM_GCC_493\Debug\start_v11.a(TimerTestMode.o)
                                0x6c2 (size before relaxing)
 .debug_str     0x00003acc      0x18e .\CortexM0\ARM_GCC_493\Debug\start_v11.a(Int_timerTestMode.o)
                                0x353 (size before relaxing)
 .debug_str     0x00003c5a       0xb8 .\CortexM0\ARM_GCC_493\Debug\start_v11.a(Pin_testMode.o)
                                0x261 (size before relaxing)
 .debug_str     0x00003d12       0xc6 .\CortexM0\ARM_GCC_493\Debug\start_v11.a(SW_RunTestMode.o)
                                0x26f (size before relaxing)
 .debug_str     0x00003dd8       0xb1 .\CortexM0\ARM_GCC_493\Debug\start_v11.a(LED_RED_PIN.o)
                                0x25a (size before relaxing)
 .debug_str     0x00003e89       0xbf .\CortexM0\ARM_GCC_493\Debug\start_v11.a(LED_GREEN_PIN.o)
                                0x268 (size before relaxing)
 .debug_str     0x00003f48      0x327 .\CortexM0\ARM_GCC_493\Debug\start_v11.a(Timer.o)
                                0x572 (size before relaxing)
 .debug_str     0x0000426f      0x11e .\CortexM0\ARM_GCC_493\Debug\start_v11.a(isr_timer.o)
                                0x2e3 (size before relaxing)
 .debug_str     0x0000438d       0x87 .\CortexM0\ARM_GCC_493\Debug\start_v11.a(BtnUp.o)
                                0x230 (size before relaxing)
 .debug_str     0x00004414       0x95 .\CortexM0\ARM_GCC_493\Debug\start_v11.a(BtnDown.o)
                                0x23e (size before relaxing)
 .debug_str     0x000044a9      0x156 .\CortexM0\ARM_GCC_493\Debug\start_v11.a(BUTT_DOWN_INT.o)
                                0x31b (size before relaxing)
 .debug_str     0x000045ff      0x13a .\CortexM0\ARM_GCC_493\Debug\start_v11.a(BUTT_UP_INT.o)
                                0x2ff (size before relaxing)
 .debug_str     0x00004739       0x43 .\CortexM0\ARM_GCC_493\Debug\start_v11.a(UART_XB_SPI_UART_INT.o)
                                0x295 (size before relaxing)

.debug_loc
 *(.debug_loc)

.debug_macinfo
 *(.debug_macinfo)

.debug_ranges   0x00000000     0x1480
 *(.debug_ranges)
 .debug_ranges  0x00000000       0x80 .\CortexM0\ARM_GCC_493\Debug\RTC_WDT.o
 .debug_ranges  0x00000080       0x90 .\CortexM0\ARM_GCC_493\Debug\display.o
 .debug_ranges  0x00000110      0x110 .\CortexM0\ARM_GCC_493\Debug\LCD5110_Graph.o
 .debug_ranges  0x00000220       0x38 .\CortexM0\ARM_GCC_493\Debug\gate.o
 .debug_ranges  0x00000258       0x28 .\CortexM0\ARM_GCC_493\Debug\LED.o
 .debug_ranges  0x00000280       0x28 .\CortexM0\ARM_GCC_493\Debug\crc32.o
 .debug_ranges  0x000002a8       0x30 .\CortexM0\ARM_GCC_493\Debug\svt.o
 .debug_ranges  0x000002d8       0x28 .\CortexM0\ARM_GCC_493\Debug\ntp.o
 .debug_ranges  0x00000300       0x88 .\CortexM0\ARM_GCC_493\Debug\network.o
 .debug_ranges  0x00000388       0x18 .\CortexM0\ARM_GCC_493\Debug\batt.o
 .debug_ranges  0x000003a0       0x38 .\CortexM0\ARM_GCC_493\Debug\testMode.o
 .debug_ranges  0x000003d8       0x50 .\CortexM0\ARM_GCC_493\Debug\taskAutomat.o
 .debug_ranges  0x00000428       0x30 .\CortexM0\ARM_GCC_493\Debug\Buttons.o
 .debug_ranges  0x00000458       0x40 .\CortexM0\ARM_GCC_493\Debug\main.o
 .debug_ranges  0x00000498       0x38 .\CortexM0\ARM_GCC_493\Debug\Cm0Start.o
 .debug_ranges  0x000004d0       0x48 .\CortexM0\ARM_GCC_493\Debug\start_v11.a(cyfitter_cfg.o)
 .debug_ranges  0x00000518      0x190 .\CortexM0\ARM_GCC_493\Debug\start_v11.a(CyLib.o)
 .debug_ranges  0x000006a8      0x188 .\CortexM0\ARM_GCC_493\Debug\start_v11.a(CyLFClk.o)
 .debug_ranges  0x00000830      0x118 .\CortexM0\ARM_GCC_493\Debug\start_v11.a(RTC.o)
 .debug_ranges  0x00000948       0x38 .\CortexM0\ARM_GCC_493\Debug\start_v11.a(GatePin.o)
 .debug_ranges  0x00000980      0x148 .\CortexM0\ARM_GCC_493\Debug\start_v11.a(Timer_LED.o)
 .debug_ranges  0x00000ac8       0x70 .\CortexM0\ARM_GCC_493\Debug\start_v11.a(Int_Timer_Led.o)
 .debug_ranges  0x00000b38       0x58 .\CortexM0\ARM_GCC_493\Debug\start_v11.a(UART_XB.o)
 .debug_ranges  0x00000b90       0x50 .\CortexM0\ARM_GCC_493\Debug\start_v11.a(UART_XB_SPI_UART.o)
 .debug_ranges  0x00000be0       0x78 .\CortexM0\ARM_GCC_493\Debug\start_v11.a(UART_XB_UART.o)
 .debug_ranges  0x00000c58       0x48 .\CortexM0\ARM_GCC_493\Debug\start_v11.a(SwSPI_Master.o)
 .debug_ranges  0x00000ca0       0x70 .\CortexM0\ARM_GCC_493\Debug\start_v11.a(GATE_INT.o)
 .debug_ranges  0x00000d10       0x38 .\CortexM0\ARM_GCC_493\Debug\start_v11.a(debug.o)
 .debug_ranges  0x00000d48       0x98 .\CortexM0\ARM_GCC_493\Debug\start_v11.a(ADC.o)
 .debug_ranges  0x00000de0       0x10 .\CortexM0\ARM_GCC_493\Debug\start_v11.a(ADC_INT.o)
 .debug_ranges  0x00000df0       0x38 .\CortexM0\ARM_GCC_493\Debug\start_v11.a(CE.o)
 .debug_ranges  0x00000e28       0x38 .\CortexM0\ARM_GCC_493\Debug\start_v11.a(RST.o)
 .debug_ranges  0x00000e60       0x38 .\CortexM0\ARM_GCC_493\Debug\start_v11.a(DC.o)
 .debug_ranges  0x00000e98       0x38 .\CortexM0\ARM_GCC_493\Debug\start_v11.a(LCD_BL.o)
 .debug_ranges  0x00000ed0      0x148 .\CortexM0\ARM_GCC_493\Debug\start_v11.a(TimerTestMode.o)
 .debug_ranges  0x00001018       0x70 .\CortexM0\ARM_GCC_493\Debug\start_v11.a(Int_timerTestMode.o)
 .debug_ranges  0x00001088       0x38 .\CortexM0\ARM_GCC_493\Debug\start_v11.a(Pin_testMode.o)
 .debug_ranges  0x000010c0       0x38 .\CortexM0\ARM_GCC_493\Debug\start_v11.a(SW_RunTestMode.o)
 .debug_ranges  0x000010f8       0x38 .\CortexM0\ARM_GCC_493\Debug\start_v11.a(LED_RED_PIN.o)
 .debug_ranges  0x00001130       0x38 .\CortexM0\ARM_GCC_493\Debug\start_v11.a(LED_GREEN_PIN.o)
 .debug_ranges  0x00001168      0x148 .\CortexM0\ARM_GCC_493\Debug\start_v11.a(Timer.o)
 .debug_ranges  0x000012b0       0x70 .\CortexM0\ARM_GCC_493\Debug\start_v11.a(isr_timer.o)
 .debug_ranges  0x00001320       0x38 .\CortexM0\ARM_GCC_493\Debug\start_v11.a(BtnUp.o)
 .debug_ranges  0x00001358       0x38 .\CortexM0\ARM_GCC_493\Debug\start_v11.a(BtnDown.o)
 .debug_ranges  0x00001390       0x70 .\CortexM0\ARM_GCC_493\Debug\start_v11.a(BUTT_DOWN_INT.o)
 .debug_ranges  0x00001400       0x70 .\CortexM0\ARM_GCC_493\Debug\start_v11.a(BUTT_UP_INT.o)
 .debug_ranges  0x00001470       0x10 .\CortexM0\ARM_GCC_493\Debug\start_v11.a(UART_XB_SPI_UART_INT.o)

.comment        0x00000000       0x70
 .comment       0x00000000       0x70 .\CortexM0\ARM_GCC_493\Debug\RTC_WDT.o
                                 0x71 (size before relaxing)
 .comment       0x00000000       0x71 .\CortexM0\ARM_GCC_493\Debug\display.o
 .comment       0x00000000       0x71 .\CortexM0\ARM_GCC_493\Debug\DefaultFonts.o
 .comment       0x00000000       0x71 .\CortexM0\ARM_GCC_493\Debug\Graphics.o
 .comment       0x00000000       0x71 .\CortexM0\ARM_GCC_493\Debug\LCD5110_Graph.o
 .comment       0x00000000       0x71 .\CortexM0\ARM_GCC_493\Debug\gate.o
 .comment       0x00000000       0x71 .\CortexM0\ARM_GCC_493\Debug\LED.o
 .comment       0x00000000       0x71 .\CortexM0\ARM_GCC_493\Debug\crc32.o
 .comment       0x00000000       0x71 .\CortexM0\ARM_GCC_493\Debug\svt.o
 .comment       0x00000000       0x71 .\CortexM0\ARM_GCC_493\Debug\ntp.o
 .comment       0x00000000       0x71 .\CortexM0\ARM_GCC_493\Debug\network.o
 .comment       0x00000000       0x71 .\CortexM0\ARM_GCC_493\Debug\batt.o
 .comment       0x00000000       0x71 .\CortexM0\ARM_GCC_493\Debug\testMode.o
 .comment       0x00000000       0x71 .\CortexM0\ARM_GCC_493\Debug\taskAutomat.o
 .comment       0x00000000       0x71 .\CortexM0\ARM_GCC_493\Debug\Buttons.o
 .comment       0x00000000       0x71 .\CortexM0\ARM_GCC_493\Debug\main.o
 .comment       0x00000000       0x71 .\CortexM0\ARM_GCC_493\Debug\cymetadata.o
 .comment       0x00000000       0x71 .\CortexM0\ARM_GCC_493\Debug\Cm0Start.o
 .comment       0x00000000       0x71 .\CortexM0\ARM_GCC_493\Debug\start_v11.a(cyfitter_cfg.o)
 .comment       0x00000000       0x71 .\CortexM0\ARM_GCC_493\Debug\start_v11.a(CyLib.o)
 .comment       0x00000000       0x71 .\CortexM0\ARM_GCC_493\Debug\start_v11.a(CyLFClk.o)
 .comment       0x00000000       0x71 .\CortexM0\ARM_GCC_493\Debug\start_v11.a(RTC.o)
 .comment       0x00000000       0x71 .\CortexM0\ARM_GCC_493\Debug\start_v11.a(GatePin.o)
 .comment       0x00000000       0x71 .\CortexM0\ARM_GCC_493\Debug\start_v11.a(Timer_LED.o)
 .comment       0x00000000       0x71 .\CortexM0\ARM_GCC_493\Debug\start_v11.a(Int_Timer_Led.o)
 .comment       0x00000000       0x71 .\CortexM0\ARM_GCC_493\Debug\start_v11.a(UART_XB.o)
 .comment       0x00000000       0x71 .\CortexM0\ARM_GCC_493\Debug\start_v11.a(UART_XB_SPI_UART.o)
 .comment       0x00000000       0x71 .\CortexM0\ARM_GCC_493\Debug\start_v11.a(UART_XB_UART.o)
 .comment       0x00000000       0x71 .\CortexM0\ARM_GCC_493\Debug\start_v11.a(SwSPI_Master.o)
 .comment       0x00000000       0x71 .\CortexM0\ARM_GCC_493\Debug\start_v11.a(GATE_INT.o)
 .comment       0x00000000       0x71 .\CortexM0\ARM_GCC_493\Debug\start_v11.a(debug.o)
 .comment       0x00000000       0x71 .\CortexM0\ARM_GCC_493\Debug\start_v11.a(ADC.o)
 .comment       0x00000000       0x71 .\CortexM0\ARM_GCC_493\Debug\start_v11.a(ADC_INT.o)
 .comment       0x00000000       0x71 .\CortexM0\ARM_GCC_493\Debug\start_v11.a(CE.o)
 .comment       0x00000000       0x71 .\CortexM0\ARM_GCC_493\Debug\start_v11.a(RST.o)
 .comment       0x00000000       0x71 .\CortexM0\ARM_GCC_493\Debug\start_v11.a(DC.o)
 .comment       0x00000000       0x71 .\CortexM0\ARM_GCC_493\Debug\start_v11.a(LCD_BL.o)
 .comment       0x00000000       0x71 .\CortexM0\ARM_GCC_493\Debug\start_v11.a(TimerTestMode.o)
 .comment       0x00000000       0x71 .\CortexM0\ARM_GCC_493\Debug\start_v11.a(Int_timerTestMode.o)
 .comment       0x00000000       0x71 .\CortexM0\ARM_GCC_493\Debug\start_v11.a(Pin_testMode.o)
 .comment       0x00000000       0x71 .\CortexM0\ARM_GCC_493\Debug\start_v11.a(SW_RunTestMode.o)
 .comment       0x00000000       0x71 .\CortexM0\ARM_GCC_493\Debug\start_v11.a(LED_RED_PIN.o)
 .comment       0x00000000       0x71 .\CortexM0\ARM_GCC_493\Debug\start_v11.a(LED_GREEN_PIN.o)
 .comment       0x00000000       0x71 .\CortexM0\ARM_GCC_493\Debug\start_v11.a(Timer.o)
 .comment       0x00000000       0x71 .\CortexM0\ARM_GCC_493\Debug\start_v11.a(isr_timer.o)
 .comment       0x00000000       0x71 .\CortexM0\ARM_GCC_493\Debug\start_v11.a(BtnUp.o)
 .comment       0x00000000       0x71 .\CortexM0\ARM_GCC_493\Debug\start_v11.a(BtnDown.o)
 .comment       0x00000000       0x71 .\CortexM0\ARM_GCC_493\Debug\start_v11.a(BUTT_DOWN_INT.o)
 .comment       0x00000000       0x71 .\CortexM0\ARM_GCC_493\Debug\start_v11.a(BUTT_UP_INT.o)
 .comment       0x00000000       0x71 .\CortexM0\ARM_GCC_493\Debug\start_v11.a(UART_XB_SPI_UART_INT.o)

.debug_weaknames
 *(.debug_weaknames)

.debug_funcnames
 *(.debug_funcnames)

.debug_typenames
 *(.debug_typenames)

.debug_varnames
 *(.debug_varnames)

.note.gnu.arm.ident
 *(.note.gnu.arm.ident)

.ARM.attributes
                0x00000000       0x28
 *(.ARM.attributes)
 .ARM.attributes
                0x00000000       0x1e c:/program files (x86)/cypress/psoc creator/4.0/psoc creator/import/gnu/arm/4.9.3/bin/../lib/gcc/arm-none-eabi/4.9.3/armv6-m/crti.o
 .ARM.attributes
                0x0000001e       0x2c c:/program files (x86)/cypress/psoc creator/4.0/psoc creator/import/gnu/arm/4.9.3/bin/../lib/gcc/arm-none-eabi/4.9.3/armv6-m/crtbegin.o
 .ARM.attributes
                0x0000004a       0x1b c:/program files (x86)/cypress/psoc creator/4.0/psoc creator/import/gnu/arm/4.9.3/bin/../lib/gcc/arm-none-eabi/4.9.3/../../../../arm-none-eabi/lib/armv6-m/crt0.o
 .ARM.attributes
                0x00000065       0x31 .\CortexM0\ARM_GCC_493\Debug\RTC_WDT.o
 .ARM.attributes
                0x00000096       0x31 .\CortexM0\ARM_GCC_493\Debug\display.o
 .ARM.attributes
                0x000000c7       0x31 .\CortexM0\ARM_GCC_493\Debug\DefaultFonts.o
 .ARM.attributes
                0x000000f8       0x31 .\CortexM0\ARM_GCC_493\Debug\Graphics.o
 .ARM.attributes
                0x00000129       0x31 .\CortexM0\ARM_GCC_493\Debug\LCD5110_Graph.o
 .ARM.attributes
                0x0000015a       0x31 .\CortexM0\ARM_GCC_493\Debug\gate.o
 .ARM.attributes
                0x0000018b       0x31 .\CortexM0\ARM_GCC_493\Debug\LED.o
 .ARM.attributes
                0x000001bc       0x31 .\CortexM0\ARM_GCC_493\Debug\crc32.o
 .ARM.attributes
                0x000001ed       0x31 .\CortexM0\ARM_GCC_493\Debug\svt.o
 .ARM.attributes
                0x0000021e       0x31 .\CortexM0\ARM_GCC_493\Debug\ntp.o
 .ARM.attributes
                0x0000024f       0x31 .\CortexM0\ARM_GCC_493\Debug\network.o
 .ARM.attributes
                0x00000280       0x31 .\CortexM0\ARM_GCC_493\Debug\batt.o
 .ARM.attributes
                0x000002b1       0x31 .\CortexM0\ARM_GCC_493\Debug\testMode.o
 .ARM.attributes
                0x000002e2       0x31 .\CortexM0\ARM_GCC_493\Debug\taskAutomat.o
 .ARM.attributes
                0x00000313       0x31 .\CortexM0\ARM_GCC_493\Debug\Buttons.o
 .ARM.attributes
                0x00000344       0x31 .\CortexM0\ARM_GCC_493\Debug\main.o
 .ARM.attributes
                0x00000375       0x31 .\CortexM0\ARM_GCC_493\Debug\cymetadata.o
 .ARM.attributes
                0x000003a6       0x31 .\CortexM0\ARM_GCC_493\Debug\Cm0Start.o
 .ARM.attributes
                0x000003d7       0x31 .\CortexM0\ARM_GCC_493\Debug\start_v11.a(cyfitter_cfg.o)
 .ARM.attributes
                0x00000408       0x31 .\CortexM0\ARM_GCC_493\Debug\start_v11.a(CyLib.o)
 .ARM.attributes
                0x00000439       0x31 .\CortexM0\ARM_GCC_493\Debug\start_v11.a(CyLFClk.o)
 .ARM.attributes
                0x0000046a       0x31 .\CortexM0\ARM_GCC_493\Debug\start_v11.a(RTC.o)
 .ARM.attributes
                0x0000049b       0x31 .\CortexM0\ARM_GCC_493\Debug\start_v11.a(GatePin.o)
 .ARM.attributes
                0x000004cc       0x31 .\CortexM0\ARM_GCC_493\Debug\start_v11.a(Timer_LED.o)
 .ARM.attributes
                0x000004fd       0x31 .\CortexM0\ARM_GCC_493\Debug\start_v11.a(Int_Timer_Led.o)
 .ARM.attributes
                0x0000052e       0x31 .\CortexM0\ARM_GCC_493\Debug\start_v11.a(UART_XB.o)
 .ARM.attributes
                0x0000055f       0x31 .\CortexM0\ARM_GCC_493\Debug\start_v11.a(UART_XB_SPI_UART.o)
 .ARM.attributes
                0x00000590       0x31 .\CortexM0\ARM_GCC_493\Debug\start_v11.a(UART_XB_UART.o)
 .ARM.attributes
                0x000005c1       0x31 .\CortexM0\ARM_GCC_493\Debug\start_v11.a(SwSPI_Master.o)
 .ARM.attributes
                0x000005f2       0x31 .\CortexM0\ARM_GCC_493\Debug\start_v11.a(GATE_INT.o)
 .ARM.attributes
                0x00000623       0x31 .\CortexM0\ARM_GCC_493\Debug\start_v11.a(debug.o)
 .ARM.attributes
                0x00000654       0x31 .\CortexM0\ARM_GCC_493\Debug\start_v11.a(ADC.o)
 .ARM.attributes
                0x00000685       0x31 .\CortexM0\ARM_GCC_493\Debug\start_v11.a(ADC_INT.o)
 .ARM.attributes
                0x000006b6       0x31 .\CortexM0\ARM_GCC_493\Debug\start_v11.a(CE.o)
 .ARM.attributes
                0x000006e7       0x31 .\CortexM0\ARM_GCC_493\Debug\start_v11.a(RST.o)
 .ARM.attributes
                0x00000718       0x31 .\CortexM0\ARM_GCC_493\Debug\start_v11.a(DC.o)
 .ARM.attributes
                0x00000749       0x31 .\CortexM0\ARM_GCC_493\Debug\start_v11.a(LCD_BL.o)
 .ARM.attributes
                0x0000077a       0x31 .\CortexM0\ARM_GCC_493\Debug\start_v11.a(TimerTestMode.o)
 .ARM.attributes
                0x000007ab       0x31 .\CortexM0\ARM_GCC_493\Debug\start_v11.a(Int_timerTestMode.o)
 .ARM.attributes
                0x000007dc       0x31 .\CortexM0\ARM_GCC_493\Debug\start_v11.a(Pin_testMode.o)
 .ARM.attributes
                0x0000080d       0x31 .\CortexM0\ARM_GCC_493\Debug\start_v11.a(SW_RunTestMode.o)
 .ARM.attributes
                0x0000083e       0x31 .\CortexM0\ARM_GCC_493\Debug\start_v11.a(LED_RED_PIN.o)
 .ARM.attributes
                0x0000086f       0x31 .\CortexM0\ARM_GCC_493\Debug\start_v11.a(LED_GREEN_PIN.o)
 .ARM.attributes
                0x000008a0       0x31 .\CortexM0\ARM_GCC_493\Debug\start_v11.a(Timer.o)
 .ARM.attributes
                0x000008d1       0x31 .\CortexM0\ARM_GCC_493\Debug\start_v11.a(isr_timer.o)
 .ARM.attributes
                0x00000902       0x31 .\CortexM0\ARM_GCC_493\Debug\start_v11.a(BtnUp.o)
 .ARM.attributes
                0x00000933       0x31 .\CortexM0\ARM_GCC_493\Debug\start_v11.a(BtnDown.o)
 .ARM.attributes
                0x00000964       0x31 .\CortexM0\ARM_GCC_493\Debug\start_v11.a(BUTT_DOWN_INT.o)
 .ARM.attributes
                0x00000995       0x31 .\CortexM0\ARM_GCC_493\Debug\start_v11.a(BUTT_UP_INT.o)
 .ARM.attributes
                0x000009c6       0x21 .\CortexM0\ARM_GCC_493\Debug\start_v11.a(CyBootAsmGnu.o)
 .ARM.attributes
                0x000009e7       0x31 .\CortexM0\ARM_GCC_493\Debug\start_v11.a(UART_XB_SPI_UART_INT.o)
 .ARM.attributes
                0x00000a18       0x1e c:/program files (x86)/cypress/psoc creator/4.0/psoc creator/import/gnu/arm/4.9.3/bin/../lib/gcc/arm-none-eabi/4.9.3/armv6-m\libgcc.a(_udivsi3.o)
 .ARM.attributes
                0x00000a36       0x1e c:/program files (x86)/cypress/psoc creator/4.0/psoc creator/import/gnu/arm/4.9.3/bin/../lib/gcc/arm-none-eabi/4.9.3/armv6-m\libgcc.a(_divsi3.o)
 .ARM.attributes
                0x00000a54       0x1e c:/program files (x86)/cypress/psoc creator/4.0/psoc creator/import/gnu/arm/4.9.3/bin/../lib/gcc/arm-none-eabi/4.9.3/armv6-m\libgcc.a(_dvmd_tls.o)
 .ARM.attributes
                0x00000a72       0x1e c:/program files (x86)/cypress/psoc creator/4.0/psoc creator/import/gnu/arm/4.9.3/bin/../lib/gcc/arm-none-eabi/4.9.3/armv6-m\libgcc.a(_arm_cmpdf2.o)
 .ARM.attributes
                0x00000a90       0x1e c:/program files (x86)/cypress/psoc creator/4.0/psoc creator/import/gnu/arm/4.9.3/bin/../lib/gcc/arm-none-eabi/4.9.3/armv6-m\libgcc.a(_arm_cmpsf2.o)
 .ARM.attributes
                0x00000aae       0x1e c:/program files (x86)/cypress/psoc creator/4.0/psoc creator/import/gnu/arm/4.9.3/bin/../lib/gcc/arm-none-eabi/4.9.3/armv6-m\libgcc.a(_aeabi_ldivmod.o)
 .ARM.attributes
                0x00000acc       0x1e c:/program files (x86)/cypress/psoc creator/4.0/psoc creator/import/gnu/arm/4.9.3/bin/../lib/gcc/arm-none-eabi/4.9.3/armv6-m\libgcc.a(_aeabi_uldivmod.o)
 .ARM.attributes
                0x00000aea       0x2c c:/program files (x86)/cypress/psoc creator/4.0/psoc creator/import/gnu/arm/4.9.3/bin/../lib/gcc/arm-none-eabi/4.9.3/armv6-m\libgcc.a(_muldi3.o)
 .ARM.attributes
                0x00000b16       0x2c c:/program files (x86)/cypress/psoc creator/4.0/psoc creator/import/gnu/arm/4.9.3/bin/../lib/gcc/arm-none-eabi/4.9.3/armv6-m\libgcc.a(bpabi.o)
 .ARM.attributes
                0x00000b42       0x2c c:/program files (x86)/cypress/psoc creator/4.0/psoc creator/import/gnu/arm/4.9.3/bin/../lib/gcc/arm-none-eabi/4.9.3/armv6-m\libgcc.a(divsf3.o)
 .ARM.attributes
                0x00000b6e       0x2c c:/program files (x86)/cypress/psoc creator/4.0/psoc creator/import/gnu/arm/4.9.3/bin/../lib/gcc/arm-none-eabi/4.9.3/armv6-m\libgcc.a(eqsf2.o)
 .ARM.attributes
                0x00000b9a       0x2c c:/program files (x86)/cypress/psoc creator/4.0/psoc creator/import/gnu/arm/4.9.3/bin/../lib/gcc/arm-none-eabi/4.9.3/armv6-m\libgcc.a(gesf2.o)
 .ARM.attributes
                0x00000bc6       0x2c c:/program files (x86)/cypress/psoc creator/4.0/psoc creator/import/gnu/arm/4.9.3/bin/../lib/gcc/arm-none-eabi/4.9.3/armv6-m\libgcc.a(lesf2.o)
 .ARM.attributes
                0x00000bf2       0x2c c:/program files (x86)/cypress/psoc creator/4.0/psoc creator/import/gnu/arm/4.9.3/bin/../lib/gcc/arm-none-eabi/4.9.3/armv6-m\libgcc.a(mulsf3.o)
 .ARM.attributes
                0x00000c1e       0x2c c:/program files (x86)/cypress/psoc creator/4.0/psoc creator/import/gnu/arm/4.9.3/bin/../lib/gcc/arm-none-eabi/4.9.3/armv6-m\libgcc.a(floatsisf.o)
 .ARM.attributes
                0x00000c4a       0x2c c:/program files (x86)/cypress/psoc creator/4.0/psoc creator/import/gnu/arm/4.9.3/bin/../lib/gcc/arm-none-eabi/4.9.3/armv6-m\libgcc.a(adddf3.o)
 .ARM.attributes
                0x00000c76       0x2c c:/program files (x86)/cypress/psoc creator/4.0/psoc creator/import/gnu/arm/4.9.3/bin/../lib/gcc/arm-none-eabi/4.9.3/armv6-m\libgcc.a(divdf3.o)
 .ARM.attributes
                0x00000ca2       0x2c c:/program files (x86)/cypress/psoc creator/4.0/psoc creator/import/gnu/arm/4.9.3/bin/../lib/gcc/arm-none-eabi/4.9.3/armv6-m\libgcc.a(eqdf2.o)
 .ARM.attributes
                0x00000cce       0x2c c:/program files (x86)/cypress/psoc creator/4.0/psoc creator/import/gnu/arm/4.9.3/bin/../lib/gcc/arm-none-eabi/4.9.3/armv6-m\libgcc.a(gedf2.o)
 .ARM.attributes
                0x00000cfa       0x2c c:/program files (x86)/cypress/psoc creator/4.0/psoc creator/import/gnu/arm/4.9.3/bin/../lib/gcc/arm-none-eabi/4.9.3/armv6-m\libgcc.a(ledf2.o)
 .ARM.attributes
                0x00000d26       0x2c c:/program files (x86)/cypress/psoc creator/4.0/psoc creator/import/gnu/arm/4.9.3/bin/../lib/gcc/arm-none-eabi/4.9.3/armv6-m\libgcc.a(subdf3.o)
 .ARM.attributes
                0x00000d52       0x2c c:/program files (x86)/cypress/psoc creator/4.0/psoc creator/import/gnu/arm/4.9.3/bin/../lib/gcc/arm-none-eabi/4.9.3/armv6-m\libgcc.a(fixdfsi.o)
 .ARM.attributes
                0x00000d7e       0x2c c:/program files (x86)/cypress/psoc creator/4.0/psoc creator/import/gnu/arm/4.9.3/bin/../lib/gcc/arm-none-eabi/4.9.3/armv6-m\libgcc.a(floatsidf.o)
 .ARM.attributes
                0x00000daa       0x2c c:/program files (x86)/cypress/psoc creator/4.0/psoc creator/import/gnu/arm/4.9.3/bin/../lib/gcc/arm-none-eabi/4.9.3/armv6-m\libgcc.a(extendsfdf2.o)
 .ARM.attributes
                0x00000dd6       0x1e c:/program files (x86)/cypress/psoc creator/4.0/psoc creator/import/gnu/arm/4.9.3/bin/../lib/gcc/arm-none-eabi/4.9.3/armv6-m\libgcc.a(_clzsi2.o)
 .ARM.attributes
                0x00000df4       0x2c c:/program files (x86)/cypress/psoc creator/4.0/psoc creator/import/gnu/arm/4.9.3/bin/../lib/gcc/arm-none-eabi/4.9.3/armv6-m\libgcc.a(_divdi3.o)
 .ARM.attributes
                0x00000e20       0x2c c:/program files (x86)/cypress/psoc creator/4.0/psoc creator/import/gnu/arm/4.9.3/bin/../lib/gcc/arm-none-eabi/4.9.3/armv6-m\libgcc.a(_udivdi3.o)
 .ARM.attributes
                0x00000e4c       0x1e c:/program files (x86)/cypress/psoc creator/4.0/psoc creator/import/gnu/arm/4.9.3/bin/../lib/gcc/arm-none-eabi/4.9.3/armv6-m\libgcc.a(_clzdi2.o)
 .ARM.attributes
                0x00000e6a       0x2c c:/program files (x86)/cypress/psoc creator/4.0/psoc creator/import/gnu/arm/4.9.3/bin/../lib/gcc/arm-none-eabi/4.9.3/../../../../arm-none-eabi/lib/armv6-m\libg.a(lib_a-errno.o)
 .ARM.attributes
                0x00000e96       0x2c c:/program files (x86)/cypress/psoc creator/4.0/psoc creator/import/gnu/arm/4.9.3/bin/../lib/gcc/arm-none-eabi/4.9.3/../../../../arm-none-eabi/lib/armv6-m\libg.a(lib_a-exit.o)
 .ARM.attributes
                0x00000ec2       0x2c c:/program files (x86)/cypress/psoc creator/4.0/psoc creator/import/gnu/arm/4.9.3/bin/../lib/gcc/arm-none-eabi/4.9.3/../../../../arm-none-eabi/lib/armv6-m\libg.a(lib_a-impure.o)
 .ARM.attributes
                0x00000eee       0x2c c:/program files (x86)/cypress/psoc creator/4.0/psoc creator/import/gnu/arm/4.9.3/bin/../lib/gcc/arm-none-eabi/4.9.3/../../../../arm-none-eabi/lib/armv6-m\libg.a(lib_a-init.o)
 .ARM.attributes
                0x00000f1a       0x2c c:/program files (x86)/cypress/psoc creator/4.0/psoc creator/import/gnu/arm/4.9.3/bin/../lib/gcc/arm-none-eabi/4.9.3/../../../../arm-none-eabi/lib/armv6-m\libg.a(lib_a-memcpy.o)
 .ARM.attributes
                0x00000f46       0x2c c:/program files (x86)/cypress/psoc creator/4.0/psoc creator/import/gnu/arm/4.9.3/bin/../lib/gcc/arm-none-eabi/4.9.3/../../../../arm-none-eabi/lib/armv6-m\libg.a(lib_a-memset.o)
 .ARM.attributes
                0x00000f72       0x2c c:/program files (x86)/cypress/psoc creator/4.0/psoc creator/import/gnu/arm/4.9.3/bin/../lib/gcc/arm-none-eabi/4.9.3/../../../../arm-none-eabi/lib/armv6-m\libg.a(lib_a-rand.o)
 .ARM.attributes
                0x00000f9e       0x2c c:/program files (x86)/cypress/psoc creator/4.0/psoc creator/import/gnu/arm/4.9.3/bin/../lib/gcc/arm-none-eabi/4.9.3/../../../../arm-none-eabi/lib/armv6-m\libg.a(lib_a-sprintf.o)
 .ARM.attributes
                0x00000fca       0x2c c:/program files (x86)/cypress/psoc creator/4.0/psoc creator/import/gnu/arm/4.9.3/bin/../lib/gcc/arm-none-eabi/4.9.3/../../../../arm-none-eabi/lib/armv6-m\libg.a(lib_a-strcat.o)
 .ARM.attributes
                0x00000ff6       0x2c c:/program files (x86)/cypress/psoc creator/4.0/psoc creator/import/gnu/arm/4.9.3/bin/../lib/gcc/arm-none-eabi/4.9.3/../../../../arm-none-eabi/lib/armv6-m\libg.a(lib_a-strcpy.o)
 .ARM.attributes
                0x00001022       0x2c c:/program files (x86)/cypress/psoc creator/4.0/psoc creator/import/gnu/arm/4.9.3/bin/../lib/gcc/arm-none-eabi/4.9.3/../../../../arm-none-eabi/lib/armv6-m\libg.a(lib_a-strlen.o)
 .ARM.attributes
                0x0000104e       0x2c c:/program files (x86)/cypress/psoc creator/4.0/psoc creator/import/gnu/arm/4.9.3/bin/../lib/gcc/arm-none-eabi/4.9.3/../../../../arm-none-eabi/lib/armv6-m\libg.a(lib_a-strncat.o)
 .ARM.attributes
                0x0000107a       0x2c c:/program files (x86)/cypress/psoc creator/4.0/psoc creator/import/gnu/arm/4.9.3/bin/../lib/gcc/arm-none-eabi/4.9.3/../../../../arm-none-eabi/lib/armv6-m\libg.a(lib_a-strncpy.o)
 .ARM.attributes
                0x000010a6       0x2c c:/program files (x86)/cypress/psoc creator/4.0/psoc creator/import/gnu/arm/4.9.3/bin/../lib/gcc/arm-none-eabi/4.9.3/../../../../arm-none-eabi/lib/armv6-m\libg.a(lib_a-svfprintf.o)
 .ARM.attributes
                0x000010d2       0x2c c:/program files (x86)/cypress/psoc creator/4.0/psoc creator/import/gnu/arm/4.9.3/bin/../lib/gcc/arm-none-eabi/4.9.3/../../../../arm-none-eabi/lib/armv6-m\libg.a(lib_a-__call_atexit.o)
 .ARM.attributes
                0x000010fe       0x2c c:/program files (x86)/cypress/psoc creator/4.0/psoc creator/import/gnu/arm/4.9.3/bin/../lib/gcc/arm-none-eabi/4.9.3/../../../../arm-none-eabi/lib/armv6-m\libg.a(lib_a-atexit.o)
 .ARM.attributes
                0x0000112a       0x2c c:/program files (x86)/cypress/psoc creator/4.0/psoc creator/import/gnu/arm/4.9.3/bin/../lib/gcc/arm-none-eabi/4.9.3/../../../../arm-none-eabi/lib/armv6-m\libg.a(lib_a-dtoa.o)
 .ARM.attributes
                0x00001156       0x2c c:/program files (x86)/cypress/psoc creator/4.0/psoc creator/import/gnu/arm/4.9.3/bin/../lib/gcc/arm-none-eabi/4.9.3/../../../../arm-none-eabi/lib/armv6-m\libg.a(lib_a-fini.o)
 .ARM.attributes
                0x00001182       0x2c c:/program files (x86)/cypress/psoc creator/4.0/psoc creator/import/gnu/arm/4.9.3/bin/../lib/gcc/arm-none-eabi/4.9.3/../../../../arm-none-eabi/lib/armv6-m\libg.a(lib_a-locale.o)
 .ARM.attributes
                0x000011ae       0x2c c:/program files (x86)/cypress/psoc creator/4.0/psoc creator/import/gnu/arm/4.9.3/bin/../lib/gcc/arm-none-eabi/4.9.3/../../../../arm-none-eabi/lib/armv6-m\libg.a(lib_a-mallocr.o)
 .ARM.attributes
                0x000011da       0x2c c:/program files (x86)/cypress/psoc creator/4.0/psoc creator/import/gnu/arm/4.9.3/bin/../lib/gcc/arm-none-eabi/4.9.3/../../../../arm-none-eabi/lib/armv6-m\libg.a(lib_a-memchr.o)
 .ARM.attributes
                0x00001206       0x2c c:/program files (x86)/cypress/psoc creator/4.0/psoc creator/import/gnu/arm/4.9.3/bin/../lib/gcc/arm-none-eabi/4.9.3/../../../../arm-none-eabi/lib/armv6-m\libg.a(lib_a-mlock.o)
 .ARM.attributes
                0x00001232       0x2c c:/program files (x86)/cypress/psoc creator/4.0/psoc creator/import/gnu/arm/4.9.3/bin/../lib/gcc/arm-none-eabi/4.9.3/../../../../arm-none-eabi/lib/armv6-m\libg.a(lib_a-mprec.o)
 .ARM.attributes
                0x0000125e       0x2c c:/program files (x86)/cypress/psoc creator/4.0/psoc creator/import/gnu/arm/4.9.3/bin/../lib/gcc/arm-none-eabi/4.9.3/../../../../arm-none-eabi/lib/armv6-m\libg.a(lib_a-s_fpclassify.o)
 .ARM.attributes
                0x0000128a       0x2c c:/program files (x86)/cypress/psoc creator/4.0/psoc creator/import/gnu/arm/4.9.3/bin/../lib/gcc/arm-none-eabi/4.9.3/../../../../arm-none-eabi/lib/armv6-m\libg.a(lib_a-sbrkr.o)
 .ARM.attributes
                0x000012b6       0x1b c:/program files (x86)/cypress/psoc creator/4.0/psoc creator/import/gnu/arm/4.9.3/bin/../lib/gcc/arm-none-eabi/4.9.3/../../../../arm-none-eabi/lib/armv6-m\libg.a(lib_a-strcmp.o)
 .ARM.attributes
                0x000012d1       0x2c c:/program files (x86)/cypress/psoc creator/4.0/psoc creator/import/gnu/arm/4.9.3/bin/../lib/gcc/arm-none-eabi/4.9.3/../../../../arm-none-eabi/lib/armv6-m\libg.a(lib_a-svfiprintf.o)
 .ARM.attributes
                0x000012fd       0x2c c:/program files (x86)/cypress/psoc creator/4.0/psoc creator/import/gnu/arm/4.9.3/bin/../lib/gcc/arm-none-eabi/4.9.3/../../../../arm-none-eabi/lib/armv6-m\libg.a(lib_a-__atexit.o)
 .ARM.attributes
                0x00001329       0x2c c:/program files (x86)/cypress/psoc creator/4.0/psoc creator/import/gnu/arm/4.9.3/bin/../lib/gcc/arm-none-eabi/4.9.3/../../../../arm-none-eabi/lib/armv6-m\libg.a(lib_a-callocr.o)
 .ARM.attributes
                0x00001355       0x2c c:/program files (x86)/cypress/psoc creator/4.0/psoc creator/import/gnu/arm/4.9.3/bin/../lib/gcc/arm-none-eabi/4.9.3/../../../../arm-none-eabi/lib/armv6-m\libg.a(lib_a-freer.o)
 .ARM.attributes
                0x00001381       0x2c c:/program files (x86)/cypress/psoc creator/4.0/psoc creator/import/gnu/arm/4.9.3/bin/../lib/gcc/arm-none-eabi/4.9.3/../../../../arm-none-eabi/lib/armv6-m\libg.a(lib_a-memmove.o)
 .ARM.attributes
                0x000013ad       0x2c c:/program files (x86)/cypress/psoc creator/4.0/psoc creator/import/gnu/arm/4.9.3/bin/../lib/gcc/arm-none-eabi/4.9.3/../../../../arm-none-eabi/lib/armv6-m\libg.a(lib_a-reallocr.o)
 .ARM.attributes
                0x000013d9       0x2c c:/program files (x86)/cypress/psoc creator/4.0/psoc creator/import/gnu/arm/4.9.3/bin/../lib/gcc/arm-none-eabi/4.9.3/../../../../arm-none-eabi/lib/armv6-m\libg.a(lib_a-reent.o)
 .ARM.attributes
                0x00001405       0x2c c:/program files (x86)/cypress/psoc creator/4.0/psoc creator/import/gnu/arm/4.9.3/bin/../lib/gcc/arm-none-eabi/4.9.3/armv6-m\libgcc.a(muldf3.o)
 .ARM.attributes
                0x00001431       0x2c c:/program files (x86)/cypress/psoc creator/4.0/psoc creator/import/gnu/arm/4.9.3/bin/../lib/gcc/arm-none-eabi/4.9.3/armv6-m\libgcc.a(floatunsidf.o)
 .ARM.attributes
                0x0000145d       0x2c c:/program files (x86)/cypress/psoc creator/4.0/psoc creator/import/gnu/arm/4.9.3/bin/../lib/gcc/arm-none-eabi/4.9.3/armv6-m/crtend.o
 .ARM.attributes
                0x00001489       0x1e c:/program files (x86)/cypress/psoc creator/4.0/psoc creator/import/gnu/arm/4.9.3/bin/../lib/gcc/arm-none-eabi/4.9.3/armv6-m/crtn.o

/DISCARD/
 *(.note.GNU-stack)
OUTPUT(.\CortexM0\ARM_GCC_493\Debug\start_v11.elf elf32-littlearm)
