ARM GAS  C:\Users\Petro\AppData\Local\Temp\ccFV9Jax.s 			page 1


   1              		.cpu cortex-m0
   2              		.fpu softvfp
   3              		.eabi_attribute 20, 1
   4              		.eabi_attribute 21, 1
   5              		.eabi_attribute 23, 3
   6              		.eabi_attribute 24, 1
   7              		.eabi_attribute 25, 1
   8              		.eabi_attribute 26, 1
   9              		.eabi_attribute 30, 6
  10              		.eabi_attribute 34, 0
  11              		.eabi_attribute 18, 4
  12              		.code	16
  13              		.file	"taskAutomat.c"
  14              		.text
  15              	.Ltext0:
  16              		.cfi_sections	.debug_frame
  17              		.comm	currentState,1,1
  18              		.bss
  19              		.align	2
  20              	result:
  21 0000 00000000 		.space	4
  22              		.align	1
  23              	writeFlag:
  24 0004 0000     		.space	2
  25              		.comm	flag,5,4
  26 0006 0000     		.align	2
  27              	SoftTimer:
  28 0008 00000000 		.space	20
  28      00000000 
  28      00000000 
  28      00000000 
  28      00000000 
  29              		.section	.text.TIMER_HANDLER,"ax",%progbits
  30              		.align	2
  31              		.global	TIMER_HANDLER
  32              		.code	16
  33              		.thumb_func
  34              		.type	TIMER_HANDLER, %function
  35              	TIMER_HANDLER:
  36              	.LFB63:
  37              		.file 1 "..\\..\\..\\..\\dev\\FW\\common\\lib\\lib_TaskTimer\\taskAutomat.c"
   1:..\..\..\..\dev\FW\common\lib\lib_TaskTimer/taskAutomat.c **** #include <lib_TaskTimer\taskAutomat.h>
   2:..\..\..\..\dev\FW\common\lib\lib_TaskTimer/taskAutomat.c **** #include "lib_Network\network.h"
   3:..\..\..\..\dev\FW\common\lib\lib_TaskTimer/taskAutomat.c **** #include "lib_Display\display.h"
   4:..\..\..\..\dev\FW\common\lib\lib_TaskTimer/taskAutomat.c **** #include "lib_Batt\batt.h"
   5:..\..\..\..\dev\FW\common\lib\lib_TaskTimer/taskAutomat.c **** #include "appGlobal.h"
   6:..\..\..\..\dev\FW\common\lib\lib_TaskTimer/taskAutomat.c **** #ifdef FINISH_MODULE
   7:..\..\..\..\dev\FW\common\lib\lib_TaskTimer/taskAutomat.c **** #include <SDinsert.h>
   8:..\..\..\..\dev\FW\common\lib\lib_TaskTimer/taskAutomat.c **** #include "lib_DB\logResult.h"
   9:..\..\..\..\dev\FW\common\lib\lib_TaskTimer/taskAutomat.c **** #include "lib_BLE\bluetooth.h"
  10:..\..\..\..\dev\FW\common\lib\lib_TaskTimer/taskAutomat.c **** #include "lib_DS1307\DS1307.h"
  11:..\..\..\..\dev\FW\common\lib\lib_TaskTimer/taskAutomat.c **** #endif
  12:..\..\..\..\dev\FW\common\lib\lib_TaskTimer/taskAutomat.c **** 
  13:..\..\..\..\dev\FW\common\lib\lib_TaskTimer/taskAutomat.c **** #define MAX_NUM_OF_TIMERS   5
  14:..\..\..\..\dev\FW\common\lib\lib_TaskTimer/taskAutomat.c **** 
  15:..\..\..\..\dev\FW\common\lib\lib_TaskTimer/taskAutomat.c **** #define WRITE_ERROR     1
  16:..\..\..\..\dev\FW\common\lib\lib_TaskTimer/taskAutomat.c **** #define WRITE_NO_ERROR  0
ARM GAS  C:\Users\Petro\AppData\Local\Temp\ccFV9Jax.s 			page 2


  17:..\..\..\..\dev\FW\common\lib\lib_TaskTimer/taskAutomat.c **** static uint16_t writeFlag;
  18:..\..\..\..\dev\FW\common\lib\lib_TaskTimer/taskAutomat.c **** 
  19:..\..\..\..\dev\FW\common\lib\lib_TaskTimer/taskAutomat.c **** uint8_t flag[MAX_NUM_OF_TIMERS];
  20:..\..\..\..\dev\FW\common\lib\lib_TaskTimer/taskAutomat.c **** 
  21:..\..\..\..\dev\FW\common\lib\lib_TaskTimer/taskAutomat.c **** volatile static struct
  22:..\..\..\..\dev\FW\common\lib\lib_TaskTimer/taskAutomat.c **** {
  23:..\..\..\..\dev\FW\common\lib\lib_TaskTimer/taskAutomat.c ****     uint8_t Number;
  24:..\..\..\..\dev\FW\common\lib\lib_TaskTimer/taskAutomat.c ****     uint16_t Time;
  25:..\..\..\..\dev\FW\common\lib\lib_TaskTimer/taskAutomat.c **** }SoftTimer[MAX_NUM_OF_TIMERS];
  26:..\..\..\..\dev\FW\common\lib\lib_TaskTimer/taskAutomat.c **** 
  27:..\..\..\..\dev\FW\common\lib\lib_TaskTimer/taskAutomat.c **** void Action1(void);
  28:..\..\..\..\dev\FW\common\lib\lib_TaskTimer/taskAutomat.c **** void Action2(void);
  29:..\..\..\..\dev\FW\common\lib\lib_TaskTimer/taskAutomat.c **** void Action3(void);
  30:..\..\..\..\dev\FW\common\lib\lib_TaskTimer/taskAutomat.c **** void Action4(void);
  31:..\..\..\..\dev\FW\common\lib\lib_TaskTimer/taskAutomat.c **** void Action5(void);
  32:..\..\..\..\dev\FW\common\lib\lib_TaskTimer/taskAutomat.c **** 
  33:..\..\..\..\dev\FW\common\lib\lib_TaskTimer/taskAutomat.c **** CY_ISR(TIMER_HANDLER)
  34:..\..\..\..\dev\FW\common\lib\lib_TaskTimer/taskAutomat.c **** {
  38              		.loc 1 34 0
  39              		.cfi_startproc
  40 0000 80B5     		push	{r7, lr}
  41              		.cfi_def_cfa_offset 8
  42              		.cfi_offset 7, -8
  43              		.cfi_offset 14, -4
  44 0002 82B0     		sub	sp, sp, #8
  45              		.cfi_def_cfa_offset 16
  46 0004 00AF     		add	r7, sp, #0
  47              		.cfi_def_cfa_register 7
  35:..\..\..\..\dev\FW\common\lib\lib_TaskTimer/taskAutomat.c ****     int i;
  36:..\..\..\..\dev\FW\common\lib\lib_TaskTimer/taskAutomat.c ****     for(i=0; i<MAX_NUM_OF_TIMERS; i++)
  48              		.loc 1 36 0
  49 0006 0023     		mov	r3, #0
  50 0008 7B60     		str	r3, [r7, #4]
  51 000a 2FE0     		b	.L2
  52              	.L6:
  37:..\..\..\..\dev\FW\common\lib\lib_TaskTimer/taskAutomat.c ****     {
  38:..\..\..\..\dev\FW\common\lib\lib_TaskTimer/taskAutomat.c ****         if(SoftTimer[i].Number == 255)continue;     /*if timer empty, next timer*/
  53              		.loc 1 38 0
  54 000c 1D4B     		ldr	r3, .L7
  55 000e 7A68     		ldr	r2, [r7, #4]
  56 0010 9200     		lsl	r2, r2, #2
  57 0012 D35C     		ldrb	r3, [r2, r3]
  58 0014 DBB2     		uxtb	r3, r3
  59 0016 FF2B     		cmp	r3, #255
  60 0018 00D1     		bne	.L3
  61              		.loc 1 38 0 is_stmt 0 discriminator 1
  62 001a 24E0     		b	.L4
  63              	.L3:
  39:..\..\..\..\dev\FW\common\lib\lib_TaskTimer/taskAutomat.c ****         
  40:..\..\..\..\dev\FW\common\lib\lib_TaskTimer/taskAutomat.c ****         if(SoftTimer[i].Time > 0)
  64              		.loc 1 40 0 is_stmt 1
  65 001c 194A     		ldr	r2, .L7
  66 001e 7B68     		ldr	r3, [r7, #4]
  67 0020 9B00     		lsl	r3, r3, #2
  68 0022 D318     		add	r3, r2, r3
  69 0024 5B88     		ldrh	r3, [r3, #2]
  70 0026 9BB2     		uxth	r3, r3
ARM GAS  C:\Users\Petro\AppData\Local\Temp\ccFV9Jax.s 			page 3


  71 0028 002B     		cmp	r3, #0
  72 002a 0ED0     		beq	.L5
  41:..\..\..\..\dev\FW\common\lib\lib_TaskTimer/taskAutomat.c ****         {
  42:..\..\..\..\dev\FW\common\lib\lib_TaskTimer/taskAutomat.c ****             SoftTimer[i].Time --;
  73              		.loc 1 42 0
  74 002c 154A     		ldr	r2, .L7
  75 002e 7B68     		ldr	r3, [r7, #4]
  76 0030 9B00     		lsl	r3, r3, #2
  77 0032 D318     		add	r3, r2, r3
  78 0034 5B88     		ldrh	r3, [r3, #2]
  79 0036 9BB2     		uxth	r3, r3
  80 0038 013B     		sub	r3, r3, #1
  81 003a 99B2     		uxth	r1, r3
  82 003c 114A     		ldr	r2, .L7
  83 003e 7B68     		ldr	r3, [r7, #4]
  84 0040 9B00     		lsl	r3, r3, #2
  85 0042 D318     		add	r3, r2, r3
  86 0044 0A1C     		add	r2, r1, #0
  87 0046 5A80     		strh	r2, [r3, #2]
  88 0048 0DE0     		b	.L4
  89              	.L5:
  43:..\..\..\..\dev\FW\common\lib\lib_TaskTimer/taskAutomat.c ****         }
  44:..\..\..\..\dev\FW\common\lib\lib_TaskTimer/taskAutomat.c ****         else
  45:..\..\..\..\dev\FW\common\lib\lib_TaskTimer/taskAutomat.c ****         {
  46:..\..\..\..\dev\FW\common\lib\lib_TaskTimer/taskAutomat.c ****             /*set flag*/
  47:..\..\..\..\dev\FW\common\lib\lib_TaskTimer/taskAutomat.c ****             flag[SoftTimer[i].Number] = 1;
  90              		.loc 1 47 0
  91 004a 0E4B     		ldr	r3, .L7
  92 004c 7A68     		ldr	r2, [r7, #4]
  93 004e 9200     		lsl	r2, r2, #2
  94 0050 D35C     		ldrb	r3, [r2, r3]
  95 0052 DBB2     		uxtb	r3, r3
  96 0054 1A1C     		mov	r2, r3
  97 0056 0C4B     		ldr	r3, .L7+4
  98 0058 0121     		mov	r1, #1
  99 005a 9954     		strb	r1, [r3, r2]
  48:..\..\..\..\dev\FW\common\lib\lib_TaskTimer/taskAutomat.c ****             
  49:..\..\..\..\dev\FW\common\lib\lib_TaskTimer/taskAutomat.c ****             /*reset timer*/
  50:..\..\..\..\dev\FW\common\lib\lib_TaskTimer/taskAutomat.c ****             SoftTimer[i].Number = 255;
 100              		.loc 1 50 0
 101 005c 094B     		ldr	r3, .L7
 102 005e 7A68     		ldr	r2, [r7, #4]
 103 0060 9200     		lsl	r2, r2, #2
 104 0062 FF21     		mov	r1, #255
 105 0064 D154     		strb	r1, [r2, r3]
 106              	.L4:
  36:..\..\..\..\dev\FW\common\lib\lib_TaskTimer/taskAutomat.c ****     {
 107              		.loc 1 36 0 discriminator 2
 108 0066 7B68     		ldr	r3, [r7, #4]
 109 0068 0133     		add	r3, r3, #1
 110 006a 7B60     		str	r3, [r7, #4]
 111              	.L2:
  36:..\..\..\..\dev\FW\common\lib\lib_TaskTimer/taskAutomat.c ****     {
 112              		.loc 1 36 0 is_stmt 0 discriminator 1
 113 006c 7B68     		ldr	r3, [r7, #4]
 114 006e 042B     		cmp	r3, #4
 115 0070 CCDD     		ble	.L6
ARM GAS  C:\Users\Petro\AppData\Local\Temp\ccFV9Jax.s 			page 4


  51:..\..\..\..\dev\FW\common\lib\lib_TaskTimer/taskAutomat.c ****         }
  52:..\..\..\..\dev\FW\common\lib\lib_TaskTimer/taskAutomat.c ****     }
  53:..\..\..\..\dev\FW\common\lib\lib_TaskTimer/taskAutomat.c ****     isr_timer_ClearPending();
 116              		.loc 1 53 0 is_stmt 1
 117 0072 FFF7FEFF 		bl	isr_timer_ClearPending
  54:..\..\..\..\dev\FW\common\lib\lib_TaskTimer/taskAutomat.c ****     Timer_ClearInterrupt(Timer_INTR_MASK_CC_MATCH);
 118              		.loc 1 54 0
 119 0076 0220     		mov	r0, #2
 120 0078 FFF7FEFF 		bl	Timer_ClearInterrupt
  55:..\..\..\..\dev\FW\common\lib\lib_TaskTimer/taskAutomat.c **** }
 121              		.loc 1 55 0
 122 007c BD46     		mov	sp, r7
 123 007e 02B0     		add	sp, sp, #8
 124              		@ sp needed
 125 0080 80BD     		pop	{r7, pc}
 126              	.L8:
 127 0082 C046     		.align	2
 128              	.L7:
 129 0084 08000000 		.word	SoftTimer
 130 0088 00000000 		.word	flag
 131              		.cfi_endproc
 132              	.LFE63:
 133              		.size	TIMER_HANDLER, .-TIMER_HANDLER
 134              		.section	.text.TaskCheck,"ax",%progbits
 135              		.align	2
 136              		.global	TaskCheck
 137              		.code	16
 138              		.thumb_func
 139              		.type	TaskCheck, %function
 140              	TaskCheck:
 141              	.LFB64:
  56:..\..\..\..\dev\FW\common\lib\lib_TaskTimer/taskAutomat.c **** 
  57:..\..\..\..\dev\FW\common\lib\lib_TaskTimer/taskAutomat.c **** /*******************************************************************************
  58:..\..\..\..\dev\FW\common\lib\lib_TaskTimer/taskAutomat.c **** * Function Name: TaskCheck
  59:..\..\..\..\dev\FW\common\lib\lib_TaskTimer/taskAutomat.c **** ********************************************************************************
  60:..\..\..\..\dev\FW\common\lib\lib_TaskTimer/taskAutomat.c **** *
  61:..\..\..\..\dev\FW\common\lib\lib_TaskTimer/taskAutomat.c **** * Summary:
  62:..\..\..\..\dev\FW\common\lib\lib_TaskTimer/taskAutomat.c **** *   check flag machine
  63:..\..\..\..\dev\FW\common\lib\lib_TaskTimer/taskAutomat.c **** *
  64:..\..\..\..\dev\FW\common\lib\lib_TaskTimer/taskAutomat.c **** *******************************************************************************/
  65:..\..\..\..\dev\FW\common\lib\lib_TaskTimer/taskAutomat.c **** void TaskCheck(void)
  66:..\..\..\..\dev\FW\common\lib\lib_TaskTimer/taskAutomat.c **** {
 142              		.loc 1 66 0
 143              		.cfi_startproc
 144 0000 80B5     		push	{r7, lr}
 145              		.cfi_def_cfa_offset 8
 146              		.cfi_offset 7, -8
 147              		.cfi_offset 14, -4
 148 0002 00AF     		add	r7, sp, #0
 149              		.cfi_def_cfa_register 7
  67:..\..\..\..\dev\FW\common\lib\lib_TaskTimer/taskAutomat.c ****     if(flag[ACTION1] == 1)Action1();
 150              		.loc 1 67 0
 151 0004 0F4B     		ldr	r3, .L15
 152 0006 1B78     		ldrb	r3, [r3]
 153 0008 012B     		cmp	r3, #1
 154 000a 01D1     		bne	.L10
 155              		.loc 1 67 0 is_stmt 0 discriminator 1
ARM GAS  C:\Users\Petro\AppData\Local\Temp\ccFV9Jax.s 			page 5


 156 000c FFF7FEFF 		bl	Action1
 157              	.L10:
  68:..\..\..\..\dev\FW\common\lib\lib_TaskTimer/taskAutomat.c ****     if(flag[ACTION2] == 1)Action2();
 158              		.loc 1 68 0 is_stmt 1
 159 0010 0C4B     		ldr	r3, .L15
 160 0012 5B78     		ldrb	r3, [r3, #1]
 161 0014 012B     		cmp	r3, #1
 162 0016 01D1     		bne	.L11
 163              		.loc 1 68 0 is_stmt 0 discriminator 1
 164 0018 FFF7FEFF 		bl	Action2
 165              	.L11:
  69:..\..\..\..\dev\FW\common\lib\lib_TaskTimer/taskAutomat.c ****     if(flag[ACTION3] == 1)Action3();
 166              		.loc 1 69 0 is_stmt 1
 167 001c 094B     		ldr	r3, .L15
 168 001e 9B78     		ldrb	r3, [r3, #2]
 169 0020 012B     		cmp	r3, #1
 170 0022 01D1     		bne	.L12
 171              		.loc 1 69 0 is_stmt 0 discriminator 1
 172 0024 FFF7FEFF 		bl	Action3
 173              	.L12:
  70:..\..\..\..\dev\FW\common\lib\lib_TaskTimer/taskAutomat.c ****     if(flag[ACTION4] == 1)Action4();
 174              		.loc 1 70 0 is_stmt 1
 175 0028 064B     		ldr	r3, .L15
 176 002a DB78     		ldrb	r3, [r3, #3]
 177 002c 012B     		cmp	r3, #1
 178 002e 01D1     		bne	.L13
 179              		.loc 1 70 0 is_stmt 0 discriminator 1
 180 0030 FFF7FEFF 		bl	Action4
 181              	.L13:
  71:..\..\..\..\dev\FW\common\lib\lib_TaskTimer/taskAutomat.c ****     if(flag[ACTION5] == 1)Action5();
 182              		.loc 1 71 0 is_stmt 1
 183 0034 034B     		ldr	r3, .L15
 184 0036 1B79     		ldrb	r3, [r3, #4]
 185 0038 012B     		cmp	r3, #1
 186 003a 01D1     		bne	.L9
 187              		.loc 1 71 0 is_stmt 0 discriminator 1
 188 003c FFF7FEFF 		bl	Action5
 189              	.L9:
  72:..\..\..\..\dev\FW\common\lib\lib_TaskTimer/taskAutomat.c **** }
 190              		.loc 1 72 0 is_stmt 1
 191 0040 BD46     		mov	sp, r7
 192              		@ sp needed
 193 0042 80BD     		pop	{r7, pc}
 194              	.L16:
 195              		.align	2
 196              	.L15:
 197 0044 00000000 		.word	flag
 198              		.cfi_endproc
 199              	.LFE64:
 200              		.size	TaskCheck, .-TaskCheck
 201              		.section	.text.TaskTimerInit,"ax",%progbits
 202              		.align	2
 203              		.global	TaskTimerInit
 204              		.code	16
 205              		.thumb_func
 206              		.type	TaskTimerInit, %function
 207              	TaskTimerInit:
ARM GAS  C:\Users\Petro\AppData\Local\Temp\ccFV9Jax.s 			page 6


 208              	.LFB65:
  73:..\..\..\..\dev\FW\common\lib\lib_TaskTimer/taskAutomat.c **** 
  74:..\..\..\..\dev\FW\common\lib\lib_TaskTimer/taskAutomat.c **** /*******************************************************************************
  75:..\..\..\..\dev\FW\common\lib\lib_TaskTimer/taskAutomat.c **** * Function Name: TaskTimerInit
  76:..\..\..\..\dev\FW\common\lib\lib_TaskTimer/taskAutomat.c **** ********************************************************************************
  77:..\..\..\..\dev\FW\common\lib\lib_TaskTimer/taskAutomat.c **** *
  78:..\..\..\..\dev\FW\common\lib\lib_TaskTimer/taskAutomat.c **** * Summary:
  79:..\..\..\..\dev\FW\common\lib\lib_TaskTimer/taskAutomat.c **** *   init flag machine
  80:..\..\..\..\dev\FW\common\lib\lib_TaskTimer/taskAutomat.c **** *
  81:..\..\..\..\dev\FW\common\lib\lib_TaskTimer/taskAutomat.c **** *******************************************************************************/
  82:..\..\..\..\dev\FW\common\lib\lib_TaskTimer/taskAutomat.c **** void TaskTimerInit(void)
  83:..\..\..\..\dev\FW\common\lib\lib_TaskTimer/taskAutomat.c **** {
 209              		.loc 1 83 0
 210              		.cfi_startproc
 211 0000 80B5     		push	{r7, lr}
 212              		.cfi_def_cfa_offset 8
 213              		.cfi_offset 7, -8
 214              		.cfi_offset 14, -4
 215 0002 82B0     		sub	sp, sp, #8
 216              		.cfi_def_cfa_offset 16
 217 0004 00AF     		add	r7, sp, #0
 218              		.cfi_def_cfa_register 7
  84:..\..\..\..\dev\FW\common\lib\lib_TaskTimer/taskAutomat.c ****     int i;
  85:..\..\..\..\dev\FW\common\lib\lib_TaskTimer/taskAutomat.c ****     for(i=0; i<MAX_NUM_OF_TIMERS; i++)
 219              		.loc 1 85 0
 220 0006 0023     		mov	r3, #0
 221 0008 7B60     		str	r3, [r7, #4]
 222 000a 07E0     		b	.L18
 223              	.L19:
  86:..\..\..\..\dev\FW\common\lib\lib_TaskTimer/taskAutomat.c ****         SoftTimer[i].Number = 255;
 224              		.loc 1 86 0 discriminator 3
 225 000c 094B     		ldr	r3, .L20
 226 000e 7A68     		ldr	r2, [r7, #4]
 227 0010 9200     		lsl	r2, r2, #2
 228 0012 FF21     		mov	r1, #255
 229 0014 D154     		strb	r1, [r2, r3]
  85:..\..\..\..\dev\FW\common\lib\lib_TaskTimer/taskAutomat.c ****         SoftTimer[i].Number = 255;
 230              		.loc 1 85 0 discriminator 3
 231 0016 7B68     		ldr	r3, [r7, #4]
 232 0018 0133     		add	r3, r3, #1
 233 001a 7B60     		str	r3, [r7, #4]
 234              	.L18:
  85:..\..\..\..\dev\FW\common\lib\lib_TaskTimer/taskAutomat.c ****         SoftTimer[i].Number = 255;
 235              		.loc 1 85 0 is_stmt 0 discriminator 1
 236 001c 7B68     		ldr	r3, [r7, #4]
 237 001e 042B     		cmp	r3, #4
 238 0020 F4DD     		ble	.L19
  87:..\..\..\..\dev\FW\common\lib\lib_TaskTimer/taskAutomat.c ****     
  88:..\..\..\..\dev\FW\common\lib\lib_TaskTimer/taskAutomat.c ****     isr_timer_StartEx(TIMER_HANDLER);
 239              		.loc 1 88 0 is_stmt 1
 240 0022 054B     		ldr	r3, .L20+4
 241 0024 181C     		mov	r0, r3
 242 0026 FFF7FEFF 		bl	isr_timer_StartEx
  89:..\..\..\..\dev\FW\common\lib\lib_TaskTimer/taskAutomat.c ****     Timer_Start();  
 243              		.loc 1 89 0
 244 002a FFF7FEFF 		bl	Timer_Start
  90:..\..\..\..\dev\FW\common\lib\lib_TaskTimer/taskAutomat.c **** }
ARM GAS  C:\Users\Petro\AppData\Local\Temp\ccFV9Jax.s 			page 7


 245              		.loc 1 90 0
 246 002e BD46     		mov	sp, r7
 247 0030 02B0     		add	sp, sp, #8
 248              		@ sp needed
 249 0032 80BD     		pop	{r7, pc}
 250              	.L21:
 251              		.align	2
 252              	.L20:
 253 0034 08000000 		.word	SoftTimer
 254 0038 00000000 		.word	TIMER_HANDLER
 255              		.cfi_endproc
 256              	.LFE65:
 257              		.size	TaskTimerInit, .-TaskTimerInit
 258              		.section	.text.SetTaskTimer,"ax",%progbits
 259              		.align	2
 260              		.global	SetTaskTimer
 261              		.code	16
 262              		.thumb_func
 263              		.type	SetTaskTimer, %function
 264              	SetTaskTimer:
 265              	.LFB66:
  91:..\..\..\..\dev\FW\common\lib\lib_TaskTimer/taskAutomat.c **** 
  92:..\..\..\..\dev\FW\common\lib\lib_TaskTimer/taskAutomat.c **** /*******************************************************************************
  93:..\..\..\..\dev\FW\common\lib\lib_TaskTimer/taskAutomat.c **** * Function Name: SetTaskTimer
  94:..\..\..\..\dev\FW\common\lib\lib_TaskTimer/taskAutomat.c **** ********************************************************************************
  95:..\..\..\..\dev\FW\common\lib\lib_TaskTimer/taskAutomat.c **** *
  96:..\..\..\..\dev\FW\common\lib\lib_TaskTimer/taskAutomat.c **** * Summary:
  97:..\..\..\..\dev\FW\common\lib\lib_TaskTimer/taskAutomat.c **** *   set the time for the program timer
  98:..\..\..\..\dev\FW\common\lib\lib_TaskTimer/taskAutomat.c **** *
  99:..\..\..\..\dev\FW\common\lib\lib_TaskTimer/taskAutomat.c **** * Parameters:
 100:..\..\..\..\dev\FW\common\lib\lib_TaskTimer/taskAutomat.c **** *  newNumber - new number task
 101:..\..\..\..\dev\FW\common\lib\lib_TaskTimer/taskAutomat.c **** *  newTime - new time from task
 102:..\..\..\..\dev\FW\common\lib\lib_TaskTimer/taskAutomat.c **** *
 103:..\..\..\..\dev\FW\common\lib\lib_TaskTimer/taskAutomat.c **** *******************************************************************************/
 104:..\..\..\..\dev\FW\common\lib\lib_TaskTimer/taskAutomat.c **** void SetTaskTimer(uint8_t newNumber, uint16_t newTime)
 105:..\..\..\..\dev\FW\common\lib\lib_TaskTimer/taskAutomat.c **** {
 266              		.loc 1 105 0
 267              		.cfi_startproc
 268 0000 80B5     		push	{r7, lr}
 269              		.cfi_def_cfa_offset 8
 270              		.cfi_offset 7, -8
 271              		.cfi_offset 14, -4
 272 0002 84B0     		sub	sp, sp, #16
 273              		.cfi_def_cfa_offset 24
 274 0004 00AF     		add	r7, sp, #0
 275              		.cfi_def_cfa_register 7
 276 0006 021C     		mov	r2, r0
 277 0008 FB1D     		add	r3, r7, #7
 278 000a 1A70     		strb	r2, [r3]
 279 000c 3B1D     		add	r3, r7, #4
 280 000e 0A1C     		add	r2, r1, #0
 281 0010 1A80     		strh	r2, [r3]
 106:..\..\..\..\dev\FW\common\lib\lib_TaskTimer/taskAutomat.c ****     //CyGlobalIntDisable;
 107:..\..\..\..\dev\FW\common\lib\lib_TaskTimer/taskAutomat.c ****     int i;
 108:..\..\..\..\dev\FW\common\lib\lib_TaskTimer/taskAutomat.c ****     
 109:..\..\..\..\dev\FW\common\lib\lib_TaskTimer/taskAutomat.c ****     /*search existing timer*/
 110:..\..\..\..\dev\FW\common\lib\lib_TaskTimer/taskAutomat.c ****     for(i=0; i< MAX_NUM_OF_TIMERS; i++)
ARM GAS  C:\Users\Petro\AppData\Local\Temp\ccFV9Jax.s 			page 8


 282              		.loc 1 110 0
 283 0012 0023     		mov	r3, #0
 284 0014 FB60     		str	r3, [r7, #12]
 285 0016 13E0     		b	.L23
 286              	.L26:
 111:..\..\..\..\dev\FW\common\lib\lib_TaskTimer/taskAutomat.c ****     {
 112:..\..\..\..\dev\FW\common\lib\lib_TaskTimer/taskAutomat.c ****         if(SoftTimer[i].Number == newNumber)
 287              		.loc 1 112 0
 288 0018 1B4B     		ldr	r3, .L30
 289 001a FA68     		ldr	r2, [r7, #12]
 290 001c 9200     		lsl	r2, r2, #2
 291 001e D35C     		ldrb	r3, [r2, r3]
 292 0020 DBB2     		uxtb	r3, r3
 293 0022 FA1D     		add	r2, r7, #7
 294 0024 1278     		ldrb	r2, [r2]
 295 0026 9A42     		cmp	r2, r3
 296 0028 07D1     		bne	.L24
 113:..\..\..\..\dev\FW\common\lib\lib_TaskTimer/taskAutomat.c ****         {
 114:..\..\..\..\dev\FW\common\lib\lib_TaskTimer/taskAutomat.c ****             /*set new time*/
 115:..\..\..\..\dev\FW\common\lib\lib_TaskTimer/taskAutomat.c ****             SoftTimer[i].Time = newTime;
 297              		.loc 1 115 0
 298 002a 1749     		ldr	r1, .L30
 299 002c FB68     		ldr	r3, [r7, #12]
 300 002e 9B00     		lsl	r3, r3, #2
 301 0030 3A1D     		add	r2, r7, #4
 302 0032 CB18     		add	r3, r1, r3
 303 0034 1288     		ldrh	r2, [r2]
 304 0036 5A80     		strh	r2, [r3, #2]
 116:..\..\..\..\dev\FW\common\lib\lib_TaskTimer/taskAutomat.c ****             
 117:..\..\..\..\dev\FW\common\lib\lib_TaskTimer/taskAutomat.c ****             //CyGlobalIntEnable;
 118:..\..\..\..\dev\FW\common\lib\lib_TaskTimer/taskAutomat.c ****             return;
 305              		.loc 1 118 0
 306 0038 23E0     		b	.L22
 307              	.L24:
 110:..\..\..\..\dev\FW\common\lib\lib_TaskTimer/taskAutomat.c ****     {
 308              		.loc 1 110 0 discriminator 2
 309 003a FB68     		ldr	r3, [r7, #12]
 310 003c 0133     		add	r3, r3, #1
 311 003e FB60     		str	r3, [r7, #12]
 312              	.L23:
 110:..\..\..\..\dev\FW\common\lib\lib_TaskTimer/taskAutomat.c ****     {
 313              		.loc 1 110 0 is_stmt 0 discriminator 1
 314 0040 FB68     		ldr	r3, [r7, #12]
 315 0042 042B     		cmp	r3, #4
 316 0044 E8DD     		ble	.L26
 119:..\..\..\..\dev\FW\common\lib\lib_TaskTimer/taskAutomat.c ****         }
 120:..\..\..\..\dev\FW\common\lib\lib_TaskTimer/taskAutomat.c ****     }
 121:..\..\..\..\dev\FW\common\lib\lib_TaskTimer/taskAutomat.c ****     
 122:..\..\..\..\dev\FW\common\lib\lib_TaskTimer/taskAutomat.c ****     /*search new empty timer*/
 123:..\..\..\..\dev\FW\common\lib\lib_TaskTimer/taskAutomat.c ****     for(i=0; i< MAX_NUM_OF_TIMERS; i++)
 317              		.loc 1 123 0 is_stmt 1
 318 0046 0023     		mov	r3, #0
 319 0048 FB60     		str	r3, [r7, #12]
 320 004a 17E0     		b	.L27
 321              	.L29:
 124:..\..\..\..\dev\FW\common\lib\lib_TaskTimer/taskAutomat.c ****     {
 125:..\..\..\..\dev\FW\common\lib\lib_TaskTimer/taskAutomat.c ****         if(SoftTimer[i].Number == 255)
ARM GAS  C:\Users\Petro\AppData\Local\Temp\ccFV9Jax.s 			page 9


 322              		.loc 1 125 0
 323 004c 0E4B     		ldr	r3, .L30
 324 004e FA68     		ldr	r2, [r7, #12]
 325 0050 9200     		lsl	r2, r2, #2
 326 0052 D35C     		ldrb	r3, [r2, r3]
 327 0054 DBB2     		uxtb	r3, r3
 328 0056 FF2B     		cmp	r3, #255
 329 0058 0DD1     		bne	.L28
 126:..\..\..\..\dev\FW\common\lib\lib_TaskTimer/taskAutomat.c ****         {
 127:..\..\..\..\dev\FW\common\lib\lib_TaskTimer/taskAutomat.c ****             SoftTimer[i].Number = newNumber;
 330              		.loc 1 127 0
 331 005a 0B4B     		ldr	r3, .L30
 332 005c FA68     		ldr	r2, [r7, #12]
 333 005e 9200     		lsl	r2, r2, #2
 334 0060 F91D     		add	r1, r7, #7
 335 0062 0978     		ldrb	r1, [r1]
 336 0064 D154     		strb	r1, [r2, r3]
 128:..\..\..\..\dev\FW\common\lib\lib_TaskTimer/taskAutomat.c ****             SoftTimer[i].Time = newTime;
 337              		.loc 1 128 0
 338 0066 0849     		ldr	r1, .L30
 339 0068 FB68     		ldr	r3, [r7, #12]
 340 006a 9B00     		lsl	r3, r3, #2
 341 006c 3A1D     		add	r2, r7, #4
 342 006e CB18     		add	r3, r1, r3
 343 0070 1288     		ldrh	r2, [r2]
 344 0072 5A80     		strh	r2, [r3, #2]
 129:..\..\..\..\dev\FW\common\lib\lib_TaskTimer/taskAutomat.c ****             
 130:..\..\..\..\dev\FW\common\lib\lib_TaskTimer/taskAutomat.c ****             //CyGlobalIntEnable;
 131:..\..\..\..\dev\FW\common\lib\lib_TaskTimer/taskAutomat.c ****             return;
 345              		.loc 1 131 0
 346 0074 05E0     		b	.L22
 347              	.L28:
 123:..\..\..\..\dev\FW\common\lib\lib_TaskTimer/taskAutomat.c ****     {
 348              		.loc 1 123 0 discriminator 2
 349 0076 FB68     		ldr	r3, [r7, #12]
 350 0078 0133     		add	r3, r3, #1
 351 007a FB60     		str	r3, [r7, #12]
 352              	.L27:
 123:..\..\..\..\dev\FW\common\lib\lib_TaskTimer/taskAutomat.c ****     {
 353              		.loc 1 123 0 is_stmt 0 discriminator 1
 354 007c FB68     		ldr	r3, [r7, #12]
 355 007e 042B     		cmp	r3, #4
 356 0080 E4DD     		ble	.L29
 357              	.L22:
 132:..\..\..\..\dev\FW\common\lib\lib_TaskTimer/taskAutomat.c ****         }
 133:..\..\..\..\dev\FW\common\lib\lib_TaskTimer/taskAutomat.c ****     }
 134:..\..\..\..\dev\FW\common\lib\lib_TaskTimer/taskAutomat.c **** }
 358              		.loc 1 134 0 is_stmt 1
 359 0082 BD46     		mov	sp, r7
 360 0084 04B0     		add	sp, sp, #16
 361              		@ sp needed
 362 0086 80BD     		pop	{r7, pc}
 363              	.L31:
 364              		.align	2
 365              	.L30:
 366 0088 08000000 		.word	SoftTimer
 367              		.cfi_endproc
ARM GAS  C:\Users\Petro\AppData\Local\Temp\ccFV9Jax.s 			page 10


 368              	.LFE66:
 369              		.size	SetTaskTimer, .-SetTaskTimer
 370              		.section	.text.Action1,"ax",%progbits
 371              		.align	2
 372              		.global	Action1
 373              		.code	16
 374              		.thumb_func
 375              		.type	Action1, %function
 376              	Action1:
 377              	.LFB67:
 135:..\..\..\..\dev\FW\common\lib\lib_TaskTimer/taskAutomat.c **** 
 136:..\..\..\..\dev\FW\common\lib\lib_TaskTimer/taskAutomat.c **** 
 137:..\..\..\..\dev\FW\common\lib\lib_TaskTimer/taskAutomat.c **** #ifdef START_MODULE
 138:..\..\..\..\dev\FW\common\lib\lib_TaskTimer/taskAutomat.c **** void Action1(void)
 139:..\..\..\..\dev\FW\common\lib\lib_TaskTimer/taskAutomat.c **** {
 378              		.loc 1 139 0
 379              		.cfi_startproc
 380 0000 80B5     		push	{r7, lr}
 381              		.cfi_def_cfa_offset 8
 382              		.cfi_offset 7, -8
 383              		.cfi_offset 14, -4
 384 0002 00AF     		add	r7, sp, #0
 385              		.cfi_def_cfa_register 7
 140:..\..\..\..\dev\FW\common\lib\lib_TaskTimer/taskAutomat.c ****     flag[ACTION1] = 0;
 386              		.loc 1 140 0
 387 0004 064B     		ldr	r3, .L33
 388 0006 0022     		mov	r2, #0
 389 0008 1A70     		strb	r2, [r3]
 141:..\..\..\..\dev\FW\common\lib\lib_TaskTimer/taskAutomat.c ****     SendData();  
 390              		.loc 1 141 0
 391 000a FFF7FEFF 		bl	SendData
 142:..\..\..\..\dev\FW\common\lib\lib_TaskTimer/taskAutomat.c ****     SetTaskTimer(ACTION1,ACTION1_TIMEOUT);
 392              		.loc 1 142 0
 393 000e FA23     		mov	r3, #250
 394 0010 5B00     		lsl	r3, r3, #1
 395 0012 0020     		mov	r0, #0
 396 0014 191C     		mov	r1, r3
 397 0016 FFF7FEFF 		bl	SetTaskTimer
 143:..\..\..\..\dev\FW\common\lib\lib_TaskTimer/taskAutomat.c **** }
 398              		.loc 1 143 0
 399 001a BD46     		mov	sp, r7
 400              		@ sp needed
 401 001c 80BD     		pop	{r7, pc}
 402              	.L34:
 403 001e C046     		.align	2
 404              	.L33:
 405 0020 00000000 		.word	flag
 406              		.cfi_endproc
 407              	.LFE67:
 408              		.size	Action1, .-Action1
 409              		.section	.text.Action2,"ax",%progbits
 410              		.align	2
 411              		.global	Action2
 412              		.code	16
 413              		.thumb_func
 414              		.type	Action2, %function
 415              	Action2:
ARM GAS  C:\Users\Petro\AppData\Local\Temp\ccFV9Jax.s 			page 11


 416              	.LFB68:
 144:..\..\..\..\dev\FW\common\lib\lib_TaskTimer/taskAutomat.c **** 
 145:..\..\..\..\dev\FW\common\lib\lib_TaskTimer/taskAutomat.c **** void Action2(void)
 146:..\..\..\..\dev\FW\common\lib\lib_TaskTimer/taskAutomat.c **** {
 417              		.loc 1 146 0
 418              		.cfi_startproc
 419 0000 80B5     		push	{r7, lr}
 420              		.cfi_def_cfa_offset 8
 421              		.cfi_offset 7, -8
 422              		.cfi_offset 14, -4
 423 0002 00AF     		add	r7, sp, #0
 424              		.cfi_def_cfa_register 7
 147:..\..\..\..\dev\FW\common\lib\lib_TaskTimer/taskAutomat.c ****     flag[ACTION2] = 0;
 425              		.loc 1 147 0
 426 0004 084B     		ldr	r3, .L36
 427 0006 0022     		mov	r2, #0
 428 0008 5A70     		strb	r2, [r3, #1]
 148:..\..\..\..\dev\FW\common\lib\lib_TaskTimer/taskAutomat.c ****     DisplayRealTime();
 429              		.loc 1 148 0
 430 000a FFF7FEFF 		bl	DisplayRealTime
 149:..\..\..\..\dev\FW\common\lib\lib_TaskTimer/taskAutomat.c ****     DisplayBattVoltage(ReadBattVoltage());
 431              		.loc 1 149 0
 432 000e FFF7FEFF 		bl	ReadBattVoltage
 433 0012 031C     		add	r3, r0, #0
 434 0014 181C     		add	r0, r3, #0
 435 0016 FFF7FEFF 		bl	DisplayBattVoltage
 150:..\..\..\..\dev\FW\common\lib\lib_TaskTimer/taskAutomat.c ****     SetTaskTimer(ACTION2, ACTION2_TIMEOUT);
 436              		.loc 1 150 0
 437 001a 0120     		mov	r0, #1
 438 001c 6421     		mov	r1, #100
 439 001e FFF7FEFF 		bl	SetTaskTimer
 151:..\..\..\..\dev\FW\common\lib\lib_TaskTimer/taskAutomat.c **** }
 440              		.loc 1 151 0
 441 0022 BD46     		mov	sp, r7
 442              		@ sp needed
 443 0024 80BD     		pop	{r7, pc}
 444              	.L37:
 445 0026 C046     		.align	2
 446              	.L36:
 447 0028 00000000 		.word	flag
 448              		.cfi_endproc
 449              	.LFE68:
 450              		.size	Action2, .-Action2
 451              		.section	.text.Action3,"ax",%progbits
 452              		.align	2
 453              		.global	Action3
 454              		.code	16
 455              		.thumb_func
 456              		.type	Action3, %function
 457              	Action3:
 458              	.LFB69:
 152:..\..\..\..\dev\FW\common\lib\lib_TaskTimer/taskAutomat.c **** 
 153:..\..\..\..\dev\FW\common\lib\lib_TaskTimer/taskAutomat.c **** void Action3(void)
 154:..\..\..\..\dev\FW\common\lib\lib_TaskTimer/taskAutomat.c **** {
 459              		.loc 1 154 0
 460              		.cfi_startproc
 461 0000 80B5     		push	{r7, lr}
ARM GAS  C:\Users\Petro\AppData\Local\Temp\ccFV9Jax.s 			page 12


 462              		.cfi_def_cfa_offset 8
 463              		.cfi_offset 7, -8
 464              		.cfi_offset 14, -4
 465 0002 00AF     		add	r7, sp, #0
 466              		.cfi_def_cfa_register 7
 155:..\..\..\..\dev\FW\common\lib\lib_TaskTimer/taskAutomat.c ****     flag[ACTION3] = 0;
 467              		.loc 1 155 0
 468 0004 0B4B     		ldr	r3, .L41
 469 0006 0022     		mov	r2, #0
 470 0008 9A70     		strb	r2, [r3, #2]
 156:..\..\..\..\dev\FW\common\lib\lib_TaskTimer/taskAutomat.c ****     
 157:..\..\..\..\dev\FW\common\lib\lib_TaskTimer/taskAutomat.c ****     /*indicator network*/
 158:..\..\..\..\dev\FW\common\lib\lib_TaskTimer/taskAutomat.c ****     if(NetworkStatus() == NETWORK_CONN)
 471              		.loc 1 158 0
 472 000a FFF7FEFF 		bl	NetworkStatus
 473 000e 031E     		sub	r3, r0, #0
 474 0010 012B     		cmp	r3, #1
 475 0012 03D1     		bne	.L39
 159:..\..\..\..\dev\FW\common\lib\lib_TaskTimer/taskAutomat.c ****     {
 160:..\..\..\..\dev\FW\common\lib\lib_TaskTimer/taskAutomat.c ****         DisplayIndicatorNetwork(CONNECT);
 476              		.loc 1 160 0
 477 0014 0020     		mov	r0, #0
 478 0016 FFF7FEFF 		bl	DisplayIndicatorNetwork
 479 001a 02E0     		b	.L40
 480              	.L39:
 161:..\..\..\..\dev\FW\common\lib\lib_TaskTimer/taskAutomat.c ****     }
 162:..\..\..\..\dev\FW\common\lib\lib_TaskTimer/taskAutomat.c ****     else
 163:..\..\..\..\dev\FW\common\lib\lib_TaskTimer/taskAutomat.c ****     {
 164:..\..\..\..\dev\FW\common\lib\lib_TaskTimer/taskAutomat.c ****         DisplayIndicatorNetwork(DISCONNECT);
 481              		.loc 1 164 0
 482 001c 0120     		mov	r0, #1
 483 001e FFF7FEFF 		bl	DisplayIndicatorNetwork
 484              	.L40:
 165:..\..\..\..\dev\FW\common\lib\lib_TaskTimer/taskAutomat.c ****     }
 166:..\..\..\..\dev\FW\common\lib\lib_TaskTimer/taskAutomat.c ****     SetTaskTimer(ACTION3, ACTION3_TIMEOUT);
 485              		.loc 1 166 0
 486 0022 FA23     		mov	r3, #250
 487 0024 5B00     		lsl	r3, r3, #1
 488 0026 0220     		mov	r0, #2
 489 0028 191C     		mov	r1, r3
 490 002a FFF7FEFF 		bl	SetTaskTimer
 167:..\..\..\..\dev\FW\common\lib\lib_TaskTimer/taskAutomat.c **** }
 491              		.loc 1 167 0
 492 002e BD46     		mov	sp, r7
 493              		@ sp needed
 494 0030 80BD     		pop	{r7, pc}
 495              	.L42:
 496 0032 C046     		.align	2
 497              	.L41:
 498 0034 00000000 		.word	flag
 499              		.cfi_endproc
 500              	.LFE69:
 501              		.size	Action3, .-Action3
 502              		.section	.text.Action4,"ax",%progbits
 503              		.align	2
 504              		.global	Action4
 505              		.code	16
ARM GAS  C:\Users\Petro\AppData\Local\Temp\ccFV9Jax.s 			page 13


 506              		.thumb_func
 507              		.type	Action4, %function
 508              	Action4:
 509              	.LFB70:
 168:..\..\..\..\dev\FW\common\lib\lib_TaskTimer/taskAutomat.c **** 
 169:..\..\..\..\dev\FW\common\lib\lib_TaskTimer/taskAutomat.c **** void Action4(void)
 170:..\..\..\..\dev\FW\common\lib\lib_TaskTimer/taskAutomat.c **** {
 510              		.loc 1 170 0
 511              		.cfi_startproc
 512 0000 80B5     		push	{r7, lr}
 513              		.cfi_def_cfa_offset 8
 514              		.cfi_offset 7, -8
 515              		.cfi_offset 14, -4
 516 0002 00AF     		add	r7, sp, #0
 517              		.cfi_def_cfa_register 7
 171:..\..\..\..\dev\FW\common\lib\lib_TaskTimer/taskAutomat.c ****     flag[ACTION3] = 0; 
 518              		.loc 1 171 0
 519 0004 024B     		ldr	r3, .L44
 520 0006 0022     		mov	r2, #0
 521 0008 9A70     		strb	r2, [r3, #2]
 172:..\..\..\..\dev\FW\common\lib\lib_TaskTimer/taskAutomat.c ****     //SetTaskTimer(ACTION4, ACTION4_TIMEOUT);
 173:..\..\..\..\dev\FW\common\lib\lib_TaskTimer/taskAutomat.c **** }
 522              		.loc 1 173 0
 523 000a BD46     		mov	sp, r7
 524              		@ sp needed
 525 000c 80BD     		pop	{r7, pc}
 526              	.L45:
 527 000e C046     		.align	2
 528              	.L44:
 529 0010 00000000 		.word	flag
 530              		.cfi_endproc
 531              	.LFE70:
 532              		.size	Action4, .-Action4
 533              		.section	.text.Action5,"ax",%progbits
 534              		.align	2
 535              		.global	Action5
 536              		.code	16
 537              		.thumb_func
 538              		.type	Action5, %function
 539              	Action5:
 540              	.LFB71:
 174:..\..\..\..\dev\FW\common\lib\lib_TaskTimer/taskAutomat.c **** 
 175:..\..\..\..\dev\FW\common\lib\lib_TaskTimer/taskAutomat.c **** void Action5(void)
 176:..\..\..\..\dev\FW\common\lib\lib_TaskTimer/taskAutomat.c **** {    
 541              		.loc 1 176 0
 542              		.cfi_startproc
 543 0000 80B5     		push	{r7, lr}
 544              		.cfi_def_cfa_offset 8
 545              		.cfi_offset 7, -8
 546              		.cfi_offset 14, -4
 547 0002 00AF     		add	r7, sp, #0
 548              		.cfi_def_cfa_register 7
 177:..\..\..\..\dev\FW\common\lib\lib_TaskTimer/taskAutomat.c ****     flag[ACTION3] = 0;
 549              		.loc 1 177 0
 550 0004 024B     		ldr	r3, .L47
 551 0006 0022     		mov	r2, #0
 552 0008 9A70     		strb	r2, [r3, #2]
ARM GAS  C:\Users\Petro\AppData\Local\Temp\ccFV9Jax.s 			page 14


 178:..\..\..\..\dev\FW\common\lib\lib_TaskTimer/taskAutomat.c ****     //SetTaskTimer(ACTION4, ACTION5_TIMEOUT);
 179:..\..\..\..\dev\FW\common\lib\lib_TaskTimer/taskAutomat.c **** }
 553              		.loc 1 179 0
 554 000a BD46     		mov	sp, r7
 555              		@ sp needed
 556 000c 80BD     		pop	{r7, pc}
 557              	.L48:
 558 000e C046     		.align	2
 559              	.L47:
 560 0010 00000000 		.word	flag
 561              		.cfi_endproc
 562              	.LFE71:
 563              		.size	Action5, .-Action5
 564              		.text
 565              	.Letext0:
 566              		.file 2 "c:\\program files (x86)\\cypress\\psoc creator\\4.0\\psoc creator\\import\\gnu\\arm\\4.9.
 567              		.file 3 "c:\\program files (x86)\\cypress\\psoc creator\\4.0\\psoc creator\\import\\gnu\\arm\\4.9.
 568              		.file 4 "Generated_Source\\PSoC4/cytypes.h"
 569              		.file 5 "./lib_TaskTimer\\taskAutomat.h"
 570              		.file 6 "./lib_Display\\display.h"
 571              		.file 7 "./appGlobal.h"