ARM GAS  C:\Users\Petro\AppData\Local\Temp\cc1vRKnf.s 			page 1


   1              		.cpu cortex-m0
   2              		.fpu softvfp
   3              		.eabi_attribute 20, 1
   4              		.eabi_attribute 21, 1
   5              		.eabi_attribute 23, 3
   6              		.eabi_attribute 24, 1
   7              		.eabi_attribute 25, 1
   8              		.eabi_attribute 26, 1
   9              		.eabi_attribute 30, 6
  10              		.eabi_attribute 34, 0
  11              		.eabi_attribute 18, 4
  12              		.code	16
  13              		.file	"database.c"
  14              		.text
  15              	.Ltext0:
  16              		.cfi_sections	.debug_frame
  17              		.comm	bufferSkiersOnWay,128,8
  18              		.comm	bufferFifo,384,8
  19              		.comm	currentSizeBuff,4,4
  20              		.comm	currentElementStart,4,4
  21              		.comm	currentElementFinish,4,4
  22              		.comm	skiersStarted,2,2
  23              		.comm	skiersFinished,2,2
  24              		.comm	skierDB,7200,8
  25              		.comm	fifo,632,8
  26              		.section	.text.DataBaseStart,"ax",%progbits
  27              		.align	2
  28              		.global	DataBaseStart
  29              		.code	16
  30              		.thumb_func
  31              		.type	DataBaseStart, %function
  32              	DataBaseStart:
  33              	.LFB2:
  34              		.file 1 ".\\lib_DB\\database.c"
   1:.\lib_DB/database.c **** 
   2:.\lib_DB/database.c **** #include "lib_DB\database.h"
   3:.\lib_DB/database.c **** 
   4:.\lib_DB/database.c **** uint32_t DataBaseStart(void)
   5:.\lib_DB/database.c **** {
  35              		.loc 1 5 0
  36              		.cfi_startproc
  37 0000 80B5     		push	{r7, lr}
  38              		.cfi_def_cfa_offset 8
  39              		.cfi_offset 7, -8
  40              		.cfi_offset 14, -4
  41 0002 82B0     		sub	sp, sp, #8
  42              		.cfi_def_cfa_offset 16
  43 0004 00AF     		add	r7, sp, #0
  44              		.cfi_def_cfa_register 7
   6:.\lib_DB/database.c ****     uint32_t result; 
   7:.\lib_DB/database.c ****     
   8:.\lib_DB/database.c ****     result = LogStart();
  45              		.loc 1 8 0
  46 0006 FFF7FEFF 		bl	LogStart
  47 000a 031C     		mov	r3, r0
  48 000c 7B60     		str	r3, [r7, #4]
   9:.\lib_DB/database.c ****     if(result == FR_OK)
ARM GAS  C:\Users\Petro\AppData\Local\Temp\cc1vRKnf.s 			page 2


  49              		.loc 1 9 0
  50 000e 7B68     		ldr	r3, [r7, #4]
  51 0010 002B     		cmp	r3, #0
  52 0012 02D1     		bne	.L2
  10:.\lib_DB/database.c ****     {
  11:.\lib_DB/database.c ****         result = DB_START;
  53              		.loc 1 11 0
  54 0014 0123     		mov	r3, #1
  55 0016 7B60     		str	r3, [r7, #4]
  56 0018 01E0     		b	.L3
  57              	.L2:
  12:.\lib_DB/database.c ****     }else
  13:.\lib_DB/database.c ****     {
  14:.\lib_DB/database.c ****         result = DB_NO_START;
  58              		.loc 1 14 0
  59 001a 0023     		mov	r3, #0
  60 001c 7B60     		str	r3, [r7, #4]
  61              	.L3:
  15:.\lib_DB/database.c ****     }
  16:.\lib_DB/database.c ****     return result;
  62              		.loc 1 16 0
  63 001e 7B68     		ldr	r3, [r7, #4]
  17:.\lib_DB/database.c **** }
  64              		.loc 1 17 0
  65 0020 181C     		mov	r0, r3
  66 0022 BD46     		mov	sp, r7
  67 0024 02B0     		add	sp, sp, #8
  68              		@ sp needed
  69 0026 80BD     		pop	{r7, pc}
  70              		.cfi_endproc
  71              	.LFE2:
  72              		.size	DataBaseStart, .-DataBaseStart
  73              		.section	.text.InitBuff,"ax",%progbits
  74              		.align	2
  75              		.global	InitBuff
  76              		.code	16
  77              		.thumb_func
  78              		.type	InitBuff, %function
  79              	InitBuff:
  80              	.LFB3:
  18:.\lib_DB/database.c **** 
  19:.\lib_DB/database.c **** void InitBuff()
  20:.\lib_DB/database.c **** {
  81              		.loc 1 20 0
  82              		.cfi_startproc
  83 0000 80B5     		push	{r7, lr}
  84              		.cfi_def_cfa_offset 8
  85              		.cfi_offset 7, -8
  86              		.cfi_offset 14, -4
  87 0002 82B0     		sub	sp, sp, #8
  88              		.cfi_def_cfa_offset 16
  89 0004 00AF     		add	r7, sp, #0
  90              		.cfi_def_cfa_register 7
  21:.\lib_DB/database.c ****     uint32_t i;
  22:.\lib_DB/database.c ****     
  23:.\lib_DB/database.c ****     /*init fifo*/
  24:.\lib_DB/database.c ****     fifo.totalSize = MAX_FIFO_SIZE;
ARM GAS  C:\Users\Petro\AppData\Local\Temp\cc1vRKnf.s 			page 3


  91              		.loc 1 24 0
  92 0006 114B     		ldr	r3, .L8
  93 0008 0C22     		mov	r2, #12
  94 000a DA80     		strh	r2, [r3, #6]
  25:.\lib_DB/database.c ****     
  26:.\lib_DB/database.c ****     for( i = 0; i< BUFFER_SIZE - 1; i++)
  95              		.loc 1 26 0
  96 000c 0023     		mov	r3, #0
  97 000e 7B60     		str	r3, [r7, #4]
  98 0010 0DE0     		b	.L6
  99              	.L7:
  27:.\lib_DB/database.c ****     {
  28:.\lib_DB/database.c ****         bufferSkiersOnWay[i].nextSki = &bufferSkiersOnWay[i+1];
 100              		.loc 1 28 0 discriminator 3
 101 0012 7B68     		ldr	r3, [r7, #4]
 102 0014 0133     		add	r3, r3, #1
 103 0016 1A01     		lsl	r2, r3, #4
 104 0018 0D4B     		ldr	r3, .L8+4
 105 001a D218     		add	r2, r2, r3
 106 001c 0C49     		ldr	r1, .L8+4
 107 001e 7B68     		ldr	r3, [r7, #4]
 108 0020 1B01     		lsl	r3, r3, #4
 109 0022 CB18     		add	r3, r1, r3
 110 0024 0833     		add	r3, r3, #8
 111 0026 5A60     		str	r2, [r3, #4]
  26:.\lib_DB/database.c ****     {
 112              		.loc 1 26 0 discriminator 3
 113 0028 7B68     		ldr	r3, [r7, #4]
 114 002a 0133     		add	r3, r3, #1
 115 002c 7B60     		str	r3, [r7, #4]
 116              	.L6:
  26:.\lib_DB/database.c ****     {
 117              		.loc 1 26 0 is_stmt 0 discriminator 1
 118 002e 7B68     		ldr	r3, [r7, #4]
 119 0030 062B     		cmp	r3, #6
 120 0032 EED9     		bls	.L7
  29:.\lib_DB/database.c ****     }
  30:.\lib_DB/database.c ****     bufferSkiersOnWay[BUFFER_SIZE - 1].nextSki = &bufferSkiersOnWay[0];
 121              		.loc 1 30 0 is_stmt 1
 122 0034 064B     		ldr	r3, .L8+4
 123 0036 064A     		ldr	r2, .L8+4
 124 0038 DA67     		str	r2, [r3, #124]
  31:.\lib_DB/database.c ****     currentElementStart = &bufferSkiersOnWay[0];
 125              		.loc 1 31 0
 126 003a 064B     		ldr	r3, .L8+8
 127 003c 044A     		ldr	r2, .L8+4
 128 003e 1A60     		str	r2, [r3]
  32:.\lib_DB/database.c ****     currentElementFinish = &bufferSkiersOnWay[0];
 129              		.loc 1 32 0
 130 0040 054B     		ldr	r3, .L8+12
 131 0042 034A     		ldr	r2, .L8+4
 132 0044 1A60     		str	r2, [r3]
  33:.\lib_DB/database.c **** }
 133              		.loc 1 33 0
 134 0046 BD46     		mov	sp, r7
 135 0048 02B0     		add	sp, sp, #8
 136              		@ sp needed
ARM GAS  C:\Users\Petro\AppData\Local\Temp\cc1vRKnf.s 			page 4


 137 004a 80BD     		pop	{r7, pc}
 138              	.L9:
 139              		.align	2
 140              	.L8:
 141 004c 00000000 		.word	fifo
 142 0050 00000000 		.word	bufferSkiersOnWay
 143 0054 00000000 		.word	currentElementStart
 144 0058 00000000 		.word	currentElementFinish
 145              		.cfi_endproc
 146              	.LFE3:
 147              		.size	InitBuff, .-InitBuff
 148              		.section	.text.putSkiOnWay,"ax",%progbits
 149              		.align	2
 150              		.global	putSkiOnWay
 151              		.code	16
 152              		.thumb_func
 153              		.type	putSkiOnWay, %function
 154              	putSkiOnWay:
 155              	.LFB4:
  34:.\lib_DB/database.c **** 
  35:.\lib_DB/database.c **** void putSkiOnWay(uint64_t unixTime, uint16_t mills)
  36:.\lib_DB/database.c **** {
 156              		.loc 1 36 0
 157              		.cfi_startproc
 158 0000 90B5     		push	{r4, r7, lr}
 159              		.cfi_def_cfa_offset 12
 160              		.cfi_offset 4, -12
 161              		.cfi_offset 7, -8
 162              		.cfi_offset 14, -4
 163 0002 85B0     		sub	sp, sp, #20
 164              		.cfi_def_cfa_offset 32
 165 0004 00AF     		add	r7, sp, #0
 166              		.cfi_def_cfa_register 7
 167 0006 B860     		str	r0, [r7, #8]
 168 0008 F960     		str	r1, [r7, #12]
 169 000a BB1D     		add	r3, r7, #6
 170 000c 1A80     		strh	r2, [r3]
  37:.\lib_DB/database.c ****     currentElementFinish->millsStartSkier = mills;
 171              		.loc 1 37 0
 172 000e 0C4B     		ldr	r3, .L11
 173 0010 1B68     		ldr	r3, [r3]
 174 0012 BA1D     		add	r2, r7, #6
 175 0014 1288     		ldrh	r2, [r2]
 176 0016 1A81     		strh	r2, [r3, #8]
  38:.\lib_DB/database.c ****     currentElementFinish->unixStartSkier = unixTime;
 177              		.loc 1 38 0
 178 0018 094B     		ldr	r3, .L11
 179 001a 1A68     		ldr	r2, [r3]
 180 001c BB68     		ldr	r3, [r7, #8]
 181 001e FC68     		ldr	r4, [r7, #12]
 182 0020 1360     		str	r3, [r2]
 183 0022 5460     		str	r4, [r2, #4]
  39:.\lib_DB/database.c ****     currentElementFinish = currentElementFinish->nextSki;
 184              		.loc 1 39 0
 185 0024 064B     		ldr	r3, .L11
 186 0026 1B68     		ldr	r3, [r3]
 187 0028 DA68     		ldr	r2, [r3, #12]
ARM GAS  C:\Users\Petro\AppData\Local\Temp\cc1vRKnf.s 			page 5


 188 002a 054B     		ldr	r3, .L11
 189 002c 1A60     		str	r2, [r3]
  40:.\lib_DB/database.c ****     currentSizeBuff++;
 190              		.loc 1 40 0
 191 002e 054B     		ldr	r3, .L11+4
 192 0030 1B68     		ldr	r3, [r3]
 193 0032 5A1C     		add	r2, r3, #1
 194 0034 034B     		ldr	r3, .L11+4
 195 0036 1A60     		str	r2, [r3]
  41:.\lib_DB/database.c **** }
 196              		.loc 1 41 0
 197 0038 BD46     		mov	sp, r7
 198 003a 05B0     		add	sp, sp, #20
 199              		@ sp needed
 200 003c 90BD     		pop	{r4, r7, pc}
 201              	.L12:
 202 003e C046     		.align	2
 203              	.L11:
 204 0040 00000000 		.word	currentElementFinish
 205 0044 00000000 		.word	currentSizeBuff
 206              		.cfi_endproc
 207              	.LFE4:
 208              		.size	putSkiOnWay, .-putSkiOnWay
 209              		.section	.text.getSkiFromWay,"ax",%progbits
 210              		.align	2
 211              		.global	getSkiFromWay
 212              		.code	16
 213              		.thumb_func
 214              		.type	getSkiFromWay, %function
 215              	getSkiFromWay:
 216              	.LFB5:
  42:.\lib_DB/database.c **** 
  43:.\lib_DB/database.c **** void getSkiFromWay(uint64_t *unixTime, uint16_t *mills)
  44:.\lib_DB/database.c **** {
 217              		.loc 1 44 0
 218              		.cfi_startproc
 219 0000 90B5     		push	{r4, r7, lr}
 220              		.cfi_def_cfa_offset 12
 221              		.cfi_offset 4, -12
 222              		.cfi_offset 7, -8
 223              		.cfi_offset 14, -4
 224 0002 83B0     		sub	sp, sp, #12
 225              		.cfi_def_cfa_offset 24
 226 0004 00AF     		add	r7, sp, #0
 227              		.cfi_def_cfa_register 7
 228 0006 7860     		str	r0, [r7, #4]
 229 0008 3960     		str	r1, [r7]
  45:.\lib_DB/database.c ****     *mills = currentElementStart->millsStartSkier;
 230              		.loc 1 45 0
 231 000a 0C4B     		ldr	r3, .L14
 232 000c 1B68     		ldr	r3, [r3]
 233 000e 1A89     		ldrh	r2, [r3, #8]
 234 0010 3B68     		ldr	r3, [r7]
 235 0012 1A80     		strh	r2, [r3]
  46:.\lib_DB/database.c ****     *unixTime = currentElementStart->unixStartSkier;
 236              		.loc 1 46 0
 237 0014 094B     		ldr	r3, .L14
ARM GAS  C:\Users\Petro\AppData\Local\Temp\cc1vRKnf.s 			page 6


 238 0016 1B68     		ldr	r3, [r3]
 239 0018 5C68     		ldr	r4, [r3, #4]
 240 001a 1B68     		ldr	r3, [r3]
 241 001c 7A68     		ldr	r2, [r7, #4]
 242 001e 1360     		str	r3, [r2]
 243 0020 5460     		str	r4, [r2, #4]
  47:.\lib_DB/database.c ****     currentElementStart = currentElementStart->nextSki;
 244              		.loc 1 47 0
 245 0022 064B     		ldr	r3, .L14
 246 0024 1B68     		ldr	r3, [r3]
 247 0026 DA68     		ldr	r2, [r3, #12]
 248 0028 044B     		ldr	r3, .L14
 249 002a 1A60     		str	r2, [r3]
  48:.\lib_DB/database.c ****     currentSizeBuff--;
 250              		.loc 1 48 0
 251 002c 044B     		ldr	r3, .L14+4
 252 002e 1B68     		ldr	r3, [r3]
 253 0030 5A1E     		sub	r2, r3, #1
 254 0032 034B     		ldr	r3, .L14+4
 255 0034 1A60     		str	r2, [r3]
  49:.\lib_DB/database.c **** }
 256              		.loc 1 49 0
 257 0036 BD46     		mov	sp, r7
 258 0038 03B0     		add	sp, sp, #12
 259              		@ sp needed
 260 003a 90BD     		pop	{r4, r7, pc}
 261              	.L15:
 262              		.align	2
 263              	.L14:
 264 003c 00000000 		.word	currentElementStart
 265 0040 00000000 		.word	currentSizeBuff
 266              		.cfi_endproc
 267              	.LFE5:
 268              		.size	getSkiFromWay, .-getSkiFromWay
 269              		.section	.text.WriteStartTime,"ax",%progbits
 270              		.align	2
 271              		.global	WriteStartTime
 272              		.code	16
 273              		.thumb_func
 274              		.type	WriteStartTime, %function
 275              	WriteStartTime:
 276              	.LFB6:
  50:.\lib_DB/database.c **** 
  51:.\lib_DB/database.c **** 
  52:.\lib_DB/database.c **** bool WriteStartTime(uint64_t unixTime, uint16_t mills)
  53:.\lib_DB/database.c **** {
 277              		.loc 1 53 0
 278              		.cfi_startproc
 279 0000 90B5     		push	{r4, r7, lr}
 280              		.cfi_def_cfa_offset 12
 281              		.cfi_offset 4, -12
 282              		.cfi_offset 7, -8
 283              		.cfi_offset 14, -4
 284 0002 85B0     		sub	sp, sp, #20
 285              		.cfi_def_cfa_offset 32
 286 0004 00AF     		add	r7, sp, #0
 287              		.cfi_def_cfa_register 7
ARM GAS  C:\Users\Petro\AppData\Local\Temp\cc1vRKnf.s 			page 7


 288 0006 B860     		str	r0, [r7, #8]
 289 0008 F960     		str	r1, [r7, #12]
 290 000a BB1D     		add	r3, r7, #6
 291 000c 1A80     		strh	r2, [r3]
  54:.\lib_DB/database.c ****     putSkiOnWay(unixTime, mills);
 292              		.loc 1 54 0
 293 000e BB68     		ldr	r3, [r7, #8]
 294 0010 FC68     		ldr	r4, [r7, #12]
 295 0012 BA1D     		add	r2, r7, #6
 296 0014 1288     		ldrh	r2, [r2]
 297 0016 181C     		mov	r0, r3
 298 0018 211C     		mov	r1, r4
 299 001a FFF7FEFF 		bl	putSkiOnWay
  55:.\lib_DB/database.c **** /*
  56:.\lib_DB/database.c ****     if (skiersStarted == MAX_SKIERS_ON_DB)
  57:.\lib_DB/database.c ****     {
  58:.\lib_DB/database.c ****         skiersStarted = 0;
  59:.\lib_DB/database.c ****     }
  60:.\lib_DB/database.c ****     skierDB[skiersStarted].millsStartSkier = mills;
  61:.\lib_DB/database.c ****     skierDB[skiersStarted].unixStartSkier = unixTime;
  62:.\lib_DB/database.c ****     skiersStarted++;
  63:.\lib_DB/database.c ****     return true;
  64:.\lib_DB/database.c **** */
  65:.\lib_DB/database.c ****     return 1u;
 300              		.loc 1 65 0
 301 001e 0123     		mov	r3, #1
  66:.\lib_DB/database.c **** }
 302              		.loc 1 66 0
 303 0020 181C     		mov	r0, r3
 304 0022 BD46     		mov	sp, r7
 305 0024 05B0     		add	sp, sp, #20
 306              		@ sp needed
 307 0026 90BD     		pop	{r4, r7, pc}
 308              		.cfi_endproc
 309              	.LFE6:
 310              		.size	WriteStartTime, .-WriteStartTime
 311              		.section	.text.WriteFinishTime,"ax",%progbits
 312              		.align	2
 313              		.global	WriteFinishTime
 314              		.code	16
 315              		.thumb_func
 316              		.type	WriteFinishTime, %function
 317              	WriteFinishTime:
 318              	.LFB7:
  67:.\lib_DB/database.c **** 
  68:.\lib_DB/database.c **** 
  69:.\lib_DB/database.c **** bool WriteFinishTime(uint64_t unixTime, uint16_t mills)
  70:.\lib_DB/database.c **** {
 319              		.loc 1 70 0
 320              		.cfi_startproc
 321 0000 90B5     		push	{r4, r7, lr}
 322              		.cfi_def_cfa_offset 12
 323              		.cfi_offset 4, -12
 324              		.cfi_offset 7, -8
 325              		.cfi_offset 14, -4
 326 0002 85B0     		sub	sp, sp, #20
 327              		.cfi_def_cfa_offset 32
ARM GAS  C:\Users\Petro\AppData\Local\Temp\cc1vRKnf.s 			page 8


 328 0004 00AF     		add	r7, sp, #0
 329              		.cfi_def_cfa_register 7
 330 0006 B860     		str	r0, [r7, #8]
 331 0008 F960     		str	r1, [r7, #12]
 332 000a BB1D     		add	r3, r7, #6
 333 000c 1A80     		strh	r2, [r3]
  71:.\lib_DB/database.c ****     
  72:.\lib_DB/database.c ****     if (skiersFinished == MAX_SKIERS_ON_DB)
 334              		.loc 1 72 0
 335 000e 254B     		ldr	r3, .L21
 336 0010 1B88     		ldrh	r3, [r3]
 337 0012 962B     		cmp	r3, #150
 338 0014 02D1     		bne	.L19
  73:.\lib_DB/database.c ****     {
  74:.\lib_DB/database.c ****         skiersFinished = 0;
 339              		.loc 1 74 0
 340 0016 234B     		ldr	r3, .L21
 341 0018 0022     		mov	r2, #0
 342 001a 1A80     		strh	r2, [r3]
 343              	.L19:
  75:.\lib_DB/database.c ****     }
  76:.\lib_DB/database.c ****     getSkiFromWay(&skierDB[skiersFinished].unixStartSkier, &skierDB[skiersFinished].millsStartSkier
 344              		.loc 1 76 0
 345 001c 214B     		ldr	r3, .L21
 346 001e 1B88     		ldrh	r3, [r3]
 347 0020 1A1C     		mov	r2, r3
 348 0022 131C     		mov	r3, r2
 349 0024 5B00     		lsl	r3, r3, #1
 350 0026 9B18     		add	r3, r3, r2
 351 0028 1B01     		lsl	r3, r3, #4
 352 002a 1F4A     		ldr	r2, .L21+4
 353 002c 9918     		add	r1, r3, r2
 354 002e 1D4B     		ldr	r3, .L21
 355 0030 1B88     		ldrh	r3, [r3]
 356 0032 1A1C     		mov	r2, r3
 357 0034 131C     		mov	r3, r2
 358 0036 5B00     		lsl	r3, r3, #1
 359 0038 9B18     		add	r3, r3, r2
 360 003a 1B01     		lsl	r3, r3, #4
 361 003c 0833     		add	r3, r3, #8
 362 003e 1A1C     		mov	r2, r3
 363 0040 194B     		ldr	r3, .L21+4
 364 0042 D318     		add	r3, r2, r3
 365 0044 081C     		mov	r0, r1
 366 0046 191C     		mov	r1, r3
 367 0048 FFF7FEFF 		bl	getSkiFromWay
  77:.\lib_DB/database.c ****     skierDB[skiersFinished].millsFinishSkier = mills;
 368              		.loc 1 77 0
 369 004c 154B     		ldr	r3, .L21
 370 004e 1B88     		ldrh	r3, [r3]
 371 0050 191C     		mov	r1, r3
 372 0052 154A     		ldr	r2, .L21+4
 373 0054 0B1C     		mov	r3, r1
 374 0056 5B00     		lsl	r3, r3, #1
 375 0058 5B18     		add	r3, r3, r1
 376 005a 1B01     		lsl	r3, r3, #4
 377 005c D318     		add	r3, r2, r3
ARM GAS  C:\Users\Petro\AppData\Local\Temp\cc1vRKnf.s 			page 9


 378 005e 1833     		add	r3, r3, #24
 379 0060 BA1D     		add	r2, r7, #6
 380 0062 1288     		ldrh	r2, [r2]
 381 0064 1A80     		strh	r2, [r3]
  78:.\lib_DB/database.c ****     skierDB[skiersFinished].unixFinishSkier = unixTime;
 382              		.loc 1 78 0
 383 0066 0F4B     		ldr	r3, .L21
 384 0068 1B88     		ldrh	r3, [r3]
 385 006a 191C     		mov	r1, r3
 386 006c 0E4A     		ldr	r2, .L21+4
 387 006e 0B1C     		mov	r3, r1
 388 0070 5B00     		lsl	r3, r3, #1
 389 0072 5B18     		add	r3, r3, r1
 390 0074 1B01     		lsl	r3, r3, #4
 391 0076 D318     		add	r3, r2, r3
 392 0078 1033     		add	r3, r3, #16
 393 007a 1A1C     		mov	r2, r3
 394 007c BB68     		ldr	r3, [r7, #8]
 395 007e FC68     		ldr	r4, [r7, #12]
 396 0080 1360     		str	r3, [r2]
 397 0082 5460     		str	r4, [r2, #4]
  79:.\lib_DB/database.c ****     TimeOnWay(skiersFinished);
 398              		.loc 1 79 0
 399 0084 074B     		ldr	r3, .L21
 400 0086 1B88     		ldrh	r3, [r3]
 401 0088 181C     		mov	r0, r3
 402 008a FFF7FEFF 		bl	TimeOnWay
  80:.\lib_DB/database.c ****     skiersFinished++;
 403              		.loc 1 80 0
 404 008e 054B     		ldr	r3, .L21
 405 0090 1B88     		ldrh	r3, [r3]
 406 0092 0133     		add	r3, r3, #1
 407 0094 9AB2     		uxth	r2, r3
 408 0096 034B     		ldr	r3, .L21
 409 0098 1A80     		strh	r2, [r3]
  81:.\lib_DB/database.c ****     return true;
 410              		.loc 1 81 0
 411 009a 0123     		mov	r3, #1
  82:.\lib_DB/database.c **** }
 412              		.loc 1 82 0
 413 009c 181C     		mov	r0, r3
 414 009e BD46     		mov	sp, r7
 415 00a0 05B0     		add	sp, sp, #20
 416              		@ sp needed
 417 00a2 90BD     		pop	{r4, r7, pc}
 418              	.L22:
 419              		.align	2
 420              	.L21:
 421 00a4 00000000 		.word	skiersFinished
 422 00a8 00000000 		.word	skierDB
 423              		.cfi_endproc
 424              	.LFE7:
 425              		.size	WriteFinishTime, .-WriteFinishTime
 426              		.section	.text.SkierOnWay,"ax",%progbits
 427              		.align	2
 428              		.global	SkierOnWay
 429              		.code	16
ARM GAS  C:\Users\Petro\AppData\Local\Temp\cc1vRKnf.s 			page 10


 430              		.thumb_func
 431              		.type	SkierOnWay, %function
 432              	SkierOnWay:
 433              	.LFB8:
  83:.\lib_DB/database.c **** 
  84:.\lib_DB/database.c **** uint32_t SkierOnWay()
  85:.\lib_DB/database.c **** {
 434              		.loc 1 85 0
 435              		.cfi_startproc
 436 0000 80B5     		push	{r7, lr}
 437              		.cfi_def_cfa_offset 8
 438              		.cfi_offset 7, -8
 439              		.cfi_offset 14, -4
 440 0002 00AF     		add	r7, sp, #0
 441              		.cfi_def_cfa_register 7
  86:.\lib_DB/database.c ****     return currentSizeBuff;
 442              		.loc 1 86 0
 443 0004 024B     		ldr	r3, .L25
 444 0006 1B68     		ldr	r3, [r3]
  87:.\lib_DB/database.c **** }
 445              		.loc 1 87 0
 446 0008 181C     		mov	r0, r3
 447 000a BD46     		mov	sp, r7
 448              		@ sp needed
 449 000c 80BD     		pop	{r7, pc}
 450              	.L26:
 451 000e C046     		.align	2
 452              	.L25:
 453 0010 00000000 		.word	currentSizeBuff
 454              		.cfi_endproc
 455              	.LFE8:
 456              		.size	SkierOnWay, .-SkierOnWay
 457              		.section	.text.TimeOnWay,"ax",%progbits
 458              		.align	2
 459              		.global	TimeOnWay
 460              		.code	16
 461              		.thumb_func
 462              		.type	TimeOnWay, %function
 463              	TimeOnWay:
 464              	.LFB9:
  88:.\lib_DB/database.c **** 
  89:.\lib_DB/database.c **** uint32_t TimeOnWay(uint32_t Number)
  90:.\lib_DB/database.c **** {
 465              		.loc 1 90 0
 466              		.cfi_startproc
 467 0000 90B5     		push	{r4, r7, lr}
 468              		.cfi_def_cfa_offset 12
 469              		.cfi_offset 4, -12
 470              		.cfi_offset 7, -8
 471              		.cfi_offset 14, -4
 472 0002 83B0     		sub	sp, sp, #12
 473              		.cfi_def_cfa_offset 24
 474 0004 00AF     		add	r7, sp, #0
 475              		.cfi_def_cfa_register 7
 476 0006 7860     		str	r0, [r7, #4]
  91:.\lib_DB/database.c ****     skierDB[Number].secondsWay =  skierDB[Number].unixFinishSkier - skierDB[Number].unixStartSkier;
 477              		.loc 1 91 0
ARM GAS  C:\Users\Petro\AppData\Local\Temp\cc1vRKnf.s 			page 11


 478 0008 3E49     		ldr	r1, .L30
 479 000a 7A68     		ldr	r2, [r7, #4]
 480 000c 131C     		mov	r3, r2
 481 000e 5B00     		lsl	r3, r3, #1
 482 0010 9B18     		add	r3, r3, r2
 483 0012 1B01     		lsl	r3, r3, #4
 484 0014 CB18     		add	r3, r1, r3
 485 0016 1033     		add	r3, r3, #16
 486 0018 1968     		ldr	r1, [r3]
 487 001a 5A68     		ldr	r2, [r3, #4]
 488 001c 394C     		ldr	r4, .L30
 489 001e 7868     		ldr	r0, [r7, #4]
 490 0020 031C     		mov	r3, r0
 491 0022 5B00     		lsl	r3, r3, #1
 492 0024 1B18     		add	r3, r3, r0
 493 0026 1B01     		lsl	r3, r3, #4
 494 0028 E318     		add	r3, r4, r3
 495 002a 5C68     		ldr	r4, [r3, #4]
 496 002c 1B68     		ldr	r3, [r3]
 497 002e C91A     		sub	r1, r1, r3
 498 0030 A241     		sbc	r2, r2, r4
 499 0032 344C     		ldr	r4, .L30
 500 0034 7868     		ldr	r0, [r7, #4]
 501 0036 031C     		mov	r3, r0
 502 0038 5B00     		lsl	r3, r3, #1
 503 003a 1B18     		add	r3, r3, r0
 504 003c 1B01     		lsl	r3, r3, #4
 505 003e E318     		add	r3, r4, r3
 506 0040 2033     		add	r3, r3, #32
 507 0042 1960     		str	r1, [r3]
 508 0044 5A60     		str	r2, [r3, #4]
  92:.\lib_DB/database.c ****     skierDB[Number].millsWay =  skierDB[Number].millsFinishSkier - skierDB[Number].millsStartSkier;
 509              		.loc 1 92 0
 510 0046 2F49     		ldr	r1, .L30
 511 0048 7A68     		ldr	r2, [r7, #4]
 512 004a 131C     		mov	r3, r2
 513 004c 5B00     		lsl	r3, r3, #1
 514 004e 9B18     		add	r3, r3, r2
 515 0050 1B01     		lsl	r3, r3, #4
 516 0052 CB18     		add	r3, r1, r3
 517 0054 1833     		add	r3, r3, #24
 518 0056 1988     		ldrh	r1, [r3]
 519 0058 2A48     		ldr	r0, .L30
 520 005a 7A68     		ldr	r2, [r7, #4]
 521 005c 131C     		mov	r3, r2
 522 005e 5B00     		lsl	r3, r3, #1
 523 0060 9B18     		add	r3, r3, r2
 524 0062 1B01     		lsl	r3, r3, #4
 525 0064 C318     		add	r3, r0, r3
 526 0066 0833     		add	r3, r3, #8
 527 0068 1B88     		ldrh	r3, [r3]
 528 006a CB1A     		sub	r3, r1, r3
 529 006c 98B2     		uxth	r0, r3
 530 006e 2549     		ldr	r1, .L30
 531 0070 7A68     		ldr	r2, [r7, #4]
 532 0072 131C     		mov	r3, r2
 533 0074 5B00     		lsl	r3, r3, #1
ARM GAS  C:\Users\Petro\AppData\Local\Temp\cc1vRKnf.s 			page 12


 534 0076 9B18     		add	r3, r3, r2
 535 0078 1B01     		lsl	r3, r3, #4
 536 007a CB18     		add	r3, r1, r3
 537 007c 2833     		add	r3, r3, #40
 538 007e 021C     		add	r2, r0, #0
 539 0080 1A80     		strh	r2, [r3]
  93:.\lib_DB/database.c ****     if (skierDB[Number].millsWay > 1000u)
 540              		.loc 1 93 0
 541 0082 2049     		ldr	r1, .L30
 542 0084 7A68     		ldr	r2, [r7, #4]
 543 0086 131C     		mov	r3, r2
 544 0088 5B00     		lsl	r3, r3, #1
 545 008a 9B18     		add	r3, r3, r2
 546 008c 1B01     		lsl	r3, r3, #4
 547 008e CB18     		add	r3, r1, r3
 548 0090 2833     		add	r3, r3, #40
 549 0092 1A88     		ldrh	r2, [r3]
 550 0094 FA23     		mov	r3, #250
 551 0096 9B00     		lsl	r3, r3, #2
 552 0098 9A42     		cmp	r2, r3
 553 009a 2DD9     		bls	.L28
  94:.\lib_DB/database.c ****     {
  95:.\lib_DB/database.c ****         skierDB[Number].secondsWay--;
 554              		.loc 1 95 0
 555 009c 1949     		ldr	r1, .L30
 556 009e 7A68     		ldr	r2, [r7, #4]
 557 00a0 131C     		mov	r3, r2
 558 00a2 5B00     		lsl	r3, r3, #1
 559 00a4 9B18     		add	r3, r3, r2
 560 00a6 1B01     		lsl	r3, r3, #4
 561 00a8 CB18     		add	r3, r1, r3
 562 00aa 2033     		add	r3, r3, #32
 563 00ac 5C68     		ldr	r4, [r3, #4]
 564 00ae 1B68     		ldr	r3, [r3]
 565 00b0 0121     		mov	r1, #1
 566 00b2 4942     		neg	r1, r1
 567 00b4 CA17     		asr	r2, r1, #31
 568 00b6 C918     		add	r1, r1, r3
 569 00b8 6241     		adc	r2, r2, r4
 570 00ba 124C     		ldr	r4, .L30
 571 00bc 7868     		ldr	r0, [r7, #4]
 572 00be 031C     		mov	r3, r0
 573 00c0 5B00     		lsl	r3, r3, #1
 574 00c2 1B18     		add	r3, r3, r0
 575 00c4 1B01     		lsl	r3, r3, #4
 576 00c6 E318     		add	r3, r4, r3
 577 00c8 2033     		add	r3, r3, #32
 578 00ca 1960     		str	r1, [r3]
 579 00cc 5A60     		str	r2, [r3, #4]
  96:.\lib_DB/database.c ****         skierDB[Number].millsWay = 0 - skierDB[Number].millsWay;
 580              		.loc 1 96 0
 581 00ce 0D49     		ldr	r1, .L30
 582 00d0 7A68     		ldr	r2, [r7, #4]
 583 00d2 131C     		mov	r3, r2
 584 00d4 5B00     		lsl	r3, r3, #1
 585 00d6 9B18     		add	r3, r3, r2
 586 00d8 1B01     		lsl	r3, r3, #4
ARM GAS  C:\Users\Petro\AppData\Local\Temp\cc1vRKnf.s 			page 13


 587 00da CB18     		add	r3, r1, r3
 588 00dc 2833     		add	r3, r3, #40
 589 00de 1B88     		ldrh	r3, [r3]
 590 00e0 5B42     		neg	r3, r3
 591 00e2 98B2     		uxth	r0, r3
 592 00e4 0749     		ldr	r1, .L30
 593 00e6 7A68     		ldr	r2, [r7, #4]
 594 00e8 131C     		mov	r3, r2
 595 00ea 5B00     		lsl	r3, r3, #1
 596 00ec 9B18     		add	r3, r3, r2
 597 00ee 1B01     		lsl	r3, r3, #4
 598 00f0 CB18     		add	r3, r1, r3
 599 00f2 2833     		add	r3, r3, #40
 600 00f4 021C     		add	r2, r0, #0
 601 00f6 1A80     		strh	r2, [r3]
 602              	.L28:
  97:.\lib_DB/database.c ****     }
  98:.\lib_DB/database.c ****     return 1u;
 603              		.loc 1 98 0
 604 00f8 0123     		mov	r3, #1
  99:.\lib_DB/database.c **** }
 605              		.loc 1 99 0
 606 00fa 181C     		mov	r0, r3
 607 00fc BD46     		mov	sp, r7
 608 00fe 03B0     		add	sp, sp, #12
 609              		@ sp needed
 610 0100 90BD     		pop	{r4, r7, pc}
 611              	.L31:
 612 0102 C046     		.align	2
 613              	.L30:
 614 0104 00000000 		.word	skierDB
 615              		.cfi_endproc
 616              	.LFE9:
 617              		.size	TimeOnWay, .-TimeOnWay
 618              		.section	.text.LastSecTimeOnWay,"ax",%progbits
 619              		.align	2
 620              		.global	LastSecTimeOnWay
 621              		.code	16
 622              		.thumb_func
 623              		.type	LastSecTimeOnWay, %function
 624              	LastSecTimeOnWay:
 625              	.LFB10:
 100:.\lib_DB/database.c **** 
 101:.\lib_DB/database.c **** uint32_t LastSecTimeOnWay()
 102:.\lib_DB/database.c **** {
 626              		.loc 1 102 0
 627              		.cfi_startproc
 628 0000 90B5     		push	{r4, r7, lr}
 629              		.cfi_def_cfa_offset 12
 630              		.cfi_offset 4, -12
 631              		.cfi_offset 7, -8
 632              		.cfi_offset 14, -4
 633 0002 83B0     		sub	sp, sp, #12
 634              		.cfi_def_cfa_offset 24
 635 0004 00AF     		add	r7, sp, #0
 636              		.cfi_def_cfa_register 7
 103:.\lib_DB/database.c ****     uint32_t tmpData;
ARM GAS  C:\Users\Petro\AppData\Local\Temp\cc1vRKnf.s 			page 14


 104:.\lib_DB/database.c ****     if (skiersFinished == 0)
 637              		.loc 1 104 0
 638 0006 0F4B     		ldr	r3, .L36
 639 0008 1B88     		ldrh	r3, [r3]
 640 000a 002B     		cmp	r3, #0
 641 000c 07D1     		bne	.L33
 105:.\lib_DB/database.c ****     {
 106:.\lib_DB/database.c ****         tmpData = skierDB[MAX_SKIERS_ON_DB].secondsWay;
 642              		.loc 1 106 0
 643 000e 0E4A     		ldr	r2, .L36+4
 644 0010 E223     		mov	r3, #226
 645 0012 5B01     		lsl	r3, r3, #5
 646 0014 D318     		add	r3, r2, r3
 647 0016 5C68     		ldr	r4, [r3, #4]
 648 0018 1B68     		ldr	r3, [r3]
 649 001a 7B60     		str	r3, [r7, #4]
 650 001c 0CE0     		b	.L34
 651              	.L33:
 107:.\lib_DB/database.c ****     }
 108:.\lib_DB/database.c ****     else
 109:.\lib_DB/database.c ****     {
 110:.\lib_DB/database.c ****         tmpData = skierDB[skiersFinished-1].secondsWay;
 652              		.loc 1 110 0
 653 001e 094B     		ldr	r3, .L36
 654 0020 1B88     		ldrh	r3, [r3]
 655 0022 5A1E     		sub	r2, r3, #1
 656 0024 0849     		ldr	r1, .L36+4
 657 0026 131C     		mov	r3, r2
 658 0028 5B00     		lsl	r3, r3, #1
 659 002a 9B18     		add	r3, r3, r2
 660 002c 1B01     		lsl	r3, r3, #4
 661 002e CB18     		add	r3, r1, r3
 662 0030 2033     		add	r3, r3, #32
 663 0032 5C68     		ldr	r4, [r3, #4]
 664 0034 1B68     		ldr	r3, [r3]
 665 0036 7B60     		str	r3, [r7, #4]
 666              	.L34:
 111:.\lib_DB/database.c ****     }
 112:.\lib_DB/database.c ****     return tmpData;
 667              		.loc 1 112 0
 668 0038 7B68     		ldr	r3, [r7, #4]
 113:.\lib_DB/database.c **** }
 669              		.loc 1 113 0
 670 003a 181C     		mov	r0, r3
 671 003c BD46     		mov	sp, r7
 672 003e 03B0     		add	sp, sp, #12
 673              		@ sp needed
 674 0040 90BD     		pop	{r4, r7, pc}
 675              	.L37:
 676 0042 C046     		.align	2
 677              	.L36:
 678 0044 00000000 		.word	skiersFinished
 679 0048 00000000 		.word	skierDB
 680              		.cfi_endproc
 681              	.LFE10:
 682              		.size	LastSecTimeOnWay, .-LastSecTimeOnWay
 683              		.section	.text.LastMillsTimeOnWay,"ax",%progbits
ARM GAS  C:\Users\Petro\AppData\Local\Temp\cc1vRKnf.s 			page 15


 684              		.align	2
 685              		.global	LastMillsTimeOnWay
 686              		.code	16
 687              		.thumb_func
 688              		.type	LastMillsTimeOnWay, %function
 689              	LastMillsTimeOnWay:
 690              	.LFB11:
 114:.\lib_DB/database.c **** 
 115:.\lib_DB/database.c **** uint32_t LastMillsTimeOnWay()
 116:.\lib_DB/database.c **** {
 691              		.loc 1 116 0
 692              		.cfi_startproc
 693 0000 80B5     		push	{r7, lr}
 694              		.cfi_def_cfa_offset 8
 695              		.cfi_offset 7, -8
 696              		.cfi_offset 14, -4
 697 0002 82B0     		sub	sp, sp, #8
 698              		.cfi_def_cfa_offset 16
 699 0004 00AF     		add	r7, sp, #0
 700              		.cfi_def_cfa_register 7
 117:.\lib_DB/database.c ****     uint32_t tmpData;
 118:.\lib_DB/database.c ****     if (skiersFinished == 0)
 701              		.loc 1 118 0
 702 0006 0D4B     		ldr	r3, .L42
 703 0008 1B88     		ldrh	r3, [r3]
 704 000a 002B     		cmp	r3, #0
 705 000c 04D1     		bne	.L39
 119:.\lib_DB/database.c ****     {
 120:.\lib_DB/database.c ****         tmpData = skierDB[MAX_SKIERS_ON_DB].millsWay;
 706              		.loc 1 120 0
 707 000e 0C4B     		ldr	r3, .L42+4
 708 0010 0C4A     		ldr	r2, .L42+8
 709 0012 9B5A     		ldrh	r3, [r3, r2]
 710 0014 7B60     		str	r3, [r7, #4]
 711 0016 0BE0     		b	.L40
 712              	.L39:
 121:.\lib_DB/database.c ****     }
 122:.\lib_DB/database.c ****     else
 123:.\lib_DB/database.c ****     {
 124:.\lib_DB/database.c ****         tmpData = skierDB[skiersFinished-1].millsWay;
 713              		.loc 1 124 0
 714 0018 084B     		ldr	r3, .L42
 715 001a 1B88     		ldrh	r3, [r3]
 716 001c 5A1E     		sub	r2, r3, #1
 717 001e 0849     		ldr	r1, .L42+4
 718 0020 131C     		mov	r3, r2
 719 0022 5B00     		lsl	r3, r3, #1
 720 0024 9B18     		add	r3, r3, r2
 721 0026 1B01     		lsl	r3, r3, #4
 722 0028 CB18     		add	r3, r1, r3
 723 002a 2833     		add	r3, r3, #40
 724 002c 1B88     		ldrh	r3, [r3]
 725 002e 7B60     		str	r3, [r7, #4]
 726              	.L40:
 125:.\lib_DB/database.c ****     }
 126:.\lib_DB/database.c ****     return tmpData;
 727              		.loc 1 126 0
ARM GAS  C:\Users\Petro\AppData\Local\Temp\cc1vRKnf.s 			page 16


 728 0030 7B68     		ldr	r3, [r7, #4]
 127:.\lib_DB/database.c **** }
 729              		.loc 1 127 0
 730 0032 181C     		mov	r0, r3
 731 0034 BD46     		mov	sp, r7
 732 0036 02B0     		add	sp, sp, #8
 733              		@ sp needed
 734 0038 80BD     		pop	{r7, pc}
 735              	.L43:
 736 003a C046     		.align	2
 737              	.L42:
 738 003c 00000000 		.word	skiersFinished
 739 0040 00000000 		.word	skierDB
 740 0044 481C0000 		.word	7240
 741              		.cfi_endproc
 742              	.LFE11:
 743              		.size	LastMillsTimeOnWay, .-LastMillsTimeOnWay
 744              		.section	.text.FifoGetSize,"ax",%progbits
 745              		.align	2
 746              		.global	FifoGetSize
 747              		.code	16
 748              		.thumb_func
 749              		.type	FifoGetSize, %function
 750              	FifoGetSize:
 751              	.LFB12:
 128:.\lib_DB/database.c **** 
 129:.\lib_DB/database.c **** 
 130:.\lib_DB/database.c **** /*FIFO*/
 131:.\lib_DB/database.c **** uint16_t FifoGetSize(void)
 132:.\lib_DB/database.c **** {
 752              		.loc 1 132 0
 753              		.cfi_startproc
 754 0000 80B5     		push	{r7, lr}
 755              		.cfi_def_cfa_offset 8
 756              		.cfi_offset 7, -8
 757              		.cfi_offset 14, -4
 758 0002 00AF     		add	r7, sp, #0
 759              		.cfi_def_cfa_register 7
 133:.\lib_DB/database.c ****     return fifo.size;
 760              		.loc 1 133 0
 761 0004 024B     		ldr	r3, .L46
 762 0006 1B88     		ldrh	r3, [r3]
 134:.\lib_DB/database.c **** }
 763              		.loc 1 134 0
 764 0008 181C     		mov	r0, r3
 765 000a BD46     		mov	sp, r7
 766              		@ sp needed
 767 000c 80BD     		pop	{r7, pc}
 768              	.L47:
 769 000e C046     		.align	2
 770              	.L46:
 771 0010 00000000 		.word	fifo
 772              		.cfi_endproc
 773              	.LFE12:
 774              		.size	FifoGetSize, .-FifoGetSize
 775              		.section	.text.FifoPush,"ax",%progbits
 776              		.align	2
ARM GAS  C:\Users\Petro\AppData\Local\Temp\cc1vRKnf.s 			page 17


 777              		.global	FifoPush
 778              		.code	16
 779              		.thumb_func
 780              		.type	FifoPush, %function
 781              	FifoPush:
 782              	.LFB13:
 135:.\lib_DB/database.c **** 
 136:.\lib_DB/database.c **** void FifoPush(skierDB_El data)
 137:.\lib_DB/database.c **** {
 783              		.loc 1 137 0
 784              		.cfi_startproc
 785 0000 84B0     		sub	sp, sp, #16
 786              		.cfi_def_cfa_offset 16
 787 0002 98B5     		push	{r3, r4, r7, lr}
 788              		.cfi_def_cfa_offset 32
 789              		.cfi_offset 3, -32
 790              		.cfi_offset 4, -28
 791              		.cfi_offset 7, -24
 792              		.cfi_offset 14, -20
 793 0004 00AF     		add	r7, sp, #0
 794              		.cfi_def_cfa_register 7
 795 0006 1024     		mov	r4, #16
 796 0008 3C19     		add	r4, r7, r4
 797 000a 2060     		str	r0, [r4]
 798 000c 6160     		str	r1, [r4, #4]
 799 000e A260     		str	r2, [r4, #8]
 800 0010 E360     		str	r3, [r4, #12]
 138:.\lib_DB/database.c ****     if (fifo.size<fifo.totalSize)           
 801              		.loc 1 138 0
 802 0012 194B     		ldr	r3, .L50
 803 0014 1A88     		ldrh	r2, [r3]
 804 0016 184B     		ldr	r3, .L50
 805 0018 DB88     		ldrh	r3, [r3, #6]
 806 001a 9A42     		cmp	r2, r3
 807 001c 26D2     		bcs	.L48
 139:.\lib_DB/database.c ****     {                                                  
 140:.\lib_DB/database.c ****         ++fifo.size;                               
 808              		.loc 1 140 0
 809 001e 164B     		ldr	r3, .L50
 810 0020 1B88     		ldrh	r3, [r3]
 811 0022 0133     		add	r3, r3, #1
 812 0024 9AB2     		uxth	r2, r3
 813 0026 144B     		ldr	r3, .L50
 814 0028 1A80     		strh	r2, [r3]
 141:.\lib_DB/database.c ****                                                        
 142:.\lib_DB/database.c ****         fifo.buffer[fifo.lastElement++] = data;  
 815              		.loc 1 142 0
 816 002a 134B     		ldr	r3, .L50
 817 002c 9B88     		ldrh	r3, [r3, #4]
 818 002e 5A1C     		add	r2, r3, #1
 819 0030 91B2     		uxth	r1, r2
 820 0032 114A     		ldr	r2, .L50
 821 0034 9180     		strh	r1, [r2, #4]
 822 0036 181C     		mov	r0, r3
 823 0038 0F4A     		ldr	r2, .L50
 824 003a 0821     		mov	r1, #8
 825 003c 031C     		mov	r3, r0
ARM GAS  C:\Users\Petro\AppData\Local\Temp\cc1vRKnf.s 			page 18


 826 003e 5B00     		lsl	r3, r3, #1
 827 0040 1B18     		add	r3, r3, r0
 828 0042 1B01     		lsl	r3, r3, #4
 829 0044 D318     		add	r3, r2, r3
 830 0046 5B18     		add	r3, r3, r1
 831 0048 1022     		mov	r2, #16
 832 004a BA18     		add	r2, r7, r2
 833 004c 191C     		mov	r1, r3
 834 004e 3023     		mov	r3, #48
 835 0050 081C     		mov	r0, r1
 836 0052 111C     		mov	r1, r2
 837 0054 1A1C     		mov	r2, r3
 838 0056 FFF7FEFF 		bl	memcpy
 143:.\lib_DB/database.c ****                                                        
 144:.\lib_DB/database.c ****         if (fifo.lastElement == fifo.totalSize) 
 839              		.loc 1 144 0
 840 005a 074B     		ldr	r3, .L50
 841 005c 9A88     		ldrh	r2, [r3, #4]
 842 005e 064B     		ldr	r3, .L50
 843 0060 DB88     		ldrh	r3, [r3, #6]
 844 0062 9A42     		cmp	r2, r3
 845 0064 02D1     		bne	.L48
 145:.\lib_DB/database.c ****             fifo.lastElement = 0;
 846              		.loc 1 145 0
 847 0066 044B     		ldr	r3, .L50
 848 0068 0022     		mov	r2, #0
 849 006a 9A80     		strh	r2, [r3, #4]
 850              	.L48:
 146:.\lib_DB/database.c ****     }  
 147:.\lib_DB/database.c **** }
 851              		.loc 1 147 0
 852 006c BD46     		mov	sp, r7
 853              		@ sp needed
 854 006e 98BC     		pop	{r3, r4, r7}
 855 0070 08BC     		pop	{r3}
 856 0072 04B0     		add	sp, sp, #16
 857 0074 1847     		bx	r3
 858              	.L51:
 859 0076 C046     		.align	2
 860              	.L50:
 861 0078 00000000 		.word	fifo
 862              		.cfi_endproc
 863              	.LFE13:
 864              		.size	FifoPush, .-FifoPush
 865              		.section	.text.FifoGet,"ax",%progbits
 866              		.align	2
 867              		.global	FifoGet
 868              		.code	16
 869              		.thumb_func
 870              		.type	FifoGet, %function
 871              	FifoGet:
 872              	.LFB14:
 148:.\lib_DB/database.c **** 
 149:.\lib_DB/database.c **** void FifoGet(skierDB_El *data)                    
 150:.\lib_DB/database.c **** {                                                   
 873              		.loc 1 150 0
 874              		.cfi_startproc
ARM GAS  C:\Users\Petro\AppData\Local\Temp\cc1vRKnf.s 			page 19


 875 0000 90B5     		push	{r4, r7, lr}
 876              		.cfi_def_cfa_offset 12
 877              		.cfi_offset 4, -12
 878              		.cfi_offset 7, -8
 879              		.cfi_offset 14, -4
 880 0002 83B0     		sub	sp, sp, #12
 881              		.cfi_def_cfa_offset 24
 882 0004 00AF     		add	r7, sp, #0
 883              		.cfi_def_cfa_register 7
 884 0006 7860     		str	r0, [r7, #4]
 151:.\lib_DB/database.c ****     if (fifo.size != 0)                             
 885              		.loc 1 151 0
 886 0008 164B     		ldr	r3, .L55
 887 000a 1B88     		ldrh	r3, [r3]
 888 000c 002B     		cmp	r3, #0
 889 000e 26D0     		beq	.L52
 152:.\lib_DB/database.c ****     {                                                           
 153:.\lib_DB/database.c ****         *data = fifo.buffer[fifo.firstElement++];
 890              		.loc 1 153 0
 891 0010 144B     		ldr	r3, .L55
 892 0012 5B88     		ldrh	r3, [r3, #2]
 893 0014 5A1C     		add	r2, r3, #1
 894 0016 91B2     		uxth	r1, r2
 895 0018 124A     		ldr	r2, .L55
 896 001a 5180     		strh	r1, [r2, #2]
 897 001c 181C     		mov	r0, r3
 898 001e 7C68     		ldr	r4, [r7, #4]
 899 0020 104A     		ldr	r2, .L55
 900 0022 0821     		mov	r1, #8
 901 0024 031C     		mov	r3, r0
 902 0026 5B00     		lsl	r3, r3, #1
 903 0028 1B18     		add	r3, r3, r0
 904 002a 1B01     		lsl	r3, r3, #4
 905 002c D318     		add	r3, r2, r3
 906 002e 5B18     		add	r3, r3, r1
 907 0030 211C     		mov	r1, r4
 908 0032 1A1C     		mov	r2, r3
 909 0034 3023     		mov	r3, #48
 910 0036 081C     		mov	r0, r1
 911 0038 111C     		mov	r1, r2
 912 003a 1A1C     		mov	r2, r3
 913 003c FFF7FEFF 		bl	memcpy
 154:.\lib_DB/database.c ****                                                         
 155:.\lib_DB/database.c ****         if (fifo.firstElement == fifo.totalSize) 
 914              		.loc 1 155 0
 915 0040 084B     		ldr	r3, .L55
 916 0042 5A88     		ldrh	r2, [r3, #2]
 917 0044 074B     		ldr	r3, .L55
 918 0046 DB88     		ldrh	r3, [r3, #6]
 919 0048 9A42     		cmp	r2, r3
 920 004a 02D1     		bne	.L54
 156:.\lib_DB/database.c ****             fifo.firstElement = 0;  
 921              		.loc 1 156 0
 922 004c 054B     		ldr	r3, .L55
 923 004e 0022     		mov	r2, #0
 924 0050 5A80     		strh	r2, [r3, #2]
 925              	.L54:
ARM GAS  C:\Users\Petro\AppData\Local\Temp\cc1vRKnf.s 			page 20


 157:.\lib_DB/database.c ****         
 158:.\lib_DB/database.c ****         --fifo.size;                               
 926              		.loc 1 158 0
 927 0052 044B     		ldr	r3, .L55
 928 0054 1B88     		ldrh	r3, [r3]
 929 0056 013B     		sub	r3, r3, #1
 930 0058 9AB2     		uxth	r2, r3
 931 005a 024B     		ldr	r3, .L55
 932 005c 1A80     		strh	r2, [r3]
 933              	.L52:
 159:.\lib_DB/database.c ****     }                                                  
 160:.\lib_DB/database.c **** }
 934              		.loc 1 160 0
 935 005e BD46     		mov	sp, r7
 936 0060 03B0     		add	sp, sp, #12
 937              		@ sp needed
 938 0062 90BD     		pop	{r4, r7, pc}
 939              	.L56:
 940              		.align	2
 941              	.L55:
 942 0064 00000000 		.word	fifo
 943              		.cfi_endproc
 944              	.LFE14:
 945              		.size	FifoGet, .-FifoGet
 946              		.section	.text.FifoPushLast,"ax",%progbits
 947              		.align	2
 948              		.global	FifoPushLast
 949              		.code	16
 950              		.thumb_func
 951              		.type	FifoPushLast, %function
 952              	FifoPushLast:
 953              	.LFB15:
 161:.\lib_DB/database.c **** 
 162:.\lib_DB/database.c **** void FifoPushLast(skierDB_El data)
 163:.\lib_DB/database.c **** {
 954              		.loc 1 163 0
 955              		.cfi_startproc
 956 0000 84B0     		sub	sp, sp, #16
 957              		.cfi_def_cfa_offset 16
 958 0002 98B5     		push	{r3, r4, r7, lr}
 959              		.cfi_def_cfa_offset 32
 960              		.cfi_offset 3, -32
 961              		.cfi_offset 4, -28
 962              		.cfi_offset 7, -24
 963              		.cfi_offset 14, -20
 964 0004 00AF     		add	r7, sp, #0
 965              		.cfi_def_cfa_register 7
 966 0006 1024     		mov	r4, #16
 967 0008 3C19     		add	r4, r7, r4
 968 000a 2060     		str	r0, [r4]
 969 000c 6160     		str	r1, [r4, #4]
 970 000e A260     		str	r2, [r4, #8]
 971 0010 E360     		str	r3, [r4, #12]
 164:.\lib_DB/database.c ****     fifo.last = data;
 972              		.loc 1 164 0
 973 0012 074A     		ldr	r2, .L58
 974 0014 9223     		mov	r3, #146
ARM GAS  C:\Users\Petro\AppData\Local\Temp\cc1vRKnf.s 			page 21


 975 0016 9B00     		lsl	r3, r3, #2
 976 0018 1021     		mov	r1, #16
 977 001a 7918     		add	r1, r7, r1
 978 001c D318     		add	r3, r2, r3
 979 001e 3022     		mov	r2, #48
 980 0020 181C     		mov	r0, r3
 981 0022 FFF7FEFF 		bl	memcpy
 165:.\lib_DB/database.c **** }
 982              		.loc 1 165 0
 983 0026 BD46     		mov	sp, r7
 984              		@ sp needed
 985 0028 98BC     		pop	{r3, r4, r7}
 986 002a 08BC     		pop	{r3}
 987 002c 04B0     		add	sp, sp, #16
 988 002e 1847     		bx	r3
 989              	.L59:
 990              		.align	2
 991              	.L58:
 992 0030 00000000 		.word	fifo
 993              		.cfi_endproc
 994              	.LFE15:
 995              		.size	FifoPushLast, .-FifoPushLast
 996              		.text
 997              	.Letext0:
 998              		.file 2 "c:\\program files (x86)\\cypress\\psoc creator\\3.3\\psoc creator\\import\\gnu\\arm\\4.9.
 999              		.file 3 "c:\\program files (x86)\\cypress\\psoc creator\\3.3\\psoc creator\\import\\gnu\\arm\\4.9.
 1000              		.file 4 "./lib_DB\\database.h"
 1001              		.file 5 "./lib_Fat\\ff.h"
 1002              		.section	.debug_info,"",%progbits
 1003              	.Ldebug_info0:
 1004 0000 52050000 		.4byte	0x552
 1005 0004 0400     		.2byte	0x4
 1006 0006 00000000 		.4byte	.Ldebug_abbrev0
 1007 000a 04       		.byte	0x4
 1008 000b 01       		.uleb128 0x1
 1009 000c 56040000 		.4byte	.LASF81
 1010 0010 01       		.byte	0x1
 1011 0011 42040000 		.4byte	.LASF82
 1012 0015 00020000 		.4byte	.LASF83
 1013 0019 00000000 		.4byte	.Ldebug_ranges0+0
 1014 001d 00000000 		.4byte	0
 1015 0021 00000000 		.4byte	.Ldebug_line0
 1016 0025 02       		.uleb128 0x2
 1017 0026 01       		.byte	0x1
 1018 0027 06       		.byte	0x6
 1019 0028 88000000 		.4byte	.LASF0
 1020 002c 02       		.uleb128 0x2
 1021 002d 01       		.byte	0x1
 1022 002e 08       		.byte	0x8
 1023 002f 60030000 		.4byte	.LASF1
 1024 0033 02       		.uleb128 0x2
 1025 0034 02       		.byte	0x2
 1026 0035 05       		.byte	0x5
 1027 0036 6E030000 		.4byte	.LASF2
 1028 003a 03       		.uleb128 0x3
 1029 003b EC030000 		.4byte	.LASF5
 1030 003f 02       		.byte	0x2
ARM GAS  C:\Users\Petro\AppData\Local\Temp\cc1vRKnf.s 			page 22


 1031 0040 2B       		.byte	0x2b
 1032 0041 45000000 		.4byte	0x45
 1033 0045 02       		.uleb128 0x2
 1034 0046 02       		.byte	0x2
 1035 0047 07       		.byte	0x7
 1036 0048 ED010000 		.4byte	.LASF3
 1037 004c 02       		.uleb128 0x2
 1038 004d 04       		.byte	0x4
 1039 004e 05       		.byte	0x5
 1040 004f C7000000 		.4byte	.LASF4
 1041 0053 03       		.uleb128 0x3
 1042 0054 61010000 		.4byte	.LASF6
 1043 0058 02       		.byte	0x2
 1044 0059 41       		.byte	0x41
 1045 005a 5E000000 		.4byte	0x5e
 1046 005e 02       		.uleb128 0x2
 1047 005f 04       		.byte	0x4
 1048 0060 07       		.byte	0x7
 1049 0061 A3010000 		.4byte	.LASF7
 1050 0065 02       		.uleb128 0x2
 1051 0066 08       		.byte	0x8
 1052 0067 05       		.byte	0x5
 1053 0068 7A000000 		.4byte	.LASF8
 1054 006c 03       		.uleb128 0x3
 1055 006d 3F030000 		.4byte	.LASF9
 1056 0071 02       		.byte	0x2
 1057 0072 5B       		.byte	0x5b
 1058 0073 77000000 		.4byte	0x77
 1059 0077 02       		.uleb128 0x2
 1060 0078 08       		.byte	0x8
 1061 0079 07       		.byte	0x7
 1062 007a 3C000000 		.4byte	.LASF10
 1063 007e 04       		.uleb128 0x4
 1064 007f 04       		.byte	0x4
 1065 0080 05       		.byte	0x5
 1066 0081 696E7400 		.ascii	"int\000"
 1067 0085 02       		.uleb128 0x2
 1068 0086 04       		.byte	0x4
 1069 0087 07       		.byte	0x7
 1070 0088 7C010000 		.4byte	.LASF11
 1071 008c 03       		.uleb128 0x3
 1072 008d 18010000 		.4byte	.LASF12
 1073 0091 03       		.byte	0x3
 1074 0092 21       		.byte	0x21
 1075 0093 3A000000 		.4byte	0x3a
 1076 0097 03       		.uleb128 0x3
 1077 0098 DE030000 		.4byte	.LASF13
 1078 009c 03       		.byte	0x3
 1079 009d 2D       		.byte	0x2d
 1080 009e 53000000 		.4byte	0x53
 1081 00a2 03       		.uleb128 0x3
 1082 00a3 33000000 		.4byte	.LASF14
 1083 00a7 03       		.byte	0x3
 1084 00a8 39       		.byte	0x39
 1085 00a9 6C000000 		.4byte	0x6c
 1086 00ad 05       		.uleb128 0x5
 1087 00ae 30       		.byte	0x30
ARM GAS  C:\Users\Petro\AppData\Local\Temp\cc1vRKnf.s 			page 23


 1088 00af 04       		.byte	0x4
 1089 00b0 1C       		.byte	0x1c
 1090 00b1 FE000000 		.4byte	0xfe
 1091 00b5 06       		.uleb128 0x6
 1092 00b6 AC020000 		.4byte	.LASF15
 1093 00ba 04       		.byte	0x4
 1094 00bb 1E       		.byte	0x1e
 1095 00bc A2000000 		.4byte	0xa2
 1096 00c0 00       		.byte	0
 1097 00c1 06       		.uleb128 0x6
 1098 00c2 53000000 		.4byte	.LASF16
 1099 00c6 04       		.byte	0x4
 1100 00c7 1F       		.byte	0x1f
 1101 00c8 8C000000 		.4byte	0x8c
 1102 00cc 08       		.byte	0x8
 1103 00cd 06       		.uleb128 0x6
 1104 00ce 15030000 		.4byte	.LASF17
 1105 00d2 04       		.byte	0x4
 1106 00d3 20       		.byte	0x20
 1107 00d4 A2000000 		.4byte	0xa2
 1108 00d8 10       		.byte	0x10
 1109 00d9 06       		.uleb128 0x6
 1110 00da CD030000 		.4byte	.LASF18
 1111 00de 04       		.byte	0x4
 1112 00df 21       		.byte	0x21
 1113 00e0 8C000000 		.4byte	0x8c
 1114 00e4 18       		.byte	0x18
 1115 00e5 06       		.uleb128 0x6
 1116 00e6 BC010000 		.4byte	.LASF19
 1117 00ea 04       		.byte	0x4
 1118 00eb 22       		.byte	0x22
 1119 00ec A2000000 		.4byte	0xa2
 1120 00f0 20       		.byte	0x20
 1121 00f1 06       		.uleb128 0x6
 1122 00f2 0C040000 		.4byte	.LASF20
 1123 00f6 04       		.byte	0x4
 1124 00f7 23       		.byte	0x23
 1125 00f8 8C000000 		.4byte	0x8c
 1126 00fc 28       		.byte	0x28
 1127 00fd 00       		.byte	0
 1128 00fe 03       		.uleb128 0x3
 1129 00ff D0000000 		.4byte	.LASF21
 1130 0103 04       		.byte	0x4
 1131 0104 24       		.byte	0x24
 1132 0105 AD000000 		.4byte	0xad
 1133 0109 02       		.uleb128 0x2
 1134 010a 04       		.byte	0x4
 1135 010b 04       		.byte	0x4
 1136 010c 4A030000 		.4byte	.LASF22
 1137 0110 02       		.uleb128 0x2
 1138 0111 08       		.byte	0x8
 1139 0112 04       		.byte	0x4
 1140 0113 21010000 		.4byte	.LASF23
 1141 0117 02       		.uleb128 0x2
 1142 0118 01       		.byte	0x1
 1143 0119 08       		.byte	0x8
 1144 011a E7030000 		.4byte	.LASF24
ARM GAS  C:\Users\Petro\AppData\Local\Temp\cc1vRKnf.s 			page 24


 1145 011e 02       		.uleb128 0x2
 1146 011f 04       		.byte	0x4
 1147 0120 07       		.byte	0x7
 1148 0121 CA020000 		.4byte	.LASF25
 1149 0125 07       		.uleb128 0x7
 1150 0126 01       		.byte	0x1
 1151 0127 05       		.byte	0x5
 1152 0128 DC       		.byte	0xdc
 1153 0129 A6010000 		.4byte	0x1a6
 1154 012d 08       		.uleb128 0x8
 1155 012e F7030000 		.4byte	.LASF26
 1156 0132 00       		.sleb128 0
 1157 0133 08       		.uleb128 0x8
 1158 0134 78020000 		.4byte	.LASF27
 1159 0138 01       		.sleb128 1
 1160 0139 08       		.uleb128 0x8
 1161 013a 6D020000 		.4byte	.LASF28
 1162 013e 02       		.sleb128 2
 1163 013f 08       		.uleb128 0x8
 1164 0140 00000000 		.4byte	.LASF29
 1165 0144 03       		.sleb128 3
 1166 0145 08       		.uleb128 0x8
 1167 0146 0A030000 		.4byte	.LASF30
 1168 014a 04       		.sleb128 4
 1169 014b 08       		.uleb128 0x8
 1170 014c E4040000 		.4byte	.LASF31
 1171 0150 05       		.sleb128 5
 1172 0151 08       		.uleb128 0x8
 1173 0152 15040000 		.4byte	.LASF32
 1174 0156 06       		.sleb128 6
 1175 0157 08       		.uleb128 0x8
 1176 0158 A9030000 		.4byte	.LASF33
 1177 015c 07       		.sleb128 7
 1178 015d 08       		.uleb128 0x8
 1179 015e 3B010000 		.4byte	.LASF34
 1180 0162 08       		.sleb128 8
 1181 0163 08       		.uleb128 0x8
 1182 0164 B5000000 		.4byte	.LASF35
 1183 0168 09       		.sleb128 9
 1184 0169 08       		.uleb128 0x8
 1185 016a 91020000 		.4byte	.LASF36
 1186 016e 0A       		.sleb128 10
 1187 016f 08       		.uleb128 0x8
 1188 0170 78030000 		.4byte	.LASF37
 1189 0174 0B       		.sleb128 11
 1190 0175 08       		.uleb128 0x8
 1191 0176 25030000 		.4byte	.LASF38
 1192 017a 0C       		.sleb128 12
 1193 017b 08       		.uleb128 0x8
 1194 017c 07010000 		.4byte	.LASF39
 1195 0180 0D       		.sleb128 13
 1196 0181 08       		.uleb128 0x8
 1197 0182 B3030000 		.4byte	.LASF40
 1198 0186 0E       		.sleb128 14
 1199 0187 08       		.uleb128 0x8
 1200 0188 F3020000 		.4byte	.LASF41
 1201 018c 0F       		.sleb128 15
ARM GAS  C:\Users\Petro\AppData\Local\Temp\cc1vRKnf.s 			page 25


 1202 018d 08       		.uleb128 0x8
 1203 018e C3030000 		.4byte	.LASF42
 1204 0192 10       		.sleb128 16
 1205 0193 08       		.uleb128 0x8
 1206 0194 28010000 		.4byte	.LASF43
 1207 0198 11       		.sleb128 17
 1208 0199 08       		.uleb128 0x8
 1209 019a 63000000 		.4byte	.LASF44
 1210 019e 12       		.sleb128 18
 1211 019f 08       		.uleb128 0x8
 1212 01a0 94000000 		.4byte	.LASF45
 1213 01a4 13       		.sleb128 19
 1214 01a5 00       		.byte	0
 1215 01a6 09       		.uleb128 0x9
 1216 01a7 FE020000 		.4byte	.LASF84
 1217 01ab 10       		.byte	0x10
 1218 01ac 04       		.byte	0x4
 1219 01ad 28       		.byte	0x28
 1220 01ae D7010000 		.4byte	0x1d7
 1221 01b2 06       		.uleb128 0x6
 1222 01b3 AC020000 		.4byte	.LASF15
 1223 01b7 04       		.byte	0x4
 1224 01b8 2A       		.byte	0x2a
 1225 01b9 A2000000 		.4byte	0xa2
 1226 01bd 00       		.byte	0
 1227 01be 06       		.uleb128 0x6
 1228 01bf 53000000 		.4byte	.LASF16
 1229 01c3 04       		.byte	0x4
 1230 01c4 2B       		.byte	0x2b
 1231 01c5 8C000000 		.4byte	0x8c
 1232 01c9 08       		.byte	0x8
 1233 01ca 06       		.uleb128 0x6
 1234 01cb A4020000 		.4byte	.LASF46
 1235 01cf 04       		.byte	0x4
 1236 01d0 2C       		.byte	0x2c
 1237 01d1 D7010000 		.4byte	0x1d7
 1238 01d5 0C       		.byte	0xc
 1239 01d6 00       		.byte	0
 1240 01d7 0A       		.uleb128 0xa
 1241 01d8 04       		.byte	0x4
 1242 01d9 A6010000 		.4byte	0x1a6
 1243 01dd 0B       		.uleb128 0xb
 1244 01de 7802     		.2byte	0x278
 1245 01e0 04       		.byte	0x4
 1246 01e1 46       		.byte	0x46
 1247 01e2 30020000 		.4byte	0x230
 1248 01e6 06       		.uleb128 0x6
 1249 01e7 E8010000 		.4byte	.LASF47
 1250 01eb 04       		.byte	0x4
 1251 01ec 48       		.byte	0x48
 1252 01ed 8C000000 		.4byte	0x8c
 1253 01f1 00       		.byte	0
 1254 01f2 06       		.uleb128 0x6
 1255 01f3 9C030000 		.4byte	.LASF48
 1256 01f7 04       		.byte	0x4
 1257 01f8 49       		.byte	0x49
 1258 01f9 8C000000 		.4byte	0x8c
ARM GAS  C:\Users\Petro\AppData\Local\Temp\cc1vRKnf.s 			page 26


 1259 01fd 02       		.byte	0x2
 1260 01fe 06       		.uleb128 0x6
 1261 01ff 06050000 		.4byte	.LASF49
 1262 0203 04       		.byte	0x4
 1263 0204 4A       		.byte	0x4a
 1264 0205 8C000000 		.4byte	0x8c
 1265 0209 04       		.byte	0x4
 1266 020a 06       		.uleb128 0x6
 1267 020b 50030000 		.4byte	.LASF50
 1268 020f 04       		.byte	0x4
 1269 0210 4C       		.byte	0x4c
 1270 0211 8C000000 		.4byte	0x8c
 1271 0215 06       		.byte	0x6
 1272 0216 06       		.uleb128 0x6
 1273 0217 05040000 		.4byte	.LASF51
 1274 021b 04       		.byte	0x4
 1275 021c 4E       		.byte	0x4e
 1276 021d 30020000 		.4byte	0x230
 1277 0221 08       		.byte	0x8
 1278 0222 0C       		.uleb128 0xc
 1279 0223 68020000 		.4byte	.LASF52
 1280 0227 04       		.byte	0x4
 1281 0228 50       		.byte	0x50
 1282 0229 FE000000 		.4byte	0xfe
 1283 022d 4802     		.2byte	0x248
 1284 022f 00       		.byte	0
 1285 0230 0D       		.uleb128 0xd
 1286 0231 FE000000 		.4byte	0xfe
 1287 0235 40020000 		.4byte	0x240
 1288 0239 0E       		.uleb128 0xe
 1289 023a 1E010000 		.4byte	0x11e
 1290 023e 0B       		.byte	0xb
 1291 023f 00       		.byte	0
 1292 0240 03       		.uleb128 0x3
 1293 0241 89010000 		.4byte	.LASF53
 1294 0245 04       		.byte	0x4
 1295 0246 51       		.byte	0x51
 1296 0247 DD010000 		.4byte	0x1dd
 1297 024b 0F       		.uleb128 0xf
 1298 024c D5010000 		.4byte	.LASF59
 1299 0250 01       		.byte	0x1
 1300 0251 04       		.byte	0x4
 1301 0252 97000000 		.4byte	0x97
 1302 0256 00000000 		.4byte	.LFB2
 1303 025a 28000000 		.4byte	.LFE2-.LFB2
 1304 025e 01       		.uleb128 0x1
 1305 025f 9C       		.byte	0x9c
 1306 0260 73020000 		.4byte	0x273
 1307 0264 10       		.uleb128 0x10
 1308 0265 FF040000 		.4byte	.LASF54
 1309 0269 01       		.byte	0x1
 1310 026a 06       		.byte	0x6
 1311 026b 97000000 		.4byte	0x97
 1312 026f 02       		.uleb128 0x2
 1313 0270 91       		.byte	0x91
 1314 0271 74       		.sleb128 -12
 1315 0272 00       		.byte	0
ARM GAS  C:\Users\Petro\AppData\Local\Temp\cc1vRKnf.s 			page 27


 1316 0273 11       		.uleb128 0x11
 1317 0274 22000000 		.4byte	.LASF85
 1318 0278 01       		.byte	0x1
 1319 0279 13       		.byte	0x13
 1320 027a 00000000 		.4byte	.LFB3
 1321 027e 5C000000 		.4byte	.LFE3-.LFB3
 1322 0282 01       		.uleb128 0x1
 1323 0283 9C       		.byte	0x9c
 1324 0284 95020000 		.4byte	0x295
 1325 0288 12       		.uleb128 0x12
 1326 0289 6900     		.ascii	"i\000"
 1327 028b 01       		.byte	0x1
 1328 028c 15       		.byte	0x15
 1329 028d 97000000 		.4byte	0x97
 1330 0291 02       		.uleb128 0x2
 1331 0292 91       		.byte	0x91
 1332 0293 74       		.sleb128 -12
 1333 0294 00       		.byte	0
 1334 0295 13       		.uleb128 0x13
 1335 0296 A9000000 		.4byte	.LASF57
 1336 029a 01       		.byte	0x1
 1337 029b 23       		.byte	0x23
 1338 029c 00000000 		.4byte	.LFB4
 1339 02a0 48000000 		.4byte	.LFE4-.LFB4
 1340 02a4 01       		.uleb128 0x1
 1341 02a5 9C       		.byte	0x9c
 1342 02a6 C7020000 		.4byte	0x2c7
 1343 02aa 14       		.uleb128 0x14
 1344 02ab 25040000 		.4byte	.LASF55
 1345 02af 01       		.byte	0x1
 1346 02b0 23       		.byte	0x23
 1347 02b1 A2000000 		.4byte	0xa2
 1348 02b5 02       		.uleb128 0x2
 1349 02b6 91       		.byte	0x91
 1350 02b7 68       		.sleb128 -24
 1351 02b8 14       		.uleb128 0x14
 1352 02b9 6C010000 		.4byte	.LASF56
 1353 02bd 01       		.byte	0x1
 1354 02be 23       		.byte	0x23
 1355 02bf 8C000000 		.4byte	0x8c
 1356 02c3 02       		.uleb128 0x2
 1357 02c4 91       		.byte	0x91
 1358 02c5 66       		.sleb128 -26
 1359 02c6 00       		.byte	0
 1360 02c7 13       		.uleb128 0x13
 1361 02c8 C7010000 		.4byte	.LASF58
 1362 02cc 01       		.byte	0x1
 1363 02cd 2B       		.byte	0x2b
 1364 02ce 00000000 		.4byte	.LFB5
 1365 02d2 44000000 		.4byte	.LFE5-.LFB5
 1366 02d6 01       		.uleb128 0x1
 1367 02d7 9C       		.byte	0x9c
 1368 02d8 F9020000 		.4byte	0x2f9
 1369 02dc 14       		.uleb128 0x14
 1370 02dd 25040000 		.4byte	.LASF55
 1371 02e1 01       		.byte	0x1
 1372 02e2 2B       		.byte	0x2b
ARM GAS  C:\Users\Petro\AppData\Local\Temp\cc1vRKnf.s 			page 28


 1373 02e3 F9020000 		.4byte	0x2f9
 1374 02e7 02       		.uleb128 0x2
 1375 02e8 91       		.byte	0x91
 1376 02e9 6C       		.sleb128 -20
 1377 02ea 14       		.uleb128 0x14
 1378 02eb 6C010000 		.4byte	.LASF56
 1379 02ef 01       		.byte	0x1
 1380 02f0 2B       		.byte	0x2b
 1381 02f1 FF020000 		.4byte	0x2ff
 1382 02f5 02       		.uleb128 0x2
 1383 02f6 91       		.byte	0x91
 1384 02f7 68       		.sleb128 -24
 1385 02f8 00       		.byte	0
 1386 02f9 0A       		.uleb128 0xa
 1387 02fa 04       		.byte	0x4
 1388 02fb A2000000 		.4byte	0xa2
 1389 02ff 0A       		.uleb128 0xa
 1390 0300 04       		.byte	0x4
 1391 0301 8C000000 		.4byte	0x8c
 1392 0305 0F       		.uleb128 0xf
 1393 0306 BB020000 		.4byte	.LASF60
 1394 030a 01       		.byte	0x1
 1395 030b 34       		.byte	0x34
 1396 030c 3B030000 		.4byte	0x33b
 1397 0310 00000000 		.4byte	.LFB6
 1398 0314 28000000 		.4byte	.LFE6-.LFB6
 1399 0318 01       		.uleb128 0x1
 1400 0319 9C       		.byte	0x9c
 1401 031a 3B030000 		.4byte	0x33b
 1402 031e 14       		.uleb128 0x14
 1403 031f 25040000 		.4byte	.LASF55
 1404 0323 01       		.byte	0x1
 1405 0324 34       		.byte	0x34
 1406 0325 A2000000 		.4byte	0xa2
 1407 0329 02       		.uleb128 0x2
 1408 032a 91       		.byte	0x91
 1409 032b 68       		.sleb128 -24
 1410 032c 14       		.uleb128 0x14
 1411 032d 6C010000 		.4byte	.LASF56
 1412 0331 01       		.byte	0x1
 1413 0332 34       		.byte	0x34
 1414 0333 8C000000 		.4byte	0x8c
 1415 0337 02       		.uleb128 0x2
 1416 0338 91       		.byte	0x91
 1417 0339 66       		.sleb128 -26
 1418 033a 00       		.byte	0
 1419 033b 02       		.uleb128 0x2
 1420 033c 01       		.byte	0x1
 1421 033d 02       		.byte	0x2
 1422 033e 5A030000 		.4byte	.LASF61
 1423 0342 0F       		.uleb128 0xf
 1424 0343 F7000000 		.4byte	.LASF62
 1425 0347 01       		.byte	0x1
 1426 0348 45       		.byte	0x45
 1427 0349 3B030000 		.4byte	0x33b
 1428 034d 00000000 		.4byte	.LFB7
 1429 0351 AC000000 		.4byte	.LFE7-.LFB7
ARM GAS  C:\Users\Petro\AppData\Local\Temp\cc1vRKnf.s 			page 29


 1430 0355 01       		.uleb128 0x1
 1431 0356 9C       		.byte	0x9c
 1432 0357 78030000 		.4byte	0x378
 1433 035b 14       		.uleb128 0x14
 1434 035c 25040000 		.4byte	.LASF55
 1435 0360 01       		.byte	0x1
 1436 0361 45       		.byte	0x45
 1437 0362 A2000000 		.4byte	0xa2
 1438 0366 02       		.uleb128 0x2
 1439 0367 91       		.byte	0x91
 1440 0368 68       		.sleb128 -24
 1441 0369 14       		.uleb128 0x14
 1442 036a 6C010000 		.4byte	.LASF56
 1443 036e 01       		.byte	0x1
 1444 036f 45       		.byte	0x45
 1445 0370 8C000000 		.4byte	0x8c
 1446 0374 02       		.uleb128 0x2
 1447 0375 91       		.byte	0x91
 1448 0376 66       		.sleb128 -26
 1449 0377 00       		.byte	0
 1450 0378 15       		.uleb128 0x15
 1451 0379 EC000000 		.4byte	.LASF86
 1452 037d 01       		.byte	0x1
 1453 037e 54       		.byte	0x54
 1454 037f 97000000 		.4byte	0x97
 1455 0383 00000000 		.4byte	.LFB8
 1456 0387 14000000 		.4byte	.LFE8-.LFB8
 1457 038b 01       		.uleb128 0x1
 1458 038c 9C       		.byte	0x9c
 1459 038d 16       		.uleb128 0x16
 1460 038e 72010000 		.4byte	.LASF63
 1461 0392 01       		.byte	0x1
 1462 0393 59       		.byte	0x59
 1463 0394 97000000 		.4byte	0x97
 1464 0398 00000000 		.4byte	.LFB9
 1465 039c 08010000 		.4byte	.LFE9-.LFB9
 1466 03a0 01       		.uleb128 0x1
 1467 03a1 9C       		.byte	0x9c
 1468 03a2 B5030000 		.4byte	0x3b5
 1469 03a6 14       		.uleb128 0x14
 1470 03a7 B5010000 		.4byte	.LASF64
 1471 03ab 01       		.byte	0x1
 1472 03ac 59       		.byte	0x59
 1473 03ad 97000000 		.4byte	0x97
 1474 03b1 02       		.uleb128 0x2
 1475 03b2 91       		.byte	0x91
 1476 03b3 6C       		.sleb128 -20
 1477 03b4 00       		.byte	0
 1478 03b5 17       		.uleb128 0x17
 1479 03b6 DB000000 		.4byte	.LASF65
 1480 03ba 01       		.byte	0x1
 1481 03bb 65       		.byte	0x65
 1482 03bc 97000000 		.4byte	0x97
 1483 03c0 00000000 		.4byte	.LFB10
 1484 03c4 4C000000 		.4byte	.LFE10-.LFB10
 1485 03c8 01       		.uleb128 0x1
 1486 03c9 9C       		.byte	0x9c
ARM GAS  C:\Users\Petro\AppData\Local\Temp\cc1vRKnf.s 			page 30


 1487 03ca DD030000 		.4byte	0x3dd
 1488 03ce 10       		.uleb128 0x10
 1489 03cf 2B000000 		.4byte	.LASF66
 1490 03d3 01       		.byte	0x1
 1491 03d4 67       		.byte	0x67
 1492 03d5 97000000 		.4byte	0x97
 1493 03d9 02       		.uleb128 0x2
 1494 03da 91       		.byte	0x91
 1495 03db 6C       		.sleb128 -20
 1496 03dc 00       		.byte	0
 1497 03dd 17       		.uleb128 0x17
 1498 03de 89030000 		.4byte	.LASF67
 1499 03e2 01       		.byte	0x1
 1500 03e3 73       		.byte	0x73
 1501 03e4 97000000 		.4byte	0x97
 1502 03e8 00000000 		.4byte	.LFB11
 1503 03ec 48000000 		.4byte	.LFE11-.LFB11
 1504 03f0 01       		.uleb128 0x1
 1505 03f1 9C       		.byte	0x9c
 1506 03f2 05040000 		.4byte	0x405
 1507 03f6 10       		.uleb128 0x10
 1508 03f7 2B000000 		.4byte	.LASF66
 1509 03fb 01       		.byte	0x1
 1510 03fc 75       		.byte	0x75
 1511 03fd 97000000 		.4byte	0x97
 1512 0401 02       		.uleb128 0x2
 1513 0402 91       		.byte	0x91
 1514 0403 74       		.sleb128 -12
 1515 0404 00       		.byte	0
 1516 0405 18       		.uleb128 0x18
 1517 0406 97010000 		.4byte	.LASF87
 1518 040a 01       		.byte	0x1
 1519 040b 83       		.byte	0x83
 1520 040c 8C000000 		.4byte	0x8c
 1521 0410 00000000 		.4byte	.LFB12
 1522 0414 14000000 		.4byte	.LFE12-.LFB12
 1523 0418 01       		.uleb128 0x1
 1524 0419 9C       		.byte	0x9c
 1525 041a 19       		.uleb128 0x19
 1526 041b 58010000 		.4byte	.LASF68
 1527 041f 01       		.byte	0x1
 1528 0420 88       		.byte	0x88
 1529 0421 00000000 		.4byte	.LFB13
 1530 0425 7C000000 		.4byte	.LFE13-.LFB13
 1531 0429 01       		.uleb128 0x1
 1532 042a 9C       		.byte	0x9c
 1533 042b 3E040000 		.4byte	0x43e
 1534 042f 14       		.uleb128 0x14
 1535 0430 E3010000 		.4byte	.LASF69
 1536 0434 01       		.byte	0x1
 1537 0435 88       		.byte	0x88
 1538 0436 FE000000 		.4byte	0xfe
 1539 043a 02       		.uleb128 0x2
 1540 043b 91       		.byte	0x91
 1541 043c 70       		.sleb128 -16
 1542 043d 00       		.byte	0
 1543 043e 19       		.uleb128 0x19
ARM GAS  C:\Users\Petro\AppData\Local\Temp\cc1vRKnf.s 			page 31


 1544 043f 60020000 		.4byte	.LASF70
 1545 0443 01       		.byte	0x1
 1546 0444 95       		.byte	0x95
 1547 0445 00000000 		.4byte	.LFB14
 1548 0449 68000000 		.4byte	.LFE14-.LFB14
 1549 044d 01       		.uleb128 0x1
 1550 044e 9C       		.byte	0x9c
 1551 044f 62040000 		.4byte	0x462
 1552 0453 14       		.uleb128 0x14
 1553 0454 E3010000 		.4byte	.LASF69
 1554 0458 01       		.byte	0x1
 1555 0459 95       		.byte	0x95
 1556 045a 62040000 		.4byte	0x462
 1557 045e 02       		.uleb128 0x2
 1558 045f 91       		.byte	0x91
 1559 0460 6C       		.sleb128 -20
 1560 0461 00       		.byte	0
 1561 0462 0A       		.uleb128 0xa
 1562 0463 04       		.byte	0x4
 1563 0464 FE000000 		.4byte	0xfe
 1564 0468 19       		.uleb128 0x19
 1565 0469 84020000 		.4byte	.LASF71
 1566 046d 01       		.byte	0x1
 1567 046e A2       		.byte	0xa2
 1568 046f 00000000 		.4byte	.LFB15
 1569 0473 34000000 		.4byte	.LFE15-.LFB15
 1570 0477 01       		.uleb128 0x1
 1571 0478 9C       		.byte	0x9c
 1572 0479 8C040000 		.4byte	0x48c
 1573 047d 14       		.uleb128 0x14
 1574 047e E3010000 		.4byte	.LASF69
 1575 0482 01       		.byte	0x1
 1576 0483 A2       		.byte	0xa2
 1577 0484 FE000000 		.4byte	0xfe
 1578 0488 02       		.uleb128 0x2
 1579 0489 91       		.byte	0x91
 1580 048a 70       		.sleb128 -16
 1581 048b 00       		.byte	0
 1582 048c 0D       		.uleb128 0xd
 1583 048d A6010000 		.4byte	0x1a6
 1584 0491 9C040000 		.4byte	0x49c
 1585 0495 0E       		.uleb128 0xe
 1586 0496 1E010000 		.4byte	0x11e
 1587 049a 07       		.byte	0x7
 1588 049b 00       		.byte	0
 1589 049c 1A       		.uleb128 0x1a
 1590 049d D3020000 		.4byte	.LASF72
 1591 04a1 04       		.byte	0x4
 1592 04a2 2D       		.byte	0x2d
 1593 04a3 8C040000 		.4byte	0x48c
 1594 04a7 05       		.uleb128 0x5
 1595 04a8 03       		.byte	0x3
 1596 04a9 00000000 		.4byte	bufferSkiersOnWay
 1597 04ad 0D       		.uleb128 0xd
 1598 04ae FE000000 		.4byte	0xfe
 1599 04b2 BD040000 		.4byte	0x4bd
 1600 04b6 0E       		.uleb128 0xe
ARM GAS  C:\Users\Petro\AppData\Local\Temp\cc1vRKnf.s 			page 32


 1601 04b7 1E010000 		.4byte	0x11e
 1602 04bb 07       		.byte	0x7
 1603 04bc 00       		.byte	0
 1604 04bd 1A       		.uleb128 0x1a
 1605 04be 34030000 		.4byte	.LASF73
 1606 04c2 04       		.byte	0x4
 1607 04c3 2F       		.byte	0x2f
 1608 04c4 AD040000 		.4byte	0x4ad
 1609 04c8 05       		.uleb128 0x5
 1610 04c9 03       		.byte	0x3
 1611 04ca 00000000 		.4byte	bufferFifo
 1612 04ce 1A       		.uleb128 0x1a
 1613 04cf EF040000 		.4byte	.LASF74
 1614 04d3 04       		.byte	0x4
 1615 04d4 31       		.byte	0x31
 1616 04d5 97000000 		.4byte	0x97
 1617 04d9 05       		.uleb128 0x5
 1618 04da 03       		.byte	0x3
 1619 04db 00000000 		.4byte	currentSizeBuff
 1620 04df 1A       		.uleb128 0x1a
 1621 04e0 44010000 		.4byte	.LASF75
 1622 04e4 04       		.byte	0x4
 1623 04e5 32       		.byte	0x32
 1624 04e6 D7010000 		.4byte	0x1d7
 1625 04ea 05       		.uleb128 0x5
 1626 04eb 03       		.byte	0x3
 1627 04ec 00000000 		.4byte	currentElementStart
 1628 04f0 1A       		.uleb128 0x1a
 1629 04f1 0D000000 		.4byte	.LASF76
 1630 04f5 04       		.byte	0x4
 1631 04f6 33       		.byte	0x33
 1632 04f7 D7010000 		.4byte	0x1d7
 1633 04fb 05       		.uleb128 0x5
 1634 04fc 03       		.byte	0x3
 1635 04fd 00000000 		.4byte	currentElementFinish
 1636 0501 1A       		.uleb128 0x1a
 1637 0502 E5020000 		.4byte	.LASF77
 1638 0506 04       		.byte	0x4
 1639 0507 35       		.byte	0x35
 1640 0508 8C000000 		.4byte	0x8c
 1641 050c 05       		.uleb128 0x5
 1642 050d 03       		.byte	0x3
 1643 050e 00000000 		.4byte	skiersStarted
 1644 0512 1A       		.uleb128 0x1a
 1645 0513 2E040000 		.4byte	.LASF78
 1646 0517 04       		.byte	0x4
 1647 0518 36       		.byte	0x36
 1648 0519 8C000000 		.4byte	0x8c
 1649 051d 05       		.uleb128 0x5
 1650 051e 03       		.byte	0x3
 1651 051f 00000000 		.4byte	skiersFinished
 1652 0523 0D       		.uleb128 0xd
 1653 0524 FE000000 		.4byte	0xfe
 1654 0528 33050000 		.4byte	0x533
 1655 052c 0E       		.uleb128 0xe
 1656 052d 1E010000 		.4byte	0x11e
 1657 0531 95       		.byte	0x95
ARM GAS  C:\Users\Petro\AppData\Local\Temp\cc1vRKnf.s 			page 33


 1658 0532 00       		.byte	0
 1659 0533 1A       		.uleb128 0x1a
 1660 0534 FD030000 		.4byte	.LASF79
 1661 0538 04       		.byte	0x4
 1662 0539 38       		.byte	0x38
 1663 053a 23050000 		.4byte	0x523
 1664 053e 05       		.uleb128 0x5
 1665 053f 03       		.byte	0x3
 1666 0540 00000000 		.4byte	skierDB
 1667 0544 1A       		.uleb128 0x1a
 1668 0545 3D040000 		.4byte	.LASF80
 1669 0549 04       		.byte	0x4
 1670 054a 53       		.byte	0x53
 1671 054b 40020000 		.4byte	0x240
 1672 054f 05       		.uleb128 0x5
 1673 0550 03       		.byte	0x3
 1674 0551 00000000 		.4byte	fifo
 1675 0555 00       		.byte	0
 1676              		.section	.debug_abbrev,"",%progbits
 1677              	.Ldebug_abbrev0:
 1678 0000 01       		.uleb128 0x1
 1679 0001 11       		.uleb128 0x11
 1680 0002 01       		.byte	0x1
 1681 0003 25       		.uleb128 0x25
 1682 0004 0E       		.uleb128 0xe
 1683 0005 13       		.uleb128 0x13
 1684 0006 0B       		.uleb128 0xb
 1685 0007 03       		.uleb128 0x3
 1686 0008 0E       		.uleb128 0xe
 1687 0009 1B       		.uleb128 0x1b
 1688 000a 0E       		.uleb128 0xe
 1689 000b 55       		.uleb128 0x55
 1690 000c 17       		.uleb128 0x17
 1691 000d 11       		.uleb128 0x11
 1692 000e 01       		.uleb128 0x1
 1693 000f 10       		.uleb128 0x10
 1694 0010 17       		.uleb128 0x17
 1695 0011 00       		.byte	0
 1696 0012 00       		.byte	0
 1697 0013 02       		.uleb128 0x2
 1698 0014 24       		.uleb128 0x24
 1699 0015 00       		.byte	0
 1700 0016 0B       		.uleb128 0xb
 1701 0017 0B       		.uleb128 0xb
 1702 0018 3E       		.uleb128 0x3e
 1703 0019 0B       		.uleb128 0xb
 1704 001a 03       		.uleb128 0x3
 1705 001b 0E       		.uleb128 0xe
 1706 001c 00       		.byte	0
 1707 001d 00       		.byte	0
 1708 001e 03       		.uleb128 0x3
 1709 001f 16       		.uleb128 0x16
 1710 0020 00       		.byte	0
 1711 0021 03       		.uleb128 0x3
 1712 0022 0E       		.uleb128 0xe
 1713 0023 3A       		.uleb128 0x3a
 1714 0024 0B       		.uleb128 0xb
ARM GAS  C:\Users\Petro\AppData\Local\Temp\cc1vRKnf.s 			page 34


 1715 0025 3B       		.uleb128 0x3b
 1716 0026 0B       		.uleb128 0xb
 1717 0027 49       		.uleb128 0x49
 1718 0028 13       		.uleb128 0x13
 1719 0029 00       		.byte	0
 1720 002a 00       		.byte	0
 1721 002b 04       		.uleb128 0x4
 1722 002c 24       		.uleb128 0x24
 1723 002d 00       		.byte	0
 1724 002e 0B       		.uleb128 0xb
 1725 002f 0B       		.uleb128 0xb
 1726 0030 3E       		.uleb128 0x3e
 1727 0031 0B       		.uleb128 0xb
 1728 0032 03       		.uleb128 0x3
 1729 0033 08       		.uleb128 0x8
 1730 0034 00       		.byte	0
 1731 0035 00       		.byte	0
 1732 0036 05       		.uleb128 0x5
 1733 0037 13       		.uleb128 0x13
 1734 0038 01       		.byte	0x1
 1735 0039 0B       		.uleb128 0xb
 1736 003a 0B       		.uleb128 0xb
 1737 003b 3A       		.uleb128 0x3a
 1738 003c 0B       		.uleb128 0xb
 1739 003d 3B       		.uleb128 0x3b
 1740 003e 0B       		.uleb128 0xb
 1741 003f 01       		.uleb128 0x1
 1742 0040 13       		.uleb128 0x13
 1743 0041 00       		.byte	0
 1744 0042 00       		.byte	0
 1745 0043 06       		.uleb128 0x6
 1746 0044 0D       		.uleb128 0xd
 1747 0045 00       		.byte	0
 1748 0046 03       		.uleb128 0x3
 1749 0047 0E       		.uleb128 0xe
 1750 0048 3A       		.uleb128 0x3a
 1751 0049 0B       		.uleb128 0xb
 1752 004a 3B       		.uleb128 0x3b
 1753 004b 0B       		.uleb128 0xb
 1754 004c 49       		.uleb128 0x49
 1755 004d 13       		.uleb128 0x13
 1756 004e 38       		.uleb128 0x38
 1757 004f 0B       		.uleb128 0xb
 1758 0050 00       		.byte	0
 1759 0051 00       		.byte	0
 1760 0052 07       		.uleb128 0x7
 1761 0053 04       		.uleb128 0x4
 1762 0054 01       		.byte	0x1
 1763 0055 0B       		.uleb128 0xb
 1764 0056 0B       		.uleb128 0xb
 1765 0057 3A       		.uleb128 0x3a
 1766 0058 0B       		.uleb128 0xb
 1767 0059 3B       		.uleb128 0x3b
 1768 005a 0B       		.uleb128 0xb
 1769 005b 01       		.uleb128 0x1
 1770 005c 13       		.uleb128 0x13
 1771 005d 00       		.byte	0
ARM GAS  C:\Users\Petro\AppData\Local\Temp\cc1vRKnf.s 			page 35


 1772 005e 00       		.byte	0
 1773 005f 08       		.uleb128 0x8
 1774 0060 28       		.uleb128 0x28
 1775 0061 00       		.byte	0
 1776 0062 03       		.uleb128 0x3
 1777 0063 0E       		.uleb128 0xe
 1778 0064 1C       		.uleb128 0x1c
 1779 0065 0D       		.uleb128 0xd
 1780 0066 00       		.byte	0
 1781 0067 00       		.byte	0
 1782 0068 09       		.uleb128 0x9
 1783 0069 13       		.uleb128 0x13
 1784 006a 01       		.byte	0x1
 1785 006b 03       		.uleb128 0x3
 1786 006c 0E       		.uleb128 0xe
 1787 006d 0B       		.uleb128 0xb
 1788 006e 0B       		.uleb128 0xb
 1789 006f 3A       		.uleb128 0x3a
 1790 0070 0B       		.uleb128 0xb
 1791 0071 3B       		.uleb128 0x3b
 1792 0072 0B       		.uleb128 0xb
 1793 0073 01       		.uleb128 0x1
 1794 0074 13       		.uleb128 0x13
 1795 0075 00       		.byte	0
 1796 0076 00       		.byte	0
 1797 0077 0A       		.uleb128 0xa
 1798 0078 0F       		.uleb128 0xf
 1799 0079 00       		.byte	0
 1800 007a 0B       		.uleb128 0xb
 1801 007b 0B       		.uleb128 0xb
 1802 007c 49       		.uleb128 0x49
 1803 007d 13       		.uleb128 0x13
 1804 007e 00       		.byte	0
 1805 007f 00       		.byte	0
 1806 0080 0B       		.uleb128 0xb
 1807 0081 13       		.uleb128 0x13
 1808 0082 01       		.byte	0x1
 1809 0083 0B       		.uleb128 0xb
 1810 0084 05       		.uleb128 0x5
 1811 0085 3A       		.uleb128 0x3a
 1812 0086 0B       		.uleb128 0xb
 1813 0087 3B       		.uleb128 0x3b
 1814 0088 0B       		.uleb128 0xb
 1815 0089 01       		.uleb128 0x1
 1816 008a 13       		.uleb128 0x13
 1817 008b 00       		.byte	0
 1818 008c 00       		.byte	0
 1819 008d 0C       		.uleb128 0xc
 1820 008e 0D       		.uleb128 0xd
 1821 008f 00       		.byte	0
 1822 0090 03       		.uleb128 0x3
 1823 0091 0E       		.uleb128 0xe
 1824 0092 3A       		.uleb128 0x3a
 1825 0093 0B       		.uleb128 0xb
 1826 0094 3B       		.uleb128 0x3b
 1827 0095 0B       		.uleb128 0xb
 1828 0096 49       		.uleb128 0x49
ARM GAS  C:\Users\Petro\AppData\Local\Temp\cc1vRKnf.s 			page 36


 1829 0097 13       		.uleb128 0x13
 1830 0098 38       		.uleb128 0x38
 1831 0099 05       		.uleb128 0x5
 1832 009a 00       		.byte	0
 1833 009b 00       		.byte	0
 1834 009c 0D       		.uleb128 0xd
 1835 009d 01       		.uleb128 0x1
 1836 009e 01       		.byte	0x1
 1837 009f 49       		.uleb128 0x49
 1838 00a0 13       		.uleb128 0x13
 1839 00a1 01       		.uleb128 0x1
 1840 00a2 13       		.uleb128 0x13
 1841 00a3 00       		.byte	0
 1842 00a4 00       		.byte	0
 1843 00a5 0E       		.uleb128 0xe
 1844 00a6 21       		.uleb128 0x21
 1845 00a7 00       		.byte	0
 1846 00a8 49       		.uleb128 0x49
 1847 00a9 13       		.uleb128 0x13
 1848 00aa 2F       		.uleb128 0x2f
 1849 00ab 0B       		.uleb128 0xb
 1850 00ac 00       		.byte	0
 1851 00ad 00       		.byte	0
 1852 00ae 0F       		.uleb128 0xf
 1853 00af 2E       		.uleb128 0x2e
 1854 00b0 01       		.byte	0x1
 1855 00b1 3F       		.uleb128 0x3f
 1856 00b2 19       		.uleb128 0x19
 1857 00b3 03       		.uleb128 0x3
 1858 00b4 0E       		.uleb128 0xe
 1859 00b5 3A       		.uleb128 0x3a
 1860 00b6 0B       		.uleb128 0xb
 1861 00b7 3B       		.uleb128 0x3b
 1862 00b8 0B       		.uleb128 0xb
 1863 00b9 27       		.uleb128 0x27
 1864 00ba 19       		.uleb128 0x19
 1865 00bb 49       		.uleb128 0x49
 1866 00bc 13       		.uleb128 0x13
 1867 00bd 11       		.uleb128 0x11
 1868 00be 01       		.uleb128 0x1
 1869 00bf 12       		.uleb128 0x12
 1870 00c0 06       		.uleb128 0x6
 1871 00c1 40       		.uleb128 0x40
 1872 00c2 18       		.uleb128 0x18
 1873 00c3 9642     		.uleb128 0x2116
 1874 00c5 19       		.uleb128 0x19
 1875 00c6 01       		.uleb128 0x1
 1876 00c7 13       		.uleb128 0x13
 1877 00c8 00       		.byte	0
 1878 00c9 00       		.byte	0
 1879 00ca 10       		.uleb128 0x10
 1880 00cb 34       		.uleb128 0x34
 1881 00cc 00       		.byte	0
 1882 00cd 03       		.uleb128 0x3
 1883 00ce 0E       		.uleb128 0xe
 1884 00cf 3A       		.uleb128 0x3a
 1885 00d0 0B       		.uleb128 0xb
ARM GAS  C:\Users\Petro\AppData\Local\Temp\cc1vRKnf.s 			page 37


 1886 00d1 3B       		.uleb128 0x3b
 1887 00d2 0B       		.uleb128 0xb
 1888 00d3 49       		.uleb128 0x49
 1889 00d4 13       		.uleb128 0x13
 1890 00d5 02       		.uleb128 0x2
 1891 00d6 18       		.uleb128 0x18
 1892 00d7 00       		.byte	0
 1893 00d8 00       		.byte	0
 1894 00d9 11       		.uleb128 0x11
 1895 00da 2E       		.uleb128 0x2e
 1896 00db 01       		.byte	0x1
 1897 00dc 3F       		.uleb128 0x3f
 1898 00dd 19       		.uleb128 0x19
 1899 00de 03       		.uleb128 0x3
 1900 00df 0E       		.uleb128 0xe
 1901 00e0 3A       		.uleb128 0x3a
 1902 00e1 0B       		.uleb128 0xb
 1903 00e2 3B       		.uleb128 0x3b
 1904 00e3 0B       		.uleb128 0xb
 1905 00e4 11       		.uleb128 0x11
 1906 00e5 01       		.uleb128 0x1
 1907 00e6 12       		.uleb128 0x12
 1908 00e7 06       		.uleb128 0x6
 1909 00e8 40       		.uleb128 0x40
 1910 00e9 18       		.uleb128 0x18
 1911 00ea 9742     		.uleb128 0x2117
 1912 00ec 19       		.uleb128 0x19
 1913 00ed 01       		.uleb128 0x1
 1914 00ee 13       		.uleb128 0x13
 1915 00ef 00       		.byte	0
 1916 00f0 00       		.byte	0
 1917 00f1 12       		.uleb128 0x12
 1918 00f2 34       		.uleb128 0x34
 1919 00f3 00       		.byte	0
 1920 00f4 03       		.uleb128 0x3
 1921 00f5 08       		.uleb128 0x8
 1922 00f6 3A       		.uleb128 0x3a
 1923 00f7 0B       		.uleb128 0xb
 1924 00f8 3B       		.uleb128 0x3b
 1925 00f9 0B       		.uleb128 0xb
 1926 00fa 49       		.uleb128 0x49
 1927 00fb 13       		.uleb128 0x13
 1928 00fc 02       		.uleb128 0x2
 1929 00fd 18       		.uleb128 0x18
 1930 00fe 00       		.byte	0
 1931 00ff 00       		.byte	0
 1932 0100 13       		.uleb128 0x13
 1933 0101 2E       		.uleb128 0x2e
 1934 0102 01       		.byte	0x1
 1935 0103 3F       		.uleb128 0x3f
 1936 0104 19       		.uleb128 0x19
 1937 0105 03       		.uleb128 0x3
 1938 0106 0E       		.uleb128 0xe
 1939 0107 3A       		.uleb128 0x3a
 1940 0108 0B       		.uleb128 0xb
 1941 0109 3B       		.uleb128 0x3b
 1942 010a 0B       		.uleb128 0xb
ARM GAS  C:\Users\Petro\AppData\Local\Temp\cc1vRKnf.s 			page 38


 1943 010b 27       		.uleb128 0x27
 1944 010c 19       		.uleb128 0x19
 1945 010d 11       		.uleb128 0x11
 1946 010e 01       		.uleb128 0x1
 1947 010f 12       		.uleb128 0x12
 1948 0110 06       		.uleb128 0x6
 1949 0111 40       		.uleb128 0x40
 1950 0112 18       		.uleb128 0x18
 1951 0113 9742     		.uleb128 0x2117
 1952 0115 19       		.uleb128 0x19
 1953 0116 01       		.uleb128 0x1
 1954 0117 13       		.uleb128 0x13
 1955 0118 00       		.byte	0
 1956 0119 00       		.byte	0
 1957 011a 14       		.uleb128 0x14
 1958 011b 05       		.uleb128 0x5
 1959 011c 00       		.byte	0
 1960 011d 03       		.uleb128 0x3
 1961 011e 0E       		.uleb128 0xe
 1962 011f 3A       		.uleb128 0x3a
 1963 0120 0B       		.uleb128 0xb
 1964 0121 3B       		.uleb128 0x3b
 1965 0122 0B       		.uleb128 0xb
 1966 0123 49       		.uleb128 0x49
 1967 0124 13       		.uleb128 0x13
 1968 0125 02       		.uleb128 0x2
 1969 0126 18       		.uleb128 0x18
 1970 0127 00       		.byte	0
 1971 0128 00       		.byte	0
 1972 0129 15       		.uleb128 0x15
 1973 012a 2E       		.uleb128 0x2e
 1974 012b 00       		.byte	0
 1975 012c 3F       		.uleb128 0x3f
 1976 012d 19       		.uleb128 0x19
 1977 012e 03       		.uleb128 0x3
 1978 012f 0E       		.uleb128 0xe
 1979 0130 3A       		.uleb128 0x3a
 1980 0131 0B       		.uleb128 0xb
 1981 0132 3B       		.uleb128 0x3b
 1982 0133 0B       		.uleb128 0xb
 1983 0134 49       		.uleb128 0x49
 1984 0135 13       		.uleb128 0x13
 1985 0136 11       		.uleb128 0x11
 1986 0137 01       		.uleb128 0x1
 1987 0138 12       		.uleb128 0x12
 1988 0139 06       		.uleb128 0x6
 1989 013a 40       		.uleb128 0x40
 1990 013b 18       		.uleb128 0x18
 1991 013c 9742     		.uleb128 0x2117
 1992 013e 19       		.uleb128 0x19
 1993 013f 00       		.byte	0
 1994 0140 00       		.byte	0
 1995 0141 16       		.uleb128 0x16
 1996 0142 2E       		.uleb128 0x2e
 1997 0143 01       		.byte	0x1
 1998 0144 3F       		.uleb128 0x3f
 1999 0145 19       		.uleb128 0x19
ARM GAS  C:\Users\Petro\AppData\Local\Temp\cc1vRKnf.s 			page 39


 2000 0146 03       		.uleb128 0x3
 2001 0147 0E       		.uleb128 0xe
 2002 0148 3A       		.uleb128 0x3a
 2003 0149 0B       		.uleb128 0xb
 2004 014a 3B       		.uleb128 0x3b
 2005 014b 0B       		.uleb128 0xb
 2006 014c 27       		.uleb128 0x27
 2007 014d 19       		.uleb128 0x19
 2008 014e 49       		.uleb128 0x49
 2009 014f 13       		.uleb128 0x13
 2010 0150 11       		.uleb128 0x11
 2011 0151 01       		.uleb128 0x1
 2012 0152 12       		.uleb128 0x12
 2013 0153 06       		.uleb128 0x6
 2014 0154 40       		.uleb128 0x40
 2015 0155 18       		.uleb128 0x18
 2016 0156 9742     		.uleb128 0x2117
 2017 0158 19       		.uleb128 0x19
 2018 0159 01       		.uleb128 0x1
 2019 015a 13       		.uleb128 0x13
 2020 015b 00       		.byte	0
 2021 015c 00       		.byte	0
 2022 015d 17       		.uleb128 0x17
 2023 015e 2E       		.uleb128 0x2e
 2024 015f 01       		.byte	0x1
 2025 0160 3F       		.uleb128 0x3f
 2026 0161 19       		.uleb128 0x19
 2027 0162 03       		.uleb128 0x3
 2028 0163 0E       		.uleb128 0xe
 2029 0164 3A       		.uleb128 0x3a
 2030 0165 0B       		.uleb128 0xb
 2031 0166 3B       		.uleb128 0x3b
 2032 0167 0B       		.uleb128 0xb
 2033 0168 49       		.uleb128 0x49
 2034 0169 13       		.uleb128 0x13
 2035 016a 11       		.uleb128 0x11
 2036 016b 01       		.uleb128 0x1
 2037 016c 12       		.uleb128 0x12
 2038 016d 06       		.uleb128 0x6
 2039 016e 40       		.uleb128 0x40
 2040 016f 18       		.uleb128 0x18
 2041 0170 9742     		.uleb128 0x2117
 2042 0172 19       		.uleb128 0x19
 2043 0173 01       		.uleb128 0x1
 2044 0174 13       		.uleb128 0x13
 2045 0175 00       		.byte	0
 2046 0176 00       		.byte	0
 2047 0177 18       		.uleb128 0x18
 2048 0178 2E       		.uleb128 0x2e
 2049 0179 00       		.byte	0
 2050 017a 3F       		.uleb128 0x3f
 2051 017b 19       		.uleb128 0x19
 2052 017c 03       		.uleb128 0x3
 2053 017d 0E       		.uleb128 0xe
 2054 017e 3A       		.uleb128 0x3a
 2055 017f 0B       		.uleb128 0xb
 2056 0180 3B       		.uleb128 0x3b
ARM GAS  C:\Users\Petro\AppData\Local\Temp\cc1vRKnf.s 			page 40


 2057 0181 0B       		.uleb128 0xb
 2058 0182 27       		.uleb128 0x27
 2059 0183 19       		.uleb128 0x19
 2060 0184 49       		.uleb128 0x49
 2061 0185 13       		.uleb128 0x13
 2062 0186 11       		.uleb128 0x11
 2063 0187 01       		.uleb128 0x1
 2064 0188 12       		.uleb128 0x12
 2065 0189 06       		.uleb128 0x6
 2066 018a 40       		.uleb128 0x40
 2067 018b 18       		.uleb128 0x18
 2068 018c 9742     		.uleb128 0x2117
 2069 018e 19       		.uleb128 0x19
 2070 018f 00       		.byte	0
 2071 0190 00       		.byte	0
 2072 0191 19       		.uleb128 0x19
 2073 0192 2E       		.uleb128 0x2e
 2074 0193 01       		.byte	0x1
 2075 0194 3F       		.uleb128 0x3f
 2076 0195 19       		.uleb128 0x19
 2077 0196 03       		.uleb128 0x3
 2078 0197 0E       		.uleb128 0xe
 2079 0198 3A       		.uleb128 0x3a
 2080 0199 0B       		.uleb128 0xb
 2081 019a 3B       		.uleb128 0x3b
 2082 019b 0B       		.uleb128 0xb
 2083 019c 27       		.uleb128 0x27
 2084 019d 19       		.uleb128 0x19
 2085 019e 11       		.uleb128 0x11
 2086 019f 01       		.uleb128 0x1
 2087 01a0 12       		.uleb128 0x12
 2088 01a1 06       		.uleb128 0x6
 2089 01a2 40       		.uleb128 0x40
 2090 01a3 18       		.uleb128 0x18
 2091 01a4 9642     		.uleb128 0x2116
 2092 01a6 19       		.uleb128 0x19
 2093 01a7 01       		.uleb128 0x1
 2094 01a8 13       		.uleb128 0x13
 2095 01a9 00       		.byte	0
 2096 01aa 00       		.byte	0
 2097 01ab 1A       		.uleb128 0x1a
 2098 01ac 34       		.uleb128 0x34
 2099 01ad 00       		.byte	0
 2100 01ae 03       		.uleb128 0x3
 2101 01af 0E       		.uleb128 0xe
 2102 01b0 3A       		.uleb128 0x3a
 2103 01b1 0B       		.uleb128 0xb
 2104 01b2 3B       		.uleb128 0x3b
 2105 01b3 0B       		.uleb128 0xb
 2106 01b4 49       		.uleb128 0x49
 2107 01b5 13       		.uleb128 0x13
 2108 01b6 3F       		.uleb128 0x3f
 2109 01b7 19       		.uleb128 0x19
 2110 01b8 02       		.uleb128 0x2
 2111 01b9 18       		.uleb128 0x18
 2112 01ba 00       		.byte	0
 2113 01bb 00       		.byte	0
ARM GAS  C:\Users\Petro\AppData\Local\Temp\cc1vRKnf.s 			page 41


 2114 01bc 00       		.byte	0
 2115              		.section	.debug_aranges,"",%progbits
 2116 0000 84000000 		.4byte	0x84
 2117 0004 0200     		.2byte	0x2
 2118 0006 00000000 		.4byte	.Ldebug_info0
 2119 000a 04       		.byte	0x4
 2120 000b 00       		.byte	0
 2121 000c 0000     		.2byte	0
 2122 000e 0000     		.2byte	0
 2123 0010 00000000 		.4byte	.LFB2
 2124 0014 28000000 		.4byte	.LFE2-.LFB2
 2125 0018 00000000 		.4byte	.LFB3
 2126 001c 5C000000 		.4byte	.LFE3-.LFB3
 2127 0020 00000000 		.4byte	.LFB4
 2128 0024 48000000 		.4byte	.LFE4-.LFB4
 2129 0028 00000000 		.4byte	.LFB5
 2130 002c 44000000 		.4byte	.LFE5-.LFB5
 2131 0030 00000000 		.4byte	.LFB6
 2132 0034 28000000 		.4byte	.LFE6-.LFB6
 2133 0038 00000000 		.4byte	.LFB7
 2134 003c AC000000 		.4byte	.LFE7-.LFB7
 2135 0040 00000000 		.4byte	.LFB8
 2136 0044 14000000 		.4byte	.LFE8-.LFB8
 2137 0048 00000000 		.4byte	.LFB9
 2138 004c 08010000 		.4byte	.LFE9-.LFB9
 2139 0050 00000000 		.4byte	.LFB10
 2140 0054 4C000000 		.4byte	.LFE10-.LFB10
 2141 0058 00000000 		.4byte	.LFB11
 2142 005c 48000000 		.4byte	.LFE11-.LFB11
 2143 0060 00000000 		.4byte	.LFB12
 2144 0064 14000000 		.4byte	.LFE12-.LFB12
 2145 0068 00000000 		.4byte	.LFB13
 2146 006c 7C000000 		.4byte	.LFE13-.LFB13
 2147 0070 00000000 		.4byte	.LFB14
 2148 0074 68000000 		.4byte	.LFE14-.LFB14
 2149 0078 00000000 		.4byte	.LFB15
 2150 007c 34000000 		.4byte	.LFE15-.LFB15
 2151 0080 00000000 		.4byte	0
 2152 0084 00000000 		.4byte	0
 2153              		.section	.debug_ranges,"",%progbits
 2154              	.Ldebug_ranges0:
 2155 0000 00000000 		.4byte	.LFB2
 2156 0004 28000000 		.4byte	.LFE2
 2157 0008 00000000 		.4byte	.LFB3
 2158 000c 5C000000 		.4byte	.LFE3
 2159 0010 00000000 		.4byte	.LFB4
 2160 0014 48000000 		.4byte	.LFE4
 2161 0018 00000000 		.4byte	.LFB5
 2162 001c 44000000 		.4byte	.LFE5
 2163 0020 00000000 		.4byte	.LFB6
 2164 0024 28000000 		.4byte	.LFE6
 2165 0028 00000000 		.4byte	.LFB7
 2166 002c AC000000 		.4byte	.LFE7
 2167 0030 00000000 		.4byte	.LFB8
 2168 0034 14000000 		.4byte	.LFE8
 2169 0038 00000000 		.4byte	.LFB9
 2170 003c 08010000 		.4byte	.LFE9
ARM GAS  C:\Users\Petro\AppData\Local\Temp\cc1vRKnf.s 			page 42


 2171 0040 00000000 		.4byte	.LFB10
 2172 0044 4C000000 		.4byte	.LFE10
 2173 0048 00000000 		.4byte	.LFB11
 2174 004c 48000000 		.4byte	.LFE11
 2175 0050 00000000 		.4byte	.LFB12
 2176 0054 14000000 		.4byte	.LFE12
 2177 0058 00000000 		.4byte	.LFB13
 2178 005c 7C000000 		.4byte	.LFE13
 2179 0060 00000000 		.4byte	.LFB14
 2180 0064 68000000 		.4byte	.LFE14
 2181 0068 00000000 		.4byte	.LFB15
 2182 006c 34000000 		.4byte	.LFE15
 2183 0070 00000000 		.4byte	0
 2184 0074 00000000 		.4byte	0
 2185              		.section	.debug_line,"",%progbits
 2186              	.Ldebug_line0:
 2187 0000 80020000 		.section	.debug_str,"MS",%progbits,1
 2187      02004201 
 2187      00000201 
 2187      FB0E0D00 
 2187      01010101 
 2188              	.LASF29:
 2189 0000 46525F4E 		.ascii	"FR_NOT_READY\000"
 2189      4F545F52 
 2189      45414459 
 2189      00
 2190              	.LASF76:
 2191 000d 63757272 		.ascii	"currentElementFinish\000"
 2191      656E7445 
 2191      6C656D65 
 2191      6E744669 
 2191      6E697368 
 2192              	.LASF85:
 2193 0022 496E6974 		.ascii	"InitBuff\000"
 2193      42756666 
 2193      00
 2194              	.LASF66:
 2195 002b 746D7044 		.ascii	"tmpData\000"
 2195      61746100 
 2196              	.LASF14:
 2197 0033 75696E74 		.ascii	"uint64_t\000"
 2197      36345F74 
 2197      00
 2198              	.LASF10:
 2199 003c 6C6F6E67 		.ascii	"long long unsigned int\000"
 2199      206C6F6E 
 2199      6720756E 
 2199      7369676E 
 2199      65642069 
 2200              	.LASF16:
 2201 0053 6D696C6C 		.ascii	"millsStartSkier\000"
 2201      73537461 
 2201      7274536B 
 2201      69657200 
 2202              	.LASF44:
 2203 0063 46525F54 		.ascii	"FR_TOO_MANY_OPEN_FILES\000"
 2203      4F4F5F4D 
ARM GAS  C:\Users\Petro\AppData\Local\Temp\cc1vRKnf.s 			page 43


 2203      414E595F 
 2203      4F50454E 
 2203      5F46494C 
 2204              	.LASF8:
 2205 007a 6C6F6E67 		.ascii	"long long int\000"
 2205      206C6F6E 
 2205      6720696E 
 2205      7400
 2206              	.LASF0:
 2207 0088 7369676E 		.ascii	"signed char\000"
 2207      65642063 
 2207      68617200 
 2208              	.LASF45:
 2209 0094 46525F49 		.ascii	"FR_INVALID_PARAMETER\000"
 2209      4E56414C 
 2209      49445F50 
 2209      4152414D 
 2209      45544552 
 2210              	.LASF57:
 2211 00a9 70757453 		.ascii	"putSkiOnWay\000"
 2211      6B694F6E 
 2211      57617900 
 2212              	.LASF35:
 2213 00b5 46525F49 		.ascii	"FR_INVALID_OBJECT\000"
 2213      4E56414C 
 2213      49445F4F 
 2213      424A4543 
 2213      5400
 2214              	.LASF4:
 2215 00c7 6C6F6E67 		.ascii	"long int\000"
 2215      20696E74 
 2215      00
 2216              	.LASF21:
 2217 00d0 736B6965 		.ascii	"skierDB_El\000"
 2217      7244425F 
 2217      456C00
 2218              	.LASF65:
 2219 00db 4C617374 		.ascii	"LastSecTimeOnWay\000"
 2219      53656354 
 2219      696D654F 
 2219      6E576179 
 2219      00
 2220              	.LASF86:
 2221 00ec 536B6965 		.ascii	"SkierOnWay\000"
 2221      724F6E57 
 2221      617900
 2222              	.LASF62:
 2223 00f7 57726974 		.ascii	"WriteFinishTime\000"
 2223      6546696E 
 2223      69736854 
 2223      696D6500 
 2224              	.LASF39:
 2225 0107 46525F4E 		.ascii	"FR_NO_FILESYSTEM\000"
 2225      4F5F4649 
 2225      4C455359 
 2225      5354454D 
 2225      00
ARM GAS  C:\Users\Petro\AppData\Local\Temp\cc1vRKnf.s 			page 44


 2226              	.LASF12:
 2227 0118 75696E74 		.ascii	"uint16_t\000"
 2227      31365F74 
 2227      00
 2228              	.LASF23:
 2229 0121 646F7562 		.ascii	"double\000"
 2229      6C6500
 2230              	.LASF43:
 2231 0128 46525F4E 		.ascii	"FR_NOT_ENOUGH_CORE\000"
 2231      4F545F45 
 2231      4E4F5547 
 2231      485F434F 
 2231      524500
 2232              	.LASF34:
 2233 013b 46525F45 		.ascii	"FR_EXIST\000"
 2233      58495354 
 2233      00
 2234              	.LASF75:
 2235 0144 63757272 		.ascii	"currentElementStart\000"
 2235      656E7445 
 2235      6C656D65 
 2235      6E745374 
 2235      61727400 
 2236              	.LASF68:
 2237 0158 4669666F 		.ascii	"FifoPush\000"
 2237      50757368 
 2237      00
 2238              	.LASF6:
 2239 0161 5F5F7569 		.ascii	"__uint32_t\000"
 2239      6E743332 
 2239      5F7400
 2240              	.LASF56:
 2241 016c 6D696C6C 		.ascii	"mills\000"
 2241      7300
 2242              	.LASF63:
 2243 0172 54696D65 		.ascii	"TimeOnWay\000"
 2243      4F6E5761 
 2243      7900
 2244              	.LASF11:
 2245 017c 756E7369 		.ascii	"unsigned int\000"
 2245      676E6564 
 2245      20696E74 
 2245      00
 2246              	.LASF53:
 2247 0189 6669666F 		.ascii	"fifoTimeSkier\000"
 2247      54696D65 
 2247      536B6965 
 2247      7200
 2248              	.LASF87:
 2249 0197 4669666F 		.ascii	"FifoGetSize\000"
 2249      47657453 
 2249      697A6500 
 2250              	.LASF7:
 2251 01a3 6C6F6E67 		.ascii	"long unsigned int\000"
 2251      20756E73 
 2251      69676E65 
 2251      6420696E 
ARM GAS  C:\Users\Petro\AppData\Local\Temp\cc1vRKnf.s 			page 45


 2251      7400
 2252              	.LASF64:
 2253 01b5 4E756D62 		.ascii	"Number\000"
 2253      657200
 2254              	.LASF19:
 2255 01bc 7365636F 		.ascii	"secondsWay\000"
 2255      6E647357 
 2255      617900
 2256              	.LASF58:
 2257 01c7 67657453 		.ascii	"getSkiFromWay\000"
 2257      6B694672 
 2257      6F6D5761 
 2257      7900
 2258              	.LASF59:
 2259 01d5 44617461 		.ascii	"DataBaseStart\000"
 2259      42617365 
 2259      53746172 
 2259      7400
 2260              	.LASF69:
 2261 01e3 64617461 		.ascii	"data\000"
 2261      00
 2262              	.LASF47:
 2263 01e8 73697A65 		.ascii	"size\000"
 2263      00
 2264              	.LASF3:
 2265 01ed 73686F72 		.ascii	"short unsigned int\000"
 2265      7420756E 
 2265      7369676E 
 2265      65642069 
 2265      6E7400
 2266              	.LASF83:
 2267 0200 443A5C43 		.ascii	"D:\\Cypress\\system-start-finish\\vesion 2\\fw\\fin"
 2267      79707265 
 2267      73735C73 
 2267      79737465 
 2267      6D2D7374 
 2268 022e 6973685C 		.ascii	"ish\\sandbox\\v3\\Finish(state machine)\\fin_v0.cyd"
 2268      73616E64 
 2268      626F785C 
 2268      76335C46 
 2268      696E6973 
 2269 025d 736E00   		.ascii	"sn\000"
 2270              	.LASF70:
 2271 0260 4669666F 		.ascii	"FifoGet\000"
 2271      47657400 
 2272              	.LASF52:
 2273 0268 6C617374 		.ascii	"last\000"
 2273      00
 2274              	.LASF28:
 2275 026d 46525F49 		.ascii	"FR_INT_ERR\000"
 2275      4E545F45 
 2275      525200
 2276              	.LASF27:
 2277 0278 46525F44 		.ascii	"FR_DISK_ERR\000"
 2277      49534B5F 
 2277      45525200 
 2278              	.LASF71:
ARM GAS  C:\Users\Petro\AppData\Local\Temp\cc1vRKnf.s 			page 46


 2279 0284 4669666F 		.ascii	"FifoPushLast\000"
 2279      50757368 
 2279      4C617374 
 2279      00
 2280              	.LASF36:
 2281 0291 46525F57 		.ascii	"FR_WRITE_PROTECTED\000"
 2281      52495445 
 2281      5F50524F 
 2281      54454354 
 2281      454400
 2282              	.LASF46:
 2283 02a4 6E657874 		.ascii	"nextSki\000"
 2283      536B6900 
 2284              	.LASF15:
 2285 02ac 756E6978 		.ascii	"unixStartSkier\000"
 2285      53746172 
 2285      74536B69 
 2285      657200
 2286              	.LASF60:
 2287 02bb 57726974 		.ascii	"WriteStartTime\000"
 2287      65537461 
 2287      72745469 
 2287      6D6500
 2288              	.LASF25:
 2289 02ca 73697A65 		.ascii	"sizetype\000"
 2289      74797065 
 2289      00
 2290              	.LASF72:
 2291 02d3 62756666 		.ascii	"bufferSkiersOnWay\000"
 2291      6572536B 
 2291      69657273 
 2291      4F6E5761 
 2291      7900
 2292              	.LASF77:
 2293 02e5 736B6965 		.ascii	"skiersStarted\000"
 2293      72735374 
 2293      61727465 
 2293      6400
 2294              	.LASF41:
 2295 02f3 46525F54 		.ascii	"FR_TIMEOUT\000"
 2295      494D454F 
 2295      555400
 2296              	.LASF84:
 2297 02fe 656C656D 		.ascii	"elementBuff\000"
 2297      656E7442 
 2297      75666600 
 2298              	.LASF30:
 2299 030a 46525F4E 		.ascii	"FR_NO_FILE\000"
 2299      4F5F4649 
 2299      4C4500
 2300              	.LASF17:
 2301 0315 756E6978 		.ascii	"unixFinishSkier\000"
 2301      46696E69 
 2301      7368536B 
 2301      69657200 
 2302              	.LASF38:
 2303 0325 46525F4E 		.ascii	"FR_NOT_ENABLED\000"
ARM GAS  C:\Users\Petro\AppData\Local\Temp\cc1vRKnf.s 			page 47


 2303      4F545F45 
 2303      4E41424C 
 2303      454400
 2304              	.LASF73:
 2305 0334 62756666 		.ascii	"bufferFifo\000"
 2305      65724669 
 2305      666F00
 2306              	.LASF9:
 2307 033f 5F5F7569 		.ascii	"__uint64_t\000"
 2307      6E743634 
 2307      5F7400
 2308              	.LASF22:
 2309 034a 666C6F61 		.ascii	"float\000"
 2309      7400
 2310              	.LASF50:
 2311 0350 746F7461 		.ascii	"totalSize\000"
 2311      6C53697A 
 2311      6500
 2312              	.LASF61:
 2313 035a 5F426F6F 		.ascii	"_Bool\000"
 2313      6C00
 2314              	.LASF1:
 2315 0360 756E7369 		.ascii	"unsigned char\000"
 2315      676E6564 
 2315      20636861 
 2315      7200
 2316              	.LASF2:
 2317 036e 73686F72 		.ascii	"short int\000"
 2317      7420696E 
 2317      7400
 2318              	.LASF37:
 2319 0378 46525F49 		.ascii	"FR_INVALID_DRIVE\000"
 2319      4E56414C 
 2319      49445F44 
 2319      52495645 
 2319      00
 2320              	.LASF67:
 2321 0389 4C617374 		.ascii	"LastMillsTimeOnWay\000"
 2321      4D696C6C 
 2321      7354696D 
 2321      654F6E57 
 2321      617900
 2322              	.LASF48:
 2323 039c 66697273 		.ascii	"firstElement\000"
 2323      74456C65 
 2323      6D656E74 
 2323      00
 2324              	.LASF33:
 2325 03a9 46525F44 		.ascii	"FR_DENIED\000"
 2325      454E4945 
 2325      4400
 2326              	.LASF40:
 2327 03b3 46525F4D 		.ascii	"FR_MKFS_ABORTED\000"
 2327      4B46535F 
 2327      41424F52 
 2327      54454400 
 2328              	.LASF42:
ARM GAS  C:\Users\Petro\AppData\Local\Temp\cc1vRKnf.s 			page 48


 2329 03c3 46525F4C 		.ascii	"FR_LOCKED\000"
 2329      4F434B45 
 2329      4400
 2330              	.LASF18:
 2331 03cd 6D696C6C 		.ascii	"millsFinishSkier\000"
 2331      7346696E 
 2331      69736853 
 2331      6B696572 
 2331      00
 2332              	.LASF13:
 2333 03de 75696E74 		.ascii	"uint32_t\000"
 2333      33325F74 
 2333      00
 2334              	.LASF24:
 2335 03e7 63686172 		.ascii	"char\000"
 2335      00
 2336              	.LASF5:
 2337 03ec 5F5F7569 		.ascii	"__uint16_t\000"
 2337      6E743136 
 2337      5F7400
 2338              	.LASF26:
 2339 03f7 46525F4F 		.ascii	"FR_OK\000"
 2339      4B00
 2340              	.LASF79:
 2341 03fd 736B6965 		.ascii	"skierDB\000"
 2341      72444200 
 2342              	.LASF51:
 2343 0405 62756666 		.ascii	"buffer\000"
 2343      657200
 2344              	.LASF20:
 2345 040c 6D696C6C 		.ascii	"millsWay\000"
 2345      73576179 
 2345      00
 2346              	.LASF32:
 2347 0415 46525F49 		.ascii	"FR_INVALID_NAME\000"
 2347      4E56414C 
 2347      49445F4E 
 2347      414D4500 
 2348              	.LASF55:
 2349 0425 756E6978 		.ascii	"unixTime\000"
 2349      54696D65 
 2349      00
 2350              	.LASF78:
 2351 042e 736B6965 		.ascii	"skiersFinished\000"
 2351      72734669 
 2351      6E697368 
 2351      656400
 2352              	.LASF80:
 2353 043d 6669666F 		.ascii	"fifo\000"
 2353      00
 2354              	.LASF82:
 2355 0442 2E5C6C69 		.ascii	".\\lib_DB\\database.c\000"
 2355      625F4442 
 2355      5C646174 
 2355      61626173 
 2355      652E6300 
 2356              	.LASF81:
ARM GAS  C:\Users\Petro\AppData\Local\Temp\cc1vRKnf.s 			page 49


 2357 0456 474E5520 		.ascii	"GNU C 4.9.3 20150303 (release) [ARM/embedded-4_9-br"
 2357      4320342E 
 2357      392E3320 
 2357      32303135 
 2357      30333033 
 2358 0489 616E6368 		.ascii	"anch revision 221220] -mcpu=cortex-m0 -mthumb -g -O"
 2358      20726576 
 2358      6973696F 
 2358      6E203232 
 2358      31323230 
 2359 04bc 30202D66 		.ascii	"0 -ffunction-sections -ffat-lto-objects\000"
 2359      66756E63 
 2359      74696F6E 
 2359      2D736563 
 2359      74696F6E 
 2360              	.LASF31:
 2361 04e4 46525F4E 		.ascii	"FR_NO_PATH\000"
 2361      4F5F5041 
 2361      544800
 2362              	.LASF74:
 2363 04ef 63757272 		.ascii	"currentSizeBuff\000"
 2363      656E7453 
 2363      697A6542 
 2363      75666600 
 2364              	.LASF54:
 2365 04ff 72657375 		.ascii	"result\000"
 2365      6C7400
 2366              	.LASF49:
 2367 0506 6C617374 		.ascii	"lastElement\000"
 2367      456C656D 
 2367      656E7400 
 2368              		.ident	"GCC: (GNU Tools for ARM Embedded Processors) 4.9.3 20150303 (release) [ARM/embedded-4_9-br
