ARM GAS  C:\DOCUME~1\Admin\LOCALS~1\Temp\cc54ejBc.s 			page 1


   1              		.cpu cortex-m0
   2              		.fpu softvfp
   3              		.eabi_attribute 20, 1
   4              		.eabi_attribute 21, 1
   5              		.eabi_attribute 23, 3
   6              		.eabi_attribute 24, 1
   7              		.eabi_attribute 25, 1
   8              		.eabi_attribute 26, 1
   9              		.eabi_attribute 30, 6
  10              		.eabi_attribute 34, 0
  11              		.eabi_attribute 18, 4
  12              		.code	16
  13              		.file	"display.c"
  14              		.text
  15              	.Ltext0:
  16              		.cfi_sections	.debug_frame
  17              		.section	.text.RTC_GetSecond,"ax",%progbits
  18              		.align	2
  19              		.code	16
  20              		.thumb_func
  21              		.type	RTC_GetSecond, %function
  22              	RTC_GetSecond:
  23              	.LFB4:
  24              		.file 1 "Generated_Source\\PSoC4/RTC.h"
   1:Generated_Source\PSoC4/RTC.h **** /***************************************************************************//**
   2:Generated_Source\PSoC4/RTC.h **** * \file Name: RTC.h
   3:Generated_Source\PSoC4/RTC.h **** * \version 1.10
   4:Generated_Source\PSoC4/RTC.h **** *
   5:Generated_Source\PSoC4/RTC.h **** * \brief
   6:Generated_Source\PSoC4/RTC.h **** *  This file provides constants and parameter values for the RTC_P4 Component.
   7:Generated_Source\PSoC4/RTC.h **** *
   8:Generated_Source\PSoC4/RTC.h **** ********************************************************************************
   9:Generated_Source\PSoC4/RTC.h **** * Copyright 2015-2016, Cypress Semiconductor Corporation.  All rights reserved.
  10:Generated_Source\PSoC4/RTC.h **** * You may use this file only in accordance with the license, terms, conditions,
  11:Generated_Source\PSoC4/RTC.h **** * disclaimers, and limitations in the end user license agreement accompanying
  12:Generated_Source\PSoC4/RTC.h **** * the software package with which this file was provided.
  13:Generated_Source\PSoC4/RTC.h **** *******************************************************************************/
  14:Generated_Source\PSoC4/RTC.h **** 
  15:Generated_Source\PSoC4/RTC.h **** #if !defined(CY_RTC_P4_RTC_H)
  16:Generated_Source\PSoC4/RTC.h **** #define CY_RTC_P4_RTC_H
  17:Generated_Source\PSoC4/RTC.h **** 
  18:Generated_Source\PSoC4/RTC.h **** #include <cytypes.h>
  19:Generated_Source\PSoC4/RTC.h **** #include <CyLib.h>
  20:Generated_Source\PSoC4/RTC.h **** 
  21:Generated_Source\PSoC4/RTC.h **** 
  22:Generated_Source\PSoC4/RTC.h **** /*******************************************************************************
  23:Generated_Source\PSoC4/RTC.h **** *    Data types definition
  24:Generated_Source\PSoC4/RTC.h **** *******************************************************************************/
  25:Generated_Source\PSoC4/RTC.h **** 
  26:Generated_Source\PSoC4/RTC.h **** typedef enum
  27:Generated_Source\PSoC4/RTC.h **** {
  28:Generated_Source\PSoC4/RTC.h ****     RTC_DST_DATE_RELATIVE = 0u,
  29:Generated_Source\PSoC4/RTC.h ****     RTC_DST_DATE_FIXED = 1u
  30:Generated_Source\PSoC4/RTC.h **** }RTC_DST_DATETYPE_ENUM;
  31:Generated_Source\PSoC4/RTC.h **** 
  32:Generated_Source\PSoC4/RTC.h **** /**
  33:Generated_Source\PSoC4/RTC.h **** * \addtogroup group_structures
ARM GAS  C:\DOCUME~1\Admin\LOCALS~1\Temp\cc54ejBc.s 			page 2


  34:Generated_Source\PSoC4/RTC.h **** * @{
  35:Generated_Source\PSoC4/RTC.h **** */
  36:Generated_Source\PSoC4/RTC.h **** 
  37:Generated_Source\PSoC4/RTC.h **** /**
  38:Generated_Source\PSoC4/RTC.h **** * This is the data structure that is used to save the current time and date 
  39:Generated_Source\PSoC4/RTC.h **** * (RTC_currentTimeDate), and Alarm time and date (RTC_alarmCfgTimeDate).
  40:Generated_Source\PSoC4/RTC.h **** */
  41:Generated_Source\PSoC4/RTC.h **** typedef struct
  42:Generated_Source\PSoC4/RTC.h **** {
  43:Generated_Source\PSoC4/RTC.h ****     uint32 time;
  44:Generated_Source\PSoC4/RTC.h ****     uint32 date;
  45:Generated_Source\PSoC4/RTC.h ****     uint32 dayOfWeek;
  46:Generated_Source\PSoC4/RTC.h ****     uint32 status;
  47:Generated_Source\PSoC4/RTC.h **** }RTC_DATE_TIME;
  48:Generated_Source\PSoC4/RTC.h **** 
  49:Generated_Source\PSoC4/RTC.h **** /**
  50:Generated_Source\PSoC4/RTC.h **** * This is the data structure that is used to save time and date values for 
  51:Generated_Source\PSoC4/RTC.h **** * Daylight Savings Time Start and Stop (RTC_dstTimeDateStart and 
  52:Generated_Source\PSoC4/RTC.h **** * RTC_dstTimeDateStop).
  53:Generated_Source\PSoC4/RTC.h **** */
  54:Generated_Source\PSoC4/RTC.h **** typedef struct
  55:Generated_Source\PSoC4/RTC.h **** {
  56:Generated_Source\PSoC4/RTC.h ****     uint32 hour;
  57:Generated_Source\PSoC4/RTC.h ****     uint32 dayOfWeek;
  58:Generated_Source\PSoC4/RTC.h ****     uint32 dayOfMonth;
  59:Generated_Source\PSoC4/RTC.h ****     uint32 weekOfMonth;
  60:Generated_Source\PSoC4/RTC.h ****     uint32 month;
  61:Generated_Source\PSoC4/RTC.h ****     uint8  timeFormat;
  62:Generated_Source\PSoC4/RTC.h **** }RTC_DST_TIME;
  63:Generated_Source\PSoC4/RTC.h **** 
  64:Generated_Source\PSoC4/RTC.h **** /** @} structures */
  65:Generated_Source\PSoC4/RTC.h **** 
  66:Generated_Source\PSoC4/RTC.h **** /*******************************************************************************
  67:Generated_Source\PSoC4/RTC.h **** *    Enumerated Types and Parameters
  68:Generated_Source\PSoC4/RTC.h **** *******************************************************************************/
  69:Generated_Source\PSoC4/RTC.h **** /* Time Format setting constants */
  70:Generated_Source\PSoC4/RTC.h **** #define RTC__HOUR_12 1
  71:Generated_Source\PSoC4/RTC.h **** #define RTC__HOUR_24 0
  72:Generated_Source\PSoC4/RTC.h **** 
  73:Generated_Source\PSoC4/RTC.h **** /*  Date Format setting constants */
  74:Generated_Source\PSoC4/RTC.h **** #define RTC__MM_DD_YYYY 0
  75:Generated_Source\PSoC4/RTC.h **** #define RTC__DD_MM_YYYY 1
  76:Generated_Source\PSoC4/RTC.h **** #define RTC__YYYY_MM_DD 2
  77:Generated_Source\PSoC4/RTC.h **** 
  78:Generated_Source\PSoC4/RTC.h **** /* Date Type setting constants */
  79:Generated_Source\PSoC4/RTC.h **** #define RTC__RELATIVE 0
  80:Generated_Source\PSoC4/RTC.h **** #define RTC__FIXED 1
  81:Generated_Source\PSoC4/RTC.h **** 
  82:Generated_Source\PSoC4/RTC.h **** /* DST Hour setting constants */
  83:Generated_Source\PSoC4/RTC.h **** #define RTC__H0000 0
  84:Generated_Source\PSoC4/RTC.h **** #define RTC__H0100 1
  85:Generated_Source\PSoC4/RTC.h **** #define RTC__H0200 2
  86:Generated_Source\PSoC4/RTC.h **** #define RTC__H0300 3
  87:Generated_Source\PSoC4/RTC.h **** #define RTC__H0400 4
  88:Generated_Source\PSoC4/RTC.h **** #define RTC__H0500 5
  89:Generated_Source\PSoC4/RTC.h **** #define RTC__H0600 6
  90:Generated_Source\PSoC4/RTC.h **** #define RTC__H0700 7
ARM GAS  C:\DOCUME~1\Admin\LOCALS~1\Temp\cc54ejBc.s 			page 3


  91:Generated_Source\PSoC4/RTC.h **** #define RTC__H0800 8
  92:Generated_Source\PSoC4/RTC.h **** #define RTC__H0900 9
  93:Generated_Source\PSoC4/RTC.h **** #define RTC__H1000 10
  94:Generated_Source\PSoC4/RTC.h **** #define RTC__H1100 11
  95:Generated_Source\PSoC4/RTC.h **** #define RTC__H1200 12
  96:Generated_Source\PSoC4/RTC.h **** #define RTC__H1300 13
  97:Generated_Source\PSoC4/RTC.h **** #define RTC__H1400 14
  98:Generated_Source\PSoC4/RTC.h **** #define RTC__H1500 15
  99:Generated_Source\PSoC4/RTC.h **** #define RTC__H1600 16
 100:Generated_Source\PSoC4/RTC.h **** #define RTC__H1700 17
 101:Generated_Source\PSoC4/RTC.h **** #define RTC__H1800 18
 102:Generated_Source\PSoC4/RTC.h **** #define RTC__H1900 19
 103:Generated_Source\PSoC4/RTC.h **** #define RTC__H2000 20
 104:Generated_Source\PSoC4/RTC.h **** #define RTC__H2100 21
 105:Generated_Source\PSoC4/RTC.h **** #define RTC__H2200 22
 106:Generated_Source\PSoC4/RTC.h **** #define RTC__H2300 23
 107:Generated_Source\PSoC4/RTC.h **** 
 108:Generated_Source\PSoC4/RTC.h **** /* DST DayOfWeek setting constants */
 109:Generated_Source\PSoC4/RTC.h **** #define RTC__SUNDAY 1
 110:Generated_Source\PSoC4/RTC.h **** #define RTC__MONDAY 2
 111:Generated_Source\PSoC4/RTC.h **** #define RTC__TUESDAY 3
 112:Generated_Source\PSoC4/RTC.h **** #define RTC__WEDNESDAY 4
 113:Generated_Source\PSoC4/RTC.h **** #define RTC__THURSDAY 5
 114:Generated_Source\PSoC4/RTC.h **** #define RTC__FRIDAY 6
 115:Generated_Source\PSoC4/RTC.h **** #define RTC__SATURDAY 7
 116:Generated_Source\PSoC4/RTC.h **** 
 117:Generated_Source\PSoC4/RTC.h **** /* DST Month setting constants */
 118:Generated_Source\PSoC4/RTC.h **** #define RTC__JAN 1
 119:Generated_Source\PSoC4/RTC.h **** #define RTC__FEB 2
 120:Generated_Source\PSoC4/RTC.h **** #define RTC__MAR 3
 121:Generated_Source\PSoC4/RTC.h **** #define RTC__APR 4
 122:Generated_Source\PSoC4/RTC.h **** #define RTC__MAY 5
 123:Generated_Source\PSoC4/RTC.h **** #define RTC__JUN 6
 124:Generated_Source\PSoC4/RTC.h **** #define RTC__JUL 7
 125:Generated_Source\PSoC4/RTC.h **** #define RTC__AUG 8
 126:Generated_Source\PSoC4/RTC.h **** #define RTC__SEP 9
 127:Generated_Source\PSoC4/RTC.h **** #define RTC__OCT 10
 128:Generated_Source\PSoC4/RTC.h **** #define RTC__NOV 11
 129:Generated_Source\PSoC4/RTC.h **** #define RTC__DEC 12
 130:Generated_Source\PSoC4/RTC.h **** 
 131:Generated_Source\PSoC4/RTC.h **** /* DST WeekOfMonth setting constants */
 132:Generated_Source\PSoC4/RTC.h **** #define RTC__FIRST 1
 133:Generated_Source\PSoC4/RTC.h **** #define RTC__SECOND 2
 134:Generated_Source\PSoC4/RTC.h **** #define RTC__THIRD 3
 135:Generated_Source\PSoC4/RTC.h **** #define RTC__FOURTH 4
 136:Generated_Source\PSoC4/RTC.h **** #define RTC__FIFTH 5
 137:Generated_Source\PSoC4/RTC.h **** #define RTC__LAST 6
 138:Generated_Source\PSoC4/RTC.h **** 
 139:Generated_Source\PSoC4/RTC.h **** 
 140:Generated_Source\PSoC4/RTC.h **** #define RTC_INITIAL_DATA_FORMAT     (0u)
 141:Generated_Source\PSoC4/RTC.h **** #define RTC_INITIAL_TIME_FORMAT     (0u)
 142:Generated_Source\PSoC4/RTC.h **** #define RTC_INITIAL_UPDATE_MODE     (0u)
 143:Generated_Source\PSoC4/RTC.h **** #define RTC_INITIAL_SECOND          (0u)
 144:Generated_Source\PSoC4/RTC.h **** #define RTC_INITIAL_MINUTE          (16u)
 145:Generated_Source\PSoC4/RTC.h **** #define RTC_INITIAL_HOUR            (10u)
 146:Generated_Source\PSoC4/RTC.h **** #define RTC_INITIAL_DAY             (9u)
 147:Generated_Source\PSoC4/RTC.h **** #define RTC_INITIAL_MONTH           (8u)
ARM GAS  C:\DOCUME~1\Admin\LOCALS~1\Temp\cc54ejBc.s 			page 4


 148:Generated_Source\PSoC4/RTC.h **** #define RTC_INITIAL_YEAR            (2016u)
 149:Generated_Source\PSoC4/RTC.h **** 
 150:Generated_Source\PSoC4/RTC.h **** #define RTC_INITIAL_ALARM_STATUS    (0u)
 151:Generated_Source\PSoC4/RTC.h **** 
 152:Generated_Source\PSoC4/RTC.h **** #define RTC_INITIAL_DST_STATUS      (0u)
 153:Generated_Source\PSoC4/RTC.h **** #define RTC_INITIAL_DST_DATE_TYPE   (0u)
 154:Generated_Source\PSoC4/RTC.h **** #define RTC_INITIAL_DST_START_MONTH (3uL)
 155:Generated_Source\PSoC4/RTC.h **** #define RTC_INITIAL_DST_START_WOM   (6uL)
 156:Generated_Source\PSoC4/RTC.h **** #define RTC_INITIAL_DST_START_DOM   (22uL)
 157:Generated_Source\PSoC4/RTC.h **** #define RTC_INITIAL_DST_START_DOW   (1uL)
 158:Generated_Source\PSoC4/RTC.h **** #define RTC_INITIAL_DST_START_HRS   (0uL)
 159:Generated_Source\PSoC4/RTC.h **** #define RTC_INITIAL_DST_STOP_MONTH  (10uL)
 160:Generated_Source\PSoC4/RTC.h **** #define RTC_INITIAL_DST_STOP_DOM    (22uL)
 161:Generated_Source\PSoC4/RTC.h **** #define RTC_INITIAL_DST_STOP_DOW    (1uL)
 162:Generated_Source\PSoC4/RTC.h **** #define RTC_INITIAL_DST_STOP_WOM    (6uL)
 163:Generated_Source\PSoC4/RTC.h **** #define RTC_INITIAL_DST_STOP_HRS    (0uL)
 164:Generated_Source\PSoC4/RTC.h **** 
 165:Generated_Source\PSoC4/RTC.h **** /* Day of week definitions */
 166:Generated_Source\PSoC4/RTC.h **** #define RTC_SUNDAY     (RTC__SUNDAY)
 167:Generated_Source\PSoC4/RTC.h **** #define RTC_MONDAY     (RTC__MONDAY)
 168:Generated_Source\PSoC4/RTC.h **** #define RTC_TUESDAY    (RTC__TUESDAY)
 169:Generated_Source\PSoC4/RTC.h **** #define RTC_WEDNESDAY  (RTC__WEDNESDAY)
 170:Generated_Source\PSoC4/RTC.h **** #define RTC_THURSDAY   (RTC__THURSDAY)
 171:Generated_Source\PSoC4/RTC.h **** #define RTC_FRIDAY     (RTC__FRIDAY)
 172:Generated_Source\PSoC4/RTC.h **** #define RTC_SATURDAY   (RTC__SATURDAY)
 173:Generated_Source\PSoC4/RTC.h **** 
 174:Generated_Source\PSoC4/RTC.h **** /* DST WeekOfMonth setting constants definitions */
 175:Generated_Source\PSoC4/RTC.h **** #define RTC_FIRST      (RTC__FIRST)
 176:Generated_Source\PSoC4/RTC.h **** #define RTC_SECOND     (RTC__SECOND)
 177:Generated_Source\PSoC4/RTC.h **** #define RTC_THIRD      (RTC__THIRD)
 178:Generated_Source\PSoC4/RTC.h **** #define RTC_FOURTH     (RTC__FOURTH)
 179:Generated_Source\PSoC4/RTC.h **** #define RTC_FIFTH      (RTC__FIFTH)
 180:Generated_Source\PSoC4/RTC.h **** #define RTC_LAST       (RTC__LAST)
 181:Generated_Source\PSoC4/RTC.h **** 
 182:Generated_Source\PSoC4/RTC.h **** /* Month definitions */
 183:Generated_Source\PSoC4/RTC.h **** #define RTC_JANUARY    (RTC__JAN)
 184:Generated_Source\PSoC4/RTC.h **** #define RTC_FEBRUARY   (RTC__FEB)
 185:Generated_Source\PSoC4/RTC.h **** #define RTC_MARCH      (RTC__MAR)
 186:Generated_Source\PSoC4/RTC.h **** #define RTC_APRIL      (RTC__APR)
 187:Generated_Source\PSoC4/RTC.h **** #define RTC_MAY        (RTC__MAY)
 188:Generated_Source\PSoC4/RTC.h **** #define RTC_JUNE       (RTC__JUN)
 189:Generated_Source\PSoC4/RTC.h **** #define RTC_JULY       (RTC__JUL)
 190:Generated_Source\PSoC4/RTC.h **** #define RTC_AUGUST     (RTC__AUG)
 191:Generated_Source\PSoC4/RTC.h **** #define RTC_SEPTEMBER  (RTC__SEP)
 192:Generated_Source\PSoC4/RTC.h **** #define RTC_OCTOBER    (RTC__OCT)
 193:Generated_Source\PSoC4/RTC.h **** #define RTC_NOVEMBER   (RTC__NOV)
 194:Generated_Source\PSoC4/RTC.h **** #define RTC_DECEMBER   (RTC__DEC)
 195:Generated_Source\PSoC4/RTC.h **** 
 196:Generated_Source\PSoC4/RTC.h **** #define RTC_DAYS_PER_WEEK       (7u)
 197:Generated_Source\PSoC4/RTC.h **** 
 198:Generated_Source\PSoC4/RTC.h **** /* Number of days in month definitions */
 199:Generated_Source\PSoC4/RTC.h **** #define RTC_DAYS_IN_JANUARY     (31u)
 200:Generated_Source\PSoC4/RTC.h **** #define RTC_DAYS_IN_FEBRUARY    (28u)
 201:Generated_Source\PSoC4/RTC.h **** #define RTC_DAYS_IN_MARCH       (31u)
 202:Generated_Source\PSoC4/RTC.h **** #define RTC_DAYS_IN_APRIL       (30u)
 203:Generated_Source\PSoC4/RTC.h **** #define RTC_DAYS_IN_MAY         (31u)
 204:Generated_Source\PSoC4/RTC.h **** #define RTC_DAYS_IN_JUNE        (30u)
ARM GAS  C:\DOCUME~1\Admin\LOCALS~1\Temp\cc54ejBc.s 			page 5


 205:Generated_Source\PSoC4/RTC.h **** #define RTC_DAYS_IN_JULY        (31u)
 206:Generated_Source\PSoC4/RTC.h **** #define RTC_DAYS_IN_AUGUST      (31u)
 207:Generated_Source\PSoC4/RTC.h **** #define RTC_DAYS_IN_SEPTEMBER   (30u)
 208:Generated_Source\PSoC4/RTC.h **** #define RTC_DAYS_IN_OCTOBER     (31u)
 209:Generated_Source\PSoC4/RTC.h **** #define RTC_DAYS_IN_NOVEMBER    (30u)
 210:Generated_Source\PSoC4/RTC.h **** #define RTC_DAYS_IN_DECEMBER    (31u)
 211:Generated_Source\PSoC4/RTC.h **** 
 212:Generated_Source\PSoC4/RTC.h **** #define RTC_MONTHS_PER_YEAR     (12uL)
 213:Generated_Source\PSoC4/RTC.h **** 
 214:Generated_Source\PSoC4/RTC.h **** #define RTC_HOURS_PER_DAY       (24uL)
 215:Generated_Source\PSoC4/RTC.h **** #define RTC_HOURS_PER_HALF_DAY  (12uL)
 216:Generated_Source\PSoC4/RTC.h **** 
 217:Generated_Source\PSoC4/RTC.h **** #define RTC_SECONDS_PER_MINUTE  (60uL)
 218:Generated_Source\PSoC4/RTC.h **** #define RTC_SECONDS_PER_HOUR    (3600uL)
 219:Generated_Source\PSoC4/RTC.h **** #define RTC_SECONDS_PER_DAY     (24uL * 3600uL)
 220:Generated_Source\PSoC4/RTC.h **** 
 221:Generated_Source\PSoC4/RTC.h **** #define RTC_SECONDS_PER_LEAP_YEAR    (366uL * 24uL * 3600uL)
 222:Generated_Source\PSoC4/RTC.h **** #define RTC_SECONDS_PER_NONLEAP_YEAR (365uL * 24uL * 3600uL)
 223:Generated_Source\PSoC4/RTC.h **** 
 224:Generated_Source\PSoC4/RTC.h **** #define RTC_UNIX_TIME_PM   ((12uL * 3600uL) + 1uL)
 225:Generated_Source\PSoC4/RTC.h **** 
 226:Generated_Source\PSoC4/RTC.h **** /* AM/PM status definitions */
 227:Generated_Source\PSoC4/RTC.h **** #define RTC_AM                 (0u)
 228:Generated_Source\PSoC4/RTC.h **** #define RTC_PM                 (1u)
 229:Generated_Source\PSoC4/RTC.h **** 
 230:Generated_Source\PSoC4/RTC.h **** /* Time format definitions */
 231:Generated_Source\PSoC4/RTC.h **** #define RTC_12_HOURS_FORMAT    (RTC__HOUR_12)
 232:Generated_Source\PSoC4/RTC.h **** #define RTC_24_HOURS_FORMAT    (RTC__HOUR_24)
 233:Generated_Source\PSoC4/RTC.h **** 
 234:Generated_Source\PSoC4/RTC.h **** /* UNIX time begins in 1970 year.  */
 235:Generated_Source\PSoC4/RTC.h **** #define RTC_YEAR_0             (1970u)
 236:Generated_Source\PSoC4/RTC.h **** 
 237:Generated_Source\PSoC4/RTC.h **** /* Definition of date register fields */
 238:Generated_Source\PSoC4/RTC.h **** #if(RTC_INITIAL_DATA_FORMAT == RTC__MM_DD_YYYY)
 239:Generated_Source\PSoC4/RTC.h ****     #define RTC_10_MONTH_OFFSET   (28u)
 240:Generated_Source\PSoC4/RTC.h ****     #define RTC_MONTH_OFFSET      (24u)
 241:Generated_Source\PSoC4/RTC.h ****     #define RTC_10_DAY_OFFSET     (20u)
 242:Generated_Source\PSoC4/RTC.h ****     #define RTC_DAY_OFFSET        (16u)
 243:Generated_Source\PSoC4/RTC.h ****     #define RTC_1000_YEAR_OFFSET  (12u)
 244:Generated_Source\PSoC4/RTC.h ****     #define RTC_100_YEAR_OFFSET   (8u)
 245:Generated_Source\PSoC4/RTC.h ****     #define RTC_10_YEAR_OFFSET    (4u)
 246:Generated_Source\PSoC4/RTC.h ****     #define RTC_YEAR_OFFSET       (0u)
 247:Generated_Source\PSoC4/RTC.h **** #elif(RTC_INITIAL_DATA_FORMAT == RTC__DD_MM_YYYY)
 248:Generated_Source\PSoC4/RTC.h ****     #define RTC_10_MONTH_OFFSET   (20u)
 249:Generated_Source\PSoC4/RTC.h ****     #define RTC_MONTH_OFFSET      (16u)
 250:Generated_Source\PSoC4/RTC.h ****     #define RTC_10_DAY_OFFSET     (28u)
 251:Generated_Source\PSoC4/RTC.h ****     #define RTC_DAY_OFFSET        (24u)
 252:Generated_Source\PSoC4/RTC.h ****     #define RTC_1000_YEAR_OFFSET  (12u)
 253:Generated_Source\PSoC4/RTC.h ****     #define RTC_100_YEAR_OFFSET   (8u)
 254:Generated_Source\PSoC4/RTC.h ****     #define RTC_10_YEAR_OFFSET    (4u)
 255:Generated_Source\PSoC4/RTC.h ****     #define RTC_YEAR_OFFSET       (0u)
 256:Generated_Source\PSoC4/RTC.h **** #else
 257:Generated_Source\PSoC4/RTC.h ****     #define RTC_10_MONTH_OFFSET   (12u)
 258:Generated_Source\PSoC4/RTC.h ****     #define RTC_MONTH_OFFSET      (8u)
 259:Generated_Source\PSoC4/RTC.h ****     #define RTC_10_DAY_OFFSET     (4u)
 260:Generated_Source\PSoC4/RTC.h ****     #define RTC_DAY_OFFSET        (0u)
 261:Generated_Source\PSoC4/RTC.h ****     #define RTC_1000_YEAR_OFFSET  (28u)
ARM GAS  C:\DOCUME~1\Admin\LOCALS~1\Temp\cc54ejBc.s 			page 6


 262:Generated_Source\PSoC4/RTC.h ****     #define RTC_100_YEAR_OFFSET   (24u)
 263:Generated_Source\PSoC4/RTC.h ****     #define RTC_10_YEAR_OFFSET    (20u)
 264:Generated_Source\PSoC4/RTC.h ****     #define RTC_YEAR_OFFSET       (16u)
 265:Generated_Source\PSoC4/RTC.h **** #endif /* (RTC_INITIAL_DATA_FORMAT == RTC__MM_DD_YYYY) */
 266:Generated_Source\PSoC4/RTC.h **** 
 267:Generated_Source\PSoC4/RTC.h **** #define RTC_10_MONTH_MASK          (0x00000001uL << RTC_10_MONTH_OFFSET)
 268:Generated_Source\PSoC4/RTC.h **** #define RTC_MONTH_MASK             (0x0000000FuL << RTC_MONTH_OFFSET)
 269:Generated_Source\PSoC4/RTC.h **** #define RTC_10_DAY_MASK            (0x00000003uL << RTC_10_DAY_OFFSET)
 270:Generated_Source\PSoC4/RTC.h **** #define RTC_DAY_MASK               (0x0000000FuL << RTC_DAY_OFFSET)
 271:Generated_Source\PSoC4/RTC.h **** #define RTC_1000_YEAR_MASK         (0x00000003uL << RTC_1000_YEAR_OFFSET)
 272:Generated_Source\PSoC4/RTC.h **** #define RTC_100_YEAR_MASK          (0x0000000FuL << RTC_100_YEAR_OFFSET)
 273:Generated_Source\PSoC4/RTC.h **** #define RTC_10_YEAR_MASK           (0x0000000FuL << RTC_10_YEAR_OFFSET)
 274:Generated_Source\PSoC4/RTC.h **** #define RTC_YEAR_MASK              (0x0000000FuL << RTC_YEAR_OFFSET)
 275:Generated_Source\PSoC4/RTC.h **** 
 276:Generated_Source\PSoC4/RTC.h **** #define  RTC_MONTH_FULL_MASK       (RTC_10_MONTH_MASK  | RTC_MONTH_MASK)
 277:Generated_Source\PSoC4/RTC.h **** #define  RTC_DAY_FULL_MASK         (RTC_10_DAY_MASK    | RTC_DAY_MASK)
 278:Generated_Source\PSoC4/RTC.h **** #define  RTC_YEAR_FULL_MASK        (RTC_1000_YEAR_MASK | RTC_100_YEAR_MASK |\
 279:Generated_Source\PSoC4/RTC.h ****                                                  RTC_10_YEAR_MASK   | RTC_YEAR_MASK)
 280:Generated_Source\PSoC4/RTC.h **** 
 281:Generated_Source\PSoC4/RTC.h **** 
 282:Generated_Source\PSoC4/RTC.h **** /* Definition of time register fields */
 283:Generated_Source\PSoC4/RTC.h **** #define RTC_TIME_FORMAT_OFFSET     (23u)
 284:Generated_Source\PSoC4/RTC.h **** #define RTC_PERIOD_OF_DAY_OFFSET   (22u)
 285:Generated_Source\PSoC4/RTC.h **** #define RTC_10_HOURS_OFFSET        (20u)
 286:Generated_Source\PSoC4/RTC.h **** #define RTC_HOURS_OFFSET           (16u)
 287:Generated_Source\PSoC4/RTC.h **** #define RTC_10_MINUTES_OFFSET      (12u)
 288:Generated_Source\PSoC4/RTC.h **** #define RTC_MINUTES_OFFSET         (8u)
 289:Generated_Source\PSoC4/RTC.h **** #define RTC_10_SECONDS_OFFSET      (4u)
 290:Generated_Source\PSoC4/RTC.h **** #define RTC_SECONDS_OFFSET         (0u)
 291:Generated_Source\PSoC4/RTC.h **** 
 292:Generated_Source\PSoC4/RTC.h **** #define RTC_TIME_FORMAT_MASK       (0x00000001uL << RTC_TIME_FORMAT_OFFSET)
 293:Generated_Source\PSoC4/RTC.h **** #define RTC_PERIOD_OF_DAY_MASK     (0x00000001uL << RTC_PERIOD_OF_DAY_OFFSET)
 294:Generated_Source\PSoC4/RTC.h **** #define RTC_10_HOURS_MASK          (0x00000003uL << RTC_10_HOURS_OFFSET)
 295:Generated_Source\PSoC4/RTC.h **** #define RTC_HOURS_MASK             (0x0000000FuL << RTC_HOURS_OFFSET)
 296:Generated_Source\PSoC4/RTC.h **** #define RTC_10_MINUTES_MASK        (0x00000007uL << RTC_10_MINUTES_OFFSET)
 297:Generated_Source\PSoC4/RTC.h **** #define RTC_MINUTES_MASK           (0x0000000FuL << RTC_MINUTES_OFFSET)
 298:Generated_Source\PSoC4/RTC.h **** #define RTC_10_SECONDS_MASK        (0x00000007uL << RTC_10_SECONDS_OFFSET)
 299:Generated_Source\PSoC4/RTC.h **** #define RTC_SECONDS_MASK           (0x0000000FuL << RTC_SECONDS_OFFSET)
 300:Generated_Source\PSoC4/RTC.h **** 
 301:Generated_Source\PSoC4/RTC.h **** #define RTC_HOURS_FULL_MASK        (RTC_10_HOURS_MASK   | RTC_HOURS_MASK)
 302:Generated_Source\PSoC4/RTC.h **** #define RTC_MINUTES_FULL_MASK      (RTC_10_MINUTES_MASK | RTC_MINUTES_MASK)
 303:Generated_Source\PSoC4/RTC.h **** #define RTC_SECONDS_FULL_MASK      (RTC_10_SECONDS_MASK | RTC_SECONDS_MASK)
 304:Generated_Source\PSoC4/RTC.h **** 
 305:Generated_Source\PSoC4/RTC.h **** #define RTC_ALARM_SEC_MASK         (0x00000001uL)
 306:Generated_Source\PSoC4/RTC.h **** #define RTC_ALARM_MIN_MASK         (0x00000002uL)
 307:Generated_Source\PSoC4/RTC.h **** #define RTC_ALARM_HOUR_MASK        (0x00000004uL)
 308:Generated_Source\PSoC4/RTC.h **** #define RTC_ALARM_DAYOFWEEK_MASK   (0x00000008uL)
 309:Generated_Source\PSoC4/RTC.h **** #define RTC_ALARM_DAYOFMONTH_MASK  (0x00000010uL)
 310:Generated_Source\PSoC4/RTC.h **** #define RTC_ALARM_MONTH_MASK       (0x00000020uL)
 311:Generated_Source\PSoC4/RTC.h **** #define RTC_ALARM_YEAR_MASK        (0x00000040uL)
 312:Generated_Source\PSoC4/RTC.h **** 
 313:Generated_Source\PSoC4/RTC.h **** #define RTC_STATUS_DST_OFFSET      (1u)
 314:Generated_Source\PSoC4/RTC.h **** #define RTC_STATUS_ALARM_OFFSET    (2u)
 315:Generated_Source\PSoC4/RTC.h **** #define RTC_STATUS_LY_OFFSET       (3u)
 316:Generated_Source\PSoC4/RTC.h **** #define RTC_STATUS_AM_PM_OFFSET    (4u)
 317:Generated_Source\PSoC4/RTC.h **** 
 318:Generated_Source\PSoC4/RTC.h **** /* Definition of the RTC status values. */
ARM GAS  C:\DOCUME~1\Admin\LOCALS~1\Temp\cc54ejBc.s 			page 7


 319:Generated_Source\PSoC4/RTC.h **** #define RTC_STATUS_DST             (1uL << RTC_STATUS_DST_OFFSET)
 320:Generated_Source\PSoC4/RTC.h **** #define RTC_STATUS_LY              (1uL << RTC_STATUS_LY_OFFSET)
 321:Generated_Source\PSoC4/RTC.h **** #define RTC_STATUS_AM_PM           (1uL << RTC_STATUS_AM_PM_OFFSET)
 322:Generated_Source\PSoC4/RTC.h **** 
 323:Generated_Source\PSoC4/RTC.h **** /* Number of bits per one BCD digit. */
 324:Generated_Source\PSoC4/RTC.h **** #define RTC_BCD_NUMBER_SIZE        (4u)
 325:Generated_Source\PSoC4/RTC.h **** #define RTC_BCD_ONE_DIGIT_MASK     (0x0000000FuL)
 326:Generated_Source\PSoC4/RTC.h **** 
 327:Generated_Source\PSoC4/RTC.h **** /*******************************************************************************
 328:Generated_Source\PSoC4/RTC.h **** *    Function Prototypes
 329:Generated_Source\PSoC4/RTC.h **** *******************************************************************************/
 330:Generated_Source\PSoC4/RTC.h **** /**
 331:Generated_Source\PSoC4/RTC.h **** * \addtogroup group_api
 332:Generated_Source\PSoC4/RTC.h **** * @{
 333:Generated_Source\PSoC4/RTC.h **** */
 334:Generated_Source\PSoC4/RTC.h **** void   RTC_Start(void);
 335:Generated_Source\PSoC4/RTC.h **** void   RTC_Stop(void);
 336:Generated_Source\PSoC4/RTC.h **** void   RTC_Init(void);
 337:Generated_Source\PSoC4/RTC.h **** void   RTC_SetUnixTime(uint64 unixTime);
 338:Generated_Source\PSoC4/RTC.h **** uint64 RTC_GetUnixTime(void);
 339:Generated_Source\PSoC4/RTC.h **** void   RTC_SetPeriod(uint32 ticks, uint32 refOneSecTicks);
 340:Generated_Source\PSoC4/RTC.h **** uint32 RTC_GetPeriod(void);
 341:Generated_Source\PSoC4/RTC.h **** uint32 RTC_GetRefOneSec(void);
 342:Generated_Source\PSoC4/RTC.h **** void   RTC_SetDateAndTime(uint32 inputTime, uint32 inputDate);
 343:Generated_Source\PSoC4/RTC.h **** void   RTC_GetDateAndTime(RTC_DATE_TIME* dateTime);
 344:Generated_Source\PSoC4/RTC.h **** uint32 RTC_GetTime(void);
 345:Generated_Source\PSoC4/RTC.h **** uint32 RTC_GetDate(void);
 346:Generated_Source\PSoC4/RTC.h **** void   RTC_SetAlarmDateAndTime(const RTC_DATE_TIME* alarmTime);
 347:Generated_Source\PSoC4/RTC.h **** void   RTC_GetAlarmDateAndTime(RTC_DATE_TIME* alarmTimeDate);
 348:Generated_Source\PSoC4/RTC.h **** void   RTC_SetAlarmMask(uint32 mask);
 349:Generated_Source\PSoC4/RTC.h **** uint32 RTC_GetAlarmMask(void);
 350:Generated_Source\PSoC4/RTC.h **** uint32 RTC_ReadStatus(void);
 351:Generated_Source\PSoC4/RTC.h **** uint32 RTC_GetAlarmStatus(void);
 352:Generated_Source\PSoC4/RTC.h **** void   RTC_ClearAlarmStatus(void);
 353:Generated_Source\PSoC4/RTC.h **** void   RTC_SetDSTStartTime(const RTC_DST_TIME* dstStartTime,
 354:Generated_Source\PSoC4/RTC.h ****                                               RTC_DST_DATETYPE_ENUM type);
 355:Generated_Source\PSoC4/RTC.h **** void   RTC_SetDSTStopTime(const RTC_DST_TIME* dstStopTime,
 356:Generated_Source\PSoC4/RTC.h ****                                              RTC_DST_DATETYPE_ENUM type);
 357:Generated_Source\PSoC4/RTC.h **** uint32 RTC_ConvertBCDToDec(uint32 bcdNum);
 358:Generated_Source\PSoC4/RTC.h **** uint32 RTC_ConvertDecToBCD(uint32 decNum);
 359:Generated_Source\PSoC4/RTC.h **** void   RTC_Update(void);
 360:Generated_Source\PSoC4/RTC.h **** void*  RTC_SetAlarmHandler(void (*CallbackFunction)(void));
 361:Generated_Source\PSoC4/RTC.h **** 
 362:Generated_Source\PSoC4/RTC.h **** static uint32 RTC_ConstructDate(uint32 month, uint32 day, uint32 year);
 363:Generated_Source\PSoC4/RTC.h **** static uint32 RTC_ConstructTime(uint32 timeFormat, uint32 stateAmPm, uint32 hour, uint32 min, uint3
 364:Generated_Source\PSoC4/RTC.h **** /** @} api */
 365:Generated_Source\PSoC4/RTC.h **** 
 366:Generated_Source\PSoC4/RTC.h **** static uint32 RTC_GetTimeFormat(uint32 inputTime);
 367:Generated_Source\PSoC4/RTC.h **** static uint32 RTC_SetTimeFormat(uint32 inputTime, uint32 timeFormat);
 368:Generated_Source\PSoC4/RTC.h **** 
 369:Generated_Source\PSoC4/RTC.h **** /**
 370:Generated_Source\PSoC4/RTC.h **** * \addtogroup group_api
 371:Generated_Source\PSoC4/RTC.h **** * @{
 372:Generated_Source\PSoC4/RTC.h **** */
 373:Generated_Source\PSoC4/RTC.h **** static uint32 RTC_LeapYear(uint32 year);
 374:Generated_Source\PSoC4/RTC.h **** static uint32 RTC_IsBitSet(uint32 var, uint32 mask);
 375:Generated_Source\PSoC4/RTC.h **** static uint32 RTC_GetSecond(uint32 inputTime);
ARM GAS  C:\DOCUME~1\Admin\LOCALS~1\Temp\cc54ejBc.s 			page 8


 376:Generated_Source\PSoC4/RTC.h **** static uint32 RTC_GetMinutes(uint32 inputTime);
 377:Generated_Source\PSoC4/RTC.h **** static uint32 RTC_GetHours(uint32 inputTime);
 378:Generated_Source\PSoC4/RTC.h **** static uint32 RTC_GetAmPm(uint32 inputTime);
 379:Generated_Source\PSoC4/RTC.h **** static uint32 RTC_GetDay(uint32 date);
 380:Generated_Source\PSoC4/RTC.h **** static uint32 RTC_GetMonth(uint32 date);
 381:Generated_Source\PSoC4/RTC.h **** static uint32 RTC_GetYear(uint32 date);
 382:Generated_Source\PSoC4/RTC.h **** /** @} api */
 383:Generated_Source\PSoC4/RTC.h **** 
 384:Generated_Source\PSoC4/RTC.h **** static uint32 RTC_SetSecond(uint32 inputTime, uint32 inputSecond);
 385:Generated_Source\PSoC4/RTC.h **** static uint32 RTC_SetMinutes(uint32 inputTime, uint32 inputMinute);
 386:Generated_Source\PSoC4/RTC.h **** static uint32 RTC_SetHours(uint32 inputTime, uint32 inputHours);
 387:Generated_Source\PSoC4/RTC.h **** static uint32 RTC_SetAmPm(uint32 inputTime, uint32 periodOfDay);
 388:Generated_Source\PSoC4/RTC.h **** static uint32 RTC_SetDay(uint32 inputDate, uint32 inputDay);
 389:Generated_Source\PSoC4/RTC.h **** static uint32 RTC_SetMonth(uint32 inputDate, uint32 inputMonth);
 390:Generated_Source\PSoC4/RTC.h **** static uint32 RTC_SetYear(uint32 inputDate, uint32 inputYear);
 391:Generated_Source\PSoC4/RTC.h **** 
 392:Generated_Source\PSoC4/RTC.h **** uint64 RTC_ConstructUnixAlarmTime(const RTC_DATE_TIME* alarmTime, uint8 alarmCfgMask);
 393:Generated_Source\PSoC4/RTC.h **** uint64 RTC_GetDstUnixTime(const RTC_DST_TIME* dstTime);
 394:Generated_Source\PSoC4/RTC.h **** uint64 RTC_GetNexAlarmTime(uint64 curUnixTime, uint8 alarmCfgMask);
 395:Generated_Source\PSoC4/RTC.h **** 
 396:Generated_Source\PSoC4/RTC.h **** static uint32 RTC_GetNextMinSec(uint32 curVal);
 397:Generated_Source\PSoC4/RTC.h **** static uint32 RTC_GetNextHour(uint32 curVal);
 398:Generated_Source\PSoC4/RTC.h **** static uint32 RTC_GetNextDay(uint32 curYear, uint32 curMonth, uint32 curDay, uint32 alarmCfgMask);
 399:Generated_Source\PSoC4/RTC.h **** static uint32 RTC_GetNextMonth(uint32 curMonth);
 400:Generated_Source\PSoC4/RTC.h **** static uint32 RTC_GetNextYear(uint32 curYear);
 401:Generated_Source\PSoC4/RTC.h **** static uint32 RTC_GetDayOfWeek(uint32 day, uint32 month, uint32 year);
 402:Generated_Source\PSoC4/RTC.h **** 
 403:Generated_Source\PSoC4/RTC.h **** uint32 RTC_DaysInMonth(uint32 month, uint32 year);
 404:Generated_Source\PSoC4/RTC.h **** uint32 RTC_DaysBeforeMonth(uint32 month, uint32 year);
 405:Generated_Source\PSoC4/RTC.h **** 
 406:Generated_Source\PSoC4/RTC.h **** /**
 407:Generated_Source\PSoC4/RTC.h **** * \addtogroup group_api
 408:Generated_Source\PSoC4/RTC.h **** * @{
 409:Generated_Source\PSoC4/RTC.h **** */
 410:Generated_Source\PSoC4/RTC.h **** void   RTC_UnixToDateTime(RTC_DATE_TIME* dateTime, uint64 unixTime, uint32 timeFormat);
 411:Generated_Source\PSoC4/RTC.h **** uint64 RTC_DateTimeToUnix(uint32 inputDate, uint32 inputTime);
 412:Generated_Source\PSoC4/RTC.h **** /** @} api */
 413:Generated_Source\PSoC4/RTC.h **** 
 414:Generated_Source\PSoC4/RTC.h **** uint32 RTC_RelativeToFixed(uint32 dayOfWeek, uint32 weekOfMonth, uint32 month, uint32 year);
 415:Generated_Source\PSoC4/RTC.h **** 
 416:Generated_Source\PSoC4/RTC.h **** 
 417:Generated_Source\PSoC4/RTC.h **** #if defined(CYDEV_RTC_SOURCE_WDT)
 418:Generated_Source\PSoC4/RTC.h ****     #if((0u != CYDEV_WDT_GENERATE_ISR) && (0u == RTC_INITIAL_UPDATE_MODE))
 419:Generated_Source\PSoC4/RTC.h ****         static void RTC_CySysRtcSetCallback(uint32 wdtNumber);
 420:Generated_Source\PSoC4/RTC.h ****         static void RTC_CySysRtcResetCallback(uint32 wdtNumber);
 421:Generated_Source\PSoC4/RTC.h ****     #endif /* ((0u != CYDEV_WDT_GENERATE_ISR) && (0u == RTC_INITIAL_UPDATE_MODE)) */
 422:Generated_Source\PSoC4/RTC.h **** #endif /* (CYDEV_RTC_SOURCE_WDT) */
 423:Generated_Source\PSoC4/RTC.h **** 
 424:Generated_Source\PSoC4/RTC.h **** /*******************************************************************************
 425:Generated_Source\PSoC4/RTC.h **** * Function Name: RTC_IsBitSet
 426:Generated_Source\PSoC4/RTC.h **** ****************************************************************************//**
 427:Generated_Source\PSoC4/RTC.h **** *
 428:Generated_Source\PSoC4/RTC.h **** * \brief
 429:Generated_Source\PSoC4/RTC.h **** *  Checks the state of a bit passed through parameter.
 430:Generated_Source\PSoC4/RTC.h **** *
 431:Generated_Source\PSoC4/RTC.h **** * \param
 432:Generated_Source\PSoC4/RTC.h **** *  var The variable to be checked.
ARM GAS  C:\DOCUME~1\Admin\LOCALS~1\Temp\cc54ejBc.s 			page 9


 433:Generated_Source\PSoC4/RTC.h **** * \param
 434:Generated_Source\PSoC4/RTC.h **** *  mask The mask for a bit to be checked.
 435:Generated_Source\PSoC4/RTC.h **** *
 436:Generated_Source\PSoC4/RTC.h **** * \return
 437:Generated_Source\PSoC4/RTC.h **** *  0u - Bit is not set.
 438:Generated_Source\PSoC4/RTC.h **** * \return
 439:Generated_Source\PSoC4/RTC.h **** *  1u - Bit is set.
 440:Generated_Source\PSoC4/RTC.h **** *
 441:Generated_Source\PSoC4/RTC.h **** *******************************************************************************/
 442:Generated_Source\PSoC4/RTC.h **** static CY_INLINE uint32 RTC_IsBitSet(uint32 var, uint32 mask)
 443:Generated_Source\PSoC4/RTC.h **** {
 444:Generated_Source\PSoC4/RTC.h ****     return ((mask == (var & mask)) ? 1Lu : 0Lu);
 445:Generated_Source\PSoC4/RTC.h **** }
 446:Generated_Source\PSoC4/RTC.h **** 
 447:Generated_Source\PSoC4/RTC.h **** 
 448:Generated_Source\PSoC4/RTC.h **** /*******************************************************************************
 449:Generated_Source\PSoC4/RTC.h **** * Function Name: RTC_LeapYear
 450:Generated_Source\PSoC4/RTC.h **** ****************************************************************************//**
 451:Generated_Source\PSoC4/RTC.h **** *
 452:Generated_Source\PSoC4/RTC.h **** * \brief
 453:Generated_Source\PSoC4/RTC.h **** * Checks whether the year passed through the parameter is
 454:Generated_Source\PSoC4/RTC.h **** * leap or no.
 455:Generated_Source\PSoC4/RTC.h **** *
 456:Generated_Source\PSoC4/RTC.h **** * \param
 457:Generated_Source\PSoC4/RTC.h **** *  year The year to be checked.
 458:Generated_Source\PSoC4/RTC.h **** *
 459:Generated_Source\PSoC4/RTC.h **** *
 460:Generated_Source\PSoC4/RTC.h **** * \return
 461:Generated_Source\PSoC4/RTC.h **** *  0u - The year is not leap.
 462:Generated_Source\PSoC4/RTC.h **** * \return
 463:Generated_Source\PSoC4/RTC.h **** *  1u - The year is leap.
 464:Generated_Source\PSoC4/RTC.h **** *
 465:Generated_Source\PSoC4/RTC.h **** *******************************************************************************/
 466:Generated_Source\PSoC4/RTC.h **** static CY_INLINE uint32 RTC_LeapYear(uint32 year)
 467:Generated_Source\PSoC4/RTC.h **** {
 468:Generated_Source\PSoC4/RTC.h ****     uint32 retVal;
 469:Generated_Source\PSoC4/RTC.h **** 
 470:Generated_Source\PSoC4/RTC.h ****     if(((0u == (year % 4Lu)) && (0u != (year % 100Lu))) || (0u == (year % 400Lu)))
 471:Generated_Source\PSoC4/RTC.h ****     {
 472:Generated_Source\PSoC4/RTC.h ****         retVal = 1uL;
 473:Generated_Source\PSoC4/RTC.h ****     }
 474:Generated_Source\PSoC4/RTC.h ****     else
 475:Generated_Source\PSoC4/RTC.h ****     {
 476:Generated_Source\PSoC4/RTC.h ****         retVal = 0uL;
 477:Generated_Source\PSoC4/RTC.h ****     }
 478:Generated_Source\PSoC4/RTC.h **** 
 479:Generated_Source\PSoC4/RTC.h ****     return(retVal);
 480:Generated_Source\PSoC4/RTC.h **** }
 481:Generated_Source\PSoC4/RTC.h **** 
 482:Generated_Source\PSoC4/RTC.h **** 
 483:Generated_Source\PSoC4/RTC.h **** /*******************************************************************************
 484:Generated_Source\PSoC4/RTC.h **** * Function Name: RTC_GetSecond
 485:Generated_Source\PSoC4/RTC.h **** ****************************************************************************//**
 486:Generated_Source\PSoC4/RTC.h **** *
 487:Generated_Source\PSoC4/RTC.h **** * \brief
 488:Generated_Source\PSoC4/RTC.h **** *  Returns the seconds value from the time value that is passed as a/the parameter.
 489:Generated_Source\PSoC4/RTC.h **** *
ARM GAS  C:\DOCUME~1\Admin\LOCALS~1\Temp\cc54ejBc.s 			page 10


 490:Generated_Source\PSoC4/RTC.h **** * \param
 491:Generated_Source\PSoC4/RTC.h **** *  time The time value.
 492:Generated_Source\PSoC4/RTC.h **** *
 493:Generated_Source\PSoC4/RTC.h **** * \return
 494:Generated_Source\PSoC4/RTC.h **** *  The seconds value.
 495:Generated_Source\PSoC4/RTC.h **** *
 496:Generated_Source\PSoC4/RTC.h **** *******************************************************************************/
 497:Generated_Source\PSoC4/RTC.h **** static CY_INLINE uint32 RTC_GetSecond(uint32 inputTime)
 498:Generated_Source\PSoC4/RTC.h **** {
  25              		.loc 1 498 0
  26              		.cfi_startproc
  27 0000 80B5     		push	{r7, lr}
  28              		.cfi_def_cfa_offset 8
  29              		.cfi_offset 7, -8
  30              		.cfi_offset 14, -4
  31 0002 84B0     		sub	sp, sp, #16
  32              		.cfi_def_cfa_offset 24
  33 0004 00AF     		add	r7, sp, #0
  34              		.cfi_def_cfa_register 7
  35 0006 7860     		str	r0, [r7, #4]
 499:Generated_Source\PSoC4/RTC.h ****     uint32 retVal;
 500:Generated_Source\PSoC4/RTC.h **** 
 501:Generated_Source\PSoC4/RTC.h ****     retVal  = ((inputTime & RTC_10_SECONDS_MASK) >> RTC_10_SECONDS_OFFSET) * 10u;
  36              		.loc 1 501 0
  37 0008 7B68     		ldr	r3, [r7, #4]
  38 000a 7022     		mov	r2, #112
  39 000c 1340     		and	r3, r2
  40 000e 1A09     		lsr	r2, r3, #4
  41 0010 131C     		mov	r3, r2
  42 0012 9B00     		lsl	r3, r3, #2
  43 0014 9B18     		add	r3, r3, r2
  44 0016 5B00     		lsl	r3, r3, #1
  45 0018 FB60     		str	r3, [r7, #12]
 502:Generated_Source\PSoC4/RTC.h ****     retVal += (inputTime & RTC_SECONDS_MASK) >> RTC_SECONDS_OFFSET;
  46              		.loc 1 502 0
  47 001a 7B68     		ldr	r3, [r7, #4]
  48 001c 0F22     		mov	r2, #15
  49 001e 1340     		and	r3, r2
  50 0020 FA68     		ldr	r2, [r7, #12]
  51 0022 D318     		add	r3, r2, r3
  52 0024 FB60     		str	r3, [r7, #12]
 503:Generated_Source\PSoC4/RTC.h **** 
 504:Generated_Source\PSoC4/RTC.h ****     return (retVal);
  53              		.loc 1 504 0
  54 0026 FB68     		ldr	r3, [r7, #12]
 505:Generated_Source\PSoC4/RTC.h **** }
  55              		.loc 1 505 0
  56 0028 181C     		mov	r0, r3
  57 002a BD46     		mov	sp, r7
  58 002c 04B0     		add	sp, sp, #16
  59              		@ sp needed
  60 002e 80BD     		pop	{r7, pc}
  61              		.cfi_endproc
  62              	.LFE4:
  63              		.size	RTC_GetSecond, .-RTC_GetSecond
  64              		.section	.text.RTC_GetMinutes,"ax",%progbits
  65              		.align	2
ARM GAS  C:\DOCUME~1\Admin\LOCALS~1\Temp\cc54ejBc.s 			page 11


  66              		.code	16
  67              		.thumb_func
  68              		.type	RTC_GetMinutes, %function
  69              	RTC_GetMinutes:
  70              	.LFB5:
 506:Generated_Source\PSoC4/RTC.h **** 
 507:Generated_Source\PSoC4/RTC.h **** 
 508:Generated_Source\PSoC4/RTC.h **** /*******************************************************************************
 509:Generated_Source\PSoC4/RTC.h **** * Function Name: RTC_GetMinutes
 510:Generated_Source\PSoC4/RTC.h **** ****************************************************************************//**
 511:Generated_Source\PSoC4/RTC.h **** *
 512:Generated_Source\PSoC4/RTC.h **** * \brief
 513:Generated_Source\PSoC4/RTC.h **** *  Returns the minutes value from the time value that is passed as a/the 
 514:Generated_Source\PSoC4/RTC.h **** * parameter.
 515:Generated_Source\PSoC4/RTC.h **** *
 516:Generated_Source\PSoC4/RTC.h **** * \param
 517:Generated_Source\PSoC4/RTC.h **** *  time The time value.
 518:Generated_Source\PSoC4/RTC.h **** *
 519:Generated_Source\PSoC4/RTC.h **** * \return
 520:Generated_Source\PSoC4/RTC.h **** *  The minutes value.
 521:Generated_Source\PSoC4/RTC.h **** *
 522:Generated_Source\PSoC4/RTC.h **** *******************************************************************************/
 523:Generated_Source\PSoC4/RTC.h **** static CY_INLINE uint32 RTC_GetMinutes(uint32 inputTime)
 524:Generated_Source\PSoC4/RTC.h **** {
  71              		.loc 1 524 0
  72              		.cfi_startproc
  73 0000 80B5     		push	{r7, lr}
  74              		.cfi_def_cfa_offset 8
  75              		.cfi_offset 7, -8
  76              		.cfi_offset 14, -4
  77 0002 84B0     		sub	sp, sp, #16
  78              		.cfi_def_cfa_offset 24
  79 0004 00AF     		add	r7, sp, #0
  80              		.cfi_def_cfa_register 7
  81 0006 7860     		str	r0, [r7, #4]
 525:Generated_Source\PSoC4/RTC.h ****     uint32 retVal;
 526:Generated_Source\PSoC4/RTC.h **** 
 527:Generated_Source\PSoC4/RTC.h ****     retVal  = ((inputTime & RTC_10_MINUTES_MASK) >> RTC_10_MINUTES_OFFSET) * 10u;
  82              		.loc 1 527 0
  83 0008 7A68     		ldr	r2, [r7, #4]
  84 000a E023     		mov	r3, #224
  85 000c DB01     		lsl	r3, r3, #7
  86 000e 1340     		and	r3, r2
  87 0010 1A0B     		lsr	r2, r3, #12
  88 0012 131C     		mov	r3, r2
  89 0014 9B00     		lsl	r3, r3, #2
  90 0016 9B18     		add	r3, r3, r2
  91 0018 5B00     		lsl	r3, r3, #1
  92 001a FB60     		str	r3, [r7, #12]
 528:Generated_Source\PSoC4/RTC.h ****     retVal += (inputTime & RTC_MINUTES_MASK) >> RTC_MINUTES_OFFSET;
  93              		.loc 1 528 0
  94 001c 7A68     		ldr	r2, [r7, #4]
  95 001e F023     		mov	r3, #240
  96 0020 1B01     		lsl	r3, r3, #4
  97 0022 1340     		and	r3, r2
  98 0024 1B0A     		lsr	r3, r3, #8
  99 0026 FA68     		ldr	r2, [r7, #12]
ARM GAS  C:\DOCUME~1\Admin\LOCALS~1\Temp\cc54ejBc.s 			page 12


 100 0028 D318     		add	r3, r2, r3
 101 002a FB60     		str	r3, [r7, #12]
 529:Generated_Source\PSoC4/RTC.h **** 
 530:Generated_Source\PSoC4/RTC.h ****     return (retVal);
 102              		.loc 1 530 0
 103 002c FB68     		ldr	r3, [r7, #12]
 531:Generated_Source\PSoC4/RTC.h **** }
 104              		.loc 1 531 0
 105 002e 181C     		mov	r0, r3
 106 0030 BD46     		mov	sp, r7
 107 0032 04B0     		add	sp, sp, #16
 108              		@ sp needed
 109 0034 80BD     		pop	{r7, pc}
 110              		.cfi_endproc
 111              	.LFE5:
 112              		.size	RTC_GetMinutes, .-RTC_GetMinutes
 113 0036 C046     		.section	.text.RTC_GetHours,"ax",%progbits
 114              		.align	2
 115              		.code	16
 116              		.thumb_func
 117              		.type	RTC_GetHours, %function
 118              	RTC_GetHours:
 119              	.LFB6:
 532:Generated_Source\PSoC4/RTC.h **** 
 533:Generated_Source\PSoC4/RTC.h **** 
 534:Generated_Source\PSoC4/RTC.h **** /*******************************************************************************
 535:Generated_Source\PSoC4/RTC.h **** * Function Name: RTC_GetHours
 536:Generated_Source\PSoC4/RTC.h **** ****************************************************************************//**
 537:Generated_Source\PSoC4/RTC.h **** *
 538:Generated_Source\PSoC4/RTC.h **** * \brief
 539:Generated_Source\PSoC4/RTC.h **** *  Returns the hours value from the time value that is passed as a/the parameter.
 540:Generated_Source\PSoC4/RTC.h **** *
 541:Generated_Source\PSoC4/RTC.h **** * \param
 542:Generated_Source\PSoC4/RTC.h **** *  time The time value.
 543:Generated_Source\PSoC4/RTC.h **** *
 544:Generated_Source\PSoC4/RTC.h **** * \return
 545:Generated_Source\PSoC4/RTC.h **** *  The hours value.
 546:Generated_Source\PSoC4/RTC.h **** *
 547:Generated_Source\PSoC4/RTC.h **** *******************************************************************************/
 548:Generated_Source\PSoC4/RTC.h **** static CY_INLINE uint32 RTC_GetHours(uint32 inputTime)
 549:Generated_Source\PSoC4/RTC.h **** {
 120              		.loc 1 549 0
 121              		.cfi_startproc
 122 0000 80B5     		push	{r7, lr}
 123              		.cfi_def_cfa_offset 8
 124              		.cfi_offset 7, -8
 125              		.cfi_offset 14, -4
 126 0002 84B0     		sub	sp, sp, #16
 127              		.cfi_def_cfa_offset 24
 128 0004 00AF     		add	r7, sp, #0
 129              		.cfi_def_cfa_register 7
 130 0006 7860     		str	r0, [r7, #4]
 550:Generated_Source\PSoC4/RTC.h ****     uint32 retVal;
 551:Generated_Source\PSoC4/RTC.h **** 
 552:Generated_Source\PSoC4/RTC.h ****     retVal  = ((inputTime & RTC_10_HOURS_MASK) >> RTC_10_HOURS_OFFSET) * 10u;
 131              		.loc 1 552 0
 132 0008 7A68     		ldr	r2, [r7, #4]
ARM GAS  C:\DOCUME~1\Admin\LOCALS~1\Temp\cc54ejBc.s 			page 13


 133 000a C023     		mov	r3, #192
 134 000c 9B03     		lsl	r3, r3, #14
 135 000e 1340     		and	r3, r2
 136 0010 1A0D     		lsr	r2, r3, #20
 137 0012 131C     		mov	r3, r2
 138 0014 9B00     		lsl	r3, r3, #2
 139 0016 9B18     		add	r3, r3, r2
 140 0018 5B00     		lsl	r3, r3, #1
 141 001a FB60     		str	r3, [r7, #12]
 553:Generated_Source\PSoC4/RTC.h ****     retVal += (inputTime & RTC_HOURS_MASK) >> RTC_HOURS_OFFSET;
 142              		.loc 1 553 0
 143 001c 7A68     		ldr	r2, [r7, #4]
 144 001e F023     		mov	r3, #240
 145 0020 1B03     		lsl	r3, r3, #12
 146 0022 1340     		and	r3, r2
 147 0024 1B0C     		lsr	r3, r3, #16
 148 0026 FA68     		ldr	r2, [r7, #12]
 149 0028 D318     		add	r3, r2, r3
 150 002a FB60     		str	r3, [r7, #12]
 554:Generated_Source\PSoC4/RTC.h **** 
 555:Generated_Source\PSoC4/RTC.h ****     return (retVal);
 151              		.loc 1 555 0
 152 002c FB68     		ldr	r3, [r7, #12]
 556:Generated_Source\PSoC4/RTC.h **** }
 153              		.loc 1 556 0
 154 002e 181C     		mov	r0, r3
 155 0030 BD46     		mov	sp, r7
 156 0032 04B0     		add	sp, sp, #16
 157              		@ sp needed
 158 0034 80BD     		pop	{r7, pc}
 159              		.cfi_endproc
 160              	.LFE6:
 161              		.size	RTC_GetHours, .-RTC_GetHours
 162              		.comm	fatFs,560,4
 163              		.comm	fileO,552,4
 164              		.comm	createFlag,4,4
 165              		.bss
 166              		.align	1
 167              	minMs:
 168 0000 0000     		.space	2
 169              		.align	1
 170              	maxMs:
 171 0002 0000     		.space	2
 172              		.comm	tmpMs,2,2
 173              		.align	2
 174              	buff:
 175 0004 00000000 		.space	100
 175      00000000 
 175      00000000 
 175      00000000 
 175      00000000 
 176              		.section	.text.DisplayConfig,"ax",%progbits
 177              		.align	2
 178              		.global	DisplayConfig
 179              		.code	16
 180              		.thumb_func
 181              		.type	DisplayConfig, %function
ARM GAS  C:\DOCUME~1\Admin\LOCALS~1\Temp\cc54ejBc.s 			page 14


 182              	DisplayConfig:
 183              	.LFB63:
 184              		.file 2 ".\\lib_Display\\display.c"
   1:.\lib_Display/display.c **** 
   2:.\lib_Display/display.c **** #include "lib_Display\display.h"
   3:.\lib_Display/display.c **** 
   4:.\lib_Display/display.c **** /*******************************************************************************
   5:.\lib_Display/display.c **** * Function name: DisplayConfig
   6:.\lib_Display/display.c **** ********************************************************************************
   7:.\lib_Display/display.c **** *
   8:.\lib_Display/display.c **** * Summary:
   9:.\lib_Display/display.c **** * initialization display
  10:.\lib_Display/display.c **** *
  11:.\lib_Display/display.c **** *******************************************************************************/	
  12:.\lib_Display/display.c **** void DisplayConfig(void)
  13:.\lib_Display/display.c **** {
 185              		.loc 2 13 0
 186              		.cfi_startproc
 187 0000 80B5     		push	{r7, lr}
 188              		.cfi_def_cfa_offset 8
 189              		.cfi_offset 7, -8
 190              		.cfi_offset 14, -4
 191 0002 00AF     		add	r7, sp, #0
 192              		.cfi_def_cfa_register 7
  14:.\lib_Display/display.c ****     LCD_Start();
 193              		.loc 2 14 0
 194 0004 FFF7FEFF 		bl	LCD_Start
  15:.\lib_Display/display.c **** }
 195              		.loc 2 15 0
 196 0008 BD46     		mov	sp, r7
 197              		@ sp needed
 198 000a 80BD     		pop	{r7, pc}
 199              		.cfi_endproc
 200              	.LFE63:
 201              		.size	DisplayConfig, .-DisplayConfig
 202              		.section	.rodata
 203              		.align	2
 204              	.LC0:
 205 0000 20202020 		.ascii	"          \000"
 205      20202020 
 205      202000
 206              		.section	.text.DisplayPrintf,"ax",%progbits
 207              		.align	2
 208              		.global	DisplayPrintf
 209              		.code	16
 210              		.thumb_func
 211              		.type	DisplayPrintf, %function
 212              	DisplayPrintf:
 213              	.LFB64:
  16:.\lib_Display/display.c **** 	
  17:.\lib_Display/display.c **** 
  18:.\lib_Display/display.c **** /*******************************************************************************
  19:.\lib_Display/display.c **** * Function Name: DisplayPrintf
  20:.\lib_Display/display.c **** ********************************************************************************
  21:.\lib_Display/display.c **** *
  22:.\lib_Display/display.c **** * Summary:
  23:.\lib_Display/display.c **** *   Writes a zero terminated string to the LCD.
ARM GAS  C:\DOCUME~1\Admin\LOCALS~1\Temp\cc54ejBc.s 			page 15


  24:.\lib_Display/display.c **** *
  25:.\lib_Display/display.c **** * Parameters:
  26:.\lib_Display/display.c **** *  string: Pointer to head of char8 array to be written to the LCD module
  27:.\lib_Display/display.c **** * Note:
  28:.\lib_Display/display.c **** *   print string from position row = 0, column = 0
  29:.\lib_Display/display.c **** *
  30:.\lib_Display/display.c **** *******************************************************************************/
  31:.\lib_Display/display.c **** void DisplayPrintf(char *message)
  32:.\lib_Display/display.c **** {    
 214              		.loc 2 32 0
 215              		.cfi_startproc
 216 0000 80B5     		push	{r7, lr}
 217              		.cfi_def_cfa_offset 8
 218              		.cfi_offset 7, -8
 219              		.cfi_offset 14, -4
 220 0002 82B0     		sub	sp, sp, #8
 221              		.cfi_def_cfa_offset 16
 222 0004 00AF     		add	r7, sp, #0
 223              		.cfi_def_cfa_register 7
 224 0006 7860     		str	r0, [r7, #4]
  33:.\lib_Display/display.c ****     LCD_Position(0,0);
 225              		.loc 2 33 0
 226 0008 0020     		mov	r0, #0
 227 000a 0021     		mov	r1, #0
 228 000c FFF7FEFF 		bl	LCD_Position
  34:.\lib_Display/display.c ****     LCD_PrintString(message);
 229              		.loc 2 34 0
 230 0010 7B68     		ldr	r3, [r7, #4]
 231 0012 181C     		mov	r0, r3
 232 0014 FFF7FEFF 		bl	LCD_PrintString
  35:.\lib_Display/display.c ****     LCD_PrintString("          ");
 233              		.loc 2 35 0
 234 0018 034B     		ldr	r3, .L9
 235 001a 181C     		mov	r0, r3
 236 001c FFF7FEFF 		bl	LCD_PrintString
  36:.\lib_Display/display.c **** }
 237              		.loc 2 36 0
 238 0020 BD46     		mov	sp, r7
 239 0022 02B0     		add	sp, sp, #8
 240              		@ sp needed
 241 0024 80BD     		pop	{r7, pc}
 242              	.L10:
 243 0026 C046     		.align	2
 244              	.L9:
 245 0028 00000000 		.word	.LC0
 246              		.cfi_endproc
 247              	.LFE64:
 248              		.size	DisplayPrintf, .-DisplayPrintf
 249              		.section	.text.DisplayPutIndicatorSD,"ax",%progbits
 250              		.align	2
 251              		.global	DisplayPutIndicatorSD
 252              		.code	16
 253              		.thumb_func
 254              		.type	DisplayPutIndicatorSD, %function
 255              	DisplayPutIndicatorSD:
 256              	.LFB65:
  37:.\lib_Display/display.c **** 
ARM GAS  C:\DOCUME~1\Admin\LOCALS~1\Temp\cc54ejBc.s 			page 16


  38:.\lib_Display/display.c **** /*******************************************************************************
  39:.\lib_Display/display.c **** * Function name: DisplayPutIndicatorSD
  40:.\lib_Display/display.c **** ********************************************************************************
  41:.\lib_Display/display.c **** *
  42:.\lib_Display/display.c **** * Summary:
  43:.\lib_Display/display.c **** *   print incator SD card from position row = 1, column = 15
  44:.\lib_Display/display.c **** *
  45:.\lib_Display/display.c **** * Parametrs:
  46:.\lib_Display/display.c **** *   state = SD_INSERT or state = SD_NO_INSERT
  47:.\lib_Display/display.c **** *******************************************************************************/
  48:.\lib_Display/display.c **** void DisplayPutIndicatorSD(SDindicator state)
  49:.\lib_Display/display.c **** {
 257              		.loc 2 49 0
 258              		.cfi_startproc
 259 0000 80B5     		push	{r7, lr}
 260              		.cfi_def_cfa_offset 8
 261              		.cfi_offset 7, -8
 262              		.cfi_offset 14, -4
 263 0002 82B0     		sub	sp, sp, #8
 264              		.cfi_def_cfa_offset 16
 265 0004 00AF     		add	r7, sp, #0
 266              		.cfi_def_cfa_register 7
 267 0006 021C     		mov	r2, r0
 268 0008 FB1D     		add	r3, r7, #7
 269 000a 1A70     		strb	r2, [r3]
  50:.\lib_Display/display.c ****     LCD_Position(1,15);
 270              		.loc 2 50 0
 271 000c 0120     		mov	r0, #1
 272 000e 0F21     		mov	r1, #15
 273 0010 FFF7FEFF 		bl	LCD_Position
  51:.\lib_Display/display.c ****     if(state == SD_INSERT)
 274              		.loc 2 51 0
 275 0014 FB1D     		add	r3, r7, #7
 276 0016 1B78     		ldrb	r3, [r3]
 277 0018 002B     		cmp	r3, #0
 278 001a 03D1     		bne	.L12
  52:.\lib_Display/display.c ****     {
  53:.\lib_Display/display.c ****         LCD_PutChar(LCD_CUSTOM_0);
 279              		.loc 2 53 0
 280 001c 0020     		mov	r0, #0
 281 001e FFF7FEFF 		bl	LCD_PutChar
 282 0022 02E0     		b	.L11
 283              	.L12:
  54:.\lib_Display/display.c ****     }else
  55:.\lib_Display/display.c ****     {
  56:.\lib_Display/display.c ****         LCD_PutChar(LCD_CUSTOM_1);
 284              		.loc 2 56 0
 285 0024 0120     		mov	r0, #1
 286 0026 FFF7FEFF 		bl	LCD_PutChar
 287              	.L11:
  57:.\lib_Display/display.c ****     }
  58:.\lib_Display/display.c **** }
 288              		.loc 2 58 0
 289 002a BD46     		mov	sp, r7
 290 002c 02B0     		add	sp, sp, #8
 291              		@ sp needed
 292 002e 80BD     		pop	{r7, pc}
ARM GAS  C:\DOCUME~1\Admin\LOCALS~1\Temp\cc54ejBc.s 			page 17


 293              		.cfi_endproc
 294              	.LFE65:
 295              		.size	DisplayPutIndicatorSD, .-DisplayPutIndicatorSD
 296              		.section	.text.DisplayPutIndicatorNetwork,"ax",%progbits
 297              		.align	2
 298              		.global	DisplayPutIndicatorNetwork
 299              		.code	16
 300              		.thumb_func
 301              		.type	DisplayPutIndicatorNetwork, %function
 302              	DisplayPutIndicatorNetwork:
 303              	.LFB66:
  59:.\lib_Display/display.c **** 
  60:.\lib_Display/display.c **** /*******************************************************************************
  61:.\lib_Display/display.c **** * Function name: DisplayPutIndicatorNetwork
  62:.\lib_Display/display.c **** ********************************************************************************
  63:.\lib_Display/display.c **** *
  64:.\lib_Display/display.c **** * Summary:
  65:.\lib_Display/display.c **** *   print incator connect  from position row = 1, column = 15
  66:.\lib_Display/display.c **** *
  67:.\lib_Display/display.c **** * Parametrs:
  68:.\lib_Display/display.c **** *   state = CONNECT or state = DISCONNECT
  69:.\lib_Display/display.c **** *******************************************************************************/
  70:.\lib_Display/display.c **** void DisplayPutIndicatorNetwork(NetworkIndicator state)
  71:.\lib_Display/display.c **** {
 304              		.loc 2 71 0
 305              		.cfi_startproc
 306 0000 80B5     		push	{r7, lr}
 307              		.cfi_def_cfa_offset 8
 308              		.cfi_offset 7, -8
 309              		.cfi_offset 14, -4
 310 0002 82B0     		sub	sp, sp, #8
 311              		.cfi_def_cfa_offset 16
 312 0004 00AF     		add	r7, sp, #0
 313              		.cfi_def_cfa_register 7
 314 0006 021C     		mov	r2, r0
 315 0008 FB1D     		add	r3, r7, #7
 316 000a 1A70     		strb	r2, [r3]
  72:.\lib_Display/display.c ****     LCD_Position(1,14);
 317              		.loc 2 72 0
 318 000c 0120     		mov	r0, #1
 319 000e 0E21     		mov	r1, #14
 320 0010 FFF7FEFF 		bl	LCD_Position
  73:.\lib_Display/display.c ****     if(state == CONNECT)
 321              		.loc 2 73 0
 322 0014 FB1D     		add	r3, r7, #7
 323 0016 1B78     		ldrb	r3, [r3]
 324 0018 002B     		cmp	r3, #0
 325 001a 03D1     		bne	.L15
  74:.\lib_Display/display.c ****     {
  75:.\lib_Display/display.c ****         LCD_PutChar(LCD_CUSTOM_2);
 326              		.loc 2 75 0
 327 001c 0220     		mov	r0, #2
 328 001e FFF7FEFF 		bl	LCD_PutChar
 329 0022 02E0     		b	.L14
 330              	.L15:
  76:.\lib_Display/display.c ****     }else
  77:.\lib_Display/display.c ****     {
ARM GAS  C:\DOCUME~1\Admin\LOCALS~1\Temp\cc54ejBc.s 			page 18


  78:.\lib_Display/display.c ****         LCD_PutChar(LCD_CUSTOM_3);
 331              		.loc 2 78 0
 332 0024 0320     		mov	r0, #3
 333 0026 FFF7FEFF 		bl	LCD_PutChar
 334              	.L14:
  79:.\lib_Display/display.c ****     }
  80:.\lib_Display/display.c **** }
 335              		.loc 2 80 0
 336 002a BD46     		mov	sp, r7
 337 002c 02B0     		add	sp, sp, #8
 338              		@ sp needed
 339 002e 80BD     		pop	{r7, pc}
 340              		.cfi_endproc
 341              	.LFE66:
 342              		.size	DisplayPutIndicatorNetwork, .-DisplayPutIndicatorNetwork
 343              		.section	.rodata
 344 000b 00       		.align	2
 345              	.LC3:
 346 000c 2530326C 		.ascii	"%02lu:%02lu:%02lu      \000"
 346      753A2530 
 346      326C753A 
 346      2530326C 
 346      75202020 
 347              		.section	.text.DisplayPrintfRealTime,"ax",%progbits
 348              		.align	2
 349              		.global	DisplayPrintfRealTime
 350              		.code	16
 351              		.thumb_func
 352              		.type	DisplayPrintfRealTime, %function
 353              	DisplayPrintfRealTime:
 354              	.LFB67:
  81:.\lib_Display/display.c **** 
  82:.\lib_Display/display.c **** /*******************************************************************************
  83:.\lib_Display/display.c **** * Function name: DisplayPrintfRealTime
  84:.\lib_Display/display.c **** ********************************************************************************
  85:.\lib_Display/display.c **** *
  86:.\lib_Display/display.c **** * Summary:
  87:.\lib_Display/display.c **** *   print real time from position row = 1, column = 0
  88:.\lib_Display/display.c **** *
  89:.\lib_Display/display.c **** *******************************************************************************/
  90:.\lib_Display/display.c **** void DisplayPrintfRealTime(void)
  91:.\lib_Display/display.c **** {
 355              		.loc 2 91 0
 356              		.cfi_startproc
 357 0000 B0B5     		push	{r4, r5, r7, lr}
 358              		.cfi_def_cfa_offset 16
 359              		.cfi_offset 4, -16
 360              		.cfi_offset 5, -12
 361              		.cfi_offset 7, -8
 362              		.cfi_offset 14, -4
 363 0002 84B0     		sub	sp, sp, #16
 364              		.cfi_def_cfa_offset 32
 365 0004 02AF     		add	r7, sp, #8
 366              		.cfi_def_cfa 7, 24
  92:.\lib_Display/display.c ****     uint32_t time;
  93:.\lib_Display/display.c ****     
  94:.\lib_Display/display.c ****     time = RTC_GetTime();
ARM GAS  C:\DOCUME~1\Admin\LOCALS~1\Temp\cc54ejBc.s 			page 19


 367              		.loc 2 94 0
 368 0006 FFF7FEFF 		bl	RTC_GetTime
 369 000a 031C     		mov	r3, r0
 370 000c 7B60     		str	r3, [r7, #4]
  95:.\lib_Display/display.c ****     sprintf(buff, "%02lu:%02lu:%02lu      ", RTC_GetHours(time),RTC_GetMinutes(time), RTC_GetSecond
 371              		.loc 2 95 0
 372 000e 7B68     		ldr	r3, [r7, #4]
 373 0010 181C     		mov	r0, r3
 374 0012 FFF7FEFF 		bl	RTC_GetHours
 375 0016 051C     		mov	r5, r0
 376 0018 7B68     		ldr	r3, [r7, #4]
 377 001a 181C     		mov	r0, r3
 378 001c FFF7FEFF 		bl	RTC_GetMinutes
 379 0020 041C     		mov	r4, r0
 380 0022 7B68     		ldr	r3, [r7, #4]
 381 0024 181C     		mov	r0, r3
 382 0026 FFF7FEFF 		bl	RTC_GetSecond
 383 002a 011C     		mov	r1, r0
 384 002c 094A     		ldr	r2, .L18
 385 002e 0A4B     		ldr	r3, .L18+4
 386 0030 0091     		str	r1, [sp]
 387 0032 101C     		mov	r0, r2
 388 0034 191C     		mov	r1, r3
 389 0036 2A1C     		mov	r2, r5
 390 0038 231C     		mov	r3, r4
 391 003a FFF7FEFF 		bl	sprintf
  96:.\lib_Display/display.c ****     LCD_Position(1,0);
 392              		.loc 2 96 0
 393 003e 0120     		mov	r0, #1
 394 0040 0021     		mov	r1, #0
 395 0042 FFF7FEFF 		bl	LCD_Position
  97:.\lib_Display/display.c ****     LCD_PrintString(buff);
 396              		.loc 2 97 0
 397 0046 034B     		ldr	r3, .L18
 398 0048 181C     		mov	r0, r3
 399 004a FFF7FEFF 		bl	LCD_PrintString
  98:.\lib_Display/display.c **** }
 400              		.loc 2 98 0
 401 004e BD46     		mov	sp, r7
 402 0050 02B0     		add	sp, sp, #8
 403              		@ sp needed
 404 0052 B0BD     		pop	{r4, r5, r7, pc}
 405              	.L19:
 406              		.align	2
 407              	.L18:
 408 0054 04000000 		.word	buff
 409 0058 0C000000 		.word	.LC3
 410              		.cfi_endproc
 411              	.LFE67:
 412              		.size	DisplayPrintfRealTime, .-DisplayPrintfRealTime
 413              		.global	__aeabi_uidiv
 414              		.global	__aeabi_uidivmod
 415              		.section	.rodata
 416              		.align	2
 417              	.LC6:
 418 0024 52657375 		.ascii	"Result %02u:%02u:%03u\000"
 418      6C742025 
ARM GAS  C:\DOCUME~1\Admin\LOCALS~1\Temp\cc54ejBc.s 			page 20


 418      3032753A 
 418      25303275 
 418      3A253033 
 419              		.section	.text.DisplayPrintLastTimeSkier,"ax",%progbits
 420              		.align	2
 421              		.global	DisplayPrintLastTimeSkier
 422              		.code	16
 423              		.thumb_func
 424              		.type	DisplayPrintLastTimeSkier, %function
 425              	DisplayPrintLastTimeSkier:
 426              	.LFB68:
  99:.\lib_Display/display.c **** 
 100:.\lib_Display/display.c **** /*******************************************************************************
 101:.\lib_Display/display.c **** * Function name: DisplayPrintLastTimeSkier
 102:.\lib_Display/display.c **** ********************************************************************************
 103:.\lib_Display/display.c **** *
 104:.\lib_Display/display.c **** * Summary:
 105:.\lib_Display/display.c **** *   print time last skier from position row = 1, column = 0
 106:.\lib_Display/display.c **** *
 107:.\lib_Display/display.c **** *******************************************************************************/
 108:.\lib_Display/display.c **** void DisplayPrintLastTimeSkier(uint32_t sec, uint16_t milisec)
 109:.\lib_Display/display.c **** {
 427              		.loc 2 109 0
 428              		.cfi_startproc
 429 0000 B0B5     		push	{r4, r5, r7, lr}
 430              		.cfi_def_cfa_offset 16
 431              		.cfi_offset 4, -16
 432              		.cfi_offset 5, -12
 433              		.cfi_offset 7, -8
 434              		.cfi_offset 14, -4
 435 0002 84B0     		sub	sp, sp, #16
 436              		.cfi_def_cfa_offset 32
 437 0004 02AF     		add	r7, sp, #8
 438              		.cfi_def_cfa 7, 24
 439 0006 7860     		str	r0, [r7, #4]
 440 0008 0A1C     		mov	r2, r1
 441 000a BB1C     		add	r3, r7, #2
 442 000c 1A80     		strh	r2, [r3]
 110:.\lib_Display/display.c ****     /*printf time in format mm:ss:msmsms*/
 111:.\lib_Display/display.c ****     sprintf(buff, "Result %02u:%02u:%03u",sec/60,sec%60, milisec);
 443              		.loc 2 111 0
 444 000e 7B68     		ldr	r3, [r7, #4]
 445 0010 181C     		mov	r0, r3
 446 0012 3C21     		mov	r1, #60
 447 0014 FFF7FEFF 		bl	__aeabi_uidiv
 448 0018 031C     		mov	r3, r0
 449 001a 1D1C     		mov	r5, r3
 450 001c 7B68     		ldr	r3, [r7, #4]
 451 001e 181C     		mov	r0, r3
 452 0020 3C21     		mov	r1, #60
 453 0022 FFF7FEFF 		bl	__aeabi_uidivmod
 454 0026 0B1C     		mov	r3, r1
 455 0028 1C1C     		mov	r4, r3
 456 002a BB1C     		add	r3, r7, #2
 457 002c 1B88     		ldrh	r3, [r3]
 458 002e 0A49     		ldr	r1, .L21
 459 0030 0A4A     		ldr	r2, .L21+4
ARM GAS  C:\DOCUME~1\Admin\LOCALS~1\Temp\cc54ejBc.s 			page 21


 460 0032 0093     		str	r3, [sp]
 461 0034 081C     		mov	r0, r1
 462 0036 111C     		mov	r1, r2
 463 0038 2A1C     		mov	r2, r5
 464 003a 231C     		mov	r3, r4
 465 003c FFF7FEFF 		bl	sprintf
 112:.\lib_Display/display.c ****     LCD_Position(0,0);
 466              		.loc 2 112 0
 467 0040 0020     		mov	r0, #0
 468 0042 0021     		mov	r1, #0
 469 0044 FFF7FEFF 		bl	LCD_Position
 113:.\lib_Display/display.c ****     LCD_PrintString(buff);
 470              		.loc 2 113 0
 471 0048 034B     		ldr	r3, .L21
 472 004a 181C     		mov	r0, r3
 473 004c FFF7FEFF 		bl	LCD_PrintString
 114:.\lib_Display/display.c **** }
 474              		.loc 2 114 0
 475 0050 BD46     		mov	sp, r7
 476 0052 02B0     		add	sp, sp, #8
 477              		@ sp needed
 478 0054 B0BD     		pop	{r4, r5, r7, pc}
 479              	.L22:
 480 0056 C046     		.align	2
 481              	.L21:
 482 0058 04000000 		.word	buff
 483 005c 24000000 		.word	.LC6
 484              		.cfi_endproc
 485              	.LFE68:
 486              		.size	DisplayPrintLastTimeSkier, .-DisplayPrintLastTimeSkier
 487              		.section	.rodata
 488 003a 0000     		.align	2
 489              	.LC9:
 490 003c 25752F25 		.ascii	"%u/%u\000"
 490      7500
 491              		.section	.text.DisplayPrintNumSkierOnWay,"ax",%progbits
 492              		.align	2
 493              		.global	DisplayPrintNumSkierOnWay
 494              		.code	16
 495              		.thumb_func
 496              		.type	DisplayPrintNumSkierOnWay, %function
 497              	DisplayPrintNumSkierOnWay:
 498              	.LFB69:
 115:.\lib_Display/display.c **** 
 116:.\lib_Display/display.c **** /*******************************************************************************
 117:.\lib_Display/display.c **** * Function name: DisplayPrintNumSkierOnWay
 118:.\lib_Display/display.c **** ********************************************************************************
 119:.\lib_Display/display.c **** *
 120:.\lib_Display/display.c **** * Summary:
 121:.\lib_Display/display.c **** *   print number skier on way from position row = 1, column = 11
 122:.\lib_Display/display.c **** *
 123:.\lib_Display/display.c **** *******************************************************************************/
 124:.\lib_Display/display.c **** void DisplayPrintNumSkierOnWay(uint32_t num)
 125:.\lib_Display/display.c **** {
 499              		.loc 2 125 0
 500              		.cfi_startproc
 501 0000 80B5     		push	{r7, lr}
ARM GAS  C:\DOCUME~1\Admin\LOCALS~1\Temp\cc54ejBc.s 			page 22


 502              		.cfi_def_cfa_offset 8
 503              		.cfi_offset 7, -8
 504              		.cfi_offset 14, -4
 505 0002 82B0     		sub	sp, sp, #8
 506              		.cfi_def_cfa_offset 16
 507 0004 00AF     		add	r7, sp, #0
 508              		.cfi_def_cfa_register 7
 509 0006 7860     		str	r0, [r7, #4]
 126:.\lib_Display/display.c ****     sprintf(buff, "%u/%u", num, MAX_SKIERS_ON_WAY);
 510              		.loc 2 126 0
 511 0008 0949     		ldr	r1, .L24
 512 000a 0A4A     		ldr	r2, .L24+4
 513 000c 7B68     		ldr	r3, [r7, #4]
 514 000e 081C     		mov	r0, r1
 515 0010 111C     		mov	r1, r2
 516 0012 1A1C     		mov	r2, r3
 517 0014 0423     		mov	r3, #4
 518 0016 FFF7FEFF 		bl	sprintf
 127:.\lib_Display/display.c ****     LCD_Position(1,10);
 519              		.loc 2 127 0
 520 001a 0120     		mov	r0, #1
 521 001c 0A21     		mov	r1, #10
 522 001e FFF7FEFF 		bl	LCD_Position
 128:.\lib_Display/display.c ****     LCD_PrintString(buff);
 523              		.loc 2 128 0
 524 0022 034B     		ldr	r3, .L24
 525 0024 181C     		mov	r0, r3
 526 0026 FFF7FEFF 		bl	LCD_PrintString
 129:.\lib_Display/display.c **** }
 527              		.loc 2 129 0
 528 002a BD46     		mov	sp, r7
 529 002c 02B0     		add	sp, sp, #8
 530              		@ sp needed
 531 002e 80BD     		pop	{r7, pc}
 532              	.L25:
 533              		.align	2
 534              	.L24:
 535 0030 04000000 		.word	buff
 536 0034 3C000000 		.word	.LC9
 537              		.cfi_endproc
 538              	.LFE69:
 539              		.size	DisplayPrintNumSkierOnWay, .-DisplayPrintNumSkierOnWay
 540              		.section	.rodata
 541 0042 0000     		.align	2
 542              	.LC11:
 543 0044 20202020 		.ascii	"             \000"
 543      20202020 
 543      20202020 
 543      2000
 544 0052 0000     		.section	.text.DisplayPrintfLoading,"ax",%progbits
 545              		.align	2
 546              		.global	DisplayPrintfLoading
 547              		.code	16
 548              		.thumb_func
 549              		.type	DisplayPrintfLoading, %function
 550              	DisplayPrintfLoading:
 551              	.LFB70:
ARM GAS  C:\DOCUME~1\Admin\LOCALS~1\Temp\cc54ejBc.s 			page 23


 130:.\lib_Display/display.c **** 
 131:.\lib_Display/display.c **** 
 132:.\lib_Display/display.c **** /*******************************************************************************
 133:.\lib_Display/display.c **** * Function name: DisplayPrintfLoading
 134:.\lib_Display/display.c **** ********************************************************************************
 135:.\lib_Display/display.c **** *
 136:.\lib_Display/display.c **** * print loading from position row = 1, column = 0
 137:.\lib_Display/display.c **** *
 138:.\lib_Display/display.c **** *******************************************************************************/
 139:.\lib_Display/display.c **** void DisplayPrintfLoading(uint32_t numLoad)
 140:.\lib_Display/display.c **** {
 552              		.loc 2 140 0
 553              		.cfi_startproc
 554 0000 80B5     		push	{r7, lr}
 555              		.cfi_def_cfa_offset 8
 556              		.cfi_offset 7, -8
 557              		.cfi_offset 14, -4
 558 0002 82B0     		sub	sp, sp, #8
 559              		.cfi_def_cfa_offset 16
 560 0004 00AF     		add	r7, sp, #0
 561              		.cfi_def_cfa_register 7
 562 0006 7860     		str	r0, [r7, #4]
 141:.\lib_Display/display.c ****     LCD_Position(1,numLoad-1);
 563              		.loc 2 141 0
 564 0008 7B68     		ldr	r3, [r7, #4]
 565 000a DBB2     		uxtb	r3, r3
 566 000c 013B     		sub	r3, r3, #1
 567 000e DBB2     		uxtb	r3, r3
 568 0010 0120     		mov	r0, #1
 569 0012 191C     		mov	r1, r3
 570 0014 FFF7FEFF 		bl	LCD_Position
 142:.\lib_Display/display.c ****     LCD_PutChar(LCD_CUSTOM_4);
 571              		.loc 2 142 0
 572 0018 0420     		mov	r0, #4
 573 001a FFF7FEFF 		bl	LCD_PutChar
 143:.\lib_Display/display.c ****     if(numLoad == 0)
 574              		.loc 2 143 0
 575 001e 7B68     		ldr	r3, [r7, #4]
 576 0020 002B     		cmp	r3, #0
 577 0022 07D1     		bne	.L26
 144:.\lib_Display/display.c ****     {
 145:.\lib_Display/display.c ****         LCD_Position(1,0);
 578              		.loc 2 145 0
 579 0024 0120     		mov	r0, #1
 580 0026 0021     		mov	r1, #0
 581 0028 FFF7FEFF 		bl	LCD_Position
 146:.\lib_Display/display.c ****         LCD_PrintString("             ");
 582              		.loc 2 146 0
 583 002c 034B     		ldr	r3, .L28
 584 002e 181C     		mov	r0, r3
 585 0030 FFF7FEFF 		bl	LCD_PrintString
 586              	.L26:
 147:.\lib_Display/display.c ****     }
 148:.\lib_Display/display.c **** }
 587              		.loc 2 148 0
 588 0034 BD46     		mov	sp, r7
 589 0036 02B0     		add	sp, sp, #8
ARM GAS  C:\DOCUME~1\Admin\LOCALS~1\Temp\cc54ejBc.s 			page 24


 590              		@ sp needed
 591 0038 80BD     		pop	{r7, pc}
 592              	.L29:
 593 003a C046     		.align	2
 594              	.L28:
 595 003c 44000000 		.word	.LC11
 596              		.cfi_endproc
 597              	.LFE70:
 598              		.size	DisplayPrintfLoading, .-DisplayPrintfLoading
 599              		.text
 600              	.Letext0:
 601              		.file 3 "c:\\program files\\cypress\\psoc creator\\3.3\\psoc creator\\import\\gnu\\arm\\4.9.3\\arm
 602              		.file 4 "c:\\program files\\cypress\\psoc creator\\3.3\\psoc creator\\import\\gnu\\arm\\4.9.3\\arm
 603              		.file 5 "Generated_Source\\PSoC4/cytypes.h"
 604              		.file 6 "./lib_Fat\\integer.h"
 605              		.file 7 "./lib_Fat\\ff.h"
 606              		.file 8 "./lib_Display\\display.h"
 607              		.file 9 "./debug.h"
 608              		.file 10 "./lib_DB\\logResult.h"