ARM GAS  C:\Users\Petro\AppData\Local\Temp\ccQL3rGK.s 			page 1


   1              		.cpu cortex-m0
   2              		.fpu softvfp
   3              		.eabi_attribute 20, 1
   4              		.eabi_attribute 21, 1
   5              		.eabi_attribute 23, 3
   6              		.eabi_attribute 24, 1
   7              		.eabi_attribute 25, 1
   8              		.eabi_attribute 26, 1
   9              		.eabi_attribute 30, 6
  10              		.eabi_attribute 34, 0
  11              		.eabi_attribute 18, 4
  12              		.code	16
  13              		.file	"DS1307.c"
  14              		.text
  15              	.Ltext0:
  16              		.cfi_sections	.debug_frame
  17              		.data
  18              		.align	2
  19              		.type	DS1307_daysBeforeMonthTbl1, %object
  20              		.size	DS1307_daysBeforeMonthTbl1, 24
  21              	DS1307_daysBeforeMonthTbl1:
  22 0000 0000     		.short	0
  23 0002 1F00     		.short	31
  24 0004 3B00     		.short	59
  25 0006 5A00     		.short	90
  26 0008 7800     		.short	120
  27 000a 9700     		.short	151
  28 000c B500     		.short	181
  29 000e D400     		.short	212
  30 0010 F300     		.short	243
  31 0012 1101     		.short	273
  32 0014 3001     		.short	304
  33 0016 4E01     		.short	334
  34              		.align	2
  35              		.type	DS1307_daysInMonthTbl, %object
  36              		.size	DS1307_daysInMonthTbl, 12
  37              	DS1307_daysInMonthTbl:
  38 0018 1F       		.byte	31
  39 0019 1C       		.byte	28
  40 001a 1F       		.byte	31
  41 001b 1E       		.byte	30
  42 001c 1F       		.byte	31
  43 001d 1E       		.byte	30
  44 001e 1F       		.byte	31
  45 001f 1F       		.byte	31
  46 0020 1E       		.byte	30
  47 0021 1F       		.byte	31
  48 0022 1E       		.byte	30
  49 0023 1F       		.byte	31
  50              		.comm	DS1307_currentTimeDate,10,4
  51              		.section	.text.DS1307_ReadTimeToStruct,"ax",%progbits
  52              		.align	2
  53              		.code	16
  54              		.thumb_func
  55              		.type	DS1307_ReadTimeToStruct, %function
  56              	DS1307_ReadTimeToStruct:
  57              	.LFB2:
ARM GAS  C:\Users\Petro\AppData\Local\Temp\ccQL3rGK.s 			page 2


  58              		.file 1 ".\\lib_DS1307\\DS1307.c"
   1:.\lib_DS1307/DS1307.c **** /* ========================================
   2:.\lib_DS1307/DS1307.c ****  *
   3:.\lib_DS1307/DS1307.c ****  * Copyright YOUR COMPANY, THE YEAR
   4:.\lib_DS1307/DS1307.c ****  * All Rights Reserved
   5:.\lib_DS1307/DS1307.c ****  * UNPUBLISHED, LICENSED SOFTWARE.
   6:.\lib_DS1307/DS1307.c ****  *
   7:.\lib_DS1307/DS1307.c ****  * CONFIDENTIAL AND PROPRIETARY INFORMATION
   8:.\lib_DS1307/DS1307.c ****  * WHICH IS THE PROPERTY OF your company.
   9:.\lib_DS1307/DS1307.c ****  *
  10:.\lib_DS1307/DS1307.c ****  * ========================================
  11:.\lib_DS1307/DS1307.c **** */
  12:.\lib_DS1307/DS1307.c **** #include "lib_DS1307\DS1307.h"
  13:.\lib_DS1307/DS1307.c **** 
  14:.\lib_DS1307/DS1307.c **** DS1307_DATE_TIME DS1307_currentTimeDate ;// = {20,11,7,0,1,4,27,7,16};
  15:.\lib_DS1307/DS1307.c **** 
  16:.\lib_DS1307/DS1307.c **** static uint32 DS1307_ReadTimeToStruct(void)
  17:.\lib_DS1307/DS1307.c **** {
  59              		.loc 1 17 0
  60              		.cfi_startproc
  61 0000 80B5     		push	{r7, lr}
  62              		.cfi_def_cfa_offset 8
  63              		.cfi_offset 7, -8
  64              		.cfi_offset 14, -4
  65 0002 84B0     		sub	sp, sp, #16
  66              		.cfi_def_cfa_offset 24
  67 0004 00AF     		add	r7, sp, #0
  68              		.cfi_def_cfa_register 7
  18:.\lib_DS1307/DS1307.c ****     uint8_t data[DS1307_NUMBER_OF_BYTES];
  19:.\lib_DS1307/DS1307.c ****     uint32_t status;    
  20:.\lib_DS1307/DS1307.c ****     int i;
  21:.\lib_DS1307/DS1307.c ****     
  22:.\lib_DS1307/DS1307.c ****     I2C_Start();
  69              		.loc 1 22 0
  70 0006 FFF7FEFF 		bl	I2C_Start
  23:.\lib_DS1307/DS1307.c ****     
  24:.\lib_DS1307/DS1307.c ****     /*reset pointer register reading*/
  25:.\lib_DS1307/DS1307.c ****         status = I2C_I2CMasterSendStart(DS1307_SLAVE_ADRESS,I2C_I2C_WRITE_XFER_MODE);
  71              		.loc 1 25 0
  72 000a 6820     		mov	r0, #104
  73 000c 0021     		mov	r1, #0
  74 000e FFF7FEFF 		bl	I2C_I2CMasterSendStart
  75 0012 031C     		mov	r3, r0
  76 0014 BB60     		str	r3, [r7, #8]
  26:.\lib_DS1307/DS1307.c ****         if(status == I2C_I2C_MSTR_NO_ERROR)
  77              		.loc 1 26 0
  78 0016 BB68     		ldr	r3, [r7, #8]
  79 0018 002B     		cmp	r3, #0
  80 001a 10D1     		bne	.L2
  27:.\lib_DS1307/DS1307.c ****         {
  28:.\lib_DS1307/DS1307.c ****             I2C_I2CMasterWriteByte(DS1307_NULL_ADRESS);
  81              		.loc 1 28 0
  82 001c 0020     		mov	r0, #0
  83 001e FFF7FEFF 		bl	I2C_I2CMasterWriteByte
  29:.\lib_DS1307/DS1307.c ****         }else 
  30:.\lib_DS1307/DS1307.c ****         {
  31:.\lib_DS1307/DS1307.c ****             return status;
ARM GAS  C:\Users\Petro\AppData\Local\Temp\ccQL3rGK.s 			page 3


  32:.\lib_DS1307/DS1307.c ****         }
  33:.\lib_DS1307/DS1307.c ****         I2C_I2CMasterSendStop();
  84              		.loc 1 33 0
  85 0022 FFF7FEFF 		bl	I2C_I2CMasterSendStop
  34:.\lib_DS1307/DS1307.c ****     
  35:.\lib_DS1307/DS1307.c ****     /*read data*/
  36:.\lib_DS1307/DS1307.c ****         I2C_I2CMasterClearStatus();
  86              		.loc 1 36 0
  87 0026 FFF7FEFF 		bl	I2C_I2CMasterClearStatus
  37:.\lib_DS1307/DS1307.c ****         status = I2C_I2CMasterSendStart(DS1307_SLAVE_ADRESS,I2C_I2C_READ_XFER_MODE);
  88              		.loc 1 37 0
  89 002a 6820     		mov	r0, #104
  90 002c 0121     		mov	r1, #1
  91 002e FFF7FEFF 		bl	I2C_I2CMasterSendStart
  92 0032 031C     		mov	r3, r0
  93 0034 BB60     		str	r3, [r7, #8]
  38:.\lib_DS1307/DS1307.c ****         if(I2C_I2C_MSTR_NO_ERROR == status) 
  94              		.loc 1 38 0
  95 0036 BB68     		ldr	r3, [r7, #8]
  96 0038 002B     		cmp	r3, #0
  97 003a 23D1     		bne	.L5
  98 003c 01E0     		b	.L13
  99              	.L2:
  31:.\lib_DS1307/DS1307.c ****         }
 100              		.loc 1 31 0
 101 003e BB68     		ldr	r3, [r7, #8]
 102 0040 D5E0     		b	.L12
 103              	.L13:
  39:.\lib_DS1307/DS1307.c ****         {
  40:.\lib_DS1307/DS1307.c ****             for(i=0; i<DS1307_NUMBER_OF_BYTES; i++)
 104              		.loc 1 40 0
 105 0042 0023     		mov	r3, #0
 106 0044 FB60     		str	r3, [r7, #12]
 107 0046 1AE0     		b	.L6
 108              	.L9:
  41:.\lib_DS1307/DS1307.c ****             {   
  42:.\lib_DS1307/DS1307.c ****                 if(i < DS1307_NUMBER_OF_BYTES-1)
 109              		.loc 1 42 0
 110 0048 FB68     		ldr	r3, [r7, #12]
 111 004a 052B     		cmp	r3, #5
 112 004c 0ADC     		bgt	.L7
  43:.\lib_DS1307/DS1307.c ****                 {
  44:.\lib_DS1307/DS1307.c ****                     data[i] = I2C_I2CMasterReadByte(I2C_I2C_ACK_DATA);
 113              		.loc 1 44 0
 114 004e 0020     		mov	r0, #0
 115 0050 FFF7FEFF 		bl	I2C_I2CMasterReadByte
 116 0054 031C     		mov	r3, r0
 117 0056 D9B2     		uxtb	r1, r3
 118 0058 3A1C     		mov	r2, r7
 119 005a FB68     		ldr	r3, [r7, #12]
 120 005c D318     		add	r3, r2, r3
 121 005e 0A1C     		add	r2, r1, #0
 122 0060 1A70     		strb	r2, [r3]
 123 0062 09E0     		b	.L8
 124              	.L7:
  45:.\lib_DS1307/DS1307.c ****                 }
  46:.\lib_DS1307/DS1307.c ****                 else
ARM GAS  C:\Users\Petro\AppData\Local\Temp\ccQL3rGK.s 			page 4


  47:.\lib_DS1307/DS1307.c ****                 {
  48:.\lib_DS1307/DS1307.c ****                     data[i] = I2C_I2CMasterReadByte(I2C_I2C_NAK_DATA);
 125              		.loc 1 48 0
 126 0064 0120     		mov	r0, #1
 127 0066 FFF7FEFF 		bl	I2C_I2CMasterReadByte
 128 006a 031C     		mov	r3, r0
 129 006c D9B2     		uxtb	r1, r3
 130 006e 3A1C     		mov	r2, r7
 131 0070 FB68     		ldr	r3, [r7, #12]
 132 0072 D318     		add	r3, r2, r3
 133 0074 0A1C     		add	r2, r1, #0
 134 0076 1A70     		strb	r2, [r3]
 135              	.L8:
  40:.\lib_DS1307/DS1307.c ****             {   
 136              		.loc 1 40 0 discriminator 2
 137 0078 FB68     		ldr	r3, [r7, #12]
 138 007a 0133     		add	r3, r3, #1
 139 007c FB60     		str	r3, [r7, #12]
 140              	.L6:
  40:.\lib_DS1307/DS1307.c ****             {   
 141              		.loc 1 40 0 is_stmt 0 discriminator 1
 142 007e FB68     		ldr	r3, [r7, #12]
 143 0080 062B     		cmp	r3, #6
 144 0082 E1DD     		ble	.L9
 145              	.L5:
  49:.\lib_DS1307/DS1307.c ****                 }
  50:.\lib_DS1307/DS1307.c ****             }
  51:.\lib_DS1307/DS1307.c ****         }
  52:.\lib_DS1307/DS1307.c ****          I2C_I2CMasterSendStop();
 146              		.loc 1 52 0 is_stmt 1
 147 0084 FFF7FEFF 		bl	I2C_I2CMasterSendStop
  53:.\lib_DS1307/DS1307.c ****     I2C_Stop();
 148              		.loc 1 53 0
 149 0088 FFF7FEFF 		bl	I2C_Stop
  54:.\lib_DS1307/DS1307.c ****     
  55:.\lib_DS1307/DS1307.c ****     /*write data in struct*/
  56:.\lib_DS1307/DS1307.c ****     
  57:.\lib_DS1307/DS1307.c ****     DS1307_currentTimeDate.second =  (data[DS1307_SEC_ADRESS]& DS1307_SEC_MASK)+(((data[DS1307_SEC_
 150              		.loc 1 57 0
 151 008c 3B1C     		mov	r3, r7
 152 008e 1B78     		ldrb	r3, [r3]
 153 0090 0F22     		mov	r2, #15
 154 0092 1340     		and	r3, r2
 155 0094 DAB2     		uxtb	r2, r3
 156 0096 3B1C     		mov	r3, r7
 157 0098 1B78     		ldrb	r3, [r3]
 158 009a 191C     		mov	r1, r3
 159 009c 7023     		mov	r3, #112
 160 009e 0B40     		and	r3, r1
 161 00a0 1B11     		asr	r3, r3, #4
 162 00a2 DBB2     		uxtb	r3, r3
 163 00a4 191C     		add	r1, r3, #0
 164 00a6 8900     		lsl	r1, r1, #2
 165 00a8 CB18     		add	r3, r1, r3
 166 00aa DB18     		add	r3, r3, r3
 167 00ac DBB2     		uxtb	r3, r3
 168 00ae D318     		add	r3, r2, r3
ARM GAS  C:\Users\Petro\AppData\Local\Temp\ccQL3rGK.s 			page 5


 169 00b0 DAB2     		uxtb	r2, r3
 170 00b2 514B     		ldr	r3, .L14
 171 00b4 1A70     		strb	r2, [r3]
  58:.\lib_DS1307/DS1307.c ****     DS1307_currentTimeDate.minutes = (data[DS1307_MIN_ADRESS]& DS1307_MIN_MASK)+(((data[DS1307_MIN_
 172              		.loc 1 58 0
 173 00b6 3B1C     		mov	r3, r7
 174 00b8 5B78     		ldrb	r3, [r3, #1]
 175 00ba 0F22     		mov	r2, #15
 176 00bc 1340     		and	r3, r2
 177 00be DAB2     		uxtb	r2, r3
 178 00c0 3B1C     		mov	r3, r7
 179 00c2 5B78     		ldrb	r3, [r3, #1]
 180 00c4 191C     		mov	r1, r3
 181 00c6 7023     		mov	r3, #112
 182 00c8 0B40     		and	r3, r1
 183 00ca 1B11     		asr	r3, r3, #4
 184 00cc DBB2     		uxtb	r3, r3
 185 00ce 191C     		add	r1, r3, #0
 186 00d0 8900     		lsl	r1, r1, #2
 187 00d2 CB18     		add	r3, r1, r3
 188 00d4 DB18     		add	r3, r3, r3
 189 00d6 DBB2     		uxtb	r3, r3
 190 00d8 D318     		add	r3, r2, r3
 191 00da DAB2     		uxtb	r2, r3
 192 00dc 464B     		ldr	r3, .L14
 193 00de 5A70     		strb	r2, [r3, #1]
  59:.\lib_DS1307/DS1307.c ****     DS1307_currentTimeDate.timeFormat = (data[DS1307_HOUR_ADRESS] & DS1307_TIME_FORMAT_MASK)>>6;
 194              		.loc 1 59 0
 195 00e0 3B1C     		mov	r3, r7
 196 00e2 9B78     		ldrb	r3, [r3, #2]
 197 00e4 1A1C     		mov	r2, r3
 198 00e6 4023     		mov	r3, #64
 199 00e8 1340     		and	r3, r2
 200 00ea 9B11     		asr	r3, r3, #6
 201 00ec DAB2     		uxtb	r2, r3
 202 00ee 424B     		ldr	r3, .L14
 203 00f0 DA70     		strb	r2, [r3, #3]
  60:.\lib_DS1307/DS1307.c ****     if(DS1307_currentTimeDate.timeFormat == DS1307_12TIME_FORMAT)
 204              		.loc 1 60 0
 205 00f2 414B     		ldr	r3, .L14
 206 00f4 DB78     		ldrb	r3, [r3, #3]
 207 00f6 002B     		cmp	r3, #0
 208 00f8 1ED1     		bne	.L10
  61:.\lib_DS1307/DS1307.c ****     {
  62:.\lib_DS1307/DS1307.c ****         DS1307_currentTimeDate.hours = (data[DS1307_HOUR_ADRESS]& DS1307_HOUR_MASK)+(((data[DS1307_
 209              		.loc 1 62 0
 210 00fa 3B1C     		mov	r3, r7
 211 00fc 9B78     		ldrb	r3, [r3, #2]
 212 00fe 0F22     		mov	r2, #15
 213 0100 1340     		and	r3, r2
 214 0102 DAB2     		uxtb	r2, r3
 215 0104 3B1C     		mov	r3, r7
 216 0106 9B78     		ldrb	r3, [r3, #2]
 217 0108 191C     		mov	r1, r3
 218 010a 1023     		mov	r3, #16
 219 010c 0B40     		and	r3, r1
 220 010e 1B11     		asr	r3, r3, #4
ARM GAS  C:\Users\Petro\AppData\Local\Temp\ccQL3rGK.s 			page 6


 221 0110 DBB2     		uxtb	r3, r3
 222 0112 191C     		add	r1, r3, #0
 223 0114 8900     		lsl	r1, r1, #2
 224 0116 CB18     		add	r3, r1, r3
 225 0118 DB18     		add	r3, r3, r3
 226 011a DBB2     		uxtb	r3, r3
 227 011c D318     		add	r3, r2, r3
 228 011e DAB2     		uxtb	r2, r3
 229 0120 354B     		ldr	r3, .L14
 230 0122 9A70     		strb	r2, [r3, #2]
  63:.\lib_DS1307/DS1307.c ****         DS1307_currentTimeDate.AmRm = (data[DS1307_HOUR_ADRESS]&DS1307_AM_RM_MASK)>>5;
 231              		.loc 1 63 0
 232 0124 3B1C     		mov	r3, r7
 233 0126 9B78     		ldrb	r3, [r3, #2]
 234 0128 1A1C     		mov	r2, r3
 235 012a 2023     		mov	r3, #32
 236 012c 1340     		and	r3, r2
 237 012e 5B11     		asr	r3, r3, #5
 238 0130 DAB2     		uxtb	r2, r3
 239 0132 314B     		ldr	r3, .L14
 240 0134 1A71     		strb	r2, [r3, #4]
 241 0136 14E0     		b	.L11
 242              	.L10:
  64:.\lib_DS1307/DS1307.c ****     }else 
  65:.\lib_DS1307/DS1307.c ****     {
  66:.\lib_DS1307/DS1307.c ****         DS1307_currentTimeDate.hours = (uint32_t)(data[DS1307_HOUR_ADRESS]& DS1307_HOUR_MASK) + (((
 243              		.loc 1 66 0
 244 0138 3B1C     		mov	r3, r7
 245 013a 9B78     		ldrb	r3, [r3, #2]
 246 013c 0F22     		mov	r2, #15
 247 013e 1340     		and	r3, r2
 248 0140 DAB2     		uxtb	r2, r3
 249 0142 3B1C     		mov	r3, r7
 250 0144 9B78     		ldrb	r3, [r3, #2]
 251 0146 191C     		mov	r1, r3
 252 0148 3023     		mov	r3, #48
 253 014a 0B40     		and	r3, r1
 254 014c 1B11     		asr	r3, r3, #4
 255 014e DBB2     		uxtb	r3, r3
 256 0150 191C     		add	r1, r3, #0
 257 0152 8900     		lsl	r1, r1, #2
 258 0154 CB18     		add	r3, r1, r3
 259 0156 DB18     		add	r3, r3, r3
 260 0158 DBB2     		uxtb	r3, r3
 261 015a D318     		add	r3, r2, r3
 262 015c DAB2     		uxtb	r2, r3
 263 015e 264B     		ldr	r3, .L14
 264 0160 9A70     		strb	r2, [r3, #2]
 265              	.L11:
  67:.\lib_DS1307/DS1307.c ****     }
  68:.\lib_DS1307/DS1307.c ****     DS1307_currentTimeDate.day = data[DS1307_DAY_ADRESS]&DS1307_DAY_MASK;
 266              		.loc 1 68 0
 267 0162 3B1C     		mov	r3, r7
 268 0164 DB78     		ldrb	r3, [r3, #3]
 269 0166 0722     		mov	r2, #7
 270 0168 1340     		and	r3, r2
 271 016a DAB2     		uxtb	r2, r3
ARM GAS  C:\Users\Petro\AppData\Local\Temp\ccQL3rGK.s 			page 7


 272 016c 224B     		ldr	r3, .L14
 273 016e 5A71     		strb	r2, [r3, #5]
  69:.\lib_DS1307/DS1307.c ****     DS1307_currentTimeDate.date = (data[DS1307_DATE_ADRESS]&DS1307_DATE_MASK) + (((data[DS1307_DATE
 274              		.loc 1 69 0
 275 0170 3B1C     		mov	r3, r7
 276 0172 1B79     		ldrb	r3, [r3, #4]
 277 0174 0F22     		mov	r2, #15
 278 0176 1340     		and	r3, r2
 279 0178 DAB2     		uxtb	r2, r3
 280 017a 3B1C     		mov	r3, r7
 281 017c 1B79     		ldrb	r3, [r3, #4]
 282 017e 191C     		mov	r1, r3
 283 0180 3023     		mov	r3, #48
 284 0182 0B40     		and	r3, r1
 285 0184 1B11     		asr	r3, r3, #4
 286 0186 DBB2     		uxtb	r3, r3
 287 0188 191C     		add	r1, r3, #0
 288 018a 8900     		lsl	r1, r1, #2
 289 018c CB18     		add	r3, r1, r3
 290 018e DB18     		add	r3, r3, r3
 291 0190 DBB2     		uxtb	r3, r3
 292 0192 D318     		add	r3, r2, r3
 293 0194 DAB2     		uxtb	r2, r3
 294 0196 184B     		ldr	r3, .L14
 295 0198 9A71     		strb	r2, [r3, #6]
  70:.\lib_DS1307/DS1307.c ****     DS1307_currentTimeDate.month  = (data[DS1307_MONTH_ADRESS]&DS1307_MONTH_MASK) + (((data[DS1307_
 296              		.loc 1 70 0
 297 019a 3B1C     		mov	r3, r7
 298 019c 5B79     		ldrb	r3, [r3, #5]
 299 019e 0F22     		mov	r2, #15
 300 01a0 1340     		and	r3, r2
 301 01a2 DAB2     		uxtb	r2, r3
 302 01a4 3B1C     		mov	r3, r7
 303 01a6 5B79     		ldrb	r3, [r3, #5]
 304 01a8 191C     		mov	r1, r3
 305 01aa 1023     		mov	r3, #16
 306 01ac 0B40     		and	r3, r1
 307 01ae 1B11     		asr	r3, r3, #4
 308 01b0 DBB2     		uxtb	r3, r3
 309 01b2 191C     		add	r1, r3, #0
 310 01b4 8900     		lsl	r1, r1, #2
 311 01b6 CB18     		add	r3, r1, r3
 312 01b8 DB18     		add	r3, r3, r3
 313 01ba DBB2     		uxtb	r3, r3
 314 01bc D318     		add	r3, r2, r3
 315 01be DAB2     		uxtb	r2, r3
 316 01c0 0D4B     		ldr	r3, .L14
 317 01c2 DA71     		strb	r2, [r3, #7]
  71:.\lib_DS1307/DS1307.c ****     DS1307_currentTimeDate.year = (data[DS1307_YEAR_ADRESS]&DS1307_YEAR_MASK) + (((data[DS1307_YEAR
 318              		.loc 1 71 0
 319 01c4 3B1C     		mov	r3, r7
 320 01c6 9B79     		ldrb	r3, [r3, #6]
 321 01c8 9BB2     		uxth	r3, r3
 322 01ca 0F22     		mov	r2, #15
 323 01cc 1340     		and	r3, r2
 324 01ce 9AB2     		uxth	r2, r3
 325 01d0 3B1C     		mov	r3, r7
ARM GAS  C:\Users\Petro\AppData\Local\Temp\ccQL3rGK.s 			page 8


 326 01d2 9B79     		ldrb	r3, [r3, #6]
 327 01d4 1B09     		lsr	r3, r3, #4
 328 01d6 DBB2     		uxtb	r3, r3
 329 01d8 9BB2     		uxth	r3, r3
 330 01da 191C     		add	r1, r3, #0
 331 01dc 8900     		lsl	r1, r1, #2
 332 01de CB18     		add	r3, r1, r3
 333 01e0 DB18     		add	r3, r3, r3
 334 01e2 9BB2     		uxth	r3, r3
 335 01e4 D318     		add	r3, r2, r3
 336 01e6 9AB2     		uxth	r2, r3
 337 01e8 034B     		ldr	r3, .L14
 338 01ea 1A81     		strh	r2, [r3, #8]
  72:.\lib_DS1307/DS1307.c ****     
  73:.\lib_DS1307/DS1307.c ****     return I2C_I2C_MSTR_NO_ERROR;
 339              		.loc 1 73 0
 340 01ec 0023     		mov	r3, #0
 341              	.L12:
  74:.\lib_DS1307/DS1307.c **** }
 342              		.loc 1 74 0 discriminator 1
 343 01ee 181C     		mov	r0, r3
 344 01f0 BD46     		mov	sp, r7
 345 01f2 04B0     		add	sp, sp, #16
 346              		@ sp needed
 347 01f4 80BD     		pop	{r7, pc}
 348              	.L15:
 349 01f6 C046     		.align	2
 350              	.L14:
 351 01f8 00000000 		.word	DS1307_currentTimeDate
 352              		.cfi_endproc
 353              	.LFE2:
 354              		.size	DS1307_ReadTimeToStruct, .-DS1307_ReadTimeToStruct
 355              		.global	__aeabi_uidiv
 356              		.global	__aeabi_uidivmod
 357              		.section	.text.DS1307_WriteTimeFromStruct,"ax",%progbits
 358              		.align	2
 359              		.code	16
 360              		.thumb_func
 361              		.type	DS1307_WriteTimeFromStruct, %function
 362              	DS1307_WriteTimeFromStruct:
 363              	.LFB3:
  75:.\lib_DS1307/DS1307.c **** 
  76:.\lib_DS1307/DS1307.c **** static void DS1307_WriteTimeFromStruct(void)
  77:.\lib_DS1307/DS1307.c **** {
 364              		.loc 1 77 0
 365              		.cfi_startproc
 366 0000 90B5     		push	{r4, r7, lr}
 367              		.cfi_def_cfa_offset 12
 368              		.cfi_offset 4, -12
 369              		.cfi_offset 7, -8
 370              		.cfi_offset 14, -4
 371 0002 85B0     		sub	sp, sp, #20
 372              		.cfi_def_cfa_offset 32
 373 0004 00AF     		add	r7, sp, #0
 374              		.cfi_def_cfa_register 7
  78:.\lib_DS1307/DS1307.c ****     uint32_t status;
  79:.\lib_DS1307/DS1307.c ****     int i;
ARM GAS  C:\Users\Petro\AppData\Local\Temp\ccQL3rGK.s 			page 9


  80:.\lib_DS1307/DS1307.c ****     uint8_t data[DS1307_NUMBER_OF_BYTES] ;
  81:.\lib_DS1307/DS1307.c ****     
  82:.\lib_DS1307/DS1307.c ****     data[DS1307_SEC_ADRESS] = ((DS1307_currentTimeDate.second/10)<<4) + (DS1307_currentTimeDate.sec
 375              		.loc 1 82 0
 376 0006 7A4B     		ldr	r3, .L23
 377 0008 1B78     		ldrb	r3, [r3]
 378 000a 181C     		mov	r0, r3
 379 000c 0A21     		mov	r1, #10
 380 000e FFF7FEFF 		bl	__aeabi_uidiv
 381 0012 031C     		mov	r3, r0
 382 0014 DBB2     		uxtb	r3, r3
 383 0016 1B01     		lsl	r3, r3, #4
 384 0018 DCB2     		uxtb	r4, r3
 385 001a 754B     		ldr	r3, .L23
 386 001c 1B78     		ldrb	r3, [r3]
 387 001e 181C     		mov	r0, r3
 388 0020 0A21     		mov	r1, #10
 389 0022 FFF7FEFF 		bl	__aeabi_uidivmod
 390 0026 0B1C     		mov	r3, r1
 391 0028 DBB2     		uxtb	r3, r3
 392 002a E318     		add	r3, r4, r3
 393 002c DAB2     		uxtb	r2, r3
 394 002e 3B1C     		mov	r3, r7
 395 0030 1A70     		strb	r2, [r3]
  83:.\lib_DS1307/DS1307.c ****     data[DS1307_MIN_ADRESS] = ((DS1307_currentTimeDate.minutes/10)<<4) + (DS1307_currentTimeDate.mi
 396              		.loc 1 83 0
 397 0032 6F4B     		ldr	r3, .L23
 398 0034 5B78     		ldrb	r3, [r3, #1]
 399 0036 181C     		mov	r0, r3
 400 0038 0A21     		mov	r1, #10
 401 003a FFF7FEFF 		bl	__aeabi_uidiv
 402 003e 031C     		mov	r3, r0
 403 0040 DBB2     		uxtb	r3, r3
 404 0042 1B01     		lsl	r3, r3, #4
 405 0044 DCB2     		uxtb	r4, r3
 406 0046 6A4B     		ldr	r3, .L23
 407 0048 5B78     		ldrb	r3, [r3, #1]
 408 004a 181C     		mov	r0, r3
 409 004c 0A21     		mov	r1, #10
 410 004e FFF7FEFF 		bl	__aeabi_uidivmod
 411 0052 0B1C     		mov	r3, r1
 412 0054 DBB2     		uxtb	r3, r3
 413 0056 E318     		add	r3, r4, r3
 414 0058 DAB2     		uxtb	r2, r3
 415 005a 3B1C     		mov	r3, r7
 416 005c 5A70     		strb	r2, [r3, #1]
  84:.\lib_DS1307/DS1307.c ****     if(DS1307_currentTimeDate.timeFormat == DS1307_12TIME_FORMAT)
 417              		.loc 1 84 0
 418 005e 644B     		ldr	r3, .L23
 419 0060 DB78     		ldrb	r3, [r3, #3]
 420 0062 002B     		cmp	r3, #0
 421 0064 2ED1     		bne	.L17
  85:.\lib_DS1307/DS1307.c ****     {
  86:.\lib_DS1307/DS1307.c ****         data[DS1307_HOUR_ADRESS] = ((DS1307_currentTimeDate.hours/10)<<4) + (DS1307_currentTimeDate
 422              		.loc 1 86 0
 423 0066 624B     		ldr	r3, .L23
 424 0068 9B78     		ldrb	r3, [r3, #2]
ARM GAS  C:\Users\Petro\AppData\Local\Temp\ccQL3rGK.s 			page 10


 425 006a 181C     		mov	r0, r3
 426 006c 0A21     		mov	r1, #10
 427 006e FFF7FEFF 		bl	__aeabi_uidiv
 428 0072 031C     		mov	r3, r0
 429 0074 DBB2     		uxtb	r3, r3
 430 0076 1B01     		lsl	r3, r3, #4
 431 0078 DCB2     		uxtb	r4, r3
 432 007a 5D4B     		ldr	r3, .L23
 433 007c 9B78     		ldrb	r3, [r3, #2]
 434 007e 181C     		mov	r0, r3
 435 0080 0A21     		mov	r1, #10
 436 0082 FFF7FEFF 		bl	__aeabi_uidivmod
 437 0086 0B1C     		mov	r3, r1
 438 0088 DBB2     		uxtb	r3, r3
 439 008a E318     		add	r3, r4, r3
 440 008c DAB2     		uxtb	r2, r3
 441 008e 3B1C     		mov	r3, r7
 442 0090 9A70     		strb	r2, [r3, #2]
  87:.\lib_DS1307/DS1307.c ****         data[DS1307_HOUR_ADRESS] |= (DS1307_currentTimeDate.AmRm << 5);
 443              		.loc 1 87 0
 444 0092 3B1C     		mov	r3, r7
 445 0094 9B78     		ldrb	r3, [r3, #2]
 446 0096 DAB2     		uxtb	r2, r3
 447 0098 554B     		ldr	r3, .L23
 448 009a 1B79     		ldrb	r3, [r3, #4]
 449 009c 5B01     		lsl	r3, r3, #5
 450 009e DBB2     		uxtb	r3, r3
 451 00a0 1343     		orr	r3, r2
 452 00a2 DBB2     		uxtb	r3, r3
 453 00a4 DAB2     		uxtb	r2, r3
 454 00a6 3B1C     		mov	r3, r7
 455 00a8 9A70     		strb	r2, [r3, #2]
  88:.\lib_DS1307/DS1307.c ****         data[DS1307_HOUR_ADRESS] |= (DS1307_currentTimeDate.timeFormat << 6);
 456              		.loc 1 88 0
 457 00aa 3B1C     		mov	r3, r7
 458 00ac 9B78     		ldrb	r3, [r3, #2]
 459 00ae DAB2     		uxtb	r2, r3
 460 00b0 4F4B     		ldr	r3, .L23
 461 00b2 DB78     		ldrb	r3, [r3, #3]
 462 00b4 9B01     		lsl	r3, r3, #6
 463 00b6 DBB2     		uxtb	r3, r3
 464 00b8 1343     		orr	r3, r2
 465 00ba DBB2     		uxtb	r3, r3
 466 00bc DAB2     		uxtb	r2, r3
 467 00be 3B1C     		mov	r3, r7
 468 00c0 9A70     		strb	r2, [r3, #2]
 469 00c2 21E0     		b	.L18
 470              	.L17:
  89:.\lib_DS1307/DS1307.c ****     }else
  90:.\lib_DS1307/DS1307.c ****     {
  91:.\lib_DS1307/DS1307.c ****         data[DS1307_HOUR_ADRESS] = ((DS1307_currentTimeDate.hours/10)<<4) + (DS1307_currentTimeDate
 471              		.loc 1 91 0
 472 00c4 4A4B     		ldr	r3, .L23
 473 00c6 9B78     		ldrb	r3, [r3, #2]
 474 00c8 181C     		mov	r0, r3
 475 00ca 0A21     		mov	r1, #10
 476 00cc FFF7FEFF 		bl	__aeabi_uidiv
ARM GAS  C:\Users\Petro\AppData\Local\Temp\ccQL3rGK.s 			page 11


 477 00d0 031C     		mov	r3, r0
 478 00d2 DBB2     		uxtb	r3, r3
 479 00d4 1B01     		lsl	r3, r3, #4
 480 00d6 DCB2     		uxtb	r4, r3
 481 00d8 454B     		ldr	r3, .L23
 482 00da 9B78     		ldrb	r3, [r3, #2]
 483 00dc 181C     		mov	r0, r3
 484 00de 0A21     		mov	r1, #10
 485 00e0 FFF7FEFF 		bl	__aeabi_uidivmod
 486 00e4 0B1C     		mov	r3, r1
 487 00e6 DBB2     		uxtb	r3, r3
 488 00e8 E318     		add	r3, r4, r3
 489 00ea DAB2     		uxtb	r2, r3
 490 00ec 3B1C     		mov	r3, r7
 491 00ee 9A70     		strb	r2, [r3, #2]
  92:.\lib_DS1307/DS1307.c ****         data[DS1307_HOUR_ADRESS] |= (DS1307_currentTimeDate.timeFormat << 6);
 492              		.loc 1 92 0
 493 00f0 3B1C     		mov	r3, r7
 494 00f2 9B78     		ldrb	r3, [r3, #2]
 495 00f4 DAB2     		uxtb	r2, r3
 496 00f6 3E4B     		ldr	r3, .L23
 497 00f8 DB78     		ldrb	r3, [r3, #3]
 498 00fa 9B01     		lsl	r3, r3, #6
 499 00fc DBB2     		uxtb	r3, r3
 500 00fe 1343     		orr	r3, r2
 501 0100 DBB2     		uxtb	r3, r3
 502 0102 DAB2     		uxtb	r2, r3
 503 0104 3B1C     		mov	r3, r7
 504 0106 9A70     		strb	r2, [r3, #2]
 505              	.L18:
  93:.\lib_DS1307/DS1307.c ****     }
  94:.\lib_DS1307/DS1307.c ****     
  95:.\lib_DS1307/DS1307.c ****     
  96:.\lib_DS1307/DS1307.c ****     data[DS1307_DAY_ADRESS] = DS1307_currentTimeDate.day;
 506              		.loc 1 96 0
 507 0108 394B     		ldr	r3, .L23
 508 010a 5A79     		ldrb	r2, [r3, #5]
 509 010c 3B1C     		mov	r3, r7
 510 010e DA70     		strb	r2, [r3, #3]
  97:.\lib_DS1307/DS1307.c ****     data[DS1307_DATE_ADRESS] = ((DS1307_currentTimeDate.date/10)<<4) + (DS1307_currentTimeDate.date
 511              		.loc 1 97 0
 512 0110 374B     		ldr	r3, .L23
 513 0112 9B79     		ldrb	r3, [r3, #6]
 514 0114 181C     		mov	r0, r3
 515 0116 0A21     		mov	r1, #10
 516 0118 FFF7FEFF 		bl	__aeabi_uidiv
 517 011c 031C     		mov	r3, r0
 518 011e DBB2     		uxtb	r3, r3
 519 0120 1B01     		lsl	r3, r3, #4
 520 0122 DCB2     		uxtb	r4, r3
 521 0124 324B     		ldr	r3, .L23
 522 0126 9B79     		ldrb	r3, [r3, #6]
 523 0128 181C     		mov	r0, r3
 524 012a 0A21     		mov	r1, #10
 525 012c FFF7FEFF 		bl	__aeabi_uidivmod
 526 0130 0B1C     		mov	r3, r1
 527 0132 DBB2     		uxtb	r3, r3
ARM GAS  C:\Users\Petro\AppData\Local\Temp\ccQL3rGK.s 			page 12


 528 0134 E318     		add	r3, r4, r3
 529 0136 DAB2     		uxtb	r2, r3
 530 0138 3B1C     		mov	r3, r7
 531 013a 1A71     		strb	r2, [r3, #4]
  98:.\lib_DS1307/DS1307.c ****     data[DS1307_MONTH_ADRESS] = ((DS1307_currentTimeDate.month/10)<<4) + (DS1307_currentTimeDate.mo
 532              		.loc 1 98 0
 533 013c 2C4B     		ldr	r3, .L23
 534 013e DB79     		ldrb	r3, [r3, #7]
 535 0140 181C     		mov	r0, r3
 536 0142 0A21     		mov	r1, #10
 537 0144 FFF7FEFF 		bl	__aeabi_uidiv
 538 0148 031C     		mov	r3, r0
 539 014a DBB2     		uxtb	r3, r3
 540 014c 1B01     		lsl	r3, r3, #4
 541 014e DCB2     		uxtb	r4, r3
 542 0150 274B     		ldr	r3, .L23
 543 0152 DB79     		ldrb	r3, [r3, #7]
 544 0154 181C     		mov	r0, r3
 545 0156 0A21     		mov	r1, #10
 546 0158 FFF7FEFF 		bl	__aeabi_uidivmod
 547 015c 0B1C     		mov	r3, r1
 548 015e DBB2     		uxtb	r3, r3
 549 0160 E318     		add	r3, r4, r3
 550 0162 DAB2     		uxtb	r2, r3
 551 0164 3B1C     		mov	r3, r7
 552 0166 5A71     		strb	r2, [r3, #5]
  99:.\lib_DS1307/DS1307.c ****     data[DS1307_YEAR_ADRESS] = ((DS1307_currentTimeDate.year/10)<<4) + (DS1307_currentTimeDate.year
 553              		.loc 1 99 0
 554 0168 214B     		ldr	r3, .L23
 555 016a 1B89     		ldrh	r3, [r3, #8]
 556 016c 181C     		mov	r0, r3
 557 016e 0A21     		mov	r1, #10
 558 0170 FFF7FEFF 		bl	__aeabi_uidiv
 559 0174 031C     		mov	r3, r0
 560 0176 9BB2     		uxth	r3, r3
 561 0178 DBB2     		uxtb	r3, r3
 562 017a 1B01     		lsl	r3, r3, #4
 563 017c DCB2     		uxtb	r4, r3
 564 017e 1C4B     		ldr	r3, .L23
 565 0180 1B89     		ldrh	r3, [r3, #8]
 566 0182 181C     		mov	r0, r3
 567 0184 0A21     		mov	r1, #10
 568 0186 FFF7FEFF 		bl	__aeabi_uidivmod
 569 018a 0B1C     		mov	r3, r1
 570 018c 9BB2     		uxth	r3, r3
 571 018e DBB2     		uxtb	r3, r3
 572 0190 E318     		add	r3, r4, r3
 573 0192 DAB2     		uxtb	r2, r3
 574 0194 3B1C     		mov	r3, r7
 575 0196 9A71     		strb	r2, [r3, #6]
 100:.\lib_DS1307/DS1307.c ****     
 101:.\lib_DS1307/DS1307.c ****     I2C_Start();
 576              		.loc 1 101 0
 577 0198 FFF7FEFF 		bl	I2C_Start
 102:.\lib_DS1307/DS1307.c ****     I2C_I2CMasterClearStatus();
 578              		.loc 1 102 0
 579 019c FFF7FEFF 		bl	I2C_I2CMasterClearStatus
ARM GAS  C:\Users\Petro\AppData\Local\Temp\ccQL3rGK.s 			page 13


 103:.\lib_DS1307/DS1307.c ****     status = I2C_I2CMasterSendStart(DS1307_SLAVE_ADRESS, I2C_I2C_WRITE_XFER_MODE);
 580              		.loc 1 103 0
 581 01a0 6820     		mov	r0, #104
 582 01a2 0021     		mov	r1, #0
 583 01a4 FFF7FEFF 		bl	I2C_I2CMasterSendStart
 584 01a8 031C     		mov	r3, r0
 585 01aa BB60     		str	r3, [r7, #8]
 104:.\lib_DS1307/DS1307.c ****     I2C_I2CMasterWriteByte(DS1307_NULL_ADRESS);
 586              		.loc 1 104 0
 587 01ac 0020     		mov	r0, #0
 588 01ae FFF7FEFF 		bl	I2C_I2CMasterWriteByte
 105:.\lib_DS1307/DS1307.c ****     if(I2C_I2C_MSTR_NO_ERROR == status) 
 589              		.loc 1 105 0
 590 01b2 BB68     		ldr	r3, [r7, #8]
 591 01b4 002B     		cmp	r3, #0
 592 01b6 15D1     		bne	.L19
 106:.\lib_DS1307/DS1307.c ****     {
 107:.\lib_DS1307/DS1307.c ****         for(i=0; i < DS1307_NUMBER_OF_BYTES; i++)
 593              		.loc 1 107 0
 594 01b8 0023     		mov	r3, #0
 595 01ba FB60     		str	r3, [r7, #12]
 596 01bc 0FE0     		b	.L20
 597              	.L22:
 108:.\lib_DS1307/DS1307.c ****         {
 109:.\lib_DS1307/DS1307.c ****             status = I2C_I2CMasterWriteByte(data[i]);
 598              		.loc 1 109 0
 599 01be 3A1C     		mov	r2, r7
 600 01c0 FB68     		ldr	r3, [r7, #12]
 601 01c2 D318     		add	r3, r2, r3
 602 01c4 1B78     		ldrb	r3, [r3]
 603 01c6 181C     		mov	r0, r3
 604 01c8 FFF7FEFF 		bl	I2C_I2CMasterWriteByte
 605 01cc 031C     		mov	r3, r0
 606 01ce BB60     		str	r3, [r7, #8]
 110:.\lib_DS1307/DS1307.c ****             if(I2C_I2C_MSTR_NO_ERROR != status)
 607              		.loc 1 110 0
 608 01d0 BB68     		ldr	r3, [r7, #8]
 609 01d2 002B     		cmp	r3, #0
 610 01d4 00D0     		beq	.L21
 111:.\lib_DS1307/DS1307.c ****             {
 112:.\lib_DS1307/DS1307.c ****                 break;
 611              		.loc 1 112 0
 612 01d6 05E0     		b	.L19
 613              	.L21:
 107:.\lib_DS1307/DS1307.c ****         {
 614              		.loc 1 107 0 discriminator 2
 615 01d8 FB68     		ldr	r3, [r7, #12]
 616 01da 0133     		add	r3, r3, #1
 617 01dc FB60     		str	r3, [r7, #12]
 618              	.L20:
 107:.\lib_DS1307/DS1307.c ****         {
 619              		.loc 1 107 0 is_stmt 0 discriminator 1
 620 01de FB68     		ldr	r3, [r7, #12]
 621 01e0 062B     		cmp	r3, #6
 622 01e2 ECDD     		ble	.L22
 623              	.L19:
 113:.\lib_DS1307/DS1307.c ****             }
ARM GAS  C:\Users\Petro\AppData\Local\Temp\ccQL3rGK.s 			page 14


 114:.\lib_DS1307/DS1307.c ****         }
 115:.\lib_DS1307/DS1307.c ****     }
 116:.\lib_DS1307/DS1307.c ****     I2C_I2CMasterSendStop();    
 624              		.loc 1 116 0 is_stmt 1
 625 01e4 FFF7FEFF 		bl	I2C_I2CMasterSendStop
 117:.\lib_DS1307/DS1307.c **** }
 626              		.loc 1 117 0
 627 01e8 BD46     		mov	sp, r7
 628 01ea 05B0     		add	sp, sp, #20
 629              		@ sp needed
 630 01ec 90BD     		pop	{r4, r7, pc}
 631              	.L24:
 632 01ee C046     		.align	2
 633              	.L23:
 634 01f0 00000000 		.word	DS1307_currentTimeDate
 635              		.cfi_endproc
 636              	.LFE3:
 637              		.size	DS1307_WriteTimeFromStruct, .-DS1307_WriteTimeFromStruct
 638              		.section	.text.DS1307_ConstructTime,"ax",%progbits
 639              		.align	2
 640              		.code	16
 641              		.thumb_func
 642              		.type	DS1307_ConstructTime, %function
 643              	DS1307_ConstructTime:
 644              	.LFB4:
 118:.\lib_DS1307/DS1307.c **** 
 119:.\lib_DS1307/DS1307.c **** static uint32_t DS1307_ConstructTime(uint32 timeFormat, uint32 stateAmPm, uint32 hour, uint32 min, 
 120:.\lib_DS1307/DS1307.c **** {
 645              		.loc 1 120 0
 646              		.cfi_startproc
 647 0000 80B5     		push	{r7, lr}
 648              		.cfi_def_cfa_offset 8
 649              		.cfi_offset 7, -8
 650              		.cfi_offset 14, -4
 651 0002 86B0     		sub	sp, sp, #24
 652              		.cfi_def_cfa_offset 32
 653 0004 00AF     		add	r7, sp, #0
 654              		.cfi_def_cfa_register 7
 655 0006 F860     		str	r0, [r7, #12]
 656 0008 B960     		str	r1, [r7, #8]
 657 000a 7A60     		str	r2, [r7, #4]
 658 000c 3B60     		str	r3, [r7]
 121:.\lib_DS1307/DS1307.c ****     uint32 retVal;
 122:.\lib_DS1307/DS1307.c ****     stateAmPm = !stateAmPm;
 659              		.loc 1 122 0
 660 000e BB68     		ldr	r3, [r7, #8]
 661 0010 5A42     		neg	r2, r3
 662 0012 5341     		adc	r3, r3, r2
 663 0014 DBB2     		uxtb	r3, r3
 664 0016 BB60     		str	r3, [r7, #8]
 123:.\lib_DS1307/DS1307.c ****     timeFormat = !timeFormat;
 665              		.loc 1 123 0
 666 0018 FB68     		ldr	r3, [r7, #12]
 667 001a 5A42     		neg	r2, r3
 668 001c 5341     		adc	r3, r3, r2
 669 001e DBB2     		uxtb	r3, r3
 670 0020 FB60     		str	r3, [r7, #12]
ARM GAS  C:\Users\Petro\AppData\Local\Temp\ccQL3rGK.s 			page 15


 124:.\lib_DS1307/DS1307.c ****     
 125:.\lib_DS1307/DS1307.c ****     retVal  = timeFormat << DS1307_TIME_FORMAT_OFFSET;
 671              		.loc 1 125 0
 672 0022 FB68     		ldr	r3, [r7, #12]
 673 0024 DB05     		lsl	r3, r3, #23
 674 0026 7B61     		str	r3, [r7, #20]
 126:.\lib_DS1307/DS1307.c ****     retVal |= stateAmPm << DS1307_PERIOD_OF_DAY_OFFSET;
 675              		.loc 1 126 0
 676 0028 BB68     		ldr	r3, [r7, #8]
 677 002a 9B05     		lsl	r3, r3, #22
 678 002c 7A69     		ldr	r2, [r7, #20]
 679 002e 1343     		orr	r3, r2
 680 0030 7B61     		str	r3, [r7, #20]
 127:.\lib_DS1307/DS1307.c **** 
 128:.\lib_DS1307/DS1307.c ****     retVal |= (hour / 10u) << DS1307_10_HOURS_OFFSET;
 681              		.loc 1 128 0
 682 0032 7B68     		ldr	r3, [r7, #4]
 683 0034 181C     		mov	r0, r3
 684 0036 0A21     		mov	r1, #10
 685 0038 FFF7FEFF 		bl	__aeabi_uidiv
 686 003c 031C     		mov	r3, r0
 687 003e 1B05     		lsl	r3, r3, #20
 688 0040 7A69     		ldr	r2, [r7, #20]
 689 0042 1343     		orr	r3, r2
 690 0044 7B61     		str	r3, [r7, #20]
 129:.\lib_DS1307/DS1307.c ****     retVal |= (hour % 10u) << DS1307_HOURS_OFFSET;
 691              		.loc 1 129 0
 692 0046 7B68     		ldr	r3, [r7, #4]
 693 0048 181C     		mov	r0, r3
 694 004a 0A21     		mov	r1, #10
 695 004c FFF7FEFF 		bl	__aeabi_uidivmod
 696 0050 0B1C     		mov	r3, r1
 697 0052 1B04     		lsl	r3, r3, #16
 698 0054 7A69     		ldr	r2, [r7, #20]
 699 0056 1343     		orr	r3, r2
 700 0058 7B61     		str	r3, [r7, #20]
 130:.\lib_DS1307/DS1307.c **** 
 131:.\lib_DS1307/DS1307.c ****     retVal |= (min / 10u) << DS1307_10_MINUTES_OFFSET;
 701              		.loc 1 131 0
 702 005a 3B68     		ldr	r3, [r7]
 703 005c 181C     		mov	r0, r3
 704 005e 0A21     		mov	r1, #10
 705 0060 FFF7FEFF 		bl	__aeabi_uidiv
 706 0064 031C     		mov	r3, r0
 707 0066 1B03     		lsl	r3, r3, #12
 708 0068 7A69     		ldr	r2, [r7, #20]
 709 006a 1343     		orr	r3, r2
 710 006c 7B61     		str	r3, [r7, #20]
 132:.\lib_DS1307/DS1307.c ****     retVal |= (min % 10u) << DS1307_MINUTES_OFFSET;
 711              		.loc 1 132 0
 712 006e 3B68     		ldr	r3, [r7]
 713 0070 181C     		mov	r0, r3
 714 0072 0A21     		mov	r1, #10
 715 0074 FFF7FEFF 		bl	__aeabi_uidivmod
 716 0078 0B1C     		mov	r3, r1
 717 007a 1B02     		lsl	r3, r3, #8
 718 007c 7A69     		ldr	r2, [r7, #20]
ARM GAS  C:\Users\Petro\AppData\Local\Temp\ccQL3rGK.s 			page 16


 719 007e 1343     		orr	r3, r2
 720 0080 7B61     		str	r3, [r7, #20]
 133:.\lib_DS1307/DS1307.c **** 
 134:.\lib_DS1307/DS1307.c ****     retVal |= (sec / 10u) << DS1307_10_SECONDS_OFFSET;
 721              		.loc 1 134 0
 722 0082 3B6A     		ldr	r3, [r7, #32]
 723 0084 181C     		mov	r0, r3
 724 0086 0A21     		mov	r1, #10
 725 0088 FFF7FEFF 		bl	__aeabi_uidiv
 726 008c 031C     		mov	r3, r0
 727 008e 1B01     		lsl	r3, r3, #4
 728 0090 7A69     		ldr	r2, [r7, #20]
 729 0092 1343     		orr	r3, r2
 730 0094 7B61     		str	r3, [r7, #20]
 135:.\lib_DS1307/DS1307.c ****     retVal |= (sec % 10u) << DS1307_SECONDS_OFFSET;
 731              		.loc 1 135 0
 732 0096 3B6A     		ldr	r3, [r7, #32]
 733 0098 181C     		mov	r0, r3
 734 009a 0A21     		mov	r1, #10
 735 009c FFF7FEFF 		bl	__aeabi_uidivmod
 736 00a0 0B1C     		mov	r3, r1
 737 00a2 1A1C     		mov	r2, r3
 738 00a4 7B69     		ldr	r3, [r7, #20]
 739 00a6 1343     		orr	r3, r2
 740 00a8 7B61     		str	r3, [r7, #20]
 136:.\lib_DS1307/DS1307.c **** 
 137:.\lib_DS1307/DS1307.c ****     return (retVal);
 741              		.loc 1 137 0
 742 00aa 7B69     		ldr	r3, [r7, #20]
 138:.\lib_DS1307/DS1307.c **** }
 743              		.loc 1 138 0
 744 00ac 181C     		mov	r0, r3
 745 00ae BD46     		mov	sp, r7
 746 00b0 06B0     		add	sp, sp, #24
 747              		@ sp needed
 748 00b2 80BD     		pop	{r7, pc}
 749              		.cfi_endproc
 750              	.LFE4:
 751              		.size	DS1307_ConstructTime, .-DS1307_ConstructTime
 752              		.section	.text.DS1307_ConstructDate,"ax",%progbits
 753              		.align	2
 754              		.code	16
 755              		.thumb_func
 756              		.type	DS1307_ConstructDate, %function
 757              	DS1307_ConstructDate:
 758              	.LFB5:
 139:.\lib_DS1307/DS1307.c **** 
 140:.\lib_DS1307/DS1307.c **** static uint32 DS1307_ConstructDate(uint32 month, uint32 day, uint32 year)
 141:.\lib_DS1307/DS1307.c **** {
 759              		.loc 1 141 0
 760              		.cfi_startproc
 761 0000 80B5     		push	{r7, lr}
 762              		.cfi_def_cfa_offset 8
 763              		.cfi_offset 7, -8
 764              		.cfi_offset 14, -4
 765 0002 86B0     		sub	sp, sp, #24
 766              		.cfi_def_cfa_offset 32
ARM GAS  C:\Users\Petro\AppData\Local\Temp\ccQL3rGK.s 			page 17


 767 0004 00AF     		add	r7, sp, #0
 768              		.cfi_def_cfa_register 7
 769 0006 F860     		str	r0, [r7, #12]
 770 0008 B960     		str	r1, [r7, #8]
 771 000a 7A60     		str	r2, [r7, #4]
 142:.\lib_DS1307/DS1307.c ****     
 143:.\lib_DS1307/DS1307.c ****     /*year in D1307 save ten (16 =>2016 year)*/
 144:.\lib_DS1307/DS1307.c ****     year +=2000;
 772              		.loc 1 144 0
 773 000c 7B68     		ldr	r3, [r7, #4]
 774 000e FA22     		mov	r2, #250
 775 0010 D200     		lsl	r2, r2, #3
 776 0012 9446     		mov	ip, r2
 777 0014 6344     		add	r3, r3, ip
 778 0016 7B60     		str	r3, [r7, #4]
 145:.\lib_DS1307/DS1307.c ****     uint32 retVal;
 146:.\lib_DS1307/DS1307.c ****     uint32 tmpVal = year;
 779              		.loc 1 146 0
 780 0018 7B68     		ldr	r3, [r7, #4]
 781 001a 7B61     		str	r3, [r7, #20]
 147:.\lib_DS1307/DS1307.c **** 
 148:.\lib_DS1307/DS1307.c ****     retVal  = (month / 10u) << DS1307_10_MONTH_OFFSET;
 782              		.loc 1 148 0
 783 001c FB68     		ldr	r3, [r7, #12]
 784 001e 181C     		mov	r0, r3
 785 0020 0A21     		mov	r1, #10
 786 0022 FFF7FEFF 		bl	__aeabi_uidiv
 787 0026 031C     		mov	r3, r0
 788 0028 1B07     		lsl	r3, r3, #28
 789 002a 3B61     		str	r3, [r7, #16]
 149:.\lib_DS1307/DS1307.c ****     retVal |= (month % 10u) << DS1307_MONTH_OFFSET;
 790              		.loc 1 149 0
 791 002c FB68     		ldr	r3, [r7, #12]
 792 002e 181C     		mov	r0, r3
 793 0030 0A21     		mov	r1, #10
 794 0032 FFF7FEFF 		bl	__aeabi_uidivmod
 795 0036 0B1C     		mov	r3, r1
 796 0038 1B06     		lsl	r3, r3, #24
 797 003a 3A69     		ldr	r2, [r7, #16]
 798 003c 1343     		orr	r3, r2
 799 003e 3B61     		str	r3, [r7, #16]
 150:.\lib_DS1307/DS1307.c **** 
 151:.\lib_DS1307/DS1307.c ****     retVal |= (day / 10u) << DS1307_10_DAY_OFFSET;
 800              		.loc 1 151 0
 801 0040 BB68     		ldr	r3, [r7, #8]
 802 0042 181C     		mov	r0, r3
 803 0044 0A21     		mov	r1, #10
 804 0046 FFF7FEFF 		bl	__aeabi_uidiv
 805 004a 031C     		mov	r3, r0
 806 004c 1B05     		lsl	r3, r3, #20
 807 004e 3A69     		ldr	r2, [r7, #16]
 808 0050 1343     		orr	r3, r2
 809 0052 3B61     		str	r3, [r7, #16]
 152:.\lib_DS1307/DS1307.c ****     retVal |= (day % 10u) << DS1307_DAY_OFFSET;
 810              		.loc 1 152 0
 811 0054 BB68     		ldr	r3, [r7, #8]
 812 0056 181C     		mov	r0, r3
ARM GAS  C:\Users\Petro\AppData\Local\Temp\ccQL3rGK.s 			page 18


 813 0058 0A21     		mov	r1, #10
 814 005a FFF7FEFF 		bl	__aeabi_uidivmod
 815 005e 0B1C     		mov	r3, r1
 816 0060 1B04     		lsl	r3, r3, #16
 817 0062 3A69     		ldr	r2, [r7, #16]
 818 0064 1343     		orr	r3, r2
 819 0066 3B61     		str	r3, [r7, #16]
 153:.\lib_DS1307/DS1307.c **** 
 154:.\lib_DS1307/DS1307.c ****     retVal |= (year / 1000u) << DS1307_1000_YEAR_OFFSET;
 820              		.loc 1 154 0
 821 0068 7B68     		ldr	r3, [r7, #4]
 822 006a 181C     		mov	r0, r3
 823 006c FA23     		mov	r3, #250
 824 006e 9900     		lsl	r1, r3, #2
 825 0070 FFF7FEFF 		bl	__aeabi_uidiv
 826 0074 031C     		mov	r3, r0
 827 0076 1B03     		lsl	r3, r3, #12
 828 0078 3A69     		ldr	r2, [r7, #16]
 829 007a 1343     		orr	r3, r2
 830 007c 3B61     		str	r3, [r7, #16]
 155:.\lib_DS1307/DS1307.c ****     tmpVal %= 1000u;
 831              		.loc 1 155 0
 832 007e 7B69     		ldr	r3, [r7, #20]
 833 0080 181C     		mov	r0, r3
 834 0082 FA23     		mov	r3, #250
 835 0084 9900     		lsl	r1, r3, #2
 836 0086 FFF7FEFF 		bl	__aeabi_uidivmod
 837 008a 0B1C     		mov	r3, r1
 838 008c 7B61     		str	r3, [r7, #20]
 156:.\lib_DS1307/DS1307.c **** 
 157:.\lib_DS1307/DS1307.c ****     retVal |= (tmpVal / 100u) << DS1307_100_YEAR_OFFSET;
 839              		.loc 1 157 0
 840 008e 7B69     		ldr	r3, [r7, #20]
 841 0090 181C     		mov	r0, r3
 842 0092 6421     		mov	r1, #100
 843 0094 FFF7FEFF 		bl	__aeabi_uidiv
 844 0098 031C     		mov	r3, r0
 845 009a 1B02     		lsl	r3, r3, #8
 846 009c 3A69     		ldr	r2, [r7, #16]
 847 009e 1343     		orr	r3, r2
 848 00a0 3B61     		str	r3, [r7, #16]
 158:.\lib_DS1307/DS1307.c ****     tmpVal %= 100u;
 849              		.loc 1 158 0
 850 00a2 7B69     		ldr	r3, [r7, #20]
 851 00a4 181C     		mov	r0, r3
 852 00a6 6421     		mov	r1, #100
 853 00a8 FFF7FEFF 		bl	__aeabi_uidivmod
 854 00ac 0B1C     		mov	r3, r1
 855 00ae 7B61     		str	r3, [r7, #20]
 159:.\lib_DS1307/DS1307.c **** 
 160:.\lib_DS1307/DS1307.c ****     retVal |= (tmpVal / 10u) << DS1307_10_YEAR_OFFSET;
 856              		.loc 1 160 0
 857 00b0 7B69     		ldr	r3, [r7, #20]
 858 00b2 181C     		mov	r0, r3
 859 00b4 0A21     		mov	r1, #10
 860 00b6 FFF7FEFF 		bl	__aeabi_uidiv
 861 00ba 031C     		mov	r3, r0
ARM GAS  C:\Users\Petro\AppData\Local\Temp\ccQL3rGK.s 			page 19


 862 00bc 1B01     		lsl	r3, r3, #4
 863 00be 3A69     		ldr	r2, [r7, #16]
 864 00c0 1343     		orr	r3, r2
 865 00c2 3B61     		str	r3, [r7, #16]
 161:.\lib_DS1307/DS1307.c ****     retVal |= (tmpVal % 10u) << DS1307_YEAR_OFFSET;
 866              		.loc 1 161 0
 867 00c4 7B69     		ldr	r3, [r7, #20]
 868 00c6 181C     		mov	r0, r3
 869 00c8 0A21     		mov	r1, #10
 870 00ca FFF7FEFF 		bl	__aeabi_uidivmod
 871 00ce 0B1C     		mov	r3, r1
 872 00d0 1A1C     		mov	r2, r3
 873 00d2 3B69     		ldr	r3, [r7, #16]
 874 00d4 1343     		orr	r3, r2
 875 00d6 3B61     		str	r3, [r7, #16]
 162:.\lib_DS1307/DS1307.c **** 
 163:.\lib_DS1307/DS1307.c ****     return (retVal);
 876              		.loc 1 163 0
 877 00d8 3B69     		ldr	r3, [r7, #16]
 164:.\lib_DS1307/DS1307.c **** }
 878              		.loc 1 164 0
 879 00da 181C     		mov	r0, r3
 880 00dc BD46     		mov	sp, r7
 881 00de 06B0     		add	sp, sp, #24
 882              		@ sp needed
 883 00e0 80BD     		pop	{r7, pc}
 884              		.cfi_endproc
 885              	.LFE5:
 886              		.size	DS1307_ConstructDate, .-DS1307_ConstructDate
 887 00e2 C046     		.section	.text.DS1307_DateTimeToUnix,"ax",%progbits
 888              		.align	2
 889              		.code	16
 890              		.thumb_func
 891              		.type	DS1307_DateTimeToUnix, %function
 892              	DS1307_DateTimeToUnix:
 893              	.LFB6:
 165:.\lib_DS1307/DS1307.c **** 
 166:.\lib_DS1307/DS1307.c **** 
 167:.\lib_DS1307/DS1307.c **** static uint64 DS1307_DateTimeToUnix(uint32 inputDate, uint32 inputTime)
 168:.\lib_DS1307/DS1307.c **** {
 894              		.loc 1 168 0
 895              		.cfi_startproc
 896 0000 F0B5     		push	{r4, r5, r6, r7, lr}
 897              		.cfi_def_cfa_offset 20
 898              		.cfi_offset 4, -20
 899              		.cfi_offset 5, -16
 900              		.cfi_offset 6, -12
 901              		.cfi_offset 7, -8
 902              		.cfi_offset 14, -4
 903 0002 97B0     		sub	sp, sp, #92
 904              		.cfi_def_cfa_offset 112
 905 0004 00AF     		add	r7, sp, #0
 906              		.cfi_def_cfa_register 7
 907 0006 7862     		str	r0, [r7, #36]
 908 0008 3962     		str	r1, [r7, #32]
 169:.\lib_DS1307/DS1307.c ****     uint32 i;
 170:.\lib_DS1307/DS1307.c ****     uint32 tmpYear;
ARM GAS  C:\Users\Petro\AppData\Local\Temp\ccQL3rGK.s 			page 20


 171:.\lib_DS1307/DS1307.c ****     uint32 tmpMonth;
 172:.\lib_DS1307/DS1307.c ****     uint32 tmpVal;
 173:.\lib_DS1307/DS1307.c ****     uint64 unixTime;
 174:.\lib_DS1307/DS1307.c **** 
 175:.\lib_DS1307/DS1307.c ****     unixTime = 0u;
 909              		.loc 1 175 0
 910 000a 0023     		mov	r3, #0
 911 000c 0024     		mov	r4, #0
 912 000e BB64     		str	r3, [r7, #72]
 913 0010 FC64     		str	r4, [r7, #76]
 176:.\lib_DS1307/DS1307.c ****     
 177:.\lib_DS1307/DS1307.c ****     /*GetYear*/
 178:.\lib_DS1307/DS1307.c ****     tmpYear  = ((inputDate & DS1307_1000_YEAR_MASK_UNIX) >> DS1307_1000_YEAR_OFFSET) * 1000u;
 914              		.loc 1 178 0
 915 0012 7A6A     		ldr	r2, [r7, #36]
 916 0014 C023     		mov	r3, #192
 917 0016 9B01     		lsl	r3, r3, #6
 918 0018 1340     		and	r3, r2
 919 001a 1B0B     		lsr	r3, r3, #12
 920 001c FA22     		mov	r2, #250
 921 001e 9200     		lsl	r2, r2, #2
 922 0020 5343     		mul	r3, r2
 923 0022 7B64     		str	r3, [r7, #68]
 179:.\lib_DS1307/DS1307.c ****     tmpYear += ((inputDate & DS1307_100_YEAR_MASK_UNIX) >> DS1307_100_YEAR_OFFSET) * 100u;
 924              		.loc 1 179 0
 925 0024 7A6A     		ldr	r2, [r7, #36]
 926 0026 F023     		mov	r3, #240
 927 0028 1B01     		lsl	r3, r3, #4
 928 002a 1340     		and	r3, r2
 929 002c 1B0A     		lsr	r3, r3, #8
 930 002e 6422     		mov	r2, #100
 931 0030 5343     		mul	r3, r2
 932 0032 7A6C     		ldr	r2, [r7, #68]
 933 0034 D318     		add	r3, r2, r3
 934 0036 7B64     		str	r3, [r7, #68]
 180:.\lib_DS1307/DS1307.c ****     tmpYear += ((inputDate & DS1307_10_YEAR_MASK_UNIX) >> DS1307_10_YEAR_OFFSET) * 10u;
 935              		.loc 1 180 0
 936 0038 7B6A     		ldr	r3, [r7, #36]
 937 003a F022     		mov	r2, #240
 938 003c 1340     		and	r3, r2
 939 003e 1A09     		lsr	r2, r3, #4
 940 0040 131C     		mov	r3, r2
 941 0042 9B00     		lsl	r3, r3, #2
 942 0044 9B18     		add	r3, r3, r2
 943 0046 5B00     		lsl	r3, r3, #1
 944 0048 1A1C     		mov	r2, r3
 945 004a 7B6C     		ldr	r3, [r7, #68]
 946 004c 9B18     		add	r3, r3, r2
 947 004e 7B64     		str	r3, [r7, #68]
 181:.\lib_DS1307/DS1307.c ****     tmpYear += (inputDate & DS1307_YEAR_MASK_UNIX) >> DS1307_YEAR_OFFSET;
 948              		.loc 1 181 0
 949 0050 7B6A     		ldr	r3, [r7, #36]
 950 0052 0F22     		mov	r2, #15
 951 0054 1340     		and	r3, r2
 952 0056 7A6C     		ldr	r2, [r7, #68]
 953 0058 D318     		add	r3, r2, r3
 954 005a 7B64     		str	r3, [r7, #68]
ARM GAS  C:\Users\Petro\AppData\Local\Temp\ccQL3rGK.s 			page 21


 182:.\lib_DS1307/DS1307.c **** 
 183:.\lib_DS1307/DS1307.c ****     /* Calculate seconds from epoch start up to (but not including) current year. */
 184:.\lib_DS1307/DS1307.c ****     for(i = DS1307_YEAR_0; i < tmpYear; i++)
 955              		.loc 1 184 0
 956 005c 8D4B     		ldr	r3, .L49
 957 005e 7B65     		str	r3, [r7, #84]
 958 0060 2BE0     		b	.L30
 959              	.L37:
 185:.\lib_DS1307/DS1307.c ****     {
 186:.\lib_DS1307/DS1307.c ****         if(0u != ((((0u == (i % 4Lu)) && (0u != (i % 100Lu))) || (0u == (i % 400Lu)))))
 960              		.loc 1 186 0
 961 0062 7B6D     		ldr	r3, [r7, #84]
 962 0064 0322     		mov	r2, #3
 963 0066 1340     		and	r3, r2
 964 0068 06D1     		bne	.L31
 965              		.loc 1 186 0 is_stmt 0 discriminator 1
 966 006a 7B6D     		ldr	r3, [r7, #84]
 967 006c 181C     		mov	r0, r3
 968 006e 6421     		mov	r1, #100
 969 0070 FFF7FEFF 		bl	__aeabi_uidivmod
 970 0074 0B1E     		sub	r3, r1, #0
 971 0076 07D1     		bne	.L32
 972              	.L31:
 973              		.loc 1 186 0 discriminator 4
 974 0078 7B6D     		ldr	r3, [r7, #84]
 975 007a 181C     		mov	r0, r3
 976 007c C823     		mov	r3, #200
 977 007e 5900     		lsl	r1, r3, #1
 978 0080 FFF7FEFF 		bl	__aeabi_uidivmod
 979 0084 0B1E     		sub	r3, r1, #0
 980 0086 01D1     		bne	.L33
 981              	.L32:
 982              		.loc 1 186 0 discriminator 5
 983 0088 0123     		mov	r3, #1
 984 008a 00E0     		b	.L34
 985              	.L33:
 986              		.loc 1 186 0 discriminator 6
 987 008c 0023     		mov	r3, #0
 988              	.L34:
 989              		.loc 1 186 0 discriminator 8
 990 008e 002B     		cmp	r3, #0
 991 0090 08D0     		beq	.L35
 187:.\lib_DS1307/DS1307.c ****         {
 188:.\lib_DS1307/DS1307.c ****             unixTime += DS1307_SECONDS_PER_LEAP_YEAR;
 992              		.loc 1 188 0 is_stmt 1
 993 0092 BB6C     		ldr	r3, [r7, #72]
 994 0094 FC6C     		ldr	r4, [r7, #76]
 995 0096 8049     		ldr	r1, .L49+4
 996 0098 0022     		mov	r2, #0
 997 009a 5B18     		add	r3, r3, r1
 998 009c 5441     		adc	r4, r4, r2
 999 009e BB64     		str	r3, [r7, #72]
 1000 00a0 FC64     		str	r4, [r7, #76]
 1001 00a2 07E0     		b	.L36
 1002              	.L35:
 189:.\lib_DS1307/DS1307.c ****         }
 190:.\lib_DS1307/DS1307.c ****         else
ARM GAS  C:\Users\Petro\AppData\Local\Temp\ccQL3rGK.s 			page 22


 191:.\lib_DS1307/DS1307.c ****         {
 192:.\lib_DS1307/DS1307.c ****             unixTime += DS1307_SECONDS_PER_NONLEAP_YEAR;
 1003              		.loc 1 192 0
 1004 00a4 BB6C     		ldr	r3, [r7, #72]
 1005 00a6 FC6C     		ldr	r4, [r7, #76]
 1006 00a8 7C49     		ldr	r1, .L49+8
 1007 00aa 0022     		mov	r2, #0
 1008 00ac 5B18     		add	r3, r3, r1
 1009 00ae 5441     		adc	r4, r4, r2
 1010 00b0 BB64     		str	r3, [r7, #72]
 1011 00b2 FC64     		str	r4, [r7, #76]
 1012              	.L36:
 184:.\lib_DS1307/DS1307.c ****     {
 1013              		.loc 1 184 0 discriminator 2
 1014 00b4 7B6D     		ldr	r3, [r7, #84]
 1015 00b6 0133     		add	r3, r3, #1
 1016 00b8 7B65     		str	r3, [r7, #84]
 1017              	.L30:
 184:.\lib_DS1307/DS1307.c ****     {
 1018              		.loc 1 184 0 is_stmt 0 discriminator 1
 1019 00ba 7A6D     		ldr	r2, [r7, #84]
 1020 00bc 7B6C     		ldr	r3, [r7, #68]
 1021 00be 9A42     		cmp	r2, r3
 1022 00c0 CFD3     		bcc	.L37
 193:.\lib_DS1307/DS1307.c ****         }
 194:.\lib_DS1307/DS1307.c ****     }
 195:.\lib_DS1307/DS1307.c **** 
 196:.\lib_DS1307/DS1307.c ****     /* Calculates how many seconds had elapsed in this year prior to the current month. */
 197:.\lib_DS1307/DS1307.c ****     /*GetMonth*/
 198:.\lib_DS1307/DS1307.c ****     tmpMonth  = ((inputDate & DS1307_10_MONTH_MASK_UNIX) >> DS1307_10_MONTH_OFFSET) * 10u;
 1023              		.loc 1 198 0 is_stmt 1
 1024 00c2 7A6A     		ldr	r2, [r7, #36]
 1025 00c4 8023     		mov	r3, #128
 1026 00c6 5B05     		lsl	r3, r3, #21
 1027 00c8 1340     		and	r3, r2
 1028 00ca 1A0F     		lsr	r2, r3, #28
 1029 00cc 131C     		mov	r3, r2
 1030 00ce 9B00     		lsl	r3, r3, #2
 1031 00d0 9B18     		add	r3, r3, r2
 1032 00d2 5B00     		lsl	r3, r3, #1
 1033 00d4 3B64     		str	r3, [r7, #64]
 199:.\lib_DS1307/DS1307.c ****     tmpMonth += (inputDate & DS1307_MONTH_MASK_UNIX) >> DS1307_MONTH_OFFSET;
 1034              		.loc 1 199 0
 1035 00d6 7A6A     		ldr	r2, [r7, #36]
 1036 00d8 F023     		mov	r3, #240
 1037 00da 1B05     		lsl	r3, r3, #20
 1038 00dc 1340     		and	r3, r2
 1039 00de 1B0E     		lsr	r3, r3, #24
 1040 00e0 3A6C     		ldr	r2, [r7, #64]
 1041 00e2 D318     		add	r3, r2, r3
 1042 00e4 3B64     		str	r3, [r7, #64]
 200:.\lib_DS1307/DS1307.c ****     
 201:.\lib_DS1307/DS1307.c ****     tmpVal = DS1307_daysBeforeMonthTbl1[tmpMonth - 1u];
 1043              		.loc 1 201 0
 1044 00e6 3B6C     		ldr	r3, [r7, #64]
 1045 00e8 5A1E     		sub	r2, r3, #1
 1046 00ea 6D4B     		ldr	r3, .L49+12
ARM GAS  C:\Users\Petro\AppData\Local\Temp\ccQL3rGK.s 			page 23


 1047 00ec 5200     		lsl	r2, r2, #1
 1048 00ee D35A     		ldrh	r3, [r2, r3]
 1049 00f0 3B65     		str	r3, [r7, #80]
 202:.\lib_DS1307/DS1307.c **** 
 203:.\lib_DS1307/DS1307.c ****     if((tmpMonth > 2u) && (0u != (((0u == (tmpYear % 4Lu)) && (0u != (tmpYear % 100Lu))) || (0u == 
 1050              		.loc 1 203 0
 1051 00f2 3B6C     		ldr	r3, [r7, #64]
 1052 00f4 022B     		cmp	r3, #2
 1053 00f6 1AD9     		bls	.L38
 1054              		.loc 1 203 0 is_stmt 0 discriminator 1
 1055 00f8 7B6C     		ldr	r3, [r7, #68]
 1056 00fa 0322     		mov	r2, #3
 1057 00fc 1340     		and	r3, r2
 1058 00fe 06D1     		bne	.L39
 1059              		.loc 1 203 0 discriminator 2
 1060 0100 7B6C     		ldr	r3, [r7, #68]
 1061 0102 181C     		mov	r0, r3
 1062 0104 6421     		mov	r1, #100
 1063 0106 FFF7FEFF 		bl	__aeabi_uidivmod
 1064 010a 0B1E     		sub	r3, r1, #0
 1065 010c 07D1     		bne	.L40
 1066              	.L39:
 1067              		.loc 1 203 0 discriminator 5
 1068 010e 7B6C     		ldr	r3, [r7, #68]
 1069 0110 181C     		mov	r0, r3
 1070 0112 C823     		mov	r3, #200
 1071 0114 5900     		lsl	r1, r3, #1
 1072 0116 FFF7FEFF 		bl	__aeabi_uidivmod
 1073 011a 0B1E     		sub	r3, r1, #0
 1074 011c 01D1     		bne	.L41
 1075              	.L40:
 1076              		.loc 1 203 0 discriminator 6
 1077 011e 0123     		mov	r3, #1
 1078 0120 00E0     		b	.L42
 1079              	.L41:
 1080              		.loc 1 203 0 discriminator 7
 1081 0122 0023     		mov	r3, #0
 1082              	.L42:
 1083              		.loc 1 203 0 discriminator 9
 1084 0124 002B     		cmp	r3, #0
 1085 0126 02D0     		beq	.L38
 204:.\lib_DS1307/DS1307.c ****     {
 205:.\lib_DS1307/DS1307.c ****         tmpVal++;
 1086              		.loc 1 205 0 is_stmt 1
 1087 0128 3B6D     		ldr	r3, [r7, #80]
 1088 012a 0133     		add	r3, r3, #1
 1089 012c 3B65     		str	r3, [r7, #80]
 1090              	.L38:
 206:.\lib_DS1307/DS1307.c ****     }
 207:.\lib_DS1307/DS1307.c **** 
 208:.\lib_DS1307/DS1307.c ****     /* Calculates how many seconds are in current month days prior to today. */
 209:.\lib_DS1307/DS1307.c ****     unixTime += tmpVal * DS1307_SECONDS_PER_DAY;
 1091              		.loc 1 209 0
 1092 012e 3B6D     		ldr	r3, [r7, #80]
 1093 0130 5C4A     		ldr	r2, .L49+16
 1094 0132 5343     		mul	r3, r2
 1095 0134 BB61     		str	r3, [r7, #24]
ARM GAS  C:\Users\Petro\AppData\Local\Temp\ccQL3rGK.s 			page 24


 1096 0136 0023     		mov	r3, #0
 1097 0138 FB61     		str	r3, [r7, #28]
 1098 013a BB6C     		ldr	r3, [r7, #72]
 1099 013c FC6C     		ldr	r4, [r7, #76]
 1100 013e B969     		ldr	r1, [r7, #24]
 1101 0140 FA69     		ldr	r2, [r7, #28]
 1102 0142 5B18     		add	r3, r3, r1
 1103 0144 5441     		adc	r4, r4, r2
 1104 0146 BB64     		str	r3, [r7, #72]
 1105 0148 FC64     		str	r4, [r7, #76]
 210:.\lib_DS1307/DS1307.c ****     /*GetDay*/
 211:.\lib_DS1307/DS1307.c ****     uint32_t getDay;
 212:.\lib_DS1307/DS1307.c ****     getDay  = ((inputDate & DS1307_10_DAY_MASK_UNIX) >> DS1307_10_DAY_OFFSET) * 10u;
 1106              		.loc 1 212 0
 1107 014a 7A6A     		ldr	r2, [r7, #36]
 1108 014c C023     		mov	r3, #192
 1109 014e 9B03     		lsl	r3, r3, #14
 1110 0150 1340     		and	r3, r2
 1111 0152 1A0D     		lsr	r2, r3, #20
 1112 0154 131C     		mov	r3, r2
 1113 0156 9B00     		lsl	r3, r3, #2
 1114 0158 9B18     		add	r3, r3, r2
 1115 015a 5B00     		lsl	r3, r3, #1
 1116 015c FB63     		str	r3, [r7, #60]
 213:.\lib_DS1307/DS1307.c ****     getDay += (inputDate & DS1307_DAY_MASK_UNIX) >> DS1307_DAY_OFFSET;
 1117              		.loc 1 213 0
 1118 015e 7A6A     		ldr	r2, [r7, #36]
 1119 0160 F023     		mov	r3, #240
 1120 0162 1B03     		lsl	r3, r3, #12
 1121 0164 1340     		and	r3, r2
 1122 0166 1B0C     		lsr	r3, r3, #16
 1123 0168 FA6B     		ldr	r2, [r7, #60]
 1124 016a D318     		add	r3, r2, r3
 1125 016c FB63     		str	r3, [r7, #60]
 214:.\lib_DS1307/DS1307.c ****     
 215:.\lib_DS1307/DS1307.c ****     unixTime += (getDay - 1u) * DS1307_SECONDS_PER_DAY;
 1126              		.loc 1 215 0
 1127 016e FB6B     		ldr	r3, [r7, #60]
 1128 0170 4C4A     		ldr	r2, .L49+16
 1129 0172 5343     		mul	r3, r2
 1130 0174 4C4A     		ldr	r2, .L49+20
 1131 0176 9446     		mov	ip, r2
 1132 0178 6344     		add	r3, r3, ip
 1133 017a 3B61     		str	r3, [r7, #16]
 1134 017c 0023     		mov	r3, #0
 1135 017e 7B61     		str	r3, [r7, #20]
 1136 0180 BB6C     		ldr	r3, [r7, #72]
 1137 0182 FC6C     		ldr	r4, [r7, #76]
 1138 0184 3969     		ldr	r1, [r7, #16]
 1139 0186 7A69     		ldr	r2, [r7, #20]
 1140 0188 5B18     		add	r3, r3, r1
 1141 018a 5441     		adc	r4, r4, r2
 1142 018c BB64     		str	r3, [r7, #72]
 1143 018e FC64     		str	r4, [r7, #76]
 216:.\lib_DS1307/DS1307.c **** 
 217:.\lib_DS1307/DS1307.c ****     /* Calculates how many seconds have elapsed today up to the current hour. */
 218:.\lib_DS1307/DS1307.c ****     /*GetHours*/
ARM GAS  C:\Users\Petro\AppData\Local\Temp\ccQL3rGK.s 			page 25


 219:.\lib_DS1307/DS1307.c ****     tmpVal  = ((inputTime & DS1307_10_HOURS_MASK_UNIX) >> DS1307_10_HOURS_OFFSET) * 10u;
 1144              		.loc 1 219 0
 1145 0190 3A6A     		ldr	r2, [r7, #32]
 1146 0192 C023     		mov	r3, #192
 1147 0194 9B03     		lsl	r3, r3, #14
 1148 0196 1340     		and	r3, r2
 1149 0198 1A0D     		lsr	r2, r3, #20
 1150 019a 131C     		mov	r3, r2
 1151 019c 9B00     		lsl	r3, r3, #2
 1152 019e 9B18     		add	r3, r3, r2
 1153 01a0 5B00     		lsl	r3, r3, #1
 1154 01a2 3B65     		str	r3, [r7, #80]
 220:.\lib_DS1307/DS1307.c ****     tmpVal += (inputTime & DS1307_HOURS_MASK_UNIX) >> DS1307_HOURS_OFFSET;
 1155              		.loc 1 220 0
 1156 01a4 3A6A     		ldr	r2, [r7, #32]
 1157 01a6 F023     		mov	r3, #240
 1158 01a8 1B03     		lsl	r3, r3, #12
 1159 01aa 1340     		and	r3, r2
 1160 01ac 1B0C     		lsr	r3, r3, #16
 1161 01ae 3A6D     		ldr	r2, [r7, #80]
 1162 01b0 D318     		add	r3, r2, r3
 1163 01b2 3B65     		str	r3, [r7, #80]
 221:.\lib_DS1307/DS1307.c ****     
 222:.\lib_DS1307/DS1307.c ****     /*Get time format*/
 223:.\lib_DS1307/DS1307.c ****     uint32_t timeFormat= ((0uL != (inputTime & (1uL << DS1307_TIME_FORMAT_OFFSET))) ? (uint32)!DS13
 1164              		.loc 1 223 0
 1165 01b4 3A6A     		ldr	r2, [r7, #32]
 1166 01b6 8023     		mov	r3, #128
 1167 01b8 1B04     		lsl	r3, r3, #16
 1168 01ba 1340     		and	r3, r2
 1169 01bc 01D0     		beq	.L43
 1170              		.loc 1 223 0 is_stmt 0 discriminator 1
 1171 01be 0123     		mov	r3, #1
 1172 01c0 00E0     		b	.L44
 1173              	.L43:
 1174              		.loc 1 223 0 discriminator 2
 1175 01c2 0023     		mov	r3, #0
 1176              	.L44:
 1177              		.loc 1 223 0 discriminator 4
 1178 01c4 BB63     		str	r3, [r7, #56]
 224:.\lib_DS1307/DS1307.c ****                                                                                   (uint32)!DS1307_2
 225:.\lib_DS1307/DS1307.c **** 
 226:.\lib_DS1307/DS1307.c ****     
 227:.\lib_DS1307/DS1307.c ****     uint32_t AmRm = ((DS1307_PERIOD_OF_DAY_MASK_UNIX == (inputTime & DS1307_PERIOD_OF_DAY_MASK_UNIX
 1179              		.loc 1 227 0 is_stmt 1 discriminator 4
 1180 01c6 3A6A     		ldr	r2, [r7, #32]
 1181 01c8 8023     		mov	r3, #128
 1182 01ca DB03     		lsl	r3, r3, #15
 1183 01cc 1340     		and	r3, r2
 1184 01ce 01D0     		beq	.L45
 1185              		.loc 1 227 0 is_stmt 0 discriminator 1
 1186 01d0 0123     		mov	r3, #1
 1187 01d2 00E0     		b	.L46
 1188              	.L45:
 1189              		.loc 1 227 0 discriminator 2
 1190 01d4 0023     		mov	r3, #0
 1191              	.L46:
ARM GAS  C:\Users\Petro\AppData\Local\Temp\ccQL3rGK.s 			page 26


 1192              		.loc 1 227 0 discriminator 4
 1193 01d6 7B63     		str	r3, [r7, #52]
 228:.\lib_DS1307/DS1307.c ****     if(((uint32)!DS1307_24TIME_FORMAT != timeFormat) &&
 1194              		.loc 1 228 0 is_stmt 1 discriminator 4
 1195 01d8 BB6B     		ldr	r3, [r7, #56]
 1196 01da 002B     		cmp	r3, #0
 1197 01dc 08D0     		beq	.L47
 1198              		.loc 1 228 0 is_stmt 0 discriminator 1
 1199 01de 7B6B     		ldr	r3, [r7, #52]
 1200 01e0 012B     		cmp	r3, #1
 1201 01e2 05D1     		bne	.L47
 229:.\lib_DS1307/DS1307.c ****        ((uint32)DS1307_AM == AmRm) && (tmpVal < 12u))
 1202              		.loc 1 229 0 is_stmt 1
 1203 01e4 3B6D     		ldr	r3, [r7, #80]
 1204 01e6 0B2B     		cmp	r3, #11
 1205 01e8 02D8     		bhi	.L47
 230:.\lib_DS1307/DS1307.c ****     {
 231:.\lib_DS1307/DS1307.c ****         tmpVal += DS1307_HOURS_PER_HALF_DAY;
 1206              		.loc 1 231 0
 1207 01ea 3B6D     		ldr	r3, [r7, #80]
 1208 01ec 0C33     		add	r3, r3, #12
 1209 01ee 3B65     		str	r3, [r7, #80]
 1210              	.L47:
 232:.\lib_DS1307/DS1307.c ****     }
 233:.\lib_DS1307/DS1307.c ****     unixTime += tmpVal * DS1307_SECONDS_PER_HOUR;
 1211              		.loc 1 233 0
 1212 01f0 3B6D     		ldr	r3, [r7, #80]
 1213 01f2 E122     		mov	r2, #225
 1214 01f4 1201     		lsl	r2, r2, #4
 1215 01f6 5343     		mul	r3, r2
 1216 01f8 BB60     		str	r3, [r7, #8]
 1217 01fa 0023     		mov	r3, #0
 1218 01fc FB60     		str	r3, [r7, #12]
 1219 01fe BB6C     		ldr	r3, [r7, #72]
 1220 0200 FC6C     		ldr	r4, [r7, #76]
 1221 0202 B968     		ldr	r1, [r7, #8]
 1222 0204 FA68     		ldr	r2, [r7, #12]
 1223 0206 5B18     		add	r3, r3, r1
 1224 0208 5441     		adc	r4, r4, r2
 1225 020a BB64     		str	r3, [r7, #72]
 1226 020c FC64     		str	r4, [r7, #76]
 234:.\lib_DS1307/DS1307.c **** 
 235:.\lib_DS1307/DS1307.c ****     /* Calculates how many seconds have elapsed today up to the current minute. */
 236:.\lib_DS1307/DS1307.c ****     /*get Minutes*/
 237:.\lib_DS1307/DS1307.c ****     uint32_t minutes;
 238:.\lib_DS1307/DS1307.c ****     minutes  = ((inputTime & DS1307_10_MINUTES_MASK_UNIX) >> DS1307_10_MINUTES_OFFSET) * 10u;
 1227              		.loc 1 238 0
 1228 020e 3A6A     		ldr	r2, [r7, #32]
 1229 0210 E023     		mov	r3, #224
 1230 0212 DB01     		lsl	r3, r3, #7
 1231 0214 1340     		and	r3, r2
 1232 0216 1A0B     		lsr	r2, r3, #12
 1233 0218 131C     		mov	r3, r2
 1234 021a 9B00     		lsl	r3, r3, #2
 1235 021c 9B18     		add	r3, r3, r2
 1236 021e 5B00     		lsl	r3, r3, #1
 1237 0220 3B63     		str	r3, [r7, #48]
ARM GAS  C:\Users\Petro\AppData\Local\Temp\ccQL3rGK.s 			page 27


 239:.\lib_DS1307/DS1307.c ****     minutes += (inputTime & DS1307_MINUTES_MASK_UNIX) >> DS1307_MINUTES_OFFSET;
 1238              		.loc 1 239 0
 1239 0222 3A6A     		ldr	r2, [r7, #32]
 1240 0224 F023     		mov	r3, #240
 1241 0226 1B01     		lsl	r3, r3, #4
 1242 0228 1340     		and	r3, r2
 1243 022a 1B0A     		lsr	r3, r3, #8
 1244 022c 3A6B     		ldr	r2, [r7, #48]
 1245 022e D318     		add	r3, r2, r3
 1246 0230 3B63     		str	r3, [r7, #48]
 240:.\lib_DS1307/DS1307.c ****     
 241:.\lib_DS1307/DS1307.c ****     unixTime += minutes * DS1307_SECONDS_PER_MINUTE;
 1247              		.loc 1 241 0
 1248 0232 3A6B     		ldr	r2, [r7, #48]
 1249 0234 131C     		mov	r3, r2
 1250 0236 1B01     		lsl	r3, r3, #4
 1251 0238 9B1A     		sub	r3, r3, r2
 1252 023a 9B00     		lsl	r3, r3, #2
 1253 023c 3B60     		str	r3, [r7]
 1254 023e 0023     		mov	r3, #0
 1255 0240 7B60     		str	r3, [r7, #4]
 1256 0242 BB6C     		ldr	r3, [r7, #72]
 1257 0244 FC6C     		ldr	r4, [r7, #76]
 1258 0246 3968     		ldr	r1, [r7]
 1259 0248 7A68     		ldr	r2, [r7, #4]
 1260 024a 5B18     		add	r3, r3, r1
 1261 024c 5441     		adc	r4, r4, r2
 1262 024e BB64     		str	r3, [r7, #72]
 1263 0250 FC64     		str	r4, [r7, #76]
 242:.\lib_DS1307/DS1307.c **** 
 243:.\lib_DS1307/DS1307.c ****     /* Add remaining seconds of current minute. */
 244:.\lib_DS1307/DS1307.c ****     uint32_t seconds;
 245:.\lib_DS1307/DS1307.c ****     seconds  = ((inputTime & DS1307_10_SECONDS_MASK_UNIX) >> DS1307_10_SECONDS_OFFSET) * 10u;
 1264              		.loc 1 245 0
 1265 0252 3B6A     		ldr	r3, [r7, #32]
 1266 0254 7022     		mov	r2, #112
 1267 0256 1340     		and	r3, r2
 1268 0258 1A09     		lsr	r2, r3, #4
 1269 025a 131C     		mov	r3, r2
 1270 025c 9B00     		lsl	r3, r3, #2
 1271 025e 9B18     		add	r3, r3, r2
 1272 0260 5B00     		lsl	r3, r3, #1
 1273 0262 FB62     		str	r3, [r7, #44]
 246:.\lib_DS1307/DS1307.c ****     seconds += (inputTime & DS1307_SECONDS_MASK_UNIX) >> DS1307_SECONDS_OFFSET;
 1274              		.loc 1 246 0
 1275 0264 3B6A     		ldr	r3, [r7, #32]
 1276 0266 0F22     		mov	r2, #15
 1277 0268 1340     		and	r3, r2
 1278 026a FA6A     		ldr	r2, [r7, #44]
 1279 026c D318     		add	r3, r2, r3
 1280 026e FB62     		str	r3, [r7, #44]
 247:.\lib_DS1307/DS1307.c ****     unixTime += seconds;
 1281              		.loc 1 247 0
 1282 0270 FB6A     		ldr	r3, [r7, #44]
 1283 0272 1D1C     		mov	r5, r3
 1284 0274 0023     		mov	r3, #0
 1285 0276 1E1C     		mov	r6, r3
ARM GAS  C:\Users\Petro\AppData\Local\Temp\ccQL3rGK.s 			page 28


 1286 0278 BB6C     		ldr	r3, [r7, #72]
 1287 027a FC6C     		ldr	r4, [r7, #76]
 1288 027c 5B19     		add	r3, r3, r5
 1289 027e 7441     		adc	r4, r4, r6
 1290 0280 BB64     		str	r3, [r7, #72]
 1291 0282 FC64     		str	r4, [r7, #76]
 248:.\lib_DS1307/DS1307.c **** 
 249:.\lib_DS1307/DS1307.c ****     return(unixTime);
 1292              		.loc 1 249 0
 1293 0284 BB6C     		ldr	r3, [r7, #72]
 1294 0286 FC6C     		ldr	r4, [r7, #76]
 250:.\lib_DS1307/DS1307.c **** }
 1295              		.loc 1 250 0
 1296 0288 181C     		mov	r0, r3
 1297 028a 211C     		mov	r1, r4
 1298 028c BD46     		mov	sp, r7
 1299 028e 17B0     		add	sp, sp, #92
 1300              		@ sp needed
 1301 0290 F0BD     		pop	{r4, r5, r6, r7, pc}
 1302              	.L50:
 1303 0292 C046     		.align	2
 1304              	.L49:
 1305 0294 B2070000 		.word	1970
 1306 0298 0085E201 		.word	31622400
 1307 029c 8033E101 		.word	31536000
 1308 02a0 00000000 		.word	DS1307_daysBeforeMonthTbl1
 1309 02a4 80510100 		.word	86400
 1310 02a8 80AEFEFF 		.word	-86400
 1311              		.cfi_endproc
 1312              	.LFE6:
 1313              		.size	DS1307_DateTimeToUnix, .-DS1307_DateTimeToUnix
 1314              		.section	.text.DS1307_GetUnixTime,"ax",%progbits
 1315              		.align	2
 1316              		.global	DS1307_GetUnixTime
 1317              		.code	16
 1318              		.thumb_func
 1319              		.type	DS1307_GetUnixTime, %function
 1320              	DS1307_GetUnixTime:
 1321              	.LFB7:
 251:.\lib_DS1307/DS1307.c **** 
 252:.\lib_DS1307/DS1307.c **** uint64_t DS1307_GetUnixTime(void)
 253:.\lib_DS1307/DS1307.c **** {
 1322              		.loc 1 253 0
 1323              		.cfi_startproc
 1324 0000 90B5     		push	{r4, r7, lr}
 1325              		.cfi_def_cfa_offset 12
 1326              		.cfi_offset 4, -12
 1327              		.cfi_offset 7, -8
 1328              		.cfi_offset 14, -4
 1329 0002 89B0     		sub	sp, sp, #36
 1330              		.cfi_def_cfa_offset 48
 1331 0004 02AF     		add	r7, sp, #8
 1332              		.cfi_def_cfa 7, 40
 254:.\lib_DS1307/DS1307.c ****     uint64_t unixTime;
 255:.\lib_DS1307/DS1307.c ****     uint32_t date;
 256:.\lib_DS1307/DS1307.c ****     uint32_t time;
 257:.\lib_DS1307/DS1307.c ****     uint32_t status;
ARM GAS  C:\Users\Petro\AppData\Local\Temp\ccQL3rGK.s 			page 29


 258:.\lib_DS1307/DS1307.c ****     
 259:.\lib_DS1307/DS1307.c ****     status = DS1307_ReadTimeToStruct();
 1333              		.loc 1 259 0
 1334 0006 FFF7FEFF 		bl	DS1307_ReadTimeToStruct
 1335 000a 031C     		mov	r3, r0
 1336 000c FB60     		str	r3, [r7, #12]
 260:.\lib_DS1307/DS1307.c ****     
 261:.\lib_DS1307/DS1307.c ****     if(status == I2C_I2C_MSTR_NO_ERROR)
 1337              		.loc 1 261 0
 1338 000e FB68     		ldr	r3, [r7, #12]
 1339 0010 002B     		cmp	r3, #0
 1340 0012 2DD1     		bne	.L52
 262:.\lib_DS1307/DS1307.c ****     {
 263:.\lib_DS1307/DS1307.c ****         date = DS1307_ConstructDate(DS1307_currentTimeDate.month,\
 1341              		.loc 1 263 0
 1342 0014 1C4B     		ldr	r3, .L55
 1343 0016 DB79     		ldrb	r3, [r3, #7]
 1344 0018 191C     		mov	r1, r3
 264:.\lib_DS1307/DS1307.c ****                                     DS1307_currentTimeDate.date, \
 1345              		.loc 1 264 0
 1346 001a 1B4B     		ldr	r3, .L55
 1347 001c 9B79     		ldrb	r3, [r3, #6]
 263:.\lib_DS1307/DS1307.c ****                                     DS1307_currentTimeDate.date, \
 1348              		.loc 1 263 0
 1349 001e 1A1C     		mov	r2, r3
 265:.\lib_DS1307/DS1307.c ****                                     DS1307_currentTimeDate.year);
 1350              		.loc 1 265 0
 1351 0020 194B     		ldr	r3, .L55
 1352 0022 1B89     		ldrh	r3, [r3, #8]
 263:.\lib_DS1307/DS1307.c ****                                     DS1307_currentTimeDate.date, \
 1353              		.loc 1 263 0
 1354 0024 081C     		mov	r0, r1
 1355 0026 111C     		mov	r1, r2
 1356 0028 1A1C     		mov	r2, r3
 1357 002a FFF7FEFF 		bl	DS1307_ConstructDate
 1358 002e 031C     		mov	r3, r0
 1359 0030 BB60     		str	r3, [r7, #8]
 266:.\lib_DS1307/DS1307.c ****         time = DS1307_ConstructTime(DS1307_currentTimeDate.timeFormat,   \
 1360              		.loc 1 266 0
 1361 0032 154B     		ldr	r3, .L55
 1362 0034 DB78     		ldrb	r3, [r3, #3]
 1363 0036 181C     		mov	r0, r3
 267:.\lib_DS1307/DS1307.c ****                                     DS1307_currentTimeDate.AmRm,   \
 1364              		.loc 1 267 0
 1365 0038 134B     		ldr	r3, .L55
 1366 003a 1B79     		ldrb	r3, [r3, #4]
 266:.\lib_DS1307/DS1307.c ****         time = DS1307_ConstructTime(DS1307_currentTimeDate.timeFormat,   \
 1367              		.loc 1 266 0
 1368 003c 191C     		mov	r1, r3
 268:.\lib_DS1307/DS1307.c ****                                     DS1307_currentTimeDate.hours,   \
 1369              		.loc 1 268 0
 1370 003e 124B     		ldr	r3, .L55
 1371 0040 9B78     		ldrb	r3, [r3, #2]
 266:.\lib_DS1307/DS1307.c ****         time = DS1307_ConstructTime(DS1307_currentTimeDate.timeFormat,   \
 1372              		.loc 1 266 0
 1373 0042 1A1C     		mov	r2, r3
 269:.\lib_DS1307/DS1307.c ****                                     DS1307_currentTimeDate.minutes,   \
ARM GAS  C:\Users\Petro\AppData\Local\Temp\ccQL3rGK.s 			page 30


 1374              		.loc 1 269 0
 1375 0044 104B     		ldr	r3, .L55
 1376 0046 5B78     		ldrb	r3, [r3, #1]
 266:.\lib_DS1307/DS1307.c ****                                     DS1307_currentTimeDate.AmRm,   \
 1377              		.loc 1 266 0
 1378 0048 1C1C     		mov	r4, r3
 270:.\lib_DS1307/DS1307.c ****                                     DS1307_currentTimeDate.second);
 1379              		.loc 1 270 0
 1380 004a 0F4B     		ldr	r3, .L55
 1381 004c 1B78     		ldrb	r3, [r3]
 266:.\lib_DS1307/DS1307.c ****                                     DS1307_currentTimeDate.AmRm,   \
 1382              		.loc 1 266 0
 1383 004e 0093     		str	r3, [sp]
 1384 0050 231C     		mov	r3, r4
 1385 0052 FFF7FEFF 		bl	DS1307_ConstructTime
 1386 0056 031C     		mov	r3, r0
 1387 0058 7B60     		str	r3, [r7, #4]
 271:.\lib_DS1307/DS1307.c ****         unixTime = DS1307_DateTimeToUnix(date, time);
 1388              		.loc 1 271 0
 1389 005a BA68     		ldr	r2, [r7, #8]
 1390 005c 7B68     		ldr	r3, [r7, #4]
 1391 005e 101C     		mov	r0, r2
 1392 0060 191C     		mov	r1, r3
 1393 0062 FFF7FEFF 		bl	DS1307_DateTimeToUnix
 1394 0066 031C     		mov	r3, r0
 1395 0068 0C1C     		mov	r4, r1
 1396 006a 3B61     		str	r3, [r7, #16]
 1397 006c 7C61     		str	r4, [r7, #20]
 1398 006e 03E0     		b	.L53
 1399              	.L52:
 272:.\lib_DS1307/DS1307.c ****     }else 
 273:.\lib_DS1307/DS1307.c ****     {
 274:.\lib_DS1307/DS1307.c ****         unixTime = 0;
 1400              		.loc 1 274 0
 1401 0070 0023     		mov	r3, #0
 1402 0072 0024     		mov	r4, #0
 1403 0074 3B61     		str	r3, [r7, #16]
 1404 0076 7C61     		str	r4, [r7, #20]
 1405              	.L53:
 275:.\lib_DS1307/DS1307.c ****     }
 276:.\lib_DS1307/DS1307.c ****     return unixTime;
 1406              		.loc 1 276 0
 1407 0078 3B69     		ldr	r3, [r7, #16]
 1408 007a 7C69     		ldr	r4, [r7, #20]
 277:.\lib_DS1307/DS1307.c **** }
 1409              		.loc 1 277 0
 1410 007c 181C     		mov	r0, r3
 1411 007e 211C     		mov	r1, r4
 1412 0080 BD46     		mov	sp, r7
 1413 0082 07B0     		add	sp, sp, #28
 1414              		@ sp needed
 1415 0084 90BD     		pop	{r4, r7, pc}
 1416              	.L56:
 1417 0086 C046     		.align	2
 1418              	.L55:
 1419 0088 00000000 		.word	DS1307_currentTimeDate
 1420              		.cfi_endproc
ARM GAS  C:\Users\Petro\AppData\Local\Temp\ccQL3rGK.s 			page 31


 1421              	.LFE7:
 1422              		.size	DS1307_GetUnixTime, .-DS1307_GetUnixTime
 1423              		.global	__aeabi_uldivmod
 1424              		.section	.text.DS1307_SetUnixTime,"ax",%progbits
 1425              		.align	2
 1426              		.global	DS1307_SetUnixTime
 1427              		.code	16
 1428              		.thumb_func
 1429              		.type	DS1307_SetUnixTime, %function
 1430              	DS1307_SetUnixTime:
 1431              	.LFB8:
 278:.\lib_DS1307/DS1307.c **** 
 279:.\lib_DS1307/DS1307.c **** void DS1307_SetUnixTime( uint64 unixTime)
 280:.\lib_DS1307/DS1307.c **** {
 1432              		.loc 1 280 0
 1433              		.cfi_startproc
 1434 0000 F0B5     		push	{r4, r5, r6, r7, lr}
 1435              		.cfi_def_cfa_offset 20
 1436              		.cfi_offset 4, -20
 1437              		.cfi_offset 5, -16
 1438              		.cfi_offset 6, -12
 1439              		.cfi_offset 7, -8
 1440              		.cfi_offset 14, -4
 1441 0002 A7B0     		sub	sp, sp, #156
 1442              		.cfi_def_cfa_offset 176
 1443 0004 00AF     		add	r7, sp, #0
 1444              		.cfi_def_cfa_register 7
 1445 0006 B864     		str	r0, [r7, #72]
 1446 0008 F964     		str	r1, [r7, #76]
 281:.\lib_DS1307/DS1307.c ****     uint32 tmpMinute;
 282:.\lib_DS1307/DS1307.c ****     uint32 tmpHour;
 283:.\lib_DS1307/DS1307.c ****     uint32 tmpAmPmState;
 284:.\lib_DS1307/DS1307.c ****     uint32 timeFormat;
 285:.\lib_DS1307/DS1307.c **** 
 286:.\lib_DS1307/DS1307.c ****     uint32 tmpDay;
 287:.\lib_DS1307/DS1307.c ****     uint32 tmpMonth;
 288:.\lib_DS1307/DS1307.c ****     uint32 tmpYear;
 289:.\lib_DS1307/DS1307.c **** 
 290:.\lib_DS1307/DS1307.c ****     uint32 tmpVar;
 291:.\lib_DS1307/DS1307.c ****     
 292:.\lib_DS1307/DS1307.c ****     timeFormat = DS1307_24TIME_FORMAT;
 1447              		.loc 1 292 0
 1448 000a 0123     		mov	r3, #1
 1449 000c 7B66     		str	r3, [r7, #100]
 293:.\lib_DS1307/DS1307.c ****     tmpAmPmState = 0u;
 1450              		.loc 1 293 0
 1451 000e 0023     		mov	r3, #0
 1452 0010 9022     		mov	r2, #144
 1453 0012 BA18     		add	r2, r7, r2
 1454 0014 1360     		str	r3, [r2]
 294:.\lib_DS1307/DS1307.c ****     tmpYear = DS1307_YEAR_0;
 1455              		.loc 1 294 0
 1456 0016 CB4B     		ldr	r3, .L108
 1457 0018 8822     		mov	r2, #136
 1458 001a BA18     		add	r2, r7, r2
 1459 001c 1360     		str	r3, [r2]
 295:.\lib_DS1307/DS1307.c ****     tmpVar = DS1307_SECONDS_PER_NONLEAP_YEAR;
ARM GAS  C:\Users\Petro\AppData\Local\Temp\ccQL3rGK.s 			page 32


 1460              		.loc 1 295 0
 1461 001e CA4B     		ldr	r3, .L108+4
 1462 0020 8422     		mov	r2, #132
 1463 0022 BA18     		add	r2, r7, r2
 1464 0024 1360     		str	r3, [r2]
 296:.\lib_DS1307/DS1307.c **** 
 297:.\lib_DS1307/DS1307.c ****     /* Calculates current year value. Variable tmpYear
 298:.\lib_DS1307/DS1307.c ****     *  increments while it contains value greater than number
 299:.\lib_DS1307/DS1307.c ****     *  of seconds in current year.
 300:.\lib_DS1307/DS1307.c ****     */
 301:.\lib_DS1307/DS1307.c ****     while(unixTime > tmpVar)
 1465              		.loc 1 301 0
 1466 0026 44E0     		b	.L58
 1467              	.L64:
 1468              	.LBB2:
 302:.\lib_DS1307/DS1307.c ****     {
 303:.\lib_DS1307/DS1307.c ****         unixTime -= tmpVar;
 1469              		.loc 1 303 0
 1470 0028 8423     		mov	r3, #132
 1471 002a FB18     		add	r3, r7, r3
 1472 002c 1B68     		ldr	r3, [r3]
 1473 002e BB60     		str	r3, [r7, #8]
 1474 0030 0023     		mov	r3, #0
 1475 0032 FB60     		str	r3, [r7, #12]
 1476 0034 BB6C     		ldr	r3, [r7, #72]
 1477 0036 FC6C     		ldr	r4, [r7, #76]
 1478 0038 B968     		ldr	r1, [r7, #8]
 1479 003a FA68     		ldr	r2, [r7, #12]
 1480 003c 5B1A     		sub	r3, r3, r1
 1481 003e 9441     		sbc	r4, r4, r2
 1482 0040 BB64     		str	r3, [r7, #72]
 1483 0042 FC64     		str	r4, [r7, #76]
 304:.\lib_DS1307/DS1307.c ****         tmpYear++;
 1484              		.loc 1 304 0
 1485 0044 8823     		mov	r3, #136
 1486 0046 FB18     		add	r3, r7, r3
 1487 0048 1B68     		ldr	r3, [r3]
 1488 004a 0133     		add	r3, r3, #1
 1489 004c 8822     		mov	r2, #136
 1490 004e BA18     		add	r2, r7, r2
 1491 0050 1360     		str	r3, [r2]
 305:.\lib_DS1307/DS1307.c ****         
 306:.\lib_DS1307/DS1307.c ****         /*Leap year*/
 307:.\lib_DS1307/DS1307.c ****         uint32_t leapYear;
 308:.\lib_DS1307/DS1307.c ****         if(((0u == (tmpYear % 4Lu)) && (0u != (tmpYear % 100Lu))) || (0u == (tmpYear % 400Lu)))
 1492              		.loc 1 308 0
 1493 0052 8823     		mov	r3, #136
 1494 0054 FB18     		add	r3, r7, r3
 1495 0056 1A68     		ldr	r2, [r3]
 1496 0058 0323     		mov	r3, #3
 1497 005a 1340     		and	r3, r2
 1498 005c 08D1     		bne	.L59
 1499              		.loc 1 308 0 is_stmt 0 discriminator 1
 1500 005e 8823     		mov	r3, #136
 1501 0060 FB18     		add	r3, r7, r3
 1502 0062 1B68     		ldr	r3, [r3]
 1503 0064 181C     		mov	r0, r3
ARM GAS  C:\Users\Petro\AppData\Local\Temp\ccQL3rGK.s 			page 33


 1504 0066 6421     		mov	r1, #100
 1505 0068 FFF7FEFF 		bl	__aeabi_uidivmod
 1506 006c 0B1E     		sub	r3, r1, #0
 1507 006e 09D1     		bne	.L60
 1508              	.L59:
 1509              		.loc 1 308 0 discriminator 3
 1510 0070 8823     		mov	r3, #136
 1511 0072 FB18     		add	r3, r7, r3
 1512 0074 1B68     		ldr	r3, [r3]
 1513 0076 181C     		mov	r0, r3
 1514 0078 C823     		mov	r3, #200
 1515 007a 5900     		lsl	r1, r3, #1
 1516 007c FFF7FEFF 		bl	__aeabi_uidivmod
 1517 0080 0B1E     		sub	r3, r1, #0
 1518 0082 04D1     		bne	.L61
 1519              	.L60:
 309:.\lib_DS1307/DS1307.c ****         {
 310:.\lib_DS1307/DS1307.c ****             leapYear = 1uL;
 1520              		.loc 1 310 0 is_stmt 1
 1521 0084 0123     		mov	r3, #1
 1522 0086 8022     		mov	r2, #128
 1523 0088 BA18     		add	r2, r7, r2
 1524 008a 1360     		str	r3, [r2]
 1525 008c 03E0     		b	.L62
 1526              	.L61:
 311:.\lib_DS1307/DS1307.c ****         }
 312:.\lib_DS1307/DS1307.c ****         else
 313:.\lib_DS1307/DS1307.c ****         {
 314:.\lib_DS1307/DS1307.c ****             leapYear = 0uL;
 1527              		.loc 1 314 0
 1528 008e 0023     		mov	r3, #0
 1529 0090 8022     		mov	r2, #128
 1530 0092 BA18     		add	r2, r7, r2
 1531 0094 1360     		str	r3, [r2]
 1532              	.L62:
 315:.\lib_DS1307/DS1307.c ****         }
 316:.\lib_DS1307/DS1307.c ****         
 317:.\lib_DS1307/DS1307.c ****         if(0u != leapYear)
 1533              		.loc 1 317 0
 1534 0096 8023     		mov	r3, #128
 1535 0098 FB18     		add	r3, r7, r3
 1536 009a 1B68     		ldr	r3, [r3]
 1537 009c 002B     		cmp	r3, #0
 1538 009e 04D0     		beq	.L63
 318:.\lib_DS1307/DS1307.c ****         {
 319:.\lib_DS1307/DS1307.c ****             tmpVar = DS1307_SECONDS_PER_LEAP_YEAR;
 1539              		.loc 1 319 0
 1540 00a0 AA4B     		ldr	r3, .L108+8
 1541 00a2 8422     		mov	r2, #132
 1542 00a4 BA18     		add	r2, r7, r2
 1543 00a6 1360     		str	r3, [r2]
 1544 00a8 03E0     		b	.L58
 1545              	.L63:
 320:.\lib_DS1307/DS1307.c ****         }
 321:.\lib_DS1307/DS1307.c ****         else
 322:.\lib_DS1307/DS1307.c ****         {
 323:.\lib_DS1307/DS1307.c ****             tmpVar = DS1307_SECONDS_PER_NONLEAP_YEAR;
ARM GAS  C:\Users\Petro\AppData\Local\Temp\ccQL3rGK.s 			page 34


 1546              		.loc 1 323 0
 1547 00aa A74B     		ldr	r3, .L108+4
 1548 00ac 8422     		mov	r2, #132
 1549 00ae BA18     		add	r2, r7, r2
 1550 00b0 1360     		str	r3, [r2]
 1551              	.L58:
 1552              	.LBE2:
 301:.\lib_DS1307/DS1307.c ****     {
 1553              		.loc 1 301 0
 1554 00b2 8423     		mov	r3, #132
 1555 00b4 FB18     		add	r3, r7, r3
 1556 00b6 1B68     		ldr	r3, [r3]
 1557 00b8 1D1C     		mov	r5, r3
 1558 00ba 0023     		mov	r3, #0
 1559 00bc 1E1C     		mov	r6, r3
 1560 00be FB6C     		ldr	r3, [r7, #76]
 1561 00c0 B342     		cmp	r3, r6
 1562 00c2 B1D8     		bhi	.L64
 1563 00c4 FB6C     		ldr	r3, [r7, #76]
 1564 00c6 B342     		cmp	r3, r6
 1565 00c8 02D1     		bne	.L102
 1566 00ca BB6C     		ldr	r3, [r7, #72]
 1567 00cc AB42     		cmp	r3, r5
 1568 00ce ABD8     		bhi	.L64
 1569              	.L102:
 324:.\lib_DS1307/DS1307.c ****         }
 325:.\lib_DS1307/DS1307.c **** 
 326:.\lib_DS1307/DS1307.c ****     }
 327:.\lib_DS1307/DS1307.c **** 
 328:.\lib_DS1307/DS1307.c ****     /* Calculates current month value. tmpMonth variable increments
 329:.\lib_DS1307/DS1307.c ****      * while unixTime variable value is greater than time
 330:.\lib_DS1307/DS1307.c ****      * interval from beginning of current year to beginning of
 331:.\lib_DS1307/DS1307.c ****      * current month
 332:.\lib_DS1307/DS1307.c ****     */
 333:.\lib_DS1307/DS1307.c ****     tmpMonth = 1;
 1570              		.loc 1 333 0
 1571 00d0 0123     		mov	r3, #1
 1572 00d2 8C22     		mov	r2, #140
 1573 00d4 BA18     		add	r2, r7, r2
 1574 00d6 1360     		str	r3, [r2]
 334:.\lib_DS1307/DS1307.c ****     
 335:.\lib_DS1307/DS1307.c ****     uint32_t daysInMonth;
 336:.\lib_DS1307/DS1307.c ****     daysInMonth = DS1307_daysInMonthTbl[tmpMonth - 1u];
 1575              		.loc 1 336 0
 1576 00d8 8C23     		mov	r3, #140
 1577 00da FB18     		add	r3, r7, r3
 1578 00dc 1B68     		ldr	r3, [r3]
 1579 00de 5A1E     		sub	r2, r3, #1
 1580 00e0 9B4B     		ldr	r3, .L108+12
 1581 00e2 9B5C     		ldrb	r3, [r3, r2]
 1582 00e4 FB67     		str	r3, [r7, #124]
 337:.\lib_DS1307/DS1307.c ****     if((uint32)DS1307_FEBRUARY == tmpMonth)
 1583              		.loc 1 337 0
 1584 00e6 8C23     		mov	r3, #140
 1585 00e8 FB18     		add	r3, r7, r3
 1586 00ea 1B68     		ldr	r3, [r3]
 1587 00ec 022B     		cmp	r3, #2
ARM GAS  C:\Users\Petro\AppData\Local\Temp\ccQL3rGK.s 			page 35


 1588 00ee 23D1     		bne	.L66
 1589              	.LBB3:
 338:.\lib_DS1307/DS1307.c ****     {
 339:.\lib_DS1307/DS1307.c ****         /*Leap year*/
 340:.\lib_DS1307/DS1307.c ****         uint32_t leapYear;
 341:.\lib_DS1307/DS1307.c ****         if(((0u == (tmpYear % 4Lu)) && (0u != (tmpYear % 100Lu))) || (0u == (tmpYear % 400Lu)))
 1590              		.loc 1 341 0
 1591 00f0 8823     		mov	r3, #136
 1592 00f2 FB18     		add	r3, r7, r3
 1593 00f4 1A68     		ldr	r2, [r3]
 1594 00f6 0323     		mov	r3, #3
 1595 00f8 1340     		and	r3, r2
 1596 00fa 08D1     		bne	.L67
 1597              		.loc 1 341 0 is_stmt 0 discriminator 1
 1598 00fc 8823     		mov	r3, #136
 1599 00fe FB18     		add	r3, r7, r3
 1600 0100 1B68     		ldr	r3, [r3]
 1601 0102 181C     		mov	r0, r3
 1602 0104 6421     		mov	r1, #100
 1603 0106 FFF7FEFF 		bl	__aeabi_uidivmod
 1604 010a 0B1E     		sub	r3, r1, #0
 1605 010c 09D1     		bne	.L68
 1606              	.L67:
 1607              		.loc 1 341 0 discriminator 3
 1608 010e 8823     		mov	r3, #136
 1609 0110 FB18     		add	r3, r7, r3
 1610 0112 1B68     		ldr	r3, [r3]
 1611 0114 181C     		mov	r0, r3
 1612 0116 C823     		mov	r3, #200
 1613 0118 5900     		lsl	r1, r3, #1
 1614 011a FFF7FEFF 		bl	__aeabi_uidivmod
 1615 011e 0B1E     		sub	r3, r1, #0
 1616 0120 02D1     		bne	.L69
 1617              	.L68:
 342:.\lib_DS1307/DS1307.c ****         {
 343:.\lib_DS1307/DS1307.c ****             leapYear = 1uL;
 1618              		.loc 1 343 0 is_stmt 1
 1619 0122 0123     		mov	r3, #1
 1620 0124 BB67     		str	r3, [r7, #120]
 1621 0126 01E0     		b	.L70
 1622              	.L69:
 344:.\lib_DS1307/DS1307.c ****         }
 345:.\lib_DS1307/DS1307.c ****         else
 346:.\lib_DS1307/DS1307.c ****         {
 347:.\lib_DS1307/DS1307.c ****             leapYear = 0uL;
 1623              		.loc 1 347 0
 1624 0128 0023     		mov	r3, #0
 1625 012a BB67     		str	r3, [r7, #120]
 1626              	.L70:
 348:.\lib_DS1307/DS1307.c ****         }
 349:.\lib_DS1307/DS1307.c ****         
 350:.\lib_DS1307/DS1307.c ****         if(0u != leapYear)
 1627              		.loc 1 350 0
 1628 012c BB6F     		ldr	r3, [r7, #120]
 1629 012e 002B     		cmp	r3, #0
 1630 0130 02D0     		beq	.L66
 351:.\lib_DS1307/DS1307.c ****         {
ARM GAS  C:\Users\Petro\AppData\Local\Temp\ccQL3rGK.s 			page 36


 352:.\lib_DS1307/DS1307.c ****             daysInMonth++;
 1631              		.loc 1 352 0
 1632 0132 FB6F     		ldr	r3, [r7, #124]
 1633 0134 0133     		add	r3, r3, #1
 1634 0136 FB67     		str	r3, [r7, #124]
 1635              	.L66:
 1636              	.LBE3:
 353:.\lib_DS1307/DS1307.c ****         }
 354:.\lib_DS1307/DS1307.c ****     }
 355:.\lib_DS1307/DS1307.c ****     
 356:.\lib_DS1307/DS1307.c ****     /*days in month*/
 357:.\lib_DS1307/DS1307.c ****     daysInMonth = DS1307_daysInMonthTbl[tmpMonth - 1u];
 1637              		.loc 1 357 0
 1638 0138 8C23     		mov	r3, #140
 1639 013a FB18     		add	r3, r7, r3
 1640 013c 1B68     		ldr	r3, [r3]
 1641 013e 5A1E     		sub	r2, r3, #1
 1642 0140 834B     		ldr	r3, .L108+12
 1643 0142 9B5C     		ldrb	r3, [r3, r2]
 1644 0144 FB67     		str	r3, [r7, #124]
 358:.\lib_DS1307/DS1307.c ****     if((uint32)DS1307_FEBRUARY == tmpMonth)
 1645              		.loc 1 358 0
 1646 0146 8C23     		mov	r3, #140
 1647 0148 FB18     		add	r3, r7, r3
 1648 014a 1B68     		ldr	r3, [r3]
 1649 014c 022B     		cmp	r3, #2
 1650 014e 23D1     		bne	.L71
 1651              	.LBB4:
 359:.\lib_DS1307/DS1307.c ****     {
 360:.\lib_DS1307/DS1307.c ****         uint32_t leapYear;
 361:.\lib_DS1307/DS1307.c ****         if(((0u == (tmpYear % 4Lu)) && (0u != (tmpYear % 100Lu))) || (0u == (tmpYear % 400Lu)))
 1652              		.loc 1 361 0
 1653 0150 8823     		mov	r3, #136
 1654 0152 FB18     		add	r3, r7, r3
 1655 0154 1A68     		ldr	r2, [r3]
 1656 0156 0323     		mov	r3, #3
 1657 0158 1340     		and	r3, r2
 1658 015a 08D1     		bne	.L72
 1659              		.loc 1 361 0 is_stmt 0 discriminator 1
 1660 015c 8823     		mov	r3, #136
 1661 015e FB18     		add	r3, r7, r3
 1662 0160 1B68     		ldr	r3, [r3]
 1663 0162 181C     		mov	r0, r3
 1664 0164 6421     		mov	r1, #100
 1665 0166 FFF7FEFF 		bl	__aeabi_uidivmod
 1666 016a 0B1E     		sub	r3, r1, #0
 1667 016c 09D1     		bne	.L73
 1668              	.L72:
 1669              		.loc 1 361 0 discriminator 3
 1670 016e 8823     		mov	r3, #136
 1671 0170 FB18     		add	r3, r7, r3
 1672 0172 1B68     		ldr	r3, [r3]
 1673 0174 181C     		mov	r0, r3
 1674 0176 C823     		mov	r3, #200
 1675 0178 5900     		lsl	r1, r3, #1
 1676 017a FFF7FEFF 		bl	__aeabi_uidivmod
 1677 017e 0B1E     		sub	r3, r1, #0
ARM GAS  C:\Users\Petro\AppData\Local\Temp\ccQL3rGK.s 			page 37


 1678 0180 02D1     		bne	.L74
 1679              	.L73:
 362:.\lib_DS1307/DS1307.c ****         {
 363:.\lib_DS1307/DS1307.c ****             leapYear = 1uL;
 1680              		.loc 1 363 0 is_stmt 1
 1681 0182 0123     		mov	r3, #1
 1682 0184 7B67     		str	r3, [r7, #116]
 1683 0186 01E0     		b	.L75
 1684              	.L74:
 364:.\lib_DS1307/DS1307.c ****         }
 365:.\lib_DS1307/DS1307.c ****         else
 366:.\lib_DS1307/DS1307.c ****         {
 367:.\lib_DS1307/DS1307.c ****             leapYear = 0uL;
 1685              		.loc 1 367 0
 1686 0188 0023     		mov	r3, #0
 1687 018a 7B67     		str	r3, [r7, #116]
 1688              	.L75:
 368:.\lib_DS1307/DS1307.c ****         }
 369:.\lib_DS1307/DS1307.c ****         if(0u != leapYear)
 1689              		.loc 1 369 0
 1690 018c 7B6F     		ldr	r3, [r7, #116]
 1691 018e 002B     		cmp	r3, #0
 1692 0190 02D0     		beq	.L71
 370:.\lib_DS1307/DS1307.c ****         {
 371:.\lib_DS1307/DS1307.c ****             daysInMonth++;
 1693              		.loc 1 371 0
 1694 0192 FB6F     		ldr	r3, [r7, #124]
 1695 0194 0133     		add	r3, r3, #1
 1696 0196 FB67     		str	r3, [r7, #124]
 1697              	.L71:
 1698              	.LBE4:
 372:.\lib_DS1307/DS1307.c ****         }
 373:.\lib_DS1307/DS1307.c ****     }
 374:.\lib_DS1307/DS1307.c ****     tmpVar = daysInMonth * DS1307_SECONDS_PER_DAY;
 1699              		.loc 1 374 0
 1700 0198 FA6F     		ldr	r2, [r7, #124]
 1701 019a 6E4B     		ldr	r3, .L108+16
 1702 019c 5343     		mul	r3, r2
 1703 019e 8422     		mov	r2, #132
 1704 01a0 BA18     		add	r2, r7, r2
 1705 01a2 1360     		str	r3, [r2]
 375:.\lib_DS1307/DS1307.c **** 
 376:.\lib_DS1307/DS1307.c ****     while(unixTime >= tmpVar)
 1706              		.loc 1 376 0
 1707 01a4 4AE0     		b	.L76
 1708              	.L82:
 377:.\lib_DS1307/DS1307.c ****     {
 378:.\lib_DS1307/DS1307.c ****         unixTime -= tmpVar;
 1709              		.loc 1 378 0
 1710 01a6 8423     		mov	r3, #132
 1711 01a8 FB18     		add	r3, r7, r3
 1712 01aa 1B68     		ldr	r3, [r3]
 1713 01ac 3B60     		str	r3, [r7]
 1714 01ae 0023     		mov	r3, #0
 1715 01b0 7B60     		str	r3, [r7, #4]
 1716 01b2 BB6C     		ldr	r3, [r7, #72]
 1717 01b4 FC6C     		ldr	r4, [r7, #76]
ARM GAS  C:\Users\Petro\AppData\Local\Temp\ccQL3rGK.s 			page 38


 1718 01b6 3968     		ldr	r1, [r7]
 1719 01b8 7A68     		ldr	r2, [r7, #4]
 1720 01ba 5B1A     		sub	r3, r3, r1
 1721 01bc 9441     		sbc	r4, r4, r2
 1722 01be BB64     		str	r3, [r7, #72]
 1723 01c0 FC64     		str	r4, [r7, #76]
 379:.\lib_DS1307/DS1307.c ****         tmpMonth++;
 1724              		.loc 1 379 0
 1725 01c2 8C23     		mov	r3, #140
 1726 01c4 FB18     		add	r3, r7, r3
 1727 01c6 1B68     		ldr	r3, [r3]
 1728 01c8 0133     		add	r3, r3, #1
 1729 01ca 8C22     		mov	r2, #140
 1730 01cc BA18     		add	r2, r7, r2
 1731 01ce 1360     		str	r3, [r2]
 380:.\lib_DS1307/DS1307.c ****             /*days in month*/
 381:.\lib_DS1307/DS1307.c ****         daysInMonth = DS1307_daysInMonthTbl[tmpMonth - 1u];
 1732              		.loc 1 381 0
 1733 01d0 8C23     		mov	r3, #140
 1734 01d2 FB18     		add	r3, r7, r3
 1735 01d4 1B68     		ldr	r3, [r3]
 1736 01d6 5A1E     		sub	r2, r3, #1
 1737 01d8 5D4B     		ldr	r3, .L108+12
 1738 01da 9B5C     		ldrb	r3, [r3, r2]
 1739 01dc FB67     		str	r3, [r7, #124]
 382:.\lib_DS1307/DS1307.c ****         if((uint32)DS1307_FEBRUARY == tmpMonth)
 1740              		.loc 1 382 0
 1741 01de 8C23     		mov	r3, #140
 1742 01e0 FB18     		add	r3, r7, r3
 1743 01e2 1B68     		ldr	r3, [r3]
 1744 01e4 022B     		cmp	r3, #2
 1745 01e6 23D1     		bne	.L77
 1746              	.LBB5:
 383:.\lib_DS1307/DS1307.c ****         {
 384:.\lib_DS1307/DS1307.c ****             uint32_t leapYear;
 385:.\lib_DS1307/DS1307.c ****             if(((0u == (tmpYear % 4Lu)) && (0u != (tmpYear % 100Lu))) || (0u == (tmpYear % 400Lu)))
 1747              		.loc 1 385 0
 1748 01e8 8823     		mov	r3, #136
 1749 01ea FB18     		add	r3, r7, r3
 1750 01ec 1A68     		ldr	r2, [r3]
 1751 01ee 0323     		mov	r3, #3
 1752 01f0 1340     		and	r3, r2
 1753 01f2 08D1     		bne	.L78
 1754              		.loc 1 385 0 is_stmt 0 discriminator 1
 1755 01f4 8823     		mov	r3, #136
 1756 01f6 FB18     		add	r3, r7, r3
 1757 01f8 1B68     		ldr	r3, [r3]
 1758 01fa 181C     		mov	r0, r3
 1759 01fc 6421     		mov	r1, #100
 1760 01fe FFF7FEFF 		bl	__aeabi_uidivmod
 1761 0202 0B1E     		sub	r3, r1, #0
 1762 0204 09D1     		bne	.L79
 1763              	.L78:
 1764              		.loc 1 385 0 discriminator 3
 1765 0206 8823     		mov	r3, #136
 1766 0208 FB18     		add	r3, r7, r3
 1767 020a 1B68     		ldr	r3, [r3]
ARM GAS  C:\Users\Petro\AppData\Local\Temp\ccQL3rGK.s 			page 39


 1768 020c 181C     		mov	r0, r3
 1769 020e C823     		mov	r3, #200
 1770 0210 5900     		lsl	r1, r3, #1
 1771 0212 FFF7FEFF 		bl	__aeabi_uidivmod
 1772 0216 0B1E     		sub	r3, r1, #0
 1773 0218 02D1     		bne	.L80
 1774              	.L79:
 386:.\lib_DS1307/DS1307.c ****             {
 387:.\lib_DS1307/DS1307.c ****                 leapYear = 1uL;
 1775              		.loc 1 387 0 is_stmt 1
 1776 021a 0123     		mov	r3, #1
 1777 021c 3B67     		str	r3, [r7, #112]
 1778 021e 01E0     		b	.L81
 1779              	.L80:
 388:.\lib_DS1307/DS1307.c ****             }
 389:.\lib_DS1307/DS1307.c ****             else
 390:.\lib_DS1307/DS1307.c ****             {
 391:.\lib_DS1307/DS1307.c ****                 leapYear = 0uL;
 1780              		.loc 1 391 0
 1781 0220 0023     		mov	r3, #0
 1782 0222 3B67     		str	r3, [r7, #112]
 1783              	.L81:
 392:.\lib_DS1307/DS1307.c ****             }
 393:.\lib_DS1307/DS1307.c ****             if(0u != leapYear)
 1784              		.loc 1 393 0
 1785 0224 3B6F     		ldr	r3, [r7, #112]
 1786 0226 002B     		cmp	r3, #0
 1787 0228 02D0     		beq	.L77
 394:.\lib_DS1307/DS1307.c ****             {
 395:.\lib_DS1307/DS1307.c ****                daysInMonth++;
 1788              		.loc 1 395 0
 1789 022a FB6F     		ldr	r3, [r7, #124]
 1790 022c 0133     		add	r3, r3, #1
 1791 022e FB67     		str	r3, [r7, #124]
 1792              	.L77:
 1793              	.LBE5:
 396:.\lib_DS1307/DS1307.c ****             }
 397:.\lib_DS1307/DS1307.c ****         }
 398:.\lib_DS1307/DS1307.c ****             tmpVar = daysInMonth * DS1307_SECONDS_PER_DAY;
 1794              		.loc 1 398 0
 1795 0230 FA6F     		ldr	r2, [r7, #124]
 1796 0232 484B     		ldr	r3, .L108+16
 1797 0234 5343     		mul	r3, r2
 1798 0236 8422     		mov	r2, #132
 1799 0238 BA18     		add	r2, r7, r2
 1800 023a 1360     		str	r3, [r2]
 1801              	.L76:
 376:.\lib_DS1307/DS1307.c ****     {
 1802              		.loc 1 376 0
 1803 023c 8423     		mov	r3, #132
 1804 023e FB18     		add	r3, r7, r3
 1805 0240 1B68     		ldr	r3, [r3]
 1806 0242 3B64     		str	r3, [r7, #64]
 1807 0244 0023     		mov	r3, #0
 1808 0246 7B64     		str	r3, [r7, #68]
 1809 0248 FB6C     		ldr	r3, [r7, #76]
 1810 024a 7A6C     		ldr	r2, [r7, #68]
ARM GAS  C:\Users\Petro\AppData\Local\Temp\ccQL3rGK.s 			page 40


 1811 024c 9342     		cmp	r3, r2
 1812 024e 07D3     		bcc	.L103
 1813 0250 FB6C     		ldr	r3, [r7, #76]
 1814 0252 7A6C     		ldr	r2, [r7, #68]
 1815 0254 9342     		cmp	r3, r2
 1816 0256 A6D1     		bne	.L82
 1817 0258 BB6C     		ldr	r3, [r7, #72]
 1818 025a 3A6C     		ldr	r2, [r7, #64]
 1819 025c 9342     		cmp	r3, r2
 1820 025e A2D2     		bcs	.L82
 1821              	.L103:
 399:.\lib_DS1307/DS1307.c ****         }
 400:.\lib_DS1307/DS1307.c **** 
 401:.\lib_DS1307/DS1307.c ****     /* Calculates current day value. */
 402:.\lib_DS1307/DS1307.c ****     tmpDay = (unixTime / DS1307_SECONDS_PER_DAY);
 1822              		.loc 1 402 0
 1823 0260 BB6C     		ldr	r3, [r7, #72]
 1824 0262 FC6C     		ldr	r4, [r7, #76]
 1825 0264 181C     		mov	r0, r3
 1826 0266 211C     		mov	r1, r4
 1827 0268 3A4A     		ldr	r2, .L108+16
 1828 026a 0023     		mov	r3, #0
 1829 026c FFF7FEFF 		bl	__aeabi_uldivmod
 1830 0270 031C     		mov	r3, r0
 1831 0272 0C1C     		mov	r4, r1
 1832 0274 3B66     		str	r3, [r7, #96]
 403:.\lib_DS1307/DS1307.c ****     tmpVar = tmpDay * DS1307_SECONDS_PER_DAY;
 1833              		.loc 1 403 0
 1834 0276 3A6E     		ldr	r2, [r7, #96]
 1835 0278 364B     		ldr	r3, .L108+16
 1836 027a 5343     		mul	r3, r2
 1837 027c 8422     		mov	r2, #132
 1838 027e BA18     		add	r2, r7, r2
 1839 0280 1360     		str	r3, [r2]
 404:.\lib_DS1307/DS1307.c ****     unixTime -= (unixTime >= tmpVar) ? tmpVar : 0u;
 1840              		.loc 1 404 0
 1841 0282 8423     		mov	r3, #132
 1842 0284 FB18     		add	r3, r7, r3
 1843 0286 1B68     		ldr	r3, [r3]
 1844 0288 BB63     		str	r3, [r7, #56]
 1845 028a 0023     		mov	r3, #0
 1846 028c FB63     		str	r3, [r7, #60]
 1847 028e FB6C     		ldr	r3, [r7, #76]
 1848 0290 FA6B     		ldr	r2, [r7, #60]
 1849 0292 9342     		cmp	r3, r2
 1850 0294 0ED3     		bcc	.L84
 1851 0296 FB6C     		ldr	r3, [r7, #76]
 1852 0298 FA6B     		ldr	r2, [r7, #60]
 1853 029a 9342     		cmp	r3, r2
 1854 029c 03D1     		bne	.L104
 1855 029e BB6C     		ldr	r3, [r7, #72]
 1856 02a0 BA6B     		ldr	r2, [r7, #56]
 1857 02a2 9342     		cmp	r3, r2
 1858 02a4 06D3     		bcc	.L84
 1859              	.L104:
 1860              		.loc 1 404 0 is_stmt 0 discriminator 1
 1861 02a6 8423     		mov	r3, #132
ARM GAS  C:\Users\Petro\AppData\Local\Temp\ccQL3rGK.s 			page 41


 1862 02a8 FB18     		add	r3, r7, r3
 1863 02aa 1B68     		ldr	r3, [r3]
 1864 02ac 3B62     		str	r3, [r7, #32]
 1865 02ae 0023     		mov	r3, #0
 1866 02b0 7B62     		str	r3, [r7, #36]
 1867 02b2 03E0     		b	.L86
 1868              	.L84:
 1869              		.loc 1 404 0 discriminator 2
 1870 02b4 0023     		mov	r3, #0
 1871 02b6 0024     		mov	r4, #0
 1872 02b8 3B62     		str	r3, [r7, #32]
 1873 02ba 7C62     		str	r4, [r7, #36]
 1874              	.L86:
 1875              		.loc 1 404 0 discriminator 4
 1876 02bc BB6C     		ldr	r3, [r7, #72]
 1877 02be FC6C     		ldr	r4, [r7, #76]
 1878 02c0 396A     		ldr	r1, [r7, #32]
 1879 02c2 7A6A     		ldr	r2, [r7, #36]
 1880 02c4 5B1A     		sub	r3, r3, r1
 1881 02c6 9441     		sbc	r4, r4, r2
 1882 02c8 BB64     		str	r3, [r7, #72]
 1883 02ca FC64     		str	r4, [r7, #76]
 405:.\lib_DS1307/DS1307.c ****     tmpDay += 1u;
 1884              		.loc 1 405 0 is_stmt 1 discriminator 4
 1885 02cc 3B6E     		ldr	r3, [r7, #96]
 1886 02ce 0133     		add	r3, r3, #1
 1887 02d0 3B66     		str	r3, [r7, #96]
 406:.\lib_DS1307/DS1307.c **** 
 407:.\lib_DS1307/DS1307.c ****     /* Calculates current hour value. If function works in 12-Hour mode,
 408:.\lib_DS1307/DS1307.c ****      * it converts time to 12-Hours mode and calculates AmPm status */
 409:.\lib_DS1307/DS1307.c ****     tmpHour = unixTime / DS1307_SECONDS_PER_HOUR;
 1888              		.loc 1 409 0 discriminator 4
 1889 02d2 BB6C     		ldr	r3, [r7, #72]
 1890 02d4 FC6C     		ldr	r4, [r7, #76]
 1891 02d6 181C     		mov	r0, r3
 1892 02d8 211C     		mov	r1, r4
 1893 02da E122     		mov	r2, #225
 1894 02dc 1201     		lsl	r2, r2, #4
 1895 02de 0023     		mov	r3, #0
 1896 02e0 FFF7FEFF 		bl	__aeabi_uldivmod
 1897 02e4 031C     		mov	r3, r0
 1898 02e6 0C1C     		mov	r4, r1
 1899 02e8 9422     		mov	r2, #148
 1900 02ea BA18     		add	r2, r7, r2
 1901 02ec 1360     		str	r3, [r2]
 410:.\lib_DS1307/DS1307.c ****     tmpVar  = tmpHour * DS1307_SECONDS_PER_HOUR;
 1902              		.loc 1 410 0 discriminator 4
 1903 02ee 9423     		mov	r3, #148
 1904 02f0 FB18     		add	r3, r7, r3
 1905 02f2 1B68     		ldr	r3, [r3]
 1906 02f4 E122     		mov	r2, #225
 1907 02f6 1201     		lsl	r2, r2, #4
 1908 02f8 5343     		mul	r3, r2
 1909 02fa 8422     		mov	r2, #132
 1910 02fc BA18     		add	r2, r7, r2
 1911 02fe 1360     		str	r3, [r2]
 411:.\lib_DS1307/DS1307.c ****     if((uint32)!DS1307_24TIME_FORMAT != timeFormat)
ARM GAS  C:\Users\Petro\AppData\Local\Temp\ccQL3rGK.s 			page 42


 1912              		.loc 1 411 0 discriminator 4
 1913 0300 7B6E     		ldr	r3, [r7, #100]
 1914 0302 002B     		cmp	r3, #0
 1915 0304 3BD0     		beq	.L87
 412:.\lib_DS1307/DS1307.c ****     {
 413:.\lib_DS1307/DS1307.c ****         if(unixTime > DS1307_UNIX_TIME_PM)
 1916              		.loc 1 413 0
 1917 0306 FB6C     		ldr	r3, [r7, #76]
 1918 0308 002B     		cmp	r3, #0
 1919 030a 06D1     		bne	.L105
 1920 030c FB6C     		ldr	r3, [r7, #76]
 1921 030e 002B     		cmp	r3, #0
 1922 0310 24D1     		bne	.L88
 1923 0312 BB6C     		ldr	r3, [r7, #72]
 1924 0314 104A     		ldr	r2, .L108+20
 1925 0316 9342     		cmp	r3, r2
 1926 0318 20D9     		bls	.L88
 1927              	.L105:
 414:.\lib_DS1307/DS1307.c ****         {
 415:.\lib_DS1307/DS1307.c ****             tmpAmPmState = !DS1307_PM;
 1928              		.loc 1 415 0
 1929 031a 0123     		mov	r3, #1
 1930 031c 9022     		mov	r2, #144
 1931 031e BA18     		add	r2, r7, r2
 1932 0320 1360     		str	r3, [r2]
 416:.\lib_DS1307/DS1307.c ****             tmpHour = (tmpHour > 12u) ? (tmpHour - 12u) : tmpHour;
 1933              		.loc 1 416 0
 1934 0322 9423     		mov	r3, #148
 1935 0324 FB18     		add	r3, r7, r3
 1936 0326 1B68     		ldr	r3, [r3]
 1937 0328 0C2B     		cmp	r3, #12
 1938 032a 04D9     		bls	.L90
 1939              		.loc 1 416 0 is_stmt 0 discriminator 1
 1940 032c 9423     		mov	r3, #148
 1941 032e FB18     		add	r3, r7, r3
 1942 0330 1B68     		ldr	r3, [r3]
 1943 0332 0C3B     		sub	r3, r3, #12
 1944 0334 02E0     		b	.L91
 1945              	.L90:
 1946              		.loc 1 416 0 discriminator 2
 1947 0336 9423     		mov	r3, #148
 1948 0338 FB18     		add	r3, r7, r3
 1949 033a 1B68     		ldr	r3, [r3]
 1950              	.L91:
 1951              		.loc 1 416 0 discriminator 4
 1952 033c 9422     		mov	r2, #148
 1953 033e BA18     		add	r2, r7, r2
 1954 0340 1360     		str	r3, [r2]
 1955 0342 1CE0     		b	.L87
 1956              	.L109:
 1957              		.align	2
 1958              	.L108:
 1959 0344 B2070000 		.word	1970
 1960 0348 8033E101 		.word	31536000
 1961 034c 0085E201 		.word	31622400
 1962 0350 18000000 		.word	DS1307_daysInMonthTbl
 1963 0354 80510100 		.word	86400
ARM GAS  C:\Users\Petro\AppData\Local\Temp\ccQL3rGK.s 			page 43


 1964 0358 C1A80000 		.word	43201
 1965              	.L88:
 417:.\lib_DS1307/DS1307.c ****         }
 418:.\lib_DS1307/DS1307.c ****         else
 419:.\lib_DS1307/DS1307.c ****         {
 420:.\lib_DS1307/DS1307.c ****             tmpAmPmState = !DS1307_AM;
 1966              		.loc 1 420 0 is_stmt 1
 1967 035c 0023     		mov	r3, #0
 1968 035e 9022     		mov	r2, #144
 1969 0360 BA18     		add	r2, r7, r2
 1970 0362 1360     		str	r3, [r2]
 421:.\lib_DS1307/DS1307.c ****             tmpHour = (0u != tmpHour) ? tmpHour : 12u;
 1971              		.loc 1 421 0
 1972 0364 9423     		mov	r3, #148
 1973 0366 FB18     		add	r3, r7, r3
 1974 0368 1B68     		ldr	r3, [r3]
 1975 036a 002B     		cmp	r3, #0
 1976 036c 03D0     		beq	.L92
 1977              		.loc 1 421 0 is_stmt 0 discriminator 1
 1978 036e 9423     		mov	r3, #148
 1979 0370 FB18     		add	r3, r7, r3
 1980 0372 1B68     		ldr	r3, [r3]
 1981 0374 00E0     		b	.L93
 1982              	.L92:
 1983              		.loc 1 421 0 discriminator 2
 1984 0376 0C23     		mov	r3, #12
 1985              	.L93:
 1986              		.loc 1 421 0 discriminator 4
 1987 0378 9422     		mov	r2, #148
 1988 037a BA18     		add	r2, r7, r2
 1989 037c 1360     		str	r3, [r2]
 1990              	.L87:
 422:.\lib_DS1307/DS1307.c ****         }
 423:.\lib_DS1307/DS1307.c ****     }
 424:.\lib_DS1307/DS1307.c ****     unixTime -= (unixTime >= tmpVar) ? tmpVar : 0u;
 1991              		.loc 1 424 0 is_stmt 1
 1992 037e 8423     		mov	r3, #132
 1993 0380 FB18     		add	r3, r7, r3
 1994 0382 1B68     		ldr	r3, [r3]
 1995 0384 3B63     		str	r3, [r7, #48]
 1996 0386 0023     		mov	r3, #0
 1997 0388 7B63     		str	r3, [r7, #52]
 1998 038a FB6C     		ldr	r3, [r7, #76]
 1999 038c 7A6B     		ldr	r2, [r7, #52]
 2000 038e 9342     		cmp	r3, r2
 2001 0390 0ED3     		bcc	.L94
 2002 0392 FB6C     		ldr	r3, [r7, #76]
 2003 0394 7A6B     		ldr	r2, [r7, #52]
 2004 0396 9342     		cmp	r3, r2
 2005 0398 03D1     		bne	.L106
 2006 039a BB6C     		ldr	r3, [r7, #72]
 2007 039c 3A6B     		ldr	r2, [r7, #48]
 2008 039e 9342     		cmp	r3, r2
 2009 03a0 06D3     		bcc	.L94
 2010              	.L106:
 2011              		.loc 1 424 0 is_stmt 0 discriminator 1
 2012 03a2 8423     		mov	r3, #132
ARM GAS  C:\Users\Petro\AppData\Local\Temp\ccQL3rGK.s 			page 44


 2013 03a4 FB18     		add	r3, r7, r3
 2014 03a6 1B68     		ldr	r3, [r3]
 2015 03a8 BB61     		str	r3, [r7, #24]
 2016 03aa 0023     		mov	r3, #0
 2017 03ac FB61     		str	r3, [r7, #28]
 2018 03ae 03E0     		b	.L96
 2019              	.L94:
 2020              		.loc 1 424 0 discriminator 2
 2021 03b0 0023     		mov	r3, #0
 2022 03b2 0024     		mov	r4, #0
 2023 03b4 BB61     		str	r3, [r7, #24]
 2024 03b6 FC61     		str	r4, [r7, #28]
 2025              	.L96:
 2026              		.loc 1 424 0 discriminator 4
 2027 03b8 BB6C     		ldr	r3, [r7, #72]
 2028 03ba FC6C     		ldr	r4, [r7, #76]
 2029 03bc B969     		ldr	r1, [r7, #24]
 2030 03be FA69     		ldr	r2, [r7, #28]
 2031 03c0 5B1A     		sub	r3, r3, r1
 2032 03c2 9441     		sbc	r4, r4, r2
 2033 03c4 BB64     		str	r3, [r7, #72]
 2034 03c6 FC64     		str	r4, [r7, #76]
 425:.\lib_DS1307/DS1307.c **** 
 426:.\lib_DS1307/DS1307.c ****     /* Calculates current minute.  */
 427:.\lib_DS1307/DS1307.c ****     tmpMinute = unixTime / DS1307_SECONDS_PER_MINUTE;
 2035              		.loc 1 427 0 is_stmt 1 discriminator 4
 2036 03c8 BB6C     		ldr	r3, [r7, #72]
 2037 03ca FC6C     		ldr	r4, [r7, #76]
 2038 03cc 181C     		mov	r0, r3
 2039 03ce 211C     		mov	r1, r4
 2040 03d0 3C22     		mov	r2, #60
 2041 03d2 0023     		mov	r3, #0
 2042 03d4 FFF7FEFF 		bl	__aeabi_uldivmod
 2043 03d8 031C     		mov	r3, r0
 2044 03da 0C1C     		mov	r4, r1
 2045 03dc FB65     		str	r3, [r7, #92]
 428:.\lib_DS1307/DS1307.c ****     tmpVar = tmpMinute * DS1307_SECONDS_PER_MINUTE;
 2046              		.loc 1 428 0 discriminator 4
 2047 03de FA6D     		ldr	r2, [r7, #92]
 2048 03e0 131C     		mov	r3, r2
 2049 03e2 1B01     		lsl	r3, r3, #4
 2050 03e4 9B1A     		sub	r3, r3, r2
 2051 03e6 9B00     		lsl	r3, r3, #2
 2052 03e8 8422     		mov	r2, #132
 2053 03ea BA18     		add	r2, r7, r2
 2054 03ec 1360     		str	r3, [r2]
 429:.\lib_DS1307/DS1307.c **** 
 430:.\lib_DS1307/DS1307.c ****     /* Calculates current second. */
 431:.\lib_DS1307/DS1307.c ****     unixTime -= (unixTime >= tmpVar) ? tmpVar : 0u;
 2055              		.loc 1 431 0 discriminator 4
 2056 03ee 8423     		mov	r3, #132
 2057 03f0 FB18     		add	r3, r7, r3
 2058 03f2 1B68     		ldr	r3, [r3]
 2059 03f4 BB62     		str	r3, [r7, #40]
 2060 03f6 0023     		mov	r3, #0
 2061 03f8 FB62     		str	r3, [r7, #44]
 2062 03fa FB6C     		ldr	r3, [r7, #76]
ARM GAS  C:\Users\Petro\AppData\Local\Temp\ccQL3rGK.s 			page 45


 2063 03fc FA6A     		ldr	r2, [r7, #44]
 2064 03fe 9342     		cmp	r3, r2
 2065 0400 0ED3     		bcc	.L97
 2066 0402 FB6C     		ldr	r3, [r7, #76]
 2067 0404 FA6A     		ldr	r2, [r7, #44]
 2068 0406 9342     		cmp	r3, r2
 2069 0408 03D1     		bne	.L107
 2070 040a BB6C     		ldr	r3, [r7, #72]
 2071 040c BA6A     		ldr	r2, [r7, #40]
 2072 040e 9342     		cmp	r3, r2
 2073 0410 06D3     		bcc	.L97
 2074              	.L107:
 2075              		.loc 1 431 0 is_stmt 0 discriminator 1
 2076 0412 8423     		mov	r3, #132
 2077 0414 FB18     		add	r3, r7, r3
 2078 0416 1B68     		ldr	r3, [r3]
 2079 0418 3B61     		str	r3, [r7, #16]
 2080 041a 0023     		mov	r3, #0
 2081 041c 7B61     		str	r3, [r7, #20]
 2082 041e 03E0     		b	.L99
 2083              	.L97:
 2084              		.loc 1 431 0 discriminator 2
 2085 0420 0023     		mov	r3, #0
 2086 0422 0024     		mov	r4, #0
 2087 0424 3B61     		str	r3, [r7, #16]
 2088 0426 7C61     		str	r4, [r7, #20]
 2089              	.L99:
 2090              		.loc 1 431 0 discriminator 4
 2091 0428 BB6C     		ldr	r3, [r7, #72]
 2092 042a FC6C     		ldr	r4, [r7, #76]
 2093 042c 3969     		ldr	r1, [r7, #16]
 2094 042e 7A69     		ldr	r2, [r7, #20]
 2095 0430 5B1A     		sub	r3, r3, r1
 2096 0432 9441     		sbc	r4, r4, r2
 2097 0434 BB64     		str	r3, [r7, #72]
 2098 0436 FC64     		str	r4, [r7, #76]
 432:.\lib_DS1307/DS1307.c ****     
 433:.\lib_DS1307/DS1307.c ****     /*construct date*/
 434:.\lib_DS1307/DS1307.c ****     uint32_t tmpDate;
 435:.\lib_DS1307/DS1307.c ****     uint32 tmpVal = tmpYear;
 2099              		.loc 1 435 0 is_stmt 1 discriminator 4
 2100 0438 8823     		mov	r3, #136
 2101 043a FB18     		add	r3, r7, r3
 2102 043c 1B68     		ldr	r3, [r3]
 2103 043e BB65     		str	r3, [r7, #88]
 436:.\lib_DS1307/DS1307.c ****     tmpDate  = (tmpMonth / 10u) << DS1307_10_MONTH_OFFSET;
 2104              		.loc 1 436 0 discriminator 4
 2105 0440 8C23     		mov	r3, #140
 2106 0442 FB18     		add	r3, r7, r3
 2107 0444 1B68     		ldr	r3, [r3]
 2108 0446 181C     		mov	r0, r3
 2109 0448 0A21     		mov	r1, #10
 2110 044a FFF7FEFF 		bl	__aeabi_uidiv
 2111 044e 031C     		mov	r3, r0
 2112 0450 1B07     		lsl	r3, r3, #28
 2113 0452 7B65     		str	r3, [r7, #84]
 437:.\lib_DS1307/DS1307.c ****     tmpDate |= (tmpMonth % 10u) << DS1307_MONTH_OFFSET;
ARM GAS  C:\Users\Petro\AppData\Local\Temp\ccQL3rGK.s 			page 46


 2114              		.loc 1 437 0 discriminator 4
 2115 0454 8C23     		mov	r3, #140
 2116 0456 FB18     		add	r3, r7, r3
 2117 0458 1B68     		ldr	r3, [r3]
 2118 045a 181C     		mov	r0, r3
 2119 045c 0A21     		mov	r1, #10
 2120 045e FFF7FEFF 		bl	__aeabi_uidivmod
 2121 0462 0B1C     		mov	r3, r1
 2122 0464 1B06     		lsl	r3, r3, #24
 2123 0466 7A6D     		ldr	r2, [r7, #84]
 2124 0468 1343     		orr	r3, r2
 2125 046a 7B65     		str	r3, [r7, #84]
 438:.\lib_DS1307/DS1307.c **** 
 439:.\lib_DS1307/DS1307.c ****     tmpDate |= (tmpDay / 10u) << DS1307_10_DAY_OFFSET;
 2126              		.loc 1 439 0 discriminator 4
 2127 046c 3B6E     		ldr	r3, [r7, #96]
 2128 046e 181C     		mov	r0, r3
 2129 0470 0A21     		mov	r1, #10
 2130 0472 FFF7FEFF 		bl	__aeabi_uidiv
 2131 0476 031C     		mov	r3, r0
 2132 0478 1B05     		lsl	r3, r3, #20
 2133 047a 7A6D     		ldr	r2, [r7, #84]
 2134 047c 1343     		orr	r3, r2
 2135 047e 7B65     		str	r3, [r7, #84]
 440:.\lib_DS1307/DS1307.c ****     tmpDate |= (tmpDay % 10u) << DS1307_DAY_OFFSET;
 2136              		.loc 1 440 0 discriminator 4
 2137 0480 3B6E     		ldr	r3, [r7, #96]
 2138 0482 181C     		mov	r0, r3
 2139 0484 0A21     		mov	r1, #10
 2140 0486 FFF7FEFF 		bl	__aeabi_uidivmod
 2141 048a 0B1C     		mov	r3, r1
 2142 048c 1B04     		lsl	r3, r3, #16
 2143 048e 7A6D     		ldr	r2, [r7, #84]
 2144 0490 1343     		orr	r3, r2
 2145 0492 7B65     		str	r3, [r7, #84]
 441:.\lib_DS1307/DS1307.c **** 
 442:.\lib_DS1307/DS1307.c ****     tmpDate |= (tmpYear / 1000u) << DS1307_1000_YEAR_OFFSET;
 2146              		.loc 1 442 0 discriminator 4
 2147 0494 8823     		mov	r3, #136
 2148 0496 FB18     		add	r3, r7, r3
 2149 0498 1B68     		ldr	r3, [r3]
 2150 049a 181C     		mov	r0, r3
 2151 049c FA23     		mov	r3, #250
 2152 049e 9900     		lsl	r1, r3, #2
 2153 04a0 FFF7FEFF 		bl	__aeabi_uidiv
 2154 04a4 031C     		mov	r3, r0
 2155 04a6 1B03     		lsl	r3, r3, #12
 2156 04a8 7A6D     		ldr	r2, [r7, #84]
 2157 04aa 1343     		orr	r3, r2
 2158 04ac 7B65     		str	r3, [r7, #84]
 443:.\lib_DS1307/DS1307.c ****     tmpVal %= 1000u;
 2159              		.loc 1 443 0 discriminator 4
 2160 04ae BB6D     		ldr	r3, [r7, #88]
 2161 04b0 181C     		mov	r0, r3
 2162 04b2 FA23     		mov	r3, #250
 2163 04b4 9900     		lsl	r1, r3, #2
 2164 04b6 FFF7FEFF 		bl	__aeabi_uidivmod
ARM GAS  C:\Users\Petro\AppData\Local\Temp\ccQL3rGK.s 			page 47


 2165 04ba 0B1C     		mov	r3, r1
 2166 04bc BB65     		str	r3, [r7, #88]
 444:.\lib_DS1307/DS1307.c **** 
 445:.\lib_DS1307/DS1307.c ****     tmpDate |= (tmpVal / 100u) << DS1307_100_YEAR_OFFSET;
 2167              		.loc 1 445 0 discriminator 4
 2168 04be BB6D     		ldr	r3, [r7, #88]
 2169 04c0 181C     		mov	r0, r3
 2170 04c2 6421     		mov	r1, #100
 2171 04c4 FFF7FEFF 		bl	__aeabi_uidiv
 2172 04c8 031C     		mov	r3, r0
 2173 04ca 1B02     		lsl	r3, r3, #8
 2174 04cc 7A6D     		ldr	r2, [r7, #84]
 2175 04ce 1343     		orr	r3, r2
 2176 04d0 7B65     		str	r3, [r7, #84]
 446:.\lib_DS1307/DS1307.c ****     tmpVal %= 100u;
 2177              		.loc 1 446 0 discriminator 4
 2178 04d2 BB6D     		ldr	r3, [r7, #88]
 2179 04d4 181C     		mov	r0, r3
 2180 04d6 6421     		mov	r1, #100
 2181 04d8 FFF7FEFF 		bl	__aeabi_uidivmod
 2182 04dc 0B1C     		mov	r3, r1
 2183 04de BB65     		str	r3, [r7, #88]
 447:.\lib_DS1307/DS1307.c **** 
 448:.\lib_DS1307/DS1307.c ****     tmpDate |= (tmpVal / 10u) << DS1307_10_YEAR_OFFSET;
 2184              		.loc 1 448 0 discriminator 4
 2185 04e0 BB6D     		ldr	r3, [r7, #88]
 2186 04e2 181C     		mov	r0, r3
 2187 04e4 0A21     		mov	r1, #10
 2188 04e6 FFF7FEFF 		bl	__aeabi_uidiv
 2189 04ea 031C     		mov	r3, r0
 2190 04ec 1B01     		lsl	r3, r3, #4
 2191 04ee 7A6D     		ldr	r2, [r7, #84]
 2192 04f0 1343     		orr	r3, r2
 2193 04f2 7B65     		str	r3, [r7, #84]
 449:.\lib_DS1307/DS1307.c ****     tmpDate |= (tmpVal % 10u) << DS1307_YEAR_OFFSET;
 2194              		.loc 1 449 0 discriminator 4
 2195 04f4 BB6D     		ldr	r3, [r7, #88]
 2196 04f6 181C     		mov	r0, r3
 2197 04f8 0A21     		mov	r1, #10
 2198 04fa FFF7FEFF 		bl	__aeabi_uidivmod
 2199 04fe 0B1C     		mov	r3, r1
 2200 0500 1A1C     		mov	r2, r3
 2201 0502 7B6D     		ldr	r3, [r7, #84]
 2202 0504 1343     		orr	r3, r2
 2203 0506 7B65     		str	r3, [r7, #84]
 450:.\lib_DS1307/DS1307.c ****     
 451:.\lib_DS1307/DS1307.c ****     /*day of week*/
 452:.\lib_DS1307/DS1307.c ****     uint32_t dayOfWeek;
 453:.\lib_DS1307/DS1307.c ****     uint32_t year;
 454:.\lib_DS1307/DS1307.c ****     year = tmpYear;
 2204              		.loc 1 454 0 discriminator 4
 2205 0508 8823     		mov	r3, #136
 2206 050a FB18     		add	r3, r7, r3
 2207 050c 1B68     		ldr	r3, [r3]
 2208 050e BB66     		str	r3, [r7, #104]
 455:.\lib_DS1307/DS1307.c ****     if(tmpMonth < (uint32)DS1307_MARCH)
 2209              		.loc 1 455 0 discriminator 4
ARM GAS  C:\Users\Petro\AppData\Local\Temp\ccQL3rGK.s 			page 48


 2210 0510 8C23     		mov	r3, #140
 2211 0512 FB18     		add	r3, r7, r3
 2212 0514 1B68     		ldr	r3, [r3]
 2213 0516 022B     		cmp	r3, #2
 2214 0518 09D8     		bhi	.L100
 456:.\lib_DS1307/DS1307.c ****     {
 457:.\lib_DS1307/DS1307.c ****         tmpMonth = 12u + tmpMonth;
 2215              		.loc 1 457 0
 2216 051a 8C23     		mov	r3, #140
 2217 051c FB18     		add	r3, r7, r3
 2218 051e 1B68     		ldr	r3, [r3]
 2219 0520 0C33     		add	r3, r3, #12
 2220 0522 8C22     		mov	r2, #140
 2221 0524 BA18     		add	r2, r7, r2
 2222 0526 1360     		str	r3, [r2]
 458:.\lib_DS1307/DS1307.c ****         year--;
 2223              		.loc 1 458 0
 2224 0528 BB6E     		ldr	r3, [r7, #104]
 2225 052a 013B     		sub	r3, r3, #1
 2226 052c BB66     		str	r3, [r7, #104]
 2227              	.L100:
 459:.\lib_DS1307/DS1307.c ****     }
 460:.\lib_DS1307/DS1307.c ****     /* Calculates Day of Week using Zeller's congruence algorithms.
 461:.\lib_DS1307/DS1307.c ****     */
 462:.\lib_DS1307/DS1307.c ****     dayOfWeek = (tmpDay + (((tmpMonth + 1u) * 26u) / 10u) + year + (year / 4u) + (6u * (year / 100u
 2228              		.loc 1 462 0
 2229 052e 8C23     		mov	r3, #140
 2230 0530 FB18     		add	r3, r7, r3
 2231 0532 1B68     		ldr	r3, [r3]
 2232 0534 0133     		add	r3, r3, #1
 2233 0536 1A22     		mov	r2, #26
 2234 0538 5343     		mul	r3, r2
 2235 053a 181C     		mov	r0, r3
 2236 053c 0A21     		mov	r1, #10
 2237 053e FFF7FEFF 		bl	__aeabi_uidiv
 2238 0542 031C     		mov	r3, r0
 2239 0544 1A1C     		mov	r2, r3
 2240 0546 3B6E     		ldr	r3, [r7, #96]
 2241 0548 D218     		add	r2, r2, r3
 2242 054a BB6E     		ldr	r3, [r7, #104]
 2243 054c D218     		add	r2, r2, r3
 2244 054e BB6E     		ldr	r3, [r7, #104]
 2245 0550 9B08     		lsr	r3, r3, #2
 2246 0552 D418     		add	r4, r2, r3
 2247 0554 BB6E     		ldr	r3, [r7, #104]
 2248 0556 181C     		mov	r0, r3
 2249 0558 6421     		mov	r1, #100
 2250 055a FFF7FEFF 		bl	__aeabi_uidiv
 2251 055e 031C     		mov	r3, r0
 2252 0560 1A1C     		mov	r2, r3
 2253 0562 131C     		mov	r3, r2
 2254 0564 5B00     		lsl	r3, r3, #1
 2255 0566 9B18     		add	r3, r3, r2
 2256 0568 5B00     		lsl	r3, r3, #1
 2257 056a E418     		add	r4, r4, r3
 2258 056c BB6E     		ldr	r3, [r7, #104]
 2259 056e 181C     		mov	r0, r3
ARM GAS  C:\Users\Petro\AppData\Local\Temp\ccQL3rGK.s 			page 49


 2260 0570 C823     		mov	r3, #200
 2261 0572 5900     		lsl	r1, r3, #1
 2262 0574 FFF7FEFF 		bl	__aeabi_uidiv
 2263 0578 031C     		mov	r3, r0
 2264 057a E318     		add	r3, r4, r3
 2265 057c 181C     		mov	r0, r3
 2266 057e 0721     		mov	r1, #7
 2267 0580 FFF7FEFF 		bl	__aeabi_uidivmod
 2268 0584 0B1C     		mov	r3, r1
 2269 0586 FB66     		str	r3, [r7, #108]
 463:.\lib_DS1307/DS1307.c **** 
 464:.\lib_DS1307/DS1307.c ****     /* Makes correction for Saturday. Saturday number should be 7 instead of 0. */
 465:.\lib_DS1307/DS1307.c ****     if(0u == dayOfWeek)
 2270              		.loc 1 465 0
 2271 0588 FB6E     		ldr	r3, [r7, #108]
 2272 058a 002B     		cmp	r3, #0
 2273 058c 01D1     		bne	.L101
 466:.\lib_DS1307/DS1307.c ****     {
 467:.\lib_DS1307/DS1307.c ****         dayOfWeek = 7;
 2274              		.loc 1 467 0
 2275 058e 0723     		mov	r3, #7
 2276 0590 FB66     		str	r3, [r7, #108]
 2277              	.L101:
 468:.\lib_DS1307/DS1307.c ****     }
 469:.\lib_DS1307/DS1307.c **** 
 470:.\lib_DS1307/DS1307.c ****     /*write data to struct*/
 471:.\lib_DS1307/DS1307.c ****     DS1307_currentTimeDate.second = unixTime;
 2278              		.loc 1 471 0
 2279 0592 BB6C     		ldr	r3, [r7, #72]
 2280 0594 FC6C     		ldr	r4, [r7, #76]
 2281 0596 DAB2     		uxtb	r2, r3
 2282 0598 1C4B     		ldr	r3, .L110
 2283 059a 1A70     		strb	r2, [r3]
 472:.\lib_DS1307/DS1307.c ****     DS1307_currentTimeDate.minutes = tmpMinute;
 2284              		.loc 1 472 0
 2285 059c FB6D     		ldr	r3, [r7, #92]
 2286 059e DAB2     		uxtb	r2, r3
 2287 05a0 1A4B     		ldr	r3, .L110
 2288 05a2 5A70     		strb	r2, [r3, #1]
 473:.\lib_DS1307/DS1307.c ****     DS1307_currentTimeDate.hours = tmpHour;
 2289              		.loc 1 473 0
 2290 05a4 9423     		mov	r3, #148
 2291 05a6 FB18     		add	r3, r7, r3
 2292 05a8 1B68     		ldr	r3, [r3]
 2293 05aa DAB2     		uxtb	r2, r3
 2294 05ac 174B     		ldr	r3, .L110
 2295 05ae 9A70     		strb	r2, [r3, #2]
 474:.\lib_DS1307/DS1307.c ****     DS1307_currentTimeDate.AmRm = !tmpAmPmState;
 2296              		.loc 1 474 0
 2297 05b0 9023     		mov	r3, #144
 2298 05b2 FB18     		add	r3, r7, r3
 2299 05b4 1B68     		ldr	r3, [r3]
 2300 05b6 5A42     		neg	r2, r3
 2301 05b8 5341     		adc	r3, r3, r2
 2302 05ba DBB2     		uxtb	r3, r3
 2303 05bc 1A1C     		mov	r2, r3
 2304 05be 134B     		ldr	r3, .L110
ARM GAS  C:\Users\Petro\AppData\Local\Temp\ccQL3rGK.s 			page 50


 2305 05c0 1A71     		strb	r2, [r3, #4]
 475:.\lib_DS1307/DS1307.c ****     DS1307_currentTimeDate.timeFormat = !timeFormat;
 2306              		.loc 1 475 0
 2307 05c2 7B6E     		ldr	r3, [r7, #100]
 2308 05c4 5A42     		neg	r2, r3
 2309 05c6 5341     		adc	r3, r3, r2
 2310 05c8 DBB2     		uxtb	r3, r3
 2311 05ca 1A1C     		mov	r2, r3
 2312 05cc 0F4B     		ldr	r3, .L110
 2313 05ce DA70     		strb	r2, [r3, #3]
 476:.\lib_DS1307/DS1307.c ****     DS1307_currentTimeDate.day = dayOfWeek;
 2314              		.loc 1 476 0
 2315 05d0 FB6E     		ldr	r3, [r7, #108]
 2316 05d2 DAB2     		uxtb	r2, r3
 2317 05d4 0D4B     		ldr	r3, .L110
 2318 05d6 5A71     		strb	r2, [r3, #5]
 477:.\lib_DS1307/DS1307.c ****     DS1307_currentTimeDate.month = tmpMonth;
 2319              		.loc 1 477 0
 2320 05d8 8C23     		mov	r3, #140
 2321 05da FB18     		add	r3, r7, r3
 2322 05dc 1B68     		ldr	r3, [r3]
 2323 05de DAB2     		uxtb	r2, r3
 2324 05e0 0A4B     		ldr	r3, .L110
 2325 05e2 DA71     		strb	r2, [r3, #7]
 478:.\lib_DS1307/DS1307.c ****     DS1307_currentTimeDate.year = tmpYear-2000;
 2326              		.loc 1 478 0
 2327 05e4 8823     		mov	r3, #136
 2328 05e6 FB18     		add	r3, r7, r3
 2329 05e8 1B68     		ldr	r3, [r3]
 2330 05ea 9BB2     		uxth	r3, r3
 2331 05ec 084A     		ldr	r2, .L110+4
 2332 05ee 9446     		mov	ip, r2
 2333 05f0 6344     		add	r3, r3, ip
 2334 05f2 9AB2     		uxth	r2, r3
 2335 05f4 054B     		ldr	r3, .L110
 2336 05f6 1A81     		strh	r2, [r3, #8]
 479:.\lib_DS1307/DS1307.c ****     DS1307_currentTimeDate.date = tmpDay;
 2337              		.loc 1 479 0
 2338 05f8 3B6E     		ldr	r3, [r7, #96]
 2339 05fa DAB2     		uxtb	r2, r3
 2340 05fc 034B     		ldr	r3, .L110
 2341 05fe 9A71     		strb	r2, [r3, #6]
 480:.\lib_DS1307/DS1307.c ****     
 481:.\lib_DS1307/DS1307.c ****     /*write in chip*/
 482:.\lib_DS1307/DS1307.c ****     DS1307_WriteTimeFromStruct();
 2342              		.loc 1 482 0
 2343 0600 FFF7FEFF 		bl	DS1307_WriteTimeFromStruct
 483:.\lib_DS1307/DS1307.c **** }
 2344              		.loc 1 483 0
 2345 0604 BD46     		mov	sp, r7
 2346 0606 27B0     		add	sp, sp, #156
 2347              		@ sp needed
 2348 0608 F0BD     		pop	{r4, r5, r6, r7, pc}
 2349              	.L111:
 2350 060a C046     		.align	2
 2351              	.L110:
 2352 060c 00000000 		.word	DS1307_currentTimeDate
ARM GAS  C:\Users\Petro\AppData\Local\Temp\ccQL3rGK.s 			page 51


 2353 0610 30F8FFFF 		.word	-2000
 2354              		.cfi_endproc
 2355              	.LFE8:
 2356              		.size	DS1307_SetUnixTime, .-DS1307_SetUnixTime
 2357              		.section	.text.DS1307_Start,"ax",%progbits
 2358              		.align	2
 2359              		.global	DS1307_Start
 2360              		.code	16
 2361              		.thumb_func
 2362              		.type	DS1307_Start, %function
 2363              	DS1307_Start:
 2364              	.LFB9:
 484:.\lib_DS1307/DS1307.c **** 
 485:.\lib_DS1307/DS1307.c **** 
 486:.\lib_DS1307/DS1307.c **** void DS1307_Start(void)
 487:.\lib_DS1307/DS1307.c **** {
 2365              		.loc 1 487 0
 2366              		.cfi_startproc
 2367 0000 80B5     		push	{r7, lr}
 2368              		.cfi_def_cfa_offset 8
 2369              		.cfi_offset 7, -8
 2370              		.cfi_offset 14, -4
 2371 0002 82B0     		sub	sp, sp, #8
 2372              		.cfi_def_cfa_offset 16
 2373 0004 00AF     		add	r7, sp, #0
 2374              		.cfi_def_cfa_register 7
 488:.\lib_DS1307/DS1307.c ****     uint8_t data ;
 489:.\lib_DS1307/DS1307.c ****     uint32_t status;
 490:.\lib_DS1307/DS1307.c ****     
 491:.\lib_DS1307/DS1307.c ****     data = DS1307_currentTimeDate.second & (~DS1307_OFF_MASK); 
 2375              		.loc 1 491 0
 2376 0006 114B     		ldr	r3, .L114
 2377 0008 1A78     		ldrb	r2, [r3]
 2378 000a FB1D     		add	r3, r7, #7
 2379 000c 7F21     		mov	r1, #127
 2380 000e 0A40     		and	r2, r1
 2381 0010 1A70     		strb	r2, [r3]
 492:.\lib_DS1307/DS1307.c ****     
 493:.\lib_DS1307/DS1307.c ****     I2C_Start();
 2382              		.loc 1 493 0
 2383 0012 FFF7FEFF 		bl	I2C_Start
 494:.\lib_DS1307/DS1307.c ****     I2C_I2CMasterClearStatus();
 2384              		.loc 1 494 0
 2385 0016 FFF7FEFF 		bl	I2C_I2CMasterClearStatus
 495:.\lib_DS1307/DS1307.c ****     status = I2C_I2CMasterSendStart(DS1307_SLAVE_ADRESS, I2C_I2C_WRITE_XFER_MODE);
 2386              		.loc 1 495 0
 2387 001a 6820     		mov	r0, #104
 2388 001c 0021     		mov	r1, #0
 2389 001e FFF7FEFF 		bl	I2C_I2CMasterSendStart
 2390 0022 031C     		mov	r3, r0
 2391 0024 3B60     		str	r3, [r7]
 496:.\lib_DS1307/DS1307.c ****     I2C_I2CMasterWriteByte(DS1307_NULL_ADRESS);
 2392              		.loc 1 496 0
 2393 0026 0020     		mov	r0, #0
 2394 0028 FFF7FEFF 		bl	I2C_I2CMasterWriteByte
 497:.\lib_DS1307/DS1307.c ****     if(I2C_I2C_MSTR_NO_ERROR == status) 
 2395              		.loc 1 497 0
ARM GAS  C:\Users\Petro\AppData\Local\Temp\ccQL3rGK.s 			page 52


 2396 002c 3B68     		ldr	r3, [r7]
 2397 002e 002B     		cmp	r3, #0
 2398 0030 06D1     		bne	.L113
 498:.\lib_DS1307/DS1307.c ****     {
 499:.\lib_DS1307/DS1307.c ****         status = I2C_I2CMasterWriteByte(data);
 2399              		.loc 1 499 0
 2400 0032 FB1D     		add	r3, r7, #7
 2401 0034 1B78     		ldrb	r3, [r3]
 2402 0036 181C     		mov	r0, r3
 2403 0038 FFF7FEFF 		bl	I2C_I2CMasterWriteByte
 2404 003c 031C     		mov	r3, r0
 2405 003e 3B60     		str	r3, [r7]
 2406              	.L113:
 500:.\lib_DS1307/DS1307.c ****     }
 501:.\lib_DS1307/DS1307.c ****     I2C_I2CMasterSendStop();
 2407              		.loc 1 501 0
 2408 0040 FFF7FEFF 		bl	I2C_I2CMasterSendStop
 502:.\lib_DS1307/DS1307.c **** }
 2409              		.loc 1 502 0
 2410 0044 BD46     		mov	sp, r7
 2411 0046 02B0     		add	sp, sp, #8
 2412              		@ sp needed
 2413 0048 80BD     		pop	{r7, pc}
 2414              	.L115:
 2415 004a C046     		.align	2
 2416              	.L114:
 2417 004c 00000000 		.word	DS1307_currentTimeDate
 2418              		.cfi_endproc
 2419              	.LFE9:
 2420              		.size	DS1307_Start, .-DS1307_Start
 2421              		.section	.text.DS1307_Stop,"ax",%progbits
 2422              		.align	2
 2423              		.global	DS1307_Stop
 2424              		.code	16
 2425              		.thumb_func
 2426              		.type	DS1307_Stop, %function
 2427              	DS1307_Stop:
 2428              	.LFB10:
 503:.\lib_DS1307/DS1307.c **** 
 504:.\lib_DS1307/DS1307.c **** void DS1307_Stop(void)
 505:.\lib_DS1307/DS1307.c **** {
 2429              		.loc 1 505 0
 2430              		.cfi_startproc
 2431 0000 80B5     		push	{r7, lr}
 2432              		.cfi_def_cfa_offset 8
 2433              		.cfi_offset 7, -8
 2434              		.cfi_offset 14, -4
 2435 0002 82B0     		sub	sp, sp, #8
 2436              		.cfi_def_cfa_offset 16
 2437 0004 00AF     		add	r7, sp, #0
 2438              		.cfi_def_cfa_register 7
 506:.\lib_DS1307/DS1307.c ****     uint8_t data ;
 507:.\lib_DS1307/DS1307.c ****     uint32_t status;
 508:.\lib_DS1307/DS1307.c ****     
 509:.\lib_DS1307/DS1307.c ****     data = DS1307_currentTimeDate.second | DS1307_OFF_MASK; 
 2439              		.loc 1 509 0
 2440 0006 114B     		ldr	r3, .L118
ARM GAS  C:\Users\Petro\AppData\Local\Temp\ccQL3rGK.s 			page 53


 2441 0008 1A78     		ldrb	r2, [r3]
 2442 000a FB1D     		add	r3, r7, #7
 2443 000c 8021     		mov	r1, #128
 2444 000e 4942     		neg	r1, r1
 2445 0010 0A43     		orr	r2, r1
 2446 0012 1A70     		strb	r2, [r3]
 510:.\lib_DS1307/DS1307.c ****     
 511:.\lib_DS1307/DS1307.c ****     I2C_Start();
 2447              		.loc 1 511 0
 2448 0014 FFF7FEFF 		bl	I2C_Start
 512:.\lib_DS1307/DS1307.c ****     I2C_I2CMasterClearStatus();
 2449              		.loc 1 512 0
 2450 0018 FFF7FEFF 		bl	I2C_I2CMasterClearStatus
 513:.\lib_DS1307/DS1307.c ****     status = I2C_I2CMasterSendStart(DS1307_SLAVE_ADRESS, I2C_I2C_WRITE_XFER_MODE);
 2451              		.loc 1 513 0
 2452 001c 6820     		mov	r0, #104
 2453 001e 0021     		mov	r1, #0
 2454 0020 FFF7FEFF 		bl	I2C_I2CMasterSendStart
 2455 0024 031C     		mov	r3, r0
 2456 0026 3B60     		str	r3, [r7]
 514:.\lib_DS1307/DS1307.c ****     I2C_I2CMasterWriteByte(DS1307_NULL_ADRESS);
 2457              		.loc 1 514 0
 2458 0028 0020     		mov	r0, #0
 2459 002a FFF7FEFF 		bl	I2C_I2CMasterWriteByte
 515:.\lib_DS1307/DS1307.c ****     if(I2C_I2C_MSTR_NO_ERROR == status) 
 2460              		.loc 1 515 0
 2461 002e 3B68     		ldr	r3, [r7]
 2462 0030 002B     		cmp	r3, #0
 2463 0032 06D1     		bne	.L117
 516:.\lib_DS1307/DS1307.c ****     {
 517:.\lib_DS1307/DS1307.c ****         status = I2C_I2CMasterWriteByte(data);
 2464              		.loc 1 517 0
 2465 0034 FB1D     		add	r3, r7, #7
 2466 0036 1B78     		ldrb	r3, [r3]
 2467 0038 181C     		mov	r0, r3
 2468 003a FFF7FEFF 		bl	I2C_I2CMasterWriteByte
 2469 003e 031C     		mov	r3, r0
 2470 0040 3B60     		str	r3, [r7]
 2471              	.L117:
 518:.\lib_DS1307/DS1307.c ****     }
 519:.\lib_DS1307/DS1307.c ****     I2C_I2CMasterSendStop();
 2472              		.loc 1 519 0
 2473 0042 FFF7FEFF 		bl	I2C_I2CMasterSendStop
 520:.\lib_DS1307/DS1307.c **** }
 2474              		.loc 1 520 0
 2475 0046 BD46     		mov	sp, r7
 2476 0048 02B0     		add	sp, sp, #8
 2477              		@ sp needed
 2478 004a 80BD     		pop	{r7, pc}
 2479              	.L119:
 2480              		.align	2
 2481              	.L118:
 2482 004c 00000000 		.word	DS1307_currentTimeDate
 2483              		.cfi_endproc
 2484              	.LFE10:
 2485              		.size	DS1307_Stop, .-DS1307_Stop
 2486              		.text
ARM GAS  C:\Users\Petro\AppData\Local\Temp\ccQL3rGK.s 			page 54


 2487              	.Letext0:
 2488              		.file 2 "c:\\program files (x86)\\cypress\\psoc creator\\3.3\\psoc creator\\import\\gnu\\arm\\4.9.
 2489              		.file 3 "c:\\program files (x86)\\cypress\\psoc creator\\3.3\\psoc creator\\import\\gnu\\arm\\4.9.
 2490              		.file 4 "Generated_Source\\PSoC4/cytypes.h"
 2491              		.file 5 "./lib_DS1307\\DS1307.h"