ARM GAS  C:\Users\Petro\AppData\Local\Temp\cctrdDFV.s 			page 1


   1              		.cpu cortex-m0
   2              		.fpu softvfp
   3              		.eabi_attribute 20, 1
   4              		.eabi_attribute 21, 1
   5              		.eabi_attribute 23, 3
   6              		.eabi_attribute 24, 1
   7              		.eabi_attribute 25, 1
   8              		.eabi_attribute 26, 1
   9              		.eabi_attribute 30, 6
  10              		.eabi_attribute 34, 0
  11              		.eabi_attribute 18, 4
  12              		.code	16
  13              		.file	"DS1307.c"
  14              		.text
  15              	.Ltext0:
  16              		.cfi_sections	.debug_frame
  17              		.data
  18              		.align	2
  19              		.type	DS1307_daysBeforeMonthTbl1, %object
  20              		.size	DS1307_daysBeforeMonthTbl1, 24
  21              	DS1307_daysBeforeMonthTbl1:
  22 0000 0000     		.short	0
  23 0002 1F00     		.short	31
  24 0004 3B00     		.short	59
  25 0006 5A00     		.short	90
  26 0008 7800     		.short	120
  27 000a 9700     		.short	151
  28 000c B500     		.short	181
  29 000e D400     		.short	212
  30 0010 F300     		.short	243
  31 0012 1101     		.short	273
  32 0014 3001     		.short	304
  33 0016 4E01     		.short	334
  34              		.align	2
  35              		.type	DS1307_daysInMonthTbl, %object
  36              		.size	DS1307_daysInMonthTbl, 12
  37              	DS1307_daysInMonthTbl:
  38 0018 1F       		.byte	31
  39 0019 1C       		.byte	28
  40 001a 1F       		.byte	31
  41 001b 1E       		.byte	30
  42 001c 1F       		.byte	31
  43 001d 1E       		.byte	30
  44 001e 1F       		.byte	31
  45 001f 1F       		.byte	31
  46 0020 1E       		.byte	30
  47 0021 1F       		.byte	31
  48 0022 1E       		.byte	30
  49 0023 1F       		.byte	31
  50              		.comm	DS1307_currentTimeDate,10,4
  51              		.section	.text.DS1307_ReadTimeToStruct,"ax",%progbits
  52              		.align	2
  53              		.code	16
  54              		.thumb_func
  55              		.type	DS1307_ReadTimeToStruct, %function
  56              	DS1307_ReadTimeToStruct:
  57              	.LFB2:
ARM GAS  C:\Users\Petro\AppData\Local\Temp\cctrdDFV.s 			page 2


  58              		.file 1 ".\\lib_DS1307\\DS1307.c"
   1:.\lib_DS1307/DS1307.c **** #include "lib_DS1307\DS1307.h"
   2:.\lib_DS1307/DS1307.c **** #include <I2C.h>
   3:.\lib_DS1307/DS1307.c **** #include <I2C_I2C.h>
   4:.\lib_DS1307/DS1307.c **** 
   5:.\lib_DS1307/DS1307.c **** /*struct for time*/
   6:.\lib_DS1307/DS1307.c **** typedef struct
   7:.\lib_DS1307/DS1307.c **** {
   8:.\lib_DS1307/DS1307.c ****     uint8_t second;
   9:.\lib_DS1307/DS1307.c ****     uint8_t minutes;
  10:.\lib_DS1307/DS1307.c ****     uint8_t hours;
  11:.\lib_DS1307/DS1307.c ****     uint8_t timeFormat;
  12:.\lib_DS1307/DS1307.c ****     uint8_t AmRm;
  13:.\lib_DS1307/DS1307.c ****     uint8_t day;
  14:.\lib_DS1307/DS1307.c ****     uint8_t date;
  15:.\lib_DS1307/DS1307.c ****     uint8_t month;
  16:.\lib_DS1307/DS1307.c ****     uint16_t year;  
  17:.\lib_DS1307/DS1307.c **** }DS1307_DATE_TIME;
  18:.\lib_DS1307/DS1307.c **** 
  19:.\lib_DS1307/DS1307.c **** /*data for DS1307*/
  20:.\lib_DS1307/DS1307.c **** #define DS1307_SLAVE_ADRESS (0x68)
  21:.\lib_DS1307/DS1307.c **** #define DS1307_NULL_ADRESS  (0x00)
  22:.\lib_DS1307/DS1307.c **** #define DS1307_NUMBER_OF_BYTES     (0x07)
  23:.\lib_DS1307/DS1307.c **** 
  24:.\lib_DS1307/DS1307.c **** 
  25:.\lib_DS1307/DS1307.c **** #define DS1307_SEC_MASK         (0x0f)
  26:.\lib_DS1307/DS1307.c **** #define DS1307_10_SEC_MASK      (0x70)
  27:.\lib_DS1307/DS1307.c **** #define DS1307_MIN_MASK         (0x0f)
  28:.\lib_DS1307/DS1307.c **** #define DS1307_10_MIN_MASK      (0x70)
  29:.\lib_DS1307/DS1307.c **** #define DS1307_HOUR_MASK        (0x0f)
  30:.\lib_DS1307/DS1307.c **** #define DS1307_10_12HOUR_MASK   (0x10)
  31:.\lib_DS1307/DS1307.c **** #define DS1307_10_24HOUR_MASK   (0x30)
  32:.\lib_DS1307/DS1307.c **** #define DS1307_DAY_MASK         (0x07)
  33:.\lib_DS1307/DS1307.c **** #define DS1307_DATE_MASK        (0x0f)
  34:.\lib_DS1307/DS1307.c **** #define DS1307_10_DATE_MASK     (0x30)
  35:.\lib_DS1307/DS1307.c **** #define DS1307_MONTH_MASK       (0x0f)
  36:.\lib_DS1307/DS1307.c **** #define DS1307_10_MONTH_MASK    (0x10)
  37:.\lib_DS1307/DS1307.c **** #define DS1307_YEAR_MASK        (0x0f)
  38:.\lib_DS1307/DS1307.c **** #define DS1307_10_YEAR_MASK     (0xf0)
  39:.\lib_DS1307/DS1307.c **** #define DS1307_TIME_FORMAT_MASK (0x40)
  40:.\lib_DS1307/DS1307.c **** #define DS1307_AM_RM_MASK       (0x20)
  41:.\lib_DS1307/DS1307.c **** #define DS1307_OFF_MASK         (0x80)
  42:.\lib_DS1307/DS1307.c **** 
  43:.\lib_DS1307/DS1307.c **** #define DS1307_SEC_ADRESS   (0x00)
  44:.\lib_DS1307/DS1307.c **** #define DS1307_MIN_ADRESS   (0x01)
  45:.\lib_DS1307/DS1307.c **** #define DS1307_HOUR_ADRESS  (0x02)
  46:.\lib_DS1307/DS1307.c **** #define DS1307_DAY_ADRESS   (0x03)
  47:.\lib_DS1307/DS1307.c **** #define DS1307_DATE_ADRESS  (0x04)
  48:.\lib_DS1307/DS1307.c **** #define DS1307_MONTH_ADRESS (0x05)
  49:.\lib_DS1307/DS1307.c **** #define DS1307_YEAR_ADRESS  (0x06)
  50:.\lib_DS1307/DS1307.c **** 
  51:.\lib_DS1307/DS1307.c **** /* Time format definitions */
  52:.\lib_DS1307/DS1307.c **** #define DS1307_PM                  (0u)
  53:.\lib_DS1307/DS1307.c **** #define DS1307_AM                  (1u)
  54:.\lib_DS1307/DS1307.c **** #define DS1307_12TIME_FORMAT       (0u)
  55:.\lib_DS1307/DS1307.c **** #define DS1307_24TIME_FORMAT       (1u)
  56:.\lib_DS1307/DS1307.c **** #define DS1307_UNIX_TIME_PM   ((12uL * 3600uL) + 1uL)
ARM GAS  C:\Users\Petro\AppData\Local\Temp\cctrdDFV.s 			page 3


  57:.\lib_DS1307/DS1307.c **** 
  58:.\lib_DS1307/DS1307.c **** /* Definition of time register fields */
  59:.\lib_DS1307/DS1307.c **** #define DS1307_TIME_FORMAT_OFFSET     (23u)
  60:.\lib_DS1307/DS1307.c **** #define DS1307_PERIOD_OF_DAY_OFFSET   (22u)
  61:.\lib_DS1307/DS1307.c **** #define DS1307_10_HOURS_OFFSET        (20u)
  62:.\lib_DS1307/DS1307.c **** #define DS1307_HOURS_OFFSET           (16u)
  63:.\lib_DS1307/DS1307.c **** #define DS1307_10_MINUTES_OFFSET      (12u)
  64:.\lib_DS1307/DS1307.c **** #define DS1307_MINUTES_OFFSET         (8u)
  65:.\lib_DS1307/DS1307.c **** #define DS1307_10_SECONDS_OFFSET      (4u)
  66:.\lib_DS1307/DS1307.c **** #define DS1307_SECONDS_OFFSET         (0u)
  67:.\lib_DS1307/DS1307.c **** 
  68:.\lib_DS1307/DS1307.c **** /* Definition of date register fields */
  69:.\lib_DS1307/DS1307.c **** #define DS1307_10_MONTH_OFFSET   (28u)
  70:.\lib_DS1307/DS1307.c **** #define DS1307_MONTH_OFFSET      (24u)
  71:.\lib_DS1307/DS1307.c **** #define DS1307_10_DAY_OFFSET     (20u)
  72:.\lib_DS1307/DS1307.c **** #define DS1307_DAY_OFFSET        (16u)
  73:.\lib_DS1307/DS1307.c **** #define DS1307_1000_YEAR_OFFSET  (12u)
  74:.\lib_DS1307/DS1307.c **** #define DS1307_100_YEAR_OFFSET   (8u)
  75:.\lib_DS1307/DS1307.c **** #define DS1307_10_YEAR_OFFSET    (4u)
  76:.\lib_DS1307/DS1307.c **** #define DS1307_YEAR_OFFSET       (0u)
  77:.\lib_DS1307/DS1307.c **** 
  78:.\lib_DS1307/DS1307.c **** /*Define for unix time*/
  79:.\lib_DS1307/DS1307.c **** /* UNIX time begins in 1970 year.  */
  80:.\lib_DS1307/DS1307.c **** #define DS1307_YEAR_0             (1970u)
  81:.\lib_DS1307/DS1307.c **** #define DS1307_SECONDS_PER_LEAP_YEAR    (366uL * 24uL * 3600uL)
  82:.\lib_DS1307/DS1307.c **** #define DS1307_SECONDS_PER_NONLEAP_YEAR (365uL * 24uL * 3600uL)
  83:.\lib_DS1307/DS1307.c **** #define DS1307_MONTHS_PER_YEAR     (12uL)
  84:.\lib_DS1307/DS1307.c **** #define DS1307_HOURS_PER_DAY       (24uL)
  85:.\lib_DS1307/DS1307.c **** #define DS1307_HOURS_PER_HALF_DAY  (12uL)
  86:.\lib_DS1307/DS1307.c **** #define DS1307_SECONDS_PER_MINUTE  (60uL)
  87:.\lib_DS1307/DS1307.c **** #define DS1307_SECONDS_PER_HOUR    (3600uL)
  88:.\lib_DS1307/DS1307.c **** #define DS1307_SECONDS_PER_DAY     (24uL * 3600uL)
  89:.\lib_DS1307/DS1307.c **** 
  90:.\lib_DS1307/DS1307.c **** #define DS1307_10_MONTH_MASK_UNIX          (0x00000001uL << DS1307_10_MONTH_OFFSET)
  91:.\lib_DS1307/DS1307.c **** #define DS1307_MONTH_MASK_UNIX             (0x0000000FuL << DS1307_MONTH_OFFSET)
  92:.\lib_DS1307/DS1307.c **** #define DS1307_10_DAY_MASK_UNIX            (0x00000003uL << DS1307_10_DAY_OFFSET)
  93:.\lib_DS1307/DS1307.c **** #define DS1307_DAY_MASK_UNIX               (0x0000000FuL << DS1307_DAY_OFFSET)
  94:.\lib_DS1307/DS1307.c **** #define DS1307_1000_YEAR_MASK_UNIX         (0x00000003uL << DS1307_1000_YEAR_OFFSET)
  95:.\lib_DS1307/DS1307.c **** #define DS1307_100_YEAR_MASK_UNIX          (0x0000000FuL << DS1307_100_YEAR_OFFSET)
  96:.\lib_DS1307/DS1307.c **** #define DS1307_10_YEAR_MASK_UNIX           (0x0000000FuL << DS1307_10_YEAR_OFFSET)
  97:.\lib_DS1307/DS1307.c **** #define DS1307_YEAR_MASK_UNIX              (0x0000000FuL << DS1307_YEAR_OFFSET)
  98:.\lib_DS1307/DS1307.c **** 
  99:.\lib_DS1307/DS1307.c **** #define DS1307_TIME_FORMAT_MASK_UNIX       (0x00000001uL << DS1307_TIME_FORMAT_OFFSET)
 100:.\lib_DS1307/DS1307.c **** #define DS1307_PERIOD_OF_DAY_MASK_UNIX     (0x00000001uL << DS1307_PERIOD_OF_DAY_OFFSET)
 101:.\lib_DS1307/DS1307.c **** #define DS1307_10_HOURS_MASK_UNIX          (0x00000003uL << DS1307_10_HOURS_OFFSET)
 102:.\lib_DS1307/DS1307.c **** #define DS1307_HOURS_MASK_UNIX             (0x0000000FuL << DS1307_HOURS_OFFSET)
 103:.\lib_DS1307/DS1307.c **** #define DS1307_10_MINUTES_MASK_UNIX        (0x00000007uL << DS1307_10_MINUTES_OFFSET)
 104:.\lib_DS1307/DS1307.c **** #define DS1307_MINUTES_MASK_UNIX           (0x0000000FuL << DS1307_MINUTES_OFFSET)
 105:.\lib_DS1307/DS1307.c **** #define DS1307_10_SECONDS_MASK_UNIX        (0x00000007uL << DS1307_10_SECONDS_OFFSET)
 106:.\lib_DS1307/DS1307.c **** #define DS1307_SECONDS_MASK_UNIX           (0x0000000FuL << DS1307_SECONDS_OFFSET)
 107:.\lib_DS1307/DS1307.c **** 
 108:.\lib_DS1307/DS1307.c **** /* Number of days in month definitions */
 109:.\lib_DS1307/DS1307.c **** #define DS1307_DAYS_IN_JANUARY     (31u)
 110:.\lib_DS1307/DS1307.c **** #define DS1307_DAYS_IN_FEBRUARY    (28u)
 111:.\lib_DS1307/DS1307.c **** #define DS1307_DAYS_IN_MARCH       (31u)
 112:.\lib_DS1307/DS1307.c **** #define DS1307_DAYS_IN_APRIL       (30u)
 113:.\lib_DS1307/DS1307.c **** #define DS1307_DAYS_IN_MAY         (31u)
ARM GAS  C:\Users\Petro\AppData\Local\Temp\cctrdDFV.s 			page 4


 114:.\lib_DS1307/DS1307.c **** #define DS1307_DAYS_IN_JUNE        (30u)
 115:.\lib_DS1307/DS1307.c **** #define DS1307_DAYS_IN_JULY        (31u)
 116:.\lib_DS1307/DS1307.c **** #define DS1307_DAYS_IN_AUGUST      (31u)
 117:.\lib_DS1307/DS1307.c **** #define DS1307_DAYS_IN_SEPTEMBER   (30u)
 118:.\lib_DS1307/DS1307.c **** #define DS1307_DAYS_IN_OCTOBER     (31u)
 119:.\lib_DS1307/DS1307.c **** #define DS1307_DAYS_IN_NOVEMBER    (30u)
 120:.\lib_DS1307/DS1307.c **** #define DS1307_DAYS_IN_DECEMBER    (31u)
 121:.\lib_DS1307/DS1307.c **** 
 122:.\lib_DS1307/DS1307.c **** /* Month definitions */
 123:.\lib_DS1307/DS1307.c **** #define DS1307_JANUARY    (1)
 124:.\lib_DS1307/DS1307.c **** #define DS1307_FEBRUARY   (2)
 125:.\lib_DS1307/DS1307.c **** #define DS1307_MARCH      (3)
 126:.\lib_DS1307/DS1307.c **** #define DS1307_APRIL      (4)
 127:.\lib_DS1307/DS1307.c **** #define DS1307_MAY        (5)
 128:.\lib_DS1307/DS1307.c **** #define DS1307_JUNE       (6)
 129:.\lib_DS1307/DS1307.c **** #define DS1307_JULY       (7)
 130:.\lib_DS1307/DS1307.c **** #define DS1307_AUGUST     (8)
 131:.\lib_DS1307/DS1307.c **** #define DS1307_SEPTEMBER  (9)
 132:.\lib_DS1307/DS1307.c **** #define DS1307_OCTOBER    (10)
 133:.\lib_DS1307/DS1307.c **** #define DS1307_NOVEMBER   (11)
 134:.\lib_DS1307/DS1307.c **** #define DS1307_DECEMBER   (12)
 135:.\lib_DS1307/DS1307.c **** 
 136:.\lib_DS1307/DS1307.c **** static uint16 DS1307_daysBeforeMonthTbl1[DS1307_MONTHS_PER_YEAR] = {
 137:.\lib_DS1307/DS1307.c ****                                                  (0u), /* JANUARY */
 138:.\lib_DS1307/DS1307.c ****                                                  (0u + 31u), /* FEBRUARY */
 139:.\lib_DS1307/DS1307.c ****                                                  (0u + 31u + 28u), /* MARCH */
 140:.\lib_DS1307/DS1307.c ****                                                  (0u + 31u + 28u + 31u), /* APRIL */
 141:.\lib_DS1307/DS1307.c ****                                                  (0u + 31u + 28u + 31u + 30u), /* MAY */
 142:.\lib_DS1307/DS1307.c ****                                                  (0u + 31u + 28u + 31u + 30u + 31u), /* JUNE */
 143:.\lib_DS1307/DS1307.c ****                                                  (0u + 31u + 28u + 31u + 30u + 31u + 30u), /* JULY 
 144:.\lib_DS1307/DS1307.c ****                                                  (0u + 31u + 28u + 31u + 30u + 31u + 30u + 31u), /*
 145:.\lib_DS1307/DS1307.c ****                                                  (0u + 31u + 28u + 31u + 30u + 31u + 30u + 31u + 31
 146:.\lib_DS1307/DS1307.c ****                                                  (0u + 31u + 28u + 31u + 30u + 31u + 30u + 31u + 31
 147:.\lib_DS1307/DS1307.c ****                                                  (0u + 31u + 28u + 31u + 30u + 31u + 30u + 31u + 31
 148:.\lib_DS1307/DS1307.c ****                                                  (0u + 31u + 28u + 31u + 30u + 31u + 30u + 31u + 31
 149:.\lib_DS1307/DS1307.c **** 
 150:.\lib_DS1307/DS1307.c **** static uint8 DS1307_daysInMonthTbl[DS1307_MONTHS_PER_YEAR] = {DS1307_DAYS_IN_JANUARY,
 151:.\lib_DS1307/DS1307.c ****                                                             DS1307_DAYS_IN_FEBRUARY,
 152:.\lib_DS1307/DS1307.c ****                                                             DS1307_DAYS_IN_MARCH,
 153:.\lib_DS1307/DS1307.c ****                                                             DS1307_DAYS_IN_APRIL,
 154:.\lib_DS1307/DS1307.c ****                                                             DS1307_DAYS_IN_MAY,
 155:.\lib_DS1307/DS1307.c ****                                                             DS1307_DAYS_IN_JUNE,
 156:.\lib_DS1307/DS1307.c ****                                                             DS1307_DAYS_IN_JULY,
 157:.\lib_DS1307/DS1307.c ****                                                             DS1307_DAYS_IN_AUGUST,
 158:.\lib_DS1307/DS1307.c ****                                                             DS1307_DAYS_IN_SEPTEMBER,
 159:.\lib_DS1307/DS1307.c ****                                                             DS1307_DAYS_IN_OCTOBER,
 160:.\lib_DS1307/DS1307.c ****                                                             DS1307_DAYS_IN_NOVEMBER,
 161:.\lib_DS1307/DS1307.c ****                                                             DS1307_DAYS_IN_DECEMBER};
 162:.\lib_DS1307/DS1307.c **** 
 163:.\lib_DS1307/DS1307.c **** 
 164:.\lib_DS1307/DS1307.c **** static uint32 DS1307_ReadTimeToStruct(void);
 165:.\lib_DS1307/DS1307.c **** static void DS1307_WriteTimeFromStruct(void);
 166:.\lib_DS1307/DS1307.c **** static uint32_t DS1307_ConstructTime(uint32 timeFormat, uint32 stateAmPm, uint32 hour, uint32 min, 
 167:.\lib_DS1307/DS1307.c **** static uint32 DS1307_ConstructDate(uint32 month, uint32 day, uint32 year);
 168:.\lib_DS1307/DS1307.c **** static uint64 DS1307_DateTimeToUnix(uint32 inputDate, uint32 inputTime);
 169:.\lib_DS1307/DS1307.c **** 
 170:.\lib_DS1307/DS1307.c **** DS1307_DATE_TIME DS1307_currentTimeDate ;
ARM GAS  C:\Users\Petro\AppData\Local\Temp\cctrdDFV.s 			page 5


 171:.\lib_DS1307/DS1307.c **** 
 172:.\lib_DS1307/DS1307.c **** 
 173:.\lib_DS1307/DS1307.c **** 
 174:.\lib_DS1307/DS1307.c **** /*******************************************************************************
 175:.\lib_DS1307/DS1307.c **** * Function Name: DS1307_ReadTimeToStruct
 176:.\lib_DS1307/DS1307.c **** ********************************************************************************
 177:.\lib_DS1307/DS1307.c **** *
 178:.\lib_DS1307/DS1307.c **** * Summary:
 179:.\lib_DS1307/DS1307.c **** *   Read real time from chip DS1307
 180:.\lib_DS1307/DS1307.c **** *
 181:.\lib_DS1307/DS1307.c **** * Return:
 182:.\lib_DS1307/DS1307.c **** *   status the I2C connect
 183:.\lib_DS1307/DS1307.c **** *
 184:.\lib_DS1307/DS1307.c **** *******************************************************************************/
 185:.\lib_DS1307/DS1307.c **** static uint32 DS1307_ReadTimeToStruct(void)
 186:.\lib_DS1307/DS1307.c **** {
  59              		.loc 1 186 0
  60              		.cfi_startproc
  61 0000 80B5     		push	{r7, lr}
  62              		.cfi_def_cfa_offset 8
  63              		.cfi_offset 7, -8
  64              		.cfi_offset 14, -4
  65 0002 84B0     		sub	sp, sp, #16
  66              		.cfi_def_cfa_offset 24
  67 0004 00AF     		add	r7, sp, #0
  68              		.cfi_def_cfa_register 7
 187:.\lib_DS1307/DS1307.c ****     uint8_t data[DS1307_NUMBER_OF_BYTES];
 188:.\lib_DS1307/DS1307.c ****     uint32_t status;    
 189:.\lib_DS1307/DS1307.c ****     int i;
 190:.\lib_DS1307/DS1307.c ****     
 191:.\lib_DS1307/DS1307.c ****     I2C_Start();
  69              		.loc 1 191 0
  70 0006 FFF7FEFF 		bl	I2C_Start
 192:.\lib_DS1307/DS1307.c ****     
 193:.\lib_DS1307/DS1307.c ****     /*reset pointer register reading*/
 194:.\lib_DS1307/DS1307.c ****     //I2C_I2CMasterClearStatus();
 195:.\lib_DS1307/DS1307.c ****     status = I2C_I2CMasterSendStart(DS1307_SLAVE_ADRESS,I2C_I2C_WRITE_XFER_MODE);
  71              		.loc 1 195 0
  72 000a 6820     		mov	r0, #104
  73 000c 0021     		mov	r1, #0
  74 000e FFF7FEFF 		bl	I2C_I2CMasterSendStart
  75 0012 031C     		mov	r3, r0
  76 0014 BB60     		str	r3, [r7, #8]
 196:.\lib_DS1307/DS1307.c ****     if(status == I2C_I2C_MSTR_NO_ERROR)
  77              		.loc 1 196 0
  78 0016 BB68     		ldr	r3, [r7, #8]
  79 0018 002B     		cmp	r3, #0
  80 001a 10D1     		bne	.L2
 197:.\lib_DS1307/DS1307.c ****     {
 198:.\lib_DS1307/DS1307.c ****         I2C_I2CMasterWriteByte(DS1307_NULL_ADRESS);
  81              		.loc 1 198 0
  82 001c 0020     		mov	r0, #0
  83 001e FFF7FEFF 		bl	I2C_I2CMasterWriteByte
 199:.\lib_DS1307/DS1307.c ****     }
 200:.\lib_DS1307/DS1307.c ****     else 
 201:.\lib_DS1307/DS1307.c ****     {
 202:.\lib_DS1307/DS1307.c ****         /*error connect from DS1307*/
ARM GAS  C:\Users\Petro\AppData\Local\Temp\cctrdDFV.s 			page 6


 203:.\lib_DS1307/DS1307.c ****         return status;
 204:.\lib_DS1307/DS1307.c ****     }
 205:.\lib_DS1307/DS1307.c ****     I2C_I2CMasterSendStop();
  84              		.loc 1 205 0
  85 0022 FFF7FEFF 		bl	I2C_I2CMasterSendStop
 206:.\lib_DS1307/DS1307.c **** 
 207:.\lib_DS1307/DS1307.c ****     /*read data*/
 208:.\lib_DS1307/DS1307.c ****     I2C_I2CMasterClearStatus();
  86              		.loc 1 208 0
  87 0026 FFF7FEFF 		bl	I2C_I2CMasterClearStatus
 209:.\lib_DS1307/DS1307.c ****     status = I2C_I2CMasterSendStart(DS1307_SLAVE_ADRESS,I2C_I2C_READ_XFER_MODE);
  88              		.loc 1 209 0
  89 002a 6820     		mov	r0, #104
  90 002c 0121     		mov	r1, #1
  91 002e FFF7FEFF 		bl	I2C_I2CMasterSendStart
  92 0032 031C     		mov	r3, r0
  93 0034 BB60     		str	r3, [r7, #8]
 210:.\lib_DS1307/DS1307.c ****     if(I2C_I2C_MSTR_NO_ERROR == status) 
  94              		.loc 1 210 0
  95 0036 BB68     		ldr	r3, [r7, #8]
  96 0038 002B     		cmp	r3, #0
  97 003a 23D1     		bne	.L5
  98 003c 01E0     		b	.L13
  99              	.L2:
 203:.\lib_DS1307/DS1307.c ****     }
 100              		.loc 1 203 0
 101 003e BB68     		ldr	r3, [r7, #8]
 102 0040 D5E0     		b	.L12
 103              	.L13:
 211:.\lib_DS1307/DS1307.c ****     {
 212:.\lib_DS1307/DS1307.c ****         /*write data in buffer*/
 213:.\lib_DS1307/DS1307.c ****         for(i=0; i<DS1307_NUMBER_OF_BYTES; i++)
 104              		.loc 1 213 0
 105 0042 0023     		mov	r3, #0
 106 0044 FB60     		str	r3, [r7, #12]
 107 0046 1AE0     		b	.L6
 108              	.L9:
 214:.\lib_DS1307/DS1307.c ****         {   
 215:.\lib_DS1307/DS1307.c ****             if(i < DS1307_NUMBER_OF_BYTES-1)
 109              		.loc 1 215 0
 110 0048 FB68     		ldr	r3, [r7, #12]
 111 004a 052B     		cmp	r3, #5
 112 004c 0ADC     		bgt	.L7
 216:.\lib_DS1307/DS1307.c ****             {
 217:.\lib_DS1307/DS1307.c ****                 data[i] = I2C_I2CMasterReadByte(I2C_I2C_ACK_DATA);
 113              		.loc 1 217 0
 114 004e 0020     		mov	r0, #0
 115 0050 FFF7FEFF 		bl	I2C_I2CMasterReadByte
 116 0054 031C     		mov	r3, r0
 117 0056 D9B2     		uxtb	r1, r3
 118 0058 3A1C     		mov	r2, r7
 119 005a FB68     		ldr	r3, [r7, #12]
 120 005c D318     		add	r3, r2, r3
 121 005e 0A1C     		add	r2, r1, #0
 122 0060 1A70     		strb	r2, [r3]
 123 0062 09E0     		b	.L8
 124              	.L7:
ARM GAS  C:\Users\Petro\AppData\Local\Temp\cctrdDFV.s 			page 7


 218:.\lib_DS1307/DS1307.c ****             }
 219:.\lib_DS1307/DS1307.c ****             else
 220:.\lib_DS1307/DS1307.c ****             {
 221:.\lib_DS1307/DS1307.c ****                 data[i] = I2C_I2CMasterReadByte(I2C_I2C_NAK_DATA);
 125              		.loc 1 221 0
 126 0064 0120     		mov	r0, #1
 127 0066 FFF7FEFF 		bl	I2C_I2CMasterReadByte
 128 006a 031C     		mov	r3, r0
 129 006c D9B2     		uxtb	r1, r3
 130 006e 3A1C     		mov	r2, r7
 131 0070 FB68     		ldr	r3, [r7, #12]
 132 0072 D318     		add	r3, r2, r3
 133 0074 0A1C     		add	r2, r1, #0
 134 0076 1A70     		strb	r2, [r3]
 135              	.L8:
 213:.\lib_DS1307/DS1307.c ****         {   
 136              		.loc 1 213 0 discriminator 2
 137 0078 FB68     		ldr	r3, [r7, #12]
 138 007a 0133     		add	r3, r3, #1
 139 007c FB60     		str	r3, [r7, #12]
 140              	.L6:
 213:.\lib_DS1307/DS1307.c ****         {   
 141              		.loc 1 213 0 is_stmt 0 discriminator 1
 142 007e FB68     		ldr	r3, [r7, #12]
 143 0080 062B     		cmp	r3, #6
 144 0082 E1DD     		ble	.L9
 145              	.L5:
 222:.\lib_DS1307/DS1307.c ****             }
 223:.\lib_DS1307/DS1307.c ****         }
 224:.\lib_DS1307/DS1307.c ****     }
 225:.\lib_DS1307/DS1307.c ****     I2C_I2CMasterSendStop();
 146              		.loc 1 225 0 is_stmt 1
 147 0084 FFF7FEFF 		bl	I2C_I2CMasterSendStop
 226:.\lib_DS1307/DS1307.c ****     I2C_Stop();
 148              		.loc 1 226 0
 149 0088 FFF7FEFF 		bl	I2C_Stop
 227:.\lib_DS1307/DS1307.c ****     
 228:.\lib_DS1307/DS1307.c ****     /*write data from buffer in struct*/
 229:.\lib_DS1307/DS1307.c ****     DS1307_currentTimeDate.second =  (data[DS1307_SEC_ADRESS]& DS1307_SEC_MASK)+(((data[DS1307_SEC_
 150              		.loc 1 229 0
 151 008c 3B1C     		mov	r3, r7
 152 008e 1B78     		ldrb	r3, [r3]
 153 0090 0F22     		mov	r2, #15
 154 0092 1340     		and	r3, r2
 155 0094 DAB2     		uxtb	r2, r3
 156 0096 3B1C     		mov	r3, r7
 157 0098 1B78     		ldrb	r3, [r3]
 158 009a 191C     		mov	r1, r3
 159 009c 7023     		mov	r3, #112
 160 009e 0B40     		and	r3, r1
 161 00a0 1B11     		asr	r3, r3, #4
 162 00a2 DBB2     		uxtb	r3, r3
 163 00a4 191C     		add	r1, r3, #0
 164 00a6 8900     		lsl	r1, r1, #2
 165 00a8 CB18     		add	r3, r1, r3
 166 00aa DB18     		add	r3, r3, r3
 167 00ac DBB2     		uxtb	r3, r3
ARM GAS  C:\Users\Petro\AppData\Local\Temp\cctrdDFV.s 			page 8


 168 00ae D318     		add	r3, r2, r3
 169 00b0 DAB2     		uxtb	r2, r3
 170 00b2 514B     		ldr	r3, .L14
 171 00b4 1A70     		strb	r2, [r3]
 230:.\lib_DS1307/DS1307.c ****     DS1307_currentTimeDate.minutes = (data[DS1307_MIN_ADRESS]& DS1307_MIN_MASK)+(((data[DS1307_MIN_
 172              		.loc 1 230 0
 173 00b6 3B1C     		mov	r3, r7
 174 00b8 5B78     		ldrb	r3, [r3, #1]
 175 00ba 0F22     		mov	r2, #15
 176 00bc 1340     		and	r3, r2
 177 00be DAB2     		uxtb	r2, r3
 178 00c0 3B1C     		mov	r3, r7
 179 00c2 5B78     		ldrb	r3, [r3, #1]
 180 00c4 191C     		mov	r1, r3
 181 00c6 7023     		mov	r3, #112
 182 00c8 0B40     		and	r3, r1
 183 00ca 1B11     		asr	r3, r3, #4
 184 00cc DBB2     		uxtb	r3, r3
 185 00ce 191C     		add	r1, r3, #0
 186 00d0 8900     		lsl	r1, r1, #2
 187 00d2 CB18     		add	r3, r1, r3
 188 00d4 DB18     		add	r3, r3, r3
 189 00d6 DBB2     		uxtb	r3, r3
 190 00d8 D318     		add	r3, r2, r3
 191 00da DAB2     		uxtb	r2, r3
 192 00dc 464B     		ldr	r3, .L14
 193 00de 5A70     		strb	r2, [r3, #1]
 231:.\lib_DS1307/DS1307.c ****     DS1307_currentTimeDate.timeFormat = (data[DS1307_HOUR_ADRESS] & DS1307_TIME_FORMAT_MASK)>>6;
 194              		.loc 1 231 0
 195 00e0 3B1C     		mov	r3, r7
 196 00e2 9B78     		ldrb	r3, [r3, #2]
 197 00e4 1A1C     		mov	r2, r3
 198 00e6 4023     		mov	r3, #64
 199 00e8 1340     		and	r3, r2
 200 00ea 9B11     		asr	r3, r3, #6
 201 00ec DAB2     		uxtb	r2, r3
 202 00ee 424B     		ldr	r3, .L14
 203 00f0 DA70     		strb	r2, [r3, #3]
 232:.\lib_DS1307/DS1307.c ****     if(DS1307_currentTimeDate.timeFormat == DS1307_12TIME_FORMAT)
 204              		.loc 1 232 0
 205 00f2 414B     		ldr	r3, .L14
 206 00f4 DB78     		ldrb	r3, [r3, #3]
 207 00f6 002B     		cmp	r3, #0
 208 00f8 1ED1     		bne	.L10
 233:.\lib_DS1307/DS1307.c ****     {
 234:.\lib_DS1307/DS1307.c ****         DS1307_currentTimeDate.hours = (data[DS1307_HOUR_ADRESS]& DS1307_HOUR_MASK)+(((data[DS1307_
 209              		.loc 1 234 0
 210 00fa 3B1C     		mov	r3, r7
 211 00fc 9B78     		ldrb	r3, [r3, #2]
 212 00fe 0F22     		mov	r2, #15
 213 0100 1340     		and	r3, r2
 214 0102 DAB2     		uxtb	r2, r3
 215 0104 3B1C     		mov	r3, r7
 216 0106 9B78     		ldrb	r3, [r3, #2]
 217 0108 191C     		mov	r1, r3
 218 010a 1023     		mov	r3, #16
 219 010c 0B40     		and	r3, r1
ARM GAS  C:\Users\Petro\AppData\Local\Temp\cctrdDFV.s 			page 9


 220 010e 1B11     		asr	r3, r3, #4
 221 0110 DBB2     		uxtb	r3, r3
 222 0112 191C     		add	r1, r3, #0
 223 0114 8900     		lsl	r1, r1, #2
 224 0116 CB18     		add	r3, r1, r3
 225 0118 DB18     		add	r3, r3, r3
 226 011a DBB2     		uxtb	r3, r3
 227 011c D318     		add	r3, r2, r3
 228 011e DAB2     		uxtb	r2, r3
 229 0120 354B     		ldr	r3, .L14
 230 0122 9A70     		strb	r2, [r3, #2]
 235:.\lib_DS1307/DS1307.c ****         DS1307_currentTimeDate.AmRm = (data[DS1307_HOUR_ADRESS]&DS1307_AM_RM_MASK)>>5;
 231              		.loc 1 235 0
 232 0124 3B1C     		mov	r3, r7
 233 0126 9B78     		ldrb	r3, [r3, #2]
 234 0128 1A1C     		mov	r2, r3
 235 012a 2023     		mov	r3, #32
 236 012c 1340     		and	r3, r2
 237 012e 5B11     		asr	r3, r3, #5
 238 0130 DAB2     		uxtb	r2, r3
 239 0132 314B     		ldr	r3, .L14
 240 0134 1A71     		strb	r2, [r3, #4]
 241 0136 14E0     		b	.L11
 242              	.L10:
 236:.\lib_DS1307/DS1307.c ****     }
 237:.\lib_DS1307/DS1307.c ****     else 
 238:.\lib_DS1307/DS1307.c ****     {
 239:.\lib_DS1307/DS1307.c ****         DS1307_currentTimeDate.hours = (uint32_t)(data[DS1307_HOUR_ADRESS]& DS1307_HOUR_MASK) + (((
 243              		.loc 1 239 0
 244 0138 3B1C     		mov	r3, r7
 245 013a 9B78     		ldrb	r3, [r3, #2]
 246 013c 0F22     		mov	r2, #15
 247 013e 1340     		and	r3, r2
 248 0140 DAB2     		uxtb	r2, r3
 249 0142 3B1C     		mov	r3, r7
 250 0144 9B78     		ldrb	r3, [r3, #2]
 251 0146 191C     		mov	r1, r3
 252 0148 3023     		mov	r3, #48
 253 014a 0B40     		and	r3, r1
 254 014c 1B11     		asr	r3, r3, #4
 255 014e DBB2     		uxtb	r3, r3
 256 0150 191C     		add	r1, r3, #0
 257 0152 8900     		lsl	r1, r1, #2
 258 0154 CB18     		add	r3, r1, r3
 259 0156 DB18     		add	r3, r3, r3
 260 0158 DBB2     		uxtb	r3, r3
 261 015a D318     		add	r3, r2, r3
 262 015c DAB2     		uxtb	r2, r3
 263 015e 264B     		ldr	r3, .L14
 264 0160 9A70     		strb	r2, [r3, #2]
 265              	.L11:
 240:.\lib_DS1307/DS1307.c ****     }
 241:.\lib_DS1307/DS1307.c ****     DS1307_currentTimeDate.day = data[DS1307_DAY_ADRESS]&DS1307_DAY_MASK;
 266              		.loc 1 241 0
 267 0162 3B1C     		mov	r3, r7
 268 0164 DB78     		ldrb	r3, [r3, #3]
 269 0166 0722     		mov	r2, #7
ARM GAS  C:\Users\Petro\AppData\Local\Temp\cctrdDFV.s 			page 10


 270 0168 1340     		and	r3, r2
 271 016a DAB2     		uxtb	r2, r3
 272 016c 224B     		ldr	r3, .L14
 273 016e 5A71     		strb	r2, [r3, #5]
 242:.\lib_DS1307/DS1307.c ****     DS1307_currentTimeDate.date = (data[DS1307_DATE_ADRESS]&DS1307_DATE_MASK) + (((data[DS1307_DATE
 274              		.loc 1 242 0
 275 0170 3B1C     		mov	r3, r7
 276 0172 1B79     		ldrb	r3, [r3, #4]
 277 0174 0F22     		mov	r2, #15
 278 0176 1340     		and	r3, r2
 279 0178 DAB2     		uxtb	r2, r3
 280 017a 3B1C     		mov	r3, r7
 281 017c 1B79     		ldrb	r3, [r3, #4]
 282 017e 191C     		mov	r1, r3
 283 0180 3023     		mov	r3, #48
 284 0182 0B40     		and	r3, r1
 285 0184 1B11     		asr	r3, r3, #4
 286 0186 DBB2     		uxtb	r3, r3
 287 0188 191C     		add	r1, r3, #0
 288 018a 8900     		lsl	r1, r1, #2
 289 018c CB18     		add	r3, r1, r3
 290 018e DB18     		add	r3, r3, r3
 291 0190 DBB2     		uxtb	r3, r3
 292 0192 D318     		add	r3, r2, r3
 293 0194 DAB2     		uxtb	r2, r3
 294 0196 184B     		ldr	r3, .L14
 295 0198 9A71     		strb	r2, [r3, #6]
 243:.\lib_DS1307/DS1307.c ****     DS1307_currentTimeDate.month  = (data[DS1307_MONTH_ADRESS]&DS1307_MONTH_MASK) + (((data[DS1307_
 296              		.loc 1 243 0
 297 019a 3B1C     		mov	r3, r7
 298 019c 5B79     		ldrb	r3, [r3, #5]
 299 019e 0F22     		mov	r2, #15
 300 01a0 1340     		and	r3, r2
 301 01a2 DAB2     		uxtb	r2, r3
 302 01a4 3B1C     		mov	r3, r7
 303 01a6 5B79     		ldrb	r3, [r3, #5]
 304 01a8 191C     		mov	r1, r3
 305 01aa 1023     		mov	r3, #16
 306 01ac 0B40     		and	r3, r1
 307 01ae 1B11     		asr	r3, r3, #4
 308 01b0 DBB2     		uxtb	r3, r3
 309 01b2 191C     		add	r1, r3, #0
 310 01b4 8900     		lsl	r1, r1, #2
 311 01b6 CB18     		add	r3, r1, r3
 312 01b8 DB18     		add	r3, r3, r3
 313 01ba DBB2     		uxtb	r3, r3
 314 01bc D318     		add	r3, r2, r3
 315 01be DAB2     		uxtb	r2, r3
 316 01c0 0D4B     		ldr	r3, .L14
 317 01c2 DA71     		strb	r2, [r3, #7]
 244:.\lib_DS1307/DS1307.c ****     DS1307_currentTimeDate.year = (data[DS1307_YEAR_ADRESS]&DS1307_YEAR_MASK) + (((data[DS1307_YEAR
 318              		.loc 1 244 0
 319 01c4 3B1C     		mov	r3, r7
 320 01c6 9B79     		ldrb	r3, [r3, #6]
 321 01c8 9BB2     		uxth	r3, r3
 322 01ca 0F22     		mov	r2, #15
 323 01cc 1340     		and	r3, r2
ARM GAS  C:\Users\Petro\AppData\Local\Temp\cctrdDFV.s 			page 11


 324 01ce 9AB2     		uxth	r2, r3
 325 01d0 3B1C     		mov	r3, r7
 326 01d2 9B79     		ldrb	r3, [r3, #6]
 327 01d4 1B09     		lsr	r3, r3, #4
 328 01d6 DBB2     		uxtb	r3, r3
 329 01d8 9BB2     		uxth	r3, r3
 330 01da 191C     		add	r1, r3, #0
 331 01dc 8900     		lsl	r1, r1, #2
 332 01de CB18     		add	r3, r1, r3
 333 01e0 DB18     		add	r3, r3, r3
 334 01e2 9BB2     		uxth	r3, r3
 335 01e4 D318     		add	r3, r2, r3
 336 01e6 9AB2     		uxth	r2, r3
 337 01e8 034B     		ldr	r3, .L14
 338 01ea 1A81     		strh	r2, [r3, #8]
 245:.\lib_DS1307/DS1307.c ****     
 246:.\lib_DS1307/DS1307.c ****     return I2C_I2C_MSTR_NO_ERROR;
 339              		.loc 1 246 0
 340 01ec 0023     		mov	r3, #0
 341              	.L12:
 247:.\lib_DS1307/DS1307.c **** }
 342              		.loc 1 247 0 discriminator 1
 343 01ee 181C     		mov	r0, r3
 344 01f0 BD46     		mov	sp, r7
 345 01f2 04B0     		add	sp, sp, #16
 346              		@ sp needed
 347 01f4 80BD     		pop	{r7, pc}
 348              	.L15:
 349 01f6 C046     		.align	2
 350              	.L14:
 351 01f8 00000000 		.word	DS1307_currentTimeDate
 352              		.cfi_endproc
 353              	.LFE2:
 354              		.size	DS1307_ReadTimeToStruct, .-DS1307_ReadTimeToStruct
 355              		.global	__aeabi_uidiv
 356              		.global	__aeabi_uidivmod
 357              		.section	.text.DS1307_WriteTimeFromStruct,"ax",%progbits
 358              		.align	2
 359              		.code	16
 360              		.thumb_func
 361              		.type	DS1307_WriteTimeFromStruct, %function
 362              	DS1307_WriteTimeFromStruct:
 363              	.LFB3:
 248:.\lib_DS1307/DS1307.c **** 
 249:.\lib_DS1307/DS1307.c **** 
 250:.\lib_DS1307/DS1307.c **** /*******************************************************************************
 251:.\lib_DS1307/DS1307.c **** * Function Name: DS1307_WriteTimeFromStruct
 252:.\lib_DS1307/DS1307.c **** ********************************************************************************
 253:.\lib_DS1307/DS1307.c **** *
 254:.\lib_DS1307/DS1307.c **** * Summary:
 255:.\lib_DS1307/DS1307.c **** *   write time in chip DS1307
 256:.\lib_DS1307/DS1307.c **** *
 257:.\lib_DS1307/DS1307.c **** *******************************************************************************/
 258:.\lib_DS1307/DS1307.c **** static void DS1307_WriteTimeFromStruct(void)
 259:.\lib_DS1307/DS1307.c **** {
 364              		.loc 1 259 0
 365              		.cfi_startproc
ARM GAS  C:\Users\Petro\AppData\Local\Temp\cctrdDFV.s 			page 12


 366 0000 90B5     		push	{r4, r7, lr}
 367              		.cfi_def_cfa_offset 12
 368              		.cfi_offset 4, -12
 369              		.cfi_offset 7, -8
 370              		.cfi_offset 14, -4
 371 0002 85B0     		sub	sp, sp, #20
 372              		.cfi_def_cfa_offset 32
 373 0004 00AF     		add	r7, sp, #0
 374              		.cfi_def_cfa_register 7
 260:.\lib_DS1307/DS1307.c ****     uint32_t status;
 261:.\lib_DS1307/DS1307.c ****     int i;
 262:.\lib_DS1307/DS1307.c ****     uint8_t data[DS1307_NUMBER_OF_BYTES] ;
 263:.\lib_DS1307/DS1307.c ****     
 264:.\lib_DS1307/DS1307.c ****     /*write data from buffer*/
 265:.\lib_DS1307/DS1307.c ****     data[DS1307_SEC_ADRESS] = ((DS1307_currentTimeDate.second/10)<<4) + (DS1307_currentTimeDate.sec
 375              		.loc 1 265 0
 376 0006 7A4B     		ldr	r3, .L23
 377 0008 1B78     		ldrb	r3, [r3]
 378 000a 181C     		mov	r0, r3
 379 000c 0A21     		mov	r1, #10
 380 000e FFF7FEFF 		bl	__aeabi_uidiv
 381 0012 031C     		mov	r3, r0
 382 0014 DBB2     		uxtb	r3, r3
 383 0016 1B01     		lsl	r3, r3, #4
 384 0018 DCB2     		uxtb	r4, r3
 385 001a 754B     		ldr	r3, .L23
 386 001c 1B78     		ldrb	r3, [r3]
 387 001e 181C     		mov	r0, r3
 388 0020 0A21     		mov	r1, #10
 389 0022 FFF7FEFF 		bl	__aeabi_uidivmod
 390 0026 0B1C     		mov	r3, r1
 391 0028 DBB2     		uxtb	r3, r3
 392 002a E318     		add	r3, r4, r3
 393 002c DAB2     		uxtb	r2, r3
 394 002e 3B1C     		mov	r3, r7
 395 0030 1A70     		strb	r2, [r3]
 266:.\lib_DS1307/DS1307.c ****     data[DS1307_MIN_ADRESS] = ((DS1307_currentTimeDate.minutes/10)<<4) + (DS1307_currentTimeDate.mi
 396              		.loc 1 266 0
 397 0032 6F4B     		ldr	r3, .L23
 398 0034 5B78     		ldrb	r3, [r3, #1]
 399 0036 181C     		mov	r0, r3
 400 0038 0A21     		mov	r1, #10
 401 003a FFF7FEFF 		bl	__aeabi_uidiv
 402 003e 031C     		mov	r3, r0
 403 0040 DBB2     		uxtb	r3, r3
 404 0042 1B01     		lsl	r3, r3, #4
 405 0044 DCB2     		uxtb	r4, r3
 406 0046 6A4B     		ldr	r3, .L23
 407 0048 5B78     		ldrb	r3, [r3, #1]
 408 004a 181C     		mov	r0, r3
 409 004c 0A21     		mov	r1, #10
 410 004e FFF7FEFF 		bl	__aeabi_uidivmod
 411 0052 0B1C     		mov	r3, r1
 412 0054 DBB2     		uxtb	r3, r3
 413 0056 E318     		add	r3, r4, r3
 414 0058 DAB2     		uxtb	r2, r3
 415 005a 3B1C     		mov	r3, r7
ARM GAS  C:\Users\Petro\AppData\Local\Temp\cctrdDFV.s 			page 13


 416 005c 5A70     		strb	r2, [r3, #1]
 267:.\lib_DS1307/DS1307.c ****     if(DS1307_currentTimeDate.timeFormat == DS1307_12TIME_FORMAT)
 417              		.loc 1 267 0
 418 005e 644B     		ldr	r3, .L23
 419 0060 DB78     		ldrb	r3, [r3, #3]
 420 0062 002B     		cmp	r3, #0
 421 0064 2ED1     		bne	.L17
 268:.\lib_DS1307/DS1307.c ****     {
 269:.\lib_DS1307/DS1307.c ****         data[DS1307_HOUR_ADRESS] = ((DS1307_currentTimeDate.hours/10)<<4) + (DS1307_currentTimeDate
 422              		.loc 1 269 0
 423 0066 624B     		ldr	r3, .L23
 424 0068 9B78     		ldrb	r3, [r3, #2]
 425 006a 181C     		mov	r0, r3
 426 006c 0A21     		mov	r1, #10
 427 006e FFF7FEFF 		bl	__aeabi_uidiv
 428 0072 031C     		mov	r3, r0
 429 0074 DBB2     		uxtb	r3, r3
 430 0076 1B01     		lsl	r3, r3, #4
 431 0078 DCB2     		uxtb	r4, r3
 432 007a 5D4B     		ldr	r3, .L23
 433 007c 9B78     		ldrb	r3, [r3, #2]
 434 007e 181C     		mov	r0, r3
 435 0080 0A21     		mov	r1, #10
 436 0082 FFF7FEFF 		bl	__aeabi_uidivmod
 437 0086 0B1C     		mov	r3, r1
 438 0088 DBB2     		uxtb	r3, r3
 439 008a E318     		add	r3, r4, r3
 440 008c DAB2     		uxtb	r2, r3
 441 008e 3B1C     		mov	r3, r7
 442 0090 9A70     		strb	r2, [r3, #2]
 270:.\lib_DS1307/DS1307.c ****         data[DS1307_HOUR_ADRESS] |= (DS1307_currentTimeDate.AmRm << 5);
 443              		.loc 1 270 0
 444 0092 3B1C     		mov	r3, r7
 445 0094 9B78     		ldrb	r3, [r3, #2]
 446 0096 DAB2     		uxtb	r2, r3
 447 0098 554B     		ldr	r3, .L23
 448 009a 1B79     		ldrb	r3, [r3, #4]
 449 009c 5B01     		lsl	r3, r3, #5
 450 009e DBB2     		uxtb	r3, r3
 451 00a0 1343     		orr	r3, r2
 452 00a2 DBB2     		uxtb	r3, r3
 453 00a4 DAB2     		uxtb	r2, r3
 454 00a6 3B1C     		mov	r3, r7
 455 00a8 9A70     		strb	r2, [r3, #2]
 271:.\lib_DS1307/DS1307.c ****         data[DS1307_HOUR_ADRESS] |= (DS1307_currentTimeDate.timeFormat << 6);
 456              		.loc 1 271 0
 457 00aa 3B1C     		mov	r3, r7
 458 00ac 9B78     		ldrb	r3, [r3, #2]
 459 00ae DAB2     		uxtb	r2, r3
 460 00b0 4F4B     		ldr	r3, .L23
 461 00b2 DB78     		ldrb	r3, [r3, #3]
 462 00b4 9B01     		lsl	r3, r3, #6
 463 00b6 DBB2     		uxtb	r3, r3
 464 00b8 1343     		orr	r3, r2
 465 00ba DBB2     		uxtb	r3, r3
 466 00bc DAB2     		uxtb	r2, r3
 467 00be 3B1C     		mov	r3, r7
ARM GAS  C:\Users\Petro\AppData\Local\Temp\cctrdDFV.s 			page 14


 468 00c0 9A70     		strb	r2, [r3, #2]
 469 00c2 21E0     		b	.L18
 470              	.L17:
 272:.\lib_DS1307/DS1307.c ****     }
 273:.\lib_DS1307/DS1307.c ****     else
 274:.\lib_DS1307/DS1307.c ****     {
 275:.\lib_DS1307/DS1307.c ****         data[DS1307_HOUR_ADRESS] = ((DS1307_currentTimeDate.hours/10)<<4) + (DS1307_currentTimeDate
 471              		.loc 1 275 0
 472 00c4 4A4B     		ldr	r3, .L23
 473 00c6 9B78     		ldrb	r3, [r3, #2]
 474 00c8 181C     		mov	r0, r3
 475 00ca 0A21     		mov	r1, #10
 476 00cc FFF7FEFF 		bl	__aeabi_uidiv
 477 00d0 031C     		mov	r3, r0
 478 00d2 DBB2     		uxtb	r3, r3
 479 00d4 1B01     		lsl	r3, r3, #4
 480 00d6 DCB2     		uxtb	r4, r3
 481 00d8 454B     		ldr	r3, .L23
 482 00da 9B78     		ldrb	r3, [r3, #2]
 483 00dc 181C     		mov	r0, r3
 484 00de 0A21     		mov	r1, #10
 485 00e0 FFF7FEFF 		bl	__aeabi_uidivmod
 486 00e4 0B1C     		mov	r3, r1
 487 00e6 DBB2     		uxtb	r3, r3
 488 00e8 E318     		add	r3, r4, r3
 489 00ea DAB2     		uxtb	r2, r3
 490 00ec 3B1C     		mov	r3, r7
 491 00ee 9A70     		strb	r2, [r3, #2]
 276:.\lib_DS1307/DS1307.c ****         data[DS1307_HOUR_ADRESS] |= (DS1307_currentTimeDate.timeFormat << 6);
 492              		.loc 1 276 0
 493 00f0 3B1C     		mov	r3, r7
 494 00f2 9B78     		ldrb	r3, [r3, #2]
 495 00f4 DAB2     		uxtb	r2, r3
 496 00f6 3E4B     		ldr	r3, .L23
 497 00f8 DB78     		ldrb	r3, [r3, #3]
 498 00fa 9B01     		lsl	r3, r3, #6
 499 00fc DBB2     		uxtb	r3, r3
 500 00fe 1343     		orr	r3, r2
 501 0100 DBB2     		uxtb	r3, r3
 502 0102 DAB2     		uxtb	r2, r3
 503 0104 3B1C     		mov	r3, r7
 504 0106 9A70     		strb	r2, [r3, #2]
 505              	.L18:
 277:.\lib_DS1307/DS1307.c ****     }
 278:.\lib_DS1307/DS1307.c ****     data[DS1307_DAY_ADRESS] = DS1307_currentTimeDate.day;
 506              		.loc 1 278 0
 507 0108 394B     		ldr	r3, .L23
 508 010a 5A79     		ldrb	r2, [r3, #5]
 509 010c 3B1C     		mov	r3, r7
 510 010e DA70     		strb	r2, [r3, #3]
 279:.\lib_DS1307/DS1307.c ****     data[DS1307_DATE_ADRESS] = ((DS1307_currentTimeDate.date/10)<<4) + (DS1307_currentTimeDate.date
 511              		.loc 1 279 0
 512 0110 374B     		ldr	r3, .L23
 513 0112 9B79     		ldrb	r3, [r3, #6]
 514 0114 181C     		mov	r0, r3
 515 0116 0A21     		mov	r1, #10
 516 0118 FFF7FEFF 		bl	__aeabi_uidiv
ARM GAS  C:\Users\Petro\AppData\Local\Temp\cctrdDFV.s 			page 15


 517 011c 031C     		mov	r3, r0
 518 011e DBB2     		uxtb	r3, r3
 519 0120 1B01     		lsl	r3, r3, #4
 520 0122 DCB2     		uxtb	r4, r3
 521 0124 324B     		ldr	r3, .L23
 522 0126 9B79     		ldrb	r3, [r3, #6]
 523 0128 181C     		mov	r0, r3
 524 012a 0A21     		mov	r1, #10
 525 012c FFF7FEFF 		bl	__aeabi_uidivmod
 526 0130 0B1C     		mov	r3, r1
 527 0132 DBB2     		uxtb	r3, r3
 528 0134 E318     		add	r3, r4, r3
 529 0136 DAB2     		uxtb	r2, r3
 530 0138 3B1C     		mov	r3, r7
 531 013a 1A71     		strb	r2, [r3, #4]
 280:.\lib_DS1307/DS1307.c ****     data[DS1307_MONTH_ADRESS] = ((DS1307_currentTimeDate.month/10)<<4) + (DS1307_currentTimeDate.mo
 532              		.loc 1 280 0
 533 013c 2C4B     		ldr	r3, .L23
 534 013e DB79     		ldrb	r3, [r3, #7]
 535 0140 181C     		mov	r0, r3
 536 0142 0A21     		mov	r1, #10
 537 0144 FFF7FEFF 		bl	__aeabi_uidiv
 538 0148 031C     		mov	r3, r0
 539 014a DBB2     		uxtb	r3, r3
 540 014c 1B01     		lsl	r3, r3, #4
 541 014e DCB2     		uxtb	r4, r3
 542 0150 274B     		ldr	r3, .L23
 543 0152 DB79     		ldrb	r3, [r3, #7]
 544 0154 181C     		mov	r0, r3
 545 0156 0A21     		mov	r1, #10
 546 0158 FFF7FEFF 		bl	__aeabi_uidivmod
 547 015c 0B1C     		mov	r3, r1
 548 015e DBB2     		uxtb	r3, r3
 549 0160 E318     		add	r3, r4, r3
 550 0162 DAB2     		uxtb	r2, r3
 551 0164 3B1C     		mov	r3, r7
 552 0166 5A71     		strb	r2, [r3, #5]
 281:.\lib_DS1307/DS1307.c ****     data[DS1307_YEAR_ADRESS] = ((DS1307_currentTimeDate.year/10)<<4) + (DS1307_currentTimeDate.year
 553              		.loc 1 281 0
 554 0168 214B     		ldr	r3, .L23
 555 016a 1B89     		ldrh	r3, [r3, #8]
 556 016c 181C     		mov	r0, r3
 557 016e 0A21     		mov	r1, #10
 558 0170 FFF7FEFF 		bl	__aeabi_uidiv
 559 0174 031C     		mov	r3, r0
 560 0176 9BB2     		uxth	r3, r3
 561 0178 DBB2     		uxtb	r3, r3
 562 017a 1B01     		lsl	r3, r3, #4
 563 017c DCB2     		uxtb	r4, r3
 564 017e 1C4B     		ldr	r3, .L23
 565 0180 1B89     		ldrh	r3, [r3, #8]
 566 0182 181C     		mov	r0, r3
 567 0184 0A21     		mov	r1, #10
 568 0186 FFF7FEFF 		bl	__aeabi_uidivmod
 569 018a 0B1C     		mov	r3, r1
 570 018c 9BB2     		uxth	r3, r3
 571 018e DBB2     		uxtb	r3, r3
ARM GAS  C:\Users\Petro\AppData\Local\Temp\cctrdDFV.s 			page 16


 572 0190 E318     		add	r3, r4, r3
 573 0192 DAB2     		uxtb	r2, r3
 574 0194 3B1C     		mov	r3, r7
 575 0196 9A71     		strb	r2, [r3, #6]
 282:.\lib_DS1307/DS1307.c ****     
 283:.\lib_DS1307/DS1307.c ****     /*write data on DS1307*/
 284:.\lib_DS1307/DS1307.c ****     I2C_Start();
 576              		.loc 1 284 0
 577 0198 FFF7FEFF 		bl	I2C_Start
 285:.\lib_DS1307/DS1307.c ****     I2C_I2CMasterClearStatus();
 578              		.loc 1 285 0
 579 019c FFF7FEFF 		bl	I2C_I2CMasterClearStatus
 286:.\lib_DS1307/DS1307.c ****     status = I2C_I2CMasterSendStart(DS1307_SLAVE_ADRESS, I2C_I2C_WRITE_XFER_MODE);
 580              		.loc 1 286 0
 581 01a0 6820     		mov	r0, #104
 582 01a2 0021     		mov	r1, #0
 583 01a4 FFF7FEFF 		bl	I2C_I2CMasterSendStart
 584 01a8 031C     		mov	r3, r0
 585 01aa BB60     		str	r3, [r7, #8]
 287:.\lib_DS1307/DS1307.c ****     I2C_I2CMasterWriteByte(DS1307_NULL_ADRESS);
 586              		.loc 1 287 0
 587 01ac 0020     		mov	r0, #0
 588 01ae FFF7FEFF 		bl	I2C_I2CMasterWriteByte
 288:.\lib_DS1307/DS1307.c ****     if(I2C_I2C_MSTR_NO_ERROR == status) 
 589              		.loc 1 288 0
 590 01b2 BB68     		ldr	r3, [r7, #8]
 591 01b4 002B     		cmp	r3, #0
 592 01b6 15D1     		bne	.L19
 289:.\lib_DS1307/DS1307.c ****     {
 290:.\lib_DS1307/DS1307.c ****         for(i=0; i < DS1307_NUMBER_OF_BYTES; i++)
 593              		.loc 1 290 0
 594 01b8 0023     		mov	r3, #0
 595 01ba FB60     		str	r3, [r7, #12]
 596 01bc 0FE0     		b	.L20
 597              	.L22:
 291:.\lib_DS1307/DS1307.c ****         {
 292:.\lib_DS1307/DS1307.c ****             status = I2C_I2CMasterWriteByte(data[i]);
 598              		.loc 1 292 0
 599 01be 3A1C     		mov	r2, r7
 600 01c0 FB68     		ldr	r3, [r7, #12]
 601 01c2 D318     		add	r3, r2, r3
 602 01c4 1B78     		ldrb	r3, [r3]
 603 01c6 181C     		mov	r0, r3
 604 01c8 FFF7FEFF 		bl	I2C_I2CMasterWriteByte
 605 01cc 031C     		mov	r3, r0
 606 01ce BB60     		str	r3, [r7, #8]
 293:.\lib_DS1307/DS1307.c ****             if(I2C_I2C_MSTR_NO_ERROR != status)
 607              		.loc 1 293 0
 608 01d0 BB68     		ldr	r3, [r7, #8]
 609 01d2 002B     		cmp	r3, #0
 610 01d4 00D0     		beq	.L21
 294:.\lib_DS1307/DS1307.c ****             {
 295:.\lib_DS1307/DS1307.c ****                 break;
 611              		.loc 1 295 0
 612 01d6 05E0     		b	.L19
 613              	.L21:
 290:.\lib_DS1307/DS1307.c ****         {
ARM GAS  C:\Users\Petro\AppData\Local\Temp\cctrdDFV.s 			page 17


 614              		.loc 1 290 0 discriminator 2
 615 01d8 FB68     		ldr	r3, [r7, #12]
 616 01da 0133     		add	r3, r3, #1
 617 01dc FB60     		str	r3, [r7, #12]
 618              	.L20:
 290:.\lib_DS1307/DS1307.c ****         {
 619              		.loc 1 290 0 is_stmt 0 discriminator 1
 620 01de FB68     		ldr	r3, [r7, #12]
 621 01e0 062B     		cmp	r3, #6
 622 01e2 ECDD     		ble	.L22
 623              	.L19:
 296:.\lib_DS1307/DS1307.c ****             }
 297:.\lib_DS1307/DS1307.c ****         }
 298:.\lib_DS1307/DS1307.c ****     }
 299:.\lib_DS1307/DS1307.c ****     I2C_I2CMasterSendStop();    
 624              		.loc 1 299 0 is_stmt 1
 625 01e4 FFF7FEFF 		bl	I2C_I2CMasterSendStop
 300:.\lib_DS1307/DS1307.c **** }
 626              		.loc 1 300 0
 627 01e8 BD46     		mov	sp, r7
 628 01ea 05B0     		add	sp, sp, #20
 629              		@ sp needed
 630 01ec 90BD     		pop	{r4, r7, pc}
 631              	.L24:
 632 01ee C046     		.align	2
 633              	.L23:
 634 01f0 00000000 		.word	DS1307_currentTimeDate
 635              		.cfi_endproc
 636              	.LFE3:
 637              		.size	DS1307_WriteTimeFromStruct, .-DS1307_WriteTimeFromStruct
 638              		.section	.text.DS1307_ConstructTime,"ax",%progbits
 639              		.align	2
 640              		.code	16
 641              		.thumb_func
 642              		.type	DS1307_ConstructTime, %function
 643              	DS1307_ConstructTime:
 644              	.LFB4:
 301:.\lib_DS1307/DS1307.c **** 
 302:.\lib_DS1307/DS1307.c **** /*******************************************************************************
 303:.\lib_DS1307/DS1307.c **** * Function Name: DS1307_ConstructTime
 304:.\lib_DS1307/DS1307.c **** ********************************************************************************
 305:.\lib_DS1307/DS1307.c **** *
 306:.\lib_DS1307/DS1307.c **** * Summary:
 307:.\lib_DS1307/DS1307.c **** *   Returns the time in the format used in APIs from individual elements passed (hour, min, sec etc
 308:.\lib_DS1307/DS1307.c **** * Parametrs:
 309:.\lib_DS1307/DS1307.c **** *   timeFormat - DS1307_12TIME_FORMAT or DS1307_24TIME_FORMAT
 310:.\lib_DS1307/DS1307.c **** *   stateAmRm - DS1307_PM or DS1307_AM
 311:.\lib_DS1307/DS1307.c **** *   hour, min, sec - time
 312:.\lib_DS1307/DS1307.c **** *
 313:.\lib_DS1307/DS1307.c **** *******************************************************************************/
 314:.\lib_DS1307/DS1307.c **** static uint32_t DS1307_ConstructTime(uint32 timeFormat, uint32 stateAmPm, uint32 hour, uint32 min, 
 315:.\lib_DS1307/DS1307.c **** {
 645              		.loc 1 315 0
 646              		.cfi_startproc
 647 0000 80B5     		push	{r7, lr}
 648              		.cfi_def_cfa_offset 8
 649              		.cfi_offset 7, -8
ARM GAS  C:\Users\Petro\AppData\Local\Temp\cctrdDFV.s 			page 18


 650              		.cfi_offset 14, -4
 651 0002 86B0     		sub	sp, sp, #24
 652              		.cfi_def_cfa_offset 32
 653 0004 00AF     		add	r7, sp, #0
 654              		.cfi_def_cfa_register 7
 655 0006 F860     		str	r0, [r7, #12]
 656 0008 B960     		str	r1, [r7, #8]
 657 000a 7A60     		str	r2, [r7, #4]
 658 000c 3B60     		str	r3, [r7]
 316:.\lib_DS1307/DS1307.c ****     uint32 retVal;
 317:.\lib_DS1307/DS1307.c ****     stateAmPm = !stateAmPm;
 659              		.loc 1 317 0
 660 000e BB68     		ldr	r3, [r7, #8]
 661 0010 5A42     		neg	r2, r3
 662 0012 5341     		adc	r3, r3, r2
 663 0014 DBB2     		uxtb	r3, r3
 664 0016 BB60     		str	r3, [r7, #8]
 318:.\lib_DS1307/DS1307.c ****     timeFormat = !timeFormat;
 665              		.loc 1 318 0
 666 0018 FB68     		ldr	r3, [r7, #12]
 667 001a 5A42     		neg	r2, r3
 668 001c 5341     		adc	r3, r3, r2
 669 001e DBB2     		uxtb	r3, r3
 670 0020 FB60     		str	r3, [r7, #12]
 319:.\lib_DS1307/DS1307.c ****     
 320:.\lib_DS1307/DS1307.c ****     retVal  = timeFormat << DS1307_TIME_FORMAT_OFFSET;
 671              		.loc 1 320 0
 672 0022 FB68     		ldr	r3, [r7, #12]
 673 0024 DB05     		lsl	r3, r3, #23
 674 0026 7B61     		str	r3, [r7, #20]
 321:.\lib_DS1307/DS1307.c ****     retVal |= stateAmPm << DS1307_PERIOD_OF_DAY_OFFSET;
 675              		.loc 1 321 0
 676 0028 BB68     		ldr	r3, [r7, #8]
 677 002a 9B05     		lsl	r3, r3, #22
 678 002c 7A69     		ldr	r2, [r7, #20]
 679 002e 1343     		orr	r3, r2
 680 0030 7B61     		str	r3, [r7, #20]
 322:.\lib_DS1307/DS1307.c **** 
 323:.\lib_DS1307/DS1307.c ****     retVal |= (hour / 10u) << DS1307_10_HOURS_OFFSET;
 681              		.loc 1 323 0
 682 0032 7B68     		ldr	r3, [r7, #4]
 683 0034 181C     		mov	r0, r3
 684 0036 0A21     		mov	r1, #10
 685 0038 FFF7FEFF 		bl	__aeabi_uidiv
 686 003c 031C     		mov	r3, r0
 687 003e 1B05     		lsl	r3, r3, #20
 688 0040 7A69     		ldr	r2, [r7, #20]
 689 0042 1343     		orr	r3, r2
 690 0044 7B61     		str	r3, [r7, #20]
 324:.\lib_DS1307/DS1307.c ****     retVal |= (hour % 10u) << DS1307_HOURS_OFFSET;
 691              		.loc 1 324 0
 692 0046 7B68     		ldr	r3, [r7, #4]
 693 0048 181C     		mov	r0, r3
 694 004a 0A21     		mov	r1, #10
 695 004c FFF7FEFF 		bl	__aeabi_uidivmod
 696 0050 0B1C     		mov	r3, r1
 697 0052 1B04     		lsl	r3, r3, #16
ARM GAS  C:\Users\Petro\AppData\Local\Temp\cctrdDFV.s 			page 19


 698 0054 7A69     		ldr	r2, [r7, #20]
 699 0056 1343     		orr	r3, r2
 700 0058 7B61     		str	r3, [r7, #20]
 325:.\lib_DS1307/DS1307.c **** 
 326:.\lib_DS1307/DS1307.c ****     retVal |= (min / 10u) << DS1307_10_MINUTES_OFFSET;
 701              		.loc 1 326 0
 702 005a 3B68     		ldr	r3, [r7]
 703 005c 181C     		mov	r0, r3
 704 005e 0A21     		mov	r1, #10
 705 0060 FFF7FEFF 		bl	__aeabi_uidiv
 706 0064 031C     		mov	r3, r0
 707 0066 1B03     		lsl	r3, r3, #12
 708 0068 7A69     		ldr	r2, [r7, #20]
 709 006a 1343     		orr	r3, r2
 710 006c 7B61     		str	r3, [r7, #20]
 327:.\lib_DS1307/DS1307.c ****     retVal |= (min % 10u) << DS1307_MINUTES_OFFSET;
 711              		.loc 1 327 0
 712 006e 3B68     		ldr	r3, [r7]
 713 0070 181C     		mov	r0, r3
 714 0072 0A21     		mov	r1, #10
 715 0074 FFF7FEFF 		bl	__aeabi_uidivmod
 716 0078 0B1C     		mov	r3, r1
 717 007a 1B02     		lsl	r3, r3, #8
 718 007c 7A69     		ldr	r2, [r7, #20]
 719 007e 1343     		orr	r3, r2
 720 0080 7B61     		str	r3, [r7, #20]
 328:.\lib_DS1307/DS1307.c **** 
 329:.\lib_DS1307/DS1307.c ****     retVal |= (sec / 10u) << DS1307_10_SECONDS_OFFSET;
 721              		.loc 1 329 0
 722 0082 3B6A     		ldr	r3, [r7, #32]
 723 0084 181C     		mov	r0, r3
 724 0086 0A21     		mov	r1, #10
 725 0088 FFF7FEFF 		bl	__aeabi_uidiv
 726 008c 031C     		mov	r3, r0
 727 008e 1B01     		lsl	r3, r3, #4
 728 0090 7A69     		ldr	r2, [r7, #20]
 729 0092 1343     		orr	r3, r2
 730 0094 7B61     		str	r3, [r7, #20]
 330:.\lib_DS1307/DS1307.c ****     retVal |= (sec % 10u) << DS1307_SECONDS_OFFSET;
 731              		.loc 1 330 0
 732 0096 3B6A     		ldr	r3, [r7, #32]
 733 0098 181C     		mov	r0, r3
 734 009a 0A21     		mov	r1, #10
 735 009c FFF7FEFF 		bl	__aeabi_uidivmod
 736 00a0 0B1C     		mov	r3, r1
 737 00a2 1A1C     		mov	r2, r3
 738 00a4 7B69     		ldr	r3, [r7, #20]
 739 00a6 1343     		orr	r3, r2
 740 00a8 7B61     		str	r3, [r7, #20]
 331:.\lib_DS1307/DS1307.c **** 
 332:.\lib_DS1307/DS1307.c ****     return (retVal);
 741              		.loc 1 332 0
 742 00aa 7B69     		ldr	r3, [r7, #20]
 333:.\lib_DS1307/DS1307.c **** }
 743              		.loc 1 333 0
 744 00ac 181C     		mov	r0, r3
 745 00ae BD46     		mov	sp, r7
ARM GAS  C:\Users\Petro\AppData\Local\Temp\cctrdDFV.s 			page 20


 746 00b0 06B0     		add	sp, sp, #24
 747              		@ sp needed
 748 00b2 80BD     		pop	{r7, pc}
 749              		.cfi_endproc
 750              	.LFE4:
 751              		.size	DS1307_ConstructTime, .-DS1307_ConstructTime
 752              		.section	.text.DS1307_ConstructDate,"ax",%progbits
 753              		.align	2
 754              		.code	16
 755              		.thumb_func
 756              		.type	DS1307_ConstructDate, %function
 757              	DS1307_ConstructDate:
 758              	.LFB5:
 334:.\lib_DS1307/DS1307.c **** 
 335:.\lib_DS1307/DS1307.c **** /*******************************************************************************
 336:.\lib_DS1307/DS1307.c **** * Function Name: DS1307_ConstructDate
 337:.\lib_DS1307/DS1307.c **** ********************************************************************************
 338:.\lib_DS1307/DS1307.c **** *
 339:.\lib_DS1307/DS1307.c **** * Summary:
 340:.\lib_DS1307/DS1307.c **** *   Returns the date in the format used in APIs from individual elements passed 
 341:.\lib_DS1307/DS1307.c **** * Parametrs:
 342:.\lib_DS1307/DS1307.c **** *   month, day, year - date
 343:.\lib_DS1307/DS1307.c **** *
 344:.\lib_DS1307/DS1307.c **** *******************************************************************************/
 345:.\lib_DS1307/DS1307.c **** static uint32 DS1307_ConstructDate(uint32 month, uint32 day, uint32 year)
 346:.\lib_DS1307/DS1307.c **** {  
 759              		.loc 1 346 0
 760              		.cfi_startproc
 761 0000 80B5     		push	{r7, lr}
 762              		.cfi_def_cfa_offset 8
 763              		.cfi_offset 7, -8
 764              		.cfi_offset 14, -4
 765 0002 86B0     		sub	sp, sp, #24
 766              		.cfi_def_cfa_offset 32
 767 0004 00AF     		add	r7, sp, #0
 768              		.cfi_def_cfa_register 7
 769 0006 F860     		str	r0, [r7, #12]
 770 0008 B960     		str	r1, [r7, #8]
 771 000a 7A60     		str	r2, [r7, #4]
 347:.\lib_DS1307/DS1307.c ****     /*year in D1307 save ten (16 =>2016 year)*/
 348:.\lib_DS1307/DS1307.c ****     year +=2000;
 772              		.loc 1 348 0
 773 000c 7B68     		ldr	r3, [r7, #4]
 774 000e FA22     		mov	r2, #250
 775 0010 D200     		lsl	r2, r2, #3
 776 0012 9446     		mov	ip, r2
 777 0014 6344     		add	r3, r3, ip
 778 0016 7B60     		str	r3, [r7, #4]
 349:.\lib_DS1307/DS1307.c ****     uint32 retVal;
 350:.\lib_DS1307/DS1307.c ****     uint32 tmpVal = year;
 779              		.loc 1 350 0
 780 0018 7B68     		ldr	r3, [r7, #4]
 781 001a 7B61     		str	r3, [r7, #20]
 351:.\lib_DS1307/DS1307.c **** 
 352:.\lib_DS1307/DS1307.c ****     retVal  = (month / 10u) << DS1307_10_MONTH_OFFSET;
 782              		.loc 1 352 0
 783 001c FB68     		ldr	r3, [r7, #12]
ARM GAS  C:\Users\Petro\AppData\Local\Temp\cctrdDFV.s 			page 21


 784 001e 181C     		mov	r0, r3
 785 0020 0A21     		mov	r1, #10
 786 0022 FFF7FEFF 		bl	__aeabi_uidiv
 787 0026 031C     		mov	r3, r0
 788 0028 1B07     		lsl	r3, r3, #28
 789 002a 3B61     		str	r3, [r7, #16]
 353:.\lib_DS1307/DS1307.c ****     retVal |= (month % 10u) << DS1307_MONTH_OFFSET;
 790              		.loc 1 353 0
 791 002c FB68     		ldr	r3, [r7, #12]
 792 002e 181C     		mov	r0, r3
 793 0030 0A21     		mov	r1, #10
 794 0032 FFF7FEFF 		bl	__aeabi_uidivmod
 795 0036 0B1C     		mov	r3, r1
 796 0038 1B06     		lsl	r3, r3, #24
 797 003a 3A69     		ldr	r2, [r7, #16]
 798 003c 1343     		orr	r3, r2
 799 003e 3B61     		str	r3, [r7, #16]
 354:.\lib_DS1307/DS1307.c **** 
 355:.\lib_DS1307/DS1307.c ****     retVal |= (day / 10u) << DS1307_10_DAY_OFFSET;
 800              		.loc 1 355 0
 801 0040 BB68     		ldr	r3, [r7, #8]
 802 0042 181C     		mov	r0, r3
 803 0044 0A21     		mov	r1, #10
 804 0046 FFF7FEFF 		bl	__aeabi_uidiv
 805 004a 031C     		mov	r3, r0
 806 004c 1B05     		lsl	r3, r3, #20
 807 004e 3A69     		ldr	r2, [r7, #16]
 808 0050 1343     		orr	r3, r2
 809 0052 3B61     		str	r3, [r7, #16]
 356:.\lib_DS1307/DS1307.c ****     retVal |= (day % 10u) << DS1307_DAY_OFFSET;
 810              		.loc 1 356 0
 811 0054 BB68     		ldr	r3, [r7, #8]
 812 0056 181C     		mov	r0, r3
 813 0058 0A21     		mov	r1, #10
 814 005a FFF7FEFF 		bl	__aeabi_uidivmod
 815 005e 0B1C     		mov	r3, r1
 816 0060 1B04     		lsl	r3, r3, #16
 817 0062 3A69     		ldr	r2, [r7, #16]
 818 0064 1343     		orr	r3, r2
 819 0066 3B61     		str	r3, [r7, #16]
 357:.\lib_DS1307/DS1307.c **** 
 358:.\lib_DS1307/DS1307.c ****     retVal |= (year / 1000u) << DS1307_1000_YEAR_OFFSET;
 820              		.loc 1 358 0
 821 0068 7B68     		ldr	r3, [r7, #4]
 822 006a 181C     		mov	r0, r3
 823 006c FA23     		mov	r3, #250
 824 006e 9900     		lsl	r1, r3, #2
 825 0070 FFF7FEFF 		bl	__aeabi_uidiv
 826 0074 031C     		mov	r3, r0
 827 0076 1B03     		lsl	r3, r3, #12
 828 0078 3A69     		ldr	r2, [r7, #16]
 829 007a 1343     		orr	r3, r2
 830 007c 3B61     		str	r3, [r7, #16]
 359:.\lib_DS1307/DS1307.c ****     tmpVal %= 1000u;
 831              		.loc 1 359 0
 832 007e 7B69     		ldr	r3, [r7, #20]
 833 0080 181C     		mov	r0, r3
ARM GAS  C:\Users\Petro\AppData\Local\Temp\cctrdDFV.s 			page 22


 834 0082 FA23     		mov	r3, #250
 835 0084 9900     		lsl	r1, r3, #2
 836 0086 FFF7FEFF 		bl	__aeabi_uidivmod
 837 008a 0B1C     		mov	r3, r1
 838 008c 7B61     		str	r3, [r7, #20]
 360:.\lib_DS1307/DS1307.c **** 
 361:.\lib_DS1307/DS1307.c ****     retVal |= (tmpVal / 100u) << DS1307_100_YEAR_OFFSET;
 839              		.loc 1 361 0
 840 008e 7B69     		ldr	r3, [r7, #20]
 841 0090 181C     		mov	r0, r3
 842 0092 6421     		mov	r1, #100
 843 0094 FFF7FEFF 		bl	__aeabi_uidiv
 844 0098 031C     		mov	r3, r0
 845 009a 1B02     		lsl	r3, r3, #8
 846 009c 3A69     		ldr	r2, [r7, #16]
 847 009e 1343     		orr	r3, r2
 848 00a0 3B61     		str	r3, [r7, #16]
 362:.\lib_DS1307/DS1307.c ****     tmpVal %= 100u;
 849              		.loc 1 362 0
 850 00a2 7B69     		ldr	r3, [r7, #20]
 851 00a4 181C     		mov	r0, r3
 852 00a6 6421     		mov	r1, #100
 853 00a8 FFF7FEFF 		bl	__aeabi_uidivmod
 854 00ac 0B1C     		mov	r3, r1
 855 00ae 7B61     		str	r3, [r7, #20]
 363:.\lib_DS1307/DS1307.c **** 
 364:.\lib_DS1307/DS1307.c ****     retVal |= (tmpVal / 10u) << DS1307_10_YEAR_OFFSET;
 856              		.loc 1 364 0
 857 00b0 7B69     		ldr	r3, [r7, #20]
 858 00b2 181C     		mov	r0, r3
 859 00b4 0A21     		mov	r1, #10
 860 00b6 FFF7FEFF 		bl	__aeabi_uidiv
 861 00ba 031C     		mov	r3, r0
 862 00bc 1B01     		lsl	r3, r3, #4
 863 00be 3A69     		ldr	r2, [r7, #16]
 864 00c0 1343     		orr	r3, r2
 865 00c2 3B61     		str	r3, [r7, #16]
 365:.\lib_DS1307/DS1307.c ****     retVal |= (tmpVal % 10u) << DS1307_YEAR_OFFSET;
 866              		.loc 1 365 0
 867 00c4 7B69     		ldr	r3, [r7, #20]
 868 00c6 181C     		mov	r0, r3
 869 00c8 0A21     		mov	r1, #10
 870 00ca FFF7FEFF 		bl	__aeabi_uidivmod
 871 00ce 0B1C     		mov	r3, r1
 872 00d0 1A1C     		mov	r2, r3
 873 00d2 3B69     		ldr	r3, [r7, #16]
 874 00d4 1343     		orr	r3, r2
 875 00d6 3B61     		str	r3, [r7, #16]
 366:.\lib_DS1307/DS1307.c **** 
 367:.\lib_DS1307/DS1307.c ****     return (retVal);
 876              		.loc 1 367 0
 877 00d8 3B69     		ldr	r3, [r7, #16]
 368:.\lib_DS1307/DS1307.c **** }
 878              		.loc 1 368 0
 879 00da 181C     		mov	r0, r3
 880 00dc BD46     		mov	sp, r7
 881 00de 06B0     		add	sp, sp, #24
ARM GAS  C:\Users\Petro\AppData\Local\Temp\cctrdDFV.s 			page 23


 882              		@ sp needed
 883 00e0 80BD     		pop	{r7, pc}
 884              		.cfi_endproc
 885              	.LFE5:
 886              		.size	DS1307_ConstructDate, .-DS1307_ConstructDate
 887 00e2 C046     		.section	.text.DS1307_DateTimeToUnix,"ax",%progbits
 888              		.align	2
 889              		.code	16
 890              		.thumb_func
 891              		.type	DS1307_DateTimeToUnix, %function
 892              	DS1307_DateTimeToUnix:
 893              	.LFB6:
 369:.\lib_DS1307/DS1307.c **** 
 370:.\lib_DS1307/DS1307.c **** 
 371:.\lib_DS1307/DS1307.c **** /*******************************************************************************
 372:.\lib_DS1307/DS1307.c **** * Function Name: DS1307_DateTimeToUnix
 373:.\lib_DS1307/DS1307.c **** ********************************************************************************
 374:.\lib_DS1307/DS1307.c **** *
 375:.\lib_DS1307/DS1307.c **** * Summary:
 376:.\lib_DS1307/DS1307.c **** *   convert the time in unix format
 377:.\lib_DS1307/DS1307.c **** * Parametrs:
 378:.\lib_DS1307/DS1307.c **** *   inoutDate, inoutTime - date and time 
 379:.\lib_DS1307/DS1307.c **** *
 380:.\lib_DS1307/DS1307.c **** *******************************************************************************/
 381:.\lib_DS1307/DS1307.c **** static uint64 DS1307_DateTimeToUnix(uint32 inputDate, uint32 inputTime)
 382:.\lib_DS1307/DS1307.c **** {
 894              		.loc 1 382 0
 895              		.cfi_startproc
 896 0000 F0B5     		push	{r4, r5, r6, r7, lr}
 897              		.cfi_def_cfa_offset 20
 898              		.cfi_offset 4, -20
 899              		.cfi_offset 5, -16
 900              		.cfi_offset 6, -12
 901              		.cfi_offset 7, -8
 902              		.cfi_offset 14, -4
 903 0002 97B0     		sub	sp, sp, #92
 904              		.cfi_def_cfa_offset 112
 905 0004 00AF     		add	r7, sp, #0
 906              		.cfi_def_cfa_register 7
 907 0006 7862     		str	r0, [r7, #36]
 908 0008 3962     		str	r1, [r7, #32]
 383:.\lib_DS1307/DS1307.c ****     uint32 i;
 384:.\lib_DS1307/DS1307.c ****     uint32 tmpYear;
 385:.\lib_DS1307/DS1307.c ****     uint32 tmpMonth;
 386:.\lib_DS1307/DS1307.c ****     uint32 tmpVal;
 387:.\lib_DS1307/DS1307.c ****     uint64 unixTime;
 388:.\lib_DS1307/DS1307.c **** 
 389:.\lib_DS1307/DS1307.c ****     unixTime = 0u;
 909              		.loc 1 389 0
 910 000a 0023     		mov	r3, #0
 911 000c 0024     		mov	r4, #0
 912 000e BB64     		str	r3, [r7, #72]
 913 0010 FC64     		str	r4, [r7, #76]
 390:.\lib_DS1307/DS1307.c ****     
 391:.\lib_DS1307/DS1307.c ****     /*GetYear*/
 392:.\lib_DS1307/DS1307.c ****     tmpYear  = ((inputDate & DS1307_1000_YEAR_MASK_UNIX) >> DS1307_1000_YEAR_OFFSET) * 1000u;
 914              		.loc 1 392 0
ARM GAS  C:\Users\Petro\AppData\Local\Temp\cctrdDFV.s 			page 24


 915 0012 7A6A     		ldr	r2, [r7, #36]
 916 0014 C023     		mov	r3, #192
 917 0016 9B01     		lsl	r3, r3, #6
 918 0018 1340     		and	r3, r2
 919 001a 1B0B     		lsr	r3, r3, #12
 920 001c FA22     		mov	r2, #250
 921 001e 9200     		lsl	r2, r2, #2
 922 0020 5343     		mul	r3, r2
 923 0022 7B64     		str	r3, [r7, #68]
 393:.\lib_DS1307/DS1307.c ****     tmpYear += ((inputDate & DS1307_100_YEAR_MASK_UNIX) >> DS1307_100_YEAR_OFFSET) * 100u;
 924              		.loc 1 393 0
 925 0024 7A6A     		ldr	r2, [r7, #36]
 926 0026 F023     		mov	r3, #240
 927 0028 1B01     		lsl	r3, r3, #4
 928 002a 1340     		and	r3, r2
 929 002c 1B0A     		lsr	r3, r3, #8
 930 002e 6422     		mov	r2, #100
 931 0030 5343     		mul	r3, r2
 932 0032 7A6C     		ldr	r2, [r7, #68]
 933 0034 D318     		add	r3, r2, r3
 934 0036 7B64     		str	r3, [r7, #68]
 394:.\lib_DS1307/DS1307.c ****     tmpYear += ((inputDate & DS1307_10_YEAR_MASK_UNIX) >> DS1307_10_YEAR_OFFSET) * 10u;
 935              		.loc 1 394 0
 936 0038 7B6A     		ldr	r3, [r7, #36]
 937 003a F022     		mov	r2, #240
 938 003c 1340     		and	r3, r2
 939 003e 1A09     		lsr	r2, r3, #4
 940 0040 131C     		mov	r3, r2
 941 0042 9B00     		lsl	r3, r3, #2
 942 0044 9B18     		add	r3, r3, r2
 943 0046 5B00     		lsl	r3, r3, #1
 944 0048 1A1C     		mov	r2, r3
 945 004a 7B6C     		ldr	r3, [r7, #68]
 946 004c 9B18     		add	r3, r3, r2
 947 004e 7B64     		str	r3, [r7, #68]
 395:.\lib_DS1307/DS1307.c ****     tmpYear += (inputDate & DS1307_YEAR_MASK_UNIX) >> DS1307_YEAR_OFFSET;
 948              		.loc 1 395 0
 949 0050 7B6A     		ldr	r3, [r7, #36]
 950 0052 0F22     		mov	r2, #15
 951 0054 1340     		and	r3, r2
 952 0056 7A6C     		ldr	r2, [r7, #68]
 953 0058 D318     		add	r3, r2, r3
 954 005a 7B64     		str	r3, [r7, #68]
 396:.\lib_DS1307/DS1307.c **** 
 397:.\lib_DS1307/DS1307.c ****     /* Calculate seconds from epoch start up to (but not including) current year. */
 398:.\lib_DS1307/DS1307.c ****     for(i = DS1307_YEAR_0; i < tmpYear; i++)
 955              		.loc 1 398 0
 956 005c 8D4B     		ldr	r3, .L49
 957 005e 7B65     		str	r3, [r7, #84]
 958 0060 2BE0     		b	.L30
 959              	.L37:
 399:.\lib_DS1307/DS1307.c ****     {
 400:.\lib_DS1307/DS1307.c ****         if(0u != ((((0u == (i % 4Lu)) && (0u != (i % 100Lu))) || (0u == (i % 400Lu)))))
 960              		.loc 1 400 0
 961 0062 7B6D     		ldr	r3, [r7, #84]
 962 0064 0322     		mov	r2, #3
 963 0066 1340     		and	r3, r2
ARM GAS  C:\Users\Petro\AppData\Local\Temp\cctrdDFV.s 			page 25


 964 0068 06D1     		bne	.L31
 965              		.loc 1 400 0 is_stmt 0 discriminator 1
 966 006a 7B6D     		ldr	r3, [r7, #84]
 967 006c 181C     		mov	r0, r3
 968 006e 6421     		mov	r1, #100
 969 0070 FFF7FEFF 		bl	__aeabi_uidivmod
 970 0074 0B1E     		sub	r3, r1, #0
 971 0076 07D1     		bne	.L32
 972              	.L31:
 973              		.loc 1 400 0 discriminator 4
 974 0078 7B6D     		ldr	r3, [r7, #84]
 975 007a 181C     		mov	r0, r3
 976 007c C823     		mov	r3, #200
 977 007e 5900     		lsl	r1, r3, #1
 978 0080 FFF7FEFF 		bl	__aeabi_uidivmod
 979 0084 0B1E     		sub	r3, r1, #0
 980 0086 01D1     		bne	.L33
 981              	.L32:
 982              		.loc 1 400 0 discriminator 5
 983 0088 0123     		mov	r3, #1
 984 008a 00E0     		b	.L34
 985              	.L33:
 986              		.loc 1 400 0 discriminator 6
 987 008c 0023     		mov	r3, #0
 988              	.L34:
 989              		.loc 1 400 0 discriminator 8
 990 008e 002B     		cmp	r3, #0
 991 0090 08D0     		beq	.L35
 401:.\lib_DS1307/DS1307.c ****         {
 402:.\lib_DS1307/DS1307.c ****             unixTime += DS1307_SECONDS_PER_LEAP_YEAR;
 992              		.loc 1 402 0 is_stmt 1
 993 0092 BB6C     		ldr	r3, [r7, #72]
 994 0094 FC6C     		ldr	r4, [r7, #76]
 995 0096 8049     		ldr	r1, .L49+4
 996 0098 0022     		mov	r2, #0
 997 009a 5B18     		add	r3, r3, r1
 998 009c 5441     		adc	r4, r4, r2
 999 009e BB64     		str	r3, [r7, #72]
 1000 00a0 FC64     		str	r4, [r7, #76]
 1001 00a2 07E0     		b	.L36
 1002              	.L35:
 403:.\lib_DS1307/DS1307.c ****         }
 404:.\lib_DS1307/DS1307.c ****         else
 405:.\lib_DS1307/DS1307.c ****         {
 406:.\lib_DS1307/DS1307.c ****             unixTime += DS1307_SECONDS_PER_NONLEAP_YEAR;
 1003              		.loc 1 406 0
 1004 00a4 BB6C     		ldr	r3, [r7, #72]
 1005 00a6 FC6C     		ldr	r4, [r7, #76]
 1006 00a8 7C49     		ldr	r1, .L49+8
 1007 00aa 0022     		mov	r2, #0
 1008 00ac 5B18     		add	r3, r3, r1
 1009 00ae 5441     		adc	r4, r4, r2
 1010 00b0 BB64     		str	r3, [r7, #72]
 1011 00b2 FC64     		str	r4, [r7, #76]
 1012              	.L36:
 398:.\lib_DS1307/DS1307.c ****     {
 1013              		.loc 1 398 0 discriminator 2
ARM GAS  C:\Users\Petro\AppData\Local\Temp\cctrdDFV.s 			page 26


 1014 00b4 7B6D     		ldr	r3, [r7, #84]
 1015 00b6 0133     		add	r3, r3, #1
 1016 00b8 7B65     		str	r3, [r7, #84]
 1017              	.L30:
 398:.\lib_DS1307/DS1307.c ****     {
 1018              		.loc 1 398 0 is_stmt 0 discriminator 1
 1019 00ba 7A6D     		ldr	r2, [r7, #84]
 1020 00bc 7B6C     		ldr	r3, [r7, #68]
 1021 00be 9A42     		cmp	r2, r3
 1022 00c0 CFD3     		bcc	.L37
 407:.\lib_DS1307/DS1307.c ****         }
 408:.\lib_DS1307/DS1307.c ****     }
 409:.\lib_DS1307/DS1307.c **** 
 410:.\lib_DS1307/DS1307.c ****     /* Calculates how many seconds had elapsed in this year prior to the current month. */
 411:.\lib_DS1307/DS1307.c ****     /*GetMonth*/
 412:.\lib_DS1307/DS1307.c ****     tmpMonth  = ((inputDate & DS1307_10_MONTH_MASK_UNIX) >> DS1307_10_MONTH_OFFSET) * 10u;
 1023              		.loc 1 412 0 is_stmt 1
 1024 00c2 7A6A     		ldr	r2, [r7, #36]
 1025 00c4 8023     		mov	r3, #128
 1026 00c6 5B05     		lsl	r3, r3, #21
 1027 00c8 1340     		and	r3, r2
 1028 00ca 1A0F     		lsr	r2, r3, #28
 1029 00cc 131C     		mov	r3, r2
 1030 00ce 9B00     		lsl	r3, r3, #2
 1031 00d0 9B18     		add	r3, r3, r2
 1032 00d2 5B00     		lsl	r3, r3, #1
 1033 00d4 3B64     		str	r3, [r7, #64]
 413:.\lib_DS1307/DS1307.c ****     tmpMonth += (inputDate & DS1307_MONTH_MASK_UNIX) >> DS1307_MONTH_OFFSET;
 1034              		.loc 1 413 0
 1035 00d6 7A6A     		ldr	r2, [r7, #36]
 1036 00d8 F023     		mov	r3, #240
 1037 00da 1B05     		lsl	r3, r3, #20
 1038 00dc 1340     		and	r3, r2
 1039 00de 1B0E     		lsr	r3, r3, #24
 1040 00e0 3A6C     		ldr	r2, [r7, #64]
 1041 00e2 D318     		add	r3, r2, r3
 1042 00e4 3B64     		str	r3, [r7, #64]
 414:.\lib_DS1307/DS1307.c ****     
 415:.\lib_DS1307/DS1307.c ****     tmpVal = DS1307_daysBeforeMonthTbl1[tmpMonth - 1u];
 1043              		.loc 1 415 0
 1044 00e6 3B6C     		ldr	r3, [r7, #64]
 1045 00e8 5A1E     		sub	r2, r3, #1
 1046 00ea 6D4B     		ldr	r3, .L49+12
 1047 00ec 5200     		lsl	r2, r2, #1
 1048 00ee D35A     		ldrh	r3, [r2, r3]
 1049 00f0 3B65     		str	r3, [r7, #80]
 416:.\lib_DS1307/DS1307.c **** 
 417:.\lib_DS1307/DS1307.c ****     if((tmpMonth > 2u) && (0u != (((0u == (tmpYear % 4Lu)) && (0u != (tmpYear % 100Lu))) || (0u == 
 1050              		.loc 1 417 0
 1051 00f2 3B6C     		ldr	r3, [r7, #64]
 1052 00f4 022B     		cmp	r3, #2
 1053 00f6 1AD9     		bls	.L38
 1054              		.loc 1 417 0 is_stmt 0 discriminator 1
 1055 00f8 7B6C     		ldr	r3, [r7, #68]
 1056 00fa 0322     		mov	r2, #3
 1057 00fc 1340     		and	r3, r2
 1058 00fe 06D1     		bne	.L39
ARM GAS  C:\Users\Petro\AppData\Local\Temp\cctrdDFV.s 			page 27


 1059              		.loc 1 417 0 discriminator 2
 1060 0100 7B6C     		ldr	r3, [r7, #68]
 1061 0102 181C     		mov	r0, r3
 1062 0104 6421     		mov	r1, #100
 1063 0106 FFF7FEFF 		bl	__aeabi_uidivmod
 1064 010a 0B1E     		sub	r3, r1, #0
 1065 010c 07D1     		bne	.L40
 1066              	.L39:
 1067              		.loc 1 417 0 discriminator 5
 1068 010e 7B6C     		ldr	r3, [r7, #68]
 1069 0110 181C     		mov	r0, r3
 1070 0112 C823     		mov	r3, #200
 1071 0114 5900     		lsl	r1, r3, #1
 1072 0116 FFF7FEFF 		bl	__aeabi_uidivmod
 1073 011a 0B1E     		sub	r3, r1, #0
 1074 011c 01D1     		bne	.L41
 1075              	.L40:
 1076              		.loc 1 417 0 discriminator 6
 1077 011e 0123     		mov	r3, #1
 1078 0120 00E0     		b	.L42
 1079              	.L41:
 1080              		.loc 1 417 0 discriminator 7
 1081 0122 0023     		mov	r3, #0
 1082              	.L42:
 1083              		.loc 1 417 0 discriminator 9
 1084 0124 002B     		cmp	r3, #0
 1085 0126 02D0     		beq	.L38
 418:.\lib_DS1307/DS1307.c ****     {
 419:.\lib_DS1307/DS1307.c ****         tmpVal++;
 1086              		.loc 1 419 0 is_stmt 1
 1087 0128 3B6D     		ldr	r3, [r7, #80]
 1088 012a 0133     		add	r3, r3, #1
 1089 012c 3B65     		str	r3, [r7, #80]
 1090              	.L38:
 420:.\lib_DS1307/DS1307.c ****     }
 421:.\lib_DS1307/DS1307.c **** 
 422:.\lib_DS1307/DS1307.c ****     /* Calculates how many seconds are in current month days prior to today. */
 423:.\lib_DS1307/DS1307.c ****     unixTime += tmpVal * DS1307_SECONDS_PER_DAY;
 1091              		.loc 1 423 0
 1092 012e 3B6D     		ldr	r3, [r7, #80]
 1093 0130 5C4A     		ldr	r2, .L49+16
 1094 0132 5343     		mul	r3, r2
 1095 0134 BB61     		str	r3, [r7, #24]
 1096 0136 0023     		mov	r3, #0
 1097 0138 FB61     		str	r3, [r7, #28]
 1098 013a BB6C     		ldr	r3, [r7, #72]
 1099 013c FC6C     		ldr	r4, [r7, #76]
 1100 013e B969     		ldr	r1, [r7, #24]
 1101 0140 FA69     		ldr	r2, [r7, #28]
 1102 0142 5B18     		add	r3, r3, r1
 1103 0144 5441     		adc	r4, r4, r2
 1104 0146 BB64     		str	r3, [r7, #72]
 1105 0148 FC64     		str	r4, [r7, #76]
 424:.\lib_DS1307/DS1307.c ****     /*GetDay*/
 425:.\lib_DS1307/DS1307.c ****     uint32_t getDay;
 426:.\lib_DS1307/DS1307.c ****     getDay  = ((inputDate & DS1307_10_DAY_MASK_UNIX) >> DS1307_10_DAY_OFFSET) * 10u;
 1106              		.loc 1 426 0
ARM GAS  C:\Users\Petro\AppData\Local\Temp\cctrdDFV.s 			page 28


 1107 014a 7A6A     		ldr	r2, [r7, #36]
 1108 014c C023     		mov	r3, #192
 1109 014e 9B03     		lsl	r3, r3, #14
 1110 0150 1340     		and	r3, r2
 1111 0152 1A0D     		lsr	r2, r3, #20
 1112 0154 131C     		mov	r3, r2
 1113 0156 9B00     		lsl	r3, r3, #2
 1114 0158 9B18     		add	r3, r3, r2
 1115 015a 5B00     		lsl	r3, r3, #1
 1116 015c FB63     		str	r3, [r7, #60]
 427:.\lib_DS1307/DS1307.c ****     getDay += (inputDate & DS1307_DAY_MASK_UNIX) >> DS1307_DAY_OFFSET;
 1117              		.loc 1 427 0
 1118 015e 7A6A     		ldr	r2, [r7, #36]
 1119 0160 F023     		mov	r3, #240
 1120 0162 1B03     		lsl	r3, r3, #12
 1121 0164 1340     		and	r3, r2
 1122 0166 1B0C     		lsr	r3, r3, #16
 1123 0168 FA6B     		ldr	r2, [r7, #60]
 1124 016a D318     		add	r3, r2, r3
 1125 016c FB63     		str	r3, [r7, #60]
 428:.\lib_DS1307/DS1307.c ****     
 429:.\lib_DS1307/DS1307.c ****     unixTime += (getDay - 1u) * DS1307_SECONDS_PER_DAY;
 1126              		.loc 1 429 0
 1127 016e FB6B     		ldr	r3, [r7, #60]
 1128 0170 4C4A     		ldr	r2, .L49+16
 1129 0172 5343     		mul	r3, r2
 1130 0174 4C4A     		ldr	r2, .L49+20
 1131 0176 9446     		mov	ip, r2
 1132 0178 6344     		add	r3, r3, ip
 1133 017a 3B61     		str	r3, [r7, #16]
 1134 017c 0023     		mov	r3, #0
 1135 017e 7B61     		str	r3, [r7, #20]
 1136 0180 BB6C     		ldr	r3, [r7, #72]
 1137 0182 FC6C     		ldr	r4, [r7, #76]
 1138 0184 3969     		ldr	r1, [r7, #16]
 1139 0186 7A69     		ldr	r2, [r7, #20]
 1140 0188 5B18     		add	r3, r3, r1
 1141 018a 5441     		adc	r4, r4, r2
 1142 018c BB64     		str	r3, [r7, #72]
 1143 018e FC64     		str	r4, [r7, #76]
 430:.\lib_DS1307/DS1307.c **** 
 431:.\lib_DS1307/DS1307.c ****     /* Calculates how many seconds have elapsed today up to the current hour. */
 432:.\lib_DS1307/DS1307.c ****     /*GetHours*/
 433:.\lib_DS1307/DS1307.c ****     tmpVal  = ((inputTime & DS1307_10_HOURS_MASK_UNIX) >> DS1307_10_HOURS_OFFSET) * 10u;
 1144              		.loc 1 433 0
 1145 0190 3A6A     		ldr	r2, [r7, #32]
 1146 0192 C023     		mov	r3, #192
 1147 0194 9B03     		lsl	r3, r3, #14
 1148 0196 1340     		and	r3, r2
 1149 0198 1A0D     		lsr	r2, r3, #20
 1150 019a 131C     		mov	r3, r2
 1151 019c 9B00     		lsl	r3, r3, #2
 1152 019e 9B18     		add	r3, r3, r2
 1153 01a0 5B00     		lsl	r3, r3, #1
 1154 01a2 3B65     		str	r3, [r7, #80]
 434:.\lib_DS1307/DS1307.c ****     tmpVal += (inputTime & DS1307_HOURS_MASK_UNIX) >> DS1307_HOURS_OFFSET;
 1155              		.loc 1 434 0
ARM GAS  C:\Users\Petro\AppData\Local\Temp\cctrdDFV.s 			page 29


 1156 01a4 3A6A     		ldr	r2, [r7, #32]
 1157 01a6 F023     		mov	r3, #240
 1158 01a8 1B03     		lsl	r3, r3, #12
 1159 01aa 1340     		and	r3, r2
 1160 01ac 1B0C     		lsr	r3, r3, #16
 1161 01ae 3A6D     		ldr	r2, [r7, #80]
 1162 01b0 D318     		add	r3, r2, r3
 1163 01b2 3B65     		str	r3, [r7, #80]
 435:.\lib_DS1307/DS1307.c ****     
 436:.\lib_DS1307/DS1307.c ****     /*Get time format*/
 437:.\lib_DS1307/DS1307.c ****     uint32_t timeFormat= ((0uL != (inputTime & (1uL << DS1307_TIME_FORMAT_OFFSET))) ? (uint32)!DS13
 1164              		.loc 1 437 0
 1165 01b4 3A6A     		ldr	r2, [r7, #32]
 1166 01b6 8023     		mov	r3, #128
 1167 01b8 1B04     		lsl	r3, r3, #16
 1168 01ba 1340     		and	r3, r2
 1169 01bc 01D0     		beq	.L43
 1170              		.loc 1 437 0 is_stmt 0 discriminator 1
 1171 01be 0123     		mov	r3, #1
 1172 01c0 00E0     		b	.L44
 1173              	.L43:
 1174              		.loc 1 437 0 discriminator 2
 1175 01c2 0023     		mov	r3, #0
 1176              	.L44:
 1177              		.loc 1 437 0 discriminator 4
 1178 01c4 BB63     		str	r3, [r7, #56]
 438:.\lib_DS1307/DS1307.c ****                                                                                   (uint32)!DS1307_2
 439:.\lib_DS1307/DS1307.c ****    
 440:.\lib_DS1307/DS1307.c ****     uint32_t AmRm = ((DS1307_PERIOD_OF_DAY_MASK_UNIX == (inputTime & DS1307_PERIOD_OF_DAY_MASK_UNIX
 1179              		.loc 1 440 0 is_stmt 1 discriminator 4
 1180 01c6 3A6A     		ldr	r2, [r7, #32]
 1181 01c8 8023     		mov	r3, #128
 1182 01ca DB03     		lsl	r3, r3, #15
 1183 01cc 1340     		and	r3, r2
 1184 01ce 01D0     		beq	.L45
 1185              		.loc 1 440 0 is_stmt 0 discriminator 1
 1186 01d0 0123     		mov	r3, #1
 1187 01d2 00E0     		b	.L46
 1188              	.L45:
 1189              		.loc 1 440 0 discriminator 2
 1190 01d4 0023     		mov	r3, #0
 1191              	.L46:
 1192              		.loc 1 440 0 discriminator 4
 1193 01d6 7B63     		str	r3, [r7, #52]
 441:.\lib_DS1307/DS1307.c ****     if(((uint32)!DS1307_24TIME_FORMAT != timeFormat) &&
 1194              		.loc 1 441 0 is_stmt 1 discriminator 4
 1195 01d8 BB6B     		ldr	r3, [r7, #56]
 1196 01da 002B     		cmp	r3, #0
 1197 01dc 08D0     		beq	.L47
 1198              		.loc 1 441 0 is_stmt 0 discriminator 1
 1199 01de 7B6B     		ldr	r3, [r7, #52]
 1200 01e0 012B     		cmp	r3, #1
 1201 01e2 05D1     		bne	.L47
 442:.\lib_DS1307/DS1307.c ****        ((uint32)DS1307_AM == AmRm) && (tmpVal < 12u))
 1202              		.loc 1 442 0 is_stmt 1
 1203 01e4 3B6D     		ldr	r3, [r7, #80]
 1204 01e6 0B2B     		cmp	r3, #11
ARM GAS  C:\Users\Petro\AppData\Local\Temp\cctrdDFV.s 			page 30


 1205 01e8 02D8     		bhi	.L47
 443:.\lib_DS1307/DS1307.c ****     {
 444:.\lib_DS1307/DS1307.c ****         tmpVal += DS1307_HOURS_PER_HALF_DAY;
 1206              		.loc 1 444 0
 1207 01ea 3B6D     		ldr	r3, [r7, #80]
 1208 01ec 0C33     		add	r3, r3, #12
 1209 01ee 3B65     		str	r3, [r7, #80]
 1210              	.L47:
 445:.\lib_DS1307/DS1307.c ****     }
 446:.\lib_DS1307/DS1307.c ****     unixTime += tmpVal * DS1307_SECONDS_PER_HOUR;
 1211              		.loc 1 446 0
 1212 01f0 3B6D     		ldr	r3, [r7, #80]
 1213 01f2 E122     		mov	r2, #225
 1214 01f4 1201     		lsl	r2, r2, #4
 1215 01f6 5343     		mul	r3, r2
 1216 01f8 BB60     		str	r3, [r7, #8]
 1217 01fa 0023     		mov	r3, #0
 1218 01fc FB60     		str	r3, [r7, #12]
 1219 01fe BB6C     		ldr	r3, [r7, #72]
 1220 0200 FC6C     		ldr	r4, [r7, #76]
 1221 0202 B968     		ldr	r1, [r7, #8]
 1222 0204 FA68     		ldr	r2, [r7, #12]
 1223 0206 5B18     		add	r3, r3, r1
 1224 0208 5441     		adc	r4, r4, r2
 1225 020a BB64     		str	r3, [r7, #72]
 1226 020c FC64     		str	r4, [r7, #76]
 447:.\lib_DS1307/DS1307.c **** 
 448:.\lib_DS1307/DS1307.c ****     /* Calculates how many seconds have elapsed today up to the current minute. */
 449:.\lib_DS1307/DS1307.c ****     /*get Minutes*/
 450:.\lib_DS1307/DS1307.c ****     uint32_t minutes;
 451:.\lib_DS1307/DS1307.c ****     minutes  = ((inputTime & DS1307_10_MINUTES_MASK_UNIX) >> DS1307_10_MINUTES_OFFSET) * 10u;
 1227              		.loc 1 451 0
 1228 020e 3A6A     		ldr	r2, [r7, #32]
 1229 0210 E023     		mov	r3, #224
 1230 0212 DB01     		lsl	r3, r3, #7
 1231 0214 1340     		and	r3, r2
 1232 0216 1A0B     		lsr	r2, r3, #12
 1233 0218 131C     		mov	r3, r2
 1234 021a 9B00     		lsl	r3, r3, #2
 1235 021c 9B18     		add	r3, r3, r2
 1236 021e 5B00     		lsl	r3, r3, #1
 1237 0220 3B63     		str	r3, [r7, #48]
 452:.\lib_DS1307/DS1307.c ****     minutes += (inputTime & DS1307_MINUTES_MASK_UNIX) >> DS1307_MINUTES_OFFSET;
 1238              		.loc 1 452 0
 1239 0222 3A6A     		ldr	r2, [r7, #32]
 1240 0224 F023     		mov	r3, #240
 1241 0226 1B01     		lsl	r3, r3, #4
 1242 0228 1340     		and	r3, r2
 1243 022a 1B0A     		lsr	r3, r3, #8
 1244 022c 3A6B     		ldr	r2, [r7, #48]
 1245 022e D318     		add	r3, r2, r3
 1246 0230 3B63     		str	r3, [r7, #48]
 453:.\lib_DS1307/DS1307.c ****     
 454:.\lib_DS1307/DS1307.c ****     unixTime += minutes * DS1307_SECONDS_PER_MINUTE;
 1247              		.loc 1 454 0
 1248 0232 3A6B     		ldr	r2, [r7, #48]
 1249 0234 131C     		mov	r3, r2
ARM GAS  C:\Users\Petro\AppData\Local\Temp\cctrdDFV.s 			page 31


 1250 0236 1B01     		lsl	r3, r3, #4
 1251 0238 9B1A     		sub	r3, r3, r2
 1252 023a 9B00     		lsl	r3, r3, #2
 1253 023c 3B60     		str	r3, [r7]
 1254 023e 0023     		mov	r3, #0
 1255 0240 7B60     		str	r3, [r7, #4]
 1256 0242 BB6C     		ldr	r3, [r7, #72]
 1257 0244 FC6C     		ldr	r4, [r7, #76]
 1258 0246 3968     		ldr	r1, [r7]
 1259 0248 7A68     		ldr	r2, [r7, #4]
 1260 024a 5B18     		add	r3, r3, r1
 1261 024c 5441     		adc	r4, r4, r2
 1262 024e BB64     		str	r3, [r7, #72]
 1263 0250 FC64     		str	r4, [r7, #76]
 455:.\lib_DS1307/DS1307.c **** 
 456:.\lib_DS1307/DS1307.c ****     /* Add remaining seconds of current minute. */
 457:.\lib_DS1307/DS1307.c ****     uint32_t seconds;
 458:.\lib_DS1307/DS1307.c ****     seconds  = ((inputTime & DS1307_10_SECONDS_MASK_UNIX) >> DS1307_10_SECONDS_OFFSET) * 10u;
 1264              		.loc 1 458 0
 1265 0252 3B6A     		ldr	r3, [r7, #32]
 1266 0254 7022     		mov	r2, #112
 1267 0256 1340     		and	r3, r2
 1268 0258 1A09     		lsr	r2, r3, #4
 1269 025a 131C     		mov	r3, r2
 1270 025c 9B00     		lsl	r3, r3, #2
 1271 025e 9B18     		add	r3, r3, r2
 1272 0260 5B00     		lsl	r3, r3, #1
 1273 0262 FB62     		str	r3, [r7, #44]
 459:.\lib_DS1307/DS1307.c ****     seconds += (inputTime & DS1307_SECONDS_MASK_UNIX) >> DS1307_SECONDS_OFFSET;
 1274              		.loc 1 459 0
 1275 0264 3B6A     		ldr	r3, [r7, #32]
 1276 0266 0F22     		mov	r2, #15
 1277 0268 1340     		and	r3, r2
 1278 026a FA6A     		ldr	r2, [r7, #44]
 1279 026c D318     		add	r3, r2, r3
 1280 026e FB62     		str	r3, [r7, #44]
 460:.\lib_DS1307/DS1307.c ****     unixTime += seconds;
 1281              		.loc 1 460 0
 1282 0270 FB6A     		ldr	r3, [r7, #44]
 1283 0272 1D1C     		mov	r5, r3
 1284 0274 0023     		mov	r3, #0
 1285 0276 1E1C     		mov	r6, r3
 1286 0278 BB6C     		ldr	r3, [r7, #72]
 1287 027a FC6C     		ldr	r4, [r7, #76]
 1288 027c 5B19     		add	r3, r3, r5
 1289 027e 7441     		adc	r4, r4, r6
 1290 0280 BB64     		str	r3, [r7, #72]
 1291 0282 FC64     		str	r4, [r7, #76]
 461:.\lib_DS1307/DS1307.c **** 
 462:.\lib_DS1307/DS1307.c ****     return(unixTime);
 1292              		.loc 1 462 0
 1293 0284 BB6C     		ldr	r3, [r7, #72]
 1294 0286 FC6C     		ldr	r4, [r7, #76]
 463:.\lib_DS1307/DS1307.c **** }
 1295              		.loc 1 463 0
 1296 0288 181C     		mov	r0, r3
 1297 028a 211C     		mov	r1, r4
ARM GAS  C:\Users\Petro\AppData\Local\Temp\cctrdDFV.s 			page 32


 1298 028c BD46     		mov	sp, r7
 1299 028e 17B0     		add	sp, sp, #92
 1300              		@ sp needed
 1301 0290 F0BD     		pop	{r4, r5, r6, r7, pc}
 1302              	.L50:
 1303 0292 C046     		.align	2
 1304              	.L49:
 1305 0294 B2070000 		.word	1970
 1306 0298 0085E201 		.word	31622400
 1307 029c 8033E101 		.word	31536000
 1308 02a0 00000000 		.word	DS1307_daysBeforeMonthTbl1
 1309 02a4 80510100 		.word	86400
 1310 02a8 80AEFEFF 		.word	-86400
 1311              		.cfi_endproc
 1312              	.LFE6:
 1313              		.size	DS1307_DateTimeToUnix, .-DS1307_DateTimeToUnix
 1314              		.section	.text.DS1307_GetUnixTime,"ax",%progbits
 1315              		.align	2
 1316              		.global	DS1307_GetUnixTime
 1317              		.code	16
 1318              		.thumb_func
 1319              		.type	DS1307_GetUnixTime, %function
 1320              	DS1307_GetUnixTime:
 1321              	.LFB7:
 464:.\lib_DS1307/DS1307.c **** 
 465:.\lib_DS1307/DS1307.c **** /*******************************************************************************
 466:.\lib_DS1307/DS1307.c **** * Function Name: DS1307_GetUnixTime
 467:.\lib_DS1307/DS1307.c **** ********************************************************************************
 468:.\lib_DS1307/DS1307.c **** *
 469:.\lib_DS1307/DS1307.c **** * Summary:
 470:.\lib_DS1307/DS1307.c **** *   get time from DS1307
 471:.\lib_DS1307/DS1307.c **** * Return:
 472:.\lib_DS1307/DS1307.c **** *   unix time
 473:.\lib_DS1307/DS1307.c **** *
 474:.\lib_DS1307/DS1307.c **** *******************************************************************************/
 475:.\lib_DS1307/DS1307.c **** uint64_t DS1307_GetUnixTime(void)
 476:.\lib_DS1307/DS1307.c **** {
 1322              		.loc 1 476 0
 1323              		.cfi_startproc
 1324 0000 90B5     		push	{r4, r7, lr}
 1325              		.cfi_def_cfa_offset 12
 1326              		.cfi_offset 4, -12
 1327              		.cfi_offset 7, -8
 1328              		.cfi_offset 14, -4
 1329 0002 89B0     		sub	sp, sp, #36
 1330              		.cfi_def_cfa_offset 48
 1331 0004 02AF     		add	r7, sp, #8
 1332              		.cfi_def_cfa 7, 40
 477:.\lib_DS1307/DS1307.c ****     uint64_t unixTime;
 478:.\lib_DS1307/DS1307.c ****     uint32_t date;
 479:.\lib_DS1307/DS1307.c ****     uint32_t time;
 480:.\lib_DS1307/DS1307.c ****     uint32_t status;
 481:.\lib_DS1307/DS1307.c ****     
 482:.\lib_DS1307/DS1307.c ****     status = DS1307_ReadTimeToStruct();
 1333              		.loc 1 482 0
 1334 0006 FFF7FEFF 		bl	DS1307_ReadTimeToStruct
 1335 000a 031C     		mov	r3, r0
ARM GAS  C:\Users\Petro\AppData\Local\Temp\cctrdDFV.s 			page 33


 1336 000c FB60     		str	r3, [r7, #12]
 483:.\lib_DS1307/DS1307.c ****     
 484:.\lib_DS1307/DS1307.c ****     if(status == I2C_I2C_MSTR_NO_ERROR)
 1337              		.loc 1 484 0
 1338 000e FB68     		ldr	r3, [r7, #12]
 1339 0010 002B     		cmp	r3, #0
 1340 0012 2DD1     		bne	.L52
 485:.\lib_DS1307/DS1307.c ****     {
 486:.\lib_DS1307/DS1307.c ****         date = DS1307_ConstructDate(DS1307_currentTimeDate.month,\
 1341              		.loc 1 486 0
 1342 0014 1C4B     		ldr	r3, .L55
 1343 0016 DB79     		ldrb	r3, [r3, #7]
 1344 0018 191C     		mov	r1, r3
 487:.\lib_DS1307/DS1307.c ****                                     DS1307_currentTimeDate.date, \
 1345              		.loc 1 487 0
 1346 001a 1B4B     		ldr	r3, .L55
 1347 001c 9B79     		ldrb	r3, [r3, #6]
 486:.\lib_DS1307/DS1307.c ****                                     DS1307_currentTimeDate.date, \
 1348              		.loc 1 486 0
 1349 001e 1A1C     		mov	r2, r3
 488:.\lib_DS1307/DS1307.c ****                                     DS1307_currentTimeDate.year);
 1350              		.loc 1 488 0
 1351 0020 194B     		ldr	r3, .L55
 1352 0022 1B89     		ldrh	r3, [r3, #8]
 486:.\lib_DS1307/DS1307.c ****                                     DS1307_currentTimeDate.date, \
 1353              		.loc 1 486 0
 1354 0024 081C     		mov	r0, r1
 1355 0026 111C     		mov	r1, r2
 1356 0028 1A1C     		mov	r2, r3
 1357 002a FFF7FEFF 		bl	DS1307_ConstructDate
 1358 002e 031C     		mov	r3, r0
 1359 0030 BB60     		str	r3, [r7, #8]
 489:.\lib_DS1307/DS1307.c ****         time = DS1307_ConstructTime(DS1307_currentTimeDate.timeFormat,   \
 1360              		.loc 1 489 0
 1361 0032 154B     		ldr	r3, .L55
 1362 0034 DB78     		ldrb	r3, [r3, #3]
 1363 0036 181C     		mov	r0, r3
 490:.\lib_DS1307/DS1307.c ****                                     DS1307_currentTimeDate.AmRm,   \
 1364              		.loc 1 490 0
 1365 0038 134B     		ldr	r3, .L55
 1366 003a 1B79     		ldrb	r3, [r3, #4]
 489:.\lib_DS1307/DS1307.c ****         time = DS1307_ConstructTime(DS1307_currentTimeDate.timeFormat,   \
 1367              		.loc 1 489 0
 1368 003c 191C     		mov	r1, r3
 491:.\lib_DS1307/DS1307.c ****                                     DS1307_currentTimeDate.hours,   \
 1369              		.loc 1 491 0
 1370 003e 124B     		ldr	r3, .L55
 1371 0040 9B78     		ldrb	r3, [r3, #2]
 489:.\lib_DS1307/DS1307.c ****         time = DS1307_ConstructTime(DS1307_currentTimeDate.timeFormat,   \
 1372              		.loc 1 489 0
 1373 0042 1A1C     		mov	r2, r3
 492:.\lib_DS1307/DS1307.c ****                                     DS1307_currentTimeDate.minutes,   \
 1374              		.loc 1 492 0
 1375 0044 104B     		ldr	r3, .L55
 1376 0046 5B78     		ldrb	r3, [r3, #1]
 489:.\lib_DS1307/DS1307.c ****                                     DS1307_currentTimeDate.AmRm,   \
 1377              		.loc 1 489 0
ARM GAS  C:\Users\Petro\AppData\Local\Temp\cctrdDFV.s 			page 34


 1378 0048 1C1C     		mov	r4, r3
 493:.\lib_DS1307/DS1307.c ****                                     DS1307_currentTimeDate.second);
 1379              		.loc 1 493 0
 1380 004a 0F4B     		ldr	r3, .L55
 1381 004c 1B78     		ldrb	r3, [r3]
 489:.\lib_DS1307/DS1307.c ****                                     DS1307_currentTimeDate.AmRm,   \
 1382              		.loc 1 489 0
 1383 004e 0093     		str	r3, [sp]
 1384 0050 231C     		mov	r3, r4
 1385 0052 FFF7FEFF 		bl	DS1307_ConstructTime
 1386 0056 031C     		mov	r3, r0
 1387 0058 7B60     		str	r3, [r7, #4]
 494:.\lib_DS1307/DS1307.c ****         /*convert  time and data in unix format*/
 495:.\lib_DS1307/DS1307.c ****         unixTime = DS1307_DateTimeToUnix(date, time);
 1388              		.loc 1 495 0
 1389 005a BA68     		ldr	r2, [r7, #8]
 1390 005c 7B68     		ldr	r3, [r7, #4]
 1391 005e 101C     		mov	r0, r2
 1392 0060 191C     		mov	r1, r3
 1393 0062 FFF7FEFF 		bl	DS1307_DateTimeToUnix
 1394 0066 031C     		mov	r3, r0
 1395 0068 0C1C     		mov	r4, r1
 1396 006a 3B61     		str	r3, [r7, #16]
 1397 006c 7C61     		str	r4, [r7, #20]
 1398 006e 03E0     		b	.L53
 1399              	.L52:
 496:.\lib_DS1307/DS1307.c ****     }
 497:.\lib_DS1307/DS1307.c ****     else 
 498:.\lib_DS1307/DS1307.c ****     {
 499:.\lib_DS1307/DS1307.c ****         unixTime = 0;
 1400              		.loc 1 499 0
 1401 0070 0023     		mov	r3, #0
 1402 0072 0024     		mov	r4, #0
 1403 0074 3B61     		str	r3, [r7, #16]
 1404 0076 7C61     		str	r4, [r7, #20]
 1405              	.L53:
 500:.\lib_DS1307/DS1307.c ****     }
 501:.\lib_DS1307/DS1307.c ****     
 502:.\lib_DS1307/DS1307.c ****     return unixTime;
 1406              		.loc 1 502 0
 1407 0078 3B69     		ldr	r3, [r7, #16]
 1408 007a 7C69     		ldr	r4, [r7, #20]
 503:.\lib_DS1307/DS1307.c **** }
 1409              		.loc 1 503 0
 1410 007c 181C     		mov	r0, r3
 1411 007e 211C     		mov	r1, r4
 1412 0080 BD46     		mov	sp, r7
 1413 0082 07B0     		add	sp, sp, #28
 1414              		@ sp needed
 1415 0084 90BD     		pop	{r4, r7, pc}
 1416              	.L56:
 1417 0086 C046     		.align	2
 1418              	.L55:
 1419 0088 00000000 		.word	DS1307_currentTimeDate
 1420              		.cfi_endproc
 1421              	.LFE7:
 1422              		.size	DS1307_GetUnixTime, .-DS1307_GetUnixTime
ARM GAS  C:\Users\Petro\AppData\Local\Temp\cctrdDFV.s 			page 35


 1423              		.global	__aeabi_uldivmod
 1424              		.section	.text.DS1307_SetUnixTime,"ax",%progbits
 1425              		.align	2
 1426              		.global	DS1307_SetUnixTime
 1427              		.code	16
 1428              		.thumb_func
 1429              		.type	DS1307_SetUnixTime, %function
 1430              	DS1307_SetUnixTime:
 1431              	.LFB8:
 504:.\lib_DS1307/DS1307.c **** 
 505:.\lib_DS1307/DS1307.c **** /*******************************************************************************
 506:.\lib_DS1307/DS1307.c **** * Function Name: DS1307_SetUnixTime
 507:.\lib_DS1307/DS1307.c **** ********************************************************************************
 508:.\lib_DS1307/DS1307.c **** *
 509:.\lib_DS1307/DS1307.c **** * Summary:
 510:.\lib_DS1307/DS1307.c **** *   Set time in DS1307
 511:.\lib_DS1307/DS1307.c **** * Parametrs:
 512:.\lib_DS1307/DS1307.c **** *   unixTime - time in unix format
 513:.\lib_DS1307/DS1307.c **** *
 514:.\lib_DS1307/DS1307.c **** *******************************************************************************/
 515:.\lib_DS1307/DS1307.c **** void DS1307_SetUnixTime( uint64 unixTime)
 516:.\lib_DS1307/DS1307.c **** {
 1432              		.loc 1 516 0
 1433              		.cfi_startproc
 1434 0000 F0B5     		push	{r4, r5, r6, r7, lr}
 1435              		.cfi_def_cfa_offset 20
 1436              		.cfi_offset 4, -20
 1437              		.cfi_offset 5, -16
 1438              		.cfi_offset 6, -12
 1439              		.cfi_offset 7, -8
 1440              		.cfi_offset 14, -4
 1441 0002 A7B0     		sub	sp, sp, #156
 1442              		.cfi_def_cfa_offset 176
 1443 0004 00AF     		add	r7, sp, #0
 1444              		.cfi_def_cfa_register 7
 1445 0006 B864     		str	r0, [r7, #72]
 1446 0008 F964     		str	r1, [r7, #76]
 517:.\lib_DS1307/DS1307.c ****     uint32 tmpMinute;
 518:.\lib_DS1307/DS1307.c ****     uint32 tmpHour;
 519:.\lib_DS1307/DS1307.c ****     uint32 tmpAmPmState;
 520:.\lib_DS1307/DS1307.c ****     uint32 timeFormat;
 521:.\lib_DS1307/DS1307.c **** 
 522:.\lib_DS1307/DS1307.c ****     uint32 tmpDay;
 523:.\lib_DS1307/DS1307.c ****     uint32 tmpMonth;
 524:.\lib_DS1307/DS1307.c ****     uint32 tmpYear;
 525:.\lib_DS1307/DS1307.c **** 
 526:.\lib_DS1307/DS1307.c ****     uint32 tmpVar;
 527:.\lib_DS1307/DS1307.c ****     
 528:.\lib_DS1307/DS1307.c ****     timeFormat = DS1307_24TIME_FORMAT;
 1447              		.loc 1 528 0
 1448 000a 0123     		mov	r3, #1
 1449 000c 7B66     		str	r3, [r7, #100]
 529:.\lib_DS1307/DS1307.c ****     tmpAmPmState = 0u;
 1450              		.loc 1 529 0
 1451 000e 0023     		mov	r3, #0
 1452 0010 9022     		mov	r2, #144
 1453 0012 BA18     		add	r2, r7, r2
ARM GAS  C:\Users\Petro\AppData\Local\Temp\cctrdDFV.s 			page 36


 1454 0014 1360     		str	r3, [r2]
 530:.\lib_DS1307/DS1307.c ****     tmpYear = DS1307_YEAR_0;
 1455              		.loc 1 530 0
 1456 0016 CB4B     		ldr	r3, .L108
 1457 0018 8822     		mov	r2, #136
 1458 001a BA18     		add	r2, r7, r2
 1459 001c 1360     		str	r3, [r2]
 531:.\lib_DS1307/DS1307.c ****     tmpVar = DS1307_SECONDS_PER_NONLEAP_YEAR;
 1460              		.loc 1 531 0
 1461 001e CA4B     		ldr	r3, .L108+4
 1462 0020 8422     		mov	r2, #132
 1463 0022 BA18     		add	r2, r7, r2
 1464 0024 1360     		str	r3, [r2]
 532:.\lib_DS1307/DS1307.c **** 
 533:.\lib_DS1307/DS1307.c ****     /* Calculates current year value. Variable tmpYear
 534:.\lib_DS1307/DS1307.c ****     *  increments while it contains value greater than number
 535:.\lib_DS1307/DS1307.c ****     *  of seconds in current year.
 536:.\lib_DS1307/DS1307.c ****     */
 537:.\lib_DS1307/DS1307.c ****     while(unixTime > tmpVar)
 1465              		.loc 1 537 0
 1466 0026 44E0     		b	.L58
 1467              	.L64:
 1468              	.LBB2:
 538:.\lib_DS1307/DS1307.c ****     {
 539:.\lib_DS1307/DS1307.c ****         unixTime -= tmpVar;
 1469              		.loc 1 539 0
 1470 0028 8423     		mov	r3, #132
 1471 002a FB18     		add	r3, r7, r3
 1472 002c 1B68     		ldr	r3, [r3]
 1473 002e BB60     		str	r3, [r7, #8]
 1474 0030 0023     		mov	r3, #0
 1475 0032 FB60     		str	r3, [r7, #12]
 1476 0034 BB6C     		ldr	r3, [r7, #72]
 1477 0036 FC6C     		ldr	r4, [r7, #76]
 1478 0038 B968     		ldr	r1, [r7, #8]
 1479 003a FA68     		ldr	r2, [r7, #12]
 1480 003c 5B1A     		sub	r3, r3, r1
 1481 003e 9441     		sbc	r4, r4, r2
 1482 0040 BB64     		str	r3, [r7, #72]
 1483 0042 FC64     		str	r4, [r7, #76]
 540:.\lib_DS1307/DS1307.c ****         tmpYear++;
 1484              		.loc 1 540 0
 1485 0044 8823     		mov	r3, #136
 1486 0046 FB18     		add	r3, r7, r3
 1487 0048 1B68     		ldr	r3, [r3]
 1488 004a 0133     		add	r3, r3, #1
 1489 004c 8822     		mov	r2, #136
 1490 004e BA18     		add	r2, r7, r2
 1491 0050 1360     		str	r3, [r2]
 541:.\lib_DS1307/DS1307.c ****         
 542:.\lib_DS1307/DS1307.c ****         /*Leap year*/
 543:.\lib_DS1307/DS1307.c ****         uint32_t leapYear;
 544:.\lib_DS1307/DS1307.c ****         if(((0u == (tmpYear % 4Lu)) && (0u != (tmpYear % 100Lu))) || (0u == (tmpYear % 400Lu)))
 1492              		.loc 1 544 0
 1493 0052 8823     		mov	r3, #136
 1494 0054 FB18     		add	r3, r7, r3
 1495 0056 1A68     		ldr	r2, [r3]
ARM GAS  C:\Users\Petro\AppData\Local\Temp\cctrdDFV.s 			page 37


 1496 0058 0323     		mov	r3, #3
 1497 005a 1340     		and	r3, r2
 1498 005c 08D1     		bne	.L59
 1499              		.loc 1 544 0 is_stmt 0 discriminator 1
 1500 005e 8823     		mov	r3, #136
 1501 0060 FB18     		add	r3, r7, r3
 1502 0062 1B68     		ldr	r3, [r3]
 1503 0064 181C     		mov	r0, r3
 1504 0066 6421     		mov	r1, #100
 1505 0068 FFF7FEFF 		bl	__aeabi_uidivmod
 1506 006c 0B1E     		sub	r3, r1, #0
 1507 006e 09D1     		bne	.L60
 1508              	.L59:
 1509              		.loc 1 544 0 discriminator 3
 1510 0070 8823     		mov	r3, #136
 1511 0072 FB18     		add	r3, r7, r3
 1512 0074 1B68     		ldr	r3, [r3]
 1513 0076 181C     		mov	r0, r3
 1514 0078 C823     		mov	r3, #200
 1515 007a 5900     		lsl	r1, r3, #1
 1516 007c FFF7FEFF 		bl	__aeabi_uidivmod
 1517 0080 0B1E     		sub	r3, r1, #0
 1518 0082 04D1     		bne	.L61
 1519              	.L60:
 545:.\lib_DS1307/DS1307.c ****         {
 546:.\lib_DS1307/DS1307.c ****             leapYear = 1uL;
 1520              		.loc 1 546 0 is_stmt 1
 1521 0084 0123     		mov	r3, #1
 1522 0086 8022     		mov	r2, #128
 1523 0088 BA18     		add	r2, r7, r2
 1524 008a 1360     		str	r3, [r2]
 1525 008c 03E0     		b	.L62
 1526              	.L61:
 547:.\lib_DS1307/DS1307.c ****         }
 548:.\lib_DS1307/DS1307.c ****         else
 549:.\lib_DS1307/DS1307.c ****         {
 550:.\lib_DS1307/DS1307.c ****             leapYear = 0uL;
 1527              		.loc 1 550 0
 1528 008e 0023     		mov	r3, #0
 1529 0090 8022     		mov	r2, #128
 1530 0092 BA18     		add	r2, r7, r2
 1531 0094 1360     		str	r3, [r2]
 1532              	.L62:
 551:.\lib_DS1307/DS1307.c ****         }
 552:.\lib_DS1307/DS1307.c ****         
 553:.\lib_DS1307/DS1307.c ****         if(0u != leapYear)
 1533              		.loc 1 553 0
 1534 0096 8023     		mov	r3, #128
 1535 0098 FB18     		add	r3, r7, r3
 1536 009a 1B68     		ldr	r3, [r3]
 1537 009c 002B     		cmp	r3, #0
 1538 009e 04D0     		beq	.L63
 554:.\lib_DS1307/DS1307.c ****         {
 555:.\lib_DS1307/DS1307.c ****             tmpVar = DS1307_SECONDS_PER_LEAP_YEAR;
 1539              		.loc 1 555 0
 1540 00a0 AA4B     		ldr	r3, .L108+8
 1541 00a2 8422     		mov	r2, #132
ARM GAS  C:\Users\Petro\AppData\Local\Temp\cctrdDFV.s 			page 38


 1542 00a4 BA18     		add	r2, r7, r2
 1543 00a6 1360     		str	r3, [r2]
 1544 00a8 03E0     		b	.L58
 1545              	.L63:
 556:.\lib_DS1307/DS1307.c ****         }
 557:.\lib_DS1307/DS1307.c ****         else
 558:.\lib_DS1307/DS1307.c ****         {
 559:.\lib_DS1307/DS1307.c ****             tmpVar = DS1307_SECONDS_PER_NONLEAP_YEAR;
 1546              		.loc 1 559 0
 1547 00aa A74B     		ldr	r3, .L108+4
 1548 00ac 8422     		mov	r2, #132
 1549 00ae BA18     		add	r2, r7, r2
 1550 00b0 1360     		str	r3, [r2]
 1551              	.L58:
 1552              	.LBE2:
 537:.\lib_DS1307/DS1307.c ****     {
 1553              		.loc 1 537 0
 1554 00b2 8423     		mov	r3, #132
 1555 00b4 FB18     		add	r3, r7, r3
 1556 00b6 1B68     		ldr	r3, [r3]
 1557 00b8 1D1C     		mov	r5, r3
 1558 00ba 0023     		mov	r3, #0
 1559 00bc 1E1C     		mov	r6, r3
 1560 00be FB6C     		ldr	r3, [r7, #76]
 1561 00c0 B342     		cmp	r3, r6
 1562 00c2 B1D8     		bhi	.L64
 1563 00c4 FB6C     		ldr	r3, [r7, #76]
 1564 00c6 B342     		cmp	r3, r6
 1565 00c8 02D1     		bne	.L102
 1566 00ca BB6C     		ldr	r3, [r7, #72]
 1567 00cc AB42     		cmp	r3, r5
 1568 00ce ABD8     		bhi	.L64
 1569              	.L102:
 560:.\lib_DS1307/DS1307.c ****         }
 561:.\lib_DS1307/DS1307.c **** 
 562:.\lib_DS1307/DS1307.c ****     }
 563:.\lib_DS1307/DS1307.c **** 
 564:.\lib_DS1307/DS1307.c ****     /* Calculates current month value. tmpMonth variable increments
 565:.\lib_DS1307/DS1307.c ****      * while unixTime variable value is greater than time
 566:.\lib_DS1307/DS1307.c ****      * interval from beginning of current year to beginning of
 567:.\lib_DS1307/DS1307.c ****      * current month
 568:.\lib_DS1307/DS1307.c ****     */
 569:.\lib_DS1307/DS1307.c ****     tmpMonth = 1;
 1570              		.loc 1 569 0
 1571 00d0 0123     		mov	r3, #1
 1572 00d2 8C22     		mov	r2, #140
 1573 00d4 BA18     		add	r2, r7, r2
 1574 00d6 1360     		str	r3, [r2]
 570:.\lib_DS1307/DS1307.c ****     
 571:.\lib_DS1307/DS1307.c ****     uint32_t daysInMonth;
 572:.\lib_DS1307/DS1307.c ****     daysInMonth = DS1307_daysInMonthTbl[tmpMonth - 1u];
 1575              		.loc 1 572 0
 1576 00d8 8C23     		mov	r3, #140
 1577 00da FB18     		add	r3, r7, r3
 1578 00dc 1B68     		ldr	r3, [r3]
 1579 00de 5A1E     		sub	r2, r3, #1
 1580 00e0 9B4B     		ldr	r3, .L108+12
ARM GAS  C:\Users\Petro\AppData\Local\Temp\cctrdDFV.s 			page 39


 1581 00e2 9B5C     		ldrb	r3, [r3, r2]
 1582 00e4 FB67     		str	r3, [r7, #124]
 573:.\lib_DS1307/DS1307.c ****     if((uint32)DS1307_FEBRUARY == tmpMonth)
 1583              		.loc 1 573 0
 1584 00e6 8C23     		mov	r3, #140
 1585 00e8 FB18     		add	r3, r7, r3
 1586 00ea 1B68     		ldr	r3, [r3]
 1587 00ec 022B     		cmp	r3, #2
 1588 00ee 23D1     		bne	.L66
 1589              	.LBB3:
 574:.\lib_DS1307/DS1307.c ****     {
 575:.\lib_DS1307/DS1307.c ****         /*Leap year*/
 576:.\lib_DS1307/DS1307.c ****         uint32_t leapYear;
 577:.\lib_DS1307/DS1307.c ****         if(((0u == (tmpYear % 4Lu)) && (0u != (tmpYear % 100Lu))) || (0u == (tmpYear % 400Lu)))
 1590              		.loc 1 577 0
 1591 00f0 8823     		mov	r3, #136
 1592 00f2 FB18     		add	r3, r7, r3
 1593 00f4 1A68     		ldr	r2, [r3]
 1594 00f6 0323     		mov	r3, #3
 1595 00f8 1340     		and	r3, r2
 1596 00fa 08D1     		bne	.L67
 1597              		.loc 1 577 0 is_stmt 0 discriminator 1
 1598 00fc 8823     		mov	r3, #136
 1599 00fe FB18     		add	r3, r7, r3
 1600 0100 1B68     		ldr	r3, [r3]
 1601 0102 181C     		mov	r0, r3
 1602 0104 6421     		mov	r1, #100
 1603 0106 FFF7FEFF 		bl	__aeabi_uidivmod
 1604 010a 0B1E     		sub	r3, r1, #0
 1605 010c 09D1     		bne	.L68
 1606              	.L67:
 1607              		.loc 1 577 0 discriminator 3
 1608 010e 8823     		mov	r3, #136
 1609 0110 FB18     		add	r3, r7, r3
 1610 0112 1B68     		ldr	r3, [r3]
 1611 0114 181C     		mov	r0, r3
 1612 0116 C823     		mov	r3, #200
 1613 0118 5900     		lsl	r1, r3, #1
 1614 011a FFF7FEFF 		bl	__aeabi_uidivmod
 1615 011e 0B1E     		sub	r3, r1, #0
 1616 0120 02D1     		bne	.L69
 1617              	.L68:
 578:.\lib_DS1307/DS1307.c ****         {
 579:.\lib_DS1307/DS1307.c ****             leapYear = 1uL;
 1618              		.loc 1 579 0 is_stmt 1
 1619 0122 0123     		mov	r3, #1
 1620 0124 BB67     		str	r3, [r7, #120]
 1621 0126 01E0     		b	.L70
 1622              	.L69:
 580:.\lib_DS1307/DS1307.c ****         }
 581:.\lib_DS1307/DS1307.c ****         else
 582:.\lib_DS1307/DS1307.c ****         {
 583:.\lib_DS1307/DS1307.c ****             leapYear = 0uL;
 1623              		.loc 1 583 0
 1624 0128 0023     		mov	r3, #0
 1625 012a BB67     		str	r3, [r7, #120]
 1626              	.L70:
ARM GAS  C:\Users\Petro\AppData\Local\Temp\cctrdDFV.s 			page 40


 584:.\lib_DS1307/DS1307.c ****         }
 585:.\lib_DS1307/DS1307.c ****         
 586:.\lib_DS1307/DS1307.c ****         if(0u != leapYear)
 1627              		.loc 1 586 0
 1628 012c BB6F     		ldr	r3, [r7, #120]
 1629 012e 002B     		cmp	r3, #0
 1630 0130 02D0     		beq	.L66
 587:.\lib_DS1307/DS1307.c ****         {
 588:.\lib_DS1307/DS1307.c ****             daysInMonth++;
 1631              		.loc 1 588 0
 1632 0132 FB6F     		ldr	r3, [r7, #124]
 1633 0134 0133     		add	r3, r3, #1
 1634 0136 FB67     		str	r3, [r7, #124]
 1635              	.L66:
 1636              	.LBE3:
 589:.\lib_DS1307/DS1307.c ****         }
 590:.\lib_DS1307/DS1307.c ****     }
 591:.\lib_DS1307/DS1307.c ****     
 592:.\lib_DS1307/DS1307.c ****     /*days in month*/
 593:.\lib_DS1307/DS1307.c ****     daysInMonth = DS1307_daysInMonthTbl[tmpMonth - 1u];
 1637              		.loc 1 593 0
 1638 0138 8C23     		mov	r3, #140
 1639 013a FB18     		add	r3, r7, r3
 1640 013c 1B68     		ldr	r3, [r3]
 1641 013e 5A1E     		sub	r2, r3, #1
 1642 0140 834B     		ldr	r3, .L108+12
 1643 0142 9B5C     		ldrb	r3, [r3, r2]
 1644 0144 FB67     		str	r3, [r7, #124]
 594:.\lib_DS1307/DS1307.c ****     if((uint32)DS1307_FEBRUARY == tmpMonth)
 1645              		.loc 1 594 0
 1646 0146 8C23     		mov	r3, #140
 1647 0148 FB18     		add	r3, r7, r3
 1648 014a 1B68     		ldr	r3, [r3]
 1649 014c 022B     		cmp	r3, #2
 1650 014e 23D1     		bne	.L71
 1651              	.LBB4:
 595:.\lib_DS1307/DS1307.c ****     {
 596:.\lib_DS1307/DS1307.c ****         uint32_t leapYear;
 597:.\lib_DS1307/DS1307.c ****         if(((0u == (tmpYear % 4Lu)) && (0u != (tmpYear % 100Lu))) || (0u == (tmpYear % 400Lu)))
 1652              		.loc 1 597 0
 1653 0150 8823     		mov	r3, #136
 1654 0152 FB18     		add	r3, r7, r3
 1655 0154 1A68     		ldr	r2, [r3]
 1656 0156 0323     		mov	r3, #3
 1657 0158 1340     		and	r3, r2
 1658 015a 08D1     		bne	.L72
 1659              		.loc 1 597 0 is_stmt 0 discriminator 1
 1660 015c 8823     		mov	r3, #136
 1661 015e FB18     		add	r3, r7, r3
 1662 0160 1B68     		ldr	r3, [r3]
 1663 0162 181C     		mov	r0, r3
 1664 0164 6421     		mov	r1, #100
 1665 0166 FFF7FEFF 		bl	__aeabi_uidivmod
 1666 016a 0B1E     		sub	r3, r1, #0
 1667 016c 09D1     		bne	.L73
 1668              	.L72:
 1669              		.loc 1 597 0 discriminator 3
ARM GAS  C:\Users\Petro\AppData\Local\Temp\cctrdDFV.s 			page 41


 1670 016e 8823     		mov	r3, #136
 1671 0170 FB18     		add	r3, r7, r3
 1672 0172 1B68     		ldr	r3, [r3]
 1673 0174 181C     		mov	r0, r3
 1674 0176 C823     		mov	r3, #200
 1675 0178 5900     		lsl	r1, r3, #1
 1676 017a FFF7FEFF 		bl	__aeabi_uidivmod
 1677 017e 0B1E     		sub	r3, r1, #0
 1678 0180 02D1     		bne	.L74
 1679              	.L73:
 598:.\lib_DS1307/DS1307.c ****         {
 599:.\lib_DS1307/DS1307.c ****             leapYear = 1uL;
 1680              		.loc 1 599 0 is_stmt 1
 1681 0182 0123     		mov	r3, #1
 1682 0184 7B67     		str	r3, [r7, #116]
 1683 0186 01E0     		b	.L75
 1684              	.L74:
 600:.\lib_DS1307/DS1307.c ****         }
 601:.\lib_DS1307/DS1307.c ****         else
 602:.\lib_DS1307/DS1307.c ****         {
 603:.\lib_DS1307/DS1307.c ****             leapYear = 0uL;
 1685              		.loc 1 603 0
 1686 0188 0023     		mov	r3, #0
 1687 018a 7B67     		str	r3, [r7, #116]
 1688              	.L75:
 604:.\lib_DS1307/DS1307.c ****         }
 605:.\lib_DS1307/DS1307.c ****         if(0u != leapYear)
 1689              		.loc 1 605 0
 1690 018c 7B6F     		ldr	r3, [r7, #116]
 1691 018e 002B     		cmp	r3, #0
 1692 0190 02D0     		beq	.L71
 606:.\lib_DS1307/DS1307.c ****         {
 607:.\lib_DS1307/DS1307.c ****             daysInMonth++;
 1693              		.loc 1 607 0
 1694 0192 FB6F     		ldr	r3, [r7, #124]
 1695 0194 0133     		add	r3, r3, #1
 1696 0196 FB67     		str	r3, [r7, #124]
 1697              	.L71:
 1698              	.LBE4:
 608:.\lib_DS1307/DS1307.c ****         }
 609:.\lib_DS1307/DS1307.c ****     }
 610:.\lib_DS1307/DS1307.c ****     tmpVar = daysInMonth * DS1307_SECONDS_PER_DAY;
 1699              		.loc 1 610 0
 1700 0198 FA6F     		ldr	r2, [r7, #124]
 1701 019a 6E4B     		ldr	r3, .L108+16
 1702 019c 5343     		mul	r3, r2
 1703 019e 8422     		mov	r2, #132
 1704 01a0 BA18     		add	r2, r7, r2
 1705 01a2 1360     		str	r3, [r2]
 611:.\lib_DS1307/DS1307.c **** 
 612:.\lib_DS1307/DS1307.c ****     while(unixTime >= tmpVar)
 1706              		.loc 1 612 0
 1707 01a4 4AE0     		b	.L76
 1708              	.L82:
 613:.\lib_DS1307/DS1307.c ****     {
 614:.\lib_DS1307/DS1307.c ****         unixTime -= tmpVar;
 1709              		.loc 1 614 0
ARM GAS  C:\Users\Petro\AppData\Local\Temp\cctrdDFV.s 			page 42


 1710 01a6 8423     		mov	r3, #132
 1711 01a8 FB18     		add	r3, r7, r3
 1712 01aa 1B68     		ldr	r3, [r3]
 1713 01ac 3B60     		str	r3, [r7]
 1714 01ae 0023     		mov	r3, #0
 1715 01b0 7B60     		str	r3, [r7, #4]
 1716 01b2 BB6C     		ldr	r3, [r7, #72]
 1717 01b4 FC6C     		ldr	r4, [r7, #76]
 1718 01b6 3968     		ldr	r1, [r7]
 1719 01b8 7A68     		ldr	r2, [r7, #4]
 1720 01ba 5B1A     		sub	r3, r3, r1
 1721 01bc 9441     		sbc	r4, r4, r2
 1722 01be BB64     		str	r3, [r7, #72]
 1723 01c0 FC64     		str	r4, [r7, #76]
 615:.\lib_DS1307/DS1307.c ****         tmpMonth++;
 1724              		.loc 1 615 0
 1725 01c2 8C23     		mov	r3, #140
 1726 01c4 FB18     		add	r3, r7, r3
 1727 01c6 1B68     		ldr	r3, [r3]
 1728 01c8 0133     		add	r3, r3, #1
 1729 01ca 8C22     		mov	r2, #140
 1730 01cc BA18     		add	r2, r7, r2
 1731 01ce 1360     		str	r3, [r2]
 616:.\lib_DS1307/DS1307.c ****             /*days in month*/
 617:.\lib_DS1307/DS1307.c ****         daysInMonth = DS1307_daysInMonthTbl[tmpMonth - 1u];
 1732              		.loc 1 617 0
 1733 01d0 8C23     		mov	r3, #140
 1734 01d2 FB18     		add	r3, r7, r3
 1735 01d4 1B68     		ldr	r3, [r3]
 1736 01d6 5A1E     		sub	r2, r3, #1
 1737 01d8 5D4B     		ldr	r3, .L108+12
 1738 01da 9B5C     		ldrb	r3, [r3, r2]
 1739 01dc FB67     		str	r3, [r7, #124]
 618:.\lib_DS1307/DS1307.c ****         if((uint32)DS1307_FEBRUARY == tmpMonth)
 1740              		.loc 1 618 0
 1741 01de 8C23     		mov	r3, #140
 1742 01e0 FB18     		add	r3, r7, r3
 1743 01e2 1B68     		ldr	r3, [r3]
 1744 01e4 022B     		cmp	r3, #2
 1745 01e6 23D1     		bne	.L77
 1746              	.LBB5:
 619:.\lib_DS1307/DS1307.c ****         {
 620:.\lib_DS1307/DS1307.c ****             uint32_t leapYear;
 621:.\lib_DS1307/DS1307.c ****             if(((0u == (tmpYear % 4Lu)) && (0u != (tmpYear % 100Lu))) || (0u == (tmpYear % 400Lu)))
 1747              		.loc 1 621 0
 1748 01e8 8823     		mov	r3, #136
 1749 01ea FB18     		add	r3, r7, r3
 1750 01ec 1A68     		ldr	r2, [r3]
 1751 01ee 0323     		mov	r3, #3
 1752 01f0 1340     		and	r3, r2
 1753 01f2 08D1     		bne	.L78
 1754              		.loc 1 621 0 is_stmt 0 discriminator 1
 1755 01f4 8823     		mov	r3, #136
 1756 01f6 FB18     		add	r3, r7, r3
 1757 01f8 1B68     		ldr	r3, [r3]
 1758 01fa 181C     		mov	r0, r3
 1759 01fc 6421     		mov	r1, #100
ARM GAS  C:\Users\Petro\AppData\Local\Temp\cctrdDFV.s 			page 43


 1760 01fe FFF7FEFF 		bl	__aeabi_uidivmod
 1761 0202 0B1E     		sub	r3, r1, #0
 1762 0204 09D1     		bne	.L79
 1763              	.L78:
 1764              		.loc 1 621 0 discriminator 3
 1765 0206 8823     		mov	r3, #136
 1766 0208 FB18     		add	r3, r7, r3
 1767 020a 1B68     		ldr	r3, [r3]
 1768 020c 181C     		mov	r0, r3
 1769 020e C823     		mov	r3, #200
 1770 0210 5900     		lsl	r1, r3, #1
 1771 0212 FFF7FEFF 		bl	__aeabi_uidivmod
 1772 0216 0B1E     		sub	r3, r1, #0
 1773 0218 02D1     		bne	.L80
 1774              	.L79:
 622:.\lib_DS1307/DS1307.c ****             {
 623:.\lib_DS1307/DS1307.c ****                 leapYear = 1uL;
 1775              		.loc 1 623 0 is_stmt 1
 1776 021a 0123     		mov	r3, #1
 1777 021c 3B67     		str	r3, [r7, #112]
 1778 021e 01E0     		b	.L81
 1779              	.L80:
 624:.\lib_DS1307/DS1307.c ****             }
 625:.\lib_DS1307/DS1307.c ****             else
 626:.\lib_DS1307/DS1307.c ****             {
 627:.\lib_DS1307/DS1307.c ****                 leapYear = 0uL;
 1780              		.loc 1 627 0
 1781 0220 0023     		mov	r3, #0
 1782 0222 3B67     		str	r3, [r7, #112]
 1783              	.L81:
 628:.\lib_DS1307/DS1307.c ****             }
 629:.\lib_DS1307/DS1307.c ****             if(0u != leapYear)
 1784              		.loc 1 629 0
 1785 0224 3B6F     		ldr	r3, [r7, #112]
 1786 0226 002B     		cmp	r3, #0
 1787 0228 02D0     		beq	.L77
 630:.\lib_DS1307/DS1307.c ****             {
 631:.\lib_DS1307/DS1307.c ****                daysInMonth++;
 1788              		.loc 1 631 0
 1789 022a FB6F     		ldr	r3, [r7, #124]
 1790 022c 0133     		add	r3, r3, #1
 1791 022e FB67     		str	r3, [r7, #124]
 1792              	.L77:
 1793              	.LBE5:
 632:.\lib_DS1307/DS1307.c ****             }
 633:.\lib_DS1307/DS1307.c ****         }
 634:.\lib_DS1307/DS1307.c ****             tmpVar = daysInMonth * DS1307_SECONDS_PER_DAY;
 1794              		.loc 1 634 0
 1795 0230 FA6F     		ldr	r2, [r7, #124]
 1796 0232 484B     		ldr	r3, .L108+16
 1797 0234 5343     		mul	r3, r2
 1798 0236 8422     		mov	r2, #132
 1799 0238 BA18     		add	r2, r7, r2
 1800 023a 1360     		str	r3, [r2]
 1801              	.L76:
 612:.\lib_DS1307/DS1307.c ****     {
 1802              		.loc 1 612 0
ARM GAS  C:\Users\Petro\AppData\Local\Temp\cctrdDFV.s 			page 44


 1803 023c 8423     		mov	r3, #132
 1804 023e FB18     		add	r3, r7, r3
 1805 0240 1B68     		ldr	r3, [r3]
 1806 0242 3B64     		str	r3, [r7, #64]
 1807 0244 0023     		mov	r3, #0
 1808 0246 7B64     		str	r3, [r7, #68]
 1809 0248 FB6C     		ldr	r3, [r7, #76]
 1810 024a 7A6C     		ldr	r2, [r7, #68]
 1811 024c 9342     		cmp	r3, r2
 1812 024e 07D3     		bcc	.L103
 1813 0250 FB6C     		ldr	r3, [r7, #76]
 1814 0252 7A6C     		ldr	r2, [r7, #68]
 1815 0254 9342     		cmp	r3, r2
 1816 0256 A6D1     		bne	.L82
 1817 0258 BB6C     		ldr	r3, [r7, #72]
 1818 025a 3A6C     		ldr	r2, [r7, #64]
 1819 025c 9342     		cmp	r3, r2
 1820 025e A2D2     		bcs	.L82
 1821              	.L103:
 635:.\lib_DS1307/DS1307.c ****         }
 636:.\lib_DS1307/DS1307.c **** 
 637:.\lib_DS1307/DS1307.c ****     /* Calculates current day value. */
 638:.\lib_DS1307/DS1307.c ****     tmpDay = (unixTime / DS1307_SECONDS_PER_DAY);
 1822              		.loc 1 638 0
 1823 0260 BB6C     		ldr	r3, [r7, #72]
 1824 0262 FC6C     		ldr	r4, [r7, #76]
 1825 0264 181C     		mov	r0, r3
 1826 0266 211C     		mov	r1, r4
 1827 0268 3A4A     		ldr	r2, .L108+16
 1828 026a 0023     		mov	r3, #0
 1829 026c FFF7FEFF 		bl	__aeabi_uldivmod
 1830 0270 031C     		mov	r3, r0
 1831 0272 0C1C     		mov	r4, r1
 1832 0274 3B66     		str	r3, [r7, #96]
 639:.\lib_DS1307/DS1307.c ****     tmpVar = tmpDay * DS1307_SECONDS_PER_DAY;
 1833              		.loc 1 639 0
 1834 0276 3A6E     		ldr	r2, [r7, #96]
 1835 0278 364B     		ldr	r3, .L108+16
 1836 027a 5343     		mul	r3, r2
 1837 027c 8422     		mov	r2, #132
 1838 027e BA18     		add	r2, r7, r2
 1839 0280 1360     		str	r3, [r2]
 640:.\lib_DS1307/DS1307.c ****     unixTime -= (unixTime >= tmpVar) ? tmpVar : 0u;
 1840              		.loc 1 640 0
 1841 0282 8423     		mov	r3, #132
 1842 0284 FB18     		add	r3, r7, r3
 1843 0286 1B68     		ldr	r3, [r3]
 1844 0288 BB63     		str	r3, [r7, #56]
 1845 028a 0023     		mov	r3, #0
 1846 028c FB63     		str	r3, [r7, #60]
 1847 028e FB6C     		ldr	r3, [r7, #76]
 1848 0290 FA6B     		ldr	r2, [r7, #60]
 1849 0292 9342     		cmp	r3, r2
 1850 0294 0ED3     		bcc	.L84
 1851 0296 FB6C     		ldr	r3, [r7, #76]
 1852 0298 FA6B     		ldr	r2, [r7, #60]
 1853 029a 9342     		cmp	r3, r2
ARM GAS  C:\Users\Petro\AppData\Local\Temp\cctrdDFV.s 			page 45


 1854 029c 03D1     		bne	.L104
 1855 029e BB6C     		ldr	r3, [r7, #72]
 1856 02a0 BA6B     		ldr	r2, [r7, #56]
 1857 02a2 9342     		cmp	r3, r2
 1858 02a4 06D3     		bcc	.L84
 1859              	.L104:
 1860              		.loc 1 640 0 is_stmt 0 discriminator 1
 1861 02a6 8423     		mov	r3, #132
 1862 02a8 FB18     		add	r3, r7, r3
 1863 02aa 1B68     		ldr	r3, [r3]
 1864 02ac 3B62     		str	r3, [r7, #32]
 1865 02ae 0023     		mov	r3, #0
 1866 02b0 7B62     		str	r3, [r7, #36]
 1867 02b2 03E0     		b	.L86
 1868              	.L84:
 1869              		.loc 1 640 0 discriminator 2
 1870 02b4 0023     		mov	r3, #0
 1871 02b6 0024     		mov	r4, #0
 1872 02b8 3B62     		str	r3, [r7, #32]
 1873 02ba 7C62     		str	r4, [r7, #36]
 1874              	.L86:
 1875              		.loc 1 640 0 discriminator 4
 1876 02bc BB6C     		ldr	r3, [r7, #72]
 1877 02be FC6C     		ldr	r4, [r7, #76]
 1878 02c0 396A     		ldr	r1, [r7, #32]
 1879 02c2 7A6A     		ldr	r2, [r7, #36]
 1880 02c4 5B1A     		sub	r3, r3, r1
 1881 02c6 9441     		sbc	r4, r4, r2
 1882 02c8 BB64     		str	r3, [r7, #72]
 1883 02ca FC64     		str	r4, [r7, #76]
 641:.\lib_DS1307/DS1307.c ****     tmpDay += 1u;
 1884              		.loc 1 641 0 is_stmt 1 discriminator 4
 1885 02cc 3B6E     		ldr	r3, [r7, #96]
 1886 02ce 0133     		add	r3, r3, #1
 1887 02d0 3B66     		str	r3, [r7, #96]
 642:.\lib_DS1307/DS1307.c **** 
 643:.\lib_DS1307/DS1307.c ****     /* Calculates current hour value. If function works in 12-Hour mode,
 644:.\lib_DS1307/DS1307.c ****      * it converts time to 12-Hours mode and calculates AmPm status */
 645:.\lib_DS1307/DS1307.c ****     tmpHour = unixTime / DS1307_SECONDS_PER_HOUR;
 1888              		.loc 1 645 0 discriminator 4
 1889 02d2 BB6C     		ldr	r3, [r7, #72]
 1890 02d4 FC6C     		ldr	r4, [r7, #76]
 1891 02d6 181C     		mov	r0, r3
 1892 02d8 211C     		mov	r1, r4
 1893 02da E122     		mov	r2, #225
 1894 02dc 1201     		lsl	r2, r2, #4
 1895 02de 0023     		mov	r3, #0
 1896 02e0 FFF7FEFF 		bl	__aeabi_uldivmod
 1897 02e4 031C     		mov	r3, r0
 1898 02e6 0C1C     		mov	r4, r1
 1899 02e8 9422     		mov	r2, #148
 1900 02ea BA18     		add	r2, r7, r2
 1901 02ec 1360     		str	r3, [r2]
 646:.\lib_DS1307/DS1307.c ****     tmpVar  = tmpHour * DS1307_SECONDS_PER_HOUR;
 1902              		.loc 1 646 0 discriminator 4
 1903 02ee 9423     		mov	r3, #148
 1904 02f0 FB18     		add	r3, r7, r3
ARM GAS  C:\Users\Petro\AppData\Local\Temp\cctrdDFV.s 			page 46


 1905 02f2 1B68     		ldr	r3, [r3]
 1906 02f4 E122     		mov	r2, #225
 1907 02f6 1201     		lsl	r2, r2, #4
 1908 02f8 5343     		mul	r3, r2
 1909 02fa 8422     		mov	r2, #132
 1910 02fc BA18     		add	r2, r7, r2
 1911 02fe 1360     		str	r3, [r2]
 647:.\lib_DS1307/DS1307.c ****     if((uint32)!DS1307_24TIME_FORMAT != timeFormat)
 1912              		.loc 1 647 0 discriminator 4
 1913 0300 7B6E     		ldr	r3, [r7, #100]
 1914 0302 002B     		cmp	r3, #0
 1915 0304 3BD0     		beq	.L87
 648:.\lib_DS1307/DS1307.c ****     {
 649:.\lib_DS1307/DS1307.c ****         if(unixTime > DS1307_UNIX_TIME_PM)
 1916              		.loc 1 649 0
 1917 0306 FB6C     		ldr	r3, [r7, #76]
 1918 0308 002B     		cmp	r3, #0
 1919 030a 06D1     		bne	.L105
 1920 030c FB6C     		ldr	r3, [r7, #76]
 1921 030e 002B     		cmp	r3, #0
 1922 0310 24D1     		bne	.L88
 1923 0312 BB6C     		ldr	r3, [r7, #72]
 1924 0314 104A     		ldr	r2, .L108+20
 1925 0316 9342     		cmp	r3, r2
 1926 0318 20D9     		bls	.L88
 1927              	.L105:
 650:.\lib_DS1307/DS1307.c ****         {
 651:.\lib_DS1307/DS1307.c ****             tmpAmPmState = !DS1307_PM;
 1928              		.loc 1 651 0
 1929 031a 0123     		mov	r3, #1
 1930 031c 9022     		mov	r2, #144
 1931 031e BA18     		add	r2, r7, r2
 1932 0320 1360     		str	r3, [r2]
 652:.\lib_DS1307/DS1307.c ****             tmpHour = (tmpHour > 12u) ? (tmpHour - 12u) : tmpHour;
 1933              		.loc 1 652 0
 1934 0322 9423     		mov	r3, #148
 1935 0324 FB18     		add	r3, r7, r3
 1936 0326 1B68     		ldr	r3, [r3]
 1937 0328 0C2B     		cmp	r3, #12
 1938 032a 04D9     		bls	.L90
 1939              		.loc 1 652 0 is_stmt 0 discriminator 1
 1940 032c 9423     		mov	r3, #148
 1941 032e FB18     		add	r3, r7, r3
 1942 0330 1B68     		ldr	r3, [r3]
 1943 0332 0C3B     		sub	r3, r3, #12
 1944 0334 02E0     		b	.L91
 1945              	.L90:
 1946              		.loc 1 652 0 discriminator 2
 1947 0336 9423     		mov	r3, #148
 1948 0338 FB18     		add	r3, r7, r3
 1949 033a 1B68     		ldr	r3, [r3]
 1950              	.L91:
 1951              		.loc 1 652 0 discriminator 4
 1952 033c 9422     		mov	r2, #148
 1953 033e BA18     		add	r2, r7, r2
 1954 0340 1360     		str	r3, [r2]
 1955 0342 1CE0     		b	.L87
ARM GAS  C:\Users\Petro\AppData\Local\Temp\cctrdDFV.s 			page 47


 1956              	.L109:
 1957              		.align	2
 1958              	.L108:
 1959 0344 B2070000 		.word	1970
 1960 0348 8033E101 		.word	31536000
 1961 034c 0085E201 		.word	31622400
 1962 0350 18000000 		.word	DS1307_daysInMonthTbl
 1963 0354 80510100 		.word	86400
 1964 0358 C1A80000 		.word	43201
 1965              	.L88:
 653:.\lib_DS1307/DS1307.c ****         }
 654:.\lib_DS1307/DS1307.c ****         else
 655:.\lib_DS1307/DS1307.c ****         {
 656:.\lib_DS1307/DS1307.c ****             tmpAmPmState = !DS1307_AM;
 1966              		.loc 1 656 0 is_stmt 1
 1967 035c 0023     		mov	r3, #0
 1968 035e 9022     		mov	r2, #144
 1969 0360 BA18     		add	r2, r7, r2
 1970 0362 1360     		str	r3, [r2]
 657:.\lib_DS1307/DS1307.c ****             tmpHour = (0u != tmpHour) ? tmpHour : 12u;
 1971              		.loc 1 657 0
 1972 0364 9423     		mov	r3, #148
 1973 0366 FB18     		add	r3, r7, r3
 1974 0368 1B68     		ldr	r3, [r3]
 1975 036a 002B     		cmp	r3, #0
 1976 036c 03D0     		beq	.L92
 1977              		.loc 1 657 0 is_stmt 0 discriminator 1
 1978 036e 9423     		mov	r3, #148
 1979 0370 FB18     		add	r3, r7, r3
 1980 0372 1B68     		ldr	r3, [r3]
 1981 0374 00E0     		b	.L93
 1982              	.L92:
 1983              		.loc 1 657 0 discriminator 2
 1984 0376 0C23     		mov	r3, #12
 1985              	.L93:
 1986              		.loc 1 657 0 discriminator 4
 1987 0378 9422     		mov	r2, #148
 1988 037a BA18     		add	r2, r7, r2
 1989 037c 1360     		str	r3, [r2]
 1990              	.L87:
 658:.\lib_DS1307/DS1307.c ****         }
 659:.\lib_DS1307/DS1307.c ****     }
 660:.\lib_DS1307/DS1307.c ****     unixTime -= (unixTime >= tmpVar) ? tmpVar : 0u;
 1991              		.loc 1 660 0 is_stmt 1
 1992 037e 8423     		mov	r3, #132
 1993 0380 FB18     		add	r3, r7, r3
 1994 0382 1B68     		ldr	r3, [r3]
 1995 0384 3B63     		str	r3, [r7, #48]
 1996 0386 0023     		mov	r3, #0
 1997 0388 7B63     		str	r3, [r7, #52]
 1998 038a FB6C     		ldr	r3, [r7, #76]
 1999 038c 7A6B     		ldr	r2, [r7, #52]
 2000 038e 9342     		cmp	r3, r2
 2001 0390 0ED3     		bcc	.L94
 2002 0392 FB6C     		ldr	r3, [r7, #76]
 2003 0394 7A6B     		ldr	r2, [r7, #52]
 2004 0396 9342     		cmp	r3, r2
ARM GAS  C:\Users\Petro\AppData\Local\Temp\cctrdDFV.s 			page 48


 2005 0398 03D1     		bne	.L106
 2006 039a BB6C     		ldr	r3, [r7, #72]
 2007 039c 3A6B     		ldr	r2, [r7, #48]
 2008 039e 9342     		cmp	r3, r2
 2009 03a0 06D3     		bcc	.L94
 2010              	.L106:
 2011              		.loc 1 660 0 is_stmt 0 discriminator 1
 2012 03a2 8423     		mov	r3, #132
 2013 03a4 FB18     		add	r3, r7, r3
 2014 03a6 1B68     		ldr	r3, [r3]
 2015 03a8 BB61     		str	r3, [r7, #24]
 2016 03aa 0023     		mov	r3, #0
 2017 03ac FB61     		str	r3, [r7, #28]
 2018 03ae 03E0     		b	.L96
 2019              	.L94:
 2020              		.loc 1 660 0 discriminator 2
 2021 03b0 0023     		mov	r3, #0
 2022 03b2 0024     		mov	r4, #0
 2023 03b4 BB61     		str	r3, [r7, #24]
 2024 03b6 FC61     		str	r4, [r7, #28]
 2025              	.L96:
 2026              		.loc 1 660 0 discriminator 4
 2027 03b8 BB6C     		ldr	r3, [r7, #72]
 2028 03ba FC6C     		ldr	r4, [r7, #76]
 2029 03bc B969     		ldr	r1, [r7, #24]
 2030 03be FA69     		ldr	r2, [r7, #28]
 2031 03c0 5B1A     		sub	r3, r3, r1
 2032 03c2 9441     		sbc	r4, r4, r2
 2033 03c4 BB64     		str	r3, [r7, #72]
 2034 03c6 FC64     		str	r4, [r7, #76]
 661:.\lib_DS1307/DS1307.c **** 
 662:.\lib_DS1307/DS1307.c ****     /* Calculates current minute.  */
 663:.\lib_DS1307/DS1307.c ****     tmpMinute = unixTime / DS1307_SECONDS_PER_MINUTE;
 2035              		.loc 1 663 0 is_stmt 1 discriminator 4
 2036 03c8 BB6C     		ldr	r3, [r7, #72]
 2037 03ca FC6C     		ldr	r4, [r7, #76]
 2038 03cc 181C     		mov	r0, r3
 2039 03ce 211C     		mov	r1, r4
 2040 03d0 3C22     		mov	r2, #60
 2041 03d2 0023     		mov	r3, #0
 2042 03d4 FFF7FEFF 		bl	__aeabi_uldivmod
 2043 03d8 031C     		mov	r3, r0
 2044 03da 0C1C     		mov	r4, r1
 2045 03dc FB65     		str	r3, [r7, #92]
 664:.\lib_DS1307/DS1307.c ****     tmpVar = tmpMinute * DS1307_SECONDS_PER_MINUTE;
 2046              		.loc 1 664 0 discriminator 4
 2047 03de FA6D     		ldr	r2, [r7, #92]
 2048 03e0 131C     		mov	r3, r2
 2049 03e2 1B01     		lsl	r3, r3, #4
 2050 03e4 9B1A     		sub	r3, r3, r2
 2051 03e6 9B00     		lsl	r3, r3, #2
 2052 03e8 8422     		mov	r2, #132
 2053 03ea BA18     		add	r2, r7, r2
 2054 03ec 1360     		str	r3, [r2]
 665:.\lib_DS1307/DS1307.c **** 
 666:.\lib_DS1307/DS1307.c ****     /* Calculates current second. */
 667:.\lib_DS1307/DS1307.c ****     unixTime -= (unixTime >= tmpVar) ? tmpVar : 0u;
ARM GAS  C:\Users\Petro\AppData\Local\Temp\cctrdDFV.s 			page 49


 2055              		.loc 1 667 0 discriminator 4
 2056 03ee 8423     		mov	r3, #132
 2057 03f0 FB18     		add	r3, r7, r3
 2058 03f2 1B68     		ldr	r3, [r3]
 2059 03f4 BB62     		str	r3, [r7, #40]
 2060 03f6 0023     		mov	r3, #0
 2061 03f8 FB62     		str	r3, [r7, #44]
 2062 03fa FB6C     		ldr	r3, [r7, #76]
 2063 03fc FA6A     		ldr	r2, [r7, #44]
 2064 03fe 9342     		cmp	r3, r2
 2065 0400 0ED3     		bcc	.L97
 2066 0402 FB6C     		ldr	r3, [r7, #76]
 2067 0404 FA6A     		ldr	r2, [r7, #44]
 2068 0406 9342     		cmp	r3, r2
 2069 0408 03D1     		bne	.L107
 2070 040a BB6C     		ldr	r3, [r7, #72]
 2071 040c BA6A     		ldr	r2, [r7, #40]
 2072 040e 9342     		cmp	r3, r2
 2073 0410 06D3     		bcc	.L97
 2074              	.L107:
 2075              		.loc 1 667 0 is_stmt 0 discriminator 1
 2076 0412 8423     		mov	r3, #132
 2077 0414 FB18     		add	r3, r7, r3
 2078 0416 1B68     		ldr	r3, [r3]
 2079 0418 3B61     		str	r3, [r7, #16]
 2080 041a 0023     		mov	r3, #0
 2081 041c 7B61     		str	r3, [r7, #20]
 2082 041e 03E0     		b	.L99
 2083              	.L97:
 2084              		.loc 1 667 0 discriminator 2
 2085 0420 0023     		mov	r3, #0
 2086 0422 0024     		mov	r4, #0
 2087 0424 3B61     		str	r3, [r7, #16]
 2088 0426 7C61     		str	r4, [r7, #20]
 2089              	.L99:
 2090              		.loc 1 667 0 discriminator 4
 2091 0428 BB6C     		ldr	r3, [r7, #72]
 2092 042a FC6C     		ldr	r4, [r7, #76]
 2093 042c 3969     		ldr	r1, [r7, #16]
 2094 042e 7A69     		ldr	r2, [r7, #20]
 2095 0430 5B1A     		sub	r3, r3, r1
 2096 0432 9441     		sbc	r4, r4, r2
 2097 0434 BB64     		str	r3, [r7, #72]
 2098 0436 FC64     		str	r4, [r7, #76]
 668:.\lib_DS1307/DS1307.c ****     
 669:.\lib_DS1307/DS1307.c ****     /*construct date*/
 670:.\lib_DS1307/DS1307.c ****     uint32_t tmpDate;
 671:.\lib_DS1307/DS1307.c ****     uint32 tmpVal = tmpYear;
 2099              		.loc 1 671 0 is_stmt 1 discriminator 4
 2100 0438 8823     		mov	r3, #136
 2101 043a FB18     		add	r3, r7, r3
 2102 043c 1B68     		ldr	r3, [r3]
 2103 043e BB65     		str	r3, [r7, #88]
 672:.\lib_DS1307/DS1307.c ****     tmpDate  = (tmpMonth / 10u) << DS1307_10_MONTH_OFFSET;
 2104              		.loc 1 672 0 discriminator 4
 2105 0440 8C23     		mov	r3, #140
 2106 0442 FB18     		add	r3, r7, r3
ARM GAS  C:\Users\Petro\AppData\Local\Temp\cctrdDFV.s 			page 50


 2107 0444 1B68     		ldr	r3, [r3]
 2108 0446 181C     		mov	r0, r3
 2109 0448 0A21     		mov	r1, #10
 2110 044a FFF7FEFF 		bl	__aeabi_uidiv
 2111 044e 031C     		mov	r3, r0
 2112 0450 1B07     		lsl	r3, r3, #28
 2113 0452 7B65     		str	r3, [r7, #84]
 673:.\lib_DS1307/DS1307.c ****     tmpDate |= (tmpMonth % 10u) << DS1307_MONTH_OFFSET;
 2114              		.loc 1 673 0 discriminator 4
 2115 0454 8C23     		mov	r3, #140
 2116 0456 FB18     		add	r3, r7, r3
 2117 0458 1B68     		ldr	r3, [r3]
 2118 045a 181C     		mov	r0, r3
 2119 045c 0A21     		mov	r1, #10
 2120 045e FFF7FEFF 		bl	__aeabi_uidivmod
 2121 0462 0B1C     		mov	r3, r1
 2122 0464 1B06     		lsl	r3, r3, #24
 2123 0466 7A6D     		ldr	r2, [r7, #84]
 2124 0468 1343     		orr	r3, r2
 2125 046a 7B65     		str	r3, [r7, #84]
 674:.\lib_DS1307/DS1307.c **** 
 675:.\lib_DS1307/DS1307.c ****     tmpDate |= (tmpDay / 10u) << DS1307_10_DAY_OFFSET;
 2126              		.loc 1 675 0 discriminator 4
 2127 046c 3B6E     		ldr	r3, [r7, #96]
 2128 046e 181C     		mov	r0, r3
 2129 0470 0A21     		mov	r1, #10
 2130 0472 FFF7FEFF 		bl	__aeabi_uidiv
 2131 0476 031C     		mov	r3, r0
 2132 0478 1B05     		lsl	r3, r3, #20
 2133 047a 7A6D     		ldr	r2, [r7, #84]
 2134 047c 1343     		orr	r3, r2
 2135 047e 7B65     		str	r3, [r7, #84]
 676:.\lib_DS1307/DS1307.c ****     tmpDate |= (tmpDay % 10u) << DS1307_DAY_OFFSET;
 2136              		.loc 1 676 0 discriminator 4
 2137 0480 3B6E     		ldr	r3, [r7, #96]
 2138 0482 181C     		mov	r0, r3
 2139 0484 0A21     		mov	r1, #10
 2140 0486 FFF7FEFF 		bl	__aeabi_uidivmod
 2141 048a 0B1C     		mov	r3, r1
 2142 048c 1B04     		lsl	r3, r3, #16
 2143 048e 7A6D     		ldr	r2, [r7, #84]
 2144 0490 1343     		orr	r3, r2
 2145 0492 7B65     		str	r3, [r7, #84]
 677:.\lib_DS1307/DS1307.c **** 
 678:.\lib_DS1307/DS1307.c ****     tmpDate |= (tmpYear / 1000u) << DS1307_1000_YEAR_OFFSET;
 2146              		.loc 1 678 0 discriminator 4
 2147 0494 8823     		mov	r3, #136
 2148 0496 FB18     		add	r3, r7, r3
 2149 0498 1B68     		ldr	r3, [r3]
 2150 049a 181C     		mov	r0, r3
 2151 049c FA23     		mov	r3, #250
 2152 049e 9900     		lsl	r1, r3, #2
 2153 04a0 FFF7FEFF 		bl	__aeabi_uidiv
 2154 04a4 031C     		mov	r3, r0
 2155 04a6 1B03     		lsl	r3, r3, #12
 2156 04a8 7A6D     		ldr	r2, [r7, #84]
 2157 04aa 1343     		orr	r3, r2
ARM GAS  C:\Users\Petro\AppData\Local\Temp\cctrdDFV.s 			page 51


 2158 04ac 7B65     		str	r3, [r7, #84]
 679:.\lib_DS1307/DS1307.c ****     tmpVal %= 1000u;
 2159              		.loc 1 679 0 discriminator 4
 2160 04ae BB6D     		ldr	r3, [r7, #88]
 2161 04b0 181C     		mov	r0, r3
 2162 04b2 FA23     		mov	r3, #250
 2163 04b4 9900     		lsl	r1, r3, #2
 2164 04b6 FFF7FEFF 		bl	__aeabi_uidivmod
 2165 04ba 0B1C     		mov	r3, r1
 2166 04bc BB65     		str	r3, [r7, #88]
 680:.\lib_DS1307/DS1307.c **** 
 681:.\lib_DS1307/DS1307.c ****     tmpDate |= (tmpVal / 100u) << DS1307_100_YEAR_OFFSET;
 2167              		.loc 1 681 0 discriminator 4
 2168 04be BB6D     		ldr	r3, [r7, #88]
 2169 04c0 181C     		mov	r0, r3
 2170 04c2 6421     		mov	r1, #100
 2171 04c4 FFF7FEFF 		bl	__aeabi_uidiv
 2172 04c8 031C     		mov	r3, r0
 2173 04ca 1B02     		lsl	r3, r3, #8
 2174 04cc 7A6D     		ldr	r2, [r7, #84]
 2175 04ce 1343     		orr	r3, r2
 2176 04d0 7B65     		str	r3, [r7, #84]
 682:.\lib_DS1307/DS1307.c ****     tmpVal %= 100u;
 2177              		.loc 1 682 0 discriminator 4
 2178 04d2 BB6D     		ldr	r3, [r7, #88]
 2179 04d4 181C     		mov	r0, r3
 2180 04d6 6421     		mov	r1, #100
 2181 04d8 FFF7FEFF 		bl	__aeabi_uidivmod
 2182 04dc 0B1C     		mov	r3, r1
 2183 04de BB65     		str	r3, [r7, #88]
 683:.\lib_DS1307/DS1307.c **** 
 684:.\lib_DS1307/DS1307.c ****     tmpDate |= (tmpVal / 10u) << DS1307_10_YEAR_OFFSET;
 2184              		.loc 1 684 0 discriminator 4
 2185 04e0 BB6D     		ldr	r3, [r7, #88]
 2186 04e2 181C     		mov	r0, r3
 2187 04e4 0A21     		mov	r1, #10
 2188 04e6 FFF7FEFF 		bl	__aeabi_uidiv
 2189 04ea 031C     		mov	r3, r0
 2190 04ec 1B01     		lsl	r3, r3, #4
 2191 04ee 7A6D     		ldr	r2, [r7, #84]
 2192 04f0 1343     		orr	r3, r2
 2193 04f2 7B65     		str	r3, [r7, #84]
 685:.\lib_DS1307/DS1307.c ****     tmpDate |= (tmpVal % 10u) << DS1307_YEAR_OFFSET;
 2194              		.loc 1 685 0 discriminator 4
 2195 04f4 BB6D     		ldr	r3, [r7, #88]
 2196 04f6 181C     		mov	r0, r3
 2197 04f8 0A21     		mov	r1, #10
 2198 04fa FFF7FEFF 		bl	__aeabi_uidivmod
 2199 04fe 0B1C     		mov	r3, r1
 2200 0500 1A1C     		mov	r2, r3
 2201 0502 7B6D     		ldr	r3, [r7, #84]
 2202 0504 1343     		orr	r3, r2
 2203 0506 7B65     		str	r3, [r7, #84]
 686:.\lib_DS1307/DS1307.c ****     
 687:.\lib_DS1307/DS1307.c ****     /*day of week*/
 688:.\lib_DS1307/DS1307.c ****     uint32_t dayOfWeek;
 689:.\lib_DS1307/DS1307.c ****     uint32_t year;
ARM GAS  C:\Users\Petro\AppData\Local\Temp\cctrdDFV.s 			page 52


 690:.\lib_DS1307/DS1307.c ****     year = tmpYear;
 2204              		.loc 1 690 0 discriminator 4
 2205 0508 8823     		mov	r3, #136
 2206 050a FB18     		add	r3, r7, r3
 2207 050c 1B68     		ldr	r3, [r3]
 2208 050e BB66     		str	r3, [r7, #104]
 691:.\lib_DS1307/DS1307.c ****     if(tmpMonth < (uint32)DS1307_MARCH)
 2209              		.loc 1 691 0 discriminator 4
 2210 0510 8C23     		mov	r3, #140
 2211 0512 FB18     		add	r3, r7, r3
 2212 0514 1B68     		ldr	r3, [r3]
 2213 0516 022B     		cmp	r3, #2
 2214 0518 09D8     		bhi	.L100
 692:.\lib_DS1307/DS1307.c ****     {
 693:.\lib_DS1307/DS1307.c ****         tmpMonth = 12u + tmpMonth;
 2215              		.loc 1 693 0
 2216 051a 8C23     		mov	r3, #140
 2217 051c FB18     		add	r3, r7, r3
 2218 051e 1B68     		ldr	r3, [r3]
 2219 0520 0C33     		add	r3, r3, #12
 2220 0522 8C22     		mov	r2, #140
 2221 0524 BA18     		add	r2, r7, r2
 2222 0526 1360     		str	r3, [r2]
 694:.\lib_DS1307/DS1307.c ****         year--;
 2223              		.loc 1 694 0
 2224 0528 BB6E     		ldr	r3, [r7, #104]
 2225 052a 013B     		sub	r3, r3, #1
 2226 052c BB66     		str	r3, [r7, #104]
 2227              	.L100:
 695:.\lib_DS1307/DS1307.c ****     }
 696:.\lib_DS1307/DS1307.c ****     /* Calculates Day of Week using Zeller's congruence algorithms.
 697:.\lib_DS1307/DS1307.c ****     */
 698:.\lib_DS1307/DS1307.c ****     dayOfWeek = (tmpDay + (((tmpMonth + 1u) * 26u) / 10u) + year + (year / 4u) + (6u * (year / 100u
 2228              		.loc 1 698 0
 2229 052e 8C23     		mov	r3, #140
 2230 0530 FB18     		add	r3, r7, r3
 2231 0532 1B68     		ldr	r3, [r3]
 2232 0534 0133     		add	r3, r3, #1
 2233 0536 1A22     		mov	r2, #26
 2234 0538 5343     		mul	r3, r2
 2235 053a 181C     		mov	r0, r3
 2236 053c 0A21     		mov	r1, #10
 2237 053e FFF7FEFF 		bl	__aeabi_uidiv
 2238 0542 031C     		mov	r3, r0
 2239 0544 1A1C     		mov	r2, r3
 2240 0546 3B6E     		ldr	r3, [r7, #96]
 2241 0548 D218     		add	r2, r2, r3
 2242 054a BB6E     		ldr	r3, [r7, #104]
 2243 054c D218     		add	r2, r2, r3
 2244 054e BB6E     		ldr	r3, [r7, #104]
 2245 0550 9B08     		lsr	r3, r3, #2
 2246 0552 D418     		add	r4, r2, r3
 2247 0554 BB6E     		ldr	r3, [r7, #104]
 2248 0556 181C     		mov	r0, r3
 2249 0558 6421     		mov	r1, #100
 2250 055a FFF7FEFF 		bl	__aeabi_uidiv
 2251 055e 031C     		mov	r3, r0
ARM GAS  C:\Users\Petro\AppData\Local\Temp\cctrdDFV.s 			page 53


 2252 0560 1A1C     		mov	r2, r3
 2253 0562 131C     		mov	r3, r2
 2254 0564 5B00     		lsl	r3, r3, #1
 2255 0566 9B18     		add	r3, r3, r2
 2256 0568 5B00     		lsl	r3, r3, #1
 2257 056a E418     		add	r4, r4, r3
 2258 056c BB6E     		ldr	r3, [r7, #104]
 2259 056e 181C     		mov	r0, r3
 2260 0570 C823     		mov	r3, #200
 2261 0572 5900     		lsl	r1, r3, #1
 2262 0574 FFF7FEFF 		bl	__aeabi_uidiv
 2263 0578 031C     		mov	r3, r0
 2264 057a E318     		add	r3, r4, r3
 2265 057c 181C     		mov	r0, r3
 2266 057e 0721     		mov	r1, #7
 2267 0580 FFF7FEFF 		bl	__aeabi_uidivmod
 2268 0584 0B1C     		mov	r3, r1
 2269 0586 FB66     		str	r3, [r7, #108]
 699:.\lib_DS1307/DS1307.c **** 
 700:.\lib_DS1307/DS1307.c ****     /* Makes correction for Saturday. Saturday number should be 7 instead of 0. */
 701:.\lib_DS1307/DS1307.c ****     if(0u == dayOfWeek)
 2270              		.loc 1 701 0
 2271 0588 FB6E     		ldr	r3, [r7, #108]
 2272 058a 002B     		cmp	r3, #0
 2273 058c 01D1     		bne	.L101
 702:.\lib_DS1307/DS1307.c ****     {
 703:.\lib_DS1307/DS1307.c ****         dayOfWeek = 7;
 2274              		.loc 1 703 0
 2275 058e 0723     		mov	r3, #7
 2276 0590 FB66     		str	r3, [r7, #108]
 2277              	.L101:
 704:.\lib_DS1307/DS1307.c ****     }
 705:.\lib_DS1307/DS1307.c **** 
 706:.\lib_DS1307/DS1307.c ****     /*write data to struct*/
 707:.\lib_DS1307/DS1307.c ****     DS1307_currentTimeDate.second = unixTime;
 2278              		.loc 1 707 0
 2279 0592 BB6C     		ldr	r3, [r7, #72]
 2280 0594 FC6C     		ldr	r4, [r7, #76]
 2281 0596 DAB2     		uxtb	r2, r3
 2282 0598 1A4B     		ldr	r3, .L110
 2283 059a 1A70     		strb	r2, [r3]
 708:.\lib_DS1307/DS1307.c ****     DS1307_currentTimeDate.minutes = tmpMinute;
 2284              		.loc 1 708 0
 2285 059c FB6D     		ldr	r3, [r7, #92]
 2286 059e DAB2     		uxtb	r2, r3
 2287 05a0 184B     		ldr	r3, .L110
 2288 05a2 5A70     		strb	r2, [r3, #1]
 709:.\lib_DS1307/DS1307.c ****     DS1307_currentTimeDate.hours = tmpHour;
 2289              		.loc 1 709 0
 2290 05a4 9423     		mov	r3, #148
 2291 05a6 FB18     		add	r3, r7, r3
 2292 05a8 1B68     		ldr	r3, [r3]
 2293 05aa DAB2     		uxtb	r2, r3
 2294 05ac 154B     		ldr	r3, .L110
 2295 05ae 9A70     		strb	r2, [r3, #2]
 710:.\lib_DS1307/DS1307.c ****     DS1307_currentTimeDate.AmRm = !tmpAmPmState;
 2296              		.loc 1 710 0
ARM GAS  C:\Users\Petro\AppData\Local\Temp\cctrdDFV.s 			page 54


 2297 05b0 9023     		mov	r3, #144
 2298 05b2 FB18     		add	r3, r7, r3
 2299 05b4 1B68     		ldr	r3, [r3]
 2300 05b6 5A42     		neg	r2, r3
 2301 05b8 5341     		adc	r3, r3, r2
 2302 05ba DBB2     		uxtb	r3, r3
 2303 05bc 1A1C     		mov	r2, r3
 2304 05be 114B     		ldr	r3, .L110
 2305 05c0 1A71     		strb	r2, [r3, #4]
 711:.\lib_DS1307/DS1307.c ****     DS1307_currentTimeDate.timeFormat = timeFormat;
 2306              		.loc 1 711 0
 2307 05c2 7B6E     		ldr	r3, [r7, #100]
 2308 05c4 DAB2     		uxtb	r2, r3
 2309 05c6 0F4B     		ldr	r3, .L110
 2310 05c8 DA70     		strb	r2, [r3, #3]
 712:.\lib_DS1307/DS1307.c ****     DS1307_currentTimeDate.day = dayOfWeek;
 2311              		.loc 1 712 0
 2312 05ca FB6E     		ldr	r3, [r7, #108]
 2313 05cc DAB2     		uxtb	r2, r3
 2314 05ce 0D4B     		ldr	r3, .L110
 2315 05d0 5A71     		strb	r2, [r3, #5]
 713:.\lib_DS1307/DS1307.c ****     DS1307_currentTimeDate.month = tmpMonth;
 2316              		.loc 1 713 0
 2317 05d2 8C23     		mov	r3, #140
 2318 05d4 FB18     		add	r3, r7, r3
 2319 05d6 1B68     		ldr	r3, [r3]
 2320 05d8 DAB2     		uxtb	r2, r3
 2321 05da 0A4B     		ldr	r3, .L110
 2322 05dc DA71     		strb	r2, [r3, #7]
 714:.\lib_DS1307/DS1307.c ****     DS1307_currentTimeDate.year = tmpYear-2000;
 2323              		.loc 1 714 0
 2324 05de 8823     		mov	r3, #136
 2325 05e0 FB18     		add	r3, r7, r3
 2326 05e2 1B68     		ldr	r3, [r3]
 2327 05e4 9BB2     		uxth	r3, r3
 2328 05e6 084A     		ldr	r2, .L110+4
 2329 05e8 9446     		mov	ip, r2
 2330 05ea 6344     		add	r3, r3, ip
 2331 05ec 9AB2     		uxth	r2, r3
 2332 05ee 054B     		ldr	r3, .L110
 2333 05f0 1A81     		strh	r2, [r3, #8]
 715:.\lib_DS1307/DS1307.c ****     DS1307_currentTimeDate.date = tmpDay;
 2334              		.loc 1 715 0
 2335 05f2 3B6E     		ldr	r3, [r7, #96]
 2336 05f4 DAB2     		uxtb	r2, r3
 2337 05f6 034B     		ldr	r3, .L110
 2338 05f8 9A71     		strb	r2, [r3, #6]
 716:.\lib_DS1307/DS1307.c ****     
 717:.\lib_DS1307/DS1307.c ****     /*write in chip*/
 718:.\lib_DS1307/DS1307.c ****     DS1307_WriteTimeFromStruct();
 2339              		.loc 1 718 0
 2340 05fa FFF7FEFF 		bl	DS1307_WriteTimeFromStruct
 719:.\lib_DS1307/DS1307.c **** }
 2341              		.loc 1 719 0
 2342 05fe BD46     		mov	sp, r7
 2343 0600 27B0     		add	sp, sp, #156
 2344              		@ sp needed
ARM GAS  C:\Users\Petro\AppData\Local\Temp\cctrdDFV.s 			page 55


 2345 0602 F0BD     		pop	{r4, r5, r6, r7, pc}
 2346              	.L111:
 2347              		.align	2
 2348              	.L110:
 2349 0604 00000000 		.word	DS1307_currentTimeDate
 2350 0608 30F8FFFF 		.word	-2000
 2351              		.cfi_endproc
 2352              	.LFE8:
 2353              		.size	DS1307_SetUnixTime, .-DS1307_SetUnixTime
 2354              		.section	.text.DS1307_Start,"ax",%progbits
 2355              		.align	2
 2356              		.global	DS1307_Start
 2357              		.code	16
 2358              		.thumb_func
 2359              		.type	DS1307_Start, %function
 2360              	DS1307_Start:
 2361              	.LFB9:
 720:.\lib_DS1307/DS1307.c **** 
 721:.\lib_DS1307/DS1307.c **** /*******************************************************************************
 722:.\lib_DS1307/DS1307.c **** * Function Name: DS1307_Start
 723:.\lib_DS1307/DS1307.c **** ********************************************************************************
 724:.\lib_DS1307/DS1307.c **** *
 725:.\lib_DS1307/DS1307.c **** * Summary:
 726:.\lib_DS1307/DS1307.c **** *   start the chip DS1307
 727:.\lib_DS1307/DS1307.c **** *
 728:.\lib_DS1307/DS1307.c **** *******************************************************************************/
 729:.\lib_DS1307/DS1307.c **** void DS1307_Start(void)
 730:.\lib_DS1307/DS1307.c **** {
 2362              		.loc 1 730 0
 2363              		.cfi_startproc
 2364 0000 80B5     		push	{r7, lr}
 2365              		.cfi_def_cfa_offset 8
 2366              		.cfi_offset 7, -8
 2367              		.cfi_offset 14, -4
 2368 0002 82B0     		sub	sp, sp, #8
 2369              		.cfi_def_cfa_offset 16
 2370 0004 00AF     		add	r7, sp, #0
 2371              		.cfi_def_cfa_register 7
 731:.\lib_DS1307/DS1307.c ****     uint8_t data ;
 732:.\lib_DS1307/DS1307.c ****     uint32_t status;
 733:.\lib_DS1307/DS1307.c ****     
 734:.\lib_DS1307/DS1307.c ****     data = DS1307_currentTimeDate.second & (~DS1307_OFF_MASK); 
 2372              		.loc 1 734 0
 2373 0006 114B     		ldr	r3, .L114
 2374 0008 1A78     		ldrb	r2, [r3]
 2375 000a FB1D     		add	r3, r7, #7
 2376 000c 7F21     		mov	r1, #127
 2377 000e 0A40     		and	r2, r1
 2378 0010 1A70     		strb	r2, [r3]
 735:.\lib_DS1307/DS1307.c ****     
 736:.\lib_DS1307/DS1307.c ****     I2C_Start();
 2379              		.loc 1 736 0
 2380 0012 FFF7FEFF 		bl	I2C_Start
 737:.\lib_DS1307/DS1307.c ****     I2C_I2CMasterClearStatus();
 2381              		.loc 1 737 0
 2382 0016 FFF7FEFF 		bl	I2C_I2CMasterClearStatus
 738:.\lib_DS1307/DS1307.c ****     status = I2C_I2CMasterSendStart(DS1307_SLAVE_ADRESS, I2C_I2C_WRITE_XFER_MODE);
ARM GAS  C:\Users\Petro\AppData\Local\Temp\cctrdDFV.s 			page 56


 2383              		.loc 1 738 0
 2384 001a 6820     		mov	r0, #104
 2385 001c 0021     		mov	r1, #0
 2386 001e FFF7FEFF 		bl	I2C_I2CMasterSendStart
 2387 0022 031C     		mov	r3, r0
 2388 0024 3B60     		str	r3, [r7]
 739:.\lib_DS1307/DS1307.c ****     I2C_I2CMasterWriteByte(DS1307_NULL_ADRESS);
 2389              		.loc 1 739 0
 2390 0026 0020     		mov	r0, #0
 2391 0028 FFF7FEFF 		bl	I2C_I2CMasterWriteByte
 740:.\lib_DS1307/DS1307.c ****     
 741:.\lib_DS1307/DS1307.c ****     if(I2C_I2C_MSTR_NO_ERROR == status) 
 2392              		.loc 1 741 0
 2393 002c 3B68     		ldr	r3, [r7]
 2394 002e 002B     		cmp	r3, #0
 2395 0030 06D1     		bne	.L113
 742:.\lib_DS1307/DS1307.c ****     {
 743:.\lib_DS1307/DS1307.c ****         status = I2C_I2CMasterWriteByte(data);
 2396              		.loc 1 743 0
 2397 0032 FB1D     		add	r3, r7, #7
 2398 0034 1B78     		ldrb	r3, [r3]
 2399 0036 181C     		mov	r0, r3
 2400 0038 FFF7FEFF 		bl	I2C_I2CMasterWriteByte
 2401 003c 031C     		mov	r3, r0
 2402 003e 3B60     		str	r3, [r7]
 2403              	.L113:
 744:.\lib_DS1307/DS1307.c ****     }
 745:.\lib_DS1307/DS1307.c ****     I2C_I2CMasterSendStop();
 2404              		.loc 1 745 0
 2405 0040 FFF7FEFF 		bl	I2C_I2CMasterSendStop
 746:.\lib_DS1307/DS1307.c **** }
 2406              		.loc 1 746 0
 2407 0044 BD46     		mov	sp, r7
 2408 0046 02B0     		add	sp, sp, #8
 2409              		@ sp needed
 2410 0048 80BD     		pop	{r7, pc}
 2411              	.L115:
 2412 004a C046     		.align	2
 2413              	.L114:
 2414 004c 00000000 		.word	DS1307_currentTimeDate
 2415              		.cfi_endproc
 2416              	.LFE9:
 2417              		.size	DS1307_Start, .-DS1307_Start
 2418              		.section	.text.DS1307_Stop,"ax",%progbits
 2419              		.align	2
 2420              		.global	DS1307_Stop
 2421              		.code	16
 2422              		.thumb_func
 2423              		.type	DS1307_Stop, %function
 2424              	DS1307_Stop:
 2425              	.LFB10:
 747:.\lib_DS1307/DS1307.c **** 
 748:.\lib_DS1307/DS1307.c **** 
 749:.\lib_DS1307/DS1307.c **** /*******************************************************************************
 750:.\lib_DS1307/DS1307.c **** * Function Name: DS1307_Start
 751:.\lib_DS1307/DS1307.c **** ********************************************************************************
 752:.\lib_DS1307/DS1307.c **** *
ARM GAS  C:\Users\Petro\AppData\Local\Temp\cctrdDFV.s 			page 57


 753:.\lib_DS1307/DS1307.c **** * Summary:
 754:.\lib_DS1307/DS1307.c **** *   stop the chip DS1307
 755:.\lib_DS1307/DS1307.c **** *
 756:.\lib_DS1307/DS1307.c **** *******************************************************************************/
 757:.\lib_DS1307/DS1307.c **** void DS1307_Stop(void)
 758:.\lib_DS1307/DS1307.c **** {
 2426              		.loc 1 758 0
 2427              		.cfi_startproc
 2428 0000 80B5     		push	{r7, lr}
 2429              		.cfi_def_cfa_offset 8
 2430              		.cfi_offset 7, -8
 2431              		.cfi_offset 14, -4
 2432 0002 82B0     		sub	sp, sp, #8
 2433              		.cfi_def_cfa_offset 16
 2434 0004 00AF     		add	r7, sp, #0
 2435              		.cfi_def_cfa_register 7
 759:.\lib_DS1307/DS1307.c ****     uint8_t data ;
 760:.\lib_DS1307/DS1307.c ****     uint32_t status;
 761:.\lib_DS1307/DS1307.c ****     
 762:.\lib_DS1307/DS1307.c ****     data = DS1307_currentTimeDate.second | DS1307_OFF_MASK; 
 2436              		.loc 1 762 0
 2437 0006 114B     		ldr	r3, .L118
 2438 0008 1A78     		ldrb	r2, [r3]
 2439 000a FB1D     		add	r3, r7, #7
 2440 000c 8021     		mov	r1, #128
 2441 000e 4942     		neg	r1, r1
 2442 0010 0A43     		orr	r2, r1
 2443 0012 1A70     		strb	r2, [r3]
 763:.\lib_DS1307/DS1307.c ****     
 764:.\lib_DS1307/DS1307.c ****     I2C_Start();
 2444              		.loc 1 764 0
 2445 0014 FFF7FEFF 		bl	I2C_Start
 765:.\lib_DS1307/DS1307.c ****     I2C_I2CMasterClearStatus();
 2446              		.loc 1 765 0
 2447 0018 FFF7FEFF 		bl	I2C_I2CMasterClearStatus
 766:.\lib_DS1307/DS1307.c ****     status = I2C_I2CMasterSendStart(DS1307_SLAVE_ADRESS, I2C_I2C_WRITE_XFER_MODE);
 2448              		.loc 1 766 0
 2449 001c 6820     		mov	r0, #104
 2450 001e 0021     		mov	r1, #0
 2451 0020 FFF7FEFF 		bl	I2C_I2CMasterSendStart
 2452 0024 031C     		mov	r3, r0
 2453 0026 3B60     		str	r3, [r7]
 767:.\lib_DS1307/DS1307.c ****     I2C_I2CMasterWriteByte(DS1307_NULL_ADRESS);
 2454              		.loc 1 767 0
 2455 0028 0020     		mov	r0, #0
 2456 002a FFF7FEFF 		bl	I2C_I2CMasterWriteByte
 768:.\lib_DS1307/DS1307.c ****     
 769:.\lib_DS1307/DS1307.c ****     if(I2C_I2C_MSTR_NO_ERROR == status) 
 2457              		.loc 1 769 0
 2458 002e 3B68     		ldr	r3, [r7]
 2459 0030 002B     		cmp	r3, #0
 2460 0032 06D1     		bne	.L117
 770:.\lib_DS1307/DS1307.c ****     {
 771:.\lib_DS1307/DS1307.c ****         status = I2C_I2CMasterWriteByte(data);
 2461              		.loc 1 771 0
 2462 0034 FB1D     		add	r3, r7, #7
 2463 0036 1B78     		ldrb	r3, [r3]
ARM GAS  C:\Users\Petro\AppData\Local\Temp\cctrdDFV.s 			page 58


 2464 0038 181C     		mov	r0, r3
 2465 003a FFF7FEFF 		bl	I2C_I2CMasterWriteByte
 2466 003e 031C     		mov	r3, r0
 2467 0040 3B60     		str	r3, [r7]
 2468              	.L117:
 772:.\lib_DS1307/DS1307.c ****     }
 773:.\lib_DS1307/DS1307.c ****     I2C_I2CMasterSendStop();
 2469              		.loc 1 773 0
 2470 0042 FFF7FEFF 		bl	I2C_I2CMasterSendStop
 774:.\lib_DS1307/DS1307.c **** }
 2471              		.loc 1 774 0
 2472 0046 BD46     		mov	sp, r7
 2473 0048 02B0     		add	sp, sp, #8
 2474              		@ sp needed
 2475 004a 80BD     		pop	{r7, pc}
 2476              	.L119:
 2477              		.align	2
 2478              	.L118:
 2479 004c 00000000 		.word	DS1307_currentTimeDate
 2480              		.cfi_endproc
 2481              	.LFE10:
 2482              		.size	DS1307_Stop, .-DS1307_Stop
 2483              		.text
 2484              	.Letext0:
 2485              		.file 2 "c:\\program files (x86)\\cypress\\psoc creator\\3.3\\psoc creator\\import\\gnu\\arm\\4.9.
 2486              		.file 3 "c:\\program files (x86)\\cypress\\psoc creator\\3.3\\psoc creator\\import\\gnu\\arm\\4.9.
 2487              		.file 4 "Generated_Source\\PSoC4/cytypes.h"
 2488              		.section	.debug_info,"",%progbits
 2489              	.Ldebug_info0:
 2490 0000 40060000 		.4byte	0x640
 2491 0004 0400     		.2byte	0x4
 2492 0006 00000000 		.4byte	.Ldebug_abbrev0
 2493 000a 04       		.byte	0x4
 2494 000b 01       		.uleb128 0x1
 2495 000c 66030000 		.4byte	.LASF66
 2496 0010 01       		.byte	0x1
 2497 0011 32020000 		.4byte	.LASF67
 2498 0015 97010000 		.4byte	.LASF68
 2499 0019 00000000 		.4byte	.Ldebug_ranges0+0
 2500 001d 00000000 		.4byte	0
 2501 0021 00000000 		.4byte	.Ldebug_line0
 2502 0025 02       		.uleb128 0x2
 2503 0026 01       		.byte	0x1
 2504 0027 06       		.byte	0x6
 2505 0028 A6000000 		.4byte	.LASF0
 2506 002c 03       		.uleb128 0x3
 2507 002d 4F000000 		.4byte	.LASF3
 2508 0031 02       		.byte	0x2
 2509 0032 1D       		.byte	0x1d
 2510 0033 37000000 		.4byte	0x37
 2511 0037 02       		.uleb128 0x2
 2512 0038 01       		.byte	0x1
 2513 0039 08       		.byte	0x8
 2514 003a 98020000 		.4byte	.LASF1
 2515 003e 02       		.uleb128 0x2
 2516 003f 02       		.byte	0x2
 2517 0040 05       		.byte	0x5
ARM GAS  C:\Users\Petro\AppData\Local\Temp\cctrdDFV.s 			page 59


 2518 0041 B7020000 		.4byte	.LASF2
 2519 0045 03       		.uleb128 0x3
 2520 0046 1A030000 		.4byte	.LASF4
 2521 004a 02       		.byte	0x2
 2522 004b 2B       		.byte	0x2b
 2523 004c 50000000 		.4byte	0x50
 2524 0050 02       		.uleb128 0x2
 2525 0051 02       		.byte	0x2
 2526 0052 07       		.byte	0x7
 2527 0053 84010000 		.4byte	.LASF5
 2528 0057 02       		.uleb128 0x2
 2529 0058 04       		.byte	0x4
 2530 0059 05       		.byte	0x5
 2531 005a BE000000 		.4byte	.LASF6
 2532 005e 03       		.uleb128 0x3
 2533 005f 26010000 		.4byte	.LASF7
 2534 0063 02       		.byte	0x2
 2535 0064 41       		.byte	0x41
 2536 0065 69000000 		.4byte	0x69
 2537 0069 02       		.uleb128 0x2
 2538 006a 04       		.byte	0x4
 2539 006b 07       		.byte	0x7
 2540 006c 6D010000 		.4byte	.LASF8
 2541 0070 02       		.uleb128 0x2
 2542 0071 08       		.byte	0x8
 2543 0072 05       		.byte	0x5
 2544 0073 98000000 		.4byte	.LASF9
 2545 0077 03       		.uleb128 0x3
 2546 0078 52020000 		.4byte	.LASF10
 2547 007c 02       		.byte	0x2
 2548 007d 5B       		.byte	0x5b
 2549 007e 82000000 		.4byte	0x82
 2550 0082 02       		.uleb128 0x2
 2551 0083 08       		.byte	0x8
 2552 0084 07       		.byte	0x7
 2553 0085 63000000 		.4byte	.LASF11
 2554 0089 04       		.uleb128 0x4
 2555 008a 04       		.byte	0x4
 2556 008b 05       		.byte	0x5
 2557 008c 696E7400 		.ascii	"int\000"
 2558 0090 02       		.uleb128 0x2
 2559 0091 04       		.byte	0x4
 2560 0092 07       		.byte	0x7
 2561 0093 4C010000 		.4byte	.LASF12
 2562 0097 03       		.uleb128 0x3
 2563 0098 5E030000 		.4byte	.LASF13
 2564 009c 03       		.byte	0x3
 2565 009d 15       		.byte	0x15
 2566 009e 2C000000 		.4byte	0x2c
 2567 00a2 03       		.uleb128 0x3
 2568 00a3 06010000 		.4byte	.LASF14
 2569 00a7 03       		.byte	0x3
 2570 00a8 21       		.byte	0x21
 2571 00a9 45000000 		.4byte	0x45
 2572 00ad 03       		.uleb128 0x3
 2573 00ae E9020000 		.4byte	.LASF15
 2574 00b2 03       		.byte	0x3
ARM GAS  C:\Users\Petro\AppData\Local\Temp\cctrdDFV.s 			page 60


 2575 00b3 2D       		.byte	0x2d
 2576 00b4 5E000000 		.4byte	0x5e
 2577 00b8 03       		.uleb128 0x3
 2578 00b9 35000000 		.4byte	.LASF16
 2579 00bd 03       		.byte	0x3
 2580 00be 39       		.byte	0x39
 2581 00bf 77000000 		.4byte	0x77
 2582 00c3 05       		.uleb128 0x5
 2583 00c4 DD000000 		.4byte	.LASF17
 2584 00c8 04       		.byte	0x4
 2585 00c9 9801     		.2byte	0x198
 2586 00cb 37000000 		.4byte	0x37
 2587 00cf 05       		.uleb128 0x5
 2588 00d0 07000000 		.4byte	.LASF18
 2589 00d4 04       		.byte	0x4
 2590 00d5 9901     		.2byte	0x199
 2591 00d7 50000000 		.4byte	0x50
 2592 00db 05       		.uleb128 0x5
 2593 00dc 16010000 		.4byte	.LASF19
 2594 00e0 04       		.byte	0x4
 2595 00e1 9A01     		.2byte	0x19a
 2596 00e3 69000000 		.4byte	0x69
 2597 00e7 02       		.uleb128 0x2
 2598 00e8 04       		.byte	0x4
 2599 00e9 04       		.byte	0x4
 2600 00ea 5D020000 		.4byte	.LASF20
 2601 00ee 02       		.uleb128 0x2
 2602 00ef 08       		.byte	0x8
 2603 00f0 04       		.byte	0x4
 2604 00f1 0F010000 		.4byte	.LASF21
 2605 00f5 05       		.uleb128 0x5
 2606 00f6 B0020000 		.4byte	.LASF22
 2607 00fa 04       		.byte	0x4
 2608 00fb A401     		.2byte	0x1a4
 2609 00fd 82000000 		.4byte	0x82
 2610 0101 02       		.uleb128 0x2
 2611 0102 01       		.byte	0x1
 2612 0103 08       		.byte	0x8
 2613 0104 00030000 		.4byte	.LASF23
 2614 0108 02       		.uleb128 0x2
 2615 0109 04       		.byte	0x4
 2616 010a 07       		.byte	0x7
 2617 010b 21020000 		.4byte	.LASF24
 2618 010f 06       		.uleb128 0x6
 2619 0110 0A       		.byte	0xa
 2620 0111 01       		.byte	0x1
 2621 0112 06       		.byte	0x6
 2622 0113 84010000 		.4byte	0x184
 2623 0117 07       		.uleb128 0x7
 2624 0118 B2000000 		.4byte	.LASF25
 2625 011c 01       		.byte	0x1
 2626 011d 08       		.byte	0x8
 2627 011e 97000000 		.4byte	0x97
 2628 0122 00       		.byte	0
 2629 0123 07       		.uleb128 0x7
 2630 0124 86020000 		.4byte	.LASF26
 2631 0128 01       		.byte	0x1
ARM GAS  C:\Users\Petro\AppData\Local\Temp\cctrdDFV.s 			page 61


 2632 0129 09       		.byte	0x9
 2633 012a 97000000 		.4byte	0x97
 2634 012e 01       		.byte	0x1
 2635 012f 07       		.uleb128 0x7
 2636 0130 C1020000 		.4byte	.LASF27
 2637 0134 01       		.byte	0x1
 2638 0135 0A       		.byte	0xa
 2639 0136 97000000 		.4byte	0x97
 2640 013a 02       		.byte	0x2
 2641 013b 07       		.uleb128 0x7
 2642 013c 59010000 		.4byte	.LASF28
 2643 0140 01       		.byte	0x1
 2644 0141 0B       		.byte	0xb
 2645 0142 97000000 		.4byte	0x97
 2646 0146 03       		.byte	0x3
 2647 0147 07       		.uleb128 0x7
 2648 0148 81020000 		.4byte	.LASF29
 2649 014c 01       		.byte	0x1
 2650 014d 0C       		.byte	0xc
 2651 014e 97000000 		.4byte	0x97
 2652 0152 04       		.byte	0x4
 2653 0153 08       		.uleb128 0x8
 2654 0154 64617900 		.ascii	"day\000"
 2655 0158 01       		.byte	0x1
 2656 0159 0D       		.byte	0xd
 2657 015a 97000000 		.4byte	0x97
 2658 015e 05       		.byte	0x5
 2659 015f 07       		.uleb128 0x7
 2660 0160 7A000000 		.4byte	.LASF30
 2661 0164 01       		.byte	0x1
 2662 0165 0E       		.byte	0xe
 2663 0166 97000000 		.4byte	0x97
 2664 016a 06       		.byte	0x6
 2665 016b 07       		.uleb128 0x7
 2666 016c 46010000 		.4byte	.LASF31
 2667 0170 01       		.byte	0x1
 2668 0171 0F       		.byte	0xf
 2669 0172 97000000 		.4byte	0x97
 2670 0176 07       		.byte	0x7
 2671 0177 07       		.uleb128 0x7
 2672 0178 B9000000 		.4byte	.LASF32
 2673 017c 01       		.byte	0x1
 2674 017d 10       		.byte	0x10
 2675 017e A2000000 		.4byte	0xa2
 2676 0182 08       		.byte	0x8
 2677 0183 00       		.byte	0
 2678 0184 03       		.uleb128 0x3
 2679 0185 3E000000 		.4byte	.LASF33
 2680 0189 01       		.byte	0x1
 2681 018a 11       		.byte	0x11
 2682 018b 0F010000 		.4byte	0x10f
 2683 018f 09       		.uleb128 0x9
 2684 0190 1D000000 		.4byte	.LASF36
 2685 0194 01       		.byte	0x1
 2686 0195 B9       		.byte	0xb9
 2687 0196 DB000000 		.4byte	0xdb
 2688 019a 00000000 		.4byte	.LFB2
ARM GAS  C:\Users\Petro\AppData\Local\Temp\cctrdDFV.s 			page 62


 2689 019e FC010000 		.4byte	.LFE2-.LFB2
 2690 01a2 01       		.uleb128 0x1
 2691 01a3 9C       		.byte	0x9c
 2692 01a4 D1010000 		.4byte	0x1d1
 2693 01a8 0A       		.uleb128 0xa
 2694 01a9 7F010000 		.4byte	.LASF34
 2695 01ad 01       		.byte	0x1
 2696 01ae BB       		.byte	0xbb
 2697 01af D1010000 		.4byte	0x1d1
 2698 01b3 02       		.uleb128 0x2
 2699 01b4 91       		.byte	0x91
 2700 01b5 68       		.sleb128 -24
 2701 01b6 0A       		.uleb128 0xa
 2702 01b7 57030000 		.4byte	.LASF35
 2703 01bb 01       		.byte	0x1
 2704 01bc BC       		.byte	0xbc
 2705 01bd AD000000 		.4byte	0xad
 2706 01c1 02       		.uleb128 0x2
 2707 01c2 91       		.byte	0x91
 2708 01c3 70       		.sleb128 -16
 2709 01c4 0B       		.uleb128 0xb
 2710 01c5 6900     		.ascii	"i\000"
 2711 01c7 01       		.byte	0x1
 2712 01c8 BD       		.byte	0xbd
 2713 01c9 89000000 		.4byte	0x89
 2714 01cd 02       		.uleb128 0x2
 2715 01ce 91       		.byte	0x91
 2716 01cf 74       		.sleb128 -12
 2717 01d0 00       		.byte	0
 2718 01d1 0C       		.uleb128 0xc
 2719 01d2 97000000 		.4byte	0x97
 2720 01d6 E1010000 		.4byte	0x1e1
 2721 01da 0D       		.uleb128 0xd
 2722 01db 08010000 		.4byte	0x108
 2723 01df 06       		.byte	0x6
 2724 01e0 00       		.byte	0
 2725 01e1 0E       		.uleb128 0xe
 2726 01e2 C7020000 		.4byte	.LASF69
 2727 01e6 01       		.byte	0x1
 2728 01e7 0201     		.2byte	0x102
 2729 01e9 00000000 		.4byte	.LFB3
 2730 01ed F4010000 		.4byte	.LFE3-.LFB3
 2731 01f1 01       		.uleb128 0x1
 2732 01f2 9C       		.byte	0x9c
 2733 01f3 23020000 		.4byte	0x223
 2734 01f7 0F       		.uleb128 0xf
 2735 01f8 57030000 		.4byte	.LASF35
 2736 01fc 01       		.byte	0x1
 2737 01fd 0401     		.2byte	0x104
 2738 01ff AD000000 		.4byte	0xad
 2739 0203 02       		.uleb128 0x2
 2740 0204 91       		.byte	0x91
 2741 0205 68       		.sleb128 -24
 2742 0206 10       		.uleb128 0x10
 2743 0207 6900     		.ascii	"i\000"
 2744 0209 01       		.byte	0x1
 2745 020a 0501     		.2byte	0x105
ARM GAS  C:\Users\Petro\AppData\Local\Temp\cctrdDFV.s 			page 63


 2746 020c 89000000 		.4byte	0x89
 2747 0210 02       		.uleb128 0x2
 2748 0211 91       		.byte	0x91
 2749 0212 6C       		.sleb128 -20
 2750 0213 0F       		.uleb128 0xf
 2751 0214 7F010000 		.4byte	.LASF34
 2752 0218 01       		.byte	0x1
 2753 0219 0601     		.2byte	0x106
 2754 021b D1010000 		.4byte	0x1d1
 2755 021f 02       		.uleb128 0x2
 2756 0220 91       		.byte	0x91
 2757 0221 60       		.sleb128 -32
 2758 0222 00       		.byte	0
 2759 0223 11       		.uleb128 0x11
 2760 0224 05030000 		.4byte	.LASF37
 2761 0228 01       		.byte	0x1
 2762 0229 3A01     		.2byte	0x13a
 2763 022b AD000000 		.4byte	0xad
 2764 022f 00000000 		.4byte	.LFB4
 2765 0233 B4000000 		.4byte	.LFE4-.LFB4
 2766 0237 01       		.uleb128 0x1
 2767 0238 9C       		.byte	0x9c
 2768 0239 98020000 		.4byte	0x298
 2769 023d 12       		.uleb128 0x12
 2770 023e 59010000 		.4byte	.LASF28
 2771 0242 01       		.byte	0x1
 2772 0243 3A01     		.2byte	0x13a
 2773 0245 DB000000 		.4byte	0xdb
 2774 0249 02       		.uleb128 0x2
 2775 024a 91       		.byte	0x91
 2776 024b 6C       		.sleb128 -20
 2777 024c 12       		.uleb128 0x12
 2778 024d 8E020000 		.4byte	.LASF38
 2779 0251 01       		.byte	0x1
 2780 0252 3A01     		.2byte	0x13a
 2781 0254 DB000000 		.4byte	0xdb
 2782 0258 02       		.uleb128 0x2
 2783 0259 91       		.byte	0x91
 2784 025a 68       		.sleb128 -24
 2785 025b 12       		.uleb128 0x12
 2786 025c 4D020000 		.4byte	.LASF39
 2787 0260 01       		.byte	0x1
 2788 0261 3A01     		.2byte	0x13a
 2789 0263 DB000000 		.4byte	0xdb
 2790 0267 02       		.uleb128 0x2
 2791 0268 91       		.byte	0x91
 2792 0269 64       		.sleb128 -28
 2793 026a 13       		.uleb128 0x13
 2794 026b 6D696E00 		.ascii	"min\000"
 2795 026f 01       		.byte	0x1
 2796 0270 3A01     		.2byte	0x13a
 2797 0272 DB000000 		.4byte	0xdb
 2798 0276 02       		.uleb128 0x2
 2799 0277 91       		.byte	0x91
 2800 0278 60       		.sleb128 -32
 2801 0279 13       		.uleb128 0x13
 2802 027a 73656300 		.ascii	"sec\000"
ARM GAS  C:\Users\Petro\AppData\Local\Temp\cctrdDFV.s 			page 64


 2803 027e 01       		.byte	0x1
 2804 027f 3A01     		.2byte	0x13a
 2805 0281 DB000000 		.4byte	0xdb
 2806 0285 02       		.uleb128 0x2
 2807 0286 91       		.byte	0x91
 2808 0287 00       		.sleb128 0
 2809 0288 0F       		.uleb128 0xf
 2810 0289 0E000000 		.4byte	.LASF40
 2811 028d 01       		.byte	0x1
 2812 028e 3C01     		.2byte	0x13c
 2813 0290 DB000000 		.4byte	0xdb
 2814 0294 02       		.uleb128 0x2
 2815 0295 91       		.byte	0x91
 2816 0296 74       		.sleb128 -12
 2817 0297 00       		.byte	0
 2818 0298 11       		.uleb128 0x11
 2819 0299 31010000 		.4byte	.LASF41
 2820 029d 01       		.byte	0x1
 2821 029e 5901     		.2byte	0x159
 2822 02a0 DB000000 		.4byte	0xdb
 2823 02a4 00000000 		.4byte	.LFB5
 2824 02a8 E2000000 		.4byte	.LFE5-.LFB5
 2825 02ac 01       		.uleb128 0x1
 2826 02ad 9C       		.byte	0x9c
 2827 02ae FE020000 		.4byte	0x2fe
 2828 02b2 12       		.uleb128 0x12
 2829 02b3 46010000 		.4byte	.LASF31
 2830 02b7 01       		.byte	0x1
 2831 02b8 5901     		.2byte	0x159
 2832 02ba DB000000 		.4byte	0xdb
 2833 02be 02       		.uleb128 0x2
 2834 02bf 91       		.byte	0x91
 2835 02c0 6C       		.sleb128 -20
 2836 02c1 13       		.uleb128 0x13
 2837 02c2 64617900 		.ascii	"day\000"
 2838 02c6 01       		.byte	0x1
 2839 02c7 5901     		.2byte	0x159
 2840 02c9 DB000000 		.4byte	0xdb
 2841 02cd 02       		.uleb128 0x2
 2842 02ce 91       		.byte	0x91
 2843 02cf 68       		.sleb128 -24
 2844 02d0 12       		.uleb128 0x12
 2845 02d1 B9000000 		.4byte	.LASF32
 2846 02d5 01       		.byte	0x1
 2847 02d6 5901     		.2byte	0x159
 2848 02d8 DB000000 		.4byte	0xdb
 2849 02dc 02       		.uleb128 0x2
 2850 02dd 91       		.byte	0x91
 2851 02de 64       		.sleb128 -28
 2852 02df 0F       		.uleb128 0xf
 2853 02e0 0E000000 		.4byte	.LASF40
 2854 02e4 01       		.byte	0x1
 2855 02e5 5D01     		.2byte	0x15d
 2856 02e7 DB000000 		.4byte	0xdb
 2857 02eb 02       		.uleb128 0x2
 2858 02ec 91       		.byte	0x91
 2859 02ed 70       		.sleb128 -16
ARM GAS  C:\Users\Petro\AppData\Local\Temp\cctrdDFV.s 			page 65


 2860 02ee 0F       		.uleb128 0xf
 2861 02ef E2020000 		.4byte	.LASF42
 2862 02f3 01       		.byte	0x1
 2863 02f4 5E01     		.2byte	0x15e
 2864 02f6 DB000000 		.4byte	0xdb
 2865 02fa 02       		.uleb128 0x2
 2866 02fb 91       		.byte	0x91
 2867 02fc 74       		.sleb128 -12
 2868 02fd 00       		.byte	0
 2869 02fe 11       		.uleb128 0x11
 2870 02ff 63020000 		.4byte	.LASF43
 2871 0303 01       		.byte	0x1
 2872 0304 7D01     		.2byte	0x17d
 2873 0306 F5000000 		.4byte	0xf5
 2874 030a 00000000 		.4byte	.LFB6
 2875 030e AC020000 		.4byte	.LFE6-.LFB6
 2876 0312 01       		.uleb128 0x1
 2877 0313 9C       		.byte	0x9c
 2878 0314 CE030000 		.4byte	0x3ce
 2879 0318 12       		.uleb128 0x12
 2880 0319 25030000 		.4byte	.LASF44
 2881 031d 01       		.byte	0x1
 2882 031e 7D01     		.2byte	0x17d
 2883 0320 DB000000 		.4byte	0xdb
 2884 0324 03       		.uleb128 0x3
 2885 0325 91       		.byte	0x91
 2886 0326 B47F     		.sleb128 -76
 2887 0328 12       		.uleb128 0x12
 2888 0329 A6020000 		.4byte	.LASF45
 2889 032d 01       		.byte	0x1
 2890 032e 7D01     		.2byte	0x17d
 2891 0330 DB000000 		.4byte	0xdb
 2892 0334 03       		.uleb128 0x3
 2893 0335 91       		.byte	0x91
 2894 0336 B07F     		.sleb128 -80
 2895 0338 10       		.uleb128 0x10
 2896 0339 6900     		.ascii	"i\000"
 2897 033b 01       		.byte	0x1
 2898 033c 7F01     		.2byte	0x17f
 2899 033e DB000000 		.4byte	0xdb
 2900 0342 02       		.uleb128 0x2
 2901 0343 91       		.byte	0x91
 2902 0344 64       		.sleb128 -28
 2903 0345 0F       		.uleb128 0xf
 2904 0346 2A020000 		.4byte	.LASF46
 2905 034a 01       		.byte	0x1
 2906 034b 8001     		.2byte	0x180
 2907 034d DB000000 		.4byte	0xdb
 2908 0351 02       		.uleb128 0x2
 2909 0352 91       		.byte	0x91
 2910 0353 54       		.sleb128 -44
 2911 0354 0F       		.uleb128 0xf
 2912 0355 1D010000 		.4byte	.LASF47
 2913 0359 01       		.byte	0x1
 2914 035a 8101     		.2byte	0x181
 2915 035c DB000000 		.4byte	0xdb
 2916 0360 02       		.uleb128 0x2
ARM GAS  C:\Users\Petro\AppData\Local\Temp\cctrdDFV.s 			page 66


 2917 0361 91       		.byte	0x91
 2918 0362 50       		.sleb128 -48
 2919 0363 0F       		.uleb128 0xf
 2920 0364 E2020000 		.4byte	.LASF42
 2921 0368 01       		.byte	0x1
 2922 0369 8201     		.2byte	0x182
 2923 036b DB000000 		.4byte	0xdb
 2924 036f 02       		.uleb128 0x2
 2925 0370 91       		.byte	0x91
 2926 0371 60       		.sleb128 -32
 2927 0372 0F       		.uleb128 0xf
 2928 0373 2F030000 		.4byte	.LASF48
 2929 0377 01       		.byte	0x1
 2930 0378 8301     		.2byte	0x183
 2931 037a F5000000 		.4byte	0xf5
 2932 037e 02       		.uleb128 0x2
 2933 037f 91       		.byte	0x91
 2934 0380 58       		.sleb128 -40
 2935 0381 0F       		.uleb128 0xf
 2936 0382 F9020000 		.4byte	.LASF49
 2937 0386 01       		.byte	0x1
 2938 0387 A901     		.2byte	0x1a9
 2939 0389 AD000000 		.4byte	0xad
 2940 038d 02       		.uleb128 0x2
 2941 038e 91       		.byte	0x91
 2942 038f 4C       		.sleb128 -52
 2943 0390 0F       		.uleb128 0xf
 2944 0391 59010000 		.4byte	.LASF28
 2945 0395 01       		.byte	0x1
 2946 0396 B501     		.2byte	0x1b5
 2947 0398 AD000000 		.4byte	0xad
 2948 039c 02       		.uleb128 0x2
 2949 039d 91       		.byte	0x91
 2950 039e 48       		.sleb128 -56
 2951 039f 0F       		.uleb128 0xf
 2952 03a0 81020000 		.4byte	.LASF29
 2953 03a4 01       		.byte	0x1
 2954 03a5 B801     		.2byte	0x1b8
 2955 03a7 AD000000 		.4byte	0xad
 2956 03ab 02       		.uleb128 0x2
 2957 03ac 91       		.byte	0x91
 2958 03ad 44       		.sleb128 -60
 2959 03ae 0F       		.uleb128 0xf
 2960 03af 86020000 		.4byte	.LASF26
 2961 03b3 01       		.byte	0x1
 2962 03b4 C201     		.2byte	0x1c2
 2963 03b6 AD000000 		.4byte	0xad
 2964 03ba 02       		.uleb128 0x2
 2965 03bb 91       		.byte	0x91
 2966 03bc 40       		.sleb128 -64
 2967 03bd 0F       		.uleb128 0xf
 2968 03be 79020000 		.4byte	.LASF50
 2969 03c2 01       		.byte	0x1
 2970 03c3 C901     		.2byte	0x1c9
 2971 03c5 AD000000 		.4byte	0xad
 2972 03c9 03       		.uleb128 0x3
 2973 03ca 91       		.byte	0x91
ARM GAS  C:\Users\Petro\AppData\Local\Temp\cctrdDFV.s 			page 67


 2974 03cb BC7F     		.sleb128 -68
 2975 03cd 00       		.byte	0
 2976 03ce 14       		.uleb128 0x14
 2977 03cf 38030000 		.4byte	.LASF70
 2978 03d3 01       		.byte	0x1
 2979 03d4 DB01     		.2byte	0x1db
 2980 03d6 B8000000 		.4byte	0xb8
 2981 03da 00000000 		.4byte	.LFB7
 2982 03de 8C000000 		.4byte	.LFE7-.LFB7
 2983 03e2 01       		.uleb128 0x1
 2984 03e3 9C       		.byte	0x9c
 2985 03e4 25040000 		.4byte	0x425
 2986 03e8 0F       		.uleb128 0xf
 2987 03e9 2F030000 		.4byte	.LASF48
 2988 03ed 01       		.byte	0x1
 2989 03ee DD01     		.2byte	0x1dd
 2990 03f0 B8000000 		.4byte	0xb8
 2991 03f4 02       		.uleb128 0x2
 2992 03f5 91       		.byte	0x91
 2993 03f6 68       		.sleb128 -24
 2994 03f7 0F       		.uleb128 0xf
 2995 03f8 7A000000 		.4byte	.LASF30
 2996 03fc 01       		.byte	0x1
 2997 03fd DE01     		.2byte	0x1de
 2998 03ff AD000000 		.4byte	0xad
 2999 0403 02       		.uleb128 0x2
 3000 0404 91       		.byte	0x91
 3001 0405 60       		.sleb128 -32
 3002 0406 0F       		.uleb128 0xf
 3003 0407 48020000 		.4byte	.LASF51
 3004 040b 01       		.byte	0x1
 3005 040c DF01     		.2byte	0x1df
 3006 040e AD000000 		.4byte	0xad
 3007 0412 02       		.uleb128 0x2
 3008 0413 91       		.byte	0x91
 3009 0414 5C       		.sleb128 -36
 3010 0415 0F       		.uleb128 0xf
 3011 0416 57030000 		.4byte	.LASF35
 3012 041a 01       		.byte	0x1
 3013 041b E001     		.2byte	0x1e0
 3014 041d AD000000 		.4byte	0xad
 3015 0421 02       		.uleb128 0x2
 3016 0422 91       		.byte	0x91
 3017 0423 64       		.sleb128 -28
 3018 0424 00       		.byte	0
 3019 0425 15       		.uleb128 0x15
 3020 0426 04020000 		.4byte	.LASF61
 3021 042a 01       		.byte	0x1
 3022 042b 0302     		.2byte	0x203
 3023 042d 00000000 		.4byte	.LFB8
 3024 0431 0C060000 		.4byte	.LFE8-.LFB8
 3025 0435 01       		.uleb128 0x1
 3026 0436 9C       		.byte	0x9c
 3027 0437 86050000 		.4byte	0x586
 3028 043b 12       		.uleb128 0x12
 3029 043c 2F030000 		.4byte	.LASF48
 3030 0440 01       		.byte	0x1
ARM GAS  C:\Users\Petro\AppData\Local\Temp\cctrdDFV.s 			page 68


 3031 0441 0302     		.2byte	0x203
 3032 0443 F5000000 		.4byte	0xf5
 3033 0447 03       		.uleb128 0x3
 3034 0448 91       		.byte	0x91
 3035 0449 987F     		.sleb128 -104
 3036 044b 0F       		.uleb128 0xf
 3037 044c 59000000 		.4byte	.LASF52
 3038 0450 01       		.byte	0x1
 3039 0451 0502     		.2byte	0x205
 3040 0453 DB000000 		.4byte	0xdb
 3041 0457 03       		.uleb128 0x3
 3042 0458 91       		.byte	0x91
 3043 0459 AC7F     		.sleb128 -84
 3044 045b 0F       		.uleb128 0xf
 3045 045c FE000000 		.4byte	.LASF53
 3046 0460 01       		.byte	0x1
 3047 0461 0602     		.2byte	0x206
 3048 0463 DB000000 		.4byte	0xdb
 3049 0467 02       		.uleb128 0x2
 3050 0468 91       		.byte	0x91
 3051 0469 64       		.sleb128 -28
 3052 046a 0F       		.uleb128 0xf
 3053 046b 7F000000 		.4byte	.LASF54
 3054 046f 01       		.byte	0x1
 3055 0470 0702     		.2byte	0x207
 3056 0472 DB000000 		.4byte	0xdb
 3057 0476 02       		.uleb128 0x2
 3058 0477 91       		.byte	0x91
 3059 0478 60       		.sleb128 -32
 3060 0479 0F       		.uleb128 0xf
 3061 047a 59010000 		.4byte	.LASF28
 3062 047e 01       		.byte	0x1
 3063 047f 0802     		.2byte	0x208
 3064 0481 DB000000 		.4byte	0xdb
 3065 0485 03       		.uleb128 0x3
 3066 0486 91       		.byte	0x91
 3067 0487 B47F     		.sleb128 -76
 3068 0489 0F       		.uleb128 0xf
 3069 048a 00000000 		.4byte	.LASF55
 3070 048e 01       		.byte	0x1
 3071 048f 0A02     		.2byte	0x20a
 3072 0491 DB000000 		.4byte	0xdb
 3073 0495 03       		.uleb128 0x3
 3074 0496 91       		.byte	0x91
 3075 0497 B07F     		.sleb128 -80
 3076 0499 0F       		.uleb128 0xf
 3077 049a 1D010000 		.4byte	.LASF47
 3078 049e 01       		.byte	0x1
 3079 049f 0B02     		.2byte	0x20b
 3080 04a1 DB000000 		.4byte	0xdb
 3081 04a5 02       		.uleb128 0x2
 3082 04a6 91       		.byte	0x91
 3083 04a7 5C       		.sleb128 -36
 3084 04a8 0F       		.uleb128 0xf
 3085 04a9 2A020000 		.4byte	.LASF46
 3086 04ad 01       		.byte	0x1
 3087 04ae 0C02     		.2byte	0x20c
ARM GAS  C:\Users\Petro\AppData\Local\Temp\cctrdDFV.s 			page 69


 3088 04b0 DB000000 		.4byte	0xdb
 3089 04b4 02       		.uleb128 0x2
 3090 04b5 91       		.byte	0x91
 3091 04b6 58       		.sleb128 -40
 3092 04b7 0F       		.uleb128 0xf
 3093 04b8 F2020000 		.4byte	.LASF56
 3094 04bc 01       		.byte	0x1
 3095 04bd 0E02     		.2byte	0x20e
 3096 04bf DB000000 		.4byte	0xdb
 3097 04c3 02       		.uleb128 0x2
 3098 04c4 91       		.byte	0x91
 3099 04c5 54       		.sleb128 -44
 3100 04c6 0F       		.uleb128 0xf
 3101 04c7 8C000000 		.4byte	.LASF57
 3102 04cb 01       		.byte	0x1
 3103 04cc 3B02     		.2byte	0x23b
 3104 04ce AD000000 		.4byte	0xad
 3105 04d2 02       		.uleb128 0x2
 3106 04d3 91       		.byte	0x91
 3107 04d4 4C       		.sleb128 -52
 3108 04d5 0F       		.uleb128 0xf
 3109 04d6 15000000 		.4byte	.LASF58
 3110 04da 01       		.byte	0x1
 3111 04db 9E02     		.2byte	0x29e
 3112 04dd AD000000 		.4byte	0xad
 3113 04e1 03       		.uleb128 0x3
 3114 04e2 91       		.byte	0x91
 3115 04e3 A47F     		.sleb128 -92
 3116 04e5 0F       		.uleb128 0xf
 3117 04e6 E2020000 		.4byte	.LASF42
 3118 04ea 01       		.byte	0x1
 3119 04eb 9F02     		.2byte	0x29f
 3120 04ed DB000000 		.4byte	0xdb
 3121 04f1 03       		.uleb128 0x3
 3122 04f2 91       		.byte	0x91
 3123 04f3 A87F     		.sleb128 -88
 3124 04f5 0F       		.uleb128 0xf
 3125 04f6 17020000 		.4byte	.LASF59
 3126 04fa 01       		.byte	0x1
 3127 04fb B002     		.2byte	0x2b0
 3128 04fd AD000000 		.4byte	0xad
 3129 0501 03       		.uleb128 0x3
 3130 0502 91       		.byte	0x91
 3131 0503 BC7F     		.sleb128 -68
 3132 0505 0F       		.uleb128 0xf
 3133 0506 B9000000 		.4byte	.LASF32
 3134 050a 01       		.byte	0x1
 3135 050b B102     		.2byte	0x2b1
 3136 050d AD000000 		.4byte	0xad
 3137 0511 03       		.uleb128 0x3
 3138 0512 91       		.byte	0x91
 3139 0513 B87F     		.sleb128 -72
 3140 0515 16       		.uleb128 0x16
 3141 0516 28000000 		.4byte	.LBB2
 3142 051a 8A000000 		.4byte	.LBE2-.LBB2
 3143 051e 32050000 		.4byte	0x532
 3144 0522 0F       		.uleb128 0xf
ARM GAS  C:\Users\Petro\AppData\Local\Temp\cctrdDFV.s 			page 70


 3145 0523 64010000 		.4byte	.LASF60
 3146 0527 01       		.byte	0x1
 3147 0528 1F02     		.2byte	0x21f
 3148 052a AD000000 		.4byte	0xad
 3149 052e 02       		.uleb128 0x2
 3150 052f 91       		.byte	0x91
 3151 0530 50       		.sleb128 -48
 3152 0531 00       		.byte	0
 3153 0532 16       		.uleb128 0x16
 3154 0533 F0000000 		.4byte	.LBB3
 3155 0537 48000000 		.4byte	.LBE3-.LBB3
 3156 053b 4F050000 		.4byte	0x54f
 3157 053f 0F       		.uleb128 0xf
 3158 0540 64010000 		.4byte	.LASF60
 3159 0544 01       		.byte	0x1
 3160 0545 4002     		.2byte	0x240
 3161 0547 AD000000 		.4byte	0xad
 3162 054b 02       		.uleb128 0x2
 3163 054c 91       		.byte	0x91
 3164 054d 48       		.sleb128 -56
 3165 054e 00       		.byte	0
 3166 054f 16       		.uleb128 0x16
 3167 0550 50010000 		.4byte	.LBB4
 3168 0554 48000000 		.4byte	.LBE4-.LBB4
 3169 0558 6C050000 		.4byte	0x56c
 3170 055c 0F       		.uleb128 0xf
 3171 055d 64010000 		.4byte	.LASF60
 3172 0561 01       		.byte	0x1
 3173 0562 5402     		.2byte	0x254
 3174 0564 AD000000 		.4byte	0xad
 3175 0568 02       		.uleb128 0x2
 3176 0569 91       		.byte	0x91
 3177 056a 44       		.sleb128 -60
 3178 056b 00       		.byte	0
 3179 056c 17       		.uleb128 0x17
 3180 056d E8010000 		.4byte	.LBB5
 3181 0571 48000000 		.4byte	.LBE5-.LBB5
 3182 0575 0F       		.uleb128 0xf
 3183 0576 64010000 		.4byte	.LASF60
 3184 057a 01       		.byte	0x1
 3185 057b 6C02     		.2byte	0x26c
 3186 057d AD000000 		.4byte	0xad
 3187 0581 02       		.uleb128 0x2
 3188 0582 91       		.byte	0x91
 3189 0583 40       		.sleb128 -64
 3190 0584 00       		.byte	0
 3191 0585 00       		.byte	0
 3192 0586 15       		.uleb128 0x15
 3193 0587 F7010000 		.4byte	.LASF62
 3194 058b 01       		.byte	0x1
 3195 058c D902     		.2byte	0x2d9
 3196 058e 00000000 		.4byte	.LFB9
 3197 0592 50000000 		.4byte	.LFE9-.LFB9
 3198 0596 01       		.uleb128 0x1
 3199 0597 9C       		.byte	0x9c
 3200 0598 BB050000 		.4byte	0x5bb
 3201 059c 0F       		.uleb128 0xf
ARM GAS  C:\Users\Petro\AppData\Local\Temp\cctrdDFV.s 			page 71


 3202 059d 7F010000 		.4byte	.LASF34
 3203 05a1 01       		.byte	0x1
 3204 05a2 DB02     		.2byte	0x2db
 3205 05a4 97000000 		.4byte	0x97
 3206 05a8 02       		.uleb128 0x2
 3207 05a9 91       		.byte	0x91
 3208 05aa 77       		.sleb128 -9
 3209 05ab 0F       		.uleb128 0xf
 3210 05ac 57030000 		.4byte	.LASF35
 3211 05b0 01       		.byte	0x1
 3212 05b1 DC02     		.2byte	0x2dc
 3213 05b3 AD000000 		.4byte	0xad
 3214 05b7 02       		.uleb128 0x2
 3215 05b8 91       		.byte	0x91
 3216 05b9 70       		.sleb128 -16
 3217 05ba 00       		.byte	0
 3218 05bb 15       		.uleb128 0x15
 3219 05bc 4B030000 		.4byte	.LASF63
 3220 05c0 01       		.byte	0x1
 3221 05c1 F502     		.2byte	0x2f5
 3222 05c3 00000000 		.4byte	.LFB10
 3223 05c7 50000000 		.4byte	.LFE10-.LFB10
 3224 05cb 01       		.uleb128 0x1
 3225 05cc 9C       		.byte	0x9c
 3226 05cd F0050000 		.4byte	0x5f0
 3227 05d1 0F       		.uleb128 0xf
 3228 05d2 7F010000 		.4byte	.LASF34
 3229 05d6 01       		.byte	0x1
 3230 05d7 F702     		.2byte	0x2f7
 3231 05d9 97000000 		.4byte	0x97
 3232 05dd 02       		.uleb128 0x2
 3233 05de 91       		.byte	0x91
 3234 05df 77       		.sleb128 -9
 3235 05e0 0F       		.uleb128 0xf
 3236 05e1 57030000 		.4byte	.LASF35
 3237 05e5 01       		.byte	0x1
 3238 05e6 F802     		.2byte	0x2f8
 3239 05e8 AD000000 		.4byte	0xad
 3240 05ec 02       		.uleb128 0x2
 3241 05ed 91       		.byte	0x91
 3242 05ee 70       		.sleb128 -16
 3243 05ef 00       		.byte	0
 3244 05f0 0C       		.uleb128 0xc
 3245 05f1 CF000000 		.4byte	0xcf
 3246 05f5 00060000 		.4byte	0x600
 3247 05f9 0D       		.uleb128 0xd
 3248 05fa 08010000 		.4byte	0x108
 3249 05fe 0B       		.byte	0xb
 3250 05ff 00       		.byte	0
 3251 0600 0A       		.uleb128 0xa
 3252 0601 E3000000 		.4byte	.LASF64
 3253 0605 01       		.byte	0x1
 3254 0606 88       		.byte	0x88
 3255 0607 F0050000 		.4byte	0x5f0
 3256 060b 05       		.uleb128 0x5
 3257 060c 03       		.byte	0x3
 3258 060d 00000000 		.4byte	DS1307_daysBeforeMonthTbl1
ARM GAS  C:\Users\Petro\AppData\Local\Temp\cctrdDFV.s 			page 72


 3259 0611 0C       		.uleb128 0xc
 3260 0612 C3000000 		.4byte	0xc3
 3261 0616 21060000 		.4byte	0x621
 3262 061a 0D       		.uleb128 0xd
 3263 061b 08010000 		.4byte	0x108
 3264 061f 0B       		.byte	0xb
 3265 0620 00       		.byte	0
 3266 0621 0A       		.uleb128 0xa
 3267 0622 C7000000 		.4byte	.LASF65
 3268 0626 01       		.byte	0x1
 3269 0627 96       		.byte	0x96
 3270 0628 11060000 		.4byte	0x611
 3271 062c 05       		.uleb128 0x5
 3272 062d 03       		.byte	0x3
 3273 062e 18000000 		.4byte	DS1307_daysInMonthTbl
 3274 0632 18       		.uleb128 0x18
 3275 0633 F4030000 		.4byte	.LASF71
 3276 0637 01       		.byte	0x1
 3277 0638 AA       		.byte	0xaa
 3278 0639 84010000 		.4byte	0x184
 3279 063d 05       		.uleb128 0x5
 3280 063e 03       		.byte	0x3
 3281 063f 00000000 		.4byte	DS1307_currentTimeDate
 3282 0643 00       		.byte	0
 3283              		.section	.debug_abbrev,"",%progbits
 3284              	.Ldebug_abbrev0:
 3285 0000 01       		.uleb128 0x1
 3286 0001 11       		.uleb128 0x11
 3287 0002 01       		.byte	0x1
 3288 0003 25       		.uleb128 0x25
 3289 0004 0E       		.uleb128 0xe
 3290 0005 13       		.uleb128 0x13
 3291 0006 0B       		.uleb128 0xb
 3292 0007 03       		.uleb128 0x3
 3293 0008 0E       		.uleb128 0xe
 3294 0009 1B       		.uleb128 0x1b
 3295 000a 0E       		.uleb128 0xe
 3296 000b 55       		.uleb128 0x55
 3297 000c 17       		.uleb128 0x17
 3298 000d 11       		.uleb128 0x11
 3299 000e 01       		.uleb128 0x1
 3300 000f 10       		.uleb128 0x10
 3301 0010 17       		.uleb128 0x17
 3302 0011 00       		.byte	0
 3303 0012 00       		.byte	0
 3304 0013 02       		.uleb128 0x2
 3305 0014 24       		.uleb128 0x24
 3306 0015 00       		.byte	0
 3307 0016 0B       		.uleb128 0xb
 3308 0017 0B       		.uleb128 0xb
 3309 0018 3E       		.uleb128 0x3e
 3310 0019 0B       		.uleb128 0xb
 3311 001a 03       		.uleb128 0x3
 3312 001b 0E       		.uleb128 0xe
 3313 001c 00       		.byte	0
 3314 001d 00       		.byte	0
 3315 001e 03       		.uleb128 0x3
ARM GAS  C:\Users\Petro\AppData\Local\Temp\cctrdDFV.s 			page 73


 3316 001f 16       		.uleb128 0x16
 3317 0020 00       		.byte	0
 3318 0021 03       		.uleb128 0x3
 3319 0022 0E       		.uleb128 0xe
 3320 0023 3A       		.uleb128 0x3a
 3321 0024 0B       		.uleb128 0xb
 3322 0025 3B       		.uleb128 0x3b
 3323 0026 0B       		.uleb128 0xb
 3324 0027 49       		.uleb128 0x49
 3325 0028 13       		.uleb128 0x13
 3326 0029 00       		.byte	0
 3327 002a 00       		.byte	0
 3328 002b 04       		.uleb128 0x4
 3329 002c 24       		.uleb128 0x24
 3330 002d 00       		.byte	0
 3331 002e 0B       		.uleb128 0xb
 3332 002f 0B       		.uleb128 0xb
 3333 0030 3E       		.uleb128 0x3e
 3334 0031 0B       		.uleb128 0xb
 3335 0032 03       		.uleb128 0x3
 3336 0033 08       		.uleb128 0x8
 3337 0034 00       		.byte	0
 3338 0035 00       		.byte	0
 3339 0036 05       		.uleb128 0x5
 3340 0037 16       		.uleb128 0x16
 3341 0038 00       		.byte	0
 3342 0039 03       		.uleb128 0x3
 3343 003a 0E       		.uleb128 0xe
 3344 003b 3A       		.uleb128 0x3a
 3345 003c 0B       		.uleb128 0xb
 3346 003d 3B       		.uleb128 0x3b
 3347 003e 05       		.uleb128 0x5
 3348 003f 49       		.uleb128 0x49
 3349 0040 13       		.uleb128 0x13
 3350 0041 00       		.byte	0
 3351 0042 00       		.byte	0
 3352 0043 06       		.uleb128 0x6
 3353 0044 13       		.uleb128 0x13
 3354 0045 01       		.byte	0x1
 3355 0046 0B       		.uleb128 0xb
 3356 0047 0B       		.uleb128 0xb
 3357 0048 3A       		.uleb128 0x3a
 3358 0049 0B       		.uleb128 0xb
 3359 004a 3B       		.uleb128 0x3b
 3360 004b 0B       		.uleb128 0xb
 3361 004c 01       		.uleb128 0x1
 3362 004d 13       		.uleb128 0x13
 3363 004e 00       		.byte	0
 3364 004f 00       		.byte	0
 3365 0050 07       		.uleb128 0x7
 3366 0051 0D       		.uleb128 0xd
 3367 0052 00       		.byte	0
 3368 0053 03       		.uleb128 0x3
 3369 0054 0E       		.uleb128 0xe
 3370 0055 3A       		.uleb128 0x3a
 3371 0056 0B       		.uleb128 0xb
 3372 0057 3B       		.uleb128 0x3b
ARM GAS  C:\Users\Petro\AppData\Local\Temp\cctrdDFV.s 			page 74


 3373 0058 0B       		.uleb128 0xb
 3374 0059 49       		.uleb128 0x49
 3375 005a 13       		.uleb128 0x13
 3376 005b 38       		.uleb128 0x38
 3377 005c 0B       		.uleb128 0xb
 3378 005d 00       		.byte	0
 3379 005e 00       		.byte	0
 3380 005f 08       		.uleb128 0x8
 3381 0060 0D       		.uleb128 0xd
 3382 0061 00       		.byte	0
 3383 0062 03       		.uleb128 0x3
 3384 0063 08       		.uleb128 0x8
 3385 0064 3A       		.uleb128 0x3a
 3386 0065 0B       		.uleb128 0xb
 3387 0066 3B       		.uleb128 0x3b
 3388 0067 0B       		.uleb128 0xb
 3389 0068 49       		.uleb128 0x49
 3390 0069 13       		.uleb128 0x13
 3391 006a 38       		.uleb128 0x38
 3392 006b 0B       		.uleb128 0xb
 3393 006c 00       		.byte	0
 3394 006d 00       		.byte	0
 3395 006e 09       		.uleb128 0x9
 3396 006f 2E       		.uleb128 0x2e
 3397 0070 01       		.byte	0x1
 3398 0071 03       		.uleb128 0x3
 3399 0072 0E       		.uleb128 0xe
 3400 0073 3A       		.uleb128 0x3a
 3401 0074 0B       		.uleb128 0xb
 3402 0075 3B       		.uleb128 0x3b
 3403 0076 0B       		.uleb128 0xb
 3404 0077 27       		.uleb128 0x27
 3405 0078 19       		.uleb128 0x19
 3406 0079 49       		.uleb128 0x49
 3407 007a 13       		.uleb128 0x13
 3408 007b 11       		.uleb128 0x11
 3409 007c 01       		.uleb128 0x1
 3410 007d 12       		.uleb128 0x12
 3411 007e 06       		.uleb128 0x6
 3412 007f 40       		.uleb128 0x40
 3413 0080 18       		.uleb128 0x18
 3414 0081 9642     		.uleb128 0x2116
 3415 0083 19       		.uleb128 0x19
 3416 0084 01       		.uleb128 0x1
 3417 0085 13       		.uleb128 0x13
 3418 0086 00       		.byte	0
 3419 0087 00       		.byte	0
 3420 0088 0A       		.uleb128 0xa
 3421 0089 34       		.uleb128 0x34
 3422 008a 00       		.byte	0
 3423 008b 03       		.uleb128 0x3
 3424 008c 0E       		.uleb128 0xe
 3425 008d 3A       		.uleb128 0x3a
 3426 008e 0B       		.uleb128 0xb
 3427 008f 3B       		.uleb128 0x3b
 3428 0090 0B       		.uleb128 0xb
 3429 0091 49       		.uleb128 0x49
ARM GAS  C:\Users\Petro\AppData\Local\Temp\cctrdDFV.s 			page 75


 3430 0092 13       		.uleb128 0x13
 3431 0093 02       		.uleb128 0x2
 3432 0094 18       		.uleb128 0x18
 3433 0095 00       		.byte	0
 3434 0096 00       		.byte	0
 3435 0097 0B       		.uleb128 0xb
 3436 0098 34       		.uleb128 0x34
 3437 0099 00       		.byte	0
 3438 009a 03       		.uleb128 0x3
 3439 009b 08       		.uleb128 0x8
 3440 009c 3A       		.uleb128 0x3a
 3441 009d 0B       		.uleb128 0xb
 3442 009e 3B       		.uleb128 0x3b
 3443 009f 0B       		.uleb128 0xb
 3444 00a0 49       		.uleb128 0x49
 3445 00a1 13       		.uleb128 0x13
 3446 00a2 02       		.uleb128 0x2
 3447 00a3 18       		.uleb128 0x18
 3448 00a4 00       		.byte	0
 3449 00a5 00       		.byte	0
 3450 00a6 0C       		.uleb128 0xc
 3451 00a7 01       		.uleb128 0x1
 3452 00a8 01       		.byte	0x1
 3453 00a9 49       		.uleb128 0x49
 3454 00aa 13       		.uleb128 0x13
 3455 00ab 01       		.uleb128 0x1
 3456 00ac 13       		.uleb128 0x13
 3457 00ad 00       		.byte	0
 3458 00ae 00       		.byte	0
 3459 00af 0D       		.uleb128 0xd
 3460 00b0 21       		.uleb128 0x21
 3461 00b1 00       		.byte	0
 3462 00b2 49       		.uleb128 0x49
 3463 00b3 13       		.uleb128 0x13
 3464 00b4 2F       		.uleb128 0x2f
 3465 00b5 0B       		.uleb128 0xb
 3466 00b6 00       		.byte	0
 3467 00b7 00       		.byte	0
 3468 00b8 0E       		.uleb128 0xe
 3469 00b9 2E       		.uleb128 0x2e
 3470 00ba 01       		.byte	0x1
 3471 00bb 03       		.uleb128 0x3
 3472 00bc 0E       		.uleb128 0xe
 3473 00bd 3A       		.uleb128 0x3a
 3474 00be 0B       		.uleb128 0xb
 3475 00bf 3B       		.uleb128 0x3b
 3476 00c0 05       		.uleb128 0x5
 3477 00c1 27       		.uleb128 0x27
 3478 00c2 19       		.uleb128 0x19
 3479 00c3 11       		.uleb128 0x11
 3480 00c4 01       		.uleb128 0x1
 3481 00c5 12       		.uleb128 0x12
 3482 00c6 06       		.uleb128 0x6
 3483 00c7 40       		.uleb128 0x40
 3484 00c8 18       		.uleb128 0x18
 3485 00c9 9642     		.uleb128 0x2116
 3486 00cb 19       		.uleb128 0x19
ARM GAS  C:\Users\Petro\AppData\Local\Temp\cctrdDFV.s 			page 76


 3487 00cc 01       		.uleb128 0x1
 3488 00cd 13       		.uleb128 0x13
 3489 00ce 00       		.byte	0
 3490 00cf 00       		.byte	0
 3491 00d0 0F       		.uleb128 0xf
 3492 00d1 34       		.uleb128 0x34
 3493 00d2 00       		.byte	0
 3494 00d3 03       		.uleb128 0x3
 3495 00d4 0E       		.uleb128 0xe
 3496 00d5 3A       		.uleb128 0x3a
 3497 00d6 0B       		.uleb128 0xb
 3498 00d7 3B       		.uleb128 0x3b
 3499 00d8 05       		.uleb128 0x5
 3500 00d9 49       		.uleb128 0x49
 3501 00da 13       		.uleb128 0x13
 3502 00db 02       		.uleb128 0x2
 3503 00dc 18       		.uleb128 0x18
 3504 00dd 00       		.byte	0
 3505 00de 00       		.byte	0
 3506 00df 10       		.uleb128 0x10
 3507 00e0 34       		.uleb128 0x34
 3508 00e1 00       		.byte	0
 3509 00e2 03       		.uleb128 0x3
 3510 00e3 08       		.uleb128 0x8
 3511 00e4 3A       		.uleb128 0x3a
 3512 00e5 0B       		.uleb128 0xb
 3513 00e6 3B       		.uleb128 0x3b
 3514 00e7 05       		.uleb128 0x5
 3515 00e8 49       		.uleb128 0x49
 3516 00e9 13       		.uleb128 0x13
 3517 00ea 02       		.uleb128 0x2
 3518 00eb 18       		.uleb128 0x18
 3519 00ec 00       		.byte	0
 3520 00ed 00       		.byte	0
 3521 00ee 11       		.uleb128 0x11
 3522 00ef 2E       		.uleb128 0x2e
 3523 00f0 01       		.byte	0x1
 3524 00f1 03       		.uleb128 0x3
 3525 00f2 0E       		.uleb128 0xe
 3526 00f3 3A       		.uleb128 0x3a
 3527 00f4 0B       		.uleb128 0xb
 3528 00f5 3B       		.uleb128 0x3b
 3529 00f6 05       		.uleb128 0x5
 3530 00f7 27       		.uleb128 0x27
 3531 00f8 19       		.uleb128 0x19
 3532 00f9 49       		.uleb128 0x49
 3533 00fa 13       		.uleb128 0x13
 3534 00fb 11       		.uleb128 0x11
 3535 00fc 01       		.uleb128 0x1
 3536 00fd 12       		.uleb128 0x12
 3537 00fe 06       		.uleb128 0x6
 3538 00ff 40       		.uleb128 0x40
 3539 0100 18       		.uleb128 0x18
 3540 0101 9642     		.uleb128 0x2116
 3541 0103 19       		.uleb128 0x19
 3542 0104 01       		.uleb128 0x1
 3543 0105 13       		.uleb128 0x13
ARM GAS  C:\Users\Petro\AppData\Local\Temp\cctrdDFV.s 			page 77


 3544 0106 00       		.byte	0
 3545 0107 00       		.byte	0
 3546 0108 12       		.uleb128 0x12
 3547 0109 05       		.uleb128 0x5
 3548 010a 00       		.byte	0
 3549 010b 03       		.uleb128 0x3
 3550 010c 0E       		.uleb128 0xe
 3551 010d 3A       		.uleb128 0x3a
 3552 010e 0B       		.uleb128 0xb
 3553 010f 3B       		.uleb128 0x3b
 3554 0110 05       		.uleb128 0x5
 3555 0111 49       		.uleb128 0x49
 3556 0112 13       		.uleb128 0x13
 3557 0113 02       		.uleb128 0x2
 3558 0114 18       		.uleb128 0x18
 3559 0115 00       		.byte	0
 3560 0116 00       		.byte	0
 3561 0117 13       		.uleb128 0x13
 3562 0118 05       		.uleb128 0x5
 3563 0119 00       		.byte	0
 3564 011a 03       		.uleb128 0x3
 3565 011b 08       		.uleb128 0x8
 3566 011c 3A       		.uleb128 0x3a
 3567 011d 0B       		.uleb128 0xb
 3568 011e 3B       		.uleb128 0x3b
 3569 011f 05       		.uleb128 0x5
 3570 0120 49       		.uleb128 0x49
 3571 0121 13       		.uleb128 0x13
 3572 0122 02       		.uleb128 0x2
 3573 0123 18       		.uleb128 0x18
 3574 0124 00       		.byte	0
 3575 0125 00       		.byte	0
 3576 0126 14       		.uleb128 0x14
 3577 0127 2E       		.uleb128 0x2e
 3578 0128 01       		.byte	0x1
 3579 0129 3F       		.uleb128 0x3f
 3580 012a 19       		.uleb128 0x19
 3581 012b 03       		.uleb128 0x3
 3582 012c 0E       		.uleb128 0xe
 3583 012d 3A       		.uleb128 0x3a
 3584 012e 0B       		.uleb128 0xb
 3585 012f 3B       		.uleb128 0x3b
 3586 0130 05       		.uleb128 0x5
 3587 0131 27       		.uleb128 0x27
 3588 0132 19       		.uleb128 0x19
 3589 0133 49       		.uleb128 0x49
 3590 0134 13       		.uleb128 0x13
 3591 0135 11       		.uleb128 0x11
 3592 0136 01       		.uleb128 0x1
 3593 0137 12       		.uleb128 0x12
 3594 0138 06       		.uleb128 0x6
 3595 0139 40       		.uleb128 0x40
 3596 013a 18       		.uleb128 0x18
 3597 013b 9642     		.uleb128 0x2116
 3598 013d 19       		.uleb128 0x19
 3599 013e 01       		.uleb128 0x1
 3600 013f 13       		.uleb128 0x13
ARM GAS  C:\Users\Petro\AppData\Local\Temp\cctrdDFV.s 			page 78


 3601 0140 00       		.byte	0
 3602 0141 00       		.byte	0
 3603 0142 15       		.uleb128 0x15
 3604 0143 2E       		.uleb128 0x2e
 3605 0144 01       		.byte	0x1
 3606 0145 3F       		.uleb128 0x3f
 3607 0146 19       		.uleb128 0x19
 3608 0147 03       		.uleb128 0x3
 3609 0148 0E       		.uleb128 0xe
 3610 0149 3A       		.uleb128 0x3a
 3611 014a 0B       		.uleb128 0xb
 3612 014b 3B       		.uleb128 0x3b
 3613 014c 05       		.uleb128 0x5
 3614 014d 27       		.uleb128 0x27
 3615 014e 19       		.uleb128 0x19
 3616 014f 11       		.uleb128 0x11
 3617 0150 01       		.uleb128 0x1
 3618 0151 12       		.uleb128 0x12
 3619 0152 06       		.uleb128 0x6
 3620 0153 40       		.uleb128 0x40
 3621 0154 18       		.uleb128 0x18
 3622 0155 9642     		.uleb128 0x2116
 3623 0157 19       		.uleb128 0x19
 3624 0158 01       		.uleb128 0x1
 3625 0159 13       		.uleb128 0x13
 3626 015a 00       		.byte	0
 3627 015b 00       		.byte	0
 3628 015c 16       		.uleb128 0x16
 3629 015d 0B       		.uleb128 0xb
 3630 015e 01       		.byte	0x1
 3631 015f 11       		.uleb128 0x11
 3632 0160 01       		.uleb128 0x1
 3633 0161 12       		.uleb128 0x12
 3634 0162 06       		.uleb128 0x6
 3635 0163 01       		.uleb128 0x1
 3636 0164 13       		.uleb128 0x13
 3637 0165 00       		.byte	0
 3638 0166 00       		.byte	0
 3639 0167 17       		.uleb128 0x17
 3640 0168 0B       		.uleb128 0xb
 3641 0169 01       		.byte	0x1
 3642 016a 11       		.uleb128 0x11
 3643 016b 01       		.uleb128 0x1
 3644 016c 12       		.uleb128 0x12
 3645 016d 06       		.uleb128 0x6
 3646 016e 00       		.byte	0
 3647 016f 00       		.byte	0
 3648 0170 18       		.uleb128 0x18
 3649 0171 34       		.uleb128 0x34
 3650 0172 00       		.byte	0
 3651 0173 03       		.uleb128 0x3
 3652 0174 0E       		.uleb128 0xe
 3653 0175 3A       		.uleb128 0x3a
 3654 0176 0B       		.uleb128 0xb
 3655 0177 3B       		.uleb128 0x3b
 3656 0178 0B       		.uleb128 0xb
 3657 0179 49       		.uleb128 0x49
ARM GAS  C:\Users\Petro\AppData\Local\Temp\cctrdDFV.s 			page 79


 3658 017a 13       		.uleb128 0x13
 3659 017b 3F       		.uleb128 0x3f
 3660 017c 19       		.uleb128 0x19
 3661 017d 02       		.uleb128 0x2
 3662 017e 18       		.uleb128 0x18
 3663 017f 00       		.byte	0
 3664 0180 00       		.byte	0
 3665 0181 00       		.byte	0
 3666              		.section	.debug_aranges,"",%progbits
 3667 0000 5C000000 		.4byte	0x5c
 3668 0004 0200     		.2byte	0x2
 3669 0006 00000000 		.4byte	.Ldebug_info0
 3670 000a 04       		.byte	0x4
 3671 000b 00       		.byte	0
 3672 000c 0000     		.2byte	0
 3673 000e 0000     		.2byte	0
 3674 0010 00000000 		.4byte	.LFB2
 3675 0014 FC010000 		.4byte	.LFE2-.LFB2
 3676 0018 00000000 		.4byte	.LFB3
 3677 001c F4010000 		.4byte	.LFE3-.LFB3
 3678 0020 00000000 		.4byte	.LFB4
 3679 0024 B4000000 		.4byte	.LFE4-.LFB4
 3680 0028 00000000 		.4byte	.LFB5
 3681 002c E2000000 		.4byte	.LFE5-.LFB5
 3682 0030 00000000 		.4byte	.LFB6
 3683 0034 AC020000 		.4byte	.LFE6-.LFB6
 3684 0038 00000000 		.4byte	.LFB7
 3685 003c 8C000000 		.4byte	.LFE7-.LFB7
 3686 0040 00000000 		.4byte	.LFB8
 3687 0044 0C060000 		.4byte	.LFE8-.LFB8
 3688 0048 00000000 		.4byte	.LFB9
 3689 004c 50000000 		.4byte	.LFE9-.LFB9
 3690 0050 00000000 		.4byte	.LFB10
 3691 0054 50000000 		.4byte	.LFE10-.LFB10
 3692 0058 00000000 		.4byte	0
 3693 005c 00000000 		.4byte	0
 3694              		.section	.debug_ranges,"",%progbits
 3695              	.Ldebug_ranges0:
 3696 0000 00000000 		.4byte	.LFB2
 3697 0004 FC010000 		.4byte	.LFE2
 3698 0008 00000000 		.4byte	.LFB3
 3699 000c F4010000 		.4byte	.LFE3
 3700 0010 00000000 		.4byte	.LFB4
 3701 0014 B4000000 		.4byte	.LFE4
 3702 0018 00000000 		.4byte	.LFB5
 3703 001c E2000000 		.4byte	.LFE5
 3704 0020 00000000 		.4byte	.LFB6
 3705 0024 AC020000 		.4byte	.LFE6
 3706 0028 00000000 		.4byte	.LFB7
 3707 002c 8C000000 		.4byte	.LFE7
 3708 0030 00000000 		.4byte	.LFB8
 3709 0034 0C060000 		.4byte	.LFE8
 3710 0038 00000000 		.4byte	.LFB9
 3711 003c 50000000 		.4byte	.LFE9
 3712 0040 00000000 		.4byte	.LFB10
 3713 0044 50000000 		.4byte	.LFE10
 3714 0048 00000000 		.4byte	0
ARM GAS  C:\Users\Petro\AppData\Local\Temp\cctrdDFV.s 			page 80


 3715 004c 00000000 		.4byte	0
 3716              		.section	.debug_line,"",%progbits
 3717              	.Ldebug_line0:
 3718 0000 60040000 		.section	.debug_str,"MS",%progbits,1
 3718      02004801 
 3718      00000201 
 3718      FB0E0D00 
 3718      01010101 
 3719              	.LASF55:
 3720 0000 746D7044 		.ascii	"tmpDay\000"
 3720      617900
 3721              	.LASF18:
 3722 0007 75696E74 		.ascii	"uint16\000"
 3722      313600
 3723              	.LASF40:
 3724 000e 72657456 		.ascii	"retVal\000"
 3724      616C00
 3725              	.LASF58:
 3726 0015 746D7044 		.ascii	"tmpDate\000"
 3726      61746500 
 3727              	.LASF36:
 3728 001d 44533133 		.ascii	"DS1307_ReadTimeToStruct\000"
 3728      30375F52 
 3728      65616454 
 3728      696D6554 
 3728      6F537472 
 3729              	.LASF16:
 3730 0035 75696E74 		.ascii	"uint64_t\000"
 3730      36345F74 
 3730      00
 3731              	.LASF33:
 3732 003e 44533133 		.ascii	"DS1307_DATE_TIME\000"
 3732      30375F44 
 3732      4154455F 
 3732      54494D45 
 3732      00
 3733              	.LASF3:
 3734 004f 5F5F7569 		.ascii	"__uint8_t\000"
 3734      6E74385F 
 3734      7400
 3735              	.LASF52:
 3736 0059 746D704D 		.ascii	"tmpMinute\000"
 3736      696E7574 
 3736      6500
 3737              	.LASF11:
 3738 0063 6C6F6E67 		.ascii	"long long unsigned int\000"
 3738      206C6F6E 
 3738      6720756E 
 3738      7369676E 
 3738      65642069 
 3739              	.LASF30:
 3740 007a 64617465 		.ascii	"date\000"
 3740      00
 3741              	.LASF54:
 3742 007f 746D7041 		.ascii	"tmpAmPmState\000"
 3742      6D506D53 
 3742      74617465 
ARM GAS  C:\Users\Petro\AppData\Local\Temp\cctrdDFV.s 			page 81


 3742      00
 3743              	.LASF57:
 3744 008c 64617973 		.ascii	"daysInMonth\000"
 3744      496E4D6F 
 3744      6E746800 
 3745              	.LASF9:
 3746 0098 6C6F6E67 		.ascii	"long long int\000"
 3746      206C6F6E 
 3746      6720696E 
 3746      7400
 3747              	.LASF0:
 3748 00a6 7369676E 		.ascii	"signed char\000"
 3748      65642063 
 3748      68617200 
 3749              	.LASF25:
 3750 00b2 7365636F 		.ascii	"second\000"
 3750      6E6400
 3751              	.LASF32:
 3752 00b9 79656172 		.ascii	"year\000"
 3752      00
 3753              	.LASF6:
 3754 00be 6C6F6E67 		.ascii	"long int\000"
 3754      20696E74 
 3754      00
 3755              	.LASF65:
 3756 00c7 44533133 		.ascii	"DS1307_daysInMonthTbl\000"
 3756      30375F64 
 3756      61797349 
 3756      6E4D6F6E 
 3756      74685462 
 3757              	.LASF17:
 3758 00dd 75696E74 		.ascii	"uint8\000"
 3758      3800
 3759              	.LASF64:
 3760 00e3 44533133 		.ascii	"DS1307_daysBeforeMonthTbl1\000"
 3760      30375F64 
 3760      61797342 
 3760      65666F72 
 3760      654D6F6E 
 3761              	.LASF53:
 3762 00fe 746D7048 		.ascii	"tmpHour\000"
 3762      6F757200 
 3763              	.LASF14:
 3764 0106 75696E74 		.ascii	"uint16_t\000"
 3764      31365F74 
 3764      00
 3765              	.LASF21:
 3766 010f 646F7562 		.ascii	"double\000"
 3766      6C6500
 3767              	.LASF19:
 3768 0116 75696E74 		.ascii	"uint32\000"
 3768      333200
 3769              	.LASF47:
 3770 011d 746D704D 		.ascii	"tmpMonth\000"
 3770      6F6E7468 
 3770      00
 3771              	.LASF7:
ARM GAS  C:\Users\Petro\AppData\Local\Temp\cctrdDFV.s 			page 82


 3772 0126 5F5F7569 		.ascii	"__uint32_t\000"
 3772      6E743332 
 3772      5F7400
 3773              	.LASF41:
 3774 0131 44533133 		.ascii	"DS1307_ConstructDate\000"
 3774      30375F43 
 3774      6F6E7374 
 3774      72756374 
 3774      44617465 
 3775              	.LASF31:
 3776 0146 6D6F6E74 		.ascii	"month\000"
 3776      6800
 3777              	.LASF12:
 3778 014c 756E7369 		.ascii	"unsigned int\000"
 3778      676E6564 
 3778      20696E74 
 3778      00
 3779              	.LASF28:
 3780 0159 74696D65 		.ascii	"timeFormat\000"
 3780      466F726D 
 3780      617400
 3781              	.LASF60:
 3782 0164 6C656170 		.ascii	"leapYear\000"
 3782      59656172 
 3782      00
 3783              	.LASF8:
 3784 016d 6C6F6E67 		.ascii	"long unsigned int\000"
 3784      20756E73 
 3784      69676E65 
 3784      6420696E 
 3784      7400
 3785              	.LASF34:
 3786 017f 64617461 		.ascii	"data\000"
 3786      00
 3787              	.LASF5:
 3788 0184 73686F72 		.ascii	"short unsigned int\000"
 3788      7420756E 
 3788      7369676E 
 3788      65642069 
 3788      6E7400
 3789              	.LASF68:
 3790 0197 443A5C43 		.ascii	"D:\\Cypress\\system-start-finish\\vesion 2\\fw\\fin"
 3790      79707265 
 3790      73735C73 
 3790      79737465 
 3790      6D2D7374 
 3791 01c5 6973685C 		.ascii	"ish\\sandbox\\v3\\Finish(state machine)\\fin_v0.cyd"
 3791      73616E64 
 3791      626F785C 
 3791      76335C46 
 3791      696E6973 
 3792 01f4 736E00   		.ascii	"sn\000"
 3793              	.LASF62:
 3794 01f7 44533133 		.ascii	"DS1307_Start\000"
 3794      30375F53 
 3794      74617274 
 3794      00
ARM GAS  C:\Users\Petro\AppData\Local\Temp\cctrdDFV.s 			page 83


 3795              	.LASF61:
 3796 0204 44533133 		.ascii	"DS1307_SetUnixTime\000"
 3796      30375F53 
 3796      6574556E 
 3796      69785469 
 3796      6D6500
 3797              	.LASF59:
 3798 0217 6461794F 		.ascii	"dayOfWeek\000"
 3798      66576565 
 3798      6B00
 3799              	.LASF24:
 3800 0221 73697A65 		.ascii	"sizetype\000"
 3800      74797065 
 3800      00
 3801              	.LASF46:
 3802 022a 746D7059 		.ascii	"tmpYear\000"
 3802      65617200 
 3803              	.LASF67:
 3804 0232 2E5C6C69 		.ascii	".\\lib_DS1307\\DS1307.c\000"
 3804      625F4453 
 3804      31333037 
 3804      5C445331 
 3804      3330372E 
 3805              	.LASF51:
 3806 0248 74696D65 		.ascii	"time\000"
 3806      00
 3807              	.LASF39:
 3808 024d 686F7572 		.ascii	"hour\000"
 3808      00
 3809              	.LASF10:
 3810 0252 5F5F7569 		.ascii	"__uint64_t\000"
 3810      6E743634 
 3810      5F7400
 3811              	.LASF20:
 3812 025d 666C6F61 		.ascii	"float\000"
 3812      7400
 3813              	.LASF43:
 3814 0263 44533133 		.ascii	"DS1307_DateTimeToUnix\000"
 3814      30375F44 
 3814      61746554 
 3814      696D6554 
 3814      6F556E69 
 3815              	.LASF50:
 3816 0279 7365636F 		.ascii	"seconds\000"
 3816      6E647300 
 3817              	.LASF29:
 3818 0281 416D526D 		.ascii	"AmRm\000"
 3818      00
 3819              	.LASF26:
 3820 0286 6D696E75 		.ascii	"minutes\000"
 3820      74657300 
 3821              	.LASF38:
 3822 028e 73746174 		.ascii	"stateAmPm\000"
 3822      65416D50 
 3822      6D00
 3823              	.LASF1:
 3824 0298 756E7369 		.ascii	"unsigned char\000"
ARM GAS  C:\Users\Petro\AppData\Local\Temp\cctrdDFV.s 			page 84


 3824      676E6564 
 3824      20636861 
 3824      7200
 3825              	.LASF45:
 3826 02a6 696E7075 		.ascii	"inputTime\000"
 3826      7454696D 
 3826      6500
 3827              	.LASF22:
 3828 02b0 75696E74 		.ascii	"uint64\000"
 3828      363400
 3829              	.LASF2:
 3830 02b7 73686F72 		.ascii	"short int\000"
 3830      7420696E 
 3830      7400
 3831              	.LASF27:
 3832 02c1 686F7572 		.ascii	"hours\000"
 3832      7300
 3833              	.LASF69:
 3834 02c7 44533133 		.ascii	"DS1307_WriteTimeFromStruct\000"
 3834      30375F57 
 3834      72697465 
 3834      54696D65 
 3834      46726F6D 
 3835              	.LASF42:
 3836 02e2 746D7056 		.ascii	"tmpVal\000"
 3836      616C00
 3837              	.LASF15:
 3838 02e9 75696E74 		.ascii	"uint32_t\000"
 3838      33325F74 
 3838      00
 3839              	.LASF56:
 3840 02f2 746D7056 		.ascii	"tmpVar\000"
 3840      617200
 3841              	.LASF49:
 3842 02f9 67657444 		.ascii	"getDay\000"
 3842      617900
 3843              	.LASF23:
 3844 0300 63686172 		.ascii	"char\000"
 3844      00
 3845              	.LASF37:
 3846 0305 44533133 		.ascii	"DS1307_ConstructTime\000"
 3846      30375F43 
 3846      6F6E7374 
 3846      72756374 
 3846      54696D65 
 3847              	.LASF4:
 3848 031a 5F5F7569 		.ascii	"__uint16_t\000"
 3848      6E743136 
 3848      5F7400
 3849              	.LASF44:
 3850 0325 696E7075 		.ascii	"inputDate\000"
 3850      74446174 
 3850      6500
 3851              	.LASF48:
 3852 032f 756E6978 		.ascii	"unixTime\000"
 3852      54696D65 
 3852      00
ARM GAS  C:\Users\Petro\AppData\Local\Temp\cctrdDFV.s 			page 85


 3853              	.LASF70:
 3854 0338 44533133 		.ascii	"DS1307_GetUnixTime\000"
 3854      30375F47 
 3854      6574556E 
 3854      69785469 
 3854      6D6500
 3855              	.LASF63:
 3856 034b 44533133 		.ascii	"DS1307_Stop\000"
 3856      30375F53 
 3856      746F7000 
 3857              	.LASF35:
 3858 0357 73746174 		.ascii	"status\000"
 3858      757300
 3859              	.LASF13:
 3860 035e 75696E74 		.ascii	"uint8_t\000"
 3860      385F7400 
 3861              	.LASF66:
 3862 0366 474E5520 		.ascii	"GNU C 4.9.3 20150303 (release) [ARM/embedded-4_9-br"
 3862      4320342E 
 3862      392E3320 
 3862      32303135 
 3862      30333033 
 3863 0399 616E6368 		.ascii	"anch revision 221220] -mcpu=cortex-m0 -mthumb -g -O"
 3863      20726576 
 3863      6973696F 
 3863      6E203232 
 3863      31323230 
 3864 03cc 30202D66 		.ascii	"0 -ffunction-sections -ffat-lto-objects\000"
 3864      66756E63 
 3864      74696F6E 
 3864      2D736563 
 3864      74696F6E 
 3865              	.LASF71:
 3866 03f4 44533133 		.ascii	"DS1307_currentTimeDate\000"
 3866      30375F63 
 3866      75727265 
 3866      6E745469 
 3866      6D654461 
 3867              		.ident	"GCC: (GNU Tools for ARM Embedded Processors) 4.9.3 20150303 (release) [ARM/embedded-4_9-br
