ARM GAS  C:\DOCUME~1\Admin\LOCALS~1\Temp\cc9Su6J3.s 			page 1


   1              		.cpu cortex-m0
   2              		.fpu softvfp
   3              		.eabi_attribute 20, 1
   4              		.eabi_attribute 21, 1
   5              		.eabi_attribute 23, 3
   6              		.eabi_attribute 24, 1
   7              		.eabi_attribute 25, 1
   8              		.eabi_attribute 26, 1
   9              		.eabi_attribute 30, 6
  10              		.eabi_attribute 34, 0
  11              		.eabi_attribute 18, 4
  12              		.code	16
  13              		.file	"gate.c"
  14              		.text
  15              	.Ltext0:
  16              		.cfi_sections	.debug_frame
  17              		.bss
  18              		.align	1
  19              	minMs:
  20 0000 0000     		.space	2
  21              		.align	1
  22              	maxMs:
  23 0002 0000     		.space	2
  24              		.comm	tmpMs,2,2
  25              		.comm	fatFs,560,4
  26              		.comm	fileO,552,4
  27              		.comm	createFlag,4,4
  28 0004 00000000 		.align	3
  29              	savedUnixTime:
  30 0008 00000000 		.space	8
  30      00000000 
  31              		.align	2
  32              	savedRecentMs:
  33 0010 00000000 		.space	4
  34              		.align	2
  35              	gateOpen:
  36 0014 00000000 		.space	4
  37              		.section	.text.GATE_INTERRUPT,"ax",%progbits
  38              		.align	2
  39              		.global	GATE_INTERRUPT
  40              		.code	16
  41              		.thumb_func
  42              		.type	GATE_INTERRUPT, %function
  43              	GATE_INTERRUPT:
  44              	.LFB63:
  45              		.file 1 ".\\lib_Gate\\gate.c"
   1:.\lib_Gate/gate.c **** 
   2:.\lib_Gate/gate.c **** #include "lib_Gate\gate.h"
   3:.\lib_Gate/gate.c **** 
   4:.\lib_Gate/gate.c **** /*gate interrupt*/
   5:.\lib_Gate/gate.c **** CY_ISR(GATE_INTERRUPT)
   6:.\lib_Gate/gate.c **** {   
  46              		.loc 1 6 0
  47              		.cfi_startproc
  48 0000 98B5     		push	{r3, r4, r7, lr}
  49              		.cfi_def_cfa_offset 16
  50              		.cfi_offset 3, -16
ARM GAS  C:\DOCUME~1\Admin\LOCALS~1\Temp\cc9Su6J3.s 			page 2


  51              		.cfi_offset 4, -12
  52              		.cfi_offset 7, -8
  53              		.cfi_offset 14, -4
  54 0002 00AF     		add	r7, sp, #0
  55              		.cfi_def_cfa_register 7
   7:.\lib_Gate/gate.c ****     GATE_INT_Disable();
  56              		.loc 1 7 0
  57 0004 FFF7FEFF 		bl	GATE_INT_Disable
   8:.\lib_Gate/gate.c ****     
   9:.\lib_Gate/gate.c ****     gateOpen = GATE_OPEN;    
  58              		.loc 1 9 0
  59 0008 0A4B     		ldr	r3, .L2
  60 000a 0122     		mov	r2, #1
  61 000c 1A60     		str	r2, [r3]
  10:.\lib_Gate/gate.c **** 
  11:.\lib_Gate/gate.c ****     savedUnixTime = RTCGetUnixTime();
  62              		.loc 1 11 0
  63 000e FFF7FEFF 		bl	RTCGetUnixTime
  64 0012 031C     		mov	r3, r0
  65 0014 0C1C     		mov	r4, r1
  66 0016 084A     		ldr	r2, .L2+4
  67 0018 1360     		str	r3, [r2]
  68 001a 5460     		str	r4, [r2, #4]
  12:.\lib_Gate/gate.c ****     savedRecentMs = RTCgetRecentMs();
  69              		.loc 1 12 0
  70 001c FFF7FEFF 		bl	RTCgetRecentMs
  71 0020 021C     		mov	r2, r0
  72 0022 064B     		ldr	r3, .L2+8
  73 0024 1A60     		str	r2, [r3]
  13:.\lib_Gate/gate.c ****     
  14:.\lib_Gate/gate.c ****     GatePin_ClearInterrupt();
  74              		.loc 1 14 0
  75 0026 FFF7FEFF 		bl	GatePin_ClearInterrupt
  15:.\lib_Gate/gate.c ****     GATE_INT_ClearPending();   
  76              		.loc 1 15 0
  77 002a FFF7FEFF 		bl	GATE_INT_ClearPending
  16:.\lib_Gate/gate.c **** }
  78              		.loc 1 16 0
  79 002e BD46     		mov	sp, r7
  80              		@ sp needed
  81 0030 98BD     		pop	{r3, r4, r7, pc}
  82              	.L3:
  83 0032 C046     		.align	2
  84              	.L2:
  85 0034 14000000 		.word	gateOpen
  86 0038 08000000 		.word	savedUnixTime
  87 003c 10000000 		.word	savedRecentMs
  88              		.cfi_endproc
  89              	.LFE63:
  90              		.size	GATE_INTERRUPT, .-GATE_INTERRUPT
  91              		.section	.text.GateInit,"ax",%progbits
  92              		.align	2
  93              		.global	GateInit
  94              		.code	16
  95              		.thumb_func
  96              		.type	GateInit, %function
  97              	GateInit:
ARM GAS  C:\DOCUME~1\Admin\LOCALS~1\Temp\cc9Su6J3.s 			page 3


  98              	.LFB64:
  17:.\lib_Gate/gate.c **** 
  18:.\lib_Gate/gate.c **** /*******************************************************************************
  19:.\lib_Gate/gate.c **** * Function Name: GateInit
  20:.\lib_Gate/gate.c **** ********************************************************************************
  21:.\lib_Gate/gate.c **** *
  22:.\lib_Gate/gate.c **** * Summary:
  23:.\lib_Gate/gate.c **** *   inittilisation the gate pin
  24:.\lib_Gate/gate.c **** *   disable interrupt from gate
  25:.\lib_Gate/gate.c **** *
  26:.\lib_Gate/gate.c **** *******************************************************************************/
  27:.\lib_Gate/gate.c **** void GateInit(void)
  28:.\lib_Gate/gate.c **** {
  99              		.loc 1 28 0
 100              		.cfi_startproc
 101 0000 80B5     		push	{r7, lr}
 102              		.cfi_def_cfa_offset 8
 103              		.cfi_offset 7, -8
 104              		.cfi_offset 14, -4
 105 0002 00AF     		add	r7, sp, #0
 106              		.cfi_def_cfa_register 7
  29:.\lib_Gate/gate.c ****     GatePin_ClearInterrupt();
 107              		.loc 1 29 0
 108 0004 FFF7FEFF 		bl	GatePin_ClearInterrupt
  30:.\lib_Gate/gate.c ****     GATE_INT_ClearPending();
 109              		.loc 1 30 0
 110 0008 FFF7FEFF 		bl	GATE_INT_ClearPending
  31:.\lib_Gate/gate.c ****     GATE_INT_StartEx(GATE_INTERRUPT); 
 111              		.loc 1 31 0
 112 000c 054B     		ldr	r3, .L5
 113 000e 181C     		mov	r0, r3
 114 0010 FFF7FEFF 		bl	GATE_INT_StartEx
  32:.\lib_Gate/gate.c ****     GATE_INT_Disable();
 115              		.loc 1 32 0
 116 0014 FFF7FEFF 		bl	GATE_INT_Disable
  33:.\lib_Gate/gate.c ****     
  34:.\lib_Gate/gate.c ****     gateOpen = GATE_CLOSE;     
 117              		.loc 1 34 0
 118 0018 034B     		ldr	r3, .L5+4
 119 001a 0022     		mov	r2, #0
 120 001c 1A60     		str	r2, [r3]
  35:.\lib_Gate/gate.c **** }
 121              		.loc 1 35 0
 122 001e BD46     		mov	sp, r7
 123              		@ sp needed
 124 0020 80BD     		pop	{r7, pc}
 125              	.L6:
 126 0022 C046     		.align	2
 127              	.L5:
 128 0024 00000000 		.word	GATE_INTERRUPT
 129 0028 14000000 		.word	gateOpen
 130              		.cfi_endproc
 131              	.LFE64:
 132              		.size	GateInit, .-GateInit
 133              		.section	.text.GateIsOpen,"ax",%progbits
 134              		.align	2
 135              		.global	GateIsOpen
ARM GAS  C:\DOCUME~1\Admin\LOCALS~1\Temp\cc9Su6J3.s 			page 4


 136              		.code	16
 137              		.thumb_func
 138              		.type	GateIsOpen, %function
 139              	GateIsOpen:
 140              	.LFB65:
  36:.\lib_Gate/gate.c **** 
  37:.\lib_Gate/gate.c **** 
  38:.\lib_Gate/gate.c **** /*******************************************************************************
  39:.\lib_Gate/gate.c **** * Function Name: GateOpen
  40:.\lib_Gate/gate.c **** ********************************************************************************
  41:.\lib_Gate/gate.c **** *
  42:.\lib_Gate/gate.c **** * Summary:
  43:.\lib_Gate/gate.c **** *  verification or gate closed
  44:.\lib_Gate/gate.c **** *
  45:.\lib_Gate/gate.c **** * Return:
  46:.\lib_Gate/gate.c **** *  GATE_CLOSE or GATE_OPEN
  47:.\lib_Gate/gate.c **** *******************************************************************************/
  48:.\lib_Gate/gate.c **** uint32_t GateIsOpen(void)
  49:.\lib_Gate/gate.c **** {   
 141              		.loc 1 49 0
 142              		.cfi_startproc
 143 0000 80B5     		push	{r7, lr}
 144              		.cfi_def_cfa_offset 8
 145              		.cfi_offset 7, -8
 146              		.cfi_offset 14, -4
 147 0002 82B0     		sub	sp, sp, #8
 148              		.cfi_def_cfa_offset 16
 149 0004 00AF     		add	r7, sp, #0
 150              		.cfi_def_cfa_register 7
  50:.\lib_Gate/gate.c ****     uint32_t result;
  51:.\lib_Gate/gate.c ****     
  52:.\lib_Gate/gate.c ****     result = gateOpen;
 151              		.loc 1 52 0
 152 0006 054B     		ldr	r3, .L9
 153 0008 1B68     		ldr	r3, [r3]
 154 000a 7B60     		str	r3, [r7, #4]
  53:.\lib_Gate/gate.c ****     gateOpen = GATE_CLOSE;
 155              		.loc 1 53 0
 156 000c 034B     		ldr	r3, .L9
 157 000e 0022     		mov	r2, #0
 158 0010 1A60     		str	r2, [r3]
  54:.\lib_Gate/gate.c ****     
  55:.\lib_Gate/gate.c ****     return result;
 159              		.loc 1 55 0
 160 0012 7B68     		ldr	r3, [r7, #4]
  56:.\lib_Gate/gate.c **** }
 161              		.loc 1 56 0
 162 0014 181C     		mov	r0, r3
 163 0016 BD46     		mov	sp, r7
 164 0018 02B0     		add	sp, sp, #8
 165              		@ sp needed
 166 001a 80BD     		pop	{r7, pc}
 167              	.L10:
 168              		.align	2
 169              	.L9:
 170 001c 14000000 		.word	gateOpen
 171              		.cfi_endproc
ARM GAS  C:\DOCUME~1\Admin\LOCALS~1\Temp\cc9Su6J3.s 			page 5


 172              	.LFE65:
 173              		.size	GateIsOpen, .-GateIsOpen
 174              		.section	.text.AllowNextSkier,"ax",%progbits
 175              		.align	2
 176              		.global	AllowNextSkier
 177              		.code	16
 178              		.thumb_func
 179              		.type	AllowNextSkier, %function
 180              	AllowNextSkier:
 181              	.LFB66:
  57:.\lib_Gate/gate.c **** 
  58:.\lib_Gate/gate.c **** 
  59:.\lib_Gate/gate.c **** /*******************************************************************************
  60:.\lib_Gate/gate.c **** * Function Name: AllowNextSkier
  61:.\lib_Gate/gate.c **** ********************************************************************************
  62:.\lib_Gate/gate.c **** *
  63:.\lib_Gate/gate.c **** * Summary:
  64:.\lib_Gate/gate.c **** *   allow the new skier on way(enable gate interrupt)
  65:.\lib_Gate/gate.c **** *
  66:.\lib_Gate/gate.c **** *******************************************************************************/
  67:.\lib_Gate/gate.c **** void AllowNextSkier(void)
  68:.\lib_Gate/gate.c **** {
 182              		.loc 1 68 0
 183              		.cfi_startproc
 184 0000 80B5     		push	{r7, lr}
 185              		.cfi_def_cfa_offset 8
 186              		.cfi_offset 7, -8
 187              		.cfi_offset 14, -4
 188 0002 00AF     		add	r7, sp, #0
 189              		.cfi_def_cfa_register 7
  69:.\lib_Gate/gate.c ****     GatePin_ClearInterrupt();
 190              		.loc 1 69 0
 191 0004 FFF7FEFF 		bl	GatePin_ClearInterrupt
  70:.\lib_Gate/gate.c ****     GATE_INT_ClearPending();
 192              		.loc 1 70 0
 193 0008 FFF7FEFF 		bl	GATE_INT_ClearPending
  71:.\lib_Gate/gate.c ****     GATE_INT_Enable();
 194              		.loc 1 71 0
 195 000c FFF7FEFF 		bl	GATE_INT_Enable
  72:.\lib_Gate/gate.c **** }
 196              		.loc 1 72 0
 197 0010 BD46     		mov	sp, r7
 198              		@ sp needed
 199 0012 80BD     		pop	{r7, pc}
 200              		.cfi_endproc
 201              	.LFE66:
 202              		.size	AllowNextSkier, .-AllowNextSkier
 203              		.section	.text.GetFinTime,"ax",%progbits
 204              		.align	2
 205              		.global	GetFinTime
 206              		.code	16
 207              		.thumb_func
 208              		.type	GetFinTime, %function
 209              	GetFinTime:
 210              	.LFB67:
  73:.\lib_Gate/gate.c **** 
  74:.\lib_Gate/gate.c **** 
ARM GAS  C:\DOCUME~1\Admin\LOCALS~1\Temp\cc9Su6J3.s 			page 6


  75:.\lib_Gate/gate.c **** /*******************************************************************************
  76:.\lib_Gate/gate.c **** * Function Name: GetFinTime
  77:.\lib_Gate/gate.c **** ********************************************************************************
  78:.\lib_Gate/gate.c **** *
  79:.\lib_Gate/gate.c **** * Summary:
  80:.\lib_Gate/gate.c **** *   reading recorded in the interruption time finish skier
  81:.\lib_Gate/gate.c **** * Parametrs:
  82:.\lib_Gate/gate.c **** *   *unixTime - pointer from unix time skier
  83:.\lib_Gate/gate.c **** *   *recentMs - pointer from miliseconds time
  84:.\lib_Gate/gate.c **** *
  85:.\lib_Gate/gate.c **** *******************************************************************************/
  86:.\lib_Gate/gate.c **** void GetFinTime(uint64_t *unixTime,  uint32_t *recentMs)
  87:.\lib_Gate/gate.c **** {
 211              		.loc 1 87 0
 212              		.cfi_startproc
 213 0000 90B5     		push	{r4, r7, lr}
 214              		.cfi_def_cfa_offset 12
 215              		.cfi_offset 4, -12
 216              		.cfi_offset 7, -8
 217              		.cfi_offset 14, -4
 218 0002 83B0     		sub	sp, sp, #12
 219              		.cfi_def_cfa_offset 24
 220 0004 00AF     		add	r7, sp, #0
 221              		.cfi_def_cfa_register 7
 222 0006 7860     		str	r0, [r7, #4]
 223 0008 3960     		str	r1, [r7]
  88:.\lib_Gate/gate.c ****     *unixTime = savedUnixTime;
 224              		.loc 1 88 0
 225 000a 064B     		ldr	r3, .L13
 226 000c 5C68     		ldr	r4, [r3, #4]
 227 000e 1B68     		ldr	r3, [r3]
 228 0010 7A68     		ldr	r2, [r7, #4]
 229 0012 1360     		str	r3, [r2]
 230 0014 5460     		str	r4, [r2, #4]
  89:.\lib_Gate/gate.c ****     *recentMs = savedRecentMs;
 231              		.loc 1 89 0
 232 0016 044B     		ldr	r3, .L13+4
 233 0018 1A68     		ldr	r2, [r3]
 234 001a 3B68     		ldr	r3, [r7]
 235 001c 1A60     		str	r2, [r3]
  90:.\lib_Gate/gate.c **** }
 236              		.loc 1 90 0
 237 001e BD46     		mov	sp, r7
 238 0020 03B0     		add	sp, sp, #12
 239              		@ sp needed
 240 0022 90BD     		pop	{r4, r7, pc}
 241              	.L14:
 242              		.align	2
 243              	.L13:
 244 0024 08000000 		.word	savedUnixTime
 245 0028 10000000 		.word	savedRecentMs
 246              		.cfi_endproc
 247              	.LFE67:
 248              		.size	GetFinTime, .-GetFinTime
 249              		.text
 250              	.Letext0:
 251              		.file 2 "c:\\program files\\cypress\\psoc creator\\3.3\\psoc creator\\import\\gnu\\arm\\4.9.3\\arm
ARM GAS  C:\DOCUME~1\Admin\LOCALS~1\Temp\cc9Su6J3.s 			page 7


 252              		.file 3 "c:\\program files\\cypress\\psoc creator\\3.3\\psoc creator\\import\\gnu\\arm\\4.9.3\\arm
 253              		.file 4 "./lib_Fat\\integer.h"
 254              		.file 5 "./lib_Fat\\ff.h"
 255              		.file 6 "./debug.h"
 256              		.file 7 "./lib_Gate\\gate.h"
 257              		.file 8 "./lib_DB\\logResult.h"