ARM GAS  C:\Users\Petro\AppData\Local\Temp\ccJGdIZw.s 			page 1


   1              		.cpu cortex-m0
   2              		.fpu softvfp
   3              		.eabi_attribute 20, 1
   4              		.eabi_attribute 21, 1
   5              		.eabi_attribute 23, 3
   6              		.eabi_attribute 24, 1
   7              		.eabi_attribute 25, 1
   8              		.eabi_attribute 26, 1
   9              		.eabi_attribute 30, 6
  10              		.eabi_attribute 34, 0
  11              		.eabi_attribute 18, 4
  12              		.code	16
  13              		.file	"I2C_I2C.c"
  14              		.text
  15              	.Ltext0:
  16              		.cfi_sections	.debug_frame
  17              		.comm	I2C_state,1,1
  18              		.section	.text.I2C_I2CInit,"ax",%progbits
  19              		.align	2
  20              		.global	I2C_I2CInit
  21              		.code	16
  22              		.thumb_func
  23              		.type	I2C_I2CInit, %function
  24              	I2C_I2CInit:
  25              	.LFB2:
  26              		.file 1 ".\\Generated_Source\\PSoC4\\I2C_I2C.c"
   1:.\Generated_Source\PSoC4/I2C_I2C.c **** /***************************************************************************//**
   2:.\Generated_Source\PSoC4/I2C_I2C.c **** * \file I2C_I2C.c
   3:.\Generated_Source\PSoC4/I2C_I2C.c **** * \version 3.20
   4:.\Generated_Source\PSoC4/I2C_I2C.c **** *
   5:.\Generated_Source\PSoC4/I2C_I2C.c **** * \brief
   6:.\Generated_Source\PSoC4/I2C_I2C.c **** *  This file provides the source code to the API for the SCB Component in
   7:.\Generated_Source\PSoC4/I2C_I2C.c **** *  I2C mode.
   8:.\Generated_Source\PSoC4/I2C_I2C.c **** *
   9:.\Generated_Source\PSoC4/I2C_I2C.c **** * Note:
  10:.\Generated_Source\PSoC4/I2C_I2C.c **** *
  11:.\Generated_Source\PSoC4/I2C_I2C.c **** *******************************************************************************
  12:.\Generated_Source\PSoC4/I2C_I2C.c **** * \copyright
  13:.\Generated_Source\PSoC4/I2C_I2C.c **** * Copyright 2013-2016, Cypress Semiconductor Corporation.  All rights reserved.
  14:.\Generated_Source\PSoC4/I2C_I2C.c **** * You may use this file only in accordance with the license, terms, conditions,
  15:.\Generated_Source\PSoC4/I2C_I2C.c **** * disclaimers, and limitations in the end user license agreement accompanying
  16:.\Generated_Source\PSoC4/I2C_I2C.c **** * the software package with which this file was provided.
  17:.\Generated_Source\PSoC4/I2C_I2C.c **** *******************************************************************************/
  18:.\Generated_Source\PSoC4/I2C_I2C.c **** 
  19:.\Generated_Source\PSoC4/I2C_I2C.c **** #include "I2C_PVT.h"
  20:.\Generated_Source\PSoC4/I2C_I2C.c **** #include "I2C_I2C_PVT.h"
  21:.\Generated_Source\PSoC4/I2C_I2C.c **** 
  22:.\Generated_Source\PSoC4/I2C_I2C.c **** 
  23:.\Generated_Source\PSoC4/I2C_I2C.c **** /***************************************
  24:.\Generated_Source\PSoC4/I2C_I2C.c **** *      I2C Private Vars
  25:.\Generated_Source\PSoC4/I2C_I2C.c **** ***************************************/
  26:.\Generated_Source\PSoC4/I2C_I2C.c **** 
  27:.\Generated_Source\PSoC4/I2C_I2C.c **** volatile uint8 I2C_state;  /* Current state of I2C FSM */
  28:.\Generated_Source\PSoC4/I2C_I2C.c **** 
  29:.\Generated_Source\PSoC4/I2C_I2C.c **** #if(I2C_SCB_MODE_UNCONFIG_CONST_CFG)
  30:.\Generated_Source\PSoC4/I2C_I2C.c **** 
  31:.\Generated_Source\PSoC4/I2C_I2C.c ****     /***************************************
ARM GAS  C:\Users\Petro\AppData\Local\Temp\ccJGdIZw.s 			page 2


  32:.\Generated_Source\PSoC4/I2C_I2C.c ****     *  Configuration Structure Initialization
  33:.\Generated_Source\PSoC4/I2C_I2C.c ****     ***************************************/
  34:.\Generated_Source\PSoC4/I2C_I2C.c **** 
  35:.\Generated_Source\PSoC4/I2C_I2C.c ****     /* Constant configuration of I2C */
  36:.\Generated_Source\PSoC4/I2C_I2C.c ****     const I2C_I2C_INIT_STRUCT I2C_configI2C =
  37:.\Generated_Source\PSoC4/I2C_I2C.c ****     {
  38:.\Generated_Source\PSoC4/I2C_I2C.c ****         I2C_I2C_MODE,
  39:.\Generated_Source\PSoC4/I2C_I2C.c ****         I2C_I2C_OVS_FACTOR_LOW,
  40:.\Generated_Source\PSoC4/I2C_I2C.c ****         I2C_I2C_OVS_FACTOR_HIGH,
  41:.\Generated_Source\PSoC4/I2C_I2C.c ****         I2C_I2C_MEDIAN_FILTER_ENABLE,
  42:.\Generated_Source\PSoC4/I2C_I2C.c ****         I2C_I2C_SLAVE_ADDRESS,
  43:.\Generated_Source\PSoC4/I2C_I2C.c ****         I2C_I2C_SLAVE_ADDRESS_MASK,
  44:.\Generated_Source\PSoC4/I2C_I2C.c ****         I2C_I2C_ACCEPT_ADDRESS,
  45:.\Generated_Source\PSoC4/I2C_I2C.c ****         I2C_I2C_WAKE_ENABLE,
  46:.\Generated_Source\PSoC4/I2C_I2C.c ****         I2C_I2C_BYTE_MODE_ENABLE,
  47:.\Generated_Source\PSoC4/I2C_I2C.c ****         I2C_I2C_DATA_RATE,
  48:.\Generated_Source\PSoC4/I2C_I2C.c ****         I2C_I2C_ACCEPT_GENERAL_CALL,
  49:.\Generated_Source\PSoC4/I2C_I2C.c ****     };
  50:.\Generated_Source\PSoC4/I2C_I2C.c **** 
  51:.\Generated_Source\PSoC4/I2C_I2C.c ****     /*******************************************************************************
  52:.\Generated_Source\PSoC4/I2C_I2C.c ****     * Function Name: I2C_I2CInit
  53:.\Generated_Source\PSoC4/I2C_I2C.c ****     ****************************************************************************//**
  54:.\Generated_Source\PSoC4/I2C_I2C.c ****     *
  55:.\Generated_Source\PSoC4/I2C_I2C.c ****     *
  56:.\Generated_Source\PSoC4/I2C_I2C.c ****     *  Configures the I2C for I2C operation.
  57:.\Generated_Source\PSoC4/I2C_I2C.c ****     *
  58:.\Generated_Source\PSoC4/I2C_I2C.c ****     *  This function is intended specifically to be used when the I2C 
  59:.\Generated_Source\PSoC4/I2C_I2C.c ****     *  configuration is set to “Unconfigured I2C” in the customizer. 
  60:.\Generated_Source\PSoC4/I2C_I2C.c ****     *  After initializing the I2C in I2C mode using this function, 
  61:.\Generated_Source\PSoC4/I2C_I2C.c ****     *  the component can be enabled using the I2C_Start() or 
  62:.\Generated_Source\PSoC4/I2C_I2C.c ****     * I2C_Enable() function.
  63:.\Generated_Source\PSoC4/I2C_I2C.c ****     *  This function uses a pointer to a structure that provides the configuration 
  64:.\Generated_Source\PSoC4/I2C_I2C.c ****     *  settings. This structure contains the same information that would otherwise 
  65:.\Generated_Source\PSoC4/I2C_I2C.c ****     *  be provided by the customizer settings.
  66:.\Generated_Source\PSoC4/I2C_I2C.c ****     *
  67:.\Generated_Source\PSoC4/I2C_I2C.c ****     *  \param config: pointer to a structure that contains the following list of 
  68:.\Generated_Source\PSoC4/I2C_I2C.c ****     *   fields. These fields match the selections available in the customizer. 
  69:.\Generated_Source\PSoC4/I2C_I2C.c ****     *   Refer to the customizer for further description of the settings.
  70:.\Generated_Source\PSoC4/I2C_I2C.c ****     *
  71:.\Generated_Source\PSoC4/I2C_I2C.c ****     *******************************************************************************/
  72:.\Generated_Source\PSoC4/I2C_I2C.c ****     void I2C_I2CInit(const I2C_I2C_INIT_STRUCT *config)
  73:.\Generated_Source\PSoC4/I2C_I2C.c ****     {
  74:.\Generated_Source\PSoC4/I2C_I2C.c ****         uint32 medianFilter;
  75:.\Generated_Source\PSoC4/I2C_I2C.c ****         uint32 locEnableWake;
  76:.\Generated_Source\PSoC4/I2C_I2C.c **** 
  77:.\Generated_Source\PSoC4/I2C_I2C.c ****         if(NULL == config)
  78:.\Generated_Source\PSoC4/I2C_I2C.c ****         {
  79:.\Generated_Source\PSoC4/I2C_I2C.c ****             CYASSERT(0u != 0u); /* Halt execution due to bad function parameter */
  80:.\Generated_Source\PSoC4/I2C_I2C.c ****         }
  81:.\Generated_Source\PSoC4/I2C_I2C.c ****         else
  82:.\Generated_Source\PSoC4/I2C_I2C.c ****         {
  83:.\Generated_Source\PSoC4/I2C_I2C.c ****             /* Configure pins */
  84:.\Generated_Source\PSoC4/I2C_I2C.c ****             I2C_SetPins(I2C_SCB_MODE_I2C, I2C_DUMMY_PARAM,
  85:.\Generated_Source\PSoC4/I2C_I2C.c ****                                      I2C_DUMMY_PARAM);
  86:.\Generated_Source\PSoC4/I2C_I2C.c **** 
  87:.\Generated_Source\PSoC4/I2C_I2C.c ****             /* Store internal configuration */
  88:.\Generated_Source\PSoC4/I2C_I2C.c ****             I2C_scbMode       = (uint8) I2C_SCB_MODE_I2C;
ARM GAS  C:\Users\Petro\AppData\Local\Temp\ccJGdIZw.s 			page 3


  89:.\Generated_Source\PSoC4/I2C_I2C.c ****             I2C_scbEnableWake = (uint8) config->enableWake;
  90:.\Generated_Source\PSoC4/I2C_I2C.c ****             I2C_scbEnableIntr = (uint8) I2C_SCB_IRQ_INTERNAL;
  91:.\Generated_Source\PSoC4/I2C_I2C.c **** 
  92:.\Generated_Source\PSoC4/I2C_I2C.c ****             I2C_mode          = (uint8) config->mode;
  93:.\Generated_Source\PSoC4/I2C_I2C.c ****             I2C_acceptAddr    = (uint8) config->acceptAddr;
  94:.\Generated_Source\PSoC4/I2C_I2C.c **** 
  95:.\Generated_Source\PSoC4/I2C_I2C.c ****         #if (I2C_CY_SCBIP_V0)
  96:.\Generated_Source\PSoC4/I2C_I2C.c ****             /* Adjust SDA filter settings. Ticket ID#150521 */
  97:.\Generated_Source\PSoC4/I2C_I2C.c ****             I2C_SET_I2C_CFG_SDA_FILT_TRIM(I2C_EC_AM_I2C_CFG_SDA_FILT_TRIM);
  98:.\Generated_Source\PSoC4/I2C_I2C.c ****         #endif /* (I2C_CY_SCBIP_V0) */
  99:.\Generated_Source\PSoC4/I2C_I2C.c **** 
 100:.\Generated_Source\PSoC4/I2C_I2C.c ****             /* Adjust AF and DF filter settings. Ticket ID#176179 */
 101:.\Generated_Source\PSoC4/I2C_I2C.c ****             if (((I2C_I2C_MODE_SLAVE != config->mode) &&
 102:.\Generated_Source\PSoC4/I2C_I2C.c ****                  (config->dataRate <= I2C_I2C_DATA_RATE_FS_MODE_MAX)) ||
 103:.\Generated_Source\PSoC4/I2C_I2C.c ****                  (I2C_I2C_MODE_SLAVE == config->mode))
 104:.\Generated_Source\PSoC4/I2C_I2C.c ****             {
 105:.\Generated_Source\PSoC4/I2C_I2C.c ****                 /* AF = 1, DF = 0 */
 106:.\Generated_Source\PSoC4/I2C_I2C.c ****                 I2C_I2C_CFG_ANALOG_FITER_ENABLE;
 107:.\Generated_Source\PSoC4/I2C_I2C.c ****                 medianFilter = I2C_DIGITAL_FILTER_DISABLE;
 108:.\Generated_Source\PSoC4/I2C_I2C.c ****             }
 109:.\Generated_Source\PSoC4/I2C_I2C.c ****             else
 110:.\Generated_Source\PSoC4/I2C_I2C.c ****             {
 111:.\Generated_Source\PSoC4/I2C_I2C.c ****                 /* AF = 0, DF = 1 */
 112:.\Generated_Source\PSoC4/I2C_I2C.c ****                 I2C_I2C_CFG_ANALOG_FITER_DISABLE;
 113:.\Generated_Source\PSoC4/I2C_I2C.c ****                 medianFilter = I2C_DIGITAL_FILTER_ENABLE;
 114:.\Generated_Source\PSoC4/I2C_I2C.c ****             }
 115:.\Generated_Source\PSoC4/I2C_I2C.c **** 
 116:.\Generated_Source\PSoC4/I2C_I2C.c ****         #if (!I2C_CY_SCBIP_V0)
 117:.\Generated_Source\PSoC4/I2C_I2C.c ****             locEnableWake = (I2C_I2C_MULTI_MASTER_SLAVE) ? (0u) : (config->enableWake);
 118:.\Generated_Source\PSoC4/I2C_I2C.c ****         #else
 119:.\Generated_Source\PSoC4/I2C_I2C.c ****             locEnableWake = config->enableWake;
 120:.\Generated_Source\PSoC4/I2C_I2C.c ****         #endif /* (!I2C_CY_SCBIP_V0) */
 121:.\Generated_Source\PSoC4/I2C_I2C.c **** 
 122:.\Generated_Source\PSoC4/I2C_I2C.c ****             /* Configure I2C interface */
 123:.\Generated_Source\PSoC4/I2C_I2C.c ****             I2C_CTRL_REG     = I2C_GET_CTRL_BYTE_MODE  (config->enableByteMode) |
 124:.\Generated_Source\PSoC4/I2C_I2C.c ****                                             I2C_GET_CTRL_ADDR_ACCEPT(config->acceptAddr)     |
 125:.\Generated_Source\PSoC4/I2C_I2C.c ****                                             I2C_GET_CTRL_EC_AM_MODE (locEnableWake);
 126:.\Generated_Source\PSoC4/I2C_I2C.c **** 
 127:.\Generated_Source\PSoC4/I2C_I2C.c ****             I2C_I2C_CTRL_REG = I2C_GET_I2C_CTRL_HIGH_PHASE_OVS(config->oversampleHigh) |
 128:.\Generated_Source\PSoC4/I2C_I2C.c ****                     I2C_GET_I2C_CTRL_LOW_PHASE_OVS (config->oversampleLow)                         
 129:.\Generated_Source\PSoC4/I2C_I2C.c ****                     I2C_GET_I2C_CTRL_S_GENERAL_IGNORE((uint32)(0u == config->acceptGeneralAddr))   
 130:.\Generated_Source\PSoC4/I2C_I2C.c ****                     I2C_GET_I2C_CTRL_SL_MSTR_MODE  (config->mode);
 131:.\Generated_Source\PSoC4/I2C_I2C.c **** 
 132:.\Generated_Source\PSoC4/I2C_I2C.c ****             /* Configure RX direction */
 133:.\Generated_Source\PSoC4/I2C_I2C.c ****             I2C_RX_CTRL_REG      = I2C_GET_RX_CTRL_MEDIAN(medianFilter) |
 134:.\Generated_Source\PSoC4/I2C_I2C.c ****                                                 I2C_I2C_RX_CTRL;
 135:.\Generated_Source\PSoC4/I2C_I2C.c ****             I2C_RX_FIFO_CTRL_REG = I2C_CLEAR_REG;
 136:.\Generated_Source\PSoC4/I2C_I2C.c **** 
 137:.\Generated_Source\PSoC4/I2C_I2C.c ****             /* Set default address and mask */
 138:.\Generated_Source\PSoC4/I2C_I2C.c ****             I2C_RX_MATCH_REG    = ((I2C_I2C_SLAVE) ?
 139:.\Generated_Source\PSoC4/I2C_I2C.c ****                                                 (I2C_GET_I2C_8BIT_ADDRESS(config->slaveAddr) |
 140:.\Generated_Source\PSoC4/I2C_I2C.c ****                                                  I2C_GET_RX_MATCH_MASK(config->slaveAddrMask)) :
 141:.\Generated_Source\PSoC4/I2C_I2C.c ****                                                 (I2C_CLEAR_REG));
 142:.\Generated_Source\PSoC4/I2C_I2C.c **** 
 143:.\Generated_Source\PSoC4/I2C_I2C.c **** 
 144:.\Generated_Source\PSoC4/I2C_I2C.c ****             /* Configure TX direction */
 145:.\Generated_Source\PSoC4/I2C_I2C.c ****             I2C_TX_CTRL_REG      = I2C_I2C_TX_CTRL;
ARM GAS  C:\Users\Petro\AppData\Local\Temp\ccJGdIZw.s 			page 4


 146:.\Generated_Source\PSoC4/I2C_I2C.c ****             I2C_TX_FIFO_CTRL_REG = I2C_CLEAR_REG;
 147:.\Generated_Source\PSoC4/I2C_I2C.c **** 
 148:.\Generated_Source\PSoC4/I2C_I2C.c ****             /* Configure interrupt with I2C handler but do not enable it */
 149:.\Generated_Source\PSoC4/I2C_I2C.c ****             CyIntDisable    (I2C_ISR_NUMBER);
 150:.\Generated_Source\PSoC4/I2C_I2C.c ****             CyIntSetPriority(I2C_ISR_NUMBER, I2C_ISR_PRIORITY);
 151:.\Generated_Source\PSoC4/I2C_I2C.c ****             (void) CyIntSetVector(I2C_ISR_NUMBER, &I2C_I2C_ISR);
 152:.\Generated_Source\PSoC4/I2C_I2C.c **** 
 153:.\Generated_Source\PSoC4/I2C_I2C.c ****             /* Configure interrupt sources */
 154:.\Generated_Source\PSoC4/I2C_I2C.c ****         #if(!I2C_CY_SCBIP_V1)
 155:.\Generated_Source\PSoC4/I2C_I2C.c ****             I2C_INTR_SPI_EC_MASK_REG = I2C_NO_INTR_SOURCES;
 156:.\Generated_Source\PSoC4/I2C_I2C.c ****         #endif /* (!I2C_CY_SCBIP_V1) */
 157:.\Generated_Source\PSoC4/I2C_I2C.c **** 
 158:.\Generated_Source\PSoC4/I2C_I2C.c ****             I2C_INTR_I2C_EC_MASK_REG = I2C_NO_INTR_SOURCES;
 159:.\Generated_Source\PSoC4/I2C_I2C.c ****             I2C_INTR_RX_MASK_REG     = I2C_NO_INTR_SOURCES;
 160:.\Generated_Source\PSoC4/I2C_I2C.c ****             I2C_INTR_TX_MASK_REG     = I2C_NO_INTR_SOURCES;
 161:.\Generated_Source\PSoC4/I2C_I2C.c **** 
 162:.\Generated_Source\PSoC4/I2C_I2C.c ****             I2C_INTR_SLAVE_MASK_REG  = ((I2C_I2C_SLAVE) ?
 163:.\Generated_Source\PSoC4/I2C_I2C.c ****                             (I2C_GET_INTR_SLAVE_I2C_GENERAL(config->acceptGeneralAddr) |
 164:.\Generated_Source\PSoC4/I2C_I2C.c ****                              I2C_I2C_INTR_SLAVE_MASK) : (I2C_CLEAR_REG));
 165:.\Generated_Source\PSoC4/I2C_I2C.c **** 
 166:.\Generated_Source\PSoC4/I2C_I2C.c ****             I2C_INTR_MASTER_MASK_REG = ((I2C_I2C_MASTER) ?
 167:.\Generated_Source\PSoC4/I2C_I2C.c ****                                                      (I2C_I2C_INTR_MASTER_MASK) :
 168:.\Generated_Source\PSoC4/I2C_I2C.c ****                                                      (I2C_CLEAR_REG));
 169:.\Generated_Source\PSoC4/I2C_I2C.c **** 
 170:.\Generated_Source\PSoC4/I2C_I2C.c ****             /* Configure global variables */
 171:.\Generated_Source\PSoC4/I2C_I2C.c ****             I2C_state = I2C_I2C_FSM_IDLE;
 172:.\Generated_Source\PSoC4/I2C_I2C.c **** 
 173:.\Generated_Source\PSoC4/I2C_I2C.c ****             /* Internal slave variables */
 174:.\Generated_Source\PSoC4/I2C_I2C.c ****             I2C_slStatus        = 0u;
 175:.\Generated_Source\PSoC4/I2C_I2C.c ****             I2C_slRdBufIndex    = 0u;
 176:.\Generated_Source\PSoC4/I2C_I2C.c ****             I2C_slWrBufIndex    = 0u;
 177:.\Generated_Source\PSoC4/I2C_I2C.c ****             I2C_slOverFlowCount = 0u;
 178:.\Generated_Source\PSoC4/I2C_I2C.c **** 
 179:.\Generated_Source\PSoC4/I2C_I2C.c ****             /* Internal master variables */
 180:.\Generated_Source\PSoC4/I2C_I2C.c ****             I2C_mstrStatus     = 0u;
 181:.\Generated_Source\PSoC4/I2C_I2C.c ****             I2C_mstrRdBufIndex = 0u;
 182:.\Generated_Source\PSoC4/I2C_I2C.c ****             I2C_mstrWrBufIndex = 0u;
 183:.\Generated_Source\PSoC4/I2C_I2C.c ****         }
 184:.\Generated_Source\PSoC4/I2C_I2C.c ****     }
 185:.\Generated_Source\PSoC4/I2C_I2C.c **** 
 186:.\Generated_Source\PSoC4/I2C_I2C.c **** #else
 187:.\Generated_Source\PSoC4/I2C_I2C.c **** 
 188:.\Generated_Source\PSoC4/I2C_I2C.c ****     /*******************************************************************************
 189:.\Generated_Source\PSoC4/I2C_I2C.c ****     * Function Name: I2C_I2CInit
 190:.\Generated_Source\PSoC4/I2C_I2C.c ****     ****************************************************************************//**
 191:.\Generated_Source\PSoC4/I2C_I2C.c ****     *
 192:.\Generated_Source\PSoC4/I2C_I2C.c ****     *  Configures the SCB for the I2C operation.
 193:.\Generated_Source\PSoC4/I2C_I2C.c ****     *
 194:.\Generated_Source\PSoC4/I2C_I2C.c ****     *******************************************************************************/
 195:.\Generated_Source\PSoC4/I2C_I2C.c ****     void I2C_I2CInit(void)
 196:.\Generated_Source\PSoC4/I2C_I2C.c ****     {
  27              		.loc 1 196 0
  28              		.cfi_startproc
  29 0000 80B5     		push	{r7, lr}
  30              		.cfi_def_cfa_offset 8
  31              		.cfi_offset 7, -8
  32              		.cfi_offset 14, -4
ARM GAS  C:\Users\Petro\AppData\Local\Temp\ccJGdIZw.s 			page 5


  33 0002 00AF     		add	r7, sp, #0
  34              		.cfi_def_cfa_register 7
 197:.\Generated_Source\PSoC4/I2C_I2C.c ****     #if(I2C_CY_SCBIP_V0)
 198:.\Generated_Source\PSoC4/I2C_I2C.c ****         /* Adjust SDA filter settings. Ticket ID#150521 */
 199:.\Generated_Source\PSoC4/I2C_I2C.c ****         I2C_SET_I2C_CFG_SDA_FILT_TRIM(I2C_EC_AM_I2C_CFG_SDA_FILT_TRIM);
 200:.\Generated_Source\PSoC4/I2C_I2C.c ****     #endif /* (I2C_CY_SCBIP_V0) */
 201:.\Generated_Source\PSoC4/I2C_I2C.c **** 
 202:.\Generated_Source\PSoC4/I2C_I2C.c ****         /* Adjust AF and DF filter settings. Ticket ID#176179 */
 203:.\Generated_Source\PSoC4/I2C_I2C.c ****         I2C_I2C_CFG_ANALOG_FITER_ENABLE_ADJ;
 204:.\Generated_Source\PSoC4/I2C_I2C.c **** 
 205:.\Generated_Source\PSoC4/I2C_I2C.c ****         /* Configure I2C interface */
 206:.\Generated_Source\PSoC4/I2C_I2C.c ****         I2C_CTRL_REG     = I2C_I2C_DEFAULT_CTRL;
  35              		.loc 1 206 0
  36 0004 204B     		ldr	r3, .L2
  37 0006 0022     		mov	r2, #0
  38 0008 1A60     		str	r2, [r3]
 207:.\Generated_Source\PSoC4/I2C_I2C.c ****         I2C_I2C_CTRL_REG = I2C_I2C_DEFAULT_I2C_CTRL;
  39              		.loc 1 207 0
  40 000a 204B     		ldr	r3, .L2+4
  41 000c 204A     		ldr	r2, .L2+8
  42 000e 1A60     		str	r2, [r3]
 208:.\Generated_Source\PSoC4/I2C_I2C.c **** 
 209:.\Generated_Source\PSoC4/I2C_I2C.c ****         /* Configure RX direction */
 210:.\Generated_Source\PSoC4/I2C_I2C.c ****         I2C_RX_CTRL_REG      = I2C_I2C_DEFAULT_RX_CTRL;
  43              		.loc 1 210 0
  44 0010 204B     		ldr	r3, .L2+12
  45 0012 214A     		ldr	r2, .L2+16
  46 0014 1A60     		str	r2, [r3]
 211:.\Generated_Source\PSoC4/I2C_I2C.c ****         I2C_RX_FIFO_CTRL_REG = I2C_I2C_DEFAULT_RX_FIFO_CTRL;
  47              		.loc 1 211 0
  48 0016 214B     		ldr	r3, .L2+20
  49 0018 0022     		mov	r2, #0
  50 001a 1A60     		str	r2, [r3]
 212:.\Generated_Source\PSoC4/I2C_I2C.c **** 
 213:.\Generated_Source\PSoC4/I2C_I2C.c ****         /* Set default address and mask */
 214:.\Generated_Source\PSoC4/I2C_I2C.c ****         I2C_RX_MATCH_REG     = I2C_I2C_DEFAULT_RX_MATCH;
  51              		.loc 1 214 0
  52 001c 204B     		ldr	r3, .L2+24
  53 001e 0022     		mov	r2, #0
  54 0020 1A60     		str	r2, [r3]
 215:.\Generated_Source\PSoC4/I2C_I2C.c **** 
 216:.\Generated_Source\PSoC4/I2C_I2C.c ****         /* Configure TX direction */
 217:.\Generated_Source\PSoC4/I2C_I2C.c ****         I2C_TX_CTRL_REG      = I2C_I2C_DEFAULT_TX_CTRL;
  55              		.loc 1 217 0
  56 0022 204B     		ldr	r3, .L2+28
  57 0024 1C4A     		ldr	r2, .L2+16
  58 0026 1A60     		str	r2, [r3]
 218:.\Generated_Source\PSoC4/I2C_I2C.c ****         I2C_TX_FIFO_CTRL_REG = I2C_I2C_DEFAULT_TX_FIFO_CTRL;
  59              		.loc 1 218 0
  60 0028 1F4B     		ldr	r3, .L2+32
  61 002a 0022     		mov	r2, #0
  62 002c 1A60     		str	r2, [r3]
 219:.\Generated_Source\PSoC4/I2C_I2C.c **** 
 220:.\Generated_Source\PSoC4/I2C_I2C.c ****         /* Configure interrupt with I2C handler but do not enable it */
 221:.\Generated_Source\PSoC4/I2C_I2C.c ****         CyIntDisable    (I2C_ISR_NUMBER);
  63              		.loc 1 221 0
  64 002e 0920     		mov	r0, #9
ARM GAS  C:\Users\Petro\AppData\Local\Temp\ccJGdIZw.s 			page 6


  65 0030 FFF7FEFF 		bl	CyIntDisable
 222:.\Generated_Source\PSoC4/I2C_I2C.c ****         CyIntSetPriority(I2C_ISR_NUMBER, I2C_ISR_PRIORITY);
  66              		.loc 1 222 0
  67 0034 0920     		mov	r0, #9
  68 0036 0321     		mov	r1, #3
  69 0038 FFF7FEFF 		bl	CyIntSetPriority
 223:.\Generated_Source\PSoC4/I2C_I2C.c ****     #if(!I2C_I2C_EXTERN_INTR_HANDLER)
 224:.\Generated_Source\PSoC4/I2C_I2C.c ****         (void) CyIntSetVector(I2C_ISR_NUMBER, &I2C_I2C_ISR);
  70              		.loc 1 224 0
  71 003c 1B4B     		ldr	r3, .L2+36
  72 003e 0920     		mov	r0, #9
  73 0040 191C     		mov	r1, r3
  74 0042 FFF7FEFF 		bl	CyIntSetVector
 225:.\Generated_Source\PSoC4/I2C_I2C.c ****     #endif /* (I2C_I2C_EXTERN_INTR_HANDLER) */
 226:.\Generated_Source\PSoC4/I2C_I2C.c **** 
 227:.\Generated_Source\PSoC4/I2C_I2C.c ****         /* Configure interrupt sources */
 228:.\Generated_Source\PSoC4/I2C_I2C.c ****     #if(!I2C_CY_SCBIP_V1)
 229:.\Generated_Source\PSoC4/I2C_I2C.c ****         I2C_INTR_SPI_EC_MASK_REG = I2C_I2C_DEFAULT_INTR_SPI_EC_MASK;
  75              		.loc 1 229 0
  76 0046 1A4B     		ldr	r3, .L2+40
  77 0048 0022     		mov	r2, #0
  78 004a 1A60     		str	r2, [r3]
 230:.\Generated_Source\PSoC4/I2C_I2C.c ****     #endif /* (!I2C_CY_SCBIP_V1) */
 231:.\Generated_Source\PSoC4/I2C_I2C.c **** 
 232:.\Generated_Source\PSoC4/I2C_I2C.c ****         I2C_INTR_I2C_EC_MASK_REG = I2C_I2C_DEFAULT_INTR_I2C_EC_MASK;
  79              		.loc 1 232 0
  80 004c 194B     		ldr	r3, .L2+44
  81 004e 0022     		mov	r2, #0
  82 0050 1A60     		str	r2, [r3]
 233:.\Generated_Source\PSoC4/I2C_I2C.c ****         I2C_INTR_SLAVE_MASK_REG  = I2C_I2C_DEFAULT_INTR_SLAVE_MASK;
  83              		.loc 1 233 0
  84 0052 194B     		ldr	r3, .L2+48
  85 0054 0022     		mov	r2, #0
  86 0056 1A60     		str	r2, [r3]
 234:.\Generated_Source\PSoC4/I2C_I2C.c ****         I2C_INTR_MASTER_MASK_REG = I2C_I2C_DEFAULT_INTR_MASTER_MASK;
  87              		.loc 1 234 0
  88 0058 184B     		ldr	r3, .L2+52
  89 005a 1422     		mov	r2, #20
  90 005c FF32     		add	r2, r2, #255
  91 005e 1A60     		str	r2, [r3]
 235:.\Generated_Source\PSoC4/I2C_I2C.c ****         I2C_INTR_RX_MASK_REG     = I2C_I2C_DEFAULT_INTR_RX_MASK;
  92              		.loc 1 235 0
  93 0060 174B     		ldr	r3, .L2+56
  94 0062 0022     		mov	r2, #0
  95 0064 1A60     		str	r2, [r3]
 236:.\Generated_Source\PSoC4/I2C_I2C.c ****         I2C_INTR_TX_MASK_REG     = I2C_I2C_DEFAULT_INTR_TX_MASK;
  96              		.loc 1 236 0
  97 0066 174B     		ldr	r3, .L2+60
  98 0068 0022     		mov	r2, #0
  99 006a 1A60     		str	r2, [r3]
 237:.\Generated_Source\PSoC4/I2C_I2C.c **** 
 238:.\Generated_Source\PSoC4/I2C_I2C.c ****         /* Configure global variables */
 239:.\Generated_Source\PSoC4/I2C_I2C.c ****         I2C_state = I2C_I2C_FSM_IDLE;
 100              		.loc 1 239 0
 101 006c 164B     		ldr	r3, .L2+64
 102 006e 1022     		mov	r2, #16
 103 0070 1A70     		strb	r2, [r3]
ARM GAS  C:\Users\Petro\AppData\Local\Temp\ccJGdIZw.s 			page 7


 240:.\Generated_Source\PSoC4/I2C_I2C.c **** 
 241:.\Generated_Source\PSoC4/I2C_I2C.c ****     #if(I2C_I2C_SLAVE)
 242:.\Generated_Source\PSoC4/I2C_I2C.c ****         /* Internal slave variable */
 243:.\Generated_Source\PSoC4/I2C_I2C.c ****         I2C_slStatus        = 0u;
 244:.\Generated_Source\PSoC4/I2C_I2C.c ****         I2C_slRdBufIndex    = 0u;
 245:.\Generated_Source\PSoC4/I2C_I2C.c ****         I2C_slWrBufIndex    = 0u;
 246:.\Generated_Source\PSoC4/I2C_I2C.c ****         I2C_slOverFlowCount = 0u;
 247:.\Generated_Source\PSoC4/I2C_I2C.c ****     #endif /* (I2C_I2C_SLAVE) */
 248:.\Generated_Source\PSoC4/I2C_I2C.c **** 
 249:.\Generated_Source\PSoC4/I2C_I2C.c ****     #if(I2C_I2C_MASTER)
 250:.\Generated_Source\PSoC4/I2C_I2C.c ****     /* Internal master variable */
 251:.\Generated_Source\PSoC4/I2C_I2C.c ****         I2C_mstrStatus     = 0u;
 104              		.loc 1 251 0
 105 0072 164B     		ldr	r3, .L2+68
 106 0074 0022     		mov	r2, #0
 107 0076 1A80     		strh	r2, [r3]
 252:.\Generated_Source\PSoC4/I2C_I2C.c ****         I2C_mstrRdBufIndex = 0u;
 108              		.loc 1 252 0
 109 0078 154B     		ldr	r3, .L2+72
 110 007a 0022     		mov	r2, #0
 111 007c 1A60     		str	r2, [r3]
 253:.\Generated_Source\PSoC4/I2C_I2C.c ****         I2C_mstrWrBufIndex = 0u;
 112              		.loc 1 253 0
 113 007e 154B     		ldr	r3, .L2+76
 114 0080 0022     		mov	r2, #0
 115 0082 1A60     		str	r2, [r3]
 254:.\Generated_Source\PSoC4/I2C_I2C.c ****     #endif /* (I2C_I2C_MASTER) */
 255:.\Generated_Source\PSoC4/I2C_I2C.c ****     }
 116              		.loc 1 255 0
 117 0084 BD46     		mov	sp, r7
 118              		@ sp needed
 119 0086 80BD     		pop	{r7, pc}
 120              	.L3:
 121              		.align	2
 122              	.L2:
 123 0088 00002440 		.word	1076101120
 124 008c 60002440 		.word	1076101216
 125 0090 77080080 		.word	-2147481481
 126 0094 00032440 		.word	1076101888
 127 0098 07010080 		.word	-2147483385
 128 009c 04032440 		.word	1076101892
 129 00a0 10032440 		.word	1076101904
 130 00a4 00022440 		.word	1076101632
 131 00a8 04022440 		.word	1076101636
 132 00ac 00000000 		.word	I2C_I2C_ISR
 133 00b0 C80E2440 		.word	1076104904
 134 00b4 880E2440 		.word	1076104840
 135 00b8 480F2440 		.word	1076105032
 136 00bc 080F2440 		.word	1076104968
 137 00c0 C80F2440 		.word	1076105160
 138 00c4 880F2440 		.word	1076105096
 139 00c8 00000000 		.word	I2C_state
 140 00cc 00000000 		.word	I2C_mstrStatus
 141 00d0 00000000 		.word	I2C_mstrRdBufIndex
 142 00d4 00000000 		.word	I2C_mstrWrBufIndex
 143              		.cfi_endproc
 144              	.LFE2:
ARM GAS  C:\Users\Petro\AppData\Local\Temp\ccJGdIZw.s 			page 8


 145              		.size	I2C_I2CInit, .-I2C_I2CInit
 146              		.section	.text.I2C_I2CStop,"ax",%progbits
 147              		.align	2
 148              		.global	I2C_I2CStop
 149              		.code	16
 150              		.thumb_func
 151              		.type	I2C_I2CStop, %function
 152              	I2C_I2CStop:
 153              	.LFB3:
 256:.\Generated_Source\PSoC4/I2C_I2C.c **** #endif /* (I2C_SCB_MODE_UNCONFIG_CONST_CFG) */
 257:.\Generated_Source\PSoC4/I2C_I2C.c **** 
 258:.\Generated_Source\PSoC4/I2C_I2C.c **** 
 259:.\Generated_Source\PSoC4/I2C_I2C.c **** /*******************************************************************************
 260:.\Generated_Source\PSoC4/I2C_I2C.c **** * Function Name: I2C_I2CStop
 261:.\Generated_Source\PSoC4/I2C_I2C.c **** ****************************************************************************//**
 262:.\Generated_Source\PSoC4/I2C_I2C.c **** *
 263:.\Generated_Source\PSoC4/I2C_I2C.c **** *  Resets the I2C FSM into the default state.
 264:.\Generated_Source\PSoC4/I2C_I2C.c **** *
 265:.\Generated_Source\PSoC4/I2C_I2C.c **** *******************************************************************************/
 266:.\Generated_Source\PSoC4/I2C_I2C.c **** void I2C_I2CStop(void)
 267:.\Generated_Source\PSoC4/I2C_I2C.c **** {
 154              		.loc 1 267 0
 155              		.cfi_startproc
 156 0000 80B5     		push	{r7, lr}
 157              		.cfi_def_cfa_offset 8
 158              		.cfi_offset 7, -8
 159              		.cfi_offset 14, -4
 160 0002 00AF     		add	r7, sp, #0
 161              		.cfi_def_cfa_register 7
 268:.\Generated_Source\PSoC4/I2C_I2C.c ****     I2C_state = I2C_I2C_FSM_IDLE;
 162              		.loc 1 268 0
 163 0004 024B     		ldr	r3, .L5
 164 0006 1022     		mov	r2, #16
 165 0008 1A70     		strb	r2, [r3]
 269:.\Generated_Source\PSoC4/I2C_I2C.c **** }
 166              		.loc 1 269 0
 167 000a BD46     		mov	sp, r7
 168              		@ sp needed
 169 000c 80BD     		pop	{r7, pc}
 170              	.L6:
 171 000e C046     		.align	2
 172              	.L5:
 173 0010 00000000 		.word	I2C_state
 174              		.cfi_endproc
 175              	.LFE3:
 176              		.size	I2C_I2CStop, .-I2C_I2CStop
 177              		.text
 178              	.Letext0:
 179              		.file 2 "Generated_Source\\PSoC4/cytypes.h"
 180              		.file 3 ".\\Generated_Source\\PSoC4\\I2C_I2C_PVT.h"