ARM GAS  C:\Users\Petro\AppData\Local\Temp\ccmzP3bp.s 			page 1


   1              		.cpu cortex-m0
   2              		.fpu softvfp
   3              		.eabi_attribute 20, 1
   4              		.eabi_attribute 21, 1
   5              		.eabi_attribute 23, 3
   6              		.eabi_attribute 24, 1
   7              		.eabi_attribute 25, 1
   8              		.eabi_attribute 26, 1
   9              		.eabi_attribute 30, 6
  10              		.eabi_attribute 34, 0
  11              		.eabi_attribute 18, 4
  12              		.code	16
  13              		.file	"LCD.c"
  14              		.text
  15              	.Ltext0:
  16              		.cfi_sections	.debug_frame
  17              		.global	LCD_enableState
  18              		.bss
  19              		.type	LCD_enableState, %object
  20              		.size	LCD_enableState, 1
  21              	LCD_enableState:
  22 0000 00       		.space	1
  23              		.global	LCD_initVar
  24              		.type	LCD_initVar, %object
  25              		.size	LCD_initVar, 1
  26              	LCD_initVar:
  27 0001 00       		.space	1
  28              		.section	.text.LCD_Init,"ax",%progbits
  29              		.align	2
  30              		.global	LCD_Init
  31              		.code	16
  32              		.thumb_func
  33              		.type	LCD_Init, %function
  34              	LCD_Init:
  35              	.LFB2:
  36              		.file 1 ".\\Generated_Source\\PSoC4\\LCD.c"
   1:.\Generated_Source\PSoC4/LCD.c **** /*******************************************************************************
   2:.\Generated_Source\PSoC4/LCD.c **** * File Name: LCD.c
   3:.\Generated_Source\PSoC4/LCD.c **** * Version 2.20
   4:.\Generated_Source\PSoC4/LCD.c **** *
   5:.\Generated_Source\PSoC4/LCD.c **** * Description:
   6:.\Generated_Source\PSoC4/LCD.c **** *  This file provides source code for the Character LCD component's API.
   7:.\Generated_Source\PSoC4/LCD.c **** *
   8:.\Generated_Source\PSoC4/LCD.c **** * Note:
   9:.\Generated_Source\PSoC4/LCD.c **** *
  10:.\Generated_Source\PSoC4/LCD.c **** ********************************************************************************
  11:.\Generated_Source\PSoC4/LCD.c **** * Copyright 2008-2014, Cypress Semiconductor Corporation.  All rights reserved.
  12:.\Generated_Source\PSoC4/LCD.c **** * You may use this file only in accordance with the license, terms, conditions,
  13:.\Generated_Source\PSoC4/LCD.c **** * disclaimers, and limitations in the end user license agreement accompanying
  14:.\Generated_Source\PSoC4/LCD.c **** * the software package with which this file was provided.
  15:.\Generated_Source\PSoC4/LCD.c **** *******************************************************************************/
  16:.\Generated_Source\PSoC4/LCD.c **** 
  17:.\Generated_Source\PSoC4/LCD.c **** #include "CyLib.h"
  18:.\Generated_Source\PSoC4/LCD.c **** #include "LCD.h"
  19:.\Generated_Source\PSoC4/LCD.c **** 
  20:.\Generated_Source\PSoC4/LCD.c **** 
  21:.\Generated_Source\PSoC4/LCD.c **** static void LCD_WrDatNib(uint8 nibble) ;
ARM GAS  C:\Users\Petro\AppData\Local\Temp\ccmzP3bp.s 			page 2


  22:.\Generated_Source\PSoC4/LCD.c **** static void LCD_WrCntrlNib(uint8 nibble) ;
  23:.\Generated_Source\PSoC4/LCD.c **** 
  24:.\Generated_Source\PSoC4/LCD.c **** /* Stores state of component. Indicates whether component is or not
  25:.\Generated_Source\PSoC4/LCD.c **** * in enable state.
  26:.\Generated_Source\PSoC4/LCD.c **** */
  27:.\Generated_Source\PSoC4/LCD.c **** uint8 LCD_enableState = 0u;
  28:.\Generated_Source\PSoC4/LCD.c **** 
  29:.\Generated_Source\PSoC4/LCD.c **** uint8 LCD_initVar = 0u;
  30:.\Generated_Source\PSoC4/LCD.c **** 
  31:.\Generated_Source\PSoC4/LCD.c **** 
  32:.\Generated_Source\PSoC4/LCD.c **** /*******************************************************************************
  33:.\Generated_Source\PSoC4/LCD.c **** * Function Name: LCD_Init
  34:.\Generated_Source\PSoC4/LCD.c **** ********************************************************************************
  35:.\Generated_Source\PSoC4/LCD.c **** *
  36:.\Generated_Source\PSoC4/LCD.c **** * Summary:
  37:.\Generated_Source\PSoC4/LCD.c **** *  Performs initialization required for the components normal work.
  38:.\Generated_Source\PSoC4/LCD.c **** *  This function initializes the LCD hardware module as follows:
  39:.\Generated_Source\PSoC4/LCD.c **** *        Enables a 4-bit interface
  40:.\Generated_Source\PSoC4/LCD.c **** *        Clears the display
  41:.\Generated_Source\PSoC4/LCD.c **** *        Enables the auto cursor increment
  42:.\Generated_Source\PSoC4/LCD.c **** *        Resets the cursor to start position
  43:.\Generated_Source\PSoC4/LCD.c **** *  Also, it loads a custom character set to the LCD if it was defined in the customizer.
  44:.\Generated_Source\PSoC4/LCD.c **** *
  45:.\Generated_Source\PSoC4/LCD.c **** * Parameters:
  46:.\Generated_Source\PSoC4/LCD.c **** *  None.
  47:.\Generated_Source\PSoC4/LCD.c **** *
  48:.\Generated_Source\PSoC4/LCD.c **** * Return:
  49:.\Generated_Source\PSoC4/LCD.c **** *  None.
  50:.\Generated_Source\PSoC4/LCD.c **** *
  51:.\Generated_Source\PSoC4/LCD.c **** * Reentrant:
  52:.\Generated_Source\PSoC4/LCD.c **** *  No.
  53:.\Generated_Source\PSoC4/LCD.c **** *
  54:.\Generated_Source\PSoC4/LCD.c **** *******************************************************************************/
  55:.\Generated_Source\PSoC4/LCD.c **** void LCD_Init(void) 
  56:.\Generated_Source\PSoC4/LCD.c **** {
  37              		.loc 1 56 0
  38              		.cfi_startproc
  39 0000 80B5     		push	{r7, lr}
  40              		.cfi_def_cfa_offset 8
  41              		.cfi_offset 7, -8
  42              		.cfi_offset 14, -4
  43 0002 00AF     		add	r7, sp, #0
  44              		.cfi_def_cfa_register 7
  57:.\Generated_Source\PSoC4/LCD.c ****     /* INIT CODE */
  58:.\Generated_Source\PSoC4/LCD.c ****     CyDelay(40u);                                                        /* Delay 40 ms */
  45              		.loc 1 58 0
  46 0004 2820     		mov	r0, #40
  47 0006 FFF7FEFF 		bl	CyDelay
  59:.\Generated_Source\PSoC4/LCD.c ****     LCD_WrCntrlNib(LCD_DISPLAY_8_BIT_INIT);    /* Selects 8-bit mode */
  48              		.loc 1 59 0
  49 000a 0320     		mov	r0, #3
  50 000c FFF7FEFF 		bl	LCD_WrCntrlNib
  60:.\Generated_Source\PSoC4/LCD.c ****     CyDelay(5u);                                                         /* Delay 5 ms */
  51              		.loc 1 60 0
  52 0010 0520     		mov	r0, #5
  53 0012 FFF7FEFF 		bl	CyDelay
  61:.\Generated_Source\PSoC4/LCD.c ****     LCD_WrCntrlNib(LCD_DISPLAY_8_BIT_INIT);    /* Selects 8-bit mode */
ARM GAS  C:\Users\Petro\AppData\Local\Temp\ccmzP3bp.s 			page 3


  54              		.loc 1 61 0
  55 0016 0320     		mov	r0, #3
  56 0018 FFF7FEFF 		bl	LCD_WrCntrlNib
  62:.\Generated_Source\PSoC4/LCD.c ****     CyDelay(15u);                                                        /* Delay 15 ms */
  57              		.loc 1 62 0
  58 001c 0F20     		mov	r0, #15
  59 001e FFF7FEFF 		bl	CyDelay
  63:.\Generated_Source\PSoC4/LCD.c ****     LCD_WrCntrlNib(LCD_DISPLAY_8_BIT_INIT);    /* Selects 8-bit mode */
  60              		.loc 1 63 0
  61 0022 0320     		mov	r0, #3
  62 0024 FFF7FEFF 		bl	LCD_WrCntrlNib
  64:.\Generated_Source\PSoC4/LCD.c ****     CyDelay(1u);                                                         /* Delay 1 ms */
  63              		.loc 1 64 0
  64 0028 0120     		mov	r0, #1
  65 002a FFF7FEFF 		bl	CyDelay
  65:.\Generated_Source\PSoC4/LCD.c ****     LCD_WrCntrlNib(LCD_DISPLAY_4_BIT_INIT);    /* Selects 4-bit mode */
  66              		.loc 1 65 0
  67 002e 0220     		mov	r0, #2
  68 0030 FFF7FEFF 		bl	LCD_WrCntrlNib
  66:.\Generated_Source\PSoC4/LCD.c ****     CyDelay(5u);                                                         /* Delay 5 ms */
  69              		.loc 1 66 0
  70 0034 0520     		mov	r0, #5
  71 0036 FFF7FEFF 		bl	CyDelay
  67:.\Generated_Source\PSoC4/LCD.c **** 
  68:.\Generated_Source\PSoC4/LCD.c ****     LCD_WriteControl(LCD_CURSOR_AUTO_INCR_ON);    /* Incr Cursor After Writes */
  72              		.loc 1 68 0
  73 003a 0620     		mov	r0, #6
  74 003c FFF7FEFF 		bl	LCD_WriteControl
  69:.\Generated_Source\PSoC4/LCD.c ****     LCD_WriteControl(LCD_DISPLAY_CURSOR_ON);      /* Turn Display, Cursor ON */
  75              		.loc 1 69 0
  76 0040 0E20     		mov	r0, #14
  77 0042 FFF7FEFF 		bl	LCD_WriteControl
  70:.\Generated_Source\PSoC4/LCD.c ****     LCD_WriteControl(LCD_DISPLAY_2_LINES_5x10);   /* 2 Lines by 5x10 Characters */
  78              		.loc 1 70 0
  79 0046 2C20     		mov	r0, #44
  80 0048 FFF7FEFF 		bl	LCD_WriteControl
  71:.\Generated_Source\PSoC4/LCD.c ****     LCD_WriteControl(LCD_DISPLAY_CURSOR_OFF);     /* Turn Display, Cursor OFF */
  81              		.loc 1 71 0
  82 004c 0820     		mov	r0, #8
  83 004e FFF7FEFF 		bl	LCD_WriteControl
  72:.\Generated_Source\PSoC4/LCD.c ****     LCD_WriteControl(LCD_CLEAR_DISPLAY);          /* Clear LCD Screen */
  84              		.loc 1 72 0
  85 0052 0120     		mov	r0, #1
  86 0054 FFF7FEFF 		bl	LCD_WriteControl
  73:.\Generated_Source\PSoC4/LCD.c ****     LCD_WriteControl(LCD_DISPLAY_ON_CURSOR_OFF);  /* Turn Display ON, Cursor OFF */
  87              		.loc 1 73 0
  88 0058 0C20     		mov	r0, #12
  89 005a FFF7FEFF 		bl	LCD_WriteControl
  74:.\Generated_Source\PSoC4/LCD.c ****     LCD_WriteControl(LCD_RESET_CURSOR_POSITION);  /* Set Cursor to 0,0 */
  90              		.loc 1 74 0
  91 005e 0320     		mov	r0, #3
  92 0060 FFF7FEFF 		bl	LCD_WriteControl
  75:.\Generated_Source\PSoC4/LCD.c ****     CyDelay(5u);
  93              		.loc 1 75 0
  94 0064 0520     		mov	r0, #5
  95 0066 FFF7FEFF 		bl	CyDelay
  76:.\Generated_Source\PSoC4/LCD.c **** 
ARM GAS  C:\Users\Petro\AppData\Local\Temp\ccmzP3bp.s 			page 4


  77:.\Generated_Source\PSoC4/LCD.c ****     #if(LCD_CUSTOM_CHAR_SET != LCD_NONE)
  78:.\Generated_Source\PSoC4/LCD.c ****         LCD_LoadCustomFonts(LCD_customFonts);
  79:.\Generated_Source\PSoC4/LCD.c ****     #endif /* LCD_CUSTOM_CHAR_SET != LCD_NONE */
  80:.\Generated_Source\PSoC4/LCD.c **** }
  96              		.loc 1 80 0
  97 006a BD46     		mov	sp, r7
  98              		@ sp needed
  99 006c 80BD     		pop	{r7, pc}
 100              		.cfi_endproc
 101              	.LFE2:
 102              		.size	LCD_Init, .-LCD_Init
 103 006e C046     		.section	.text.LCD_Enable,"ax",%progbits
 104              		.align	2
 105              		.global	LCD_Enable
 106              		.code	16
 107              		.thumb_func
 108              		.type	LCD_Enable, %function
 109              	LCD_Enable:
 110              	.LFB3:
  81:.\Generated_Source\PSoC4/LCD.c **** 
  82:.\Generated_Source\PSoC4/LCD.c **** 
  83:.\Generated_Source\PSoC4/LCD.c **** /*******************************************************************************
  84:.\Generated_Source\PSoC4/LCD.c **** * Function Name: LCD_Enable
  85:.\Generated_Source\PSoC4/LCD.c **** ********************************************************************************
  86:.\Generated_Source\PSoC4/LCD.c **** *
  87:.\Generated_Source\PSoC4/LCD.c **** * Summary:
  88:.\Generated_Source\PSoC4/LCD.c **** *  Turns on the display.
  89:.\Generated_Source\PSoC4/LCD.c **** *
  90:.\Generated_Source\PSoC4/LCD.c **** * Parameters:
  91:.\Generated_Source\PSoC4/LCD.c **** *  None.
  92:.\Generated_Source\PSoC4/LCD.c **** *
  93:.\Generated_Source\PSoC4/LCD.c **** * Return:
  94:.\Generated_Source\PSoC4/LCD.c **** *  None.
  95:.\Generated_Source\PSoC4/LCD.c **** *
  96:.\Generated_Source\PSoC4/LCD.c **** * Reentrant:
  97:.\Generated_Source\PSoC4/LCD.c **** *  No.
  98:.\Generated_Source\PSoC4/LCD.c **** *
  99:.\Generated_Source\PSoC4/LCD.c **** * Theory:
 100:.\Generated_Source\PSoC4/LCD.c **** *  This function has no effect when it is called the first time as
 101:.\Generated_Source\PSoC4/LCD.c **** *  LCD_Init() turns on the LCD.
 102:.\Generated_Source\PSoC4/LCD.c **** *
 103:.\Generated_Source\PSoC4/LCD.c **** *******************************************************************************/
 104:.\Generated_Source\PSoC4/LCD.c **** void LCD_Enable(void) 
 105:.\Generated_Source\PSoC4/LCD.c **** {
 111              		.loc 1 105 0
 112              		.cfi_startproc
 113 0000 80B5     		push	{r7, lr}
 114              		.cfi_def_cfa_offset 8
 115              		.cfi_offset 7, -8
 116              		.cfi_offset 14, -4
 117 0002 00AF     		add	r7, sp, #0
 118              		.cfi_def_cfa_register 7
 106:.\Generated_Source\PSoC4/LCD.c ****     LCD_DisplayOn();
 119              		.loc 1 106 0
 120 0004 0C20     		mov	r0, #12
 121 0006 FFF7FEFF 		bl	LCD_WriteControl
 107:.\Generated_Source\PSoC4/LCD.c ****     LCD_enableState = 1u;
ARM GAS  C:\Users\Petro\AppData\Local\Temp\ccmzP3bp.s 			page 5


 122              		.loc 1 107 0
 123 000a 024B     		ldr	r3, .L3
 124 000c 0122     		mov	r2, #1
 125 000e 1A70     		strb	r2, [r3]
 108:.\Generated_Source\PSoC4/LCD.c **** }
 126              		.loc 1 108 0
 127 0010 BD46     		mov	sp, r7
 128              		@ sp needed
 129 0012 80BD     		pop	{r7, pc}
 130              	.L4:
 131              		.align	2
 132              	.L3:
 133 0014 00000000 		.word	LCD_enableState
 134              		.cfi_endproc
 135              	.LFE3:
 136              		.size	LCD_Enable, .-LCD_Enable
 137              		.section	.text.LCD_Start,"ax",%progbits
 138              		.align	2
 139              		.global	LCD_Start
 140              		.code	16
 141              		.thumb_func
 142              		.type	LCD_Start, %function
 143              	LCD_Start:
 144              	.LFB4:
 109:.\Generated_Source\PSoC4/LCD.c **** 
 110:.\Generated_Source\PSoC4/LCD.c **** 
 111:.\Generated_Source\PSoC4/LCD.c **** /*******************************************************************************
 112:.\Generated_Source\PSoC4/LCD.c **** * Function Name: LCD_Start
 113:.\Generated_Source\PSoC4/LCD.c **** ********************************************************************************
 114:.\Generated_Source\PSoC4/LCD.c **** *
 115:.\Generated_Source\PSoC4/LCD.c **** * Summary:
 116:.\Generated_Source\PSoC4/LCD.c **** *  Performs initialization required for the components normal work.
 117:.\Generated_Source\PSoC4/LCD.c **** *  This function initializes the LCD hardware module as follows:
 118:.\Generated_Source\PSoC4/LCD.c **** *        Enables 4-bit interface
 119:.\Generated_Source\PSoC4/LCD.c **** *        Clears the display
 120:.\Generated_Source\PSoC4/LCD.c **** *        Enables auto cursor increment
 121:.\Generated_Source\PSoC4/LCD.c **** *        Resets the cursor to start position
 122:.\Generated_Source\PSoC4/LCD.c **** *  Also, it loads a custom character set to the LCD if it was defined in the customizer.
 123:.\Generated_Source\PSoC4/LCD.c **** *  If it was not the first call in this project, then it just turns on the
 124:.\Generated_Source\PSoC4/LCD.c **** *  display
 125:.\Generated_Source\PSoC4/LCD.c **** *
 126:.\Generated_Source\PSoC4/LCD.c **** *
 127:.\Generated_Source\PSoC4/LCD.c **** * Parameters:
 128:.\Generated_Source\PSoC4/LCD.c **** *  LCD_initVar - global variable.
 129:.\Generated_Source\PSoC4/LCD.c **** *
 130:.\Generated_Source\PSoC4/LCD.c **** * Return:
 131:.\Generated_Source\PSoC4/LCD.c **** *  LCD_initVar - global variable.
 132:.\Generated_Source\PSoC4/LCD.c **** *
 133:.\Generated_Source\PSoC4/LCD.c **** * Reentrant:
 134:.\Generated_Source\PSoC4/LCD.c **** *  No.
 135:.\Generated_Source\PSoC4/LCD.c **** *
 136:.\Generated_Source\PSoC4/LCD.c **** *******************************************************************************/
 137:.\Generated_Source\PSoC4/LCD.c **** void LCD_Start(void) 
 138:.\Generated_Source\PSoC4/LCD.c **** {
 145              		.loc 1 138 0
 146              		.cfi_startproc
 147 0000 80B5     		push	{r7, lr}
ARM GAS  C:\Users\Petro\AppData\Local\Temp\ccmzP3bp.s 			page 6


 148              		.cfi_def_cfa_offset 8
 149              		.cfi_offset 7, -8
 150              		.cfi_offset 14, -4
 151 0002 00AF     		add	r7, sp, #0
 152              		.cfi_def_cfa_register 7
 139:.\Generated_Source\PSoC4/LCD.c ****     /* If not initialized, perform initialization */
 140:.\Generated_Source\PSoC4/LCD.c ****     if(LCD_initVar == 0u)
 153              		.loc 1 140 0
 154 0004 064B     		ldr	r3, .L7
 155 0006 1B78     		ldrb	r3, [r3]
 156 0008 002B     		cmp	r3, #0
 157 000a 04D1     		bne	.L6
 141:.\Generated_Source\PSoC4/LCD.c ****     {
 142:.\Generated_Source\PSoC4/LCD.c ****         LCD_Init();
 158              		.loc 1 142 0
 159 000c FFF7FEFF 		bl	LCD_Init
 143:.\Generated_Source\PSoC4/LCD.c ****         LCD_initVar = 1u;
 160              		.loc 1 143 0
 161 0010 034B     		ldr	r3, .L7
 162 0012 0122     		mov	r2, #1
 163 0014 1A70     		strb	r2, [r3]
 164              	.L6:
 144:.\Generated_Source\PSoC4/LCD.c ****     }
 145:.\Generated_Source\PSoC4/LCD.c **** 
 146:.\Generated_Source\PSoC4/LCD.c ****     /* Turn on the LCD */
 147:.\Generated_Source\PSoC4/LCD.c ****     LCD_Enable();
 165              		.loc 1 147 0
 166 0016 FFF7FEFF 		bl	LCD_Enable
 148:.\Generated_Source\PSoC4/LCD.c **** }
 167              		.loc 1 148 0
 168 001a BD46     		mov	sp, r7
 169              		@ sp needed
 170 001c 80BD     		pop	{r7, pc}
 171              	.L8:
 172 001e C046     		.align	2
 173              	.L7:
 174 0020 00000000 		.word	LCD_initVar
 175              		.cfi_endproc
 176              	.LFE4:
 177              		.size	LCD_Start, .-LCD_Start
 178              		.section	.text.LCD_Stop,"ax",%progbits
 179              		.align	2
 180              		.global	LCD_Stop
 181              		.code	16
 182              		.thumb_func
 183              		.type	LCD_Stop, %function
 184              	LCD_Stop:
 185              	.LFB5:
 149:.\Generated_Source\PSoC4/LCD.c **** 
 150:.\Generated_Source\PSoC4/LCD.c **** 
 151:.\Generated_Source\PSoC4/LCD.c **** /*******************************************************************************
 152:.\Generated_Source\PSoC4/LCD.c **** * Function Name: LCD_Stop
 153:.\Generated_Source\PSoC4/LCD.c **** ********************************************************************************
 154:.\Generated_Source\PSoC4/LCD.c **** *
 155:.\Generated_Source\PSoC4/LCD.c **** * Summary:
 156:.\Generated_Source\PSoC4/LCD.c **** *  Turns off the display of the LCD screen.
 157:.\Generated_Source\PSoC4/LCD.c **** *
ARM GAS  C:\Users\Petro\AppData\Local\Temp\ccmzP3bp.s 			page 7


 158:.\Generated_Source\PSoC4/LCD.c **** * Parameters:
 159:.\Generated_Source\PSoC4/LCD.c **** *  None.
 160:.\Generated_Source\PSoC4/LCD.c **** *
 161:.\Generated_Source\PSoC4/LCD.c **** * Return:
 162:.\Generated_Source\PSoC4/LCD.c **** *  None.
 163:.\Generated_Source\PSoC4/LCD.c **** *
 164:.\Generated_Source\PSoC4/LCD.c **** * Reentrant:
 165:.\Generated_Source\PSoC4/LCD.c **** *  No.
 166:.\Generated_Source\PSoC4/LCD.c **** *
 167:.\Generated_Source\PSoC4/LCD.c **** *******************************************************************************/
 168:.\Generated_Source\PSoC4/LCD.c **** void LCD_Stop(void) 
 169:.\Generated_Source\PSoC4/LCD.c **** {
 186              		.loc 1 169 0
 187              		.cfi_startproc
 188 0000 80B5     		push	{r7, lr}
 189              		.cfi_def_cfa_offset 8
 190              		.cfi_offset 7, -8
 191              		.cfi_offset 14, -4
 192 0002 00AF     		add	r7, sp, #0
 193              		.cfi_def_cfa_register 7
 170:.\Generated_Source\PSoC4/LCD.c ****     /* Calls LCD Off Macro */
 171:.\Generated_Source\PSoC4/LCD.c ****     LCD_DisplayOff();
 194              		.loc 1 171 0
 195 0004 0820     		mov	r0, #8
 196 0006 FFF7FEFF 		bl	LCD_WriteControl
 172:.\Generated_Source\PSoC4/LCD.c ****     LCD_enableState = 0u;
 197              		.loc 1 172 0
 198 000a 024B     		ldr	r3, .L10
 199 000c 0022     		mov	r2, #0
 200 000e 1A70     		strb	r2, [r3]
 173:.\Generated_Source\PSoC4/LCD.c **** }
 201              		.loc 1 173 0
 202 0010 BD46     		mov	sp, r7
 203              		@ sp needed
 204 0012 80BD     		pop	{r7, pc}
 205              	.L11:
 206              		.align	2
 207              	.L10:
 208 0014 00000000 		.word	LCD_enableState
 209              		.cfi_endproc
 210              	.LFE5:
 211              		.size	LCD_Stop, .-LCD_Stop
 212              		.section	.text.LCD_Position,"ax",%progbits
 213              		.align	2
 214              		.global	LCD_Position
 215              		.code	16
 216              		.thumb_func
 217              		.type	LCD_Position, %function
 218              	LCD_Position:
 219              	.LFB6:
 174:.\Generated_Source\PSoC4/LCD.c **** 
 175:.\Generated_Source\PSoC4/LCD.c **** 
 176:.\Generated_Source\PSoC4/LCD.c **** /*******************************************************************************
 177:.\Generated_Source\PSoC4/LCD.c **** *  Function Name: LCD_Position
 178:.\Generated_Source\PSoC4/LCD.c **** ********************************************************************************
 179:.\Generated_Source\PSoC4/LCD.c **** *
 180:.\Generated_Source\PSoC4/LCD.c **** * Summary:
ARM GAS  C:\Users\Petro\AppData\Local\Temp\ccmzP3bp.s 			page 8


 181:.\Generated_Source\PSoC4/LCD.c **** *  Moves the active cursor location to a point specified by the input arguments
 182:.\Generated_Source\PSoC4/LCD.c **** *
 183:.\Generated_Source\PSoC4/LCD.c **** * Parameters:
 184:.\Generated_Source\PSoC4/LCD.c **** *  row:    Specific row of LCD module to be written
 185:.\Generated_Source\PSoC4/LCD.c **** *  column: Column of LCD module to be written
 186:.\Generated_Source\PSoC4/LCD.c **** *
 187:.\Generated_Source\PSoC4/LCD.c **** * Return:
 188:.\Generated_Source\PSoC4/LCD.c **** *  None.
 189:.\Generated_Source\PSoC4/LCD.c **** *
 190:.\Generated_Source\PSoC4/LCD.c **** * Note:
 191:.\Generated_Source\PSoC4/LCD.c **** *  This only applies for LCD displays that use the 2X40 address mode.
 192:.\Generated_Source\PSoC4/LCD.c **** *  In this case Row 2 starts with a 0x28 offset from Row 1.
 193:.\Generated_Source\PSoC4/LCD.c **** *  When there are more than 2 rows, each row must be fewer than 20 characters.
 194:.\Generated_Source\PSoC4/LCD.c **** *
 195:.\Generated_Source\PSoC4/LCD.c **** *******************************************************************************/
 196:.\Generated_Source\PSoC4/LCD.c **** void LCD_Position(uint8 row, uint8 column) 
 197:.\Generated_Source\PSoC4/LCD.c **** {
 220              		.loc 1 197 0
 221              		.cfi_startproc
 222 0000 80B5     		push	{r7, lr}
 223              		.cfi_def_cfa_offset 8
 224              		.cfi_offset 7, -8
 225              		.cfi_offset 14, -4
 226 0002 82B0     		sub	sp, sp, #8
 227              		.cfi_def_cfa_offset 16
 228 0004 00AF     		add	r7, sp, #0
 229              		.cfi_def_cfa_register 7
 230 0006 021C     		mov	r2, r0
 231 0008 FB1D     		add	r3, r7, #7
 232 000a 1A70     		strb	r2, [r3]
 233 000c BB1D     		add	r3, r7, #6
 234 000e 0A1C     		add	r2, r1, #0
 235 0010 1A70     		strb	r2, [r3]
 198:.\Generated_Source\PSoC4/LCD.c ****     switch (row)
 236              		.loc 1 198 0
 237 0012 FB1D     		add	r3, r7, #7
 238 0014 1B78     		ldrb	r3, [r3]
 239 0016 012B     		cmp	r3, #1
 240 0018 10D0     		beq	.L14
 241 001a 02DC     		bgt	.L15
 242 001c 002B     		cmp	r3, #0
 243 001e 05D0     		beq	.L16
 199:.\Generated_Source\PSoC4/LCD.c ****     {
 200:.\Generated_Source\PSoC4/LCD.c ****         case (uint8)0:
 201:.\Generated_Source\PSoC4/LCD.c ****             LCD_WriteControl(LCD_ROW_0_START + column);
 202:.\Generated_Source\PSoC4/LCD.c ****             break;
 203:.\Generated_Source\PSoC4/LCD.c ****         case (uint8) 1:
 204:.\Generated_Source\PSoC4/LCD.c ****             LCD_WriteControl(LCD_ROW_1_START + column);
 205:.\Generated_Source\PSoC4/LCD.c ****             break;
 206:.\Generated_Source\PSoC4/LCD.c ****         case (uint8) 2:
 207:.\Generated_Source\PSoC4/LCD.c ****             LCD_WriteControl(LCD_ROW_2_START + column);
 208:.\Generated_Source\PSoC4/LCD.c ****             break;
 209:.\Generated_Source\PSoC4/LCD.c ****         case (uint8) 3:
 210:.\Generated_Source\PSoC4/LCD.c ****             LCD_WriteControl(LCD_ROW_3_START + column);
 211:.\Generated_Source\PSoC4/LCD.c ****             break;
 212:.\Generated_Source\PSoC4/LCD.c ****         default:
 213:.\Generated_Source\PSoC4/LCD.c ****             /* if default case is hit, invalid row argument was passed.*/
ARM GAS  C:\Users\Petro\AppData\Local\Temp\ccmzP3bp.s 			page 9


 214:.\Generated_Source\PSoC4/LCD.c ****             break;
 244              		.loc 1 214 0
 245 0020 24E0     		b	.L12
 246              	.L15:
 198:.\Generated_Source\PSoC4/LCD.c ****     switch (row)
 247              		.loc 1 198 0
 248 0022 022B     		cmp	r3, #2
 249 0024 12D0     		beq	.L17
 250 0026 032B     		cmp	r3, #3
 251 0028 18D0     		beq	.L18
 252              		.loc 1 214 0
 253 002a 1FE0     		b	.L12
 254              	.L16:
 201:.\Generated_Source\PSoC4/LCD.c ****             break;
 255              		.loc 1 201 0
 256 002c BB1D     		add	r3, r7, #6
 257 002e 1B78     		ldrb	r3, [r3]
 258 0030 803B     		sub	r3, r3, #128
 259 0032 DBB2     		uxtb	r3, r3
 260 0034 181C     		mov	r0, r3
 261 0036 FFF7FEFF 		bl	LCD_WriteControl
 202:.\Generated_Source\PSoC4/LCD.c ****         case (uint8) 1:
 262              		.loc 1 202 0
 263 003a 17E0     		b	.L12
 264              	.L14:
 204:.\Generated_Source\PSoC4/LCD.c ****             break;
 265              		.loc 1 204 0
 266 003c BB1D     		add	r3, r7, #6
 267 003e 1B78     		ldrb	r3, [r3]
 268 0040 403B     		sub	r3, r3, #64
 269 0042 DBB2     		uxtb	r3, r3
 270 0044 181C     		mov	r0, r3
 271 0046 FFF7FEFF 		bl	LCD_WriteControl
 205:.\Generated_Source\PSoC4/LCD.c ****         case (uint8) 2:
 272              		.loc 1 205 0
 273 004a 0FE0     		b	.L12
 274              	.L17:
 207:.\Generated_Source\PSoC4/LCD.c ****             break;
 275              		.loc 1 207 0
 276 004c BB1D     		add	r3, r7, #6
 277 004e 1B78     		ldrb	r3, [r3]
 278 0050 6C3B     		sub	r3, r3, #108
 279 0052 DBB2     		uxtb	r3, r3
 280 0054 181C     		mov	r0, r3
 281 0056 FFF7FEFF 		bl	LCD_WriteControl
 208:.\Generated_Source\PSoC4/LCD.c ****         case (uint8) 3:
 282              		.loc 1 208 0
 283 005a 07E0     		b	.L12
 284              	.L18:
 210:.\Generated_Source\PSoC4/LCD.c ****             break;
 285              		.loc 1 210 0
 286 005c BB1D     		add	r3, r7, #6
 287 005e 1B78     		ldrb	r3, [r3]
 288 0060 2C3B     		sub	r3, r3, #44
 289 0062 DBB2     		uxtb	r3, r3
 290 0064 181C     		mov	r0, r3
 291 0066 FFF7FEFF 		bl	LCD_WriteControl
ARM GAS  C:\Users\Petro\AppData\Local\Temp\ccmzP3bp.s 			page 10


 211:.\Generated_Source\PSoC4/LCD.c ****         default:
 292              		.loc 1 211 0
 293 006a C046     		mov	r8, r8
 294              	.L12:
 215:.\Generated_Source\PSoC4/LCD.c ****     }
 216:.\Generated_Source\PSoC4/LCD.c **** }
 295              		.loc 1 216 0
 296 006c BD46     		mov	sp, r7
 297 006e 02B0     		add	sp, sp, #8
 298              		@ sp needed
 299 0070 80BD     		pop	{r7, pc}
 300              		.cfi_endproc
 301              	.LFE6:
 302              		.size	LCD_Position, .-LCD_Position
 303 0072 C046     		.section	.text.LCD_PrintString,"ax",%progbits
 304              		.align	2
 305              		.global	LCD_PrintString
 306              		.code	16
 307              		.thumb_func
 308              		.type	LCD_PrintString, %function
 309              	LCD_PrintString:
 310              	.LFB7:
 217:.\Generated_Source\PSoC4/LCD.c **** 
 218:.\Generated_Source\PSoC4/LCD.c **** 
 219:.\Generated_Source\PSoC4/LCD.c **** /*******************************************************************************
 220:.\Generated_Source\PSoC4/LCD.c **** * Function Name: LCD_PrintString
 221:.\Generated_Source\PSoC4/LCD.c **** ********************************************************************************
 222:.\Generated_Source\PSoC4/LCD.c **** *
 223:.\Generated_Source\PSoC4/LCD.c **** * Summary:
 224:.\Generated_Source\PSoC4/LCD.c **** *  Writes a zero terminated string to the LCD.
 225:.\Generated_Source\PSoC4/LCD.c **** *
 226:.\Generated_Source\PSoC4/LCD.c **** * Parameters:
 227:.\Generated_Source\PSoC4/LCD.c **** *  string: Pointer to head of char8 array to be written to the LCD module
 228:.\Generated_Source\PSoC4/LCD.c **** *
 229:.\Generated_Source\PSoC4/LCD.c **** * Return:
 230:.\Generated_Source\PSoC4/LCD.c **** *  None.
 231:.\Generated_Source\PSoC4/LCD.c **** *
 232:.\Generated_Source\PSoC4/LCD.c **** *******************************************************************************/
 233:.\Generated_Source\PSoC4/LCD.c **** void LCD_PrintString(char8 const string[]) 
 234:.\Generated_Source\PSoC4/LCD.c **** {
 311              		.loc 1 234 0
 312              		.cfi_startproc
 313 0000 80B5     		push	{r7, lr}
 314              		.cfi_def_cfa_offset 8
 315              		.cfi_offset 7, -8
 316              		.cfi_offset 14, -4
 317 0002 84B0     		sub	sp, sp, #16
 318              		.cfi_def_cfa_offset 24
 319 0004 00AF     		add	r7, sp, #0
 320              		.cfi_def_cfa_register 7
 321 0006 7860     		str	r0, [r7, #4]
 235:.\Generated_Source\PSoC4/LCD.c ****     uint8 indexU8 = 1u;
 322              		.loc 1 235 0
 323 0008 0F23     		mov	r3, #15
 324 000a FB18     		add	r3, r7, r3
 325 000c 0122     		mov	r2, #1
 326 000e 1A70     		strb	r2, [r3]
ARM GAS  C:\Users\Petro\AppData\Local\Temp\ccmzP3bp.s 			page 11


 236:.\Generated_Source\PSoC4/LCD.c ****     char8 current = *string;
 327              		.loc 1 236 0
 328 0010 0E23     		mov	r3, #14
 329 0012 FB18     		add	r3, r7, r3
 330 0014 7A68     		ldr	r2, [r7, #4]
 331 0016 1278     		ldrb	r2, [r2]
 332 0018 1A70     		strb	r2, [r3]
 237:.\Generated_Source\PSoC4/LCD.c **** 
 238:.\Generated_Source\PSoC4/LCD.c ****     /* Until null is reached, print next character */
 239:.\Generated_Source\PSoC4/LCD.c ****     while((char8) '\0' != current)
 333              		.loc 1 239 0
 334 001a 15E0     		b	.L21
 335              	.L22:
 240:.\Generated_Source\PSoC4/LCD.c ****     {
 241:.\Generated_Source\PSoC4/LCD.c ****         LCD_WriteData((uint8)current);
 336              		.loc 1 241 0
 337 001c 0E23     		mov	r3, #14
 338 001e FB18     		add	r3, r7, r3
 339 0020 1B78     		ldrb	r3, [r3]
 340 0022 181C     		mov	r0, r3
 341 0024 FFF7FEFF 		bl	LCD_WriteData
 242:.\Generated_Source\PSoC4/LCD.c ****         current = string[indexU8];
 342              		.loc 1 242 0
 343 0028 0F23     		mov	r3, #15
 344 002a FB18     		add	r3, r7, r3
 345 002c 1B78     		ldrb	r3, [r3]
 346 002e 7A68     		ldr	r2, [r7, #4]
 347 0030 D218     		add	r2, r2, r3
 348 0032 0E23     		mov	r3, #14
 349 0034 FB18     		add	r3, r7, r3
 350 0036 1278     		ldrb	r2, [r2]
 351 0038 1A70     		strb	r2, [r3]
 243:.\Generated_Source\PSoC4/LCD.c ****         indexU8++;
 352              		.loc 1 243 0
 353 003a 0F23     		mov	r3, #15
 354 003c FB18     		add	r3, r7, r3
 355 003e 1A78     		ldrb	r2, [r3]
 356 0040 0F23     		mov	r3, #15
 357 0042 FB18     		add	r3, r7, r3
 358 0044 0132     		add	r2, r2, #1
 359 0046 1A70     		strb	r2, [r3]
 360              	.L21:
 239:.\Generated_Source\PSoC4/LCD.c ****     {
 361              		.loc 1 239 0
 362 0048 0E23     		mov	r3, #14
 363 004a FB18     		add	r3, r7, r3
 364 004c 1B78     		ldrb	r3, [r3]
 365 004e 002B     		cmp	r3, #0
 366 0050 E4D1     		bne	.L22
 244:.\Generated_Source\PSoC4/LCD.c ****     }
 245:.\Generated_Source\PSoC4/LCD.c **** }
 367              		.loc 1 245 0
 368 0052 BD46     		mov	sp, r7
 369 0054 04B0     		add	sp, sp, #16
 370              		@ sp needed
 371 0056 80BD     		pop	{r7, pc}
 372              		.cfi_endproc
ARM GAS  C:\Users\Petro\AppData\Local\Temp\ccmzP3bp.s 			page 12


 373              	.LFE7:
 374              		.size	LCD_PrintString, .-LCD_PrintString
 375              		.section	.text.LCD_PutChar,"ax",%progbits
 376              		.align	2
 377              		.global	LCD_PutChar
 378              		.code	16
 379              		.thumb_func
 380              		.type	LCD_PutChar, %function
 381              	LCD_PutChar:
 382              	.LFB8:
 246:.\Generated_Source\PSoC4/LCD.c **** 
 247:.\Generated_Source\PSoC4/LCD.c **** 
 248:.\Generated_Source\PSoC4/LCD.c **** /*******************************************************************************
 249:.\Generated_Source\PSoC4/LCD.c **** *  Function Name: LCD_PutChar
 250:.\Generated_Source\PSoC4/LCD.c **** ********************************************************************************
 251:.\Generated_Source\PSoC4/LCD.c **** *
 252:.\Generated_Source\PSoC4/LCD.c **** * Summary:
 253:.\Generated_Source\PSoC4/LCD.c **** *  Writes a single character to the current cursor position of the LCD module.
 254:.\Generated_Source\PSoC4/LCD.c **** *  Custom character names (_CUSTOM_0 through
 255:.\Generated_Source\PSoC4/LCD.c **** *  _CUSTOM_7) are acceptable as inputs.
 256:.\Generated_Source\PSoC4/LCD.c **** *
 257:.\Generated_Source\PSoC4/LCD.c **** * Parameters:
 258:.\Generated_Source\PSoC4/LCD.c **** *  character: Character to be written to LCD
 259:.\Generated_Source\PSoC4/LCD.c **** *
 260:.\Generated_Source\PSoC4/LCD.c **** * Return:
 261:.\Generated_Source\PSoC4/LCD.c **** *  None.
 262:.\Generated_Source\PSoC4/LCD.c **** *
 263:.\Generated_Source\PSoC4/LCD.c **** *******************************************************************************/
 264:.\Generated_Source\PSoC4/LCD.c **** void LCD_PutChar(char8 character) 
 265:.\Generated_Source\PSoC4/LCD.c **** {
 383              		.loc 1 265 0
 384              		.cfi_startproc
 385 0000 80B5     		push	{r7, lr}
 386              		.cfi_def_cfa_offset 8
 387              		.cfi_offset 7, -8
 388              		.cfi_offset 14, -4
 389 0002 82B0     		sub	sp, sp, #8
 390              		.cfi_def_cfa_offset 16
 391 0004 00AF     		add	r7, sp, #0
 392              		.cfi_def_cfa_register 7
 393 0006 021C     		mov	r2, r0
 394 0008 FB1D     		add	r3, r7, #7
 395 000a 1A70     		strb	r2, [r3]
 266:.\Generated_Source\PSoC4/LCD.c ****     LCD_WriteData((uint8)character);
 396              		.loc 1 266 0
 397 000c FB1D     		add	r3, r7, #7
 398 000e 1B78     		ldrb	r3, [r3]
 399 0010 181C     		mov	r0, r3
 400 0012 FFF7FEFF 		bl	LCD_WriteData
 267:.\Generated_Source\PSoC4/LCD.c **** }
 401              		.loc 1 267 0
 402 0016 BD46     		mov	sp, r7
 403 0018 02B0     		add	sp, sp, #8
 404              		@ sp needed
 405 001a 80BD     		pop	{r7, pc}
 406              		.cfi_endproc
 407              	.LFE8:
ARM GAS  C:\Users\Petro\AppData\Local\Temp\ccmzP3bp.s 			page 13


 408              		.size	LCD_PutChar, .-LCD_PutChar
 409              		.section	.text.LCD_WriteData,"ax",%progbits
 410              		.align	2
 411              		.global	LCD_WriteData
 412              		.code	16
 413              		.thumb_func
 414              		.type	LCD_WriteData, %function
 415              	LCD_WriteData:
 416              	.LFB9:
 268:.\Generated_Source\PSoC4/LCD.c **** 
 269:.\Generated_Source\PSoC4/LCD.c **** 
 270:.\Generated_Source\PSoC4/LCD.c **** /*******************************************************************************
 271:.\Generated_Source\PSoC4/LCD.c **** *  Function Name: LCD_WriteData
 272:.\Generated_Source\PSoC4/LCD.c **** ********************************************************************************
 273:.\Generated_Source\PSoC4/LCD.c **** *
 274:.\Generated_Source\PSoC4/LCD.c **** * Summary:
 275:.\Generated_Source\PSoC4/LCD.c **** *  Writes a data byte to the LCD module's Data Display RAM.
 276:.\Generated_Source\PSoC4/LCD.c **** *
 277:.\Generated_Source\PSoC4/LCD.c **** * Parameters:
 278:.\Generated_Source\PSoC4/LCD.c **** *  dByte: Byte to be written to the LCD module
 279:.\Generated_Source\PSoC4/LCD.c **** *
 280:.\Generated_Source\PSoC4/LCD.c **** * Return:
 281:.\Generated_Source\PSoC4/LCD.c **** *  None.
 282:.\Generated_Source\PSoC4/LCD.c **** *
 283:.\Generated_Source\PSoC4/LCD.c **** *******************************************************************************/
 284:.\Generated_Source\PSoC4/LCD.c **** void LCD_WriteData(uint8 dByte) 
 285:.\Generated_Source\PSoC4/LCD.c **** {
 417              		.loc 1 285 0
 418              		.cfi_startproc
 419 0000 80B5     		push	{r7, lr}
 420              		.cfi_def_cfa_offset 8
 421              		.cfi_offset 7, -8
 422              		.cfi_offset 14, -4
 423 0002 84B0     		sub	sp, sp, #16
 424              		.cfi_def_cfa_offset 24
 425 0004 00AF     		add	r7, sp, #0
 426              		.cfi_def_cfa_register 7
 427 0006 021C     		mov	r2, r0
 428 0008 FB1D     		add	r3, r7, #7
 429 000a 1A70     		strb	r2, [r3]
 286:.\Generated_Source\PSoC4/LCD.c ****     uint8 nibble;
 287:.\Generated_Source\PSoC4/LCD.c **** 
 288:.\Generated_Source\PSoC4/LCD.c ****     LCD_IsReady();
 430              		.loc 1 288 0
 431 000c FFF7FEFF 		bl	LCD_IsReady
 289:.\Generated_Source\PSoC4/LCD.c ****     nibble = dByte >> LCD_NIBBLE_SHIFT;
 432              		.loc 1 289 0
 433 0010 0F23     		mov	r3, #15
 434 0012 FB18     		add	r3, r7, r3
 435 0014 FA1D     		add	r2, r7, #7
 436 0016 1278     		ldrb	r2, [r2]
 437 0018 1209     		lsr	r2, r2, #4
 438 001a 1A70     		strb	r2, [r3]
 290:.\Generated_Source\PSoC4/LCD.c **** 
 291:.\Generated_Source\PSoC4/LCD.c ****     /* Write high nibble */
 292:.\Generated_Source\PSoC4/LCD.c ****     LCD_WrDatNib(nibble);
 439              		.loc 1 292 0
ARM GAS  C:\Users\Petro\AppData\Local\Temp\ccmzP3bp.s 			page 14


 440 001c 0F23     		mov	r3, #15
 441 001e FB18     		add	r3, r7, r3
 442 0020 1B78     		ldrb	r3, [r3]
 443 0022 181C     		mov	r0, r3
 444 0024 FFF7FEFF 		bl	LCD_WrDatNib
 293:.\Generated_Source\PSoC4/LCD.c **** 
 294:.\Generated_Source\PSoC4/LCD.c ****     nibble = dByte & LCD_NIBBLE_MASK;
 445              		.loc 1 294 0
 446 0028 0F23     		mov	r3, #15
 447 002a FB18     		add	r3, r7, r3
 448 002c FA1D     		add	r2, r7, #7
 449 002e 1278     		ldrb	r2, [r2]
 450 0030 0F21     		mov	r1, #15
 451 0032 0A40     		and	r2, r1
 452 0034 1A70     		strb	r2, [r3]
 295:.\Generated_Source\PSoC4/LCD.c ****     /* Write low nibble */
 296:.\Generated_Source\PSoC4/LCD.c ****     LCD_WrDatNib(nibble);
 453              		.loc 1 296 0
 454 0036 0F23     		mov	r3, #15
 455 0038 FB18     		add	r3, r7, r3
 456 003a 1B78     		ldrb	r3, [r3]
 457 003c 181C     		mov	r0, r3
 458 003e FFF7FEFF 		bl	LCD_WrDatNib
 297:.\Generated_Source\PSoC4/LCD.c **** }
 459              		.loc 1 297 0
 460 0042 BD46     		mov	sp, r7
 461 0044 04B0     		add	sp, sp, #16
 462              		@ sp needed
 463 0046 80BD     		pop	{r7, pc}
 464              		.cfi_endproc
 465              	.LFE9:
 466              		.size	LCD_WriteData, .-LCD_WriteData
 467              		.section	.text.LCD_WriteControl,"ax",%progbits
 468              		.align	2
 469              		.global	LCD_WriteControl
 470              		.code	16
 471              		.thumb_func
 472              		.type	LCD_WriteControl, %function
 473              	LCD_WriteControl:
 474              	.LFB10:
 298:.\Generated_Source\PSoC4/LCD.c **** 
 299:.\Generated_Source\PSoC4/LCD.c **** 
 300:.\Generated_Source\PSoC4/LCD.c **** /*******************************************************************************
 301:.\Generated_Source\PSoC4/LCD.c **** *  Function Name: LCD_WriteControl
 302:.\Generated_Source\PSoC4/LCD.c **** ********************************************************************************
 303:.\Generated_Source\PSoC4/LCD.c **** *
 304:.\Generated_Source\PSoC4/LCD.c **** * Summary:
 305:.\Generated_Source\PSoC4/LCD.c **** *  Writes a command byte to the LCD module.
 306:.\Generated_Source\PSoC4/LCD.c **** *
 307:.\Generated_Source\PSoC4/LCD.c **** * Parameters:
 308:.\Generated_Source\PSoC4/LCD.c **** *  cByte:  The byte to be written to theLCD module
 309:.\Generated_Source\PSoC4/LCD.c **** * 
 310:.\Generated_Source\PSoC4/LCD.c **** * Return:
 311:.\Generated_Source\PSoC4/LCD.c **** *  None.
 312:.\Generated_Source\PSoC4/LCD.c **** *
 313:.\Generated_Source\PSoC4/LCD.c **** *******************************************************************************/
 314:.\Generated_Source\PSoC4/LCD.c **** void LCD_WriteControl(uint8 cByte) 
ARM GAS  C:\Users\Petro\AppData\Local\Temp\ccmzP3bp.s 			page 15


 315:.\Generated_Source\PSoC4/LCD.c **** {
 475              		.loc 1 315 0
 476              		.cfi_startproc
 477 0000 80B5     		push	{r7, lr}
 478              		.cfi_def_cfa_offset 8
 479              		.cfi_offset 7, -8
 480              		.cfi_offset 14, -4
 481 0002 84B0     		sub	sp, sp, #16
 482              		.cfi_def_cfa_offset 24
 483 0004 00AF     		add	r7, sp, #0
 484              		.cfi_def_cfa_register 7
 485 0006 021C     		mov	r2, r0
 486 0008 FB1D     		add	r3, r7, #7
 487 000a 1A70     		strb	r2, [r3]
 316:.\Generated_Source\PSoC4/LCD.c ****     uint8 nibble;
 317:.\Generated_Source\PSoC4/LCD.c **** 
 318:.\Generated_Source\PSoC4/LCD.c ****     LCD_IsReady();
 488              		.loc 1 318 0
 489 000c FFF7FEFF 		bl	LCD_IsReady
 319:.\Generated_Source\PSoC4/LCD.c **** 
 320:.\Generated_Source\PSoC4/LCD.c ****     nibble = cByte >> LCD_NIBBLE_SHIFT;
 490              		.loc 1 320 0
 491 0010 0F23     		mov	r3, #15
 492 0012 FB18     		add	r3, r7, r3
 493 0014 FA1D     		add	r2, r7, #7
 494 0016 1278     		ldrb	r2, [r2]
 495 0018 1209     		lsr	r2, r2, #4
 496 001a 1A70     		strb	r2, [r3]
 321:.\Generated_Source\PSoC4/LCD.c ****     
 322:.\Generated_Source\PSoC4/LCD.c ****     /* WrCntrlNib(High Nibble) */
 323:.\Generated_Source\PSoC4/LCD.c ****     LCD_WrCntrlNib(nibble);
 497              		.loc 1 323 0
 498 001c 0F23     		mov	r3, #15
 499 001e FB18     		add	r3, r7, r3
 500 0020 1B78     		ldrb	r3, [r3]
 501 0022 181C     		mov	r0, r3
 502 0024 FFF7FEFF 		bl	LCD_WrCntrlNib
 324:.\Generated_Source\PSoC4/LCD.c ****     nibble = cByte & LCD_NIBBLE_MASK;
 503              		.loc 1 324 0
 504 0028 0F23     		mov	r3, #15
 505 002a FB18     		add	r3, r7, r3
 506 002c FA1D     		add	r2, r7, #7
 507 002e 1278     		ldrb	r2, [r2]
 508 0030 0F21     		mov	r1, #15
 509 0032 0A40     		and	r2, r1
 510 0034 1A70     		strb	r2, [r3]
 325:.\Generated_Source\PSoC4/LCD.c **** 
 326:.\Generated_Source\PSoC4/LCD.c ****     /* WrCntrlNib(Low Nibble) */
 327:.\Generated_Source\PSoC4/LCD.c ****     LCD_WrCntrlNib(nibble);
 511              		.loc 1 327 0
 512 0036 0F23     		mov	r3, #15
 513 0038 FB18     		add	r3, r7, r3
 514 003a 1B78     		ldrb	r3, [r3]
 515 003c 181C     		mov	r0, r3
 516 003e FFF7FEFF 		bl	LCD_WrCntrlNib
 328:.\Generated_Source\PSoC4/LCD.c **** }
 517              		.loc 1 328 0
ARM GAS  C:\Users\Petro\AppData\Local\Temp\ccmzP3bp.s 			page 16


 518 0042 BD46     		mov	sp, r7
 519 0044 04B0     		add	sp, sp, #16
 520              		@ sp needed
 521 0046 80BD     		pop	{r7, pc}
 522              		.cfi_endproc
 523              	.LFE10:
 524              		.size	LCD_WriteControl, .-LCD_WriteControl
 525              		.section	.text.LCD_IsReady,"ax",%progbits
 526              		.align	2
 527              		.global	LCD_IsReady
 528              		.code	16
 529              		.thumb_func
 530              		.type	LCD_IsReady, %function
 531              	LCD_IsReady:
 532              	.LFB11:
 329:.\Generated_Source\PSoC4/LCD.c **** 
 330:.\Generated_Source\PSoC4/LCD.c **** 
 331:.\Generated_Source\PSoC4/LCD.c **** /*******************************************************************************
 332:.\Generated_Source\PSoC4/LCD.c **** * Function Name: LCD_IsReady
 333:.\Generated_Source\PSoC4/LCD.c **** ********************************************************************************
 334:.\Generated_Source\PSoC4/LCD.c **** *
 335:.\Generated_Source\PSoC4/LCD.c **** * Summary:
 336:.\Generated_Source\PSoC4/LCD.c **** *  Polls the LCD until the ready bit is set or a timeout occurs.
 337:.\Generated_Source\PSoC4/LCD.c **** *
 338:.\Generated_Source\PSoC4/LCD.c **** * Parameters:
 339:.\Generated_Source\PSoC4/LCD.c **** *  None.
 340:.\Generated_Source\PSoC4/LCD.c **** *
 341:.\Generated_Source\PSoC4/LCD.c **** * Return:
 342:.\Generated_Source\PSoC4/LCD.c **** *  None.
 343:.\Generated_Source\PSoC4/LCD.c **** *
 344:.\Generated_Source\PSoC4/LCD.c **** * Note:
 345:.\Generated_Source\PSoC4/LCD.c **** *  Changes the pins to High-Z.
 346:.\Generated_Source\PSoC4/LCD.c **** *
 347:.\Generated_Source\PSoC4/LCD.c **** *******************************************************************************/
 348:.\Generated_Source\PSoC4/LCD.c **** void LCD_IsReady(void) 
 349:.\Generated_Source\PSoC4/LCD.c **** {
 533              		.loc 1 349 0
 534              		.cfi_startproc
 535 0000 80B5     		push	{r7, lr}
 536              		.cfi_def_cfa_offset 8
 537              		.cfi_offset 7, -8
 538              		.cfi_offset 14, -4
 539 0002 82B0     		sub	sp, sp, #8
 540              		.cfi_def_cfa_offset 16
 541 0004 00AF     		add	r7, sp, #0
 542              		.cfi_def_cfa_register 7
 350:.\Generated_Source\PSoC4/LCD.c ****     uint32 value;
 351:.\Generated_Source\PSoC4/LCD.c ****     uint32 timeout;
 352:.\Generated_Source\PSoC4/LCD.c ****     timeout = LCD_READY_DELAY;
 543              		.loc 1 352 0
 544 0006 CA23     		mov	r3, #202
 545 0008 5B00     		lsl	r3, r3, #1
 546 000a 7B60     		str	r3, [r7, #4]
 353:.\Generated_Source\PSoC4/LCD.c **** 
 354:.\Generated_Source\PSoC4/LCD.c ****     /* Clear LCD port*/
 355:.\Generated_Source\PSoC4/LCD.c ****     LCD_PORT_DR_REG &= ((uint32)(~LCD_PORT_MASK));
 547              		.loc 1 355 0
ARM GAS  C:\Users\Petro\AppData\Local\Temp\ccmzP3bp.s 			page 17


 548 000c 374B     		ldr	r3, .L30
 549 000e 374A     		ldr	r2, .L30
 550 0010 1268     		ldr	r2, [r2]
 551 0012 7F21     		mov	r1, #127
 552 0014 8A43     		bic	r2, r1
 553 0016 1A60     		str	r2, [r3]
 356:.\Generated_Source\PSoC4/LCD.c **** 
 357:.\Generated_Source\PSoC4/LCD.c ****     /* PSoC4 has a little different from PSoC3/5 port/pin organization for setting Drive Modes.
 358:.\Generated_Source\PSoC4/LCD.c ****   
 359:.\Generated_Source\PSoC4/LCD.c ****     */
 360:.\Generated_Source\PSoC4/LCD.c ****     #if (CY_PSOC4)
 361:.\Generated_Source\PSoC4/LCD.c ****         
 362:.\Generated_Source\PSoC4/LCD.c ****         /* Mask off data pins to clear old values out */
 363:.\Generated_Source\PSoC4/LCD.c ****         value = LCD_PORT_PC_REG & ((uint32) (~ LCD_DM_DATA_MASK));
 554              		.loc 1 363 0
 555 0018 354B     		ldr	r3, .L30+4
 556 001a 1B68     		ldr	r3, [r3]
 557 001c 1B0B     		lsr	r3, r3, #12
 558 001e 1B03     		lsl	r3, r3, #12
 559 0020 3B60     		str	r3, [r7]
 364:.\Generated_Source\PSoC4/LCD.c ****         /* Load in high Z values for data pins, others unchanged */
 365:.\Generated_Source\PSoC4/LCD.c ****         LCD_PORT_PC_REG = value | LCD_HIGH_Z_DATA_DM;
 560              		.loc 1 365 0
 561 0022 334B     		ldr	r3, .L30+4
 562 0024 3A68     		ldr	r2, [r7]
 563 0026 3349     		ldr	r1, .L30+8
 564 0028 0A43     		orr	r2, r1
 565 002a 1A60     		str	r2, [r3]
 366:.\Generated_Source\PSoC4/LCD.c **** 
 367:.\Generated_Source\PSoC4/LCD.c ****     #else
 368:.\Generated_Source\PSoC4/LCD.c ****     
 369:.\Generated_Source\PSoC4/LCD.c ****         /* Change Port to High-Z Status on data pins */
 370:.\Generated_Source\PSoC4/LCD.c **** 
 371:.\Generated_Source\PSoC4/LCD.c ****         /* Mask off data pins to clear old values out */
 372:.\Generated_Source\PSoC4/LCD.c ****         value = LCD_PORT_DM0_REG & ((uint8)(~LCD_DATA_MASK));
 373:.\Generated_Source\PSoC4/LCD.c ****         /* Load in high Z values for data pins, others unchanged */
 374:.\Generated_Source\PSoC4/LCD.c ****         LCD_PORT_DM0_REG = value | (LCD_HIGH_Z_DM0 & LCD_DATA_MASK);
 375:.\Generated_Source\PSoC4/LCD.c **** 
 376:.\Generated_Source\PSoC4/LCD.c ****         /* Mask off data pins to clear old values out */
 377:.\Generated_Source\PSoC4/LCD.c ****         value = LCD_PORT_DM1_REG & ((uint8)(~LCD_DATA_MASK));
 378:.\Generated_Source\PSoC4/LCD.c ****         /* Load in high Z values for data pins, others unchanged */
 379:.\Generated_Source\PSoC4/LCD.c ****         LCD_PORT_DM1_REG = value;
 380:.\Generated_Source\PSoC4/LCD.c **** 
 381:.\Generated_Source\PSoC4/LCD.c ****         /* Mask off data pins to clear old values out */
 382:.\Generated_Source\PSoC4/LCD.c ****         value = LCD_PORT_DM2_REG & ((uint8)(~LCD_DATA_MASK));
 383:.\Generated_Source\PSoC4/LCD.c ****         /* Load in high Z values for data pins, others unchanged */
 384:.\Generated_Source\PSoC4/LCD.c ****         LCD_PORT_DM2_REG = value;
 385:.\Generated_Source\PSoC4/LCD.c ****     
 386:.\Generated_Source\PSoC4/LCD.c ****     #endif /* CY_PSOC4 */
 387:.\Generated_Source\PSoC4/LCD.c ****     
 388:.\Generated_Source\PSoC4/LCD.c ****     /* Make sure RS is low */
 389:.\Generated_Source\PSoC4/LCD.c ****     LCD_PORT_DR_REG &= ((uint32)(~LCD_RS));
 566              		.loc 1 389 0
 567 002c 2F4B     		ldr	r3, .L30
 568 002e 2F4A     		ldr	r2, .L30
 569 0030 1268     		ldr	r2, [r2]
 570 0032 2021     		mov	r1, #32
ARM GAS  C:\Users\Petro\AppData\Local\Temp\ccmzP3bp.s 			page 18


 571 0034 8A43     		bic	r2, r1
 572 0036 1A60     		str	r2, [r3]
 390:.\Generated_Source\PSoC4/LCD.c **** 
 391:.\Generated_Source\PSoC4/LCD.c ****     /* Set R/W high to read */
 392:.\Generated_Source\PSoC4/LCD.c ****     LCD_PORT_DR_REG |= LCD_RW;
 573              		.loc 1 392 0
 574 0038 2C4B     		ldr	r3, .L30
 575 003a 2C4A     		ldr	r2, .L30
 576 003c 1268     		ldr	r2, [r2]
 577 003e 4021     		mov	r1, #64
 578 0040 0A43     		orr	r2, r1
 579 0042 1A60     		str	r2, [r3]
 580              	.L29:
 393:.\Generated_Source\PSoC4/LCD.c **** 
 394:.\Generated_Source\PSoC4/LCD.c ****     do
 395:.\Generated_Source\PSoC4/LCD.c ****     {
 396:.\Generated_Source\PSoC4/LCD.c ****         /* 40 ns delay required before rising Enable and 500ns between neighbour Enables */
 397:.\Generated_Source\PSoC4/LCD.c ****         CyDelayUs(0u);
 581              		.loc 1 397 0
 582 0044 0020     		mov	r0, #0
 583 0046 FFF7FEFF 		bl	CyDelayUs
 398:.\Generated_Source\PSoC4/LCD.c **** 
 399:.\Generated_Source\PSoC4/LCD.c ****         /* Set E high */
 400:.\Generated_Source\PSoC4/LCD.c ****         LCD_PORT_DR_REG |= LCD_E;
 584              		.loc 1 400 0
 585 004a 284B     		ldr	r3, .L30
 586 004c 274A     		ldr	r2, .L30
 587 004e 1268     		ldr	r2, [r2]
 588 0050 1021     		mov	r1, #16
 589 0052 0A43     		orr	r2, r1
 590 0054 1A60     		str	r2, [r3]
 401:.\Generated_Source\PSoC4/LCD.c **** 
 402:.\Generated_Source\PSoC4/LCD.c ****         /* 360 ns delay setup time for data pins */
 403:.\Generated_Source\PSoC4/LCD.c ****         CyDelayUs(1u);
 591              		.loc 1 403 0
 592 0056 0120     		mov	r0, #1
 593 0058 FFF7FEFF 		bl	CyDelayUs
 404:.\Generated_Source\PSoC4/LCD.c **** 
 405:.\Generated_Source\PSoC4/LCD.c ****         /* Get port state */
 406:.\Generated_Source\PSoC4/LCD.c ****         value = LCD_PORT_PS_REG;
 594              		.loc 1 406 0
 595 005c 264B     		ldr	r3, .L30+12
 596 005e 1B68     		ldr	r3, [r3]
 597 0060 3B60     		str	r3, [r7]
 407:.\Generated_Source\PSoC4/LCD.c **** 
 408:.\Generated_Source\PSoC4/LCD.c ****         /* Set enable low */
 409:.\Generated_Source\PSoC4/LCD.c ****         LCD_PORT_DR_REG &= ((uint32)(~LCD_E));
 598              		.loc 1 409 0
 599 0062 224B     		ldr	r3, .L30
 600 0064 214A     		ldr	r2, .L30
 601 0066 1268     		ldr	r2, [r2]
 602 0068 1021     		mov	r1, #16
 603 006a 8A43     		bic	r2, r1
 604 006c 1A60     		str	r2, [r3]
 410:.\Generated_Source\PSoC4/LCD.c **** 
 411:.\Generated_Source\PSoC4/LCD.c ****         /* This gives true delay between disabling Enable bit and polling Ready bit */
 412:.\Generated_Source\PSoC4/LCD.c ****         CyDelayUs(0u);
ARM GAS  C:\Users\Petro\AppData\Local\Temp\ccmzP3bp.s 			page 19


 605              		.loc 1 412 0
 606 006e 0020     		mov	r0, #0
 607 0070 FFF7FEFF 		bl	CyDelayUs
 413:.\Generated_Source\PSoC4/LCD.c **** 
 414:.\Generated_Source\PSoC4/LCD.c ****         /* Extract ready bit */
 415:.\Generated_Source\PSoC4/LCD.c ****         value &= LCD_READY_BIT;
 608              		.loc 1 415 0
 609 0074 3B68     		ldr	r3, [r7]
 610 0076 0822     		mov	r2, #8
 611 0078 1340     		and	r3, r2
 612 007a 3B60     		str	r3, [r7]
 416:.\Generated_Source\PSoC4/LCD.c **** 
 417:.\Generated_Source\PSoC4/LCD.c ****         /* Set E high as we in 4-bit interface we need extra operation */
 418:.\Generated_Source\PSoC4/LCD.c ****         LCD_PORT_DR_REG |= LCD_E;
 613              		.loc 1 418 0
 614 007c 1B4B     		ldr	r3, .L30
 615 007e 1B4A     		ldr	r2, .L30
 616 0080 1268     		ldr	r2, [r2]
 617 0082 1021     		mov	r1, #16
 618 0084 0A43     		orr	r2, r1
 619 0086 1A60     		str	r2, [r3]
 419:.\Generated_Source\PSoC4/LCD.c **** 
 420:.\Generated_Source\PSoC4/LCD.c ****         /* 360 ns delay setup time for data pins */
 421:.\Generated_Source\PSoC4/LCD.c ****         CyDelayUs(1u);
 620              		.loc 1 421 0
 621 0088 0120     		mov	r0, #1
 622 008a FFF7FEFF 		bl	CyDelayUs
 422:.\Generated_Source\PSoC4/LCD.c **** 
 423:.\Generated_Source\PSoC4/LCD.c ****         /* Set enable low */
 424:.\Generated_Source\PSoC4/LCD.c ****         LCD_PORT_DR_REG &= ((uint32)(~LCD_E));
 623              		.loc 1 424 0
 624 008e 174B     		ldr	r3, .L30
 625 0090 164A     		ldr	r2, .L30
 626 0092 1268     		ldr	r2, [r2]
 627 0094 1021     		mov	r1, #16
 628 0096 8A43     		bic	r2, r1
 629 0098 1A60     		str	r2, [r3]
 425:.\Generated_Source\PSoC4/LCD.c **** 
 426:.\Generated_Source\PSoC4/LCD.c ****         /* If LCD is not ready make a delay */
 427:.\Generated_Source\PSoC4/LCD.c ****         if (value == 0u)
 630              		.loc 1 427 0
 631 009a 3B68     		ldr	r3, [r7]
 632 009c 002B     		cmp	r3, #0
 633 009e 02D1     		bne	.L27
 428:.\Generated_Source\PSoC4/LCD.c ****         {
 429:.\Generated_Source\PSoC4/LCD.c ****             CyDelayUs(10u);
 634              		.loc 1 429 0
 635 00a0 0A20     		mov	r0, #10
 636 00a2 FFF7FEFF 		bl	CyDelayUs
 637              	.L27:
 430:.\Generated_Source\PSoC4/LCD.c ****         }
 431:.\Generated_Source\PSoC4/LCD.c **** 
 432:.\Generated_Source\PSoC4/LCD.c ****         /* Repeat until bit 4 is not zero or until timeout. */
 433:.\Generated_Source\PSoC4/LCD.c ****         timeout--;
 638              		.loc 1 433 0
 639 00a6 7B68     		ldr	r3, [r7, #4]
 640 00a8 013B     		sub	r3, r3, #1
ARM GAS  C:\Users\Petro\AppData\Local\Temp\ccmzP3bp.s 			page 20


 641 00aa 7B60     		str	r3, [r7, #4]
 434:.\Generated_Source\PSoC4/LCD.c **** 
 435:.\Generated_Source\PSoC4/LCD.c ****     } while ((value != 0u) && (timeout > 0u));
 642              		.loc 1 435 0
 643 00ac 3B68     		ldr	r3, [r7]
 644 00ae 002B     		cmp	r3, #0
 645 00b0 02D0     		beq	.L28
 646              		.loc 1 435 0 is_stmt 0 discriminator 1
 647 00b2 7B68     		ldr	r3, [r7, #4]
 648 00b4 002B     		cmp	r3, #0
 649 00b6 C5D1     		bne	.L29
 650              	.L28:
 436:.\Generated_Source\PSoC4/LCD.c **** 
 437:.\Generated_Source\PSoC4/LCD.c ****     /* Set R/W low to write */
 438:.\Generated_Source\PSoC4/LCD.c ****     LCD_PORT_DR_REG &= ((uint32)(~LCD_RW));
 651              		.loc 1 438 0 is_stmt 1
 652 00b8 0C4B     		ldr	r3, .L30
 653 00ba 0C4A     		ldr	r2, .L30
 654 00bc 1268     		ldr	r2, [r2]
 655 00be 4021     		mov	r1, #64
 656 00c0 8A43     		bic	r2, r1
 657 00c2 1A60     		str	r2, [r3]
 439:.\Generated_Source\PSoC4/LCD.c **** 
 440:.\Generated_Source\PSoC4/LCD.c ****     /* Clear LCD port*/
 441:.\Generated_Source\PSoC4/LCD.c ****     LCD_PORT_DR_REG &= ((uint32)(~LCD_PORT_MASK));
 658              		.loc 1 441 0
 659 00c4 094B     		ldr	r3, .L30
 660 00c6 094A     		ldr	r2, .L30
 661 00c8 1268     		ldr	r2, [r2]
 662 00ca 7F21     		mov	r1, #127
 663 00cc 8A43     		bic	r2, r1
 664 00ce 1A60     		str	r2, [r3]
 442:.\Generated_Source\PSoC4/LCD.c **** 
 443:.\Generated_Source\PSoC4/LCD.c ****     #if (CY_PSOC4)
 444:.\Generated_Source\PSoC4/LCD.c ****         
 445:.\Generated_Source\PSoC4/LCD.c ****         /* Mask off data pins to clear old values out */
 446:.\Generated_Source\PSoC4/LCD.c ****         value = LCD_PORT_PC_REG & ((uint32)(~ LCD_DM_DATA_MASK));
 665              		.loc 1 446 0
 666 00d0 074B     		ldr	r3, .L30+4
 667 00d2 1B68     		ldr	r3, [r3]
 668 00d4 1B0B     		lsr	r3, r3, #12
 669 00d6 1B03     		lsl	r3, r3, #12
 670 00d8 3B60     		str	r3, [r7]
 447:.\Generated_Source\PSoC4/LCD.c ****         /* Load in high Z values for data pins, others unchanged */
 448:.\Generated_Source\PSoC4/LCD.c ****         LCD_PORT_PC_REG = value | LCD_STRONG_DATA_DM;
 671              		.loc 1 448 0
 672 00da 054B     		ldr	r3, .L30+4
 673 00dc 3A68     		ldr	r2, [r7]
 674 00de 0749     		ldr	r1, .L30+16
 675 00e0 0A43     		orr	r2, r1
 676 00e2 1A60     		str	r2, [r3]
 449:.\Generated_Source\PSoC4/LCD.c **** 
 450:.\Generated_Source\PSoC4/LCD.c ****     #else
 451:.\Generated_Source\PSoC4/LCD.c **** 
 452:.\Generated_Source\PSoC4/LCD.c ****         /* Change Port to Output (Strong) on data pins */
 453:.\Generated_Source\PSoC4/LCD.c ****         /* Mask off data pins to clear high z values out. Configure data pins 
 454:.\Generated_Source\PSoC4/LCD.c ****         * to Strong Drive, others unchanged.
ARM GAS  C:\Users\Petro\AppData\Local\Temp\ccmzP3bp.s 			page 21


 455:.\Generated_Source\PSoC4/LCD.c ****         */
 456:.\Generated_Source\PSoC4/LCD.c ****         LCD_PORT_DM0_REG &= ((uint8)(~LCD_DATA_MASK));
 457:.\Generated_Source\PSoC4/LCD.c ****         /* Mask off data pins to clear high z values out */
 458:.\Generated_Source\PSoC4/LCD.c ****         value = LCD_PORT_DM1_REG & ((uint8)(~LCD_DATA_MASK));
 459:.\Generated_Source\PSoC4/LCD.c ****         /* Configure data pins to Strong Drive, others unchanged */
 460:.\Generated_Source\PSoC4/LCD.c ****         LCD_PORT_DM1_REG = value | (LCD_STRONG_DM1 & LCD_DATA_MASK);
 461:.\Generated_Source\PSoC4/LCD.c **** 
 462:.\Generated_Source\PSoC4/LCD.c ****         /* Mask off data pins to clear high z values out */
 463:.\Generated_Source\PSoC4/LCD.c ****         value = LCD_PORT_DM2_REG & ((uint8)(~LCD_DATA_MASK));
 464:.\Generated_Source\PSoC4/LCD.c ****         /* Configure data pins to Strong Drive, others unchanged */
 465:.\Generated_Source\PSoC4/LCD.c ****         LCD_PORT_DM2_REG = value | (LCD_STRONG_DM2 & LCD_DATA_MASK);
 466:.\Generated_Source\PSoC4/LCD.c ****     
 467:.\Generated_Source\PSoC4/LCD.c ****     #endif /* CY_PSOC4 */
 468:.\Generated_Source\PSoC4/LCD.c **** }
 677              		.loc 1 468 0
 678 00e4 BD46     		mov	sp, r7
 679 00e6 02B0     		add	sp, sp, #8
 680              		@ sp needed
 681 00e8 80BD     		pop	{r7, pc}
 682              	.L31:
 683 00ea C046     		.align	2
 684              	.L30:
 685 00ec 00010440 		.word	1074004224
 686 00f0 08010440 		.word	1074004232
 687 00f4 49020000 		.word	585
 688 00f8 04010440 		.word	1074004228
 689 00fc B60D0000 		.word	3510
 690              		.cfi_endproc
 691              	.LFE11:
 692              		.size	LCD_IsReady, .-LCD_IsReady
 693              		.section	.text.LCD_WrDatNib,"ax",%progbits
 694              		.align	2
 695              		.code	16
 696              		.thumb_func
 697              		.type	LCD_WrDatNib, %function
 698              	LCD_WrDatNib:
 699              	.LFB12:
 469:.\Generated_Source\PSoC4/LCD.c **** 
 470:.\Generated_Source\PSoC4/LCD.c **** 
 471:.\Generated_Source\PSoC4/LCD.c **** /*******************************************************************************
 472:.\Generated_Source\PSoC4/LCD.c **** *  Function Name: LCD_WrDatNib
 473:.\Generated_Source\PSoC4/LCD.c **** ********************************************************************************
 474:.\Generated_Source\PSoC4/LCD.c **** *
 475:.\Generated_Source\PSoC4/LCD.c **** * Summary:
 476:.\Generated_Source\PSoC4/LCD.c **** *  Writes a data nibble to the LCD module.
 477:.\Generated_Source\PSoC4/LCD.c **** *
 478:.\Generated_Source\PSoC4/LCD.c **** * Parameters:
 479:.\Generated_Source\PSoC4/LCD.c **** *  nibble:  Byte containing nibble in the least significant nibble to be
 480:.\Generated_Source\PSoC4/LCD.c **** *           written to the LCD module.
 481:.\Generated_Source\PSoC4/LCD.c **** *
 482:.\Generated_Source\PSoC4/LCD.c **** * Return:
 483:.\Generated_Source\PSoC4/LCD.c **** *  None.
 484:.\Generated_Source\PSoC4/LCD.c **** *
 485:.\Generated_Source\PSoC4/LCD.c **** *******************************************************************************/
 486:.\Generated_Source\PSoC4/LCD.c **** static void LCD_WrDatNib(uint8 nibble) 
 487:.\Generated_Source\PSoC4/LCD.c **** {
 700              		.loc 1 487 0
ARM GAS  C:\Users\Petro\AppData\Local\Temp\ccmzP3bp.s 			page 22


 701              		.cfi_startproc
 702 0000 80B5     		push	{r7, lr}
 703              		.cfi_def_cfa_offset 8
 704              		.cfi_offset 7, -8
 705              		.cfi_offset 14, -4
 706 0002 82B0     		sub	sp, sp, #8
 707              		.cfi_def_cfa_offset 16
 708 0004 00AF     		add	r7, sp, #0
 709              		.cfi_def_cfa_register 7
 710 0006 021C     		mov	r2, r0
 711 0008 FB1D     		add	r3, r7, #7
 712 000a 1A70     		strb	r2, [r3]
 488:.\Generated_Source\PSoC4/LCD.c ****     /* RS should be low to select data register */
 489:.\Generated_Source\PSoC4/LCD.c ****     LCD_PORT_DR_REG |= LCD_RS;
 713              		.loc 1 489 0
 714 000c 154B     		ldr	r3, .L33
 715 000e 154A     		ldr	r2, .L33
 716 0010 1268     		ldr	r2, [r2]
 717 0012 2021     		mov	r1, #32
 718 0014 0A43     		orr	r2, r1
 719 0016 1A60     		str	r2, [r3]
 490:.\Generated_Source\PSoC4/LCD.c ****     /* Reset RW for write operation */
 491:.\Generated_Source\PSoC4/LCD.c ****     LCD_PORT_DR_REG &= ((uint32)(~LCD_RW));
 720              		.loc 1 491 0
 721 0018 124B     		ldr	r3, .L33
 722 001a 124A     		ldr	r2, .L33
 723 001c 1268     		ldr	r2, [r2]
 724 001e 4021     		mov	r1, #64
 725 0020 8A43     		bic	r2, r1
 726 0022 1A60     		str	r2, [r3]
 492:.\Generated_Source\PSoC4/LCD.c **** 
 493:.\Generated_Source\PSoC4/LCD.c ****     /* Guaranteed delay between Setting RS and RW and setting E bits */
 494:.\Generated_Source\PSoC4/LCD.c ****     CyDelayUs(10u);
 727              		.loc 1 494 0
 728 0024 0A20     		mov	r0, #10
 729 0026 FFF7FEFF 		bl	CyDelayUs
 495:.\Generated_Source\PSoC4/LCD.c ****     
 496:.\Generated_Source\PSoC4/LCD.c ****     /* Clear data pins */
 497:.\Generated_Source\PSoC4/LCD.c ****     LCD_PORT_DR_REG &= ((uint32)(~LCD_DATA_MASK));
 730              		.loc 1 497 0
 731 002a 0E4B     		ldr	r3, .L33
 732 002c 0D4A     		ldr	r2, .L33
 733 002e 1268     		ldr	r2, [r2]
 734 0030 0F21     		mov	r1, #15
 735 0032 8A43     		bic	r2, r1
 736 0034 1A60     		str	r2, [r3]
 498:.\Generated_Source\PSoC4/LCD.c **** 
 499:.\Generated_Source\PSoC4/LCD.c ****     /* Write data, bring E high */
 500:.\Generated_Source\PSoC4/LCD.c ****     #if(0u != LCD_PORT_SHIFT) /* MISRA forbids shift by 0 so need to handle that */
 501:.\Generated_Source\PSoC4/LCD.c ****         LCD_PORT_DR_REG |= 
 502:.\Generated_Source\PSoC4/LCD.c ****             (LCD_E | ((uint8)(((uint8) nibble) << LCD_PORT_SHIFT)));
 503:.\Generated_Source\PSoC4/LCD.c ****     #else
 504:.\Generated_Source\PSoC4/LCD.c ****         LCD_PORT_DR_REG |= (LCD_E | nibble);
 737              		.loc 1 504 0
 738 0036 0B4B     		ldr	r3, .L33
 739 0038 0A4A     		ldr	r2, .L33
 740 003a 1268     		ldr	r2, [r2]
ARM GAS  C:\Users\Petro\AppData\Local\Temp\ccmzP3bp.s 			page 23


 741 003c F91D     		add	r1, r7, #7
 742 003e 0978     		ldrb	r1, [r1]
 743 0040 1020     		mov	r0, #16
 744 0042 0143     		orr	r1, r0
 745 0044 C9B2     		uxtb	r1, r1
 746 0046 0A43     		orr	r2, r1
 747 0048 1A60     		str	r2, [r3]
 505:.\Generated_Source\PSoC4/LCD.c ****     #endif /* (0u != LCD_PORT_SHIFT) */
 506:.\Generated_Source\PSoC4/LCD.c **** 
 507:.\Generated_Source\PSoC4/LCD.c ****     /* Minimum of 230 ns delay */
 508:.\Generated_Source\PSoC4/LCD.c ****     CyDelayUs(10u);
 748              		.loc 1 508 0
 749 004a 0A20     		mov	r0, #10
 750 004c FFF7FEFF 		bl	CyDelayUs
 509:.\Generated_Source\PSoC4/LCD.c **** 
 510:.\Generated_Source\PSoC4/LCD.c ****     LCD_PORT_DR_REG &= ((uint32)(~LCD_E));
 751              		.loc 1 510 0
 752 0050 044B     		ldr	r3, .L33
 753 0052 044A     		ldr	r2, .L33
 754 0054 1268     		ldr	r2, [r2]
 755 0056 1021     		mov	r1, #16
 756 0058 8A43     		bic	r2, r1
 757 005a 1A60     		str	r2, [r3]
 511:.\Generated_Source\PSoC4/LCD.c **** }
 758              		.loc 1 511 0
 759 005c BD46     		mov	sp, r7
 760 005e 02B0     		add	sp, sp, #8
 761              		@ sp needed
 762 0060 80BD     		pop	{r7, pc}
 763              	.L34:
 764 0062 C046     		.align	2
 765              	.L33:
 766 0064 00010440 		.word	1074004224
 767              		.cfi_endproc
 768              	.LFE12:
 769              		.size	LCD_WrDatNib, .-LCD_WrDatNib
 770              		.section	.text.LCD_WrCntrlNib,"ax",%progbits
 771              		.align	2
 772              		.code	16
 773              		.thumb_func
 774              		.type	LCD_WrCntrlNib, %function
 775              	LCD_WrCntrlNib:
 776              	.LFB13:
 512:.\Generated_Source\PSoC4/LCD.c **** 
 513:.\Generated_Source\PSoC4/LCD.c **** 
 514:.\Generated_Source\PSoC4/LCD.c **** /*******************************************************************************
 515:.\Generated_Source\PSoC4/LCD.c **** *  Function Name: LCD_WrCntrlNib
 516:.\Generated_Source\PSoC4/LCD.c **** ********************************************************************************
 517:.\Generated_Source\PSoC4/LCD.c **** *
 518:.\Generated_Source\PSoC4/LCD.c **** * Summary:
 519:.\Generated_Source\PSoC4/LCD.c **** *  Writes a control nibble to the LCD module.
 520:.\Generated_Source\PSoC4/LCD.c **** *
 521:.\Generated_Source\PSoC4/LCD.c **** * Parameters:
 522:.\Generated_Source\PSoC4/LCD.c **** *  nibble: The byte containing a nibble in the four least significant bits.????
 523:.\Generated_Source\PSoC4/LCD.c **** *
 524:.\Generated_Source\PSoC4/LCD.c **** * Return:
 525:.\Generated_Source\PSoC4/LCD.c **** *  None.
ARM GAS  C:\Users\Petro\AppData\Local\Temp\ccmzP3bp.s 			page 24


 526:.\Generated_Source\PSoC4/LCD.c **** *
 527:.\Generated_Source\PSoC4/LCD.c **** *******************************************************************************/
 528:.\Generated_Source\PSoC4/LCD.c **** static void LCD_WrCntrlNib(uint8 nibble) 
 529:.\Generated_Source\PSoC4/LCD.c **** {
 777              		.loc 1 529 0
 778              		.cfi_startproc
 779 0000 80B5     		push	{r7, lr}
 780              		.cfi_def_cfa_offset 8
 781              		.cfi_offset 7, -8
 782              		.cfi_offset 14, -4
 783 0002 82B0     		sub	sp, sp, #8
 784              		.cfi_def_cfa_offset 16
 785 0004 00AF     		add	r7, sp, #0
 786              		.cfi_def_cfa_register 7
 787 0006 021C     		mov	r2, r0
 788 0008 FB1D     		add	r3, r7, #7
 789 000a 1A70     		strb	r2, [r3]
 530:.\Generated_Source\PSoC4/LCD.c ****     /* RS and RW should be low to select instruction register and  write operation respectively */
 531:.\Generated_Source\PSoC4/LCD.c ****     LCD_PORT_DR_REG &= ((uint32)(~(LCD_RS | LCD_RW)));
 790              		.loc 1 531 0
 791 000c 104B     		ldr	r3, .L36
 792 000e 104A     		ldr	r2, .L36
 793 0010 1268     		ldr	r2, [r2]
 794 0012 6021     		mov	r1, #96
 795 0014 8A43     		bic	r2, r1
 796 0016 1A60     		str	r2, [r3]
 532:.\Generated_Source\PSoC4/LCD.c **** 
 533:.\Generated_Source\PSoC4/LCD.c ****     /* Two following lines of code will give 40ns delay */
 534:.\Generated_Source\PSoC4/LCD.c ****     /* Clear data pins */
 535:.\Generated_Source\PSoC4/LCD.c ****     LCD_PORT_DR_REG &= ((uint32)(~LCD_DATA_MASK));
 797              		.loc 1 535 0
 798 0018 0D4B     		ldr	r3, .L36
 799 001a 0D4A     		ldr	r2, .L36
 800 001c 1268     		ldr	r2, [r2]
 801 001e 0F21     		mov	r1, #15
 802 0020 8A43     		bic	r2, r1
 803 0022 1A60     		str	r2, [r3]
 536:.\Generated_Source\PSoC4/LCD.c **** 
 537:.\Generated_Source\PSoC4/LCD.c ****     /* Write control data and set enable signal */
 538:.\Generated_Source\PSoC4/LCD.c ****     #if(0u != LCD_PORT_SHIFT) /* MISRA forbids shift by 0 so need to handle that */
 539:.\Generated_Source\PSoC4/LCD.c ****         LCD_PORT_DR_REG |= 
 540:.\Generated_Source\PSoC4/LCD.c ****             (LCD_E | ((uint8)(((uint8) nibble) << LCD_PORT_SHIFT)));
 541:.\Generated_Source\PSoC4/LCD.c ****     #else
 542:.\Generated_Source\PSoC4/LCD.c ****         LCD_PORT_DR_REG |= (LCD_E | nibble);
 804              		.loc 1 542 0
 805 0024 0A4B     		ldr	r3, .L36
 806 0026 0A4A     		ldr	r2, .L36
 807 0028 1268     		ldr	r2, [r2]
 808 002a F91D     		add	r1, r7, #7
 809 002c 0978     		ldrb	r1, [r1]
 810 002e 1020     		mov	r0, #16
 811 0030 0143     		orr	r1, r0
 812 0032 C9B2     		uxtb	r1, r1
 813 0034 0A43     		orr	r2, r1
 814 0036 1A60     		str	r2, [r3]
 543:.\Generated_Source\PSoC4/LCD.c ****     #endif /* (0u != LCD_PORT_SHIFT) */
 544:.\Generated_Source\PSoC4/LCD.c **** 
ARM GAS  C:\Users\Petro\AppData\Local\Temp\ccmzP3bp.s 			page 25


 545:.\Generated_Source\PSoC4/LCD.c ****     /* Minimum of 230 ns delay */
 546:.\Generated_Source\PSoC4/LCD.c ****     CyDelayUs(1u);
 815              		.loc 1 546 0
 816 0038 0120     		mov	r0, #1
 817 003a FFF7FEFF 		bl	CyDelayUs
 547:.\Generated_Source\PSoC4/LCD.c **** 
 548:.\Generated_Source\PSoC4/LCD.c ****     LCD_PORT_DR_REG &= ((uint32)(~LCD_E));
 818              		.loc 1 548 0
 819 003e 044B     		ldr	r3, .L36
 820 0040 034A     		ldr	r2, .L36
 821 0042 1268     		ldr	r2, [r2]
 822 0044 1021     		mov	r1, #16
 823 0046 8A43     		bic	r2, r1
 824 0048 1A60     		str	r2, [r3]
 549:.\Generated_Source\PSoC4/LCD.c **** }
 825              		.loc 1 549 0
 826 004a BD46     		mov	sp, r7
 827 004c 02B0     		add	sp, sp, #8
 828              		@ sp needed
 829 004e 80BD     		pop	{r7, pc}
 830              	.L37:
 831              		.align	2
 832              	.L36:
 833 0050 00010440 		.word	1074004224
 834              		.cfi_endproc
 835              	.LFE13:
 836              		.size	LCD_WrCntrlNib, .-LCD_WrCntrlNib
 837              		.section	.text.LCD_PrintInt8,"ax",%progbits
 838              		.align	2
 839              		.global	LCD_PrintInt8
 840              		.code	16
 841              		.thumb_func
 842              		.type	LCD_PrintInt8, %function
 843              	LCD_PrintInt8:
 844              	.LFB14:
 550:.\Generated_Source\PSoC4/LCD.c **** 
 551:.\Generated_Source\PSoC4/LCD.c **** 
 552:.\Generated_Source\PSoC4/LCD.c **** #if(LCD_CONVERSION_ROUTINES == 1u)
 553:.\Generated_Source\PSoC4/LCD.c **** 
 554:.\Generated_Source\PSoC4/LCD.c ****     /*******************************************************************************
 555:.\Generated_Source\PSoC4/LCD.c ****     *  Function Name: LCD_PrintInt8
 556:.\Generated_Source\PSoC4/LCD.c ****     ********************************************************************************
 557:.\Generated_Source\PSoC4/LCD.c ****     *
 558:.\Generated_Source\PSoC4/LCD.c ****     * Summary:
 559:.\Generated_Source\PSoC4/LCD.c ****     *  Print a byte as two ASCII characters.
 560:.\Generated_Source\PSoC4/LCD.c ****     *
 561:.\Generated_Source\PSoC4/LCD.c ****     * Parameters:
 562:.\Generated_Source\PSoC4/LCD.c ****     *  value: The byte to be printed out as ASCII characters.
 563:.\Generated_Source\PSoC4/LCD.c ****     *
 564:.\Generated_Source\PSoC4/LCD.c ****     * Return:
 565:.\Generated_Source\PSoC4/LCD.c ****     *  None.
 566:.\Generated_Source\PSoC4/LCD.c ****     *
 567:.\Generated_Source\PSoC4/LCD.c ****     *******************************************************************************/
 568:.\Generated_Source\PSoC4/LCD.c ****     void LCD_PrintInt8(uint8 value) 
 569:.\Generated_Source\PSoC4/LCD.c ****     {
 845              		.loc 1 569 0
 846              		.cfi_startproc
ARM GAS  C:\Users\Petro\AppData\Local\Temp\ccmzP3bp.s 			page 26


 847 0000 80B5     		push	{r7, lr}
 848              		.cfi_def_cfa_offset 8
 849              		.cfi_offset 7, -8
 850              		.cfi_offset 14, -4
 851 0002 82B0     		sub	sp, sp, #8
 852              		.cfi_def_cfa_offset 16
 853 0004 00AF     		add	r7, sp, #0
 854              		.cfi_def_cfa_register 7
 855 0006 021C     		mov	r2, r0
 856 0008 FB1D     		add	r3, r7, #7
 857 000a 1A70     		strb	r2, [r3]
 570:.\Generated_Source\PSoC4/LCD.c ****         static char8 const CYCODE LCD_hex[16u] = "0123456789ABCDEF";
 571:.\Generated_Source\PSoC4/LCD.c ****         
 572:.\Generated_Source\PSoC4/LCD.c ****         LCD_PutChar((char8) LCD_hex[value >> LCD_BYTE_UPPER_NIBBLE_SHIFT]);
 858              		.loc 1 572 0
 859 000c FB1D     		add	r3, r7, #7
 860 000e 1B78     		ldrb	r3, [r3]
 861 0010 1B09     		lsr	r3, r3, #4
 862 0012 DBB2     		uxtb	r3, r3
 863 0014 1A1C     		mov	r2, r3
 864 0016 084B     		ldr	r3, .L39
 865 0018 9B5C     		ldrb	r3, [r3, r2]
 866 001a 181C     		mov	r0, r3
 867 001c FFF7FEFF 		bl	LCD_PutChar
 573:.\Generated_Source\PSoC4/LCD.c ****         LCD_PutChar((char8) LCD_hex[value & LCD_BYTE_LOWER_NIBBLE_MASK]);
 868              		.loc 1 573 0
 869 0020 FB1D     		add	r3, r7, #7
 870 0022 1B78     		ldrb	r3, [r3]
 871 0024 0F22     		mov	r2, #15
 872 0026 1340     		and	r3, r2
 873 0028 034A     		ldr	r2, .L39
 874 002a D35C     		ldrb	r3, [r2, r3]
 875 002c 181C     		mov	r0, r3
 876 002e FFF7FEFF 		bl	LCD_PutChar
 574:.\Generated_Source\PSoC4/LCD.c ****     }
 877              		.loc 1 574 0
 878 0032 BD46     		mov	sp, r7
 879 0034 02B0     		add	sp, sp, #8
 880              		@ sp needed
 881 0036 80BD     		pop	{r7, pc}
 882              	.L40:
 883              		.align	2
 884              	.L39:
 885 0038 00000000 		.word	LCD_hex.4822
 886              		.cfi_endproc
 887              	.LFE14:
 888              		.size	LCD_PrintInt8, .-LCD_PrintInt8
 889              		.section	.text.LCD_PrintInt16,"ax",%progbits
 890              		.align	2
 891              		.global	LCD_PrintInt16
 892              		.code	16
 893              		.thumb_func
 894              		.type	LCD_PrintInt16, %function
 895              	LCD_PrintInt16:
 896              	.LFB15:
 575:.\Generated_Source\PSoC4/LCD.c **** 
 576:.\Generated_Source\PSoC4/LCD.c **** 
ARM GAS  C:\Users\Petro\AppData\Local\Temp\ccmzP3bp.s 			page 27


 577:.\Generated_Source\PSoC4/LCD.c ****     /*******************************************************************************
 578:.\Generated_Source\PSoC4/LCD.c ****     *  Function Name: LCD_PrintInt16
 579:.\Generated_Source\PSoC4/LCD.c ****     ********************************************************************************
 580:.\Generated_Source\PSoC4/LCD.c ****     *
 581:.\Generated_Source\PSoC4/LCD.c ****     * Summary:
 582:.\Generated_Source\PSoC4/LCD.c ****     *  Print a uint16 as four ASCII characters.
 583:.\Generated_Source\PSoC4/LCD.c ****     *
 584:.\Generated_Source\PSoC4/LCD.c ****     * Parameters:
 585:.\Generated_Source\PSoC4/LCD.c ****     *  value: The uint16 to be printed out as ASCII characters.
 586:.\Generated_Source\PSoC4/LCD.c ****     *
 587:.\Generated_Source\PSoC4/LCD.c ****     * Return:
 588:.\Generated_Source\PSoC4/LCD.c ****     *  None.
 589:.\Generated_Source\PSoC4/LCD.c ****     *
 590:.\Generated_Source\PSoC4/LCD.c ****     *******************************************************************************/
 591:.\Generated_Source\PSoC4/LCD.c ****     void LCD_PrintInt16(uint16 value) 
 592:.\Generated_Source\PSoC4/LCD.c ****     {
 897              		.loc 1 592 0
 898              		.cfi_startproc
 899 0000 80B5     		push	{r7, lr}
 900              		.cfi_def_cfa_offset 8
 901              		.cfi_offset 7, -8
 902              		.cfi_offset 14, -4
 903 0002 82B0     		sub	sp, sp, #8
 904              		.cfi_def_cfa_offset 16
 905 0004 00AF     		add	r7, sp, #0
 906              		.cfi_def_cfa_register 7
 907 0006 021C     		mov	r2, r0
 908 0008 BB1D     		add	r3, r7, #6
 909 000a 1A80     		strh	r2, [r3]
 593:.\Generated_Source\PSoC4/LCD.c ****         LCD_PrintInt8((uint8)(value >> LCD_U16_UPPER_BYTE_SHIFT));
 910              		.loc 1 593 0
 911 000c BB1D     		add	r3, r7, #6
 912 000e 1B88     		ldrh	r3, [r3]
 913 0010 1B0A     		lsr	r3, r3, #8
 914 0012 9BB2     		uxth	r3, r3
 915 0014 DBB2     		uxtb	r3, r3
 916 0016 181C     		mov	r0, r3
 917 0018 FFF7FEFF 		bl	LCD_PrintInt8
 594:.\Generated_Source\PSoC4/LCD.c ****         LCD_PrintInt8((uint8)(value & LCD_U16_LOWER_BYTE_MASK));
 918              		.loc 1 594 0
 919 001c BB1D     		add	r3, r7, #6
 920 001e 1B88     		ldrh	r3, [r3]
 921 0020 DBB2     		uxtb	r3, r3
 922 0022 181C     		mov	r0, r3
 923 0024 FFF7FEFF 		bl	LCD_PrintInt8
 595:.\Generated_Source\PSoC4/LCD.c ****     }
 924              		.loc 1 595 0
 925 0028 BD46     		mov	sp, r7
 926 002a 02B0     		add	sp, sp, #8
 927              		@ sp needed
 928 002c 80BD     		pop	{r7, pc}
 929              		.cfi_endproc
 930              	.LFE15:
 931              		.size	LCD_PrintInt16, .-LCD_PrintInt16
 932 002e C046     		.section	.text.LCD_PrintInt32,"ax",%progbits
 933              		.align	2
 934              		.global	LCD_PrintInt32
ARM GAS  C:\Users\Petro\AppData\Local\Temp\ccmzP3bp.s 			page 28


 935              		.code	16
 936              		.thumb_func
 937              		.type	LCD_PrintInt32, %function
 938              	LCD_PrintInt32:
 939              	.LFB16:
 596:.\Generated_Source\PSoC4/LCD.c **** 
 597:.\Generated_Source\PSoC4/LCD.c ****     
 598:.\Generated_Source\PSoC4/LCD.c ****     /*******************************************************************************
 599:.\Generated_Source\PSoC4/LCD.c ****     *  Function Name: LCD_PrintInt32
 600:.\Generated_Source\PSoC4/LCD.c ****     ********************************************************************************
 601:.\Generated_Source\PSoC4/LCD.c ****     *
 602:.\Generated_Source\PSoC4/LCD.c ****     * Summary:
 603:.\Generated_Source\PSoC4/LCD.c ****     *  Print a uint32 hexadecimal number as eight ASCII characters.
 604:.\Generated_Source\PSoC4/LCD.c ****     *
 605:.\Generated_Source\PSoC4/LCD.c ****     * Parameters:
 606:.\Generated_Source\PSoC4/LCD.c ****     *  value: The uint32 to be printed out as ASCII characters.
 607:.\Generated_Source\PSoC4/LCD.c ****     *
 608:.\Generated_Source\PSoC4/LCD.c ****     * Return:
 609:.\Generated_Source\PSoC4/LCD.c ****     *  None.
 610:.\Generated_Source\PSoC4/LCD.c ****     *
 611:.\Generated_Source\PSoC4/LCD.c ****     *******************************************************************************/
 612:.\Generated_Source\PSoC4/LCD.c ****     void LCD_PrintInt32(uint32 value) 
 613:.\Generated_Source\PSoC4/LCD.c ****     {
 940              		.loc 1 613 0
 941              		.cfi_startproc
 942 0000 80B5     		push	{r7, lr}
 943              		.cfi_def_cfa_offset 8
 944              		.cfi_offset 7, -8
 945              		.cfi_offset 14, -4
 946 0002 84B0     		sub	sp, sp, #16
 947              		.cfi_def_cfa_offset 24
 948 0004 00AF     		add	r7, sp, #0
 949              		.cfi_def_cfa_register 7
 950 0006 7860     		str	r0, [r7, #4]
 614:.\Generated_Source\PSoC4/LCD.c ****         uint8 shift = LCD_32_BIT_SHIFT;
 951              		.loc 1 614 0
 952 0008 0F23     		mov	r3, #15
 953 000a FB18     		add	r3, r7, r3
 954 000c 2022     		mov	r2, #32
 955 000e 1A70     		strb	r2, [r3]
 615:.\Generated_Source\PSoC4/LCD.c ****         
 616:.\Generated_Source\PSoC4/LCD.c ****         while (shift != 0u)
 956              		.loc 1 616 0
 957 0010 10E0     		b	.L43
 958              	.L44:
 617:.\Generated_Source\PSoC4/LCD.c ****         {
 618:.\Generated_Source\PSoC4/LCD.c ****             /* "shift" var is to be subtracted by 8 prior shifting. This implements 
 619:.\Generated_Source\PSoC4/LCD.c ****             * shifting by 24, 16, 8 and 0u. 
 620:.\Generated_Source\PSoC4/LCD.c ****             */
 621:.\Generated_Source\PSoC4/LCD.c ****             shift -= LCD_8_BIT_SHIFT;
 959              		.loc 1 621 0
 960 0012 0F23     		mov	r3, #15
 961 0014 FB18     		add	r3, r7, r3
 962 0016 0F22     		mov	r2, #15
 963 0018 BA18     		add	r2, r7, r2
 964 001a 1278     		ldrb	r2, [r2]
 965 001c 083A     		sub	r2, r2, #8
ARM GAS  C:\Users\Petro\AppData\Local\Temp\ccmzP3bp.s 			page 29


 966 001e 1A70     		strb	r2, [r3]
 622:.\Generated_Source\PSoC4/LCD.c ****             
 623:.\Generated_Source\PSoC4/LCD.c ****             /* Print 8 bits of uint32 hex number */
 624:.\Generated_Source\PSoC4/LCD.c ****             LCD_PrintInt8((uint8) ((uint32) (value >> shift)));
 967              		.loc 1 624 0
 968 0020 0F23     		mov	r3, #15
 969 0022 FB18     		add	r3, r7, r3
 970 0024 1B78     		ldrb	r3, [r3]
 971 0026 7A68     		ldr	r2, [r7, #4]
 972 0028 DA40     		lsr	r2, r2, r3
 973 002a 131C     		mov	r3, r2
 974 002c DBB2     		uxtb	r3, r3
 975 002e 181C     		mov	r0, r3
 976 0030 FFF7FEFF 		bl	LCD_PrintInt8
 977              	.L43:
 616:.\Generated_Source\PSoC4/LCD.c ****         {
 978              		.loc 1 616 0
 979 0034 0F23     		mov	r3, #15
 980 0036 FB18     		add	r3, r7, r3
 981 0038 1B78     		ldrb	r3, [r3]
 982 003a 002B     		cmp	r3, #0
 983 003c E9D1     		bne	.L44
 625:.\Generated_Source\PSoC4/LCD.c ****         }
 626:.\Generated_Source\PSoC4/LCD.c ****     }
 984              		.loc 1 626 0
 985 003e BD46     		mov	sp, r7
 986 0040 04B0     		add	sp, sp, #16
 987              		@ sp needed
 988 0042 80BD     		pop	{r7, pc}
 989              		.cfi_endproc
 990              	.LFE16:
 991              		.size	LCD_PrintInt32, .-LCD_PrintInt32
 992              		.global	__aeabi_uidivmod
 993              		.global	__aeabi_uidiv
 994              		.section	.text.LCD_PrintU32Number,"ax",%progbits
 995              		.align	2
 996              		.global	LCD_PrintU32Number
 997              		.code	16
 998              		.thumb_func
 999              		.type	LCD_PrintU32Number, %function
 1000              	LCD_PrintU32Number:
 1001              	.LFB17:
 627:.\Generated_Source\PSoC4/LCD.c ****     
 628:.\Generated_Source\PSoC4/LCD.c ****     
 629:.\Generated_Source\PSoC4/LCD.c ****     /*******************************************************************************
 630:.\Generated_Source\PSoC4/LCD.c ****     *  Function Name: LCD_PrintNumber
 631:.\Generated_Source\PSoC4/LCD.c ****     ********************************************************************************
 632:.\Generated_Source\PSoC4/LCD.c ****     *
 633:.\Generated_Source\PSoC4/LCD.c ****     * Summary:
 634:.\Generated_Source\PSoC4/LCD.c ****     *  Print an uint16 value as a left-justified decimal value.
 635:.\Generated_Source\PSoC4/LCD.c ****     *
 636:.\Generated_Source\PSoC4/LCD.c ****     * Parameters:
 637:.\Generated_Source\PSoC4/LCD.c ****     *  value: A 16-bit value to be printed in ASCII characters as a decimal number
 638:.\Generated_Source\PSoC4/LCD.c ****     *
 639:.\Generated_Source\PSoC4/LCD.c ****     * Return:
 640:.\Generated_Source\PSoC4/LCD.c ****     *  None.
 641:.\Generated_Source\PSoC4/LCD.c ****     *
ARM GAS  C:\Users\Petro\AppData\Local\Temp\ccmzP3bp.s 			page 30


 642:.\Generated_Source\PSoC4/LCD.c ****     * Note:
 643:.\Generated_Source\PSoC4/LCD.c ****     *  This function is implemented as a macro.
 644:.\Generated_Source\PSoC4/LCD.c ****     *
 645:.\Generated_Source\PSoC4/LCD.c ****     *******************************************************************************/
 646:.\Generated_Source\PSoC4/LCD.c **** 
 647:.\Generated_Source\PSoC4/LCD.c ****     
 648:.\Generated_Source\PSoC4/LCD.c ****     /*******************************************************************************
 649:.\Generated_Source\PSoC4/LCD.c ****     *  Function Name: LCD_PrintU32Number
 650:.\Generated_Source\PSoC4/LCD.c ****     ********************************************************************************
 651:.\Generated_Source\PSoC4/LCD.c ****     *
 652:.\Generated_Source\PSoC4/LCD.c ****     * Summary:
 653:.\Generated_Source\PSoC4/LCD.c ****     *  Print an uint32 value as a left-justified decimal value.
 654:.\Generated_Source\PSoC4/LCD.c ****     *
 655:.\Generated_Source\PSoC4/LCD.c ****     * Parameters:
 656:.\Generated_Source\PSoC4/LCD.c ****     *  value: A 32-bit value to be printed in ASCII characters as a decimal number
 657:.\Generated_Source\PSoC4/LCD.c ****     *
 658:.\Generated_Source\PSoC4/LCD.c ****     * Return:
 659:.\Generated_Source\PSoC4/LCD.c ****     *  None.
 660:.\Generated_Source\PSoC4/LCD.c ****     *
 661:.\Generated_Source\PSoC4/LCD.c ****     *******************************************************************************/
 662:.\Generated_Source\PSoC4/LCD.c ****     void LCD_PrintU32Number(uint32 value) 
 663:.\Generated_Source\PSoC4/LCD.c ****     {
 1002              		.loc 1 663 0
 1003              		.cfi_startproc
 1004 0000 80B5     		push	{r7, lr}
 1005              		.cfi_def_cfa_offset 8
 1006              		.cfi_offset 7, -8
 1007              		.cfi_offset 14, -4
 1008 0002 86B0     		sub	sp, sp, #24
 1009              		.cfi_def_cfa_offset 32
 1010 0004 00AF     		add	r7, sp, #0
 1011              		.cfi_def_cfa_register 7
 1012 0006 7860     		str	r0, [r7, #4]
 664:.\Generated_Source\PSoC4/LCD.c ****         uint8 tmpDigit;
 665:.\Generated_Source\PSoC4/LCD.c ****         char8 number[LCD_NUMBER_OF_REMAINDERS_U32 + 1u];
 666:.\Generated_Source\PSoC4/LCD.c ****         uint8 digIndex = LCD_NUMBER_OF_REMAINDERS_U32;
 1013              		.loc 1 666 0
 1014 0008 1723     		mov	r3, #23
 1015 000a FB18     		add	r3, r7, r3
 1016 000c 0A22     		mov	r2, #10
 1017 000e 1A70     		strb	r2, [r3]
 667:.\Generated_Source\PSoC4/LCD.c ****         
 668:.\Generated_Source\PSoC4/LCD.c ****         /* This API will output a decimal number as a string and that string will be 
 669:.\Generated_Source\PSoC4/LCD.c ****         * filled from end to start. Set Null termination character first.
 670:.\Generated_Source\PSoC4/LCD.c ****         */
 671:.\Generated_Source\PSoC4/LCD.c ****         number[digIndex] = (char8) '\0';
 1018              		.loc 1 671 0
 1019 0010 1723     		mov	r3, #23
 1020 0012 FB18     		add	r3, r7, r3
 1021 0014 1B78     		ldrb	r3, [r3]
 1022 0016 0822     		mov	r2, #8
 1023 0018 BA18     		add	r2, r7, r2
 1024 001a 0021     		mov	r1, #0
 1025 001c D154     		strb	r1, [r2, r3]
 672:.\Generated_Source\PSoC4/LCD.c ****         digIndex--;
 1026              		.loc 1 672 0
 1027 001e 1723     		mov	r3, #23
ARM GAS  C:\Users\Petro\AppData\Local\Temp\ccmzP3bp.s 			page 31


 1028 0020 FB18     		add	r3, r7, r3
 1029 0022 1A78     		ldrb	r2, [r3]
 1030 0024 1723     		mov	r3, #23
 1031 0026 FB18     		add	r3, r7, r3
 1032 0028 013A     		sub	r2, r2, #1
 1033 002a 1A70     		strb	r2, [r3]
 673:.\Generated_Source\PSoC4/LCD.c ****         
 674:.\Generated_Source\PSoC4/LCD.c ****         /* Load these in reverse order */
 675:.\Generated_Source\PSoC4/LCD.c ****         while(value >= LCD_TEN)
 1034              		.loc 1 675 0
 1035 002c 21E0     		b	.L46
 1036              	.L47:
 676:.\Generated_Source\PSoC4/LCD.c ****         {
 677:.\Generated_Source\PSoC4/LCD.c ****             /* Extract decimal digit, indexed by 'digIndex', from 'value' and
 678:.\Generated_Source\PSoC4/LCD.c ****             * convert it to ASCII character.
 679:.\Generated_Source\PSoC4/LCD.c ****             */
 680:.\Generated_Source\PSoC4/LCD.c ****             tmpDigit = (uint8) (((uint8) (value % LCD_TEN)) + (uint8) LCD_ZERO_CHAR_ASCII);
 1037              		.loc 1 680 0
 1038 002e 7B68     		ldr	r3, [r7, #4]
 1039 0030 181C     		mov	r0, r3
 1040 0032 0A21     		mov	r1, #10
 1041 0034 FFF7FEFF 		bl	__aeabi_uidivmod
 1042 0038 0B1C     		mov	r3, r1
 1043 003a DAB2     		uxtb	r2, r3
 1044 003c 1623     		mov	r3, #22
 1045 003e FB18     		add	r3, r7, r3
 1046 0040 3032     		add	r2, r2, #48
 1047 0042 1A70     		strb	r2, [r3]
 681:.\Generated_Source\PSoC4/LCD.c ****             
 682:.\Generated_Source\PSoC4/LCD.c ****             /* Temporary variable 'tmpDigit' is used to avoid Violation of MISRA rule 
 683:.\Generated_Source\PSoC4/LCD.c ****             * #10.3.
 684:.\Generated_Source\PSoC4/LCD.c ****             */
 685:.\Generated_Source\PSoC4/LCD.c ****             number[digIndex] = (char8) tmpDigit;
 1048              		.loc 1 685 0
 1049 0044 1723     		mov	r3, #23
 1050 0046 FB18     		add	r3, r7, r3
 1051 0048 1B78     		ldrb	r3, [r3]
 1052 004a 0822     		mov	r2, #8
 1053 004c BA18     		add	r2, r7, r2
 1054 004e 1621     		mov	r1, #22
 1055 0050 7918     		add	r1, r7, r1
 1056 0052 0978     		ldrb	r1, [r1]
 1057 0054 D154     		strb	r1, [r2, r3]
 686:.\Generated_Source\PSoC4/LCD.c ****             value /= LCD_TEN;
 1058              		.loc 1 686 0
 1059 0056 7B68     		ldr	r3, [r7, #4]
 1060 0058 181C     		mov	r0, r3
 1061 005a 0A21     		mov	r1, #10
 1062 005c FFF7FEFF 		bl	__aeabi_uidiv
 1063 0060 031C     		mov	r3, r0
 1064 0062 7B60     		str	r3, [r7, #4]
 687:.\Generated_Source\PSoC4/LCD.c ****             digIndex--;
 1065              		.loc 1 687 0
 1066 0064 1723     		mov	r3, #23
 1067 0066 FB18     		add	r3, r7, r3
 1068 0068 1A78     		ldrb	r2, [r3]
 1069 006a 1723     		mov	r3, #23
ARM GAS  C:\Users\Petro\AppData\Local\Temp\ccmzP3bp.s 			page 32


 1070 006c FB18     		add	r3, r7, r3
 1071 006e 013A     		sub	r2, r2, #1
 1072 0070 1A70     		strb	r2, [r3]
 1073              	.L46:
 675:.\Generated_Source\PSoC4/LCD.c ****         {
 1074              		.loc 1 675 0
 1075 0072 7B68     		ldr	r3, [r7, #4]
 1076 0074 092B     		cmp	r3, #9
 1077 0076 DAD8     		bhi	.L47
 688:.\Generated_Source\PSoC4/LCD.c ****         }
 689:.\Generated_Source\PSoC4/LCD.c ****         
 690:.\Generated_Source\PSoC4/LCD.c ****         /* Extract last decimal digit 'digIndex', from the 'value' and convert it
 691:.\Generated_Source\PSoC4/LCD.c ****         * to ASCII character.
 692:.\Generated_Source\PSoC4/LCD.c ****         */
 693:.\Generated_Source\PSoC4/LCD.c ****         tmpDigit = (uint8) (((uint8)(value % LCD_TEN)) + (uint8) LCD_ZERO_CHAR_ASCII);
 1078              		.loc 1 693 0
 1079 0078 7B68     		ldr	r3, [r7, #4]
 1080 007a 181C     		mov	r0, r3
 1081 007c 0A21     		mov	r1, #10
 1082 007e FFF7FEFF 		bl	__aeabi_uidivmod
 1083 0082 0B1C     		mov	r3, r1
 1084 0084 DAB2     		uxtb	r2, r3
 1085 0086 1623     		mov	r3, #22
 1086 0088 FB18     		add	r3, r7, r3
 1087 008a 3032     		add	r2, r2, #48
 1088 008c 1A70     		strb	r2, [r3]
 694:.\Generated_Source\PSoC4/LCD.c ****         number[digIndex] = (char8) tmpDigit;
 1089              		.loc 1 694 0
 1090 008e 1723     		mov	r3, #23
 1091 0090 FB18     		add	r3, r7, r3
 1092 0092 1B78     		ldrb	r3, [r3]
 1093 0094 0822     		mov	r2, #8
 1094 0096 BA18     		add	r2, r7, r2
 1095 0098 1621     		mov	r1, #22
 1096 009a 7918     		add	r1, r7, r1
 1097 009c 0978     		ldrb	r1, [r1]
 1098 009e D154     		strb	r1, [r2, r3]
 695:.\Generated_Source\PSoC4/LCD.c **** 
 696:.\Generated_Source\PSoC4/LCD.c ****         /* Print out number */
 697:.\Generated_Source\PSoC4/LCD.c ****         LCD_PrintString(&number[digIndex]);
 1099              		.loc 1 697 0
 1100 00a0 1723     		mov	r3, #23
 1101 00a2 FB18     		add	r3, r7, r3
 1102 00a4 1B78     		ldrb	r3, [r3]
 1103 00a6 0822     		mov	r2, #8
 1104 00a8 BA18     		add	r2, r7, r2
 1105 00aa D318     		add	r3, r2, r3
 1106 00ac 181C     		mov	r0, r3
 1107 00ae FFF7FEFF 		bl	LCD_PrintString
 698:.\Generated_Source\PSoC4/LCD.c ****     }
 1108              		.loc 1 698 0
 1109 00b2 BD46     		mov	sp, r7
 1110 00b4 06B0     		add	sp, sp, #24
 1111              		@ sp needed
 1112 00b6 80BD     		pop	{r7, pc}
 1113              		.cfi_endproc
 1114              	.LFE17:
ARM GAS  C:\Users\Petro\AppData\Local\Temp\ccmzP3bp.s 			page 33


 1115              		.size	LCD_PrintU32Number, .-LCD_PrintU32Number
 1116              		.section	.rodata
 1117              		.align	2
 1118              		.type	LCD_hex.4822, %object
 1119              		.size	LCD_hex.4822, 16
 1120              	LCD_hex.4822:
 1121 0000 30313233 		.ascii	"0123456789ABCDEF"
 1121      34353637 
 1121      38394142 
 1121      43444546 
 1122              		.text
 1123              	.Letext0:
 1124              		.file 2 ".\\Generated_Source\\PSoC4\\cytypes.h"