ARM GAS  C:\DOCUME~1\Admin\LOCALS~1\Temp\ccrc8sss.s 			page 1


   1              		.cpu cortex-m0
   2              		.fpu softvfp
   3              		.eabi_attribute 20, 1
   4              		.eabi_attribute 21, 1
   5              		.eabi_attribute 23, 3
   6              		.eabi_attribute 24, 1
   7              		.eabi_attribute 25, 1
   8              		.eabi_attribute 26, 1
   9              		.eabi_attribute 30, 6
  10              		.eabi_attribute 34, 0
  11              		.eabi_attribute 18, 4
  12              		.code	16
  13              		.file	"myDelay.c"
  14              		.text
  15              	.Ltext0:
  16              		.cfi_sections	.debug_frame
  17              		.comm	fatFs,560,4
  18              		.comm	fileO,552,4
  19              		.comm	createFlag,4,4
  20              		.bss
  21              		.align	1
  22              	minMs:
  23 0000 0000     		.space	2
  24              		.align	1
  25              	maxMs:
  26 0002 0000     		.space	2
  27              		.comm	tmpMs,2,2
  28              		.align	2
  29              	buff:
  30 0004 00000000 		.space	100
  30      00000000 
  30      00000000 
  30      00000000 
  30      00000000 
  31              		.comm	outData,24,8
  32              		.comm	inData,24,8
  33              		.comm	numAttemps,4,4
  34              		.comm	noConnect,4,4
  35              		.comm	networkStatus,4,4
  36              		.align	1
  37              	writeFlag:
  38 0068 0000     		.space	2
  39              		.global	__aeabi_ui2d
  40              		.global	__aeabi_ddiv
  41              		.global	__aeabi_d2uiz
  42 006a 0000     		.section	.text.MyDelay,"ax",%progbits
  43              		.align	2
  44              		.global	MyDelay
  45              		.code	16
  46              		.thumb_func
  47              		.type	MyDelay, %function
  48              	MyDelay:
  49              	.LFB63:
  50              		.file 1 ".\\lib_MyDelay\\myDelay.c"
   1:.\lib_MyDelay/myDelay.c **** #include "lib_MyDelay\myDelay.h"
   2:.\lib_MyDelay/myDelay.c **** 
   3:.\lib_MyDelay/myDelay.c **** /*******************************************************************************
ARM GAS  C:\DOCUME~1\Admin\LOCALS~1\Temp\ccrc8sss.s 			page 2


   4:.\lib_MyDelay/myDelay.c **** * Function Name: MyDelay
   5:.\lib_MyDelay/myDelay.c **** ********************************************************************************
   6:.\lib_MyDelay/myDelay.c **** *
   7:.\lib_MyDelay/myDelay.c **** * Summary:
   8:.\lib_MyDelay/myDelay.c **** *   delay feature where users performed free time
   9:.\lib_MyDelay/myDelay.c **** *
  10:.\lib_MyDelay/myDelay.c **** * Parameters:
  11:.\lib_MyDelay/myDelay.c **** *  delayMs - delay time in miliseconds
  12:.\lib_MyDelay/myDelay.c **** *
  13:.\lib_MyDelay/myDelay.c **** *******************************************************************************/
  14:.\lib_MyDelay/myDelay.c **** void MyDelay(uint32_t delayMs)
  15:.\lib_MyDelay/myDelay.c **** {
  51              		.loc 1 15 0
  52              		.cfi_startproc
  53 0000 90B5     		push	{r4, r7, lr}
  54              		.cfi_def_cfa_offset 12
  55              		.cfi_offset 4, -12
  56              		.cfi_offset 7, -8
  57              		.cfi_offset 14, -4
  58 0002 87B0     		sub	sp, sp, #28
  59              		.cfi_def_cfa_offset 40
  60 0004 00AF     		add	r7, sp, #0
  61              		.cfi_def_cfa_register 7
  62 0006 7860     		str	r0, [r7, #4]
  16:.\lib_MyDelay/myDelay.c ****     
  17:.\lib_MyDelay/myDelay.c ****     if(delayMs < MIN_DELAY_MS)
  63              		.loc 1 17 0
  64 0008 7B68     		ldr	r3, [r7, #4]
  65 000a 952B     		cmp	r3, #149
  66 000c 04D8     		bhi	.L2
  18:.\lib_MyDelay/myDelay.c ****     {
  19:.\lib_MyDelay/myDelay.c ****         CyDelay(delayMs);
  67              		.loc 1 19 0
  68 000e 7B68     		ldr	r3, [r7, #4]
  69 0010 181C     		mov	r0, r3
  70 0012 FFF7FEFF 		bl	CyDelay
  71 0016 46E0     		b	.L1
  72              	.L2:
  73              	.LBB2:
  20:.\lib_MyDelay/myDelay.c ****     }else
  21:.\lib_MyDelay/myDelay.c ****     {
  22:.\lib_MyDelay/myDelay.c ****         uint32_t runTime;
  23:.\lib_MyDelay/myDelay.c ****         uint32_t counter ;
  24:.\lib_MyDelay/myDelay.c ****         uint32_t period;
  25:.\lib_MyDelay/myDelay.c ****         
  26:.\lib_MyDelay/myDelay.c ****         runTime = 0;
  74              		.loc 1 26 0
  75 0018 0023     		mov	r3, #0
  76 001a 7B61     		str	r3, [r7, #20]
  27:.\lib_MyDelay/myDelay.c ****         period = AppDelay_ReadPeriod();
  77              		.loc 1 27 0
  78 001c FFF7FEFF 		bl	AppDelay_ReadPeriod
  79 0020 031C     		mov	r3, r0
  80 0022 3B61     		str	r3, [r7, #16]
  28:.\lib_MyDelay/myDelay.c ****         AppDelay_WriteCounter(period);       
  81              		.loc 1 28 0
  82 0024 3B69     		ldr	r3, [r7, #16]
ARM GAS  C:\DOCUME~1\Admin\LOCALS~1\Temp\ccrc8sss.s 			page 3


  83 0026 181C     		mov	r0, r3
  84 0028 FFF7FEFF 		bl	AppDelay_WriteCounter
  29:.\lib_MyDelay/myDelay.c ****         AppDelay_Start();
  85              		.loc 1 29 0
  86 002c FFF7FEFF 		bl	AppDelay_Start
  30:.\lib_MyDelay/myDelay.c ****         
  31:.\lib_MyDelay/myDelay.c ****         while(((delayMs - runTime) > MIN_DELAY_MS) && (runTime <= delayMs))
  87              		.loc 1 31 0
  88 0030 24E0     		b	.L4
  89              	.L6:
  32:.\lib_MyDelay/myDelay.c ****         {
  33:.\lib_MyDelay/myDelay.c ****             /*user function*/      
  34:.\lib_MyDelay/myDelay.c ****             UserFunc_1();
  90              		.loc 1 34 0
  91 0032 FFF7FEFF 		bl	UserFunc_1
  35:.\lib_MyDelay/myDelay.c ****             UserFunc_2();
  92              		.loc 1 35 0
  93 0036 FFF7FEFF 		bl	UserFunc_2
  36:.\lib_MyDelay/myDelay.c ****             UserFunc_3();
  94              		.loc 1 36 0
  95 003a FFF7FEFF 		bl	UserFunc_3
  37:.\lib_MyDelay/myDelay.c ****             UserFunc_4();
  96              		.loc 1 37 0
  97 003e FFF7FEFF 		bl	UserFunc_4
  38:.\lib_MyDelay/myDelay.c ****             
  39:.\lib_MyDelay/myDelay.c ****             CyDelay(MIN_DELAY_MS);
  98              		.loc 1 39 0
  99 0042 9620     		mov	r0, #150
 100 0044 FFF7FEFF 		bl	CyDelay
  40:.\lib_MyDelay/myDelay.c ****                             
  41:.\lib_MyDelay/myDelay.c ****             counter = AppDelay_ReadCounter();
 101              		.loc 1 41 0
 102 0048 FFF7FEFF 		bl	AppDelay_ReadCounter
 103 004c 031C     		mov	r3, r0
 104 004e FB60     		str	r3, [r7, #12]
  42:.\lib_MyDelay/myDelay.c ****             runTime = (period -  counter)/32.768;
 105              		.loc 1 42 0
 106 0050 3A69     		ldr	r2, [r7, #16]
 107 0052 FB68     		ldr	r3, [r7, #12]
 108 0054 D31A     		sub	r3, r2, r3
 109 0056 181C     		mov	r0, r3
 110 0058 FFF7FEFF 		bl	__aeabi_ui2d
 111 005c 031C     		mov	r3, r0
 112 005e 0C1C     		mov	r4, r1
 113 0060 181C     		mov	r0, r3
 114 0062 211C     		mov	r1, r4
 115 0064 114A     		ldr	r2, .L7
 116 0066 124B     		ldr	r3, .L7+4
 117 0068 FFF7FEFF 		bl	__aeabi_ddiv
 118 006c 031C     		mov	r3, r0
 119 006e 0C1C     		mov	r4, r1
 120 0070 181C     		mov	r0, r3
 121 0072 211C     		mov	r1, r4
 122 0074 FFF7FEFF 		bl	__aeabi_d2uiz
 123 0078 031C     		mov	r3, r0
 124 007a 7B61     		str	r3, [r7, #20]
 125              	.L4:
ARM GAS  C:\DOCUME~1\Admin\LOCALS~1\Temp\ccrc8sss.s 			page 4


  31:.\lib_MyDelay/myDelay.c ****         {
 126              		.loc 1 31 0
 127 007c 7A68     		ldr	r2, [r7, #4]
 128 007e 7B69     		ldr	r3, [r7, #20]
 129 0080 D31A     		sub	r3, r2, r3
 130 0082 962B     		cmp	r3, #150
 131 0084 03D9     		bls	.L5
  31:.\lib_MyDelay/myDelay.c ****         {
 132              		.loc 1 31 0 is_stmt 0 discriminator 1
 133 0086 7A69     		ldr	r2, [r7, #20]
 134 0088 7B68     		ldr	r3, [r7, #4]
 135 008a 9A42     		cmp	r2, r3
 136 008c D1D9     		bls	.L6
 137              	.L5:
  43:.\lib_MyDelay/myDelay.c ****             
  44:.\lib_MyDelay/myDelay.c ****             /*user function*/  
  45:.\lib_MyDelay/myDelay.c ****         }
  46:.\lib_MyDelay/myDelay.c ****         AppDelay_Stop();
 138              		.loc 1 46 0 is_stmt 1
 139 008e FFF7FEFF 		bl	AppDelay_Stop
  47:.\lib_MyDelay/myDelay.c ****         
  48:.\lib_MyDelay/myDelay.c ****         #ifdef DEBUG_PC
  49:.\lib_MyDelay/myDelay.c ****         char buffer[100];
  50:.\lib_MyDelay/myDelay.c ****         sprintf(buffer,"time send data %u\n\r", (runTime));
  51:.\lib_MyDelay/myDelay.c ****         SW_UART_DEBUG_PutString(buffer);
  52:.\lib_MyDelay/myDelay.c ****         #endif
  53:.\lib_MyDelay/myDelay.c ****         
  54:.\lib_MyDelay/myDelay.c ****         if (delayMs > runTime)
 140              		.loc 1 54 0
 141 0092 7A68     		ldr	r2, [r7, #4]
 142 0094 7B69     		ldr	r3, [r7, #20]
 143 0096 9A42     		cmp	r2, r3
 144 0098 05D9     		bls	.L1
  55:.\lib_MyDelay/myDelay.c ****         {
  56:.\lib_MyDelay/myDelay.c ****             CyDelay(delayMs - runTime);
 145              		.loc 1 56 0
 146 009a 7A68     		ldr	r2, [r7, #4]
 147 009c 7B69     		ldr	r3, [r7, #20]
 148 009e D31A     		sub	r3, r2, r3
 149 00a0 181C     		mov	r0, r3
 150 00a2 FFF7FEFF 		bl	CyDelay
 151              	.L1:
 152              	.LBE2:
  57:.\lib_MyDelay/myDelay.c ****         }
  58:.\lib_MyDelay/myDelay.c ****     }
  59:.\lib_MyDelay/myDelay.c **** }
 153              		.loc 1 59 0
 154 00a6 BD46     		mov	sp, r7
 155 00a8 07B0     		add	sp, sp, #28
 156              		@ sp needed
 157 00aa 90BD     		pop	{r4, r7, pc}
 158              	.L8:
 159              		.align	2
 160              	.L7:
 161 00ac FCA9F1D2 		.word	-755914244
 162 00b0 4D624040 		.word	1077961293
 163              		.cfi_endproc
ARM GAS  C:\DOCUME~1\Admin\LOCALS~1\Temp\ccrc8sss.s 			page 5


 164              	.LFE63:
 165              		.size	MyDelay, .-MyDelay
 166              		.section	.text.UserFunc_1,"ax",%progbits
 167              		.align	2
 168              		.code	16
 169              		.thumb_func
 170              		.type	UserFunc_1, %function
 171              	UserFunc_1:
 172              	.LFB64:
  60:.\lib_MyDelay/myDelay.c **** 
  61:.\lib_MyDelay/myDelay.c **** 
  62:.\lib_MyDelay/myDelay.c **** static void UserFunc_1(void)
  63:.\lib_MyDelay/myDelay.c **** {
 173              		.loc 1 63 0
 174              		.cfi_startproc
 175 0000 80B5     		push	{r7, lr}
 176              		.cfi_def_cfa_offset 8
 177              		.cfi_offset 7, -8
 178              		.cfi_offset 14, -4
 179 0002 00AF     		add	r7, sp, #0
 180              		.cfi_def_cfa_register 7
  64:.\lib_MyDelay/myDelay.c ****     /*network*/
  65:.\lib_MyDelay/myDelay.c **** 
  66:.\lib_MyDelay/myDelay.c ****     SendData();           
 181              		.loc 1 66 0
 182 0004 FFF7FEFF 		bl	SendData
  67:.\lib_MyDelay/myDelay.c ****     ReceiveData();
 183              		.loc 1 67 0
 184 0008 FFF7FEFF 		bl	ReceiveData
  68:.\lib_MyDelay/myDelay.c ****     
  69:.\lib_MyDelay/myDelay.c ****     #ifdef DEBUG_PC
  70:.\lib_MyDelay/myDelay.c ****     //inData.readStatus = READ_OK;
  71:.\lib_MyDelay/myDelay.c ****     #endif
  72:.\lib_MyDelay/myDelay.c ****  
  73:.\lib_MyDelay/myDelay.c **** }
 185              		.loc 1 73 0
 186 000c BD46     		mov	sp, r7
 187              		@ sp needed
 188 000e 80BD     		pop	{r7, pc}
 189              		.cfi_endproc
 190              	.LFE64:
 191              		.size	UserFunc_1, .-UserFunc_1
 192              		.section	.text.UserFunc_2,"ax",%progbits
 193              		.align	2
 194              		.code	16
 195              		.thumb_func
 196              		.type	UserFunc_2, %function
 197              	UserFunc_2:
 198              	.LFB65:
  74:.\lib_MyDelay/myDelay.c **** 
  75:.\lib_MyDelay/myDelay.c **** 
  76:.\lib_MyDelay/myDelay.c **** static void UserFunc_2(void)
  77:.\lib_MyDelay/myDelay.c **** {
 199              		.loc 1 77 0
 200              		.cfi_startproc
 201 0000 90B5     		push	{r4, r7, lr}
 202              		.cfi_def_cfa_offset 12
ARM GAS  C:\DOCUME~1\Admin\LOCALS~1\Temp\ccrc8sss.s 			page 6


 203              		.cfi_offset 4, -12
 204              		.cfi_offset 7, -8
 205              		.cfi_offset 14, -4
 206 0002 A3B0     		sub	sp, sp, #140
 207              		.cfi_def_cfa_offset 152
 208 0004 08AF     		add	r7, sp, #32
 209              		.cfi_def_cfa 7, 120
  78:.\lib_MyDelay/myDelay.c ****     /*write result skier on log*/
  79:.\lib_MyDelay/myDelay.c ****     if((FifoGetSize() > 0) || (writeFlag == WRITE_ERROR))
 210              		.loc 1 79 0
 211 0006 FFF7FEFF 		bl	FifoGetSize
 212 000a 031E     		sub	r3, r0, #0
 213 000c 03D1     		bne	.L11
 214              		.loc 1 79 0 is_stmt 0 discriminator 1
 215 000e 224B     		ldr	r3, .L17
 216 0010 1B88     		ldrh	r3, [r3]
 217 0012 012B     		cmp	r3, #1
 218 0014 3CD1     		bne	.L10
 219              	.L11:
 220              	.LBB3:
  80:.\lib_MyDelay/myDelay.c ****     {
  81:.\lib_MyDelay/myDelay.c ****         uint32_t result;
  82:.\lib_MyDelay/myDelay.c ****         skierDB_El tmpStruct;
  83:.\lib_MyDelay/myDelay.c ****         if (writeFlag == WRITE_NO_ERROR)
 221              		.loc 1 83 0 is_stmt 1
 222 0016 204B     		ldr	r3, .L17
 223 0018 1B88     		ldrh	r3, [r3]
 224 001a 002B     		cmp	r3, #0
 225 001c 16D1     		bne	.L13
  84:.\lib_MyDelay/myDelay.c ****         {
  85:.\lib_MyDelay/myDelay.c ****             FifoGet(&tmpStruct);
 226              		.loc 1 85 0
 227 001e 3023     		mov	r3, #48
 228 0020 FB18     		add	r3, r7, r3
 229 0022 181C     		mov	r0, r3
 230 0024 FFF7FEFF 		bl	FifoGet
  86:.\lib_MyDelay/myDelay.c ****             FifoPushLast(tmpStruct);
 231              		.loc 1 86 0
 232 0028 3023     		mov	r3, #48
 233 002a FC18     		add	r4, r7, r3
 234 002c 6B46     		mov	r3, sp
 235 002e 191C     		mov	r1, r3
 236 0030 231C     		mov	r3, r4
 237 0032 1033     		add	r3, r3, #16
 238 0034 2022     		mov	r2, #32
 239 0036 081C     		mov	r0, r1
 240 0038 191C     		mov	r1, r3
 241 003a FFF7FEFF 		bl	memcpy
 242 003e 2068     		ldr	r0, [r4]
 243 0040 6168     		ldr	r1, [r4, #4]
 244 0042 A268     		ldr	r2, [r4, #8]
 245 0044 E368     		ldr	r3, [r4, #12]
 246 0046 FFF7FEFF 		bl	FifoPushLast
 247 004a 0EE0     		b	.L14
 248              	.L13:
  87:.\lib_MyDelay/myDelay.c ****         }
  88:.\lib_MyDelay/myDelay.c ****         else
ARM GAS  C:\DOCUME~1\Admin\LOCALS~1\Temp\ccrc8sss.s 			page 7


  89:.\lib_MyDelay/myDelay.c ****         {
  90:.\lib_MyDelay/myDelay.c ****             tmpStruct = FifoGetLast();
 249              		.loc 1 90 0
 250 004c 3023     		mov	r3, #48
 251 004e FC18     		add	r4, r7, r3
 252 0050 3B1C     		mov	r3, r7
 253 0052 181C     		mov	r0, r3
 254 0054 FFF7FEFF 		bl	FifoGetLast
 255 0058 3B1C     		mov	r3, r7
 256 005a 211C     		mov	r1, r4
 257 005c 1A1C     		mov	r2, r3
 258 005e 3023     		mov	r3, #48
 259 0060 081C     		mov	r0, r1
 260 0062 111C     		mov	r1, r2
 261 0064 1A1C     		mov	r2, r3
 262 0066 FFF7FEFF 		bl	memcpy
 263              	.L14:
  91:.\lib_MyDelay/myDelay.c ****         }
  92:.\lib_MyDelay/myDelay.c ****         result = WriteSkierResult(&tmpStruct);
 264              		.loc 1 92 0
 265 006a 3023     		mov	r3, #48
 266 006c FB18     		add	r3, r7, r3
 267 006e 181C     		mov	r0, r3
 268 0070 FFF7FEFF 		bl	WriteSkierResult
 269 0074 031C     		mov	r3, r0
 270 0076 7B66     		str	r3, [r7, #100]
  93:.\lib_MyDelay/myDelay.c ****         if(result != FR_OK)
 271              		.loc 1 93 0
 272 0078 7B6E     		ldr	r3, [r7, #100]
 273 007a 002B     		cmp	r3, #0
 274 007c 05D0     		beq	.L15
  94:.\lib_MyDelay/myDelay.c ****         {
  95:.\lib_MyDelay/myDelay.c ****             LogStart();
 275              		.loc 1 95 0
 276 007e FFF7FEFF 		bl	LogStart
  96:.\lib_MyDelay/myDelay.c ****             writeFlag = WRITE_ERROR;
 277              		.loc 1 96 0
 278 0082 054B     		ldr	r3, .L17
 279 0084 0122     		mov	r2, #1
 280 0086 1A80     		strh	r2, [r3]
 281 0088 02E0     		b	.L10
 282              	.L15:
  97:.\lib_MyDelay/myDelay.c ****         }
  98:.\lib_MyDelay/myDelay.c ****         else
  99:.\lib_MyDelay/myDelay.c ****         {
 100:.\lib_MyDelay/myDelay.c ****             writeFlag = WRITE_NO_ERROR;
 283              		.loc 1 100 0
 284 008a 034B     		ldr	r3, .L17
 285 008c 0022     		mov	r2, #0
 286 008e 1A80     		strh	r2, [r3]
 287              	.L10:
 288              	.LBE3:
 101:.\lib_MyDelay/myDelay.c ****         }
 102:.\lib_MyDelay/myDelay.c ****     }
 103:.\lib_MyDelay/myDelay.c **** }
 289              		.loc 1 103 0
 290 0090 BD46     		mov	sp, r7
ARM GAS  C:\DOCUME~1\Admin\LOCALS~1\Temp\ccrc8sss.s 			page 8


 291 0092 1BB0     		add	sp, sp, #108
 292              		@ sp needed
 293 0094 90BD     		pop	{r4, r7, pc}
 294              	.L18:
 295 0096 C046     		.align	2
 296              	.L17:
 297 0098 68000000 		.word	writeFlag
 298              		.cfi_endproc
 299              	.LFE65:
 300              		.size	UserFunc_2, .-UserFunc_2
 301              		.section	.text.UserFunc_3,"ax",%progbits
 302              		.align	2
 303              		.code	16
 304              		.thumb_func
 305              		.type	UserFunc_3, %function
 306              	UserFunc_3:
 307              	.LFB66:
 104:.\lib_MyDelay/myDelay.c **** 
 105:.\lib_MyDelay/myDelay.c **** static void UserFunc_3(void)
 106:.\lib_MyDelay/myDelay.c **** {
 308              		.loc 1 106 0
 309              		.cfi_startproc
 310 0000 80B5     		push	{r7, lr}
 311              		.cfi_def_cfa_offset 8
 312              		.cfi_offset 7, -8
 313              		.cfi_offset 14, -4
 314 0002 00AF     		add	r7, sp, #0
 315              		.cfi_def_cfa_register 7
 107:.\lib_MyDelay/myDelay.c ****     /*indicator SD card*/
 108:.\lib_MyDelay/myDelay.c ****     if(SDinsert_Read() == 0)
 316              		.loc 1 108 0
 317 0004 FFF7FEFF 		bl	SDinsert_Read
 318 0008 031E     		sub	r3, r0, #0
 319 000a 03D1     		bne	.L20
 109:.\lib_MyDelay/myDelay.c ****     {
 110:.\lib_MyDelay/myDelay.c ****         DisplayPutIndicatorSD(SD_INSERT);
 320              		.loc 1 110 0
 321 000c 0020     		mov	r0, #0
 322 000e FFF7FEFF 		bl	DisplayPutIndicatorSD
 323 0012 02E0     		b	.L21
 324              	.L20:
 111:.\lib_MyDelay/myDelay.c ****     }else
 112:.\lib_MyDelay/myDelay.c ****     {
 113:.\lib_MyDelay/myDelay.c ****         DisplayPutIndicatorSD(SD_NO_INSERT);
 325              		.loc 1 113 0
 326 0014 0120     		mov	r0, #1
 327 0016 FFF7FEFF 		bl	DisplayPutIndicatorSD
 328              	.L21:
 114:.\lib_MyDelay/myDelay.c ****     }
 115:.\lib_MyDelay/myDelay.c ****     /*indicator network*/
 116:.\lib_MyDelay/myDelay.c ****     if(NetworkStatus() == NETWORK_CONN)
 329              		.loc 1 116 0
 330 001a FFF7FEFF 		bl	NetworkStatus
 331 001e 031E     		sub	r3, r0, #0
 332 0020 012B     		cmp	r3, #1
 333 0022 03D1     		bne	.L22
 117:.\lib_MyDelay/myDelay.c ****     {
ARM GAS  C:\DOCUME~1\Admin\LOCALS~1\Temp\ccrc8sss.s 			page 9


 118:.\lib_MyDelay/myDelay.c ****         DisplayPutIndicatorNetwork(CONNECT);
 334              		.loc 1 118 0
 335 0024 0020     		mov	r0, #0
 336 0026 FFF7FEFF 		bl	DisplayPutIndicatorNetwork
 337 002a 02E0     		b	.L19
 338              	.L22:
 119:.\lib_MyDelay/myDelay.c ****     }else
 120:.\lib_MyDelay/myDelay.c ****     {
 121:.\lib_MyDelay/myDelay.c ****         DisplayPutIndicatorNetwork(DISCONNECT);
 339              		.loc 1 121 0
 340 002c 0120     		mov	r0, #1
 341 002e FFF7FEFF 		bl	DisplayPutIndicatorNetwork
 342              	.L19:
 122:.\lib_MyDelay/myDelay.c ****     }
 123:.\lib_MyDelay/myDelay.c ****     
 124:.\lib_MyDelay/myDelay.c **** }
 343              		.loc 1 124 0
 344 0032 BD46     		mov	sp, r7
 345              		@ sp needed
 346 0034 80BD     		pop	{r7, pc}
 347              		.cfi_endproc
 348              	.LFE66:
 349              		.size	UserFunc_3, .-UserFunc_3
 350 0036 C046     		.section	.text.UserFunc_4,"ax",%progbits
 351              		.align	2
 352              		.code	16
 353              		.thumb_func
 354              		.type	UserFunc_4, %function
 355              	UserFunc_4:
 356              	.LFB67:
 125:.\lib_MyDelay/myDelay.c **** 
 126:.\lib_MyDelay/myDelay.c **** static void UserFunc_4(void)
 127:.\lib_MyDelay/myDelay.c **** {
 357              		.loc 1 127 0
 358              		.cfi_startproc
 359 0000 80B5     		push	{r7, lr}
 360              		.cfi_def_cfa_offset 8
 361              		.cfi_offset 7, -8
 362              		.cfi_offset 14, -4
 363 0002 00AF     		add	r7, sp, #0
 364              		.cfi_def_cfa_register 7
 128:.\lib_MyDelay/myDelay.c ****     /*printf real time and num skier on way*/
 129:.\lib_MyDelay/myDelay.c ****     DisplayPrintfRealTime();
 365              		.loc 1 129 0
 366 0004 FFF7FEFF 		bl	DisplayPrintfRealTime
 130:.\lib_MyDelay/myDelay.c ****     DisplayPrintNumSkierOnWay(SkierOnWay());
 367              		.loc 1 130 0
 368 0008 FFF7FEFF 		bl	SkierOnWay
 369 000c 031C     		mov	r3, r0
 370 000e 181C     		mov	r0, r3
 371 0010 FFF7FEFF 		bl	DisplayPrintNumSkierOnWay
 131:.\lib_MyDelay/myDelay.c **** }...
 372              		.loc 1 131 0
 373 0014 BD46     		mov	sp, r7
 374              		@ sp needed
 375 0016 80BD     		pop	{r7, pc}
 376              		.cfi_endproc
ARM GAS  C:\DOCUME~1\Admin\LOCALS~1\Temp\ccrc8sss.s 			page 10


 377              	.LFE67:
 378              		.size	UserFunc_4, .-UserFunc_4
 379              		.text
 380              	.Letext0:
 381              		.file 2 "c:\\program files\\cypress\\psoc creator\\3.3\\psoc creator\\import\\gnu\\arm\\4.9.3\\arm
 382              		.file 3 "c:\\program files\\cypress\\psoc creator\\3.3\\psoc creator\\import\\gnu\\arm\\4.9.3\\arm
 383              		.file 4 "./lib_Fat\\integer.h"
 384              		.file 5 "./lib_Fat\\ff.h"
 385              		.file 6 "./lib_DB\\database.h"
 386              		.file 7 "./lib_Display\\display.h"
 387              		.file 8 "./lib_Network\\network.h"
 388              		.file 9 "./debug.h"
 389              		.file 10 "./lib_MyDelay\\myDelay.h"
 390              		.file 11 "./lib_DB\\logResult.h"