ARM GAS  C:\Users\Petro\AppData\Local\Temp\cca6xsYA.s 			page 1


   1              		.cpu cortex-m0
   2              		.fpu softvfp
   3              		.eabi_attribute 20, 1
   4              		.eabi_attribute 21, 1
   5              		.eabi_attribute 23, 3
   6              		.eabi_attribute 24, 1
   7              		.eabi_attribute 25, 1
   8              		.eabi_attribute 26, 1
   9              		.eabi_attribute 30, 6
  10              		.eabi_attribute 34, 0
  11              		.eabi_attribute 18, 4
  12              		.code	16
  13              		.file	"network.c"
  14              		.text
  15              	.Ltext0:
  16              		.cfi_sections	.debug_frame
  17              		.comm	PROTO_STATE,1,1
  18              		.comm	LenD1,1,1
  19              		.comm	LenD2,1,1
  20              		.comm	LenD3,1,1
  21              		.comm	LenSeq,1,1
  22              		.comm	LenChS,1,1
  23              		.comm	LenC,1,1
  24              		.comm	fatFs,560,4
  25              		.comm	fileO,552,4
  26              		.comm	createFlag,4,4
  27              		.comm	bufferSkiersOnWay,128,8
  28              		.comm	bufferFifo,384,8
  29              		.comm	currentSizeBuff,4,4
  30              		.comm	currentElementStart,4,4
  31              		.comm	currentElementFinish,4,4
  32              		.comm	skiersStarted,2,2
  33              		.comm	skiersFinished,2,2
  34              		.comm	skierDB,7200,8
  35              		.comm	fifo,632,8
  36              		.comm	NtpLenD1,1,1
  37              		.comm	NtpLenMsD1,1,1
  38              		.comm	NtpLenD2,1,1
  39              		.comm	NtpLenMsD2,1,1
  40              		.comm	NtpLenId,1,1
  41              		.comm	NtpLenChS,1,1
  42              		.comm	outData,24,8
  43              		.comm	inData,24,8
  44              		.comm	numAttemps,4,4
  45              		.comm	noConnect,4,4
  46              		.comm	networkStatus,4,4
  47              		.section	.text.InitNetwork,"ax",%progbits
  48              		.align	2
  49              		.global	InitNetwork
  50              		.code	16
  51              		.thumb_func
  52              		.type	InitNetwork, %function
  53              	InitNetwork:
  54              	.LFB63:
  55              		.file 1 ".\\lib_Network\\network.c"
   1:.\lib_Network/network.c **** /* ========================================
   2:.\lib_Network/network.c ****  *
ARM GAS  C:\Users\Petro\AppData\Local\Temp\cca6xsYA.s 			page 2


   3:.\lib_Network/network.c ****  * Copyright YOUR COMPANY, THE YEAR
   4:.\lib_Network/network.c ****  * All Rights Reserved
   5:.\lib_Network/network.c ****  * UNPUBLISHED, LICENSED SOFTWARE.
   6:.\lib_Network/network.c ****  *
   7:.\lib_Network/network.c ****  * CONFIDENTIAL AND PROPRIETARY INFORMATION
   8:.\lib_Network/network.c ****  * WHICH IS THE PROPERTY OF your company.
   9:.\lib_Network/network.c ****  *
  10:.\lib_Network/network.c ****  * ========================================
  11:.\lib_Network/network.c **** */
  12:.\lib_Network/network.c **** #include "lib_Network\network.h"
  13:.\lib_Network/network.c **** 
  14:.\lib_Network/network.c **** 
  15:.\lib_Network/network.c **** 
  16:.\lib_Network/network.c **** void InitNetwork(void)
  17:.\lib_Network/network.c **** {
  56              		.loc 1 17 0
  57              		.cfi_startproc
  58 0000 80B5     		push	{r7, lr}
  59              		.cfi_def_cfa_offset 8
  60              		.cfi_offset 7, -8
  61              		.cfi_offset 14, -4
  62 0002 00AF     		add	r7, sp, #0
  63              		.cfi_def_cfa_register 7
  18:.\lib_Network/network.c ****     UART_XB_Start();
  64              		.loc 1 18 0
  65 0004 FFF7FEFF 		bl	UART_XB_Start
  19:.\lib_Network/network.c ****     
  20:.\lib_Network/network.c ****     #ifdef DEBUG_PC
  21:.\lib_Network/network.c ****     SW_UART_DEBUG_Start();
  22:.\lib_Network/network.c ****     #endif
  23:.\lib_Network/network.c ****     
  24:.\lib_Network/network.c ****     inData.readStatus = READ_OK;
  66              		.loc 1 24 0
  67 0008 044B     		ldr	r3, .L2
  68 000a 0122     		mov	r2, #1
  69 000c DA74     		strb	r2, [r3, #19]
  25:.\lib_Network/network.c ****     outData.writeStatus = NO_WRITE;
  70              		.loc 1 25 0
  71 000e 044B     		ldr	r3, .L2+4
  72 0010 0022     		mov	r2, #0
  73 0012 9A74     		strb	r2, [r3, #18]
  26:.\lib_Network/network.c ****     UART_XB_SpiUartClearRxBuffer();
  74              		.loc 1 26 0
  75 0014 FFF7FEFF 		bl	UART_XB_SpiUartClearRxBuffer
  27:.\lib_Network/network.c ****     
  28:.\lib_Network/network.c **** }
  76              		.loc 1 28 0
  77 0018 BD46     		mov	sp, r7
  78              		@ sp needed
  79 001a 80BD     		pop	{r7, pc}
  80              	.L3:
  81              		.align	2
  82              	.L2:
  83 001c 00000000 		.word	inData
  84 0020 00000000 		.word	outData
  85              		.cfi_endproc
  86              	.LFE63:
ARM GAS  C:\Users\Petro\AppData\Local\Temp\cca6xsYA.s 			page 3


  87              		.size	InitNetwork, .-InitNetwork
  88              		.section	.rodata
  89              		.align	2
  90              	.LC4:
  91 0000 25303258 		.ascii	"%02X:%016X%02X%02X%02X\000"
  91      3A253031 
  91      36582530 
  91      32582530 
  91      32582530 
  92              		.section	.text.SendData,"ax",%progbits
  93              		.align	2
  94              		.global	SendData
  95              		.code	16
  96              		.thumb_func
  97              		.type	SendData, %function
  98              	SendData:
  99              	.LFB64:
  29:.\lib_Network/network.c **** 
  30:.\lib_Network/network.c **** 
  31:.\lib_Network/network.c **** void SendData(void)
  32:.\lib_Network/network.c **** {   
 100              		.loc 1 32 0
 101              		.cfi_startproc
 102 0000 90B5     		push	{r4, r7, lr}
 103              		.cfi_def_cfa_offset 12
 104              		.cfi_offset 4, -12
 105              		.cfi_offset 7, -8
 106              		.cfi_offset 14, -4
 107 0002 9FB0     		sub	sp, sp, #124
 108              		.cfi_def_cfa_offset 136
 109 0004 04AF     		add	r7, sp, #16
 110              		.cfi_def_cfa 7, 120
  33:.\lib_Network/network.c ****     if( outData.writeStatus == NO_WRITE || inData.readStatus == READ_OK)
 111              		.loc 1 33 0
 112 0006 204B     		ldr	r3, .L7
 113 0008 9B7C     		ldrb	r3, [r3, #18]
 114 000a 002B     		cmp	r3, #0
 115 000c 03D0     		beq	.L5
 116              		.loc 1 33 0 is_stmt 0 discriminator 1
 117 000e 1F4B     		ldr	r3, .L7+4
 118 0010 DB7C     		ldrb	r3, [r3, #19]
 119 0012 012B     		cmp	r3, #1
 120 0014 35D1     		bne	.L4
 121              	.L5:
 122              	.LBB2:
  34:.\lib_Network/network.c ****     {
  35:.\lib_Network/network.c ****         char sendBuffer[DATA_BUFFER];
  36:.\lib_Network/network.c ****         char sendData[DATA_BUFFER];
  37:.\lib_Network/network.c ****         
  38:.\lib_Network/network.c ****         outData.countSkiers = SkierOnWay();
 123              		.loc 1 38 0 is_stmt 1
 124 0016 FFF7FEFF 		bl	SkierOnWay
 125 001a 031C     		mov	r3, r0
 126 001c DAB2     		uxtb	r2, r3
 127 001e 1A4B     		ldr	r3, .L7
 128 0020 DA70     		strb	r2, [r3, #3]
  39:.\lib_Network/network.c ****         
ARM GAS  C:\Users\Petro\AppData\Local\Temp\cca6xsYA.s 			page 4


  40:.\lib_Network/network.c ****         /*for ntp protocol*/
  41:.\lib_Network/network.c ****         outData.reboot = 0;
 129              		.loc 1 41 0
 130 0022 194B     		ldr	r3, .L7
 131 0024 0022     		mov	r2, #0
 132 0026 9A70     		strb	r2, [r3, #2]
  42:.\lib_Network/network.c ****         
  43:.\lib_Network/network.c ****         /*pack data*/
  44:.\lib_Network/network.c ****         sprintf(sendData,"%02X:%016X%02X%02X%02X", 0u, 0u, outData.ready, outData.reboot, outData.c
 133              		.loc 1 44 0
 134 0028 174B     		ldr	r3, .L7
 135 002a 5B78     		ldrb	r3, [r3, #1]
 136 002c 1C1C     		mov	r4, r3
 137 002e 164B     		ldr	r3, .L7
 138 0030 9B78     		ldrb	r3, [r3, #2]
 139 0032 181C     		mov	r0, r3
 140 0034 144B     		ldr	r3, .L7
 141 0036 DB78     		ldrb	r3, [r3, #3]
 142 0038 191C     		mov	r1, r3
 143 003a 3423     		mov	r3, #52
 144 003c FA18     		add	r2, r7, r3
 145 003e 144B     		ldr	r3, .L7+8
 146 0040 0094     		str	r4, [sp]
 147 0042 0190     		str	r0, [sp, #4]
 148 0044 0291     		str	r1, [sp, #8]
 149 0046 101C     		mov	r0, r2
 150 0048 191C     		mov	r1, r3
 151 004a 0022     		mov	r2, #0
 152 004c 0023     		mov	r3, #0
 153 004e FFF7FEFF 		bl	sprintf
  45:.\lib_Network/network.c ****         PackData(sendBuffer, (uint8_t *)sendData, outData.IDpacket);
 154              		.loc 1 45 0
 155 0052 0D4B     		ldr	r3, .L7
 156 0054 1B78     		ldrb	r3, [r3]
 157 0056 1C1C     		mov	r4, r3
 158 0058 3A1C     		mov	r2, r7
 159 005a 3423     		mov	r3, #52
 160 005c FB18     		add	r3, r7, r3
 161 005e 101C     		mov	r0, r2
 162 0060 191C     		mov	r1, r3
 163 0062 221C     		mov	r2, r4
 164 0064 FFF7FEFF 		bl	PackData
  46:.\lib_Network/network.c ****         UART_XB_UartPutString(sendBuffer);
 165              		.loc 1 46 0
 166 0068 3B1C     		mov	r3, r7
 167 006a 181C     		mov	r0, r3
 168 006c FFF7FEFF 		bl	UART_XB_UartPutString
  47:.\lib_Network/network.c ****         
  48:.\lib_Network/network.c ****         /*flag transmit data*/
  49:.\lib_Network/network.c ****         outData.writeStatus = WRITE_OK;
 169              		.loc 1 49 0
 170 0070 054B     		ldr	r3, .L7
 171 0072 0122     		mov	r2, #1
 172 0074 9A74     		strb	r2, [r3, #18]
  50:.\lib_Network/network.c ****         inData.readStatus = NO_READ;
 173              		.loc 1 50 0
 174 0076 054B     		ldr	r3, .L7+4
ARM GAS  C:\Users\Petro\AppData\Local\Temp\cca6xsYA.s 			page 5


 175 0078 0022     		mov	r2, #0
 176 007a DA74     		strb	r2, [r3, #19]
  51:.\lib_Network/network.c ****         
  52:.\lib_Network/network.c ****         /*set timeout*/
  53:.\lib_Network/network.c ****         noConnect = 0;
 177              		.loc 1 53 0
 178 007c 054B     		ldr	r3, .L7+12
 179 007e 0022     		mov	r2, #0
 180 0080 1A60     		str	r2, [r3]
 181              	.L4:
 182              	.LBE2:
  54:.\lib_Network/network.c ****         
  55:.\lib_Network/network.c ****         #ifdef DEBUG_PC
  56:.\lib_Network/network.c ****         SW_UART_DEBUG_PutString("out data - "); 
  57:.\lib_Network/network.c ****         SW_UART_DEBUG_PutString(sendBuffer);   
  58:.\lib_Network/network.c ****         SW_UART_DEBUG_PutString("\n\r");
  59:.\lib_Network/network.c ****         #endif  
  60:.\lib_Network/network.c ****     }
  61:.\lib_Network/network.c **** }
 183              		.loc 1 61 0
 184 0082 BD46     		mov	sp, r7
 185 0084 1BB0     		add	sp, sp, #108
 186              		@ sp needed
 187 0086 90BD     		pop	{r4, r7, pc}
 188              	.L8:
 189              		.align	2
 190              	.L7:
 191 0088 00000000 		.word	outData
 192 008c 00000000 		.word	inData
 193 0090 00000000 		.word	.LC4
 194 0094 00000000 		.word	noConnect
 195              		.cfi_endproc
 196              	.LFE64:
 197              		.size	SendData, .-SendData
 198              		.section	.text.ReceiveData,"ax",%progbits
 199              		.align	2
 200              		.global	ReceiveData
 201              		.code	16
 202              		.thumb_func
 203              		.type	ReceiveData, %function
 204              	ReceiveData:
 205              	.LFB65:
  62:.\lib_Network/network.c **** 
  63:.\lib_Network/network.c **** 
  64:.\lib_Network/network.c **** uint32_t  ReceiveData(void)
  65:.\lib_Network/network.c **** {
 206              		.loc 1 65 0
 207              		.cfi_startproc
 208 0000 90B5     		push	{r4, r7, lr}
 209              		.cfi_def_cfa_offset 12
 210              		.cfi_offset 4, -12
 211              		.cfi_offset 7, -8
 212              		.cfi_offset 14, -4
 213 0002 8BB0     		sub	sp, sp, #44
 214              		.cfi_def_cfa_offset 56
 215 0004 00AF     		add	r7, sp, #0
 216              		.cfi_def_cfa_register 7
ARM GAS  C:\Users\Petro\AppData\Local\Temp\cca6xsYA.s 			page 6


  66:.\lib_Network/network.c ****     
  67:.\lib_Network/network.c ****     if(inData.readStatus == NO_READ && outData.writeStatus == WRITE_OK)
 217              		.loc 1 67 0
 218 0006 4D4B     		ldr	r3, .L20
 219 0008 DB7C     		ldrb	r3, [r3, #19]
 220 000a 002B     		cmp	r3, #0
 221 000c 00D0     		beq	.LCB143
 222 000e 8FE0     		b	.L10	@long jump
 223              	.LCB143:
 224              		.loc 1 67 0 is_stmt 0 discriminator 1
 225 0010 4B4B     		ldr	r3, .L20+4
 226 0012 9B7C     		ldrb	r3, [r3, #18]
 227 0014 012B     		cmp	r3, #1
 228 0016 00D0     		beq	.LCB147
 229 0018 8AE0     		b	.L10	@long jump
 230              	.LCB147:
 231              	.LBB3:
  68:.\lib_Network/network.c ****     {
  69:.\lib_Network/network.c ****         uint32_t result = 0;
 232              		.loc 1 69 0 is_stmt 1
 233 001a 0023     		mov	r3, #0
 234 001c 7B62     		str	r3, [r7, #36]
  70:.\lib_Network/network.c ****         int i;
  71:.\lib_Network/network.c ****         uint8_t byte;
  72:.\lib_Network/network.c ****         struct Resp recvData;
  73:.\lib_Network/network.c ****           
  74:.\lib_Network/network.c ****         while((UART_XB_SpiUartGetRxBufferSize() > 0) && ((byte=UART_XB_UartGetChar()) != 0))
 235              		.loc 1 74 0
 236 001e 64E0     		b	.L11
 237              	.L17:
  75:.\lib_Network/network.c ****         { 
  76:.\lib_Network/network.c ****             result = UnpackData(&recvData, (uint8_t)(byte & 0xFF));
 238              		.loc 1 76 0
 239 0020 3A1C     		mov	r2, r7
 240 0022 2323     		mov	r3, #35
 241 0024 FB18     		add	r3, r7, r3
 242 0026 1B78     		ldrb	r3, [r3]
 243 0028 101C     		mov	r0, r2
 244 002a 191C     		mov	r1, r3
 245 002c FFF7FEFF 		bl	UnpackData
 246 0030 031C     		mov	r3, r0
 247 0032 7B62     		str	r3, [r7, #36]
  77:.\lib_Network/network.c ****             
  78:.\lib_Network/network.c ****             #ifdef DEBUG_PC
  79:.\lib_Network/network.c ****             SW_UART_DEBUG_PutChar(byte);
  80:.\lib_Network/network.c ****             #endif
  81:.\lib_Network/network.c ****             
  82:.\lib_Network/network.c ****             if(recvData.EndPacket == 1)
 248              		.loc 1 82 0
 249 0034 3B1C     		mov	r3, r7
 250 0036 1B7E     		ldrb	r3, [r3, #24]
 251 0038 012B     		cmp	r3, #1
 252 003a 56D1     		bne	.L11
  83:.\lib_Network/network.c ****             {
  84:.\lib_Network/network.c ****                 inData.IDpacket = recvData.Seq;
 253              		.loc 1 84 0
 254 003c 3B1C     		mov	r3, r7
ARM GAS  C:\Users\Petro\AppData\Local\Temp\cca6xsYA.s 			page 7


 255 003e 1B88     		ldrh	r3, [r3]
 256 0040 DAB2     		uxtb	r2, r3
 257 0042 3E4B     		ldr	r3, .L20
 258 0044 1A70     		strb	r2, [r3]
  85:.\lib_Network/network.c ****                 
  86:.\lib_Network/network.c ****                 /*id packet ok*/
  87:.\lib_Network/network.c ****                 if(outData.IDpacket == inData.IDpacket)
 259              		.loc 1 87 0
 260 0046 3E4B     		ldr	r3, .L20+4
 261 0048 1A78     		ldrb	r2, [r3]
 262 004a 3C4B     		ldr	r3, .L20
 263 004c 1B78     		ldrb	r3, [r3]
 264 004e 9A42     		cmp	r2, r3
 265 0050 2DD1     		bne	.L12
  88:.\lib_Network/network.c ****                 {
  89:.\lib_Network/network.c ****                     inData.readStatus = READ_OK;
 266              		.loc 1 89 0
 267 0052 3A4B     		ldr	r3, .L20
 268 0054 0122     		mov	r2, #1
 269 0056 DA74     		strb	r2, [r3, #19]
  90:.\lib_Network/network.c ****                     outData.writeStatus = NO_WRITE;
 270              		.loc 1 90 0
 271 0058 394B     		ldr	r3, .L20+4
 272 005a 0022     		mov	r2, #0
 273 005c 9A74     		strb	r2, [r3, #18]
  91:.\lib_Network/network.c ****                     
  92:.\lib_Network/network.c ****                     /*connect network*/
  93:.\lib_Network/network.c ****                     networkStatus = NETWORK_CONN;
 274              		.loc 1 93 0
 275 005e 394B     		ldr	r3, .L20+8
 276 0060 0122     		mov	r2, #1
 277 0062 1A60     		str	r2, [r3]
  94:.\lib_Network/network.c ****                     noConnect = 0;
 278              		.loc 1 94 0
 279 0064 384B     		ldr	r3, .L20+12
 280 0066 0022     		mov	r2, #0
 281 0068 1A60     		str	r2, [r3]
  95:.\lib_Network/network.c ****                     
  96:.\lib_Network/network.c ****                     /*write data*/
  97:.\lib_Network/network.c ****                     inData.newSkier = recvData.Data3;
 282              		.loc 1 97 0
 283 006a 3B1C     		mov	r3, r7
 284 006c 9A7C     		ldrb	r2, [r3, #18]
 285 006e 334B     		ldr	r3, .L20
 286 0070 9A74     		strb	r2, [r3, #18]
  98:.\lib_Network/network.c ****                     inData.unixStartTime = recvData.Data1;
 287              		.loc 1 98 0
 288 0072 3B1C     		mov	r3, r7
 289 0074 DC68     		ldr	r4, [r3, #12]
 290 0076 9B68     		ldr	r3, [r3, #8]
 291 0078 304A     		ldr	r2, .L20
 292 007a 9360     		str	r3, [r2, #8]
 293 007c D460     		str	r4, [r2, #12]
  99:.\lib_Network/network.c ****                     inData.startMsTime = recvData.Data2;
 294              		.loc 1 99 0
 295 007e 3B1C     		mov	r3, r7
 296 0080 1A8A     		ldrh	r2, [r3, #16]
ARM GAS  C:\Users\Petro\AppData\Local\Temp\cca6xsYA.s 			page 8


 297 0082 2E4B     		ldr	r3, .L20
 298 0084 1A82     		strh	r2, [r3, #16]
 100:.\lib_Network/network.c ****                     
 101:.\lib_Network/network.c ****                     /*if new skier on track*/
 102:.\lib_Network/network.c ****                     if(inData.newSkier == NEW_SKIER_IN_TARCK )
 299              		.loc 1 102 0
 300 0086 2D4B     		ldr	r3, .L20
 301 0088 9B7C     		ldrb	r3, [r3, #18]
 302 008a 012B     		cmp	r3, #1
 303 008c 08D1     		bne	.L13
 103:.\lib_Network/network.c ****                     {
 104:.\lib_Network/network.c ****                         WriteStartTime(inData.unixStartTime, inData.startMsTime);
 304              		.loc 1 104 0
 305 008e 2B4B     		ldr	r3, .L20
 306 0090 DC68     		ldr	r4, [r3, #12]
 307 0092 9B68     		ldr	r3, [r3, #8]
 308 0094 294A     		ldr	r2, .L20
 309 0096 128A     		ldrh	r2, [r2, #16]
 310 0098 181C     		mov	r0, r3
 311 009a 211C     		mov	r1, r4
 312 009c FFF7FEFF 		bl	WriteStartTime
 313              	.L13:
 105:.\lib_Network/network.c ****                     }
 106:.\lib_Network/network.c ****                     
 107:.\lib_Network/network.c ****                     /*next packet*/
 108:.\lib_Network/network.c ****                     outData.IDpacket++;
 314              		.loc 1 108 0
 315 00a0 274B     		ldr	r3, .L20+4
 316 00a2 1B78     		ldrb	r3, [r3]
 317 00a4 0133     		add	r3, r3, #1
 318 00a6 DAB2     		uxtb	r2, r3
 319 00a8 254B     		ldr	r3, .L20+4
 320 00aa 1A70     		strb	r2, [r3]
 321 00ac 1BE0     		b	.L14
 322              	.L12:
 109:.\lib_Network/network.c ****                     
 110:.\lib_Network/network.c ****                     #ifdef DEBUG_PC
 111:.\lib_Network/network.c ****                     SW_UART_DEBUG_PutString("       READ DATA OKEY");   
 112:.\lib_Network/network.c ****                     SW_UART_DEBUG_PutString("\n\r");
 113:.\lib_Network/network.c ****                     #endif 
 114:.\lib_Network/network.c ****                 }  
 115:.\lib_Network/network.c ****                 /* if prev packet late*/
 116:.\lib_Network/network.c ****                 else if(outData.IDpacket == (inData.IDpacket + 1))
 323              		.loc 1 116 0
 324 00ae 244B     		ldr	r3, .L20+4
 325 00b0 1B78     		ldrb	r3, [r3]
 326 00b2 1A1C     		mov	r2, r3
 327 00b4 214B     		ldr	r3, .L20
 328 00b6 1B78     		ldrb	r3, [r3]
 329 00b8 0133     		add	r3, r3, #1
 330 00ba 9A42     		cmp	r2, r3
 331 00bc 13D1     		bne	.L14
 117:.\lib_Network/network.c ****                 {
 118:.\lib_Network/network.c ****                     inData.newSkier = recvData.Data3;
 332              		.loc 1 118 0
 333 00be 3B1C     		mov	r3, r7
 334 00c0 9A7C     		ldrb	r2, [r3, #18]
ARM GAS  C:\Users\Petro\AppData\Local\Temp\cca6xsYA.s 			page 9


 335 00c2 1E4B     		ldr	r3, .L20
 336 00c4 9A74     		strb	r2, [r3, #18]
 119:.\lib_Network/network.c ****                     inData.unixStartTime = recvData.Data1;
 337              		.loc 1 119 0
 338 00c6 3B1C     		mov	r3, r7
 339 00c8 DC68     		ldr	r4, [r3, #12]
 340 00ca 9B68     		ldr	r3, [r3, #8]
 341 00cc 1B4A     		ldr	r2, .L20
 342 00ce 9360     		str	r3, [r2, #8]
 343 00d0 D460     		str	r4, [r2, #12]
 120:.\lib_Network/network.c ****                     inData.startMsTime = recvData.Data2;
 344              		.loc 1 120 0
 345 00d2 3B1C     		mov	r3, r7
 346 00d4 1A8A     		ldrh	r2, [r3, #16]
 347 00d6 194B     		ldr	r3, .L20
 348 00d8 1A82     		strh	r2, [r3, #16]
 121:.\lib_Network/network.c ****                     
 122:.\lib_Network/network.c ****                     networkStatus = NETWORK_CONN;
 349              		.loc 1 122 0
 350 00da 1A4B     		ldr	r3, .L20+8
 351 00dc 0122     		mov	r2, #1
 352 00de 1A60     		str	r2, [r3]
 123:.\lib_Network/network.c ****                     noConnect = 0;
 353              		.loc 1 123 0
 354 00e0 194B     		ldr	r3, .L20+12
 355 00e2 0022     		mov	r2, #0
 356 00e4 1A60     		str	r2, [r3]
 357              	.L14:
 124:.\lib_Network/network.c ****                     
 125:.\lib_Network/network.c ****                     #ifdef DEBUG_PC
 126:.\lib_Network/network.c ****                     SW_UART_DEBUG_PutString("       READ PREV DATA OKEY");   
 127:.\lib_Network/network.c ****                     SW_UART_DEBUG_PutString("\n\r");
 128:.\lib_Network/network.c ****                     #endif 
 129:.\lib_Network/network.c ****                 }
 130:.\lib_Network/network.c ****                 return  NETWORK_CONN;  
 358              		.loc 1 130 0
 359 00e6 0123     		mov	r3, #1
 360 00e8 23E0     		b	.L19
 361              	.L11:
  74:.\lib_Network/network.c ****         { 
 362              		.loc 1 74 0
 363 00ea FFF7FEFF 		bl	UART_XB_SpiUartGetRxBufferSize
 364 00ee 031E     		sub	r3, r0, #0
 365 00f0 0AD0     		beq	.L16
  74:.\lib_Network/network.c ****         { 
 366              		.loc 1 74 0 is_stmt 0 discriminator 1
 367 00f2 FFF7FEFF 		bl	UART_XB_UartGetChar
 368 00f6 021C     		mov	r2, r0
 369 00f8 2323     		mov	r3, #35
 370 00fa FB18     		add	r3, r7, r3
 371 00fc 1A70     		strb	r2, [r3]
 372 00fe 2323     		mov	r3, #35
 373 0100 FB18     		add	r3, r7, r3
 374 0102 1B78     		ldrb	r3, [r3]
 375 0104 002B     		cmp	r3, #0
 376 0106 8BD1     		bne	.L17
 377              	.L16:
ARM GAS  C:\Users\Petro\AppData\Local\Temp\cca6xsYA.s 			page 10


 131:.\lib_Network/network.c ****             }
 132:.\lib_Network/network.c **** 
 133:.\lib_Network/network.c ****         }
 134:.\lib_Network/network.c ****         
 135:.\lib_Network/network.c ****         noConnect++;
 378              		.loc 1 135 0 is_stmt 1
 379 0108 0F4B     		ldr	r3, .L20+12
 380 010a 1B68     		ldr	r3, [r3]
 381 010c 5A1C     		add	r2, r3, #1
 382 010e 0E4B     		ldr	r3, .L20+12
 383 0110 1A60     		str	r2, [r3]
 136:.\lib_Network/network.c ****         if(noConnect >= NETWORK_TIMEOUT)
 384              		.loc 1 136 0
 385 0112 0D4B     		ldr	r3, .L20+12
 386 0114 1B68     		ldr	r3, [r3]
 387 0116 1D2B     		cmp	r3, #29
 388 0118 08D9     		bls	.L18
 137:.\lib_Network/network.c ****         {
 138:.\lib_Network/network.c ****             outData.writeStatus = NO_WRITE;
 389              		.loc 1 138 0
 390 011a 094B     		ldr	r3, .L20+4
 391 011c 0022     		mov	r2, #0
 392 011e 9A74     		strb	r2, [r3, #18]
 139:.\lib_Network/network.c ****             inData.readStatus = NO_READ;
 393              		.loc 1 139 0
 394 0120 064B     		ldr	r3, .L20
 395 0122 0022     		mov	r2, #0
 396 0124 DA74     		strb	r2, [r3, #19]
 140:.\lib_Network/network.c ****             networkStatus = NETWORK_DISCONN;
 397              		.loc 1 140 0
 398 0126 074B     		ldr	r3, .L20+8
 399 0128 0022     		mov	r2, #0
 400 012a 1A60     		str	r2, [r3]
 401              	.L18:
 141:.\lib_Network/network.c ****         }
 142:.\lib_Network/network.c **** 
 143:.\lib_Network/network.c ****         #ifdef DEBUG_PC
 144:.\lib_Network/network.c ****         //SW_UART_DEBUG_PutString("ERROR READ!!!!");   
 145:.\lib_Network/network.c ****         SW_UART_DEBUG_PutString("\n\r");
 146:.\lib_Network/network.c ****         #endif 
 147:.\lib_Network/network.c ****         
 148:.\lib_Network/network.c ****         return  NETWORK_DISCONN;
 402              		.loc 1 148 0
 403 012c 0023     		mov	r3, #0
 404 012e 00E0     		b	.L19
 405              	.L10:
 406              	.LBE3:
 149:.\lib_Network/network.c ****     }
 150:.\lib_Network/network.c ****     return 0;
 407              		.loc 1 150 0
 408 0130 0023     		mov	r3, #0
 409              	.L19:
 151:.\lib_Network/network.c **** }
 410              		.loc 1 151 0 discriminator 1
 411 0132 181C     		mov	r0, r3
 412 0134 BD46     		mov	sp, r7
 413 0136 0BB0     		add	sp, sp, #44
ARM GAS  C:\Users\Petro\AppData\Local\Temp\cca6xsYA.s 			page 11


 414              		@ sp needed
 415 0138 90BD     		pop	{r4, r7, pc}
 416              	.L21:
 417 013a C046     		.align	2
 418              	.L20:
 419 013c 00000000 		.word	inData
 420 0140 00000000 		.word	outData
 421 0144 00000000 		.word	networkStatus
 422 0148 00000000 		.word	noConnect
 423              		.cfi_endproc
 424              	.LFE65:
 425              		.size	ReceiveData, .-ReceiveData
 426              		.section	.text.SendFinStatus,"ax",%progbits
 427              		.align	2
 428              		.global	SendFinStatus
 429              		.code	16
 430              		.thumb_func
 431              		.type	SendFinStatus, %function
 432              	SendFinStatus:
 433              	.LFB66:
 152:.\lib_Network/network.c **** 
 153:.\lib_Network/network.c **** 
 154:.\lib_Network/network.c **** 
 155:.\lib_Network/network.c **** void SendFinStatus(uint32_t ready)
 156:.\lib_Network/network.c **** {
 434              		.loc 1 156 0
 435              		.cfi_startproc
 436 0000 80B5     		push	{r7, lr}
 437              		.cfi_def_cfa_offset 8
 438              		.cfi_offset 7, -8
 439              		.cfi_offset 14, -4
 440 0002 82B0     		sub	sp, sp, #8
 441              		.cfi_def_cfa_offset 16
 442 0004 00AF     		add	r7, sp, #0
 443              		.cfi_def_cfa_register 7
 444 0006 7860     		str	r0, [r7, #4]
 157:.\lib_Network/network.c ****     outData.ready = ready;
 445              		.loc 1 157 0
 446 0008 7B68     		ldr	r3, [r7, #4]
 447 000a DAB2     		uxtb	r2, r3
 448 000c 024B     		ldr	r3, .L23
 449 000e 5A70     		strb	r2, [r3, #1]
 158:.\lib_Network/network.c **** }
 450              		.loc 1 158 0
 451 0010 BD46     		mov	sp, r7
 452 0012 02B0     		add	sp, sp, #8
 453              		@ sp needed
 454 0014 80BD     		pop	{r7, pc}
 455              	.L24:
 456 0016 C046     		.align	2
 457              	.L23:
 458 0018 00000000 		.word	outData
 459              		.cfi_endproc
 460              	.LFE66:
 461              		.size	SendFinStatus, .-SendFinStatus
 462              		.section	.text.NetworkStatus,"ax",%progbits
 463              		.align	2
ARM GAS  C:\Users\Petro\AppData\Local\Temp\cca6xsYA.s 			page 12


 464              		.global	NetworkStatus
 465              		.code	16
 466              		.thumb_func
 467              		.type	NetworkStatus, %function
 468              	NetworkStatus:
 469              	.LFB67:
 159:.\lib_Network/network.c **** 
 160:.\lib_Network/network.c **** uint32_t NetworkStatus(void)
 161:.\lib_Network/network.c **** {
 470              		.loc 1 161 0
 471              		.cfi_startproc
 472 0000 80B5     		push	{r7, lr}
 473              		.cfi_def_cfa_offset 8
 474              		.cfi_offset 7, -8
 475              		.cfi_offset 14, -4
 476 0002 00AF     		add	r7, sp, #0
 477              		.cfi_def_cfa_register 7
 162:.\lib_Network/network.c ****     return networkStatus;
 478              		.loc 1 162 0
 479 0004 024B     		ldr	r3, .L27
 480 0006 1B68     		ldr	r3, [r3]
 163:.\lib_Network/network.c **** }
 481              		.loc 1 163 0
 482 0008 181C     		mov	r0, r3
 483 000a BD46     		mov	sp, r7
 484              		@ sp needed
 485 000c 80BD     		pop	{r7, pc}
 486              	.L28:
 487 000e C046     		.align	2
 488              	.L27:
 489 0010 00000000 		.word	networkStatus
 490              		.cfi_endproc
 491              	.LFE67:
 492              		.size	NetworkStatus, .-NetworkStatus
 493              		.global	__aeabi_uidiv
 494              		.section	.rodata
 495 0017 00       		.align	2
 496              	.LC13:
 497 0018 53415645 		.ascii	"SAVE REAL TIME!!!!!!!!!!!!!!!\000"
 497      20524541 
 497      4C205449 
 497      4D452121 
 497      21212121 
 498 0036 0000     		.align	2
 499              	.LC15:
 500 0038 0A0D7265 		.ascii	"\012\015real time= %u, delivery= %u\012\015\000"
 500      616C2074 
 500      696D653D 
 500      2025752C 
 500      2064656C 
 501              		.section	.text.NTPsync,"ax",%progbits
 502              		.align	2
 503              		.global	NTPsync
 504              		.code	16
 505              		.thumb_func
 506              		.type	NTPsync, %function
 507              	NTPsync:
ARM GAS  C:\Users\Petro\AppData\Local\Temp\cca6xsYA.s 			page 13


 508              	.LFB68:
 164:.\lib_Network/network.c **** 
 165:.\lib_Network/network.c **** /*NTP */
 166:.\lib_Network/network.c **** 
 167:.\lib_Network/network.c **** uint32_t NTPsync(void)
 168:.\lib_Network/network.c **** {
 509              		.loc 1 168 0
 510              		.cfi_startproc
 511 0000 90B5     		push	{r4, r7, lr}
 512              		.cfi_def_cfa_offset 12
 513              		.cfi_offset 4, -12
 514              		.cfi_offset 7, -8
 515              		.cfi_offset 14, -4
 516 0002 B1B0     		sub	sp, sp, #196
 517              		.cfi_def_cfa_offset 208
 518 0004 02AF     		add	r7, sp, #8
 519              		.cfi_def_cfa 7, 200
 169:.\lib_Network/network.c ****     int i;
 170:.\lib_Network/network.c ****     uint16_t result;
 171:.\lib_Network/network.c ****     uint32_t IDpacket;
 172:.\lib_Network/network.c ****     uint32_t IDreceivePacket;
 173:.\lib_Network/network.c ****     uint32_t unixTime[4];
 174:.\lib_Network/network.c ****     uint16_t millisTime[4];
 175:.\lib_Network/network.c ****     uint32_t deliveryTime;
 176:.\lib_Network/network.c ****     uint32_t deliveryMs;
 177:.\lib_Network/network.c ****     uint32_t resultReceive;
 178:.\lib_Network/network.c ****     uint32_t noConnect;
 179:.\lib_Network/network.c ****     int32_t sumTime;
 180:.\lib_Network/network.c ****     int32_t sumMillis;
 181:.\lib_Network/network.c ****     
 182:.\lib_Network/network.c ****     deliveryTime = 0;
 520              		.loc 1 182 0
 521 0006 0023     		mov	r3, #0
 522 0008 A822     		mov	r2, #168
 523 000a BA18     		add	r2, r7, r2
 524 000c 1360     		str	r3, [r2]
 183:.\lib_Network/network.c ****     deliveryMs = 0;
 525              		.loc 1 183 0
 526 000e 0023     		mov	r3, #0
 527 0010 A422     		mov	r2, #164
 528 0012 BA18     		add	r2, r7, r2
 529 0014 1360     		str	r3, [r2]
 184:.\lib_Network/network.c ****     IDpacket = 0;
 530              		.loc 1 184 0
 531 0016 0023     		mov	r3, #0
 532 0018 AC22     		mov	r2, #172
 533 001a BA18     		add	r2, r7, r2
 534 001c 1360     		str	r3, [r2]
 185:.\lib_Network/network.c ****     IDreceivePacket = 0;
 535              		.loc 1 185 0
 536 001e 0023     		mov	r3, #0
 537 0020 8822     		mov	r2, #136
 538 0022 BA18     		add	r2, r7, r2
 539 0024 1360     		str	r3, [r2]
 186:.\lib_Network/network.c ****     noConnect = 0;
 540              		.loc 1 186 0
 541 0026 0023     		mov	r3, #0
ARM GAS  C:\Users\Petro\AppData\Local\Temp\cca6xsYA.s 			page 14


 542 0028 A022     		mov	r2, #160
 543 002a BA18     		add	r2, r7, r2
 544 002c 1360     		str	r3, [r2]
 187:.\lib_Network/network.c ****     #ifdef DEBUG_NTP
 188:.\lib_Network/network.c ****     SW_UART_DEBUG_PutString("START\n\r");                
 189:.\lib_Network/network.c ****     #endif
 190:.\lib_Network/network.c ****     #ifdef DEBUG_TIME
 191:.\lib_Network/network.c ****     char buffer[100];                
 192:.\lib_Network/network.c ****     #endif
 193:.\lib_Network/network.c ****     
 194:.\lib_Network/network.c ****     for(i=0; i < NUM_TRY_SYNC && noConnect <= NUM_CONNECT_ATTEMPS;)
 545              		.loc 1 194 0
 546 002e 0023     		mov	r3, #0
 547 0030 B422     		mov	r2, #180
 548 0032 BA18     		add	r2, r7, r2
 549 0034 1360     		str	r3, [r2]
 550 0036 8AE0     		b	.L30
 551              	.L33:
 195:.\lib_Network/network.c ****     {
 196:.\lib_Network/network.c ****         /*send real time to start*/
 197:.\lib_Network/network.c **** 
 198:.\lib_Network/network.c ****         unixTime[T1] = RTCGetUnixTime();
 552              		.loc 1 198 0
 553 0038 FFF7FEFF 		bl	RTCGetUnixTime
 554 003c 031C     		mov	r3, r0
 555 003e 0C1C     		mov	r4, r1
 556 0040 1A1C     		mov	r2, r3
 557 0042 7823     		mov	r3, #120
 558 0044 FB18     		add	r3, r7, r3
 559 0046 1A60     		str	r2, [r3]
 199:.\lib_Network/network.c ****         millisTime[T1] = RTCgetRecentMs();
 560              		.loc 1 199 0
 561 0048 FFF7FEFF 		bl	RTCgetRecentMs
 562 004c 031C     		mov	r3, r0
 563 004e 9AB2     		uxth	r2, r3
 564 0050 7023     		mov	r3, #112
 565 0052 FB18     		add	r3, r7, r3
 566 0054 1A80     		strh	r2, [r3]
 200:.\lib_Network/network.c ****         NTPsendTime(unixTime[T1], millisTime[T1], IDpacket);
 567              		.loc 1 200 0
 568 0056 7823     		mov	r3, #120
 569 0058 FB18     		add	r3, r7, r3
 570 005a 1968     		ldr	r1, [r3]
 571 005c 7023     		mov	r3, #112
 572 005e FB18     		add	r3, r7, r3
 573 0060 1A88     		ldrh	r2, [r3]
 574 0062 AC23     		mov	r3, #172
 575 0064 FB18     		add	r3, r7, r3
 576 0066 1B68     		ldr	r3, [r3]
 577 0068 081C     		mov	r0, r1
 578 006a 111C     		mov	r1, r2
 579 006c 1A1C     		mov	r2, r3
 580 006e FFF7FEFF 		bl	NTPsendTime
 201:.\lib_Network/network.c ****         
 202:.\lib_Network/network.c ****         #ifdef DEBUG_TIME
 203:.\lib_Network/network.c ****         sprintf(buffer,"T1 = %u:%u\n\r",unixTime[T1],millisTime[T1]);
 204:.\lib_Network/network.c ****         SW_UART_DEBUG_PutString(buffer);                
ARM GAS  C:\Users\Petro\AppData\Local\Temp\cca6xsYA.s 			page 15


 205:.\lib_Network/network.c ****         #endif
 206:.\lib_Network/network.c ****         #ifdef DEBUG_PC 
 207:.\lib_Network/network.c ****         char buffer[100];
 208:.\lib_Network/network.c ****         //sprintf(buffer,"\n\rsend time t1= %u\n\r",unixTime[T1]);
 209:.\lib_Network/network.c ****         //SW_UART_DEBUG_PutString(buffer);
 210:.\lib_Network/network.c ****         #endif
 211:.\lib_Network/network.c ****         CyDelay(300);
 581              		.loc 1 211 0
 582 0072 9623     		mov	r3, #150
 583 0074 5B00     		lsl	r3, r3, #1
 584 0076 181C     		mov	r0, r3
 585 0078 FFF7FEFF 		bl	CyDelay
 212:.\lib_Network/network.c ****         /*receive time from start*/
 213:.\lib_Network/network.c ****         resultReceive = NTPreceiveTime(&unixTime[T2],&millisTime[T2], &unixTime[T3], &millisTime[T3
 586              		.loc 1 213 0
 587 007c 7823     		mov	r3, #120
 588 007e FB18     		add	r3, r7, r3
 589 0080 181D     		add	r0, r3, #4
 590 0082 7023     		mov	r3, #112
 591 0084 FB18     		add	r3, r7, r3
 592 0086 991C     		add	r1, r3, #2
 593 0088 7823     		mov	r3, #120
 594 008a FB18     		add	r3, r7, r3
 595 008c 0833     		add	r3, r3, #8
 596 008e 1A1C     		mov	r2, r3
 597 0090 7023     		mov	r3, #112
 598 0092 FB18     		add	r3, r7, r3
 599 0094 1C1D     		add	r4, r3, #4
 600 0096 8823     		mov	r3, #136
 601 0098 FB18     		add	r3, r7, r3
 602 009a 0093     		str	r3, [sp]
 603 009c 231C     		mov	r3, r4
 604 009e FFF7FEFF 		bl	NTPreceiveTime
 605 00a2 031C     		mov	r3, r0
 606 00a4 9C22     		mov	r2, #156
 607 00a6 BA18     		add	r2, r7, r2
 608 00a8 1360     		str	r3, [r2]
 214:.\lib_Network/network.c ****         
 215:.\lib_Network/network.c ****         #ifdef DEBUG_PC 
 216:.\lib_Network/network.c ****         if(resultReceive == READ_OK)
 217:.\lib_Network/network.c ****         {
 218:.\lib_Network/network.c ****             //sprintf(buffer,"\n\rt2= %u:%u, t3= %u:%u\n\r",unixTime[T2],millisTime[T2],unixTime[T3
 219:.\lib_Network/network.c ****             //SW_UART_DEBUG_PutString(buffer);
 220:.\lib_Network/network.c ****         }
 221:.\lib_Network/network.c ****         sprintf(buffer,"\n\rFinish i= %u, noConnect= %u\n\r",i,noConnect);
 222:.\lib_Network/network.c ****         SW_UART_DEBUG_PutString(buffer);
 223:.\lib_Network/network.c ****         #endif
 224:.\lib_Network/network.c ****         
 225:.\lib_Network/network.c ****         if((resultReceive == READ_OK) && (IDreceivePacket == IDpacket))
 609              		.loc 1 225 0
 610 00aa 9C23     		mov	r3, #156
 611 00ac FB18     		add	r3, r7, r3
 612 00ae 1B68     		ldr	r3, [r3]
 613 00b0 012B     		cmp	r3, #1
 614 00b2 45D1     		bne	.L31
 615              		.loc 1 225 0 is_stmt 0 discriminator 1
 616 00b4 8823     		mov	r3, #136
ARM GAS  C:\Users\Petro\AppData\Local\Temp\cca6xsYA.s 			page 16


 617 00b6 FB18     		add	r3, r7, r3
 618 00b8 1A68     		ldr	r2, [r3]
 619 00ba AC23     		mov	r3, #172
 620 00bc FB18     		add	r3, r7, r3
 621 00be 1B68     		ldr	r3, [r3]
 622 00c0 9A42     		cmp	r2, r3
 623 00c2 3DD1     		bne	.L31
 226:.\lib_Network/network.c ****         {
 227:.\lib_Network/network.c ****             /*delivery timing*/
 228:.\lib_Network/network.c ****             unixTime[T4] = RTCGetUnixTime();
 624              		.loc 1 228 0 is_stmt 1
 625 00c4 FFF7FEFF 		bl	RTCGetUnixTime
 626 00c8 031C     		mov	r3, r0
 627 00ca 0C1C     		mov	r4, r1
 628 00cc 1A1C     		mov	r2, r3
 629 00ce 7823     		mov	r3, #120
 630 00d0 FB18     		add	r3, r7, r3
 631 00d2 DA60     		str	r2, [r3, #12]
 229:.\lib_Network/network.c ****             millisTime[T4] = RTCgetRecentMs();
 632              		.loc 1 229 0
 633 00d4 FFF7FEFF 		bl	RTCgetRecentMs
 634 00d8 031C     		mov	r3, r0
 635 00da 9AB2     		uxth	r2, r3
 636 00dc 7023     		mov	r3, #112
 637 00de FB18     		add	r3, r7, r3
 638 00e0 DA80     		strh	r2, [r3, #6]
 230:.\lib_Network/network.c ****             
 231:.\lib_Network/network.c ****             #ifdef DEBUG_TIME
 232:.\lib_Network/network.c ****             sprintf(buffer,"T2 = %u:%u, T3 = %u:%u\n\r",unixTime[T2],millisTime[T2],unixTime[T3],mi
 233:.\lib_Network/network.c ****             SW_UART_DEBUG_PutString(buffer);                
 234:.\lib_Network/network.c ****             sprintf(buffer,"T4 = %u:%u\n\r",unixTime[T4],millisTime[T4]);
 235:.\lib_Network/network.c ****             SW_UART_DEBUG_PutString(buffer);                
 236:.\lib_Network/network.c ****             #endif  
 237:.\lib_Network/network.c ****             
 238:.\lib_Network/network.c ****             NTPcalculateTime(unixTime, millisTime,&sumTime, &sumMillis);
 639              		.loc 1 238 0
 640 00e2 7823     		mov	r3, #120
 641 00e4 F818     		add	r0, r7, r3
 642 00e6 7023     		mov	r3, #112
 643 00e8 F918     		add	r1, r7, r3
 644 00ea 6C23     		mov	r3, #108
 645 00ec FA18     		add	r2, r7, r3
 646 00ee 6823     		mov	r3, #104
 647 00f0 FB18     		add	r3, r7, r3
 648 00f2 FFF7FEFF 		bl	NTPcalculateTime
 239:.\lib_Network/network.c **** 
 240:.\lib_Network/network.c ****             deliveryTime += sumTime;
 649              		.loc 1 240 0
 650 00f6 FB6E     		ldr	r3, [r7, #108]
 651 00f8 1A1C     		mov	r2, r3
 652 00fa A823     		mov	r3, #168
 653 00fc FB18     		add	r3, r7, r3
 654 00fe 1B68     		ldr	r3, [r3]
 655 0100 9B18     		add	r3, r3, r2
 656 0102 A822     		mov	r2, #168
 657 0104 BA18     		add	r2, r7, r2
 658 0106 1360     		str	r3, [r2]
ARM GAS  C:\Users\Petro\AppData\Local\Temp\cca6xsYA.s 			page 17


 241:.\lib_Network/network.c ****             deliveryMs += sumMillis;
 659              		.loc 1 241 0
 660 0108 BB6E     		ldr	r3, [r7, #104]
 661 010a 1A1C     		mov	r2, r3
 662 010c A423     		mov	r3, #164
 663 010e FB18     		add	r3, r7, r3
 664 0110 1B68     		ldr	r3, [r3]
 665 0112 9B18     		add	r3, r3, r2
 666 0114 A422     		mov	r2, #164
 667 0116 BA18     		add	r2, r7, r2
 668 0118 1360     		str	r3, [r2]
 242:.\lib_Network/network.c ****             
 243:.\lib_Network/network.c ****             #ifdef DEBUG_TIME
 244:.\lib_Network/network.c ****             sprintf(buffer,"deliveryTime = %i:%u\n\r",sumTime,sumMillis);
 245:.\lib_Network/network.c ****             SW_UART_DEBUG_PutString(buffer);                
 246:.\lib_Network/network.c ****             #endif
 247:.\lib_Network/network.c ****             
 248:.\lib_Network/network.c ****             IDpacket++;
 669              		.loc 1 248 0
 670 011a AC23     		mov	r3, #172
 671 011c FB18     		add	r3, r7, r3
 672 011e 1B68     		ldr	r3, [r3]
 673 0120 0133     		add	r3, r3, #1
 674 0122 AC22     		mov	r2, #172
 675 0124 BA18     		add	r2, r7, r2
 676 0126 1360     		str	r3, [r2]
 249:.\lib_Network/network.c ****             noConnect=0;
 677              		.loc 1 249 0
 678 0128 0023     		mov	r3, #0
 679 012a A022     		mov	r2, #160
 680 012c BA18     		add	r2, r7, r2
 681 012e 1360     		str	r3, [r2]
 250:.\lib_Network/network.c ****             i++;
 682              		.loc 1 250 0
 683 0130 B423     		mov	r3, #180
 684 0132 FB18     		add	r3, r7, r3
 685 0134 1B68     		ldr	r3, [r3]
 686 0136 0133     		add	r3, r3, #1
 687 0138 B422     		mov	r2, #180
 688 013a BA18     		add	r2, r7, r2
 689 013c 1360     		str	r3, [r2]
 690 013e 06E0     		b	.L30
 691              	.L31:
 251:.\lib_Network/network.c ****             #ifdef DEBUG_NTP
 252:.\lib_Network/network.c ****                 if(i>=NUM_TRY_SYNC)i=0;
 253:.\lib_Network/network.c ****                 SW_UART_DEBUG_PutString("\n\rReceive okey ID++");
 254:.\lib_Network/network.c ****             #endif
 255:.\lib_Network/network.c ****             #ifdef DEBUG_PC 
 256:.\lib_Network/network.c ****             //sprintf(buffer,"\n\r DEV!!! time s= %u, ms = %u\n\r",deliveryTime,deliveryMs);
 257:.\lib_Network/network.c ****             //SW_UART_DEBUG_PutString(buffer);
 258:.\lib_Network/network.c ****             #endif            
 259:.\lib_Network/network.c ****         }else
 260:.\lib_Network/network.c ****         {
 261:.\lib_Network/network.c ****             noConnect++;
 692              		.loc 1 261 0
 693 0140 A023     		mov	r3, #160
 694 0142 FB18     		add	r3, r7, r3
ARM GAS  C:\Users\Petro\AppData\Local\Temp\cca6xsYA.s 			page 18


 695 0144 1B68     		ldr	r3, [r3]
 696 0146 0133     		add	r3, r3, #1
 697 0148 A022     		mov	r2, #160
 698 014a BA18     		add	r2, r7, r2
 699 014c 1360     		str	r3, [r2]
 700              	.L30:
 194:.\lib_Network/network.c ****     {
 701              		.loc 1 194 0 discriminator 1
 702 014e B423     		mov	r3, #180
 703 0150 FB18     		add	r3, r7, r3
 704 0152 1B68     		ldr	r3, [r3]
 705 0154 092B     		cmp	r3, #9
 706 0156 05DC     		bgt	.L32
 194:.\lib_Network/network.c ****     {
 707              		.loc 1 194 0 is_stmt 0 discriminator 2
 708 0158 A023     		mov	r3, #160
 709 015a FB18     		add	r3, r7, r3
 710 015c 1B68     		ldr	r3, [r3]
 711 015e 642B     		cmp	r3, #100
 712 0160 00D8     		bhi	.LCB571
 713 0162 69E7     		b	.L33	@long jump
 714              	.LCB571:
 715              	.L32:
 262:.\lib_Network/network.c ****             //CyDelay(500);
 263:.\lib_Network/network.c ****             #ifdef DEBUG_NTP
 264:.\lib_Network/network.c ****             //CyDelay(30);
 265:.\lib_Network/network.c ****             #endif
 266:.\lib_Network/network.c ****         }
 267:.\lib_Network/network.c ****     }
 268:.\lib_Network/network.c ****     
 269:.\lib_Network/network.c ****     
 270:.\lib_Network/network.c ****     if(noConnect >= NUM_CONNECT_ATTEMPS)
 716              		.loc 1 270 0 is_stmt 1
 717 0164 A023     		mov	r3, #160
 718 0166 FB18     		add	r3, r7, r3
 719 0168 1B68     		ldr	r3, [r3]
 720 016a 632B     		cmp	r3, #99
 721 016c 04D9     		bls	.L34
 271:.\lib_Network/network.c ****     {
 272:.\lib_Network/network.c ****         result = TIME_SYNC_ERR;
 722              		.loc 1 272 0
 723 016e B223     		mov	r3, #178
 724 0170 FB18     		add	r3, r7, r3
 725 0172 0122     		mov	r2, #1
 726 0174 1A80     		strh	r2, [r3]
 727 0176 93E0     		b	.L35
 728              	.L34:
 729              	.LBB4:
 273:.\lib_Network/network.c ****     }else
 274:.\lib_Network/network.c ****     {
 275:.\lib_Network/network.c ****         uint16_t outMs;
 276:.\lib_Network/network.c ****         uint16_t tmpDataMs;
 277:.\lib_Network/network.c ****                 
 278:.\lib_Network/network.c ****         tmpDataMs = deliveryTime*1000;
 730              		.loc 1 278 0
 731 0178 A823     		mov	r3, #168
 732 017a FB18     		add	r3, r7, r3
ARM GAS  C:\Users\Petro\AppData\Local\Temp\cca6xsYA.s 			page 19


 733 017c 1B68     		ldr	r3, [r3]
 734 017e 9AB2     		uxth	r2, r3
 735 0180 9A23     		mov	r3, #154
 736 0182 FB18     		add	r3, r7, r3
 737 0184 FA21     		mov	r1, #250
 738 0186 8900     		lsl	r1, r1, #2
 739 0188 4A43     		mul	r2, r1
 740 018a 1A80     		strh	r2, [r3]
 279:.\lib_Network/network.c ****         deliveryTime  = 0;///= NUM_TRY_SYNC;
 741              		.loc 1 279 0
 742 018c 0023     		mov	r3, #0
 743 018e A822     		mov	r2, #168
 744 0190 BA18     		add	r2, r7, r2
 745 0192 1360     		str	r3, [r2]
 280:.\lib_Network/network.c ****         deliveryMs = (tmpDataMs + deliveryMs)/(NUM_TRY_SYNC);
 746              		.loc 1 280 0
 747 0194 9A23     		mov	r3, #154
 748 0196 FB18     		add	r3, r7, r3
 749 0198 1A88     		ldrh	r2, [r3]
 750 019a A423     		mov	r3, #164
 751 019c FB18     		add	r3, r7, r3
 752 019e 1B68     		ldr	r3, [r3]
 753 01a0 D318     		add	r3, r2, r3
 754 01a2 181C     		mov	r0, r3
 755 01a4 0A21     		mov	r1, #10
 756 01a6 FFF7FEFF 		bl	__aeabi_uidiv
 757 01aa 031C     		mov	r3, r0
 758 01ac A422     		mov	r2, #164
 759 01ae BA18     		add	r2, r7, r2
 760 01b0 1360     		str	r3, [r2]
 281:.\lib_Network/network.c ****         while (deliveryMs>=1000)
 761              		.loc 1 281 0
 762 01b2 0FE0     		b	.L36
 763              	.L37:
 282:.\lib_Network/network.c ****         {
 283:.\lib_Network/network.c ****             deliveryMs-=1000;
 764              		.loc 1 283 0
 765 01b4 A423     		mov	r3, #164
 766 01b6 FB18     		add	r3, r7, r3
 767 01b8 1B68     		ldr	r3, [r3]
 768 01ba 3D4A     		ldr	r2, .L40
 769 01bc 9446     		mov	ip, r2
 770 01be 6344     		add	r3, r3, ip
 771 01c0 A422     		mov	r2, #164
 772 01c2 BA18     		add	r2, r7, r2
 773 01c4 1360     		str	r3, [r2]
 284:.\lib_Network/network.c ****             deliveryTime++;
 774              		.loc 1 284 0
 775 01c6 A823     		mov	r3, #168
 776 01c8 FB18     		add	r3, r7, r3
 777 01ca 1B68     		ldr	r3, [r3]
 778 01cc 0133     		add	r3, r3, #1
 779 01ce A822     		mov	r2, #168
 780 01d0 BA18     		add	r2, r7, r2
 781 01d2 1360     		str	r3, [r2]
 782              	.L36:
 281:.\lib_Network/network.c ****         while (deliveryMs>=1000)
ARM GAS  C:\Users\Petro\AppData\Local\Temp\cca6xsYA.s 			page 20


 783              		.loc 1 281 0
 784 01d4 A423     		mov	r3, #164
 785 01d6 FB18     		add	r3, r7, r3
 786 01d8 1B68     		ldr	r3, [r3]
 787 01da 364A     		ldr	r2, .L40+4
 788 01dc 9342     		cmp	r3, r2
 789 01de E9D8     		bhi	.L37
 285:.\lib_Network/network.c ****         }
 286:.\lib_Network/network.c **** 
 287:.\lib_Network/network.c ****         #ifdef DEBUG_TIME
 288:.\lib_Network/network.c ****         sprintf(buffer,"result calculate delivery = %i:%u\n\r",deliveryTime,deliveryMs);
 289:.\lib_Network/network.c ****         SW_UART_DEBUG_PutString(buffer);                
 290:.\lib_Network/network.c ****         #endif
 291:.\lib_Network/network.c ****         uint64_t unix = RTCGetUnixTime();
 790              		.loc 1 291 0
 791 01e0 FFF7FEFF 		bl	RTCGetUnixTime
 792 01e4 031C     		mov	r3, r0
 793 01e6 0C1C     		mov	r4, r1
 794 01e8 9022     		mov	r2, #144
 795 01ea BA18     		add	r2, r7, r2
 796 01ec 1360     		str	r3, [r2]
 797 01ee 5460     		str	r4, [r2, #4]
 292:.\lib_Network/network.c ****         uint32_t ms = RTCgetRecentMs();
 798              		.loc 1 292 0
 799 01f0 FFF7FEFF 		bl	RTCgetRecentMs
 800 01f4 031C     		mov	r3, r0
 801 01f6 8C22     		mov	r2, #140
 802 01f8 BA18     		add	r2, r7, r2
 803 01fa 1360     		str	r3, [r2]
 293:.\lib_Network/network.c ****         #ifdef DEBUG_TIME
 294:.\lib_Network/network.c ****             debug_Write(1);
 295:.\lib_Network/network.c ****             debug_Write(0);
 296:.\lib_Network/network.c ****             CyDelay(10);
 297:.\lib_Network/network.c ****         #endif
 298:.\lib_Network/network.c ****         
 299:.\lib_Network/network.c ****         unixTime[T4] = unix+deliveryTime;
 804              		.loc 1 299 0
 805 01fc 9023     		mov	r3, #144
 806 01fe FB18     		add	r3, r7, r3
 807 0200 1A68     		ldr	r2, [r3]
 808 0202 A823     		mov	r3, #168
 809 0204 FB18     		add	r3, r7, r3
 810 0206 1B68     		ldr	r3, [r3]
 811 0208 D218     		add	r2, r2, r3
 812 020a 7823     		mov	r3, #120
 813 020c FB18     		add	r3, r7, r3
 814 020e DA60     		str	r2, [r3, #12]
 300:.\lib_Network/network.c ****         millisTime[T4] = ms+deliveryMs;
 815              		.loc 1 300 0
 816 0210 8C23     		mov	r3, #140
 817 0212 FB18     		add	r3, r7, r3
 818 0214 1B68     		ldr	r3, [r3]
 819 0216 9AB2     		uxth	r2, r3
 820 0218 A423     		mov	r3, #164
 821 021a FB18     		add	r3, r7, r3
 822 021c 1B68     		ldr	r3, [r3]
 823 021e 9BB2     		uxth	r3, r3
ARM GAS  C:\Users\Petro\AppData\Local\Temp\cca6xsYA.s 			page 21


 824 0220 D318     		add	r3, r2, r3
 825 0222 9AB2     		uxth	r2, r3
 826 0224 7023     		mov	r3, #112
 827 0226 FB18     		add	r3, r7, r3
 828 0228 DA80     		strh	r2, [r3, #6]
 301:.\lib_Network/network.c ****         
 302:.\lib_Network/network.c ****         if((millisTime[T4]) >= 1000)
 829              		.loc 1 302 0
 830 022a 7023     		mov	r3, #112
 831 022c FB18     		add	r3, r7, r3
 832 022e DB88     		ldrh	r3, [r3, #6]
 833 0230 204A     		ldr	r2, .L40+4
 834 0232 9342     		cmp	r3, r2
 835 0234 10D9     		bls	.L38
 303:.\lib_Network/network.c ****         {
 304:.\lib_Network/network.c ****             unixTime[T4] ++;
 836              		.loc 1 304 0
 837 0236 7823     		mov	r3, #120
 838 0238 FB18     		add	r3, r7, r3
 839 023a DB68     		ldr	r3, [r3, #12]
 840 023c 5A1C     		add	r2, r3, #1
 841 023e 7823     		mov	r3, #120
 842 0240 FB18     		add	r3, r7, r3
 843 0242 DA60     		str	r2, [r3, #12]
 305:.\lib_Network/network.c ****             millisTime[T4] -= 1000;
 844              		.loc 1 305 0
 845 0244 7023     		mov	r3, #112
 846 0246 FB18     		add	r3, r7, r3
 847 0248 DB88     		ldrh	r3, [r3, #6]
 848 024a 194A     		ldr	r2, .L40
 849 024c 9446     		mov	ip, r2
 850 024e 6344     		add	r3, r3, ip
 851 0250 9AB2     		uxth	r2, r3
 852 0252 7023     		mov	r3, #112
 853 0254 FB18     		add	r3, r7, r3
 854 0256 DA80     		strh	r2, [r3, #6]
 855              	.L38:
 306:.\lib_Network/network.c ****         }
 307:.\lib_Network/network.c ****         
 308:.\lib_Network/network.c ****         #ifdef DEBUG_TIME
 309:.\lib_Network/network.c ****         sprintf(buffer,"real time = %lu",unix);
 310:.\lib_Network/network.c ****         SW_UART_DEBUG_PutString(buffer);
 311:.\lib_Network/network.c ****          sprintf(buffer,":%u\n\r",ms);
 312:.\lib_Network/network.c ****         SW_UART_DEBUG_PutString(buffer);
 313:.\lib_Network/network.c ****         sprintf(buffer,"send real time = %u:%u\n\r",unixTime[T4],millisTime[T4]);
 314:.\lib_Network/network.c ****         SW_UART_DEBUG_PutString(buffer);                
 315:.\lib_Network/network.c ****         #endif
 316:.\lib_Network/network.c ****         /*send real time to start*/  
 317:.\lib_Network/network.c ****         //debug_Write(1);
 318:.\lib_Network/network.c ****         //debug_Write(0);
 319:.\lib_Network/network.c ****         NTPsetTimeToStart(unixTime[T4], millisTime[T4], IDpacket);
 856              		.loc 1 319 0
 857 0258 7823     		mov	r3, #120
 858 025a FB18     		add	r3, r7, r3
 859 025c D968     		ldr	r1, [r3, #12]
 860 025e 7023     		mov	r3, #112
 861 0260 FB18     		add	r3, r7, r3
ARM GAS  C:\Users\Petro\AppData\Local\Temp\cca6xsYA.s 			page 22


 862 0262 DA88     		ldrh	r2, [r3, #6]
 863 0264 AC23     		mov	r3, #172
 864 0266 FB18     		add	r3, r7, r3
 865 0268 1B68     		ldr	r3, [r3]
 866 026a 081C     		mov	r0, r1
 867 026c 111C     		mov	r1, r2
 868 026e 1A1C     		mov	r2, r3
 869 0270 FFF7FEFF 		bl	NTPsetTimeToStart
 320:.\lib_Network/network.c ****         //debug_Write(1);
 321:.\lib_Network/network.c ****         //debug_Write(0);
 322:.\lib_Network/network.c ****         //#ifdef DEBUG_PC 
 323:.\lib_Network/network.c ****         char buffer[100];
 324:.\lib_Network/network.c ****         SW_UART_DEBUG_PutString("SAVE REAL TIME!!!!!!!!!!!!!!!");
 870              		.loc 1 324 0
 871 0274 104B     		ldr	r3, .L40+8
 872 0276 181C     		mov	r0, r3
 873 0278 FFF7FEFF 		bl	SW_UART_DEBUG_PutString
 325:.\lib_Network/network.c ****         sprintf(buffer,"\n\rreal time= %u, delivery= %u\n\r",unixTime[T4],deliveryTime);
 874              		.loc 1 325 0
 875 027c 7823     		mov	r3, #120
 876 027e FB18     		add	r3, r7, r3
 877 0280 DA68     		ldr	r2, [r3, #12]
 878 0282 381D     		add	r0, r7, #4
 879 0284 0D49     		ldr	r1, .L40+12
 880 0286 A823     		mov	r3, #168
 881 0288 FB18     		add	r3, r7, r3
 882 028a 1B68     		ldr	r3, [r3]
 883 028c FFF7FEFF 		bl	sprintf
 326:.\lib_Network/network.c ****         SW_UART_DEBUG_PutString(buffer);
 884              		.loc 1 326 0
 885 0290 3B1D     		add	r3, r7, #4
 886 0292 181C     		mov	r0, r3
 887 0294 FFF7FEFF 		bl	SW_UART_DEBUG_PutString
 327:.\lib_Network/network.c ****         //CyDelay(2000);
 328:.\lib_Network/network.c ****         //#endif
 329:.\lib_Network/network.c ****         
 330:.\lib_Network/network.c ****         result = TIME_SYNC_OK;
 888              		.loc 1 330 0
 889 0298 B223     		mov	r3, #178
 890 029a FB18     		add	r3, r7, r3
 891 029c 0022     		mov	r2, #0
 892 029e 1A80     		strh	r2, [r3]
 893              	.L35:
 894              	.LBE4:
 331:.\lib_Network/network.c ****     }
 332:.\lib_Network/network.c ****     return result;
 895              		.loc 1 332 0
 896 02a0 B223     		mov	r3, #178
 897 02a2 FB18     		add	r3, r7, r3
 898 02a4 1B88     		ldrh	r3, [r3]
 333:.\lib_Network/network.c **** }
 899              		.loc 1 333 0
 900 02a6 181C     		mov	r0, r3
 901 02a8 BD46     		mov	sp, r7
 902 02aa 2FB0     		add	sp, sp, #188
 903              		@ sp needed
 904 02ac 90BD     		pop	{r4, r7, pc}
ARM GAS  C:\Users\Petro\AppData\Local\Temp\cca6xsYA.s 			page 23


 905              	.L41:
 906 02ae C046     		.align	2
 907              	.L40:
 908 02b0 18FCFFFF 		.word	-1000
 909 02b4 E7030000 		.word	999
 910 02b8 18000000 		.word	.LC13
 911 02bc 38000000 		.word	.LC15
 912              		.cfi_endproc
 913              	.LFE68:
 914              		.size	NTPsync, .-NTPsync
 915              		.section	.rodata
 916              		.align	2
 917              	.LC17:
 918 0058 25303858 		.ascii	"%08X%03X\000"
 918      25303358 
 918      00
 919 0061 000000   		.section	.text.NTPsendTime,"ax",%progbits
 920              		.align	2
 921              		.code	16
 922              		.thumb_func
 923              		.type	NTPsendTime, %function
 924              	NTPsendTime:
 925              	.LFB69:
 334:.\lib_Network/network.c **** 
 335:.\lib_Network/network.c **** static void NTPsendTime(uint32_t unixTime1,uint16_t millis2, uint32_t ID)
 336:.\lib_Network/network.c **** {
 926              		.loc 1 336 0
 927              		.cfi_startproc
 928 0000 80B5     		push	{r7, lr}
 929              		.cfi_def_cfa_offset 8
 930              		.cfi_offset 7, -8
 931              		.cfi_offset 14, -4
 932 0002 9EB0     		sub	sp, sp, #120
 933              		.cfi_def_cfa_offset 128
 934 0004 00AF     		add	r7, sp, #0
 935              		.cfi_def_cfa_register 7
 936 0006 F860     		str	r0, [r7, #12]
 937 0008 7A60     		str	r2, [r7, #4]
 938 000a 0A23     		mov	r3, #10
 939 000c FB18     		add	r3, r7, r3
 940 000e 0A1C     		add	r2, r1, #0
 941 0010 1A80     		strh	r2, [r3]
 337:.\lib_Network/network.c ****     char sendBuffer[DATA_BUFFER];
 338:.\lib_Network/network.c ****     char sendData[DATA_BUFFER];
 339:.\lib_Network/network.c ****     
 340:.\lib_Network/network.c ****     /*pack data*/
 341:.\lib_Network/network.c ****     sprintf(sendData,"%08X%03X", unixTime1,millis2); 
 942              		.loc 1 341 0
 943 0012 0A23     		mov	r3, #10
 944 0014 FB18     		add	r3, r7, r3
 945 0016 1B88     		ldrh	r3, [r3]
 946 0018 1022     		mov	r2, #16
 947 001a B818     		add	r0, r7, r2
 948 001c 0A49     		ldr	r1, .L43
 949 001e FA68     		ldr	r2, [r7, #12]
 950 0020 FFF7FEFF 		bl	sprintf
 342:.\lib_Network/network.c ****     PackData(sendBuffer, (uint8_t *)sendData, ID);
ARM GAS  C:\Users\Petro\AppData\Local\Temp\cca6xsYA.s 			page 24


 951              		.loc 1 342 0
 952 0024 4423     		mov	r3, #68
 953 0026 F918     		add	r1, r7, r3
 954 0028 1023     		mov	r3, #16
 955 002a FA18     		add	r2, r7, r3
 956 002c 7B68     		ldr	r3, [r7, #4]
 957 002e 081C     		mov	r0, r1
 958 0030 111C     		mov	r1, r2
 959 0032 1A1C     		mov	r2, r3
 960 0034 FFF7FEFF 		bl	PackData
 343:.\lib_Network/network.c ****     UART_XB_UartPutString(sendBuffer);
 961              		.loc 1 343 0
 962 0038 4423     		mov	r3, #68
 963 003a FB18     		add	r3, r7, r3
 964 003c 181C     		mov	r0, r3
 965 003e FFF7FEFF 		bl	UART_XB_UartPutString
 344:.\lib_Network/network.c ****     
 345:.\lib_Network/network.c ****     #ifdef DEBUG_NTP
 346:.\lib_Network/network.c ****     SW_UART_DEBUG_PutString("\n\r");    
 347:.\lib_Network/network.c ****     SW_UART_DEBUG_PutString(sendBuffer);
 348:.\lib_Network/network.c ****     #endif
 349:.\lib_Network/network.c **** }
 966              		.loc 1 349 0
 967 0042 BD46     		mov	sp, r7
 968 0044 1EB0     		add	sp, sp, #120
 969              		@ sp needed
 970 0046 80BD     		pop	{r7, pc}
 971              	.L44:
 972              		.align	2
 973              	.L43:
 974 0048 58000000 		.word	.LC17
 975              		.cfi_endproc
 976              	.LFE69:
 977              		.size	NTPsendTime, .-NTPsendTime
 978              		.section	.text.NTPreceiveTime,"ax",%progbits
 979              		.align	2
 980              		.code	16
 981              		.thumb_func
 982              		.type	NTPreceiveTime, %function
 983              	NTPreceiveTime:
 984              	.LFB70:
 350:.\lib_Network/network.c **** 
 351:.\lib_Network/network.c **** 
 352:.\lib_Network/network.c **** static uint32_t NTPreceiveTime(uint32_t *unixTime2, uint16_t *millisTime2, uint32_t *unixTime3, uin
 353:.\lib_Network/network.c **** {
 985              		.loc 1 353 0
 986              		.cfi_startproc
 987 0000 80B5     		push	{r7, lr}
 988              		.cfi_def_cfa_offset 8
 989              		.cfi_offset 7, -8
 990              		.cfi_offset 14, -4
 991 0002 8CB0     		sub	sp, sp, #48
 992              		.cfi_def_cfa_offset 56
 993 0004 00AF     		add	r7, sp, #0
 994              		.cfi_def_cfa_register 7
 995 0006 F860     		str	r0, [r7, #12]
 996 0008 B960     		str	r1, [r7, #8]
ARM GAS  C:\Users\Petro\AppData\Local\Temp\cca6xsYA.s 			page 25


 997 000a 7A60     		str	r2, [r7, #4]
 998 000c 3B60     		str	r3, [r7]
 354:.\lib_Network/network.c ****     uint8_t byte;
 355:.\lib_Network/network.c ****     uint32_t result;
 356:.\lib_Network/network.c ****     /*debug*/
 357:.\lib_Network/network.c ****     result = READ_OK;
 999              		.loc 1 357 0
 1000 000e 0123     		mov	r3, #1
 1001 0010 FB62     		str	r3, [r7, #44]
 358:.\lib_Network/network.c ****     
 359:.\lib_Network/network.c ****     NtpResp recvDataNTP;
 360:.\lib_Network/network.c ****     while((UART_XB_SpiUartGetRxBufferSize() > 0) && ((byte=UART_XB_UartGetChar()) != 0))
 1002              		.loc 1 360 0
 1003 0012 2DE0     		b	.L46
 1004              	.L50:
 361:.\lib_Network/network.c ****     {
 362:.\lib_Network/network.c ****         result = NtpUnpackData(&recvDataNTP, (uint8_t)(byte & 0xFF));
 1005              		.loc 1 362 0
 1006 0014 1023     		mov	r3, #16
 1007 0016 FA18     		add	r2, r7, r3
 1008 0018 2B23     		mov	r3, #43
 1009 001a FB18     		add	r3, r7, r3
 1010 001c 1B78     		ldrb	r3, [r3]
 1011 001e 101C     		mov	r0, r2
 1012 0020 191C     		mov	r1, r3
 1013 0022 FFF7FEFF 		bl	NtpUnpackData
 1014 0026 031C     		mov	r3, r0
 1015 0028 FB62     		str	r3, [r7, #44]
 363:.\lib_Network/network.c ****         
 364:.\lib_Network/network.c ****         #ifdef DEBUG_NTP
 365:.\lib_Network/network.c ****         SW_UART_DEBUG_PutChar(byte);
 366:.\lib_Network/network.c ****         #endif
 367:.\lib_Network/network.c ****                     
 368:.\lib_Network/network.c ****         if(recvDataNTP.EndPacket == 1)
 1016              		.loc 1 368 0
 1017 002a 1023     		mov	r3, #16
 1018 002c FB18     		add	r3, r7, r3
 1019 002e 1B7D     		ldrb	r3, [r3, #20]
 1020 0030 012B     		cmp	r3, #1
 1021 0032 1BD1     		bne	.L47
 369:.\lib_Network/network.c ****         {
 370:.\lib_Network/network.c ****             /*save unix time*/
 371:.\lib_Network/network.c ****             *IDreceive = recvDataNTP.Id;
 1022              		.loc 1 371 0
 1023 0034 1023     		mov	r3, #16
 1024 0036 FB18     		add	r3, r7, r3
 1025 0038 1B88     		ldrh	r3, [r3]
 1026 003a 1A1C     		mov	r2, r3
 1027 003c BB6B     		ldr	r3, [r7, #56]
 1028 003e 1A60     		str	r2, [r3]
 372:.\lib_Network/network.c ****             *unixTime2 = recvDataNTP.Data1;
 1029              		.loc 1 372 0
 1030 0040 1023     		mov	r3, #16
 1031 0042 FB18     		add	r3, r7, r3
 1032 0044 5A68     		ldr	r2, [r3, #4]
 1033 0046 FB68     		ldr	r3, [r7, #12]
 1034 0048 1A60     		str	r2, [r3]
ARM GAS  C:\Users\Petro\AppData\Local\Temp\cca6xsYA.s 			page 26


 373:.\lib_Network/network.c ****             *millisTime2 = recvDataNTP.DataMs1;
 1035              		.loc 1 373 0
 1036 004a 1023     		mov	r3, #16
 1037 004c FB18     		add	r3, r7, r3
 1038 004e 1A89     		ldrh	r2, [r3, #8]
 1039 0050 BB68     		ldr	r3, [r7, #8]
 1040 0052 1A80     		strh	r2, [r3]
 374:.\lib_Network/network.c ****             *unixTime3 = recvDataNTP.Data2;
 1041              		.loc 1 374 0
 1042 0054 1023     		mov	r3, #16
 1043 0056 FB18     		add	r3, r7, r3
 1044 0058 DA68     		ldr	r2, [r3, #12]
 1045 005a 7B68     		ldr	r3, [r7, #4]
 1046 005c 1A60     		str	r2, [r3]
 375:.\lib_Network/network.c ****             *millisTime3 = recvDataNTP.DataMs2;
 1047              		.loc 1 375 0
 1048 005e 1023     		mov	r3, #16
 1049 0060 FB18     		add	r3, r7, r3
 1050 0062 5A89     		ldrh	r2, [r3, #10]
 1051 0064 3B68     		ldr	r3, [r7]
 1052 0066 1A80     		strh	r2, [r3]
 376:.\lib_Network/network.c ****             #ifdef DEBUG_NTP
 377:.\lib_Network/network.c ****             SW_UART_DEBUG_PutString("    Receive okey\n\r");
 378:.\lib_Network/network.c ****             #endif
 379:.\lib_Network/network.c ****             return READ_OK;
 1053              		.loc 1 379 0
 1054 0068 0123     		mov	r3, #1
 1055 006a 13E0     		b	.L51
 1056              	.L47:
 380:.\lib_Network/network.c ****         }
 381:.\lib_Network/network.c ****         result = NO_READ;
 1057              		.loc 1 381 0
 1058 006c 0023     		mov	r3, #0
 1059 006e FB62     		str	r3, [r7, #44]
 1060              	.L46:
 360:.\lib_Network/network.c ****     {
 1061              		.loc 1 360 0
 1062 0070 FFF7FEFF 		bl	UART_XB_SpiUartGetRxBufferSize
 1063 0074 031E     		sub	r3, r0, #0
 1064 0076 0AD0     		beq	.L49
 360:.\lib_Network/network.c ****     {
 1065              		.loc 1 360 0 is_stmt 0 discriminator 1
 1066 0078 FFF7FEFF 		bl	UART_XB_UartGetChar
 1067 007c 021C     		mov	r2, r0
 1068 007e 2B23     		mov	r3, #43
 1069 0080 FB18     		add	r3, r7, r3
 1070 0082 1A70     		strb	r2, [r3]
 1071 0084 2B23     		mov	r3, #43
 1072 0086 FB18     		add	r3, r7, r3
 1073 0088 1B78     		ldrb	r3, [r3]
 1074 008a 002B     		cmp	r3, #0
 1075 008c C2D1     		bne	.L50
 1076              	.L49:
 382:.\lib_Network/network.c ****     }
 383:.\lib_Network/network.c ****     result = NO_READ;
 1077              		.loc 1 383 0 is_stmt 1
 1078 008e 0023     		mov	r3, #0
ARM GAS  C:\Users\Petro\AppData\Local\Temp\cca6xsYA.s 			page 27


 1079 0090 FB62     		str	r3, [r7, #44]
 384:.\lib_Network/network.c ****     
 385:.\lib_Network/network.c ****     return result;
 1080              		.loc 1 385 0
 1081 0092 FB6A     		ldr	r3, [r7, #44]
 1082              	.L51:
 386:.\lib_Network/network.c **** }
 1083              		.loc 1 386 0 discriminator 1
 1084 0094 181C     		mov	r0, r3
 1085 0096 BD46     		mov	sp, r7
 1086 0098 0CB0     		add	sp, sp, #48
 1087              		@ sp needed
 1088 009a 80BD     		pop	{r7, pc}
 1089              		.cfi_endproc
 1090              	.LFE70:
 1091              		.size	NTPreceiveTime, .-NTPreceiveTime
 1092              		.section	.text.NTPsetTimeToStart,"ax",%progbits
 1093              		.align	2
 1094              		.code	16
 1095              		.thumb_func
 1096              		.type	NTPsetTimeToStart, %function
 1097              	NTPsetTimeToStart:
 1098              	.LFB71:
 387:.\lib_Network/network.c **** 
 388:.\lib_Network/network.c **** 
 389:.\lib_Network/network.c **** static void NTPsetTimeToStart(uint32_t unixTime4, uint16_t millisTime4, uint32_t ID)
 390:.\lib_Network/network.c **** {
 1099              		.loc 1 390 0
 1100              		.cfi_startproc
 1101 0000 80B5     		push	{r7, lr}
 1102              		.cfi_def_cfa_offset 8
 1103              		.cfi_offset 7, -8
 1104              		.cfi_offset 14, -4
 1105 0002 9EB0     		sub	sp, sp, #120
 1106              		.cfi_def_cfa_offset 128
 1107 0004 00AF     		add	r7, sp, #0
 1108              		.cfi_def_cfa_register 7
 1109 0006 F860     		str	r0, [r7, #12]
 1110 0008 7A60     		str	r2, [r7, #4]
 1111 000a 0A23     		mov	r3, #10
 1112 000c FB18     		add	r3, r7, r3
 1113 000e 0A1C     		add	r2, r1, #0
 1114 0010 1A80     		strh	r2, [r3]
 391:.\lib_Network/network.c ****     char sendBuffer[DATA_BUFFER];
 392:.\lib_Network/network.c ****     char sendData[DATA_BUFFER];
 393:.\lib_Network/network.c ****     
 394:.\lib_Network/network.c ****     /*pack data*/
 395:.\lib_Network/network.c ****     sprintf(sendData,"%08X%03X", unixTime4,millisTime4); 
 1115              		.loc 1 395 0
 1116 0012 0A23     		mov	r3, #10
 1117 0014 FB18     		add	r3, r7, r3
 1118 0016 1B88     		ldrh	r3, [r3]
 1119 0018 1022     		mov	r2, #16
 1120 001a B818     		add	r0, r7, r2
 1121 001c 0A49     		ldr	r1, .L53
 1122 001e FA68     		ldr	r2, [r7, #12]
 1123 0020 FFF7FEFF 		bl	sprintf
ARM GAS  C:\Users\Petro\AppData\Local\Temp\cca6xsYA.s 			page 28


 396:.\lib_Network/network.c ****     PackData(sendBuffer, (uint8_t *)sendData, ID);
 1124              		.loc 1 396 0
 1125 0024 4423     		mov	r3, #68
 1126 0026 F918     		add	r1, r7, r3
 1127 0028 1023     		mov	r3, #16
 1128 002a FA18     		add	r2, r7, r3
 1129 002c 7B68     		ldr	r3, [r7, #4]
 1130 002e 081C     		mov	r0, r1
 1131 0030 111C     		mov	r1, r2
 1132 0032 1A1C     		mov	r2, r3
 1133 0034 FFF7FEFF 		bl	PackData
 397:.\lib_Network/network.c ****     #ifdef DEBUG_TIME
 398:.\lib_Network/network.c ****     debug_Write(1);
 399:.\lib_Network/network.c ****     debug_Write(0);
 400:.\lib_Network/network.c ****     #endif
 401:.\lib_Network/network.c ****     UART_XB_UartPutString(sendBuffer);
 1134              		.loc 1 401 0
 1135 0038 4423     		mov	r3, #68
 1136 003a FB18     		add	r3, r7, r3
 1137 003c 181C     		mov	r0, r3
 1138 003e FFF7FEFF 		bl	UART_XB_UartPutString
 402:.\lib_Network/network.c ****     #ifdef DEBUG_TIME
 403:.\lib_Network/network.c ****         SW_UART_DEBUG_PutString("SEND READL TIME TO START!!!\n\r");
 404:.\lib_Network/network.c ****         SW_UART_DEBUG_PutString(sendBuffer);
 405:.\lib_Network/network.c ****     #endif
 406:.\lib_Network/network.c **** }
 1139              		.loc 1 406 0
 1140 0042 BD46     		mov	sp, r7
 1141 0044 1EB0     		add	sp, sp, #120
 1142              		@ sp needed
 1143 0046 80BD     		pop	{r7, pc}
 1144              	.L54:
 1145              		.align	2
 1146              	.L53:
 1147 0048 58000000 		.word	.LC17
 1148              		.cfi_endproc
 1149              	.LFE71:
 1150              		.size	NTPsetTimeToStart, .-NTPsetTimeToStart
 1151              		.section	.text.NTPcalculateTime,"ax",%progbits
 1152              		.align	2
 1153              		.code	16
 1154              		.thumb_func
 1155              		.type	NTPcalculateTime, %function
 1156              	NTPcalculateTime:
 1157              	.LFB72:
 407:.\lib_Network/network.c **** 
 408:.\lib_Network/network.c **** static void NTPcalculateTime(uint32_t unixTime[], uint16_t msTime[], int32_t *sumTime, int32_t *sum
 409:.\lib_Network/network.c **** {
 1158              		.loc 1 409 0
 1159              		.cfi_startproc
 1160 0000 80B5     		push	{r7, lr}
 1161              		.cfi_def_cfa_offset 8
 1162              		.cfi_offset 7, -8
 1163              		.cfi_offset 14, -4
 1164 0002 8AB0     		sub	sp, sp, #40
 1165              		.cfi_def_cfa_offset 48
 1166 0004 00AF     		add	r7, sp, #0
ARM GAS  C:\Users\Petro\AppData\Local\Temp\cca6xsYA.s 			page 29


 1167              		.cfi_def_cfa_register 7
 1168 0006 F860     		str	r0, [r7, #12]
 1169 0008 B960     		str	r1, [r7, #8]
 1170 000a 7A60     		str	r2, [r7, #4]
 1171 000c 3B60     		str	r3, [r7]
 410:.\lib_Network/network.c ****     /*calculate ms time*/
 411:.\lib_Network/network.c ****     int32_t tmpMsMaster;
 412:.\lib_Network/network.c ****     int32_t tmpTimeMaster;    
 413:.\lib_Network/network.c ****     int32_t tmpMsSlave;
 414:.\lib_Network/network.c ****     int32_t tmpTimeSlave;
 415:.\lib_Network/network.c ****     int32_t tmpDiffTime;
 416:.\lib_Network/network.c ****     int32_t tmpDiffMs;
 417:.\lib_Network/network.c ****     
 418:.\lib_Network/network.c ****     tmpTimeMaster = unixTime[T4] - unixTime[T1];
 1172              		.loc 1 418 0
 1173 000e FB68     		ldr	r3, [r7, #12]
 1174 0010 0C33     		add	r3, r3, #12
 1175 0012 1A68     		ldr	r2, [r3]
 1176 0014 FB68     		ldr	r3, [r7, #12]
 1177 0016 1B68     		ldr	r3, [r3]
 1178 0018 D31A     		sub	r3, r2, r3
 1179 001a 3B62     		str	r3, [r7, #32]
 419:.\lib_Network/network.c ****     if((tmpMsMaster = (msTime[T4] - msTime[T1])) < 0)
 1180              		.loc 1 419 0
 1181 001c BB68     		ldr	r3, [r7, #8]
 1182 001e 0633     		add	r3, r3, #6
 1183 0020 1B88     		ldrh	r3, [r3]
 1184 0022 1A1C     		mov	r2, r3
 1185 0024 BB68     		ldr	r3, [r7, #8]
 1186 0026 1B88     		ldrh	r3, [r3]
 1187 0028 D31A     		sub	r3, r2, r3
 1188 002a 7B62     		str	r3, [r7, #36]
 1189 002c 7B6A     		ldr	r3, [r7, #36]
 1190 002e 002B     		cmp	r3, #0
 1191 0030 08DA     		bge	.L56
 420:.\lib_Network/network.c ****     {
 421:.\lib_Network/network.c ****         tmpMsMaster += 1000;
 1192              		.loc 1 421 0
 1193 0032 7B6A     		ldr	r3, [r7, #36]
 1194 0034 FA22     		mov	r2, #250
 1195 0036 9200     		lsl	r2, r2, #2
 1196 0038 9446     		mov	ip, r2
 1197 003a 6344     		add	r3, r3, ip
 1198 003c 7B62     		str	r3, [r7, #36]
 422:.\lib_Network/network.c ****         tmpTimeMaster--;
 1199              		.loc 1 422 0
 1200 003e 3B6A     		ldr	r3, [r7, #32]
 1201 0040 013B     		sub	r3, r3, #1
 1202 0042 3B62     		str	r3, [r7, #32]
 1203              	.L56:
 423:.\lib_Network/network.c ****     }
 424:.\lib_Network/network.c ****     
 425:.\lib_Network/network.c ****     tmpTimeSlave = unixTime[T3] - unixTime[T2];
 1204              		.loc 1 425 0
 1205 0044 FB68     		ldr	r3, [r7, #12]
 1206 0046 0833     		add	r3, r3, #8
 1207 0048 1A68     		ldr	r2, [r3]
ARM GAS  C:\Users\Petro\AppData\Local\Temp\cca6xsYA.s 			page 30


 1208 004a FB68     		ldr	r3, [r7, #12]
 1209 004c 0433     		add	r3, r3, #4
 1210 004e 1B68     		ldr	r3, [r3]
 1211 0050 D31A     		sub	r3, r2, r3
 1212 0052 BB61     		str	r3, [r7, #24]
 426:.\lib_Network/network.c ****     if((tmpMsSlave = (msTime[T3] - msTime[T2])) < 0)
 1213              		.loc 1 426 0
 1214 0054 BB68     		ldr	r3, [r7, #8]
 1215 0056 0433     		add	r3, r3, #4
 1216 0058 1B88     		ldrh	r3, [r3]
 1217 005a 1A1C     		mov	r2, r3
 1218 005c BB68     		ldr	r3, [r7, #8]
 1219 005e 0233     		add	r3, r3, #2
 1220 0060 1B88     		ldrh	r3, [r3]
 1221 0062 D31A     		sub	r3, r2, r3
 1222 0064 FB61     		str	r3, [r7, #28]
 1223 0066 FB69     		ldr	r3, [r7, #28]
 1224 0068 002B     		cmp	r3, #0
 1225 006a 08DA     		bge	.L57
 427:.\lib_Network/network.c ****     {
 428:.\lib_Network/network.c ****         tmpMsSlave += 1000;
 1226              		.loc 1 428 0
 1227 006c FB69     		ldr	r3, [r7, #28]
 1228 006e FA22     		mov	r2, #250
 1229 0070 9200     		lsl	r2, r2, #2
 1230 0072 9446     		mov	ip, r2
 1231 0074 6344     		add	r3, r3, ip
 1232 0076 FB61     		str	r3, [r7, #28]
 429:.\lib_Network/network.c ****         tmpTimeSlave--;
 1233              		.loc 1 429 0
 1234 0078 BB69     		ldr	r3, [r7, #24]
 1235 007a 013B     		sub	r3, r3, #1
 1236 007c BB61     		str	r3, [r7, #24]
 1237              	.L57:
 430:.\lib_Network/network.c ****     }
 431:.\lib_Network/network.c ****     
 432:.\lib_Network/network.c ****     tmpDiffTime = tmpTimeMaster - tmpTimeSlave;
 1238              		.loc 1 432 0
 1239 007e 3A6A     		ldr	r2, [r7, #32]
 1240 0080 BB69     		ldr	r3, [r7, #24]
 1241 0082 D31A     		sub	r3, r2, r3
 1242 0084 3B61     		str	r3, [r7, #16]
 433:.\lib_Network/network.c ****     tmpDiffMs = tmpMsMaster - tmpMsSlave;
 1243              		.loc 1 433 0
 1244 0086 7A6A     		ldr	r2, [r7, #36]
 1245 0088 FB69     		ldr	r3, [r7, #28]
 1246 008a D31A     		sub	r3, r2, r3
 1247 008c 7B61     		str	r3, [r7, #20]
 434:.\lib_Network/network.c ****     
 435:.\lib_Network/network.c ****     tmpDiffMs /= 2;
 1248              		.loc 1 435 0
 1249 008e 7B69     		ldr	r3, [r7, #20]
 1250 0090 002B     		cmp	r3, #0
 1251 0092 00DA     		bge	.L58
 1252 0094 0133     		add	r3, r3, #1
 1253              	.L58:
 1254 0096 5B10     		asr	r3, r3, #1
ARM GAS  C:\Users\Petro\AppData\Local\Temp\cca6xsYA.s 			page 31


 1255 0098 7B61     		str	r3, [r7, #20]
 436:.\lib_Network/network.c ****     if(tmpDiffTime%2 == 1)
 1256              		.loc 1 436 0
 1257 009a 3B69     		ldr	r3, [r7, #16]
 1258 009c 0E4A     		ldr	r2, .L62
 1259 009e 1340     		and	r3, r2
 1260 00a0 04D5     		bpl	.L59
 1261 00a2 013B     		sub	r3, r3, #1
 1262 00a4 0222     		mov	r2, #2
 1263 00a6 5242     		neg	r2, r2
 1264 00a8 1343     		orr	r3, r2
 1265 00aa 0133     		add	r3, r3, #1
 1266              	.L59:
 1267 00ac 012B     		cmp	r3, #1
 1268 00ae 03D1     		bne	.L60
 437:.\lib_Network/network.c ****     {
 438:.\lib_Network/network.c ****         tmpDiffMs += 500;
 1269              		.loc 1 438 0
 1270 00b0 7B69     		ldr	r3, [r7, #20]
 1271 00b2 F533     		add	r3, r3, #245
 1272 00b4 FF33     		add	r3, r3, #255
 1273 00b6 7B61     		str	r3, [r7, #20]
 1274              	.L60:
 439:.\lib_Network/network.c ****     }
 440:.\lib_Network/network.c ****     tmpDiffTime /= 2;
 1275              		.loc 1 440 0
 1276 00b8 3B69     		ldr	r3, [r7, #16]
 1277 00ba 002B     		cmp	r3, #0
 1278 00bc 00DA     		bge	.L61
 1279 00be 0133     		add	r3, r3, #1
 1280              	.L61:
 1281 00c0 5B10     		asr	r3, r3, #1
 1282 00c2 3B61     		str	r3, [r7, #16]
 441:.\lib_Network/network.c ****     
 442:.\lib_Network/network.c ****     *sumTime = tmpDiffTime;
 1283              		.loc 1 442 0
 1284 00c4 7B68     		ldr	r3, [r7, #4]
 1285 00c6 3A69     		ldr	r2, [r7, #16]
 1286 00c8 1A60     		str	r2, [r3]
 443:.\lib_Network/network.c ****     *sumMs = tmpDiffMs;   
 1287              		.loc 1 443 0
 1288 00ca 3B68     		ldr	r3, [r7]
 1289 00cc 7A69     		ldr	r2, [r7, #20]
 1290 00ce 1A60     		str	r2, [r3]
 444:.\lib_Network/network.c **** }
 1291              		.loc 1 444 0
 1292 00d0 BD46     		mov	sp, r7
 1293 00d2 0AB0     		add	sp, sp, #40
 1294              		@ sp needed
 1295 00d4 80BD     		pop	{r7, pc}
 1296              	.L63:
 1297 00d6 C046     		.align	2
 1298              	.L62:
 1299 00d8 01000080 		.word	-2147483647
 1300              		.cfi_endproc
 1301              	.LFE72:
 1302              		.size	NTPcalculateTime, .-NTPcalculateTime
ARM GAS  C:\Users\Petro\AppData\Local\Temp\cca6xsYA.s 			page 32


 1303              		.text
 1304              	.Letext0:
 1305              		.file 2 "c:\\program files (x86)\\cypress\\psoc creator\\3.3\\psoc creator\\import\\gnu\\arm\\4.9.
 1306              		.file 3 "c:\\program files (x86)\\cypress\\psoc creator\\3.3\\psoc creator\\import\\gnu\\arm\\4.9.
 1307              		.file 4 "./lib_Network\\svt.h"
 1308              		.file 5 "./lib_DB\\database.h"
 1309              		.file 6 "./lib_Fat\\integer.h"
 1310              		.file 7 "./lib_Fat\\ff.h"
 1311              		.file 8 "./lib_Network\\ntp.h"
 1312              		.file 9 "./lib_Network\\network.h"
 1313              		.file 10 "./lib_DB\\logResult.h"