ARM GAS  C:\DOCUME~1\Admin\LOCALS~1\Temp\cccdPaPP.s 			page 1


   1              		.cpu cortex-m0
   2              		.fpu softvfp
   3              		.eabi_attribute 20, 1
   4              		.eabi_attribute 21, 1
   5              		.eabi_attribute 23, 3
   6              		.eabi_attribute 24, 1
   7              		.eabi_attribute 25, 1
   8              		.eabi_attribute 26, 1
   9              		.eabi_attribute 30, 6
  10              		.eabi_attribute 34, 0
  11              		.eabi_attribute 18, 4
  12              		.code	16
  13              		.file	"network.c"
  14              		.text
  15              	.Ltext0:
  16              		.cfi_sections	.debug_frame
  17              		.comm	fatFs,560,4
  18              		.comm	fileO,552,4
  19              		.comm	createFlag,4,4
  20              		.comm	bufferSkiersOnWay,128,8
  21              		.comm	bufferFifo,384,8
  22              		.comm	currentSizeBuff,4,4
  23              		.comm	currentElementStart,4,4
  24              		.comm	currentElementFinish,4,4
  25              		.comm	skiersStarted,2,2
  26              		.comm	skiersFinished,2,2
  27              		.comm	skierDB,7200,8
  28              		.comm	fifo,632,8
  29              		.bss
  30              		.align	1
  31              	minMs:
  32 0000 0000     		.space	2
  33              		.align	1
  34              	maxMs:
  35 0002 0000     		.space	2
  36              		.comm	tmpMs,2,2
  37              		.align	2
  38              	buff:
  39 0004 00000000 		.space	100
  39      00000000 
  39      00000000 
  39      00000000 
  39      00000000 
  40              		.comm	outData,24,8
  41              		.comm	inData,24,8
  42              		.comm	numAttemps,4,4
  43              		.comm	noConnect,4,4
  44              		.comm	networkStatus,4,4
  45              		.section	.text.InitNetwork,"ax",%progbits
  46              		.align	2
  47              		.global	InitNetwork
  48              		.code	16
  49              		.thumb_func
  50              		.type	InitNetwork, %function
  51              	InitNetwork:
  52              	.LFB63:
  53              		.file 1 ".\\lib_Network\\network.c"
ARM GAS  C:\DOCUME~1\Admin\LOCALS~1\Temp\cccdPaPP.s 			page 2


   1:.\lib_Network/network.c **** 
   2:.\lib_Network/network.c **** #include "lib_Network\network.h"
   3:.\lib_Network/network.c **** 
   4:.\lib_Network/network.c **** 
   5:.\lib_Network/network.c **** 
   6:.\lib_Network/network.c **** void InitNetwork(void)
   7:.\lib_Network/network.c **** {
  54              		.loc 1 7 0
  55              		.cfi_startproc
  56 0000 80B5     		push	{r7, lr}
  57              		.cfi_def_cfa_offset 8
  58              		.cfi_offset 7, -8
  59              		.cfi_offset 14, -4
  60 0002 00AF     		add	r7, sp, #0
  61              		.cfi_def_cfa_register 7
   8:.\lib_Network/network.c ****     UART_XB_Start();
  62              		.loc 1 8 0
  63 0004 FFF7FEFF 		bl	UART_XB_Start
   9:.\lib_Network/network.c ****     #ifdef DEBUG_INFO
  10:.\lib_Network/network.c ****     SW_UART_DEBUG_Start();     
  11:.\lib_Network/network.c ****     SW_UART_DEBUG_PutString("HElLO, IM READY(fin)");
  12:.\lib_Network/network.c ****     #endif
  13:.\lib_Network/network.c ****     
  14:.\lib_Network/network.c ****     inData.readStatus = READ_OK;
  64              		.loc 1 14 0
  65 0008 044B     		ldr	r3, .L2
  66 000a 0122     		mov	r2, #1
  67 000c 1A75     		strb	r2, [r3, #20]
  15:.\lib_Network/network.c ****     outData.writeStatus = NO_WRITE;
  68              		.loc 1 15 0
  69 000e 044B     		ldr	r3, .L2+4
  70 0010 0022     		mov	r2, #0
  71 0012 9A74     		strb	r2, [r3, #18]
  16:.\lib_Network/network.c ****     UART_XB_SpiUartClearRxBuffer();
  72              		.loc 1 16 0
  73 0014 FFF7FEFF 		bl	UART_XB_SpiUartClearRxBuffer
  17:.\lib_Network/network.c ****     
  18:.\lib_Network/network.c **** }
  74              		.loc 1 18 0
  75 0018 BD46     		mov	sp, r7
  76              		@ sp needed
  77 001a 80BD     		pop	{r7, pc}
  78              	.L3:
  79              		.align	2
  80              	.L2:
  81 001c 00000000 		.word	inData
  82 0020 00000000 		.word	outData
  83              		.cfi_endproc
  84              	.LFE63:
  85              		.size	InitNetwork, .-InitNetwork
  86              		.section	.rodata
  87              		.align	2
  88              	.LC4:
  89 0000 25303258 		.ascii	"%02X:%016X%02X%02X%02X%02X\000"
  89      3A253031 
  89      36582530 
  89      32582530 
ARM GAS  C:\DOCUME~1\Admin\LOCALS~1\Temp\cccdPaPP.s 			page 3


  89      32582530 
  90              		.section	.text.SendData,"ax",%progbits
  91              		.align	2
  92              		.global	SendData
  93              		.code	16
  94              		.thumb_func
  95              		.type	SendData, %function
  96              	SendData:
  97              	.LFB64:
  19:.\lib_Network/network.c **** 
  20:.\lib_Network/network.c **** 
  21:.\lib_Network/network.c **** void SendData(void)
  22:.\lib_Network/network.c **** {   
  98              		.loc 1 22 0
  99              		.cfi_startproc
 100 0000 90B5     		push	{r4, r7, lr}
 101              		.cfi_def_cfa_offset 12
 102              		.cfi_offset 4, -12
 103              		.cfi_offset 7, -8
 104              		.cfi_offset 14, -4
 105 0002 9FB0     		sub	sp, sp, #124
 106              		.cfi_def_cfa_offset 136
 107 0004 04AF     		add	r7, sp, #16
 108              		.cfi_def_cfa 7, 120
  23:.\lib_Network/network.c ****     if( outData.writeStatus == NO_WRITE || inData.readStatus == READ_OK)
 109              		.loc 1 23 0
 110 0006 214B     		ldr	r3, .L7
 111 0008 9B7C     		ldrb	r3, [r3, #18]
 112 000a 002B     		cmp	r3, #0
 113 000c 03D0     		beq	.L5
 114              		.loc 1 23 0 is_stmt 0 discriminator 1
 115 000e 204B     		ldr	r3, .L7+4
 116 0010 1B7D     		ldrb	r3, [r3, #20]
 117 0012 012B     		cmp	r3, #1
 118 0014 36D1     		bne	.L4
 119              	.L5:
 120              	.LBB2:
  24:.\lib_Network/network.c ****     {
  25:.\lib_Network/network.c ****         char sendBuffer[DATA_BUFFER];
  26:.\lib_Network/network.c ****         char sendData[DATA_BUFFER];
  27:.\lib_Network/network.c ****         
  28:.\lib_Network/network.c ****         outData.countSkiers = SkierOnWay();
 121              		.loc 1 28 0 is_stmt 1
 122 0016 FFF7FEFF 		bl	SkierOnWay
 123 001a 031C     		mov	r3, r0
 124 001c DAB2     		uxtb	r2, r3
 125 001e 1B4B     		ldr	r3, .L7
 126 0020 DA70     		strb	r2, [r3, #3]
  29:.\lib_Network/network.c ****         
  30:.\lib_Network/network.c ****         /*pack data*/
  31:.\lib_Network/network.c ****         sprintf(sendData,"%02X:%016X%02X%02X%02X%02X", 0u, 0u, outData.ready, outData.reboot, \
 127              		.loc 1 31 0
 128 0022 1A4B     		ldr	r3, .L7
 129 0024 5B78     		ldrb	r3, [r3, #1]
 130 0026 1C1C     		mov	r4, r3
 131 0028 184B     		ldr	r3, .L7
 132 002a 9B78     		ldrb	r3, [r3, #2]
ARM GAS  C:\DOCUME~1\Admin\LOCALS~1\Temp\cccdPaPP.s 			page 4


 133 002c 181C     		mov	r0, r3
  32:.\lib_Network/network.c ****             outData.countSkiers, 0u);    
 134              		.loc 1 32 0
 135 002e 174B     		ldr	r3, .L7
 136 0030 DB78     		ldrb	r3, [r3, #3]
  31:.\lib_Network/network.c ****             outData.countSkiers, 0u);    
 137              		.loc 1 31 0
 138 0032 3422     		mov	r2, #52
 139 0034 B918     		add	r1, r7, r2
 140 0036 174A     		ldr	r2, .L7+8
 141 0038 0094     		str	r4, [sp]
 142 003a 0190     		str	r0, [sp, #4]
 143 003c 0293     		str	r3, [sp, #8]
 144 003e 0023     		mov	r3, #0
 145 0040 0393     		str	r3, [sp, #12]
 146 0042 081C     		mov	r0, r1
 147 0044 111C     		mov	r1, r2
 148 0046 0022     		mov	r2, #0
 149 0048 0023     		mov	r3, #0
 150 004a FFF7FEFF 		bl	sprintf
  33:.\lib_Network/network.c ****         PackData(sendBuffer, (uint8_t *)sendData, outData.IDpacket);
 151              		.loc 1 33 0
 152 004e 0F4B     		ldr	r3, .L7
 153 0050 1B78     		ldrb	r3, [r3]
 154 0052 1C1C     		mov	r4, r3
 155 0054 3A1C     		mov	r2, r7
 156 0056 3423     		mov	r3, #52
 157 0058 FB18     		add	r3, r7, r3
 158 005a 101C     		mov	r0, r2
 159 005c 191C     		mov	r1, r3
 160 005e 221C     		mov	r2, r4
 161 0060 FFF7FEFF 		bl	PackData
  34:.\lib_Network/network.c ****         UART_XB_UartPutString(sendBuffer);
 162              		.loc 1 34 0
 163 0064 3B1C     		mov	r3, r7
 164 0066 181C     		mov	r0, r3
 165 0068 FFF7FEFF 		bl	UART_XB_UartPutString
  35:.\lib_Network/network.c ****         
  36:.\lib_Network/network.c ****         #ifdef DEBUG_INFO
  37:.\lib_Network/network.c ****         SW_UART_DEBUG_PutString(sendBuffer);
  38:.\lib_Network/network.c ****         SW_UART_DEBUG_PutString("    send data\n\r");
  39:.\lib_Network/network.c ****         #endif
  40:.\lib_Network/network.c ****         
  41:.\lib_Network/network.c ****         /*flag transmit data*/
  42:.\lib_Network/network.c ****         outData.writeStatus = WRITE_OK;
 166              		.loc 1 42 0
 167 006c 074B     		ldr	r3, .L7
 168 006e 0122     		mov	r2, #1
 169 0070 9A74     		strb	r2, [r3, #18]
  43:.\lib_Network/network.c ****         inData.readStatus = NO_READ;
 170              		.loc 1 43 0
 171 0072 074B     		ldr	r3, .L7+4
 172 0074 0022     		mov	r2, #0
 173 0076 1A75     		strb	r2, [r3, #20]
  44:.\lib_Network/network.c ****         
  45:.\lib_Network/network.c ****         /*set timeout*/
  46:.\lib_Network/network.c ****         noConnect = 0; 
ARM GAS  C:\DOCUME~1\Admin\LOCALS~1\Temp\cccdPaPP.s 			page 5


 174              		.loc 1 46 0
 175 0078 074B     		ldr	r3, .L7+12
 176 007a 0022     		mov	r2, #0
 177 007c 1A60     		str	r2, [r3]
  47:.\lib_Network/network.c ****         
  48:.\lib_Network/network.c ****         CyDelay(50);
 178              		.loc 1 48 0
 179 007e 3220     		mov	r0, #50
 180 0080 FFF7FEFF 		bl	CyDelay
 181              	.L4:
 182              	.LBE2:
  49:.\lib_Network/network.c ****     }
  50:.\lib_Network/network.c **** }
 183              		.loc 1 50 0
 184 0084 BD46     		mov	sp, r7
 185 0086 1BB0     		add	sp, sp, #108
 186              		@ sp needed
 187 0088 90BD     		pop	{r4, r7, pc}
 188              	.L8:
 189 008a C046     		.align	2
 190              	.L7:
 191 008c 00000000 		.word	outData
 192 0090 00000000 		.word	inData
 193 0094 00000000 		.word	.LC4
 194 0098 00000000 		.word	noConnect
 195              		.cfi_endproc
 196              	.LFE64:
 197              		.size	SendData, .-SendData
 198              		.section	.text.ReceiveData,"ax",%progbits
 199              		.align	2
 200              		.global	ReceiveData
 201              		.code	16
 202              		.thumb_func
 203              		.type	ReceiveData, %function
 204              	ReceiveData:
 205              	.LFB65:
  51:.\lib_Network/network.c **** 
  52:.\lib_Network/network.c **** 
  53:.\lib_Network/network.c **** uint32_t  ReceiveData(void)
  54:.\lib_Network/network.c **** {
 206              		.loc 1 54 0
 207              		.cfi_startproc
 208 0000 90B5     		push	{r4, r7, lr}
 209              		.cfi_def_cfa_offset 12
 210              		.cfi_offset 4, -12
 211              		.cfi_offset 7, -8
 212              		.cfi_offset 14, -4
 213 0002 8BB0     		sub	sp, sp, #44
 214              		.cfi_def_cfa_offset 56
 215 0004 00AF     		add	r7, sp, #0
 216              		.cfi_def_cfa_register 7
  55:.\lib_Network/network.c ****     
  56:.\lib_Network/network.c ****     if(inData.readStatus == NO_READ && outData.writeStatus == WRITE_OK)
 217              		.loc 1 56 0
 218 0006 564B     		ldr	r3, .L20
 219 0008 1B7D     		ldrb	r3, [r3, #20]
 220 000a 002B     		cmp	r3, #0
ARM GAS  C:\DOCUME~1\Admin\LOCALS~1\Temp\cccdPaPP.s 			page 6


 221 000c 00D0     		beq	.LCB143
 222 000e A2E0     		b	.L10	@long jump
 223              	.LCB143:
 224              		.loc 1 56 0 is_stmt 0 discriminator 1
 225 0010 544B     		ldr	r3, .L20+4
 226 0012 9B7C     		ldrb	r3, [r3, #18]
 227 0014 012B     		cmp	r3, #1
 228 0016 00D0     		beq	.LCB147
 229 0018 9DE0     		b	.L10	@long jump
 230              	.LCB147:
 231              	.LBB3:
  57:.\lib_Network/network.c ****     {
  58:.\lib_Network/network.c ****         uint32_t result = 0;
 232              		.loc 1 58 0 is_stmt 1
 233 001a 0023     		mov	r3, #0
 234 001c 7B62     		str	r3, [r7, #36]
  59:.\lib_Network/network.c ****         int i;
  60:.\lib_Network/network.c ****         uint8_t byte;
  61:.\lib_Network/network.c ****         struct Resp recvData;
  62:.\lib_Network/network.c ****           
  63:.\lib_Network/network.c ****         while((UART_XB_SpiUartGetRxBufferSize() > 0) && ((byte=UART_XB_UartGetChar()) != 0))
 235              		.loc 1 63 0
 236 001e 76E0     		b	.L11
 237              	.L17:
  64:.\lib_Network/network.c ****         { 
  65:.\lib_Network/network.c ****             result = UnpackData(&recvData, (uint8_t)(byte & 0xFF));
 238              		.loc 1 65 0
 239 0020 3A1C     		mov	r2, r7
 240 0022 2323     		mov	r3, #35
 241 0024 FB18     		add	r3, r7, r3
 242 0026 1B78     		ldrb	r3, [r3]
 243 0028 101C     		mov	r0, r2
 244 002a 191C     		mov	r1, r3
 245 002c FFF7FEFF 		bl	UnpackData
 246 0030 031C     		mov	r3, r0
 247 0032 7B62     		str	r3, [r7, #36]
  66:.\lib_Network/network.c ****             CyDelay(2);
 248              		.loc 1 66 0
 249 0034 0220     		mov	r0, #2
 250 0036 FFF7FEFF 		bl	CyDelay
  67:.\lib_Network/network.c ****             
  68:.\lib_Network/network.c ****             #ifdef DEBUG_INFO
  69:.\lib_Network/network.c ****             SW_UART_DEBUG_PutChar(byte);
  70:.\lib_Network/network.c ****             #endif
  71:.\lib_Network/network.c ****             
  72:.\lib_Network/network.c ****             if(recvData.EndPacket == 1)
 251              		.loc 1 72 0
 252 003a 3B1C     		mov	r3, r7
 253 003c 1B7E     		ldrb	r3, [r3, #24]
 254 003e 012B     		cmp	r3, #1
 255 0040 65D1     		bne	.L11
  73:.\lib_Network/network.c ****             {
  74:.\lib_Network/network.c ****                 inData.IDpacket = recvData.Seq;
 256              		.loc 1 74 0
 257 0042 3B1C     		mov	r3, r7
 258 0044 1B88     		ldrh	r3, [r3]
 259 0046 DAB2     		uxtb	r2, r3
ARM GAS  C:\DOCUME~1\Admin\LOCALS~1\Temp\cccdPaPP.s 			page 7


 260 0048 454B     		ldr	r3, .L20
 261 004a 1A70     		strb	r2, [r3]
  75:.\lib_Network/network.c ****                 
  76:.\lib_Network/network.c ****                 /*id packet ok*/
  77:.\lib_Network/network.c ****                 if(outData.IDpacket == inData.IDpacket)
 262              		.loc 1 77 0
 263 004c 454B     		ldr	r3, .L20+4
 264 004e 1A78     		ldrb	r2, [r3]
 265 0050 434B     		ldr	r3, .L20
 266 0052 1B78     		ldrb	r3, [r3]
 267 0054 9A42     		cmp	r2, r3
 268 0056 38D1     		bne	.L12
  78:.\lib_Network/network.c ****                 {
  79:.\lib_Network/network.c ****                     inData.readStatus = READ_OK;
 269              		.loc 1 79 0
 270 0058 414B     		ldr	r3, .L20
 271 005a 0122     		mov	r2, #1
 272 005c 1A75     		strb	r2, [r3, #20]
  80:.\lib_Network/network.c ****                     outData.writeStatus = NO_WRITE;
 273              		.loc 1 80 0
 274 005e 414B     		ldr	r3, .L20+4
 275 0060 0022     		mov	r2, #0
 276 0062 9A74     		strb	r2, [r3, #18]
  81:.\lib_Network/network.c ****                     
  82:.\lib_Network/network.c ****                     /*connect network*/
  83:.\lib_Network/network.c ****                     networkStatus = NETWORK_CONN;
 277              		.loc 1 83 0
 278 0064 404B     		ldr	r3, .L20+8
 279 0066 0122     		mov	r2, #1
 280 0068 1A60     		str	r2, [r3]
  84:.\lib_Network/network.c ****                     noConnect = 0;
 281              		.loc 1 84 0
 282 006a 404B     		ldr	r3, .L20+12
 283 006c 0022     		mov	r2, #0
 284 006e 1A60     		str	r2, [r3]
  85:.\lib_Network/network.c ****                     
  86:.\lib_Network/network.c ****                     /*write data*/
  87:.\lib_Network/network.c ****                     inData.newSkier = (recvData.Data3 & 0xFF00) >> 8;
 285              		.loc 1 87 0
 286 0070 3B1C     		mov	r3, r7
 287 0072 5B8A     		ldrh	r3, [r3, #18]
 288 0074 1B0A     		lsr	r3, r3, #8
 289 0076 9BB2     		uxth	r3, r3
 290 0078 DAB2     		uxtb	r2, r3
 291 007a 394B     		ldr	r3, .L20
 292 007c 9A74     		strb	r2, [r3, #18]
  88:.\lib_Network/network.c ****                     inData.unixStartTime = recvData.Data1;
 293              		.loc 1 88 0
 294 007e 3B1C     		mov	r3, r7
 295 0080 DC68     		ldr	r4, [r3, #12]
 296 0082 9B68     		ldr	r3, [r3, #8]
 297 0084 364A     		ldr	r2, .L20
 298 0086 9360     		str	r3, [r2, #8]
 299 0088 D460     		str	r4, [r2, #12]
  89:.\lib_Network/network.c ****                     inData.startMsTime = recvData.Data2;
 300              		.loc 1 89 0
 301 008a 3B1C     		mov	r3, r7
ARM GAS  C:\DOCUME~1\Admin\LOCALS~1\Temp\cccdPaPP.s 			page 8


 302 008c 1A8A     		ldrh	r2, [r3, #16]
 303 008e 344B     		ldr	r3, .L20
 304 0090 1A82     		strh	r2, [r3, #16]
  90:.\lib_Network/network.c ****                     inData.reboot = (recvData.Data3 & 0x00FF);
 305              		.loc 1 90 0
 306 0092 3B1C     		mov	r3, r7
 307 0094 5B8A     		ldrh	r3, [r3, #18]
 308 0096 DAB2     		uxtb	r2, r3
 309 0098 314B     		ldr	r3, .L20
 310 009a DA74     		strb	r2, [r3, #19]
  91:.\lib_Network/network.c ****                     
  92:.\lib_Network/network.c ****                     /*if new skier on track*/
  93:.\lib_Network/network.c ****                     if(inData.newSkier == NEW_SKIER_IN_TARCK )
 311              		.loc 1 93 0
 312 009c 304B     		ldr	r3, .L20
 313 009e 9B7C     		ldrb	r3, [r3, #18]
 314 00a0 012B     		cmp	r3, #1
 315 00a2 08D1     		bne	.L13
  94:.\lib_Network/network.c ****                     {
  95:.\lib_Network/network.c ****                         WriteStartTime(inData.unixStartTime, inData.startMsTime);
 316              		.loc 1 95 0
 317 00a4 2E4B     		ldr	r3, .L20
 318 00a6 DC68     		ldr	r4, [r3, #12]
 319 00a8 9B68     		ldr	r3, [r3, #8]
 320 00aa 2D4A     		ldr	r2, .L20
 321 00ac 128A     		ldrh	r2, [r2, #16]
 322 00ae 181C     		mov	r0, r3
 323 00b0 211C     		mov	r1, r4
 324 00b2 FFF7FEFF 		bl	WriteStartTime
 325              	.L13:
  96:.\lib_Network/network.c ****                     }
  97:.\lib_Network/network.c ****                     
  98:.\lib_Network/network.c ****                     /*next packet*/
  99:.\lib_Network/network.c ****                     outData.IDpacket++;
 326              		.loc 1 99 0
 327 00b6 2B4B     		ldr	r3, .L20+4
 328 00b8 1B78     		ldrb	r3, [r3]
 329 00ba 0133     		add	r3, r3, #1
 330 00bc DAB2     		uxtb	r2, r3
 331 00be 294B     		ldr	r3, .L20+4
 332 00c0 1A70     		strb	r2, [r3]
 100:.\lib_Network/network.c ****                     CyDelay(50);
 333              		.loc 1 100 0
 334 00c2 3220     		mov	r0, #50
 335 00c4 FFF7FEFF 		bl	CyDelay
 336 00c8 1FE0     		b	.L14
 337              	.L12:
 101:.\lib_Network/network.c ****                     #ifdef DEBUG_INFO
 102:.\lib_Network/network.c ****                     SW_UART_DEBUG_PutString("    RECEIVE data\n\r");
 103:.\lib_Network/network.c ****                     #endif
 104:.\lib_Network/network.c ****                 }  
 105:.\lib_Network/network.c ****                 /* if prev packet late*/
 106:.\lib_Network/network.c ****                 else if(outData.IDpacket == (inData.IDpacket + 1))
 338              		.loc 1 106 0
 339 00ca 264B     		ldr	r3, .L20+4
 340 00cc 1B78     		ldrb	r3, [r3]
 341 00ce 1A1C     		mov	r2, r3
ARM GAS  C:\DOCUME~1\Admin\LOCALS~1\Temp\cccdPaPP.s 			page 9


 342 00d0 234B     		ldr	r3, .L20
 343 00d2 1B78     		ldrb	r3, [r3]
 344 00d4 0133     		add	r3, r3, #1
 345 00d6 9A42     		cmp	r2, r3
 346 00d8 17D1     		bne	.L14
 107:.\lib_Network/network.c ****                 {
 108:.\lib_Network/network.c ****                     inData.newSkier = recvData.Data3;
 347              		.loc 1 108 0
 348 00da 3B1C     		mov	r3, r7
 349 00dc 5B8A     		ldrh	r3, [r3, #18]
 350 00de DAB2     		uxtb	r2, r3
 351 00e0 1F4B     		ldr	r3, .L20
 352 00e2 9A74     		strb	r2, [r3, #18]
 109:.\lib_Network/network.c ****                     inData.unixStartTime = recvData.Data1;
 353              		.loc 1 109 0
 354 00e4 3B1C     		mov	r3, r7
 355 00e6 DC68     		ldr	r4, [r3, #12]
 356 00e8 9B68     		ldr	r3, [r3, #8]
 357 00ea 1D4A     		ldr	r2, .L20
 358 00ec 9360     		str	r3, [r2, #8]
 359 00ee D460     		str	r4, [r2, #12]
 110:.\lib_Network/network.c ****                     inData.startMsTime = recvData.Data2;
 360              		.loc 1 110 0
 361 00f0 3B1C     		mov	r3, r7
 362 00f2 1A8A     		ldrh	r2, [r3, #16]
 363 00f4 1A4B     		ldr	r3, .L20
 364 00f6 1A82     		strh	r2, [r3, #16]
 111:.\lib_Network/network.c ****                     
 112:.\lib_Network/network.c ****                     networkStatus = NETWORK_CONN;
 365              		.loc 1 112 0
 366 00f8 1B4B     		ldr	r3, .L20+8
 367 00fa 0122     		mov	r2, #1
 368 00fc 1A60     		str	r2, [r3]
 113:.\lib_Network/network.c ****                     noConnect = 0;
 369              		.loc 1 113 0
 370 00fe 1B4B     		ldr	r3, .L20+12
 371 0100 0022     		mov	r2, #0
 372 0102 1A60     		str	r2, [r3]
 114:.\lib_Network/network.c ****                     CyDelay(50);
 373              		.loc 1 114 0
 374 0104 3220     		mov	r0, #50
 375 0106 FFF7FEFF 		bl	CyDelay
 376              	.L14:
 115:.\lib_Network/network.c ****                 }
 116:.\lib_Network/network.c ****                 return  NETWORK_CONN;  
 377              		.loc 1 116 0
 378 010a 0123     		mov	r3, #1
 379 010c 24E0     		b	.L19
 380              	.L11:
  63:.\lib_Network/network.c ****         { 
 381              		.loc 1 63 0
 382 010e FFF7FEFF 		bl	UART_XB_SpiUartGetRxBufferSize
 383 0112 031E     		sub	r3, r0, #0
 384 0114 0BD0     		beq	.L16
  63:.\lib_Network/network.c ****         { 
 385              		.loc 1 63 0 is_stmt 0 discriminator 1
 386 0116 FFF7FEFF 		bl	UART_XB_UartGetChar
ARM GAS  C:\DOCUME~1\Admin\LOCALS~1\Temp\cccdPaPP.s 			page 10


 387 011a 021C     		mov	r2, r0
 388 011c 2323     		mov	r3, #35
 389 011e FB18     		add	r3, r7, r3
 390 0120 1A70     		strb	r2, [r3]
 391 0122 2323     		mov	r3, #35
 392 0124 FB18     		add	r3, r7, r3
 393 0126 1B78     		ldrb	r3, [r3]
 394 0128 002B     		cmp	r3, #0
 395 012a 00D0     		beq	.LCB287
 396 012c 78E7     		b	.L17	@long jump
 397              	.LCB287:
 398              	.L16:
 117:.\lib_Network/network.c ****             }
 118:.\lib_Network/network.c **** 
 119:.\lib_Network/network.c ****         }
 120:.\lib_Network/network.c ****         
 121:.\lib_Network/network.c ****         noConnect++;
 399              		.loc 1 121 0 is_stmt 1
 400 012e 0F4B     		ldr	r3, .L20+12
 401 0130 1B68     		ldr	r3, [r3]
 402 0132 5A1C     		add	r2, r3, #1
 403 0134 0D4B     		ldr	r3, .L20+12
 404 0136 1A60     		str	r2, [r3]
 122:.\lib_Network/network.c ****         if(noConnect >= NETWORK_TIMEOUT)
 405              		.loc 1 122 0
 406 0138 0C4B     		ldr	r3, .L20+12
 407 013a 1B68     		ldr	r3, [r3]
 408 013c 312B     		cmp	r3, #49
 409 013e 08D9     		bls	.L18
 123:.\lib_Network/network.c ****         {
 124:.\lib_Network/network.c ****             outData.writeStatus = NO_WRITE;
 410              		.loc 1 124 0
 411 0140 084B     		ldr	r3, .L20+4
 412 0142 0022     		mov	r2, #0
 413 0144 9A74     		strb	r2, [r3, #18]
 125:.\lib_Network/network.c ****             inData.readStatus = NO_READ;
 414              		.loc 1 125 0
 415 0146 064B     		ldr	r3, .L20
 416 0148 0022     		mov	r2, #0
 417 014a 1A75     		strb	r2, [r3, #20]
 126:.\lib_Network/network.c ****             networkStatus = NETWORK_DISCONN;
 418              		.loc 1 126 0
 419 014c 064B     		ldr	r3, .L20+8
 420 014e 0022     		mov	r2, #0
 421 0150 1A60     		str	r2, [r3]
 422              	.L18:
 127:.\lib_Network/network.c ****         }
 128:.\lib_Network/network.c ****         
 129:.\lib_Network/network.c ****         return  NETWORK_DISCONN;
 423              		.loc 1 129 0
 424 0152 0023     		mov	r3, #0
 425 0154 00E0     		b	.L19
 426              	.L10:
 427              	.LBE3:
 130:.\lib_Network/network.c ****     }
 131:.\lib_Network/network.c ****     return 0;
 428              		.loc 1 131 0
ARM GAS  C:\DOCUME~1\Admin\LOCALS~1\Temp\cccdPaPP.s 			page 11


 429 0156 0023     		mov	r3, #0
 430              	.L19:
 132:.\lib_Network/network.c **** }
 431              		.loc 1 132 0 discriminator 1
 432 0158 181C     		mov	r0, r3
 433 015a BD46     		mov	sp, r7
 434 015c 0BB0     		add	sp, sp, #44
 435              		@ sp needed
 436 015e 90BD     		pop	{r4, r7, pc}
 437              	.L21:
 438              		.align	2
 439              	.L20:
 440 0160 00000000 		.word	inData
 441 0164 00000000 		.word	outData
 442 0168 00000000 		.word	networkStatus
 443 016c 00000000 		.word	noConnect
 444              		.cfi_endproc
 445              	.LFE65:
 446              		.size	ReceiveData, .-ReceiveData
 447              		.section	.text.SendFinStatus,"ax",%progbits
 448              		.align	2
 449              		.global	SendFinStatus
 450              		.code	16
 451              		.thumb_func
 452              		.type	SendFinStatus, %function
 453              	SendFinStatus:
 454              	.LFB66:
 133:.\lib_Network/network.c **** 
 134:.\lib_Network/network.c **** 
 135:.\lib_Network/network.c **** 
 136:.\lib_Network/network.c **** void SendFinStatus(uint32_t ready)
 137:.\lib_Network/network.c **** {
 455              		.loc 1 137 0
 456              		.cfi_startproc
 457 0000 80B5     		push	{r7, lr}
 458              		.cfi_def_cfa_offset 8
 459              		.cfi_offset 7, -8
 460              		.cfi_offset 14, -4
 461 0002 82B0     		sub	sp, sp, #8
 462              		.cfi_def_cfa_offset 16
 463 0004 00AF     		add	r7, sp, #0
 464              		.cfi_def_cfa_register 7
 465 0006 7860     		str	r0, [r7, #4]
 138:.\lib_Network/network.c ****     outData.ready = ready;
 466              		.loc 1 138 0
 467 0008 7B68     		ldr	r3, [r7, #4]
 468 000a DAB2     		uxtb	r2, r3
 469 000c 024B     		ldr	r3, .L23
 470 000e 5A70     		strb	r2, [r3, #1]
 139:.\lib_Network/network.c **** }
 471              		.loc 1 139 0
 472 0010 BD46     		mov	sp, r7
 473 0012 02B0     		add	sp, sp, #8
 474              		@ sp needed
 475 0014 80BD     		pop	{r7, pc}
 476              	.L24:
 477 0016 C046     		.align	2
ARM GAS  C:\DOCUME~1\Admin\LOCALS~1\Temp\cccdPaPP.s 			page 12


 478              	.L23:
 479 0018 00000000 		.word	outData
 480              		.cfi_endproc
 481              	.LFE66:
 482              		.size	SendFinStatus, .-SendFinStatus
 483              		.section	.text.NetworkStatus,"ax",%progbits
 484              		.align	2
 485              		.global	NetworkStatus
 486              		.code	16
 487              		.thumb_func
 488              		.type	NetworkStatus, %function
 489              	NetworkStatus:
 490              	.LFB67:
 140:.\lib_Network/network.c **** 
 141:.\lib_Network/network.c **** uint32_t NetworkStatus(void)
 142:.\lib_Network/network.c **** {
 491              		.loc 1 142 0
 492              		.cfi_startproc
 493 0000 80B5     		push	{r7, lr}
 494              		.cfi_def_cfa_offset 8
 495              		.cfi_offset 7, -8
 496              		.cfi_offset 14, -4
 497 0002 00AF     		add	r7, sp, #0
 498              		.cfi_def_cfa_register 7
 143:.\lib_Network/network.c ****     return networkStatus;
 499              		.loc 1 143 0
 500 0004 024B     		ldr	r3, .L27
 501 0006 1B68     		ldr	r3, [r3]
 144:.\lib_Network/network.c **** }
 502              		.loc 1 144 0
 503 0008 181C     		mov	r0, r3
 504 000a BD46     		mov	sp, r7
 505              		@ sp needed
 506 000c 80BD     		pop	{r7, pc}
 507              	.L28:
 508 000e C046     		.align	2
 509              	.L27:
 510 0010 00000000 		.word	networkStatus
 511              		.cfi_endproc
 512              	.LFE67:
 513              		.size	NetworkStatus, .-NetworkStatus
 514              		.section	.text.ReadRebootStartFlag,"ax",%progbits
 515              		.align	2
 516              		.global	ReadRebootStartFlag
 517              		.code	16
 518              		.thumb_func
 519              		.type	ReadRebootStartFlag, %function
 520              	ReadRebootStartFlag:
 521              	.LFB68:
 145:.\lib_Network/network.c **** 
 146:.\lib_Network/network.c **** 
 147:.\lib_Network/network.c **** uint32_t ReadRebootStartFlag(void)
 148:.\lib_Network/network.c **** {
 522              		.loc 1 148 0
 523              		.cfi_startproc
 524 0000 80B5     		push	{r7, lr}
 525              		.cfi_def_cfa_offset 8
ARM GAS  C:\DOCUME~1\Admin\LOCALS~1\Temp\cccdPaPP.s 			page 13


 526              		.cfi_offset 7, -8
 527              		.cfi_offset 14, -4
 528 0002 82B0     		sub	sp, sp, #8
 529              		.cfi_def_cfa_offset 16
 530 0004 00AF     		add	r7, sp, #0
 531              		.cfi_def_cfa_register 7
 149:.\lib_Network/network.c ****     uint32_t result;
 150:.\lib_Network/network.c ****     
 151:.\lib_Network/network.c ****     if(inData.reboot == 1 && outData.reboot == 0)
 532              		.loc 1 151 0
 533 0006 0D4B     		ldr	r3, .L33
 534 0008 DB7C     		ldrb	r3, [r3, #19]
 535 000a 012B     		cmp	r3, #1
 536 000c 09D1     		bne	.L30
 537              		.loc 1 151 0 is_stmt 0 discriminator 1
 538 000e 0C4B     		ldr	r3, .L33+4
 539 0010 9B78     		ldrb	r3, [r3, #2]
 540 0012 002B     		cmp	r3, #0
 541 0014 05D1     		bne	.L30
 152:.\lib_Network/network.c ****     {
 153:.\lib_Network/network.c ****         result = REBOOT;
 542              		.loc 1 153 0 is_stmt 1
 543 0016 FF23     		mov	r3, #255
 544 0018 7B60     		str	r3, [r7, #4]
 154:.\lib_Network/network.c ****         inData.reboot = 0;
 545              		.loc 1 154 0
 546 001a 084B     		ldr	r3, .L33
 547 001c 0022     		mov	r2, #0
 548 001e DA74     		strb	r2, [r3, #19]
 549 0020 07E0     		b	.L31
 550              	.L30:
 155:.\lib_Network/network.c ****     }else 
 156:.\lib_Network/network.c ****     {
 157:.\lib_Network/network.c ****         outData.reboot = 0;
 551              		.loc 1 157 0
 552 0022 074B     		ldr	r3, .L33+4
 553 0024 0022     		mov	r2, #0
 554 0026 9A70     		strb	r2, [r3, #2]
 158:.\lib_Network/network.c ****         inData.reboot = 0;
 555              		.loc 1 158 0
 556 0028 044B     		ldr	r3, .L33
 557 002a 0022     		mov	r2, #0
 558 002c DA74     		strb	r2, [r3, #19]
 159:.\lib_Network/network.c ****         result = NO_REBOOT;
 559              		.loc 1 159 0
 560 002e FE23     		mov	r3, #254
 561 0030 7B60     		str	r3, [r7, #4]
 562              	.L31:
 160:.\lib_Network/network.c ****     }
 161:.\lib_Network/network.c ****     return result;
 563              		.loc 1 161 0
 564 0032 7B68     		ldr	r3, [r7, #4]
 162:.\lib_Network/network.c **** }
 565              		.loc 1 162 0
 566 0034 181C     		mov	r0, r3
 567 0036 BD46     		mov	sp, r7
 568 0038 02B0     		add	sp, sp, #8
ARM GAS  C:\DOCUME~1\Admin\LOCALS~1\Temp\cccdPaPP.s 			page 14


 569              		@ sp needed
 570 003a 80BD     		pop	{r7, pc}
 571              	.L34:
 572              		.align	2
 573              	.L33:
 574 003c 00000000 		.word	inData
 575 0040 00000000 		.word	outData
 576              		.cfi_endproc
 577              	.LFE68:
 578              		.size	ReadRebootStartFlag, .-ReadRebootStartFlag
 579              		.section	.text.WriteRebootFlag,"ax",%progbits
 580              		.align	2
 581              		.global	WriteRebootFlag
 582              		.code	16
 583              		.thumb_func
 584              		.type	WriteRebootFlag, %function
 585              	WriteRebootFlag:
 586              	.LFB69:
 163:.\lib_Network/network.c **** 
 164:.\lib_Network/network.c **** void WriteRebootFlag(uint32_t status)
 165:.\lib_Network/network.c **** {
 587              		.loc 1 165 0
 588              		.cfi_startproc
 589 0000 80B5     		push	{r7, lr}
 590              		.cfi_def_cfa_offset 8
 591              		.cfi_offset 7, -8
 592              		.cfi_offset 14, -4
 593 0002 82B0     		sub	sp, sp, #8
 594              		.cfi_def_cfa_offset 16
 595 0004 00AF     		add	r7, sp, #0
 596              		.cfi_def_cfa_register 7
 597 0006 7860     		str	r0, [r7, #4]
 166:.\lib_Network/network.c ****     if(status == REBOOT)
 598              		.loc 1 166 0
 599 0008 7B68     		ldr	r3, [r7, #4]
 600 000a FF2B     		cmp	r3, #255
 601 000c 03D1     		bne	.L36
 167:.\lib_Network/network.c ****     {
 168:.\lib_Network/network.c ****         outData.reboot = 1;
 602              		.loc 1 168 0
 603 000e 054B     		ldr	r3, .L38
 604 0010 0122     		mov	r2, #1
 605 0012 9A70     		strb	r2, [r3, #2]
 606 0014 02E0     		b	.L35
 607              	.L36:
 169:.\lib_Network/network.c ****     }else
 170:.\lib_Network/network.c ****     {
 171:.\lib_Network/network.c ****         outData.reboot = 0;
 608              		.loc 1 171 0
 609 0016 034B     		ldr	r3, .L38
 610 0018 0022     		mov	r2, #0
 611 001a 9A70     		strb	r2, [r3, #2]
 612              	.L35:
 172:.\lib_Network/network.c ****     }
 173:.\lib_Network/network.c **** }
 613              		.loc 1 173 0
 614 001c BD46     		mov	sp, r7
ARM GAS  C:\DOCUME~1\Admin\LOCALS~1\Temp\cccdPaPP.s 			page 15


 615 001e 02B0     		add	sp, sp, #8
 616              		@ sp needed
 617 0020 80BD     		pop	{r7, pc}
 618              	.L39:
 619 0022 C046     		.align	2
 620              	.L38:
 621 0024 00000000 		.word	outData
 622              		.cfi_endproc
 623              	.LFE69:
 624              		.size	WriteRebootFlag, .-WriteRebootFlag
 625              		.global	__aeabi_uidiv
 626              		.section	.text.NTPsync,"ax",%progbits
 627              		.align	2
 628              		.global	NTPsync
 629              		.code	16
 630              		.thumb_func
 631              		.type	NTPsync, %function
 632              	NTPsync:
 633              	.LFB70:
 174:.\lib_Network/network.c **** 
 175:.\lib_Network/network.c **** /*NTP */
 176:.\lib_Network/network.c **** 
 177:.\lib_Network/network.c **** uint32_t NTPsync(void)
 178:.\lib_Network/network.c **** {
 634              		.loc 1 178 0
 635              		.cfi_startproc
 636 0000 90B5     		push	{r4, r7, lr}
 637              		.cfi_def_cfa_offset 12
 638              		.cfi_offset 4, -12
 639              		.cfi_offset 7, -8
 640              		.cfi_offset 14, -4
 641 0002 95B0     		sub	sp, sp, #84
 642              		.cfi_def_cfa_offset 96
 643 0004 02AF     		add	r7, sp, #8
 644              		.cfi_def_cfa 7, 88
 179:.\lib_Network/network.c ****     int i;
 180:.\lib_Network/network.c ****     uint16_t result;
 181:.\lib_Network/network.c ****     uint32_t IDpacket;
 182:.\lib_Network/network.c ****     uint32_t IDreceivePacket;
 183:.\lib_Network/network.c ****     uint32_t unixTime[4];
 184:.\lib_Network/network.c ****     uint16_t millisTime[4];
 185:.\lib_Network/network.c ****     uint32_t deliveryTime;
 186:.\lib_Network/network.c ****     uint32_t deliveryMs;
 187:.\lib_Network/network.c ****     uint32_t resultReceive;
 188:.\lib_Network/network.c ****     uint32_t noConnect;
 189:.\lib_Network/network.c ****     int32_t sumTime;
 190:.\lib_Network/network.c ****     int32_t sumMillis;
 191:.\lib_Network/network.c ****     
 192:.\lib_Network/network.c ****     deliveryTime = 0;
 645              		.loc 1 192 0
 646 0006 0023     		mov	r3, #0
 647 0008 BB63     		str	r3, [r7, #56]
 193:.\lib_Network/network.c ****     deliveryMs = 0;
 648              		.loc 1 193 0
 649 000a 0023     		mov	r3, #0
 650 000c 7B63     		str	r3, [r7, #52]
 194:.\lib_Network/network.c ****     IDpacket = 0;
ARM GAS  C:\DOCUME~1\Admin\LOCALS~1\Temp\cccdPaPP.s 			page 16


 651              		.loc 1 194 0
 652 000e 0023     		mov	r3, #0
 653 0010 FB63     		str	r3, [r7, #60]
 195:.\lib_Network/network.c ****     IDreceivePacket = 0;
 654              		.loc 1 195 0
 655 0012 0023     		mov	r3, #0
 656 0014 7B62     		str	r3, [r7, #36]
 196:.\lib_Network/network.c ****     noConnect = 0;
 657              		.loc 1 196 0
 658 0016 0023     		mov	r3, #0
 659 0018 3B63     		str	r3, [r7, #48]
 197:.\lib_Network/network.c ****     
 198:.\lib_Network/network.c ****     for(i=0; i < NUM_TRY_SYNC && noConnect <= NUM_CONNECT_ATTEMPS;)
 660              		.loc 1 198 0
 661 001a 0023     		mov	r3, #0
 662 001c 7B64     		str	r3, [r7, #68]
 663 001e 6DE0     		b	.L41
 664              	.L44:
 199:.\lib_Network/network.c ****     {
 200:.\lib_Network/network.c ****         /*send real time to start*/
 201:.\lib_Network/network.c **** 
 202:.\lib_Network/network.c ****         unixTime[T1] = RTCGetUnixTime();
 665              		.loc 1 202 0
 666 0020 FFF7FEFF 		bl	RTCGetUnixTime
 667 0024 031C     		mov	r3, r0
 668 0026 0C1C     		mov	r4, r1
 669 0028 1A1C     		mov	r2, r3
 670 002a 1423     		mov	r3, #20
 671 002c FB18     		add	r3, r7, r3
 672 002e 1A60     		str	r2, [r3]
 203:.\lib_Network/network.c ****         millisTime[T1] = RTCgetRecentMs();
 673              		.loc 1 203 0
 674 0030 FFF7FEFF 		bl	RTCgetRecentMs
 675 0034 031C     		mov	r3, r0
 676 0036 9AB2     		uxth	r2, r3
 677 0038 0C23     		mov	r3, #12
 678 003a FB18     		add	r3, r7, r3
 679 003c 1A80     		strh	r2, [r3]
 204:.\lib_Network/network.c ****         NTPsendTime(unixTime[T1], millisTime[T1], IDpacket);
 680              		.loc 1 204 0
 681 003e 1423     		mov	r3, #20
 682 0040 FB18     		add	r3, r7, r3
 683 0042 1968     		ldr	r1, [r3]
 684 0044 0C23     		mov	r3, #12
 685 0046 FB18     		add	r3, r7, r3
 686 0048 1A88     		ldrh	r2, [r3]
 687 004a FB6B     		ldr	r3, [r7, #60]
 688 004c 081C     		mov	r0, r1
 689 004e 111C     		mov	r1, r2
 690 0050 1A1C     		mov	r2, r3
 691 0052 FFF7FEFF 		bl	NTPsendTime
 205:.\lib_Network/network.c ****         
 206:.\lib_Network/network.c ****         CyDelay(300);
 692              		.loc 1 206 0
 693 0056 9623     		mov	r3, #150
 694 0058 5B00     		lsl	r3, r3, #1
 695 005a 181C     		mov	r0, r3
ARM GAS  C:\DOCUME~1\Admin\LOCALS~1\Temp\cccdPaPP.s 			page 17


 696 005c FFF7FEFF 		bl	CyDelay
 207:.\lib_Network/network.c ****         /*receive time from start*/
 208:.\lib_Network/network.c ****         resultReceive = NTPreceiveTime(&unixTime[T2],&millisTime[T2], &unixTime[T3], &millisTime[T3
 697              		.loc 1 208 0
 698 0060 1423     		mov	r3, #20
 699 0062 FB18     		add	r3, r7, r3
 700 0064 181D     		add	r0, r3, #4
 701 0066 0C23     		mov	r3, #12
 702 0068 FB18     		add	r3, r7, r3
 703 006a 991C     		add	r1, r3, #2
 704 006c 1423     		mov	r3, #20
 705 006e FB18     		add	r3, r7, r3
 706 0070 0833     		add	r3, r3, #8
 707 0072 1A1C     		mov	r2, r3
 708 0074 0C23     		mov	r3, #12
 709 0076 FB18     		add	r3, r7, r3
 710 0078 1C1D     		add	r4, r3, #4
 711 007a 2423     		mov	r3, #36
 712 007c FB18     		add	r3, r7, r3
 713 007e 0093     		str	r3, [sp]
 714 0080 231C     		mov	r3, r4
 715 0082 FFF7FEFF 		bl	NTPreceiveTime
 716 0086 031C     		mov	r3, r0
 717 0088 FB62     		str	r3, [r7, #44]
 209:.\lib_Network/network.c ****         
 210:.\lib_Network/network.c ****         if((resultReceive == READ_OK) && (IDreceivePacket == IDpacket))
 718              		.loc 1 210 0
 719 008a FB6A     		ldr	r3, [r7, #44]
 720 008c 012B     		cmp	r3, #1
 721 008e 32D1     		bne	.L42
 722              		.loc 1 210 0 is_stmt 0 discriminator 1
 723 0090 7A6A     		ldr	r2, [r7, #36]
 724 0092 FB6B     		ldr	r3, [r7, #60]
 725 0094 9A42     		cmp	r2, r3
 726 0096 2ED1     		bne	.L42
 211:.\lib_Network/network.c ****         {
 212:.\lib_Network/network.c ****             /*delivery timing*/
 213:.\lib_Network/network.c ****             unixTime[T4] = RTCGetUnixTime();
 727              		.loc 1 213 0 is_stmt 1
 728 0098 FFF7FEFF 		bl	RTCGetUnixTime
 729 009c 031C     		mov	r3, r0
 730 009e 0C1C     		mov	r4, r1
 731 00a0 1A1C     		mov	r2, r3
 732 00a2 1423     		mov	r3, #20
 733 00a4 FB18     		add	r3, r7, r3
 734 00a6 DA60     		str	r2, [r3, #12]
 214:.\lib_Network/network.c ****             millisTime[T4] = RTCgetRecentMs(); 
 735              		.loc 1 214 0
 736 00a8 FFF7FEFF 		bl	RTCgetRecentMs
 737 00ac 031C     		mov	r3, r0
 738 00ae 9AB2     		uxth	r2, r3
 739 00b0 0C23     		mov	r3, #12
 740 00b2 FB18     		add	r3, r7, r3
 741 00b4 DA80     		strh	r2, [r3, #6]
 215:.\lib_Network/network.c ****             
 216:.\lib_Network/network.c ****             NTPcalculateTime(unixTime, millisTime,&sumTime, &sumMillis);
 742              		.loc 1 216 0
ARM GAS  C:\DOCUME~1\Admin\LOCALS~1\Temp\cccdPaPP.s 			page 18


 743 00b6 1423     		mov	r3, #20
 744 00b8 F818     		add	r0, r7, r3
 745 00ba 0C23     		mov	r3, #12
 746 00bc F918     		add	r1, r7, r3
 747 00be 0823     		mov	r3, #8
 748 00c0 FA18     		add	r2, r7, r3
 749 00c2 3B1D     		add	r3, r7, #4
 750 00c4 FFF7FEFF 		bl	NTPcalculateTime
 217:.\lib_Network/network.c **** 
 218:.\lib_Network/network.c ****             deliveryTime += sumTime;
 751              		.loc 1 218 0
 752 00c8 BB68     		ldr	r3, [r7, #8]
 753 00ca 1A1C     		mov	r2, r3
 754 00cc BB6B     		ldr	r3, [r7, #56]
 755 00ce 9B18     		add	r3, r3, r2
 756 00d0 BB63     		str	r3, [r7, #56]
 219:.\lib_Network/network.c ****             deliveryMs += sumMillis;
 757              		.loc 1 219 0
 758 00d2 7B68     		ldr	r3, [r7, #4]
 759 00d4 1A1C     		mov	r2, r3
 760 00d6 7B6B     		ldr	r3, [r7, #52]
 761 00d8 9B18     		add	r3, r3, r2
 762 00da 7B63     		str	r3, [r7, #52]
 220:.\lib_Network/network.c ****             
 221:.\lib_Network/network.c ****             DisplayPrintfLoading(IDpacket);
 763              		.loc 1 221 0
 764 00dc FB6B     		ldr	r3, [r7, #60]
 765 00de 181C     		mov	r0, r3
 766 00e0 FFF7FEFF 		bl	DisplayPrintfLoading
 222:.\lib_Network/network.c ****             IDpacket++;
 767              		.loc 1 222 0
 768 00e4 FB6B     		ldr	r3, [r7, #60]
 769 00e6 0133     		add	r3, r3, #1
 770 00e8 FB63     		str	r3, [r7, #60]
 223:.\lib_Network/network.c ****             noConnect=0;
 771              		.loc 1 223 0
 772 00ea 0023     		mov	r3, #0
 773 00ec 3B63     		str	r3, [r7, #48]
 224:.\lib_Network/network.c ****             i++;  
 774              		.loc 1 224 0
 775 00ee 7B6C     		ldr	r3, [r7, #68]
 776 00f0 0133     		add	r3, r3, #1
 777 00f2 7B64     		str	r3, [r7, #68]
 778 00f4 02E0     		b	.L41
 779              	.L42:
 225:.\lib_Network/network.c ****             
 226:.\lib_Network/network.c ****         }else
 227:.\lib_Network/network.c ****         {
 228:.\lib_Network/network.c ****             noConnect++;
 780              		.loc 1 228 0
 781 00f6 3B6B     		ldr	r3, [r7, #48]
 782 00f8 0133     		add	r3, r3, #1
 783 00fa 3B63     		str	r3, [r7, #48]
 784              	.L41:
 198:.\lib_Network/network.c ****     {
 785              		.loc 1 198 0 discriminator 1
 786 00fc 7B6C     		ldr	r3, [r7, #68]
ARM GAS  C:\DOCUME~1\Admin\LOCALS~1\Temp\cccdPaPP.s 			page 19


 787 00fe 0D2B     		cmp	r3, #13
 788 0100 02DC     		bgt	.L43
 198:.\lib_Network/network.c ****     {
 789              		.loc 1 198 0 is_stmt 0 discriminator 2
 790 0102 3B6B     		ldr	r3, [r7, #48]
 791 0104 142B     		cmp	r3, #20
 792 0106 8BD9     		bls	.L44
 793              	.L43:
 229:.\lib_Network/network.c ****         }
 230:.\lib_Network/network.c ****     }
 231:.\lib_Network/network.c ****     
 232:.\lib_Network/network.c ****     
 233:.\lib_Network/network.c ****     if(noConnect >= NUM_CONNECT_ATTEMPS)
 794              		.loc 1 233 0 is_stmt 1
 795 0108 3B6B     		ldr	r3, [r7, #48]
 796 010a 132B     		cmp	r3, #19
 797 010c 04D9     		bls	.L45
 234:.\lib_Network/network.c ****     {
 235:.\lib_Network/network.c ****         result = TIME_SYNC_ERR;
 798              		.loc 1 235 0
 799 010e 4223     		mov	r3, #66
 800 0110 FB18     		add	r3, r7, r3
 801 0112 0122     		mov	r2, #1
 802 0114 1A80     		strh	r2, [r3]
 803 0116 5DE0     		b	.L46
 804              	.L45:
 805              	.LBB4:
 236:.\lib_Network/network.c ****     }else
 237:.\lib_Network/network.c ****     {
 238:.\lib_Network/network.c ****         uint16_t outMs;
 239:.\lib_Network/network.c ****         uint16_t tmpDataMs;
 240:.\lib_Network/network.c ****                 
 241:.\lib_Network/network.c ****         tmpDataMs = deliveryTime*1000;
 806              		.loc 1 241 0
 807 0118 BB6B     		ldr	r3, [r7, #56]
 808 011a 9AB2     		uxth	r2, r3
 809 011c 2A23     		mov	r3, #42
 810 011e FB18     		add	r3, r7, r3
 811 0120 FA21     		mov	r1, #250
 812 0122 8900     		lsl	r1, r1, #2
 813 0124 4A43     		mul	r2, r1
 814 0126 1A80     		strh	r2, [r3]
 242:.\lib_Network/network.c ****         deliveryTime  = 0;///= NUM_TRY_SYNC;
 815              		.loc 1 242 0
 816 0128 0023     		mov	r3, #0
 817 012a BB63     		str	r3, [r7, #56]
 243:.\lib_Network/network.c ****         deliveryMs = (tmpDataMs + deliveryMs)/(NUM_TRY_SYNC);
 818              		.loc 1 243 0
 819 012c 2A23     		mov	r3, #42
 820 012e FB18     		add	r3, r7, r3
 821 0130 1A88     		ldrh	r2, [r3]
 822 0132 7B6B     		ldr	r3, [r7, #52]
 823 0134 D318     		add	r3, r2, r3
 824 0136 181C     		mov	r0, r3
 825 0138 0E21     		mov	r1, #14
 826 013a FFF7FEFF 		bl	__aeabi_uidiv
 827 013e 031C     		mov	r3, r0
ARM GAS  C:\DOCUME~1\Admin\LOCALS~1\Temp\cccdPaPP.s 			page 20


 828 0140 7B63     		str	r3, [r7, #52]
 244:.\lib_Network/network.c ****         while (deliveryMs>=1000)
 829              		.loc 1 244 0
 830 0142 07E0     		b	.L47
 831              	.L48:
 245:.\lib_Network/network.c ****         {
 246:.\lib_Network/network.c ****             deliveryMs-=1000;
 832              		.loc 1 246 0
 833 0144 7B6B     		ldr	r3, [r7, #52]
 834 0146 274A     		ldr	r2, .L51
 835 0148 9446     		mov	ip, r2
 836 014a 6344     		add	r3, r3, ip
 837 014c 7B63     		str	r3, [r7, #52]
 247:.\lib_Network/network.c ****             deliveryTime++;
 838              		.loc 1 247 0
 839 014e BB6B     		ldr	r3, [r7, #56]
 840 0150 0133     		add	r3, r3, #1
 841 0152 BB63     		str	r3, [r7, #56]
 842              	.L47:
 244:.\lib_Network/network.c ****         while (deliveryMs>=1000)
 843              		.loc 1 244 0
 844 0154 7B6B     		ldr	r3, [r7, #52]
 845 0156 244A     		ldr	r2, .L51+4
 846 0158 9342     		cmp	r3, r2
 847 015a F3D8     		bhi	.L48
 248:.\lib_Network/network.c ****         }
 249:.\lib_Network/network.c ****         
 250:.\lib_Network/network.c ****         unixTime[T4] = RTCGetUnixTime()+deliveryTime;
 848              		.loc 1 250 0
 849 015c FFF7FEFF 		bl	RTCGetUnixTime
 850 0160 031C     		mov	r3, r0
 851 0162 0C1C     		mov	r4, r1
 852 0164 1A1C     		mov	r2, r3
 853 0166 BB6B     		ldr	r3, [r7, #56]
 854 0168 D218     		add	r2, r2, r3
 855 016a 1423     		mov	r3, #20
 856 016c FB18     		add	r3, r7, r3
 857 016e DA60     		str	r2, [r3, #12]
 251:.\lib_Network/network.c ****         millisTime[T4] = RTCgetRecentMs()+deliveryMs;
 858              		.loc 1 251 0
 859 0170 FFF7FEFF 		bl	RTCgetRecentMs
 860 0174 031C     		mov	r3, r0
 861 0176 9AB2     		uxth	r2, r3
 862 0178 7B6B     		ldr	r3, [r7, #52]
 863 017a 9BB2     		uxth	r3, r3
 864 017c D318     		add	r3, r2, r3
 865 017e 9AB2     		uxth	r2, r3
 866 0180 0C23     		mov	r3, #12
 867 0182 FB18     		add	r3, r7, r3
 868 0184 DA80     		strh	r2, [r3, #6]
 252:.\lib_Network/network.c ****         
 253:.\lib_Network/network.c ****         if((millisTime[T4]) >= 1000)
 869              		.loc 1 253 0
 870 0186 0C23     		mov	r3, #12
 871 0188 FB18     		add	r3, r7, r3
 872 018a DB88     		ldrh	r3, [r3, #6]
 873 018c 164A     		ldr	r2, .L51+4
ARM GAS  C:\DOCUME~1\Admin\LOCALS~1\Temp\cccdPaPP.s 			page 21


 874 018e 9342     		cmp	r3, r2
 875 0190 10D9     		bls	.L49
 254:.\lib_Network/network.c ****         {
 255:.\lib_Network/network.c ****             unixTime[T4] ++;
 876              		.loc 1 255 0
 877 0192 1423     		mov	r3, #20
 878 0194 FB18     		add	r3, r7, r3
 879 0196 DB68     		ldr	r3, [r3, #12]
 880 0198 5A1C     		add	r2, r3, #1
 881 019a 1423     		mov	r3, #20
 882 019c FB18     		add	r3, r7, r3
 883 019e DA60     		str	r2, [r3, #12]
 256:.\lib_Network/network.c ****             millisTime[T4] -= 1000;
 884              		.loc 1 256 0
 885 01a0 0C23     		mov	r3, #12
 886 01a2 FB18     		add	r3, r7, r3
 887 01a4 DB88     		ldrh	r3, [r3, #6]
 888 01a6 0F4A     		ldr	r2, .L51
 889 01a8 9446     		mov	ip, r2
 890 01aa 6344     		add	r3, r3, ip
 891 01ac 9AB2     		uxth	r2, r3
 892 01ae 0C23     		mov	r3, #12
 893 01b0 FB18     		add	r3, r7, r3
 894 01b2 DA80     		strh	r2, [r3, #6]
 895              	.L49:
 257:.\lib_Network/network.c ****         }
 258:.\lib_Network/network.c ****         NTPsetTimeToStart(unixTime[T4], millisTime[T4], IDpacket);
 896              		.loc 1 258 0
 897 01b4 1423     		mov	r3, #20
 898 01b6 FB18     		add	r3, r7, r3
 899 01b8 D968     		ldr	r1, [r3, #12]
 900 01ba 0C23     		mov	r3, #12
 901 01bc FB18     		add	r3, r7, r3
 902 01be DA88     		ldrh	r2, [r3, #6]
 903 01c0 FB6B     		ldr	r3, [r7, #60]
 904 01c2 081C     		mov	r0, r1
 905 01c4 111C     		mov	r1, r2
 906 01c6 1A1C     		mov	r2, r3
 907 01c8 FFF7FEFF 		bl	NTPsetTimeToStart
 259:.\lib_Network/network.c ****         
 260:.\lib_Network/network.c ****         result = TIME_SYNC_OK;
 908              		.loc 1 260 0
 909 01cc 4223     		mov	r3, #66
 910 01ce FB18     		add	r3, r7, r3
 911 01d0 0022     		mov	r2, #0
 912 01d2 1A80     		strh	r2, [r3]
 913              	.L46:
 914              	.LBE4:
 261:.\lib_Network/network.c ****     }
 262:.\lib_Network/network.c ****     return result;
 915              		.loc 1 262 0
 916 01d4 4223     		mov	r3, #66
 917 01d6 FB18     		add	r3, r7, r3
 918 01d8 1B88     		ldrh	r3, [r3]
 263:.\lib_Network/network.c **** }
 919              		.loc 1 263 0
 920 01da 181C     		mov	r0, r3
ARM GAS  C:\DOCUME~1\Admin\LOCALS~1\Temp\cccdPaPP.s 			page 22


 921 01dc BD46     		mov	sp, r7
 922 01de 13B0     		add	sp, sp, #76
 923              		@ sp needed
 924 01e0 90BD     		pop	{r4, r7, pc}
 925              	.L52:
 926 01e2 C046     		.align	2
 927              	.L51:
 928 01e4 18FCFFFF 		.word	-1000
 929 01e8 E7030000 		.word	999
 930              		.cfi_endproc
 931              	.LFE70:
 932              		.size	NTPsync, .-NTPsync
 933              		.section	.rodata
 934 001b 00       		.align	2
 935              	.LC16:
 936 001c 25303858 		.ascii	"%08X%03X\000"
 936      25303358 
 936      00
 937 0025 000000   		.section	.text.NTPsendTime,"ax",%progbits
 938              		.align	2
 939              		.code	16
 940              		.thumb_func
 941              		.type	NTPsendTime, %function
 942              	NTPsendTime:
 943              	.LFB71:
 264:.\lib_Network/network.c **** 
 265:.\lib_Network/network.c **** static void NTPsendTime(uint32_t unixTime1,uint16_t millis2, uint32_t ID)
 266:.\lib_Network/network.c **** {
 944              		.loc 1 266 0
 945              		.cfi_startproc
 946 0000 80B5     		push	{r7, lr}
 947              		.cfi_def_cfa_offset 8
 948              		.cfi_offset 7, -8
 949              		.cfi_offset 14, -4
 950 0002 9EB0     		sub	sp, sp, #120
 951              		.cfi_def_cfa_offset 128
 952 0004 00AF     		add	r7, sp, #0
 953              		.cfi_def_cfa_register 7
 954 0006 F860     		str	r0, [r7, #12]
 955 0008 7A60     		str	r2, [r7, #4]
 956 000a 0A23     		mov	r3, #10
 957 000c FB18     		add	r3, r7, r3
 958 000e 0A1C     		add	r2, r1, #0
 959 0010 1A80     		strh	r2, [r3]
 267:.\lib_Network/network.c ****     char sendBuffer[DATA_BUFFER];
 268:.\lib_Network/network.c ****     char sendData[DATA_BUFFER];
 269:.\lib_Network/network.c ****     
 270:.\lib_Network/network.c ****     /*pack data*/
 271:.\lib_Network/network.c ****     sprintf(sendData,"%08X%03X", unixTime1,millis2); 
 960              		.loc 1 271 0
 961 0012 0A23     		mov	r3, #10
 962 0014 FB18     		add	r3, r7, r3
 963 0016 1B88     		ldrh	r3, [r3]
 964 0018 1022     		mov	r2, #16
 965 001a B818     		add	r0, r7, r2
 966 001c 0A49     		ldr	r1, .L54
 967 001e FA68     		ldr	r2, [r7, #12]
ARM GAS  C:\DOCUME~1\Admin\LOCALS~1\Temp\cccdPaPP.s 			page 23


 968 0020 FFF7FEFF 		bl	sprintf
 272:.\lib_Network/network.c ****     PackData(sendBuffer, (uint8_t *)sendData, ID);
 969              		.loc 1 272 0
 970 0024 4423     		mov	r3, #68
 971 0026 F918     		add	r1, r7, r3
 972 0028 1023     		mov	r3, #16
 973 002a FA18     		add	r2, r7, r3
 974 002c 7B68     		ldr	r3, [r7, #4]
 975 002e 081C     		mov	r0, r1
 976 0030 111C     		mov	r1, r2
 977 0032 1A1C     		mov	r2, r3
 978 0034 FFF7FEFF 		bl	PackData
 273:.\lib_Network/network.c ****     UART_XB_UartPutString(sendBuffer);
 979              		.loc 1 273 0
 980 0038 4423     		mov	r3, #68
 981 003a FB18     		add	r3, r7, r3
 982 003c 181C     		mov	r0, r3
 983 003e FFF7FEFF 		bl	UART_XB_UartPutString
 274:.\lib_Network/network.c **** }
 984              		.loc 1 274 0
 985 0042 BD46     		mov	sp, r7
 986 0044 1EB0     		add	sp, sp, #120
 987              		@ sp needed
 988 0046 80BD     		pop	{r7, pc}
 989              	.L55:
 990              		.align	2
 991              	.L54:
 992 0048 1C000000 		.word	.LC16
 993              		.cfi_endproc
 994              	.LFE71:
 995              		.size	NTPsendTime, .-NTPsendTime
 996              		.section	.text.NTPreceiveTime,"ax",%progbits
 997              		.align	2
 998              		.code	16
 999              		.thumb_func
 1000              		.type	NTPreceiveTime, %function
 1001              	NTPreceiveTime:
 1002              	.LFB72:
 275:.\lib_Network/network.c **** 
 276:.\lib_Network/network.c **** 
 277:.\lib_Network/network.c **** static uint32_t NTPreceiveTime(uint32_t *unixTime2, uint16_t *millisTime2, uint32_t *unixTime3, uin
 278:.\lib_Network/network.c **** {
 1003              		.loc 1 278 0
 1004              		.cfi_startproc
 1005 0000 80B5     		push	{r7, lr}
 1006              		.cfi_def_cfa_offset 8
 1007              		.cfi_offset 7, -8
 1008              		.cfi_offset 14, -4
 1009 0002 8CB0     		sub	sp, sp, #48
 1010              		.cfi_def_cfa_offset 56
 1011 0004 00AF     		add	r7, sp, #0
 1012              		.cfi_def_cfa_register 7
 1013 0006 F860     		str	r0, [r7, #12]
 1014 0008 B960     		str	r1, [r7, #8]
 1015 000a 7A60     		str	r2, [r7, #4]
 1016 000c 3B60     		str	r3, [r7]
 279:.\lib_Network/network.c ****     uint8_t byte;
ARM GAS  C:\DOCUME~1\Admin\LOCALS~1\Temp\cccdPaPP.s 			page 24


 280:.\lib_Network/network.c ****     uint32_t result;
 281:.\lib_Network/network.c ****     /*debug*/
 282:.\lib_Network/network.c ****     result = READ_OK;
 1017              		.loc 1 282 0
 1018 000e 0123     		mov	r3, #1
 1019 0010 FB62     		str	r3, [r7, #44]
 283:.\lib_Network/network.c ****     
 284:.\lib_Network/network.c ****     NtpResp recvDataNTP;
 285:.\lib_Network/network.c ****     while((UART_XB_SpiUartGetRxBufferSize() > 0) && ((byte=UART_XB_UartGetChar()) != 0))
 1020              		.loc 1 285 0
 1021 0012 2DE0     		b	.L57
 1022              	.L61:
 286:.\lib_Network/network.c ****     {
 287:.\lib_Network/network.c ****         result = NtpUnpackData(&recvDataNTP, (uint8_t)(byte & 0xFF));
 1023              		.loc 1 287 0
 1024 0014 1023     		mov	r3, #16
 1025 0016 FA18     		add	r2, r7, r3
 1026 0018 2B23     		mov	r3, #43
 1027 001a FB18     		add	r3, r7, r3
 1028 001c 1B78     		ldrb	r3, [r3]
 1029 001e 101C     		mov	r0, r2
 1030 0020 191C     		mov	r1, r3
 1031 0022 FFF7FEFF 		bl	NtpUnpackData
 1032 0026 031C     		mov	r3, r0
 1033 0028 FB62     		str	r3, [r7, #44]
 288:.\lib_Network/network.c ****       
 289:.\lib_Network/network.c ****         if(recvDataNTP.EndPacket == 1)
 1034              		.loc 1 289 0
 1035 002a 1023     		mov	r3, #16
 1036 002c FB18     		add	r3, r7, r3
 1037 002e 1B7D     		ldrb	r3, [r3, #20]
 1038 0030 012B     		cmp	r3, #1
 1039 0032 1BD1     		bne	.L58
 290:.\lib_Network/network.c ****         {
 291:.\lib_Network/network.c ****             /*save unix time*/
 292:.\lib_Network/network.c ****             *IDreceive = recvDataNTP.Id;
 1040              		.loc 1 292 0
 1041 0034 1023     		mov	r3, #16
 1042 0036 FB18     		add	r3, r7, r3
 1043 0038 1B88     		ldrh	r3, [r3]
 1044 003a 1A1C     		mov	r2, r3
 1045 003c BB6B     		ldr	r3, [r7, #56]
 1046 003e 1A60     		str	r2, [r3]
 293:.\lib_Network/network.c ****             *unixTime2 = recvDataNTP.Data1;
 1047              		.loc 1 293 0
 1048 0040 1023     		mov	r3, #16
 1049 0042 FB18     		add	r3, r7, r3
 1050 0044 5A68     		ldr	r2, [r3, #4]
 1051 0046 FB68     		ldr	r3, [r7, #12]
 1052 0048 1A60     		str	r2, [r3]
 294:.\lib_Network/network.c ****             *millisTime2 = recvDataNTP.DataMs1;
 1053              		.loc 1 294 0
 1054 004a 1023     		mov	r3, #16
 1055 004c FB18     		add	r3, r7, r3
 1056 004e 1A89     		ldrh	r2, [r3, #8]
 1057 0050 BB68     		ldr	r3, [r7, #8]
 1058 0052 1A80     		strh	r2, [r3]
ARM GAS  C:\DOCUME~1\Admin\LOCALS~1\Temp\cccdPaPP.s 			page 25


 295:.\lib_Network/network.c ****             *unixTime3 = recvDataNTP.Data2;
 1059              		.loc 1 295 0
 1060 0054 1023     		mov	r3, #16
 1061 0056 FB18     		add	r3, r7, r3
 1062 0058 DA68     		ldr	r2, [r3, #12]
 1063 005a 7B68     		ldr	r3, [r7, #4]
 1064 005c 1A60     		str	r2, [r3]
 296:.\lib_Network/network.c ****             *millisTime3 = recvDataNTP.DataMs2;
 1065              		.loc 1 296 0
 1066 005e 1023     		mov	r3, #16
 1067 0060 FB18     		add	r3, r7, r3
 1068 0062 5A89     		ldrh	r2, [r3, #10]
 1069 0064 3B68     		ldr	r3, [r7]
 1070 0066 1A80     		strh	r2, [r3]
 297:.\lib_Network/network.c ****             
 298:.\lib_Network/network.c ****             return READ_OK;
 1071              		.loc 1 298 0
 1072 0068 0123     		mov	r3, #1
 1073 006a 13E0     		b	.L62
 1074              	.L58:
 299:.\lib_Network/network.c ****         }
 300:.\lib_Network/network.c ****         result = NO_READ;
 1075              		.loc 1 300 0
 1076 006c 0023     		mov	r3, #0
 1077 006e FB62     		str	r3, [r7, #44]
 1078              	.L57:
 285:.\lib_Network/network.c ****     {
 1079              		.loc 1 285 0
 1080 0070 FFF7FEFF 		bl	UART_XB_SpiUartGetRxBufferSize
 1081 0074 031E     		sub	r3, r0, #0
 1082 0076 0AD0     		beq	.L60
 285:.\lib_Network/network.c ****     {
 1083              		.loc 1 285 0 is_stmt 0 discriminator 1
 1084 0078 FFF7FEFF 		bl	UART_XB_UartGetChar
 1085 007c 021C     		mov	r2, r0
 1086 007e 2B23     		mov	r3, #43
 1087 0080 FB18     		add	r3, r7, r3
 1088 0082 1A70     		strb	r2, [r3]
 1089 0084 2B23     		mov	r3, #43
 1090 0086 FB18     		add	r3, r7, r3
 1091 0088 1B78     		ldrb	r3, [r3]
 1092 008a 002B     		cmp	r3, #0
 1093 008c C2D1     		bne	.L61
 1094              	.L60:
 301:.\lib_Network/network.c ****     }
 302:.\lib_Network/network.c ****     result = NO_READ;
 1095              		.loc 1 302 0 is_stmt 1
 1096 008e 0023     		mov	r3, #0
 1097 0090 FB62     		str	r3, [r7, #44]
 303:.\lib_Network/network.c ****     
 304:.\lib_Network/network.c ****     return result;
 1098              		.loc 1 304 0
 1099 0092 FB6A     		ldr	r3, [r7, #44]
 1100              	.L62:
 305:.\lib_Network/network.c **** }
 1101              		.loc 1 305 0 discriminator 1
 1102 0094 181C     		mov	r0, r3
ARM GAS  C:\DOCUME~1\Admin\LOCALS~1\Temp\cccdPaPP.s 			page 26


 1103 0096 BD46     		mov	sp, r7
 1104 0098 0CB0     		add	sp, sp, #48
 1105              		@ sp needed
 1106 009a 80BD     		pop	{r7, pc}
 1107              		.cfi_endproc
 1108              	.LFE72:
 1109              		.size	NTPreceiveTime, .-NTPreceiveTime
 1110              		.section	.text.NTPsetTimeToStart,"ax",%progbits
 1111              		.align	2
 1112              		.code	16
 1113              		.thumb_func
 1114              		.type	NTPsetTimeToStart, %function
 1115              	NTPsetTimeToStart:
 1116              	.LFB73:
 306:.\lib_Network/network.c **** 
 307:.\lib_Network/network.c **** 
 308:.\lib_Network/network.c **** static void NTPsetTimeToStart(uint32_t unixTime4, uint16_t millisTime4, uint32_t ID)
 309:.\lib_Network/network.c **** {
 1117              		.loc 1 309 0
 1118              		.cfi_startproc
 1119 0000 80B5     		push	{r7, lr}
 1120              		.cfi_def_cfa_offset 8
 1121              		.cfi_offset 7, -8
 1122              		.cfi_offset 14, -4
 1123 0002 9EB0     		sub	sp, sp, #120
 1124              		.cfi_def_cfa_offset 128
 1125 0004 00AF     		add	r7, sp, #0
 1126              		.cfi_def_cfa_register 7
 1127 0006 F860     		str	r0, [r7, #12]
 1128 0008 7A60     		str	r2, [r7, #4]
 1129 000a 0A23     		mov	r3, #10
 1130 000c FB18     		add	r3, r7, r3
 1131 000e 0A1C     		add	r2, r1, #0
 1132 0010 1A80     		strh	r2, [r3]
 310:.\lib_Network/network.c ****     char sendBuffer[DATA_BUFFER];
 311:.\lib_Network/network.c ****     char sendData[DATA_BUFFER];
 312:.\lib_Network/network.c ****     
 313:.\lib_Network/network.c ****     /*pack data*/
 314:.\lib_Network/network.c ****     sprintf(sendData,"%08X%03X", unixTime4,millisTime4); 
 1133              		.loc 1 314 0
 1134 0012 0A23     		mov	r3, #10
 1135 0014 FB18     		add	r3, r7, r3
 1136 0016 1B88     		ldrh	r3, [r3]
 1137 0018 1022     		mov	r2, #16
 1138 001a B818     		add	r0, r7, r2
 1139 001c 0A49     		ldr	r1, .L64
 1140 001e FA68     		ldr	r2, [r7, #12]
 1141 0020 FFF7FEFF 		bl	sprintf
 315:.\lib_Network/network.c ****     PackData(sendBuffer, (uint8_t *)sendData, ID);
 1142              		.loc 1 315 0
 1143 0024 4423     		mov	r3, #68
 1144 0026 F918     		add	r1, r7, r3
 1145 0028 1023     		mov	r3, #16
 1146 002a FA18     		add	r2, r7, r3
 1147 002c 7B68     		ldr	r3, [r7, #4]
 1148 002e 081C     		mov	r0, r1
 1149 0030 111C     		mov	r1, r2
ARM GAS  C:\DOCUME~1\Admin\LOCALS~1\Temp\cccdPaPP.s 			page 27


 1150 0032 1A1C     		mov	r2, r3
 1151 0034 FFF7FEFF 		bl	PackData
 316:.\lib_Network/network.c ****     
 317:.\lib_Network/network.c ****     UART_XB_UartPutString(sendBuffer);
 1152              		.loc 1 317 0
 1153 0038 4423     		mov	r3, #68
 1154 003a FB18     		add	r3, r7, r3
 1155 003c 181C     		mov	r0, r3
 1156 003e FFF7FEFF 		bl	UART_XB_UartPutString
 318:.\lib_Network/network.c **** }
 1157              		.loc 1 318 0
 1158 0042 BD46     		mov	sp, r7
 1159 0044 1EB0     		add	sp, sp, #120
 1160              		@ sp needed
 1161 0046 80BD     		pop	{r7, pc}
 1162              	.L65:
 1163              		.align	2
 1164              	.L64:
 1165 0048 1C000000 		.word	.LC16
 1166              		.cfi_endproc
 1167              	.LFE73:
 1168              		.size	NTPsetTimeToStart, .-NTPsetTimeToStart
 1169              		.section	.text.NTPcalculateTime,"ax",%progbits
 1170              		.align	2
 1171              		.code	16
 1172              		.thumb_func
 1173              		.type	NTPcalculateTime, %function
 1174              	NTPcalculateTime:
 1175              	.LFB74:
 319:.\lib_Network/network.c **** 
 320:.\lib_Network/network.c **** static void NTPcalculateTime(uint32_t unixTime[], uint16_t msTime[], int32_t *sumTime, int32_t *sum
 321:.\lib_Network/network.c **** {
 1176              		.loc 1 321 0
 1177              		.cfi_startproc
 1178 0000 80B5     		push	{r7, lr}
 1179              		.cfi_def_cfa_offset 8
 1180              		.cfi_offset 7, -8
 1181              		.cfi_offset 14, -4
 1182 0002 8AB0     		sub	sp, sp, #40
 1183              		.cfi_def_cfa_offset 48
 1184 0004 00AF     		add	r7, sp, #0
 1185              		.cfi_def_cfa_register 7
 1186 0006 F860     		str	r0, [r7, #12]
 1187 0008 B960     		str	r1, [r7, #8]
 1188 000a 7A60     		str	r2, [r7, #4]
 1189 000c 3B60     		str	r3, [r7]
 322:.\lib_Network/network.c ****     /*calculate ms time*/
 323:.\lib_Network/network.c ****     int32_t tmpMsMaster;
 324:.\lib_Network/network.c ****     int32_t tmpTimeMaster;    
 325:.\lib_Network/network.c ****     int32_t tmpMsSlave;
 326:.\lib_Network/network.c ****     int32_t tmpTimeSlave;
 327:.\lib_Network/network.c ****     int32_t tmpDiffTime;
 328:.\lib_Network/network.c ****     int32_t tmpDiffMs;
 329:.\lib_Network/network.c ****     
 330:.\lib_Network/network.c ****     tmpTimeMaster = unixTime[T4] - unixTime[T1];
 1190              		.loc 1 330 0
 1191 000e FB68     		ldr	r3, [r7, #12]
ARM GAS  C:\DOCUME~1\Admin\LOCALS~1\Temp\cccdPaPP.s 			page 28


 1192 0010 0C33     		add	r3, r3, #12
 1193 0012 1A68     		ldr	r2, [r3]
 1194 0014 FB68     		ldr	r3, [r7, #12]
 1195 0016 1B68     		ldr	r3, [r3]
 1196 0018 D31A     		sub	r3, r2, r3
 1197 001a 3B62     		str	r3, [r7, #32]
 331:.\lib_Network/network.c ****     if((tmpMsMaster = (msTime[T4] - msTime[T1])) < 0)
 1198              		.loc 1 331 0
 1199 001c BB68     		ldr	r3, [r7, #8]
 1200 001e 0633     		add	r3, r3, #6
 1201 0020 1B88     		ldrh	r3, [r3]
 1202 0022 1A1C     		mov	r2, r3
 1203 0024 BB68     		ldr	r3, [r7, #8]
 1204 0026 1B88     		ldrh	r3, [r3]
 1205 0028 D31A     		sub	r3, r2, r3
 1206 002a 7B62     		str	r3, [r7, #36]
 1207 002c 7B6A     		ldr	r3, [r7, #36]
 1208 002e 002B     		cmp	r3, #0
 1209 0030 08DA     		bge	.L67
 332:.\lib_Network/network.c ****     {
 333:.\lib_Network/network.c ****         tmpMsMaster += 1000;
 1210              		.loc 1 333 0
 1211 0032 7B6A     		ldr	r3, [r7, #36]
 1212 0034 FA22     		mov	r2, #250
 1213 0036 9200     		lsl	r2, r2, #2
 1214 0038 9446     		mov	ip, r2
 1215 003a 6344     		add	r3, r3, ip
 1216 003c 7B62     		str	r3, [r7, #36]
 334:.\lib_Network/network.c ****         tmpTimeMaster--;
 1217              		.loc 1 334 0
 1218 003e 3B6A     		ldr	r3, [r7, #32]
 1219 0040 013B     		sub	r3, r3, #1
 1220 0042 3B62     		str	r3, [r7, #32]
 1221              	.L67:
 335:.\lib_Network/network.c ****     }
 336:.\lib_Network/network.c ****     
 337:.\lib_Network/network.c ****     tmpTimeSlave = unixTime[T3] - unixTime[T2];
 1222              		.loc 1 337 0
 1223 0044 FB68     		ldr	r3, [r7, #12]
 1224 0046 0833     		add	r3, r3, #8
 1225 0048 1A68     		ldr	r2, [r3]
 1226 004a FB68     		ldr	r3, [r7, #12]
 1227 004c 0433     		add	r3, r3, #4
 1228 004e 1B68     		ldr	r3, [r3]
 1229 0050 D31A     		sub	r3, r2, r3
 1230 0052 BB61     		str	r3, [r7, #24]
 338:.\lib_Network/network.c ****     if((tmpMsSlave = (msTime[T3] - msTime[T2])) < 0)
 1231              		.loc 1 338 0
 1232 0054 BB68     		ldr	r3, [r7, #8]
 1233 0056 0433     		add	r3, r3, #4
 1234 0058 1B88     		ldrh	r3, [r3]
 1235 005a 1A1C     		mov	r2, r3
 1236 005c BB68     		ldr	r3, [r7, #8]
 1237 005e 0233     		add	r3, r3, #2
 1238 0060 1B88     		ldrh	r3, [r3]
 1239 0062 D31A     		sub	r3, r2, r3
 1240 0064 FB61     		str	r3, [r7, #28]
ARM GAS  C:\DOCUME~1\Admin\LOCALS~1\Temp\cccdPaPP.s 			page 29


 1241 0066 FB69     		ldr	r3, [r7, #28]
 1242 0068 002B     		cmp	r3, #0
 1243 006a 08DA     		bge	.L68
 339:.\lib_Network/network.c ****     {
 340:.\lib_Network/network.c ****         tmpMsSlave += 1000;
 1244              		.loc 1 340 0
 1245 006c FB69     		ldr	r3, [r7, #28]
 1246 006e FA22     		mov	r2, #250
 1247 0070 9200     		lsl	r2, r2, #2
 1248 0072 9446     		mov	ip, r2
 1249 0074 6344     		add	r3, r3, ip
 1250 0076 FB61     		str	r3, [r7, #28]
 341:.\lib_Network/network.c ****         tmpTimeSlave--;
 1251              		.loc 1 341 0
 1252 0078 BB69     		ldr	r3, [r7, #24]
 1253 007a 013B     		sub	r3, r3, #1
 1254 007c BB61     		str	r3, [r7, #24]
 1255              	.L68:
 342:.\lib_Network/network.c ****     }
 343:.\lib_Network/network.c ****     
 344:.\lib_Network/network.c ****     tmpDiffTime = tmpTimeMaster - tmpTimeSlave;
 1256              		.loc 1 344 0
 1257 007e 3A6A     		ldr	r2, [r7, #32]
 1258 0080 BB69     		ldr	r3, [r7, #24]
 1259 0082 D31A     		sub	r3, r2, r3
 1260 0084 3B61     		str	r3, [r7, #16]
 345:.\lib_Network/network.c ****     tmpDiffMs = tmpMsMaster - tmpMsSlave;
 1261              		.loc 1 345 0
 1262 0086 7A6A     		ldr	r2, [r7, #36]
 1263 0088 FB69     		ldr	r3, [r7, #28]
 1264 008a D31A     		sub	r3, r2, r3
 1265 008c 7B61     		str	r3, [r7, #20]
 346:.\lib_Network/network.c ****     
 347:.\lib_Network/network.c ****     tmpDiffMs /= 2;
 1266              		.loc 1 347 0
 1267 008e 7B69     		ldr	r3, [r7, #20]
 1268 0090 002B     		cmp	r3, #0
 1269 0092 00DA     		bge	.L69
 1270 0094 0133     		add	r3, r3, #1
 1271              	.L69:
 1272 0096 5B10     		asr	r3, r3, #1
 1273 0098 7B61     		str	r3, [r7, #20]
 348:.\lib_Network/network.c ****     if(tmpDiffTime%2 == 1)
 1274              		.loc 1 348 0
 1275 009a 3B69     		ldr	r3, [r7, #16]
 1276 009c 0E4A     		ldr	r2, .L73
 1277 009e 1340     		and	r3, r2
 1278 00a0 04D5     		bpl	.L70
 1279 00a2 013B     		sub	r3, r3, #1
 1280 00a4 0222     		mov	r2, #2
 1281 00a6 5242     		neg	r2, r2
 1282 00a8 1343     		orr	r3, r2
 1283 00aa 0133     		add	r3, r3, #1
 1284              	.L70:
 1285 00ac 012B     		cmp	r3, #1
 1286 00ae 03D1     		bne	.L71
 349:.\lib_Network/network.c ****     {
ARM GAS  C:\DOCUME~1\Admin\LOCALS~1\Temp\cccdPaPP.s 			page 30


 350:.\lib_Network/network.c ****         tmpDiffMs += 500;
 1287              		.loc 1 350 0
 1288 00b0 7B69     		ldr	r3, [r7, #20]
 1289 00b2 F533     		add	r3, r3, #245
 1290 00b4 FF33     		add	r3, r3, #255
 1291 00b6 7B61     		str	r3, [r7, #20]
 1292              	.L71:
 351:.\lib_Network/network.c ****     }
 352:.\lib_Network/network.c ****     tmpDiffTime /= 2;
 1293              		.loc 1 352 0
 1294 00b8 3B69     		ldr	r3, [r7, #16]
 1295 00ba 002B     		cmp	r3, #0
 1296 00bc 00DA     		bge	.L72
 1297 00be 0133     		add	r3, r3, #1
 1298              	.L72:
 1299 00c0 5B10     		asr	r3, r3, #1
 1300 00c2 3B61     		str	r3, [r7, #16]
 353:.\lib_Network/network.c ****     
 354:.\lib_Network/network.c ****     *sumTime = tmpDiffTime;
 1301              		.loc 1 354 0
 1302 00c4 7B68     		ldr	r3, [r7, #4]
 1303 00c6 3A69     		ldr	r2, [r7, #16]
 1304 00c8 1A60     		str	r2, [r3]
 355:.\lib_Network/network.c ****     *sumMs = tmpDiffMs;   
 1305              		.loc 1 355 0
 1306 00ca 3B68     		ldr	r3, [r7]
 1307 00cc 7A69     		ldr	r2, [r7, #20]
 1308 00ce 1A60     		str	r2, [r3]
 356:.\lib_Network/network.c **** }
 1309              		.loc 1 356 0
 1310 00d0 BD46     		mov	sp, r7
 1311 00d2 0AB0     		add	sp, sp, #40
 1312              		@ sp needed
 1313 00d4 80BD     		pop	{r7, pc}
 1314              	.L74:
 1315 00d6 C046     		.align	2
 1316              	.L73:
 1317 00d8 01000080 		.word	-2147483647
 1318              		.cfi_endproc
 1319              	.LFE74:
 1320              		.size	NTPcalculateTime, .-NTPcalculateTime
 1321              		.text
 1322              	.Letext0:
 1323              		.file 2 "c:\\program files\\cypress\\psoc creator\\3.3\\psoc creator\\import\\gnu\\arm\\4.9.3\\arm
 1324              		.file 3 "c:\\program files\\cypress\\psoc creator\\3.3\\psoc creator\\import\\gnu\\arm\\4.9.3\\arm
 1325              		.file 4 "./lib_Network\\svt.h"
 1326              		.file 5 "./lib_DB\\database.h"
 1327              		.file 6 "./lib_Fat\\integer.h"
 1328              		.file 7 "./lib_Fat\\ff.h"
 1329              		.file 8 "./lib_Network\\ntp.h"
 1330              		.file 9 "./lib_Network\\network.h"
 1331              		.file 10 "./debug.h"
 1332              		.file 11 "./lib_Display\\display.h"
 1333              		.file 12 "./lib_DB\\logResult.h"
 1334              		.section	.debug_info,"",%progbits
 1335              	.Ldebug_info0:
 1336 0000 920B0000 		.4byte	0xb92
ARM GAS  C:\DOCUME~1\Admin\LOCALS~1\Temp\cccdPaPP.s 			page 31


 1337 0004 0400     		.2byte	0x4
 1338 0006 00000000 		.4byte	.Ldebug_abbrev0
 1339 000a 04       		.byte	0x4
 1340 000b 01       		.uleb128 0x1
 1341 000c 2A030000 		.4byte	.LASF157
 1342 0010 01       		.byte	0x1
 1343 0011 E4060000 		.4byte	.LASF158
 1344 0015 AA050000 		.4byte	.LASF159
 1345 0019 00000000 		.4byte	.Ldebug_ranges0+0
 1346 001d 00000000 		.4byte	0
 1347 0021 00000000 		.4byte	.Ldebug_line0
 1348 0025 02       		.uleb128 0x2
 1349 0026 01       		.byte	0x1
 1350 0027 06       		.byte	0x6
 1351 0028 18060000 		.4byte	.LASF0
 1352 002c 03       		.uleb128 0x3
 1353 002d C1040000 		.4byte	.LASF3
 1354 0031 02       		.byte	0x2
 1355 0032 1D       		.byte	0x1d
 1356 0033 37000000 		.4byte	0x37
 1357 0037 02       		.uleb128 0x2
 1358 0038 01       		.byte	0x1
 1359 0039 08       		.byte	0x8
 1360 003a 49050000 		.4byte	.LASF1
 1361 003e 02       		.uleb128 0x2
 1362 003f 02       		.byte	0x2
 1363 0040 05       		.byte	0x5
 1364 0041 67040000 		.4byte	.LASF2
 1365 0045 03       		.uleb128 0x3
 1366 0046 CF010000 		.4byte	.LASF4
 1367 004a 02       		.byte	0x2
 1368 004b 2B       		.byte	0x2b
 1369 004c 50000000 		.4byte	0x50
 1370 0050 02       		.uleb128 0x2
 1371 0051 02       		.byte	0x2
 1372 0052 07       		.byte	0x7
 1373 0053 24060000 		.4byte	.LASF5
 1374 0057 03       		.uleb128 0x3
 1375 0058 67000000 		.4byte	.LASF6
 1376 005c 02       		.byte	0x2
 1377 005d 3F       		.byte	0x3f
 1378 005e 62000000 		.4byte	0x62
 1379 0062 02       		.uleb128 0x2
 1380 0063 04       		.byte	0x4
 1381 0064 05       		.byte	0x5
 1382 0065 76040000 		.4byte	.LASF7
 1383 0069 03       		.uleb128 0x3
 1384 006a 57050000 		.4byte	.LASF8
 1385 006e 02       		.byte	0x2
 1386 006f 41       		.byte	0x41
 1387 0070 74000000 		.4byte	0x74
 1388 0074 02       		.uleb128 0x2
 1389 0075 04       		.byte	0x4
 1390 0076 07       		.byte	0x7
 1391 0077 08050000 		.4byte	.LASF9
 1392 007b 02       		.uleb128 0x2
 1393 007c 08       		.byte	0x8
ARM GAS  C:\DOCUME~1\Admin\LOCALS~1\Temp\cccdPaPP.s 			page 32


 1394 007d 05       		.byte	0x5
 1395 007e E0020000 		.4byte	.LASF10
 1396 0082 03       		.uleb128 0x3
 1397 0083 34020000 		.4byte	.LASF11
 1398 0087 02       		.byte	0x2
 1399 0088 5B       		.byte	0x5b
 1400 0089 8D000000 		.4byte	0x8d
 1401 008d 02       		.uleb128 0x2
 1402 008e 08       		.byte	0x8
 1403 008f 07       		.byte	0x7
 1404 0090 96010000 		.4byte	.LASF12
 1405 0094 04       		.uleb128 0x4
 1406 0095 04       		.byte	0x4
 1407 0096 05       		.byte	0x5
 1408 0097 696E7400 		.ascii	"int\000"
 1409 009b 02       		.uleb128 0x2
 1410 009c 04       		.byte	0x4
 1411 009d 07       		.byte	0x7
 1412 009e 4D000000 		.4byte	.LASF13
 1413 00a2 03       		.uleb128 0x3
 1414 00a3 A8020000 		.4byte	.LASF14
 1415 00a7 03       		.byte	0x3
 1416 00a8 15       		.byte	0x15
 1417 00a9 2C000000 		.4byte	0x2c
 1418 00ad 03       		.uleb128 0x3
 1419 00ae 33040000 		.4byte	.LASF15
 1420 00b2 03       		.byte	0x3
 1421 00b3 21       		.byte	0x21
 1422 00b4 45000000 		.4byte	0x45
 1423 00b8 03       		.uleb128 0x3
 1424 00b9 22050000 		.4byte	.LASF16
 1425 00bd 03       		.byte	0x3
 1426 00be 2C       		.byte	0x2c
 1427 00bf 57000000 		.4byte	0x57
 1428 00c3 03       		.uleb128 0x3
 1429 00c4 1F010000 		.4byte	.LASF17
 1430 00c8 03       		.byte	0x3
 1431 00c9 2D       		.byte	0x2d
 1432 00ca 69000000 		.4byte	0x69
 1433 00ce 03       		.uleb128 0x3
 1434 00cf AA040000 		.4byte	.LASF18
 1435 00d3 03       		.byte	0x3
 1436 00d4 39       		.byte	0x39
 1437 00d5 82000000 		.4byte	0x82
 1438 00d9 02       		.uleb128 0x2
 1439 00da 04       		.byte	0x4
 1440 00db 04       		.byte	0x4
 1441 00dc 50010000 		.4byte	.LASF19
 1442 00e0 02       		.uleb128 0x2
 1443 00e1 08       		.byte	0x8
 1444 00e2 04       		.byte	0x4
 1445 00e3 84060000 		.4byte	.LASF20
 1446 00e7 02       		.uleb128 0x2
 1447 00e8 01       		.byte	0x1
 1448 00e9 08       		.byte	0x8
 1449 00ea 70020000 		.4byte	.LASF21
 1450 00ee 02       		.uleb128 0x2
ARM GAS  C:\DOCUME~1\Admin\LOCALS~1\Temp\cccdPaPP.s 			page 33


 1451 00ef 04       		.byte	0x4
 1452 00f0 07       		.byte	0x7
 1453 00f1 FF040000 		.4byte	.LASF22
 1454 00f5 05       		.uleb128 0x5
 1455 00f6 F5030000 		.4byte	.LASF67
 1456 00fa 20       		.byte	0x20
 1457 00fb 04       		.byte	0x4
 1458 00fc 08       		.byte	0x8
 1459 00fd 56010000 		.4byte	0x156
 1460 0101 06       		.uleb128 0x6
 1461 0102 53657100 		.ascii	"Seq\000"
 1462 0106 04       		.byte	0x4
 1463 0107 0A       		.byte	0xa
 1464 0108 AD000000 		.4byte	0xad
 1465 010c 00       		.byte	0
 1466 010d 07       		.uleb128 0x7
 1467 010e B3040000 		.4byte	.LASF23
 1468 0112 04       		.byte	0x4
 1469 0113 0B       		.byte	0xb
 1470 0114 94000000 		.4byte	0x94
 1471 0118 04       		.byte	0x4
 1472 0119 07       		.uleb128 0x7
 1473 011a 3C040000 		.4byte	.LASF24
 1474 011e 04       		.byte	0x4
 1475 011f 0C       		.byte	0xc
 1476 0120 CE000000 		.4byte	0xce
 1477 0124 08       		.byte	0x8
 1478 0125 07       		.uleb128 0x7
 1479 0126 42040000 		.4byte	.LASF25
 1480 012a 04       		.byte	0x4
 1481 012b 0D       		.byte	0xd
 1482 012c AD000000 		.4byte	0xad
 1483 0130 10       		.byte	0x10
 1484 0131 07       		.uleb128 0x7
 1485 0132 48040000 		.4byte	.LASF26
 1486 0136 04       		.byte	0x4
 1487 0137 0E       		.byte	0xe
 1488 0138 AD000000 		.4byte	0xad
 1489 013c 12       		.byte	0x12
 1490 013d 07       		.uleb128 0x7
 1491 013e 62050000 		.4byte	.LASF27
 1492 0142 04       		.byte	0x4
 1493 0143 0F       		.byte	0xf
 1494 0144 C3000000 		.4byte	0xc3
 1495 0148 14       		.byte	0x14
 1496 0149 07       		.uleb128 0x7
 1497 014a 8C020000 		.4byte	.LASF28
 1498 014e 04       		.byte	0x4
 1499 014f 10       		.byte	0x10
 1500 0150 A2000000 		.4byte	0xa2
 1501 0154 18       		.byte	0x18
 1502 0155 00       		.byte	0
 1503 0156 08       		.uleb128 0x8
 1504 0157 30       		.byte	0x30
 1505 0158 05       		.byte	0x5
 1506 0159 1C       		.byte	0x1c
 1507 015a A7010000 		.4byte	0x1a7
ARM GAS  C:\DOCUME~1\Admin\LOCALS~1\Temp\cccdPaPP.s 			page 34


 1508 015e 07       		.uleb128 0x7
 1509 015f E0050000 		.4byte	.LASF29
 1510 0163 05       		.byte	0x5
 1511 0164 1E       		.byte	0x1e
 1512 0165 CE000000 		.4byte	0xce
 1513 0169 00       		.byte	0
 1514 016a 07       		.uleb128 0x7
 1515 016b 79010000 		.4byte	.LASF30
 1516 016f 05       		.byte	0x5
 1517 0170 1F       		.byte	0x1f
 1518 0171 AD000000 		.4byte	0xad
 1519 0175 08       		.byte	0x8
 1520 0176 07       		.uleb128 0x7
 1521 0177 74060000 		.4byte	.LASF31
 1522 017b 05       		.byte	0x5
 1523 017c 20       		.byte	0x20
 1524 017d CE000000 		.4byte	0xce
 1525 0181 10       		.byte	0x10
 1526 0182 07       		.uleb128 0x7
 1527 0183 56020000 		.4byte	.LASF32
 1528 0187 05       		.byte	0x5
 1529 0188 21       		.byte	0x21
 1530 0189 AD000000 		.4byte	0xad
 1531 018d 18       		.byte	0x18
 1532 018e 07       		.uleb128 0x7
 1533 018f D5050000 		.4byte	.LASF33
 1534 0193 05       		.byte	0x5
 1535 0194 22       		.byte	0x22
 1536 0195 CE000000 		.4byte	0xce
 1537 0199 20       		.byte	0x20
 1538 019a 07       		.uleb128 0x7
 1539 019b 4E040000 		.4byte	.LASF34
 1540 019f 05       		.byte	0x5
 1541 01a0 23       		.byte	0x23
 1542 01a1 AD000000 		.4byte	0xad
 1543 01a5 28       		.byte	0x28
 1544 01a6 00       		.byte	0
 1545 01a7 03       		.uleb128 0x3
 1546 01a8 1B020000 		.4byte	.LASF35
 1547 01ac 05       		.byte	0x5
 1548 01ad 24       		.byte	0x24
 1549 01ae 56010000 		.4byte	0x156
 1550 01b2 03       		.uleb128 0x3
 1551 01b3 1A030000 		.4byte	.LASF36
 1552 01b7 06       		.byte	0x6
 1553 01b8 10       		.byte	0x10
 1554 01b9 37000000 		.4byte	0x37
 1555 01bd 03       		.uleb128 0x3
 1556 01be C3030000 		.4byte	.LASF37
 1557 01c2 06       		.byte	0x6
 1558 01c3 14       		.byte	0x14
 1559 01c4 50000000 		.4byte	0x50
 1560 01c8 03       		.uleb128 0x3
 1561 01c9 89010000 		.4byte	.LASF38
 1562 01cd 06       		.byte	0x6
 1563 01ce 1D       		.byte	0x1d
 1564 01cf 74000000 		.4byte	0x74
ARM GAS  C:\DOCUME~1\Admin\LOCALS~1\Temp\cccdPaPP.s 			page 35


 1565 01d3 03       		.uleb128 0x3
 1566 01d4 09000000 		.4byte	.LASF39
 1567 01d8 07       		.byte	0x7
 1568 01d9 55       		.byte	0x55
 1569 01da C8010000 		.4byte	0x1c8
 1570 01de 09       		.uleb128 0x9
 1571 01df 3002     		.2byte	0x230
 1572 01e1 07       		.byte	0x7
 1573 01e2 5C       		.byte	0x5c
 1574 01e3 BF020000 		.4byte	0x2bf
 1575 01e7 07       		.uleb128 0x7
 1576 01e8 DA010000 		.4byte	.LASF40
 1577 01ec 07       		.byte	0x7
 1578 01ed 5D       		.byte	0x5d
 1579 01ee B2010000 		.4byte	0x1b2
 1580 01f2 00       		.byte	0
 1581 01f3 06       		.uleb128 0x6
 1582 01f4 64727600 		.ascii	"drv\000"
 1583 01f8 07       		.byte	0x7
 1584 01f9 5E       		.byte	0x5e
 1585 01fa B2010000 		.4byte	0x1b2
 1586 01fe 01       		.byte	0x1
 1587 01ff 07       		.uleb128 0x7
 1588 0200 5A000000 		.4byte	.LASF41
 1589 0204 07       		.byte	0x7
 1590 0205 5F       		.byte	0x5f
 1591 0206 B2010000 		.4byte	0x1b2
 1592 020a 02       		.byte	0x2
 1593 020b 07       		.uleb128 0x7
 1594 020c 06030000 		.4byte	.LASF42
 1595 0210 07       		.byte	0x7
 1596 0211 60       		.byte	0x60
 1597 0212 B2010000 		.4byte	0x1b2
 1598 0216 03       		.byte	0x3
 1599 0217 07       		.uleb128 0x7
 1600 0218 32010000 		.4byte	.LASF43
 1601 021c 07       		.byte	0x7
 1602 021d 61       		.byte	0x61
 1603 021e B2010000 		.4byte	0x1b2
 1604 0222 04       		.byte	0x4
 1605 0223 06       		.uleb128 0x6
 1606 0224 696400   		.ascii	"id\000"
 1607 0227 07       		.byte	0x7
 1608 0228 62       		.byte	0x62
 1609 0229 BD010000 		.4byte	0x1bd
 1610 022d 06       		.byte	0x6
 1611 022e 07       		.uleb128 0x7
 1612 022f CB040000 		.4byte	.LASF44
 1613 0233 07       		.byte	0x7
 1614 0234 63       		.byte	0x63
 1615 0235 BD010000 		.4byte	0x1bd
 1616 0239 08       		.byte	0x8
 1617 023a 07       		.uleb128 0x7
 1618 023b C8030000 		.4byte	.LASF45
 1619 023f 07       		.byte	0x7
 1620 0240 64       		.byte	0x64
 1621 0241 BD010000 		.4byte	0x1bd
ARM GAS  C:\DOCUME~1\Admin\LOCALS~1\Temp\cccdPaPP.s 			page 36


 1622 0245 0A       		.byte	0xa
 1623 0246 07       		.uleb128 0x7
 1624 0247 43000000 		.4byte	.LASF46
 1625 024b 07       		.byte	0x7
 1626 024c 72       		.byte	0x72
 1627 024d C8010000 		.4byte	0x1c8
 1628 0251 0C       		.byte	0xc
 1629 0252 07       		.uleb128 0x7
 1630 0253 5D040000 		.4byte	.LASF47
 1631 0257 07       		.byte	0x7
 1632 0258 73       		.byte	0x73
 1633 0259 C8010000 		.4byte	0x1c8
 1634 025d 10       		.byte	0x10
 1635 025e 07       		.uleb128 0x7
 1636 025f E4030000 		.4byte	.LASF48
 1637 0263 07       		.byte	0x7
 1638 0264 7D       		.byte	0x7d
 1639 0265 C8010000 		.4byte	0x1c8
 1640 0269 14       		.byte	0x14
 1641 026a 07       		.uleb128 0x7
 1642 026b F8020000 		.4byte	.LASF49
 1643 026f 07       		.byte	0x7
 1644 0270 7E       		.byte	0x7e
 1645 0271 C8010000 		.4byte	0x1c8
 1646 0275 18       		.byte	0x18
 1647 0276 07       		.uleb128 0x7
 1648 0277 FE020000 		.4byte	.LASF50
 1649 027b 07       		.byte	0x7
 1650 027c 7F       		.byte	0x7f
 1651 027d C8010000 		.4byte	0x1c8
 1652 0281 1C       		.byte	0x1c
 1653 0282 07       		.uleb128 0x7
 1654 0283 E2010000 		.4byte	.LASF51
 1655 0287 07       		.byte	0x7
 1656 0288 80       		.byte	0x80
 1657 0289 C8010000 		.4byte	0x1c8
 1658 028d 20       		.byte	0x20
 1659 028e 07       		.uleb128 0x7
 1660 028f ED030000 		.4byte	.LASF52
 1661 0293 07       		.byte	0x7
 1662 0294 81       		.byte	0x81
 1663 0295 C8010000 		.4byte	0x1c8
 1664 0299 24       		.byte	0x24
 1665 029a 07       		.uleb128 0x7
 1666 029b 37060000 		.4byte	.LASF53
 1667 029f 07       		.byte	0x7
 1668 02a0 82       		.byte	0x82
 1669 02a1 C8010000 		.4byte	0x1c8
 1670 02a5 28       		.byte	0x28
 1671 02a6 07       		.uleb128 0x7
 1672 02a7 8A000000 		.4byte	.LASF54
 1673 02ab 07       		.byte	0x7
 1674 02ac 83       		.byte	0x83
 1675 02ad C8010000 		.4byte	0x1c8
 1676 02b1 2C       		.byte	0x2c
 1677 02b2 06       		.uleb128 0x6
 1678 02b3 77696E00 		.ascii	"win\000"
ARM GAS  C:\DOCUME~1\Admin\LOCALS~1\Temp\cccdPaPP.s 			page 37


 1679 02b7 07       		.byte	0x7
 1680 02b8 84       		.byte	0x84
 1681 02b9 BF020000 		.4byte	0x2bf
 1682 02bd 30       		.byte	0x30
 1683 02be 00       		.byte	0
 1684 02bf 0A       		.uleb128 0xa
 1685 02c0 B2010000 		.4byte	0x1b2
 1686 02c4 D0020000 		.4byte	0x2d0
 1687 02c8 0B       		.uleb128 0xb
 1688 02c9 EE000000 		.4byte	0xee
 1689 02cd FF01     		.2byte	0x1ff
 1690 02cf 00       		.byte	0
 1691 02d0 03       		.uleb128 0x3
 1692 02d1 1E000000 		.4byte	.LASF55
 1693 02d5 07       		.byte	0x7
 1694 02d6 85       		.byte	0x85
 1695 02d7 DE010000 		.4byte	0x1de
 1696 02db 08       		.uleb128 0x8
 1697 02dc 10       		.byte	0x10
 1698 02dd 07       		.byte	0x7
 1699 02de 8B       		.byte	0x8b
 1700 02df 2A030000 		.4byte	0x32a
 1701 02e3 06       		.uleb128 0x6
 1702 02e4 667300   		.ascii	"fs\000"
 1703 02e7 07       		.byte	0x7
 1704 02e8 8C       		.byte	0x8c
 1705 02e9 2A030000 		.4byte	0x32a
 1706 02ed 00       		.byte	0
 1707 02ee 06       		.uleb128 0x6
 1708 02ef 696400   		.ascii	"id\000"
 1709 02f2 07       		.byte	0x7
 1710 02f3 8D       		.byte	0x8d
 1711 02f4 BD010000 		.4byte	0x1bd
 1712 02f8 04       		.byte	0x4
 1713 02f9 07       		.uleb128 0x7
 1714 02fa CA010000 		.4byte	.LASF56
 1715 02fe 07       		.byte	0x7
 1716 02ff 8E       		.byte	0x8e
 1717 0300 B2010000 		.4byte	0x1b2
 1718 0304 06       		.byte	0x6
 1719 0305 07       		.uleb128 0x7
 1720 0306 EA010000 		.4byte	.LASF57
 1721 030a 07       		.byte	0x7
 1722 030b 8F       		.byte	0x8f
 1723 030c B2010000 		.4byte	0x1b2
 1724 0310 07       		.byte	0x7
 1725 0311 07       		.uleb128 0x7
 1726 0312 FC060000 		.4byte	.LASF58
 1727 0316 07       		.byte	0x7
 1728 0317 90       		.byte	0x90
 1729 0318 C8010000 		.4byte	0x1c8
 1730 031c 08       		.byte	0x8
 1731 031d 07       		.uleb128 0x7
 1732 031e 3B050000 		.4byte	.LASF59
 1733 0322 07       		.byte	0x7
 1734 0323 91       		.byte	0x91
 1735 0324 D3010000 		.4byte	0x1d3
ARM GAS  C:\DOCUME~1\Admin\LOCALS~1\Temp\cccdPaPP.s 			page 38


 1736 0328 0C       		.byte	0xc
 1737 0329 00       		.byte	0
 1738 032a 0C       		.uleb128 0xc
 1739 032b 04       		.byte	0x4
 1740 032c D0020000 		.4byte	0x2d0
 1741 0330 03       		.uleb128 0x3
 1742 0331 2C000000 		.4byte	.LASF60
 1743 0335 07       		.byte	0x7
 1744 0336 9B       		.byte	0x9b
 1745 0337 DB020000 		.4byte	0x2db
 1746 033b 09       		.uleb128 0x9
 1747 033c 2802     		.2byte	0x228
 1748 033e 07       		.byte	0x7
 1749 033f A1       		.byte	0xa1
 1750 0340 B1030000 		.4byte	0x3b1
 1751 0344 06       		.uleb128 0x6
 1752 0345 6F626A00 		.ascii	"obj\000"
 1753 0349 07       		.byte	0x7
 1754 034a A2       		.byte	0xa2
 1755 034b 30030000 		.4byte	0x330
 1756 034f 00       		.byte	0
 1757 0350 07       		.uleb128 0x7
 1758 0351 A5040000 		.4byte	.LASF61
 1759 0355 07       		.byte	0x7
 1760 0356 A3       		.byte	0xa3
 1761 0357 B2010000 		.4byte	0x1b2
 1762 035b 10       		.byte	0x10
 1763 035c 06       		.uleb128 0x6
 1764 035d 65727200 		.ascii	"err\000"
 1765 0361 07       		.byte	0x7
 1766 0362 A4       		.byte	0xa4
 1767 0363 B2010000 		.4byte	0x1b2
 1768 0367 11       		.byte	0x11
 1769 0368 07       		.uleb128 0x7
 1770 0369 D3030000 		.4byte	.LASF62
 1771 036d 07       		.byte	0x7
 1772 036e A5       		.byte	0xa5
 1773 036f D3010000 		.4byte	0x1d3
 1774 0373 14       		.byte	0x14
 1775 0374 07       		.uleb128 0x7
 1776 0375 43050000 		.4byte	.LASF63
 1777 0379 07       		.byte	0x7
 1778 037a A6       		.byte	0xa6
 1779 037b C8010000 		.4byte	0x1c8
 1780 037f 18       		.byte	0x18
 1781 0380 07       		.uleb128 0x7
 1782 0381 DB020000 		.4byte	.LASF64
 1783 0385 07       		.byte	0x7
 1784 0386 A7       		.byte	0xa7
 1785 0387 C8010000 		.4byte	0x1c8
 1786 038b 1C       		.byte	0x1c
 1787 038c 07       		.uleb128 0x7
 1788 038d 47010000 		.4byte	.LASF65
 1789 0391 07       		.byte	0x7
 1790 0392 A9       		.byte	0xa9
 1791 0393 C8010000 		.4byte	0x1c8
 1792 0397 20       		.byte	0x20
ARM GAS  C:\DOCUME~1\Admin\LOCALS~1\Temp\cccdPaPP.s 			page 39


 1793 0398 07       		.uleb128 0x7
 1794 0399 16000000 		.4byte	.LASF66
 1795 039d 07       		.byte	0x7
 1796 039e AA       		.byte	0xaa
 1797 039f B1030000 		.4byte	0x3b1
 1798 03a3 24       		.byte	0x24
 1799 03a4 06       		.uleb128 0x6
 1800 03a5 62756600 		.ascii	"buf\000"
 1801 03a9 07       		.byte	0x7
 1802 03aa B0       		.byte	0xb0
 1803 03ab BF020000 		.4byte	0x2bf
 1804 03af 28       		.byte	0x28
 1805 03b0 00       		.byte	0
 1806 03b1 0C       		.uleb128 0xc
 1807 03b2 04       		.byte	0x4
 1808 03b3 B2010000 		.4byte	0x1b2
 1809 03b7 0D       		.uleb128 0xd
 1810 03b8 46494C00 		.ascii	"FIL\000"
 1811 03bc 07       		.byte	0x7
 1812 03bd B2       		.byte	0xb2
 1813 03be 3B030000 		.4byte	0x33b
 1814 03c2 05       		.uleb128 0x5
 1815 03c3 BE010000 		.4byte	.LASF68
 1816 03c7 10       		.byte	0x10
 1817 03c8 05       		.byte	0x5
 1818 03c9 28       		.byte	0x28
 1819 03ca F3030000 		.4byte	0x3f3
 1820 03ce 07       		.uleb128 0x7
 1821 03cf E0050000 		.4byte	.LASF29
 1822 03d3 05       		.byte	0x5
 1823 03d4 2A       		.byte	0x2a
 1824 03d5 CE000000 		.4byte	0xce
 1825 03d9 00       		.byte	0
 1826 03da 07       		.uleb128 0x7
 1827 03db 79010000 		.4byte	.LASF30
 1828 03df 05       		.byte	0x5
 1829 03e0 2B       		.byte	0x2b
 1830 03e1 AD000000 		.4byte	0xad
 1831 03e5 08       		.byte	0x8
 1832 03e6 07       		.uleb128 0x7
 1833 03e7 24000000 		.4byte	.LASF69
 1834 03eb 05       		.byte	0x5
 1835 03ec 2C       		.byte	0x2c
 1836 03ed F3030000 		.4byte	0x3f3
 1837 03f1 0C       		.byte	0xc
 1838 03f2 00       		.byte	0
 1839 03f3 0C       		.uleb128 0xc
 1840 03f4 04       		.byte	0x4
 1841 03f5 C2030000 		.4byte	0x3c2
 1842 03f9 09       		.uleb128 0x9
 1843 03fa 7802     		.2byte	0x278
 1844 03fc 05       		.byte	0x5
 1845 03fd 46       		.byte	0x46
 1846 03fe 4C040000 		.4byte	0x44c
 1847 0402 07       		.uleb128 0x7
 1848 0403 CE030000 		.4byte	.LASF70
 1849 0407 05       		.byte	0x5
ARM GAS  C:\DOCUME~1\Admin\LOCALS~1\Temp\cccdPaPP.s 			page 40


 1850 0408 48       		.byte	0x48
 1851 0409 AD000000 		.4byte	0xad
 1852 040d 00       		.byte	0
 1853 040e 07       		.uleb128 0x7
 1854 040f 8D050000 		.4byte	.LASF71
 1855 0413 05       		.byte	0x5
 1856 0414 49       		.byte	0x49
 1857 0415 AD000000 		.4byte	0xad
 1858 0419 02       		.byte	0x2
 1859 041a 07       		.uleb128 0x7
 1860 041b 3B010000 		.4byte	.LASF72
 1861 041f 05       		.byte	0x5
 1862 0420 4A       		.byte	0x4a
 1863 0421 AD000000 		.4byte	0xad
 1864 0425 04       		.byte	0x4
 1865 0426 07       		.uleb128 0x7
 1866 0427 39000000 		.4byte	.LASF73
 1867 042b 05       		.byte	0x5
 1868 042c 4C       		.byte	0x4c
 1869 042d AD000000 		.4byte	0xad
 1870 0431 06       		.byte	0x6
 1871 0432 07       		.uleb128 0x7
 1872 0433 32000000 		.4byte	.LASF74
 1873 0437 05       		.byte	0x5
 1874 0438 4E       		.byte	0x4e
 1875 0439 4C040000 		.4byte	0x44c
 1876 043d 08       		.byte	0x8
 1877 043e 0E       		.uleb128 0xe
 1878 043f 11000000 		.4byte	.LASF75
 1879 0443 05       		.byte	0x5
 1880 0444 50       		.byte	0x50
 1881 0445 A7010000 		.4byte	0x1a7
 1882 0449 4802     		.2byte	0x248
 1883 044b 00       		.byte	0
 1884 044c 0A       		.uleb128 0xa
 1885 044d A7010000 		.4byte	0x1a7
 1886 0451 5C040000 		.4byte	0x45c
 1887 0455 0F       		.uleb128 0xf
 1888 0456 EE000000 		.4byte	0xee
 1889 045a 0B       		.byte	0xb
 1890 045b 00       		.byte	0
 1891 045c 03       		.uleb128 0x3
 1892 045d FA030000 		.4byte	.LASF76
 1893 0461 05       		.byte	0x5
 1894 0462 51       		.byte	0x51
 1895 0463 F9030000 		.4byte	0x3f9
 1896 0467 08       		.uleb128 0x8
 1897 0468 18       		.byte	0x18
 1898 0469 08       		.byte	0x8
 1899 046a 18       		.byte	0x18
 1900 046b C3040000 		.4byte	0x4c3
 1901 046f 06       		.uleb128 0x6
 1902 0470 496400   		.ascii	"Id\000"
 1903 0473 08       		.byte	0x8
 1904 0474 1A       		.byte	0x1a
 1905 0475 AD000000 		.4byte	0xad
 1906 0479 00       		.byte	0
ARM GAS  C:\DOCUME~1\Admin\LOCALS~1\Temp\cccdPaPP.s 			page 41


 1907 047a 07       		.uleb128 0x7
 1908 047b 3C040000 		.4byte	.LASF24
 1909 047f 08       		.byte	0x8
 1910 0480 1B       		.byte	0x1b
 1911 0481 C3000000 		.4byte	0xc3
 1912 0485 04       		.byte	0x4
 1913 0486 07       		.uleb128 0x7
 1914 0487 D5040000 		.4byte	.LASF77
 1915 048b 08       		.byte	0x8
 1916 048c 1C       		.byte	0x1c
 1917 048d AD000000 		.4byte	0xad
 1918 0491 08       		.byte	0x8
 1919 0492 07       		.uleb128 0x7
 1920 0493 DD040000 		.4byte	.LASF78
 1921 0497 08       		.byte	0x8
 1922 0498 1D       		.byte	0x1d
 1923 0499 AD000000 		.4byte	0xad
 1924 049d 0A       		.byte	0xa
 1925 049e 07       		.uleb128 0x7
 1926 049f 42040000 		.4byte	.LASF25
 1927 04a3 08       		.byte	0x8
 1928 04a4 1E       		.byte	0x1e
 1929 04a5 C3000000 		.4byte	0xc3
 1930 04a9 0C       		.byte	0xc
 1931 04aa 07       		.uleb128 0x7
 1932 04ab 62050000 		.4byte	.LASF27
 1933 04af 08       		.byte	0x8
 1934 04b0 1F       		.byte	0x1f
 1935 04b1 C3000000 		.4byte	0xc3
 1936 04b5 10       		.byte	0x10
 1937 04b6 07       		.uleb128 0x7
 1938 04b7 8C020000 		.4byte	.LASF28
 1939 04bb 08       		.byte	0x8
 1940 04bc 20       		.byte	0x20
 1941 04bd A2000000 		.4byte	0xa2
 1942 04c1 14       		.byte	0x14
 1943 04c2 00       		.byte	0
 1944 04c3 03       		.uleb128 0x3
 1945 04c4 56010000 		.4byte	.LASF79
 1946 04c8 08       		.byte	0x8
 1947 04c9 21       		.byte	0x21
 1948 04ca 67040000 		.4byte	0x467
 1949 04ce 08       		.uleb128 0x8
 1950 04cf 18       		.byte	0x18
 1951 04d0 09       		.byte	0x9
 1952 04d1 35       		.byte	0x35
 1953 04d2 2B050000 		.4byte	0x52b
 1954 04d6 07       		.uleb128 0x7
 1955 04d7 B2000000 		.4byte	.LASF80
 1956 04db 09       		.byte	0x9
 1957 04dc 38       		.byte	0x38
 1958 04dd A2000000 		.4byte	0xa2
 1959 04e1 00       		.byte	0
 1960 04e2 07       		.uleb128 0x7
 1961 04e3 BB040000 		.4byte	.LASF81
 1962 04e7 09       		.byte	0x9
 1963 04e8 39       		.byte	0x39
ARM GAS  C:\DOCUME~1\Admin\LOCALS~1\Temp\cccdPaPP.s 			page 42


 1964 04e9 A2000000 		.4byte	0xa2
 1965 04ed 01       		.byte	0x1
 1966 04ee 07       		.uleb128 0x7
 1967 04ef AD010000 		.4byte	.LASF82
 1968 04f3 09       		.byte	0x9
 1969 04f4 3A       		.byte	0x3a
 1970 04f5 A2000000 		.4byte	0xa2
 1971 04f9 02       		.byte	0x2
 1972 04fa 07       		.uleb128 0x7
 1973 04fb 03020000 		.4byte	.LASF83
 1974 04ff 09       		.byte	0x9
 1975 0500 3B       		.byte	0x3b
 1976 0501 A2000000 		.4byte	0xa2
 1977 0505 03       		.byte	0x3
 1978 0506 07       		.uleb128 0x7
 1979 0507 0C030000 		.4byte	.LASF84
 1980 050b 09       		.byte	0x9
 1981 050c 3D       		.byte	0x3d
 1982 050d CE000000 		.4byte	0xce
 1983 0511 08       		.byte	0x8
 1984 0512 07       		.uleb128 0x7
 1985 0513 28010000 		.4byte	.LASF85
 1986 0517 09       		.byte	0x9
 1987 0518 3E       		.byte	0x3e
 1988 0519 AD000000 		.4byte	0xad
 1989 051d 10       		.byte	0x10
 1990 051e 07       		.uleb128 0x7
 1991 051f 75020000 		.4byte	.LASF86
 1992 0523 09       		.byte	0x9
 1993 0524 3F       		.byte	0x3f
 1994 0525 A2000000 		.4byte	0xa2
 1995 0529 12       		.byte	0x12
 1996 052a 00       		.byte	0
 1997 052b 03       		.uleb128 0x3
 1998 052c 1F030000 		.4byte	.LASF87
 1999 0530 09       		.byte	0x9
 2000 0531 40       		.byte	0x40
 2001 0532 CE040000 		.4byte	0x4ce
 2002 0536 08       		.uleb128 0x8
 2003 0537 18       		.byte	0x18
 2004 0538 09       		.byte	0x9
 2005 0539 42       		.byte	0x42
 2006 053a 87050000 		.4byte	0x587
 2007 053e 07       		.uleb128 0x7
 2008 053f B2000000 		.4byte	.LASF80
 2009 0543 09       		.byte	0x9
 2010 0544 45       		.byte	0x45
 2011 0545 A2000000 		.4byte	0xa2
 2012 0549 00       		.byte	0
 2013 054a 07       		.uleb128 0x7
 2014 054b C2060000 		.4byte	.LASF88
 2015 054f 09       		.byte	0x9
 2016 0550 46       		.byte	0x46
 2017 0551 CE000000 		.4byte	0xce
 2018 0555 08       		.byte	0x8
 2019 0556 07       		.uleb128 0x7
 2020 0557 FD000000 		.4byte	.LASF89
ARM GAS  C:\DOCUME~1\Admin\LOCALS~1\Temp\cccdPaPP.s 			page 43


 2021 055b 09       		.byte	0x9
 2022 055c 47       		.byte	0x47
 2023 055d AD000000 		.4byte	0xad
 2024 0561 10       		.byte	0x10
 2025 0562 07       		.uleb128 0x7
 2026 0563 D0060000 		.4byte	.LASF90
 2027 0567 09       		.byte	0x9
 2028 0568 48       		.byte	0x48
 2029 0569 A2000000 		.4byte	0xa2
 2030 056d 12       		.byte	0x12
 2031 056e 07       		.uleb128 0x7
 2032 056f AD010000 		.4byte	.LASF82
 2033 0573 09       		.byte	0x9
 2034 0574 49       		.byte	0x49
 2035 0575 A2000000 		.4byte	0xa2
 2036 0579 13       		.byte	0x13
 2037 057a 07       		.uleb128 0x7
 2038 057b 6B050000 		.4byte	.LASF91
 2039 057f 09       		.byte	0x9
 2040 0580 4B       		.byte	0x4b
 2041 0581 A2000000 		.4byte	0xa2
 2042 0585 14       		.byte	0x14
 2043 0586 00       		.byte	0
 2044 0587 03       		.uleb128 0x3
 2045 0588 76050000 		.4byte	.LASF92
 2046 058c 09       		.byte	0x9
 2047 058d 4C       		.byte	0x4c
 2048 058e 36050000 		.4byte	0x536
 2049 0592 10       		.uleb128 0x10
 2050 0593 B6060000 		.4byte	.LASF160
 2051 0597 01       		.byte	0x1
 2052 0598 06       		.byte	0x6
 2053 0599 00000000 		.4byte	.LFB63
 2054 059d 24000000 		.4byte	.LFE63-.LFB63
 2055 05a1 01       		.uleb128 0x1
 2056 05a2 9C       		.byte	0x9c
 2057 05a3 11       		.uleb128 0x11
 2058 05a4 81000000 		.4byte	.LASF98
 2059 05a8 01       		.byte	0x1
 2060 05a9 15       		.byte	0x15
 2061 05aa 00000000 		.4byte	.LFB64
 2062 05ae 9C000000 		.4byte	.LFE64-.LFB64
 2063 05b2 01       		.uleb128 0x1
 2064 05b3 9C       		.byte	0x9c
 2065 05b4 E1050000 		.4byte	0x5e1
 2066 05b8 12       		.uleb128 0x12
 2067 05b9 16000000 		.4byte	.LBB2
 2068 05bd 6E000000 		.4byte	.LBE2-.LBB2
 2069 05c1 13       		.uleb128 0x13
 2070 05c2 81020000 		.4byte	.LASF93
 2071 05c6 01       		.byte	0x1
 2072 05c7 19       		.byte	0x19
 2073 05c8 E1050000 		.4byte	0x5e1
 2074 05cc 03       		.uleb128 0x3
 2075 05cd 91       		.byte	0x91
 2076 05ce 887F     		.sleb128 -120
 2077 05d0 13       		.uleb128 0x13
ARM GAS  C:\DOCUME~1\Admin\LOCALS~1\Temp\cccdPaPP.s 			page 44


 2078 05d1 00000000 		.4byte	.LASF94
 2079 05d5 01       		.byte	0x1
 2080 05d6 1A       		.byte	0x1a
 2081 05d7 E1050000 		.4byte	0x5e1
 2082 05db 03       		.uleb128 0x3
 2083 05dc 91       		.byte	0x91
 2084 05dd BC7F     		.sleb128 -68
 2085 05df 00       		.byte	0
 2086 05e0 00       		.byte	0
 2087 05e1 0A       		.uleb128 0xa
 2088 05e2 E7000000 		.4byte	0xe7
 2089 05e6 F1050000 		.4byte	0x5f1
 2090 05ea 0F       		.uleb128 0xf
 2091 05eb EE000000 		.4byte	0xee
 2092 05ef 31       		.byte	0x31
 2093 05f0 00       		.byte	0
 2094 05f1 14       		.uleb128 0x14
 2095 05f2 2F050000 		.4byte	.LASF100
 2096 05f6 01       		.byte	0x1
 2097 05f7 35       		.byte	0x35
 2098 05f8 C3000000 		.4byte	0xc3
 2099 05fc 00000000 		.4byte	.LFB65
 2100 0600 70010000 		.4byte	.LFE65-.LFB65
 2101 0604 01       		.uleb128 0x1
 2102 0605 9C       		.byte	0x9c
 2103 0606 48060000 		.4byte	0x648
 2104 060a 12       		.uleb128 0x12
 2105 060b 1A000000 		.4byte	.LBB3
 2106 060f 3C010000 		.4byte	.LBE3-.LBB3
 2107 0613 13       		.uleb128 0x13
 2108 0614 8F010000 		.4byte	.LASF95
 2109 0618 01       		.byte	0x1
 2110 0619 3A       		.byte	0x3a
 2111 061a C3000000 		.4byte	0xc3
 2112 061e 02       		.uleb128 0x2
 2113 061f 91       		.byte	0x91
 2114 0620 6C       		.sleb128 -20
 2115 0621 15       		.uleb128 0x15
 2116 0622 6900     		.ascii	"i\000"
 2117 0624 01       		.byte	0x1
 2118 0625 3B       		.byte	0x3b
 2119 0626 94000000 		.4byte	0x94
 2120 062a 13       		.uleb128 0x13
 2121 062b 2A050000 		.4byte	.LASF96
 2122 062f 01       		.byte	0x1
 2123 0630 3C       		.byte	0x3c
 2124 0631 A2000000 		.4byte	0xa2
 2125 0635 02       		.uleb128 0x2
 2126 0636 91       		.byte	0x91
 2127 0637 6B       		.sleb128 -21
 2128 0638 13       		.uleb128 0x13
 2129 0639 F4010000 		.4byte	.LASF97
 2130 063d 01       		.byte	0x1
 2131 063e 3D       		.byte	0x3d
 2132 063f F5000000 		.4byte	0xf5
 2133 0643 02       		.uleb128 0x2
 2134 0644 91       		.byte	0x91
ARM GAS  C:\DOCUME~1\Admin\LOCALS~1\Temp\cccdPaPP.s 			page 45


 2135 0645 48       		.sleb128 -56
 2136 0646 00       		.byte	0
 2137 0647 00       		.byte	0
 2138 0648 16       		.uleb128 0x16
 2139 0649 1D040000 		.4byte	.LASF99
 2140 064d 01       		.byte	0x1
 2141 064e 88       		.byte	0x88
 2142 064f 00000000 		.4byte	.LFB66
 2143 0653 1C000000 		.4byte	.LFE66-.LFB66
 2144 0657 01       		.uleb128 0x1
 2145 0658 9C       		.byte	0x9c
 2146 0659 6C060000 		.4byte	0x66c
 2147 065d 17       		.uleb128 0x17
 2148 065e BB040000 		.4byte	.LASF81
 2149 0662 01       		.byte	0x1
 2150 0663 88       		.byte	0x88
 2151 0664 C3000000 		.4byte	0xc3
 2152 0668 02       		.uleb128 0x2
 2153 0669 91       		.byte	0x91
 2154 066a 74       		.sleb128 -12
 2155 066b 00       		.byte	0
 2156 066c 18       		.uleb128 0x18
 2157 066d 03070000 		.4byte	.LASF161
 2158 0671 01       		.byte	0x1
 2159 0672 8D       		.byte	0x8d
 2160 0673 C3000000 		.4byte	0xc3
 2161 0677 00000000 		.4byte	.LFB67
 2162 067b 14000000 		.4byte	.LFE67-.LFB67
 2163 067f 01       		.uleb128 0x1
 2164 0680 9C       		.byte	0x9c
 2165 0681 19       		.uleb128 0x19
 2166 0682 04060000 		.4byte	.LASF101
 2167 0686 01       		.byte	0x1
 2168 0687 93       		.byte	0x93
 2169 0688 C3000000 		.4byte	0xc3
 2170 068c 00000000 		.4byte	.LFB68
 2171 0690 44000000 		.4byte	.LFE68-.LFB68
 2172 0694 01       		.uleb128 0x1
 2173 0695 9C       		.byte	0x9c
 2174 0696 A9060000 		.4byte	0x6a9
 2175 069a 13       		.uleb128 0x13
 2176 069b 8F010000 		.4byte	.LASF95
 2177 069f 01       		.byte	0x1
 2178 06a0 95       		.byte	0x95
 2179 06a1 C3000000 		.4byte	0xc3
 2180 06a5 02       		.uleb128 0x2
 2181 06a6 91       		.byte	0x91
 2182 06a7 74       		.sleb128 -12
 2183 06a8 00       		.byte	0
 2184 06a9 16       		.uleb128 0x16
 2185 06aa 69010000 		.4byte	.LASF102
 2186 06ae 01       		.byte	0x1
 2187 06af A4       		.byte	0xa4
 2188 06b0 00000000 		.4byte	.LFB69
 2189 06b4 28000000 		.4byte	.LFE69-.LFB69
 2190 06b8 01       		.uleb128 0x1
 2191 06b9 9C       		.byte	0x9c
ARM GAS  C:\DOCUME~1\Admin\LOCALS~1\Temp\cccdPaPP.s 			page 46


 2192 06ba CD060000 		.4byte	0x6cd
 2193 06be 17       		.uleb128 0x17
 2194 06bf B0020000 		.4byte	.LASF103
 2195 06c3 01       		.byte	0x1
 2196 06c4 A4       		.byte	0xa4
 2197 06c5 C3000000 		.4byte	0xc3
 2198 06c9 02       		.uleb128 0x2
 2199 06ca 91       		.byte	0x91
 2200 06cb 74       		.sleb128 -12
 2201 06cc 00       		.byte	0
 2202 06cd 14       		.uleb128 0x14
 2203 06ce 2B040000 		.4byte	.LASF104
 2204 06d2 01       		.byte	0x1
 2205 06d3 B1       		.byte	0xb1
 2206 06d4 C3000000 		.4byte	0xc3
 2207 06d8 00000000 		.4byte	.LFB70
 2208 06dc EC010000 		.4byte	.LFE70-.LFB70
 2209 06e0 01       		.uleb128 0x1
 2210 06e1 9C       		.byte	0x9c
 2211 06e2 B4070000 		.4byte	0x7b4
 2212 06e6 1A       		.uleb128 0x1a
 2213 06e7 6900     		.ascii	"i\000"
 2214 06e9 01       		.byte	0x1
 2215 06ea B3       		.byte	0xb3
 2216 06eb 94000000 		.4byte	0x94
 2217 06ef 02       		.uleb128 0x2
 2218 06f0 91       		.byte	0x91
 2219 06f1 6C       		.sleb128 -20
 2220 06f2 13       		.uleb128 0x13
 2221 06f3 8F010000 		.4byte	.LASF95
 2222 06f7 01       		.byte	0x1
 2223 06f8 B4       		.byte	0xb4
 2224 06f9 AD000000 		.4byte	0xad
 2225 06fd 02       		.uleb128 0x2
 2226 06fe 91       		.byte	0x91
 2227 06ff 6A       		.sleb128 -22
 2228 0700 13       		.uleb128 0x13
 2229 0701 B2000000 		.4byte	.LASF80
 2230 0705 01       		.byte	0x1
 2231 0706 B5       		.byte	0xb5
 2232 0707 C3000000 		.4byte	0xc3
 2233 070b 02       		.uleb128 0x2
 2234 070c 91       		.byte	0x91
 2235 070d 64       		.sleb128 -28
 2236 070e 13       		.uleb128 0x13
 2237 070f 71000000 		.4byte	.LASF105
 2238 0713 01       		.byte	0x1
 2239 0714 B6       		.byte	0xb6
 2240 0715 C3000000 		.4byte	0xc3
 2241 0719 02       		.uleb128 0x2
 2242 071a 91       		.byte	0x91
 2243 071b 4C       		.sleb128 -52
 2244 071c 13       		.uleb128 0x13
 2245 071d 67020000 		.4byte	.LASF106
 2246 0721 01       		.byte	0x1
 2247 0722 B7       		.byte	0xb7
 2248 0723 B4070000 		.4byte	0x7b4
ARM GAS  C:\DOCUME~1\Admin\LOCALS~1\Temp\cccdPaPP.s 			page 47


 2249 0727 03       		.uleb128 0x3
 2250 0728 91       		.byte	0x91
 2251 0729 BC7F     		.sleb128 -68
 2252 072b 13       		.uleb128 0x13
 2253 072c B8030000 		.4byte	.LASF107
 2254 0730 01       		.byte	0x1
 2255 0731 B8       		.byte	0xb8
 2256 0732 C4070000 		.4byte	0x7c4
 2257 0736 03       		.uleb128 0x3
 2258 0737 91       		.byte	0x91
 2259 0738 B47F     		.sleb128 -76
 2260 073a 13       		.uleb128 0x13
 2261 073b 80050000 		.4byte	.LASF108
 2262 073f 01       		.byte	0x1
 2263 0740 B9       		.byte	0xb9
 2264 0741 C3000000 		.4byte	0xc3
 2265 0745 02       		.uleb128 0x2
 2266 0746 91       		.byte	0x91
 2267 0747 60       		.sleb128 -32
 2268 0748 13       		.uleb128 0x13
 2269 0749 8B060000 		.4byte	.LASF109
 2270 074d 01       		.byte	0x1
 2271 074e BA       		.byte	0xba
 2272 074f C3000000 		.4byte	0xc3
 2273 0753 02       		.uleb128 0x2
 2274 0754 91       		.byte	0x91
 2275 0755 5C       		.sleb128 -36
 2276 0756 13       		.uleb128 0x13
 2277 0757 E1000000 		.4byte	.LASF110
 2278 075b 01       		.byte	0x1
 2279 075c BB       		.byte	0xbb
 2280 075d C3000000 		.4byte	0xc3
 2281 0761 02       		.uleb128 0x2
 2282 0762 91       		.byte	0x91
 2283 0763 54       		.sleb128 -44
 2284 0764 13       		.uleb128 0x13
 2285 0765 09010000 		.4byte	.LASF111
 2286 0769 01       		.byte	0x1
 2287 076a BC       		.byte	0xbc
 2288 076b C3000000 		.4byte	0xc3
 2289 076f 02       		.uleb128 0x2
 2290 0770 91       		.byte	0x91
 2291 0771 58       		.sleb128 -40
 2292 0772 13       		.uleb128 0x13
 2293 0773 1A050000 		.4byte	.LASF112
 2294 0777 01       		.byte	0x1
 2295 0778 BD       		.byte	0xbd
 2296 0779 B8000000 		.4byte	0xb8
 2297 077d 03       		.uleb128 0x3
 2298 077e 91       		.byte	0x91
 2299 077f B07F     		.sleb128 -80
 2300 0781 13       		.uleb128 0x13
 2301 0782 EE020000 		.4byte	.LASF113
 2302 0786 01       		.byte	0x1
 2303 0787 BE       		.byte	0xbe
 2304 0788 B8000000 		.4byte	0xb8
 2305 078c 03       		.uleb128 0x3
ARM GAS  C:\DOCUME~1\Admin\LOCALS~1\Temp\cccdPaPP.s 			page 48


 2306 078d 91       		.byte	0x91
 2307 078e AC7F     		.sleb128 -84
 2308 0790 12       		.uleb128 0x12
 2309 0791 18010000 		.4byte	.LBB4
 2310 0795 BC000000 		.4byte	.LBE4-.LBB4
 2311 0799 1B       		.uleb128 0x1b
 2312 079a 92000000 		.4byte	.LASF114
 2313 079e 01       		.byte	0x1
 2314 079f EE       		.byte	0xee
 2315 07a0 AD000000 		.4byte	0xad
 2316 07a4 13       		.uleb128 0x13
 2317 07a5 B4010000 		.4byte	.LASF115
 2318 07a9 01       		.byte	0x1
 2319 07aa EF       		.byte	0xef
 2320 07ab AD000000 		.4byte	0xad
 2321 07af 02       		.uleb128 0x2
 2322 07b0 91       		.byte	0x91
 2323 07b1 52       		.sleb128 -46
 2324 07b2 00       		.byte	0
 2325 07b3 00       		.byte	0
 2326 07b4 0A       		.uleb128 0xa
 2327 07b5 C3000000 		.4byte	0xc3
 2328 07b9 C4070000 		.4byte	0x7c4
 2329 07bd 0F       		.uleb128 0xf
 2330 07be EE000000 		.4byte	0xee
 2331 07c2 03       		.byte	0x3
 2332 07c3 00       		.byte	0
 2333 07c4 0A       		.uleb128 0xa
 2334 07c5 AD000000 		.4byte	0xad
 2335 07c9 D4070000 		.4byte	0x7d4
 2336 07cd 0F       		.uleb128 0xf
 2337 07ce EE000000 		.4byte	0xee
 2338 07d2 03       		.byte	0x3
 2339 07d3 00       		.byte	0
 2340 07d4 1C       		.uleb128 0x1c
 2341 07d5 0F020000 		.4byte	.LASF124
 2342 07d9 01       		.byte	0x1
 2343 07da 0901     		.2byte	0x109
 2344 07dc 00000000 		.4byte	.LFB71
 2345 07e0 4C000000 		.4byte	.LFE71-.LFB71
 2346 07e4 01       		.uleb128 0x1
 2347 07e5 9C       		.byte	0x9c
 2348 07e6 39080000 		.4byte	0x839
 2349 07ea 1D       		.uleb128 0x1d
 2350 07eb 4C060000 		.4byte	.LASF116
 2351 07ef 01       		.byte	0x1
 2352 07f0 0901     		.2byte	0x109
 2353 07f2 C3000000 		.4byte	0xc3
 2354 07f6 03       		.uleb128 0x3
 2355 07f7 91       		.byte	0x91
 2356 07f8 8C7F     		.sleb128 -116
 2357 07fa 1D       		.uleb128 0x1d
 2358 07fb 9D040000 		.4byte	.LASF117
 2359 07ff 01       		.byte	0x1
 2360 0800 0901     		.2byte	0x109
 2361 0802 AD000000 		.4byte	0xad
 2362 0806 03       		.uleb128 0x3
ARM GAS  C:\DOCUME~1\Admin\LOCALS~1\Temp\cccdPaPP.s 			page 49


 2363 0807 91       		.byte	0x91
 2364 0808 8A7F     		.sleb128 -118
 2365 080a 1E       		.uleb128 0x1e
 2366 080b 494400   		.ascii	"ID\000"
 2367 080e 01       		.byte	0x1
 2368 080f 0901     		.2byte	0x109
 2369 0811 C3000000 		.4byte	0xc3
 2370 0815 03       		.uleb128 0x3
 2371 0816 91       		.byte	0x91
 2372 0817 847F     		.sleb128 -124
 2373 0819 1F       		.uleb128 0x1f
 2374 081a 81020000 		.4byte	.LASF93
 2375 081e 01       		.byte	0x1
 2376 081f 0B01     		.2byte	0x10b
 2377 0821 E1050000 		.4byte	0x5e1
 2378 0825 02       		.uleb128 0x2
 2379 0826 91       		.byte	0x91
 2380 0827 44       		.sleb128 -60
 2381 0828 1F       		.uleb128 0x1f
 2382 0829 00000000 		.4byte	.LASF94
 2383 082d 01       		.byte	0x1
 2384 082e 0C01     		.2byte	0x10c
 2385 0830 E1050000 		.4byte	0x5e1
 2386 0834 03       		.uleb128 0x3
 2387 0835 91       		.byte	0x91
 2388 0836 907F     		.sleb128 -112
 2389 0838 00       		.byte	0
 2390 0839 20       		.uleb128 0x20
 2391 083a 96060000 		.4byte	.LASF162
 2392 083e 01       		.byte	0x1
 2393 083f 1501     		.2byte	0x115
 2394 0841 C3000000 		.4byte	0xc3
 2395 0845 00000000 		.4byte	.LFB72
 2396 0849 9C000000 		.4byte	.LFE72-.LFB72
 2397 084d 01       		.uleb128 0x1
 2398 084e 9C       		.byte	0x9c
 2399 084f CC080000 		.4byte	0x8cc
 2400 0853 1D       		.uleb128 0x1d
 2401 0854 56060000 		.4byte	.LASF118
 2402 0858 01       		.byte	0x1
 2403 0859 1501     		.2byte	0x115
 2404 085b CC080000 		.4byte	0x8cc
 2405 085f 02       		.uleb128 0x2
 2406 0860 91       		.byte	0x91
 2407 0861 54       		.sleb128 -44
 2408 0862 1D       		.uleb128 0x1d
 2409 0863 B7020000 		.4byte	.LASF119
 2410 0867 01       		.byte	0x1
 2411 0868 1501     		.2byte	0x115
 2412 086a D2080000 		.4byte	0x8d2
 2413 086e 02       		.uleb128 0x2
 2414 086f 91       		.byte	0x91
 2415 0870 50       		.sleb128 -48
 2416 0871 1D       		.uleb128 0x1d
 2417 0872 60060000 		.4byte	.LASF120
 2418 0876 01       		.byte	0x1
 2419 0877 1501     		.2byte	0x115
ARM GAS  C:\DOCUME~1\Admin\LOCALS~1\Temp\cccdPaPP.s 			page 50


 2420 0879 CC080000 		.4byte	0x8cc
 2421 087d 02       		.uleb128 0x2
 2422 087e 91       		.byte	0x91
 2423 087f 4C       		.sleb128 -52
 2424 0880 1D       		.uleb128 0x1d
 2425 0881 C3020000 		.4byte	.LASF121
 2426 0885 01       		.byte	0x1
 2427 0886 1501     		.2byte	0x115
 2428 0888 D2080000 		.4byte	0x8d2
 2429 088c 02       		.uleb128 0x2
 2430 088d 91       		.byte	0x91
 2431 088e 48       		.sleb128 -56
 2432 088f 1D       		.uleb128 0x1d
 2433 0890 93040000 		.4byte	.LASF122
 2434 0894 01       		.byte	0x1
 2435 0895 1501     		.2byte	0x115
 2436 0897 CC080000 		.4byte	0x8cc
 2437 089b 02       		.uleb128 0x2
 2438 089c 91       		.byte	0x91
 2439 089d 00       		.sleb128 0
 2440 089e 1F       		.uleb128 0x1f
 2441 089f 2A050000 		.4byte	.LASF96
 2442 08a3 01       		.byte	0x1
 2443 08a4 1701     		.2byte	0x117
 2444 08a6 A2000000 		.4byte	0xa2
 2445 08aa 02       		.uleb128 0x2
 2446 08ab 91       		.byte	0x91
 2447 08ac 73       		.sleb128 -13
 2448 08ad 1F       		.uleb128 0x1f
 2449 08ae 8F010000 		.4byte	.LASF95
 2450 08b2 01       		.byte	0x1
 2451 08b3 1801     		.2byte	0x118
 2452 08b5 C3000000 		.4byte	0xc3
 2453 08b9 02       		.uleb128 0x2
 2454 08ba 91       		.byte	0x91
 2455 08bb 74       		.sleb128 -12
 2456 08bc 1F       		.uleb128 0x1f
 2457 08bd 40060000 		.4byte	.LASF123
 2458 08c1 01       		.byte	0x1
 2459 08c2 1C01     		.2byte	0x11c
 2460 08c4 C3040000 		.4byte	0x4c3
 2461 08c8 02       		.uleb128 0x2
 2462 08c9 91       		.byte	0x91
 2463 08ca 58       		.sleb128 -40
 2464 08cb 00       		.byte	0
 2465 08cc 0C       		.uleb128 0xc
 2466 08cd 04       		.byte	0x4
 2467 08ce C3000000 		.4byte	0xc3
 2468 08d2 0C       		.uleb128 0xc
 2469 08d3 04       		.byte	0x4
 2470 08d4 AD000000 		.4byte	0xad
 2471 08d8 1C       		.uleb128 0x1c
 2472 08d9 96020000 		.4byte	.LASF125
 2473 08dd 01       		.byte	0x1
 2474 08de 3401     		.2byte	0x134
 2475 08e0 00000000 		.4byte	.LFB73
 2476 08e4 4C000000 		.4byte	.LFE73-.LFB73
ARM GAS  C:\DOCUME~1\Admin\LOCALS~1\Temp\cccdPaPP.s 			page 51


 2477 08e8 01       		.uleb128 0x1
 2478 08e9 9C       		.byte	0x9c
 2479 08ea 3D090000 		.4byte	0x93d
 2480 08ee 1D       		.uleb128 0x1d
 2481 08ef 6A060000 		.4byte	.LASF126
 2482 08f3 01       		.byte	0x1
 2483 08f4 3401     		.2byte	0x134
 2484 08f6 C3000000 		.4byte	0xc3
 2485 08fa 03       		.uleb128 0x3
 2486 08fb 91       		.byte	0x91
 2487 08fc 8C7F     		.sleb128 -116
 2488 08fe 1D       		.uleb128 0x1d
 2489 08ff CF020000 		.4byte	.LASF127
 2490 0903 01       		.byte	0x1
 2491 0904 3401     		.2byte	0x134
 2492 0906 AD000000 		.4byte	0xad
 2493 090a 03       		.uleb128 0x3
 2494 090b 91       		.byte	0x91
 2495 090c 8A7F     		.sleb128 -118
 2496 090e 1E       		.uleb128 0x1e
 2497 090f 494400   		.ascii	"ID\000"
 2498 0912 01       		.byte	0x1
 2499 0913 3401     		.2byte	0x134
 2500 0915 C3000000 		.4byte	0xc3
 2501 0919 03       		.uleb128 0x3
 2502 091a 91       		.byte	0x91
 2503 091b 847F     		.sleb128 -124
 2504 091d 1F       		.uleb128 0x1f
 2505 091e 81020000 		.4byte	.LASF93
 2506 0922 01       		.byte	0x1
 2507 0923 3601     		.2byte	0x136
 2508 0925 E1050000 		.4byte	0x5e1
 2509 0929 02       		.uleb128 0x2
 2510 092a 91       		.byte	0x91
 2511 092b 44       		.sleb128 -60
 2512 092c 1F       		.uleb128 0x1f
 2513 092d 00000000 		.4byte	.LASF94
 2514 0931 01       		.byte	0x1
 2515 0932 3701     		.2byte	0x137
 2516 0934 E1050000 		.4byte	0x5e1
 2517 0938 03       		.uleb128 0x3
 2518 0939 91       		.byte	0x91
 2519 093a 907F     		.sleb128 -112
 2520 093c 00       		.byte	0
 2521 093d 21       		.uleb128 0x21
 2522 093e A5060000 		.4byte	.LASF128
 2523 0942 01       		.byte	0x1
 2524 0943 4001     		.2byte	0x140
 2525 0945 00000000 		.4byte	.LFB74
 2526 0949 DC000000 		.4byte	.LFE74-.LFB74
 2527 094d 01       		.uleb128 0x1
 2528 094e 9C       		.byte	0x9c
 2529 094f EA090000 		.4byte	0x9ea
 2530 0953 1D       		.uleb128 0x1d
 2531 0954 67020000 		.4byte	.LASF106
 2532 0958 01       		.byte	0x1
 2533 0959 4001     		.2byte	0x140
ARM GAS  C:\DOCUME~1\Admin\LOCALS~1\Temp\cccdPaPP.s 			page 52


 2534 095b CC080000 		.4byte	0x8cc
 2535 095f 02       		.uleb128 0x2
 2536 0960 91       		.byte	0x91
 2537 0961 5C       		.sleb128 -36
 2538 0962 1D       		.uleb128 0x1d
 2539 0963 F8040000 		.4byte	.LASF129
 2540 0967 01       		.byte	0x1
 2541 0968 4001     		.2byte	0x140
 2542 096a D2080000 		.4byte	0x8d2
 2543 096e 02       		.uleb128 0x2
 2544 096f 91       		.byte	0x91
 2545 0970 58       		.sleb128 -40
 2546 0971 1D       		.uleb128 0x1d
 2547 0972 1A050000 		.4byte	.LASF112
 2548 0976 01       		.byte	0x1
 2549 0977 4001     		.2byte	0x140
 2550 0979 EA090000 		.4byte	0x9ea
 2551 097d 02       		.uleb128 0x2
 2552 097e 91       		.byte	0x91
 2553 097f 54       		.sleb128 -44
 2554 0980 1D       		.uleb128 0x1d
 2555 0981 57040000 		.4byte	.LASF130
 2556 0985 01       		.byte	0x1
 2557 0986 4001     		.2byte	0x140
 2558 0988 EA090000 		.4byte	0x9ea
 2559 098c 02       		.uleb128 0x2
 2560 098d 91       		.byte	0x91
 2561 098e 50       		.sleb128 -48
 2562 098f 1F       		.uleb128 0x1f
 2563 0990 13010000 		.4byte	.LASF131
 2564 0994 01       		.byte	0x1
 2565 0995 4301     		.2byte	0x143
 2566 0997 B8000000 		.4byte	0xb8
 2567 099b 02       		.uleb128 0x2
 2568 099c 91       		.byte	0x91
 2569 099d 74       		.sleb128 -12
 2570 099e 1F       		.uleb128 0x1f
 2571 099f 26020000 		.4byte	.LASF132
 2572 09a3 01       		.byte	0x1
 2573 09a4 4401     		.2byte	0x144
 2574 09a6 B8000000 		.4byte	0xb8
 2575 09aa 02       		.uleb128 0x2
 2576 09ab 91       		.byte	0x91
 2577 09ac 70       		.sleb128 -16
 2578 09ad 1F       		.uleb128 0x1f
 2579 09ae D9060000 		.4byte	.LASF133
 2580 09b2 01       		.byte	0x1
 2581 09b3 4501     		.2byte	0x145
 2582 09b5 B8000000 		.4byte	0xb8
 2583 09b9 02       		.uleb128 0x2
 2584 09ba 91       		.byte	0x91
 2585 09bb 6C       		.sleb128 -20
 2586 09bc 1F       		.uleb128 0x1f
 2587 09bd 49020000 		.4byte	.LASF134
 2588 09c1 01       		.byte	0x1
 2589 09c2 4601     		.2byte	0x146
 2590 09c4 B8000000 		.4byte	0xb8
ARM GAS  C:\DOCUME~1\Admin\LOCALS~1\Temp\cccdPaPP.s 			page 53


 2591 09c8 02       		.uleb128 0x2
 2592 09c9 91       		.byte	0x91
 2593 09ca 68       		.sleb128 -24
 2594 09cb 1F       		.uleb128 0x1f
 2595 09cc D8030000 		.4byte	.LASF135
 2596 09d0 01       		.byte	0x1
 2597 09d1 4701     		.2byte	0x147
 2598 09d3 B8000000 		.4byte	0xb8
 2599 09d7 02       		.uleb128 0x2
 2600 09d8 91       		.byte	0x91
 2601 09d9 60       		.sleb128 -32
 2602 09da 1F       		.uleb128 0x1f
 2603 09db 3F020000 		.4byte	.LASF136
 2604 09df 01       		.byte	0x1
 2605 09e0 4801     		.2byte	0x148
 2606 09e2 B8000000 		.4byte	0xb8
 2607 09e6 02       		.uleb128 0x2
 2608 09e7 91       		.byte	0x91
 2609 09e8 64       		.sleb128 -28
 2610 09e9 00       		.byte	0
 2611 09ea 0C       		.uleb128 0xc
 2612 09eb 04       		.byte	0x4
 2613 09ec B8000000 		.4byte	0xb8
 2614 09f0 13       		.uleb128 0x13
 2615 09f1 FD010000 		.4byte	.LASF137
 2616 09f5 0A       		.byte	0xa
 2617 09f6 04       		.byte	0x4
 2618 09f7 AD000000 		.4byte	0xad
 2619 09fb 05       		.uleb128 0x5
 2620 09fc 03       		.byte	0x3
 2621 09fd 00000000 		.4byte	minMs
 2622 0a01 13       		.uleb128 0x13
 2623 0a02 8D040000 		.4byte	.LASF138
 2624 0a06 0A       		.byte	0xa
 2625 0a07 05       		.byte	0x5
 2626 0a08 AD000000 		.4byte	0xad
 2627 0a0c 05       		.uleb128 0x5
 2628 0a0d 03       		.byte	0x3
 2629 0a0e 02000000 		.4byte	maxMs
 2630 0a12 0A       		.uleb128 0xa
 2631 0a13 E7000000 		.4byte	0xe7
 2632 0a17 220A0000 		.4byte	0xa22
 2633 0a1b 0F       		.uleb128 0xf
 2634 0a1c EE000000 		.4byte	0xee
 2635 0a20 63       		.byte	0x63
 2636 0a21 00       		.byte	0
 2637 0a22 13       		.uleb128 0x13
 2638 0a23 EF010000 		.4byte	.LASF139
 2639 0a27 0B       		.byte	0xb
 2640 0a28 0F       		.byte	0xf
 2641 0a29 120A0000 		.4byte	0xa12
 2642 0a2d 05       		.uleb128 0x5
 2643 0a2e 03       		.byte	0x3
 2644 0a2f 04000000 		.4byte	buff
 2645 0a33 22       		.uleb128 0x22
 2646 0a34 61000000 		.4byte	.LASF140
 2647 0a38 0C       		.byte	0xc
ARM GAS  C:\DOCUME~1\Admin\LOCALS~1\Temp\cccdPaPP.s 			page 54


 2648 0a39 11       		.byte	0x11
 2649 0a3a D0020000 		.4byte	0x2d0
 2650 0a3e 05       		.uleb128 0x5
 2651 0a3f 03       		.byte	0x3
 2652 0a40 00000000 		.4byte	fatFs
 2653 0a44 22       		.uleb128 0x22
 2654 0a45 14030000 		.4byte	.LASF141
 2655 0a49 0C       		.byte	0xc
 2656 0a4a 12       		.byte	0x12
 2657 0a4b B7030000 		.4byte	0x3b7
 2658 0a4f 05       		.uleb128 0x5
 2659 0a50 03       		.byte	0x3
 2660 0a51 00000000 		.4byte	fileO
 2661 0a55 22       		.uleb128 0x22
 2662 0a56 E5040000 		.4byte	.LASF142
 2663 0a5a 0C       		.byte	0xc
 2664 0a5b 15       		.byte	0x15
 2665 0a5c C8010000 		.4byte	0x1c8
 2666 0a60 05       		.uleb128 0x5
 2667 0a61 03       		.byte	0x3
 2668 0a62 00000000 		.4byte	createFlag
 2669 0a66 0A       		.uleb128 0xa
 2670 0a67 C2030000 		.4byte	0x3c2
 2671 0a6b 760A0000 		.4byte	0xa76
 2672 0a6f 0F       		.uleb128 0xf
 2673 0a70 EE000000 		.4byte	0xee
 2674 0a74 07       		.byte	0x7
 2675 0a75 00       		.byte	0
 2676 0a76 22       		.uleb128 0x22
 2677 0a77 BB000000 		.4byte	.LASF143
 2678 0a7b 05       		.byte	0x5
 2679 0a7c 2D       		.byte	0x2d
 2680 0a7d 660A0000 		.4byte	0xa66
 2681 0a81 05       		.uleb128 0x5
 2682 0a82 03       		.byte	0x3
 2683 0a83 00000000 		.4byte	bufferSkiersOnWay
 2684 0a87 0A       		.uleb128 0xa
 2685 0a88 A7010000 		.4byte	0x1a7
 2686 0a8c 970A0000 		.4byte	0xa97
 2687 0a90 0F       		.uleb128 0xf
 2688 0a91 EE000000 		.4byte	0xee
 2689 0a95 07       		.byte	0x7
 2690 0a96 00       		.byte	0
 2691 0a97 22       		.uleb128 0x22
 2692 0a98 5E010000 		.4byte	.LASF144
 2693 0a9c 05       		.byte	0x5
 2694 0a9d 2F       		.byte	0x2f
 2695 0a9e 870A0000 		.4byte	0xa87
 2696 0aa2 05       		.uleb128 0x5
 2697 0aa3 03       		.byte	0x3
 2698 0aa4 00000000 		.4byte	bufferFifo
 2699 0aa8 22       		.uleb128 0x22
 2700 0aa9 9A050000 		.4byte	.LASF145
 2701 0aad 05       		.byte	0x5
 2702 0aae 31       		.byte	0x31
 2703 0aaf C3000000 		.4byte	0xc3
 2704 0ab3 05       		.uleb128 0x5
ARM GAS  C:\DOCUME~1\Admin\LOCALS~1\Temp\cccdPaPP.s 			page 55


 2705 0ab4 03       		.byte	0x3
 2706 0ab5 00000000 		.4byte	currentSizeBuff
 2707 0ab9 22       		.uleb128 0x22
 2708 0aba CD000000 		.4byte	.LASF146
 2709 0abe 05       		.byte	0x5
 2710 0abf 32       		.byte	0x32
 2711 0ac0 F3030000 		.4byte	0x3f3
 2712 0ac4 05       		.uleb128 0x5
 2713 0ac5 03       		.byte	0x3
 2714 0ac6 00000000 		.4byte	currentElementStart
 2715 0aca 22       		.uleb128 0x22
 2716 0acb 08040000 		.4byte	.LASF147
 2717 0acf 05       		.byte	0x5
 2718 0ad0 33       		.byte	0x33
 2719 0ad1 F3030000 		.4byte	0x3f3
 2720 0ad5 05       		.uleb128 0x5
 2721 0ad6 03       		.byte	0x3
 2722 0ad7 00000000 		.4byte	currentElementFinish
 2723 0adb 22       		.uleb128 0x22
 2724 0adc EF000000 		.4byte	.LASF148
 2725 0ae0 05       		.byte	0x5
 2726 0ae1 35       		.byte	0x35
 2727 0ae2 AD000000 		.4byte	0xad
 2728 0ae6 05       		.uleb128 0x5
 2729 0ae7 03       		.byte	0x3
 2730 0ae8 00000000 		.4byte	skiersStarted
 2731 0aec 22       		.uleb128 0x22
 2732 0aed F5050000 		.4byte	.LASF149
 2733 0af1 05       		.byte	0x5
 2734 0af2 36       		.byte	0x36
 2735 0af3 AD000000 		.4byte	0xad
 2736 0af7 05       		.uleb128 0x5
 2737 0af8 03       		.byte	0x3
 2738 0af9 00000000 		.4byte	skiersFinished
 2739 0afd 0A       		.uleb128 0xa
 2740 0afe A7010000 		.4byte	0x1a7
 2741 0b02 0D0B0000 		.4byte	0xb0d
 2742 0b06 0F       		.uleb128 0xf
 2743 0b07 EE000000 		.4byte	0xee
 2744 0b0b 95       		.byte	0x95
 2745 0b0c 00       		.byte	0
 2746 0b0d 22       		.uleb128 0x22
 2747 0b0e F0040000 		.4byte	.LASF150
 2748 0b12 05       		.byte	0x5
 2749 0b13 38       		.byte	0x38
 2750 0b14 FD0A0000 		.4byte	0xafd
 2751 0b18 05       		.uleb128 0x5
 2752 0b19 03       		.byte	0x3
 2753 0b1a 00000000 		.4byte	skierDB
 2754 0b1e 22       		.uleb128 0x22
 2755 0b1f 71040000 		.4byte	.LASF151
 2756 0b23 05       		.byte	0x5
 2757 0b24 53       		.byte	0x53
 2758 0b25 5C040000 		.4byte	0x45c
 2759 0b29 05       		.uleb128 0x5
 2760 0b2a 03       		.byte	0x3
 2761 0b2b 00000000 		.4byte	fifo
ARM GAS  C:\DOCUME~1\Admin\LOCALS~1\Temp\cccdPaPP.s 			page 56


 2762 0b2f 22       		.uleb128 0x22
 2763 0b30 EF050000 		.4byte	.LASF152
 2764 0b34 0A       		.byte	0xa
 2765 0b35 06       		.byte	0x6
 2766 0b36 AD000000 		.4byte	0xad
 2767 0b3a 05       		.uleb128 0x5
 2768 0b3b 03       		.byte	0x3
 2769 0b3c 00000000 		.4byte	tmpMs
 2770 0b40 22       		.uleb128 0x22
 2771 0b41 AA000000 		.4byte	.LASF153
 2772 0b45 09       		.byte	0x9
 2773 0b46 4E       		.byte	0x4e
 2774 0b47 2B050000 		.4byte	0x52b
 2775 0b4b 05       		.uleb128 0x5
 2776 0b4c 03       		.byte	0x3
 2777 0b4d 00000000 		.4byte	outData
 2778 0b51 22       		.uleb128 0x22
 2779 0b52 98000000 		.4byte	.LASF154
 2780 0b56 09       		.byte	0x9
 2781 0b57 4F       		.byte	0x4f
 2782 0b58 87050000 		.4byte	0x587
 2783 0b5c 05       		.uleb128 0x5
 2784 0b5d 03       		.byte	0x3
 2785 0b5e 00000000 		.4byte	inData
 2786 0b62 22       		.uleb128 0x22
 2787 0b63 9F000000 		.4byte	.LASF155
 2788 0b67 09       		.byte	0x9
 2789 0b68 53       		.byte	0x53
 2790 0b69 C3000000 		.4byte	0xc3
 2791 0b6d 05       		.uleb128 0x5
 2792 0b6e 03       		.byte	0x3
 2793 0b6f 00000000 		.4byte	numAttemps
 2794 0b73 22       		.uleb128 0x22
 2795 0b74 09010000 		.4byte	.LASF111
 2796 0b78 09       		.byte	0x9
 2797 0b79 53       		.byte	0x53
 2798 0b7a C3000000 		.4byte	0xc3
 2799 0b7e 05       		.uleb128 0x5
 2800 0b7f 03       		.byte	0x3
 2801 0b80 00000000 		.4byte	noConnect
 2802 0b84 22       		.uleb128 0x22
 2803 0b85 7F040000 		.4byte	.LASF156
 2804 0b89 09       		.byte	0x9
 2805 0b8a 53       		.byte	0x53
 2806 0b8b C3000000 		.4byte	0xc3
 2807 0b8f 05       		.uleb128 0x5
 2808 0b90 03       		.byte	0x3
 2809 0b91 00000000 		.4byte	networkStatus
 2810 0b95 00       		.byte	0
 2811              		.section	.debug_abbrev,"",%progbits
 2812              	.Ldebug_abbrev0:
 2813 0000 01       		.uleb128 0x1
 2814 0001 11       		.uleb128 0x11
 2815 0002 01       		.byte	0x1
 2816 0003 25       		.uleb128 0x25
 2817 0004 0E       		.uleb128 0xe
 2818 0005 13       		.uleb128 0x13
ARM GAS  C:\DOCUME~1\Admin\LOCALS~1\Temp\cccdPaPP.s 			page 57


 2819 0006 0B       		.uleb128 0xb
 2820 0007 03       		.uleb128 0x3
 2821 0008 0E       		.uleb128 0xe
 2822 0009 1B       		.uleb128 0x1b
 2823 000a 0E       		.uleb128 0xe
 2824 000b 55       		.uleb128 0x55
 2825 000c 17       		.uleb128 0x17
 2826 000d 11       		.uleb128 0x11
 2827 000e 01       		.uleb128 0x1
 2828 000f 10       		.uleb128 0x10
 2829 0010 17       		.uleb128 0x17
 2830 0011 00       		.byte	0
 2831 0012 00       		.byte	0
 2832 0013 02       		.uleb128 0x2
 2833 0014 24       		.uleb128 0x24
 2834 0015 00       		.byte	0
 2835 0016 0B       		.uleb128 0xb
 2836 0017 0B       		.uleb128 0xb
 2837 0018 3E       		.uleb128 0x3e
 2838 0019 0B       		.uleb128 0xb
 2839 001a 03       		.uleb128 0x3
 2840 001b 0E       		.uleb128 0xe
 2841 001c 00       		.byte	0
 2842 001d 00       		.byte	0
 2843 001e 03       		.uleb128 0x3
 2844 001f 16       		.uleb128 0x16
 2845 0020 00       		.byte	0
 2846 0021 03       		.uleb128 0x3
 2847 0022 0E       		.uleb128 0xe
 2848 0023 3A       		.uleb128 0x3a
 2849 0024 0B       		.uleb128 0xb
 2850 0025 3B       		.uleb128 0x3b
 2851 0026 0B       		.uleb128 0xb
 2852 0027 49       		.uleb128 0x49
 2853 0028 13       		.uleb128 0x13
 2854 0029 00       		.byte	0
 2855 002a 00       		.byte	0
 2856 002b 04       		.uleb128 0x4
 2857 002c 24       		.uleb128 0x24
 2858 002d 00       		.byte	0
 2859 002e 0B       		.uleb128 0xb
 2860 002f 0B       		.uleb128 0xb
 2861 0030 3E       		.uleb128 0x3e
 2862 0031 0B       		.uleb128 0xb
 2863 0032 03       		.uleb128 0x3
 2864 0033 08       		.uleb128 0x8
 2865 0034 00       		.byte	0
 2866 0035 00       		.byte	0
 2867 0036 05       		.uleb128 0x5
 2868 0037 13       		.uleb128 0x13
 2869 0038 01       		.byte	0x1
 2870 0039 03       		.uleb128 0x3
 2871 003a 0E       		.uleb128 0xe
 2872 003b 0B       		.uleb128 0xb
 2873 003c 0B       		.uleb128 0xb
 2874 003d 3A       		.uleb128 0x3a
 2875 003e 0B       		.uleb128 0xb
ARM GAS  C:\DOCUME~1\Admin\LOCALS~1\Temp\cccdPaPP.s 			page 58


 2876 003f 3B       		.uleb128 0x3b
 2877 0040 0B       		.uleb128 0xb
 2878 0041 01       		.uleb128 0x1
 2879 0042 13       		.uleb128 0x13
 2880 0043 00       		.byte	0
 2881 0044 00       		.byte	0
 2882 0045 06       		.uleb128 0x6
 2883 0046 0D       		.uleb128 0xd
 2884 0047 00       		.byte	0
 2885 0048 03       		.uleb128 0x3
 2886 0049 08       		.uleb128 0x8
 2887 004a 3A       		.uleb128 0x3a
 2888 004b 0B       		.uleb128 0xb
 2889 004c 3B       		.uleb128 0x3b
 2890 004d 0B       		.uleb128 0xb
 2891 004e 49       		.uleb128 0x49
 2892 004f 13       		.uleb128 0x13
 2893 0050 38       		.uleb128 0x38
 2894 0051 0B       		.uleb128 0xb
 2895 0052 00       		.byte	0
 2896 0053 00       		.byte	0
 2897 0054 07       		.uleb128 0x7
 2898 0055 0D       		.uleb128 0xd
 2899 0056 00       		.byte	0
 2900 0057 03       		.uleb128 0x3
 2901 0058 0E       		.uleb128 0xe
 2902 0059 3A       		.uleb128 0x3a
 2903 005a 0B       		.uleb128 0xb
 2904 005b 3B       		.uleb128 0x3b
 2905 005c 0B       		.uleb128 0xb
 2906 005d 49       		.uleb128 0x49
 2907 005e 13       		.uleb128 0x13
 2908 005f 38       		.uleb128 0x38
 2909 0060 0B       		.uleb128 0xb
 2910 0061 00       		.byte	0
 2911 0062 00       		.byte	0
 2912 0063 08       		.uleb128 0x8
 2913 0064 13       		.uleb128 0x13
 2914 0065 01       		.byte	0x1
 2915 0066 0B       		.uleb128 0xb
 2916 0067 0B       		.uleb128 0xb
 2917 0068 3A       		.uleb128 0x3a
 2918 0069 0B       		.uleb128 0xb
 2919 006a 3B       		.uleb128 0x3b
 2920 006b 0B       		.uleb128 0xb
 2921 006c 01       		.uleb128 0x1
 2922 006d 13       		.uleb128 0x13
 2923 006e 00       		.byte	0
 2924 006f 00       		.byte	0
 2925 0070 09       		.uleb128 0x9
 2926 0071 13       		.uleb128 0x13
 2927 0072 01       		.byte	0x1
 2928 0073 0B       		.uleb128 0xb
 2929 0074 05       		.uleb128 0x5
 2930 0075 3A       		.uleb128 0x3a
 2931 0076 0B       		.uleb128 0xb
 2932 0077 3B       		.uleb128 0x3b
ARM GAS  C:\DOCUME~1\Admin\LOCALS~1\Temp\cccdPaPP.s 			page 59


 2933 0078 0B       		.uleb128 0xb
 2934 0079 01       		.uleb128 0x1
 2935 007a 13       		.uleb128 0x13
 2936 007b 00       		.byte	0
 2937 007c 00       		.byte	0
 2938 007d 0A       		.uleb128 0xa
 2939 007e 01       		.uleb128 0x1
 2940 007f 01       		.byte	0x1
 2941 0080 49       		.uleb128 0x49
 2942 0081 13       		.uleb128 0x13
 2943 0082 01       		.uleb128 0x1
 2944 0083 13       		.uleb128 0x13
 2945 0084 00       		.byte	0
 2946 0085 00       		.byte	0
 2947 0086 0B       		.uleb128 0xb
 2948 0087 21       		.uleb128 0x21
 2949 0088 00       		.byte	0
 2950 0089 49       		.uleb128 0x49
 2951 008a 13       		.uleb128 0x13
 2952 008b 2F       		.uleb128 0x2f
 2953 008c 05       		.uleb128 0x5
 2954 008d 00       		.byte	0
 2955 008e 00       		.byte	0
 2956 008f 0C       		.uleb128 0xc
 2957 0090 0F       		.uleb128 0xf
 2958 0091 00       		.byte	0
 2959 0092 0B       		.uleb128 0xb
 2960 0093 0B       		.uleb128 0xb
 2961 0094 49       		.uleb128 0x49
 2962 0095 13       		.uleb128 0x13
 2963 0096 00       		.byte	0
 2964 0097 00       		.byte	0
 2965 0098 0D       		.uleb128 0xd
 2966 0099 16       		.uleb128 0x16
 2967 009a 00       		.byte	0
 2968 009b 03       		.uleb128 0x3
 2969 009c 08       		.uleb128 0x8
 2970 009d 3A       		.uleb128 0x3a
 2971 009e 0B       		.uleb128 0xb
 2972 009f 3B       		.uleb128 0x3b
 2973 00a0 0B       		.uleb128 0xb
 2974 00a1 49       		.uleb128 0x49
 2975 00a2 13       		.uleb128 0x13
 2976 00a3 00       		.byte	0
 2977 00a4 00       		.byte	0
 2978 00a5 0E       		.uleb128 0xe
 2979 00a6 0D       		.uleb128 0xd
 2980 00a7 00       		.byte	0
 2981 00a8 03       		.uleb128 0x3
 2982 00a9 0E       		.uleb128 0xe
 2983 00aa 3A       		.uleb128 0x3a
 2984 00ab 0B       		.uleb128 0xb
 2985 00ac 3B       		.uleb128 0x3b
 2986 00ad 0B       		.uleb128 0xb
 2987 00ae 49       		.uleb128 0x49
 2988 00af 13       		.uleb128 0x13
 2989 00b0 38       		.uleb128 0x38
ARM GAS  C:\DOCUME~1\Admin\LOCALS~1\Temp\cccdPaPP.s 			page 60


 2990 00b1 05       		.uleb128 0x5
 2991 00b2 00       		.byte	0
 2992 00b3 00       		.byte	0
 2993 00b4 0F       		.uleb128 0xf
 2994 00b5 21       		.uleb128 0x21
 2995 00b6 00       		.byte	0
 2996 00b7 49       		.uleb128 0x49
 2997 00b8 13       		.uleb128 0x13
 2998 00b9 2F       		.uleb128 0x2f
 2999 00ba 0B       		.uleb128 0xb
 3000 00bb 00       		.byte	0
 3001 00bc 00       		.byte	0
 3002 00bd 10       		.uleb128 0x10
 3003 00be 2E       		.uleb128 0x2e
 3004 00bf 00       		.byte	0
 3005 00c0 3F       		.uleb128 0x3f
 3006 00c1 19       		.uleb128 0x19
 3007 00c2 03       		.uleb128 0x3
 3008 00c3 0E       		.uleb128 0xe
 3009 00c4 3A       		.uleb128 0x3a
 3010 00c5 0B       		.uleb128 0xb
 3011 00c6 3B       		.uleb128 0x3b
 3012 00c7 0B       		.uleb128 0xb
 3013 00c8 27       		.uleb128 0x27
 3014 00c9 19       		.uleb128 0x19
 3015 00ca 11       		.uleb128 0x11
 3016 00cb 01       		.uleb128 0x1
 3017 00cc 12       		.uleb128 0x12
 3018 00cd 06       		.uleb128 0x6
 3019 00ce 40       		.uleb128 0x40
 3020 00cf 18       		.uleb128 0x18
 3021 00d0 9642     		.uleb128 0x2116
 3022 00d2 19       		.uleb128 0x19
 3023 00d3 00       		.byte	0
 3024 00d4 00       		.byte	0
 3025 00d5 11       		.uleb128 0x11
 3026 00d6 2E       		.uleb128 0x2e
 3027 00d7 01       		.byte	0x1
 3028 00d8 3F       		.uleb128 0x3f
 3029 00d9 19       		.uleb128 0x19
 3030 00da 03       		.uleb128 0x3
 3031 00db 0E       		.uleb128 0xe
 3032 00dc 3A       		.uleb128 0x3a
 3033 00dd 0B       		.uleb128 0xb
 3034 00de 3B       		.uleb128 0x3b
 3035 00df 0B       		.uleb128 0xb
 3036 00e0 27       		.uleb128 0x27
 3037 00e1 19       		.uleb128 0x19
 3038 00e2 11       		.uleb128 0x11
 3039 00e3 01       		.uleb128 0x1
 3040 00e4 12       		.uleb128 0x12
 3041 00e5 06       		.uleb128 0x6
 3042 00e6 40       		.uleb128 0x40
 3043 00e7 18       		.uleb128 0x18
 3044 00e8 9642     		.uleb128 0x2116
 3045 00ea 19       		.uleb128 0x19
 3046 00eb 01       		.uleb128 0x1
ARM GAS  C:\DOCUME~1\Admin\LOCALS~1\Temp\cccdPaPP.s 			page 61


 3047 00ec 13       		.uleb128 0x13
 3048 00ed 00       		.byte	0
 3049 00ee 00       		.byte	0
 3050 00ef 12       		.uleb128 0x12
 3051 00f0 0B       		.uleb128 0xb
 3052 00f1 01       		.byte	0x1
 3053 00f2 11       		.uleb128 0x11
 3054 00f3 01       		.uleb128 0x1
 3055 00f4 12       		.uleb128 0x12
 3056 00f5 06       		.uleb128 0x6
 3057 00f6 00       		.byte	0
 3058 00f7 00       		.byte	0
 3059 00f8 13       		.uleb128 0x13
 3060 00f9 34       		.uleb128 0x34
 3061 00fa 00       		.byte	0
 3062 00fb 03       		.uleb128 0x3
 3063 00fc 0E       		.uleb128 0xe
 3064 00fd 3A       		.uleb128 0x3a
 3065 00fe 0B       		.uleb128 0xb
 3066 00ff 3B       		.uleb128 0x3b
 3067 0100 0B       		.uleb128 0xb
 3068 0101 49       		.uleb128 0x49
 3069 0102 13       		.uleb128 0x13
 3070 0103 02       		.uleb128 0x2
 3071 0104 18       		.uleb128 0x18
 3072 0105 00       		.byte	0
 3073 0106 00       		.byte	0
 3074 0107 14       		.uleb128 0x14
 3075 0108 2E       		.uleb128 0x2e
 3076 0109 01       		.byte	0x1
 3077 010a 3F       		.uleb128 0x3f
 3078 010b 19       		.uleb128 0x19
 3079 010c 03       		.uleb128 0x3
 3080 010d 0E       		.uleb128 0xe
 3081 010e 3A       		.uleb128 0x3a
 3082 010f 0B       		.uleb128 0xb
 3083 0110 3B       		.uleb128 0x3b
 3084 0111 0B       		.uleb128 0xb
 3085 0112 27       		.uleb128 0x27
 3086 0113 19       		.uleb128 0x19
 3087 0114 49       		.uleb128 0x49
 3088 0115 13       		.uleb128 0x13
 3089 0116 11       		.uleb128 0x11
 3090 0117 01       		.uleb128 0x1
 3091 0118 12       		.uleb128 0x12
 3092 0119 06       		.uleb128 0x6
 3093 011a 40       		.uleb128 0x40
 3094 011b 18       		.uleb128 0x18
 3095 011c 9642     		.uleb128 0x2116
 3096 011e 19       		.uleb128 0x19
 3097 011f 01       		.uleb128 0x1
 3098 0120 13       		.uleb128 0x13
 3099 0121 00       		.byte	0
 3100 0122 00       		.byte	0
 3101 0123 15       		.uleb128 0x15
 3102 0124 34       		.uleb128 0x34
 3103 0125 00       		.byte	0
ARM GAS  C:\DOCUME~1\Admin\LOCALS~1\Temp\cccdPaPP.s 			page 62


 3104 0126 03       		.uleb128 0x3
 3105 0127 08       		.uleb128 0x8
 3106 0128 3A       		.uleb128 0x3a
 3107 0129 0B       		.uleb128 0xb
 3108 012a 3B       		.uleb128 0x3b
 3109 012b 0B       		.uleb128 0xb
 3110 012c 49       		.uleb128 0x49
 3111 012d 13       		.uleb128 0x13
 3112 012e 00       		.byte	0
 3113 012f 00       		.byte	0
 3114 0130 16       		.uleb128 0x16
 3115 0131 2E       		.uleb128 0x2e
 3116 0132 01       		.byte	0x1
 3117 0133 3F       		.uleb128 0x3f
 3118 0134 19       		.uleb128 0x19
 3119 0135 03       		.uleb128 0x3
 3120 0136 0E       		.uleb128 0xe
 3121 0137 3A       		.uleb128 0x3a
 3122 0138 0B       		.uleb128 0xb
 3123 0139 3B       		.uleb128 0x3b
 3124 013a 0B       		.uleb128 0xb
 3125 013b 27       		.uleb128 0x27
 3126 013c 19       		.uleb128 0x19
 3127 013d 11       		.uleb128 0x11
 3128 013e 01       		.uleb128 0x1
 3129 013f 12       		.uleb128 0x12
 3130 0140 06       		.uleb128 0x6
 3131 0141 40       		.uleb128 0x40
 3132 0142 18       		.uleb128 0x18
 3133 0143 9742     		.uleb128 0x2117
 3134 0145 19       		.uleb128 0x19
 3135 0146 01       		.uleb128 0x1
 3136 0147 13       		.uleb128 0x13
 3137 0148 00       		.byte	0
 3138 0149 00       		.byte	0
 3139 014a 17       		.uleb128 0x17
 3140 014b 05       		.uleb128 0x5
 3141 014c 00       		.byte	0
 3142 014d 03       		.uleb128 0x3
 3143 014e 0E       		.uleb128 0xe
 3144 014f 3A       		.uleb128 0x3a
 3145 0150 0B       		.uleb128 0xb
 3146 0151 3B       		.uleb128 0x3b
 3147 0152 0B       		.uleb128 0xb
 3148 0153 49       		.uleb128 0x49
 3149 0154 13       		.uleb128 0x13
 3150 0155 02       		.uleb128 0x2
 3151 0156 18       		.uleb128 0x18
 3152 0157 00       		.byte	0
 3153 0158 00       		.byte	0
 3154 0159 18       		.uleb128 0x18
 3155 015a 2E       		.uleb128 0x2e
 3156 015b 00       		.byte	0
 3157 015c 3F       		.uleb128 0x3f
 3158 015d 19       		.uleb128 0x19
 3159 015e 03       		.uleb128 0x3
 3160 015f 0E       		.uleb128 0xe
ARM GAS  C:\DOCUME~1\Admin\LOCALS~1\Temp\cccdPaPP.s 			page 63


 3161 0160 3A       		.uleb128 0x3a
 3162 0161 0B       		.uleb128 0xb
 3163 0162 3B       		.uleb128 0x3b
 3164 0163 0B       		.uleb128 0xb
 3165 0164 27       		.uleb128 0x27
 3166 0165 19       		.uleb128 0x19
 3167 0166 49       		.uleb128 0x49
 3168 0167 13       		.uleb128 0x13
 3169 0168 11       		.uleb128 0x11
 3170 0169 01       		.uleb128 0x1
 3171 016a 12       		.uleb128 0x12
 3172 016b 06       		.uleb128 0x6
 3173 016c 40       		.uleb128 0x40
 3174 016d 18       		.uleb128 0x18
 3175 016e 9742     		.uleb128 0x2117
 3176 0170 19       		.uleb128 0x19
 3177 0171 00       		.byte	0
 3178 0172 00       		.byte	0
 3179 0173 19       		.uleb128 0x19
 3180 0174 2E       		.uleb128 0x2e
 3181 0175 01       		.byte	0x1
 3182 0176 3F       		.uleb128 0x3f
 3183 0177 19       		.uleb128 0x19
 3184 0178 03       		.uleb128 0x3
 3185 0179 0E       		.uleb128 0xe
 3186 017a 3A       		.uleb128 0x3a
 3187 017b 0B       		.uleb128 0xb
 3188 017c 3B       		.uleb128 0x3b
 3189 017d 0B       		.uleb128 0xb
 3190 017e 27       		.uleb128 0x27
 3191 017f 19       		.uleb128 0x19
 3192 0180 49       		.uleb128 0x49
 3193 0181 13       		.uleb128 0x13
 3194 0182 11       		.uleb128 0x11
 3195 0183 01       		.uleb128 0x1
 3196 0184 12       		.uleb128 0x12
 3197 0185 06       		.uleb128 0x6
 3198 0186 40       		.uleb128 0x40
 3199 0187 18       		.uleb128 0x18
 3200 0188 9742     		.uleb128 0x2117
 3201 018a 19       		.uleb128 0x19
 3202 018b 01       		.uleb128 0x1
 3203 018c 13       		.uleb128 0x13
 3204 018d 00       		.byte	0
 3205 018e 00       		.byte	0
 3206 018f 1A       		.uleb128 0x1a
 3207 0190 34       		.uleb128 0x34
 3208 0191 00       		.byte	0
 3209 0192 03       		.uleb128 0x3
 3210 0193 08       		.uleb128 0x8
 3211 0194 3A       		.uleb128 0x3a
 3212 0195 0B       		.uleb128 0xb
 3213 0196 3B       		.uleb128 0x3b
 3214 0197 0B       		.uleb128 0xb
 3215 0198 49       		.uleb128 0x49
 3216 0199 13       		.uleb128 0x13
 3217 019a 02       		.uleb128 0x2
ARM GAS  C:\DOCUME~1\Admin\LOCALS~1\Temp\cccdPaPP.s 			page 64


 3218 019b 18       		.uleb128 0x18
 3219 019c 00       		.byte	0
 3220 019d 00       		.byte	0
 3221 019e 1B       		.uleb128 0x1b
 3222 019f 34       		.uleb128 0x34
 3223 01a0 00       		.byte	0
 3224 01a1 03       		.uleb128 0x3
 3225 01a2 0E       		.uleb128 0xe
 3226 01a3 3A       		.uleb128 0x3a
 3227 01a4 0B       		.uleb128 0xb
 3228 01a5 3B       		.uleb128 0x3b
 3229 01a6 0B       		.uleb128 0xb
 3230 01a7 49       		.uleb128 0x49
 3231 01a8 13       		.uleb128 0x13
 3232 01a9 00       		.byte	0
 3233 01aa 00       		.byte	0
 3234 01ab 1C       		.uleb128 0x1c
 3235 01ac 2E       		.uleb128 0x2e
 3236 01ad 01       		.byte	0x1
 3237 01ae 03       		.uleb128 0x3
 3238 01af 0E       		.uleb128 0xe
 3239 01b0 3A       		.uleb128 0x3a
 3240 01b1 0B       		.uleb128 0xb
 3241 01b2 3B       		.uleb128 0x3b
 3242 01b3 05       		.uleb128 0x5
 3243 01b4 27       		.uleb128 0x27
 3244 01b5 19       		.uleb128 0x19
 3245 01b6 11       		.uleb128 0x11
 3246 01b7 01       		.uleb128 0x1
 3247 01b8 12       		.uleb128 0x12
 3248 01b9 06       		.uleb128 0x6
 3249 01ba 40       		.uleb128 0x40
 3250 01bb 18       		.uleb128 0x18
 3251 01bc 9642     		.uleb128 0x2116
 3252 01be 19       		.uleb128 0x19
 3253 01bf 01       		.uleb128 0x1
 3254 01c0 13       		.uleb128 0x13
 3255 01c1 00       		.byte	0
 3256 01c2 00       		.byte	0
 3257 01c3 1D       		.uleb128 0x1d
 3258 01c4 05       		.uleb128 0x5
 3259 01c5 00       		.byte	0
 3260 01c6 03       		.uleb128 0x3
 3261 01c7 0E       		.uleb128 0xe
 3262 01c8 3A       		.uleb128 0x3a
 3263 01c9 0B       		.uleb128 0xb
 3264 01ca 3B       		.uleb128 0x3b
 3265 01cb 05       		.uleb128 0x5
 3266 01cc 49       		.uleb128 0x49
 3267 01cd 13       		.uleb128 0x13
 3268 01ce 02       		.uleb128 0x2
 3269 01cf 18       		.uleb128 0x18
 3270 01d0 00       		.byte	0
 3271 01d1 00       		.byte	0
 3272 01d2 1E       		.uleb128 0x1e
 3273 01d3 05       		.uleb128 0x5
 3274 01d4 00       		.byte	0
ARM GAS  C:\DOCUME~1\Admin\LOCALS~1\Temp\cccdPaPP.s 			page 65


 3275 01d5 03       		.uleb128 0x3
 3276 01d6 08       		.uleb128 0x8
 3277 01d7 3A       		.uleb128 0x3a
 3278 01d8 0B       		.uleb128 0xb
 3279 01d9 3B       		.uleb128 0x3b
 3280 01da 05       		.uleb128 0x5
 3281 01db 49       		.uleb128 0x49
 3282 01dc 13       		.uleb128 0x13
 3283 01dd 02       		.uleb128 0x2
 3284 01de 18       		.uleb128 0x18
 3285 01df 00       		.byte	0
 3286 01e0 00       		.byte	0
 3287 01e1 1F       		.uleb128 0x1f
 3288 01e2 34       		.uleb128 0x34
 3289 01e3 00       		.byte	0
 3290 01e4 03       		.uleb128 0x3
 3291 01e5 0E       		.uleb128 0xe
 3292 01e6 3A       		.uleb128 0x3a
 3293 01e7 0B       		.uleb128 0xb
 3294 01e8 3B       		.uleb128 0x3b
 3295 01e9 05       		.uleb128 0x5
 3296 01ea 49       		.uleb128 0x49
 3297 01eb 13       		.uleb128 0x13
 3298 01ec 02       		.uleb128 0x2
 3299 01ed 18       		.uleb128 0x18
 3300 01ee 00       		.byte	0
 3301 01ef 00       		.byte	0
 3302 01f0 20       		.uleb128 0x20
 3303 01f1 2E       		.uleb128 0x2e
 3304 01f2 01       		.byte	0x1
 3305 01f3 03       		.uleb128 0x3
 3306 01f4 0E       		.uleb128 0xe
 3307 01f5 3A       		.uleb128 0x3a
 3308 01f6 0B       		.uleb128 0xb
 3309 01f7 3B       		.uleb128 0x3b
 3310 01f8 05       		.uleb128 0x5
 3311 01f9 27       		.uleb128 0x27
 3312 01fa 19       		.uleb128 0x19
 3313 01fb 49       		.uleb128 0x49
 3314 01fc 13       		.uleb128 0x13
 3315 01fd 11       		.uleb128 0x11
 3316 01fe 01       		.uleb128 0x1
 3317 01ff 12       		.uleb128 0x12
 3318 0200 06       		.uleb128 0x6
 3319 0201 40       		.uleb128 0x40
 3320 0202 18       		.uleb128 0x18
 3321 0203 9642     		.uleb128 0x2116
 3322 0205 19       		.uleb128 0x19
 3323 0206 01       		.uleb128 0x1
 3324 0207 13       		.uleb128 0x13
 3325 0208 00       		.byte	0
 3326 0209 00       		.byte	0
 3327 020a 21       		.uleb128 0x21
 3328 020b 2E       		.uleb128 0x2e
 3329 020c 01       		.byte	0x1
 3330 020d 03       		.uleb128 0x3
 3331 020e 0E       		.uleb128 0xe
ARM GAS  C:\DOCUME~1\Admin\LOCALS~1\Temp\cccdPaPP.s 			page 66


 3332 020f 3A       		.uleb128 0x3a
 3333 0210 0B       		.uleb128 0xb
 3334 0211 3B       		.uleb128 0x3b
 3335 0212 05       		.uleb128 0x5
 3336 0213 27       		.uleb128 0x27
 3337 0214 19       		.uleb128 0x19
 3338 0215 11       		.uleb128 0x11
 3339 0216 01       		.uleb128 0x1
 3340 0217 12       		.uleb128 0x12
 3341 0218 06       		.uleb128 0x6
 3342 0219 40       		.uleb128 0x40
 3343 021a 18       		.uleb128 0x18
 3344 021b 9742     		.uleb128 0x2117
 3345 021d 19       		.uleb128 0x19
 3346 021e 01       		.uleb128 0x1
 3347 021f 13       		.uleb128 0x13
 3348 0220 00       		.byte	0
 3349 0221 00       		.byte	0
 3350 0222 22       		.uleb128 0x22
 3351 0223 34       		.uleb128 0x34
 3352 0224 00       		.byte	0
 3353 0225 03       		.uleb128 0x3
 3354 0226 0E       		.uleb128 0xe
 3355 0227 3A       		.uleb128 0x3a
 3356 0228 0B       		.uleb128 0xb
 3357 0229 3B       		.uleb128 0x3b
 3358 022a 0B       		.uleb128 0xb
 3359 022b 49       		.uleb128 0x49
 3360 022c 13       		.uleb128 0x13
 3361 022d 3F       		.uleb128 0x3f
 3362 022e 19       		.uleb128 0x19
 3363 022f 02       		.uleb128 0x2
 3364 0230 18       		.uleb128 0x18
 3365 0231 00       		.byte	0
 3366 0232 00       		.byte	0
 3367 0233 00       		.byte	0
 3368              		.section	.debug_aranges,"",%progbits
 3369 0000 74000000 		.4byte	0x74
 3370 0004 0200     		.2byte	0x2
 3371 0006 00000000 		.4byte	.Ldebug_info0
 3372 000a 04       		.byte	0x4
 3373 000b 00       		.byte	0
 3374 000c 0000     		.2byte	0
 3375 000e 0000     		.2byte	0
 3376 0010 00000000 		.4byte	.LFB63
 3377 0014 24000000 		.4byte	.LFE63-.LFB63
 3378 0018 00000000 		.4byte	.LFB64
 3379 001c 9C000000 		.4byte	.LFE64-.LFB64
 3380 0020 00000000 		.4byte	.LFB65
 3381 0024 70010000 		.4byte	.LFE65-.LFB65
 3382 0028 00000000 		.4byte	.LFB66
 3383 002c 1C000000 		.4byte	.LFE66-.LFB66
 3384 0030 00000000 		.4byte	.LFB67
 3385 0034 14000000 		.4byte	.LFE67-.LFB67
 3386 0038 00000000 		.4byte	.LFB68
 3387 003c 44000000 		.4byte	.LFE68-.LFB68
 3388 0040 00000000 		.4byte	.LFB69
ARM GAS  C:\DOCUME~1\Admin\LOCALS~1\Temp\cccdPaPP.s 			page 67


 3389 0044 28000000 		.4byte	.LFE69-.LFB69
 3390 0048 00000000 		.4byte	.LFB70
 3391 004c EC010000 		.4byte	.LFE70-.LFB70
 3392 0050 00000000 		.4byte	.LFB71
 3393 0054 4C000000 		.4byte	.LFE71-.LFB71
 3394 0058 00000000 		.4byte	.LFB72
 3395 005c 9C000000 		.4byte	.LFE72-.LFB72
 3396 0060 00000000 		.4byte	.LFB73
 3397 0064 4C000000 		.4byte	.LFE73-.LFB73
 3398 0068 00000000 		.4byte	.LFB74
 3399 006c DC000000 		.4byte	.LFE74-.LFB74
 3400 0070 00000000 		.4byte	0
 3401 0074 00000000 		.4byte	0
 3402              		.section	.debug_ranges,"",%progbits
 3403              	.Ldebug_ranges0:
 3404 0000 00000000 		.4byte	.LFB63
 3405 0004 24000000 		.4byte	.LFE63
 3406 0008 00000000 		.4byte	.LFB64
 3407 000c 9C000000 		.4byte	.LFE64
 3408 0010 00000000 		.4byte	.LFB65
 3409 0014 70010000 		.4byte	.LFE65
 3410 0018 00000000 		.4byte	.LFB66
 3411 001c 1C000000 		.4byte	.LFE66
 3412 0020 00000000 		.4byte	.LFB67
 3413 0024 14000000 		.4byte	.LFE67
 3414 0028 00000000 		.4byte	.LFB68
 3415 002c 44000000 		.4byte	.LFE68
 3416 0030 00000000 		.4byte	.LFB69
 3417 0034 28000000 		.4byte	.LFE69
 3418 0038 00000000 		.4byte	.LFB70
 3419 003c EC010000 		.4byte	.LFE70
 3420 0040 00000000 		.4byte	.LFB71
 3421 0044 4C000000 		.4byte	.LFE71
 3422 0048 00000000 		.4byte	.LFB72
 3423 004c 9C000000 		.4byte	.LFE72
 3424 0050 00000000 		.4byte	.LFB73
 3425 0054 4C000000 		.4byte	.LFE73
 3426 0058 00000000 		.4byte	.LFB74
 3427 005c DC000000 		.4byte	.LFE74
 3428 0060 00000000 		.4byte	0
 3429 0064 00000000 		.4byte	0
 3430              		.section	.debug_line,"",%progbits
 3431              	.Ldebug_line0:
 3432 0000 4C030000 		.section	.debug_str,"MS",%progbits,1
 3432      0200A601 
 3432      00000201 
 3432      FB0E0D00 
 3432      01010101 
 3433              	.LASF94:
 3434 0000 73656E64 		.ascii	"sendData\000"
 3434      44617461 
 3434      00
 3435              	.LASF39:
 3436 0009 4653495A 		.ascii	"FSIZE_t\000"
 3436      455F7400 
 3437              	.LASF75:
 3438 0011 6C617374 		.ascii	"last\000"
ARM GAS  C:\DOCUME~1\Admin\LOCALS~1\Temp\cccdPaPP.s 			page 68


 3438      00
 3439              	.LASF66:
 3440 0016 6469725F 		.ascii	"dir_ptr\000"
 3440      70747200 
 3441              	.LASF55:
 3442 001e 46415446 		.ascii	"FATFS\000"
 3442      5300
 3443              	.LASF69:
 3444 0024 6E657874 		.ascii	"nextSki\000"
 3444      536B6900 
 3445              	.LASF60:
 3446 002c 5F464449 		.ascii	"_FDID\000"
 3446      4400
 3447              	.LASF74:
 3448 0032 62756666 		.ascii	"buffer\000"
 3448      657200
 3449              	.LASF73:
 3450 0039 746F7461 		.ascii	"totalSize\000"
 3450      6C53697A 
 3450      6500
 3451              	.LASF46:
 3452 0043 6C617374 		.ascii	"last_clst\000"
 3452      5F636C73 
 3452      7400
 3453              	.LASF13:
 3454 004d 756E7369 		.ascii	"unsigned int\000"
 3454      676E6564 
 3454      20696E74 
 3454      00
 3455              	.LASF41:
 3456 005a 6E5F6661 		.ascii	"n_fats\000"
 3456      747300
 3457              	.LASF140:
 3458 0061 66617446 		.ascii	"fatFs\000"
 3458      7300
 3459              	.LASF6:
 3460 0067 5F5F696E 		.ascii	"__int32_t\000"
 3460      7433325F 
 3460      7400
 3461              	.LASF105:
 3462 0071 49447265 		.ascii	"IDreceivePacket\000"
 3462      63656976 
 3462      65506163 
 3462      6B657400 
 3463              	.LASF98:
 3464 0081 53656E64 		.ascii	"SendData\000"
 3464      44617461 
 3464      00
 3465              	.LASF54:
 3466 008a 77696E73 		.ascii	"winsect\000"
 3466      65637400 
 3467              	.LASF114:
 3468 0092 6F75744D 		.ascii	"outMs\000"
 3468      7300
 3469              	.LASF154:
 3470 0098 696E4461 		.ascii	"inData\000"
 3470      746100
ARM GAS  C:\DOCUME~1\Admin\LOCALS~1\Temp\cccdPaPP.s 			page 69


 3471              	.LASF155:
 3472 009f 6E756D41 		.ascii	"numAttemps\000"
 3472      7474656D 
 3472      707300
 3473              	.LASF153:
 3474 00aa 6F757444 		.ascii	"outData\000"
 3474      61746100 
 3475              	.LASF80:
 3476 00b2 49447061 		.ascii	"IDpacket\000"
 3476      636B6574 
 3476      00
 3477              	.LASF143:
 3478 00bb 62756666 		.ascii	"bufferSkiersOnWay\000"
 3478      6572536B 
 3478      69657273 
 3478      4F6E5761 
 3478      7900
 3479              	.LASF146:
 3480 00cd 63757272 		.ascii	"currentElementStart\000"
 3480      656E7445 
 3480      6C656D65 
 3480      6E745374 
 3480      61727400 
 3481              	.LASF110:
 3482 00e1 72657375 		.ascii	"resultReceive\000"
 3482      6C745265 
 3482      63656976 
 3482      6500
 3483              	.LASF148:
 3484 00ef 736B6965 		.ascii	"skiersStarted\000"
 3484      72735374 
 3484      61727465 
 3484      6400
 3485              	.LASF89:
 3486 00fd 73746172 		.ascii	"startMsTime\000"
 3486      744D7354 
 3486      696D6500 
 3487              	.LASF111:
 3488 0109 6E6F436F 		.ascii	"noConnect\000"
 3488      6E6E6563 
 3488      7400
 3489              	.LASF131:
 3490 0113 746D704D 		.ascii	"tmpMsMaster\000"
 3490      734D6173 
 3490      74657200 
 3491              	.LASF17:
 3492 011f 75696E74 		.ascii	"uint32_t\000"
 3492      33325F74 
 3492      00
 3493              	.LASF85:
 3494 0128 746D704D 		.ascii	"tmpMsTime\000"
 3494      7354696D 
 3494      6500
 3495              	.LASF43:
 3496 0132 6673695F 		.ascii	"fsi_flag\000"
 3496      666C6167 
 3496      00
ARM GAS  C:\DOCUME~1\Admin\LOCALS~1\Temp\cccdPaPP.s 			page 70


 3497              	.LASF72:
 3498 013b 6C617374 		.ascii	"lastElement\000"
 3498      456C656D 
 3498      656E7400 
 3499              	.LASF65:
 3500 0147 6469725F 		.ascii	"dir_sect\000"
 3500      73656374 
 3500      00
 3501              	.LASF19:
 3502 0150 666C6F61 		.ascii	"float\000"
 3502      7400
 3503              	.LASF79:
 3504 0156 4E747052 		.ascii	"NtpResp\000"
 3504      65737000 
 3505              	.LASF144:
 3506 015e 62756666 		.ascii	"bufferFifo\000"
 3506      65724669 
 3506      666F00
 3507              	.LASF102:
 3508 0169 57726974 		.ascii	"WriteRebootFlag\000"
 3508      65526562 
 3508      6F6F7446 
 3508      6C616700 
 3509              	.LASF30:
 3510 0179 6D696C6C 		.ascii	"millsStartSkier\000"
 3510      73537461 
 3510      7274536B 
 3510      69657200 
 3511              	.LASF38:
 3512 0189 44574F52 		.ascii	"DWORD\000"
 3512      4400
 3513              	.LASF95:
 3514 018f 72657375 		.ascii	"result\000"
 3514      6C7400
 3515              	.LASF12:
 3516 0196 6C6F6E67 		.ascii	"long long unsigned int\000"
 3516      206C6F6E 
 3516      6720756E 
 3516      7369676E 
 3516      65642069 
 3517              	.LASF82:
 3518 01ad 7265626F 		.ascii	"reboot\000"
 3518      6F7400
 3519              	.LASF115:
 3520 01b4 746D7044 		.ascii	"tmpDataMs\000"
 3520      6174614D 
 3520      7300
 3521              	.LASF68:
 3522 01be 656C656D 		.ascii	"elementBuff\000"
 3522      656E7442 
 3522      75666600 
 3523              	.LASF56:
 3524 01ca 61747472 		.ascii	"attr\000"
 3524      00
 3525              	.LASF4:
 3526 01cf 5F5F7569 		.ascii	"__uint16_t\000"
 3526      6E743136 
ARM GAS  C:\DOCUME~1\Admin\LOCALS~1\Temp\cccdPaPP.s 			page 71


 3526      5F7400
 3527              	.LASF40:
 3528 01da 66735F74 		.ascii	"fs_type\000"
 3528      79706500 
 3529              	.LASF51:
 3530 01e2 66617462 		.ascii	"fatbase\000"
 3530      61736500 
 3531              	.LASF57:
 3532 01ea 73746174 		.ascii	"stat\000"
 3532      00
 3533              	.LASF139:
 3534 01ef 62756666 		.ascii	"buff\000"
 3534      00
 3535              	.LASF97:
 3536 01f4 72656376 		.ascii	"recvData\000"
 3536      44617461 
 3536      00
 3537              	.LASF137:
 3538 01fd 6D696E4D 		.ascii	"minMs\000"
 3538      7300
 3539              	.LASF83:
 3540 0203 636F756E 		.ascii	"countSkiers\000"
 3540      74536B69 
 3540      65727300 
 3541              	.LASF124:
 3542 020f 4E545073 		.ascii	"NTPsendTime\000"
 3542      656E6454 
 3542      696D6500 
 3543              	.LASF35:
 3544 021b 736B6965 		.ascii	"skierDB_El\000"
 3544      7244425F 
 3544      456C00
 3545              	.LASF132:
 3546 0226 746D7054 		.ascii	"tmpTimeMaster\000"
 3546      696D654D 
 3546      61737465 
 3546      7200
 3547              	.LASF11:
 3548 0234 5F5F7569 		.ascii	"__uint64_t\000"
 3548      6E743634 
 3548      5F7400
 3549              	.LASF136:
 3550 023f 746D7044 		.ascii	"tmpDiffMs\000"
 3550      6966664D 
 3550      7300
 3551              	.LASF134:
 3552 0249 746D7054 		.ascii	"tmpTimeSlave\000"
 3552      696D6553 
 3552      6C617665 
 3552      00
 3553              	.LASF32:
 3554 0256 6D696C6C 		.ascii	"millsFinishSkier\000"
 3554      7346696E 
 3554      69736853 
 3554      6B696572 
 3554      00
 3555              	.LASF106:
ARM GAS  C:\DOCUME~1\Admin\LOCALS~1\Temp\cccdPaPP.s 			page 72


 3556 0267 756E6978 		.ascii	"unixTime\000"
 3556      54696D65 
 3556      00
 3557              	.LASF21:
 3558 0270 63686172 		.ascii	"char\000"
 3558      00
 3559              	.LASF86:
 3560 0275 77726974 		.ascii	"writeStatus\000"
 3560      65537461 
 3560      74757300 
 3561              	.LASF93:
 3562 0281 73656E64 		.ascii	"sendBuffer\000"
 3562      42756666 
 3562      657200
 3563              	.LASF28:
 3564 028c 456E6450 		.ascii	"EndPacket\000"
 3564      61636B65 
 3564      7400
 3565              	.LASF125:
 3566 0296 4E545073 		.ascii	"NTPsetTimeToStart\000"
 3566      65745469 
 3566      6D65546F 
 3566      53746172 
 3566      7400
 3567              	.LASF14:
 3568 02a8 75696E74 		.ascii	"uint8_t\000"
 3568      385F7400 
 3569              	.LASF103:
 3570 02b0 73746174 		.ascii	"status\000"
 3570      757300
 3571              	.LASF119:
 3572 02b7 6D696C6C 		.ascii	"millisTime2\000"
 3572      69735469 
 3572      6D653200 
 3573              	.LASF121:
 3574 02c3 6D696C6C 		.ascii	"millisTime3\000"
 3574      69735469 
 3574      6D653300 
 3575              	.LASF127:
 3576 02cf 6D696C6C 		.ascii	"millisTime4\000"
 3576      69735469 
 3576      6D653400 
 3577              	.LASF64:
 3578 02db 73656374 		.ascii	"sect\000"
 3578      00
 3579              	.LASF10:
 3580 02e0 6C6F6E67 		.ascii	"long long int\000"
 3580      206C6F6E 
 3580      6720696E 
 3580      7400
 3581              	.LASF113:
 3582 02ee 73756D4D 		.ascii	"sumMillis\000"
 3582      696C6C69 
 3582      7300
 3583              	.LASF49:
 3584 02f8 6673697A 		.ascii	"fsize\000"
 3584      6500
ARM GAS  C:\DOCUME~1\Admin\LOCALS~1\Temp\cccdPaPP.s 			page 73


 3585              	.LASF50:
 3586 02fe 766F6C62 		.ascii	"volbase\000"
 3586      61736500 
 3587              	.LASF42:
 3588 0306 77666C61 		.ascii	"wflag\000"
 3588      6700
 3589              	.LASF84:
 3590 030c 746D7054 		.ascii	"tmpTime\000"
 3590      696D6500 
 3591              	.LASF141:
 3592 0314 66696C65 		.ascii	"fileO\000"
 3592      4F00
 3593              	.LASF36:
 3594 031a 42595445 		.ascii	"BYTE\000"
 3594      00
 3595              	.LASF87:
 3596 031f 46696E69 		.ascii	"FinishData\000"
 3596      73684461 
 3596      746100
 3597              	.LASF157:
 3598 032a 474E5520 		.ascii	"GNU C 4.9.3 20150303 (release) [ARM/embedded-4_9-br"
 3598      4320342E 
 3598      392E3320 
 3598      32303135 
 3598      30333033 
 3599 035d 616E6368 		.ascii	"anch revision 221220] -mcpu=cortex-m0 -mthumb -g -O"
 3599      20726576 
 3599      6973696F 
 3599      6E203232 
 3599      31323230 
 3600 0390 30202D66 		.ascii	"0 -ffunction-sections -ffat-lto-objects\000"
 3600      66756E63 
 3600      74696F6E 
 3600      2D736563 
 3600      74696F6E 
 3601              	.LASF107:
 3602 03b8 6D696C6C 		.ascii	"millisTime\000"
 3602      69735469 
 3602      6D6500
 3603              	.LASF37:
 3604 03c3 574F5244 		.ascii	"WORD\000"
 3604      00
 3605              	.LASF45:
 3606 03c8 6373697A 		.ascii	"csize\000"
 3606      6500
 3607              	.LASF70:
 3608 03ce 73697A65 		.ascii	"size\000"
 3608      00
 3609              	.LASF62:
 3610 03d3 66707472 		.ascii	"fptr\000"
 3610      00
 3611              	.LASF135:
 3612 03d8 746D7044 		.ascii	"tmpDiffTime\000"
 3612      69666654 
 3612      696D6500 
 3613              	.LASF48:
 3614 03e4 6E5F6661 		.ascii	"n_fatent\000"
ARM GAS  C:\DOCUME~1\Admin\LOCALS~1\Temp\cccdPaPP.s 			page 74


 3614      74656E74 
 3614      00
 3615              	.LASF52:
 3616 03ed 64697262 		.ascii	"dirbase\000"
 3616      61736500 
 3617              	.LASF67:
 3618 03f5 52657370 		.ascii	"Resp\000"
 3618      00
 3619              	.LASF76:
 3620 03fa 6669666F 		.ascii	"fifoTimeSkier\000"
 3620      54696D65 
 3620      536B6965 
 3620      7200
 3621              	.LASF147:
 3622 0408 63757272 		.ascii	"currentElementFinish\000"
 3622      656E7445 
 3622      6C656D65 
 3622      6E744669 
 3622      6E697368 
 3623              	.LASF99:
 3624 041d 53656E64 		.ascii	"SendFinStatus\000"
 3624      46696E53 
 3624      74617475 
 3624      7300
 3625              	.LASF104:
 3626 042b 4E545073 		.ascii	"NTPsync\000"
 3626      796E6300 
 3627              	.LASF15:
 3628 0433 75696E74 		.ascii	"uint16_t\000"
 3628      31365F74 
 3628      00
 3629              	.LASF24:
 3630 043c 44617461 		.ascii	"Data1\000"
 3630      3100
 3631              	.LASF25:
 3632 0442 44617461 		.ascii	"Data2\000"
 3632      3200
 3633              	.LASF26:
 3634 0448 44617461 		.ascii	"Data3\000"
 3634      3300
 3635              	.LASF34:
 3636 044e 6D696C6C 		.ascii	"millsWay\000"
 3636      73576179 
 3636      00
 3637              	.LASF130:
 3638 0457 73756D4D 		.ascii	"sumMs\000"
 3638      7300
 3639              	.LASF47:
 3640 045d 66726565 		.ascii	"free_clst\000"
 3640      5F636C73 
 3640      7400
 3641              	.LASF2:
 3642 0467 73686F72 		.ascii	"short int\000"
 3642      7420696E 
 3642      7400
 3643              	.LASF151:
 3644 0471 6669666F 		.ascii	"fifo\000"
ARM GAS  C:\DOCUME~1\Admin\LOCALS~1\Temp\cccdPaPP.s 			page 75


 3644      00
 3645              	.LASF7:
 3646 0476 6C6F6E67 		.ascii	"long int\000"
 3646      20696E74 
 3646      00
 3647              	.LASF156:
 3648 047f 6E657477 		.ascii	"networkStatus\000"
 3648      6F726B53 
 3648      74617475 
 3648      7300
 3649              	.LASF138:
 3650 048d 6D61784D 		.ascii	"maxMs\000"
 3650      7300
 3651              	.LASF122:
 3652 0493 49447265 		.ascii	"IDreceive\000"
 3652      63656976 
 3652      6500
 3653              	.LASF117:
 3654 049d 6D696C6C 		.ascii	"millis2\000"
 3654      69733200 
 3655              	.LASF61:
 3656 04a5 666C6167 		.ascii	"flag\000"
 3656      00
 3657              	.LASF18:
 3658 04aa 75696E74 		.ascii	"uint64_t\000"
 3658      36345F74 
 3658      00
 3659              	.LASF23:
 3660 04b3 436F6D6D 		.ascii	"Command\000"
 3660      616E6400 
 3661              	.LASF81:
 3662 04bb 72656164 		.ascii	"ready\000"
 3662      7900
 3663              	.LASF3:
 3664 04c1 5F5F7569 		.ascii	"__uint8_t\000"
 3664      6E74385F 
 3664      7400
 3665              	.LASF44:
 3666 04cb 6E5F726F 		.ascii	"n_rootdir\000"
 3666      6F746469 
 3666      7200
 3667              	.LASF77:
 3668 04d5 44617461 		.ascii	"DataMs1\000"
 3668      4D733100 
 3669              	.LASF78:
 3670 04dd 44617461 		.ascii	"DataMs2\000"
 3670      4D733200 
 3671              	.LASF142:
 3672 04e5 63726561 		.ascii	"createFlag\000"
 3672      7465466C 
 3672      616700
 3673              	.LASF150:
 3674 04f0 736B6965 		.ascii	"skierDB\000"
 3674      72444200 
 3675              	.LASF129:
 3676 04f8 6D735469 		.ascii	"msTime\000"
 3676      6D6500
ARM GAS  C:\DOCUME~1\Admin\LOCALS~1\Temp\cccdPaPP.s 			page 76


 3677              	.LASF22:
 3678 04ff 73697A65 		.ascii	"sizetype\000"
 3678      74797065 
 3678      00
 3679              	.LASF9:
 3680 0508 6C6F6E67 		.ascii	"long unsigned int\000"
 3680      20756E73 
 3680      69676E65 
 3680      6420696E 
 3680      7400
 3681              	.LASF112:
 3682 051a 73756D54 		.ascii	"sumTime\000"
 3682      696D6500 
 3683              	.LASF16:
 3684 0522 696E7433 		.ascii	"int32_t\000"
 3684      325F7400 
 3685              	.LASF96:
 3686 052a 62797465 		.ascii	"byte\000"
 3686      00
 3687              	.LASF100:
 3688 052f 52656365 		.ascii	"ReceiveData\000"
 3688      69766544 
 3688      61746100 
 3689              	.LASF59:
 3690 053b 6F626A73 		.ascii	"objsize\000"
 3690      697A6500 
 3691              	.LASF63:
 3692 0543 636C7573 		.ascii	"clust\000"
 3692      7400
 3693              	.LASF1:
 3694 0549 756E7369 		.ascii	"unsigned char\000"
 3694      676E6564 
 3694      20636861 
 3694      7200
 3695              	.LASF8:
 3696 0557 5F5F7569 		.ascii	"__uint32_t\000"
 3696      6E743332 
 3696      5F7400
 3697              	.LASF27:
 3698 0562 43686563 		.ascii	"CheckSum\000"
 3698      6B53756D 
 3698      00
 3699              	.LASF91:
 3700 056b 72656164 		.ascii	"readStatus\000"
 3700      53746174 
 3700      757300
 3701              	.LASF92:
 3702 0576 53746172 		.ascii	"StartData\000"
 3702      74446174 
 3702      6100
 3703              	.LASF108:
 3704 0580 64656C69 		.ascii	"deliveryTime\000"
 3704      76657279 
 3704      54696D65 
 3704      00
 3705              	.LASF71:
 3706 058d 66697273 		.ascii	"firstElement\000"
ARM GAS  C:\DOCUME~1\Admin\LOCALS~1\Temp\cccdPaPP.s 			page 77


 3706      74456C65 
 3706      6D656E74 
 3706      00
 3707              	.LASF145:
 3708 059a 63757272 		.ascii	"currentSizeBuff\000"
 3708      656E7453 
 3708      697A6542 
 3708      75666600 
 3709              	.LASF159:
 3710 05aa 633A5C43 		.ascii	"c:\\Cypress\\Mainline_v2\\Finish\\fin_v0.cydsn\000"
 3710      79707265 
 3710      73735C4D 
 3710      61696E6C 
 3710      696E655F 
 3711              	.LASF33:
 3712 05d5 5365636F 		.ascii	"SecondsWay\000"
 3712      6E647357 
 3712      617900
 3713              	.LASF29:
 3714 05e0 756E6978 		.ascii	"unixStartSkier\000"
 3714      53746172 
 3714      74536B69 
 3714      657200
 3715              	.LASF152:
 3716 05ef 746D704D 		.ascii	"tmpMs\000"
 3716      7300
 3717              	.LASF149:
 3718 05f5 736B6965 		.ascii	"skiersFinished\000"
 3718      72734669 
 3718      6E697368 
 3718      656400
 3719              	.LASF101:
 3720 0604 52656164 		.ascii	"ReadRebootStartFlag\000"
 3720      5265626F 
 3720      6F745374 
 3720      61727446 
 3720      6C616700 
 3721              	.LASF0:
 3722 0618 7369676E 		.ascii	"signed char\000"
 3722      65642063 
 3722      68617200 
 3723              	.LASF5:
 3724 0624 73686F72 		.ascii	"short unsigned int\000"
 3724      7420756E 
 3724      7369676E 
 3724      65642069 
 3724      6E7400
 3725              	.LASF53:
 3726 0637 64617461 		.ascii	"database\000"
 3726      62617365 
 3726      00
 3727              	.LASF123:
 3728 0640 72656376 		.ascii	"recvDataNTP\000"
 3728      44617461 
 3728      4E545000 
 3729              	.LASF116:
 3730 064c 756E6978 		.ascii	"unixTime1\000"
ARM GAS  C:\DOCUME~1\Admin\LOCALS~1\Temp\cccdPaPP.s 			page 78


 3730      54696D65 
 3730      3100
 3731              	.LASF118:
 3732 0656 756E6978 		.ascii	"unixTime2\000"
 3732      54696D65 
 3732      3200
 3733              	.LASF120:
 3734 0660 756E6978 		.ascii	"unixTime3\000"
 3734      54696D65 
 3734      3300
 3735              	.LASF126:
 3736 066a 756E6978 		.ascii	"unixTime4\000"
 3736      54696D65 
 3736      3400
 3737              	.LASF31:
 3738 0674 756E6978 		.ascii	"unixFinishSkier\000"
 3738      46696E69 
 3738      7368536B 
 3738      69657200 
 3739              	.LASF20:
 3740 0684 646F7562 		.ascii	"double\000"
 3740      6C6500
 3741              	.LASF109:
 3742 068b 64656C69 		.ascii	"deliveryMs\000"
 3742      76657279 
 3742      4D7300
 3743              	.LASF162:
 3744 0696 4E545072 		.ascii	"NTPreceiveTime\000"
 3744      65636569 
 3744      76655469 
 3744      6D6500
 3745              	.LASF128:
 3746 06a5 4E545063 		.ascii	"NTPcalculateTime\000"
 3746      616C6375 
 3746      6C617465 
 3746      54696D65 
 3746      00
 3747              	.LASF160:
 3748 06b6 496E6974 		.ascii	"InitNetwork\000"
 3748      4E657477 
 3748      6F726B00 
 3749              	.LASF88:
 3750 06c2 756E6978 		.ascii	"unixStartTime\000"
 3750      53746172 
 3750      7454696D 
 3750      6500
 3751              	.LASF90:
 3752 06d0 6E657753 		.ascii	"newSkier\000"
 3752      6B696572 
 3752      00
 3753              	.LASF133:
 3754 06d9 746D704D 		.ascii	"tmpMsSlave\000"
 3754      73536C61 
 3754      766500
 3755              	.LASF158:
 3756 06e4 2E5C6C69 		.ascii	".\\lib_Network\\network.c\000"
 3756      625F4E65 
ARM GAS  C:\DOCUME~1\Admin\LOCALS~1\Temp\cccdPaPP.s 			page 79


 3756      74776F72 
 3756      6B5C6E65 
 3756      74776F72 
 3757              	.LASF58:
 3758 06fc 73636C75 		.ascii	"sclust\000"
 3758      737400
 3759              	.LASF161:
 3760 0703 4E657477 		.ascii	"NetworkStatus\000"
 3760      6F726B53 
 3760      74617475 
 3760      7300
 3761              		.ident	"GCC: (GNU Tools for ARM Embedded Processors) 4.9.3 20150303 (release) [ARM/embedded-4_9-br
