ARM GAS  C:\Users\Petro\AppData\Local\Temp\ccWEZPdt.s 			page 1


   1              		.cpu cortex-m0
   2              		.fpu softvfp
   3              		.eabi_attribute 20, 1
   4              		.eabi_attribute 21, 1
   5              		.eabi_attribute 23, 3
   6              		.eabi_attribute 24, 1
   7              		.eabi_attribute 25, 1
   8              		.eabi_attribute 26, 1
   9              		.eabi_attribute 30, 6
  10              		.eabi_attribute 34, 0
  11              		.eabi_attribute 18, 4
  12              		.code	16
  13              		.file	"network.c"
  14              		.text
  15              	.Ltext0:
  16              		.cfi_sections	.debug_frame
  17              		.comm	PROTO_STATE,1,1
  18              		.comm	LenD1,1,1
  19              		.comm	LenD2,1,1
  20              		.comm	LenD3,1,1
  21              		.comm	LenSeq,1,1
  22              		.comm	LenChS,1,1
  23              		.comm	LenC,1,1
  24              		.comm	fatFs,560,4
  25              		.comm	fileO,552,4
  26              		.comm	createFlag,4,4
  27              		.comm	bufferSkiersOnWay,128,8
  28              		.comm	bufferFifo,384,8
  29              		.comm	currentSizeBuff,4,4
  30              		.comm	currentElementStart,4,4
  31              		.comm	currentElementFinish,4,4
  32              		.comm	skiersStarted,2,2
  33              		.comm	skiersFinished,2,2
  34              		.comm	skierDB,7200,8
  35              		.comm	fifo,632,8
  36              		.comm	NtpLenD1,1,1
  37              		.comm	NtpLenMsD1,1,1
  38              		.comm	NtpLenD2,1,1
  39              		.comm	NtpLenMsD2,1,1
  40              		.comm	NtpLenId,1,1
  41              		.comm	NtpLenChS,1,1
  42              		.comm	outData,24,8
  43              		.comm	inData,24,8
  44              		.comm	numAttemps,4,4
  45              		.comm	noConnect,4,4
  46              		.comm	networkStatus,4,4
  47              		.section	.text.InitNetwork,"ax",%progbits
  48              		.align	2
  49              		.global	InitNetwork
  50              		.code	16
  51              		.thumb_func
  52              		.type	InitNetwork, %function
  53              	InitNetwork:
  54              	.LFB63:
  55              		.file 1 ".\\lib_Network\\network.c"
   1:.\lib_Network/network.c **** /* ========================================
   2:.\lib_Network/network.c ****  *
ARM GAS  C:\Users\Petro\AppData\Local\Temp\ccWEZPdt.s 			page 2


   3:.\lib_Network/network.c ****  * Copyright YOUR COMPANY, THE YEAR
   4:.\lib_Network/network.c ****  * All Rights Reserved
   5:.\lib_Network/network.c ****  * UNPUBLISHED, LICENSED SOFTWARE.
   6:.\lib_Network/network.c ****  *
   7:.\lib_Network/network.c ****  * CONFIDENTIAL AND PROPRIETARY INFORMATION
   8:.\lib_Network/network.c ****  * WHICH IS THE PROPERTY OF your company.
   9:.\lib_Network/network.c ****  *
  10:.\lib_Network/network.c ****  * ========================================
  11:.\lib_Network/network.c **** */
  12:.\lib_Network/network.c **** #include "lib_Network\network.h"
  13:.\lib_Network/network.c **** 
  14:.\lib_Network/network.c **** 
  15:.\lib_Network/network.c **** 
  16:.\lib_Network/network.c **** void InitNetwork(void)
  17:.\lib_Network/network.c **** {
  56              		.loc 1 17 0
  57              		.cfi_startproc
  58 0000 80B5     		push	{r7, lr}
  59              		.cfi_def_cfa_offset 8
  60              		.cfi_offset 7, -8
  61              		.cfi_offset 14, -4
  62 0002 00AF     		add	r7, sp, #0
  63              		.cfi_def_cfa_register 7
  18:.\lib_Network/network.c ****     UART_XB_Start();
  64              		.loc 1 18 0
  65 0004 FFF7FEFF 		bl	UART_XB_Start
  19:.\lib_Network/network.c ****     
  20:.\lib_Network/network.c ****     #ifdef DEBUG_PC
  21:.\lib_Network/network.c ****     SW_UART_DEBUG_Start();
  66              		.loc 1 21 0
  67 0008 FFF7FEFF 		bl	SW_UART_DEBUG_Start
  22:.\lib_Network/network.c ****     #endif
  23:.\lib_Network/network.c ****     
  24:.\lib_Network/network.c ****     inData.readStatus = READ_OK;
  68              		.loc 1 24 0
  69 000c 044B     		ldr	r3, .L2
  70 000e 0122     		mov	r2, #1
  71 0010 DA74     		strb	r2, [r3, #19]
  25:.\lib_Network/network.c ****     outData.writeStatus = NO_WRITE;
  72              		.loc 1 25 0
  73 0012 044B     		ldr	r3, .L2+4
  74 0014 0022     		mov	r2, #0
  75 0016 9A74     		strb	r2, [r3, #18]
  26:.\lib_Network/network.c ****     UART_XB_SpiUartClearRxBuffer();
  76              		.loc 1 26 0
  77 0018 FFF7FEFF 		bl	UART_XB_SpiUartClearRxBuffer
  27:.\lib_Network/network.c ****     
  28:.\lib_Network/network.c **** }
  78              		.loc 1 28 0
  79 001c BD46     		mov	sp, r7
  80              		@ sp needed
  81 001e 80BD     		pop	{r7, pc}
  82              	.L3:
  83              		.align	2
  84              	.L2:
  85 0020 00000000 		.word	inData
  86 0024 00000000 		.word	outData
ARM GAS  C:\Users\Petro\AppData\Local\Temp\ccWEZPdt.s 			page 3


  87              		.cfi_endproc
  88              	.LFE63:
  89              		.size	InitNetwork, .-InitNetwork
  90              		.section	.rodata
  91              		.align	2
  92              	.LC4:
  93 0000 25303258 		.ascii	"%02X:%016X%02X%02X%02X\000"
  93      3A253031 
  93      36582530 
  93      32582530 
  93      32582530 
  94 0017 00       		.align	2
  95              	.LC7:
  96 0018 6F757420 		.ascii	"out data - \000"
  96      64617461 
  96      202D2000 
  97              		.align	2
  98              	.LC9:
  99 0024 0A0D00   		.ascii	"\012\015\000"
 100              		.section	.text.SendData,"ax",%progbits
 101              		.align	2
 102              		.global	SendData
 103              		.code	16
 104              		.thumb_func
 105              		.type	SendData, %function
 106              	SendData:
 107              	.LFB64:
  29:.\lib_Network/network.c **** 
  30:.\lib_Network/network.c **** 
  31:.\lib_Network/network.c **** void SendData(void)
  32:.\lib_Network/network.c **** {   
 108              		.loc 1 32 0
 109              		.cfi_startproc
 110 0000 90B5     		push	{r4, r7, lr}
 111              		.cfi_def_cfa_offset 12
 112              		.cfi_offset 4, -12
 113              		.cfi_offset 7, -8
 114              		.cfi_offset 14, -4
 115 0002 9FB0     		sub	sp, sp, #124
 116              		.cfi_def_cfa_offset 136
 117 0004 04AF     		add	r7, sp, #16
 118              		.cfi_def_cfa 7, 120
  33:.\lib_Network/network.c ****     if( outData.writeStatus == NO_WRITE || inData.readStatus == READ_OK)
 119              		.loc 1 33 0
 120 0006 264B     		ldr	r3, .L7
 121 0008 9B7C     		ldrb	r3, [r3, #18]
 122 000a 002B     		cmp	r3, #0
 123 000c 03D0     		beq	.L5
 124              		.loc 1 33 0 is_stmt 0 discriminator 1
 125 000e 254B     		ldr	r3, .L7+4
 126 0010 DB7C     		ldrb	r3, [r3, #19]
 127 0012 012B     		cmp	r3, #1
 128 0014 41D1     		bne	.L4
 129              	.L5:
 130              	.LBB2:
  34:.\lib_Network/network.c ****     {
  35:.\lib_Network/network.c ****         char sendBuffer[DATA_BUFFER];
ARM GAS  C:\Users\Petro\AppData\Local\Temp\ccWEZPdt.s 			page 4


  36:.\lib_Network/network.c ****         char sendData[DATA_BUFFER];
  37:.\lib_Network/network.c ****         
  38:.\lib_Network/network.c ****         outData.countSkiers = SkierOnWay();
 131              		.loc 1 38 0 is_stmt 1
 132 0016 FFF7FEFF 		bl	SkierOnWay
 133 001a 031C     		mov	r3, r0
 134 001c DAB2     		uxtb	r2, r3
 135 001e 204B     		ldr	r3, .L7
 136 0020 DA70     		strb	r2, [r3, #3]
  39:.\lib_Network/network.c ****         
  40:.\lib_Network/network.c ****         /*for ntp protocol*/
  41:.\lib_Network/network.c ****         outData.reboot = 0;
 137              		.loc 1 41 0
 138 0022 1F4B     		ldr	r3, .L7
 139 0024 0022     		mov	r2, #0
 140 0026 9A70     		strb	r2, [r3, #2]
  42:.\lib_Network/network.c ****         
  43:.\lib_Network/network.c ****         /*pack data*/
  44:.\lib_Network/network.c ****         sprintf(sendData,"%02X:%016X%02X%02X%02X", 0u, 0u, outData.ready, outData.reboot, outData.c
 141              		.loc 1 44 0
 142 0028 1D4B     		ldr	r3, .L7
 143 002a 5B78     		ldrb	r3, [r3, #1]
 144 002c 1C1C     		mov	r4, r3
 145 002e 1C4B     		ldr	r3, .L7
 146 0030 9B78     		ldrb	r3, [r3, #2]
 147 0032 181C     		mov	r0, r3
 148 0034 1A4B     		ldr	r3, .L7
 149 0036 DB78     		ldrb	r3, [r3, #3]
 150 0038 191C     		mov	r1, r3
 151 003a 3423     		mov	r3, #52
 152 003c FA18     		add	r2, r7, r3
 153 003e 1A4B     		ldr	r3, .L7+8
 154 0040 0094     		str	r4, [sp]
 155 0042 0190     		str	r0, [sp, #4]
 156 0044 0291     		str	r1, [sp, #8]
 157 0046 101C     		mov	r0, r2
 158 0048 191C     		mov	r1, r3
 159 004a 0022     		mov	r2, #0
 160 004c 0023     		mov	r3, #0
 161 004e FFF7FEFF 		bl	sprintf
  45:.\lib_Network/network.c ****         PackData(sendBuffer, (uint8_t *)sendData, outData.IDpacket);
 162              		.loc 1 45 0
 163 0052 134B     		ldr	r3, .L7
 164 0054 1B78     		ldrb	r3, [r3]
 165 0056 1C1C     		mov	r4, r3
 166 0058 3A1C     		mov	r2, r7
 167 005a 3423     		mov	r3, #52
 168 005c FB18     		add	r3, r7, r3
 169 005e 101C     		mov	r0, r2
 170 0060 191C     		mov	r1, r3
 171 0062 221C     		mov	r2, r4
 172 0064 FFF7FEFF 		bl	PackData
  46:.\lib_Network/network.c ****         UART_XB_UartPutString(sendBuffer);
 173              		.loc 1 46 0
 174 0068 3B1C     		mov	r3, r7
 175 006a 181C     		mov	r0, r3
 176 006c FFF7FEFF 		bl	UART_XB_UartPutString
ARM GAS  C:\Users\Petro\AppData\Local\Temp\ccWEZPdt.s 			page 5


  47:.\lib_Network/network.c ****         
  48:.\lib_Network/network.c ****         /*flag transmit data*/
  49:.\lib_Network/network.c ****         outData.writeStatus = WRITE_OK;
 177              		.loc 1 49 0
 178 0070 0B4B     		ldr	r3, .L7
 179 0072 0122     		mov	r2, #1
 180 0074 9A74     		strb	r2, [r3, #18]
  50:.\lib_Network/network.c ****         inData.readStatus = NO_READ;
 181              		.loc 1 50 0
 182 0076 0B4B     		ldr	r3, .L7+4
 183 0078 0022     		mov	r2, #0
 184 007a DA74     		strb	r2, [r3, #19]
  51:.\lib_Network/network.c ****         
  52:.\lib_Network/network.c ****         /*set timeout*/
  53:.\lib_Network/network.c ****         noConnect = 0;
 185              		.loc 1 53 0
 186 007c 0B4B     		ldr	r3, .L7+12
 187 007e 0022     		mov	r2, #0
 188 0080 1A60     		str	r2, [r3]
  54:.\lib_Network/network.c ****         
  55:.\lib_Network/network.c ****         #ifdef DEBUG_PC
  56:.\lib_Network/network.c ****         SW_UART_DEBUG_PutString("out data - "); 
 189              		.loc 1 56 0
 190 0082 0B4B     		ldr	r3, .L7+16
 191 0084 181C     		mov	r0, r3
 192 0086 FFF7FEFF 		bl	SW_UART_DEBUG_PutString
  57:.\lib_Network/network.c ****         SW_UART_DEBUG_PutString(sendBuffer);   
 193              		.loc 1 57 0
 194 008a 3B1C     		mov	r3, r7
 195 008c 181C     		mov	r0, r3
 196 008e FFF7FEFF 		bl	SW_UART_DEBUG_PutString
  58:.\lib_Network/network.c ****         SW_UART_DEBUG_PutString("\n\r");
 197              		.loc 1 58 0
 198 0092 084B     		ldr	r3, .L7+20
 199 0094 181C     		mov	r0, r3
 200 0096 FFF7FEFF 		bl	SW_UART_DEBUG_PutString
 201              	.L4:
 202              	.LBE2:
  59:.\lib_Network/network.c ****         #endif  
  60:.\lib_Network/network.c ****     }
  61:.\lib_Network/network.c **** }
 203              		.loc 1 61 0
 204 009a BD46     		mov	sp, r7
 205 009c 1BB0     		add	sp, sp, #108
 206              		@ sp needed
 207 009e 90BD     		pop	{r4, r7, pc}
 208              	.L8:
 209              		.align	2
 210              	.L7:
 211 00a0 00000000 		.word	outData
 212 00a4 00000000 		.word	inData
 213 00a8 00000000 		.word	.LC4
 214 00ac 00000000 		.word	noConnect
 215 00b0 18000000 		.word	.LC7
 216 00b4 24000000 		.word	.LC9
 217              		.cfi_endproc
 218              	.LFE64:
ARM GAS  C:\Users\Petro\AppData\Local\Temp\ccWEZPdt.s 			page 6


 219              		.size	SendData, .-SendData
 220              		.section	.rodata
 221 0027 00       		.align	2
 222              	.LC15:
 223 0028 20202020 		.ascii	"       READ DATA OKEY\000"
 223      20202052 
 223      45414420 
 223      44415441 
 223      204F4B45 
 224 003e 0000     		.align	2
 225              	.LC18:
 226 0040 20202020 		.ascii	"       READ PREV DATA OKEY\000"
 226      20202052 
 226      45414420 
 226      50524556 
 226      20444154 
 227              		.section	.text.ReceiveData,"ax",%progbits
 228              		.align	2
 229              		.global	ReceiveData
 230              		.code	16
 231              		.thumb_func
 232              		.type	ReceiveData, %function
 233              	ReceiveData:
 234              	.LFB65:
  62:.\lib_Network/network.c **** 
  63:.\lib_Network/network.c **** 
  64:.\lib_Network/network.c **** uint32_t  ReceiveData(void)
  65:.\lib_Network/network.c **** {
 235              		.loc 1 65 0
 236              		.cfi_startproc
 237 0000 90B5     		push	{r4, r7, lr}
 238              		.cfi_def_cfa_offset 12
 239              		.cfi_offset 4, -12
 240              		.cfi_offset 7, -8
 241              		.cfi_offset 14, -4
 242 0002 8BB0     		sub	sp, sp, #44
 243              		.cfi_def_cfa_offset 56
 244 0004 00AF     		add	r7, sp, #0
 245              		.cfi_def_cfa_register 7
  66:.\lib_Network/network.c ****     
  67:.\lib_Network/network.c ****     if(inData.readStatus == NO_READ && outData.writeStatus == WRITE_OK)
 246              		.loc 1 67 0
 247 0006 5A4B     		ldr	r3, .L20
 248 0008 DB7C     		ldrb	r3, [r3, #19]
 249 000a 002B     		cmp	r3, #0
 250 000c 00D0     		beq	.LCB155
 251 000e AAE0     		b	.L10	@long jump
 252              	.LCB155:
 253              		.loc 1 67 0 is_stmt 0 discriminator 1
 254 0010 584B     		ldr	r3, .L20+4
 255 0012 9B7C     		ldrb	r3, [r3, #18]
 256 0014 012B     		cmp	r3, #1
 257 0016 00D0     		beq	.LCB159
 258 0018 A5E0     		b	.L10	@long jump
 259              	.LCB159:
 260              	.LBB3:
  68:.\lib_Network/network.c ****     {
ARM GAS  C:\Users\Petro\AppData\Local\Temp\ccWEZPdt.s 			page 7


  69:.\lib_Network/network.c ****         uint32_t result = 0;
 261              		.loc 1 69 0 is_stmt 1
 262 001a 0023     		mov	r3, #0
 263 001c 7B62     		str	r3, [r7, #36]
  70:.\lib_Network/network.c ****         int i;
  71:.\lib_Network/network.c ****         uint8_t byte;
  72:.\lib_Network/network.c ****         struct Resp recvData;
  73:.\lib_Network/network.c ****           
  74:.\lib_Network/network.c ****         while((UART_XB_SpiUartGetRxBufferSize() > 0) && ((byte=UART_XB_UartGetChar()) != 0))
 264              		.loc 1 74 0
 265 001e 7AE0     		b	.L11
 266              	.L17:
  75:.\lib_Network/network.c ****         { 
  76:.\lib_Network/network.c ****             result = UnpackData(&recvData, (uint8_t)(byte & 0xFF));
 267              		.loc 1 76 0
 268 0020 3A1C     		mov	r2, r7
 269 0022 2323     		mov	r3, #35
 270 0024 FB18     		add	r3, r7, r3
 271 0026 1B78     		ldrb	r3, [r3]
 272 0028 101C     		mov	r0, r2
 273 002a 191C     		mov	r1, r3
 274 002c FFF7FEFF 		bl	UnpackData
 275 0030 031C     		mov	r3, r0
 276 0032 7B62     		str	r3, [r7, #36]
  77:.\lib_Network/network.c ****             
  78:.\lib_Network/network.c ****             #ifdef DEBUG_PC
  79:.\lib_Network/network.c ****             SW_UART_DEBUG_PutChar(byte);
 277              		.loc 1 79 0
 278 0034 2323     		mov	r3, #35
 279 0036 FB18     		add	r3, r7, r3
 280 0038 1B78     		ldrb	r3, [r3]
 281 003a 181C     		mov	r0, r3
 282 003c FFF7FEFF 		bl	SW_UART_DEBUG_PutChar
  80:.\lib_Network/network.c ****             #endif
  81:.\lib_Network/network.c ****             
  82:.\lib_Network/network.c ****             if(recvData.EndPacket == 1)
 283              		.loc 1 82 0
 284 0040 3B1C     		mov	r3, r7
 285 0042 1B7E     		ldrb	r3, [r3, #24]
 286 0044 012B     		cmp	r3, #1
 287 0046 66D1     		bne	.L11
  83:.\lib_Network/network.c ****             {
  84:.\lib_Network/network.c ****                 inData.IDpacket = recvData.Seq;
 288              		.loc 1 84 0
 289 0048 3B1C     		mov	r3, r7
 290 004a 1B88     		ldrh	r3, [r3]
 291 004c DAB2     		uxtb	r2, r3
 292 004e 484B     		ldr	r3, .L20
 293 0050 1A70     		strb	r2, [r3]
  85:.\lib_Network/network.c ****                 
  86:.\lib_Network/network.c ****                 /*id packet ok*/
  87:.\lib_Network/network.c ****                 if(outData.IDpacket == inData.IDpacket)
 294              		.loc 1 87 0
 295 0052 484B     		ldr	r3, .L20+4
 296 0054 1A78     		ldrb	r2, [r3]
 297 0056 464B     		ldr	r3, .L20
 298 0058 1B78     		ldrb	r3, [r3]
ARM GAS  C:\Users\Petro\AppData\Local\Temp\ccWEZPdt.s 			page 8


 299 005a 9A42     		cmp	r2, r3
 300 005c 35D1     		bne	.L12
  88:.\lib_Network/network.c ****                 {
  89:.\lib_Network/network.c ****                     inData.readStatus = READ_OK;
 301              		.loc 1 89 0
 302 005e 444B     		ldr	r3, .L20
 303 0060 0122     		mov	r2, #1
 304 0062 DA74     		strb	r2, [r3, #19]
  90:.\lib_Network/network.c ****                     outData.writeStatus = NO_WRITE;
 305              		.loc 1 90 0
 306 0064 434B     		ldr	r3, .L20+4
 307 0066 0022     		mov	r2, #0
 308 0068 9A74     		strb	r2, [r3, #18]
  91:.\lib_Network/network.c ****                     
  92:.\lib_Network/network.c ****                     /*connect network*/
  93:.\lib_Network/network.c ****                     networkStatus = NETWORK_CONN;
 309              		.loc 1 93 0
 310 006a 434B     		ldr	r3, .L20+8
 311 006c 0122     		mov	r2, #1
 312 006e 1A60     		str	r2, [r3]
  94:.\lib_Network/network.c ****                     noConnect = 0;
 313              		.loc 1 94 0
 314 0070 424B     		ldr	r3, .L20+12
 315 0072 0022     		mov	r2, #0
 316 0074 1A60     		str	r2, [r3]
  95:.\lib_Network/network.c ****                     
  96:.\lib_Network/network.c ****                     /*write data*/
  97:.\lib_Network/network.c ****                     inData.newSkier = recvData.Data3;
 317              		.loc 1 97 0
 318 0076 3B1C     		mov	r3, r7
 319 0078 9A7C     		ldrb	r2, [r3, #18]
 320 007a 3D4B     		ldr	r3, .L20
 321 007c 9A74     		strb	r2, [r3, #18]
  98:.\lib_Network/network.c ****                     inData.unixStartTime = recvData.Data1;
 322              		.loc 1 98 0
 323 007e 3B1C     		mov	r3, r7
 324 0080 DC68     		ldr	r4, [r3, #12]
 325 0082 9B68     		ldr	r3, [r3, #8]
 326 0084 3A4A     		ldr	r2, .L20
 327 0086 9360     		str	r3, [r2, #8]
 328 0088 D460     		str	r4, [r2, #12]
  99:.\lib_Network/network.c ****                     inData.startMsTime = recvData.Data2;
 329              		.loc 1 99 0
 330 008a 3B1C     		mov	r3, r7
 331 008c 1A8A     		ldrh	r2, [r3, #16]
 332 008e 384B     		ldr	r3, .L20
 333 0090 1A82     		strh	r2, [r3, #16]
 100:.\lib_Network/network.c ****                     
 101:.\lib_Network/network.c ****                     /*if new skier on track*/
 102:.\lib_Network/network.c ****                     if(inData.newSkier == NEW_SKIER_IN_TARCK )
 334              		.loc 1 102 0
 335 0092 374B     		ldr	r3, .L20
 336 0094 9B7C     		ldrb	r3, [r3, #18]
 337 0096 012B     		cmp	r3, #1
 338 0098 08D1     		bne	.L13
 103:.\lib_Network/network.c ****                     {
 104:.\lib_Network/network.c ****                         WriteStartTime(inData.unixStartTime, inData.startMsTime);
ARM GAS  C:\Users\Petro\AppData\Local\Temp\ccWEZPdt.s 			page 9


 339              		.loc 1 104 0
 340 009a 354B     		ldr	r3, .L20
 341 009c DC68     		ldr	r4, [r3, #12]
 342 009e 9B68     		ldr	r3, [r3, #8]
 343 00a0 334A     		ldr	r2, .L20
 344 00a2 128A     		ldrh	r2, [r2, #16]
 345 00a4 181C     		mov	r0, r3
 346 00a6 211C     		mov	r1, r4
 347 00a8 FFF7FEFF 		bl	WriteStartTime
 348              	.L13:
 105:.\lib_Network/network.c ****                     }
 106:.\lib_Network/network.c ****                     
 107:.\lib_Network/network.c ****                     /*next packet*/
 108:.\lib_Network/network.c ****                     outData.IDpacket++;
 349              		.loc 1 108 0
 350 00ac 314B     		ldr	r3, .L20+4
 351 00ae 1B78     		ldrb	r3, [r3]
 352 00b0 0133     		add	r3, r3, #1
 353 00b2 DAB2     		uxtb	r2, r3
 354 00b4 2F4B     		ldr	r3, .L20+4
 355 00b6 1A70     		strb	r2, [r3]
 109:.\lib_Network/network.c ****                     
 110:.\lib_Network/network.c ****                     #ifdef DEBUG_PC
 111:.\lib_Network/network.c ****                     SW_UART_DEBUG_PutString("       READ DATA OKEY");   
 356              		.loc 1 111 0
 357 00b8 314B     		ldr	r3, .L20+16
 358 00ba 181C     		mov	r0, r3
 359 00bc FFF7FEFF 		bl	SW_UART_DEBUG_PutString
 112:.\lib_Network/network.c ****                     SW_UART_DEBUG_PutString("\n\r");
 360              		.loc 1 112 0
 361 00c0 304B     		ldr	r3, .L20+20
 362 00c2 181C     		mov	r0, r3
 363 00c4 FFF7FEFF 		bl	SW_UART_DEBUG_PutString
 364 00c8 23E0     		b	.L14
 365              	.L12:
 113:.\lib_Network/network.c ****                     #endif 
 114:.\lib_Network/network.c ****                 }  
 115:.\lib_Network/network.c ****                 /* if prev packet late*/
 116:.\lib_Network/network.c ****                 else if(outData.IDpacket == (inData.IDpacket + 1))
 366              		.loc 1 116 0
 367 00ca 2A4B     		ldr	r3, .L20+4
 368 00cc 1B78     		ldrb	r3, [r3]
 369 00ce 1A1C     		mov	r2, r3
 370 00d0 274B     		ldr	r3, .L20
 371 00d2 1B78     		ldrb	r3, [r3]
 372 00d4 0133     		add	r3, r3, #1
 373 00d6 9A42     		cmp	r2, r3
 374 00d8 1BD1     		bne	.L14
 117:.\lib_Network/network.c ****                 {
 118:.\lib_Network/network.c ****                     inData.newSkier = recvData.Data3;
 375              		.loc 1 118 0
 376 00da 3B1C     		mov	r3, r7
 377 00dc 9A7C     		ldrb	r2, [r3, #18]
 378 00de 244B     		ldr	r3, .L20
 379 00e0 9A74     		strb	r2, [r3, #18]
 119:.\lib_Network/network.c ****                     inData.unixStartTime = recvData.Data1;
 380              		.loc 1 119 0
ARM GAS  C:\Users\Petro\AppData\Local\Temp\ccWEZPdt.s 			page 10


 381 00e2 3B1C     		mov	r3, r7
 382 00e4 DC68     		ldr	r4, [r3, #12]
 383 00e6 9B68     		ldr	r3, [r3, #8]
 384 00e8 214A     		ldr	r2, .L20
 385 00ea 9360     		str	r3, [r2, #8]
 386 00ec D460     		str	r4, [r2, #12]
 120:.\lib_Network/network.c ****                     inData.startMsTime = recvData.Data2;
 387              		.loc 1 120 0
 388 00ee 3B1C     		mov	r3, r7
 389 00f0 1A8A     		ldrh	r2, [r3, #16]
 390 00f2 1F4B     		ldr	r3, .L20
 391 00f4 1A82     		strh	r2, [r3, #16]
 121:.\lib_Network/network.c ****                     
 122:.\lib_Network/network.c ****                     networkStatus = NETWORK_CONN;
 392              		.loc 1 122 0
 393 00f6 204B     		ldr	r3, .L20+8
 394 00f8 0122     		mov	r2, #1
 395 00fa 1A60     		str	r2, [r3]
 123:.\lib_Network/network.c ****                     noConnect = 0;
 396              		.loc 1 123 0
 397 00fc 1F4B     		ldr	r3, .L20+12
 398 00fe 0022     		mov	r2, #0
 399 0100 1A60     		str	r2, [r3]
 124:.\lib_Network/network.c ****                     
 125:.\lib_Network/network.c ****                     #ifdef DEBUG_PC
 126:.\lib_Network/network.c ****                     SW_UART_DEBUG_PutString("       READ PREV DATA OKEY");   
 400              		.loc 1 126 0
 401 0102 214B     		ldr	r3, .L20+24
 402 0104 181C     		mov	r0, r3
 403 0106 FFF7FEFF 		bl	SW_UART_DEBUG_PutString
 127:.\lib_Network/network.c ****                     SW_UART_DEBUG_PutString("\n\r");
 404              		.loc 1 127 0
 405 010a 1E4B     		ldr	r3, .L20+20
 406 010c 181C     		mov	r0, r3
 407 010e FFF7FEFF 		bl	SW_UART_DEBUG_PutString
 408              	.L14:
 128:.\lib_Network/network.c ****                     #endif 
 129:.\lib_Network/network.c ****                 }
 130:.\lib_Network/network.c ****                 return  NETWORK_CONN;  
 409              		.loc 1 130 0
 410 0112 0123     		mov	r3, #1
 411 0114 28E0     		b	.L19
 412              	.L11:
  74:.\lib_Network/network.c ****         { 
 413              		.loc 1 74 0
 414 0116 FFF7FEFF 		bl	UART_XB_SpiUartGetRxBufferSize
 415 011a 031E     		sub	r3, r0, #0
 416 011c 0BD0     		beq	.L16
  74:.\lib_Network/network.c ****         { 
 417              		.loc 1 74 0 is_stmt 0 discriminator 1
 418 011e FFF7FEFF 		bl	UART_XB_UartGetChar
 419 0122 021C     		mov	r2, r0
 420 0124 2323     		mov	r3, #35
 421 0126 FB18     		add	r3, r7, r3
 422 0128 1A70     		strb	r2, [r3]
 423 012a 2323     		mov	r3, #35
 424 012c FB18     		add	r3, r7, r3
ARM GAS  C:\Users\Petro\AppData\Local\Temp\ccWEZPdt.s 			page 11


 425 012e 1B78     		ldrb	r3, [r3]
 426 0130 002B     		cmp	r3, #0
 427 0132 00D0     		beq	.LCB301
 428 0134 74E7     		b	.L17	@long jump
 429              	.LCB301:
 430              	.L16:
 131:.\lib_Network/network.c ****             }
 132:.\lib_Network/network.c **** 
 133:.\lib_Network/network.c ****         }
 134:.\lib_Network/network.c ****         
 135:.\lib_Network/network.c ****         noConnect++;
 431              		.loc 1 135 0 is_stmt 1
 432 0136 114B     		ldr	r3, .L20+12
 433 0138 1B68     		ldr	r3, [r3]
 434 013a 5A1C     		add	r2, r3, #1
 435 013c 0F4B     		ldr	r3, .L20+12
 436 013e 1A60     		str	r2, [r3]
 136:.\lib_Network/network.c ****         if(noConnect >= NETWORK_TIMEOUT)
 437              		.loc 1 136 0
 438 0140 0E4B     		ldr	r3, .L20+12
 439 0142 1B68     		ldr	r3, [r3]
 440 0144 1D2B     		cmp	r3, #29
 441 0146 08D9     		bls	.L18
 137:.\lib_Network/network.c ****         {
 138:.\lib_Network/network.c ****             outData.writeStatus = NO_WRITE;
 442              		.loc 1 138 0
 443 0148 0A4B     		ldr	r3, .L20+4
 444 014a 0022     		mov	r2, #0
 445 014c 9A74     		strb	r2, [r3, #18]
 139:.\lib_Network/network.c ****             inData.readStatus = NO_READ;
 446              		.loc 1 139 0
 447 014e 084B     		ldr	r3, .L20
 448 0150 0022     		mov	r2, #0
 449 0152 DA74     		strb	r2, [r3, #19]
 140:.\lib_Network/network.c ****             networkStatus = NETWORK_DISCONN;
 450              		.loc 1 140 0
 451 0154 084B     		ldr	r3, .L20+8
 452 0156 0022     		mov	r2, #0
 453 0158 1A60     		str	r2, [r3]
 454              	.L18:
 141:.\lib_Network/network.c ****         }
 142:.\lib_Network/network.c **** 
 143:.\lib_Network/network.c ****         #ifdef DEBUG_PC
 144:.\lib_Network/network.c ****         //SW_UART_DEBUG_PutString("ERROR READ!!!!");   
 145:.\lib_Network/network.c ****         SW_UART_DEBUG_PutString("\n\r");
 455              		.loc 1 145 0
 456 015a 0A4B     		ldr	r3, .L20+20
 457 015c 181C     		mov	r0, r3
 458 015e FFF7FEFF 		bl	SW_UART_DEBUG_PutString
 146:.\lib_Network/network.c ****         #endif 
 147:.\lib_Network/network.c ****         
 148:.\lib_Network/network.c ****         return  NETWORK_DISCONN;
 459              		.loc 1 148 0
 460 0162 0023     		mov	r3, #0
 461 0164 00E0     		b	.L19
 462              	.L10:
 463              	.LBE3:
ARM GAS  C:\Users\Petro\AppData\Local\Temp\ccWEZPdt.s 			page 12


 149:.\lib_Network/network.c ****     }
 150:.\lib_Network/network.c ****     return 0;
 464              		.loc 1 150 0
 465 0166 0023     		mov	r3, #0
 466              	.L19:
 151:.\lib_Network/network.c **** }
 467              		.loc 1 151 0 discriminator 1
 468 0168 181C     		mov	r0, r3
 469 016a BD46     		mov	sp, r7
 470 016c 0BB0     		add	sp, sp, #44
 471              		@ sp needed
 472 016e 90BD     		pop	{r4, r7, pc}
 473              	.L21:
 474              		.align	2
 475              	.L20:
 476 0170 00000000 		.word	inData
 477 0174 00000000 		.word	outData
 478 0178 00000000 		.word	networkStatus
 479 017c 00000000 		.word	noConnect
 480 0180 28000000 		.word	.LC15
 481 0184 24000000 		.word	.LC9
 482 0188 40000000 		.word	.LC18
 483              		.cfi_endproc
 484              	.LFE65:
 485              		.size	ReceiveData, .-ReceiveData
 486              		.section	.text.SendFinStatus,"ax",%progbits
 487              		.align	2
 488              		.global	SendFinStatus
 489              		.code	16
 490              		.thumb_func
 491              		.type	SendFinStatus, %function
 492              	SendFinStatus:
 493              	.LFB66:
 152:.\lib_Network/network.c **** 
 153:.\lib_Network/network.c **** 
 154:.\lib_Network/network.c **** 
 155:.\lib_Network/network.c **** void SendFinStatus(uint32_t ready)
 156:.\lib_Network/network.c **** {
 494              		.loc 1 156 0
 495              		.cfi_startproc
 496 0000 80B5     		push	{r7, lr}
 497              		.cfi_def_cfa_offset 8
 498              		.cfi_offset 7, -8
 499              		.cfi_offset 14, -4
 500 0002 82B0     		sub	sp, sp, #8
 501              		.cfi_def_cfa_offset 16
 502 0004 00AF     		add	r7, sp, #0
 503              		.cfi_def_cfa_register 7
 504 0006 7860     		str	r0, [r7, #4]
 157:.\lib_Network/network.c ****     outData.ready = ready;
 505              		.loc 1 157 0
 506 0008 7B68     		ldr	r3, [r7, #4]
 507 000a DAB2     		uxtb	r2, r3
 508 000c 024B     		ldr	r3, .L23
 509 000e 5A70     		strb	r2, [r3, #1]
 158:.\lib_Network/network.c **** }
 510              		.loc 1 158 0
ARM GAS  C:\Users\Petro\AppData\Local\Temp\ccWEZPdt.s 			page 13


 511 0010 BD46     		mov	sp, r7
 512 0012 02B0     		add	sp, sp, #8
 513              		@ sp needed
 514 0014 80BD     		pop	{r7, pc}
 515              	.L24:
 516 0016 C046     		.align	2
 517              	.L23:
 518 0018 00000000 		.word	outData
 519              		.cfi_endproc
 520              	.LFE66:
 521              		.size	SendFinStatus, .-SendFinStatus
 522              		.section	.text.NetworkStatus,"ax",%progbits
 523              		.align	2
 524              		.global	NetworkStatus
 525              		.code	16
 526              		.thumb_func
 527              		.type	NetworkStatus, %function
 528              	NetworkStatus:
 529              	.LFB67:
 159:.\lib_Network/network.c **** 
 160:.\lib_Network/network.c **** uint32_t NetworkStatus(void)
 161:.\lib_Network/network.c **** {
 530              		.loc 1 161 0
 531              		.cfi_startproc
 532 0000 80B5     		push	{r7, lr}
 533              		.cfi_def_cfa_offset 8
 534              		.cfi_offset 7, -8
 535              		.cfi_offset 14, -4
 536 0002 00AF     		add	r7, sp, #0
 537              		.cfi_def_cfa_register 7
 162:.\lib_Network/network.c ****     return networkStatus;
 538              		.loc 1 162 0
 539 0004 024B     		ldr	r3, .L27
 540 0006 1B68     		ldr	r3, [r3]
 163:.\lib_Network/network.c **** }
 541              		.loc 1 163 0
 542 0008 181C     		mov	r0, r3
 543 000a BD46     		mov	sp, r7
 544              		@ sp needed
 545 000c 80BD     		pop	{r7, pc}
 546              	.L28:
 547 000e C046     		.align	2
 548              	.L27:
 549 0010 00000000 		.word	networkStatus
 550              		.cfi_endproc
 551              	.LFE67:
 552              		.size	NetworkStatus, .-NetworkStatus
 553              		.section	.rodata
 554 005b 00       		.align	2
 555              	.LC22:
 556 005c 0A0D7365 		.ascii	"\012\015send time t1= %u\012\015\000"
 556      6E642074 
 556      696D6520 
 556      74313D20 
 556      25750A0D 
 557 0071 000000   		.align	2
 558              	.LC24:
ARM GAS  C:\Users\Petro\AppData\Local\Temp\ccWEZPdt.s 			page 14


 559 0074 0A0D7432 		.ascii	"\012\015t2= %u:%u, t3= %u:%u\012\015\000"
 559      3D202575 
 559      3A25752C 
 559      2074333D 
 559      2025753A 
 560 008d 000000   		.align	2
 561              	.LC26:
 562 0090 0A0D4669 		.ascii	"\012\015Finish i= %u, noConnect= %u\012\015\000"
 562      6E697368 
 562      20693D20 
 562      25752C20 
 562      6E6F436F 
 563              		.align	2
 564              	.LC28:
 565 00b0 0A0D2044 		.ascii	"\012\015 DEV!!! time s= %u, ms = %u\012\015\000"
 565      45562121 
 565      21207469 
 565      6D652073 
 565      3D202575 
 566              		.global	__aeabi_idiv
 567              		.global	__aeabi_uidiv
 568              		.align	2
 569              	.LC30:
 570 00d0 53415645 		.ascii	"SAVE REAL TIME!!!!!!!!!!!!!!!\000"
 570      20524541 
 570      4C205449 
 570      4D452121 
 570      21212121 
 571 00ee 0000     		.align	2
 572              	.LC32:
 573 00f0 0A0D7265 		.ascii	"\012\015real time= %u, delivery= %u\012\015\000"
 573      616C2074 
 573      696D653D 
 573      2025752C 
 573      2064656C 
 574              		.section	.text.NTPsync,"ax",%progbits
 575              		.align	2
 576              		.global	NTPsync
 577              		.code	16
 578              		.thumb_func
 579              		.type	NTPsync, %function
 580              	NTPsync:
 581              	.LFB68:
 164:.\lib_Network/network.c **** 
 165:.\lib_Network/network.c **** /*NTP */
 166:.\lib_Network/network.c **** 
 167:.\lib_Network/network.c **** uint32_t NTPsync(void)
 168:.\lib_Network/network.c **** {
 582              		.loc 1 168 0
 583              		.cfi_startproc
 584 0000 B0B5     		push	{r4, r5, r7, lr}
 585              		.cfi_def_cfa_offset 16
 586              		.cfi_offset 4, -16
 587              		.cfi_offset 5, -12
 588              		.cfi_offset 7, -8
 589              		.cfi_offset 14, -4
 590 0002 AEB0     		sub	sp, sp, #184
ARM GAS  C:\Users\Petro\AppData\Local\Temp\ccWEZPdt.s 			page 15


 591              		.cfi_def_cfa_offset 200
 592 0004 02AF     		add	r7, sp, #8
 593              		.cfi_def_cfa 7, 192
 169:.\lib_Network/network.c ****     int i;
 170:.\lib_Network/network.c ****     uint16_t result;
 171:.\lib_Network/network.c ****     uint32_t IDpacket;
 172:.\lib_Network/network.c ****     uint32_t IDreceivePacket;
 173:.\lib_Network/network.c ****     uint32_t unixTime[4];
 174:.\lib_Network/network.c ****     uint16_t millisTime[4];
 175:.\lib_Network/network.c ****     uint32_t deliveryTime;
 176:.\lib_Network/network.c ****     uint16_t deliveryMs;
 177:.\lib_Network/network.c ****     uint32_t resultReceive;
 178:.\lib_Network/network.c ****     uint32_t noConnect;
 179:.\lib_Network/network.c ****     signed int sumTime;
 180:.\lib_Network/network.c ****     signed int sumMillis;
 181:.\lib_Network/network.c ****     
 182:.\lib_Network/network.c ****     deliveryTime = 0;
 594              		.loc 1 182 0
 595 0006 0023     		mov	r3, #0
 596 0008 A022     		mov	r2, #160
 597 000a BA18     		add	r2, r7, r2
 598 000c 1360     		str	r3, [r2]
 183:.\lib_Network/network.c ****     deliveryMs = 0;
 599              		.loc 1 183 0
 600 000e 9E23     		mov	r3, #158
 601 0010 FB18     		add	r3, r7, r3
 602 0012 0022     		mov	r2, #0
 603 0014 1A80     		strh	r2, [r3]
 184:.\lib_Network/network.c ****     IDpacket = 0;
 604              		.loc 1 184 0
 605 0016 0023     		mov	r3, #0
 606 0018 A422     		mov	r2, #164
 607 001a BA18     		add	r2, r7, r2
 608 001c 1360     		str	r3, [r2]
 185:.\lib_Network/network.c ****     noConnect = 0;
 609              		.loc 1 185 0
 610 001e 0023     		mov	r3, #0
 611 0020 9822     		mov	r2, #152
 612 0022 BA18     		add	r2, r7, r2
 613 0024 1360     		str	r3, [r2]
 186:.\lib_Network/network.c ****     for(i=0; i < NUM_TRY_SYNC && noConnect <= NUM_CONNECT_ATTEMPS;)
 614              		.loc 1 186 0
 615 0026 0023     		mov	r3, #0
 616 0028 AC22     		mov	r2, #172
 617 002a BA18     		add	r2, r7, r2
 618 002c 1360     		str	r3, [r2]
 619 002e 35E1     		b	.L30
 620              	.L39:
 621              	.LBB4:
 187:.\lib_Network/network.c ****     {
 188:.\lib_Network/network.c ****         /*send real time to start*/
 189:.\lib_Network/network.c ****         unixTime[T1] = RTCGetUnixTime();
 622              		.loc 1 189 0
 623 0030 FFF7FEFF 		bl	RTCGetUnixTime
 624 0034 031C     		mov	r3, r0
 625 0036 0C1C     		mov	r4, r1
 626 0038 1A1C     		mov	r2, r3
ARM GAS  C:\Users\Petro\AppData\Local\Temp\ccWEZPdt.s 			page 16


 627 003a 7023     		mov	r3, #112
 628 003c FB18     		add	r3, r7, r3
 629 003e 1A60     		str	r2, [r3]
 190:.\lib_Network/network.c ****         millisTime[T1] = RTCgetRecentMs();
 630              		.loc 1 190 0
 631 0040 FFF7FEFF 		bl	RTCgetRecentMs
 632 0044 031C     		mov	r3, r0
 633 0046 9AB2     		uxth	r2, r3
 634 0048 6823     		mov	r3, #104
 635 004a FB18     		add	r3, r7, r3
 636 004c 1A80     		strh	r2, [r3]
 191:.\lib_Network/network.c ****         NTPsendTime(unixTime[T1], millisTime[T1], IDpacket);
 637              		.loc 1 191 0
 638 004e 7023     		mov	r3, #112
 639 0050 FB18     		add	r3, r7, r3
 640 0052 1968     		ldr	r1, [r3]
 641 0054 6823     		mov	r3, #104
 642 0056 FB18     		add	r3, r7, r3
 643 0058 1A88     		ldrh	r2, [r3]
 644 005a A423     		mov	r3, #164
 645 005c FB18     		add	r3, r7, r3
 646 005e 1B68     		ldr	r3, [r3]
 647 0060 081C     		mov	r0, r1
 648 0062 111C     		mov	r1, r2
 649 0064 1A1C     		mov	r2, r3
 650 0066 FFF7FEFF 		bl	NTPsendTime
 192:.\lib_Network/network.c ****         
 193:.\lib_Network/network.c ****         #ifdef DEBUG_PC 
 194:.\lib_Network/network.c ****         char buffer[100];
 195:.\lib_Network/network.c ****         sprintf(buffer,"\n\rsend time t1= %u\n\r",unixTime[T1]);
 651              		.loc 1 195 0
 652 006a 7023     		mov	r3, #112
 653 006c FB18     		add	r3, r7, r3
 654 006e 1B68     		ldr	r3, [r3]
 655 0070 391D     		add	r1, r7, #4
 656 0072 A44A     		ldr	r2, .L46
 657 0074 081C     		mov	r0, r1
 658 0076 111C     		mov	r1, r2
 659 0078 1A1C     		mov	r2, r3
 660 007a FFF7FEFF 		bl	sprintf
 196:.\lib_Network/network.c ****         SW_UART_DEBUG_PutString(buffer);
 661              		.loc 1 196 0
 662 007e 3B1D     		add	r3, r7, #4
 663 0080 181C     		mov	r0, r3
 664 0082 FFF7FEFF 		bl	SW_UART_DEBUG_PutString
 197:.\lib_Network/network.c ****         #endif
 198:.\lib_Network/network.c ****         
 199:.\lib_Network/network.c ****         /*receive time from start*/
 200:.\lib_Network/network.c ****         resultReceive = NTPreceiveTime(&unixTime[T2],&millisTime[T2], &unixTime[T3], &millisTime[T3
 665              		.loc 1 200 0
 666 0086 7023     		mov	r3, #112
 667 0088 FB18     		add	r3, r7, r3
 668 008a 181D     		add	r0, r3, #4
 669 008c 6823     		mov	r3, #104
 670 008e FB18     		add	r3, r7, r3
 671 0090 991C     		add	r1, r3, #2
 672 0092 7023     		mov	r3, #112
ARM GAS  C:\Users\Petro\AppData\Local\Temp\ccWEZPdt.s 			page 17


 673 0094 FB18     		add	r3, r7, r3
 674 0096 0833     		add	r3, r3, #8
 675 0098 1A1C     		mov	r2, r3
 676 009a 6823     		mov	r3, #104
 677 009c FB18     		add	r3, r7, r3
 678 009e 1C1D     		add	r4, r3, #4
 679 00a0 8023     		mov	r3, #128
 680 00a2 FB18     		add	r3, r7, r3
 681 00a4 0093     		str	r3, [sp]
 682 00a6 231C     		mov	r3, r4
 683 00a8 FFF7FEFF 		bl	NTPreceiveTime
 684 00ac 031C     		mov	r3, r0
 685 00ae 8C22     		mov	r2, #140
 686 00b0 BA18     		add	r2, r7, r2
 687 00b2 1360     		str	r3, [r2]
 201:.\lib_Network/network.c ****         
 202:.\lib_Network/network.c ****         #ifdef DEBUG_PC 
 203:.\lib_Network/network.c ****         if(resultReceive == READ_OK)
 688              		.loc 1 203 0
 689 00b4 8C23     		mov	r3, #140
 690 00b6 FB18     		add	r3, r7, r3
 691 00b8 1B68     		ldr	r3, [r3]
 692 00ba 012B     		cmp	r3, #1
 693 00bc 1BD1     		bne	.L31
 204:.\lib_Network/network.c ****         {
 205:.\lib_Network/network.c ****             sprintf(buffer,"\n\rt2= %u:%u, t3= %u:%u\n\r",unixTime[T2],millisTime[T2],unixTime[T3],
 694              		.loc 1 205 0
 695 00be 7023     		mov	r3, #112
 696 00c0 FB18     		add	r3, r7, r3
 697 00c2 5C68     		ldr	r4, [r3, #4]
 698 00c4 6823     		mov	r3, #104
 699 00c6 FB18     		add	r3, r7, r3
 700 00c8 5B88     		ldrh	r3, [r3, #2]
 701 00ca 1D1C     		mov	r5, r3
 702 00cc 7023     		mov	r3, #112
 703 00ce FB18     		add	r3, r7, r3
 704 00d0 9B68     		ldr	r3, [r3, #8]
 705 00d2 6822     		mov	r2, #104
 706 00d4 BA18     		add	r2, r7, r2
 707 00d6 9288     		ldrh	r2, [r2, #4]
 708 00d8 101C     		mov	r0, r2
 709 00da 391D     		add	r1, r7, #4
 710 00dc 8A4A     		ldr	r2, .L46+4
 711 00de 0093     		str	r3, [sp]
 712 00e0 0190     		str	r0, [sp, #4]
 713 00e2 081C     		mov	r0, r1
 714 00e4 111C     		mov	r1, r2
 715 00e6 221C     		mov	r2, r4
 716 00e8 2B1C     		mov	r3, r5
 717 00ea FFF7FEFF 		bl	sprintf
 206:.\lib_Network/network.c ****             SW_UART_DEBUG_PutString(buffer);
 718              		.loc 1 206 0
 719 00ee 3B1D     		add	r3, r7, #4
 720 00f0 181C     		mov	r0, r3
 721 00f2 FFF7FEFF 		bl	SW_UART_DEBUG_PutString
 722              	.L31:
 207:.\lib_Network/network.c ****         }
ARM GAS  C:\Users\Petro\AppData\Local\Temp\ccWEZPdt.s 			page 18


 208:.\lib_Network/network.c ****         sprintf(buffer,"\n\rFinish i= %u, noConnect= %u\n\r",i,noConnect);
 723              		.loc 1 208 0
 724 00f6 381D     		add	r0, r7, #4
 725 00f8 8449     		ldr	r1, .L46+8
 726 00fa AC23     		mov	r3, #172
 727 00fc FB18     		add	r3, r7, r3
 728 00fe 1A68     		ldr	r2, [r3]
 729 0100 9823     		mov	r3, #152
 730 0102 FB18     		add	r3, r7, r3
 731 0104 1B68     		ldr	r3, [r3]
 732 0106 FFF7FEFF 		bl	sprintf
 209:.\lib_Network/network.c ****         SW_UART_DEBUG_PutString(buffer);
 733              		.loc 1 209 0
 734 010a 3B1D     		add	r3, r7, #4
 735 010c 181C     		mov	r0, r3
 736 010e FFF7FEFF 		bl	SW_UART_DEBUG_PutString
 210:.\lib_Network/network.c ****         #endif
 211:.\lib_Network/network.c ****         
 212:.\lib_Network/network.c ****         if((resultReceive == READ_OK) && (IDreceivePacket == IDpacket))
 737              		.loc 1 212 0
 738 0112 8C23     		mov	r3, #140
 739 0114 FB18     		add	r3, r7, r3
 740 0116 1B68     		ldr	r3, [r3]
 741 0118 012B     		cmp	r3, #1
 742 011a 00D0     		beq	.LCB568
 743 011c B2E0     		b	.L32	@long jump
 744              	.LCB568:
 745              		.loc 1 212 0 is_stmt 0 discriminator 1
 746 011e 8023     		mov	r3, #128
 747 0120 FB18     		add	r3, r7, r3
 748 0122 1A68     		ldr	r2, [r3]
 749 0124 A423     		mov	r3, #164
 750 0126 FB18     		add	r3, r7, r3
 751 0128 1B68     		ldr	r3, [r3]
 752 012a 9A42     		cmp	r2, r3
 753 012c 00D0     		beq	.LCB576
 754 012e A9E0     		b	.L32	@long jump
 755              	.LCB576:
 213:.\lib_Network/network.c ****         {
 214:.\lib_Network/network.c ****             /*delivery timing*/
 215:.\lib_Network/network.c ****             unixTime[T4] = RTCGetUnixTime();
 756              		.loc 1 215 0 is_stmt 1
 757 0130 FFF7FEFF 		bl	RTCGetUnixTime
 758 0134 031C     		mov	r3, r0
 759 0136 0C1C     		mov	r4, r1
 760 0138 1A1C     		mov	r2, r3
 761 013a 7023     		mov	r3, #112
 762 013c FB18     		add	r3, r7, r3
 763 013e DA60     		str	r2, [r3, #12]
 216:.\lib_Network/network.c ****             millisTime[T4] = RTCgetRecentMs();
 764              		.loc 1 216 0
 765 0140 FFF7FEFF 		bl	RTCgetRecentMs
 766 0144 031C     		mov	r3, r0
 767 0146 9AB2     		uxth	r2, r3
 768 0148 6823     		mov	r3, #104
 769 014a FB18     		add	r3, r7, r3
 770 014c DA80     		strh	r2, [r3, #6]
ARM GAS  C:\Users\Petro\AppData\Local\Temp\ccWEZPdt.s 			page 19


 217:.\lib_Network/network.c ****             //sumTime = ((unixTime[T2]-unixTime[T1])+(unixTime[T4]-unixTime[T3]))/2;
 218:.\lib_Network/network.c ****             //sumMillis = ((millisTime[T2]-millisTime[T1])+(millisTime[T4]-millisTime[T3]))/2;
 219:.\lib_Network/network.c ****             sumTime = ((unixTime[T4] - unixTime[T1]) - (unixTime[T3] - unixTime[T2]))/2;
 771              		.loc 1 219 0
 772 014e 7023     		mov	r3, #112
 773 0150 FB18     		add	r3, r7, r3
 774 0152 DA68     		ldr	r2, [r3, #12]
 775 0154 7023     		mov	r3, #112
 776 0156 FB18     		add	r3, r7, r3
 777 0158 1B68     		ldr	r3, [r3]
 778 015a D21A     		sub	r2, r2, r3
 779 015c 7023     		mov	r3, #112
 780 015e FB18     		add	r3, r7, r3
 781 0160 5968     		ldr	r1, [r3, #4]
 782 0162 7023     		mov	r3, #112
 783 0164 FB18     		add	r3, r7, r3
 784 0166 9B68     		ldr	r3, [r3, #8]
 785 0168 CB1A     		sub	r3, r1, r3
 786 016a D318     		add	r3, r2, r3
 787 016c 5B08     		lsr	r3, r3, #1
 788 016e 9422     		mov	r2, #148
 789 0170 BA18     		add	r2, r7, r2
 790 0172 1360     		str	r3, [r2]
 220:.\lib_Network/network.c ****             sumMillis = ((millisTime[T4] - millisTime[T1]) - (millisTime[T3] - millisTime[T2]))/2;
 791              		.loc 1 220 0
 792 0174 6823     		mov	r3, #104
 793 0176 FB18     		add	r3, r7, r3
 794 0178 DB88     		ldrh	r3, [r3, #6]
 795 017a 1A1C     		mov	r2, r3
 796 017c 6823     		mov	r3, #104
 797 017e FB18     		add	r3, r7, r3
 798 0180 1B88     		ldrh	r3, [r3]
 799 0182 D21A     		sub	r2, r2, r3
 800 0184 6823     		mov	r3, #104
 801 0186 FB18     		add	r3, r7, r3
 802 0188 5B88     		ldrh	r3, [r3, #2]
 803 018a 191C     		mov	r1, r3
 804 018c 6823     		mov	r3, #104
 805 018e FB18     		add	r3, r7, r3
 806 0190 9B88     		ldrh	r3, [r3, #4]
 807 0192 CB1A     		sub	r3, r1, r3
 808 0194 D318     		add	r3, r2, r3
 809 0196 002B     		cmp	r3, #0
 810 0198 00DA     		bge	.L33
 811 019a 0133     		add	r3, r3, #1
 812              	.L33:
 813 019c 5B10     		asr	r3, r3, #1
 814 019e 9022     		mov	r2, #144
 815 01a0 BA18     		add	r2, r7, r2
 816 01a2 1360     		str	r3, [r2]
 221:.\lib_Network/network.c ****             if (sumMillis < 0)
 817              		.loc 1 221 0
 818 01a4 9023     		mov	r3, #144
 819 01a6 FB18     		add	r3, r7, r3
 820 01a8 1B68     		ldr	r3, [r3]
 821 01aa 002B     		cmp	r3, #0
 822 01ac 10DA     		bge	.L34
ARM GAS  C:\Users\Petro\AppData\Local\Temp\ccWEZPdt.s 			page 20


 222:.\lib_Network/network.c ****             {
 223:.\lib_Network/network.c ****                 sumMillis += 1000;
 823              		.loc 1 223 0
 824 01ae 9023     		mov	r3, #144
 825 01b0 FB18     		add	r3, r7, r3
 826 01b2 1B68     		ldr	r3, [r3]
 827 01b4 FA22     		mov	r2, #250
 828 01b6 9200     		lsl	r2, r2, #2
 829 01b8 9446     		mov	ip, r2
 830 01ba 6344     		add	r3, r3, ip
 831 01bc 9022     		mov	r2, #144
 832 01be BA18     		add	r2, r7, r2
 833 01c0 1360     		str	r3, [r2]
 224:.\lib_Network/network.c ****                 sumTime++;
 834              		.loc 1 224 0
 835 01c2 9423     		mov	r3, #148
 836 01c4 FB18     		add	r3, r7, r3
 837 01c6 1B68     		ldr	r3, [r3]
 838 01c8 0133     		add	r3, r3, #1
 839 01ca 9422     		mov	r2, #148
 840 01cc BA18     		add	r2, r7, r2
 841 01ce 1360     		str	r3, [r2]
 842              	.L34:
 225:.\lib_Network/network.c ****             }
 226:.\lib_Network/network.c ****             deliveryTime += sumTime;
 843              		.loc 1 226 0
 844 01d0 9423     		mov	r3, #148
 845 01d2 FB18     		add	r3, r7, r3
 846 01d4 1B68     		ldr	r3, [r3]
 847 01d6 A022     		mov	r2, #160
 848 01d8 BA18     		add	r2, r7, r2
 849 01da 1268     		ldr	r2, [r2]
 850 01dc D318     		add	r3, r2, r3
 851 01de A022     		mov	r2, #160
 852 01e0 BA18     		add	r2, r7, r2
 853 01e2 1360     		str	r3, [r2]
 227:.\lib_Network/network.c ****             deliveryMs += sumMillis;
 854              		.loc 1 227 0
 855 01e4 9023     		mov	r3, #144
 856 01e6 FB18     		add	r3, r7, r3
 857 01e8 1B68     		ldr	r3, [r3]
 858 01ea 99B2     		uxth	r1, r3
 859 01ec 9E23     		mov	r3, #158
 860 01ee FB18     		add	r3, r7, r3
 861 01f0 9E22     		mov	r2, #158
 862 01f2 BA18     		add	r2, r7, r2
 863 01f4 1288     		ldrh	r2, [r2]
 864 01f6 8A18     		add	r2, r1, r2
 865 01f8 1A80     		strh	r2, [r3]
 228:.\lib_Network/network.c ****             if (deliveryTime >= 1000)
 866              		.loc 1 228 0
 867 01fa A023     		mov	r3, #160
 868 01fc FB18     		add	r3, r7, r3
 869 01fe 1B68     		ldr	r3, [r3]
 870 0200 434A     		ldr	r2, .L46+12
 871 0202 9342     		cmp	r3, r2
 872 0204 07D9     		bls	.L35
ARM GAS  C:\Users\Petro\AppData\Local\Temp\ccWEZPdt.s 			page 21


 873              	.LBB5:
 229:.\lib_Network/network.c ****             {
 230:.\lib_Network/network.c ****                 int SSS = 10;
 874              		.loc 1 230 0
 875 0206 0A23     		mov	r3, #10
 876 0208 8822     		mov	r2, #136
 877 020a BA18     		add	r2, r7, r2
 878 020c 1360     		str	r3, [r2]
 231:.\lib_Network/network.c ****                 deliveryTime = 0;
 879              		.loc 1 231 0
 880 020e 0023     		mov	r3, #0
 881 0210 A022     		mov	r2, #160
 882 0212 BA18     		add	r2, r7, r2
 883 0214 1360     		str	r3, [r2]
 884              	.L35:
 885              	.LBE5:
 232:.\lib_Network/network.c ****             }
 233:.\lib_Network/network.c ****             if (deliveryMs >= 1000)
 886              		.loc 1 233 0
 887 0216 9E23     		mov	r3, #158
 888 0218 FB18     		add	r3, r7, r3
 889 021a 1B88     		ldrh	r3, [r3]
 890 021c 3C4A     		ldr	r2, .L46+12
 891 021e 9342     		cmp	r3, r2
 892 0220 0FD9     		bls	.L36
 234:.\lib_Network/network.c ****             {
 235:.\lib_Network/network.c ****                 deliveryTime++;
 893              		.loc 1 235 0
 894 0222 A023     		mov	r3, #160
 895 0224 FB18     		add	r3, r7, r3
 896 0226 1B68     		ldr	r3, [r3]
 897 0228 0133     		add	r3, r3, #1
 898 022a A022     		mov	r2, #160
 899 022c BA18     		add	r2, r7, r2
 900 022e 1360     		str	r3, [r2]
 236:.\lib_Network/network.c ****                 deliveryMs-=1000;
 901              		.loc 1 236 0
 902 0230 9E23     		mov	r3, #158
 903 0232 FB18     		add	r3, r7, r3
 904 0234 9E22     		mov	r2, #158
 905 0236 BA18     		add	r2, r7, r2
 906 0238 1288     		ldrh	r2, [r2]
 907 023a 3649     		ldr	r1, .L46+16
 908 023c 8C46     		mov	ip, r1
 909 023e 6244     		add	r2, r2, ip
 910 0240 1A80     		strh	r2, [r3]
 911              	.L36:
 237:.\lib_Network/network.c ****             }
 238:.\lib_Network/network.c ****             #ifdef DEBUG_PC 
 239:.\lib_Network/network.c ****             sprintf(buffer,"\n\r DEV!!! time s= %u, ms = %u\n\r",deliveryTime,deliveryMs);
 912              		.loc 1 239 0
 913 0242 9E23     		mov	r3, #158
 914 0244 FB18     		add	r3, r7, r3
 915 0246 1B88     		ldrh	r3, [r3]
 916 0248 381D     		add	r0, r7, #4
 917 024a 3349     		ldr	r1, .L46+20
 918 024c A022     		mov	r2, #160
ARM GAS  C:\Users\Petro\AppData\Local\Temp\ccWEZPdt.s 			page 22


 919 024e BA18     		add	r2, r7, r2
 920 0250 1268     		ldr	r2, [r2]
 921 0252 FFF7FEFF 		bl	sprintf
 240:.\lib_Network/network.c ****             SW_UART_DEBUG_PutString(buffer);
 922              		.loc 1 240 0
 923 0256 3B1D     		add	r3, r7, #4
 924 0258 181C     		mov	r0, r3
 925 025a FFF7FEFF 		bl	SW_UART_DEBUG_PutString
 241:.\lib_Network/network.c ****             #endif            
 242:.\lib_Network/network.c ****             IDpacket++;
 926              		.loc 1 242 0
 927 025e A423     		mov	r3, #164
 928 0260 FB18     		add	r3, r7, r3
 929 0262 1B68     		ldr	r3, [r3]
 930 0264 0133     		add	r3, r3, #1
 931 0266 A422     		mov	r2, #164
 932 0268 BA18     		add	r2, r7, r2
 933 026a 1360     		str	r3, [r2]
 243:.\lib_Network/network.c ****             noConnect=0;
 934              		.loc 1 243 0
 935 026c 0023     		mov	r3, #0
 936 026e 9822     		mov	r2, #152
 937 0270 BA18     		add	r2, r7, r2
 938 0272 1360     		str	r3, [r2]
 244:.\lib_Network/network.c ****             i++;
 939              		.loc 1 244 0
 940 0274 AC23     		mov	r3, #172
 941 0276 FB18     		add	r3, r7, r3
 942 0278 1B68     		ldr	r3, [r3]
 943 027a 0133     		add	r3, r3, #1
 944 027c AC22     		mov	r2, #172
 945 027e BA18     		add	r2, r7, r2
 946 0280 1360     		str	r3, [r2]
 947 0282 0BE0     		b	.L30
 948              	.L32:
 245:.\lib_Network/network.c ****         }else
 246:.\lib_Network/network.c ****         {
 247:.\lib_Network/network.c ****             noConnect++;
 949              		.loc 1 247 0
 950 0284 9823     		mov	r3, #152
 951 0286 FB18     		add	r3, r7, r3
 952 0288 1B68     		ldr	r3, [r3]
 953 028a 0133     		add	r3, r3, #1
 954 028c 9822     		mov	r2, #152
 955 028e BA18     		add	r2, r7, r2
 956 0290 1360     		str	r3, [r2]
 248:.\lib_Network/network.c ****             
 249:.\lib_Network/network.c ****             #ifdef DEBUG_PC
 250:.\lib_Network/network.c ****             CyDelay(500);
 957              		.loc 1 250 0
 958 0292 FA23     		mov	r3, #250
 959 0294 5B00     		lsl	r3, r3, #1
 960 0296 181C     		mov	r0, r3
 961 0298 FFF7FEFF 		bl	CyDelay
 962              	.L30:
 963              	.LBE4:
 186:.\lib_Network/network.c ****     {
ARM GAS  C:\Users\Petro\AppData\Local\Temp\ccWEZPdt.s 			page 23


 964              		.loc 1 186 0 discriminator 1
 965 029c AC23     		mov	r3, #172
 966 029e FB18     		add	r3, r7, r3
 967 02a0 1B68     		ldr	r3, [r3]
 968 02a2 092B     		cmp	r3, #9
 969 02a4 05DC     		bgt	.L38
 186:.\lib_Network/network.c ****     {
 970              		.loc 1 186 0 is_stmt 0 discriminator 2
 971 02a6 9823     		mov	r3, #152
 972 02a8 FB18     		add	r3, r7, r3
 973 02aa 1B68     		ldr	r3, [r3]
 974 02ac 142B     		cmp	r3, #20
 975 02ae 00D8     		bhi	.LCB779
 976 02b0 BEE6     		b	.L39	@long jump
 977              	.LCB779:
 978              	.L38:
 251:.\lib_Network/network.c ****             #endif
 252:.\lib_Network/network.c ****         }
 253:.\lib_Network/network.c ****     }
 254:.\lib_Network/network.c ****     if(noConnect >= NUM_CONNECT_ATTEMPS)
 979              		.loc 1 254 0 is_stmt 1
 980 02b2 9823     		mov	r3, #152
 981 02b4 FB18     		add	r3, r7, r3
 982 02b6 1B68     		ldr	r3, [r3]
 983 02b8 132B     		cmp	r3, #19
 984 02ba 04D9     		bls	.L40
 255:.\lib_Network/network.c ****     {
 256:.\lib_Network/network.c ****         result = TIME_SYNC_ERR;
 985              		.loc 1 256 0
 986 02bc AA23     		mov	r3, #170
 987 02be FB18     		add	r3, r7, r3
 988 02c0 0122     		mov	r2, #1
 989 02c2 1A80     		strh	r2, [r3]
 990 02c4 A3E0     		b	.L41
 991              	.L40:
 992              	.LBB6:
 257:.\lib_Network/network.c ****     }else
 258:.\lib_Network/network.c ****     {
 259:.\lib_Network/network.c ****         uint16_t outMs;
 260:.\lib_Network/network.c ****         uint16_t tmpData;
 261:.\lib_Network/network.c ****         
 262:.\lib_Network/network.c ****         deliveryTime  = 0;///= NUM_TRY_SYNC;
 993              		.loc 1 262 0
 994 02c6 0023     		mov	r3, #0
 995 02c8 A022     		mov	r2, #160
 996 02ca BA18     		add	r2, r7, r2
 997 02cc 1360     		str	r3, [r2]
 263:.\lib_Network/network.c ****         tmpData = deliveryTime*1000;
 998              		.loc 1 263 0
 999 02ce A023     		mov	r3, #160
 1000 02d0 FB18     		add	r3, r7, r3
 1001 02d2 1B68     		ldr	r3, [r3]
 1002 02d4 9AB2     		uxth	r2, r3
 1003 02d6 8623     		mov	r3, #134
 1004 02d8 FB18     		add	r3, r7, r3
 1005 02da FA21     		mov	r1, #250
 1006 02dc 8900     		lsl	r1, r1, #2
ARM GAS  C:\Users\Petro\AppData\Local\Temp\ccWEZPdt.s 			page 24


 1007 02de 4A43     		mul	r2, r1
 1008 02e0 1A80     		strh	r2, [r3]
 264:.\lib_Network/network.c ****         deliveryMs = (tmpData+deliveryMs)/(NUM_TRY_SYNC);
 1009              		.loc 1 264 0
 1010 02e2 8623     		mov	r3, #134
 1011 02e4 FB18     		add	r3, r7, r3
 1012 02e6 1A88     		ldrh	r2, [r3]
 1013 02e8 9E23     		mov	r3, #158
 1014 02ea FB18     		add	r3, r7, r3
 1015 02ec 1B88     		ldrh	r3, [r3]
 1016 02ee D318     		add	r3, r2, r3
 1017 02f0 181C     		mov	r0, r3
 1018 02f2 0A21     		mov	r1, #10
 1019 02f4 FFF7FEFF 		bl	__aeabi_idiv
 1020 02f8 031C     		mov	r3, r0
 1021 02fa 1A1C     		mov	r2, r3
 1022 02fc 9E23     		mov	r3, #158
 1023 02fe FB18     		add	r3, r7, r3
 1024 0300 1A80     		strh	r2, [r3]
 265:.\lib_Network/network.c ****         while (deliveryMs>=1000)
 1025              		.loc 1 265 0
 1026 0302 1BE0     		b	.L42
 1027              	.L47:
 1028              		.align	2
 1029              	.L46:
 1030 0304 5C000000 		.word	.LC22
 1031 0308 74000000 		.word	.LC24
 1032 030c 90000000 		.word	.LC26
 1033 0310 E7030000 		.word	999
 1034 0314 18FCFFFF 		.word	-1000
 1035 0318 B0000000 		.word	.LC28
 1036              	.L43:
 266:.\lib_Network/network.c ****         {
 267:.\lib_Network/network.c ****             deliveryMs-=1000;
 1037              		.loc 1 267 0
 1038 031c 9E23     		mov	r3, #158
 1039 031e FB18     		add	r3, r7, r3
 1040 0320 9E22     		mov	r2, #158
 1041 0322 BA18     		add	r2, r7, r2
 1042 0324 1288     		ldrh	r2, [r2]
 1043 0326 3D49     		ldr	r1, .L48
 1044 0328 8C46     		mov	ip, r1
 1045 032a 6244     		add	r2, r2, ip
 1046 032c 1A80     		strh	r2, [r3]
 268:.\lib_Network/network.c ****             deliveryTime++;
 1047              		.loc 1 268 0
 1048 032e A023     		mov	r3, #160
 1049 0330 FB18     		add	r3, r7, r3
 1050 0332 1B68     		ldr	r3, [r3]
 1051 0334 0133     		add	r3, r3, #1
 1052 0336 A022     		mov	r2, #160
 1053 0338 BA18     		add	r2, r7, r2
 1054 033a 1360     		str	r3, [r2]
 1055              	.L42:
 265:.\lib_Network/network.c ****         while (deliveryMs>=1000)
 1056              		.loc 1 265 0
 1057 033c 9E23     		mov	r3, #158
ARM GAS  C:\Users\Petro\AppData\Local\Temp\ccWEZPdt.s 			page 25


 1058 033e FB18     		add	r3, r7, r3
 1059 0340 1B88     		ldrh	r3, [r3]
 1060 0342 374A     		ldr	r2, .L48+4
 1061 0344 9342     		cmp	r3, r2
 1062 0346 E9D8     		bhi	.L43
 269:.\lib_Network/network.c ****         }
 270:.\lib_Network/network.c ****         deliveryMs /= NUM_TRY_SYNC;
 1063              		.loc 1 270 0
 1064 0348 9E23     		mov	r3, #158
 1065 034a FC18     		add	r4, r7, r3
 1066 034c 9E23     		mov	r3, #158
 1067 034e FB18     		add	r3, r7, r3
 1068 0350 1B88     		ldrh	r3, [r3]
 1069 0352 181C     		mov	r0, r3
 1070 0354 0A21     		mov	r1, #10
 1071 0356 FFF7FEFF 		bl	__aeabi_uidiv
 1072 035a 031C     		mov	r3, r0
 1073 035c 2380     		strh	r3, [r4]
 271:.\lib_Network/network.c ****         
 272:.\lib_Network/network.c ****         unixTime[T4] = RTCGetUnixTime()+deliveryTime;
 1074              		.loc 1 272 0
 1075 035e FFF7FEFF 		bl	RTCGetUnixTime
 1076 0362 031C     		mov	r3, r0
 1077 0364 0C1C     		mov	r4, r1
 1078 0366 1A1C     		mov	r2, r3
 1079 0368 A023     		mov	r3, #160
 1080 036a FB18     		add	r3, r7, r3
 1081 036c 1B68     		ldr	r3, [r3]
 1082 036e D218     		add	r2, r2, r3
 1083 0370 7023     		mov	r3, #112
 1084 0372 FB18     		add	r3, r7, r3
 1085 0374 DA60     		str	r2, [r3, #12]
 273:.\lib_Network/network.c ****         millisTime[T4] = RTCgetRecentMs()+deliveryMs;
 1086              		.loc 1 273 0
 1087 0376 FFF7FEFF 		bl	RTCgetRecentMs
 1088 037a 031C     		mov	r3, r0
 1089 037c 9AB2     		uxth	r2, r3
 1090 037e 9E23     		mov	r3, #158
 1091 0380 FB18     		add	r3, r7, r3
 1092 0382 1B88     		ldrh	r3, [r3]
 1093 0384 D318     		add	r3, r2, r3
 1094 0386 9AB2     		uxth	r2, r3
 1095 0388 6823     		mov	r3, #104
 1096 038a FB18     		add	r3, r7, r3
 1097 038c DA80     		strh	r2, [r3, #6]
 274:.\lib_Network/network.c ****         
 275:.\lib_Network/network.c ****         if((millisTime[T4]) >= 1000)
 1098              		.loc 1 275 0
 1099 038e 6823     		mov	r3, #104
 1100 0390 FB18     		add	r3, r7, r3
 1101 0392 DB88     		ldrh	r3, [r3, #6]
 1102 0394 224A     		ldr	r2, .L48+4
 1103 0396 9342     		cmp	r3, r2
 1104 0398 10D9     		bls	.L44
 276:.\lib_Network/network.c ****         {
 277:.\lib_Network/network.c ****             unixTime[T4] ++;
 1105              		.loc 1 277 0
ARM GAS  C:\Users\Petro\AppData\Local\Temp\ccWEZPdt.s 			page 26


 1106 039a 7023     		mov	r3, #112
 1107 039c FB18     		add	r3, r7, r3
 1108 039e DB68     		ldr	r3, [r3, #12]
 1109 03a0 5A1C     		add	r2, r3, #1
 1110 03a2 7023     		mov	r3, #112
 1111 03a4 FB18     		add	r3, r7, r3
 1112 03a6 DA60     		str	r2, [r3, #12]
 278:.\lib_Network/network.c ****             millisTime[T4] -= 1000;
 1113              		.loc 1 278 0
 1114 03a8 6823     		mov	r3, #104
 1115 03aa FB18     		add	r3, r7, r3
 1116 03ac DB88     		ldrh	r3, [r3, #6]
 1117 03ae 1B4A     		ldr	r2, .L48
 1118 03b0 9446     		mov	ip, r2
 1119 03b2 6344     		add	r3, r3, ip
 1120 03b4 9AB2     		uxth	r2, r3
 1121 03b6 6823     		mov	r3, #104
 1122 03b8 FB18     		add	r3, r7, r3
 1123 03ba DA80     		strh	r2, [r3, #6]
 1124              	.L44:
 279:.\lib_Network/network.c ****         }
 280:.\lib_Network/network.c ****         
 281:.\lib_Network/network.c ****         /*send real time to start*/  
 282:.\lib_Network/network.c ****         NTPsetTimeToStart(unixTime[T4], millisTime[T4], IDpacket);
 1125              		.loc 1 282 0
 1126 03bc 7023     		mov	r3, #112
 1127 03be FB18     		add	r3, r7, r3
 1128 03c0 D968     		ldr	r1, [r3, #12]
 1129 03c2 6823     		mov	r3, #104
 1130 03c4 FB18     		add	r3, r7, r3
 1131 03c6 DA88     		ldrh	r2, [r3, #6]
 1132 03c8 A423     		mov	r3, #164
 1133 03ca FB18     		add	r3, r7, r3
 1134 03cc 1B68     		ldr	r3, [r3]
 1135 03ce 081C     		mov	r0, r1
 1136 03d0 111C     		mov	r1, r2
 1137 03d2 1A1C     		mov	r2, r3
 1138 03d4 FFF7FEFF 		bl	NTPsetTimeToStart
 283:.\lib_Network/network.c ****         #ifdef DEBUG_PC 
 284:.\lib_Network/network.c ****         char buffer[100];
 285:.\lib_Network/network.c ****         SW_UART_DEBUG_PutString("SAVE REAL TIME!!!!!!!!!!!!!!!");
 1139              		.loc 1 285 0
 1140 03d8 124B     		ldr	r3, .L48+8
 1141 03da 181C     		mov	r0, r3
 1142 03dc FFF7FEFF 		bl	SW_UART_DEBUG_PutString
 286:.\lib_Network/network.c ****         sprintf(buffer,"\n\rreal time= %u, delivery= %u\n\r",unixTime[T4],deliveryTime);
 1143              		.loc 1 286 0
 1144 03e0 7023     		mov	r3, #112
 1145 03e2 FB18     		add	r3, r7, r3
 1146 03e4 DA68     		ldr	r2, [r3, #12]
 1147 03e6 381D     		add	r0, r7, #4
 1148 03e8 0F49     		ldr	r1, .L48+12
 1149 03ea A023     		mov	r3, #160
 1150 03ec FB18     		add	r3, r7, r3
 1151 03ee 1B68     		ldr	r3, [r3]
 1152 03f0 FFF7FEFF 		bl	sprintf
 287:.\lib_Network/network.c ****         SW_UART_DEBUG_PutString(buffer);
ARM GAS  C:\Users\Petro\AppData\Local\Temp\ccWEZPdt.s 			page 27


 1153              		.loc 1 287 0
 1154 03f4 3B1D     		add	r3, r7, #4
 1155 03f6 181C     		mov	r0, r3
 1156 03f8 FFF7FEFF 		bl	SW_UART_DEBUG_PutString
 288:.\lib_Network/network.c ****         CyDelay(2000);
 1157              		.loc 1 288 0
 1158 03fc FA23     		mov	r3, #250
 1159 03fe DB00     		lsl	r3, r3, #3
 1160 0400 181C     		mov	r0, r3
 1161 0402 FFF7FEFF 		bl	CyDelay
 289:.\lib_Network/network.c ****         #endif
 290:.\lib_Network/network.c ****         
 291:.\lib_Network/network.c ****         result = TIME_SYNC_OK;
 1162              		.loc 1 291 0
 1163 0406 AA23     		mov	r3, #170
 1164 0408 FB18     		add	r3, r7, r3
 1165 040a 0022     		mov	r2, #0
 1166 040c 1A80     		strh	r2, [r3]
 1167              	.L41:
 1168              	.LBE6:
 292:.\lib_Network/network.c ****     }
 293:.\lib_Network/network.c ****     return result;
 1169              		.loc 1 293 0
 1170 040e AA23     		mov	r3, #170
 1171 0410 FB18     		add	r3, r7, r3
 1172 0412 1B88     		ldrh	r3, [r3]
 294:.\lib_Network/network.c **** }
 1173              		.loc 1 294 0
 1174 0414 181C     		mov	r0, r3
 1175 0416 BD46     		mov	sp, r7
 1176 0418 2CB0     		add	sp, sp, #176
 1177              		@ sp needed
 1178 041a B0BD     		pop	{r4, r5, r7, pc}
 1179              	.L49:
 1180              		.align	2
 1181              	.L48:
 1182 041c 18FCFFFF 		.word	-1000
 1183 0420 E7030000 		.word	999
 1184 0424 D0000000 		.word	.LC30
 1185 0428 F0000000 		.word	.LC32
 1186              		.cfi_endproc
 1187              	.LFE68:
 1188              		.size	NTPsync, .-NTPsync
 1189              		.section	.rodata
 1190              		.align	2
 1191              	.LC34:
 1192 0110 25303858 		.ascii	"%08X%03X\000"
 1192      25303358 
 1192      00
 1193              		.section	.text.NTPsendTime,"ax",%progbits
 1194              		.align	2
 1195              		.code	16
 1196              		.thumb_func
 1197              		.type	NTPsendTime, %function
 1198              	NTPsendTime:
 1199              	.LFB69:
 295:.\lib_Network/network.c **** 
ARM GAS  C:\Users\Petro\AppData\Local\Temp\ccWEZPdt.s 			page 28


 296:.\lib_Network/network.c **** static void NTPsendTime(uint32_t unixTime1,uint16_t millis2, uint32_t ID)
 297:.\lib_Network/network.c **** {
 1200              		.loc 1 297 0
 1201              		.cfi_startproc
 1202 0000 80B5     		push	{r7, lr}
 1203              		.cfi_def_cfa_offset 8
 1204              		.cfi_offset 7, -8
 1205              		.cfi_offset 14, -4
 1206 0002 9EB0     		sub	sp, sp, #120
 1207              		.cfi_def_cfa_offset 128
 1208 0004 00AF     		add	r7, sp, #0
 1209              		.cfi_def_cfa_register 7
 1210 0006 F860     		str	r0, [r7, #12]
 1211 0008 7A60     		str	r2, [r7, #4]
 1212 000a 0A23     		mov	r3, #10
 1213 000c FB18     		add	r3, r7, r3
 1214 000e 0A1C     		add	r2, r1, #0
 1215 0010 1A80     		strh	r2, [r3]
 298:.\lib_Network/network.c ****     char sendBuffer[DATA_BUFFER];
 299:.\lib_Network/network.c ****     char sendData[DATA_BUFFER];
 300:.\lib_Network/network.c ****     
 301:.\lib_Network/network.c ****     /*pack data*/
 302:.\lib_Network/network.c ****     sprintf(sendData,"%08X%03X", unixTime1,millis2); 
 1216              		.loc 1 302 0
 1217 0012 0A23     		mov	r3, #10
 1218 0014 FB18     		add	r3, r7, r3
 1219 0016 1B88     		ldrh	r3, [r3]
 1220 0018 1022     		mov	r2, #16
 1221 001a B818     		add	r0, r7, r2
 1222 001c 0D49     		ldr	r1, .L51
 1223 001e FA68     		ldr	r2, [r7, #12]
 1224 0020 FFF7FEFF 		bl	sprintf
 303:.\lib_Network/network.c ****     PackData(sendBuffer, (uint8_t *)sendData, ID);
 1225              		.loc 1 303 0
 1226 0024 4423     		mov	r3, #68
 1227 0026 F918     		add	r1, r7, r3
 1228 0028 1023     		mov	r3, #16
 1229 002a FA18     		add	r2, r7, r3
 1230 002c 7B68     		ldr	r3, [r7, #4]
 1231 002e 081C     		mov	r0, r1
 1232 0030 111C     		mov	r1, r2
 1233 0032 1A1C     		mov	r2, r3
 1234 0034 FFF7FEFF 		bl	PackData
 304:.\lib_Network/network.c ****     UART_XB_UartPutString(sendBuffer);
 1235              		.loc 1 304 0
 1236 0038 4423     		mov	r3, #68
 1237 003a FB18     		add	r3, r7, r3
 1238 003c 181C     		mov	r0, r3
 1239 003e FFF7FEFF 		bl	UART_XB_UartPutString
 305:.\lib_Network/network.c ****     
 306:.\lib_Network/network.c ****     #ifdef DEBUG_PC
 307:.\lib_Network/network.c ****     SW_UART_DEBUG_PutString(sendBuffer);
 1240              		.loc 1 307 0
 1241 0042 4423     		mov	r3, #68
 1242 0044 FB18     		add	r3, r7, r3
 1243 0046 181C     		mov	r0, r3
 1244 0048 FFF7FEFF 		bl	SW_UART_DEBUG_PutString
ARM GAS  C:\Users\Petro\AppData\Local\Temp\ccWEZPdt.s 			page 29


 308:.\lib_Network/network.c ****     #endif
 309:.\lib_Network/network.c **** }
 1245              		.loc 1 309 0
 1246 004c BD46     		mov	sp, r7
 1247 004e 1EB0     		add	sp, sp, #120
 1248              		@ sp needed
 1249 0050 80BD     		pop	{r7, pc}
 1250              	.L52:
 1251 0052 C046     		.align	2
 1252              	.L51:
 1253 0054 10010000 		.word	.LC34
 1254              		.cfi_endproc
 1255              	.LFE69:
 1256              		.size	NTPsendTime, .-NTPsendTime
 1257              		.section	.text.NTPreceiveTime,"ax",%progbits
 1258              		.align	2
 1259              		.code	16
 1260              		.thumb_func
 1261              		.type	NTPreceiveTime, %function
 1262              	NTPreceiveTime:
 1263              	.LFB70:
 310:.\lib_Network/network.c **** 
 311:.\lib_Network/network.c **** 
 312:.\lib_Network/network.c **** static uint32_t NTPreceiveTime(uint32_t *unixTime2, uint16_t *millisTime2, uint32_t *unixTime3, uin
 313:.\lib_Network/network.c **** {
 1264              		.loc 1 313 0
 1265              		.cfi_startproc
 1266 0000 80B5     		push	{r7, lr}
 1267              		.cfi_def_cfa_offset 8
 1268              		.cfi_offset 7, -8
 1269              		.cfi_offset 14, -4
 1270 0002 8CB0     		sub	sp, sp, #48
 1271              		.cfi_def_cfa_offset 56
 1272 0004 00AF     		add	r7, sp, #0
 1273              		.cfi_def_cfa_register 7
 1274 0006 F860     		str	r0, [r7, #12]
 1275 0008 B960     		str	r1, [r7, #8]
 1276 000a 7A60     		str	r2, [r7, #4]
 1277 000c 3B60     		str	r3, [r7]
 314:.\lib_Network/network.c ****     uint8_t byte;
 315:.\lib_Network/network.c ****     uint32_t result;
 316:.\lib_Network/network.c ****     /*debug*/
 317:.\lib_Network/network.c ****     result = READ_OK;
 1278              		.loc 1 317 0
 1279 000e 0123     		mov	r3, #1
 1280 0010 FB62     		str	r3, [r7, #44]
 318:.\lib_Network/network.c ****     
 319:.\lib_Network/network.c ****     NtpResp recvDataNTP;
 320:.\lib_Network/network.c ****     while((UART_XB_SpiUartGetRxBufferSize() > 0) && ((byte=UART_XB_UartGetChar()) != 0))
 1281              		.loc 1 320 0
 1282 0012 33E0     		b	.L54
 1283              	.L58:
 321:.\lib_Network/network.c ****     {
 322:.\lib_Network/network.c ****         result = NtpUnpackData(&recvDataNTP, (uint8_t)(byte & 0xFF));
 1284              		.loc 1 322 0
 1285 0014 1023     		mov	r3, #16
 1286 0016 FA18     		add	r2, r7, r3
ARM GAS  C:\Users\Petro\AppData\Local\Temp\ccWEZPdt.s 			page 30


 1287 0018 2B23     		mov	r3, #43
 1288 001a FB18     		add	r3, r7, r3
 1289 001c 1B78     		ldrb	r3, [r3]
 1290 001e 101C     		mov	r0, r2
 1291 0020 191C     		mov	r1, r3
 1292 0022 FFF7FEFF 		bl	NtpUnpackData
 1293 0026 031C     		mov	r3, r0
 1294 0028 FB62     		str	r3, [r7, #44]
 323:.\lib_Network/network.c ****         
 324:.\lib_Network/network.c ****         #ifdef DEBUG_PC
 325:.\lib_Network/network.c ****         SW_UART_DEBUG_PutChar(byte);
 1295              		.loc 1 325 0
 1296 002a 2B23     		mov	r3, #43
 1297 002c FB18     		add	r3, r7, r3
 1298 002e 1B78     		ldrb	r3, [r3]
 1299 0030 181C     		mov	r0, r3
 1300 0032 FFF7FEFF 		bl	SW_UART_DEBUG_PutChar
 326:.\lib_Network/network.c ****         #endif
 327:.\lib_Network/network.c ****                     
 328:.\lib_Network/network.c ****         if(recvDataNTP.EndPacket == 1)
 1301              		.loc 1 328 0
 1302 0036 1023     		mov	r3, #16
 1303 0038 FB18     		add	r3, r7, r3
 1304 003a 1B7D     		ldrb	r3, [r3, #20]
 1305 003c 012B     		cmp	r3, #1
 1306 003e 1BD1     		bne	.L55
 329:.\lib_Network/network.c ****         {
 330:.\lib_Network/network.c ****             /*save unix time*/
 331:.\lib_Network/network.c ****             *IDreceive = recvDataNTP.Id;
 1307              		.loc 1 331 0
 1308 0040 1023     		mov	r3, #16
 1309 0042 FB18     		add	r3, r7, r3
 1310 0044 1B88     		ldrh	r3, [r3]
 1311 0046 1A1C     		mov	r2, r3
 1312 0048 BB6B     		ldr	r3, [r7, #56]
 1313 004a 1A60     		str	r2, [r3]
 332:.\lib_Network/network.c ****             *unixTime2 = recvDataNTP.Data1;
 1314              		.loc 1 332 0
 1315 004c 1023     		mov	r3, #16
 1316 004e FB18     		add	r3, r7, r3
 1317 0050 5A68     		ldr	r2, [r3, #4]
 1318 0052 FB68     		ldr	r3, [r7, #12]
 1319 0054 1A60     		str	r2, [r3]
 333:.\lib_Network/network.c ****             *millisTime2 = recvDataNTP.DataMs1;
 1320              		.loc 1 333 0
 1321 0056 1023     		mov	r3, #16
 1322 0058 FB18     		add	r3, r7, r3
 1323 005a 1A89     		ldrh	r2, [r3, #8]
 1324 005c BB68     		ldr	r3, [r7, #8]
 1325 005e 1A80     		strh	r2, [r3]
 334:.\lib_Network/network.c ****             *unixTime3 = recvDataNTP.Data2;
 1326              		.loc 1 334 0
 1327 0060 1023     		mov	r3, #16
 1328 0062 FB18     		add	r3, r7, r3
 1329 0064 DA68     		ldr	r2, [r3, #12]
 1330 0066 7B68     		ldr	r3, [r7, #4]
 1331 0068 1A60     		str	r2, [r3]
ARM GAS  C:\Users\Petro\AppData\Local\Temp\ccWEZPdt.s 			page 31


 335:.\lib_Network/network.c ****             *millisTime3 = recvDataNTP.DataMs2;
 1332              		.loc 1 335 0
 1333 006a 1023     		mov	r3, #16
 1334 006c FB18     		add	r3, r7, r3
 1335 006e 5A89     		ldrh	r2, [r3, #10]
 1336 0070 3B68     		ldr	r3, [r7]
 1337 0072 1A80     		strh	r2, [r3]
 336:.\lib_Network/network.c ****            
 337:.\lib_Network/network.c ****             return READ_OK;
 1338              		.loc 1 337 0
 1339 0074 0123     		mov	r3, #1
 1340 0076 13E0     		b	.L59
 1341              	.L55:
 338:.\lib_Network/network.c ****         }
 339:.\lib_Network/network.c ****         result = NO_READ;
 1342              		.loc 1 339 0
 1343 0078 0023     		mov	r3, #0
 1344 007a FB62     		str	r3, [r7, #44]
 1345              	.L54:
 320:.\lib_Network/network.c ****     {
 1346              		.loc 1 320 0
 1347 007c FFF7FEFF 		bl	UART_XB_SpiUartGetRxBufferSize
 1348 0080 031E     		sub	r3, r0, #0
 1349 0082 0AD0     		beq	.L57
 320:.\lib_Network/network.c ****     {
 1350              		.loc 1 320 0 is_stmt 0 discriminator 1
 1351 0084 FFF7FEFF 		bl	UART_XB_UartGetChar
 1352 0088 021C     		mov	r2, r0
 1353 008a 2B23     		mov	r3, #43
 1354 008c FB18     		add	r3, r7, r3
 1355 008e 1A70     		strb	r2, [r3]
 1356 0090 2B23     		mov	r3, #43
 1357 0092 FB18     		add	r3, r7, r3
 1358 0094 1B78     		ldrb	r3, [r3]
 1359 0096 002B     		cmp	r3, #0
 1360 0098 BCD1     		bne	.L58
 1361              	.L57:
 340:.\lib_Network/network.c ****     }
 341:.\lib_Network/network.c ****     result = NO_READ;
 1362              		.loc 1 341 0 is_stmt 1
 1363 009a 0023     		mov	r3, #0
 1364 009c FB62     		str	r3, [r7, #44]
 342:.\lib_Network/network.c ****     
 343:.\lib_Network/network.c ****     return result;
 1365              		.loc 1 343 0
 1366 009e FB6A     		ldr	r3, [r7, #44]
 1367              	.L59:
 344:.\lib_Network/network.c **** }
 1368              		.loc 1 344 0 discriminator 1
 1369 00a0 181C     		mov	r0, r3
 1370 00a2 BD46     		mov	sp, r7
 1371 00a4 0CB0     		add	sp, sp, #48
 1372              		@ sp needed
 1373 00a6 80BD     		pop	{r7, pc}
 1374              		.cfi_endproc
 1375              	.LFE70:
 1376              		.size	NTPreceiveTime, .-NTPreceiveTime
ARM GAS  C:\Users\Petro\AppData\Local\Temp\ccWEZPdt.s 			page 32


 1377              		.section	.rodata
 1378 0119 000000   		.align	2
 1379              	.LC37:
 1380 011c 53454E44 		.ascii	"SEND READL TIME TO START!!!\000"
 1380      20524541 
 1380      444C2054 
 1380      494D4520 
 1380      544F2053 
 1381              		.section	.text.NTPsetTimeToStart,"ax",%progbits
 1382              		.align	2
 1383              		.code	16
 1384              		.thumb_func
 1385              		.type	NTPsetTimeToStart, %function
 1386              	NTPsetTimeToStart:
 1387              	.LFB71:
 345:.\lib_Network/network.c **** 
 346:.\lib_Network/network.c **** 
 347:.\lib_Network/network.c **** static void NTPsetTimeToStart(uint32_t unixTime4, uint16_t millisTime4, uint32_t ID)
 348:.\lib_Network/network.c **** {
 1388              		.loc 1 348 0
 1389              		.cfi_startproc
 1390 0000 80B5     		push	{r7, lr}
 1391              		.cfi_def_cfa_offset 8
 1392              		.cfi_offset 7, -8
 1393              		.cfi_offset 14, -4
 1394 0002 9EB0     		sub	sp, sp, #120
 1395              		.cfi_def_cfa_offset 128
 1396 0004 00AF     		add	r7, sp, #0
 1397              		.cfi_def_cfa_register 7
 1398 0006 F860     		str	r0, [r7, #12]
 1399 0008 7A60     		str	r2, [r7, #4]
 1400 000a 0A23     		mov	r3, #10
 1401 000c FB18     		add	r3, r7, r3
 1402 000e 0A1C     		add	r2, r1, #0
 1403 0010 1A80     		strh	r2, [r3]
 349:.\lib_Network/network.c ****     char sendBuffer[DATA_BUFFER];
 350:.\lib_Network/network.c ****     char sendData[DATA_BUFFER];
 351:.\lib_Network/network.c ****     
 352:.\lib_Network/network.c ****     /*pack data*/
 353:.\lib_Network/network.c ****     sprintf(sendData,"%08X%03X", unixTime4,millisTime4); 
 1404              		.loc 1 353 0
 1405 0012 0A23     		mov	r3, #10
 1406 0014 FB18     		add	r3, r7, r3
 1407 0016 1B88     		ldrh	r3, [r3]
 1408 0018 1022     		mov	r2, #16
 1409 001a B818     		add	r0, r7, r2
 1410 001c 0F49     		ldr	r1, .L61
 1411 001e FA68     		ldr	r2, [r7, #12]
 1412 0020 FFF7FEFF 		bl	sprintf
 354:.\lib_Network/network.c ****     PackData(sendBuffer, (uint8_t *)sendData, ID);
 1413              		.loc 1 354 0
 1414 0024 4423     		mov	r3, #68
 1415 0026 F918     		add	r1, r7, r3
 1416 0028 1023     		mov	r3, #16
 1417 002a FA18     		add	r2, r7, r3
 1418 002c 7B68     		ldr	r3, [r7, #4]
 1419 002e 081C     		mov	r0, r1
ARM GAS  C:\Users\Petro\AppData\Local\Temp\ccWEZPdt.s 			page 33


 1420 0030 111C     		mov	r1, r2
 1421 0032 1A1C     		mov	r2, r3
 1422 0034 FFF7FEFF 		bl	PackData
 355:.\lib_Network/network.c ****     UART_XB_UartPutString(sendBuffer);
 1423              		.loc 1 355 0
 1424 0038 4423     		mov	r3, #68
 1425 003a FB18     		add	r3, r7, r3
 1426 003c 181C     		mov	r0, r3
 1427 003e FFF7FEFF 		bl	UART_XB_UartPutString
 356:.\lib_Network/network.c ****     #ifdef DEBUG_PC
 357:.\lib_Network/network.c ****         SW_UART_DEBUG_PutString("SEND READL TIME TO START!!!");
 1428              		.loc 1 357 0
 1429 0042 074B     		ldr	r3, .L61+4
 1430 0044 181C     		mov	r0, r3
 1431 0046 FFF7FEFF 		bl	SW_UART_DEBUG_PutString
 358:.\lib_Network/network.c ****         SW_UART_DEBUG_PutString(sendBuffer);
 1432              		.loc 1 358 0
 1433 004a 4423     		mov	r3, #68
 1434 004c FB18     		add	r3, r7, r3
 1435 004e 181C     		mov	r0, r3
 1436 0050 FFF7FEFF 		bl	SW_UART_DEBUG_PutString
 359:.\lib_Network/network.c ****     #endif
 360:.\lib_Network/network.c **** }
 1437              		.loc 1 360 0
 1438 0054 BD46     		mov	sp, r7
 1439 0056 1EB0     		add	sp, sp, #120
 1440              		@ sp needed
 1441 0058 80BD     		pop	{r7, pc}
 1442              	.L62:
 1443 005a C046     		.align	2
 1444              	.L61:
 1445 005c 10010000 		.word	.LC34
 1446 0060 1C010000 		.word	.LC37
 1447              		.cfi_endproc
 1448              	.LFE71:
 1449              		.size	NTPsetTimeToStart, .-NTPsetTimeToStart
 1450              		.text
 1451              	.Letext0:
 1452              		.file 2 "c:\\program files (x86)\\cypress\\psoc creator\\3.3\\psoc creator\\import\\gnu\\arm\\4.9.
 1453              		.file 3 "c:\\program files (x86)\\cypress\\psoc creator\\3.3\\psoc creator\\import\\gnu\\arm\\4.9.
 1454              		.file 4 "./lib_Network\\svt.h"
 1455              		.file 5 "./lib_DB\\database.h"
 1456              		.file 6 "./lib_Fat\\integer.h"
 1457              		.file 7 "./lib_Fat\\ff.h"
 1458              		.file 8 "./lib_Network\\ntp.h"
 1459              		.file 9 "./lib_Network\\network.h"
 1460              		.file 10 "./lib_DB\\logResult.h"
 1461              		.section	.debug_info,"",%progbits
 1462              	.Ldebug_info0:
 1463 0000 4F0B0000 		.4byte	0xb4f
 1464 0004 0400     		.2byte	0x4
 1465 0006 00000000 		.4byte	.Ldebug_abbrev0
 1466 000a 04       		.byte	0x4
 1467 000b 01       		.uleb128 0x1
 1468 000c 55030000 		.4byte	.LASF152
 1469 0010 01       		.byte	0x1
 1470 0011 C9060000 		.4byte	.LASF153
ARM GAS  C:\Users\Petro\AppData\Local\Temp\ccWEZPdt.s 			page 34


 1471 0015 12020000 		.4byte	.LASF154
 1472 0019 00000000 		.4byte	.Ldebug_ranges0+0
 1473 001d 00000000 		.4byte	0
 1474 0021 00000000 		.4byte	.Ldebug_line0
 1475 0025 02       		.uleb128 0x2
 1476 0026 01       		.byte	0x1
 1477 0027 06       		.byte	0x6
 1478 0028 24060000 		.4byte	.LASF0
 1479 002c 03       		.uleb128 0x3
 1480 002d EF040000 		.4byte	.LASF3
 1481 0031 02       		.byte	0x2
 1482 0032 1D       		.byte	0x1d
 1483 0033 37000000 		.4byte	0x37
 1484 0037 02       		.uleb128 0x2
 1485 0038 01       		.byte	0x1
 1486 0039 08       		.byte	0x8
 1487 003a 76050000 		.4byte	.LASF1
 1488 003e 02       		.uleb128 0x2
 1489 003f 02       		.byte	0x2
 1490 0040 05       		.byte	0x5
 1491 0041 91040000 		.4byte	.LASF2
 1492 0045 03       		.uleb128 0x3
 1493 0046 BB010000 		.4byte	.LASF4
 1494 004a 02       		.byte	0x2
 1495 004b 2B       		.byte	0x2b
 1496 004c 50000000 		.4byte	0x50
 1497 0050 02       		.uleb128 0x2
 1498 0051 02       		.byte	0x2
 1499 0052 07       		.byte	0x7
 1500 0053 30060000 		.4byte	.LASF5
 1501 0057 02       		.uleb128 0x2
 1502 0058 04       		.byte	0x4
 1503 0059 05       		.byte	0x5
 1504 005a A0040000 		.4byte	.LASF6
 1505 005e 03       		.uleb128 0x3
 1506 005f 84050000 		.4byte	.LASF7
 1507 0063 02       		.byte	0x2
 1508 0064 41       		.byte	0x41
 1509 0065 69000000 		.4byte	0x69
 1510 0069 02       		.uleb128 0x2
 1511 006a 04       		.byte	0x4
 1512 006b 07       		.byte	0x7
 1513 006c 34050000 		.4byte	.LASF8
 1514 0070 02       		.uleb128 0x2
 1515 0071 08       		.byte	0x8
 1516 0072 05       		.byte	0x5
 1517 0073 0B030000 		.4byte	.LASF9
 1518 0077 03       		.uleb128 0x3
 1519 0078 07020000 		.4byte	.LASF10
 1520 007c 02       		.byte	0x2
 1521 007d 5B       		.byte	0x5b
 1522 007e 82000000 		.4byte	0x82
 1523 0082 02       		.uleb128 0x2
 1524 0083 08       		.byte	0x8
 1525 0084 07       		.byte	0x7
 1526 0085 8C010000 		.4byte	.LASF11
 1527 0089 04       		.uleb128 0x4
ARM GAS  C:\Users\Petro\AppData\Local\Temp\ccWEZPdt.s 			page 35


 1528 008a 04       		.byte	0x4
 1529 008b 05       		.byte	0x5
 1530 008c 696E7400 		.ascii	"int\000"
 1531 0090 02       		.uleb128 0x2
 1532 0091 04       		.byte	0x4
 1533 0092 07       		.byte	0x7
 1534 0093 59000000 		.4byte	.LASF12
 1535 0097 03       		.uleb128 0x3
 1536 0098 C4020000 		.4byte	.LASF13
 1537 009c 03       		.byte	0x3
 1538 009d 15       		.byte	0x15
 1539 009e 2C000000 		.4byte	0x2c
 1540 00a2 03       		.uleb128 0x3
 1541 00a3 63040000 		.4byte	.LASF14
 1542 00a7 03       		.byte	0x3
 1543 00a8 21       		.byte	0x21
 1544 00a9 45000000 		.4byte	0x45
 1545 00ad 03       		.uleb128 0x3
 1546 00ae 0B010000 		.4byte	.LASF15
 1547 00b2 03       		.byte	0x3
 1548 00b3 2D       		.byte	0x2d
 1549 00b4 5E000000 		.4byte	0x5e
 1550 00b8 03       		.uleb128 0x3
 1551 00b9 CE040000 		.4byte	.LASF16
 1552 00bd 03       		.byte	0x3
 1553 00be 39       		.byte	0x39
 1554 00bf 77000000 		.4byte	0x77
 1555 00c3 02       		.uleb128 0x2
 1556 00c4 04       		.byte	0x4
 1557 00c5 04       		.byte	0x4
 1558 00c6 3C010000 		.4byte	.LASF17
 1559 00ca 02       		.uleb128 0x2
 1560 00cb 08       		.byte	0x8
 1561 00cc 04       		.byte	0x4
 1562 00cd 90060000 		.4byte	.LASF18
 1563 00d1 02       		.uleb128 0x2
 1564 00d2 01       		.byte	0x1
 1565 00d3 08       		.byte	0x8
 1566 00d4 8C020000 		.4byte	.LASF19
 1567 00d8 02       		.uleb128 0x2
 1568 00d9 04       		.byte	0x4
 1569 00da 07       		.byte	0x7
 1570 00db 2B050000 		.4byte	.LASF20
 1571 00df 05       		.uleb128 0x5
 1572 00e0 1C040000 		.4byte	.LASF65
 1573 00e4 20       		.byte	0x20
 1574 00e5 04       		.byte	0x4
 1575 00e6 0A       		.byte	0xa
 1576 00e7 40010000 		.4byte	0x140
 1577 00eb 06       		.uleb128 0x6
 1578 00ec 53657100 		.ascii	"Seq\000"
 1579 00f0 04       		.byte	0x4
 1580 00f1 0C       		.byte	0xc
 1581 00f2 A2000000 		.4byte	0xa2
 1582 00f6 00       		.byte	0
 1583 00f7 07       		.uleb128 0x7
 1584 00f8 D7040000 		.4byte	.LASF21
ARM GAS  C:\Users\Petro\AppData\Local\Temp\ccWEZPdt.s 			page 36


 1585 00fc 04       		.byte	0x4
 1586 00fd 0D       		.byte	0xd
 1587 00fe 89000000 		.4byte	0x89
 1588 0102 04       		.byte	0x4
 1589 0103 07       		.uleb128 0x7
 1590 0104 6C040000 		.4byte	.LASF22
 1591 0108 04       		.byte	0x4
 1592 0109 0E       		.byte	0xe
 1593 010a B8000000 		.4byte	0xb8
 1594 010e 08       		.byte	0x8
 1595 010f 07       		.uleb128 0x7
 1596 0110 72040000 		.4byte	.LASF23
 1597 0114 04       		.byte	0x4
 1598 0115 0F       		.byte	0xf
 1599 0116 A2000000 		.4byte	0xa2
 1600 011a 10       		.byte	0x10
 1601 011b 07       		.uleb128 0x7
 1602 011c 78040000 		.4byte	.LASF24
 1603 0120 04       		.byte	0x4
 1604 0121 10       		.byte	0x10
 1605 0122 97000000 		.4byte	0x97
 1606 0126 12       		.byte	0x12
 1607 0127 07       		.uleb128 0x7
 1608 0128 96050000 		.4byte	.LASF25
 1609 012c 04       		.byte	0x4
 1610 012d 11       		.byte	0x11
 1611 012e AD000000 		.4byte	0xad
 1612 0132 14       		.byte	0x14
 1613 0133 07       		.uleb128 0x7
 1614 0134 A8020000 		.4byte	.LASF26
 1615 0138 04       		.byte	0x4
 1616 0139 12       		.byte	0x12
 1617 013a 97000000 		.4byte	0x97
 1618 013e 18       		.byte	0x18
 1619 013f 00       		.byte	0
 1620 0140 08       		.uleb128 0x8
 1621 0141 30       		.byte	0x30
 1622 0142 05       		.byte	0x5
 1623 0143 1C       		.byte	0x1c
 1624 0144 91010000 		.4byte	0x191
 1625 0148 07       		.uleb128 0x7
 1626 0149 00060000 		.4byte	.LASF27
 1627 014d 05       		.byte	0x5
 1628 014e 1E       		.byte	0x1e
 1629 014f B8000000 		.4byte	0xb8
 1630 0153 00       		.byte	0
 1631 0154 07       		.uleb128 0x7
 1632 0155 68010000 		.4byte	.LASF28
 1633 0159 05       		.byte	0x5
 1634 015a 1F       		.byte	0x1f
 1635 015b A2000000 		.4byte	0xa2
 1636 015f 08       		.byte	0x8
 1637 0160 07       		.uleb128 0x7
 1638 0161 80060000 		.4byte	.LASF29
 1639 0165 05       		.byte	0x5
 1640 0166 20       		.byte	0x20
 1641 0167 B8000000 		.4byte	0xb8
ARM GAS  C:\Users\Petro\AppData\Local\Temp\ccWEZPdt.s 			page 37


 1642 016b 10       		.byte	0x10
 1643 016c 07       		.uleb128 0x7
 1644 016d 72020000 		.4byte	.LASF30
 1645 0171 05       		.byte	0x5
 1646 0172 21       		.byte	0x21
 1647 0173 A2000000 		.4byte	0xa2
 1648 0177 18       		.byte	0x18
 1649 0178 07       		.uleb128 0x7
 1650 0179 F5050000 		.4byte	.LASF31
 1651 017d 05       		.byte	0x5
 1652 017e 22       		.byte	0x22
 1653 017f B8000000 		.4byte	0xb8
 1654 0183 20       		.byte	0x20
 1655 0184 07       		.uleb128 0x7
 1656 0185 7E040000 		.4byte	.LASF32
 1657 0189 05       		.byte	0x5
 1658 018a 23       		.byte	0x23
 1659 018b A2000000 		.4byte	0xa2
 1660 018f 28       		.byte	0x28
 1661 0190 00       		.byte	0
 1662 0191 03       		.uleb128 0x3
 1663 0192 FC010000 		.4byte	.LASF33
 1664 0196 05       		.byte	0x5
 1665 0197 24       		.byte	0x24
 1666 0198 40010000 		.4byte	0x140
 1667 019c 03       		.uleb128 0x3
 1668 019d 45030000 		.4byte	.LASF34
 1669 01a1 06       		.byte	0x6
 1670 01a2 10       		.byte	0x10
 1671 01a3 37000000 		.4byte	0x37
 1672 01a7 03       		.uleb128 0x3
 1673 01a8 EE030000 		.4byte	.LASF35
 1674 01ac 06       		.byte	0x6
 1675 01ad 14       		.byte	0x14
 1676 01ae 50000000 		.4byte	0x50
 1677 01b2 03       		.uleb128 0x3
 1678 01b3 7F010000 		.4byte	.LASF36
 1679 01b7 06       		.byte	0x6
 1680 01b8 1D       		.byte	0x1d
 1681 01b9 69000000 		.4byte	0x69
 1682 01bd 03       		.uleb128 0x3
 1683 01be 09000000 		.4byte	.LASF37
 1684 01c2 07       		.byte	0x7
 1685 01c3 55       		.byte	0x55
 1686 01c4 B2010000 		.4byte	0x1b2
 1687 01c8 09       		.uleb128 0x9
 1688 01c9 3002     		.2byte	0x230
 1689 01cb 07       		.byte	0x7
 1690 01cc 5C       		.byte	0x5c
 1691 01cd A9020000 		.4byte	0x2a9
 1692 01d1 07       		.uleb128 0x7
 1693 01d2 C6010000 		.4byte	.LASF38
 1694 01d6 07       		.byte	0x7
 1695 01d7 5D       		.byte	0x5d
 1696 01d8 9C010000 		.4byte	0x19c
 1697 01dc 00       		.byte	0
 1698 01dd 06       		.uleb128 0x6
ARM GAS  C:\Users\Petro\AppData\Local\Temp\ccWEZPdt.s 			page 38


 1699 01de 64727600 		.ascii	"drv\000"
 1700 01e2 07       		.byte	0x7
 1701 01e3 5E       		.byte	0x5e
 1702 01e4 9C010000 		.4byte	0x19c
 1703 01e8 01       		.byte	0x1
 1704 01e9 07       		.uleb128 0x7
 1705 01ea 66000000 		.4byte	.LASF39
 1706 01ee 07       		.byte	0x7
 1707 01ef 5F       		.byte	0x5f
 1708 01f0 9C010000 		.4byte	0x19c
 1709 01f4 02       		.byte	0x2
 1710 01f5 07       		.uleb128 0x7
 1711 01f6 31030000 		.4byte	.LASF40
 1712 01fa 07       		.byte	0x7
 1713 01fb 60       		.byte	0x60
 1714 01fc 9C010000 		.4byte	0x19c
 1715 0200 03       		.byte	0x3
 1716 0201 07       		.uleb128 0x7
 1717 0202 1E010000 		.4byte	.LASF41
 1718 0206 07       		.byte	0x7
 1719 0207 61       		.byte	0x61
 1720 0208 9C010000 		.4byte	0x19c
 1721 020c 04       		.byte	0x4
 1722 020d 06       		.uleb128 0x6
 1723 020e 696400   		.ascii	"id\000"
 1724 0211 07       		.byte	0x7
 1725 0212 62       		.byte	0x62
 1726 0213 A7010000 		.4byte	0x1a7
 1727 0217 06       		.byte	0x6
 1728 0218 07       		.uleb128 0x7
 1729 0219 F9040000 		.4byte	.LASF42
 1730 021d 07       		.byte	0x7
 1731 021e 63       		.byte	0x63
 1732 021f A7010000 		.4byte	0x1a7
 1733 0223 08       		.byte	0x8
 1734 0224 07       		.uleb128 0x7
 1735 0225 F3030000 		.4byte	.LASF43
 1736 0229 07       		.byte	0x7
 1737 022a 64       		.byte	0x64
 1738 022b A7010000 		.4byte	0x1a7
 1739 022f 0A       		.byte	0xa
 1740 0230 07       		.uleb128 0x7
 1741 0231 4F000000 		.4byte	.LASF44
 1742 0235 07       		.byte	0x7
 1743 0236 72       		.byte	0x72
 1744 0237 B2010000 		.4byte	0x1b2
 1745 023b 0C       		.byte	0xc
 1746 023c 07       		.uleb128 0x7
 1747 023d 87040000 		.4byte	.LASF45
 1748 0241 07       		.byte	0x7
 1749 0242 73       		.byte	0x73
 1750 0243 B2010000 		.4byte	0x1b2
 1751 0247 10       		.byte	0x10
 1752 0248 07       		.uleb128 0x7
 1753 0249 0B040000 		.4byte	.LASF46
 1754 024d 07       		.byte	0x7
 1755 024e 7D       		.byte	0x7d
ARM GAS  C:\Users\Petro\AppData\Local\Temp\ccWEZPdt.s 			page 39


 1756 024f B2010000 		.4byte	0x1b2
 1757 0253 14       		.byte	0x14
 1758 0254 07       		.uleb128 0x7
 1759 0255 23030000 		.4byte	.LASF47
 1760 0259 07       		.byte	0x7
 1761 025a 7E       		.byte	0x7e
 1762 025b B2010000 		.4byte	0x1b2
 1763 025f 18       		.byte	0x18
 1764 0260 07       		.uleb128 0x7
 1765 0261 29030000 		.4byte	.LASF48
 1766 0265 07       		.byte	0x7
 1767 0266 7F       		.byte	0x7f
 1768 0267 B2010000 		.4byte	0x1b2
 1769 026b 1C       		.byte	0x1c
 1770 026c 07       		.uleb128 0x7
 1771 026d CE010000 		.4byte	.LASF49
 1772 0271 07       		.byte	0x7
 1773 0272 80       		.byte	0x80
 1774 0273 B2010000 		.4byte	0x1b2
 1775 0277 20       		.byte	0x20
 1776 0278 07       		.uleb128 0x7
 1777 0279 14040000 		.4byte	.LASF50
 1778 027d 07       		.byte	0x7
 1779 027e 81       		.byte	0x81
 1780 027f B2010000 		.4byte	0x1b2
 1781 0283 24       		.byte	0x24
 1782 0284 07       		.uleb128 0x7
 1783 0285 43060000 		.4byte	.LASF51
 1784 0289 07       		.byte	0x7
 1785 028a 82       		.byte	0x82
 1786 028b B2010000 		.4byte	0x1b2
 1787 028f 28       		.byte	0x28
 1788 0290 07       		.uleb128 0x7
 1789 0291 8C000000 		.4byte	.LASF52
 1790 0295 07       		.byte	0x7
 1791 0296 83       		.byte	0x83
 1792 0297 B2010000 		.4byte	0x1b2
 1793 029b 2C       		.byte	0x2c
 1794 029c 06       		.uleb128 0x6
 1795 029d 77696E00 		.ascii	"win\000"
 1796 02a1 07       		.byte	0x7
 1797 02a2 84       		.byte	0x84
 1798 02a3 A9020000 		.4byte	0x2a9
 1799 02a7 30       		.byte	0x30
 1800 02a8 00       		.byte	0
 1801 02a9 0A       		.uleb128 0xa
 1802 02aa 9C010000 		.4byte	0x19c
 1803 02ae BA020000 		.4byte	0x2ba
 1804 02b2 0B       		.uleb128 0xb
 1805 02b3 D8000000 		.4byte	0xd8
 1806 02b7 FF01     		.2byte	0x1ff
 1807 02b9 00       		.byte	0
 1808 02ba 03       		.uleb128 0x3
 1809 02bb 2A000000 		.4byte	.LASF53
 1810 02bf 07       		.byte	0x7
 1811 02c0 85       		.byte	0x85
 1812 02c1 C8010000 		.4byte	0x1c8
ARM GAS  C:\Users\Petro\AppData\Local\Temp\ccWEZPdt.s 			page 40


 1813 02c5 08       		.uleb128 0x8
 1814 02c6 10       		.byte	0x10
 1815 02c7 07       		.byte	0x7
 1816 02c8 8B       		.byte	0x8b
 1817 02c9 14030000 		.4byte	0x314
 1818 02cd 06       		.uleb128 0x6
 1819 02ce 667300   		.ascii	"fs\000"
 1820 02d1 07       		.byte	0x7
 1821 02d2 8C       		.byte	0x8c
 1822 02d3 14030000 		.4byte	0x314
 1823 02d7 00       		.byte	0
 1824 02d8 06       		.uleb128 0x6
 1825 02d9 696400   		.ascii	"id\000"
 1826 02dc 07       		.byte	0x7
 1827 02dd 8D       		.byte	0x8d
 1828 02de A7010000 		.4byte	0x1a7
 1829 02e2 04       		.byte	0x4
 1830 02e3 07       		.uleb128 0x7
 1831 02e4 B6010000 		.4byte	.LASF54
 1832 02e8 07       		.byte	0x7
 1833 02e9 8E       		.byte	0x8e
 1834 02ea 9C010000 		.4byte	0x19c
 1835 02ee 06       		.byte	0x6
 1836 02ef 07       		.uleb128 0x7
 1837 02f0 D6010000 		.4byte	.LASF55
 1838 02f4 07       		.byte	0x7
 1839 02f5 8F       		.byte	0x8f
 1840 02f6 9C010000 		.4byte	0x19c
 1841 02fa 07       		.byte	0x7
 1842 02fb 07       		.uleb128 0x7
 1843 02fc E1060000 		.4byte	.LASF56
 1844 0300 07       		.byte	0x7
 1845 0301 90       		.byte	0x90
 1846 0302 B2010000 		.4byte	0x1b2
 1847 0306 08       		.byte	0x8
 1848 0307 07       		.uleb128 0x7
 1849 0308 68050000 		.4byte	.LASF57
 1850 030c 07       		.byte	0x7
 1851 030d 91       		.byte	0x91
 1852 030e BD010000 		.4byte	0x1bd
 1853 0312 0C       		.byte	0xc
 1854 0313 00       		.byte	0
 1855 0314 0C       		.uleb128 0xc
 1856 0315 04       		.byte	0x4
 1857 0316 BA020000 		.4byte	0x2ba
 1858 031a 03       		.uleb128 0x3
 1859 031b 38000000 		.4byte	.LASF58
 1860 031f 07       		.byte	0x7
 1861 0320 9B       		.byte	0x9b
 1862 0321 C5020000 		.4byte	0x2c5
 1863 0325 09       		.uleb128 0x9
 1864 0326 2802     		.2byte	0x228
 1865 0328 07       		.byte	0x7
 1866 0329 A1       		.byte	0xa1
 1867 032a 9B030000 		.4byte	0x39b
 1868 032e 06       		.uleb128 0x6
 1869 032f 6F626A00 		.ascii	"obj\000"
ARM GAS  C:\Users\Petro\AppData\Local\Temp\ccWEZPdt.s 			page 41


 1870 0333 07       		.byte	0x7
 1871 0334 A2       		.byte	0xa2
 1872 0335 1A030000 		.4byte	0x31a
 1873 0339 00       		.byte	0
 1874 033a 07       		.uleb128 0x7
 1875 033b C9040000 		.4byte	.LASF59
 1876 033f 07       		.byte	0x7
 1877 0340 A3       		.byte	0xa3
 1878 0341 9C010000 		.4byte	0x19c
 1879 0345 10       		.byte	0x10
 1880 0346 06       		.uleb128 0x6
 1881 0347 65727200 		.ascii	"err\000"
 1882 034b 07       		.byte	0x7
 1883 034c A4       		.byte	0xa4
 1884 034d 9C010000 		.4byte	0x19c
 1885 0351 11       		.byte	0x11
 1886 0352 07       		.uleb128 0x7
 1887 0353 FE030000 		.4byte	.LASF60
 1888 0357 07       		.byte	0x7
 1889 0358 A5       		.byte	0xa5
 1890 0359 BD010000 		.4byte	0x1bd
 1891 035d 14       		.byte	0x14
 1892 035e 07       		.uleb128 0x7
 1893 035f 70050000 		.4byte	.LASF61
 1894 0363 07       		.byte	0x7
 1895 0364 A6       		.byte	0xa6
 1896 0365 B2010000 		.4byte	0x1b2
 1897 0369 18       		.byte	0x18
 1898 036a 07       		.uleb128 0x7
 1899 036b 06030000 		.4byte	.LASF62
 1900 036f 07       		.byte	0x7
 1901 0370 A7       		.byte	0xa7
 1902 0371 B2010000 		.4byte	0x1b2
 1903 0375 1C       		.byte	0x1c
 1904 0376 07       		.uleb128 0x7
 1905 0377 33010000 		.4byte	.LASF63
 1906 037b 07       		.byte	0x7
 1907 037c A9       		.byte	0xa9
 1908 037d B2010000 		.4byte	0x1b2
 1909 0381 20       		.byte	0x20
 1910 0382 07       		.uleb128 0x7
 1911 0383 16000000 		.4byte	.LASF64
 1912 0387 07       		.byte	0x7
 1913 0388 AA       		.byte	0xaa
 1914 0389 9B030000 		.4byte	0x39b
 1915 038d 24       		.byte	0x24
 1916 038e 06       		.uleb128 0x6
 1917 038f 62756600 		.ascii	"buf\000"
 1918 0393 07       		.byte	0x7
 1919 0394 B0       		.byte	0xb0
 1920 0395 A9020000 		.4byte	0x2a9
 1921 0399 28       		.byte	0x28
 1922 039a 00       		.byte	0
 1923 039b 0C       		.uleb128 0xc
 1924 039c 04       		.byte	0x4
 1925 039d 9C010000 		.4byte	0x19c
 1926 03a1 0D       		.uleb128 0xd
ARM GAS  C:\Users\Petro\AppData\Local\Temp\ccWEZPdt.s 			page 42


 1927 03a2 46494C00 		.ascii	"FIL\000"
 1928 03a6 07       		.byte	0x7
 1929 03a7 B2       		.byte	0xb2
 1930 03a8 25030000 		.4byte	0x325
 1931 03ac 05       		.uleb128 0x5
 1932 03ad AA010000 		.4byte	.LASF66
 1933 03b1 10       		.byte	0x10
 1934 03b2 05       		.byte	0x5
 1935 03b3 28       		.byte	0x28
 1936 03b4 DD030000 		.4byte	0x3dd
 1937 03b8 07       		.uleb128 0x7
 1938 03b9 00060000 		.4byte	.LASF27
 1939 03bd 05       		.byte	0x5
 1940 03be 2A       		.byte	0x2a
 1941 03bf B8000000 		.4byte	0xb8
 1942 03c3 00       		.byte	0
 1943 03c4 07       		.uleb128 0x7
 1944 03c5 68010000 		.4byte	.LASF28
 1945 03c9 05       		.byte	0x5
 1946 03ca 2B       		.byte	0x2b
 1947 03cb A2000000 		.4byte	0xa2
 1948 03cf 08       		.byte	0x8
 1949 03d0 07       		.uleb128 0x7
 1950 03d1 30000000 		.4byte	.LASF67
 1951 03d5 05       		.byte	0x5
 1952 03d6 2C       		.byte	0x2c
 1953 03d7 DD030000 		.4byte	0x3dd
 1954 03db 0C       		.byte	0xc
 1955 03dc 00       		.byte	0
 1956 03dd 0C       		.uleb128 0xc
 1957 03de 04       		.byte	0x4
 1958 03df AC030000 		.4byte	0x3ac
 1959 03e3 09       		.uleb128 0x9
 1960 03e4 7802     		.2byte	0x278
 1961 03e6 05       		.byte	0x5
 1962 03e7 46       		.byte	0x46
 1963 03e8 36040000 		.4byte	0x436
 1964 03ec 07       		.uleb128 0x7
 1965 03ed F9030000 		.4byte	.LASF68
 1966 03f1 05       		.byte	0x5
 1967 03f2 48       		.byte	0x48
 1968 03f3 A2000000 		.4byte	0xa2
 1969 03f7 00       		.byte	0
 1970 03f8 07       		.uleb128 0x7
 1971 03f9 C1050000 		.4byte	.LASF69
 1972 03fd 05       		.byte	0x5
 1973 03fe 49       		.byte	0x49
 1974 03ff A2000000 		.4byte	0xa2
 1975 0403 02       		.byte	0x2
 1976 0404 07       		.uleb128 0x7
 1977 0405 27010000 		.4byte	.LASF70
 1978 0409 05       		.byte	0x5
 1979 040a 4A       		.byte	0x4a
 1980 040b A2000000 		.4byte	0xa2
 1981 040f 04       		.byte	0x4
 1982 0410 07       		.uleb128 0x7
 1983 0411 45000000 		.4byte	.LASF71
ARM GAS  C:\Users\Petro\AppData\Local\Temp\ccWEZPdt.s 			page 43


 1984 0415 05       		.byte	0x5
 1985 0416 4C       		.byte	0x4c
 1986 0417 A2000000 		.4byte	0xa2
 1987 041b 06       		.byte	0x6
 1988 041c 07       		.uleb128 0x7
 1989 041d 3E000000 		.4byte	.LASF72
 1990 0421 05       		.byte	0x5
 1991 0422 4E       		.byte	0x4e
 1992 0423 36040000 		.4byte	0x436
 1993 0427 08       		.byte	0x8
 1994 0428 0E       		.uleb128 0xe
 1995 0429 11000000 		.4byte	.LASF73
 1996 042d 05       		.byte	0x5
 1997 042e 50       		.byte	0x50
 1998 042f 91010000 		.4byte	0x191
 1999 0433 4802     		.2byte	0x248
 2000 0435 00       		.byte	0
 2001 0436 0A       		.uleb128 0xa
 2002 0437 91010000 		.4byte	0x191
 2003 043b 46040000 		.4byte	0x446
 2004 043f 0F       		.uleb128 0xf
 2005 0440 D8000000 		.4byte	0xd8
 2006 0444 0B       		.byte	0xb
 2007 0445 00       		.byte	0
 2008 0446 03       		.uleb128 0x3
 2009 0447 21040000 		.4byte	.LASF74
 2010 044b 05       		.byte	0x5
 2011 044c 51       		.byte	0x51
 2012 044d E3030000 		.4byte	0x3e3
 2013 0451 08       		.uleb128 0x8
 2014 0452 18       		.byte	0x18
 2015 0453 08       		.byte	0x8
 2016 0454 07       		.byte	0x7
 2017 0455 AD040000 		.4byte	0x4ad
 2018 0459 06       		.uleb128 0x6
 2019 045a 496400   		.ascii	"Id\000"
 2020 045d 08       		.byte	0x8
 2021 045e 09       		.byte	0x9
 2022 045f A2000000 		.4byte	0xa2
 2023 0463 00       		.byte	0
 2024 0464 07       		.uleb128 0x7
 2025 0465 6C040000 		.4byte	.LASF22
 2026 0469 08       		.byte	0x8
 2027 046a 0A       		.byte	0xa
 2028 046b AD000000 		.4byte	0xad
 2029 046f 04       		.byte	0x4
 2030 0470 07       		.uleb128 0x7
 2031 0471 03050000 		.4byte	.LASF75
 2032 0475 08       		.byte	0x8
 2033 0476 0B       		.byte	0xb
 2034 0477 A2000000 		.4byte	0xa2
 2035 047b 08       		.byte	0x8
 2036 047c 07       		.uleb128 0x7
 2037 047d 0B050000 		.4byte	.LASF76
 2038 0481 08       		.byte	0x8
 2039 0482 0C       		.byte	0xc
 2040 0483 A2000000 		.4byte	0xa2
ARM GAS  C:\Users\Petro\AppData\Local\Temp\ccWEZPdt.s 			page 44


 2041 0487 0A       		.byte	0xa
 2042 0488 07       		.uleb128 0x7
 2043 0489 72040000 		.4byte	.LASF23
 2044 048d 08       		.byte	0x8
 2045 048e 0D       		.byte	0xd
 2046 048f AD000000 		.4byte	0xad
 2047 0493 0C       		.byte	0xc
 2048 0494 07       		.uleb128 0x7
 2049 0495 96050000 		.4byte	.LASF25
 2050 0499 08       		.byte	0x8
 2051 049a 0E       		.byte	0xe
 2052 049b AD000000 		.4byte	0xad
 2053 049f 10       		.byte	0x10
 2054 04a0 07       		.uleb128 0x7
 2055 04a1 A8020000 		.4byte	.LASF26
 2056 04a5 08       		.byte	0x8
 2057 04a6 0F       		.byte	0xf
 2058 04a7 97000000 		.4byte	0x97
 2059 04ab 14       		.byte	0x14
 2060 04ac 00       		.byte	0
 2061 04ad 03       		.uleb128 0x3
 2062 04ae 42010000 		.4byte	.LASF77
 2063 04b2 08       		.byte	0x8
 2064 04b3 10       		.byte	0x10
 2065 04b4 51040000 		.4byte	0x451
 2066 04b8 08       		.uleb128 0x8
 2067 04b9 18       		.byte	0x18
 2068 04ba 09       		.byte	0x9
 2069 04bb 36       		.byte	0x36
 2070 04bc 15050000 		.4byte	0x515
 2071 04c0 07       		.uleb128 0x7
 2072 04c1 B4000000 		.4byte	.LASF78
 2073 04c5 09       		.byte	0x9
 2074 04c6 39       		.byte	0x39
 2075 04c7 97000000 		.4byte	0x97
 2076 04cb 00       		.byte	0
 2077 04cc 07       		.uleb128 0x7
 2078 04cd DF040000 		.4byte	.LASF79
 2079 04d1 09       		.byte	0x9
 2080 04d2 3A       		.byte	0x3a
 2081 04d3 97000000 		.4byte	0x97
 2082 04d7 01       		.byte	0x1
 2083 04d8 07       		.uleb128 0x7
 2084 04d9 A3010000 		.4byte	.LASF80
 2085 04dd 09       		.byte	0x9
 2086 04de 3B       		.byte	0x3b
 2087 04df 97000000 		.4byte	0x97
 2088 04e3 02       		.byte	0x2
 2089 04e4 07       		.uleb128 0x7
 2090 04e5 E4010000 		.4byte	.LASF81
 2091 04e9 09       		.byte	0x9
 2092 04ea 3C       		.byte	0x3c
 2093 04eb 97000000 		.4byte	0x97
 2094 04ef 03       		.byte	0x3
 2095 04f0 07       		.uleb128 0x7
 2096 04f1 37030000 		.4byte	.LASF82
 2097 04f5 09       		.byte	0x9
ARM GAS  C:\Users\Petro\AppData\Local\Temp\ccWEZPdt.s 			page 45


 2098 04f6 3E       		.byte	0x3e
 2099 04f7 B8000000 		.4byte	0xb8
 2100 04fb 08       		.byte	0x8
 2101 04fc 07       		.uleb128 0x7
 2102 04fd 14010000 		.4byte	.LASF83
 2103 0501 09       		.byte	0x9
 2104 0502 3F       		.byte	0x3f
 2105 0503 A2000000 		.4byte	0xa2
 2106 0507 10       		.byte	0x10
 2107 0508 07       		.uleb128 0x7
 2108 0509 91020000 		.4byte	.LASF84
 2109 050d 09       		.byte	0x9
 2110 050e 40       		.byte	0x40
 2111 050f 97000000 		.4byte	0x97
 2112 0513 12       		.byte	0x12
 2113 0514 00       		.byte	0
 2114 0515 03       		.uleb128 0x3
 2115 0516 4A030000 		.4byte	.LASF85
 2116 051a 09       		.byte	0x9
 2117 051b 41       		.byte	0x41
 2118 051c B8040000 		.4byte	0x4b8
 2119 0520 08       		.uleb128 0x8
 2120 0521 18       		.byte	0x18
 2121 0522 09       		.byte	0x9
 2122 0523 43       		.byte	0x43
 2123 0524 65050000 		.4byte	0x565
 2124 0528 07       		.uleb128 0x7
 2125 0529 B4000000 		.4byte	.LASF78
 2126 052d 09       		.byte	0x9
 2127 052e 46       		.byte	0x46
 2128 052f 97000000 		.4byte	0x97
 2129 0533 00       		.byte	0
 2130 0534 07       		.uleb128 0x7
 2131 0535 B2060000 		.4byte	.LASF86
 2132 0539 09       		.byte	0x9
 2133 053a 47       		.byte	0x47
 2134 053b B8000000 		.4byte	0xb8
 2135 053f 08       		.byte	0x8
 2136 0540 07       		.uleb128 0x7
 2137 0541 FF000000 		.4byte	.LASF87
 2138 0545 09       		.byte	0x9
 2139 0546 48       		.byte	0x48
 2140 0547 A2000000 		.4byte	0xa2
 2141 054b 10       		.byte	0x10
 2142 054c 07       		.uleb128 0x7
 2143 054d C0060000 		.4byte	.LASF88
 2144 0551 09       		.byte	0x9
 2145 0552 49       		.byte	0x49
 2146 0553 97000000 		.4byte	0x97
 2147 0557 12       		.byte	0x12
 2148 0558 07       		.uleb128 0x7
 2149 0559 9F050000 		.4byte	.LASF89
 2150 055d 09       		.byte	0x9
 2151 055e 4B       		.byte	0x4b
 2152 055f 97000000 		.4byte	0x97
 2153 0563 13       		.byte	0x13
 2154 0564 00       		.byte	0
ARM GAS  C:\Users\Petro\AppData\Local\Temp\ccWEZPdt.s 			page 46


 2155 0565 03       		.uleb128 0x3
 2156 0566 AA050000 		.4byte	.LASF90
 2157 056a 09       		.byte	0x9
 2158 056b 4C       		.byte	0x4c
 2159 056c 20050000 		.4byte	0x520
 2160 0570 10       		.uleb128 0x10
 2161 0571 A6060000 		.4byte	.LASF155
 2162 0575 01       		.byte	0x1
 2163 0576 10       		.byte	0x10
 2164 0577 00000000 		.4byte	.LFB63
 2165 057b 28000000 		.4byte	.LFE63-.LFB63
 2166 057f 01       		.uleb128 0x1
 2167 0580 9C       		.byte	0x9c
 2168 0581 11       		.uleb128 0x11
 2169 0582 83000000 		.4byte	.LASF96
 2170 0586 01       		.byte	0x1
 2171 0587 1F       		.byte	0x1f
 2172 0588 00000000 		.4byte	.LFB64
 2173 058c B8000000 		.4byte	.LFE64-.LFB64
 2174 0590 01       		.uleb128 0x1
 2175 0591 9C       		.byte	0x9c
 2176 0592 BF050000 		.4byte	0x5bf
 2177 0596 12       		.uleb128 0x12
 2178 0597 16000000 		.4byte	.LBB2
 2179 059b 84000000 		.4byte	.LBE2-.LBB2
 2180 059f 13       		.uleb128 0x13
 2181 05a0 9D020000 		.4byte	.LASF91
 2182 05a4 01       		.byte	0x1
 2183 05a5 23       		.byte	0x23
 2184 05a6 BF050000 		.4byte	0x5bf
 2185 05aa 03       		.uleb128 0x3
 2186 05ab 91       		.byte	0x91
 2187 05ac 887F     		.sleb128 -120
 2188 05ae 13       		.uleb128 0x13
 2189 05af 00000000 		.4byte	.LASF92
 2190 05b3 01       		.byte	0x1
 2191 05b4 24       		.byte	0x24
 2192 05b5 BF050000 		.4byte	0x5bf
 2193 05b9 03       		.uleb128 0x3
 2194 05ba 91       		.byte	0x91
 2195 05bb BC7F     		.sleb128 -68
 2196 05bd 00       		.byte	0
 2197 05be 00       		.byte	0
 2198 05bf 0A       		.uleb128 0xa
 2199 05c0 D1000000 		.4byte	0xd1
 2200 05c4 CF050000 		.4byte	0x5cf
 2201 05c8 0F       		.uleb128 0xf
 2202 05c9 D8000000 		.4byte	0xd8
 2203 05cd 31       		.byte	0x31
 2204 05ce 00       		.byte	0
 2205 05cf 14       		.uleb128 0x14
 2206 05d0 5C050000 		.4byte	.LASF98
 2207 05d4 01       		.byte	0x1
 2208 05d5 40       		.byte	0x40
 2209 05d6 AD000000 		.4byte	0xad
 2210 05da 00000000 		.4byte	.LFB65
 2211 05de 8C010000 		.4byte	.LFE65-.LFB65
ARM GAS  C:\Users\Petro\AppData\Local\Temp\ccWEZPdt.s 			page 47


 2212 05e2 01       		.uleb128 0x1
 2213 05e3 9C       		.byte	0x9c
 2214 05e4 26060000 		.4byte	0x626
 2215 05e8 12       		.uleb128 0x12
 2216 05e9 1A000000 		.4byte	.LBB3
 2217 05ed 4C010000 		.4byte	.LBE3-.LBB3
 2218 05f1 13       		.uleb128 0x13
 2219 05f2 85010000 		.4byte	.LASF93
 2220 05f6 01       		.byte	0x1
 2221 05f7 45       		.byte	0x45
 2222 05f8 AD000000 		.4byte	0xad
 2223 05fc 02       		.uleb128 0x2
 2224 05fd 91       		.byte	0x91
 2225 05fe 6C       		.sleb128 -20
 2226 05ff 15       		.uleb128 0x15
 2227 0600 6900     		.ascii	"i\000"
 2228 0602 01       		.byte	0x1
 2229 0603 46       		.byte	0x46
 2230 0604 89000000 		.4byte	0x89
 2231 0608 13       		.uleb128 0x13
 2232 0609 57050000 		.4byte	.LASF94
 2233 060d 01       		.byte	0x1
 2234 060e 47       		.byte	0x47
 2235 060f 97000000 		.4byte	0x97
 2236 0613 02       		.uleb128 0x2
 2237 0614 91       		.byte	0x91
 2238 0615 6B       		.sleb128 -21
 2239 0616 13       		.uleb128 0x13
 2240 0617 DB010000 		.4byte	.LASF95
 2241 061b 01       		.byte	0x1
 2242 061c 48       		.byte	0x48
 2243 061d DF000000 		.4byte	0xdf
 2244 0621 02       		.uleb128 0x2
 2245 0622 91       		.byte	0x91
 2246 0623 48       		.sleb128 -56
 2247 0624 00       		.byte	0
 2248 0625 00       		.byte	0
 2249 0626 16       		.uleb128 0x16
 2250 0627 4D040000 		.4byte	.LASF97
 2251 062b 01       		.byte	0x1
 2252 062c 9B       		.byte	0x9b
 2253 062d 00000000 		.4byte	.LFB66
 2254 0631 1C000000 		.4byte	.LFE66-.LFB66
 2255 0635 01       		.uleb128 0x1
 2256 0636 9C       		.byte	0x9c
 2257 0637 4A060000 		.4byte	0x64a
 2258 063b 17       		.uleb128 0x17
 2259 063c DF040000 		.4byte	.LASF79
 2260 0640 01       		.byte	0x1
 2261 0641 9B       		.byte	0x9b
 2262 0642 AD000000 		.4byte	0xad
 2263 0646 02       		.uleb128 0x2
 2264 0647 91       		.byte	0x91
 2265 0648 74       		.sleb128 -12
 2266 0649 00       		.byte	0
 2267 064a 18       		.uleb128 0x18
 2268 064b E8060000 		.4byte	.LASF156
ARM GAS  C:\Users\Petro\AppData\Local\Temp\ccWEZPdt.s 			page 48


 2269 064f 01       		.byte	0x1
 2270 0650 A0       		.byte	0xa0
 2271 0651 AD000000 		.4byte	0xad
 2272 0655 00000000 		.4byte	.LFB67
 2273 0659 14000000 		.4byte	.LFE67-.LFB67
 2274 065d 01       		.uleb128 0x1
 2275 065e 9C       		.byte	0x9c
 2276 065f 14       		.uleb128 0x14
 2277 0660 5B040000 		.4byte	.LASF99
 2278 0664 01       		.byte	0x1
 2279 0665 A7       		.byte	0xa7
 2280 0666 AD000000 		.4byte	0xad
 2281 066a 00000000 		.4byte	.LFB68
 2282 066e 2C040000 		.4byte	.LFE68-.LFB68
 2283 0672 01       		.uleb128 0x1
 2284 0673 9C       		.byte	0x9c
 2285 0674 8B070000 		.4byte	0x78b
 2286 0678 19       		.uleb128 0x19
 2287 0679 6900     		.ascii	"i\000"
 2288 067b 01       		.byte	0x1
 2289 067c A9       		.byte	0xa9
 2290 067d 89000000 		.4byte	0x89
 2291 0681 02       		.uleb128 0x2
 2292 0682 91       		.byte	0x91
 2293 0683 6C       		.sleb128 -20
 2294 0684 13       		.uleb128 0x13
 2295 0685 85010000 		.4byte	.LASF93
 2296 0689 01       		.byte	0x1
 2297 068a AA       		.byte	0xaa
 2298 068b A2000000 		.4byte	0xa2
 2299 068f 02       		.uleb128 0x2
 2300 0690 91       		.byte	0x91
 2301 0691 6A       		.sleb128 -22
 2302 0692 13       		.uleb128 0x13
 2303 0693 B4000000 		.4byte	.LASF78
 2304 0697 01       		.byte	0x1
 2305 0698 AB       		.byte	0xab
 2306 0699 AD000000 		.4byte	0xad
 2307 069d 02       		.uleb128 0x2
 2308 069e 91       		.byte	0x91
 2309 069f 64       		.sleb128 -28
 2310 06a0 13       		.uleb128 0x13
 2311 06a1 73000000 		.4byte	.LASF100
 2312 06a5 01       		.byte	0x1
 2313 06a6 AC       		.byte	0xac
 2314 06a7 AD000000 		.4byte	0xad
 2315 06ab 02       		.uleb128 0x2
 2316 06ac 91       		.byte	0x91
 2317 06ad 40       		.sleb128 -64
 2318 06ae 13       		.uleb128 0x13
 2319 06af 83020000 		.4byte	.LASF101
 2320 06b3 01       		.byte	0x1
 2321 06b4 AD       		.byte	0xad
 2322 06b5 8B070000 		.4byte	0x78b
 2323 06b9 03       		.uleb128 0x3
 2324 06ba 91       		.byte	0x91
 2325 06bb B07F     		.sleb128 -80
ARM GAS  C:\Users\Petro\AppData\Local\Temp\ccWEZPdt.s 			page 49


 2326 06bd 13       		.uleb128 0x13
 2327 06be E3030000 		.4byte	.LASF102
 2328 06c2 01       		.byte	0x1
 2329 06c3 AE       		.byte	0xae
 2330 06c4 9B070000 		.4byte	0x79b
 2331 06c8 03       		.uleb128 0x3
 2332 06c9 91       		.byte	0x91
 2333 06ca A87F     		.sleb128 -88
 2334 06cc 13       		.uleb128 0x13
 2335 06cd B4050000 		.4byte	.LASF103
 2336 06d1 01       		.byte	0x1
 2337 06d2 AF       		.byte	0xaf
 2338 06d3 AD000000 		.4byte	0xad
 2339 06d7 02       		.uleb128 0x2
 2340 06d8 91       		.byte	0x91
 2341 06d9 60       		.sleb128 -32
 2342 06da 13       		.uleb128 0x13
 2343 06db DE050000 		.4byte	.LASF104
 2344 06df 01       		.byte	0x1
 2345 06e0 B0       		.byte	0xb0
 2346 06e1 A2000000 		.4byte	0xa2
 2347 06e5 02       		.uleb128 0x2
 2348 06e6 91       		.byte	0x91
 2349 06e7 5E       		.sleb128 -34
 2350 06e8 13       		.uleb128 0x13
 2351 06e9 E3000000 		.4byte	.LASF105
 2352 06ed 01       		.byte	0x1
 2353 06ee B1       		.byte	0xb1
 2354 06ef AD000000 		.4byte	0xad
 2355 06f3 02       		.uleb128 0x2
 2356 06f4 91       		.byte	0x91
 2357 06f5 4C       		.sleb128 -52
 2358 06f6 13       		.uleb128 0x13
 2359 06f7 55010000 		.4byte	.LASF106
 2360 06fb 01       		.byte	0x1
 2361 06fc B2       		.byte	0xb2
 2362 06fd AD000000 		.4byte	0xad
 2363 0701 02       		.uleb128 0x2
 2364 0702 91       		.byte	0x91
 2365 0703 58       		.sleb128 -40
 2366 0704 13       		.uleb128 0x13
 2367 0705 4F050000 		.4byte	.LASF107
 2368 0709 01       		.byte	0x1
 2369 070a B3       		.byte	0xb3
 2370 070b 89000000 		.4byte	0x89
 2371 070f 02       		.uleb128 0x2
 2372 0710 91       		.byte	0x91
 2373 0711 54       		.sleb128 -44
 2374 0712 13       		.uleb128 0x13
 2375 0713 19030000 		.4byte	.LASF108
 2376 0717 01       		.byte	0x1
 2377 0718 B4       		.byte	0xb4
 2378 0719 89000000 		.4byte	0x89
 2379 071d 02       		.uleb128 0x2
 2380 071e 91       		.byte	0x91
 2381 071f 50       		.sleb128 -48
 2382 0720 1A       		.uleb128 0x1a
ARM GAS  C:\Users\Petro\AppData\Local\Temp\ccWEZPdt.s 			page 50


 2383 0721 30000000 		.4byte	.LBB4
 2384 0725 6C020000 		.4byte	.LBE4-.LBB4
 2385 0729 55070000 		.4byte	0x755
 2386 072d 13       		.uleb128 0x13
 2387 072e 3E000000 		.4byte	.LASF72
 2388 0732 01       		.byte	0x1
 2389 0733 C2       		.byte	0xc2
 2390 0734 AB070000 		.4byte	0x7ab
 2391 0738 03       		.uleb128 0x3
 2392 0739 91       		.byte	0x91
 2393 073a C47E     		.sleb128 -188
 2394 073c 12       		.uleb128 0x12
 2395 073d 06020000 		.4byte	.LBB5
 2396 0741 10000000 		.4byte	.LBE5-.LBB5
 2397 0745 19       		.uleb128 0x19
 2398 0746 53535300 		.ascii	"SSS\000"
 2399 074a 01       		.byte	0x1
 2400 074b E6       		.byte	0xe6
 2401 074c 89000000 		.4byte	0x89
 2402 0750 02       		.uleb128 0x2
 2403 0751 91       		.byte	0x91
 2404 0752 48       		.sleb128 -56
 2405 0753 00       		.byte	0
 2406 0754 00       		.byte	0
 2407 0755 12       		.uleb128 0x12
 2408 0756 C6020000 		.4byte	.LBB6
 2409 075a 48010000 		.4byte	.LBE6-.LBB6
 2410 075e 1B       		.uleb128 0x1b
 2411 075f 94000000 		.4byte	.LASF109
 2412 0763 01       		.byte	0x1
 2413 0764 0301     		.2byte	0x103
 2414 0766 A2000000 		.4byte	0xa2
 2415 076a 1C       		.uleb128 0x1c
 2416 076b 03040000 		.4byte	.LASF110
 2417 076f 01       		.byte	0x1
 2418 0770 0401     		.2byte	0x104
 2419 0772 A2000000 		.4byte	0xa2
 2420 0776 02       		.uleb128 0x2
 2421 0777 91       		.byte	0x91
 2422 0778 46       		.sleb128 -58
 2423 0779 1C       		.uleb128 0x1c
 2424 077a 3E000000 		.4byte	.LASF72
 2425 077e 01       		.byte	0x1
 2426 077f 1C01     		.2byte	0x11c
 2427 0781 AB070000 		.4byte	0x7ab
 2428 0785 03       		.uleb128 0x3
 2429 0786 91       		.byte	0x91
 2430 0787 C47E     		.sleb128 -188
 2431 0789 00       		.byte	0
 2432 078a 00       		.byte	0
 2433 078b 0A       		.uleb128 0xa
 2434 078c AD000000 		.4byte	0xad
 2435 0790 9B070000 		.4byte	0x79b
 2436 0794 0F       		.uleb128 0xf
 2437 0795 D8000000 		.4byte	0xd8
 2438 0799 03       		.byte	0x3
 2439 079a 00       		.byte	0
ARM GAS  C:\Users\Petro\AppData\Local\Temp\ccWEZPdt.s 			page 51


 2440 079b 0A       		.uleb128 0xa
 2441 079c A2000000 		.4byte	0xa2
 2442 07a0 AB070000 		.4byte	0x7ab
 2443 07a4 0F       		.uleb128 0xf
 2444 07a5 D8000000 		.4byte	0xd8
 2445 07a9 03       		.byte	0x3
 2446 07aa 00       		.byte	0
 2447 07ab 0A       		.uleb128 0xa
 2448 07ac D1000000 		.4byte	0xd1
 2449 07b0 BB070000 		.4byte	0x7bb
 2450 07b4 0F       		.uleb128 0xf
 2451 07b5 D8000000 		.4byte	0xd8
 2452 07b9 63       		.byte	0x63
 2453 07ba 00       		.byte	0
 2454 07bb 1D       		.uleb128 0x1d
 2455 07bc F0010000 		.4byte	.LASF119
 2456 07c0 01       		.byte	0x1
 2457 07c1 2801     		.2byte	0x128
 2458 07c3 00000000 		.4byte	.LFB69
 2459 07c7 58000000 		.4byte	.LFE69-.LFB69
 2460 07cb 01       		.uleb128 0x1
 2461 07cc 9C       		.byte	0x9c
 2462 07cd 20080000 		.4byte	0x820
 2463 07d1 1E       		.uleb128 0x1e
 2464 07d2 58060000 		.4byte	.LASF111
 2465 07d6 01       		.byte	0x1
 2466 07d7 2801     		.2byte	0x128
 2467 07d9 AD000000 		.4byte	0xad
 2468 07dd 03       		.uleb128 0x3
 2469 07de 91       		.byte	0x91
 2470 07df 8C7F     		.sleb128 -116
 2471 07e1 1E       		.uleb128 0x1e
 2472 07e2 C1040000 		.4byte	.LASF112
 2473 07e6 01       		.byte	0x1
 2474 07e7 2801     		.2byte	0x128
 2475 07e9 A2000000 		.4byte	0xa2
 2476 07ed 03       		.uleb128 0x3
 2477 07ee 91       		.byte	0x91
 2478 07ef 8A7F     		.sleb128 -118
 2479 07f1 1F       		.uleb128 0x1f
 2480 07f2 494400   		.ascii	"ID\000"
 2481 07f5 01       		.byte	0x1
 2482 07f6 2801     		.2byte	0x128
 2483 07f8 AD000000 		.4byte	0xad
 2484 07fc 03       		.uleb128 0x3
 2485 07fd 91       		.byte	0x91
 2486 07fe 847F     		.sleb128 -124
 2487 0800 1C       		.uleb128 0x1c
 2488 0801 9D020000 		.4byte	.LASF91
 2489 0805 01       		.byte	0x1
 2490 0806 2A01     		.2byte	0x12a
 2491 0808 BF050000 		.4byte	0x5bf
 2492 080c 02       		.uleb128 0x2
 2493 080d 91       		.byte	0x91
 2494 080e 44       		.sleb128 -60
 2495 080f 1C       		.uleb128 0x1c
 2496 0810 00000000 		.4byte	.LASF92
ARM GAS  C:\Users\Petro\AppData\Local\Temp\ccWEZPdt.s 			page 52


 2497 0814 01       		.byte	0x1
 2498 0815 2B01     		.2byte	0x12b
 2499 0817 BF050000 		.4byte	0x5bf
 2500 081b 03       		.uleb128 0x3
 2501 081c 91       		.byte	0x91
 2502 081d 907F     		.sleb128 -112
 2503 081f 00       		.byte	0
 2504 0820 20       		.uleb128 0x20
 2505 0821 97060000 		.4byte	.LASF157
 2506 0825 01       		.byte	0x1
 2507 0826 3801     		.2byte	0x138
 2508 0828 AD000000 		.4byte	0xad
 2509 082c 00000000 		.4byte	.LFB70
 2510 0830 A8000000 		.4byte	.LFE70-.LFB70
 2511 0834 01       		.uleb128 0x1
 2512 0835 9C       		.byte	0x9c
 2513 0836 B3080000 		.4byte	0x8b3
 2514 083a 1E       		.uleb128 0x1e
 2515 083b 62060000 		.4byte	.LASF113
 2516 083f 01       		.byte	0x1
 2517 0840 3801     		.2byte	0x138
 2518 0842 B3080000 		.4byte	0x8b3
 2519 0846 02       		.uleb128 0x2
 2520 0847 91       		.byte	0x91
 2521 0848 54       		.sleb128 -44
 2522 0849 1E       		.uleb128 0x1e
 2523 084a CC020000 		.4byte	.LASF114
 2524 084e 01       		.byte	0x1
 2525 084f 3801     		.2byte	0x138
 2526 0851 B9080000 		.4byte	0x8b9
 2527 0855 02       		.uleb128 0x2
 2528 0856 91       		.byte	0x91
 2529 0857 50       		.sleb128 -48
 2530 0858 1E       		.uleb128 0x1e
 2531 0859 6C060000 		.4byte	.LASF115
 2532 085d 01       		.byte	0x1
 2533 085e 3801     		.2byte	0x138
 2534 0860 B3080000 		.4byte	0x8b3
 2535 0864 02       		.uleb128 0x2
 2536 0865 91       		.byte	0x91
 2537 0866 4C       		.sleb128 -52
 2538 0867 1E       		.uleb128 0x1e
 2539 0868 D8020000 		.4byte	.LASF116
 2540 086c 01       		.byte	0x1
 2541 086d 3801     		.2byte	0x138
 2542 086f B9080000 		.4byte	0x8b9
 2543 0873 02       		.uleb128 0x2
 2544 0874 91       		.byte	0x91
 2545 0875 48       		.sleb128 -56
 2546 0876 1E       		.uleb128 0x1e
 2547 0877 B7040000 		.4byte	.LASF117
 2548 087b 01       		.byte	0x1
 2549 087c 3801     		.2byte	0x138
 2550 087e B3080000 		.4byte	0x8b3
 2551 0882 02       		.uleb128 0x2
 2552 0883 91       		.byte	0x91
 2553 0884 00       		.sleb128 0
ARM GAS  C:\Users\Petro\AppData\Local\Temp\ccWEZPdt.s 			page 53


 2554 0885 1C       		.uleb128 0x1c
 2555 0886 57050000 		.4byte	.LASF94
 2556 088a 01       		.byte	0x1
 2557 088b 3A01     		.2byte	0x13a
 2558 088d 97000000 		.4byte	0x97
 2559 0891 02       		.uleb128 0x2
 2560 0892 91       		.byte	0x91
 2561 0893 73       		.sleb128 -13
 2562 0894 1C       		.uleb128 0x1c
 2563 0895 85010000 		.4byte	.LASF93
 2564 0899 01       		.byte	0x1
 2565 089a 3B01     		.2byte	0x13b
 2566 089c AD000000 		.4byte	0xad
 2567 08a0 02       		.uleb128 0x2
 2568 08a1 91       		.byte	0x91
 2569 08a2 74       		.sleb128 -12
 2570 08a3 1C       		.uleb128 0x1c
 2571 08a4 4C060000 		.4byte	.LASF118
 2572 08a8 01       		.byte	0x1
 2573 08a9 3F01     		.2byte	0x13f
 2574 08ab AD040000 		.4byte	0x4ad
 2575 08af 02       		.uleb128 0x2
 2576 08b0 91       		.byte	0x91
 2577 08b1 58       		.sleb128 -40
 2578 08b2 00       		.byte	0
 2579 08b3 0C       		.uleb128 0xc
 2580 08b4 04       		.byte	0x4
 2581 08b5 AD000000 		.4byte	0xad
 2582 08b9 0C       		.uleb128 0xc
 2583 08ba 04       		.byte	0x4
 2584 08bb A2000000 		.4byte	0xa2
 2585 08bf 1D       		.uleb128 0x1d
 2586 08c0 B2020000 		.4byte	.LASF120
 2587 08c4 01       		.byte	0x1
 2588 08c5 5B01     		.2byte	0x15b
 2589 08c7 00000000 		.4byte	.LFB71
 2590 08cb 64000000 		.4byte	.LFE71-.LFB71
 2591 08cf 01       		.uleb128 0x1
 2592 08d0 9C       		.byte	0x9c
 2593 08d1 24090000 		.4byte	0x924
 2594 08d5 1E       		.uleb128 0x1e
 2595 08d6 76060000 		.4byte	.LASF121
 2596 08da 01       		.byte	0x1
 2597 08db 5B01     		.2byte	0x15b
 2598 08dd AD000000 		.4byte	0xad
 2599 08e1 03       		.uleb128 0x3
 2600 08e2 91       		.byte	0x91
 2601 08e3 8C7F     		.sleb128 -116
 2602 08e5 1E       		.uleb128 0x1e
 2603 08e6 E4020000 		.4byte	.LASF122
 2604 08ea 01       		.byte	0x1
 2605 08eb 5B01     		.2byte	0x15b
 2606 08ed A2000000 		.4byte	0xa2
 2607 08f1 03       		.uleb128 0x3
 2608 08f2 91       		.byte	0x91
 2609 08f3 8A7F     		.sleb128 -118
 2610 08f5 1F       		.uleb128 0x1f
ARM GAS  C:\Users\Petro\AppData\Local\Temp\ccWEZPdt.s 			page 54


 2611 08f6 494400   		.ascii	"ID\000"
 2612 08f9 01       		.byte	0x1
 2613 08fa 5B01     		.2byte	0x15b
 2614 08fc AD000000 		.4byte	0xad
 2615 0900 03       		.uleb128 0x3
 2616 0901 91       		.byte	0x91
 2617 0902 847F     		.sleb128 -124
 2618 0904 1C       		.uleb128 0x1c
 2619 0905 9D020000 		.4byte	.LASF91
 2620 0909 01       		.byte	0x1
 2621 090a 5D01     		.2byte	0x15d
 2622 090c BF050000 		.4byte	0x5bf
 2623 0910 02       		.uleb128 0x2
 2624 0911 91       		.byte	0x91
 2625 0912 44       		.sleb128 -60
 2626 0913 1C       		.uleb128 0x1c
 2627 0914 00000000 		.4byte	.LASF92
 2628 0918 01       		.byte	0x1
 2629 0919 5E01     		.2byte	0x15e
 2630 091b BF050000 		.4byte	0x5bf
 2631 091f 03       		.uleb128 0x3
 2632 0920 91       		.byte	0x91
 2633 0921 907F     		.sleb128 -112
 2634 0923 00       		.byte	0
 2635 0924 21       		.uleb128 0x21
 2636 0925 1E000000 		.4byte	.LASF123
 2637 0929 04       		.byte	0x4
 2638 092a 48       		.byte	0x48
 2639 092b 97000000 		.4byte	0x97
 2640 092f 05       		.uleb128 0x5
 2641 0930 03       		.byte	0x3
 2642 0931 00000000 		.4byte	PROTO_STATE
 2643 0935 21       		.uleb128 0x21
 2644 0936 E9050000 		.4byte	.LASF124
 2645 093a 04       		.byte	0x4
 2646 093b 48       		.byte	0x48
 2647 093c 97000000 		.4byte	0x97
 2648 0940 05       		.uleb128 0x5
 2649 0941 03       		.byte	0x3
 2650 0942 00000000 		.4byte	LenD1
 2651 0946 21       		.uleb128 0x21
 2652 0947 EF050000 		.4byte	.LASF125
 2653 094b 04       		.byte	0x4
 2654 094c 48       		.byte	0x48
 2655 094d 97000000 		.4byte	0x97
 2656 0951 05       		.uleb128 0x5
 2657 0952 03       		.byte	0x3
 2658 0953 00000000 		.4byte	LenD2
 2659 0957 21       		.uleb128 0x21
 2660 0958 1E060000 		.4byte	.LASF126
 2661 095c 04       		.byte	0x4
 2662 095d 48       		.byte	0x48
 2663 095e 97000000 		.4byte	0x97
 2664 0962 05       		.uleb128 0x5
 2665 0963 03       		.byte	0x3
 2666 0964 00000000 		.4byte	LenD3
 2667 0968 21       		.uleb128 0x21
ARM GAS  C:\Users\Petro\AppData\Local\Temp\ccWEZPdt.s 			page 55


 2668 0969 8F050000 		.4byte	.LASF127
 2669 096d 04       		.byte	0x4
 2670 096e 48       		.byte	0x48
 2671 096f 97000000 		.4byte	0x97
 2672 0973 05       		.uleb128 0x5
 2673 0974 03       		.byte	0x3
 2674 0975 00000000 		.4byte	LenSeq
 2675 0979 21       		.uleb128 0x21
 2676 097a 78010000 		.4byte	.LASF128
 2677 097e 04       		.byte	0x4
 2678 097f 48       		.byte	0x48
 2679 0980 97000000 		.4byte	0x97
 2680 0984 05       		.uleb128 0x5
 2681 0985 03       		.byte	0x3
 2682 0986 00000000 		.4byte	LenChS
 2683 098a 21       		.uleb128 0x21
 2684 098b 13050000 		.4byte	.LASF129
 2685 098f 04       		.byte	0x4
 2686 0990 48       		.byte	0x48
 2687 0991 97000000 		.4byte	0x97
 2688 0995 05       		.uleb128 0x5
 2689 0996 03       		.byte	0x3
 2690 0997 00000000 		.4byte	LenC
 2691 099b 21       		.uleb128 0x21
 2692 099c 6D000000 		.4byte	.LASF130
 2693 09a0 0A       		.byte	0xa
 2694 09a1 11       		.byte	0x11
 2695 09a2 BA020000 		.4byte	0x2ba
 2696 09a6 05       		.uleb128 0x5
 2697 09a7 03       		.byte	0x3
 2698 09a8 00000000 		.4byte	fatFs
 2699 09ac 21       		.uleb128 0x21
 2700 09ad 3F030000 		.4byte	.LASF131
 2701 09b1 0A       		.byte	0xa
 2702 09b2 12       		.byte	0x12
 2703 09b3 A1030000 		.4byte	0x3a1
 2704 09b7 05       		.uleb128 0x5
 2705 09b8 03       		.byte	0x3
 2706 09b9 00000000 		.4byte	fileO
 2707 09bd 21       		.uleb128 0x21
 2708 09be 18050000 		.4byte	.LASF132
 2709 09c2 0A       		.byte	0xa
 2710 09c3 15       		.byte	0x15
 2711 09c4 B2010000 		.4byte	0x1b2
 2712 09c8 05       		.uleb128 0x5
 2713 09c9 03       		.byte	0x3
 2714 09ca 00000000 		.4byte	createFlag
 2715 09ce 0A       		.uleb128 0xa
 2716 09cf AC030000 		.4byte	0x3ac
 2717 09d3 DE090000 		.4byte	0x9de
 2718 09d7 0F       		.uleb128 0xf
 2719 09d8 D8000000 		.4byte	0xd8
 2720 09dc 07       		.byte	0x7
 2721 09dd 00       		.byte	0
 2722 09de 21       		.uleb128 0x21
 2723 09df BD000000 		.4byte	.LASF133
 2724 09e3 05       		.byte	0x5
ARM GAS  C:\Users\Petro\AppData\Local\Temp\ccWEZPdt.s 			page 56


 2725 09e4 2D       		.byte	0x2d
 2726 09e5 CE090000 		.4byte	0x9ce
 2727 09e9 05       		.uleb128 0x5
 2728 09ea 03       		.byte	0x3
 2729 09eb 00000000 		.4byte	bufferSkiersOnWay
 2730 09ef 0A       		.uleb128 0xa
 2731 09f0 91010000 		.4byte	0x191
 2732 09f4 FF090000 		.4byte	0x9ff
 2733 09f8 0F       		.uleb128 0xf
 2734 09f9 D8000000 		.4byte	0xd8
 2735 09fd 07       		.byte	0x7
 2736 09fe 00       		.byte	0
 2737 09ff 21       		.uleb128 0x21
 2738 0a00 4A010000 		.4byte	.LASF134
 2739 0a04 05       		.byte	0x5
 2740 0a05 2F       		.byte	0x2f
 2741 0a06 EF090000 		.4byte	0x9ef
 2742 0a0a 05       		.uleb128 0x5
 2743 0a0b 03       		.byte	0x3
 2744 0a0c 00000000 		.4byte	bufferFifo
 2745 0a10 21       		.uleb128 0x21
 2746 0a11 CE050000 		.4byte	.LASF135
 2747 0a15 05       		.byte	0x5
 2748 0a16 31       		.byte	0x31
 2749 0a17 AD000000 		.4byte	0xad
 2750 0a1b 05       		.uleb128 0x5
 2751 0a1c 03       		.byte	0x3
 2752 0a1d 00000000 		.4byte	currentSizeBuff
 2753 0a21 21       		.uleb128 0x21
 2754 0a22 CF000000 		.4byte	.LASF136
 2755 0a26 05       		.byte	0x5
 2756 0a27 32       		.byte	0x32
 2757 0a28 DD030000 		.4byte	0x3dd
 2758 0a2c 05       		.uleb128 0x5
 2759 0a2d 03       		.byte	0x3
 2760 0a2e 00000000 		.4byte	currentElementStart
 2761 0a32 21       		.uleb128 0x21
 2762 0a33 38040000 		.4byte	.LASF137
 2763 0a37 05       		.byte	0x5
 2764 0a38 33       		.byte	0x33
 2765 0a39 DD030000 		.4byte	0x3dd
 2766 0a3d 05       		.uleb128 0x5
 2767 0a3e 03       		.byte	0x3
 2768 0a3f 00000000 		.4byte	currentElementFinish
 2769 0a43 21       		.uleb128 0x21
 2770 0a44 F1000000 		.4byte	.LASF138
 2771 0a48 05       		.byte	0x5
 2772 0a49 35       		.byte	0x35
 2773 0a4a A2000000 		.4byte	0xa2
 2774 0a4e 05       		.uleb128 0x5
 2775 0a4f 03       		.byte	0x3
 2776 0a50 00000000 		.4byte	skiersStarted
 2777 0a54 21       		.uleb128 0x21
 2778 0a55 0F060000 		.4byte	.LASF139
 2779 0a59 05       		.byte	0x5
 2780 0a5a 36       		.byte	0x36
 2781 0a5b A2000000 		.4byte	0xa2
ARM GAS  C:\Users\Petro\AppData\Local\Temp\ccWEZPdt.s 			page 57


 2782 0a5f 05       		.uleb128 0x5
 2783 0a60 03       		.byte	0x3
 2784 0a61 00000000 		.4byte	skiersFinished
 2785 0a65 0A       		.uleb128 0xa
 2786 0a66 91010000 		.4byte	0x191
 2787 0a6a 750A0000 		.4byte	0xa75
 2788 0a6e 0F       		.uleb128 0xf
 2789 0a6f D8000000 		.4byte	0xd8
 2790 0a73 95       		.byte	0x95
 2791 0a74 00       		.byte	0
 2792 0a75 21       		.uleb128 0x21
 2793 0a76 23050000 		.4byte	.LASF140
 2794 0a7a 05       		.byte	0x5
 2795 0a7b 38       		.byte	0x38
 2796 0a7c 650A0000 		.4byte	0xa65
 2797 0a80 05       		.uleb128 0x5
 2798 0a81 03       		.byte	0x3
 2799 0a82 00000000 		.4byte	skierDB
 2800 0a86 21       		.uleb128 0x21
 2801 0a87 9B040000 		.4byte	.LASF141
 2802 0a8b 05       		.byte	0x5
 2803 0a8c 53       		.byte	0x53
 2804 0a8d 46040000 		.4byte	0x446
 2805 0a91 05       		.uleb128 0x5
 2806 0a92 03       		.byte	0x3
 2807 0a93 00000000 		.4byte	fifo
 2808 0a97 21       		.uleb128 0x21
 2809 0a98 5F010000 		.4byte	.LASF142
 2810 0a9c 08       		.byte	0x8
 2811 0a9d 3E       		.byte	0x3e
 2812 0a9e 97000000 		.4byte	0x97
 2813 0aa2 05       		.uleb128 0x5
 2814 0aa3 03       		.byte	0x3
 2815 0aa4 00000000 		.4byte	NtpLenD1
 2816 0aa8 21       		.uleb128 0x21
 2817 0aa9 F0020000 		.4byte	.LASF143
 2818 0aad 08       		.byte	0x8
 2819 0aae 3E       		.byte	0x3e
 2820 0aaf 97000000 		.4byte	0x97
 2821 0ab3 05       		.uleb128 0x5
 2822 0ab4 03       		.byte	0x3
 2823 0ab5 00000000 		.4byte	NtpLenMsD1
 2824 0ab9 21       		.uleb128 0x21
 2825 0aba 46050000 		.4byte	.LASF144
 2826 0abe 08       		.byte	0x8
 2827 0abf 3E       		.byte	0x3e
 2828 0ac0 97000000 		.4byte	0x97
 2829 0ac4 05       		.uleb128 0x5
 2830 0ac5 03       		.byte	0x3
 2831 0ac6 00000000 		.4byte	NtpLenD2
 2832 0aca 21       		.uleb128 0x21
 2833 0acb FB020000 		.4byte	.LASF145
 2834 0acf 08       		.byte	0x8
 2835 0ad0 3E       		.byte	0x3e
 2836 0ad1 97000000 		.4byte	0x97
 2837 0ad5 05       		.uleb128 0x5
 2838 0ad6 03       		.byte	0x3
ARM GAS  C:\Users\Petro\AppData\Local\Temp\ccWEZPdt.s 			page 58


 2839 0ad7 00000000 		.4byte	NtpLenMsD2
 2840 0adb 21       		.uleb128 0x21
 2841 0adc 2F040000 		.4byte	.LASF146
 2842 0ae0 08       		.byte	0x8
 2843 0ae1 3E       		.byte	0x3e
 2844 0ae2 97000000 		.4byte	0x97
 2845 0ae6 05       		.uleb128 0x5
 2846 0ae7 03       		.byte	0x3
 2847 0ae8 00000000 		.4byte	NtpLenId
 2848 0aec 21       		.uleb128 0x21
 2849 0aed E5040000 		.4byte	.LASF147
 2850 0af1 08       		.byte	0x8
 2851 0af2 3E       		.byte	0x3e
 2852 0af3 97000000 		.4byte	0x97
 2853 0af7 05       		.uleb128 0x5
 2854 0af8 03       		.byte	0x3
 2855 0af9 00000000 		.4byte	NtpLenChS
 2856 0afd 21       		.uleb128 0x21
 2857 0afe AC000000 		.4byte	.LASF148
 2858 0b02 09       		.byte	0x9
 2859 0b03 4E       		.byte	0x4e
 2860 0b04 15050000 		.4byte	0x515
 2861 0b08 05       		.uleb128 0x5
 2862 0b09 03       		.byte	0x3
 2863 0b0a 00000000 		.4byte	outData
 2864 0b0e 21       		.uleb128 0x21
 2865 0b0f 9A000000 		.4byte	.LASF149
 2866 0b13 09       		.byte	0x9
 2867 0b14 4F       		.byte	0x4f
 2868 0b15 65050000 		.4byte	0x565
 2869 0b19 05       		.uleb128 0x5
 2870 0b1a 03       		.byte	0x3
 2871 0b1b 00000000 		.4byte	inData
 2872 0b1f 21       		.uleb128 0x21
 2873 0b20 A1000000 		.4byte	.LASF150
 2874 0b24 09       		.byte	0x9
 2875 0b25 53       		.byte	0x53
 2876 0b26 AD000000 		.4byte	0xad
 2877 0b2a 05       		.uleb128 0x5
 2878 0b2b 03       		.byte	0x3
 2879 0b2c 00000000 		.4byte	numAttemps
 2880 0b30 21       		.uleb128 0x21
 2881 0b31 55010000 		.4byte	.LASF106
 2882 0b35 09       		.byte	0x9
 2883 0b36 53       		.byte	0x53
 2884 0b37 AD000000 		.4byte	0xad
 2885 0b3b 05       		.uleb128 0x5
 2886 0b3c 03       		.byte	0x3
 2887 0b3d 00000000 		.4byte	noConnect
 2888 0b41 21       		.uleb128 0x21
 2889 0b42 A9040000 		.4byte	.LASF151
 2890 0b46 09       		.byte	0x9
 2891 0b47 53       		.byte	0x53
 2892 0b48 AD000000 		.4byte	0xad
 2893 0b4c 05       		.uleb128 0x5
 2894 0b4d 03       		.byte	0x3
 2895 0b4e 00000000 		.4byte	networkStatus
ARM GAS  C:\Users\Petro\AppData\Local\Temp\ccWEZPdt.s 			page 59


 2896 0b52 00       		.byte	0
 2897              		.section	.debug_abbrev,"",%progbits
 2898              	.Ldebug_abbrev0:
 2899 0000 01       		.uleb128 0x1
 2900 0001 11       		.uleb128 0x11
 2901 0002 01       		.byte	0x1
 2902 0003 25       		.uleb128 0x25
 2903 0004 0E       		.uleb128 0xe
 2904 0005 13       		.uleb128 0x13
 2905 0006 0B       		.uleb128 0xb
 2906 0007 03       		.uleb128 0x3
 2907 0008 0E       		.uleb128 0xe
 2908 0009 1B       		.uleb128 0x1b
 2909 000a 0E       		.uleb128 0xe
 2910 000b 55       		.uleb128 0x55
 2911 000c 17       		.uleb128 0x17
 2912 000d 11       		.uleb128 0x11
 2913 000e 01       		.uleb128 0x1
 2914 000f 10       		.uleb128 0x10
 2915 0010 17       		.uleb128 0x17
 2916 0011 00       		.byte	0
 2917 0012 00       		.byte	0
 2918 0013 02       		.uleb128 0x2
 2919 0014 24       		.uleb128 0x24
 2920 0015 00       		.byte	0
 2921 0016 0B       		.uleb128 0xb
 2922 0017 0B       		.uleb128 0xb
 2923 0018 3E       		.uleb128 0x3e
 2924 0019 0B       		.uleb128 0xb
 2925 001a 03       		.uleb128 0x3
 2926 001b 0E       		.uleb128 0xe
 2927 001c 00       		.byte	0
 2928 001d 00       		.byte	0
 2929 001e 03       		.uleb128 0x3
 2930 001f 16       		.uleb128 0x16
 2931 0020 00       		.byte	0
 2932 0021 03       		.uleb128 0x3
 2933 0022 0E       		.uleb128 0xe
 2934 0023 3A       		.uleb128 0x3a
 2935 0024 0B       		.uleb128 0xb
 2936 0025 3B       		.uleb128 0x3b
 2937 0026 0B       		.uleb128 0xb
 2938 0027 49       		.uleb128 0x49
 2939 0028 13       		.uleb128 0x13
 2940 0029 00       		.byte	0
 2941 002a 00       		.byte	0
 2942 002b 04       		.uleb128 0x4
 2943 002c 24       		.uleb128 0x24
 2944 002d 00       		.byte	0
 2945 002e 0B       		.uleb128 0xb
 2946 002f 0B       		.uleb128 0xb
 2947 0030 3E       		.uleb128 0x3e
 2948 0031 0B       		.uleb128 0xb
 2949 0032 03       		.uleb128 0x3
 2950 0033 08       		.uleb128 0x8
 2951 0034 00       		.byte	0
 2952 0035 00       		.byte	0
ARM GAS  C:\Users\Petro\AppData\Local\Temp\ccWEZPdt.s 			page 60


 2953 0036 05       		.uleb128 0x5
 2954 0037 13       		.uleb128 0x13
 2955 0038 01       		.byte	0x1
 2956 0039 03       		.uleb128 0x3
 2957 003a 0E       		.uleb128 0xe
 2958 003b 0B       		.uleb128 0xb
 2959 003c 0B       		.uleb128 0xb
 2960 003d 3A       		.uleb128 0x3a
 2961 003e 0B       		.uleb128 0xb
 2962 003f 3B       		.uleb128 0x3b
 2963 0040 0B       		.uleb128 0xb
 2964 0041 01       		.uleb128 0x1
 2965 0042 13       		.uleb128 0x13
 2966 0043 00       		.byte	0
 2967 0044 00       		.byte	0
 2968 0045 06       		.uleb128 0x6
 2969 0046 0D       		.uleb128 0xd
 2970 0047 00       		.byte	0
 2971 0048 03       		.uleb128 0x3
 2972 0049 08       		.uleb128 0x8
 2973 004a 3A       		.uleb128 0x3a
 2974 004b 0B       		.uleb128 0xb
 2975 004c 3B       		.uleb128 0x3b
 2976 004d 0B       		.uleb128 0xb
 2977 004e 49       		.uleb128 0x49
 2978 004f 13       		.uleb128 0x13
 2979 0050 38       		.uleb128 0x38
 2980 0051 0B       		.uleb128 0xb
 2981 0052 00       		.byte	0
 2982 0053 00       		.byte	0
 2983 0054 07       		.uleb128 0x7
 2984 0055 0D       		.uleb128 0xd
 2985 0056 00       		.byte	0
 2986 0057 03       		.uleb128 0x3
 2987 0058 0E       		.uleb128 0xe
 2988 0059 3A       		.uleb128 0x3a
 2989 005a 0B       		.uleb128 0xb
 2990 005b 3B       		.uleb128 0x3b
 2991 005c 0B       		.uleb128 0xb
 2992 005d 49       		.uleb128 0x49
 2993 005e 13       		.uleb128 0x13
 2994 005f 38       		.uleb128 0x38
 2995 0060 0B       		.uleb128 0xb
 2996 0061 00       		.byte	0
 2997 0062 00       		.byte	0
 2998 0063 08       		.uleb128 0x8
 2999 0064 13       		.uleb128 0x13
 3000 0065 01       		.byte	0x1
 3001 0066 0B       		.uleb128 0xb
 3002 0067 0B       		.uleb128 0xb
 3003 0068 3A       		.uleb128 0x3a
 3004 0069 0B       		.uleb128 0xb
 3005 006a 3B       		.uleb128 0x3b
 3006 006b 0B       		.uleb128 0xb
 3007 006c 01       		.uleb128 0x1
 3008 006d 13       		.uleb128 0x13
 3009 006e 00       		.byte	0
ARM GAS  C:\Users\Petro\AppData\Local\Temp\ccWEZPdt.s 			page 61


 3010 006f 00       		.byte	0
 3011 0070 09       		.uleb128 0x9
 3012 0071 13       		.uleb128 0x13
 3013 0072 01       		.byte	0x1
 3014 0073 0B       		.uleb128 0xb
 3015 0074 05       		.uleb128 0x5
 3016 0075 3A       		.uleb128 0x3a
 3017 0076 0B       		.uleb128 0xb
 3018 0077 3B       		.uleb128 0x3b
 3019 0078 0B       		.uleb128 0xb
 3020 0079 01       		.uleb128 0x1
 3021 007a 13       		.uleb128 0x13
 3022 007b 00       		.byte	0
 3023 007c 00       		.byte	0
 3024 007d 0A       		.uleb128 0xa
 3025 007e 01       		.uleb128 0x1
 3026 007f 01       		.byte	0x1
 3027 0080 49       		.uleb128 0x49
 3028 0081 13       		.uleb128 0x13
 3029 0082 01       		.uleb128 0x1
 3030 0083 13       		.uleb128 0x13
 3031 0084 00       		.byte	0
 3032 0085 00       		.byte	0
 3033 0086 0B       		.uleb128 0xb
 3034 0087 21       		.uleb128 0x21
 3035 0088 00       		.byte	0
 3036 0089 49       		.uleb128 0x49
 3037 008a 13       		.uleb128 0x13
 3038 008b 2F       		.uleb128 0x2f
 3039 008c 05       		.uleb128 0x5
 3040 008d 00       		.byte	0
 3041 008e 00       		.byte	0
 3042 008f 0C       		.uleb128 0xc
 3043 0090 0F       		.uleb128 0xf
 3044 0091 00       		.byte	0
 3045 0092 0B       		.uleb128 0xb
 3046 0093 0B       		.uleb128 0xb
 3047 0094 49       		.uleb128 0x49
 3048 0095 13       		.uleb128 0x13
 3049 0096 00       		.byte	0
 3050 0097 00       		.byte	0
 3051 0098 0D       		.uleb128 0xd
 3052 0099 16       		.uleb128 0x16
 3053 009a 00       		.byte	0
 3054 009b 03       		.uleb128 0x3
 3055 009c 08       		.uleb128 0x8
 3056 009d 3A       		.uleb128 0x3a
 3057 009e 0B       		.uleb128 0xb
 3058 009f 3B       		.uleb128 0x3b
 3059 00a0 0B       		.uleb128 0xb
 3060 00a1 49       		.uleb128 0x49
 3061 00a2 13       		.uleb128 0x13
 3062 00a3 00       		.byte	0
 3063 00a4 00       		.byte	0
 3064 00a5 0E       		.uleb128 0xe
 3065 00a6 0D       		.uleb128 0xd
 3066 00a7 00       		.byte	0
ARM GAS  C:\Users\Petro\AppData\Local\Temp\ccWEZPdt.s 			page 62


 3067 00a8 03       		.uleb128 0x3
 3068 00a9 0E       		.uleb128 0xe
 3069 00aa 3A       		.uleb128 0x3a
 3070 00ab 0B       		.uleb128 0xb
 3071 00ac 3B       		.uleb128 0x3b
 3072 00ad 0B       		.uleb128 0xb
 3073 00ae 49       		.uleb128 0x49
 3074 00af 13       		.uleb128 0x13
 3075 00b0 38       		.uleb128 0x38
 3076 00b1 05       		.uleb128 0x5
 3077 00b2 00       		.byte	0
 3078 00b3 00       		.byte	0
 3079 00b4 0F       		.uleb128 0xf
 3080 00b5 21       		.uleb128 0x21
 3081 00b6 00       		.byte	0
 3082 00b7 49       		.uleb128 0x49
 3083 00b8 13       		.uleb128 0x13
 3084 00b9 2F       		.uleb128 0x2f
 3085 00ba 0B       		.uleb128 0xb
 3086 00bb 00       		.byte	0
 3087 00bc 00       		.byte	0
 3088 00bd 10       		.uleb128 0x10
 3089 00be 2E       		.uleb128 0x2e
 3090 00bf 00       		.byte	0
 3091 00c0 3F       		.uleb128 0x3f
 3092 00c1 19       		.uleb128 0x19
 3093 00c2 03       		.uleb128 0x3
 3094 00c3 0E       		.uleb128 0xe
 3095 00c4 3A       		.uleb128 0x3a
 3096 00c5 0B       		.uleb128 0xb
 3097 00c6 3B       		.uleb128 0x3b
 3098 00c7 0B       		.uleb128 0xb
 3099 00c8 27       		.uleb128 0x27
 3100 00c9 19       		.uleb128 0x19
 3101 00ca 11       		.uleb128 0x11
 3102 00cb 01       		.uleb128 0x1
 3103 00cc 12       		.uleb128 0x12
 3104 00cd 06       		.uleb128 0x6
 3105 00ce 40       		.uleb128 0x40
 3106 00cf 18       		.uleb128 0x18
 3107 00d0 9642     		.uleb128 0x2116
 3108 00d2 19       		.uleb128 0x19
 3109 00d3 00       		.byte	0
 3110 00d4 00       		.byte	0
 3111 00d5 11       		.uleb128 0x11
 3112 00d6 2E       		.uleb128 0x2e
 3113 00d7 01       		.byte	0x1
 3114 00d8 3F       		.uleb128 0x3f
 3115 00d9 19       		.uleb128 0x19
 3116 00da 03       		.uleb128 0x3
 3117 00db 0E       		.uleb128 0xe
 3118 00dc 3A       		.uleb128 0x3a
 3119 00dd 0B       		.uleb128 0xb
 3120 00de 3B       		.uleb128 0x3b
 3121 00df 0B       		.uleb128 0xb
 3122 00e0 27       		.uleb128 0x27
 3123 00e1 19       		.uleb128 0x19
ARM GAS  C:\Users\Petro\AppData\Local\Temp\ccWEZPdt.s 			page 63


 3124 00e2 11       		.uleb128 0x11
 3125 00e3 01       		.uleb128 0x1
 3126 00e4 12       		.uleb128 0x12
 3127 00e5 06       		.uleb128 0x6
 3128 00e6 40       		.uleb128 0x40
 3129 00e7 18       		.uleb128 0x18
 3130 00e8 9642     		.uleb128 0x2116
 3131 00ea 19       		.uleb128 0x19
 3132 00eb 01       		.uleb128 0x1
 3133 00ec 13       		.uleb128 0x13
 3134 00ed 00       		.byte	0
 3135 00ee 00       		.byte	0
 3136 00ef 12       		.uleb128 0x12
 3137 00f0 0B       		.uleb128 0xb
 3138 00f1 01       		.byte	0x1
 3139 00f2 11       		.uleb128 0x11
 3140 00f3 01       		.uleb128 0x1
 3141 00f4 12       		.uleb128 0x12
 3142 00f5 06       		.uleb128 0x6
 3143 00f6 00       		.byte	0
 3144 00f7 00       		.byte	0
 3145 00f8 13       		.uleb128 0x13
 3146 00f9 34       		.uleb128 0x34
 3147 00fa 00       		.byte	0
 3148 00fb 03       		.uleb128 0x3
 3149 00fc 0E       		.uleb128 0xe
 3150 00fd 3A       		.uleb128 0x3a
 3151 00fe 0B       		.uleb128 0xb
 3152 00ff 3B       		.uleb128 0x3b
 3153 0100 0B       		.uleb128 0xb
 3154 0101 49       		.uleb128 0x49
 3155 0102 13       		.uleb128 0x13
 3156 0103 02       		.uleb128 0x2
 3157 0104 18       		.uleb128 0x18
 3158 0105 00       		.byte	0
 3159 0106 00       		.byte	0
 3160 0107 14       		.uleb128 0x14
 3161 0108 2E       		.uleb128 0x2e
 3162 0109 01       		.byte	0x1
 3163 010a 3F       		.uleb128 0x3f
 3164 010b 19       		.uleb128 0x19
 3165 010c 03       		.uleb128 0x3
 3166 010d 0E       		.uleb128 0xe
 3167 010e 3A       		.uleb128 0x3a
 3168 010f 0B       		.uleb128 0xb
 3169 0110 3B       		.uleb128 0x3b
 3170 0111 0B       		.uleb128 0xb
 3171 0112 27       		.uleb128 0x27
 3172 0113 19       		.uleb128 0x19
 3173 0114 49       		.uleb128 0x49
 3174 0115 13       		.uleb128 0x13
 3175 0116 11       		.uleb128 0x11
 3176 0117 01       		.uleb128 0x1
 3177 0118 12       		.uleb128 0x12
 3178 0119 06       		.uleb128 0x6
 3179 011a 40       		.uleb128 0x40
 3180 011b 18       		.uleb128 0x18
ARM GAS  C:\Users\Petro\AppData\Local\Temp\ccWEZPdt.s 			page 64


 3181 011c 9642     		.uleb128 0x2116
 3182 011e 19       		.uleb128 0x19
 3183 011f 01       		.uleb128 0x1
 3184 0120 13       		.uleb128 0x13
 3185 0121 00       		.byte	0
 3186 0122 00       		.byte	0
 3187 0123 15       		.uleb128 0x15
 3188 0124 34       		.uleb128 0x34
 3189 0125 00       		.byte	0
 3190 0126 03       		.uleb128 0x3
 3191 0127 08       		.uleb128 0x8
 3192 0128 3A       		.uleb128 0x3a
 3193 0129 0B       		.uleb128 0xb
 3194 012a 3B       		.uleb128 0x3b
 3195 012b 0B       		.uleb128 0xb
 3196 012c 49       		.uleb128 0x49
 3197 012d 13       		.uleb128 0x13
 3198 012e 00       		.byte	0
 3199 012f 00       		.byte	0
 3200 0130 16       		.uleb128 0x16
 3201 0131 2E       		.uleb128 0x2e
 3202 0132 01       		.byte	0x1
 3203 0133 3F       		.uleb128 0x3f
 3204 0134 19       		.uleb128 0x19
 3205 0135 03       		.uleb128 0x3
 3206 0136 0E       		.uleb128 0xe
 3207 0137 3A       		.uleb128 0x3a
 3208 0138 0B       		.uleb128 0xb
 3209 0139 3B       		.uleb128 0x3b
 3210 013a 0B       		.uleb128 0xb
 3211 013b 27       		.uleb128 0x27
 3212 013c 19       		.uleb128 0x19
 3213 013d 11       		.uleb128 0x11
 3214 013e 01       		.uleb128 0x1
 3215 013f 12       		.uleb128 0x12
 3216 0140 06       		.uleb128 0x6
 3217 0141 40       		.uleb128 0x40
 3218 0142 18       		.uleb128 0x18
 3219 0143 9742     		.uleb128 0x2117
 3220 0145 19       		.uleb128 0x19
 3221 0146 01       		.uleb128 0x1
 3222 0147 13       		.uleb128 0x13
 3223 0148 00       		.byte	0
 3224 0149 00       		.byte	0
 3225 014a 17       		.uleb128 0x17
 3226 014b 05       		.uleb128 0x5
 3227 014c 00       		.byte	0
 3228 014d 03       		.uleb128 0x3
 3229 014e 0E       		.uleb128 0xe
 3230 014f 3A       		.uleb128 0x3a
 3231 0150 0B       		.uleb128 0xb
 3232 0151 3B       		.uleb128 0x3b
 3233 0152 0B       		.uleb128 0xb
 3234 0153 49       		.uleb128 0x49
 3235 0154 13       		.uleb128 0x13
 3236 0155 02       		.uleb128 0x2
 3237 0156 18       		.uleb128 0x18
ARM GAS  C:\Users\Petro\AppData\Local\Temp\ccWEZPdt.s 			page 65


 3238 0157 00       		.byte	0
 3239 0158 00       		.byte	0
 3240 0159 18       		.uleb128 0x18
 3241 015a 2E       		.uleb128 0x2e
 3242 015b 00       		.byte	0
 3243 015c 3F       		.uleb128 0x3f
 3244 015d 19       		.uleb128 0x19
 3245 015e 03       		.uleb128 0x3
 3246 015f 0E       		.uleb128 0xe
 3247 0160 3A       		.uleb128 0x3a
 3248 0161 0B       		.uleb128 0xb
 3249 0162 3B       		.uleb128 0x3b
 3250 0163 0B       		.uleb128 0xb
 3251 0164 27       		.uleb128 0x27
 3252 0165 19       		.uleb128 0x19
 3253 0166 49       		.uleb128 0x49
 3254 0167 13       		.uleb128 0x13
 3255 0168 11       		.uleb128 0x11
 3256 0169 01       		.uleb128 0x1
 3257 016a 12       		.uleb128 0x12
 3258 016b 06       		.uleb128 0x6
 3259 016c 40       		.uleb128 0x40
 3260 016d 18       		.uleb128 0x18
 3261 016e 9742     		.uleb128 0x2117
 3262 0170 19       		.uleb128 0x19
 3263 0171 00       		.byte	0
 3264 0172 00       		.byte	0
 3265 0173 19       		.uleb128 0x19
 3266 0174 34       		.uleb128 0x34
 3267 0175 00       		.byte	0
 3268 0176 03       		.uleb128 0x3
 3269 0177 08       		.uleb128 0x8
 3270 0178 3A       		.uleb128 0x3a
 3271 0179 0B       		.uleb128 0xb
 3272 017a 3B       		.uleb128 0x3b
 3273 017b 0B       		.uleb128 0xb
 3274 017c 49       		.uleb128 0x49
 3275 017d 13       		.uleb128 0x13
 3276 017e 02       		.uleb128 0x2
 3277 017f 18       		.uleb128 0x18
 3278 0180 00       		.byte	0
 3279 0181 00       		.byte	0
 3280 0182 1A       		.uleb128 0x1a
 3281 0183 0B       		.uleb128 0xb
 3282 0184 01       		.byte	0x1
 3283 0185 11       		.uleb128 0x11
 3284 0186 01       		.uleb128 0x1
 3285 0187 12       		.uleb128 0x12
 3286 0188 06       		.uleb128 0x6
 3287 0189 01       		.uleb128 0x1
 3288 018a 13       		.uleb128 0x13
 3289 018b 00       		.byte	0
 3290 018c 00       		.byte	0
 3291 018d 1B       		.uleb128 0x1b
 3292 018e 34       		.uleb128 0x34
 3293 018f 00       		.byte	0
 3294 0190 03       		.uleb128 0x3
ARM GAS  C:\Users\Petro\AppData\Local\Temp\ccWEZPdt.s 			page 66


 3295 0191 0E       		.uleb128 0xe
 3296 0192 3A       		.uleb128 0x3a
 3297 0193 0B       		.uleb128 0xb
 3298 0194 3B       		.uleb128 0x3b
 3299 0195 05       		.uleb128 0x5
 3300 0196 49       		.uleb128 0x49
 3301 0197 13       		.uleb128 0x13
 3302 0198 00       		.byte	0
 3303 0199 00       		.byte	0
 3304 019a 1C       		.uleb128 0x1c
 3305 019b 34       		.uleb128 0x34
 3306 019c 00       		.byte	0
 3307 019d 03       		.uleb128 0x3
 3308 019e 0E       		.uleb128 0xe
 3309 019f 3A       		.uleb128 0x3a
 3310 01a0 0B       		.uleb128 0xb
 3311 01a1 3B       		.uleb128 0x3b
 3312 01a2 05       		.uleb128 0x5
 3313 01a3 49       		.uleb128 0x49
 3314 01a4 13       		.uleb128 0x13
 3315 01a5 02       		.uleb128 0x2
 3316 01a6 18       		.uleb128 0x18
 3317 01a7 00       		.byte	0
 3318 01a8 00       		.byte	0
 3319 01a9 1D       		.uleb128 0x1d
 3320 01aa 2E       		.uleb128 0x2e
 3321 01ab 01       		.byte	0x1
 3322 01ac 03       		.uleb128 0x3
 3323 01ad 0E       		.uleb128 0xe
 3324 01ae 3A       		.uleb128 0x3a
 3325 01af 0B       		.uleb128 0xb
 3326 01b0 3B       		.uleb128 0x3b
 3327 01b1 05       		.uleb128 0x5
 3328 01b2 27       		.uleb128 0x27
 3329 01b3 19       		.uleb128 0x19
 3330 01b4 11       		.uleb128 0x11
 3331 01b5 01       		.uleb128 0x1
 3332 01b6 12       		.uleb128 0x12
 3333 01b7 06       		.uleb128 0x6
 3334 01b8 40       		.uleb128 0x40
 3335 01b9 18       		.uleb128 0x18
 3336 01ba 9642     		.uleb128 0x2116
 3337 01bc 19       		.uleb128 0x19
 3338 01bd 01       		.uleb128 0x1
 3339 01be 13       		.uleb128 0x13
 3340 01bf 00       		.byte	0
 3341 01c0 00       		.byte	0
 3342 01c1 1E       		.uleb128 0x1e
 3343 01c2 05       		.uleb128 0x5
 3344 01c3 00       		.byte	0
 3345 01c4 03       		.uleb128 0x3
 3346 01c5 0E       		.uleb128 0xe
 3347 01c6 3A       		.uleb128 0x3a
 3348 01c7 0B       		.uleb128 0xb
 3349 01c8 3B       		.uleb128 0x3b
 3350 01c9 05       		.uleb128 0x5
 3351 01ca 49       		.uleb128 0x49
ARM GAS  C:\Users\Petro\AppData\Local\Temp\ccWEZPdt.s 			page 67


 3352 01cb 13       		.uleb128 0x13
 3353 01cc 02       		.uleb128 0x2
 3354 01cd 18       		.uleb128 0x18
 3355 01ce 00       		.byte	0
 3356 01cf 00       		.byte	0
 3357 01d0 1F       		.uleb128 0x1f
 3358 01d1 05       		.uleb128 0x5
 3359 01d2 00       		.byte	0
 3360 01d3 03       		.uleb128 0x3
 3361 01d4 08       		.uleb128 0x8
 3362 01d5 3A       		.uleb128 0x3a
 3363 01d6 0B       		.uleb128 0xb
 3364 01d7 3B       		.uleb128 0x3b
 3365 01d8 05       		.uleb128 0x5
 3366 01d9 49       		.uleb128 0x49
 3367 01da 13       		.uleb128 0x13
 3368 01db 02       		.uleb128 0x2
 3369 01dc 18       		.uleb128 0x18
 3370 01dd 00       		.byte	0
 3371 01de 00       		.byte	0
 3372 01df 20       		.uleb128 0x20
 3373 01e0 2E       		.uleb128 0x2e
 3374 01e1 01       		.byte	0x1
 3375 01e2 03       		.uleb128 0x3
 3376 01e3 0E       		.uleb128 0xe
 3377 01e4 3A       		.uleb128 0x3a
 3378 01e5 0B       		.uleb128 0xb
 3379 01e6 3B       		.uleb128 0x3b
 3380 01e7 05       		.uleb128 0x5
 3381 01e8 27       		.uleb128 0x27
 3382 01e9 19       		.uleb128 0x19
 3383 01ea 49       		.uleb128 0x49
 3384 01eb 13       		.uleb128 0x13
 3385 01ec 11       		.uleb128 0x11
 3386 01ed 01       		.uleb128 0x1
 3387 01ee 12       		.uleb128 0x12
 3388 01ef 06       		.uleb128 0x6
 3389 01f0 40       		.uleb128 0x40
 3390 01f1 18       		.uleb128 0x18
 3391 01f2 9642     		.uleb128 0x2116
 3392 01f4 19       		.uleb128 0x19
 3393 01f5 01       		.uleb128 0x1
 3394 01f6 13       		.uleb128 0x13
 3395 01f7 00       		.byte	0
 3396 01f8 00       		.byte	0
 3397 01f9 21       		.uleb128 0x21
 3398 01fa 34       		.uleb128 0x34
 3399 01fb 00       		.byte	0
 3400 01fc 03       		.uleb128 0x3
 3401 01fd 0E       		.uleb128 0xe
 3402 01fe 3A       		.uleb128 0x3a
 3403 01ff 0B       		.uleb128 0xb
 3404 0200 3B       		.uleb128 0x3b
 3405 0201 0B       		.uleb128 0xb
 3406 0202 49       		.uleb128 0x49
 3407 0203 13       		.uleb128 0x13
 3408 0204 3F       		.uleb128 0x3f
ARM GAS  C:\Users\Petro\AppData\Local\Temp\ccWEZPdt.s 			page 68


 3409 0205 19       		.uleb128 0x19
 3410 0206 02       		.uleb128 0x2
 3411 0207 18       		.uleb128 0x18
 3412 0208 00       		.byte	0
 3413 0209 00       		.byte	0
 3414 020a 00       		.byte	0
 3415              		.section	.debug_aranges,"",%progbits
 3416 0000 5C000000 		.4byte	0x5c
 3417 0004 0200     		.2byte	0x2
 3418 0006 00000000 		.4byte	.Ldebug_info0
 3419 000a 04       		.byte	0x4
 3420 000b 00       		.byte	0
 3421 000c 0000     		.2byte	0
 3422 000e 0000     		.2byte	0
 3423 0010 00000000 		.4byte	.LFB63
 3424 0014 28000000 		.4byte	.LFE63-.LFB63
 3425 0018 00000000 		.4byte	.LFB64
 3426 001c B8000000 		.4byte	.LFE64-.LFB64
 3427 0020 00000000 		.4byte	.LFB65
 3428 0024 8C010000 		.4byte	.LFE65-.LFB65
 3429 0028 00000000 		.4byte	.LFB66
 3430 002c 1C000000 		.4byte	.LFE66-.LFB66
 3431 0030 00000000 		.4byte	.LFB67
 3432 0034 14000000 		.4byte	.LFE67-.LFB67
 3433 0038 00000000 		.4byte	.LFB68
 3434 003c 2C040000 		.4byte	.LFE68-.LFB68
 3435 0040 00000000 		.4byte	.LFB69
 3436 0044 58000000 		.4byte	.LFE69-.LFB69
 3437 0048 00000000 		.4byte	.LFB70
 3438 004c A8000000 		.4byte	.LFE70-.LFB70
 3439 0050 00000000 		.4byte	.LFB71
 3440 0054 64000000 		.4byte	.LFE71-.LFB71
 3441 0058 00000000 		.4byte	0
 3442 005c 00000000 		.4byte	0
 3443              		.section	.debug_ranges,"",%progbits
 3444              	.Ldebug_ranges0:
 3445 0000 00000000 		.4byte	.LFB63
 3446 0004 28000000 		.4byte	.LFE63
 3447 0008 00000000 		.4byte	.LFB64
 3448 000c B8000000 		.4byte	.LFE64
 3449 0010 00000000 		.4byte	.LFB65
 3450 0014 8C010000 		.4byte	.LFE65
 3451 0018 00000000 		.4byte	.LFB66
 3452 001c 1C000000 		.4byte	.LFE66
 3453 0020 00000000 		.4byte	.LFB67
 3454 0024 14000000 		.4byte	.LFE67
 3455 0028 00000000 		.4byte	.LFB68
 3456 002c 2C040000 		.4byte	.LFE68
 3457 0030 00000000 		.4byte	.LFB69
 3458 0034 58000000 		.4byte	.LFE69
 3459 0038 00000000 		.4byte	.LFB70
 3460 003c A8000000 		.4byte	.LFE70
 3461 0040 00000000 		.4byte	.LFB71
 3462 0044 64000000 		.4byte	.LFE71
 3463 0048 00000000 		.4byte	0
 3464 004c 00000000 		.4byte	0
 3465              		.section	.debug_line,"",%progbits
ARM GAS  C:\Users\Petro\AppData\Local\Temp\ccWEZPdt.s 			page 69


 3466              	.Ldebug_line0:
 3467 0000 00030000 		.section	.debug_str,"MS",%progbits,1
 3467      02008A01 
 3467      00000201 
 3467      FB0E0D00 
 3467      01010101 
 3468              	.LASF92:
 3469 0000 73656E64 		.ascii	"sendData\000"
 3469      44617461 
 3469      00
 3470              	.LASF37:
 3471 0009 4653495A 		.ascii	"FSIZE_t\000"
 3471      455F7400 
 3472              	.LASF73:
 3473 0011 6C617374 		.ascii	"last\000"
 3473      00
 3474              	.LASF64:
 3475 0016 6469725F 		.ascii	"dir_ptr\000"
 3475      70747200 
 3476              	.LASF123:
 3477 001e 50524F54 		.ascii	"PROTO_STATE\000"
 3477      4F5F5354 
 3477      41544500 
 3478              	.LASF53:
 3479 002a 46415446 		.ascii	"FATFS\000"
 3479      5300
 3480              	.LASF67:
 3481 0030 6E657874 		.ascii	"nextSki\000"
 3481      536B6900 
 3482              	.LASF58:
 3483 0038 5F464449 		.ascii	"_FDID\000"
 3483      4400
 3484              	.LASF72:
 3485 003e 62756666 		.ascii	"buffer\000"
 3485      657200
 3486              	.LASF71:
 3487 0045 746F7461 		.ascii	"totalSize\000"
 3487      6C53697A 
 3487      6500
 3488              	.LASF44:
 3489 004f 6C617374 		.ascii	"last_clst\000"
 3489      5F636C73 
 3489      7400
 3490              	.LASF12:
 3491 0059 756E7369 		.ascii	"unsigned int\000"
 3491      676E6564 
 3491      20696E74 
 3491      00
 3492              	.LASF39:
 3493 0066 6E5F6661 		.ascii	"n_fats\000"
 3493      747300
 3494              	.LASF130:
 3495 006d 66617446 		.ascii	"fatFs\000"
 3495      7300
 3496              	.LASF100:
 3497 0073 49447265 		.ascii	"IDreceivePacket\000"
 3497      63656976 
ARM GAS  C:\Users\Petro\AppData\Local\Temp\ccWEZPdt.s 			page 70


 3497      65506163 
 3497      6B657400 
 3498              	.LASF96:
 3499 0083 53656E64 		.ascii	"SendData\000"
 3499      44617461 
 3499      00
 3500              	.LASF52:
 3501 008c 77696E73 		.ascii	"winsect\000"
 3501      65637400 
 3502              	.LASF109:
 3503 0094 6F75744D 		.ascii	"outMs\000"
 3503      7300
 3504              	.LASF149:
 3505 009a 696E4461 		.ascii	"inData\000"
 3505      746100
 3506              	.LASF150:
 3507 00a1 6E756D41 		.ascii	"numAttemps\000"
 3507      7474656D 
 3507      707300
 3508              	.LASF148:
 3509 00ac 6F757444 		.ascii	"outData\000"
 3509      61746100 
 3510              	.LASF78:
 3511 00b4 49447061 		.ascii	"IDpacket\000"
 3511      636B6574 
 3511      00
 3512              	.LASF133:
 3513 00bd 62756666 		.ascii	"bufferSkiersOnWay\000"
 3513      6572536B 
 3513      69657273 
 3513      4F6E5761 
 3513      7900
 3514              	.LASF136:
 3515 00cf 63757272 		.ascii	"currentElementStart\000"
 3515      656E7445 
 3515      6C656D65 
 3515      6E745374 
 3515      61727400 
 3516              	.LASF105:
 3517 00e3 72657375 		.ascii	"resultReceive\000"
 3517      6C745265 
 3517      63656976 
 3517      6500
 3518              	.LASF138:
 3519 00f1 736B6965 		.ascii	"skiersStarted\000"
 3519      72735374 
 3519      61727465 
 3519      6400
 3520              	.LASF87:
 3521 00ff 73746172 		.ascii	"startMsTime\000"
 3521      744D7354 
 3521      696D6500 
 3522              	.LASF15:
 3523 010b 75696E74 		.ascii	"uint32_t\000"
 3523      33325F74 
 3523      00
 3524              	.LASF83:
ARM GAS  C:\Users\Petro\AppData\Local\Temp\ccWEZPdt.s 			page 71


 3525 0114 746D704D 		.ascii	"tmpMsTime\000"
 3525      7354696D 
 3525      6500
 3526              	.LASF41:
 3527 011e 6673695F 		.ascii	"fsi_flag\000"
 3527      666C6167 
 3527      00
 3528              	.LASF70:
 3529 0127 6C617374 		.ascii	"lastElement\000"
 3529      456C656D 
 3529      656E7400 
 3530              	.LASF63:
 3531 0133 6469725F 		.ascii	"dir_sect\000"
 3531      73656374 
 3531      00
 3532              	.LASF17:
 3533 013c 666C6F61 		.ascii	"float\000"
 3533      7400
 3534              	.LASF77:
 3535 0142 4E747052 		.ascii	"NtpResp\000"
 3535      65737000 
 3536              	.LASF134:
 3537 014a 62756666 		.ascii	"bufferFifo\000"
 3537      65724669 
 3537      666F00
 3538              	.LASF106:
 3539 0155 6E6F436F 		.ascii	"noConnect\000"
 3539      6E6E6563 
 3539      7400
 3540              	.LASF142:
 3541 015f 4E74704C 		.ascii	"NtpLenD1\000"
 3541      656E4431 
 3541      00
 3542              	.LASF28:
 3543 0168 6D696C6C 		.ascii	"millsStartSkier\000"
 3543      73537461 
 3543      7274536B 
 3543      69657200 
 3544              	.LASF128:
 3545 0178 4C656E43 		.ascii	"LenChS\000"
 3545      685300
 3546              	.LASF36:
 3547 017f 44574F52 		.ascii	"DWORD\000"
 3547      4400
 3548              	.LASF93:
 3549 0185 72657375 		.ascii	"result\000"
 3549      6C7400
 3550              	.LASF11:
 3551 018c 6C6F6E67 		.ascii	"long long unsigned int\000"
 3551      206C6F6E 
 3551      6720756E 
 3551      7369676E 
 3551      65642069 
 3552              	.LASF80:
 3553 01a3 7265626F 		.ascii	"reboot\000"
 3553      6F7400
 3554              	.LASF66:
ARM GAS  C:\Users\Petro\AppData\Local\Temp\ccWEZPdt.s 			page 72


 3555 01aa 656C656D 		.ascii	"elementBuff\000"
 3555      656E7442 
 3555      75666600 
 3556              	.LASF54:
 3557 01b6 61747472 		.ascii	"attr\000"
 3557      00
 3558              	.LASF4:
 3559 01bb 5F5F7569 		.ascii	"__uint16_t\000"
 3559      6E743136 
 3559      5F7400
 3560              	.LASF38:
 3561 01c6 66735F74 		.ascii	"fs_type\000"
 3561      79706500 
 3562              	.LASF49:
 3563 01ce 66617462 		.ascii	"fatbase\000"
 3563      61736500 
 3564              	.LASF55:
 3565 01d6 73746174 		.ascii	"stat\000"
 3565      00
 3566              	.LASF95:
 3567 01db 72656376 		.ascii	"recvData\000"
 3567      44617461 
 3567      00
 3568              	.LASF81:
 3569 01e4 636F756E 		.ascii	"countSkiers\000"
 3569      74536B69 
 3569      65727300 
 3570              	.LASF119:
 3571 01f0 4E545073 		.ascii	"NTPsendTime\000"
 3571      656E6454 
 3571      696D6500 
 3572              	.LASF33:
 3573 01fc 736B6965 		.ascii	"skierDB_El\000"
 3573      7244425F 
 3573      456C00
 3574              	.LASF10:
 3575 0207 5F5F7569 		.ascii	"__uint64_t\000"
 3575      6E743634 
 3575      5F7400
 3576              	.LASF154:
 3577 0212 443A5C43 		.ascii	"D:\\Cypress\\system-start-finish\\vesion 2\\fw\\fin"
 3577      79707265 
 3577      73735C73 
 3577      79737465 
 3577      6D2D7374 
 3578 0240 6973685C 		.ascii	"ish\\sandbox\\v3\\Finish(state machine)\\fin_v0.cyd"
 3578      73616E64 
 3578      626F785C 
 3578      76335C46 
 3578      696E6973 
 3579 026f 736E00   		.ascii	"sn\000"
 3580              	.LASF30:
 3581 0272 6D696C6C 		.ascii	"millsFinishSkier\000"
 3581      7346696E 
 3581      69736853 
 3581      6B696572 
 3581      00
ARM GAS  C:\Users\Petro\AppData\Local\Temp\ccWEZPdt.s 			page 73


 3582              	.LASF101:
 3583 0283 756E6978 		.ascii	"unixTime\000"
 3583      54696D65 
 3583      00
 3584              	.LASF19:
 3585 028c 63686172 		.ascii	"char\000"
 3585      00
 3586              	.LASF84:
 3587 0291 77726974 		.ascii	"writeStatus\000"
 3587      65537461 
 3587      74757300 
 3588              	.LASF91:
 3589 029d 73656E64 		.ascii	"sendBuffer\000"
 3589      42756666 
 3589      657200
 3590              	.LASF26:
 3591 02a8 456E6450 		.ascii	"EndPacket\000"
 3591      61636B65 
 3591      7400
 3592              	.LASF120:
 3593 02b2 4E545073 		.ascii	"NTPsetTimeToStart\000"
 3593      65745469 
 3593      6D65546F 
 3593      53746172 
 3593      7400
 3594              	.LASF13:
 3595 02c4 75696E74 		.ascii	"uint8_t\000"
 3595      385F7400 
 3596              	.LASF114:
 3597 02cc 6D696C6C 		.ascii	"millisTime2\000"
 3597      69735469 
 3597      6D653200 
 3598              	.LASF116:
 3599 02d8 6D696C6C 		.ascii	"millisTime3\000"
 3599      69735469 
 3599      6D653300 
 3600              	.LASF122:
 3601 02e4 6D696C6C 		.ascii	"millisTime4\000"
 3601      69735469 
 3601      6D653400 
 3602              	.LASF143:
 3603 02f0 4E74704C 		.ascii	"NtpLenMsD1\000"
 3603      656E4D73 
 3603      443100
 3604              	.LASF145:
 3605 02fb 4E74704C 		.ascii	"NtpLenMsD2\000"
 3605      656E4D73 
 3605      443200
 3606              	.LASF62:
 3607 0306 73656374 		.ascii	"sect\000"
 3607      00
 3608              	.LASF9:
 3609 030b 6C6F6E67 		.ascii	"long long int\000"
 3609      206C6F6E 
 3609      6720696E 
 3609      7400
 3610              	.LASF108:
ARM GAS  C:\Users\Petro\AppData\Local\Temp\ccWEZPdt.s 			page 74


 3611 0319 73756D4D 		.ascii	"sumMillis\000"
 3611      696C6C69 
 3611      7300
 3612              	.LASF47:
 3613 0323 6673697A 		.ascii	"fsize\000"
 3613      6500
 3614              	.LASF48:
 3615 0329 766F6C62 		.ascii	"volbase\000"
 3615      61736500 
 3616              	.LASF40:
 3617 0331 77666C61 		.ascii	"wflag\000"
 3617      6700
 3618              	.LASF82:
 3619 0337 746D7054 		.ascii	"tmpTime\000"
 3619      696D6500 
 3620              	.LASF131:
 3621 033f 66696C65 		.ascii	"fileO\000"
 3621      4F00
 3622              	.LASF34:
 3623 0345 42595445 		.ascii	"BYTE\000"
 3623      00
 3624              	.LASF85:
 3625 034a 46696E69 		.ascii	"FinishData\000"
 3625      73684461 
 3625      746100
 3626              	.LASF152:
 3627 0355 474E5520 		.ascii	"GNU C 4.9.3 20150303 (release) [ARM/embedded-4_9-br"
 3627      4320342E 
 3627      392E3320 
 3627      32303135 
 3627      30333033 
 3628 0388 616E6368 		.ascii	"anch revision 221220] -mcpu=cortex-m0 -mthumb -g -O"
 3628      20726576 
 3628      6973696F 
 3628      6E203232 
 3628      31323230 
 3629 03bb 30202D66 		.ascii	"0 -ffunction-sections -ffat-lto-objects\000"
 3629      66756E63 
 3629      74696F6E 
 3629      2D736563 
 3629      74696F6E 
 3630              	.LASF102:
 3631 03e3 6D696C6C 		.ascii	"millisTime\000"
 3631      69735469 
 3631      6D6500
 3632              	.LASF35:
 3633 03ee 574F5244 		.ascii	"WORD\000"
 3633      00
 3634              	.LASF43:
 3635 03f3 6373697A 		.ascii	"csize\000"
 3635      6500
 3636              	.LASF68:
 3637 03f9 73697A65 		.ascii	"size\000"
 3637      00
 3638              	.LASF60:
 3639 03fe 66707472 		.ascii	"fptr\000"
 3639      00
ARM GAS  C:\Users\Petro\AppData\Local\Temp\ccWEZPdt.s 			page 75


 3640              	.LASF110:
 3641 0403 746D7044 		.ascii	"tmpData\000"
 3641      61746100 
 3642              	.LASF46:
 3643 040b 6E5F6661 		.ascii	"n_fatent\000"
 3643      74656E74 
 3643      00
 3644              	.LASF50:
 3645 0414 64697262 		.ascii	"dirbase\000"
 3645      61736500 
 3646              	.LASF65:
 3647 041c 52657370 		.ascii	"Resp\000"
 3647      00
 3648              	.LASF74:
 3649 0421 6669666F 		.ascii	"fifoTimeSkier\000"
 3649      54696D65 
 3649      536B6965 
 3649      7200
 3650              	.LASF146:
 3651 042f 4E74704C 		.ascii	"NtpLenId\000"
 3651      656E4964 
 3651      00
 3652              	.LASF137:
 3653 0438 63757272 		.ascii	"currentElementFinish\000"
 3653      656E7445 
 3653      6C656D65 
 3653      6E744669 
 3653      6E697368 
 3654              	.LASF97:
 3655 044d 53656E64 		.ascii	"SendFinStatus\000"
 3655      46696E53 
 3655      74617475 
 3655      7300
 3656              	.LASF99:
 3657 045b 4E545073 		.ascii	"NTPsync\000"
 3657      796E6300 
 3658              	.LASF14:
 3659 0463 75696E74 		.ascii	"uint16_t\000"
 3659      31365F74 
 3659      00
 3660              	.LASF22:
 3661 046c 44617461 		.ascii	"Data1\000"
 3661      3100
 3662              	.LASF23:
 3663 0472 44617461 		.ascii	"Data2\000"
 3663      3200
 3664              	.LASF24:
 3665 0478 44617461 		.ascii	"Data3\000"
 3665      3300
 3666              	.LASF32:
 3667 047e 6D696C6C 		.ascii	"millsWay\000"
 3667      73576179 
 3667      00
 3668              	.LASF45:
 3669 0487 66726565 		.ascii	"free_clst\000"
 3669      5F636C73 
 3669      7400
ARM GAS  C:\Users\Petro\AppData\Local\Temp\ccWEZPdt.s 			page 76


 3670              	.LASF2:
 3671 0491 73686F72 		.ascii	"short int\000"
 3671      7420696E 
 3671      7400
 3672              	.LASF141:
 3673 049b 6669666F 		.ascii	"fifo\000"
 3673      00
 3674              	.LASF6:
 3675 04a0 6C6F6E67 		.ascii	"long int\000"
 3675      20696E74 
 3675      00
 3676              	.LASF151:
 3677 04a9 6E657477 		.ascii	"networkStatus\000"
 3677      6F726B53 
 3677      74617475 
 3677      7300
 3678              	.LASF117:
 3679 04b7 49447265 		.ascii	"IDreceive\000"
 3679      63656976 
 3679      6500
 3680              	.LASF112:
 3681 04c1 6D696C6C 		.ascii	"millis2\000"
 3681      69733200 
 3682              	.LASF59:
 3683 04c9 666C6167 		.ascii	"flag\000"
 3683      00
 3684              	.LASF16:
 3685 04ce 75696E74 		.ascii	"uint64_t\000"
 3685      36345F74 
 3685      00
 3686              	.LASF21:
 3687 04d7 436F6D6D 		.ascii	"Command\000"
 3687      616E6400 
 3688              	.LASF79:
 3689 04df 72656164 		.ascii	"ready\000"
 3689      7900
 3690              	.LASF147:
 3691 04e5 4E74704C 		.ascii	"NtpLenChS\000"
 3691      656E4368 
 3691      5300
 3692              	.LASF3:
 3693 04ef 5F5F7569 		.ascii	"__uint8_t\000"
 3693      6E74385F 
 3693      7400
 3694              	.LASF42:
 3695 04f9 6E5F726F 		.ascii	"n_rootdir\000"
 3695      6F746469 
 3695      7200
 3696              	.LASF75:
 3697 0503 44617461 		.ascii	"DataMs1\000"
 3697      4D733100 
 3698              	.LASF76:
 3699 050b 44617461 		.ascii	"DataMs2\000"
 3699      4D733200 
 3700              	.LASF129:
 3701 0513 4C656E43 		.ascii	"LenC\000"
 3701      00
ARM GAS  C:\Users\Petro\AppData\Local\Temp\ccWEZPdt.s 			page 77


 3702              	.LASF132:
 3703 0518 63726561 		.ascii	"createFlag\000"
 3703      7465466C 
 3703      616700
 3704              	.LASF140:
 3705 0523 736B6965 		.ascii	"skierDB\000"
 3705      72444200 
 3706              	.LASF20:
 3707 052b 73697A65 		.ascii	"sizetype\000"
 3707      74797065 
 3707      00
 3708              	.LASF8:
 3709 0534 6C6F6E67 		.ascii	"long unsigned int\000"
 3709      20756E73 
 3709      69676E65 
 3709      6420696E 
 3709      7400
 3710              	.LASF144:
 3711 0546 4E74704C 		.ascii	"NtpLenD2\000"
 3711      656E4432 
 3711      00
 3712              	.LASF107:
 3713 054f 73756D54 		.ascii	"sumTime\000"
 3713      696D6500 
 3714              	.LASF94:
 3715 0557 62797465 		.ascii	"byte\000"
 3715      00
 3716              	.LASF98:
 3717 055c 52656365 		.ascii	"ReceiveData\000"
 3717      69766544 
 3717      61746100 
 3718              	.LASF57:
 3719 0568 6F626A73 		.ascii	"objsize\000"
 3719      697A6500 
 3720              	.LASF61:
 3721 0570 636C7573 		.ascii	"clust\000"
 3721      7400
 3722              	.LASF1:
 3723 0576 756E7369 		.ascii	"unsigned char\000"
 3723      676E6564 
 3723      20636861 
 3723      7200
 3724              	.LASF7:
 3725 0584 5F5F7569 		.ascii	"__uint32_t\000"
 3725      6E743332 
 3725      5F7400
 3726              	.LASF127:
 3727 058f 4C656E53 		.ascii	"LenSeq\000"
 3727      657100
 3728              	.LASF25:
 3729 0596 43686563 		.ascii	"CheckSum\000"
 3729      6B53756D 
 3729      00
 3730              	.LASF89:
 3731 059f 72656164 		.ascii	"readStatus\000"
 3731      53746174 
 3731      757300
ARM GAS  C:\Users\Petro\AppData\Local\Temp\ccWEZPdt.s 			page 78


 3732              	.LASF90:
 3733 05aa 53746172 		.ascii	"StartData\000"
 3733      74446174 
 3733      6100
 3734              	.LASF103:
 3735 05b4 64656C69 		.ascii	"deliveryTime\000"
 3735      76657279 
 3735      54696D65 
 3735      00
 3736              	.LASF69:
 3737 05c1 66697273 		.ascii	"firstElement\000"
 3737      74456C65 
 3737      6D656E74 
 3737      00
 3738              	.LASF135:
 3739 05ce 63757272 		.ascii	"currentSizeBuff\000"
 3739      656E7453 
 3739      697A6542 
 3739      75666600 
 3740              	.LASF104:
 3741 05de 64656C69 		.ascii	"deliveryMs\000"
 3741      76657279 
 3741      4D7300
 3742              	.LASF124:
 3743 05e9 4C656E44 		.ascii	"LenD1\000"
 3743      3100
 3744              	.LASF125:
 3745 05ef 4C656E44 		.ascii	"LenD2\000"
 3745      3200
 3746              	.LASF31:
 3747 05f5 5365636F 		.ascii	"SecondsWay\000"
 3747      6E647357 
 3747      617900
 3748              	.LASF27:
 3749 0600 756E6978 		.ascii	"unixStartSkier\000"
 3749      53746172 
 3749      74536B69 
 3749      657200
 3750              	.LASF139:
 3751 060f 736B6965 		.ascii	"skiersFinished\000"
 3751      72734669 
 3751      6E697368 
 3751      656400
 3752              	.LASF126:
 3753 061e 4C656E44 		.ascii	"LenD3\000"
 3753      3300
 3754              	.LASF0:
 3755 0624 7369676E 		.ascii	"signed char\000"
 3755      65642063 
 3755      68617200 
 3756              	.LASF5:
 3757 0630 73686F72 		.ascii	"short unsigned int\000"
 3757      7420756E 
 3757      7369676E 
 3757      65642069 
 3757      6E7400
 3758              	.LASF51:
ARM GAS  C:\Users\Petro\AppData\Local\Temp\ccWEZPdt.s 			page 79


 3759 0643 64617461 		.ascii	"database\000"
 3759      62617365 
 3759      00
 3760              	.LASF118:
 3761 064c 72656376 		.ascii	"recvDataNTP\000"
 3761      44617461 
 3761      4E545000 
 3762              	.LASF111:
 3763 0658 756E6978 		.ascii	"unixTime1\000"
 3763      54696D65 
 3763      3100
 3764              	.LASF113:
 3765 0662 756E6978 		.ascii	"unixTime2\000"
 3765      54696D65 
 3765      3200
 3766              	.LASF115:
 3767 066c 756E6978 		.ascii	"unixTime3\000"
 3767      54696D65 
 3767      3300
 3768              	.LASF121:
 3769 0676 756E6978 		.ascii	"unixTime4\000"
 3769      54696D65 
 3769      3400
 3770              	.LASF29:
 3771 0680 756E6978 		.ascii	"unixFinishSkier\000"
 3771      46696E69 
 3771      7368536B 
 3771      69657200 
 3772              	.LASF18:
 3773 0690 646F7562 		.ascii	"double\000"
 3773      6C6500
 3774              	.LASF157:
 3775 0697 4E545072 		.ascii	"NTPreceiveTime\000"
 3775      65636569 
 3775      76655469 
 3775      6D6500
 3776              	.LASF155:
 3777 06a6 496E6974 		.ascii	"InitNetwork\000"
 3777      4E657477 
 3777      6F726B00 
 3778              	.LASF86:
 3779 06b2 756E6978 		.ascii	"unixStartTime\000"
 3779      53746172 
 3779      7454696D 
 3779      6500
 3780              	.LASF88:
 3781 06c0 6E657753 		.ascii	"newSkier\000"
 3781      6B696572 
 3781      00
 3782              	.LASF153:
 3783 06c9 2E5C6C69 		.ascii	".\\lib_Network\\network.c\000"
 3783      625F4E65 
 3783      74776F72 
 3783      6B5C6E65 
 3783      74776F72 
 3784              	.LASF56:
 3785 06e1 73636C75 		.ascii	"sclust\000"
ARM GAS  C:\Users\Petro\AppData\Local\Temp\ccWEZPdt.s 			page 80


 3785      737400
 3786              	.LASF156:
 3787 06e8 4E657477 		.ascii	"NetworkStatus\000"
 3787      6F726B53 
 3787      74617475 
 3787      7300
 3788              		.ident	"GCC: (GNU Tools for ARM Embedded Processors) 4.9.3 20150303 (release) [ARM/embedded-4_9-br
