ARM GAS  C:\Users\Petro\AppData\Local\Temp\ccr6rksd.s 			page 1


   1              		.cpu cortex-m0
   2              		.fpu softvfp
   3              		.eabi_attribute 20, 1
   4              		.eabi_attribute 21, 1
   5              		.eabi_attribute 23, 3
   6              		.eabi_attribute 24, 1
   7              		.eabi_attribute 25, 1
   8              		.eabi_attribute 26, 1
   9              		.eabi_attribute 30, 6
  10              		.eabi_attribute 34, 0
  11              		.eabi_attribute 18, 4
  12              		.code	16
  13              		.file	"RTC_WDT.c"
  14              		.text
  15              	.Ltext0:
  16              		.cfi_sections	.debug_frame
  17              		.section	.text.RTC_IsBitSet,"ax",%progbits
  18              		.align	2
  19              		.code	16
  20              		.thumb_func
  21              		.type	RTC_IsBitSet, %function
  22              	RTC_IsBitSet:
  23              	.LFB2:
  24              		.file 1 "Generated_Source\\PSoC4/RTC.h"
   1:Generated_Source\PSoC4/RTC.h **** /***************************************************************************//**
   2:Generated_Source\PSoC4/RTC.h **** * \file Name: RTC.h
   3:Generated_Source\PSoC4/RTC.h **** * \version 1.10
   4:Generated_Source\PSoC4/RTC.h **** *
   5:Generated_Source\PSoC4/RTC.h **** * \brief
   6:Generated_Source\PSoC4/RTC.h **** *  This file provides constants and parameter values for the RTC_P4 Component.
   7:Generated_Source\PSoC4/RTC.h **** *
   8:Generated_Source\PSoC4/RTC.h **** ********************************************************************************
   9:Generated_Source\PSoC4/RTC.h **** * Copyright 2015-2016, Cypress Semiconductor Corporation.  All rights reserved.
  10:Generated_Source\PSoC4/RTC.h **** * You may use this file only in accordance with the license, terms, conditions,
  11:Generated_Source\PSoC4/RTC.h **** * disclaimers, and limitations in the end user license agreement accompanying
  12:Generated_Source\PSoC4/RTC.h **** * the software package with which this file was provided.
  13:Generated_Source\PSoC4/RTC.h **** *******************************************************************************/
  14:Generated_Source\PSoC4/RTC.h **** 
  15:Generated_Source\PSoC4/RTC.h **** #if !defined(CY_RTC_P4_RTC_H)
  16:Generated_Source\PSoC4/RTC.h **** #define CY_RTC_P4_RTC_H
  17:Generated_Source\PSoC4/RTC.h **** 
  18:Generated_Source\PSoC4/RTC.h **** #include <cytypes.h>
  19:Generated_Source\PSoC4/RTC.h **** #include <CyLib.h>
  20:Generated_Source\PSoC4/RTC.h **** 
  21:Generated_Source\PSoC4/RTC.h **** 
  22:Generated_Source\PSoC4/RTC.h **** /*******************************************************************************
  23:Generated_Source\PSoC4/RTC.h **** *    Data types definition
  24:Generated_Source\PSoC4/RTC.h **** *******************************************************************************/
  25:Generated_Source\PSoC4/RTC.h **** 
  26:Generated_Source\PSoC4/RTC.h **** typedef enum
  27:Generated_Source\PSoC4/RTC.h **** {
  28:Generated_Source\PSoC4/RTC.h ****     RTC_DST_DATE_RELATIVE = 0u,
  29:Generated_Source\PSoC4/RTC.h ****     RTC_DST_DATE_FIXED = 1u
  30:Generated_Source\PSoC4/RTC.h **** }RTC_DST_DATETYPE_ENUM;
  31:Generated_Source\PSoC4/RTC.h **** 
  32:Generated_Source\PSoC4/RTC.h **** /**
  33:Generated_Source\PSoC4/RTC.h **** * \addtogroup group_structures
ARM GAS  C:\Users\Petro\AppData\Local\Temp\ccr6rksd.s 			page 2


  34:Generated_Source\PSoC4/RTC.h **** * @{
  35:Generated_Source\PSoC4/RTC.h **** */
  36:Generated_Source\PSoC4/RTC.h **** 
  37:Generated_Source\PSoC4/RTC.h **** /**
  38:Generated_Source\PSoC4/RTC.h **** * This is the data structure that is used to save the current time and date 
  39:Generated_Source\PSoC4/RTC.h **** * (RTC_currentTimeDate), and Alarm time and date (RTC_alarmCfgTimeDate).
  40:Generated_Source\PSoC4/RTC.h **** */
  41:Generated_Source\PSoC4/RTC.h **** typedef struct
  42:Generated_Source\PSoC4/RTC.h **** {
  43:Generated_Source\PSoC4/RTC.h ****     uint32 time;
  44:Generated_Source\PSoC4/RTC.h ****     uint32 date;
  45:Generated_Source\PSoC4/RTC.h ****     uint32 dayOfWeek;
  46:Generated_Source\PSoC4/RTC.h ****     uint32 status;
  47:Generated_Source\PSoC4/RTC.h **** }RTC_DATE_TIME;
  48:Generated_Source\PSoC4/RTC.h **** 
  49:Generated_Source\PSoC4/RTC.h **** /**
  50:Generated_Source\PSoC4/RTC.h **** * This is the data structure that is used to save time and date values for 
  51:Generated_Source\PSoC4/RTC.h **** * Daylight Savings Time Start and Stop (RTC_dstTimeDateStart and 
  52:Generated_Source\PSoC4/RTC.h **** * RTC_dstTimeDateStop).
  53:Generated_Source\PSoC4/RTC.h **** */
  54:Generated_Source\PSoC4/RTC.h **** typedef struct
  55:Generated_Source\PSoC4/RTC.h **** {
  56:Generated_Source\PSoC4/RTC.h ****     uint32 hour;
  57:Generated_Source\PSoC4/RTC.h ****     uint32 dayOfWeek;
  58:Generated_Source\PSoC4/RTC.h ****     uint32 dayOfMonth;
  59:Generated_Source\PSoC4/RTC.h ****     uint32 weekOfMonth;
  60:Generated_Source\PSoC4/RTC.h ****     uint32 month;
  61:Generated_Source\PSoC4/RTC.h ****     uint8  timeFormat;
  62:Generated_Source\PSoC4/RTC.h **** }RTC_DST_TIME;
  63:Generated_Source\PSoC4/RTC.h **** 
  64:Generated_Source\PSoC4/RTC.h **** /** @} structures */
  65:Generated_Source\PSoC4/RTC.h **** 
  66:Generated_Source\PSoC4/RTC.h **** /*******************************************************************************
  67:Generated_Source\PSoC4/RTC.h **** *    Enumerated Types and Parameters
  68:Generated_Source\PSoC4/RTC.h **** *******************************************************************************/
  69:Generated_Source\PSoC4/RTC.h **** /* Time Format setting constants */
  70:Generated_Source\PSoC4/RTC.h **** #define RTC__HOUR_12 1
  71:Generated_Source\PSoC4/RTC.h **** #define RTC__HOUR_24 0
  72:Generated_Source\PSoC4/RTC.h **** 
  73:Generated_Source\PSoC4/RTC.h **** /*  Date Format setting constants */
  74:Generated_Source\PSoC4/RTC.h **** #define RTC__MM_DD_YYYY 0
  75:Generated_Source\PSoC4/RTC.h **** #define RTC__DD_MM_YYYY 1
  76:Generated_Source\PSoC4/RTC.h **** #define RTC__YYYY_MM_DD 2
  77:Generated_Source\PSoC4/RTC.h **** 
  78:Generated_Source\PSoC4/RTC.h **** /* Date Type setting constants */
  79:Generated_Source\PSoC4/RTC.h **** #define RTC__RELATIVE 0
  80:Generated_Source\PSoC4/RTC.h **** #define RTC__FIXED 1
  81:Generated_Source\PSoC4/RTC.h **** 
  82:Generated_Source\PSoC4/RTC.h **** /* DST Hour setting constants */
  83:Generated_Source\PSoC4/RTC.h **** #define RTC__H0000 0
  84:Generated_Source\PSoC4/RTC.h **** #define RTC__H0100 1
  85:Generated_Source\PSoC4/RTC.h **** #define RTC__H0200 2
  86:Generated_Source\PSoC4/RTC.h **** #define RTC__H0300 3
  87:Generated_Source\PSoC4/RTC.h **** #define RTC__H0400 4
  88:Generated_Source\PSoC4/RTC.h **** #define RTC__H0500 5
  89:Generated_Source\PSoC4/RTC.h **** #define RTC__H0600 6
  90:Generated_Source\PSoC4/RTC.h **** #define RTC__H0700 7
ARM GAS  C:\Users\Petro\AppData\Local\Temp\ccr6rksd.s 			page 3


  91:Generated_Source\PSoC4/RTC.h **** #define RTC__H0800 8
  92:Generated_Source\PSoC4/RTC.h **** #define RTC__H0900 9
  93:Generated_Source\PSoC4/RTC.h **** #define RTC__H1000 10
  94:Generated_Source\PSoC4/RTC.h **** #define RTC__H1100 11
  95:Generated_Source\PSoC4/RTC.h **** #define RTC__H1200 12
  96:Generated_Source\PSoC4/RTC.h **** #define RTC__H1300 13
  97:Generated_Source\PSoC4/RTC.h **** #define RTC__H1400 14
  98:Generated_Source\PSoC4/RTC.h **** #define RTC__H1500 15
  99:Generated_Source\PSoC4/RTC.h **** #define RTC__H1600 16
 100:Generated_Source\PSoC4/RTC.h **** #define RTC__H1700 17
 101:Generated_Source\PSoC4/RTC.h **** #define RTC__H1800 18
 102:Generated_Source\PSoC4/RTC.h **** #define RTC__H1900 19
 103:Generated_Source\PSoC4/RTC.h **** #define RTC__H2000 20
 104:Generated_Source\PSoC4/RTC.h **** #define RTC__H2100 21
 105:Generated_Source\PSoC4/RTC.h **** #define RTC__H2200 22
 106:Generated_Source\PSoC4/RTC.h **** #define RTC__H2300 23
 107:Generated_Source\PSoC4/RTC.h **** 
 108:Generated_Source\PSoC4/RTC.h **** /* DST DayOfWeek setting constants */
 109:Generated_Source\PSoC4/RTC.h **** #define RTC__SUNDAY 1
 110:Generated_Source\PSoC4/RTC.h **** #define RTC__MONDAY 2
 111:Generated_Source\PSoC4/RTC.h **** #define RTC__TUESDAY 3
 112:Generated_Source\PSoC4/RTC.h **** #define RTC__WEDNESDAY 4
 113:Generated_Source\PSoC4/RTC.h **** #define RTC__THURSDAY 5
 114:Generated_Source\PSoC4/RTC.h **** #define RTC__FRIDAY 6
 115:Generated_Source\PSoC4/RTC.h **** #define RTC__SATURDAY 7
 116:Generated_Source\PSoC4/RTC.h **** 
 117:Generated_Source\PSoC4/RTC.h **** /* DST Month setting constants */
 118:Generated_Source\PSoC4/RTC.h **** #define RTC__JAN 1
 119:Generated_Source\PSoC4/RTC.h **** #define RTC__FEB 2
 120:Generated_Source\PSoC4/RTC.h **** #define RTC__MAR 3
 121:Generated_Source\PSoC4/RTC.h **** #define RTC__APR 4
 122:Generated_Source\PSoC4/RTC.h **** #define RTC__MAY 5
 123:Generated_Source\PSoC4/RTC.h **** #define RTC__JUN 6
 124:Generated_Source\PSoC4/RTC.h **** #define RTC__JUL 7
 125:Generated_Source\PSoC4/RTC.h **** #define RTC__AUG 8
 126:Generated_Source\PSoC4/RTC.h **** #define RTC__SEP 9
 127:Generated_Source\PSoC4/RTC.h **** #define RTC__OCT 10
 128:Generated_Source\PSoC4/RTC.h **** #define RTC__NOV 11
 129:Generated_Source\PSoC4/RTC.h **** #define RTC__DEC 12
 130:Generated_Source\PSoC4/RTC.h **** 
 131:Generated_Source\PSoC4/RTC.h **** /* DST WeekOfMonth setting constants */
 132:Generated_Source\PSoC4/RTC.h **** #define RTC__FIRST 1
 133:Generated_Source\PSoC4/RTC.h **** #define RTC__SECOND 2
 134:Generated_Source\PSoC4/RTC.h **** #define RTC__THIRD 3
 135:Generated_Source\PSoC4/RTC.h **** #define RTC__FOURTH 4
 136:Generated_Source\PSoC4/RTC.h **** #define RTC__FIFTH 5
 137:Generated_Source\PSoC4/RTC.h **** #define RTC__LAST 6
 138:Generated_Source\PSoC4/RTC.h **** 
 139:Generated_Source\PSoC4/RTC.h **** 
 140:Generated_Source\PSoC4/RTC.h **** #define RTC_INITIAL_DATA_FORMAT     (0u)
 141:Generated_Source\PSoC4/RTC.h **** #define RTC_INITIAL_TIME_FORMAT     (1u)
 142:Generated_Source\PSoC4/RTC.h **** #define RTC_INITIAL_UPDATE_MODE     (0u)
 143:Generated_Source\PSoC4/RTC.h **** #define RTC_INITIAL_SECOND          (0u)
 144:Generated_Source\PSoC4/RTC.h **** #define RTC_INITIAL_MINUTE          (0u)
 145:Generated_Source\PSoC4/RTC.h **** #define RTC_INITIAL_HOUR            (0u)
 146:Generated_Source\PSoC4/RTC.h **** #define RTC_INITIAL_DAY             (1u)
 147:Generated_Source\PSoC4/RTC.h **** #define RTC_INITIAL_MONTH           (1u)
ARM GAS  C:\Users\Petro\AppData\Local\Temp\ccr6rksd.s 			page 4


 148:Generated_Source\PSoC4/RTC.h **** #define RTC_INITIAL_YEAR            (1970u)
 149:Generated_Source\PSoC4/RTC.h **** 
 150:Generated_Source\PSoC4/RTC.h **** #define RTC_INITIAL_ALARM_STATUS    (0u)
 151:Generated_Source\PSoC4/RTC.h **** 
 152:Generated_Source\PSoC4/RTC.h **** #define RTC_INITIAL_DST_STATUS      (0u)
 153:Generated_Source\PSoC4/RTC.h **** #define RTC_INITIAL_DST_DATE_TYPE   (0u)
 154:Generated_Source\PSoC4/RTC.h **** #define RTC_INITIAL_DST_START_MONTH (3uL)
 155:Generated_Source\PSoC4/RTC.h **** #define RTC_INITIAL_DST_START_WOM   (6uL)
 156:Generated_Source\PSoC4/RTC.h **** #define RTC_INITIAL_DST_START_DOM   (22uL)
 157:Generated_Source\PSoC4/RTC.h **** #define RTC_INITIAL_DST_START_DOW   (1uL)
 158:Generated_Source\PSoC4/RTC.h **** #define RTC_INITIAL_DST_START_HRS   (0uL)
 159:Generated_Source\PSoC4/RTC.h **** #define RTC_INITIAL_DST_STOP_MONTH  (10uL)
 160:Generated_Source\PSoC4/RTC.h **** #define RTC_INITIAL_DST_STOP_DOM    (22uL)
 161:Generated_Source\PSoC4/RTC.h **** #define RTC_INITIAL_DST_STOP_DOW    (1uL)
 162:Generated_Source\PSoC4/RTC.h **** #define RTC_INITIAL_DST_STOP_WOM    (6uL)
 163:Generated_Source\PSoC4/RTC.h **** #define RTC_INITIAL_DST_STOP_HRS    (0uL)
 164:Generated_Source\PSoC4/RTC.h **** 
 165:Generated_Source\PSoC4/RTC.h **** /* Day of week definitions */
 166:Generated_Source\PSoC4/RTC.h **** #define RTC_SUNDAY     (RTC__SUNDAY)
 167:Generated_Source\PSoC4/RTC.h **** #define RTC_MONDAY     (RTC__MONDAY)
 168:Generated_Source\PSoC4/RTC.h **** #define RTC_TUESDAY    (RTC__TUESDAY)
 169:Generated_Source\PSoC4/RTC.h **** #define RTC_WEDNESDAY  (RTC__WEDNESDAY)
 170:Generated_Source\PSoC4/RTC.h **** #define RTC_THURSDAY   (RTC__THURSDAY)
 171:Generated_Source\PSoC4/RTC.h **** #define RTC_FRIDAY     (RTC__FRIDAY)
 172:Generated_Source\PSoC4/RTC.h **** #define RTC_SATURDAY   (RTC__SATURDAY)
 173:Generated_Source\PSoC4/RTC.h **** 
 174:Generated_Source\PSoC4/RTC.h **** /* DST WeekOfMonth setting constants definitions */
 175:Generated_Source\PSoC4/RTC.h **** #define RTC_FIRST      (RTC__FIRST)
 176:Generated_Source\PSoC4/RTC.h **** #define RTC_SECOND     (RTC__SECOND)
 177:Generated_Source\PSoC4/RTC.h **** #define RTC_THIRD      (RTC__THIRD)
 178:Generated_Source\PSoC4/RTC.h **** #define RTC_FOURTH     (RTC__FOURTH)
 179:Generated_Source\PSoC4/RTC.h **** #define RTC_FIFTH      (RTC__FIFTH)
 180:Generated_Source\PSoC4/RTC.h **** #define RTC_LAST       (RTC__LAST)
 181:Generated_Source\PSoC4/RTC.h **** 
 182:Generated_Source\PSoC4/RTC.h **** /* Month definitions */
 183:Generated_Source\PSoC4/RTC.h **** #define RTC_JANUARY    (RTC__JAN)
 184:Generated_Source\PSoC4/RTC.h **** #define RTC_FEBRUARY   (RTC__FEB)
 185:Generated_Source\PSoC4/RTC.h **** #define RTC_MARCH      (RTC__MAR)
 186:Generated_Source\PSoC4/RTC.h **** #define RTC_APRIL      (RTC__APR)
 187:Generated_Source\PSoC4/RTC.h **** #define RTC_MAY        (RTC__MAY)
 188:Generated_Source\PSoC4/RTC.h **** #define RTC_JUNE       (RTC__JUN)
 189:Generated_Source\PSoC4/RTC.h **** #define RTC_JULY       (RTC__JUL)
 190:Generated_Source\PSoC4/RTC.h **** #define RTC_AUGUST     (RTC__AUG)
 191:Generated_Source\PSoC4/RTC.h **** #define RTC_SEPTEMBER  (RTC__SEP)
 192:Generated_Source\PSoC4/RTC.h **** #define RTC_OCTOBER    (RTC__OCT)
 193:Generated_Source\PSoC4/RTC.h **** #define RTC_NOVEMBER   (RTC__NOV)
 194:Generated_Source\PSoC4/RTC.h **** #define RTC_DECEMBER   (RTC__DEC)
 195:Generated_Source\PSoC4/RTC.h **** 
 196:Generated_Source\PSoC4/RTC.h **** #define RTC_DAYS_PER_WEEK       (7u)
 197:Generated_Source\PSoC4/RTC.h **** 
 198:Generated_Source\PSoC4/RTC.h **** /* Number of days in month definitions */
 199:Generated_Source\PSoC4/RTC.h **** #define RTC_DAYS_IN_JANUARY     (31u)
 200:Generated_Source\PSoC4/RTC.h **** #define RTC_DAYS_IN_FEBRUARY    (28u)
 201:Generated_Source\PSoC4/RTC.h **** #define RTC_DAYS_IN_MARCH       (31u)
 202:Generated_Source\PSoC4/RTC.h **** #define RTC_DAYS_IN_APRIL       (30u)
 203:Generated_Source\PSoC4/RTC.h **** #define RTC_DAYS_IN_MAY         (31u)
 204:Generated_Source\PSoC4/RTC.h **** #define RTC_DAYS_IN_JUNE        (30u)
ARM GAS  C:\Users\Petro\AppData\Local\Temp\ccr6rksd.s 			page 5


 205:Generated_Source\PSoC4/RTC.h **** #define RTC_DAYS_IN_JULY        (31u)
 206:Generated_Source\PSoC4/RTC.h **** #define RTC_DAYS_IN_AUGUST      (31u)
 207:Generated_Source\PSoC4/RTC.h **** #define RTC_DAYS_IN_SEPTEMBER   (30u)
 208:Generated_Source\PSoC4/RTC.h **** #define RTC_DAYS_IN_OCTOBER     (31u)
 209:Generated_Source\PSoC4/RTC.h **** #define RTC_DAYS_IN_NOVEMBER    (30u)
 210:Generated_Source\PSoC4/RTC.h **** #define RTC_DAYS_IN_DECEMBER    (31u)
 211:Generated_Source\PSoC4/RTC.h **** 
 212:Generated_Source\PSoC4/RTC.h **** #define RTC_MONTHS_PER_YEAR     (12uL)
 213:Generated_Source\PSoC4/RTC.h **** 
 214:Generated_Source\PSoC4/RTC.h **** #define RTC_HOURS_PER_DAY       (24uL)
 215:Generated_Source\PSoC4/RTC.h **** #define RTC_HOURS_PER_HALF_DAY  (12uL)
 216:Generated_Source\PSoC4/RTC.h **** 
 217:Generated_Source\PSoC4/RTC.h **** #define RTC_SECONDS_PER_MINUTE  (60uL)
 218:Generated_Source\PSoC4/RTC.h **** #define RTC_SECONDS_PER_HOUR    (3600uL)
 219:Generated_Source\PSoC4/RTC.h **** #define RTC_SECONDS_PER_DAY     (24uL * 3600uL)
 220:Generated_Source\PSoC4/RTC.h **** 
 221:Generated_Source\PSoC4/RTC.h **** #define RTC_SECONDS_PER_LEAP_YEAR    (366uL * 24uL * 3600uL)
 222:Generated_Source\PSoC4/RTC.h **** #define RTC_SECONDS_PER_NONLEAP_YEAR (365uL * 24uL * 3600uL)
 223:Generated_Source\PSoC4/RTC.h **** 
 224:Generated_Source\PSoC4/RTC.h **** #define RTC_UNIX_TIME_PM   ((12uL * 3600uL) + 1uL)
 225:Generated_Source\PSoC4/RTC.h **** 
 226:Generated_Source\PSoC4/RTC.h **** /* AM/PM status definitions */
 227:Generated_Source\PSoC4/RTC.h **** #define RTC_AM                 (0u)
 228:Generated_Source\PSoC4/RTC.h **** #define RTC_PM                 (1u)
 229:Generated_Source\PSoC4/RTC.h **** 
 230:Generated_Source\PSoC4/RTC.h **** /* Time format definitions */
 231:Generated_Source\PSoC4/RTC.h **** #define RTC_12_HOURS_FORMAT    (RTC__HOUR_12)
 232:Generated_Source\PSoC4/RTC.h **** #define RTC_24_HOURS_FORMAT    (RTC__HOUR_24)
 233:Generated_Source\PSoC4/RTC.h **** 
 234:Generated_Source\PSoC4/RTC.h **** /* UNIX time begins in 1970 year.  */
 235:Generated_Source\PSoC4/RTC.h **** #define RTC_YEAR_0             (1970u)
 236:Generated_Source\PSoC4/RTC.h **** 
 237:Generated_Source\PSoC4/RTC.h **** /* Definition of date register fields */
 238:Generated_Source\PSoC4/RTC.h **** #if(RTC_INITIAL_DATA_FORMAT == RTC__MM_DD_YYYY)
 239:Generated_Source\PSoC4/RTC.h ****     #define RTC_10_MONTH_OFFSET   (28u)
 240:Generated_Source\PSoC4/RTC.h ****     #define RTC_MONTH_OFFSET      (24u)
 241:Generated_Source\PSoC4/RTC.h ****     #define RTC_10_DAY_OFFSET     (20u)
 242:Generated_Source\PSoC4/RTC.h ****     #define RTC_DAY_OFFSET        (16u)
 243:Generated_Source\PSoC4/RTC.h ****     #define RTC_1000_YEAR_OFFSET  (12u)
 244:Generated_Source\PSoC4/RTC.h ****     #define RTC_100_YEAR_OFFSET   (8u)
 245:Generated_Source\PSoC4/RTC.h ****     #define RTC_10_YEAR_OFFSET    (4u)
 246:Generated_Source\PSoC4/RTC.h ****     #define RTC_YEAR_OFFSET       (0u)
 247:Generated_Source\PSoC4/RTC.h **** #elif(RTC_INITIAL_DATA_FORMAT == RTC__DD_MM_YYYY)
 248:Generated_Source\PSoC4/RTC.h ****     #define RTC_10_MONTH_OFFSET   (20u)
 249:Generated_Source\PSoC4/RTC.h ****     #define RTC_MONTH_OFFSET      (16u)
 250:Generated_Source\PSoC4/RTC.h ****     #define RTC_10_DAY_OFFSET     (28u)
 251:Generated_Source\PSoC4/RTC.h ****     #define RTC_DAY_OFFSET        (24u)
 252:Generated_Source\PSoC4/RTC.h ****     #define RTC_1000_YEAR_OFFSET  (12u)
 253:Generated_Source\PSoC4/RTC.h ****     #define RTC_100_YEAR_OFFSET   (8u)
 254:Generated_Source\PSoC4/RTC.h ****     #define RTC_10_YEAR_OFFSET    (4u)
 255:Generated_Source\PSoC4/RTC.h ****     #define RTC_YEAR_OFFSET       (0u)
 256:Generated_Source\PSoC4/RTC.h **** #else
 257:Generated_Source\PSoC4/RTC.h ****     #define RTC_10_MONTH_OFFSET   (12u)
 258:Generated_Source\PSoC4/RTC.h ****     #define RTC_MONTH_OFFSET      (8u)
 259:Generated_Source\PSoC4/RTC.h ****     #define RTC_10_DAY_OFFSET     (4u)
 260:Generated_Source\PSoC4/RTC.h ****     #define RTC_DAY_OFFSET        (0u)
 261:Generated_Source\PSoC4/RTC.h ****     #define RTC_1000_YEAR_OFFSET  (28u)
ARM GAS  C:\Users\Petro\AppData\Local\Temp\ccr6rksd.s 			page 6


 262:Generated_Source\PSoC4/RTC.h ****     #define RTC_100_YEAR_OFFSET   (24u)
 263:Generated_Source\PSoC4/RTC.h ****     #define RTC_10_YEAR_OFFSET    (20u)
 264:Generated_Source\PSoC4/RTC.h ****     #define RTC_YEAR_OFFSET       (16u)
 265:Generated_Source\PSoC4/RTC.h **** #endif /* (RTC_INITIAL_DATA_FORMAT == RTC__MM_DD_YYYY) */
 266:Generated_Source\PSoC4/RTC.h **** 
 267:Generated_Source\PSoC4/RTC.h **** #define RTC_10_MONTH_MASK          (0x00000001uL << RTC_10_MONTH_OFFSET)
 268:Generated_Source\PSoC4/RTC.h **** #define RTC_MONTH_MASK             (0x0000000FuL << RTC_MONTH_OFFSET)
 269:Generated_Source\PSoC4/RTC.h **** #define RTC_10_DAY_MASK            (0x00000003uL << RTC_10_DAY_OFFSET)
 270:Generated_Source\PSoC4/RTC.h **** #define RTC_DAY_MASK               (0x0000000FuL << RTC_DAY_OFFSET)
 271:Generated_Source\PSoC4/RTC.h **** #define RTC_1000_YEAR_MASK         (0x00000003uL << RTC_1000_YEAR_OFFSET)
 272:Generated_Source\PSoC4/RTC.h **** #define RTC_100_YEAR_MASK          (0x0000000FuL << RTC_100_YEAR_OFFSET)
 273:Generated_Source\PSoC4/RTC.h **** #define RTC_10_YEAR_MASK           (0x0000000FuL << RTC_10_YEAR_OFFSET)
 274:Generated_Source\PSoC4/RTC.h **** #define RTC_YEAR_MASK              (0x0000000FuL << RTC_YEAR_OFFSET)
 275:Generated_Source\PSoC4/RTC.h **** 
 276:Generated_Source\PSoC4/RTC.h **** #define  RTC_MONTH_FULL_MASK       (RTC_10_MONTH_MASK  | RTC_MONTH_MASK)
 277:Generated_Source\PSoC4/RTC.h **** #define  RTC_DAY_FULL_MASK         (RTC_10_DAY_MASK    | RTC_DAY_MASK)
 278:Generated_Source\PSoC4/RTC.h **** #define  RTC_YEAR_FULL_MASK        (RTC_1000_YEAR_MASK | RTC_100_YEAR_MASK |\
 279:Generated_Source\PSoC4/RTC.h ****                                                  RTC_10_YEAR_MASK   | RTC_YEAR_MASK)
 280:Generated_Source\PSoC4/RTC.h **** 
 281:Generated_Source\PSoC4/RTC.h **** 
 282:Generated_Source\PSoC4/RTC.h **** /* Definition of time register fields */
 283:Generated_Source\PSoC4/RTC.h **** #define RTC_TIME_FORMAT_OFFSET     (23u)
 284:Generated_Source\PSoC4/RTC.h **** #define RTC_PERIOD_OF_DAY_OFFSET   (22u)
 285:Generated_Source\PSoC4/RTC.h **** #define RTC_10_HOURS_OFFSET        (20u)
 286:Generated_Source\PSoC4/RTC.h **** #define RTC_HOURS_OFFSET           (16u)
 287:Generated_Source\PSoC4/RTC.h **** #define RTC_10_MINUTES_OFFSET      (12u)
 288:Generated_Source\PSoC4/RTC.h **** #define RTC_MINUTES_OFFSET         (8u)
 289:Generated_Source\PSoC4/RTC.h **** #define RTC_10_SECONDS_OFFSET      (4u)
 290:Generated_Source\PSoC4/RTC.h **** #define RTC_SECONDS_OFFSET         (0u)
 291:Generated_Source\PSoC4/RTC.h **** 
 292:Generated_Source\PSoC4/RTC.h **** #define RTC_TIME_FORMAT_MASK       (0x00000001uL << RTC_TIME_FORMAT_OFFSET)
 293:Generated_Source\PSoC4/RTC.h **** #define RTC_PERIOD_OF_DAY_MASK     (0x00000001uL << RTC_PERIOD_OF_DAY_OFFSET)
 294:Generated_Source\PSoC4/RTC.h **** #define RTC_10_HOURS_MASK          (0x00000003uL << RTC_10_HOURS_OFFSET)
 295:Generated_Source\PSoC4/RTC.h **** #define RTC_HOURS_MASK             (0x0000000FuL << RTC_HOURS_OFFSET)
 296:Generated_Source\PSoC4/RTC.h **** #define RTC_10_MINUTES_MASK        (0x00000007uL << RTC_10_MINUTES_OFFSET)
 297:Generated_Source\PSoC4/RTC.h **** #define RTC_MINUTES_MASK           (0x0000000FuL << RTC_MINUTES_OFFSET)
 298:Generated_Source\PSoC4/RTC.h **** #define RTC_10_SECONDS_MASK        (0x00000007uL << RTC_10_SECONDS_OFFSET)
 299:Generated_Source\PSoC4/RTC.h **** #define RTC_SECONDS_MASK           (0x0000000FuL << RTC_SECONDS_OFFSET)
 300:Generated_Source\PSoC4/RTC.h **** 
 301:Generated_Source\PSoC4/RTC.h **** #define RTC_HOURS_FULL_MASK        (RTC_10_HOURS_MASK   | RTC_HOURS_MASK)
 302:Generated_Source\PSoC4/RTC.h **** #define RTC_MINUTES_FULL_MASK      (RTC_10_MINUTES_MASK | RTC_MINUTES_MASK)
 303:Generated_Source\PSoC4/RTC.h **** #define RTC_SECONDS_FULL_MASK      (RTC_10_SECONDS_MASK | RTC_SECONDS_MASK)
 304:Generated_Source\PSoC4/RTC.h **** 
 305:Generated_Source\PSoC4/RTC.h **** #define RTC_ALARM_SEC_MASK         (0x00000001uL)
 306:Generated_Source\PSoC4/RTC.h **** #define RTC_ALARM_MIN_MASK         (0x00000002uL)
 307:Generated_Source\PSoC4/RTC.h **** #define RTC_ALARM_HOUR_MASK        (0x00000004uL)
 308:Generated_Source\PSoC4/RTC.h **** #define RTC_ALARM_DAYOFWEEK_MASK   (0x00000008uL)
 309:Generated_Source\PSoC4/RTC.h **** #define RTC_ALARM_DAYOFMONTH_MASK  (0x00000010uL)
 310:Generated_Source\PSoC4/RTC.h **** #define RTC_ALARM_MONTH_MASK       (0x00000020uL)
 311:Generated_Source\PSoC4/RTC.h **** #define RTC_ALARM_YEAR_MASK        (0x00000040uL)
 312:Generated_Source\PSoC4/RTC.h **** 
 313:Generated_Source\PSoC4/RTC.h **** #define RTC_STATUS_DST_OFFSET      (1u)
 314:Generated_Source\PSoC4/RTC.h **** #define RTC_STATUS_ALARM_OFFSET    (2u)
 315:Generated_Source\PSoC4/RTC.h **** #define RTC_STATUS_LY_OFFSET       (3u)
 316:Generated_Source\PSoC4/RTC.h **** #define RTC_STATUS_AM_PM_OFFSET    (4u)
 317:Generated_Source\PSoC4/RTC.h **** 
 318:Generated_Source\PSoC4/RTC.h **** /* Definition of the RTC status values. */
ARM GAS  C:\Users\Petro\AppData\Local\Temp\ccr6rksd.s 			page 7


 319:Generated_Source\PSoC4/RTC.h **** #define RTC_STATUS_DST             (1uL << RTC_STATUS_DST_OFFSET)
 320:Generated_Source\PSoC4/RTC.h **** #define RTC_STATUS_LY              (1uL << RTC_STATUS_LY_OFFSET)
 321:Generated_Source\PSoC4/RTC.h **** #define RTC_STATUS_AM_PM           (1uL << RTC_STATUS_AM_PM_OFFSET)
 322:Generated_Source\PSoC4/RTC.h **** 
 323:Generated_Source\PSoC4/RTC.h **** /* Number of bits per one BCD digit. */
 324:Generated_Source\PSoC4/RTC.h **** #define RTC_BCD_NUMBER_SIZE        (4u)
 325:Generated_Source\PSoC4/RTC.h **** #define RTC_BCD_ONE_DIGIT_MASK     (0x0000000FuL)
 326:Generated_Source\PSoC4/RTC.h **** 
 327:Generated_Source\PSoC4/RTC.h **** /*******************************************************************************
 328:Generated_Source\PSoC4/RTC.h **** *    Function Prototypes
 329:Generated_Source\PSoC4/RTC.h **** *******************************************************************************/
 330:Generated_Source\PSoC4/RTC.h **** /**
 331:Generated_Source\PSoC4/RTC.h **** * \addtogroup group_api
 332:Generated_Source\PSoC4/RTC.h **** * @{
 333:Generated_Source\PSoC4/RTC.h **** */
 334:Generated_Source\PSoC4/RTC.h **** void   RTC_Start(void);
 335:Generated_Source\PSoC4/RTC.h **** void   RTC_Stop(void);
 336:Generated_Source\PSoC4/RTC.h **** void   RTC_Init(void);
 337:Generated_Source\PSoC4/RTC.h **** void   RTC_SetUnixTime(uint64 unixTime);
 338:Generated_Source\PSoC4/RTC.h **** uint64 RTC_GetUnixTime(void);
 339:Generated_Source\PSoC4/RTC.h **** void   RTC_SetPeriod(uint32 ticks, uint32 refOneSecTicks);
 340:Generated_Source\PSoC4/RTC.h **** uint32 RTC_GetPeriod(void);
 341:Generated_Source\PSoC4/RTC.h **** uint32 RTC_GetRefOneSec(void);
 342:Generated_Source\PSoC4/RTC.h **** void   RTC_SetDateAndTime(uint32 inputTime, uint32 inputDate);
 343:Generated_Source\PSoC4/RTC.h **** void   RTC_GetDateAndTime(RTC_DATE_TIME* dateTime);
 344:Generated_Source\PSoC4/RTC.h **** uint32 RTC_GetTime(void);
 345:Generated_Source\PSoC4/RTC.h **** uint32 RTC_GetDate(void);
 346:Generated_Source\PSoC4/RTC.h **** void   RTC_SetAlarmDateAndTime(const RTC_DATE_TIME* alarmTime);
 347:Generated_Source\PSoC4/RTC.h **** void   RTC_GetAlarmDateAndTime(RTC_DATE_TIME* alarmTimeDate);
 348:Generated_Source\PSoC4/RTC.h **** void   RTC_SetAlarmMask(uint32 mask);
 349:Generated_Source\PSoC4/RTC.h **** uint32 RTC_GetAlarmMask(void);
 350:Generated_Source\PSoC4/RTC.h **** uint32 RTC_ReadStatus(void);
 351:Generated_Source\PSoC4/RTC.h **** uint32 RTC_GetAlarmStatus(void);
 352:Generated_Source\PSoC4/RTC.h **** void   RTC_ClearAlarmStatus(void);
 353:Generated_Source\PSoC4/RTC.h **** void   RTC_SetDSTStartTime(const RTC_DST_TIME* dstStartTime,
 354:Generated_Source\PSoC4/RTC.h ****                                               RTC_DST_DATETYPE_ENUM type);
 355:Generated_Source\PSoC4/RTC.h **** void   RTC_SetDSTStopTime(const RTC_DST_TIME* dstStopTime,
 356:Generated_Source\PSoC4/RTC.h ****                                              RTC_DST_DATETYPE_ENUM type);
 357:Generated_Source\PSoC4/RTC.h **** uint32 RTC_ConvertBCDToDec(uint32 bcdNum);
 358:Generated_Source\PSoC4/RTC.h **** uint32 RTC_ConvertDecToBCD(uint32 decNum);
 359:Generated_Source\PSoC4/RTC.h **** void   RTC_Update(void);
 360:Generated_Source\PSoC4/RTC.h **** void*  RTC_SetAlarmHandler(void (*CallbackFunction)(void));
 361:Generated_Source\PSoC4/RTC.h **** 
 362:Generated_Source\PSoC4/RTC.h **** static uint32 RTC_ConstructDate(uint32 month, uint32 day, uint32 year);
 363:Generated_Source\PSoC4/RTC.h **** static uint32 RTC_ConstructTime(uint32 timeFormat, uint32 stateAmPm, uint32 hour, uint32 min, uint3
 364:Generated_Source\PSoC4/RTC.h **** /** @} api */
 365:Generated_Source\PSoC4/RTC.h **** 
 366:Generated_Source\PSoC4/RTC.h **** static uint32 RTC_GetTimeFormat(uint32 inputTime);
 367:Generated_Source\PSoC4/RTC.h **** static uint32 RTC_SetTimeFormat(uint32 inputTime, uint32 timeFormat);
 368:Generated_Source\PSoC4/RTC.h **** 
 369:Generated_Source\PSoC4/RTC.h **** /**
 370:Generated_Source\PSoC4/RTC.h **** * \addtogroup group_api
 371:Generated_Source\PSoC4/RTC.h **** * @{
 372:Generated_Source\PSoC4/RTC.h **** */
 373:Generated_Source\PSoC4/RTC.h **** static uint32 RTC_LeapYear(uint32 year);
 374:Generated_Source\PSoC4/RTC.h **** static uint32 RTC_IsBitSet(uint32 var, uint32 mask);
 375:Generated_Source\PSoC4/RTC.h **** static uint32 RTC_GetSecond(uint32 inputTime);
ARM GAS  C:\Users\Petro\AppData\Local\Temp\ccr6rksd.s 			page 8


 376:Generated_Source\PSoC4/RTC.h **** static uint32 RTC_GetMinutes(uint32 inputTime);
 377:Generated_Source\PSoC4/RTC.h **** static uint32 RTC_GetHours(uint32 inputTime);
 378:Generated_Source\PSoC4/RTC.h **** static uint32 RTC_GetAmPm(uint32 inputTime);
 379:Generated_Source\PSoC4/RTC.h **** static uint32 RTC_GetDay(uint32 date);
 380:Generated_Source\PSoC4/RTC.h **** static uint32 RTC_GetMonth(uint32 date);
 381:Generated_Source\PSoC4/RTC.h **** static uint32 RTC_GetYear(uint32 date);
 382:Generated_Source\PSoC4/RTC.h **** /** @} api */
 383:Generated_Source\PSoC4/RTC.h **** 
 384:Generated_Source\PSoC4/RTC.h **** static uint32 RTC_SetSecond(uint32 inputTime, uint32 inputSecond);
 385:Generated_Source\PSoC4/RTC.h **** static uint32 RTC_SetMinutes(uint32 inputTime, uint32 inputMinute);
 386:Generated_Source\PSoC4/RTC.h **** static uint32 RTC_SetHours(uint32 inputTime, uint32 inputHours);
 387:Generated_Source\PSoC4/RTC.h **** static uint32 RTC_SetAmPm(uint32 inputTime, uint32 periodOfDay);
 388:Generated_Source\PSoC4/RTC.h **** static uint32 RTC_SetDay(uint32 inputDate, uint32 inputDay);
 389:Generated_Source\PSoC4/RTC.h **** static uint32 RTC_SetMonth(uint32 inputDate, uint32 inputMonth);
 390:Generated_Source\PSoC4/RTC.h **** static uint32 RTC_SetYear(uint32 inputDate, uint32 inputYear);
 391:Generated_Source\PSoC4/RTC.h **** 
 392:Generated_Source\PSoC4/RTC.h **** uint64 RTC_ConstructUnixAlarmTime(const RTC_DATE_TIME* alarmTime, uint8 alarmCfgMask);
 393:Generated_Source\PSoC4/RTC.h **** uint64 RTC_GetDstUnixTime(const RTC_DST_TIME* dstTime);
 394:Generated_Source\PSoC4/RTC.h **** uint64 RTC_GetNexAlarmTime(uint64 curUnixTime, uint8 alarmCfgMask);
 395:Generated_Source\PSoC4/RTC.h **** 
 396:Generated_Source\PSoC4/RTC.h **** static uint32 RTC_GetNextMinSec(uint32 curVal);
 397:Generated_Source\PSoC4/RTC.h **** static uint32 RTC_GetNextHour(uint32 curVal);
 398:Generated_Source\PSoC4/RTC.h **** static uint32 RTC_GetNextDay(uint32 curYear, uint32 curMonth, uint32 curDay, uint32 alarmCfgMask);
 399:Generated_Source\PSoC4/RTC.h **** static uint32 RTC_GetNextMonth(uint32 curMonth);
 400:Generated_Source\PSoC4/RTC.h **** static uint32 RTC_GetNextYear(uint32 curYear);
 401:Generated_Source\PSoC4/RTC.h **** static uint32 RTC_GetDayOfWeek(uint32 day, uint32 month, uint32 year);
 402:Generated_Source\PSoC4/RTC.h **** 
 403:Generated_Source\PSoC4/RTC.h **** uint32 RTC_DaysInMonth(uint32 month, uint32 year);
 404:Generated_Source\PSoC4/RTC.h **** uint32 RTC_DaysBeforeMonth(uint32 month, uint32 year);
 405:Generated_Source\PSoC4/RTC.h **** 
 406:Generated_Source\PSoC4/RTC.h **** /**
 407:Generated_Source\PSoC4/RTC.h **** * \addtogroup group_api
 408:Generated_Source\PSoC4/RTC.h **** * @{
 409:Generated_Source\PSoC4/RTC.h **** */
 410:Generated_Source\PSoC4/RTC.h **** void   RTC_UnixToDateTime(RTC_DATE_TIME* dateTime, uint64 unixTime, uint32 timeFormat);
 411:Generated_Source\PSoC4/RTC.h **** uint64 RTC_DateTimeToUnix(uint32 inputDate, uint32 inputTime);
 412:Generated_Source\PSoC4/RTC.h **** /** @} api */
 413:Generated_Source\PSoC4/RTC.h **** 
 414:Generated_Source\PSoC4/RTC.h **** uint32 RTC_RelativeToFixed(uint32 dayOfWeek, uint32 weekOfMonth, uint32 month, uint32 year);
 415:Generated_Source\PSoC4/RTC.h **** 
 416:Generated_Source\PSoC4/RTC.h **** 
 417:Generated_Source\PSoC4/RTC.h **** #if defined(CYDEV_RTC_SOURCE_WDT)
 418:Generated_Source\PSoC4/RTC.h ****     #if((0u != CYDEV_WDT_GENERATE_ISR) && (0u == RTC_INITIAL_UPDATE_MODE))
 419:Generated_Source\PSoC4/RTC.h ****         static void RTC_CySysRtcSetCallback(uint32 wdtNumber);
 420:Generated_Source\PSoC4/RTC.h ****         static void RTC_CySysRtcResetCallback(uint32 wdtNumber);
 421:Generated_Source\PSoC4/RTC.h ****     #endif /* ((0u != CYDEV_WDT_GENERATE_ISR) && (0u == RTC_INITIAL_UPDATE_MODE)) */
 422:Generated_Source\PSoC4/RTC.h **** #endif /* (CYDEV_RTC_SOURCE_WDT) */
 423:Generated_Source\PSoC4/RTC.h **** 
 424:Generated_Source\PSoC4/RTC.h **** /*******************************************************************************
 425:Generated_Source\PSoC4/RTC.h **** * Function Name: RTC_IsBitSet
 426:Generated_Source\PSoC4/RTC.h **** ****************************************************************************//**
 427:Generated_Source\PSoC4/RTC.h **** *
 428:Generated_Source\PSoC4/RTC.h **** * \brief
 429:Generated_Source\PSoC4/RTC.h **** *  Checks the state of a bit passed through parameter.
 430:Generated_Source\PSoC4/RTC.h **** *
 431:Generated_Source\PSoC4/RTC.h **** * \param
 432:Generated_Source\PSoC4/RTC.h **** *  var The variable to be checked.
ARM GAS  C:\Users\Petro\AppData\Local\Temp\ccr6rksd.s 			page 9


 433:Generated_Source\PSoC4/RTC.h **** * \param
 434:Generated_Source\PSoC4/RTC.h **** *  mask The mask for a bit to be checked.
 435:Generated_Source\PSoC4/RTC.h **** *
 436:Generated_Source\PSoC4/RTC.h **** * \return
 437:Generated_Source\PSoC4/RTC.h **** *  0u - Bit is not set.
 438:Generated_Source\PSoC4/RTC.h **** * \return
 439:Generated_Source\PSoC4/RTC.h **** *  1u - Bit is set.
 440:Generated_Source\PSoC4/RTC.h **** *
 441:Generated_Source\PSoC4/RTC.h **** *******************************************************************************/
 442:Generated_Source\PSoC4/RTC.h **** static CY_INLINE uint32 RTC_IsBitSet(uint32 var, uint32 mask)
 443:Generated_Source\PSoC4/RTC.h **** {
  25              		.loc 1 443 0
  26              		.cfi_startproc
  27 0000 80B5     		push	{r7, lr}
  28              		.cfi_def_cfa_offset 8
  29              		.cfi_offset 7, -8
  30              		.cfi_offset 14, -4
  31 0002 82B0     		sub	sp, sp, #8
  32              		.cfi_def_cfa_offset 16
  33 0004 00AF     		add	r7, sp, #0
  34              		.cfi_def_cfa_register 7
  35 0006 7860     		str	r0, [r7, #4]
  36 0008 3960     		str	r1, [r7]
 444:Generated_Source\PSoC4/RTC.h ****     return ((mask == (var & mask)) ? 1Lu : 0Lu);
  37              		.loc 1 444 0
  38 000a 7B68     		ldr	r3, [r7, #4]
  39 000c 3A68     		ldr	r2, [r7]
  40 000e 1A40     		and	r2, r3
  41 0010 3B68     		ldr	r3, [r7]
  42 0012 9A42     		cmp	r2, r3
  43 0014 01D1     		bne	.L2
  44              		.loc 1 444 0 is_stmt 0 discriminator 1
  45 0016 0123     		mov	r3, #1
  46 0018 00E0     		b	.L3
  47              	.L2:
  48              		.loc 1 444 0 discriminator 2
  49 001a 0023     		mov	r3, #0
  50              	.L3:
 445:Generated_Source\PSoC4/RTC.h **** }
  51              		.loc 1 445 0 is_stmt 1 discriminator 4
  52 001c 181C     		mov	r0, r3
  53 001e BD46     		mov	sp, r7
  54 0020 02B0     		add	sp, sp, #8
  55              		@ sp needed
  56 0022 80BD     		pop	{r7, pc}
  57              		.cfi_endproc
  58              	.LFE2:
  59              		.size	RTC_IsBitSet, .-RTC_IsBitSet
  60              		.section	.text.RTC_GetSecond,"ax",%progbits
  61              		.align	2
  62              		.code	16
  63              		.thumb_func
  64              		.type	RTC_GetSecond, %function
  65              	RTC_GetSecond:
  66              	.LFB4:
 446:Generated_Source\PSoC4/RTC.h **** 
 447:Generated_Source\PSoC4/RTC.h **** 
ARM GAS  C:\Users\Petro\AppData\Local\Temp\ccr6rksd.s 			page 10


 448:Generated_Source\PSoC4/RTC.h **** /*******************************************************************************
 449:Generated_Source\PSoC4/RTC.h **** * Function Name: RTC_LeapYear
 450:Generated_Source\PSoC4/RTC.h **** ****************************************************************************//**
 451:Generated_Source\PSoC4/RTC.h **** *
 452:Generated_Source\PSoC4/RTC.h **** * \brief
 453:Generated_Source\PSoC4/RTC.h **** * Checks whether the year passed through the parameter is
 454:Generated_Source\PSoC4/RTC.h **** * leap or no.
 455:Generated_Source\PSoC4/RTC.h **** *
 456:Generated_Source\PSoC4/RTC.h **** * \param
 457:Generated_Source\PSoC4/RTC.h **** *  year The year to be checked.
 458:Generated_Source\PSoC4/RTC.h **** *
 459:Generated_Source\PSoC4/RTC.h **** *
 460:Generated_Source\PSoC4/RTC.h **** * \return
 461:Generated_Source\PSoC4/RTC.h **** *  0u - The year is not leap.
 462:Generated_Source\PSoC4/RTC.h **** * \return
 463:Generated_Source\PSoC4/RTC.h **** *  1u - The year is leap.
 464:Generated_Source\PSoC4/RTC.h **** *
 465:Generated_Source\PSoC4/RTC.h **** *******************************************************************************/
 466:Generated_Source\PSoC4/RTC.h **** static CY_INLINE uint32 RTC_LeapYear(uint32 year)
 467:Generated_Source\PSoC4/RTC.h **** {
 468:Generated_Source\PSoC4/RTC.h ****     uint32 retVal;
 469:Generated_Source\PSoC4/RTC.h **** 
 470:Generated_Source\PSoC4/RTC.h ****     if(((0u == (year % 4Lu)) && (0u != (year % 100Lu))) || (0u == (year % 400Lu)))
 471:Generated_Source\PSoC4/RTC.h ****     {
 472:Generated_Source\PSoC4/RTC.h ****         retVal = 1uL;
 473:Generated_Source\PSoC4/RTC.h ****     }
 474:Generated_Source\PSoC4/RTC.h ****     else
 475:Generated_Source\PSoC4/RTC.h ****     {
 476:Generated_Source\PSoC4/RTC.h ****         retVal = 0uL;
 477:Generated_Source\PSoC4/RTC.h ****     }
 478:Generated_Source\PSoC4/RTC.h **** 
 479:Generated_Source\PSoC4/RTC.h ****     return(retVal);
 480:Generated_Source\PSoC4/RTC.h **** }
 481:Generated_Source\PSoC4/RTC.h **** 
 482:Generated_Source\PSoC4/RTC.h **** 
 483:Generated_Source\PSoC4/RTC.h **** /*******************************************************************************
 484:Generated_Source\PSoC4/RTC.h **** * Function Name: RTC_GetSecond
 485:Generated_Source\PSoC4/RTC.h **** ****************************************************************************//**
 486:Generated_Source\PSoC4/RTC.h **** *
 487:Generated_Source\PSoC4/RTC.h **** * \brief
 488:Generated_Source\PSoC4/RTC.h **** *  Returns the seconds value from the time value that is passed as a/the parameter.
 489:Generated_Source\PSoC4/RTC.h **** *
 490:Generated_Source\PSoC4/RTC.h **** * \param
 491:Generated_Source\PSoC4/RTC.h **** *  time The time value.
 492:Generated_Source\PSoC4/RTC.h **** *
 493:Generated_Source\PSoC4/RTC.h **** * \return
 494:Generated_Source\PSoC4/RTC.h **** *  The seconds value.
 495:Generated_Source\PSoC4/RTC.h **** *
 496:Generated_Source\PSoC4/RTC.h **** *******************************************************************************/
 497:Generated_Source\PSoC4/RTC.h **** static CY_INLINE uint32 RTC_GetSecond(uint32 inputTime)
 498:Generated_Source\PSoC4/RTC.h **** {
  67              		.loc 1 498 0
  68              		.cfi_startproc
  69 0000 80B5     		push	{r7, lr}
  70              		.cfi_def_cfa_offset 8
  71              		.cfi_offset 7, -8
  72              		.cfi_offset 14, -4
ARM GAS  C:\Users\Petro\AppData\Local\Temp\ccr6rksd.s 			page 11


  73 0002 84B0     		sub	sp, sp, #16
  74              		.cfi_def_cfa_offset 24
  75 0004 00AF     		add	r7, sp, #0
  76              		.cfi_def_cfa_register 7
  77 0006 7860     		str	r0, [r7, #4]
 499:Generated_Source\PSoC4/RTC.h ****     uint32 retVal;
 500:Generated_Source\PSoC4/RTC.h **** 
 501:Generated_Source\PSoC4/RTC.h ****     retVal  = ((inputTime & RTC_10_SECONDS_MASK) >> RTC_10_SECONDS_OFFSET) * 10u;
  78              		.loc 1 501 0
  79 0008 7B68     		ldr	r3, [r7, #4]
  80 000a 7022     		mov	r2, #112
  81 000c 1340     		and	r3, r2
  82 000e 1A09     		lsr	r2, r3, #4
  83 0010 131C     		mov	r3, r2
  84 0012 9B00     		lsl	r3, r3, #2
  85 0014 9B18     		add	r3, r3, r2
  86 0016 5B00     		lsl	r3, r3, #1
  87 0018 FB60     		str	r3, [r7, #12]
 502:Generated_Source\PSoC4/RTC.h ****     retVal += (inputTime & RTC_SECONDS_MASK) >> RTC_SECONDS_OFFSET;
  88              		.loc 1 502 0
  89 001a 7B68     		ldr	r3, [r7, #4]
  90 001c 0F22     		mov	r2, #15
  91 001e 1340     		and	r3, r2
  92 0020 FA68     		ldr	r2, [r7, #12]
  93 0022 D318     		add	r3, r2, r3
  94 0024 FB60     		str	r3, [r7, #12]
 503:Generated_Source\PSoC4/RTC.h **** 
 504:Generated_Source\PSoC4/RTC.h ****     return (retVal);
  95              		.loc 1 504 0
  96 0026 FB68     		ldr	r3, [r7, #12]
 505:Generated_Source\PSoC4/RTC.h **** }
  97              		.loc 1 505 0
  98 0028 181C     		mov	r0, r3
  99 002a BD46     		mov	sp, r7
 100 002c 04B0     		add	sp, sp, #16
 101              		@ sp needed
 102 002e 80BD     		pop	{r7, pc}
 103              		.cfi_endproc
 104              	.LFE4:
 105              		.size	RTC_GetSecond, .-RTC_GetSecond
 106              		.section	.text.RTC_GetMinutes,"ax",%progbits
 107              		.align	2
 108              		.code	16
 109              		.thumb_func
 110              		.type	RTC_GetMinutes, %function
 111              	RTC_GetMinutes:
 112              	.LFB5:
 506:Generated_Source\PSoC4/RTC.h **** 
 507:Generated_Source\PSoC4/RTC.h **** 
 508:Generated_Source\PSoC4/RTC.h **** /*******************************************************************************
 509:Generated_Source\PSoC4/RTC.h **** * Function Name: RTC_GetMinutes
 510:Generated_Source\PSoC4/RTC.h **** ****************************************************************************//**
 511:Generated_Source\PSoC4/RTC.h **** *
 512:Generated_Source\PSoC4/RTC.h **** * \brief
 513:Generated_Source\PSoC4/RTC.h **** *  Returns the minutes value from the time value that is passed as a/the 
 514:Generated_Source\PSoC4/RTC.h **** * parameter.
 515:Generated_Source\PSoC4/RTC.h **** *
ARM GAS  C:\Users\Petro\AppData\Local\Temp\ccr6rksd.s 			page 12


 516:Generated_Source\PSoC4/RTC.h **** * \param
 517:Generated_Source\PSoC4/RTC.h **** *  time The time value.
 518:Generated_Source\PSoC4/RTC.h **** *
 519:Generated_Source\PSoC4/RTC.h **** * \return
 520:Generated_Source\PSoC4/RTC.h **** *  The minutes value.
 521:Generated_Source\PSoC4/RTC.h **** *
 522:Generated_Source\PSoC4/RTC.h **** *******************************************************************************/
 523:Generated_Source\PSoC4/RTC.h **** static CY_INLINE uint32 RTC_GetMinutes(uint32 inputTime)
 524:Generated_Source\PSoC4/RTC.h **** {
 113              		.loc 1 524 0
 114              		.cfi_startproc
 115 0000 80B5     		push	{r7, lr}
 116              		.cfi_def_cfa_offset 8
 117              		.cfi_offset 7, -8
 118              		.cfi_offset 14, -4
 119 0002 84B0     		sub	sp, sp, #16
 120              		.cfi_def_cfa_offset 24
 121 0004 00AF     		add	r7, sp, #0
 122              		.cfi_def_cfa_register 7
 123 0006 7860     		str	r0, [r7, #4]
 525:Generated_Source\PSoC4/RTC.h ****     uint32 retVal;
 526:Generated_Source\PSoC4/RTC.h **** 
 527:Generated_Source\PSoC4/RTC.h ****     retVal  = ((inputTime & RTC_10_MINUTES_MASK) >> RTC_10_MINUTES_OFFSET) * 10u;
 124              		.loc 1 527 0
 125 0008 7A68     		ldr	r2, [r7, #4]
 126 000a E023     		mov	r3, #224
 127 000c DB01     		lsl	r3, r3, #7
 128 000e 1340     		and	r3, r2
 129 0010 1A0B     		lsr	r2, r3, #12
 130 0012 131C     		mov	r3, r2
 131 0014 9B00     		lsl	r3, r3, #2
 132 0016 9B18     		add	r3, r3, r2
 133 0018 5B00     		lsl	r3, r3, #1
 134 001a FB60     		str	r3, [r7, #12]
 528:Generated_Source\PSoC4/RTC.h ****     retVal += (inputTime & RTC_MINUTES_MASK) >> RTC_MINUTES_OFFSET;
 135              		.loc 1 528 0
 136 001c 7A68     		ldr	r2, [r7, #4]
 137 001e F023     		mov	r3, #240
 138 0020 1B01     		lsl	r3, r3, #4
 139 0022 1340     		and	r3, r2
 140 0024 1B0A     		lsr	r3, r3, #8
 141 0026 FA68     		ldr	r2, [r7, #12]
 142 0028 D318     		add	r3, r2, r3
 143 002a FB60     		str	r3, [r7, #12]
 529:Generated_Source\PSoC4/RTC.h **** 
 530:Generated_Source\PSoC4/RTC.h ****     return (retVal);
 144              		.loc 1 530 0
 145 002c FB68     		ldr	r3, [r7, #12]
 531:Generated_Source\PSoC4/RTC.h **** }
 146              		.loc 1 531 0
 147 002e 181C     		mov	r0, r3
 148 0030 BD46     		mov	sp, r7
 149 0032 04B0     		add	sp, sp, #16
 150              		@ sp needed
 151 0034 80BD     		pop	{r7, pc}
 152              		.cfi_endproc
 153              	.LFE5:
ARM GAS  C:\Users\Petro\AppData\Local\Temp\ccr6rksd.s 			page 13


 154              		.size	RTC_GetMinutes, .-RTC_GetMinutes
 155 0036 C046     		.section	.text.RTC_GetHours,"ax",%progbits
 156              		.align	2
 157              		.code	16
 158              		.thumb_func
 159              		.type	RTC_GetHours, %function
 160              	RTC_GetHours:
 161              	.LFB6:
 532:Generated_Source\PSoC4/RTC.h **** 
 533:Generated_Source\PSoC4/RTC.h **** 
 534:Generated_Source\PSoC4/RTC.h **** /*******************************************************************************
 535:Generated_Source\PSoC4/RTC.h **** * Function Name: RTC_GetHours
 536:Generated_Source\PSoC4/RTC.h **** ****************************************************************************//**
 537:Generated_Source\PSoC4/RTC.h **** *
 538:Generated_Source\PSoC4/RTC.h **** * \brief
 539:Generated_Source\PSoC4/RTC.h **** *  Returns the hours value from the time value that is passed as a/the parameter.
 540:Generated_Source\PSoC4/RTC.h **** *
 541:Generated_Source\PSoC4/RTC.h **** * \param
 542:Generated_Source\PSoC4/RTC.h **** *  time The time value.
 543:Generated_Source\PSoC4/RTC.h **** *
 544:Generated_Source\PSoC4/RTC.h **** * \return
 545:Generated_Source\PSoC4/RTC.h **** *  The hours value.
 546:Generated_Source\PSoC4/RTC.h **** *
 547:Generated_Source\PSoC4/RTC.h **** *******************************************************************************/
 548:Generated_Source\PSoC4/RTC.h **** static CY_INLINE uint32 RTC_GetHours(uint32 inputTime)
 549:Generated_Source\PSoC4/RTC.h **** {
 162              		.loc 1 549 0
 163              		.cfi_startproc
 164 0000 80B5     		push	{r7, lr}
 165              		.cfi_def_cfa_offset 8
 166              		.cfi_offset 7, -8
 167              		.cfi_offset 14, -4
 168 0002 84B0     		sub	sp, sp, #16
 169              		.cfi_def_cfa_offset 24
 170 0004 00AF     		add	r7, sp, #0
 171              		.cfi_def_cfa_register 7
 172 0006 7860     		str	r0, [r7, #4]
 550:Generated_Source\PSoC4/RTC.h ****     uint32 retVal;
 551:Generated_Source\PSoC4/RTC.h **** 
 552:Generated_Source\PSoC4/RTC.h ****     retVal  = ((inputTime & RTC_10_HOURS_MASK) >> RTC_10_HOURS_OFFSET) * 10u;
 173              		.loc 1 552 0
 174 0008 7A68     		ldr	r2, [r7, #4]
 175 000a C023     		mov	r3, #192
 176 000c 9B03     		lsl	r3, r3, #14
 177 000e 1340     		and	r3, r2
 178 0010 1A0D     		lsr	r2, r3, #20
 179 0012 131C     		mov	r3, r2
 180 0014 9B00     		lsl	r3, r3, #2
 181 0016 9B18     		add	r3, r3, r2
 182 0018 5B00     		lsl	r3, r3, #1
 183 001a FB60     		str	r3, [r7, #12]
 553:Generated_Source\PSoC4/RTC.h ****     retVal += (inputTime & RTC_HOURS_MASK) >> RTC_HOURS_OFFSET;
 184              		.loc 1 553 0
 185 001c 7A68     		ldr	r2, [r7, #4]
 186 001e F023     		mov	r3, #240
 187 0020 1B03     		lsl	r3, r3, #12
 188 0022 1340     		and	r3, r2
ARM GAS  C:\Users\Petro\AppData\Local\Temp\ccr6rksd.s 			page 14


 189 0024 1B0C     		lsr	r3, r3, #16
 190 0026 FA68     		ldr	r2, [r7, #12]
 191 0028 D318     		add	r3, r2, r3
 192 002a FB60     		str	r3, [r7, #12]
 554:Generated_Source\PSoC4/RTC.h **** 
 555:Generated_Source\PSoC4/RTC.h ****     return (retVal);
 193              		.loc 1 555 0
 194 002c FB68     		ldr	r3, [r7, #12]
 556:Generated_Source\PSoC4/RTC.h **** }
 195              		.loc 1 556 0
 196 002e 181C     		mov	r0, r3
 197 0030 BD46     		mov	sp, r7
 198 0032 04B0     		add	sp, sp, #16
 199              		@ sp needed
 200 0034 80BD     		pop	{r7, pc}
 201              		.cfi_endproc
 202              	.LFE6:
 203              		.size	RTC_GetHours, .-RTC_GetHours
 204 0036 C046     		.section	.text.RTC_GetAmPm,"ax",%progbits
 205              		.align	2
 206              		.code	16
 207              		.thumb_func
 208              		.type	RTC_GetAmPm, %function
 209              	RTC_GetAmPm:
 210              	.LFB7:
 557:Generated_Source\PSoC4/RTC.h **** 
 558:Generated_Source\PSoC4/RTC.h **** 
 559:Generated_Source\PSoC4/RTC.h **** /*******************************************************************************
 560:Generated_Source\PSoC4/RTC.h **** * Function Name: RTC_GetAmPm
 561:Generated_Source\PSoC4/RTC.h **** ****************************************************************************//**
 562:Generated_Source\PSoC4/RTC.h **** *
 563:Generated_Source\PSoC4/RTC.h **** * \brief
 564:Generated_Source\PSoC4/RTC.h **** *  Returns the AM/PM status from the time value that is passed as parameter.
 565:Generated_Source\PSoC4/RTC.h **** *
 566:Generated_Source\PSoC4/RTC.h **** * \param
 567:Generated_Source\PSoC4/RTC.h **** *  time The time value.
 568:Generated_Source\PSoC4/RTC.h **** *
 569:Generated_Source\PSoC4/RTC.h **** * \return
 570:Generated_Source\PSoC4/RTC.h **** *  RTC_AM - AM.
 571:Generated_Source\PSoC4/RTC.h **** * \return
 572:Generated_Source\PSoC4/RTC.h **** *  RTC_PM - PM.
 573:Generated_Source\PSoC4/RTC.h **** *
 574:Generated_Source\PSoC4/RTC.h **** *******************************************************************************/
 575:Generated_Source\PSoC4/RTC.h **** static CY_INLINE uint32 RTC_GetAmPm(uint32 inputTime)
 576:Generated_Source\PSoC4/RTC.h **** {
 211              		.loc 1 576 0
 212              		.cfi_startproc
 213 0000 80B5     		push	{r7, lr}
 214              		.cfi_def_cfa_offset 8
 215              		.cfi_offset 7, -8
 216              		.cfi_offset 14, -4
 217 0002 82B0     		sub	sp, sp, #8
 218              		.cfi_def_cfa_offset 16
 219 0004 00AF     		add	r7, sp, #0
 220              		.cfi_def_cfa_register 7
 221 0006 7860     		str	r0, [r7, #4]
 577:Generated_Source\PSoC4/RTC.h ****     return (RTC_IsBitSet(inputTime, RTC_PERIOD_OF_DAY_MASK));
ARM GAS  C:\Users\Petro\AppData\Local\Temp\ccr6rksd.s 			page 15


 222              		.loc 1 577 0
 223 0008 7A68     		ldr	r2, [r7, #4]
 224 000a 8023     		mov	r3, #128
 225 000c DB03     		lsl	r3, r3, #15
 226 000e 101C     		mov	r0, r2
 227 0010 191C     		mov	r1, r3
 228 0012 FFF7FEFF 		bl	RTC_IsBitSet
 229 0016 031C     		mov	r3, r0
 578:Generated_Source\PSoC4/RTC.h **** }
 230              		.loc 1 578 0
 231 0018 181C     		mov	r0, r3
 232 001a BD46     		mov	sp, r7
 233 001c 02B0     		add	sp, sp, #8
 234              		@ sp needed
 235 001e 80BD     		pop	{r7, pc}
 236              		.cfi_endproc
 237              	.LFE7:
 238              		.size	RTC_GetAmPm, .-RTC_GetAmPm
 239              		.bss
 240              		.align	3
 241              	time:
 242 0000 00000000 		.space	8
 242      00000000 
 243              		.global	RTCSyncWithDS
 244              		.align	2
 245              		.type	RTCSyncWithDS, %object
 246              		.size	RTCSyncWithDS, 4
 247              	RTCSyncWithDS:
 248 0008 00000000 		.space	4
 249              		.global	msRTC
 250              		.align	1
 251              		.type	msRTC, %object
 252              		.size	msRTC, 2
 253              	msRTC:
 254 000c 0000     		.space	2
 255 000e 0000     		.section	.text.CallBackCounter,"ax",%progbits
 256              		.align	2
 257              		.global	CallBackCounter
 258              		.code	16
 259              		.thumb_func
 260              		.type	CallBackCounter, %function
 261              	CallBackCounter:
 262              	.LFB28:
 263              		.file 2 ".\\lib_RTC\\RTC_WDT.c"
   1:.\lib_RTC/RTC_WDT.c **** /* ========================================
   2:.\lib_RTC/RTC_WDT.c ****  *
   3:.\lib_RTC/RTC_WDT.c ****  * Copyright YOUR COMPANY, THE YEAR
   4:.\lib_RTC/RTC_WDT.c ****  * All Rights Reserved
   5:.\lib_RTC/RTC_WDT.c ****  * UNPUBLISHED, LICENSED SOFTWARE.
   6:.\lib_RTC/RTC_WDT.c ****  *
   7:.\lib_RTC/RTC_WDT.c ****  * CONFIDENTIAL AND PROPRIETARY INFORMATION
   8:.\lib_RTC/RTC_WDT.c ****  * WHICH IS THE PROPERTY OF your company.
   9:.\lib_RTC/RTC_WDT.c ****  *
  10:.\lib_RTC/RTC_WDT.c ****  * ========================================
  11:.\lib_RTC/RTC_WDT.c **** */
  12:.\lib_RTC/RTC_WDT.c **** 
  13:.\lib_RTC/RTC_WDT.c **** #include "lib_RTC\RTC_WDT.h"
ARM GAS  C:\Users\Petro\AppData\Local\Temp\ccr6rksd.s 			page 16


  14:.\lib_RTC/RTC_WDT.c **** #include <SW_UART_PC.h>
  15:.\lib_RTC/RTC_WDT.c **** 
  16:.\lib_RTC/RTC_WDT.c **** static uint64_t time;
  17:.\lib_RTC/RTC_WDT.c **** 
  18:.\lib_RTC/RTC_WDT.c **** uint32_t RTCSyncWithDS = 0;
  19:.\lib_RTC/RTC_WDT.c **** 
  20:.\lib_RTC/RTC_WDT.c **** #ifdef USE_WDT_RTC
  21:.\lib_RTC/RTC_WDT.c **** 
  22:.\lib_RTC/RTC_WDT.c ****     uint16_t msRTC = 0;
  23:.\lib_RTC/RTC_WDT.c **** 
  24:.\lib_RTC/RTC_WDT.c **** void CallBackCounter()
  25:.\lib_RTC/RTC_WDT.c **** {
 264              		.loc 2 25 0
 265              		.cfi_startproc
 266 0000 80B5     		push	{r7, lr}
 267              		.cfi_def_cfa_offset 8
 268              		.cfi_offset 7, -8
 269              		.cfi_offset 14, -4
 270 0002 00AF     		add	r7, sp, #0
 271              		.cfi_def_cfa_register 7
  26:.\lib_RTC/RTC_WDT.c ****     msRTC++;
 272              		.loc 2 26 0
 273 0004 094B     		ldr	r3, .L15
 274 0006 1B88     		ldrh	r3, [r3]
 275 0008 0133     		add	r3, r3, #1
 276 000a 9AB2     		uxth	r2, r3
 277 000c 074B     		ldr	r3, .L15
 278 000e 1A80     		strh	r2, [r3]
  27:.\lib_RTC/RTC_WDT.c ****     if (msRTC == 1000u) 
 279              		.loc 2 27 0
 280 0010 064B     		ldr	r3, .L15
 281 0012 1A88     		ldrh	r2, [r3]
 282 0014 FA23     		mov	r3, #250
 283 0016 9B00     		lsl	r3, r3, #2
 284 0018 9A42     		cmp	r2, r3
 285 001a 04D1     		bne	.L13
  28:.\lib_RTC/RTC_WDT.c ****     {
  29:.\lib_RTC/RTC_WDT.c ****         msRTC = 0u; 
 286              		.loc 2 29 0
 287 001c 034B     		ldr	r3, .L15
 288 001e 0022     		mov	r2, #0
 289 0020 1A80     		strh	r2, [r3]
  30:.\lib_RTC/RTC_WDT.c ****         RTC_Update();
 290              		.loc 2 30 0
 291 0022 FFF7FEFF 		bl	RTC_Update
 292              	.L13:
  31:.\lib_RTC/RTC_WDT.c ****         //SW_UART_PC_PutString("Second Goes\r\n");
  32:.\lib_RTC/RTC_WDT.c ****     }
  33:.\lib_RTC/RTC_WDT.c **** }
 293              		.loc 2 33 0
 294 0026 BD46     		mov	sp, r7
 295              		@ sp needed
 296 0028 80BD     		pop	{r7, pc}
 297              	.L16:
 298 002a C046     		.align	2
 299              	.L15:
 300 002c 00000000 		.word	msRTC
ARM GAS  C:\Users\Petro\AppData\Local\Temp\ccr6rksd.s 			page 17


 301              		.cfi_endproc
 302              	.LFE28:
 303              		.size	CallBackCounter, .-CallBackCounter
 304              		.section	.text.RTC_WDT_Init,"ax",%progbits
 305              		.align	2
 306              		.global	RTC_WDT_Init
 307              		.code	16
 308              		.thumb_func
 309              		.type	RTC_WDT_Init, %function
 310              	RTC_WDT_Init:
 311              	.LFB29:
  34:.\lib_RTC/RTC_WDT.c **** 
  35:.\lib_RTC/RTC_WDT.c **** #endif
  36:.\lib_RTC/RTC_WDT.c **** 
  37:.\lib_RTC/RTC_WDT.c **** 
  38:.\lib_RTC/RTC_WDT.c **** void RTC_WDT_Init(){
 312              		.loc 2 38 0
 313              		.cfi_startproc
 314 0000 80B5     		push	{r7, lr}
 315              		.cfi_def_cfa_offset 8
 316              		.cfi_offset 7, -8
 317              		.cfi_offset 14, -4
 318 0002 82B0     		sub	sp, sp, #8
 319              		.cfi_def_cfa_offset 16
 320 0004 00AF     		add	r7, sp, #0
 321              		.cfi_def_cfa_register 7
  39:.\lib_RTC/RTC_WDT.c ****     void (*CallBackWDT0)(void);
  40:.\lib_RTC/RTC_WDT.c ****     
  41:.\lib_RTC/RTC_WDT.c ****     CallBackWDT0 = CallBackCounter;
 322              		.loc 2 41 0
 323 0006 064B     		ldr	r3, .L18
 324 0008 7B60     		str	r3, [r7, #4]
  42:.\lib_RTC/RTC_WDT.c ****     
  43:.\lib_RTC/RTC_WDT.c ****     RTC_Start();
 325              		.loc 2 43 0
 326 000a FFF7FEFF 		bl	RTC_Start
  44:.\lib_RTC/RTC_WDT.c ****     
  45:.\lib_RTC/RTC_WDT.c ****     #ifdef USE_WDT_RTC
  46:.\lib_RTC/RTC_WDT.c ****         CySysWdtSetInterruptCallback(0, CallBackWDT0);
 327              		.loc 2 46 0
 328 000e 7B68     		ldr	r3, [r7, #4]
 329 0010 0020     		mov	r0, #0
 330 0012 191C     		mov	r1, r3
 331 0014 FFF7FEFF 		bl	CySysWdtSetInterruptCallback
  47:.\lib_RTC/RTC_WDT.c ****         //WDT0_ISR_StartEx(Wdt0_Handler);
  48:.\lib_RTC/RTC_WDT.c ****     #endif
  49:.\lib_RTC/RTC_WDT.c **** }
 332              		.loc 2 49 0
 333 0018 BD46     		mov	sp, r7
 334 001a 02B0     		add	sp, sp, #8
 335              		@ sp needed
 336 001c 80BD     		pop	{r7, pc}
 337              	.L19:
 338 001e C046     		.align	2
 339              	.L18:
 340 0020 00000000 		.word	CallBackCounter
 341              		.cfi_endproc
ARM GAS  C:\Users\Petro\AppData\Local\Temp\ccr6rksd.s 			page 18


 342              	.LFE29:
 343              		.size	RTC_WDT_Init, .-RTC_WDT_Init
 344              		.section	.text.RTCSynced,"ax",%progbits
 345              		.align	2
 346              		.global	RTCSynced
 347              		.code	16
 348              		.thumb_func
 349              		.type	RTCSynced, %function
 350              	RTCSynced:
 351              	.LFB30:
  50:.\lib_RTC/RTC_WDT.c **** 
  51:.\lib_RTC/RTC_WDT.c **** uint32_t RTCSynced(void)
  52:.\lib_RTC/RTC_WDT.c **** {
 352              		.loc 2 52 0
 353              		.cfi_startproc
 354 0000 80B5     		push	{r7, lr}
 355              		.cfi_def_cfa_offset 8
 356              		.cfi_offset 7, -8
 357              		.cfi_offset 14, -4
 358 0002 00AF     		add	r7, sp, #0
 359              		.cfi_def_cfa_register 7
  53:.\lib_RTC/RTC_WDT.c ****     return RTCSyncWithDS;
 360              		.loc 2 53 0
 361 0004 024B     		ldr	r3, .L22
 362 0006 1B68     		ldr	r3, [r3]
  54:.\lib_RTC/RTC_WDT.c **** }
 363              		.loc 2 54 0
 364 0008 181C     		mov	r0, r3
 365 000a BD46     		mov	sp, r7
 366              		@ sp needed
 367 000c 80BD     		pop	{r7, pc}
 368              	.L23:
 369 000e C046     		.align	2
 370              	.L22:
 371 0010 00000000 		.word	RTCSyncWithDS
 372              		.cfi_endproc
 373              	.LFE30:
 374              		.size	RTCSynced, .-RTCSynced
 375              		.global	__aeabi_uldivmod
 376              		.section	.text.RTCgetTime,"ax",%progbits
 377              		.align	2
 378              		.global	RTCgetTime
 379              		.code	16
 380              		.thumb_func
 381              		.type	RTCgetTime, %function
 382              	RTCgetTime:
 383              	.LFB31:
  55:.\lib_RTC/RTC_WDT.c **** 
  56:.\lib_RTC/RTC_WDT.c **** /*******************************************************************************
  57:.\lib_RTC/RTC_WDT.c **** * Function Name: RTCgetTime
  58:.\lib_RTC/RTC_WDT.c **** ********************************************************************************
  59:.\lib_RTC/RTC_WDT.c **** *
  60:.\lib_RTC/RTC_WDT.c **** * Summary
  61:.\lib_RTC/RTC_WDT.c **** *  Reads the current time.
  62:.\lib_RTC/RTC_WDT.c **** *
  63:.\lib_RTC/RTC_WDT.c **** * Return:
  64:.\lib_RTC/RTC_WDT.c **** *  date: The value of date in the user selected format. The date value is available
ARM GAS  C:\Users\Petro\AppData\Local\Temp\ccr6rksd.s 			page 19


  65:.\lib_RTC/RTC_WDT.c **** *        in the BCD format.
  66:.\lib_RTC/RTC_WDT.c **** *
  67:.\lib_RTC/RTC_WDT.c **** *******************************************************************************/
  68:.\lib_RTC/RTC_WDT.c **** uint64_t RTCgetTime(uint64_t timeFormat)
  69:.\lib_RTC/RTC_WDT.c **** {
 384              		.loc 2 69 0
 385              		.cfi_startproc
 386 0000 F0B5     		push	{r4, r5, r6, r7, lr}
 387              		.cfi_def_cfa_offset 20
 388              		.cfi_offset 4, -20
 389              		.cfi_offset 5, -16
 390              		.cfi_offset 6, -12
 391              		.cfi_offset 7, -8
 392              		.cfi_offset 14, -4
 393 0002 B7B0     		sub	sp, sp, #220
 394              		.cfi_def_cfa_offset 240
 395 0004 00AF     		add	r7, sp, #0
 396              		.cfi_def_cfa_register 7
 397 0006 A023     		mov	r3, #160
 398 0008 FB18     		add	r3, r7, r3
 399 000a 1860     		str	r0, [r3]
 400 000c 5960     		str	r1, [r3, #4]
  70:.\lib_RTC/RTC_WDT.c ****     uint32_t readTime;
  71:.\lib_RTC/RTC_WDT.c ****     uint64_t hour, min, sec, ms, stateAmPm;
  72:.\lib_RTC/RTC_WDT.c **** 
  73:.\lib_RTC/RTC_WDT.c ****     
  74:.\lib_RTC/RTC_WDT.c ****     readTime = RTC_GetTime();
 401              		.loc 2 74 0
 402 000e FFF7FEFF 		bl	RTC_GetTime
 403 0012 031C     		mov	r3, r0
 404 0014 D422     		mov	r2, #212
 405 0016 BA18     		add	r2, r7, r2
 406 0018 1360     		str	r3, [r2]
  75:.\lib_RTC/RTC_WDT.c ****     hour = RTC_GetHours(readTime);
 407              		.loc 2 75 0
 408 001a D423     		mov	r3, #212
 409 001c FB18     		add	r3, r7, r3
 410 001e 1B68     		ldr	r3, [r3]
 411 0020 181C     		mov	r0, r3
 412 0022 FFF7FEFF 		bl	RTC_GetHours
 413 0026 031C     		mov	r3, r0
 414 0028 C822     		mov	r2, #200
 415 002a BA18     		add	r2, r7, r2
 416 002c 1360     		str	r3, [r2]
 417 002e 0023     		mov	r3, #0
 418 0030 CC22     		mov	r2, #204
 419 0032 BA18     		add	r2, r7, r2
 420 0034 1360     		str	r3, [r2]
  76:.\lib_RTC/RTC_WDT.c ****     min = RTC_GetMinutes(readTime);
 421              		.loc 2 76 0
 422 0036 D423     		mov	r3, #212
 423 0038 FB18     		add	r3, r7, r3
 424 003a 1B68     		ldr	r3, [r3]
 425 003c 181C     		mov	r0, r3
 426 003e FFF7FEFF 		bl	RTC_GetMinutes
 427 0042 031C     		mov	r3, r0
 428 0044 C022     		mov	r2, #192
ARM GAS  C:\Users\Petro\AppData\Local\Temp\ccr6rksd.s 			page 20


 429 0046 BA18     		add	r2, r7, r2
 430 0048 1360     		str	r3, [r2]
 431 004a 0023     		mov	r3, #0
 432 004c C422     		mov	r2, #196
 433 004e BA18     		add	r2, r7, r2
 434 0050 1360     		str	r3, [r2]
  77:.\lib_RTC/RTC_WDT.c ****     sec = RTC_GetSecond(readTime);
 435              		.loc 2 77 0
 436 0052 D423     		mov	r3, #212
 437 0054 FB18     		add	r3, r7, r3
 438 0056 1B68     		ldr	r3, [r3]
 439 0058 181C     		mov	r0, r3
 440 005a FFF7FEFF 		bl	RTC_GetSecond
 441 005e 031C     		mov	r3, r0
 442 0060 B822     		mov	r2, #184
 443 0062 BA18     		add	r2, r7, r2
 444 0064 1360     		str	r3, [r2]
 445 0066 0023     		mov	r3, #0
 446 0068 BC22     		mov	r2, #188
 447 006a BA18     		add	r2, r7, r2
 448 006c 1360     		str	r3, [r2]
  78:.\lib_RTC/RTC_WDT.c ****     ms = RTCgetRecentMs();
 449              		.loc 2 78 0
 450 006e FFF7FEFF 		bl	RTCgetRecentMs
 451 0072 031C     		mov	r3, r0
 452 0074 B022     		mov	r2, #176
 453 0076 BA18     		add	r2, r7, r2
 454 0078 1360     		str	r3, [r2]
 455 007a 0023     		mov	r3, #0
 456 007c B422     		mov	r2, #180
 457 007e BA18     		add	r2, r7, r2
 458 0080 1360     		str	r3, [r2]
  79:.\lib_RTC/RTC_WDT.c ****     stateAmPm = RTC_GetAmPm(readTime);
 459              		.loc 2 79 0
 460 0082 D423     		mov	r3, #212
 461 0084 FB18     		add	r3, r7, r3
 462 0086 1B68     		ldr	r3, [r3]
 463 0088 181C     		mov	r0, r3
 464 008a FFF7FEFF 		bl	RTC_GetAmPm
 465 008e 031C     		mov	r3, r0
 466 0090 A822     		mov	r2, #168
 467 0092 BA18     		add	r2, r7, r2
 468 0094 1360     		str	r3, [r2]
 469 0096 0023     		mov	r3, #0
 470 0098 AC22     		mov	r2, #172
 471 009a BA18     		add	r2, r7, r2
 472 009c 1360     		str	r3, [r2]
  80:.\lib_RTC/RTC_WDT.c ****     
  81:.\lib_RTC/RTC_WDT.c ****     time  = timeFormat << RTC_TIME_FORMAT_SHIFT;
 473              		.loc 2 81 0
 474 009e A023     		mov	r3, #160
 475 00a0 FB18     		add	r3, r7, r3
 476 00a2 1B68     		ldr	r3, [r3]
 477 00a4 DB01     		lsl	r3, r3, #7
 478 00a6 FB66     		str	r3, [r7, #108]
 479 00a8 0023     		mov	r3, #0
 480 00aa BB66     		str	r3, [r7, #104]
ARM GAS  C:\Users\Petro\AppData\Local\Temp\ccr6rksd.s 			page 21


 481 00ac D14B     		ldr	r3, .L26
 482 00ae B96E     		ldr	r1, [r7, #104]
 483 00b0 FA6E     		ldr	r2, [r7, #108]
 484 00b2 1960     		str	r1, [r3]
 485 00b4 5A60     		str	r2, [r3, #4]
  82:.\lib_RTC/RTC_WDT.c ****     time |= stateAmPm << RTC_PERIOD_OF_DAY_SHIFT;
 486              		.loc 2 82 0
 487 00b6 A823     		mov	r3, #168
 488 00b8 FB18     		add	r3, r7, r3
 489 00ba 1B68     		ldr	r3, [r3]
 490 00bc 9B01     		lsl	r3, r3, #6
 491 00be 7B66     		str	r3, [r7, #100]
 492 00c0 0023     		mov	r3, #0
 493 00c2 3B66     		str	r3, [r7, #96]
 494 00c4 CB4B     		ldr	r3, .L26
 495 00c6 5C68     		ldr	r4, [r3, #4]
 496 00c8 1B68     		ldr	r3, [r3]
 497 00ca 386E     		ldr	r0, [r7, #96]
 498 00cc 796E     		ldr	r1, [r7, #100]
 499 00ce 021C     		mov	r2, r0
 500 00d0 1A43     		orr	r2, r3
 501 00d2 BA65     		str	r2, [r7, #88]
 502 00d4 0A1C     		mov	r2, r1
 503 00d6 2243     		orr	r2, r4
 504 00d8 FA65     		str	r2, [r7, #92]
 505 00da C64B     		ldr	r3, .L26
 506 00dc B96D     		ldr	r1, [r7, #88]
 507 00de FA6D     		ldr	r2, [r7, #92]
 508 00e0 1960     		str	r1, [r3]
 509 00e2 5A60     		str	r2, [r3, #4]
  83:.\lib_RTC/RTC_WDT.c **** 
  84:.\lib_RTC/RTC_WDT.c ****     time |= (hour / 10u) << RTC_10_HOURS_SHIFT;
 510              		.loc 2 84 0
 511 00e4 C823     		mov	r3, #200
 512 00e6 FB18     		add	r3, r7, r3
 513 00e8 5C68     		ldr	r4, [r3, #4]
 514 00ea 1B68     		ldr	r3, [r3]
 515 00ec 181C     		mov	r0, r3
 516 00ee 211C     		mov	r1, r4
 517 00f0 0A22     		mov	r2, #10
 518 00f2 0023     		mov	r3, #0
 519 00f4 FFF7FEFF 		bl	__aeabi_uldivmod
 520 00f8 031C     		mov	r3, r0
 521 00fa 0C1C     		mov	r4, r1
 522 00fc 1B01     		lsl	r3, r3, #4
 523 00fe 7B65     		str	r3, [r7, #84]
 524 0100 0023     		mov	r3, #0
 525 0102 3B65     		str	r3, [r7, #80]
 526 0104 BB4B     		ldr	r3, .L26
 527 0106 5C68     		ldr	r4, [r3, #4]
 528 0108 1B68     		ldr	r3, [r3]
 529 010a 386D     		ldr	r0, [r7, #80]
 530 010c 796D     		ldr	r1, [r7, #84]
 531 010e 021C     		mov	r2, r0
 532 0110 1A43     		orr	r2, r3
 533 0112 BA64     		str	r2, [r7, #72]
 534 0114 0A1C     		mov	r2, r1
ARM GAS  C:\Users\Petro\AppData\Local\Temp\ccr6rksd.s 			page 22


 535 0116 2243     		orr	r2, r4
 536 0118 FA64     		str	r2, [r7, #76]
 537 011a B64B     		ldr	r3, .L26
 538 011c B96C     		ldr	r1, [r7, #72]
 539 011e FA6C     		ldr	r2, [r7, #76]
 540 0120 1960     		str	r1, [r3]
 541 0122 5A60     		str	r2, [r3, #4]
  85:.\lib_RTC/RTC_WDT.c ****     time |= (hour % 10u) << RTC_HOURS_SHIFT;
 542              		.loc 2 85 0
 543 0124 C823     		mov	r3, #200
 544 0126 FB18     		add	r3, r7, r3
 545 0128 5C68     		ldr	r4, [r3, #4]
 546 012a 1B68     		ldr	r3, [r3]
 547 012c 181C     		mov	r0, r3
 548 012e 211C     		mov	r1, r4
 549 0130 0A22     		mov	r2, #10
 550 0132 0023     		mov	r3, #0
 551 0134 FFF7FEFF 		bl	__aeabi_uldivmod
 552 0138 1C1C     		mov	r4, r3
 553 013a 131C     		mov	r3, r2
 554 013c 1B00     		lsl	r3, r3, #0
 555 013e 7B64     		str	r3, [r7, #68]
 556 0140 0023     		mov	r3, #0
 557 0142 3B64     		str	r3, [r7, #64]
 558 0144 AB4B     		ldr	r3, .L26
 559 0146 5C68     		ldr	r4, [r3, #4]
 560 0148 1B68     		ldr	r3, [r3]
 561 014a 386C     		ldr	r0, [r7, #64]
 562 014c 796C     		ldr	r1, [r7, #68]
 563 014e 021C     		mov	r2, r0
 564 0150 1A43     		orr	r2, r3
 565 0152 BA63     		str	r2, [r7, #56]
 566 0154 0A1C     		mov	r2, r1
 567 0156 2243     		orr	r2, r4
 568 0158 FA63     		str	r2, [r7, #60]
 569 015a A64B     		ldr	r3, .L26
 570 015c B96B     		ldr	r1, [r7, #56]
 571 015e FA6B     		ldr	r2, [r7, #60]
 572 0160 1960     		str	r1, [r3]
 573 0162 5A60     		str	r2, [r3, #4]
  86:.\lib_RTC/RTC_WDT.c **** 
  87:.\lib_RTC/RTC_WDT.c ****     time |= (min / 10u) << RTC_10_MINUTES_SHIFT;
 574              		.loc 2 87 0
 575 0164 C023     		mov	r3, #192
 576 0166 FB18     		add	r3, r7, r3
 577 0168 5C68     		ldr	r4, [r3, #4]
 578 016a 1B68     		ldr	r3, [r3]
 579 016c 181C     		mov	r0, r3
 580 016e 211C     		mov	r1, r4
 581 0170 0A22     		mov	r2, #10
 582 0172 0023     		mov	r3, #0
 583 0174 FFF7FEFF 		bl	__aeabi_uldivmod
 584 0178 031C     		mov	r3, r0
 585 017a 0C1C     		mov	r4, r1
 586 017c 1A09     		lsr	r2, r3, #4
 587 017e 2607     		lsl	r6, r4, #28
 588 0180 1643     		orr	r6, r2
ARM GAS  C:\Users\Petro\AppData\Local\Temp\ccr6rksd.s 			page 23


 589 0182 1D07     		lsl	r5, r3, #28
 590 0184 9B4B     		ldr	r3, .L26
 591 0186 5C68     		ldr	r4, [r3, #4]
 592 0188 1B68     		ldr	r3, [r3]
 593 018a 2A1C     		mov	r2, r5
 594 018c 1A43     		orr	r2, r3
 595 018e 3A63     		str	r2, [r7, #48]
 596 0190 321C     		mov	r2, r6
 597 0192 2243     		orr	r2, r4
 598 0194 7A63     		str	r2, [r7, #52]
 599 0196 974B     		ldr	r3, .L26
 600 0198 396B     		ldr	r1, [r7, #48]
 601 019a 7A6B     		ldr	r2, [r7, #52]
 602 019c 1960     		str	r1, [r3]
 603 019e 5A60     		str	r2, [r3, #4]
  88:.\lib_RTC/RTC_WDT.c ****     time |= (min % 10u) << RTC_MINUTES_SHIFT;
 604              		.loc 2 88 0
 605 01a0 C023     		mov	r3, #192
 606 01a2 FB18     		add	r3, r7, r3
 607 01a4 5C68     		ldr	r4, [r3, #4]
 608 01a6 1B68     		ldr	r3, [r3]
 609 01a8 181C     		mov	r0, r3
 610 01aa 211C     		mov	r1, r4
 611 01ac 0A22     		mov	r2, #10
 612 01ae 0023     		mov	r3, #0
 613 01b0 FFF7FEFF 		bl	__aeabi_uldivmod
 614 01b4 1C1C     		mov	r4, r3
 615 01b6 131C     		mov	r3, r2
 616 01b8 1A0A     		lsr	r2, r3, #8
 617 01ba 2106     		lsl	r1, r4, #24
 618 01bc 9C20     		mov	r0, #156
 619 01be 3818     		add	r0, r7, r0
 620 01c0 0160     		str	r1, [r0]
 621 01c2 9C21     		mov	r1, #156
 622 01c4 7918     		add	r1, r7, r1
 623 01c6 0968     		ldr	r1, [r1]
 624 01c8 1143     		orr	r1, r2
 625 01ca 9C22     		mov	r2, #156
 626 01cc BA18     		add	r2, r7, r2
 627 01ce 1160     		str	r1, [r2]
 628 01d0 1B06     		lsl	r3, r3, #24
 629 01d2 9822     		mov	r2, #152
 630 01d4 BA18     		add	r2, r7, r2
 631 01d6 1360     		str	r3, [r2]
 632 01d8 864B     		ldr	r3, .L26
 633 01da 5C68     		ldr	r4, [r3, #4]
 634 01dc 1B68     		ldr	r3, [r3]
 635 01de 9822     		mov	r2, #152
 636 01e0 BA18     		add	r2, r7, r2
 637 01e2 1068     		ldr	r0, [r2]
 638 01e4 5168     		ldr	r1, [r2, #4]
 639 01e6 021C     		mov	r2, r0
 640 01e8 1A43     		orr	r2, r3
 641 01ea BA62     		str	r2, [r7, #40]
 642 01ec 0A1C     		mov	r2, r1
 643 01ee 2243     		orr	r2, r4
 644 01f0 FA62     		str	r2, [r7, #44]
ARM GAS  C:\Users\Petro\AppData\Local\Temp\ccr6rksd.s 			page 24


 645 01f2 804B     		ldr	r3, .L26
 646 01f4 B96A     		ldr	r1, [r7, #40]
 647 01f6 FA6A     		ldr	r2, [r7, #44]
 648 01f8 1960     		str	r1, [r3]
 649 01fa 5A60     		str	r2, [r3, #4]
  89:.\lib_RTC/RTC_WDT.c **** 
  90:.\lib_RTC/RTC_WDT.c ****     time |= (sec / 10u) << RTC_10_SECONDS_SHIFT;
 650              		.loc 2 90 0
 651 01fc B823     		mov	r3, #184
 652 01fe FB18     		add	r3, r7, r3
 653 0200 5C68     		ldr	r4, [r3, #4]
 654 0202 1B68     		ldr	r3, [r3]
 655 0204 181C     		mov	r0, r3
 656 0206 211C     		mov	r1, r4
 657 0208 0A22     		mov	r2, #10
 658 020a 0023     		mov	r3, #0
 659 020c FFF7FEFF 		bl	__aeabi_uldivmod
 660 0210 031C     		mov	r3, r0
 661 0212 0C1C     		mov	r4, r1
 662 0214 1A0B     		lsr	r2, r3, #12
 663 0216 2105     		lsl	r1, r4, #20
 664 0218 9420     		mov	r0, #148
 665 021a 3818     		add	r0, r7, r0
 666 021c 0160     		str	r1, [r0]
 667 021e 9421     		mov	r1, #148
 668 0220 7918     		add	r1, r7, r1
 669 0222 0968     		ldr	r1, [r1]
 670 0224 1143     		orr	r1, r2
 671 0226 9422     		mov	r2, #148
 672 0228 BA18     		add	r2, r7, r2
 673 022a 1160     		str	r1, [r2]
 674 022c 1B05     		lsl	r3, r3, #20
 675 022e 9022     		mov	r2, #144
 676 0230 BA18     		add	r2, r7, r2
 677 0232 1360     		str	r3, [r2]
 678 0234 6F4B     		ldr	r3, .L26
 679 0236 5C68     		ldr	r4, [r3, #4]
 680 0238 1B68     		ldr	r3, [r3]
 681 023a 9022     		mov	r2, #144
 682 023c BA18     		add	r2, r7, r2
 683 023e 1068     		ldr	r0, [r2]
 684 0240 5168     		ldr	r1, [r2, #4]
 685 0242 021C     		mov	r2, r0
 686 0244 1A43     		orr	r2, r3
 687 0246 3A62     		str	r2, [r7, #32]
 688 0248 0A1C     		mov	r2, r1
 689 024a 2243     		orr	r2, r4
 690 024c 7A62     		str	r2, [r7, #36]
 691 024e 694B     		ldr	r3, .L26
 692 0250 396A     		ldr	r1, [r7, #32]
 693 0252 7A6A     		ldr	r2, [r7, #36]
 694 0254 1960     		str	r1, [r3]
 695 0256 5A60     		str	r2, [r3, #4]
  91:.\lib_RTC/RTC_WDT.c ****     time |= (sec % 10u) << RTC_SECONDS_SHIFT;
 696              		.loc 2 91 0
 697 0258 B823     		mov	r3, #184
 698 025a FB18     		add	r3, r7, r3
ARM GAS  C:\Users\Petro\AppData\Local\Temp\ccr6rksd.s 			page 25


 699 025c 5C68     		ldr	r4, [r3, #4]
 700 025e 1B68     		ldr	r3, [r3]
 701 0260 181C     		mov	r0, r3
 702 0262 211C     		mov	r1, r4
 703 0264 0A22     		mov	r2, #10
 704 0266 0023     		mov	r3, #0
 705 0268 FFF7FEFF 		bl	__aeabi_uldivmod
 706 026c 1C1C     		mov	r4, r3
 707 026e 131C     		mov	r3, r2
 708 0270 1A0C     		lsr	r2, r3, #16
 709 0272 2104     		lsl	r1, r4, #16
 710 0274 8C20     		mov	r0, #140
 711 0276 3818     		add	r0, r7, r0
 712 0278 0160     		str	r1, [r0]
 713 027a 8C21     		mov	r1, #140
 714 027c 7918     		add	r1, r7, r1
 715 027e 0968     		ldr	r1, [r1]
 716 0280 1143     		orr	r1, r2
 717 0282 8C22     		mov	r2, #140
 718 0284 BA18     		add	r2, r7, r2
 719 0286 1160     		str	r1, [r2]
 720 0288 1B04     		lsl	r3, r3, #16
 721 028a 8822     		mov	r2, #136
 722 028c BA18     		add	r2, r7, r2
 723 028e 1360     		str	r3, [r2]
 724 0290 584B     		ldr	r3, .L26
 725 0292 5C68     		ldr	r4, [r3, #4]
 726 0294 1B68     		ldr	r3, [r3]
 727 0296 8822     		mov	r2, #136
 728 0298 BA18     		add	r2, r7, r2
 729 029a 1068     		ldr	r0, [r2]
 730 029c 5168     		ldr	r1, [r2, #4]
 731 029e 021C     		mov	r2, r0
 732 02a0 1A43     		orr	r2, r3
 733 02a2 BA61     		str	r2, [r7, #24]
 734 02a4 0A1C     		mov	r2, r1
 735 02a6 2243     		orr	r2, r4
 736 02a8 FA61     		str	r2, [r7, #28]
 737 02aa 524B     		ldr	r3, .L26
 738 02ac B969     		ldr	r1, [r7, #24]
 739 02ae FA69     		ldr	r2, [r7, #28]
 740 02b0 1960     		str	r1, [r3]
 741 02b2 5A60     		str	r2, [r3, #4]
  92:.\lib_RTC/RTC_WDT.c ****     
  93:.\lib_RTC/RTC_WDT.c ****     
  94:.\lib_RTC/RTC_WDT.c ****     time |= (ms / 100u) << RTC_100_MILISECONDS_SHIFT;
 742              		.loc 2 94 0
 743 02b4 B023     		mov	r3, #176
 744 02b6 FB18     		add	r3, r7, r3
 745 02b8 5C68     		ldr	r4, [r3, #4]
 746 02ba 1B68     		ldr	r3, [r3]
 747 02bc 181C     		mov	r0, r3
 748 02be 211C     		mov	r1, r4
 749 02c0 6422     		mov	r2, #100
 750 02c2 0023     		mov	r3, #0
 751 02c4 FFF7FEFF 		bl	__aeabi_uldivmod
 752 02c8 031C     		mov	r3, r0
ARM GAS  C:\Users\Petro\AppData\Local\Temp\ccr6rksd.s 			page 26


 753 02ca 0C1C     		mov	r4, r1
 754 02cc 1A0D     		lsr	r2, r3, #20
 755 02ce 2103     		lsl	r1, r4, #12
 756 02d0 8420     		mov	r0, #132
 757 02d2 3818     		add	r0, r7, r0
 758 02d4 0160     		str	r1, [r0]
 759 02d6 8421     		mov	r1, #132
 760 02d8 7918     		add	r1, r7, r1
 761 02da 0968     		ldr	r1, [r1]
 762 02dc 1143     		orr	r1, r2
 763 02de 8422     		mov	r2, #132
 764 02e0 BA18     		add	r2, r7, r2
 765 02e2 1160     		str	r1, [r2]
 766 02e4 1B03     		lsl	r3, r3, #12
 767 02e6 8022     		mov	r2, #128
 768 02e8 BA18     		add	r2, r7, r2
 769 02ea 1360     		str	r3, [r2]
 770 02ec 414B     		ldr	r3, .L26
 771 02ee 5C68     		ldr	r4, [r3, #4]
 772 02f0 1B68     		ldr	r3, [r3]
 773 02f2 8022     		mov	r2, #128
 774 02f4 BA18     		add	r2, r7, r2
 775 02f6 1068     		ldr	r0, [r2]
 776 02f8 5168     		ldr	r1, [r2, #4]
 777 02fa 021C     		mov	r2, r0
 778 02fc 1A43     		orr	r2, r3
 779 02fe 3A61     		str	r2, [r7, #16]
 780 0300 0A1C     		mov	r2, r1
 781 0302 2243     		orr	r2, r4
 782 0304 7A61     		str	r2, [r7, #20]
 783 0306 3B4B     		ldr	r3, .L26
 784 0308 3969     		ldr	r1, [r7, #16]
 785 030a 7A69     		ldr	r2, [r7, #20]
 786 030c 1960     		str	r1, [r3]
 787 030e 5A60     		str	r2, [r3, #4]
  95:.\lib_RTC/RTC_WDT.c ****     time |= ((ms / 10u)-(ms/100u)*10u) << RTC_10_MILISECONDS_SHIFT;
 788              		.loc 2 95 0
 789 0310 B023     		mov	r3, #176
 790 0312 FB18     		add	r3, r7, r3
 791 0314 5C68     		ldr	r4, [r3, #4]
 792 0316 1B68     		ldr	r3, [r3]
 793 0318 181C     		mov	r0, r3
 794 031a 211C     		mov	r1, r4
 795 031c 0A22     		mov	r2, #10
 796 031e 0023     		mov	r3, #0
 797 0320 FFF7FEFF 		bl	__aeabi_uldivmod
 798 0324 031C     		mov	r3, r0
 799 0326 0C1C     		mov	r4, r1
 800 0328 9822     		mov	r2, #152
 801 032a BA18     		add	r2, r7, r2
 802 032c 1360     		str	r3, [r2]
 803 032e 5460     		str	r4, [r2, #4]
 804 0330 B023     		mov	r3, #176
 805 0332 FB18     		add	r3, r7, r3
 806 0334 5C68     		ldr	r4, [r3, #4]
 807 0336 1B68     		ldr	r3, [r3]
 808 0338 181C     		mov	r0, r3
ARM GAS  C:\Users\Petro\AppData\Local\Temp\ccr6rksd.s 			page 27


 809 033a 211C     		mov	r1, r4
 810 033c 6422     		mov	r2, #100
 811 033e 0023     		mov	r3, #0
 812 0340 FFF7FEFF 		bl	__aeabi_uldivmod
 813 0344 031C     		mov	r3, r0
 814 0346 0C1C     		mov	r4, r1
 815 0348 191C     		mov	r1, r3
 816 034a 221C     		mov	r2, r4
 817 034c 0B1C     		mov	r3, r1
 818 034e 141C     		mov	r4, r2
 819 0350 980F     		lsr	r0, r3, #30
 820 0352 A500     		lsl	r5, r4, #2
 821 0354 7D67     		str	r5, [r7, #116]
 822 0356 7D6F     		ldr	r5, [r7, #116]
 823 0358 0543     		orr	r5, r0
 824 035a 7D67     		str	r5, [r7, #116]
 825 035c 9B00     		lsl	r3, r3, #2
 826 035e 3B67     		str	r3, [r7, #112]
 827 0360 3B6F     		ldr	r3, [r7, #112]
 828 0362 7C6F     		ldr	r4, [r7, #116]
 829 0364 5B18     		add	r3, r3, r1
 830 0366 5441     		adc	r4, r4, r2
 831 0368 DB18     		add	r3, r3, r3
 832 036a 6441     		adc	r4, r4, r4
 833 036c 9822     		mov	r2, #152
 834 036e BA18     		add	r2, r7, r2
 835 0370 1568     		ldr	r5, [r2]
 836 0372 5668     		ldr	r6, [r2, #4]
 837 0374 ED1A     		sub	r5, r5, r3
 838 0376 A641     		sbc	r6, r6, r4
 839 0378 2B1C     		mov	r3, r5
 840 037a 341C     		mov	r4, r6
 841 037c 1A0E     		lsr	r2, r3, #24
 842 037e 2102     		lsl	r1, r4, #8
 843 0380 F967     		str	r1, [r7, #124]
 844 0382 F96F     		ldr	r1, [r7, #124]
 845 0384 1143     		orr	r1, r2
 846 0386 F967     		str	r1, [r7, #124]
 847 0388 1B02     		lsl	r3, r3, #8
 848 038a BB67     		str	r3, [r7, #120]
 849 038c 194B     		ldr	r3, .L26
 850 038e 5C68     		ldr	r4, [r3, #4]
 851 0390 1B68     		ldr	r3, [r3]
 852 0392 B86F     		ldr	r0, [r7, #120]
 853 0394 F96F     		ldr	r1, [r7, #124]
 854 0396 021C     		mov	r2, r0
 855 0398 1A43     		orr	r2, r3
 856 039a BA60     		str	r2, [r7, #8]
 857 039c 0A1C     		mov	r2, r1
 858 039e 2243     		orr	r2, r4
 859 03a0 FA60     		str	r2, [r7, #12]
 860 03a2 144B     		ldr	r3, .L26
 861 03a4 B968     		ldr	r1, [r7, #8]
 862 03a6 FA68     		ldr	r2, [r7, #12]
 863 03a8 1960     		str	r1, [r3]
 864 03aa 5A60     		str	r2, [r3, #4]
  96:.\lib_RTC/RTC_WDT.c ****     time |= (ms % 10u) << RTC_MILISECONDS_SHIFT;
ARM GAS  C:\Users\Petro\AppData\Local\Temp\ccr6rksd.s 			page 28


 865              		.loc 2 96 0
 866 03ac B023     		mov	r3, #176
 867 03ae FB18     		add	r3, r7, r3
 868 03b0 5C68     		ldr	r4, [r3, #4]
 869 03b2 1B68     		ldr	r3, [r3]
 870 03b4 181C     		mov	r0, r3
 871 03b6 211C     		mov	r1, r4
 872 03b8 0A22     		mov	r2, #10
 873 03ba 0023     		mov	r3, #0
 874 03bc FFF7FEFF 		bl	__aeabi_uldivmod
 875 03c0 1C1C     		mov	r4, r3
 876 03c2 131C     		mov	r3, r2
 877 03c4 191C     		mov	r1, r3
 878 03c6 221C     		mov	r2, r4
 879 03c8 0A4B     		ldr	r3, .L26
 880 03ca 5C68     		ldr	r4, [r3, #4]
 881 03cc 1B68     		ldr	r3, [r3]
 882 03ce 081C     		mov	r0, r1
 883 03d0 1843     		orr	r0, r3
 884 03d2 3860     		str	r0, [r7]
 885 03d4 2243     		orr	r2, r4
 886 03d6 7A60     		str	r2, [r7, #4]
 887 03d8 064B     		ldr	r3, .L26
 888 03da 3968     		ldr	r1, [r7]
 889 03dc 7A68     		ldr	r2, [r7, #4]
 890 03de 1960     		str	r1, [r3]
 891 03e0 5A60     		str	r2, [r3, #4]
  97:.\lib_RTC/RTC_WDT.c ****        
  98:.\lib_RTC/RTC_WDT.c ****     return time;
 892              		.loc 2 98 0
 893 03e2 044B     		ldr	r3, .L26
 894 03e4 5C68     		ldr	r4, [r3, #4]
 895 03e6 1B68     		ldr	r3, [r3]
  99:.\lib_RTC/RTC_WDT.c **** }
 896              		.loc 2 99 0
 897 03e8 181C     		mov	r0, r3
 898 03ea 211C     		mov	r1, r4
 899 03ec BD46     		mov	sp, r7
 900 03ee 37B0     		add	sp, sp, #220
 901              		@ sp needed
 902 03f0 F0BD     		pop	{r4, r5, r6, r7, pc}
 903              	.L27:
 904 03f2 C046     		.align	2
 905              	.L26:
 906 03f4 00000000 		.word	time
 907              		.cfi_endproc
 908              	.LFE31:
 909              		.size	RTCgetTime, .-RTCgetTime
 910              		.section	.text.RTCGetUnixTime,"ax",%progbits
 911              		.align	2
 912              		.global	RTCGetUnixTime
 913              		.code	16
 914              		.thumb_func
 915              		.type	RTCGetUnixTime, %function
 916              	RTCGetUnixTime:
 917              	.LFB32:
 100:.\lib_RTC/RTC_WDT.c **** 
ARM GAS  C:\Users\Petro\AppData\Local\Temp\ccr6rksd.s 			page 29


 101:.\lib_RTC/RTC_WDT.c **** /*******************************************************************************
 102:.\lib_RTC/RTC_WDT.c **** * Function Name: RTCgetHours
 103:.\lib_RTC/RTC_WDT.c **** ****************************************************************************//**
 104:.\lib_RTC/RTC_WDT.c **** *
 105:.\lib_RTC/RTC_WDT.c **** * \brief
 106:.\lib_RTC/RTC_WDT.c **** *  Returns the hours value 
 107:.\lib_RTC/RTC_WDT.c **** *
 108:.\lib_RTC/RTC_WDT.c **** * \return
 109:.\lib_RTC/RTC_WDT.c **** *  The hours value.
 110:.\lib_RTC/RTC_WDT.c **** *
 111:.\lib_RTC/RTC_WDT.c **** *******************************************************************************/
 112:.\lib_RTC/RTC_WDT.c **** 
 113:.\lib_RTC/RTC_WDT.c **** uint64_t RTCGetUnixTime(void)
 114:.\lib_RTC/RTC_WDT.c **** {
 918              		.loc 2 114 0
 919              		.cfi_startproc
 920 0000 98B5     		push	{r3, r4, r7, lr}
 921              		.cfi_def_cfa_offset 16
 922              		.cfi_offset 3, -16
 923              		.cfi_offset 4, -12
 924              		.cfi_offset 7, -8
 925              		.cfi_offset 14, -4
 926 0002 00AF     		add	r7, sp, #0
 927              		.cfi_def_cfa_register 7
 115:.\lib_RTC/RTC_WDT.c ****     return RTC_GetUnixTime();
 928              		.loc 2 115 0
 929 0004 FFF7FEFF 		bl	RTC_GetUnixTime
 930 0008 031C     		mov	r3, r0
 931 000a 0C1C     		mov	r4, r1
 116:.\lib_RTC/RTC_WDT.c **** }
 932              		.loc 2 116 0
 933 000c 181C     		mov	r0, r3
 934 000e 211C     		mov	r1, r4
 935 0010 BD46     		mov	sp, r7
 936              		@ sp needed
 937 0012 98BD     		pop	{r3, r4, r7, pc}
 938              		.cfi_endproc
 939              	.LFE32:
 940              		.size	RTCGetUnixTime, .-RTCGetUnixTime
 941              		.section	.text.RTCgetHours,"ax",%progbits
 942              		.align	2
 943              		.global	RTCgetHours
 944              		.code	16
 945              		.thumb_func
 946              		.type	RTCgetHours, %function
 947              	RTCgetHours:
 948              	.LFB33:
 117:.\lib_RTC/RTC_WDT.c **** 
 118:.\lib_RTC/RTC_WDT.c **** 
 119:.\lib_RTC/RTC_WDT.c **** uint32_t RTCgetHours(uint64_t readTime)
 120:.\lib_RTC/RTC_WDT.c **** {
 949              		.loc 2 120 0
 950              		.cfi_startproc
 951 0000 F0B5     		push	{r4, r5, r6, r7, lr}
 952              		.cfi_def_cfa_offset 20
 953              		.cfi_offset 4, -20
 954              		.cfi_offset 5, -16
ARM GAS  C:\Users\Petro\AppData\Local\Temp\ccr6rksd.s 			page 30


 955              		.cfi_offset 6, -12
 956              		.cfi_offset 7, -8
 957              		.cfi_offset 14, -4
 958 0002 8BB0     		sub	sp, sp, #44
 959              		.cfi_def_cfa_offset 64
 960 0004 00AF     		add	r7, sp, #0
 961              		.cfi_def_cfa_register 7
 962 0006 B861     		str	r0, [r7, #24]
 963 0008 F961     		str	r1, [r7, #28]
 121:.\lib_RTC/RTC_WDT.c ****     uint64_t retVal;
 122:.\lib_RTC/RTC_WDT.c ****     
 123:.\lib_RTC/RTC_WDT.c ****     retVal  = ((readTime & RTC_MASK_10_HOURS) >> RTC_10_HOURS_SHIFT) * 10u;
 964              		.loc 2 123 0
 965 000a BA69     		ldr	r2, [r7, #24]
 966 000c 0021     		mov	r1, #0
 967 000e 0A40     		and	r2, r1
 968 0010 131C     		mov	r3, r2
 969 0012 FA69     		ldr	r2, [r7, #28]
 970 0014 3021     		mov	r1, #48
 971 0016 0A40     		and	r2, r1
 972 0018 141C     		mov	r4, r2
 973 001a 2309     		lsr	r3, r4, #4
 974 001c 3B61     		str	r3, [r7, #16]
 975 001e 0023     		mov	r3, #0
 976 0020 7B61     		str	r3, [r7, #20]
 977 0022 3869     		ldr	r0, [r7, #16]
 978 0024 7969     		ldr	r1, [r7, #20]
 979 0026 031C     		mov	r3, r0
 980 0028 0C1C     		mov	r4, r1
 981 002a 9A0F     		lsr	r2, r3, #30
 982 002c A600     		lsl	r6, r4, #2
 983 002e 1643     		orr	r6, r2
 984 0030 9D00     		lsl	r5, r3, #2
 985 0032 031C     		mov	r3, r0
 986 0034 0C1C     		mov	r4, r1
 987 0036 5B19     		add	r3, r3, r5
 988 0038 7441     		adc	r4, r4, r6
 989 003a DB18     		add	r3, r3, r3
 990 003c 6441     		adc	r4, r4, r4
 991 003e 3B62     		str	r3, [r7, #32]
 992 0040 7C62     		str	r4, [r7, #36]
 124:.\lib_RTC/RTC_WDT.c ****     retVal += (readTime & RTC_MASK_HOURS) >> RTC_HOURS_SHIFT;
 993              		.loc 2 124 0
 994 0042 BB69     		ldr	r3, [r7, #24]
 995 0044 0022     		mov	r2, #0
 996 0046 1340     		and	r3, r2
 997 0048 BB60     		str	r3, [r7, #8]
 998 004a FB69     		ldr	r3, [r7, #28]
 999 004c 0F22     		mov	r2, #15
 1000 004e 1340     		and	r3, r2
 1001 0050 FB60     		str	r3, [r7, #12]
 1002 0052 FB68     		ldr	r3, [r7, #12]
 1003 0054 1B00     		lsr	r3, r3, #0
 1004 0056 3B60     		str	r3, [r7]
 1005 0058 0023     		mov	r3, #0
 1006 005a 7B60     		str	r3, [r7, #4]
 1007 005c 3B6A     		ldr	r3, [r7, #32]
ARM GAS  C:\Users\Petro\AppData\Local\Temp\ccr6rksd.s 			page 31


 1008 005e 7C6A     		ldr	r4, [r7, #36]
 1009 0060 3968     		ldr	r1, [r7]
 1010 0062 7A68     		ldr	r2, [r7, #4]
 1011 0064 5B18     		add	r3, r3, r1
 1012 0066 5441     		adc	r4, r4, r2
 1013 0068 3B62     		str	r3, [r7, #32]
 1014 006a 7C62     		str	r4, [r7, #36]
 125:.\lib_RTC/RTC_WDT.c ****     
 126:.\lib_RTC/RTC_WDT.c ****     return (int)(retVal);
 1015              		.loc 2 126 0
 1016 006c 3B6A     		ldr	r3, [r7, #32]
 127:.\lib_RTC/RTC_WDT.c **** }
 1017              		.loc 2 127 0
 1018 006e 181C     		mov	r0, r3
 1019 0070 BD46     		mov	sp, r7
 1020 0072 0BB0     		add	sp, sp, #44
 1021              		@ sp needed
 1022 0074 F0BD     		pop	{r4, r5, r6, r7, pc}
 1023              		.cfi_endproc
 1024              	.LFE33:
 1025              		.size	RTCgetHours, .-RTCgetHours
 1026 0076 C046     		.section	.text.RTCgetMinutes,"ax",%progbits
 1027              		.align	2
 1028              		.global	RTCgetMinutes
 1029              		.code	16
 1030              		.thumb_func
 1031              		.type	RTCgetMinutes, %function
 1032              	RTCgetMinutes:
 1033              	.LFB34:
 128:.\lib_RTC/RTC_WDT.c **** 
 129:.\lib_RTC/RTC_WDT.c **** /*******************************************************************************
 130:.\lib_RTC/RTC_WDT.c **** * Function Name: RTCgetMinutes
 131:.\lib_RTC/RTC_WDT.c **** ****************************************************************************//**
 132:.\lib_RTC/RTC_WDT.c **** *
 133:.\lib_RTC/RTC_WDT.c **** * \brief
 134:.\lib_RTC/RTC_WDT.c **** *  Returns the minutes value 
 135:.\lib_RTC/RTC_WDT.c **** *
 136:.\lib_RTC/RTC_WDT.c **** * \return
 137:.\lib_RTC/RTC_WDT.c **** *  The minutes value.
 138:.\lib_RTC/RTC_WDT.c **** *
 139:.\lib_RTC/RTC_WDT.c **** *******************************************************************************/
 140:.\lib_RTC/RTC_WDT.c **** uint32_t RTCgetMinutes(uint64_t readTime)
 141:.\lib_RTC/RTC_WDT.c **** {
 1034              		.loc 2 141 0
 1035              		.cfi_startproc
 1036 0000 F0B5     		push	{r4, r5, r6, r7, lr}
 1037              		.cfi_def_cfa_offset 20
 1038              		.cfi_offset 4, -20
 1039              		.cfi_offset 5, -16
 1040              		.cfi_offset 6, -12
 1041              		.cfi_offset 7, -8
 1042              		.cfi_offset 14, -4
 1043 0002 8BB0     		sub	sp, sp, #44
 1044              		.cfi_def_cfa_offset 64
 1045 0004 00AF     		add	r7, sp, #0
 1046              		.cfi_def_cfa_register 7
 1047 0006 B861     		str	r0, [r7, #24]
ARM GAS  C:\Users\Petro\AppData\Local\Temp\ccr6rksd.s 			page 32


 1048 0008 F961     		str	r1, [r7, #28]
 142:.\lib_RTC/RTC_WDT.c ****     uint64 retVal;
 143:.\lib_RTC/RTC_WDT.c **** 
 144:.\lib_RTC/RTC_WDT.c ****     retVal  = ((readTime & RTC_MASK_10_MINUTES) >> RTC_10_MINUTES_SHIFT) * 10u;
 1049              		.loc 2 144 0
 1050 000a B969     		ldr	r1, [r7, #24]
 1051 000c E022     		mov	r2, #224
 1052 000e D205     		lsl	r2, r2, #23
 1053 0010 1140     		and	r1, r2
 1054 0012 0B1C     		mov	r3, r1
 1055 0014 FA69     		ldr	r2, [r7, #28]
 1056 0016 0021     		mov	r1, #0
 1057 0018 0A40     		and	r2, r1
 1058 001a 141C     		mov	r4, r2
 1059 001c 2201     		lsl	r2, r4, #4
 1060 001e 1D0F     		lsr	r5, r3, #28
 1061 0020 1543     		orr	r5, r2
 1062 0022 260F     		lsr	r6, r4, #28
 1063 0024 2B1C     		mov	r3, r5
 1064 0026 341C     		mov	r4, r6
 1065 0028 9A0F     		lsr	r2, r3, #30
 1066 002a A100     		lsl	r1, r4, #2
 1067 002c F960     		str	r1, [r7, #12]
 1068 002e F968     		ldr	r1, [r7, #12]
 1069 0030 1143     		orr	r1, r2
 1070 0032 F960     		str	r1, [r7, #12]
 1071 0034 9B00     		lsl	r3, r3, #2
 1072 0036 BB60     		str	r3, [r7, #8]
 1073 0038 BB68     		ldr	r3, [r7, #8]
 1074 003a FC68     		ldr	r4, [r7, #12]
 1075 003c 5B19     		add	r3, r3, r5
 1076 003e 7441     		adc	r4, r4, r6
 1077 0040 DB18     		add	r3, r3, r3
 1078 0042 6441     		adc	r4, r4, r4
 1079 0044 3B62     		str	r3, [r7, #32]
 1080 0046 7C62     		str	r4, [r7, #36]
 145:.\lib_RTC/RTC_WDT.c ****     retVal += (readTime & RTC_MASK_MINUTES) >> RTC_MINUTES_SHIFT;
 1081              		.loc 2 145 0
 1082 0048 BA69     		ldr	r2, [r7, #24]
 1083 004a F023     		mov	r3, #240
 1084 004c 1B05     		lsl	r3, r3, #20
 1085 004e 1A40     		and	r2, r3
 1086 0050 3A60     		str	r2, [r7]
 1087 0052 FB69     		ldr	r3, [r7, #28]
 1088 0054 0022     		mov	r2, #0
 1089 0056 1340     		and	r3, r2
 1090 0058 7B60     		str	r3, [r7, #4]
 1091 005a 3868     		ldr	r0, [r7]
 1092 005c 7968     		ldr	r1, [r7, #4]
 1093 005e 0B1C     		mov	r3, r1
 1094 0060 1B02     		lsl	r3, r3, #8
 1095 0062 021C     		mov	r2, r0
 1096 0064 120E     		lsr	r2, r2, #24
 1097 0066 3A61     		str	r2, [r7, #16]
 1098 0068 3A69     		ldr	r2, [r7, #16]
 1099 006a 1A43     		orr	r2, r3
 1100 006c 3A61     		str	r2, [r7, #16]
ARM GAS  C:\Users\Petro\AppData\Local\Temp\ccr6rksd.s 			page 33


 1101 006e 0B1C     		mov	r3, r1
 1102 0070 1B0E     		lsr	r3, r3, #24
 1103 0072 7B61     		str	r3, [r7, #20]
 1104 0074 3B6A     		ldr	r3, [r7, #32]
 1105 0076 7C6A     		ldr	r4, [r7, #36]
 1106 0078 3969     		ldr	r1, [r7, #16]
 1107 007a 7A69     		ldr	r2, [r7, #20]
 1108 007c 5B18     		add	r3, r3, r1
 1109 007e 5441     		adc	r4, r4, r2
 1110 0080 3B62     		str	r3, [r7, #32]
 1111 0082 7C62     		str	r4, [r7, #36]
 146:.\lib_RTC/RTC_WDT.c **** 
 147:.\lib_RTC/RTC_WDT.c ****     return (int)(retVal);
 1112              		.loc 2 147 0
 1113 0084 3B6A     		ldr	r3, [r7, #32]
 148:.\lib_RTC/RTC_WDT.c **** }
 1114              		.loc 2 148 0
 1115 0086 181C     		mov	r0, r3
 1116 0088 BD46     		mov	sp, r7
 1117 008a 0BB0     		add	sp, sp, #44
 1118              		@ sp needed
 1119 008c F0BD     		pop	{r4, r5, r6, r7, pc}
 1120              		.cfi_endproc
 1121              	.LFE34:
 1122              		.size	RTCgetMinutes, .-RTCgetMinutes
 1123 008e C046     		.section	.text.RTCgetSecond,"ax",%progbits
 1124              		.align	2
 1125              		.global	RTCgetSecond
 1126              		.code	16
 1127              		.thumb_func
 1128              		.type	RTCgetSecond, %function
 1129              	RTCgetSecond:
 1130              	.LFB35:
 149:.\lib_RTC/RTC_WDT.c **** 
 150:.\lib_RTC/RTC_WDT.c **** /*******************************************************************************
 151:.\lib_RTC/RTC_WDT.c **** * Function Name: RTCgetSecond
 152:.\lib_RTC/RTC_WDT.c **** ****************************************************************************//**
 153:.\lib_RTC/RTC_WDT.c **** *
 154:.\lib_RTC/RTC_WDT.c **** * \brief
 155:.\lib_RTC/RTC_WDT.c **** *  Returns the seconds value 
 156:.\lib_RTC/RTC_WDT.c **** *
 157:.\lib_RTC/RTC_WDT.c **** * \return
 158:.\lib_RTC/RTC_WDT.c **** *  The seconds value.
 159:.\lib_RTC/RTC_WDT.c **** *
 160:.\lib_RTC/RTC_WDT.c **** *******************************************************************************/
 161:.\lib_RTC/RTC_WDT.c **** uint32_t RTCgetSecond(uint64_t readTime)
 162:.\lib_RTC/RTC_WDT.c **** {
 1131              		.loc 2 162 0
 1132              		.cfi_startproc
 1133 0000 F0B5     		push	{r4, r5, r6, r7, lr}
 1134              		.cfi_def_cfa_offset 20
 1135              		.cfi_offset 4, -20
 1136              		.cfi_offset 5, -16
 1137              		.cfi_offset 6, -12
 1138              		.cfi_offset 7, -8
 1139              		.cfi_offset 14, -4
 1140 0002 89B0     		sub	sp, sp, #36
ARM GAS  C:\Users\Petro\AppData\Local\Temp\ccr6rksd.s 			page 34


 1141              		.cfi_def_cfa_offset 56
 1142 0004 00AF     		add	r7, sp, #0
 1143              		.cfi_def_cfa_register 7
 1144 0006 3861     		str	r0, [r7, #16]
 1145 0008 7961     		str	r1, [r7, #20]
 163:.\lib_RTC/RTC_WDT.c ****     uint32 retVal;
 164:.\lib_RTC/RTC_WDT.c **** 
 165:.\lib_RTC/RTC_WDT.c ****     retVal  = ((readTime & RTC_MASK_10_SECONDS) >> RTC_10_SECONDS_SHIFT) * 10u;
 1146              		.loc 2 165 0
 1147 000a 3969     		ldr	r1, [r7, #16]
 1148 000c E022     		mov	r2, #224
 1149 000e D203     		lsl	r2, r2, #15
 1150 0010 1140     		and	r1, r2
 1151 0012 0D1C     		mov	r5, r1
 1152 0014 7A69     		ldr	r2, [r7, #20]
 1153 0016 0021     		mov	r1, #0
 1154 0018 0A40     		and	r2, r1
 1155 001a 161C     		mov	r6, r2
 1156 001c 3203     		lsl	r2, r6, #12
 1157 001e 290D     		lsr	r1, r5, #20
 1158 0020 B960     		str	r1, [r7, #8]
 1159 0022 B968     		ldr	r1, [r7, #8]
 1160 0024 1143     		orr	r1, r2
 1161 0026 B960     		str	r1, [r7, #8]
 1162 0028 320D     		lsr	r2, r6, #20
 1163 002a FA60     		str	r2, [r7, #12]
 1164 002c B968     		ldr	r1, [r7, #8]
 1165 002e 0A1C     		mov	r2, r1
 1166 0030 9200     		lsl	r2, r2, #2
 1167 0032 5218     		add	r2, r2, r1
 1168 0034 5200     		lsl	r2, r2, #1
 1169 0036 FA61     		str	r2, [r7, #28]
 166:.\lib_RTC/RTC_WDT.c ****     retVal += (readTime & RTC_MASK_SECONDS) >> RTC_SECONDS_SHIFT;
 1170              		.loc 2 166 0
 1171 0038 3969     		ldr	r1, [r7, #16]
 1172 003a F022     		mov	r2, #240
 1173 003c 1203     		lsl	r2, r2, #12
 1174 003e 1140     		and	r1, r2
 1175 0040 0B1C     		mov	r3, r1
 1176 0042 7A69     		ldr	r2, [r7, #20]
 1177 0044 0021     		mov	r1, #0
 1178 0046 0A40     		and	r2, r1
 1179 0048 141C     		mov	r4, r2
 1180 004a 2204     		lsl	r2, r4, #16
 1181 004c 190C     		lsr	r1, r3, #16
 1182 004e 3960     		str	r1, [r7]
 1183 0050 3968     		ldr	r1, [r7]
 1184 0052 1143     		orr	r1, r2
 1185 0054 3960     		str	r1, [r7]
 1186 0056 230C     		lsr	r3, r4, #16
 1187 0058 7B60     		str	r3, [r7, #4]
 1188 005a 3A68     		ldr	r2, [r7]
 1189 005c FB69     		ldr	r3, [r7, #28]
 1190 005e 9B18     		add	r3, r3, r2
 1191 0060 FB61     		str	r3, [r7, #28]
 167:.\lib_RTC/RTC_WDT.c **** 
 168:.\lib_RTC/RTC_WDT.c ****     return (int)(retVal);
ARM GAS  C:\Users\Petro\AppData\Local\Temp\ccr6rksd.s 			page 35


 1192              		.loc 2 168 0
 1193 0062 FB69     		ldr	r3, [r7, #28]
 169:.\lib_RTC/RTC_WDT.c **** }
 1194              		.loc 2 169 0
 1195 0064 181C     		mov	r0, r3
 1196 0066 BD46     		mov	sp, r7
 1197 0068 09B0     		add	sp, sp, #36
 1198              		@ sp needed
 1199 006a F0BD     		pop	{r4, r5, r6, r7, pc}
 1200              		.cfi_endproc
 1201              	.LFE35:
 1202              		.size	RTCgetSecond, .-RTCgetSecond
 1203              		.section	.text.RTCgetMiliecond,"ax",%progbits
 1204              		.align	2
 1205              		.global	RTCgetMiliecond
 1206              		.code	16
 1207              		.thumb_func
 1208              		.type	RTCgetMiliecond, %function
 1209              	RTCgetMiliecond:
 1210              	.LFB36:
 170:.\lib_RTC/RTC_WDT.c **** 
 171:.\lib_RTC/RTC_WDT.c **** /*******************************************************************************
 172:.\lib_RTC/RTC_WDT.c **** * Function Name: RTCgetMilisecond
 173:.\lib_RTC/RTC_WDT.c **** ****************************************************************************//**
 174:.\lib_RTC/RTC_WDT.c **** *
 175:.\lib_RTC/RTC_WDT.c **** * \brief
 176:.\lib_RTC/RTC_WDT.c **** *  Returns the miliseconds value 
 177:.\lib_RTC/RTC_WDT.c **** *
 178:.\lib_RTC/RTC_WDT.c **** * \return
 179:.\lib_RTC/RTC_WDT.c **** *  The miliseconds value.
 180:.\lib_RTC/RTC_WDT.c **** *
 181:.\lib_RTC/RTC_WDT.c **** *******************************************************************************/
 182:.\lib_RTC/RTC_WDT.c **** uint32_t RTCgetMiliecond(uint64_t readTime)
 183:.\lib_RTC/RTC_WDT.c **** {
 1211              		.loc 2 183 0
 1212              		.cfi_startproc
 1213 0000 F0B5     		push	{r4, r5, r6, r7, lr}
 1214              		.cfi_def_cfa_offset 20
 1215              		.cfi_offset 4, -20
 1216              		.cfi_offset 5, -16
 1217              		.cfi_offset 6, -12
 1218              		.cfi_offset 7, -8
 1219              		.cfi_offset 14, -4
 1220 0002 89B0     		sub	sp, sp, #36
 1221              		.cfi_def_cfa_offset 56
 1222 0004 00AF     		add	r7, sp, #0
 1223              		.cfi_def_cfa_register 7
 1224 0006 3861     		str	r0, [r7, #16]
 1225 0008 7961     		str	r1, [r7, #20]
 184:.\lib_RTC/RTC_WDT.c ****     uint32 retVal;
 185:.\lib_RTC/RTC_WDT.c **** 
 186:.\lib_RTC/RTC_WDT.c ****     retVal  = ((readTime & RTC_MASK_100_MILISECONDS) >> RTC_100_MILISECONDS_SHIFT) * 100u;
 1226              		.loc 2 186 0
 1227 000a 3969     		ldr	r1, [r7, #16]
 1228 000c F022     		mov	r2, #240
 1229 000e 1202     		lsl	r2, r2, #8
 1230 0010 1140     		and	r1, r2
ARM GAS  C:\Users\Petro\AppData\Local\Temp\ccr6rksd.s 			page 36


 1231 0012 0D1C     		mov	r5, r1
 1232 0014 7A69     		ldr	r2, [r7, #20]
 1233 0016 0021     		mov	r1, #0
 1234 0018 0A40     		and	r2, r1
 1235 001a 161C     		mov	r6, r2
 1236 001c 3205     		lsl	r2, r6, #20
 1237 001e 290B     		lsr	r1, r5, #12
 1238 0020 B960     		str	r1, [r7, #8]
 1239 0022 B968     		ldr	r1, [r7, #8]
 1240 0024 1143     		orr	r1, r2
 1241 0026 B960     		str	r1, [r7, #8]
 1242 0028 320B     		lsr	r2, r6, #12
 1243 002a FA60     		str	r2, [r7, #12]
 1244 002c B968     		ldr	r1, [r7, #8]
 1245 002e 6422     		mov	r2, #100
 1246 0030 4A43     		mul	r2, r1
 1247 0032 FA61     		str	r2, [r7, #28]
 187:.\lib_RTC/RTC_WDT.c ****     retVal  += ((readTime & RTC_MASK_10_MILISECONDS) >> RTC_10_MILISECONDS_SHIFT) * 10u;
 1248              		.loc 2 187 0
 1249 0034 3969     		ldr	r1, [r7, #16]
 1250 0036 F022     		mov	r2, #240
 1251 0038 1201     		lsl	r2, r2, #4
 1252 003a 1140     		and	r1, r2
 1253 003c 0B1C     		mov	r3, r1
 1254 003e 7A69     		ldr	r2, [r7, #20]
 1255 0040 0021     		mov	r1, #0
 1256 0042 0A40     		and	r2, r1
 1257 0044 141C     		mov	r4, r2
 1258 0046 2206     		lsl	r2, r4, #24
 1259 0048 190A     		lsr	r1, r3, #8
 1260 004a 3960     		str	r1, [r7]
 1261 004c 3968     		ldr	r1, [r7]
 1262 004e 1143     		orr	r1, r2
 1263 0050 3960     		str	r1, [r7]
 1264 0052 230A     		lsr	r3, r4, #8
 1265 0054 7B60     		str	r3, [r7, #4]
 1266 0056 3A68     		ldr	r2, [r7]
 1267 0058 131C     		mov	r3, r2
 1268 005a 9B00     		lsl	r3, r3, #2
 1269 005c 9B18     		add	r3, r3, r2
 1270 005e 5B00     		lsl	r3, r3, #1
 1271 0060 1A1C     		mov	r2, r3
 1272 0062 FB69     		ldr	r3, [r7, #28]
 1273 0064 9B18     		add	r3, r3, r2
 1274 0066 FB61     		str	r3, [r7, #28]
 188:.\lib_RTC/RTC_WDT.c ****     retVal += (readTime & RTC_MASK_MILISECONDS) >> RTC_MILISECONDS_SHIFT;
 1275              		.loc 2 188 0
 1276 0068 3B69     		ldr	r3, [r7, #16]
 1277 006a 0F22     		mov	r2, #15
 1278 006c 1340     		and	r3, r2
 1279 006e FA69     		ldr	r2, [r7, #28]
 1280 0070 D318     		add	r3, r2, r3
 1281 0072 FB61     		str	r3, [r7, #28]
 189:.\lib_RTC/RTC_WDT.c **** 
 190:.\lib_RTC/RTC_WDT.c ****     return (int)(retVal);
 1282              		.loc 2 190 0
 1283 0074 FB69     		ldr	r3, [r7, #28]
ARM GAS  C:\Users\Petro\AppData\Local\Temp\ccr6rksd.s 			page 37


 191:.\lib_RTC/RTC_WDT.c **** }
 1284              		.loc 2 191 0
 1285 0076 181C     		mov	r0, r3
 1286 0078 BD46     		mov	sp, r7
 1287 007a 09B0     		add	sp, sp, #36
 1288              		@ sp needed
 1289 007c F0BD     		pop	{r4, r5, r6, r7, pc}
 1290              		.cfi_endproc
 1291              	.LFE36:
 1292              		.size	RTCgetMiliecond, .-RTCgetMiliecond
 1293 007e C046     		.section	.text.RTCgetRecentMs,"ax",%progbits
 1294              		.align	2
 1295              		.global	RTCgetRecentMs
 1296              		.code	16
 1297              		.thumb_func
 1298              		.type	RTCgetRecentMs, %function
 1299              	RTCgetRecentMs:
 1300              	.LFB37:
 192:.\lib_RTC/RTC_WDT.c **** 
 193:.\lib_RTC/RTC_WDT.c **** /*******************************************************************************
 194:.\lib_RTC/RTC_WDT.c **** * Function Name: RTCgetRecentMs
 195:.\lib_RTC/RTC_WDT.c **** ****************************************************************************//**
 196:.\lib_RTC/RTC_WDT.c **** *
 197:.\lib_RTC/RTC_WDT.c **** * \brief
 198:.\lib_RTC/RTC_WDT.c **** *  reads the actual value of the millisecond timer
 199:.\lib_RTC/RTC_WDT.c **** *
 200:.\lib_RTC/RTC_WDT.c **** * \return
 201:.\lib_RTC/RTC_WDT.c **** *  The miliseconds value.
 202:.\lib_RTC/RTC_WDT.c **** *
 203:.\lib_RTC/RTC_WDT.c **** *******************************************************************************/
 204:.\lib_RTC/RTC_WDT.c **** uint32_t RTCgetRecentMs()
 205:.\lib_RTC/RTC_WDT.c **** {
 1301              		.loc 2 205 0
 1302              		.cfi_startproc
 1303 0000 80B5     		push	{r7, lr}
 1304              		.cfi_def_cfa_offset 8
 1305              		.cfi_offset 7, -8
 1306              		.cfi_offset 14, -4
 1307 0002 82B0     		sub	sp, sp, #8
 1308              		.cfi_def_cfa_offset 16
 1309 0004 00AF     		add	r7, sp, #0
 1310              		.cfi_def_cfa_register 7
 206:.\lib_RTC/RTC_WDT.c ****     uint16_t TmsRTC = 0;
 1311              		.loc 2 206 0
 1312 0006 BB1D     		add	r3, r7, #6
 1313 0008 0022     		mov	r2, #0
 1314 000a 1A80     		strh	r2, [r3]
 207:.\lib_RTC/RTC_WDT.c ****     #ifdef USE_WDT_RTC
 208:.\lib_RTC/RTC_WDT.c ****         TmsRTC = msRTC;
 1315              		.loc 2 208 0
 1316 000c BB1D     		add	r3, r7, #6
 1317 000e 044A     		ldr	r2, .L40
 1318 0010 1288     		ldrh	r2, [r2]
 1319 0012 1A80     		strh	r2, [r3]
 209:.\lib_RTC/RTC_WDT.c ****     #endif
 210:.\lib_RTC/RTC_WDT.c ****     return TmsRTC;
 1320              		.loc 2 210 0
ARM GAS  C:\Users\Petro\AppData\Local\Temp\ccr6rksd.s 			page 38


 1321 0014 BB1D     		add	r3, r7, #6
 1322 0016 1B88     		ldrh	r3, [r3]
 211:.\lib_RTC/RTC_WDT.c **** }
 1323              		.loc 2 211 0
 1324 0018 181C     		mov	r0, r3
 1325 001a BD46     		mov	sp, r7
 1326 001c 02B0     		add	sp, sp, #8
 1327              		@ sp needed
 1328 001e 80BD     		pop	{r7, pc}
 1329              	.L41:
 1330              		.align	2
 1331              	.L40:
 1332 0020 00000000 		.word	msRTC
 1333              		.cfi_endproc
 1334              	.LFE37:
 1335              		.size	RTCgetRecentMs, .-RTCgetRecentMs
 1336              		.text
 1337              	.Letext0:
 1338              		.file 3 "c:\\program files (x86)\\cypress\\psoc creator\\3.3\\psoc creator\\import\\gnu\\arm\\4.9.
 1339              		.file 4 "c:\\program files (x86)\\cypress\\psoc creator\\3.3\\psoc creator\\import\\gnu\\arm\\4.9.
 1340              		.file 5 "Generated_Source\\PSoC4/cytypes.h"
 1341              		.section	.debug_info,"",%progbits
 1342              	.Ldebug_info0:
 1343 0000 02040000 		.4byte	0x402
 1344 0004 0400     		.2byte	0x4
 1345 0006 00000000 		.4byte	.Ldebug_abbrev0
 1346 000a 04       		.byte	0x4
 1347 000b 01       		.uleb128 0x1
 1348 000c C5010000 		.4byte	.LASF46
 1349 0010 01       		.byte	0x1
 1350 0011 7A000000 		.4byte	.LASF47
 1351 0015 65010000 		.4byte	.LASF48
 1352 0019 00000000 		.4byte	.Ldebug_ranges0+0
 1353 001d 00000000 		.4byte	0
 1354 0021 00000000 		.4byte	.Ldebug_line0
 1355 0025 02       		.uleb128 0x2
 1356 0026 01       		.byte	0x1
 1357 0027 06       		.byte	0x6
 1358 0028 E2020000 		.4byte	.LASF0
 1359 002c 02       		.uleb128 0x2
 1360 002d 01       		.byte	0x1
 1361 002e 08       		.byte	0x8
 1362 002f AB000000 		.4byte	.LASF1
 1363 0033 02       		.uleb128 0x2
 1364 0034 02       		.byte	0x2
 1365 0035 05       		.byte	0x5
 1366 0036 98020000 		.4byte	.LASF2
 1367 003a 03       		.uleb128 0x3
 1368 003b E6000000 		.4byte	.LASF5
 1369 003f 03       		.byte	0x3
 1370 0040 2B       		.byte	0x2b
 1371 0041 45000000 		.4byte	0x45
 1372 0045 02       		.uleb128 0x2
 1373 0046 02       		.byte	0x2
 1374 0047 07       		.byte	0x7
 1375 0048 4C000000 		.4byte	.LASF3
 1376 004c 02       		.uleb128 0x2
ARM GAS  C:\Users\Petro\AppData\Local\Temp\ccr6rksd.s 			page 39


 1377 004d 04       		.byte	0x4
 1378 004e 05       		.byte	0x5
 1379 004f C9020000 		.4byte	.LASF4
 1380 0053 03       		.uleb128 0x3
 1381 0054 08010000 		.4byte	.LASF6
 1382 0058 03       		.byte	0x3
 1383 0059 41       		.byte	0x41
 1384 005a 5E000000 		.4byte	0x5e
 1385 005e 02       		.uleb128 0x2
 1386 005f 04       		.byte	0x4
 1387 0060 07       		.byte	0x7
 1388 0061 C7000000 		.4byte	.LASF7
 1389 0065 02       		.uleb128 0x2
 1390 0066 08       		.byte	0x8
 1391 0067 05       		.byte	0x5
 1392 0068 74020000 		.4byte	.LASF8
 1393 006c 03       		.uleb128 0x3
 1394 006d D7020000 		.4byte	.LASF9
 1395 0071 03       		.byte	0x3
 1396 0072 5B       		.byte	0x5b
 1397 0073 77000000 		.4byte	0x77
 1398 0077 02       		.uleb128 0x2
 1399 0078 08       		.byte	0x8
 1400 0079 07       		.byte	0x7
 1401 007a 4E010000 		.4byte	.LASF10
 1402 007e 04       		.uleb128 0x4
 1403 007f 04       		.byte	0x4
 1404 0080 05       		.byte	0x5
 1405 0081 696E7400 		.ascii	"int\000"
 1406 0085 02       		.uleb128 0x2
 1407 0086 04       		.byte	0x4
 1408 0087 07       		.byte	0x7
 1409 0088 33010000 		.4byte	.LASF11
 1410 008c 03       		.uleb128 0x3
 1411 008d AD020000 		.4byte	.LASF12
 1412 0091 04       		.byte	0x4
 1413 0092 21       		.byte	0x21
 1414 0093 3A000000 		.4byte	0x3a
 1415 0097 03       		.uleb128 0x3
 1416 0098 C0020000 		.4byte	.LASF13
 1417 009c 04       		.byte	0x4
 1418 009d 2D       		.byte	0x2d
 1419 009e 53000000 		.4byte	0x53
 1420 00a2 03       		.uleb128 0x3
 1421 00a3 71000000 		.4byte	.LASF14
 1422 00a7 04       		.byte	0x4
 1423 00a8 39       		.byte	0x39
 1424 00a9 6C000000 		.4byte	0x6c
 1425 00ad 05       		.uleb128 0x5
 1426 00ae 1F010000 		.4byte	.LASF15
 1427 00b2 05       		.byte	0x5
 1428 00b3 9A01     		.2byte	0x19a
 1429 00b5 5E000000 		.4byte	0x5e
 1430 00b9 02       		.uleb128 0x2
 1431 00ba 04       		.byte	0x4
 1432 00bb 04       		.byte	0x4
 1433 00bc 95000000 		.4byte	.LASF16
ARM GAS  C:\Users\Petro\AppData\Local\Temp\ccr6rksd.s 			page 40


 1434 00c0 02       		.uleb128 0x2
 1435 00c1 08       		.byte	0x8
 1436 00c2 04       		.byte	0x4
 1437 00c3 F1000000 		.4byte	.LASF17
 1438 00c7 05       		.uleb128 0x5
 1439 00c8 91020000 		.4byte	.LASF18
 1440 00cc 05       		.byte	0x5
 1441 00cd A401     		.2byte	0x1a4
 1442 00cf 77000000 		.4byte	0x77
 1443 00d3 02       		.uleb128 0x2
 1444 00d4 01       		.byte	0x1
 1445 00d5 08       		.byte	0x8
 1446 00d6 D2020000 		.4byte	.LASF19
 1447 00da 06       		.uleb128 0x6
 1448 00db 04       		.byte	0x4
 1449 00dc E0000000 		.4byte	0xe0
 1450 00e0 07       		.uleb128 0x7
 1451 00e1 02       		.uleb128 0x2
 1452 00e2 04       		.byte	0x4
 1453 00e3 07       		.byte	0x7
 1454 00e4 6B020000 		.4byte	.LASF20
 1455 00e8 08       		.uleb128 0x8
 1456 00e9 0E030000 		.4byte	.LASF22
 1457 00ed 01       		.byte	0x1
 1458 00ee BA01     		.2byte	0x1ba
 1459 00f0 AD000000 		.4byte	0xad
 1460 00f4 00000000 		.4byte	.LFB2
 1461 00f8 24000000 		.4byte	.LFE2-.LFB2
 1462 00fc 01       		.uleb128 0x1
 1463 00fd 9C       		.byte	0x9c
 1464 00fe 21010000 		.4byte	0x121
 1465 0102 09       		.uleb128 0x9
 1466 0103 76617200 		.ascii	"var\000"
 1467 0107 01       		.byte	0x1
 1468 0108 BA01     		.2byte	0x1ba
 1469 010a AD000000 		.4byte	0xad
 1470 010e 02       		.uleb128 0x2
 1471 010f 91       		.byte	0x91
 1472 0110 74       		.sleb128 -12
 1473 0111 0A       		.uleb128 0xa
 1474 0112 3D000000 		.4byte	.LASF21
 1475 0116 01       		.byte	0x1
 1476 0117 BA01     		.2byte	0x1ba
 1477 0119 AD000000 		.4byte	0xad
 1478 011d 02       		.uleb128 0x2
 1479 011e 91       		.byte	0x91
 1480 011f 70       		.sleb128 -16
 1481 0120 00       		.byte	0
 1482 0121 08       		.uleb128 0x8
 1483 0122 B9000000 		.4byte	.LASF23
 1484 0126 01       		.byte	0x1
 1485 0127 F101     		.2byte	0x1f1
 1486 0129 AD000000 		.4byte	0xad
 1487 012d 00000000 		.4byte	.LFB4
 1488 0131 30000000 		.4byte	.LFE4-.LFB4
 1489 0135 01       		.uleb128 0x1
 1490 0136 9C       		.byte	0x9c
ARM GAS  C:\Users\Petro\AppData\Local\Temp\ccr6rksd.s 			page 41


 1491 0137 5A010000 		.4byte	0x15a
 1492 013b 0A       		.uleb128 0xa
 1493 013c F7020000 		.4byte	.LASF24
 1494 0140 01       		.byte	0x1
 1495 0141 F101     		.2byte	0x1f1
 1496 0143 AD000000 		.4byte	0xad
 1497 0147 02       		.uleb128 0x2
 1498 0148 91       		.byte	0x91
 1499 0149 6C       		.sleb128 -20
 1500 014a 0B       		.uleb128 0xb
 1501 014b 8E000000 		.4byte	.LASF26
 1502 014f 01       		.byte	0x1
 1503 0150 F301     		.2byte	0x1f3
 1504 0152 AD000000 		.4byte	0xad
 1505 0156 02       		.uleb128 0x2
 1506 0157 91       		.byte	0x91
 1507 0158 74       		.sleb128 -12
 1508 0159 00       		.byte	0
 1509 015a 08       		.uleb128 0x8
 1510 015b 82020000 		.4byte	.LASF25
 1511 015f 01       		.byte	0x1
 1512 0160 0B02     		.2byte	0x20b
 1513 0162 AD000000 		.4byte	0xad
 1514 0166 00000000 		.4byte	.LFB5
 1515 016a 36000000 		.4byte	.LFE5-.LFB5
 1516 016e 01       		.uleb128 0x1
 1517 016f 9C       		.byte	0x9c
 1518 0170 93010000 		.4byte	0x193
 1519 0174 0A       		.uleb128 0xa
 1520 0175 F7020000 		.4byte	.LASF24
 1521 0179 01       		.byte	0x1
 1522 017a 0B02     		.2byte	0x20b
 1523 017c AD000000 		.4byte	0xad
 1524 0180 02       		.uleb128 0x2
 1525 0181 91       		.byte	0x91
 1526 0182 6C       		.sleb128 -20
 1527 0183 0B       		.uleb128 0xb
 1528 0184 8E000000 		.4byte	.LASF26
 1529 0188 01       		.byte	0x1
 1530 0189 0D02     		.2byte	0x20d
 1531 018b AD000000 		.4byte	0xad
 1532 018f 02       		.uleb128 0x2
 1533 0190 91       		.byte	0x91
 1534 0191 74       		.sleb128 -12
 1535 0192 00       		.byte	0
 1536 0193 08       		.uleb128 0x8
 1537 0194 01030000 		.4byte	.LASF27
 1538 0198 01       		.byte	0x1
 1539 0199 2402     		.2byte	0x224
 1540 019b AD000000 		.4byte	0xad
 1541 019f 00000000 		.4byte	.LFB6
 1542 01a3 36000000 		.4byte	.LFE6-.LFB6
 1543 01a7 01       		.uleb128 0x1
 1544 01a8 9C       		.byte	0x9c
 1545 01a9 CC010000 		.4byte	0x1cc
 1546 01ad 0A       		.uleb128 0xa
 1547 01ae F7020000 		.4byte	.LASF24
ARM GAS  C:\Users\Petro\AppData\Local\Temp\ccr6rksd.s 			page 42


 1548 01b2 01       		.byte	0x1
 1549 01b3 2402     		.2byte	0x224
 1550 01b5 AD000000 		.4byte	0xad
 1551 01b9 02       		.uleb128 0x2
 1552 01ba 91       		.byte	0x91
 1553 01bb 6C       		.sleb128 -20
 1554 01bc 0B       		.uleb128 0xb
 1555 01bd 8E000000 		.4byte	.LASF26
 1556 01c1 01       		.byte	0x1
 1557 01c2 2602     		.2byte	0x226
 1558 01c4 AD000000 		.4byte	0xad
 1559 01c8 02       		.uleb128 0x2
 1560 01c9 91       		.byte	0x91
 1561 01ca 74       		.sleb128 -12
 1562 01cb 00       		.byte	0
 1563 01cc 0C       		.uleb128 0xc
 1564 01cd 13010000 		.4byte	.LASF28
 1565 01d1 01       		.byte	0x1
 1566 01d2 3F02     		.2byte	0x23f
 1567 01d4 AD000000 		.4byte	0xad
 1568 01d8 00000000 		.4byte	.LFB7
 1569 01dc 20000000 		.4byte	.LFE7-.LFB7
 1570 01e0 01       		.uleb128 0x1
 1571 01e1 9C       		.byte	0x9c
 1572 01e2 F6010000 		.4byte	0x1f6
 1573 01e6 0A       		.uleb128 0xa
 1574 01e7 F7020000 		.4byte	.LASF24
 1575 01eb 01       		.byte	0x1
 1576 01ec 3F02     		.2byte	0x23f
 1577 01ee AD000000 		.4byte	0xad
 1578 01f2 02       		.uleb128 0x2
 1579 01f3 91       		.byte	0x91
 1580 01f4 74       		.sleb128 -12
 1581 01f5 00       		.byte	0
 1582 01f6 0D       		.uleb128 0xd
 1583 01f7 F8000000 		.4byte	.LASF49
 1584 01fb 02       		.byte	0x2
 1585 01fc 18       		.byte	0x18
 1586 01fd 00000000 		.4byte	.LFB28
 1587 0201 30000000 		.4byte	.LFE28-.LFB28
 1588 0205 01       		.uleb128 0x1
 1589 0206 9C       		.byte	0x9c
 1590 0207 0E       		.uleb128 0xe
 1591 0208 D9000000 		.4byte	.LASF50
 1592 020c 02       		.byte	0x2
 1593 020d 26       		.byte	0x26
 1594 020e 00000000 		.4byte	.LFB29
 1595 0212 24000000 		.4byte	.LFE29-.LFB29
 1596 0216 01       		.uleb128 0x1
 1597 0217 9C       		.byte	0x9c
 1598 0218 2B020000 		.4byte	0x22b
 1599 021c 0F       		.uleb128 0xf
 1600 021d 16000000 		.4byte	.LASF29
 1601 0221 02       		.byte	0x2
 1602 0222 27       		.byte	0x27
 1603 0223 DA000000 		.4byte	0xda
 1604 0227 02       		.uleb128 0x2
ARM GAS  C:\Users\Petro\AppData\Local\Temp\ccr6rksd.s 			page 43


 1605 0228 91       		.byte	0x91
 1606 0229 74       		.sleb128 -12
 1607 022a 00       		.byte	0
 1608 022b 10       		.uleb128 0x10
 1609 022c 42000000 		.4byte	.LASF34
 1610 0230 02       		.byte	0x2
 1611 0231 33       		.byte	0x33
 1612 0232 97000000 		.4byte	0x97
 1613 0236 00000000 		.4byte	.LFB30
 1614 023a 14000000 		.4byte	.LFE30-.LFB30
 1615 023e 01       		.uleb128 0x1
 1616 023f 9C       		.byte	0x9c
 1617 0240 11       		.uleb128 0x11
 1618 0241 A2020000 		.4byte	.LASF36
 1619 0245 02       		.byte	0x2
 1620 0246 44       		.byte	0x44
 1621 0247 A2000000 		.4byte	0xa2
 1622 024b 00000000 		.4byte	.LFB31
 1623 024f F8030000 		.4byte	.LFE31-.LFB31
 1624 0253 01       		.uleb128 0x1
 1625 0254 9C       		.byte	0x9c
 1626 0255 BD020000 		.4byte	0x2bd
 1627 0259 12       		.uleb128 0x12
 1628 025a 23000000 		.4byte	.LASF30
 1629 025e 02       		.byte	0x2
 1630 025f 44       		.byte	0x44
 1631 0260 A2000000 		.4byte	0xa2
 1632 0264 03       		.uleb128 0x3
 1633 0265 91       		.byte	0x91
 1634 0266 B07F     		.sleb128 -80
 1635 0268 0F       		.uleb128 0xf
 1636 0269 EE020000 		.4byte	.LASF31
 1637 026d 02       		.byte	0x2
 1638 026e 46       		.byte	0x46
 1639 026f 97000000 		.4byte	0x97
 1640 0273 02       		.uleb128 0x2
 1641 0274 91       		.byte	0x91
 1642 0275 64       		.sleb128 -28
 1643 0276 0F       		.uleb128 0xf
 1644 0277 53020000 		.4byte	.LASF32
 1645 027b 02       		.byte	0x2
 1646 027c 47       		.byte	0x47
 1647 027d A2000000 		.4byte	0xa2
 1648 0281 02       		.uleb128 0x2
 1649 0282 91       		.byte	0x91
 1650 0283 58       		.sleb128 -40
 1651 0284 13       		.uleb128 0x13
 1652 0285 6D696E00 		.ascii	"min\000"
 1653 0289 02       		.byte	0x2
 1654 028a 47       		.byte	0x47
 1655 028b A2000000 		.4byte	0xa2
 1656 028f 02       		.uleb128 0x2
 1657 0290 91       		.byte	0x91
 1658 0291 50       		.sleb128 -48
 1659 0292 13       		.uleb128 0x13
 1660 0293 73656300 		.ascii	"sec\000"
 1661 0297 02       		.byte	0x2
ARM GAS  C:\Users\Petro\AppData\Local\Temp\ccr6rksd.s 			page 44


 1662 0298 47       		.byte	0x47
 1663 0299 A2000000 		.4byte	0xa2
 1664 029d 02       		.uleb128 0x2
 1665 029e 91       		.byte	0x91
 1666 029f 48       		.sleb128 -56
 1667 02a0 13       		.uleb128 0x13
 1668 02a1 6D7300   		.ascii	"ms\000"
 1669 02a4 02       		.byte	0x2
 1670 02a5 47       		.byte	0x47
 1671 02a6 A2000000 		.4byte	0xa2
 1672 02aa 02       		.uleb128 0x2
 1673 02ab 91       		.byte	0x91
 1674 02ac 40       		.sleb128 -64
 1675 02ad 0F       		.uleb128 0xf
 1676 02ae B6020000 		.4byte	.LASF33
 1677 02b2 02       		.byte	0x2
 1678 02b3 47       		.byte	0x47
 1679 02b4 A2000000 		.4byte	0xa2
 1680 02b8 03       		.uleb128 0x3
 1681 02b9 91       		.byte	0x91
 1682 02ba B87F     		.sleb128 -72
 1683 02bc 00       		.byte	0
 1684 02bd 14       		.uleb128 0x14
 1685 02be 00000000 		.4byte	.LASF35
 1686 02c2 02       		.byte	0x2
 1687 02c3 71       		.byte	0x71
 1688 02c4 A2000000 		.4byte	0xa2
 1689 02c8 00000000 		.4byte	.LFB32
 1690 02cc 14000000 		.4byte	.LFE32-.LFB32
 1691 02d0 01       		.uleb128 0x1
 1692 02d1 9C       		.byte	0x9c
 1693 02d2 15       		.uleb128 0x15
 1694 02d3 65000000 		.4byte	.LASF37
 1695 02d7 02       		.byte	0x2
 1696 02d8 77       		.byte	0x77
 1697 02d9 97000000 		.4byte	0x97
 1698 02dd 00000000 		.4byte	.LFB33
 1699 02e1 76000000 		.4byte	.LFE33-.LFB33
 1700 02e5 01       		.uleb128 0x1
 1701 02e6 9C       		.byte	0x9c
 1702 02e7 08030000 		.4byte	0x308
 1703 02eb 12       		.uleb128 0x12
 1704 02ec EE020000 		.4byte	.LASF31
 1705 02f0 02       		.byte	0x2
 1706 02f1 77       		.byte	0x77
 1707 02f2 A2000000 		.4byte	0xa2
 1708 02f6 02       		.uleb128 0x2
 1709 02f7 91       		.byte	0x91
 1710 02f8 58       		.sleb128 -40
 1711 02f9 0F       		.uleb128 0xf
 1712 02fa 8E000000 		.4byte	.LASF26
 1713 02fe 02       		.byte	0x2
 1714 02ff 79       		.byte	0x79
 1715 0300 A2000000 		.4byte	0xa2
 1716 0304 02       		.uleb128 0x2
 1717 0305 91       		.byte	0x91
 1718 0306 60       		.sleb128 -32
ARM GAS  C:\Users\Petro\AppData\Local\Temp\ccr6rksd.s 			page 45


 1719 0307 00       		.byte	0
 1720 0308 15       		.uleb128 0x15
 1721 0309 40010000 		.4byte	.LASF38
 1722 030d 02       		.byte	0x2
 1723 030e 8C       		.byte	0x8c
 1724 030f 97000000 		.4byte	0x97
 1725 0313 00000000 		.4byte	.LFB34
 1726 0317 8E000000 		.4byte	.LFE34-.LFB34
 1727 031b 01       		.uleb128 0x1
 1728 031c 9C       		.byte	0x9c
 1729 031d 3E030000 		.4byte	0x33e
 1730 0321 12       		.uleb128 0x12
 1731 0322 EE020000 		.4byte	.LASF31
 1732 0326 02       		.byte	0x2
 1733 0327 8C       		.byte	0x8c
 1734 0328 A2000000 		.4byte	0xa2
 1735 032c 02       		.uleb128 0x2
 1736 032d 91       		.byte	0x91
 1737 032e 58       		.sleb128 -40
 1738 032f 0F       		.uleb128 0xf
 1739 0330 8E000000 		.4byte	.LASF26
 1740 0334 02       		.byte	0x2
 1741 0335 8E       		.byte	0x8e
 1742 0336 C7000000 		.4byte	0xc7
 1743 033a 02       		.uleb128 0x2
 1744 033b 91       		.byte	0x91
 1745 033c 60       		.sleb128 -32
 1746 033d 00       		.byte	0
 1747 033e 15       		.uleb128 0x15
 1748 033f 26010000 		.4byte	.LASF39
 1749 0343 02       		.byte	0x2
 1750 0344 A1       		.byte	0xa1
 1751 0345 97000000 		.4byte	0x97
 1752 0349 00000000 		.4byte	.LFB35
 1753 034d 6C000000 		.4byte	.LFE35-.LFB35
 1754 0351 01       		.uleb128 0x1
 1755 0352 9C       		.byte	0x9c
 1756 0353 74030000 		.4byte	0x374
 1757 0357 12       		.uleb128 0x12
 1758 0358 EE020000 		.4byte	.LASF31
 1759 035c 02       		.byte	0x2
 1760 035d A1       		.byte	0xa1
 1761 035e A2000000 		.4byte	0xa2
 1762 0362 02       		.uleb128 0x2
 1763 0363 91       		.byte	0x91
 1764 0364 58       		.sleb128 -40
 1765 0365 0F       		.uleb128 0xf
 1766 0366 8E000000 		.4byte	.LASF26
 1767 036a 02       		.byte	0x2
 1768 036b A3       		.byte	0xa3
 1769 036c AD000000 		.4byte	0xad
 1770 0370 02       		.uleb128 0x2
 1771 0371 91       		.byte	0x91
 1772 0372 64       		.sleb128 -28
 1773 0373 00       		.byte	0
 1774 0374 15       		.uleb128 0x15
 1775 0375 9B000000 		.4byte	.LASF40
ARM GAS  C:\Users\Petro\AppData\Local\Temp\ccr6rksd.s 			page 46


 1776 0379 02       		.byte	0x2
 1777 037a B6       		.byte	0xb6
 1778 037b 97000000 		.4byte	0x97
 1779 037f 00000000 		.4byte	.LFB36
 1780 0383 7E000000 		.4byte	.LFE36-.LFB36
 1781 0387 01       		.uleb128 0x1
 1782 0388 9C       		.byte	0x9c
 1783 0389 AA030000 		.4byte	0x3aa
 1784 038d 12       		.uleb128 0x12
 1785 038e EE020000 		.4byte	.LASF31
 1786 0392 02       		.byte	0x2
 1787 0393 B6       		.byte	0xb6
 1788 0394 A2000000 		.4byte	0xa2
 1789 0398 02       		.uleb128 0x2
 1790 0399 91       		.byte	0x91
 1791 039a 58       		.sleb128 -40
 1792 039b 0F       		.uleb128 0xf
 1793 039c 8E000000 		.4byte	.LASF26
 1794 03a0 02       		.byte	0x2
 1795 03a1 B8       		.byte	0xb8
 1796 03a2 AD000000 		.4byte	0xad
 1797 03a6 02       		.uleb128 0x2
 1798 03a7 91       		.byte	0x91
 1799 03a8 64       		.sleb128 -28
 1800 03a9 00       		.byte	0
 1801 03aa 15       		.uleb128 0x15
 1802 03ab 2E000000 		.4byte	.LASF41
 1803 03af 02       		.byte	0x2
 1804 03b0 CC       		.byte	0xcc
 1805 03b1 97000000 		.4byte	0x97
 1806 03b5 00000000 		.4byte	.LFB37
 1807 03b9 24000000 		.4byte	.LFE37-.LFB37
 1808 03bd 01       		.uleb128 0x1
 1809 03be 9C       		.byte	0x9c
 1810 03bf D2030000 		.4byte	0x3d2
 1811 03c3 0F       		.uleb128 0xf
 1812 03c4 0F000000 		.4byte	.LASF42
 1813 03c8 02       		.byte	0x2
 1814 03c9 CE       		.byte	0xce
 1815 03ca 8C000000 		.4byte	0x8c
 1816 03ce 02       		.uleb128 0x2
 1817 03cf 91       		.byte	0x91
 1818 03d0 76       		.sleb128 -10
 1819 03d1 00       		.byte	0
 1820 03d2 0F       		.uleb128 0xf
 1821 03d3 58020000 		.4byte	.LASF43
 1822 03d7 02       		.byte	0x2
 1823 03d8 10       		.byte	0x10
 1824 03d9 A2000000 		.4byte	0xa2
 1825 03dd 05       		.uleb128 0x5
 1826 03de 03       		.byte	0x3
 1827 03df 00000000 		.4byte	time
 1828 03e3 16       		.uleb128 0x16
 1829 03e4 5F000000 		.4byte	.LASF44
 1830 03e8 02       		.byte	0x2
 1831 03e9 16       		.byte	0x16
 1832 03ea 8C000000 		.4byte	0x8c
ARM GAS  C:\Users\Petro\AppData\Local\Temp\ccr6rksd.s 			page 47


 1833 03ee 05       		.uleb128 0x5
 1834 03ef 03       		.byte	0x3
 1835 03f0 00000000 		.4byte	msRTC
 1836 03f4 16       		.uleb128 0x16
 1837 03f5 5D020000 		.4byte	.LASF45
 1838 03f9 02       		.byte	0x2
 1839 03fa 12       		.byte	0x12
 1840 03fb 97000000 		.4byte	0x97
 1841 03ff 05       		.uleb128 0x5
 1842 0400 03       		.byte	0x3
 1843 0401 00000000 		.4byte	RTCSyncWithDS
 1844 0405 00       		.byte	0
 1845              		.section	.debug_abbrev,"",%progbits
 1846              	.Ldebug_abbrev0:
 1847 0000 01       		.uleb128 0x1
 1848 0001 11       		.uleb128 0x11
 1849 0002 01       		.byte	0x1
 1850 0003 25       		.uleb128 0x25
 1851 0004 0E       		.uleb128 0xe
 1852 0005 13       		.uleb128 0x13
 1853 0006 0B       		.uleb128 0xb
 1854 0007 03       		.uleb128 0x3
 1855 0008 0E       		.uleb128 0xe
 1856 0009 1B       		.uleb128 0x1b
 1857 000a 0E       		.uleb128 0xe
 1858 000b 55       		.uleb128 0x55
 1859 000c 17       		.uleb128 0x17
 1860 000d 11       		.uleb128 0x11
 1861 000e 01       		.uleb128 0x1
 1862 000f 10       		.uleb128 0x10
 1863 0010 17       		.uleb128 0x17
 1864 0011 00       		.byte	0
 1865 0012 00       		.byte	0
 1866 0013 02       		.uleb128 0x2
 1867 0014 24       		.uleb128 0x24
 1868 0015 00       		.byte	0
 1869 0016 0B       		.uleb128 0xb
 1870 0017 0B       		.uleb128 0xb
 1871 0018 3E       		.uleb128 0x3e
 1872 0019 0B       		.uleb128 0xb
 1873 001a 03       		.uleb128 0x3
 1874 001b 0E       		.uleb128 0xe
 1875 001c 00       		.byte	0
 1876 001d 00       		.byte	0
 1877 001e 03       		.uleb128 0x3
 1878 001f 16       		.uleb128 0x16
 1879 0020 00       		.byte	0
 1880 0021 03       		.uleb128 0x3
 1881 0022 0E       		.uleb128 0xe
 1882 0023 3A       		.uleb128 0x3a
 1883 0024 0B       		.uleb128 0xb
 1884 0025 3B       		.uleb128 0x3b
 1885 0026 0B       		.uleb128 0xb
 1886 0027 49       		.uleb128 0x49
 1887 0028 13       		.uleb128 0x13
 1888 0029 00       		.byte	0
 1889 002a 00       		.byte	0
ARM GAS  C:\Users\Petro\AppData\Local\Temp\ccr6rksd.s 			page 48


 1890 002b 04       		.uleb128 0x4
 1891 002c 24       		.uleb128 0x24
 1892 002d 00       		.byte	0
 1893 002e 0B       		.uleb128 0xb
 1894 002f 0B       		.uleb128 0xb
 1895 0030 3E       		.uleb128 0x3e
 1896 0031 0B       		.uleb128 0xb
 1897 0032 03       		.uleb128 0x3
 1898 0033 08       		.uleb128 0x8
 1899 0034 00       		.byte	0
 1900 0035 00       		.byte	0
 1901 0036 05       		.uleb128 0x5
 1902 0037 16       		.uleb128 0x16
 1903 0038 00       		.byte	0
 1904 0039 03       		.uleb128 0x3
 1905 003a 0E       		.uleb128 0xe
 1906 003b 3A       		.uleb128 0x3a
 1907 003c 0B       		.uleb128 0xb
 1908 003d 3B       		.uleb128 0x3b
 1909 003e 05       		.uleb128 0x5
 1910 003f 49       		.uleb128 0x49
 1911 0040 13       		.uleb128 0x13
 1912 0041 00       		.byte	0
 1913 0042 00       		.byte	0
 1914 0043 06       		.uleb128 0x6
 1915 0044 0F       		.uleb128 0xf
 1916 0045 00       		.byte	0
 1917 0046 0B       		.uleb128 0xb
 1918 0047 0B       		.uleb128 0xb
 1919 0048 49       		.uleb128 0x49
 1920 0049 13       		.uleb128 0x13
 1921 004a 00       		.byte	0
 1922 004b 00       		.byte	0
 1923 004c 07       		.uleb128 0x7
 1924 004d 15       		.uleb128 0x15
 1925 004e 00       		.byte	0
 1926 004f 27       		.uleb128 0x27
 1927 0050 19       		.uleb128 0x19
 1928 0051 00       		.byte	0
 1929 0052 00       		.byte	0
 1930 0053 08       		.uleb128 0x8
 1931 0054 2E       		.uleb128 0x2e
 1932 0055 01       		.byte	0x1
 1933 0056 03       		.uleb128 0x3
 1934 0057 0E       		.uleb128 0xe
 1935 0058 3A       		.uleb128 0x3a
 1936 0059 0B       		.uleb128 0xb
 1937 005a 3B       		.uleb128 0x3b
 1938 005b 05       		.uleb128 0x5
 1939 005c 27       		.uleb128 0x27
 1940 005d 19       		.uleb128 0x19
 1941 005e 49       		.uleb128 0x49
 1942 005f 13       		.uleb128 0x13
 1943 0060 11       		.uleb128 0x11
 1944 0061 01       		.uleb128 0x1
 1945 0062 12       		.uleb128 0x12
 1946 0063 06       		.uleb128 0x6
ARM GAS  C:\Users\Petro\AppData\Local\Temp\ccr6rksd.s 			page 49


 1947 0064 40       		.uleb128 0x40
 1948 0065 18       		.uleb128 0x18
 1949 0066 9742     		.uleb128 0x2117
 1950 0068 19       		.uleb128 0x19
 1951 0069 01       		.uleb128 0x1
 1952 006a 13       		.uleb128 0x13
 1953 006b 00       		.byte	0
 1954 006c 00       		.byte	0
 1955 006d 09       		.uleb128 0x9
 1956 006e 05       		.uleb128 0x5
 1957 006f 00       		.byte	0
 1958 0070 03       		.uleb128 0x3
 1959 0071 08       		.uleb128 0x8
 1960 0072 3A       		.uleb128 0x3a
 1961 0073 0B       		.uleb128 0xb
 1962 0074 3B       		.uleb128 0x3b
 1963 0075 05       		.uleb128 0x5
 1964 0076 49       		.uleb128 0x49
 1965 0077 13       		.uleb128 0x13
 1966 0078 02       		.uleb128 0x2
 1967 0079 18       		.uleb128 0x18
 1968 007a 00       		.byte	0
 1969 007b 00       		.byte	0
 1970 007c 0A       		.uleb128 0xa
 1971 007d 05       		.uleb128 0x5
 1972 007e 00       		.byte	0
 1973 007f 03       		.uleb128 0x3
 1974 0080 0E       		.uleb128 0xe
 1975 0081 3A       		.uleb128 0x3a
 1976 0082 0B       		.uleb128 0xb
 1977 0083 3B       		.uleb128 0x3b
 1978 0084 05       		.uleb128 0x5
 1979 0085 49       		.uleb128 0x49
 1980 0086 13       		.uleb128 0x13
 1981 0087 02       		.uleb128 0x2
 1982 0088 18       		.uleb128 0x18
 1983 0089 00       		.byte	0
 1984 008a 00       		.byte	0
 1985 008b 0B       		.uleb128 0xb
 1986 008c 34       		.uleb128 0x34
 1987 008d 00       		.byte	0
 1988 008e 03       		.uleb128 0x3
 1989 008f 0E       		.uleb128 0xe
 1990 0090 3A       		.uleb128 0x3a
 1991 0091 0B       		.uleb128 0xb
 1992 0092 3B       		.uleb128 0x3b
 1993 0093 05       		.uleb128 0x5
 1994 0094 49       		.uleb128 0x49
 1995 0095 13       		.uleb128 0x13
 1996 0096 02       		.uleb128 0x2
 1997 0097 18       		.uleb128 0x18
 1998 0098 00       		.byte	0
 1999 0099 00       		.byte	0
 2000 009a 0C       		.uleb128 0xc
 2001 009b 2E       		.uleb128 0x2e
 2002 009c 01       		.byte	0x1
 2003 009d 03       		.uleb128 0x3
ARM GAS  C:\Users\Petro\AppData\Local\Temp\ccr6rksd.s 			page 50


 2004 009e 0E       		.uleb128 0xe
 2005 009f 3A       		.uleb128 0x3a
 2006 00a0 0B       		.uleb128 0xb
 2007 00a1 3B       		.uleb128 0x3b
 2008 00a2 05       		.uleb128 0x5
 2009 00a3 27       		.uleb128 0x27
 2010 00a4 19       		.uleb128 0x19
 2011 00a5 49       		.uleb128 0x49
 2012 00a6 13       		.uleb128 0x13
 2013 00a7 11       		.uleb128 0x11
 2014 00a8 01       		.uleb128 0x1
 2015 00a9 12       		.uleb128 0x12
 2016 00aa 06       		.uleb128 0x6
 2017 00ab 40       		.uleb128 0x40
 2018 00ac 18       		.uleb128 0x18
 2019 00ad 9642     		.uleb128 0x2116
 2020 00af 19       		.uleb128 0x19
 2021 00b0 01       		.uleb128 0x1
 2022 00b1 13       		.uleb128 0x13
 2023 00b2 00       		.byte	0
 2024 00b3 00       		.byte	0
 2025 00b4 0D       		.uleb128 0xd
 2026 00b5 2E       		.uleb128 0x2e
 2027 00b6 00       		.byte	0
 2028 00b7 3F       		.uleb128 0x3f
 2029 00b8 19       		.uleb128 0x19
 2030 00b9 03       		.uleb128 0x3
 2031 00ba 0E       		.uleb128 0xe
 2032 00bb 3A       		.uleb128 0x3a
 2033 00bc 0B       		.uleb128 0xb
 2034 00bd 3B       		.uleb128 0x3b
 2035 00be 0B       		.uleb128 0xb
 2036 00bf 11       		.uleb128 0x11
 2037 00c0 01       		.uleb128 0x1
 2038 00c1 12       		.uleb128 0x12
 2039 00c2 06       		.uleb128 0x6
 2040 00c3 40       		.uleb128 0x40
 2041 00c4 18       		.uleb128 0x18
 2042 00c5 9642     		.uleb128 0x2116
 2043 00c7 19       		.uleb128 0x19
 2044 00c8 00       		.byte	0
 2045 00c9 00       		.byte	0
 2046 00ca 0E       		.uleb128 0xe
 2047 00cb 2E       		.uleb128 0x2e
 2048 00cc 01       		.byte	0x1
 2049 00cd 3F       		.uleb128 0x3f
 2050 00ce 19       		.uleb128 0x19
 2051 00cf 03       		.uleb128 0x3
 2052 00d0 0E       		.uleb128 0xe
 2053 00d1 3A       		.uleb128 0x3a
 2054 00d2 0B       		.uleb128 0xb
 2055 00d3 3B       		.uleb128 0x3b
 2056 00d4 0B       		.uleb128 0xb
 2057 00d5 11       		.uleb128 0x11
 2058 00d6 01       		.uleb128 0x1
 2059 00d7 12       		.uleb128 0x12
 2060 00d8 06       		.uleb128 0x6
ARM GAS  C:\Users\Petro\AppData\Local\Temp\ccr6rksd.s 			page 51


 2061 00d9 40       		.uleb128 0x40
 2062 00da 18       		.uleb128 0x18
 2063 00db 9642     		.uleb128 0x2116
 2064 00dd 19       		.uleb128 0x19
 2065 00de 01       		.uleb128 0x1
 2066 00df 13       		.uleb128 0x13
 2067 00e0 00       		.byte	0
 2068 00e1 00       		.byte	0
 2069 00e2 0F       		.uleb128 0xf
 2070 00e3 34       		.uleb128 0x34
 2071 00e4 00       		.byte	0
 2072 00e5 03       		.uleb128 0x3
 2073 00e6 0E       		.uleb128 0xe
 2074 00e7 3A       		.uleb128 0x3a
 2075 00e8 0B       		.uleb128 0xb
 2076 00e9 3B       		.uleb128 0x3b
 2077 00ea 0B       		.uleb128 0xb
 2078 00eb 49       		.uleb128 0x49
 2079 00ec 13       		.uleb128 0x13
 2080 00ed 02       		.uleb128 0x2
 2081 00ee 18       		.uleb128 0x18
 2082 00ef 00       		.byte	0
 2083 00f0 00       		.byte	0
 2084 00f1 10       		.uleb128 0x10
 2085 00f2 2E       		.uleb128 0x2e
 2086 00f3 00       		.byte	0
 2087 00f4 3F       		.uleb128 0x3f
 2088 00f5 19       		.uleb128 0x19
 2089 00f6 03       		.uleb128 0x3
 2090 00f7 0E       		.uleb128 0xe
 2091 00f8 3A       		.uleb128 0x3a
 2092 00f9 0B       		.uleb128 0xb
 2093 00fa 3B       		.uleb128 0x3b
 2094 00fb 0B       		.uleb128 0xb
 2095 00fc 27       		.uleb128 0x27
 2096 00fd 19       		.uleb128 0x19
 2097 00fe 49       		.uleb128 0x49
 2098 00ff 13       		.uleb128 0x13
 2099 0100 11       		.uleb128 0x11
 2100 0101 01       		.uleb128 0x1
 2101 0102 12       		.uleb128 0x12
 2102 0103 06       		.uleb128 0x6
 2103 0104 40       		.uleb128 0x40
 2104 0105 18       		.uleb128 0x18
 2105 0106 9742     		.uleb128 0x2117
 2106 0108 19       		.uleb128 0x19
 2107 0109 00       		.byte	0
 2108 010a 00       		.byte	0
 2109 010b 11       		.uleb128 0x11
 2110 010c 2E       		.uleb128 0x2e
 2111 010d 01       		.byte	0x1
 2112 010e 3F       		.uleb128 0x3f
 2113 010f 19       		.uleb128 0x19
 2114 0110 03       		.uleb128 0x3
 2115 0111 0E       		.uleb128 0xe
 2116 0112 3A       		.uleb128 0x3a
 2117 0113 0B       		.uleb128 0xb
ARM GAS  C:\Users\Petro\AppData\Local\Temp\ccr6rksd.s 			page 52


 2118 0114 3B       		.uleb128 0x3b
 2119 0115 0B       		.uleb128 0xb
 2120 0116 27       		.uleb128 0x27
 2121 0117 19       		.uleb128 0x19
 2122 0118 49       		.uleb128 0x49
 2123 0119 13       		.uleb128 0x13
 2124 011a 11       		.uleb128 0x11
 2125 011b 01       		.uleb128 0x1
 2126 011c 12       		.uleb128 0x12
 2127 011d 06       		.uleb128 0x6
 2128 011e 40       		.uleb128 0x40
 2129 011f 18       		.uleb128 0x18
 2130 0120 9642     		.uleb128 0x2116
 2131 0122 19       		.uleb128 0x19
 2132 0123 01       		.uleb128 0x1
 2133 0124 13       		.uleb128 0x13
 2134 0125 00       		.byte	0
 2135 0126 00       		.byte	0
 2136 0127 12       		.uleb128 0x12
 2137 0128 05       		.uleb128 0x5
 2138 0129 00       		.byte	0
 2139 012a 03       		.uleb128 0x3
 2140 012b 0E       		.uleb128 0xe
 2141 012c 3A       		.uleb128 0x3a
 2142 012d 0B       		.uleb128 0xb
 2143 012e 3B       		.uleb128 0x3b
 2144 012f 0B       		.uleb128 0xb
 2145 0130 49       		.uleb128 0x49
 2146 0131 13       		.uleb128 0x13
 2147 0132 02       		.uleb128 0x2
 2148 0133 18       		.uleb128 0x18
 2149 0134 00       		.byte	0
 2150 0135 00       		.byte	0
 2151 0136 13       		.uleb128 0x13
 2152 0137 34       		.uleb128 0x34
 2153 0138 00       		.byte	0
 2154 0139 03       		.uleb128 0x3
 2155 013a 08       		.uleb128 0x8
 2156 013b 3A       		.uleb128 0x3a
 2157 013c 0B       		.uleb128 0xb
 2158 013d 3B       		.uleb128 0x3b
 2159 013e 0B       		.uleb128 0xb
 2160 013f 49       		.uleb128 0x49
 2161 0140 13       		.uleb128 0x13
 2162 0141 02       		.uleb128 0x2
 2163 0142 18       		.uleb128 0x18
 2164 0143 00       		.byte	0
 2165 0144 00       		.byte	0
 2166 0145 14       		.uleb128 0x14
 2167 0146 2E       		.uleb128 0x2e
 2168 0147 00       		.byte	0
 2169 0148 3F       		.uleb128 0x3f
 2170 0149 19       		.uleb128 0x19
 2171 014a 03       		.uleb128 0x3
 2172 014b 0E       		.uleb128 0xe
 2173 014c 3A       		.uleb128 0x3a
 2174 014d 0B       		.uleb128 0xb
ARM GAS  C:\Users\Petro\AppData\Local\Temp\ccr6rksd.s 			page 53


 2175 014e 3B       		.uleb128 0x3b
 2176 014f 0B       		.uleb128 0xb
 2177 0150 27       		.uleb128 0x27
 2178 0151 19       		.uleb128 0x19
 2179 0152 49       		.uleb128 0x49
 2180 0153 13       		.uleb128 0x13
 2181 0154 11       		.uleb128 0x11
 2182 0155 01       		.uleb128 0x1
 2183 0156 12       		.uleb128 0x12
 2184 0157 06       		.uleb128 0x6
 2185 0158 40       		.uleb128 0x40
 2186 0159 18       		.uleb128 0x18
 2187 015a 9642     		.uleb128 0x2116
 2188 015c 19       		.uleb128 0x19
 2189 015d 00       		.byte	0
 2190 015e 00       		.byte	0
 2191 015f 15       		.uleb128 0x15
 2192 0160 2E       		.uleb128 0x2e
 2193 0161 01       		.byte	0x1
 2194 0162 3F       		.uleb128 0x3f
 2195 0163 19       		.uleb128 0x19
 2196 0164 03       		.uleb128 0x3
 2197 0165 0E       		.uleb128 0xe
 2198 0166 3A       		.uleb128 0x3a
 2199 0167 0B       		.uleb128 0xb
 2200 0168 3B       		.uleb128 0x3b
 2201 0169 0B       		.uleb128 0xb
 2202 016a 27       		.uleb128 0x27
 2203 016b 19       		.uleb128 0x19
 2204 016c 49       		.uleb128 0x49
 2205 016d 13       		.uleb128 0x13
 2206 016e 11       		.uleb128 0x11
 2207 016f 01       		.uleb128 0x1
 2208 0170 12       		.uleb128 0x12
 2209 0171 06       		.uleb128 0x6
 2210 0172 40       		.uleb128 0x40
 2211 0173 18       		.uleb128 0x18
 2212 0174 9742     		.uleb128 0x2117
 2213 0176 19       		.uleb128 0x19
 2214 0177 01       		.uleb128 0x1
 2215 0178 13       		.uleb128 0x13
 2216 0179 00       		.byte	0
 2217 017a 00       		.byte	0
 2218 017b 16       		.uleb128 0x16
 2219 017c 34       		.uleb128 0x34
 2220 017d 00       		.byte	0
 2221 017e 03       		.uleb128 0x3
 2222 017f 0E       		.uleb128 0xe
 2223 0180 3A       		.uleb128 0x3a
 2224 0181 0B       		.uleb128 0xb
 2225 0182 3B       		.uleb128 0x3b
 2226 0183 0B       		.uleb128 0xb
 2227 0184 49       		.uleb128 0x49
 2228 0185 13       		.uleb128 0x13
 2229 0186 3F       		.uleb128 0x3f
 2230 0187 19       		.uleb128 0x19
 2231 0188 02       		.uleb128 0x2
ARM GAS  C:\Users\Petro\AppData\Local\Temp\ccr6rksd.s 			page 54


 2232 0189 18       		.uleb128 0x18
 2233 018a 00       		.byte	0
 2234 018b 00       		.byte	0
 2235 018c 00       		.byte	0
 2236              		.section	.debug_aranges,"",%progbits
 2237 0000 8C000000 		.4byte	0x8c
 2238 0004 0200     		.2byte	0x2
 2239 0006 00000000 		.4byte	.Ldebug_info0
 2240 000a 04       		.byte	0x4
 2241 000b 00       		.byte	0
 2242 000c 0000     		.2byte	0
 2243 000e 0000     		.2byte	0
 2244 0010 00000000 		.4byte	.LFB2
 2245 0014 24000000 		.4byte	.LFE2-.LFB2
 2246 0018 00000000 		.4byte	.LFB4
 2247 001c 30000000 		.4byte	.LFE4-.LFB4
 2248 0020 00000000 		.4byte	.LFB5
 2249 0024 36000000 		.4byte	.LFE5-.LFB5
 2250 0028 00000000 		.4byte	.LFB6
 2251 002c 36000000 		.4byte	.LFE6-.LFB6
 2252 0030 00000000 		.4byte	.LFB7
 2253 0034 20000000 		.4byte	.LFE7-.LFB7
 2254 0038 00000000 		.4byte	.LFB28
 2255 003c 30000000 		.4byte	.LFE28-.LFB28
 2256 0040 00000000 		.4byte	.LFB29
 2257 0044 24000000 		.4byte	.LFE29-.LFB29
 2258 0048 00000000 		.4byte	.LFB30
 2259 004c 14000000 		.4byte	.LFE30-.LFB30
 2260 0050 00000000 		.4byte	.LFB31
 2261 0054 F8030000 		.4byte	.LFE31-.LFB31
 2262 0058 00000000 		.4byte	.LFB32
 2263 005c 14000000 		.4byte	.LFE32-.LFB32
 2264 0060 00000000 		.4byte	.LFB33
 2265 0064 76000000 		.4byte	.LFE33-.LFB33
 2266 0068 00000000 		.4byte	.LFB34
 2267 006c 8E000000 		.4byte	.LFE34-.LFB34
 2268 0070 00000000 		.4byte	.LFB35
 2269 0074 6C000000 		.4byte	.LFE35-.LFB35
 2270 0078 00000000 		.4byte	.LFB36
 2271 007c 7E000000 		.4byte	.LFE36-.LFB36
 2272 0080 00000000 		.4byte	.LFB37
 2273 0084 24000000 		.4byte	.LFE37-.LFB37
 2274 0088 00000000 		.4byte	0
 2275 008c 00000000 		.4byte	0
 2276              		.section	.debug_ranges,"",%progbits
 2277              	.Ldebug_ranges0:
 2278 0000 00000000 		.4byte	.LFB2
 2279 0004 24000000 		.4byte	.LFE2
 2280 0008 00000000 		.4byte	.LFB4
 2281 000c 30000000 		.4byte	.LFE4
 2282 0010 00000000 		.4byte	.LFB5
 2283 0014 36000000 		.4byte	.LFE5
 2284 0018 00000000 		.4byte	.LFB6
 2285 001c 36000000 		.4byte	.LFE6
 2286 0020 00000000 		.4byte	.LFB7
 2287 0024 20000000 		.4byte	.LFE7
 2288 0028 00000000 		.4byte	.LFB28
ARM GAS  C:\Users\Petro\AppData\Local\Temp\ccr6rksd.s 			page 55


 2289 002c 30000000 		.4byte	.LFE28
 2290 0030 00000000 		.4byte	.LFB29
 2291 0034 24000000 		.4byte	.LFE29
 2292 0038 00000000 		.4byte	.LFB30
 2293 003c 14000000 		.4byte	.LFE30
 2294 0040 00000000 		.4byte	.LFB31
 2295 0044 F8030000 		.4byte	.LFE31
 2296 0048 00000000 		.4byte	.LFB32
 2297 004c 14000000 		.4byte	.LFE32
 2298 0050 00000000 		.4byte	.LFB33
 2299 0054 76000000 		.4byte	.LFE33
 2300 0058 00000000 		.4byte	.LFB34
 2301 005c 8E000000 		.4byte	.LFE34
 2302 0060 00000000 		.4byte	.LFB35
 2303 0064 6C000000 		.4byte	.LFE35
 2304 0068 00000000 		.4byte	.LFB36
 2305 006c 7E000000 		.4byte	.LFE36
 2306 0070 00000000 		.4byte	.LFB37
 2307 0074 24000000 		.4byte	.LFE37
 2308 0078 00000000 		.4byte	0
 2309 007c 00000000 		.4byte	0
 2310              		.section	.debug_line,"",%progbits
 2311              	.Ldebug_line0:
 2312 0000 C2020000 		.section	.debug_str,"MS",%progbits,1
 2312      02004F01 
 2312      00000201 
 2312      FB0E0D00 
 2312      01010101 
 2313              	.LASF35:
 2314 0000 52544347 		.ascii	"RTCGetUnixTime\000"
 2314      6574556E 
 2314      69785469 
 2314      6D6500
 2315              	.LASF42:
 2316 000f 546D7352 		.ascii	"TmsRTC\000"
 2316      544300
 2317              	.LASF29:
 2318 0016 43616C6C 		.ascii	"CallBackWDT0\000"
 2318      4261636B 
 2318      57445430 
 2318      00
 2319              	.LASF30:
 2320 0023 74696D65 		.ascii	"timeFormat\000"
 2320      466F726D 
 2320      617400
 2321              	.LASF41:
 2322 002e 52544367 		.ascii	"RTCgetRecentMs\000"
 2322      65745265 
 2322      63656E74 
 2322      4D7300
 2323              	.LASF21:
 2324 003d 6D61736B 		.ascii	"mask\000"
 2324      00
 2325              	.LASF34:
 2326 0042 52544353 		.ascii	"RTCSynced\000"
 2326      796E6365 
 2326      6400
ARM GAS  C:\Users\Petro\AppData\Local\Temp\ccr6rksd.s 			page 56


 2327              	.LASF3:
 2328 004c 73686F72 		.ascii	"short unsigned int\000"
 2328      7420756E 
 2328      7369676E 
 2328      65642069 
 2328      6E7400
 2329              	.LASF44:
 2330 005f 6D735254 		.ascii	"msRTC\000"
 2330      4300
 2331              	.LASF37:
 2332 0065 52544367 		.ascii	"RTCgetHours\000"
 2332      6574486F 
 2332      75727300 
 2333              	.LASF14:
 2334 0071 75696E74 		.ascii	"uint64_t\000"
 2334      36345F74 
 2334      00
 2335              	.LASF47:
 2336 007a 2E5C6C69 		.ascii	".\\lib_RTC\\RTC_WDT.c\000"
 2336      625F5254 
 2336      435C5254 
 2336      435F5744 
 2336      542E6300 
 2337              	.LASF26:
 2338 008e 72657456 		.ascii	"retVal\000"
 2338      616C00
 2339              	.LASF16:
 2340 0095 666C6F61 		.ascii	"float\000"
 2340      7400
 2341              	.LASF40:
 2342 009b 52544367 		.ascii	"RTCgetMiliecond\000"
 2342      65744D69 
 2342      6C696563 
 2342      6F6E6400 
 2343              	.LASF1:
 2344 00ab 756E7369 		.ascii	"unsigned char\000"
 2344      676E6564 
 2344      20636861 
 2344      7200
 2345              	.LASF23:
 2346 00b9 5254435F 		.ascii	"RTC_GetSecond\000"
 2346      47657453 
 2346      65636F6E 
 2346      6400
 2347              	.LASF7:
 2348 00c7 6C6F6E67 		.ascii	"long unsigned int\000"
 2348      20756E73 
 2348      69676E65 
 2348      6420696E 
 2348      7400
 2349              	.LASF50:
 2350 00d9 5254435F 		.ascii	"RTC_WDT_Init\000"
 2350      5744545F 
 2350      496E6974 
 2350      00
 2351              	.LASF5:
 2352 00e6 5F5F7569 		.ascii	"__uint16_t\000"
ARM GAS  C:\Users\Petro\AppData\Local\Temp\ccr6rksd.s 			page 57


 2352      6E743136 
 2352      5F7400
 2353              	.LASF17:
 2354 00f1 646F7562 		.ascii	"double\000"
 2354      6C6500
 2355              	.LASF49:
 2356 00f8 43616C6C 		.ascii	"CallBackCounter\000"
 2356      4261636B 
 2356      436F756E 
 2356      74657200 
 2357              	.LASF6:
 2358 0108 5F5F7569 		.ascii	"__uint32_t\000"
 2358      6E743332 
 2358      5F7400
 2359              	.LASF28:
 2360 0113 5254435F 		.ascii	"RTC_GetAmPm\000"
 2360      47657441 
 2360      6D506D00 
 2361              	.LASF15:
 2362 011f 75696E74 		.ascii	"uint32\000"
 2362      333200
 2363              	.LASF39:
 2364 0126 52544367 		.ascii	"RTCgetSecond\000"
 2364      65745365 
 2364      636F6E64 
 2364      00
 2365              	.LASF11:
 2366 0133 756E7369 		.ascii	"unsigned int\000"
 2366      676E6564 
 2366      20696E74 
 2366      00
 2367              	.LASF38:
 2368 0140 52544367 		.ascii	"RTCgetMinutes\000"
 2368      65744D69 
 2368      6E757465 
 2368      7300
 2369              	.LASF10:
 2370 014e 6C6F6E67 		.ascii	"long long unsigned int\000"
 2370      206C6F6E 
 2370      6720756E 
 2370      7369676E 
 2370      65642069 
 2371              	.LASF48:
 2372 0165 443A5C43 		.ascii	"D:\\Cypress\\system-start-finish\\vesion 2\\fw\\fin"
 2372      79707265 
 2372      73735C73 
 2372      79737465 
 2372      6D2D7374 
 2373 0193 6973685C 		.ascii	"ish\\sandbox\\v3\\Finish(state machine)\\fin_v0.cyd"
 2373      73616E64 
 2373      626F785C 
 2373      76335C46 
 2373      696E6973 
 2374 01c2 736E00   		.ascii	"sn\000"
 2375              	.LASF46:
 2376 01c5 474E5520 		.ascii	"GNU C 4.9.3 20150303 (release) [ARM/embedded-4_9-br"
 2376      4320342E 
ARM GAS  C:\Users\Petro\AppData\Local\Temp\ccr6rksd.s 			page 58


 2376      392E3320 
 2376      32303135 
 2376      30333033 
 2377 01f8 616E6368 		.ascii	"anch revision 221220] -mcpu=cortex-m0 -mthumb -g -O"
 2377      20726576 
 2377      6973696F 
 2377      6E203232 
 2377      31323230 
 2378 022b 30202D66 		.ascii	"0 -ffunction-sections -ffat-lto-objects\000"
 2378      66756E63 
 2378      74696F6E 
 2378      2D736563 
 2378      74696F6E 
 2379              	.LASF32:
 2380 0253 686F7572 		.ascii	"hour\000"
 2380      00
 2381              	.LASF43:
 2382 0258 74696D65 		.ascii	"time\000"
 2382      00
 2383              	.LASF45:
 2384 025d 52544353 		.ascii	"RTCSyncWithDS\000"
 2384      796E6357 
 2384      69746844 
 2384      5300
 2385              	.LASF20:
 2386 026b 73697A65 		.ascii	"sizetype\000"
 2386      74797065 
 2386      00
 2387              	.LASF8:
 2388 0274 6C6F6E67 		.ascii	"long long int\000"
 2388      206C6F6E 
 2388      6720696E 
 2388      7400
 2389              	.LASF25:
 2390 0282 5254435F 		.ascii	"RTC_GetMinutes\000"
 2390      4765744D 
 2390      696E7574 
 2390      657300
 2391              	.LASF18:
 2392 0291 75696E74 		.ascii	"uint64\000"
 2392      363400
 2393              	.LASF2:
 2394 0298 73686F72 		.ascii	"short int\000"
 2394      7420696E 
 2394      7400
 2395              	.LASF36:
 2396 02a2 52544367 		.ascii	"RTCgetTime\000"
 2396      65745469 
 2396      6D6500
 2397              	.LASF12:
 2398 02ad 75696E74 		.ascii	"uint16_t\000"
 2398      31365F74 
 2398      00
 2399              	.LASF33:
 2400 02b6 73746174 		.ascii	"stateAmPm\000"
 2400      65416D50 
 2400      6D00
ARM GAS  C:\Users\Petro\AppData\Local\Temp\ccr6rksd.s 			page 59


 2401              	.LASF13:
 2402 02c0 75696E74 		.ascii	"uint32_t\000"
 2402      33325F74 
 2402      00
 2403              	.LASF4:
 2404 02c9 6C6F6E67 		.ascii	"long int\000"
 2404      20696E74 
 2404      00
 2405              	.LASF19:
 2406 02d2 63686172 		.ascii	"char\000"
 2406      00
 2407              	.LASF9:
 2408 02d7 5F5F7569 		.ascii	"__uint64_t\000"
 2408      6E743634 
 2408      5F7400
 2409              	.LASF0:
 2410 02e2 7369676E 		.ascii	"signed char\000"
 2410      65642063 
 2410      68617200 
 2411              	.LASF31:
 2412 02ee 72656164 		.ascii	"readTime\000"
 2412      54696D65 
 2412      00
 2413              	.LASF24:
 2414 02f7 696E7075 		.ascii	"inputTime\000"
 2414      7454696D 
 2414      6500
 2415              	.LASF27:
 2416 0301 5254435F 		.ascii	"RTC_GetHours\000"
 2416      47657448 
 2416      6F757273 
 2416      00
 2417              	.LASF22:
 2418 030e 5254435F 		.ascii	"RTC_IsBitSet\000"
 2418      49734269 
 2418      74536574 
 2418      00
 2419              		.ident	"GCC: (GNU Tools for ARM Embedded Processors) 4.9.3 20150303 (release) [ARM/embedded-4_9-br
