ARM GAS  C:\DOCUME~1\Admin\LOCALS~1\Temp\ccgAuayf.s 			page 1


   1              		.cpu cortex-m0
   2              		.fpu softvfp
   3              		.eabi_attribute 20, 1
   4              		.eabi_attribute 21, 1
   5              		.eabi_attribute 23, 3
   6              		.eabi_attribute 24, 1
   7              		.eabi_attribute 25, 1
   8              		.eabi_attribute 26, 1
   9              		.eabi_attribute 30, 6
  10              		.eabi_attribute 34, 0
  11              		.eabi_attribute 18, 4
  12              		.code	16
  13              		.file	"RTC_WDT.c"
  14              		.text
  15              	.Ltext0:
  16              		.cfi_sections	.debug_frame
  17              		.section	.text.RTC_IsBitSet,"ax",%progbits
  18              		.align	2
  19              		.code	16
  20              		.thumb_func
  21              		.type	RTC_IsBitSet, %function
  22              	RTC_IsBitSet:
  23              	.LFB2:
  24              		.file 1 "Generated_Source\\PSoC4/RTC.h"
   1:Generated_Source\PSoC4/RTC.h **** /***************************************************************************//**
   2:Generated_Source\PSoC4/RTC.h **** * \file Name: RTC.h
   3:Generated_Source\PSoC4/RTC.h **** * \version 1.10
   4:Generated_Source\PSoC4/RTC.h **** *
   5:Generated_Source\PSoC4/RTC.h **** * \brief
   6:Generated_Source\PSoC4/RTC.h **** *  This file provides constants and parameter values for the RTC_P4 Component.
   7:Generated_Source\PSoC4/RTC.h **** *
   8:Generated_Source\PSoC4/RTC.h **** ********************************************************************************
   9:Generated_Source\PSoC4/RTC.h **** * Copyright 2015-2016, Cypress Semiconductor Corporation.  All rights reserved.
  10:Generated_Source\PSoC4/RTC.h **** * You may use this file only in accordance with the license, terms, conditions,
  11:Generated_Source\PSoC4/RTC.h **** * disclaimers, and limitations in the end user license agreement accompanying
  12:Generated_Source\PSoC4/RTC.h **** * the software package with which this file was provided.
  13:Generated_Source\PSoC4/RTC.h **** *******************************************************************************/
  14:Generated_Source\PSoC4/RTC.h **** 
  15:Generated_Source\PSoC4/RTC.h **** #if !defined(CY_RTC_P4_RTC_H)
  16:Generated_Source\PSoC4/RTC.h **** #define CY_RTC_P4_RTC_H
  17:Generated_Source\PSoC4/RTC.h **** 
  18:Generated_Source\PSoC4/RTC.h **** #include <cytypes.h>
  19:Generated_Source\PSoC4/RTC.h **** #include <CyLib.h>
  20:Generated_Source\PSoC4/RTC.h **** 
  21:Generated_Source\PSoC4/RTC.h **** 
  22:Generated_Source\PSoC4/RTC.h **** /*******************************************************************************
  23:Generated_Source\PSoC4/RTC.h **** *    Data types definition
  24:Generated_Source\PSoC4/RTC.h **** *******************************************************************************/
  25:Generated_Source\PSoC4/RTC.h **** 
  26:Generated_Source\PSoC4/RTC.h **** typedef enum
  27:Generated_Source\PSoC4/RTC.h **** {
  28:Generated_Source\PSoC4/RTC.h ****     RTC_DST_DATE_RELATIVE = 0u,
  29:Generated_Source\PSoC4/RTC.h ****     RTC_DST_DATE_FIXED = 1u
  30:Generated_Source\PSoC4/RTC.h **** }RTC_DST_DATETYPE_ENUM;
  31:Generated_Source\PSoC4/RTC.h **** 
  32:Generated_Source\PSoC4/RTC.h **** /**
  33:Generated_Source\PSoC4/RTC.h **** * \addtogroup group_structures
ARM GAS  C:\DOCUME~1\Admin\LOCALS~1\Temp\ccgAuayf.s 			page 2


  34:Generated_Source\PSoC4/RTC.h **** * @{
  35:Generated_Source\PSoC4/RTC.h **** */
  36:Generated_Source\PSoC4/RTC.h **** 
  37:Generated_Source\PSoC4/RTC.h **** /**
  38:Generated_Source\PSoC4/RTC.h **** * This is the data structure that is used to save the current time and date 
  39:Generated_Source\PSoC4/RTC.h **** * (RTC_currentTimeDate), and Alarm time and date (RTC_alarmCfgTimeDate).
  40:Generated_Source\PSoC4/RTC.h **** */
  41:Generated_Source\PSoC4/RTC.h **** typedef struct
  42:Generated_Source\PSoC4/RTC.h **** {
  43:Generated_Source\PSoC4/RTC.h ****     uint32 time;
  44:Generated_Source\PSoC4/RTC.h ****     uint32 date;
  45:Generated_Source\PSoC4/RTC.h ****     uint32 dayOfWeek;
  46:Generated_Source\PSoC4/RTC.h ****     uint32 status;
  47:Generated_Source\PSoC4/RTC.h **** }RTC_DATE_TIME;
  48:Generated_Source\PSoC4/RTC.h **** 
  49:Generated_Source\PSoC4/RTC.h **** /**
  50:Generated_Source\PSoC4/RTC.h **** * This is the data structure that is used to save time and date values for 
  51:Generated_Source\PSoC4/RTC.h **** * Daylight Savings Time Start and Stop (RTC_dstTimeDateStart and 
  52:Generated_Source\PSoC4/RTC.h **** * RTC_dstTimeDateStop).
  53:Generated_Source\PSoC4/RTC.h **** */
  54:Generated_Source\PSoC4/RTC.h **** typedef struct
  55:Generated_Source\PSoC4/RTC.h **** {
  56:Generated_Source\PSoC4/RTC.h ****     uint32 hour;
  57:Generated_Source\PSoC4/RTC.h ****     uint32 dayOfWeek;
  58:Generated_Source\PSoC4/RTC.h ****     uint32 dayOfMonth;
  59:Generated_Source\PSoC4/RTC.h ****     uint32 weekOfMonth;
  60:Generated_Source\PSoC4/RTC.h ****     uint32 month;
  61:Generated_Source\PSoC4/RTC.h ****     uint8  timeFormat;
  62:Generated_Source\PSoC4/RTC.h **** }RTC_DST_TIME;
  63:Generated_Source\PSoC4/RTC.h **** 
  64:Generated_Source\PSoC4/RTC.h **** /** @} structures */
  65:Generated_Source\PSoC4/RTC.h **** 
  66:Generated_Source\PSoC4/RTC.h **** /*******************************************************************************
  67:Generated_Source\PSoC4/RTC.h **** *    Enumerated Types and Parameters
  68:Generated_Source\PSoC4/RTC.h **** *******************************************************************************/
  69:Generated_Source\PSoC4/RTC.h **** /* Time Format setting constants */
  70:Generated_Source\PSoC4/RTC.h **** #define RTC__HOUR_12 1
  71:Generated_Source\PSoC4/RTC.h **** #define RTC__HOUR_24 0
  72:Generated_Source\PSoC4/RTC.h **** 
  73:Generated_Source\PSoC4/RTC.h **** /*  Date Format setting constants */
  74:Generated_Source\PSoC4/RTC.h **** #define RTC__MM_DD_YYYY 0
  75:Generated_Source\PSoC4/RTC.h **** #define RTC__DD_MM_YYYY 1
  76:Generated_Source\PSoC4/RTC.h **** #define RTC__YYYY_MM_DD 2
  77:Generated_Source\PSoC4/RTC.h **** 
  78:Generated_Source\PSoC4/RTC.h **** /* Date Type setting constants */
  79:Generated_Source\PSoC4/RTC.h **** #define RTC__RELATIVE 0
  80:Generated_Source\PSoC4/RTC.h **** #define RTC__FIXED 1
  81:Generated_Source\PSoC4/RTC.h **** 
  82:Generated_Source\PSoC4/RTC.h **** /* DST Hour setting constants */
  83:Generated_Source\PSoC4/RTC.h **** #define RTC__H0000 0
  84:Generated_Source\PSoC4/RTC.h **** #define RTC__H0100 1
  85:Generated_Source\PSoC4/RTC.h **** #define RTC__H0200 2
  86:Generated_Source\PSoC4/RTC.h **** #define RTC__H0300 3
  87:Generated_Source\PSoC4/RTC.h **** #define RTC__H0400 4
  88:Generated_Source\PSoC4/RTC.h **** #define RTC__H0500 5
  89:Generated_Source\PSoC4/RTC.h **** #define RTC__H0600 6
  90:Generated_Source\PSoC4/RTC.h **** #define RTC__H0700 7
ARM GAS  C:\DOCUME~1\Admin\LOCALS~1\Temp\ccgAuayf.s 			page 3


  91:Generated_Source\PSoC4/RTC.h **** #define RTC__H0800 8
  92:Generated_Source\PSoC4/RTC.h **** #define RTC__H0900 9
  93:Generated_Source\PSoC4/RTC.h **** #define RTC__H1000 10
  94:Generated_Source\PSoC4/RTC.h **** #define RTC__H1100 11
  95:Generated_Source\PSoC4/RTC.h **** #define RTC__H1200 12
  96:Generated_Source\PSoC4/RTC.h **** #define RTC__H1300 13
  97:Generated_Source\PSoC4/RTC.h **** #define RTC__H1400 14
  98:Generated_Source\PSoC4/RTC.h **** #define RTC__H1500 15
  99:Generated_Source\PSoC4/RTC.h **** #define RTC__H1600 16
 100:Generated_Source\PSoC4/RTC.h **** #define RTC__H1700 17
 101:Generated_Source\PSoC4/RTC.h **** #define RTC__H1800 18
 102:Generated_Source\PSoC4/RTC.h **** #define RTC__H1900 19
 103:Generated_Source\PSoC4/RTC.h **** #define RTC__H2000 20
 104:Generated_Source\PSoC4/RTC.h **** #define RTC__H2100 21
 105:Generated_Source\PSoC4/RTC.h **** #define RTC__H2200 22
 106:Generated_Source\PSoC4/RTC.h **** #define RTC__H2300 23
 107:Generated_Source\PSoC4/RTC.h **** 
 108:Generated_Source\PSoC4/RTC.h **** /* DST DayOfWeek setting constants */
 109:Generated_Source\PSoC4/RTC.h **** #define RTC__SUNDAY 1
 110:Generated_Source\PSoC4/RTC.h **** #define RTC__MONDAY 2
 111:Generated_Source\PSoC4/RTC.h **** #define RTC__TUESDAY 3
 112:Generated_Source\PSoC4/RTC.h **** #define RTC__WEDNESDAY 4
 113:Generated_Source\PSoC4/RTC.h **** #define RTC__THURSDAY 5
 114:Generated_Source\PSoC4/RTC.h **** #define RTC__FRIDAY 6
 115:Generated_Source\PSoC4/RTC.h **** #define RTC__SATURDAY 7
 116:Generated_Source\PSoC4/RTC.h **** 
 117:Generated_Source\PSoC4/RTC.h **** /* DST Month setting constants */
 118:Generated_Source\PSoC4/RTC.h **** #define RTC__JAN 1
 119:Generated_Source\PSoC4/RTC.h **** #define RTC__FEB 2
 120:Generated_Source\PSoC4/RTC.h **** #define RTC__MAR 3
 121:Generated_Source\PSoC4/RTC.h **** #define RTC__APR 4
 122:Generated_Source\PSoC4/RTC.h **** #define RTC__MAY 5
 123:Generated_Source\PSoC4/RTC.h **** #define RTC__JUN 6
 124:Generated_Source\PSoC4/RTC.h **** #define RTC__JUL 7
 125:Generated_Source\PSoC4/RTC.h **** #define RTC__AUG 8
 126:Generated_Source\PSoC4/RTC.h **** #define RTC__SEP 9
 127:Generated_Source\PSoC4/RTC.h **** #define RTC__OCT 10
 128:Generated_Source\PSoC4/RTC.h **** #define RTC__NOV 11
 129:Generated_Source\PSoC4/RTC.h **** #define RTC__DEC 12
 130:Generated_Source\PSoC4/RTC.h **** 
 131:Generated_Source\PSoC4/RTC.h **** /* DST WeekOfMonth setting constants */
 132:Generated_Source\PSoC4/RTC.h **** #define RTC__FIRST 1
 133:Generated_Source\PSoC4/RTC.h **** #define RTC__SECOND 2
 134:Generated_Source\PSoC4/RTC.h **** #define RTC__THIRD 3
 135:Generated_Source\PSoC4/RTC.h **** #define RTC__FOURTH 4
 136:Generated_Source\PSoC4/RTC.h **** #define RTC__FIFTH 5
 137:Generated_Source\PSoC4/RTC.h **** #define RTC__LAST 6
 138:Generated_Source\PSoC4/RTC.h **** 
 139:Generated_Source\PSoC4/RTC.h **** 
 140:Generated_Source\PSoC4/RTC.h **** #define RTC_INITIAL_DATA_FORMAT     (0u)
 141:Generated_Source\PSoC4/RTC.h **** #define RTC_INITIAL_TIME_FORMAT     (0u)
 142:Generated_Source\PSoC4/RTC.h **** #define RTC_INITIAL_UPDATE_MODE     (0u)
 143:Generated_Source\PSoC4/RTC.h **** #define RTC_INITIAL_SECOND          (0u)
 144:Generated_Source\PSoC4/RTC.h **** #define RTC_INITIAL_MINUTE          (16u)
 145:Generated_Source\PSoC4/RTC.h **** #define RTC_INITIAL_HOUR            (10u)
 146:Generated_Source\PSoC4/RTC.h **** #define RTC_INITIAL_DAY             (9u)
 147:Generated_Source\PSoC4/RTC.h **** #define RTC_INITIAL_MONTH           (8u)
ARM GAS  C:\DOCUME~1\Admin\LOCALS~1\Temp\ccgAuayf.s 			page 4


 148:Generated_Source\PSoC4/RTC.h **** #define RTC_INITIAL_YEAR            (2016u)
 149:Generated_Source\PSoC4/RTC.h **** 
 150:Generated_Source\PSoC4/RTC.h **** #define RTC_INITIAL_ALARM_STATUS    (0u)
 151:Generated_Source\PSoC4/RTC.h **** 
 152:Generated_Source\PSoC4/RTC.h **** #define RTC_INITIAL_DST_STATUS      (0u)
 153:Generated_Source\PSoC4/RTC.h **** #define RTC_INITIAL_DST_DATE_TYPE   (0u)
 154:Generated_Source\PSoC4/RTC.h **** #define RTC_INITIAL_DST_START_MONTH (3uL)
 155:Generated_Source\PSoC4/RTC.h **** #define RTC_INITIAL_DST_START_WOM   (6uL)
 156:Generated_Source\PSoC4/RTC.h **** #define RTC_INITIAL_DST_START_DOM   (22uL)
 157:Generated_Source\PSoC4/RTC.h **** #define RTC_INITIAL_DST_START_DOW   (1uL)
 158:Generated_Source\PSoC4/RTC.h **** #define RTC_INITIAL_DST_START_HRS   (0uL)
 159:Generated_Source\PSoC4/RTC.h **** #define RTC_INITIAL_DST_STOP_MONTH  (10uL)
 160:Generated_Source\PSoC4/RTC.h **** #define RTC_INITIAL_DST_STOP_DOM    (22uL)
 161:Generated_Source\PSoC4/RTC.h **** #define RTC_INITIAL_DST_STOP_DOW    (1uL)
 162:Generated_Source\PSoC4/RTC.h **** #define RTC_INITIAL_DST_STOP_WOM    (6uL)
 163:Generated_Source\PSoC4/RTC.h **** #define RTC_INITIAL_DST_STOP_HRS    (0uL)
 164:Generated_Source\PSoC4/RTC.h **** 
 165:Generated_Source\PSoC4/RTC.h **** /* Day of week definitions */
 166:Generated_Source\PSoC4/RTC.h **** #define RTC_SUNDAY     (RTC__SUNDAY)
 167:Generated_Source\PSoC4/RTC.h **** #define RTC_MONDAY     (RTC__MONDAY)
 168:Generated_Source\PSoC4/RTC.h **** #define RTC_TUESDAY    (RTC__TUESDAY)
 169:Generated_Source\PSoC4/RTC.h **** #define RTC_WEDNESDAY  (RTC__WEDNESDAY)
 170:Generated_Source\PSoC4/RTC.h **** #define RTC_THURSDAY   (RTC__THURSDAY)
 171:Generated_Source\PSoC4/RTC.h **** #define RTC_FRIDAY     (RTC__FRIDAY)
 172:Generated_Source\PSoC4/RTC.h **** #define RTC_SATURDAY   (RTC__SATURDAY)
 173:Generated_Source\PSoC4/RTC.h **** 
 174:Generated_Source\PSoC4/RTC.h **** /* DST WeekOfMonth setting constants definitions */
 175:Generated_Source\PSoC4/RTC.h **** #define RTC_FIRST      (RTC__FIRST)
 176:Generated_Source\PSoC4/RTC.h **** #define RTC_SECOND     (RTC__SECOND)
 177:Generated_Source\PSoC4/RTC.h **** #define RTC_THIRD      (RTC__THIRD)
 178:Generated_Source\PSoC4/RTC.h **** #define RTC_FOURTH     (RTC__FOURTH)
 179:Generated_Source\PSoC4/RTC.h **** #define RTC_FIFTH      (RTC__FIFTH)
 180:Generated_Source\PSoC4/RTC.h **** #define RTC_LAST       (RTC__LAST)
 181:Generated_Source\PSoC4/RTC.h **** 
 182:Generated_Source\PSoC4/RTC.h **** /* Month definitions */
 183:Generated_Source\PSoC4/RTC.h **** #define RTC_JANUARY    (RTC__JAN)
 184:Generated_Source\PSoC4/RTC.h **** #define RTC_FEBRUARY   (RTC__FEB)
 185:Generated_Source\PSoC4/RTC.h **** #define RTC_MARCH      (RTC__MAR)
 186:Generated_Source\PSoC4/RTC.h **** #define RTC_APRIL      (RTC__APR)
 187:Generated_Source\PSoC4/RTC.h **** #define RTC_MAY        (RTC__MAY)
 188:Generated_Source\PSoC4/RTC.h **** #define RTC_JUNE       (RTC__JUN)
 189:Generated_Source\PSoC4/RTC.h **** #define RTC_JULY       (RTC__JUL)
 190:Generated_Source\PSoC4/RTC.h **** #define RTC_AUGUST     (RTC__AUG)
 191:Generated_Source\PSoC4/RTC.h **** #define RTC_SEPTEMBER  (RTC__SEP)
 192:Generated_Source\PSoC4/RTC.h **** #define RTC_OCTOBER    (RTC__OCT)
 193:Generated_Source\PSoC4/RTC.h **** #define RTC_NOVEMBER   (RTC__NOV)
 194:Generated_Source\PSoC4/RTC.h **** #define RTC_DECEMBER   (RTC__DEC)
 195:Generated_Source\PSoC4/RTC.h **** 
 196:Generated_Source\PSoC4/RTC.h **** #define RTC_DAYS_PER_WEEK       (7u)
 197:Generated_Source\PSoC4/RTC.h **** 
 198:Generated_Source\PSoC4/RTC.h **** /* Number of days in month definitions */
 199:Generated_Source\PSoC4/RTC.h **** #define RTC_DAYS_IN_JANUARY     (31u)
 200:Generated_Source\PSoC4/RTC.h **** #define RTC_DAYS_IN_FEBRUARY    (28u)
 201:Generated_Source\PSoC4/RTC.h **** #define RTC_DAYS_IN_MARCH       (31u)
 202:Generated_Source\PSoC4/RTC.h **** #define RTC_DAYS_IN_APRIL       (30u)
 203:Generated_Source\PSoC4/RTC.h **** #define RTC_DAYS_IN_MAY         (31u)
 204:Generated_Source\PSoC4/RTC.h **** #define RTC_DAYS_IN_JUNE        (30u)
ARM GAS  C:\DOCUME~1\Admin\LOCALS~1\Temp\ccgAuayf.s 			page 5


 205:Generated_Source\PSoC4/RTC.h **** #define RTC_DAYS_IN_JULY        (31u)
 206:Generated_Source\PSoC4/RTC.h **** #define RTC_DAYS_IN_AUGUST      (31u)
 207:Generated_Source\PSoC4/RTC.h **** #define RTC_DAYS_IN_SEPTEMBER   (30u)
 208:Generated_Source\PSoC4/RTC.h **** #define RTC_DAYS_IN_OCTOBER     (31u)
 209:Generated_Source\PSoC4/RTC.h **** #define RTC_DAYS_IN_NOVEMBER    (30u)
 210:Generated_Source\PSoC4/RTC.h **** #define RTC_DAYS_IN_DECEMBER    (31u)
 211:Generated_Source\PSoC4/RTC.h **** 
 212:Generated_Source\PSoC4/RTC.h **** #define RTC_MONTHS_PER_YEAR     (12uL)
 213:Generated_Source\PSoC4/RTC.h **** 
 214:Generated_Source\PSoC4/RTC.h **** #define RTC_HOURS_PER_DAY       (24uL)
 215:Generated_Source\PSoC4/RTC.h **** #define RTC_HOURS_PER_HALF_DAY  (12uL)
 216:Generated_Source\PSoC4/RTC.h **** 
 217:Generated_Source\PSoC4/RTC.h **** #define RTC_SECONDS_PER_MINUTE  (60uL)
 218:Generated_Source\PSoC4/RTC.h **** #define RTC_SECONDS_PER_HOUR    (3600uL)
 219:Generated_Source\PSoC4/RTC.h **** #define RTC_SECONDS_PER_DAY     (24uL * 3600uL)
 220:Generated_Source\PSoC4/RTC.h **** 
 221:Generated_Source\PSoC4/RTC.h **** #define RTC_SECONDS_PER_LEAP_YEAR    (366uL * 24uL * 3600uL)
 222:Generated_Source\PSoC4/RTC.h **** #define RTC_SECONDS_PER_NONLEAP_YEAR (365uL * 24uL * 3600uL)
 223:Generated_Source\PSoC4/RTC.h **** 
 224:Generated_Source\PSoC4/RTC.h **** #define RTC_UNIX_TIME_PM   ((12uL * 3600uL) + 1uL)
 225:Generated_Source\PSoC4/RTC.h **** 
 226:Generated_Source\PSoC4/RTC.h **** /* AM/PM status definitions */
 227:Generated_Source\PSoC4/RTC.h **** #define RTC_AM                 (0u)
 228:Generated_Source\PSoC4/RTC.h **** #define RTC_PM                 (1u)
 229:Generated_Source\PSoC4/RTC.h **** 
 230:Generated_Source\PSoC4/RTC.h **** /* Time format definitions */
 231:Generated_Source\PSoC4/RTC.h **** #define RTC_12_HOURS_FORMAT    (RTC__HOUR_12)
 232:Generated_Source\PSoC4/RTC.h **** #define RTC_24_HOURS_FORMAT    (RTC__HOUR_24)
 233:Generated_Source\PSoC4/RTC.h **** 
 234:Generated_Source\PSoC4/RTC.h **** /* UNIX time begins in 1970 year.  */
 235:Generated_Source\PSoC4/RTC.h **** #define RTC_YEAR_0             (1970u)
 236:Generated_Source\PSoC4/RTC.h **** 
 237:Generated_Source\PSoC4/RTC.h **** /* Definition of date register fields */
 238:Generated_Source\PSoC4/RTC.h **** #if(RTC_INITIAL_DATA_FORMAT == RTC__MM_DD_YYYY)
 239:Generated_Source\PSoC4/RTC.h ****     #define RTC_10_MONTH_OFFSET   (28u)
 240:Generated_Source\PSoC4/RTC.h ****     #define RTC_MONTH_OFFSET      (24u)
 241:Generated_Source\PSoC4/RTC.h ****     #define RTC_10_DAY_OFFSET     (20u)
 242:Generated_Source\PSoC4/RTC.h ****     #define RTC_DAY_OFFSET        (16u)
 243:Generated_Source\PSoC4/RTC.h ****     #define RTC_1000_YEAR_OFFSET  (12u)
 244:Generated_Source\PSoC4/RTC.h ****     #define RTC_100_YEAR_OFFSET   (8u)
 245:Generated_Source\PSoC4/RTC.h ****     #define RTC_10_YEAR_OFFSET    (4u)
 246:Generated_Source\PSoC4/RTC.h ****     #define RTC_YEAR_OFFSET       (0u)
 247:Generated_Source\PSoC4/RTC.h **** #elif(RTC_INITIAL_DATA_FORMAT == RTC__DD_MM_YYYY)
 248:Generated_Source\PSoC4/RTC.h ****     #define RTC_10_MONTH_OFFSET   (20u)
 249:Generated_Source\PSoC4/RTC.h ****     #define RTC_MONTH_OFFSET      (16u)
 250:Generated_Source\PSoC4/RTC.h ****     #define RTC_10_DAY_OFFSET     (28u)
 251:Generated_Source\PSoC4/RTC.h ****     #define RTC_DAY_OFFSET        (24u)
 252:Generated_Source\PSoC4/RTC.h ****     #define RTC_1000_YEAR_OFFSET  (12u)
 253:Generated_Source\PSoC4/RTC.h ****     #define RTC_100_YEAR_OFFSET   (8u)
 254:Generated_Source\PSoC4/RTC.h ****     #define RTC_10_YEAR_OFFSET    (4u)
 255:Generated_Source\PSoC4/RTC.h ****     #define RTC_YEAR_OFFSET       (0u)
 256:Generated_Source\PSoC4/RTC.h **** #else
 257:Generated_Source\PSoC4/RTC.h ****     #define RTC_10_MONTH_OFFSET   (12u)
 258:Generated_Source\PSoC4/RTC.h ****     #define RTC_MONTH_OFFSET      (8u)
 259:Generated_Source\PSoC4/RTC.h ****     #define RTC_10_DAY_OFFSET     (4u)
 260:Generated_Source\PSoC4/RTC.h ****     #define RTC_DAY_OFFSET        (0u)
 261:Generated_Source\PSoC4/RTC.h ****     #define RTC_1000_YEAR_OFFSET  (28u)
ARM GAS  C:\DOCUME~1\Admin\LOCALS~1\Temp\ccgAuayf.s 			page 6


 262:Generated_Source\PSoC4/RTC.h ****     #define RTC_100_YEAR_OFFSET   (24u)
 263:Generated_Source\PSoC4/RTC.h ****     #define RTC_10_YEAR_OFFSET    (20u)
 264:Generated_Source\PSoC4/RTC.h ****     #define RTC_YEAR_OFFSET       (16u)
 265:Generated_Source\PSoC4/RTC.h **** #endif /* (RTC_INITIAL_DATA_FORMAT == RTC__MM_DD_YYYY) */
 266:Generated_Source\PSoC4/RTC.h **** 
 267:Generated_Source\PSoC4/RTC.h **** #define RTC_10_MONTH_MASK          (0x00000001uL << RTC_10_MONTH_OFFSET)
 268:Generated_Source\PSoC4/RTC.h **** #define RTC_MONTH_MASK             (0x0000000FuL << RTC_MONTH_OFFSET)
 269:Generated_Source\PSoC4/RTC.h **** #define RTC_10_DAY_MASK            (0x00000003uL << RTC_10_DAY_OFFSET)
 270:Generated_Source\PSoC4/RTC.h **** #define RTC_DAY_MASK               (0x0000000FuL << RTC_DAY_OFFSET)
 271:Generated_Source\PSoC4/RTC.h **** #define RTC_1000_YEAR_MASK         (0x00000003uL << RTC_1000_YEAR_OFFSET)
 272:Generated_Source\PSoC4/RTC.h **** #define RTC_100_YEAR_MASK          (0x0000000FuL << RTC_100_YEAR_OFFSET)
 273:Generated_Source\PSoC4/RTC.h **** #define RTC_10_YEAR_MASK           (0x0000000FuL << RTC_10_YEAR_OFFSET)
 274:Generated_Source\PSoC4/RTC.h **** #define RTC_YEAR_MASK              (0x0000000FuL << RTC_YEAR_OFFSET)
 275:Generated_Source\PSoC4/RTC.h **** 
 276:Generated_Source\PSoC4/RTC.h **** #define  RTC_MONTH_FULL_MASK       (RTC_10_MONTH_MASK  | RTC_MONTH_MASK)
 277:Generated_Source\PSoC4/RTC.h **** #define  RTC_DAY_FULL_MASK         (RTC_10_DAY_MASK    | RTC_DAY_MASK)
 278:Generated_Source\PSoC4/RTC.h **** #define  RTC_YEAR_FULL_MASK        (RTC_1000_YEAR_MASK | RTC_100_YEAR_MASK |\
 279:Generated_Source\PSoC4/RTC.h ****                                                  RTC_10_YEAR_MASK   | RTC_YEAR_MASK)
 280:Generated_Source\PSoC4/RTC.h **** 
 281:Generated_Source\PSoC4/RTC.h **** 
 282:Generated_Source\PSoC4/RTC.h **** /* Definition of time register fields */
 283:Generated_Source\PSoC4/RTC.h **** #define RTC_TIME_FORMAT_OFFSET     (23u)
 284:Generated_Source\PSoC4/RTC.h **** #define RTC_PERIOD_OF_DAY_OFFSET   (22u)
 285:Generated_Source\PSoC4/RTC.h **** #define RTC_10_HOURS_OFFSET        (20u)
 286:Generated_Source\PSoC4/RTC.h **** #define RTC_HOURS_OFFSET           (16u)
 287:Generated_Source\PSoC4/RTC.h **** #define RTC_10_MINUTES_OFFSET      (12u)
 288:Generated_Source\PSoC4/RTC.h **** #define RTC_MINUTES_OFFSET         (8u)
 289:Generated_Source\PSoC4/RTC.h **** #define RTC_10_SECONDS_OFFSET      (4u)
 290:Generated_Source\PSoC4/RTC.h **** #define RTC_SECONDS_OFFSET         (0u)
 291:Generated_Source\PSoC4/RTC.h **** 
 292:Generated_Source\PSoC4/RTC.h **** #define RTC_TIME_FORMAT_MASK       (0x00000001uL << RTC_TIME_FORMAT_OFFSET)
 293:Generated_Source\PSoC4/RTC.h **** #define RTC_PERIOD_OF_DAY_MASK     (0x00000001uL << RTC_PERIOD_OF_DAY_OFFSET)
 294:Generated_Source\PSoC4/RTC.h **** #define RTC_10_HOURS_MASK          (0x00000003uL << RTC_10_HOURS_OFFSET)
 295:Generated_Source\PSoC4/RTC.h **** #define RTC_HOURS_MASK             (0x0000000FuL << RTC_HOURS_OFFSET)
 296:Generated_Source\PSoC4/RTC.h **** #define RTC_10_MINUTES_MASK        (0x00000007uL << RTC_10_MINUTES_OFFSET)
 297:Generated_Source\PSoC4/RTC.h **** #define RTC_MINUTES_MASK           (0x0000000FuL << RTC_MINUTES_OFFSET)
 298:Generated_Source\PSoC4/RTC.h **** #define RTC_10_SECONDS_MASK        (0x00000007uL << RTC_10_SECONDS_OFFSET)
 299:Generated_Source\PSoC4/RTC.h **** #define RTC_SECONDS_MASK           (0x0000000FuL << RTC_SECONDS_OFFSET)
 300:Generated_Source\PSoC4/RTC.h **** 
 301:Generated_Source\PSoC4/RTC.h **** #define RTC_HOURS_FULL_MASK        (RTC_10_HOURS_MASK   | RTC_HOURS_MASK)
 302:Generated_Source\PSoC4/RTC.h **** #define RTC_MINUTES_FULL_MASK      (RTC_10_MINUTES_MASK | RTC_MINUTES_MASK)
 303:Generated_Source\PSoC4/RTC.h **** #define RTC_SECONDS_FULL_MASK      (RTC_10_SECONDS_MASK | RTC_SECONDS_MASK)
 304:Generated_Source\PSoC4/RTC.h **** 
 305:Generated_Source\PSoC4/RTC.h **** #define RTC_ALARM_SEC_MASK         (0x00000001uL)
 306:Generated_Source\PSoC4/RTC.h **** #define RTC_ALARM_MIN_MASK         (0x00000002uL)
 307:Generated_Source\PSoC4/RTC.h **** #define RTC_ALARM_HOUR_MASK        (0x00000004uL)
 308:Generated_Source\PSoC4/RTC.h **** #define RTC_ALARM_DAYOFWEEK_MASK   (0x00000008uL)
 309:Generated_Source\PSoC4/RTC.h **** #define RTC_ALARM_DAYOFMONTH_MASK  (0x00000010uL)
 310:Generated_Source\PSoC4/RTC.h **** #define RTC_ALARM_MONTH_MASK       (0x00000020uL)
 311:Generated_Source\PSoC4/RTC.h **** #define RTC_ALARM_YEAR_MASK        (0x00000040uL)
 312:Generated_Source\PSoC4/RTC.h **** 
 313:Generated_Source\PSoC4/RTC.h **** #define RTC_STATUS_DST_OFFSET      (1u)
 314:Generated_Source\PSoC4/RTC.h **** #define RTC_STATUS_ALARM_OFFSET    (2u)
 315:Generated_Source\PSoC4/RTC.h **** #define RTC_STATUS_LY_OFFSET       (3u)
 316:Generated_Source\PSoC4/RTC.h **** #define RTC_STATUS_AM_PM_OFFSET    (4u)
 317:Generated_Source\PSoC4/RTC.h **** 
 318:Generated_Source\PSoC4/RTC.h **** /* Definition of the RTC status values. */
ARM GAS  C:\DOCUME~1\Admin\LOCALS~1\Temp\ccgAuayf.s 			page 7


 319:Generated_Source\PSoC4/RTC.h **** #define RTC_STATUS_DST             (1uL << RTC_STATUS_DST_OFFSET)
 320:Generated_Source\PSoC4/RTC.h **** #define RTC_STATUS_LY              (1uL << RTC_STATUS_LY_OFFSET)
 321:Generated_Source\PSoC4/RTC.h **** #define RTC_STATUS_AM_PM           (1uL << RTC_STATUS_AM_PM_OFFSET)
 322:Generated_Source\PSoC4/RTC.h **** 
 323:Generated_Source\PSoC4/RTC.h **** /* Number of bits per one BCD digit. */
 324:Generated_Source\PSoC4/RTC.h **** #define RTC_BCD_NUMBER_SIZE        (4u)
 325:Generated_Source\PSoC4/RTC.h **** #define RTC_BCD_ONE_DIGIT_MASK     (0x0000000FuL)
 326:Generated_Source\PSoC4/RTC.h **** 
 327:Generated_Source\PSoC4/RTC.h **** /*******************************************************************************
 328:Generated_Source\PSoC4/RTC.h **** *    Function Prototypes
 329:Generated_Source\PSoC4/RTC.h **** *******************************************************************************/
 330:Generated_Source\PSoC4/RTC.h **** /**
 331:Generated_Source\PSoC4/RTC.h **** * \addtogroup group_api
 332:Generated_Source\PSoC4/RTC.h **** * @{
 333:Generated_Source\PSoC4/RTC.h **** */
 334:Generated_Source\PSoC4/RTC.h **** void   RTC_Start(void);
 335:Generated_Source\PSoC4/RTC.h **** void   RTC_Stop(void);
 336:Generated_Source\PSoC4/RTC.h **** void   RTC_Init(void);
 337:Generated_Source\PSoC4/RTC.h **** void   RTC_SetUnixTime(uint64 unixTime);
 338:Generated_Source\PSoC4/RTC.h **** uint64 RTC_GetUnixTime(void);
 339:Generated_Source\PSoC4/RTC.h **** void   RTC_SetPeriod(uint32 ticks, uint32 refOneSecTicks);
 340:Generated_Source\PSoC4/RTC.h **** uint32 RTC_GetPeriod(void);
 341:Generated_Source\PSoC4/RTC.h **** uint32 RTC_GetRefOneSec(void);
 342:Generated_Source\PSoC4/RTC.h **** void   RTC_SetDateAndTime(uint32 inputTime, uint32 inputDate);
 343:Generated_Source\PSoC4/RTC.h **** void   RTC_GetDateAndTime(RTC_DATE_TIME* dateTime);
 344:Generated_Source\PSoC4/RTC.h **** uint32 RTC_GetTime(void);
 345:Generated_Source\PSoC4/RTC.h **** uint32 RTC_GetDate(void);
 346:Generated_Source\PSoC4/RTC.h **** void   RTC_SetAlarmDateAndTime(const RTC_DATE_TIME* alarmTime);
 347:Generated_Source\PSoC4/RTC.h **** void   RTC_GetAlarmDateAndTime(RTC_DATE_TIME* alarmTimeDate);
 348:Generated_Source\PSoC4/RTC.h **** void   RTC_SetAlarmMask(uint32 mask);
 349:Generated_Source\PSoC4/RTC.h **** uint32 RTC_GetAlarmMask(void);
 350:Generated_Source\PSoC4/RTC.h **** uint32 RTC_ReadStatus(void);
 351:Generated_Source\PSoC4/RTC.h **** uint32 RTC_GetAlarmStatus(void);
 352:Generated_Source\PSoC4/RTC.h **** void   RTC_ClearAlarmStatus(void);
 353:Generated_Source\PSoC4/RTC.h **** void   RTC_SetDSTStartTime(const RTC_DST_TIME* dstStartTime,
 354:Generated_Source\PSoC4/RTC.h ****                                               RTC_DST_DATETYPE_ENUM type);
 355:Generated_Source\PSoC4/RTC.h **** void   RTC_SetDSTStopTime(const RTC_DST_TIME* dstStopTime,
 356:Generated_Source\PSoC4/RTC.h ****                                              RTC_DST_DATETYPE_ENUM type);
 357:Generated_Source\PSoC4/RTC.h **** uint32 RTC_ConvertBCDToDec(uint32 bcdNum);
 358:Generated_Source\PSoC4/RTC.h **** uint32 RTC_ConvertDecToBCD(uint32 decNum);
 359:Generated_Source\PSoC4/RTC.h **** void   RTC_Update(void);
 360:Generated_Source\PSoC4/RTC.h **** void*  RTC_SetAlarmHandler(void (*CallbackFunction)(void));
 361:Generated_Source\PSoC4/RTC.h **** 
 362:Generated_Source\PSoC4/RTC.h **** static uint32 RTC_ConstructDate(uint32 month, uint32 day, uint32 year);
 363:Generated_Source\PSoC4/RTC.h **** static uint32 RTC_ConstructTime(uint32 timeFormat, uint32 stateAmPm, uint32 hour, uint32 min, uint3
 364:Generated_Source\PSoC4/RTC.h **** /** @} api */
 365:Generated_Source\PSoC4/RTC.h **** 
 366:Generated_Source\PSoC4/RTC.h **** static uint32 RTC_GetTimeFormat(uint32 inputTime);
 367:Generated_Source\PSoC4/RTC.h **** static uint32 RTC_SetTimeFormat(uint32 inputTime, uint32 timeFormat);
 368:Generated_Source\PSoC4/RTC.h **** 
 369:Generated_Source\PSoC4/RTC.h **** /**
 370:Generated_Source\PSoC4/RTC.h **** * \addtogroup group_api
 371:Generated_Source\PSoC4/RTC.h **** * @{
 372:Generated_Source\PSoC4/RTC.h **** */
 373:Generated_Source\PSoC4/RTC.h **** static uint32 RTC_LeapYear(uint32 year);
 374:Generated_Source\PSoC4/RTC.h **** static uint32 RTC_IsBitSet(uint32 var, uint32 mask);
 375:Generated_Source\PSoC4/RTC.h **** static uint32 RTC_GetSecond(uint32 inputTime);
ARM GAS  C:\DOCUME~1\Admin\LOCALS~1\Temp\ccgAuayf.s 			page 8


 376:Generated_Source\PSoC4/RTC.h **** static uint32 RTC_GetMinutes(uint32 inputTime);
 377:Generated_Source\PSoC4/RTC.h **** static uint32 RTC_GetHours(uint32 inputTime);
 378:Generated_Source\PSoC4/RTC.h **** static uint32 RTC_GetAmPm(uint32 inputTime);
 379:Generated_Source\PSoC4/RTC.h **** static uint32 RTC_GetDay(uint32 date);
 380:Generated_Source\PSoC4/RTC.h **** static uint32 RTC_GetMonth(uint32 date);
 381:Generated_Source\PSoC4/RTC.h **** static uint32 RTC_GetYear(uint32 date);
 382:Generated_Source\PSoC4/RTC.h **** /** @} api */
 383:Generated_Source\PSoC4/RTC.h **** 
 384:Generated_Source\PSoC4/RTC.h **** static uint32 RTC_SetSecond(uint32 inputTime, uint32 inputSecond);
 385:Generated_Source\PSoC4/RTC.h **** static uint32 RTC_SetMinutes(uint32 inputTime, uint32 inputMinute);
 386:Generated_Source\PSoC4/RTC.h **** static uint32 RTC_SetHours(uint32 inputTime, uint32 inputHours);
 387:Generated_Source\PSoC4/RTC.h **** static uint32 RTC_SetAmPm(uint32 inputTime, uint32 periodOfDay);
 388:Generated_Source\PSoC4/RTC.h **** static uint32 RTC_SetDay(uint32 inputDate, uint32 inputDay);
 389:Generated_Source\PSoC4/RTC.h **** static uint32 RTC_SetMonth(uint32 inputDate, uint32 inputMonth);
 390:Generated_Source\PSoC4/RTC.h **** static uint32 RTC_SetYear(uint32 inputDate, uint32 inputYear);
 391:Generated_Source\PSoC4/RTC.h **** 
 392:Generated_Source\PSoC4/RTC.h **** uint64 RTC_ConstructUnixAlarmTime(const RTC_DATE_TIME* alarmTime, uint8 alarmCfgMask);
 393:Generated_Source\PSoC4/RTC.h **** uint64 RTC_GetDstUnixTime(const RTC_DST_TIME* dstTime);
 394:Generated_Source\PSoC4/RTC.h **** uint64 RTC_GetNexAlarmTime(uint64 curUnixTime, uint8 alarmCfgMask);
 395:Generated_Source\PSoC4/RTC.h **** 
 396:Generated_Source\PSoC4/RTC.h **** static uint32 RTC_GetNextMinSec(uint32 curVal);
 397:Generated_Source\PSoC4/RTC.h **** static uint32 RTC_GetNextHour(uint32 curVal);
 398:Generated_Source\PSoC4/RTC.h **** static uint32 RTC_GetNextDay(uint32 curYear, uint32 curMonth, uint32 curDay, uint32 alarmCfgMask);
 399:Generated_Source\PSoC4/RTC.h **** static uint32 RTC_GetNextMonth(uint32 curMonth);
 400:Generated_Source\PSoC4/RTC.h **** static uint32 RTC_GetNextYear(uint32 curYear);
 401:Generated_Source\PSoC4/RTC.h **** static uint32 RTC_GetDayOfWeek(uint32 day, uint32 month, uint32 year);
 402:Generated_Source\PSoC4/RTC.h **** 
 403:Generated_Source\PSoC4/RTC.h **** uint32 RTC_DaysInMonth(uint32 month, uint32 year);
 404:Generated_Source\PSoC4/RTC.h **** uint32 RTC_DaysBeforeMonth(uint32 month, uint32 year);
 405:Generated_Source\PSoC4/RTC.h **** 
 406:Generated_Source\PSoC4/RTC.h **** /**
 407:Generated_Source\PSoC4/RTC.h **** * \addtogroup group_api
 408:Generated_Source\PSoC4/RTC.h **** * @{
 409:Generated_Source\PSoC4/RTC.h **** */
 410:Generated_Source\PSoC4/RTC.h **** void   RTC_UnixToDateTime(RTC_DATE_TIME* dateTime, uint64 unixTime, uint32 timeFormat);
 411:Generated_Source\PSoC4/RTC.h **** uint64 RTC_DateTimeToUnix(uint32 inputDate, uint32 inputTime);
 412:Generated_Source\PSoC4/RTC.h **** /** @} api */
 413:Generated_Source\PSoC4/RTC.h **** 
 414:Generated_Source\PSoC4/RTC.h **** uint32 RTC_RelativeToFixed(uint32 dayOfWeek, uint32 weekOfMonth, uint32 month, uint32 year);
 415:Generated_Source\PSoC4/RTC.h **** 
 416:Generated_Source\PSoC4/RTC.h **** 
 417:Generated_Source\PSoC4/RTC.h **** #if defined(CYDEV_RTC_SOURCE_WDT)
 418:Generated_Source\PSoC4/RTC.h ****     #if((0u != CYDEV_WDT_GENERATE_ISR) && (0u == RTC_INITIAL_UPDATE_MODE))
 419:Generated_Source\PSoC4/RTC.h ****         static void RTC_CySysRtcSetCallback(uint32 wdtNumber);
 420:Generated_Source\PSoC4/RTC.h ****         static void RTC_CySysRtcResetCallback(uint32 wdtNumber);
 421:Generated_Source\PSoC4/RTC.h ****     #endif /* ((0u != CYDEV_WDT_GENERATE_ISR) && (0u == RTC_INITIAL_UPDATE_MODE)) */
 422:Generated_Source\PSoC4/RTC.h **** #endif /* (CYDEV_RTC_SOURCE_WDT) */
 423:Generated_Source\PSoC4/RTC.h **** 
 424:Generated_Source\PSoC4/RTC.h **** /*******************************************************************************
 425:Generated_Source\PSoC4/RTC.h **** * Function Name: RTC_IsBitSet
 426:Generated_Source\PSoC4/RTC.h **** ****************************************************************************//**
 427:Generated_Source\PSoC4/RTC.h **** *
 428:Generated_Source\PSoC4/RTC.h **** * \brief
 429:Generated_Source\PSoC4/RTC.h **** *  Checks the state of a bit passed through parameter.
 430:Generated_Source\PSoC4/RTC.h **** *
 431:Generated_Source\PSoC4/RTC.h **** * \param
 432:Generated_Source\PSoC4/RTC.h **** *  var The variable to be checked.
ARM GAS  C:\DOCUME~1\Admin\LOCALS~1\Temp\ccgAuayf.s 			page 9


 433:Generated_Source\PSoC4/RTC.h **** * \param
 434:Generated_Source\PSoC4/RTC.h **** *  mask The mask for a bit to be checked.
 435:Generated_Source\PSoC4/RTC.h **** *
 436:Generated_Source\PSoC4/RTC.h **** * \return
 437:Generated_Source\PSoC4/RTC.h **** *  0u - Bit is not set.
 438:Generated_Source\PSoC4/RTC.h **** * \return
 439:Generated_Source\PSoC4/RTC.h **** *  1u - Bit is set.
 440:Generated_Source\PSoC4/RTC.h **** *
 441:Generated_Source\PSoC4/RTC.h **** *******************************************************************************/
 442:Generated_Source\PSoC4/RTC.h **** static CY_INLINE uint32 RTC_IsBitSet(uint32 var, uint32 mask)
 443:Generated_Source\PSoC4/RTC.h **** {
  25              		.loc 1 443 0
  26              		.cfi_startproc
  27 0000 80B5     		push	{r7, lr}
  28              		.cfi_def_cfa_offset 8
  29              		.cfi_offset 7, -8
  30              		.cfi_offset 14, -4
  31 0002 82B0     		sub	sp, sp, #8
  32              		.cfi_def_cfa_offset 16
  33 0004 00AF     		add	r7, sp, #0
  34              		.cfi_def_cfa_register 7
  35 0006 7860     		str	r0, [r7, #4]
  36 0008 3960     		str	r1, [r7]
 444:Generated_Source\PSoC4/RTC.h ****     return ((mask == (var & mask)) ? 1Lu : 0Lu);
  37              		.loc 1 444 0
  38 000a 7B68     		ldr	r3, [r7, #4]
  39 000c 3A68     		ldr	r2, [r7]
  40 000e 1A40     		and	r2, r3
  41 0010 3B68     		ldr	r3, [r7]
  42 0012 9A42     		cmp	r2, r3
  43 0014 01D1     		bne	.L2
  44              		.loc 1 444 0 is_stmt 0 discriminator 1
  45 0016 0123     		mov	r3, #1
  46 0018 00E0     		b	.L3
  47              	.L2:
  48              		.loc 1 444 0 discriminator 2
  49 001a 0023     		mov	r3, #0
  50              	.L3:
 445:Generated_Source\PSoC4/RTC.h **** }
  51              		.loc 1 445 0 is_stmt 1 discriminator 4
  52 001c 181C     		mov	r0, r3
  53 001e BD46     		mov	sp, r7
  54 0020 02B0     		add	sp, sp, #8
  55              		@ sp needed
  56 0022 80BD     		pop	{r7, pc}
  57              		.cfi_endproc
  58              	.LFE2:
  59              		.size	RTC_IsBitSet, .-RTC_IsBitSet
  60              		.section	.text.RTC_GetSecond,"ax",%progbits
  61              		.align	2
  62              		.code	16
  63              		.thumb_func
  64              		.type	RTC_GetSecond, %function
  65              	RTC_GetSecond:
  66              	.LFB4:
 446:Generated_Source\PSoC4/RTC.h **** 
 447:Generated_Source\PSoC4/RTC.h **** 
ARM GAS  C:\DOCUME~1\Admin\LOCALS~1\Temp\ccgAuayf.s 			page 10


 448:Generated_Source\PSoC4/RTC.h **** /*******************************************************************************
 449:Generated_Source\PSoC4/RTC.h **** * Function Name: RTC_LeapYear
 450:Generated_Source\PSoC4/RTC.h **** ****************************************************************************//**
 451:Generated_Source\PSoC4/RTC.h **** *
 452:Generated_Source\PSoC4/RTC.h **** * \brief
 453:Generated_Source\PSoC4/RTC.h **** * Checks whether the year passed through the parameter is
 454:Generated_Source\PSoC4/RTC.h **** * leap or no.
 455:Generated_Source\PSoC4/RTC.h **** *
 456:Generated_Source\PSoC4/RTC.h **** * \param
 457:Generated_Source\PSoC4/RTC.h **** *  year The year to be checked.
 458:Generated_Source\PSoC4/RTC.h **** *
 459:Generated_Source\PSoC4/RTC.h **** *
 460:Generated_Source\PSoC4/RTC.h **** * \return
 461:Generated_Source\PSoC4/RTC.h **** *  0u - The year is not leap.
 462:Generated_Source\PSoC4/RTC.h **** * \return
 463:Generated_Source\PSoC4/RTC.h **** *  1u - The year is leap.
 464:Generated_Source\PSoC4/RTC.h **** *
 465:Generated_Source\PSoC4/RTC.h **** *******************************************************************************/
 466:Generated_Source\PSoC4/RTC.h **** static CY_INLINE uint32 RTC_LeapYear(uint32 year)
 467:Generated_Source\PSoC4/RTC.h **** {
 468:Generated_Source\PSoC4/RTC.h ****     uint32 retVal;
 469:Generated_Source\PSoC4/RTC.h **** 
 470:Generated_Source\PSoC4/RTC.h ****     if(((0u == (year % 4Lu)) && (0u != (year % 100Lu))) || (0u == (year % 400Lu)))
 471:Generated_Source\PSoC4/RTC.h ****     {
 472:Generated_Source\PSoC4/RTC.h ****         retVal = 1uL;
 473:Generated_Source\PSoC4/RTC.h ****     }
 474:Generated_Source\PSoC4/RTC.h ****     else
 475:Generated_Source\PSoC4/RTC.h ****     {
 476:Generated_Source\PSoC4/RTC.h ****         retVal = 0uL;
 477:Generated_Source\PSoC4/RTC.h ****     }
 478:Generated_Source\PSoC4/RTC.h **** 
 479:Generated_Source\PSoC4/RTC.h ****     return(retVal);
 480:Generated_Source\PSoC4/RTC.h **** }
 481:Generated_Source\PSoC4/RTC.h **** 
 482:Generated_Source\PSoC4/RTC.h **** 
 483:Generated_Source\PSoC4/RTC.h **** /*******************************************************************************
 484:Generated_Source\PSoC4/RTC.h **** * Function Name: RTC_GetSecond
 485:Generated_Source\PSoC4/RTC.h **** ****************************************************************************//**
 486:Generated_Source\PSoC4/RTC.h **** *
 487:Generated_Source\PSoC4/RTC.h **** * \brief
 488:Generated_Source\PSoC4/RTC.h **** *  Returns the seconds value from the time value that is passed as a/the parameter.
 489:Generated_Source\PSoC4/RTC.h **** *
 490:Generated_Source\PSoC4/RTC.h **** * \param
 491:Generated_Source\PSoC4/RTC.h **** *  time The time value.
 492:Generated_Source\PSoC4/RTC.h **** *
 493:Generated_Source\PSoC4/RTC.h **** * \return
 494:Generated_Source\PSoC4/RTC.h **** *  The seconds value.
 495:Generated_Source\PSoC4/RTC.h **** *
 496:Generated_Source\PSoC4/RTC.h **** *******************************************************************************/
 497:Generated_Source\PSoC4/RTC.h **** static CY_INLINE uint32 RTC_GetSecond(uint32 inputTime)
 498:Generated_Source\PSoC4/RTC.h **** {
  67              		.loc 1 498 0
  68              		.cfi_startproc
  69 0000 80B5     		push	{r7, lr}
  70              		.cfi_def_cfa_offset 8
  71              		.cfi_offset 7, -8
  72              		.cfi_offset 14, -4
ARM GAS  C:\DOCUME~1\Admin\LOCALS~1\Temp\ccgAuayf.s 			page 11


  73 0002 84B0     		sub	sp, sp, #16
  74              		.cfi_def_cfa_offset 24
  75 0004 00AF     		add	r7, sp, #0
  76              		.cfi_def_cfa_register 7
  77 0006 7860     		str	r0, [r7, #4]
 499:Generated_Source\PSoC4/RTC.h ****     uint32 retVal;
 500:Generated_Source\PSoC4/RTC.h **** 
 501:Generated_Source\PSoC4/RTC.h ****     retVal  = ((inputTime & RTC_10_SECONDS_MASK) >> RTC_10_SECONDS_OFFSET) * 10u;
  78              		.loc 1 501 0
  79 0008 7B68     		ldr	r3, [r7, #4]
  80 000a 7022     		mov	r2, #112
  81 000c 1340     		and	r3, r2
  82 000e 1A09     		lsr	r2, r3, #4
  83 0010 131C     		mov	r3, r2
  84 0012 9B00     		lsl	r3, r3, #2
  85 0014 9B18     		add	r3, r3, r2
  86 0016 5B00     		lsl	r3, r3, #1
  87 0018 FB60     		str	r3, [r7, #12]
 502:Generated_Source\PSoC4/RTC.h ****     retVal += (inputTime & RTC_SECONDS_MASK) >> RTC_SECONDS_OFFSET;
  88              		.loc 1 502 0
  89 001a 7B68     		ldr	r3, [r7, #4]
  90 001c 0F22     		mov	r2, #15
  91 001e 1340     		and	r3, r2
  92 0020 FA68     		ldr	r2, [r7, #12]
  93 0022 D318     		add	r3, r2, r3
  94 0024 FB60     		str	r3, [r7, #12]
 503:Generated_Source\PSoC4/RTC.h **** 
 504:Generated_Source\PSoC4/RTC.h ****     return (retVal);
  95              		.loc 1 504 0
  96 0026 FB68     		ldr	r3, [r7, #12]
 505:Generated_Source\PSoC4/RTC.h **** }
  97              		.loc 1 505 0
  98 0028 181C     		mov	r0, r3
  99 002a BD46     		mov	sp, r7
 100 002c 04B0     		add	sp, sp, #16
 101              		@ sp needed
 102 002e 80BD     		pop	{r7, pc}
 103              		.cfi_endproc
 104              	.LFE4:
 105              		.size	RTC_GetSecond, .-RTC_GetSecond
 106              		.section	.text.RTC_GetMinutes,"ax",%progbits
 107              		.align	2
 108              		.code	16
 109              		.thumb_func
 110              		.type	RTC_GetMinutes, %function
 111              	RTC_GetMinutes:
 112              	.LFB5:
 506:Generated_Source\PSoC4/RTC.h **** 
 507:Generated_Source\PSoC4/RTC.h **** 
 508:Generated_Source\PSoC4/RTC.h **** /*******************************************************************************
 509:Generated_Source\PSoC4/RTC.h **** * Function Name: RTC_GetMinutes
 510:Generated_Source\PSoC4/RTC.h **** ****************************************************************************//**
 511:Generated_Source\PSoC4/RTC.h **** *
 512:Generated_Source\PSoC4/RTC.h **** * \brief
 513:Generated_Source\PSoC4/RTC.h **** *  Returns the minutes value from the time value that is passed as a/the 
 514:Generated_Source\PSoC4/RTC.h **** * parameter.
 515:Generated_Source\PSoC4/RTC.h **** *
ARM GAS  C:\DOCUME~1\Admin\LOCALS~1\Temp\ccgAuayf.s 			page 12


 516:Generated_Source\PSoC4/RTC.h **** * \param
 517:Generated_Source\PSoC4/RTC.h **** *  time The time value.
 518:Generated_Source\PSoC4/RTC.h **** *
 519:Generated_Source\PSoC4/RTC.h **** * \return
 520:Generated_Source\PSoC4/RTC.h **** *  The minutes value.
 521:Generated_Source\PSoC4/RTC.h **** *
 522:Generated_Source\PSoC4/RTC.h **** *******************************************************************************/
 523:Generated_Source\PSoC4/RTC.h **** static CY_INLINE uint32 RTC_GetMinutes(uint32 inputTime)
 524:Generated_Source\PSoC4/RTC.h **** {
 113              		.loc 1 524 0
 114              		.cfi_startproc
 115 0000 80B5     		push	{r7, lr}
 116              		.cfi_def_cfa_offset 8
 117              		.cfi_offset 7, -8
 118              		.cfi_offset 14, -4
 119 0002 84B0     		sub	sp, sp, #16
 120              		.cfi_def_cfa_offset 24
 121 0004 00AF     		add	r7, sp, #0
 122              		.cfi_def_cfa_register 7
 123 0006 7860     		str	r0, [r7, #4]
 525:Generated_Source\PSoC4/RTC.h ****     uint32 retVal;
 526:Generated_Source\PSoC4/RTC.h **** 
 527:Generated_Source\PSoC4/RTC.h ****     retVal  = ((inputTime & RTC_10_MINUTES_MASK) >> RTC_10_MINUTES_OFFSET) * 10u;
 124              		.loc 1 527 0
 125 0008 7A68     		ldr	r2, [r7, #4]
 126 000a E023     		mov	r3, #224
 127 000c DB01     		lsl	r3, r3, #7
 128 000e 1340     		and	r3, r2
 129 0010 1A0B     		lsr	r2, r3, #12
 130 0012 131C     		mov	r3, r2
 131 0014 9B00     		lsl	r3, r3, #2
 132 0016 9B18     		add	r3, r3, r2
 133 0018 5B00     		lsl	r3, r3, #1
 134 001a FB60     		str	r3, [r7, #12]
 528:Generated_Source\PSoC4/RTC.h ****     retVal += (inputTime & RTC_MINUTES_MASK) >> RTC_MINUTES_OFFSET;
 135              		.loc 1 528 0
 136 001c 7A68     		ldr	r2, [r7, #4]
 137 001e F023     		mov	r3, #240
 138 0020 1B01     		lsl	r3, r3, #4
 139 0022 1340     		and	r3, r2
 140 0024 1B0A     		lsr	r3, r3, #8
 141 0026 FA68     		ldr	r2, [r7, #12]
 142 0028 D318     		add	r3, r2, r3
 143 002a FB60     		str	r3, [r7, #12]
 529:Generated_Source\PSoC4/RTC.h **** 
 530:Generated_Source\PSoC4/RTC.h ****     return (retVal);
 144              		.loc 1 530 0
 145 002c FB68     		ldr	r3, [r7, #12]
 531:Generated_Source\PSoC4/RTC.h **** }
 146              		.loc 1 531 0
 147 002e 181C     		mov	r0, r3
 148 0030 BD46     		mov	sp, r7
 149 0032 04B0     		add	sp, sp, #16
 150              		@ sp needed
 151 0034 80BD     		pop	{r7, pc}
 152              		.cfi_endproc
 153              	.LFE5:
ARM GAS  C:\DOCUME~1\Admin\LOCALS~1\Temp\ccgAuayf.s 			page 13


 154              		.size	RTC_GetMinutes, .-RTC_GetMinutes
 155 0036 C046     		.section	.text.RTC_GetHours,"ax",%progbits
 156              		.align	2
 157              		.code	16
 158              		.thumb_func
 159              		.type	RTC_GetHours, %function
 160              	RTC_GetHours:
 161              	.LFB6:
 532:Generated_Source\PSoC4/RTC.h **** 
 533:Generated_Source\PSoC4/RTC.h **** 
 534:Generated_Source\PSoC4/RTC.h **** /*******************************************************************************
 535:Generated_Source\PSoC4/RTC.h **** * Function Name: RTC_GetHours
 536:Generated_Source\PSoC4/RTC.h **** ****************************************************************************//**
 537:Generated_Source\PSoC4/RTC.h **** *
 538:Generated_Source\PSoC4/RTC.h **** * \brief
 539:Generated_Source\PSoC4/RTC.h **** *  Returns the hours value from the time value that is passed as a/the parameter.
 540:Generated_Source\PSoC4/RTC.h **** *
 541:Generated_Source\PSoC4/RTC.h **** * \param
 542:Generated_Source\PSoC4/RTC.h **** *  time The time value.
 543:Generated_Source\PSoC4/RTC.h **** *
 544:Generated_Source\PSoC4/RTC.h **** * \return
 545:Generated_Source\PSoC4/RTC.h **** *  The hours value.
 546:Generated_Source\PSoC4/RTC.h **** *
 547:Generated_Source\PSoC4/RTC.h **** *******************************************************************************/
 548:Generated_Source\PSoC4/RTC.h **** static CY_INLINE uint32 RTC_GetHours(uint32 inputTime)
 549:Generated_Source\PSoC4/RTC.h **** {
 162              		.loc 1 549 0
 163              		.cfi_startproc
 164 0000 80B5     		push	{r7, lr}
 165              		.cfi_def_cfa_offset 8
 166              		.cfi_offset 7, -8
 167              		.cfi_offset 14, -4
 168 0002 84B0     		sub	sp, sp, #16
 169              		.cfi_def_cfa_offset 24
 170 0004 00AF     		add	r7, sp, #0
 171              		.cfi_def_cfa_register 7
 172 0006 7860     		str	r0, [r7, #4]
 550:Generated_Source\PSoC4/RTC.h ****     uint32 retVal;
 551:Generated_Source\PSoC4/RTC.h **** 
 552:Generated_Source\PSoC4/RTC.h ****     retVal  = ((inputTime & RTC_10_HOURS_MASK) >> RTC_10_HOURS_OFFSET) * 10u;
 173              		.loc 1 552 0
 174 0008 7A68     		ldr	r2, [r7, #4]
 175 000a C023     		mov	r3, #192
 176 000c 9B03     		lsl	r3, r3, #14
 177 000e 1340     		and	r3, r2
 178 0010 1A0D     		lsr	r2, r3, #20
 179 0012 131C     		mov	r3, r2
 180 0014 9B00     		lsl	r3, r3, #2
 181 0016 9B18     		add	r3, r3, r2
 182 0018 5B00     		lsl	r3, r3, #1
 183 001a FB60     		str	r3, [r7, #12]
 553:Generated_Source\PSoC4/RTC.h ****     retVal += (inputTime & RTC_HOURS_MASK) >> RTC_HOURS_OFFSET;
 184              		.loc 1 553 0
 185 001c 7A68     		ldr	r2, [r7, #4]
 186 001e F023     		mov	r3, #240
 187 0020 1B03     		lsl	r3, r3, #12
 188 0022 1340     		and	r3, r2
ARM GAS  C:\DOCUME~1\Admin\LOCALS~1\Temp\ccgAuayf.s 			page 14


 189 0024 1B0C     		lsr	r3, r3, #16
 190 0026 FA68     		ldr	r2, [r7, #12]
 191 0028 D318     		add	r3, r2, r3
 192 002a FB60     		str	r3, [r7, #12]
 554:Generated_Source\PSoC4/RTC.h **** 
 555:Generated_Source\PSoC4/RTC.h ****     return (retVal);
 193              		.loc 1 555 0
 194 002c FB68     		ldr	r3, [r7, #12]
 556:Generated_Source\PSoC4/RTC.h **** }
 195              		.loc 1 556 0
 196 002e 181C     		mov	r0, r3
 197 0030 BD46     		mov	sp, r7
 198 0032 04B0     		add	sp, sp, #16
 199              		@ sp needed
 200 0034 80BD     		pop	{r7, pc}
 201              		.cfi_endproc
 202              	.LFE6:
 203              		.size	RTC_GetHours, .-RTC_GetHours
 204 0036 C046     		.section	.text.RTC_GetAmPm,"ax",%progbits
 205              		.align	2
 206              		.code	16
 207              		.thumb_func
 208              		.type	RTC_GetAmPm, %function
 209              	RTC_GetAmPm:
 210              	.LFB7:
 557:Generated_Source\PSoC4/RTC.h **** 
 558:Generated_Source\PSoC4/RTC.h **** 
 559:Generated_Source\PSoC4/RTC.h **** /*******************************************************************************
 560:Generated_Source\PSoC4/RTC.h **** * Function Name: RTC_GetAmPm
 561:Generated_Source\PSoC4/RTC.h **** ****************************************************************************//**
 562:Generated_Source\PSoC4/RTC.h **** *
 563:Generated_Source\PSoC4/RTC.h **** * \brief
 564:Generated_Source\PSoC4/RTC.h **** *  Returns the AM/PM status from the time value that is passed as parameter.
 565:Generated_Source\PSoC4/RTC.h **** *
 566:Generated_Source\PSoC4/RTC.h **** * \param
 567:Generated_Source\PSoC4/RTC.h **** *  time The time value.
 568:Generated_Source\PSoC4/RTC.h **** *
 569:Generated_Source\PSoC4/RTC.h **** * \return
 570:Generated_Source\PSoC4/RTC.h **** *  RTC_AM - AM.
 571:Generated_Source\PSoC4/RTC.h **** * \return
 572:Generated_Source\PSoC4/RTC.h **** *  RTC_PM - PM.
 573:Generated_Source\PSoC4/RTC.h **** *
 574:Generated_Source\PSoC4/RTC.h **** *******************************************************************************/
 575:Generated_Source\PSoC4/RTC.h **** static CY_INLINE uint32 RTC_GetAmPm(uint32 inputTime)
 576:Generated_Source\PSoC4/RTC.h **** {
 211              		.loc 1 576 0
 212              		.cfi_startproc
 213 0000 80B5     		push	{r7, lr}
 214              		.cfi_def_cfa_offset 8
 215              		.cfi_offset 7, -8
 216              		.cfi_offset 14, -4
 217 0002 82B0     		sub	sp, sp, #8
 218              		.cfi_def_cfa_offset 16
 219 0004 00AF     		add	r7, sp, #0
 220              		.cfi_def_cfa_register 7
 221 0006 7860     		str	r0, [r7, #4]
 577:Generated_Source\PSoC4/RTC.h ****     return (RTC_IsBitSet(inputTime, RTC_PERIOD_OF_DAY_MASK));
ARM GAS  C:\DOCUME~1\Admin\LOCALS~1\Temp\ccgAuayf.s 			page 15


 222              		.loc 1 577 0
 223 0008 7A68     		ldr	r2, [r7, #4]
 224 000a 8023     		mov	r3, #128
 225 000c DB03     		lsl	r3, r3, #15
 226 000e 101C     		mov	r0, r2
 227 0010 191C     		mov	r1, r3
 228 0012 FFF7FEFF 		bl	RTC_IsBitSet
 229 0016 031C     		mov	r3, r0
 578:Generated_Source\PSoC4/RTC.h **** }
 230              		.loc 1 578 0
 231 0018 181C     		mov	r0, r3
 232 001a BD46     		mov	sp, r7
 233 001c 02B0     		add	sp, sp, #8
 234              		@ sp needed
 235 001e 80BD     		pop	{r7, pc}
 236              		.cfi_endproc
 237              	.LFE7:
 238              		.size	RTC_GetAmPm, .-RTC_GetAmPm
 239              		.bss
 240              		.align	1
 241              	minMs:
 242 0000 0000     		.space	2
 243              		.align	1
 244              	maxMs:
 245 0002 0000     		.space	2
 246              		.comm	tmpMs,2,2
 247 0004 00000000 		.align	3
 248              	time:
 249 0008 00000000 		.space	8
 249      00000000 
 250              		.global	RTCSyncWithDS
 251              		.align	2
 252              		.type	RTCSyncWithDS, %object
 253              		.size	RTCSyncWithDS, 4
 254              	RTCSyncWithDS:
 255 0010 00000000 		.space	4
 256              		.global	msRTC
 257              		.align	1
 258              		.type	msRTC, %object
 259              		.size	msRTC, 2
 260              	msRTC:
 261 0014 0000     		.space	2
 262 0016 0000     		.section	.text.CallBackCounter,"ax",%progbits
 263              		.align	2
 264              		.global	CallBackCounter
 265              		.code	16
 266              		.thumb_func
 267              		.type	CallBackCounter, %function
 268              	CallBackCounter:
 269              	.LFB63:
 270              		.file 2 ".\\lib_RTC\\RTC_WDT.c"
   1:.\lib_RTC/RTC_WDT.c **** /* ========================================
   2:.\lib_RTC/RTC_WDT.c ****  *
   3:.\lib_RTC/RTC_WDT.c ****  * Copyright YOUR COMPANY, THE YEAR
   4:.\lib_RTC/RTC_WDT.c ****  * All Rights Reserved
   5:.\lib_RTC/RTC_WDT.c ****  * UNPUBLISHED, LICENSED SOFTWARE.
   6:.\lib_RTC/RTC_WDT.c ****  *
ARM GAS  C:\DOCUME~1\Admin\LOCALS~1\Temp\ccgAuayf.s 			page 16


   7:.\lib_RTC/RTC_WDT.c ****  * CONFIDENTIAL AND PROPRIETARY INFORMATION
   8:.\lib_RTC/RTC_WDT.c ****  * WHICH IS THE PROPERTY OF your company.
   9:.\lib_RTC/RTC_WDT.c ****  *
  10:.\lib_RTC/RTC_WDT.c ****  * ========================================
  11:.\lib_RTC/RTC_WDT.c **** */
  12:.\lib_RTC/RTC_WDT.c **** 
  13:.\lib_RTC/RTC_WDT.c **** #include "lib_RTC\RTC_WDT.h"
  14:.\lib_RTC/RTC_WDT.c **** #include <SW_UART_PC.h>
  15:.\lib_RTC/RTC_WDT.c **** 
  16:.\lib_RTC/RTC_WDT.c **** static uint64_t time;
  17:.\lib_RTC/RTC_WDT.c **** 
  18:.\lib_RTC/RTC_WDT.c **** uint32_t RTCSyncWithDS = 0;
  19:.\lib_RTC/RTC_WDT.c **** 
  20:.\lib_RTC/RTC_WDT.c **** #ifdef USE_WDT_RTC
  21:.\lib_RTC/RTC_WDT.c **** 
  22:.\lib_RTC/RTC_WDT.c ****     uint16_t msRTC = 0;
  23:.\lib_RTC/RTC_WDT.c **** 
  24:.\lib_RTC/RTC_WDT.c **** void CallBackCounter()
  25:.\lib_RTC/RTC_WDT.c **** {
 271              		.loc 2 25 0
 272              		.cfi_startproc
 273 0000 80B5     		push	{r7, lr}
 274              		.cfi_def_cfa_offset 8
 275              		.cfi_offset 7, -8
 276              		.cfi_offset 14, -4
 277 0002 00AF     		add	r7, sp, #0
 278              		.cfi_def_cfa_register 7
  26:.\lib_RTC/RTC_WDT.c ****     msRTC++;
 279              		.loc 2 26 0
 280 0004 0C4B     		ldr	r3, .L15
 281 0006 1B88     		ldrh	r3, [r3]
 282 0008 0133     		add	r3, r3, #1
 283 000a 9AB2     		uxth	r2, r3
 284 000c 0A4B     		ldr	r3, .L15
 285 000e 1A80     		strh	r2, [r3]
  27:.\lib_RTC/RTC_WDT.c ****     if (msRTC == 1000u) 
 286              		.loc 2 27 0
 287 0010 094B     		ldr	r3, .L15
 288 0012 1A88     		ldrh	r2, [r3]
 289 0014 FA23     		mov	r3, #250
 290 0016 9B00     		lsl	r3, r3, #2
 291 0018 9A42     		cmp	r2, r3
 292 001a 0AD1     		bne	.L13
  28:.\lib_RTC/RTC_WDT.c ****     {
  29:.\lib_RTC/RTC_WDT.c ****         msRTC = 0u; 
 293              		.loc 2 29 0
 294 001c 064B     		ldr	r3, .L15
 295 001e 0022     		mov	r2, #0
 296 0020 1A80     		strh	r2, [r3]
  30:.\lib_RTC/RTC_WDT.c ****         RTC_Update();
 297              		.loc 2 30 0
 298 0022 FFF7FEFF 		bl	RTC_Update
  31:.\lib_RTC/RTC_WDT.c ****         #ifdef DEBUG_RTC
  32:.\lib_RTC/RTC_WDT.c ****             debug_Write(1);
 299              		.loc 2 32 0
 300 0026 0120     		mov	r0, #1
 301 0028 FFF7FEFF 		bl	debug_Write
ARM GAS  C:\DOCUME~1\Admin\LOCALS~1\Temp\ccgAuayf.s 			page 17


  33:.\lib_RTC/RTC_WDT.c ****             debug_Write(0);
 302              		.loc 2 33 0
 303 002c 0020     		mov	r0, #0
 304 002e FFF7FEFF 		bl	debug_Write
 305              	.L13:
  34:.\lib_RTC/RTC_WDT.c ****         #endif
  35:.\lib_RTC/RTC_WDT.c ****         //SW_UART_PC_PutString("Second Goes\r\n");
  36:.\lib_RTC/RTC_WDT.c ****     }
  37:.\lib_RTC/RTC_WDT.c **** }
 306              		.loc 2 37 0
 307 0032 BD46     		mov	sp, r7
 308              		@ sp needed
 309 0034 80BD     		pop	{r7, pc}
 310              	.L16:
 311 0036 C046     		.align	2
 312              	.L15:
 313 0038 00000000 		.word	msRTC
 314              		.cfi_endproc
 315              	.LFE63:
 316              		.size	CallBackCounter, .-CallBackCounter
 317              		.section	.text.RTC_WDT_Init,"ax",%progbits
 318              		.align	2
 319              		.global	RTC_WDT_Init
 320              		.code	16
 321              		.thumb_func
 322              		.type	RTC_WDT_Init, %function
 323              	RTC_WDT_Init:
 324              	.LFB64:
  38:.\lib_RTC/RTC_WDT.c **** 
  39:.\lib_RTC/RTC_WDT.c **** #endif
  40:.\lib_RTC/RTC_WDT.c **** 
  41:.\lib_RTC/RTC_WDT.c **** #ifdef DEBUG_TIME
  42:.\lib_RTC/RTC_WDT.c **** 
  43:.\lib_RTC/RTC_WDT.c **** static uint16_t timeRestart = 0;
  44:.\lib_RTC/RTC_WDT.c **** 
  45:.\lib_RTC/RTC_WDT.c **** void CallBackCounter2()
  46:.\lib_RTC/RTC_WDT.c **** {
  47:.\lib_RTC/RTC_WDT.c ****     timeRestart++;
  48:.\lib_RTC/RTC_WDT.c ****     if (timeRestart == 120) 
  49:.\lib_RTC/RTC_WDT.c ****     {
  50:.\lib_RTC/RTC_WDT.c ****         timeRestart = 0u; 
  51:.\lib_RTC/RTC_WDT.c ****         debug_reset_fin_Write(0);
  52:.\lib_RTC/RTC_WDT.c ****         CyDelay(100);
  53:.\lib_RTC/RTC_WDT.c ****         debug_reset_fin_Write(1);
  54:.\lib_RTC/RTC_WDT.c ****     }
  55:.\lib_RTC/RTC_WDT.c **** }
  56:.\lib_RTC/RTC_WDT.c **** 
  57:.\lib_RTC/RTC_WDT.c **** #endif
  58:.\lib_RTC/RTC_WDT.c **** 
  59:.\lib_RTC/RTC_WDT.c **** void RTC_WDT_Init(){
 325              		.loc 2 59 0
 326              		.cfi_startproc
 327 0000 80B5     		push	{r7, lr}
 328              		.cfi_def_cfa_offset 8
 329              		.cfi_offset 7, -8
 330              		.cfi_offset 14, -4
 331 0002 82B0     		sub	sp, sp, #8
ARM GAS  C:\DOCUME~1\Admin\LOCALS~1\Temp\ccgAuayf.s 			page 18


 332              		.cfi_def_cfa_offset 16
 333 0004 00AF     		add	r7, sp, #0
 334              		.cfi_def_cfa_register 7
  60:.\lib_RTC/RTC_WDT.c ****     void (*CallBackWDT0)(void);
  61:.\lib_RTC/RTC_WDT.c ****     
  62:.\lib_RTC/RTC_WDT.c ****     CallBackWDT0 = CallBackCounter;
 335              		.loc 2 62 0
 336 0006 064B     		ldr	r3, .L18
 337 0008 7B60     		str	r3, [r7, #4]
  63:.\lib_RTC/RTC_WDT.c ****     
  64:.\lib_RTC/RTC_WDT.c ****     #ifdef DEBUG_TIME
  65:.\lib_RTC/RTC_WDT.c ****     void (*CallBackWDT1)(void);  
  66:.\lib_RTC/RTC_WDT.c ****     CallBackWDT1 = CallBackCounter2;
  67:.\lib_RTC/RTC_WDT.c ****     #endif
  68:.\lib_RTC/RTC_WDT.c ****     
  69:.\lib_RTC/RTC_WDT.c ****     RTC_Start();
 338              		.loc 2 69 0
 339 000a FFF7FEFF 		bl	RTC_Start
  70:.\lib_RTC/RTC_WDT.c ****     
  71:.\lib_RTC/RTC_WDT.c ****     #ifdef USE_WDT_RTC
  72:.\lib_RTC/RTC_WDT.c ****         CySysWdtSetInterruptCallback(0, CallBackWDT0);
 340              		.loc 2 72 0
 341 000e 7B68     		ldr	r3, [r7, #4]
 342 0010 0020     		mov	r0, #0
 343 0012 191C     		mov	r1, r3
 344 0014 FFF7FEFF 		bl	CySysWdtSetInterruptCallback
  73:.\lib_RTC/RTC_WDT.c ****         //WDT0_ISR_StartEx(Wdt0_Handler);
  74:.\lib_RTC/RTC_WDT.c ****     #endif
  75:.\lib_RTC/RTC_WDT.c ****     
  76:.\lib_RTC/RTC_WDT.c ****     #ifdef DEBUG_TIME
  77:.\lib_RTC/RTC_WDT.c ****         CySysWdtSetInterruptCallback(1, CallBackWDT1);
  78:.\lib_RTC/RTC_WDT.c ****         //WDT0_ISR_StartEx(Wdt0_Handler);
  79:.\lib_RTC/RTC_WDT.c ****     #endif
  80:.\lib_RTC/RTC_WDT.c **** }
 345              		.loc 2 80 0
 346 0018 BD46     		mov	sp, r7
 347 001a 02B0     		add	sp, sp, #8
 348              		@ sp needed
 349 001c 80BD     		pop	{r7, pc}
 350              	.L19:
 351 001e C046     		.align	2
 352              	.L18:
 353 0020 00000000 		.word	CallBackCounter
 354              		.cfi_endproc
 355              	.LFE64:
 356              		.size	RTC_WDT_Init, .-RTC_WDT_Init
 357              		.section	.text.RTCSynced,"ax",%progbits
 358              		.align	2
 359              		.global	RTCSynced
 360              		.code	16
 361              		.thumb_func
 362              		.type	RTCSynced, %function
 363              	RTCSynced:
 364              	.LFB65:
  81:.\lib_RTC/RTC_WDT.c **** 
  82:.\lib_RTC/RTC_WDT.c **** uint32_t RTCSynced(void)
  83:.\lib_RTC/RTC_WDT.c **** {
ARM GAS  C:\DOCUME~1\Admin\LOCALS~1\Temp\ccgAuayf.s 			page 19


 365              		.loc 2 83 0
 366              		.cfi_startproc
 367 0000 80B5     		push	{r7, lr}
 368              		.cfi_def_cfa_offset 8
 369              		.cfi_offset 7, -8
 370              		.cfi_offset 14, -4
 371 0002 00AF     		add	r7, sp, #0
 372              		.cfi_def_cfa_register 7
  84:.\lib_RTC/RTC_WDT.c ****     return RTCSyncWithDS;
 373              		.loc 2 84 0
 374 0004 024B     		ldr	r3, .L22
 375 0006 1B68     		ldr	r3, [r3]
  85:.\lib_RTC/RTC_WDT.c **** }
 376              		.loc 2 85 0
 377 0008 181C     		mov	r0, r3
 378 000a BD46     		mov	sp, r7
 379              		@ sp needed
 380 000c 80BD     		pop	{r7, pc}
 381              	.L23:
 382 000e C046     		.align	2
 383              	.L22:
 384 0010 00000000 		.word	RTCSyncWithDS
 385              		.cfi_endproc
 386              	.LFE65:
 387              		.size	RTCSynced, .-RTCSynced
 388              		.global	__aeabi_uldivmod
 389              		.section	.text.RTCgetTime,"ax",%progbits
 390              		.align	2
 391              		.global	RTCgetTime
 392              		.code	16
 393              		.thumb_func
 394              		.type	RTCgetTime, %function
 395              	RTCgetTime:
 396              	.LFB66:
  86:.\lib_RTC/RTC_WDT.c **** 
  87:.\lib_RTC/RTC_WDT.c **** /*******************************************************************************
  88:.\lib_RTC/RTC_WDT.c **** * Function Name: RTCgetTime
  89:.\lib_RTC/RTC_WDT.c **** ********************************************************************************
  90:.\lib_RTC/RTC_WDT.c **** *
  91:.\lib_RTC/RTC_WDT.c **** * Summary
  92:.\lib_RTC/RTC_WDT.c **** *  Reads the current time.
  93:.\lib_RTC/RTC_WDT.c **** *
  94:.\lib_RTC/RTC_WDT.c **** * Return:
  95:.\lib_RTC/RTC_WDT.c **** *  date: The value of date in the user selected format. The date value is available
  96:.\lib_RTC/RTC_WDT.c **** *        in the BCD format.
  97:.\lib_RTC/RTC_WDT.c **** *
  98:.\lib_RTC/RTC_WDT.c **** *******************************************************************************/
  99:.\lib_RTC/RTC_WDT.c **** uint64_t RTCgetTime(uint64_t timeFormat)
 100:.\lib_RTC/RTC_WDT.c **** {
 397              		.loc 2 100 0
 398              		.cfi_startproc
 399 0000 F0B5     		push	{r4, r5, r6, r7, lr}
 400              		.cfi_def_cfa_offset 20
 401              		.cfi_offset 4, -20
 402              		.cfi_offset 5, -16
 403              		.cfi_offset 6, -12
 404              		.cfi_offset 7, -8
ARM GAS  C:\DOCUME~1\Admin\LOCALS~1\Temp\ccgAuayf.s 			page 20


 405              		.cfi_offset 14, -4
 406 0002 B7B0     		sub	sp, sp, #220
 407              		.cfi_def_cfa_offset 240
 408 0004 00AF     		add	r7, sp, #0
 409              		.cfi_def_cfa_register 7
 410 0006 A023     		mov	r3, #160
 411 0008 FB18     		add	r3, r7, r3
 412 000a 1860     		str	r0, [r3]
 413 000c 5960     		str	r1, [r3, #4]
 101:.\lib_RTC/RTC_WDT.c ****     uint32_t readTime;
 102:.\lib_RTC/RTC_WDT.c ****     uint64_t hour, min, sec, ms, stateAmPm;
 103:.\lib_RTC/RTC_WDT.c **** 
 104:.\lib_RTC/RTC_WDT.c ****     
 105:.\lib_RTC/RTC_WDT.c ****     readTime = RTC_GetTime();
 414              		.loc 2 105 0
 415 000e FFF7FEFF 		bl	RTC_GetTime
 416 0012 031C     		mov	r3, r0
 417 0014 D422     		mov	r2, #212
 418 0016 BA18     		add	r2, r7, r2
 419 0018 1360     		str	r3, [r2]
 106:.\lib_RTC/RTC_WDT.c ****     hour = RTC_GetHours(readTime);
 420              		.loc 2 106 0
 421 001a D423     		mov	r3, #212
 422 001c FB18     		add	r3, r7, r3
 423 001e 1B68     		ldr	r3, [r3]
 424 0020 181C     		mov	r0, r3
 425 0022 FFF7FEFF 		bl	RTC_GetHours
 426 0026 031C     		mov	r3, r0
 427 0028 C822     		mov	r2, #200
 428 002a BA18     		add	r2, r7, r2
 429 002c 1360     		str	r3, [r2]
 430 002e 0023     		mov	r3, #0
 431 0030 CC22     		mov	r2, #204
 432 0032 BA18     		add	r2, r7, r2
 433 0034 1360     		str	r3, [r2]
 107:.\lib_RTC/RTC_WDT.c ****     min = RTC_GetMinutes(readTime);
 434              		.loc 2 107 0
 435 0036 D423     		mov	r3, #212
 436 0038 FB18     		add	r3, r7, r3
 437 003a 1B68     		ldr	r3, [r3]
 438 003c 181C     		mov	r0, r3
 439 003e FFF7FEFF 		bl	RTC_GetMinutes
 440 0042 031C     		mov	r3, r0
 441 0044 C022     		mov	r2, #192
 442 0046 BA18     		add	r2, r7, r2
 443 0048 1360     		str	r3, [r2]
 444 004a 0023     		mov	r3, #0
 445 004c C422     		mov	r2, #196
 446 004e BA18     		add	r2, r7, r2
 447 0050 1360     		str	r3, [r2]
 108:.\lib_RTC/RTC_WDT.c ****     sec = RTC_GetSecond(readTime);
 448              		.loc 2 108 0
 449 0052 D423     		mov	r3, #212
 450 0054 FB18     		add	r3, r7, r3
 451 0056 1B68     		ldr	r3, [r3]
 452 0058 181C     		mov	r0, r3
 453 005a FFF7FEFF 		bl	RTC_GetSecond
ARM GAS  C:\DOCUME~1\Admin\LOCALS~1\Temp\ccgAuayf.s 			page 21


 454 005e 031C     		mov	r3, r0
 455 0060 B822     		mov	r2, #184
 456 0062 BA18     		add	r2, r7, r2
 457 0064 1360     		str	r3, [r2]
 458 0066 0023     		mov	r3, #0
 459 0068 BC22     		mov	r2, #188
 460 006a BA18     		add	r2, r7, r2
 461 006c 1360     		str	r3, [r2]
 109:.\lib_RTC/RTC_WDT.c ****     ms = RTCgetRecentMs();
 462              		.loc 2 109 0
 463 006e FFF7FEFF 		bl	RTCgetRecentMs
 464 0072 031C     		mov	r3, r0
 465 0074 B022     		mov	r2, #176
 466 0076 BA18     		add	r2, r7, r2
 467 0078 1360     		str	r3, [r2]
 468 007a 0023     		mov	r3, #0
 469 007c B422     		mov	r2, #180
 470 007e BA18     		add	r2, r7, r2
 471 0080 1360     		str	r3, [r2]
 110:.\lib_RTC/RTC_WDT.c ****     stateAmPm = RTC_GetAmPm(readTime);
 472              		.loc 2 110 0
 473 0082 D423     		mov	r3, #212
 474 0084 FB18     		add	r3, r7, r3
 475 0086 1B68     		ldr	r3, [r3]
 476 0088 181C     		mov	r0, r3
 477 008a FFF7FEFF 		bl	RTC_GetAmPm
 478 008e 031C     		mov	r3, r0
 479 0090 A822     		mov	r2, #168
 480 0092 BA18     		add	r2, r7, r2
 481 0094 1360     		str	r3, [r2]
 482 0096 0023     		mov	r3, #0
 483 0098 AC22     		mov	r2, #172
 484 009a BA18     		add	r2, r7, r2
 485 009c 1360     		str	r3, [r2]
 111:.\lib_RTC/RTC_WDT.c ****     
 112:.\lib_RTC/RTC_WDT.c ****     time  = timeFormat << RTC_TIME_FORMAT_SHIFT;
 486              		.loc 2 112 0
 487 009e A023     		mov	r3, #160
 488 00a0 FB18     		add	r3, r7, r3
 489 00a2 1B68     		ldr	r3, [r3]
 490 00a4 DB01     		lsl	r3, r3, #7
 491 00a6 FB66     		str	r3, [r7, #108]
 492 00a8 0023     		mov	r3, #0
 493 00aa BB66     		str	r3, [r7, #104]
 494 00ac D14B     		ldr	r3, .L26
 495 00ae B96E     		ldr	r1, [r7, #104]
 496 00b0 FA6E     		ldr	r2, [r7, #108]
 497 00b2 1960     		str	r1, [r3]
 498 00b4 5A60     		str	r2, [r3, #4]
 113:.\lib_RTC/RTC_WDT.c ****     time |= stateAmPm << RTC_PERIOD_OF_DAY_SHIFT;
 499              		.loc 2 113 0
 500 00b6 A823     		mov	r3, #168
 501 00b8 FB18     		add	r3, r7, r3
 502 00ba 1B68     		ldr	r3, [r3]
 503 00bc 9B01     		lsl	r3, r3, #6
 504 00be 7B66     		str	r3, [r7, #100]
 505 00c0 0023     		mov	r3, #0
ARM GAS  C:\DOCUME~1\Admin\LOCALS~1\Temp\ccgAuayf.s 			page 22


 506 00c2 3B66     		str	r3, [r7, #96]
 507 00c4 CB4B     		ldr	r3, .L26
 508 00c6 5C68     		ldr	r4, [r3, #4]
 509 00c8 1B68     		ldr	r3, [r3]
 510 00ca 386E     		ldr	r0, [r7, #96]
 511 00cc 796E     		ldr	r1, [r7, #100]
 512 00ce 021C     		mov	r2, r0
 513 00d0 1A43     		orr	r2, r3
 514 00d2 BA65     		str	r2, [r7, #88]
 515 00d4 0A1C     		mov	r2, r1
 516 00d6 2243     		orr	r2, r4
 517 00d8 FA65     		str	r2, [r7, #92]
 518 00da C64B     		ldr	r3, .L26
 519 00dc B96D     		ldr	r1, [r7, #88]
 520 00de FA6D     		ldr	r2, [r7, #92]
 521 00e0 1960     		str	r1, [r3]
 522 00e2 5A60     		str	r2, [r3, #4]
 114:.\lib_RTC/RTC_WDT.c **** 
 115:.\lib_RTC/RTC_WDT.c ****     time |= (hour / 10u) << RTC_10_HOURS_SHIFT;
 523              		.loc 2 115 0
 524 00e4 C823     		mov	r3, #200
 525 00e6 FB18     		add	r3, r7, r3
 526 00e8 5C68     		ldr	r4, [r3, #4]
 527 00ea 1B68     		ldr	r3, [r3]
 528 00ec 181C     		mov	r0, r3
 529 00ee 211C     		mov	r1, r4
 530 00f0 0A22     		mov	r2, #10
 531 00f2 0023     		mov	r3, #0
 532 00f4 FFF7FEFF 		bl	__aeabi_uldivmod
 533 00f8 031C     		mov	r3, r0
 534 00fa 0C1C     		mov	r4, r1
 535 00fc 1B01     		lsl	r3, r3, #4
 536 00fe 7B65     		str	r3, [r7, #84]
 537 0100 0023     		mov	r3, #0
 538 0102 3B65     		str	r3, [r7, #80]
 539 0104 BB4B     		ldr	r3, .L26
 540 0106 5C68     		ldr	r4, [r3, #4]
 541 0108 1B68     		ldr	r3, [r3]
 542 010a 386D     		ldr	r0, [r7, #80]
 543 010c 796D     		ldr	r1, [r7, #84]
 544 010e 021C     		mov	r2, r0
 545 0110 1A43     		orr	r2, r3
 546 0112 BA64     		str	r2, [r7, #72]
 547 0114 0A1C     		mov	r2, r1
 548 0116 2243     		orr	r2, r4
 549 0118 FA64     		str	r2, [r7, #76]
 550 011a B64B     		ldr	r3, .L26
 551 011c B96C     		ldr	r1, [r7, #72]
 552 011e FA6C     		ldr	r2, [r7, #76]
 553 0120 1960     		str	r1, [r3]
 554 0122 5A60     		str	r2, [r3, #4]
 116:.\lib_RTC/RTC_WDT.c ****     time |= (hour % 10u) << RTC_HOURS_SHIFT;
 555              		.loc 2 116 0
 556 0124 C823     		mov	r3, #200
 557 0126 FB18     		add	r3, r7, r3
 558 0128 5C68     		ldr	r4, [r3, #4]
 559 012a 1B68     		ldr	r3, [r3]
ARM GAS  C:\DOCUME~1\Admin\LOCALS~1\Temp\ccgAuayf.s 			page 23


 560 012c 181C     		mov	r0, r3
 561 012e 211C     		mov	r1, r4
 562 0130 0A22     		mov	r2, #10
 563 0132 0023     		mov	r3, #0
 564 0134 FFF7FEFF 		bl	__aeabi_uldivmod
 565 0138 1C1C     		mov	r4, r3
 566 013a 131C     		mov	r3, r2
 567 013c 1B00     		lsl	r3, r3, #0
 568 013e 7B64     		str	r3, [r7, #68]
 569 0140 0023     		mov	r3, #0
 570 0142 3B64     		str	r3, [r7, #64]
 571 0144 AB4B     		ldr	r3, .L26
 572 0146 5C68     		ldr	r4, [r3, #4]
 573 0148 1B68     		ldr	r3, [r3]
 574 014a 386C     		ldr	r0, [r7, #64]
 575 014c 796C     		ldr	r1, [r7, #68]
 576 014e 021C     		mov	r2, r0
 577 0150 1A43     		orr	r2, r3
 578 0152 BA63     		str	r2, [r7, #56]
 579 0154 0A1C     		mov	r2, r1
 580 0156 2243     		orr	r2, r4
 581 0158 FA63     		str	r2, [r7, #60]
 582 015a A64B     		ldr	r3, .L26
 583 015c B96B     		ldr	r1, [r7, #56]
 584 015e FA6B     		ldr	r2, [r7, #60]
 585 0160 1960     		str	r1, [r3]
 586 0162 5A60     		str	r2, [r3, #4]
 117:.\lib_RTC/RTC_WDT.c **** 
 118:.\lib_RTC/RTC_WDT.c ****     time |= (min / 10u) << RTC_10_MINUTES_SHIFT;
 587              		.loc 2 118 0
 588 0164 C023     		mov	r3, #192
 589 0166 FB18     		add	r3, r7, r3
 590 0168 5C68     		ldr	r4, [r3, #4]
 591 016a 1B68     		ldr	r3, [r3]
 592 016c 181C     		mov	r0, r3
 593 016e 211C     		mov	r1, r4
 594 0170 0A22     		mov	r2, #10
 595 0172 0023     		mov	r3, #0
 596 0174 FFF7FEFF 		bl	__aeabi_uldivmod
 597 0178 031C     		mov	r3, r0
 598 017a 0C1C     		mov	r4, r1
 599 017c 1A09     		lsr	r2, r3, #4
 600 017e 2607     		lsl	r6, r4, #28
 601 0180 1643     		orr	r6, r2
 602 0182 1D07     		lsl	r5, r3, #28
 603 0184 9B4B     		ldr	r3, .L26
 604 0186 5C68     		ldr	r4, [r3, #4]
 605 0188 1B68     		ldr	r3, [r3]
 606 018a 2A1C     		mov	r2, r5
 607 018c 1A43     		orr	r2, r3
 608 018e 3A63     		str	r2, [r7, #48]
 609 0190 321C     		mov	r2, r6
 610 0192 2243     		orr	r2, r4
 611 0194 7A63     		str	r2, [r7, #52]
 612 0196 974B     		ldr	r3, .L26
 613 0198 396B     		ldr	r1, [r7, #48]
 614 019a 7A6B     		ldr	r2, [r7, #52]
ARM GAS  C:\DOCUME~1\Admin\LOCALS~1\Temp\ccgAuayf.s 			page 24


 615 019c 1960     		str	r1, [r3]
 616 019e 5A60     		str	r2, [r3, #4]
 119:.\lib_RTC/RTC_WDT.c ****     time |= (min % 10u) << RTC_MINUTES_SHIFT;
 617              		.loc 2 119 0
 618 01a0 C023     		mov	r3, #192
 619 01a2 FB18     		add	r3, r7, r3
 620 01a4 5C68     		ldr	r4, [r3, #4]
 621 01a6 1B68     		ldr	r3, [r3]
 622 01a8 181C     		mov	r0, r3
 623 01aa 211C     		mov	r1, r4
 624 01ac 0A22     		mov	r2, #10
 625 01ae 0023     		mov	r3, #0
 626 01b0 FFF7FEFF 		bl	__aeabi_uldivmod
 627 01b4 1C1C     		mov	r4, r3
 628 01b6 131C     		mov	r3, r2
 629 01b8 1A0A     		lsr	r2, r3, #8
 630 01ba 2106     		lsl	r1, r4, #24
 631 01bc 9C20     		mov	r0, #156
 632 01be 3818     		add	r0, r7, r0
 633 01c0 0160     		str	r1, [r0]
 634 01c2 9C21     		mov	r1, #156
 635 01c4 7918     		add	r1, r7, r1
 636 01c6 0968     		ldr	r1, [r1]
 637 01c8 1143     		orr	r1, r2
 638 01ca 9C22     		mov	r2, #156
 639 01cc BA18     		add	r2, r7, r2
 640 01ce 1160     		str	r1, [r2]
 641 01d0 1B06     		lsl	r3, r3, #24
 642 01d2 9822     		mov	r2, #152
 643 01d4 BA18     		add	r2, r7, r2
 644 01d6 1360     		str	r3, [r2]
 645 01d8 864B     		ldr	r3, .L26
 646 01da 5C68     		ldr	r4, [r3, #4]
 647 01dc 1B68     		ldr	r3, [r3]
 648 01de 9822     		mov	r2, #152
 649 01e0 BA18     		add	r2, r7, r2
 650 01e2 1068     		ldr	r0, [r2]
 651 01e4 5168     		ldr	r1, [r2, #4]
 652 01e6 021C     		mov	r2, r0
 653 01e8 1A43     		orr	r2, r3
 654 01ea BA62     		str	r2, [r7, #40]
 655 01ec 0A1C     		mov	r2, r1
 656 01ee 2243     		orr	r2, r4
 657 01f0 FA62     		str	r2, [r7, #44]
 658 01f2 804B     		ldr	r3, .L26
 659 01f4 B96A     		ldr	r1, [r7, #40]
 660 01f6 FA6A     		ldr	r2, [r7, #44]
 661 01f8 1960     		str	r1, [r3]
 662 01fa 5A60     		str	r2, [r3, #4]
 120:.\lib_RTC/RTC_WDT.c **** 
 121:.\lib_RTC/RTC_WDT.c ****     time |= (sec / 10u) << RTC_10_SECONDS_SHIFT;
 663              		.loc 2 121 0
 664 01fc B823     		mov	r3, #184
 665 01fe FB18     		add	r3, r7, r3
 666 0200 5C68     		ldr	r4, [r3, #4]
 667 0202 1B68     		ldr	r3, [r3]
 668 0204 181C     		mov	r0, r3
ARM GAS  C:\DOCUME~1\Admin\LOCALS~1\Temp\ccgAuayf.s 			page 25


 669 0206 211C     		mov	r1, r4
 670 0208 0A22     		mov	r2, #10
 671 020a 0023     		mov	r3, #0
 672 020c FFF7FEFF 		bl	__aeabi_uldivmod
 673 0210 031C     		mov	r3, r0
 674 0212 0C1C     		mov	r4, r1
 675 0214 1A0B     		lsr	r2, r3, #12
 676 0216 2105     		lsl	r1, r4, #20
 677 0218 9420     		mov	r0, #148
 678 021a 3818     		add	r0, r7, r0
 679 021c 0160     		str	r1, [r0]
 680 021e 9421     		mov	r1, #148
 681 0220 7918     		add	r1, r7, r1
 682 0222 0968     		ldr	r1, [r1]
 683 0224 1143     		orr	r1, r2
 684 0226 9422     		mov	r2, #148
 685 0228 BA18     		add	r2, r7, r2
 686 022a 1160     		str	r1, [r2]
 687 022c 1B05     		lsl	r3, r3, #20
 688 022e 9022     		mov	r2, #144
 689 0230 BA18     		add	r2, r7, r2
 690 0232 1360     		str	r3, [r2]
 691 0234 6F4B     		ldr	r3, .L26
 692 0236 5C68     		ldr	r4, [r3, #4]
 693 0238 1B68     		ldr	r3, [r3]
 694 023a 9022     		mov	r2, #144
 695 023c BA18     		add	r2, r7, r2
 696 023e 1068     		ldr	r0, [r2]
 697 0240 5168     		ldr	r1, [r2, #4]
 698 0242 021C     		mov	r2, r0
 699 0244 1A43     		orr	r2, r3
 700 0246 3A62     		str	r2, [r7, #32]
 701 0248 0A1C     		mov	r2, r1
 702 024a 2243     		orr	r2, r4
 703 024c 7A62     		str	r2, [r7, #36]
 704 024e 694B     		ldr	r3, .L26
 705 0250 396A     		ldr	r1, [r7, #32]
 706 0252 7A6A     		ldr	r2, [r7, #36]
 707 0254 1960     		str	r1, [r3]
 708 0256 5A60     		str	r2, [r3, #4]
 122:.\lib_RTC/RTC_WDT.c ****     time |= (sec % 10u) << RTC_SECONDS_SHIFT;
 709              		.loc 2 122 0
 710 0258 B823     		mov	r3, #184
 711 025a FB18     		add	r3, r7, r3
 712 025c 5C68     		ldr	r4, [r3, #4]
 713 025e 1B68     		ldr	r3, [r3]
 714 0260 181C     		mov	r0, r3
 715 0262 211C     		mov	r1, r4
 716 0264 0A22     		mov	r2, #10
 717 0266 0023     		mov	r3, #0
 718 0268 FFF7FEFF 		bl	__aeabi_uldivmod
 719 026c 1C1C     		mov	r4, r3
 720 026e 131C     		mov	r3, r2
 721 0270 1A0C     		lsr	r2, r3, #16
 722 0272 2104     		lsl	r1, r4, #16
 723 0274 8C20     		mov	r0, #140
 724 0276 3818     		add	r0, r7, r0
ARM GAS  C:\DOCUME~1\Admin\LOCALS~1\Temp\ccgAuayf.s 			page 26


 725 0278 0160     		str	r1, [r0]
 726 027a 8C21     		mov	r1, #140
 727 027c 7918     		add	r1, r7, r1
 728 027e 0968     		ldr	r1, [r1]
 729 0280 1143     		orr	r1, r2
 730 0282 8C22     		mov	r2, #140
 731 0284 BA18     		add	r2, r7, r2
 732 0286 1160     		str	r1, [r2]
 733 0288 1B04     		lsl	r3, r3, #16
 734 028a 8822     		mov	r2, #136
 735 028c BA18     		add	r2, r7, r2
 736 028e 1360     		str	r3, [r2]
 737 0290 584B     		ldr	r3, .L26
 738 0292 5C68     		ldr	r4, [r3, #4]
 739 0294 1B68     		ldr	r3, [r3]
 740 0296 8822     		mov	r2, #136
 741 0298 BA18     		add	r2, r7, r2
 742 029a 1068     		ldr	r0, [r2]
 743 029c 5168     		ldr	r1, [r2, #4]
 744 029e 021C     		mov	r2, r0
 745 02a0 1A43     		orr	r2, r3
 746 02a2 BA61     		str	r2, [r7, #24]
 747 02a4 0A1C     		mov	r2, r1
 748 02a6 2243     		orr	r2, r4
 749 02a8 FA61     		str	r2, [r7, #28]
 750 02aa 524B     		ldr	r3, .L26
 751 02ac B969     		ldr	r1, [r7, #24]
 752 02ae FA69     		ldr	r2, [r7, #28]
 753 02b0 1960     		str	r1, [r3]
 754 02b2 5A60     		str	r2, [r3, #4]
 123:.\lib_RTC/RTC_WDT.c ****     
 124:.\lib_RTC/RTC_WDT.c ****     
 125:.\lib_RTC/RTC_WDT.c ****     time |= (ms / 100u) << RTC_100_MILISECONDS_SHIFT;
 755              		.loc 2 125 0
 756 02b4 B023     		mov	r3, #176
 757 02b6 FB18     		add	r3, r7, r3
 758 02b8 5C68     		ldr	r4, [r3, #4]
 759 02ba 1B68     		ldr	r3, [r3]
 760 02bc 181C     		mov	r0, r3
 761 02be 211C     		mov	r1, r4
 762 02c0 6422     		mov	r2, #100
 763 02c2 0023     		mov	r3, #0
 764 02c4 FFF7FEFF 		bl	__aeabi_uldivmod
 765 02c8 031C     		mov	r3, r0
 766 02ca 0C1C     		mov	r4, r1
 767 02cc 1A0D     		lsr	r2, r3, #20
 768 02ce 2103     		lsl	r1, r4, #12
 769 02d0 8420     		mov	r0, #132
 770 02d2 3818     		add	r0, r7, r0
 771 02d4 0160     		str	r1, [r0]
 772 02d6 8421     		mov	r1, #132
 773 02d8 7918     		add	r1, r7, r1
 774 02da 0968     		ldr	r1, [r1]
 775 02dc 1143     		orr	r1, r2
 776 02de 8422     		mov	r2, #132
 777 02e0 BA18     		add	r2, r7, r2
 778 02e2 1160     		str	r1, [r2]
ARM GAS  C:\DOCUME~1\Admin\LOCALS~1\Temp\ccgAuayf.s 			page 27


 779 02e4 1B03     		lsl	r3, r3, #12
 780 02e6 8022     		mov	r2, #128
 781 02e8 BA18     		add	r2, r7, r2
 782 02ea 1360     		str	r3, [r2]
 783 02ec 414B     		ldr	r3, .L26
 784 02ee 5C68     		ldr	r4, [r3, #4]
 785 02f0 1B68     		ldr	r3, [r3]
 786 02f2 8022     		mov	r2, #128
 787 02f4 BA18     		add	r2, r7, r2
 788 02f6 1068     		ldr	r0, [r2]
 789 02f8 5168     		ldr	r1, [r2, #4]
 790 02fa 021C     		mov	r2, r0
 791 02fc 1A43     		orr	r2, r3
 792 02fe 3A61     		str	r2, [r7, #16]
 793 0300 0A1C     		mov	r2, r1
 794 0302 2243     		orr	r2, r4
 795 0304 7A61     		str	r2, [r7, #20]
 796 0306 3B4B     		ldr	r3, .L26
 797 0308 3969     		ldr	r1, [r7, #16]
 798 030a 7A69     		ldr	r2, [r7, #20]
 799 030c 1960     		str	r1, [r3]
 800 030e 5A60     		str	r2, [r3, #4]
 126:.\lib_RTC/RTC_WDT.c ****     time |= ((ms / 10u)-(ms/100u)*10u) << RTC_10_MILISECONDS_SHIFT;
 801              		.loc 2 126 0
 802 0310 B023     		mov	r3, #176
 803 0312 FB18     		add	r3, r7, r3
 804 0314 5C68     		ldr	r4, [r3, #4]
 805 0316 1B68     		ldr	r3, [r3]
 806 0318 181C     		mov	r0, r3
 807 031a 211C     		mov	r1, r4
 808 031c 0A22     		mov	r2, #10
 809 031e 0023     		mov	r3, #0
 810 0320 FFF7FEFF 		bl	__aeabi_uldivmod
 811 0324 031C     		mov	r3, r0
 812 0326 0C1C     		mov	r4, r1
 813 0328 9822     		mov	r2, #152
 814 032a BA18     		add	r2, r7, r2
 815 032c 1360     		str	r3, [r2]
 816 032e 5460     		str	r4, [r2, #4]
 817 0330 B023     		mov	r3, #176
 818 0332 FB18     		add	r3, r7, r3
 819 0334 5C68     		ldr	r4, [r3, #4]
 820 0336 1B68     		ldr	r3, [r3]
 821 0338 181C     		mov	r0, r3
 822 033a 211C     		mov	r1, r4
 823 033c 6422     		mov	r2, #100
 824 033e 0023     		mov	r3, #0
 825 0340 FFF7FEFF 		bl	__aeabi_uldivmod
 826 0344 031C     		mov	r3, r0
 827 0346 0C1C     		mov	r4, r1
 828 0348 191C     		mov	r1, r3
 829 034a 221C     		mov	r2, r4
 830 034c 0B1C     		mov	r3, r1
 831 034e 141C     		mov	r4, r2
 832 0350 980F     		lsr	r0, r3, #30
 833 0352 A500     		lsl	r5, r4, #2
 834 0354 7D67     		str	r5, [r7, #116]
ARM GAS  C:\DOCUME~1\Admin\LOCALS~1\Temp\ccgAuayf.s 			page 28


 835 0356 7D6F     		ldr	r5, [r7, #116]
 836 0358 0543     		orr	r5, r0
 837 035a 7D67     		str	r5, [r7, #116]
 838 035c 9B00     		lsl	r3, r3, #2
 839 035e 3B67     		str	r3, [r7, #112]
 840 0360 3B6F     		ldr	r3, [r7, #112]
 841 0362 7C6F     		ldr	r4, [r7, #116]
 842 0364 5B18     		add	r3, r3, r1
 843 0366 5441     		adc	r4, r4, r2
 844 0368 DB18     		add	r3, r3, r3
 845 036a 6441     		adc	r4, r4, r4
 846 036c 9822     		mov	r2, #152
 847 036e BA18     		add	r2, r7, r2
 848 0370 1568     		ldr	r5, [r2]
 849 0372 5668     		ldr	r6, [r2, #4]
 850 0374 ED1A     		sub	r5, r5, r3
 851 0376 A641     		sbc	r6, r6, r4
 852 0378 2B1C     		mov	r3, r5
 853 037a 341C     		mov	r4, r6
 854 037c 1A0E     		lsr	r2, r3, #24
 855 037e 2102     		lsl	r1, r4, #8
 856 0380 F967     		str	r1, [r7, #124]
 857 0382 F96F     		ldr	r1, [r7, #124]
 858 0384 1143     		orr	r1, r2
 859 0386 F967     		str	r1, [r7, #124]
 860 0388 1B02     		lsl	r3, r3, #8
 861 038a BB67     		str	r3, [r7, #120]
 862 038c 194B     		ldr	r3, .L26
 863 038e 5C68     		ldr	r4, [r3, #4]
 864 0390 1B68     		ldr	r3, [r3]
 865 0392 B86F     		ldr	r0, [r7, #120]
 866 0394 F96F     		ldr	r1, [r7, #124]
 867 0396 021C     		mov	r2, r0
 868 0398 1A43     		orr	r2, r3
 869 039a BA60     		str	r2, [r7, #8]
 870 039c 0A1C     		mov	r2, r1
 871 039e 2243     		orr	r2, r4
 872 03a0 FA60     		str	r2, [r7, #12]
 873 03a2 144B     		ldr	r3, .L26
 874 03a4 B968     		ldr	r1, [r7, #8]
 875 03a6 FA68     		ldr	r2, [r7, #12]
 876 03a8 1960     		str	r1, [r3]
 877 03aa 5A60     		str	r2, [r3, #4]
 127:.\lib_RTC/RTC_WDT.c ****     time |= (ms % 10u) << RTC_MILISECONDS_SHIFT;
 878              		.loc 2 127 0
 879 03ac B023     		mov	r3, #176
 880 03ae FB18     		add	r3, r7, r3
 881 03b0 5C68     		ldr	r4, [r3, #4]
 882 03b2 1B68     		ldr	r3, [r3]
 883 03b4 181C     		mov	r0, r3
 884 03b6 211C     		mov	r1, r4
 885 03b8 0A22     		mov	r2, #10
 886 03ba 0023     		mov	r3, #0
 887 03bc FFF7FEFF 		bl	__aeabi_uldivmod
 888 03c0 1C1C     		mov	r4, r3
 889 03c2 131C     		mov	r3, r2
 890 03c4 191C     		mov	r1, r3
ARM GAS  C:\DOCUME~1\Admin\LOCALS~1\Temp\ccgAuayf.s 			page 29


 891 03c6 221C     		mov	r2, r4
 892 03c8 0A4B     		ldr	r3, .L26
 893 03ca 5C68     		ldr	r4, [r3, #4]
 894 03cc 1B68     		ldr	r3, [r3]
 895 03ce 081C     		mov	r0, r1
 896 03d0 1843     		orr	r0, r3
 897 03d2 3860     		str	r0, [r7]
 898 03d4 2243     		orr	r2, r4
 899 03d6 7A60     		str	r2, [r7, #4]
 900 03d8 064B     		ldr	r3, .L26
 901 03da 3968     		ldr	r1, [r7]
 902 03dc 7A68     		ldr	r2, [r7, #4]
 903 03de 1960     		str	r1, [r3]
 904 03e0 5A60     		str	r2, [r3, #4]
 128:.\lib_RTC/RTC_WDT.c ****        
 129:.\lib_RTC/RTC_WDT.c ****     return time;
 905              		.loc 2 129 0
 906 03e2 044B     		ldr	r3, .L26
 907 03e4 5C68     		ldr	r4, [r3, #4]
 908 03e6 1B68     		ldr	r3, [r3]
 130:.\lib_RTC/RTC_WDT.c **** }
 909              		.loc 2 130 0
 910 03e8 181C     		mov	r0, r3
 911 03ea 211C     		mov	r1, r4
 912 03ec BD46     		mov	sp, r7
 913 03ee 37B0     		add	sp, sp, #220
 914              		@ sp needed
 915 03f0 F0BD     		pop	{r4, r5, r6, r7, pc}
 916              	.L27:
 917 03f2 C046     		.align	2
 918              	.L26:
 919 03f4 08000000 		.word	time
 920              		.cfi_endproc
 921              	.LFE66:
 922              		.size	RTCgetTime, .-RTCgetTime
 923              		.section	.text.RTCGetUnixTime,"ax",%progbits
 924              		.align	2
 925              		.global	RTCGetUnixTime
 926              		.code	16
 927              		.thumb_func
 928              		.type	RTCGetUnixTime, %function
 929              	RTCGetUnixTime:
 930              	.LFB67:
 131:.\lib_RTC/RTC_WDT.c **** 
 132:.\lib_RTC/RTC_WDT.c **** /*******************************************************************************
 133:.\lib_RTC/RTC_WDT.c **** * Function Name: RTCgetHours
 134:.\lib_RTC/RTC_WDT.c **** ****************************************************************************//**
 135:.\lib_RTC/RTC_WDT.c **** *
 136:.\lib_RTC/RTC_WDT.c **** * \brief
 137:.\lib_RTC/RTC_WDT.c **** *  Returns the hours value 
 138:.\lib_RTC/RTC_WDT.c **** *
 139:.\lib_RTC/RTC_WDT.c **** * \return
 140:.\lib_RTC/RTC_WDT.c **** *  The hours value.
 141:.\lib_RTC/RTC_WDT.c **** *
 142:.\lib_RTC/RTC_WDT.c **** *******************************************************************************/
 143:.\lib_RTC/RTC_WDT.c **** 
 144:.\lib_RTC/RTC_WDT.c **** uint64_t RTCGetUnixTime(void)
ARM GAS  C:\DOCUME~1\Admin\LOCALS~1\Temp\ccgAuayf.s 			page 30


 145:.\lib_RTC/RTC_WDT.c **** {
 931              		.loc 2 145 0
 932              		.cfi_startproc
 933 0000 98B5     		push	{r3, r4, r7, lr}
 934              		.cfi_def_cfa_offset 16
 935              		.cfi_offset 3, -16
 936              		.cfi_offset 4, -12
 937              		.cfi_offset 7, -8
 938              		.cfi_offset 14, -4
 939 0002 00AF     		add	r7, sp, #0
 940              		.cfi_def_cfa_register 7
 146:.\lib_RTC/RTC_WDT.c ****     return RTC_GetUnixTime();
 941              		.loc 2 146 0
 942 0004 FFF7FEFF 		bl	RTC_GetUnixTime
 943 0008 031C     		mov	r3, r0
 944 000a 0C1C     		mov	r4, r1
 147:.\lib_RTC/RTC_WDT.c **** }
 945              		.loc 2 147 0
 946 000c 181C     		mov	r0, r3
 947 000e 211C     		mov	r1, r4
 948 0010 BD46     		mov	sp, r7
 949              		@ sp needed
 950 0012 98BD     		pop	{r3, r4, r7, pc}
 951              		.cfi_endproc
 952              	.LFE67:
 953              		.size	RTCGetUnixTime, .-RTCGetUnixTime
 954              		.section	.text.RTCgetHours,"ax",%progbits
 955              		.align	2
 956              		.global	RTCgetHours
 957              		.code	16
 958              		.thumb_func
 959              		.type	RTCgetHours, %function
 960              	RTCgetHours:
 961              	.LFB68:
 148:.\lib_RTC/RTC_WDT.c **** 
 149:.\lib_RTC/RTC_WDT.c **** 
 150:.\lib_RTC/RTC_WDT.c **** uint32_t RTCgetHours(uint64_t readTime)
 151:.\lib_RTC/RTC_WDT.c **** {
 962              		.loc 2 151 0
 963              		.cfi_startproc
 964 0000 F0B5     		push	{r4, r5, r6, r7, lr}
 965              		.cfi_def_cfa_offset 20
 966              		.cfi_offset 4, -20
 967              		.cfi_offset 5, -16
 968              		.cfi_offset 6, -12
 969              		.cfi_offset 7, -8
 970              		.cfi_offset 14, -4
 971 0002 8BB0     		sub	sp, sp, #44
 972              		.cfi_def_cfa_offset 64
 973 0004 00AF     		add	r7, sp, #0
 974              		.cfi_def_cfa_register 7
 975 0006 B861     		str	r0, [r7, #24]
 976 0008 F961     		str	r1, [r7, #28]
 152:.\lib_RTC/RTC_WDT.c ****     uint64_t retVal;
 153:.\lib_RTC/RTC_WDT.c ****     
 154:.\lib_RTC/RTC_WDT.c ****     retVal  = ((readTime & RTC_MASK_10_HOURS) >> RTC_10_HOURS_SHIFT) * 10u;
 977              		.loc 2 154 0
ARM GAS  C:\DOCUME~1\Admin\LOCALS~1\Temp\ccgAuayf.s 			page 31


 978 000a BA69     		ldr	r2, [r7, #24]
 979 000c 0021     		mov	r1, #0
 980 000e 0A40     		and	r2, r1
 981 0010 131C     		mov	r3, r2
 982 0012 FA69     		ldr	r2, [r7, #28]
 983 0014 3021     		mov	r1, #48
 984 0016 0A40     		and	r2, r1
 985 0018 141C     		mov	r4, r2
 986 001a 2309     		lsr	r3, r4, #4
 987 001c 3B61     		str	r3, [r7, #16]
 988 001e 0023     		mov	r3, #0
 989 0020 7B61     		str	r3, [r7, #20]
 990 0022 3869     		ldr	r0, [r7, #16]
 991 0024 7969     		ldr	r1, [r7, #20]
 992 0026 031C     		mov	r3, r0
 993 0028 0C1C     		mov	r4, r1
 994 002a 9A0F     		lsr	r2, r3, #30
 995 002c A600     		lsl	r6, r4, #2
 996 002e 1643     		orr	r6, r2
 997 0030 9D00     		lsl	r5, r3, #2
 998 0032 031C     		mov	r3, r0
 999 0034 0C1C     		mov	r4, r1
 1000 0036 5B19     		add	r3, r3, r5
 1001 0038 7441     		adc	r4, r4, r6
 1002 003a DB18     		add	r3, r3, r3
 1003 003c 6441     		adc	r4, r4, r4
 1004 003e 3B62     		str	r3, [r7, #32]
 1005 0040 7C62     		str	r4, [r7, #36]
 155:.\lib_RTC/RTC_WDT.c ****     retVal += (readTime & RTC_MASK_HOURS) >> RTC_HOURS_SHIFT;
 1006              		.loc 2 155 0
 1007 0042 BB69     		ldr	r3, [r7, #24]
 1008 0044 0022     		mov	r2, #0
 1009 0046 1340     		and	r3, r2
 1010 0048 BB60     		str	r3, [r7, #8]
 1011 004a FB69     		ldr	r3, [r7, #28]
 1012 004c 0F22     		mov	r2, #15
 1013 004e 1340     		and	r3, r2
 1014 0050 FB60     		str	r3, [r7, #12]
 1015 0052 FB68     		ldr	r3, [r7, #12]
 1016 0054 1B00     		lsr	r3, r3, #0
 1017 0056 3B60     		str	r3, [r7]
 1018 0058 0023     		mov	r3, #0
 1019 005a 7B60     		str	r3, [r7, #4]
 1020 005c 3B6A     		ldr	r3, [r7, #32]
 1021 005e 7C6A     		ldr	r4, [r7, #36]
 1022 0060 3968     		ldr	r1, [r7]
 1023 0062 7A68     		ldr	r2, [r7, #4]
 1024 0064 5B18     		add	r3, r3, r1
 1025 0066 5441     		adc	r4, r4, r2
 1026 0068 3B62     		str	r3, [r7, #32]
 1027 006a 7C62     		str	r4, [r7, #36]
 156:.\lib_RTC/RTC_WDT.c ****     
 157:.\lib_RTC/RTC_WDT.c ****     return (int)(retVal);
 1028              		.loc 2 157 0
 1029 006c 3B6A     		ldr	r3, [r7, #32]
 158:.\lib_RTC/RTC_WDT.c **** }
 1030              		.loc 2 158 0
ARM GAS  C:\DOCUME~1\Admin\LOCALS~1\Temp\ccgAuayf.s 			page 32


 1031 006e 181C     		mov	r0, r3
 1032 0070 BD46     		mov	sp, r7
 1033 0072 0BB0     		add	sp, sp, #44
 1034              		@ sp needed
 1035 0074 F0BD     		pop	{r4, r5, r6, r7, pc}
 1036              		.cfi_endproc
 1037              	.LFE68:
 1038              		.size	RTCgetHours, .-RTCgetHours
 1039 0076 C046     		.section	.text.RTCgetMinutes,"ax",%progbits
 1040              		.align	2
 1041              		.global	RTCgetMinutes
 1042              		.code	16
 1043              		.thumb_func
 1044              		.type	RTCgetMinutes, %function
 1045              	RTCgetMinutes:
 1046              	.LFB69:
 159:.\lib_RTC/RTC_WDT.c **** 
 160:.\lib_RTC/RTC_WDT.c **** /*******************************************************************************
 161:.\lib_RTC/RTC_WDT.c **** * Function Name: RTCgetMinutes
 162:.\lib_RTC/RTC_WDT.c **** ****************************************************************************//**
 163:.\lib_RTC/RTC_WDT.c **** *
 164:.\lib_RTC/RTC_WDT.c **** * \brief
 165:.\lib_RTC/RTC_WDT.c **** *  Returns the minutes value 
 166:.\lib_RTC/RTC_WDT.c **** *
 167:.\lib_RTC/RTC_WDT.c **** * \return
 168:.\lib_RTC/RTC_WDT.c **** *  The minutes value.
 169:.\lib_RTC/RTC_WDT.c **** *
 170:.\lib_RTC/RTC_WDT.c **** *******************************************************************************/
 171:.\lib_RTC/RTC_WDT.c **** uint32_t RTCgetMinutes(uint64_t readTime)
 172:.\lib_RTC/RTC_WDT.c **** {
 1047              		.loc 2 172 0
 1048              		.cfi_startproc
 1049 0000 F0B5     		push	{r4, r5, r6, r7, lr}
 1050              		.cfi_def_cfa_offset 20
 1051              		.cfi_offset 4, -20
 1052              		.cfi_offset 5, -16
 1053              		.cfi_offset 6, -12
 1054              		.cfi_offset 7, -8
 1055              		.cfi_offset 14, -4
 1056 0002 8BB0     		sub	sp, sp, #44
 1057              		.cfi_def_cfa_offset 64
 1058 0004 00AF     		add	r7, sp, #0
 1059              		.cfi_def_cfa_register 7
 1060 0006 B861     		str	r0, [r7, #24]
 1061 0008 F961     		str	r1, [r7, #28]
 173:.\lib_RTC/RTC_WDT.c ****     uint64 retVal;
 174:.\lib_RTC/RTC_WDT.c **** 
 175:.\lib_RTC/RTC_WDT.c ****     retVal  = ((readTime & RTC_MASK_10_MINUTES) >> RTC_10_MINUTES_SHIFT) * 10u;
 1062              		.loc 2 175 0
 1063 000a B969     		ldr	r1, [r7, #24]
 1064 000c E022     		mov	r2, #224
 1065 000e D205     		lsl	r2, r2, #23
 1066 0010 1140     		and	r1, r2
 1067 0012 0B1C     		mov	r3, r1
 1068 0014 FA69     		ldr	r2, [r7, #28]
 1069 0016 0021     		mov	r1, #0
 1070 0018 0A40     		and	r2, r1
ARM GAS  C:\DOCUME~1\Admin\LOCALS~1\Temp\ccgAuayf.s 			page 33


 1071 001a 141C     		mov	r4, r2
 1072 001c 2201     		lsl	r2, r4, #4
 1073 001e 1D0F     		lsr	r5, r3, #28
 1074 0020 1543     		orr	r5, r2
 1075 0022 260F     		lsr	r6, r4, #28
 1076 0024 2B1C     		mov	r3, r5
 1077 0026 341C     		mov	r4, r6
 1078 0028 9A0F     		lsr	r2, r3, #30
 1079 002a A100     		lsl	r1, r4, #2
 1080 002c F960     		str	r1, [r7, #12]
 1081 002e F968     		ldr	r1, [r7, #12]
 1082 0030 1143     		orr	r1, r2
 1083 0032 F960     		str	r1, [r7, #12]
 1084 0034 9B00     		lsl	r3, r3, #2
 1085 0036 BB60     		str	r3, [r7, #8]
 1086 0038 BB68     		ldr	r3, [r7, #8]
 1087 003a FC68     		ldr	r4, [r7, #12]
 1088 003c 5B19     		add	r3, r3, r5
 1089 003e 7441     		adc	r4, r4, r6
 1090 0040 DB18     		add	r3, r3, r3
 1091 0042 6441     		adc	r4, r4, r4
 1092 0044 3B62     		str	r3, [r7, #32]
 1093 0046 7C62     		str	r4, [r7, #36]
 176:.\lib_RTC/RTC_WDT.c ****     retVal += (readTime & RTC_MASK_MINUTES) >> RTC_MINUTES_SHIFT;
 1094              		.loc 2 176 0
 1095 0048 BA69     		ldr	r2, [r7, #24]
 1096 004a F023     		mov	r3, #240
 1097 004c 1B05     		lsl	r3, r3, #20
 1098 004e 1A40     		and	r2, r3
 1099 0050 3A60     		str	r2, [r7]
 1100 0052 FB69     		ldr	r3, [r7, #28]
 1101 0054 0022     		mov	r2, #0
 1102 0056 1340     		and	r3, r2
 1103 0058 7B60     		str	r3, [r7, #4]
 1104 005a 3868     		ldr	r0, [r7]
 1105 005c 7968     		ldr	r1, [r7, #4]
 1106 005e 0B1C     		mov	r3, r1
 1107 0060 1B02     		lsl	r3, r3, #8
 1108 0062 021C     		mov	r2, r0
 1109 0064 120E     		lsr	r2, r2, #24
 1110 0066 3A61     		str	r2, [r7, #16]
 1111 0068 3A69     		ldr	r2, [r7, #16]
 1112 006a 1A43     		orr	r2, r3
 1113 006c 3A61     		str	r2, [r7, #16]
 1114 006e 0B1C     		mov	r3, r1
 1115 0070 1B0E     		lsr	r3, r3, #24
 1116 0072 7B61     		str	r3, [r7, #20]
 1117 0074 3B6A     		ldr	r3, [r7, #32]
 1118 0076 7C6A     		ldr	r4, [r7, #36]
 1119 0078 3969     		ldr	r1, [r7, #16]
 1120 007a 7A69     		ldr	r2, [r7, #20]
 1121 007c 5B18     		add	r3, r3, r1
 1122 007e 5441     		adc	r4, r4, r2
 1123 0080 3B62     		str	r3, [r7, #32]
 1124 0082 7C62     		str	r4, [r7, #36]
 177:.\lib_RTC/RTC_WDT.c **** 
 178:.\lib_RTC/RTC_WDT.c ****     return (int)(retVal);
ARM GAS  C:\DOCUME~1\Admin\LOCALS~1\Temp\ccgAuayf.s 			page 34


 1125              		.loc 2 178 0
 1126 0084 3B6A     		ldr	r3, [r7, #32]
 179:.\lib_RTC/RTC_WDT.c **** }
 1127              		.loc 2 179 0
 1128 0086 181C     		mov	r0, r3
 1129 0088 BD46     		mov	sp, r7
 1130 008a 0BB0     		add	sp, sp, #44
 1131              		@ sp needed
 1132 008c F0BD     		pop	{r4, r5, r6, r7, pc}
 1133              		.cfi_endproc
 1134              	.LFE69:
 1135              		.size	RTCgetMinutes, .-RTCgetMinutes
 1136 008e C046     		.section	.text.RTCgetSecond,"ax",%progbits
 1137              		.align	2
 1138              		.global	RTCgetSecond
 1139              		.code	16
 1140              		.thumb_func
 1141              		.type	RTCgetSecond, %function
 1142              	RTCgetSecond:
 1143              	.LFB70:
 180:.\lib_RTC/RTC_WDT.c **** 
 181:.\lib_RTC/RTC_WDT.c **** /*******************************************************************************
 182:.\lib_RTC/RTC_WDT.c **** * Function Name: RTCgetSecond
 183:.\lib_RTC/RTC_WDT.c **** ****************************************************************************//**
 184:.\lib_RTC/RTC_WDT.c **** *
 185:.\lib_RTC/RTC_WDT.c **** * \brief
 186:.\lib_RTC/RTC_WDT.c **** *  Returns the seconds value 
 187:.\lib_RTC/RTC_WDT.c **** *
 188:.\lib_RTC/RTC_WDT.c **** * \return
 189:.\lib_RTC/RTC_WDT.c **** *  The seconds value.
 190:.\lib_RTC/RTC_WDT.c **** *
 191:.\lib_RTC/RTC_WDT.c **** *******************************************************************************/
 192:.\lib_RTC/RTC_WDT.c **** uint32_t RTCgetSecond(uint64_t readTime)
 193:.\lib_RTC/RTC_WDT.c **** {
 1144              		.loc 2 193 0
 1145              		.cfi_startproc
 1146 0000 F0B5     		push	{r4, r5, r6, r7, lr}
 1147              		.cfi_def_cfa_offset 20
 1148              		.cfi_offset 4, -20
 1149              		.cfi_offset 5, -16
 1150              		.cfi_offset 6, -12
 1151              		.cfi_offset 7, -8
 1152              		.cfi_offset 14, -4
 1153 0002 89B0     		sub	sp, sp, #36
 1154              		.cfi_def_cfa_offset 56
 1155 0004 00AF     		add	r7, sp, #0
 1156              		.cfi_def_cfa_register 7
 1157 0006 3861     		str	r0, [r7, #16]
 1158 0008 7961     		str	r1, [r7, #20]
 194:.\lib_RTC/RTC_WDT.c ****     uint32 retVal;
 195:.\lib_RTC/RTC_WDT.c **** 
 196:.\lib_RTC/RTC_WDT.c ****     retVal  = ((readTime & RTC_MASK_10_SECONDS) >> RTC_10_SECONDS_SHIFT) * 10u;
 1159              		.loc 2 196 0
 1160 000a 3969     		ldr	r1, [r7, #16]
 1161 000c E022     		mov	r2, #224
 1162 000e D203     		lsl	r2, r2, #15
 1163 0010 1140     		and	r1, r2
ARM GAS  C:\DOCUME~1\Admin\LOCALS~1\Temp\ccgAuayf.s 			page 35


 1164 0012 0D1C     		mov	r5, r1
 1165 0014 7A69     		ldr	r2, [r7, #20]
 1166 0016 0021     		mov	r1, #0
 1167 0018 0A40     		and	r2, r1
 1168 001a 161C     		mov	r6, r2
 1169 001c 3203     		lsl	r2, r6, #12
 1170 001e 290D     		lsr	r1, r5, #20
 1171 0020 B960     		str	r1, [r7, #8]
 1172 0022 B968     		ldr	r1, [r7, #8]
 1173 0024 1143     		orr	r1, r2
 1174 0026 B960     		str	r1, [r7, #8]
 1175 0028 320D     		lsr	r2, r6, #20
 1176 002a FA60     		str	r2, [r7, #12]
 1177 002c B968     		ldr	r1, [r7, #8]
 1178 002e 0A1C     		mov	r2, r1
 1179 0030 9200     		lsl	r2, r2, #2
 1180 0032 5218     		add	r2, r2, r1
 1181 0034 5200     		lsl	r2, r2, #1
 1182 0036 FA61     		str	r2, [r7, #28]
 197:.\lib_RTC/RTC_WDT.c ****     retVal += (readTime & RTC_MASK_SECONDS) >> RTC_SECONDS_SHIFT;
 1183              		.loc 2 197 0
 1184 0038 3969     		ldr	r1, [r7, #16]
 1185 003a F022     		mov	r2, #240
 1186 003c 1203     		lsl	r2, r2, #12
 1187 003e 1140     		and	r1, r2
 1188 0040 0B1C     		mov	r3, r1
 1189 0042 7A69     		ldr	r2, [r7, #20]
 1190 0044 0021     		mov	r1, #0
 1191 0046 0A40     		and	r2, r1
 1192 0048 141C     		mov	r4, r2
 1193 004a 2204     		lsl	r2, r4, #16
 1194 004c 190C     		lsr	r1, r3, #16
 1195 004e 3960     		str	r1, [r7]
 1196 0050 3968     		ldr	r1, [r7]
 1197 0052 1143     		orr	r1, r2
 1198 0054 3960     		str	r1, [r7]
 1199 0056 230C     		lsr	r3, r4, #16
 1200 0058 7B60     		str	r3, [r7, #4]
 1201 005a 3A68     		ldr	r2, [r7]
 1202 005c FB69     		ldr	r3, [r7, #28]
 1203 005e 9B18     		add	r3, r3, r2
 1204 0060 FB61     		str	r3, [r7, #28]
 198:.\lib_RTC/RTC_WDT.c **** 
 199:.\lib_RTC/RTC_WDT.c ****     return (int)(retVal);
 1205              		.loc 2 199 0
 1206 0062 FB69     		ldr	r3, [r7, #28]
 200:.\lib_RTC/RTC_WDT.c **** }
 1207              		.loc 2 200 0
 1208 0064 181C     		mov	r0, r3
 1209 0066 BD46     		mov	sp, r7
 1210 0068 09B0     		add	sp, sp, #36
 1211              		@ sp needed
 1212 006a F0BD     		pop	{r4, r5, r6, r7, pc}
 1213              		.cfi_endproc
 1214              	.LFE70:
 1215              		.size	RTCgetSecond, .-RTCgetSecond
 1216              		.section	.text.RTCgetMiliecond,"ax",%progbits
ARM GAS  C:\DOCUME~1\Admin\LOCALS~1\Temp\ccgAuayf.s 			page 36


 1217              		.align	2
 1218              		.global	RTCgetMiliecond
 1219              		.code	16
 1220              		.thumb_func
 1221              		.type	RTCgetMiliecond, %function
 1222              	RTCgetMiliecond:
 1223              	.LFB71:
 201:.\lib_RTC/RTC_WDT.c **** 
 202:.\lib_RTC/RTC_WDT.c **** /*******************************************************************************
 203:.\lib_RTC/RTC_WDT.c **** * Function Name: RTCgetMilisecond
 204:.\lib_RTC/RTC_WDT.c **** ****************************************************************************//**
 205:.\lib_RTC/RTC_WDT.c **** *
 206:.\lib_RTC/RTC_WDT.c **** * \brief
 207:.\lib_RTC/RTC_WDT.c **** *  Returns the miliseconds value 
 208:.\lib_RTC/RTC_WDT.c **** *
 209:.\lib_RTC/RTC_WDT.c **** * \return
 210:.\lib_RTC/RTC_WDT.c **** *  The miliseconds value.
 211:.\lib_RTC/RTC_WDT.c **** *
 212:.\lib_RTC/RTC_WDT.c **** *******************************************************************************/
 213:.\lib_RTC/RTC_WDT.c **** uint32_t RTCgetMiliecond(uint64_t readTime)
 214:.\lib_RTC/RTC_WDT.c **** {
 1224              		.loc 2 214 0
 1225              		.cfi_startproc
 1226 0000 F0B5     		push	{r4, r5, r6, r7, lr}
 1227              		.cfi_def_cfa_offset 20
 1228              		.cfi_offset 4, -20
 1229              		.cfi_offset 5, -16
 1230              		.cfi_offset 6, -12
 1231              		.cfi_offset 7, -8
 1232              		.cfi_offset 14, -4
 1233 0002 89B0     		sub	sp, sp, #36
 1234              		.cfi_def_cfa_offset 56
 1235 0004 00AF     		add	r7, sp, #0
 1236              		.cfi_def_cfa_register 7
 1237 0006 3861     		str	r0, [r7, #16]
 1238 0008 7961     		str	r1, [r7, #20]
 215:.\lib_RTC/RTC_WDT.c ****     uint32 retVal;
 216:.\lib_RTC/RTC_WDT.c **** 
 217:.\lib_RTC/RTC_WDT.c ****     retVal  = ((readTime & RTC_MASK_100_MILISECONDS) >> RTC_100_MILISECONDS_SHIFT) * 100u;
 1239              		.loc 2 217 0
 1240 000a 3969     		ldr	r1, [r7, #16]
 1241 000c F022     		mov	r2, #240
 1242 000e 1202     		lsl	r2, r2, #8
 1243 0010 1140     		and	r1, r2
 1244 0012 0D1C     		mov	r5, r1
 1245 0014 7A69     		ldr	r2, [r7, #20]
 1246 0016 0021     		mov	r1, #0
 1247 0018 0A40     		and	r2, r1
 1248 001a 161C     		mov	r6, r2
 1249 001c 3205     		lsl	r2, r6, #20
 1250 001e 290B     		lsr	r1, r5, #12
 1251 0020 B960     		str	r1, [r7, #8]
 1252 0022 B968     		ldr	r1, [r7, #8]
 1253 0024 1143     		orr	r1, r2
 1254 0026 B960     		str	r1, [r7, #8]
 1255 0028 320B     		lsr	r2, r6, #12
 1256 002a FA60     		str	r2, [r7, #12]
ARM GAS  C:\DOCUME~1\Admin\LOCALS~1\Temp\ccgAuayf.s 			page 37


 1257 002c B968     		ldr	r1, [r7, #8]
 1258 002e 6422     		mov	r2, #100
 1259 0030 4A43     		mul	r2, r1
 1260 0032 FA61     		str	r2, [r7, #28]
 218:.\lib_RTC/RTC_WDT.c ****     retVal  += ((readTime & RTC_MASK_10_MILISECONDS) >> RTC_10_MILISECONDS_SHIFT) * 10u;
 1261              		.loc 2 218 0
 1262 0034 3969     		ldr	r1, [r7, #16]
 1263 0036 F022     		mov	r2, #240
 1264 0038 1201     		lsl	r2, r2, #4
 1265 003a 1140     		and	r1, r2
 1266 003c 0B1C     		mov	r3, r1
 1267 003e 7A69     		ldr	r2, [r7, #20]
 1268 0040 0021     		mov	r1, #0
 1269 0042 0A40     		and	r2, r1
 1270 0044 141C     		mov	r4, r2
 1271 0046 2206     		lsl	r2, r4, #24
 1272 0048 190A     		lsr	r1, r3, #8
 1273 004a 3960     		str	r1, [r7]
 1274 004c 3968     		ldr	r1, [r7]
 1275 004e 1143     		orr	r1, r2
 1276 0050 3960     		str	r1, [r7]
 1277 0052 230A     		lsr	r3, r4, #8
 1278 0054 7B60     		str	r3, [r7, #4]
 1279 0056 3A68     		ldr	r2, [r7]
 1280 0058 131C     		mov	r3, r2
 1281 005a 9B00     		lsl	r3, r3, #2
 1282 005c 9B18     		add	r3, r3, r2
 1283 005e 5B00     		lsl	r3, r3, #1
 1284 0060 1A1C     		mov	r2, r3
 1285 0062 FB69     		ldr	r3, [r7, #28]
 1286 0064 9B18     		add	r3, r3, r2
 1287 0066 FB61     		str	r3, [r7, #28]
 219:.\lib_RTC/RTC_WDT.c ****     retVal += (readTime & RTC_MASK_MILISECONDS) >> RTC_MILISECONDS_SHIFT;
 1288              		.loc 2 219 0
 1289 0068 3B69     		ldr	r3, [r7, #16]
 1290 006a 0F22     		mov	r2, #15
 1291 006c 1340     		and	r3, r2
 1292 006e FA69     		ldr	r2, [r7, #28]
 1293 0070 D318     		add	r3, r2, r3
 1294 0072 FB61     		str	r3, [r7, #28]
 220:.\lib_RTC/RTC_WDT.c **** 
 221:.\lib_RTC/RTC_WDT.c ****     return (int)(retVal);
 1295              		.loc 2 221 0
 1296 0074 FB69     		ldr	r3, [r7, #28]
 222:.\lib_RTC/RTC_WDT.c **** }
 1297              		.loc 2 222 0
 1298 0076 181C     		mov	r0, r3
 1299 0078 BD46     		mov	sp, r7
 1300 007a 09B0     		add	sp, sp, #36
 1301              		@ sp needed
 1302 007c F0BD     		pop	{r4, r5, r6, r7, pc}
 1303              		.cfi_endproc
 1304              	.LFE71:
 1305              		.size	RTCgetMiliecond, .-RTCgetMiliecond
 1306 007e C046     		.section	.text.RTCgetRecentMs,"ax",%progbits
 1307              		.align	2
 1308              		.global	RTCgetRecentMs
ARM GAS  C:\DOCUME~1\Admin\LOCALS~1\Temp\ccgAuayf.s 			page 38


 1309              		.code	16
 1310              		.thumb_func
 1311              		.type	RTCgetRecentMs, %function
 1312              	RTCgetRecentMs:
 1313              	.LFB72:
 223:.\lib_RTC/RTC_WDT.c **** 
 224:.\lib_RTC/RTC_WDT.c **** /*******************************************************************************
 225:.\lib_RTC/RTC_WDT.c **** * Function Name: RTCgetRecentMs
 226:.\lib_RTC/RTC_WDT.c **** ****************************************************************************//**
 227:.\lib_RTC/RTC_WDT.c **** *
 228:.\lib_RTC/RTC_WDT.c **** * \brief
 229:.\lib_RTC/RTC_WDT.c **** *  reads the actual value of the millisecond timer
 230:.\lib_RTC/RTC_WDT.c **** *
 231:.\lib_RTC/RTC_WDT.c **** * \return
 232:.\lib_RTC/RTC_WDT.c **** *  The miliseconds value.
 233:.\lib_RTC/RTC_WDT.c **** *
 234:.\lib_RTC/RTC_WDT.c **** *******************************************************************************/
 235:.\lib_RTC/RTC_WDT.c **** uint32_t RTCgetRecentMs()
 236:.\lib_RTC/RTC_WDT.c **** {
 1314              		.loc 2 236 0
 1315              		.cfi_startproc
 1316 0000 80B5     		push	{r7, lr}
 1317              		.cfi_def_cfa_offset 8
 1318              		.cfi_offset 7, -8
 1319              		.cfi_offset 14, -4
 1320 0002 82B0     		sub	sp, sp, #8
 1321              		.cfi_def_cfa_offset 16
 1322 0004 00AF     		add	r7, sp, #0
 1323              		.cfi_def_cfa_register 7
 237:.\lib_RTC/RTC_WDT.c ****     uint16_t TmsRTC = 0;
 1324              		.loc 2 237 0
 1325 0006 BB1D     		add	r3, r7, #6
 1326 0008 0022     		mov	r2, #0
 1327 000a 1A80     		strh	r2, [r3]
 238:.\lib_RTC/RTC_WDT.c ****     #ifdef USE_WDT_RTC
 239:.\lib_RTC/RTC_WDT.c ****         TmsRTC = msRTC;
 1328              		.loc 2 239 0
 1329 000c BB1D     		add	r3, r7, #6
 1330 000e 044A     		ldr	r2, .L40
 1331 0010 1288     		ldrh	r2, [r2]
 1332 0012 1A80     		strh	r2, [r3]
 240:.\lib_RTC/RTC_WDT.c ****     #endif
 241:.\lib_RTC/RTC_WDT.c ****     return TmsRTC;
 1333              		.loc 2 241 0
 1334 0014 BB1D     		add	r3, r7, #6
 1335 0016 1B88     		ldrh	r3, [r3]
 242:.\lib_RTC/RTC_WDT.c **** }
 1336              		.loc 2 242 0
 1337 0018 181C     		mov	r0, r3
 1338 001a BD46     		mov	sp, r7
 1339 001c 02B0     		add	sp, sp, #8
 1340              		@ sp needed
 1341 001e 80BD     		pop	{r7, pc}
 1342              	.L41:
 1343              		.align	2
 1344              	.L40:
 1345 0020 00000000 		.word	msRTC
ARM GAS  C:\DOCUME~1\Admin\LOCALS~1\Temp\ccgAuayf.s 			page 39


 1346              		.cfi_endproc
 1347              	.LFE72:
 1348              		.size	RTCgetRecentMs, .-RTCgetRecentMs
 1349              		.text
 1350              	.Letext0:
 1351              		.file 3 "c:\\program files\\cypress\\psoc creator\\3.3\\psoc creator\\import\\gnu\\arm\\4.9.3\\arm
 1352              		.file 4 "c:\\program files\\cypress\\psoc creator\\3.3\\psoc creator\\import\\gnu\\arm\\4.9.3\\arm
 1353              		.file 5 "Generated_Source\\PSoC4/cytypes.h"
 1354              		.file 6 "./debug.h"