ARM GAS  C:\Users\Petro\AppData\Local\Temp\ccEETKdg.s 			page 1


   1              		.cpu cortex-m0
   2              		.fpu softvfp
   3              		.eabi_attribute 20, 1
   4              		.eabi_attribute 21, 1
   5              		.eabi_attribute 23, 3
   6              		.eabi_attribute 24, 1
   7              		.eabi_attribute 25, 1
   8              		.eabi_attribute 26, 1
   9              		.eabi_attribute 30, 4
  10              		.eabi_attribute 34, 0
  11              		.eabi_attribute 18, 4
  12              		.code	16
  13              		.file	"main.c"
  14              		.text
  15              	.Ltext0:
  16              		.cfi_sections	.debug_frame
  17              		.section	.text.SystemInit,"ax",%progbits
  18              		.align	1
  19              		.global	SystemInit
  20              		.code	16
  21              		.thumb_func
  22              		.type	SystemInit, %function
  23              	SystemInit:
  24              	.LFB64:
  25              		.file 1 "main.c"
   1:main.c        **** 
   2:main.c        **** #include "appGlobal.h"
   3:main.c        **** 
   4:main.c        **** 
   5:main.c        **** int main()
   6:main.c        **** {    
   7:main.c        ****     SystemInit();
   8:main.c        ****     while(InitRTC() == ERROR);
   9:main.c        **** 
  10:main.c        ****     currentState = TIME_SYNC;
  11:main.c        ****     
  12:main.c        ****     for(;;)
  13:main.c        ****     {
  14:main.c        ****         switch (currentState)
  15:main.c        ****         {
  16:main.c        ****             case TIME_SYNC:
  17:main.c        ****             {
  18:main.c        ****                 result = TimeSynchronize();
  19:main.c        ****                 if(result == TIME_SYNC_OK)
  20:main.c        ****                 {
  21:main.c        ****                     currentState = READY;
  22:main.c        ****                 }
  23:main.c        ****                 break;
  24:main.c        ****             }
  25:main.c        ****             case READY:
  26:main.c        ****             {
  27:main.c        ****                 result = CheckReady();
  28:main.c        ****                 if(result == NO_ERROR)
  29:main.c        ****                 {
  30:main.c        ****                     currentState = CHECK_GATE;
  31:main.c        ****                 }
  32:main.c        ****                 else if(result == REBOOT)  
ARM GAS  C:\Users\Petro\AppData\Local\Temp\ccEETKdg.s 			page 2


  33:main.c        ****                 {
  34:main.c        ****                     currentState = TIME_SYNC;
  35:main.c        ****                 }
  36:main.c        ****                 break;
  37:main.c        ****             }
  38:main.c        ****             case CHECK_GATE:
  39:main.c        ****             {
  40:main.c        ****                 result = CheckGate();
  41:main.c        ****                 if(result == GATE_OPEN)
  42:main.c        ****                 {
  43:main.c        ****                     currentState = SAVE_RESULT;
  44:main.c        ****                 }
  45:main.c        ****                 else
  46:main.c        ****                 {
  47:main.c        ****                     currentState = READY;
  48:main.c        ****                 }
  49:main.c        ****                 break;
  50:main.c        ****             }
  51:main.c        ****             case SAVE_RESULT:
  52:main.c        ****             {
  53:main.c        ****                 SaveResult();
  54:main.c        ****                 currentState = READY;
  55:main.c        ****                 break;
  56:main.c        ****             }            
  57:main.c        ****         }
  58:main.c        ****         //CyDelay(100);
  59:main.c        ****         TaskCheck();
  60:main.c        ****     }
  61:main.c        **** }
  62:main.c        **** 
  63:main.c        **** void SystemInit(void)
  64:main.c        **** {
  26              		.loc 1 64 0
  27              		.cfi_startproc
  28 0000 08B5     		push	{r3, lr}
  29              		.cfi_def_cfa_offset 8
  30              		.cfi_offset 3, -8
  31              		.cfi_offset 14, -4
  65:main.c        ****     DisplayStart(); 
  32              		.loc 1 65 0
  33 0002 FFF7FEFF 		bl	DisplayStart
  34              	.LVL0:
  66:main.c        ****     DisplaBacklightOn();;
  35              		.loc 1 66 0
  36 0006 FFF7FEFF 		bl	DisplaBacklightOn
  37              	.LVL1:
  67:main.c        ****     LedInit(); 
  38              		.loc 1 67 0
  39 000a FFF7FEFF 		bl	LedInit
  40              	.LVL2:
  68:main.c        ****     RTC_WDT_Init();
  41              		.loc 1 68 0
  42 000e FFF7FEFF 		bl	RTC_WDT_Init
  43              	.LVL3:
  69:main.c        ****     InitNetwork();
  44              		.loc 1 69 0
  45 0012 FFF7FEFF 		bl	InitNetwork
ARM GAS  C:\Users\Petro\AppData\Local\Temp\ccEETKdg.s 			page 3


  46              	.LVL4:
  70:main.c        ****     GateInit();
  47              		.loc 1 70 0
  48 0016 FFF7FEFF 		bl	GateInit
  49              	.LVL5:
  71:main.c        ****     InitBuff();
  50              		.loc 1 71 0
  51 001a FFF7FEFF 		bl	InitBuff
  52              	.LVL6:
  72:main.c        ****     BattADC_Init();
  53              		.loc 1 72 0
  54 001e FFF7FEFF 		bl	BattADC_Init
  55              	.LVL7:
  73:main.c        ****     
  74:main.c        ****     BLE_start();
  56              		.loc 1 74 0
  57 0022 FFF7FEFF 		bl	BLE_start
  58              	.LVL8:
  75:main.c        ****     
  76:main.c        ****     TaskTimerInit();    
  59              		.loc 1 76 0
  60 0026 FFF7FEFF 		bl	TaskTimerInit
  61              	.LVL9:
  77:main.c        ****     SetTaskTimer(ACTION1, ACTION1_TIMEOUT); //network
  62              		.loc 1 77 0
  63 002a 0020     		mov	r0, #0
  64 002c 0521     		mov	r1, #5
  65 002e FFF7FEFF 		bl	SetTaskTimer
  66              	.LVL10:
  78:main.c        ****     SetTaskTimer(ACTION2, ACTION2_TIMEOUT); //write result skier on log 
  67              		.loc 1 78 0
  68 0032 0120     		mov	r0, #1
  69 0034 0521     		mov	r1, #5
  70 0036 FFF7FEFF 		bl	SetTaskTimer
  71              	.LVL11:
  79:main.c        ****     SetTaskTimer(ACTION3, ACTION3_TIMEOUT); //display indicator
  72              		.loc 1 79 0
  73 003a 0220     		mov	r0, #2
  74 003c 0521     		mov	r1, #5
  75 003e FFF7FEFF 		bl	SetTaskTimer
  76              	.LVL12:
  80:main.c        ****     SetTaskTimer(ACTION4, ACTION4_TIMEOUT);//printf real time and num skier on way
  77              		.loc 1 80 0
  78 0042 0320     		mov	r0, #3
  79 0044 0521     		mov	r1, #5
  80 0046 FFF7FEFF 		bl	SetTaskTimer
  81              	.LVL13:
  81:main.c        ****     SetTaskTimer(ACTION5, ACTION5_TIMEOUT); //ble
  82              		.loc 1 81 0
  83 004a 0420     		mov	r0, #4
  84 004c 0521     		mov	r1, #5
  85 004e FFF7FEFF 		bl	SetTaskTimer
  86              	.LVL14:
  82:main.c        ****     
  83:main.c        ****     CyGlobalIntEnable;
  87              		.loc 1 83 0
  88              	@ 83 "main.c" 1
ARM GAS  C:\Users\Petro\AppData\Local\Temp\ccEETKdg.s 			page 4


  89 0052 62B6     		CPSIE   i
  90              	@ 0 "" 2
  84:main.c        **** }
  91              		.loc 1 84 0
  92              		.code	16
  93              		@ sp needed
  94 0054 08BD     		pop	{r3, pc}
  95              		.cfi_endproc
  96              	.LFE64:
  97              		.size	SystemInit, .-SystemInit
  98              		.section	.text.InitRTC,"ax",%progbits
  99              		.align	1
 100              		.global	InitRTC
 101              		.code	16
 102              		.thumb_func
 103              		.type	InitRTC, %function
 104              	InitRTC:
 105              	.LFB65:
  85:main.c        **** 
  86:main.c        **** uint32_t InitRTC(void)
  87:main.c        **** {
 106              		.loc 1 87 0
 107              		.cfi_startproc
 108 0000 10B5     		push	{r4, lr}
 109              		.cfi_def_cfa_offset 8
 110              		.cfi_offset 4, -8
 111              		.cfi_offset 14, -4
  88:main.c        ****     uint32_t result;
  89:main.c        ****     uint32_t unixTime;
  90:main.c        ****         
  91:main.c        ****     SetRebootFlag();
 112              		.loc 1 91 0
 113 0002 FFF7FEFF 		bl	SetRebootFlag
 114              	.LVL15:
  92:main.c        ****     /*sync real time*/
  93:main.c        ****     //DS1307_SetUnixTime(1486482814);
  94:main.c        ****     unixTime = DS1307_GetUnixTime();
 115              		.loc 1 94 0
 116 0006 FFF7FEFF 		bl	DS1307_GetUnixTime
 117              	.LVL16:
 118 000a 041E     		sub	r4, r0, #0
 119              	.LVL17:
  95:main.c        ****     if(unixTime > 0)
 120              		.loc 1 95 0
 121 000c 17D0     		beq	.L3
  96:main.c        ****     {      
  97:main.c        ****         RTC_SetUnixTime(unixTime);
 122              		.loc 1 97 0
 123 000e 0021     		mov	r1, #0
 124 0010 FFF7FEFF 		bl	RTC_SetUnixTime
 125              	.LVL18:
  98:main.c        ****         
  99:main.c        ****         result = DataBaseStart();
 126              		.loc 1 99 0
 127 0014 FFF7FEFF 		bl	DataBaseStart
 128              	.LVL19:
 129 0018 041E     		sub	r4, r0, #0
ARM GAS  C:\Users\Petro\AppData\Local\Temp\ccEETKdg.s 			page 5


 130              	.LVL20:
 100:main.c        ****         if(result == DB_NO_ERROR)
 131              		.loc 1 100 0
 132 001a 012C     		cmp	r4, #1
 133 001c 03D1     		bne	.L4
 101:main.c        ****         {
 102:main.c        ****             Display("System init...");
 134              		.loc 1 102 0
 135 001e 0E48     		ldr	r0, .L7
 136              	.LVL21:
 137 0020 FFF7FEFF 		bl	Display
 138              	.LVL22:
 139 0024 15E0     		b	.L5
 140              	.LVL23:
 141              	.L4:
 142              	.LBB4:
 143              	.LBB5:
 103:main.c        ****             result = NO_ERROR;
 104:main.c        ****         }
 105:main.c        ****         else
 106:main.c        ****         {
 107:main.c        ****             Display(" Insert SD");
 144              		.loc 1 107 0
 145 0026 0D48     		ldr	r0, .L7+4
 146              	.LVL24:
 147 0028 FFF7FEFF 		bl	Display
 148              	.LVL25:
 108:main.c        ****             result = ERROR;
 109:main.c        ****             SendFinStatus(FIN_NO_READY);
 149              		.loc 1 109 0
 150 002c 0020     		mov	r0, #0
 151 002e FFF7FEFF 		bl	SendFinStatus
 152              	.LVL26:
 110:main.c        ****             CyDelay(300);
 153              		.loc 1 110 0
 154 0032 9620     		mov	r0, #150
 155 0034 4000     		lsl	r0, r0, #1
 156 0036 FFF7FEFF 		bl	CyDelay
 157              	.LVL27:
 158 003a 0024     		mov	r4, #0
 159              	.LVL28:
 160 003c 09E0     		b	.L5
 161              	.LVL29:
 162              	.L3:
 163              	.LBE5:
 164              	.LBE4:
 111:main.c        ****         }
 112:main.c        ****     }
 113:main.c        ****     else
 114:main.c        ****     {
 115:main.c        ****         Display("Error sync");
 165              		.loc 1 115 0
 166 003e 0848     		ldr	r0, .L7+8
 167              	.LVL30:
 168 0040 FFF7FEFF 		bl	Display
 169              	.LVL31:
 116:main.c        ****         result = ERROR;
ARM GAS  C:\Users\Petro\AppData\Local\Temp\ccEETKdg.s 			page 6


 117:main.c        ****         SendFinStatus(FIN_NO_READY);
 170              		.loc 1 117 0
 171 0044 201C     		mov	r0, r4
 172 0046 FFF7FEFF 		bl	SendFinStatus
 173              	.LVL32:
 118:main.c        ****         CyDelay(500);
 174              		.loc 1 118 0
 175 004a FA20     		mov	r0, #250
 176 004c 4000     		lsl	r0, r0, #1
 177 004e FFF7FEFF 		bl	CyDelay
 178              	.LVL33:
 179              	.L5:
 119:main.c        ****     }
 120:main.c        ****     
 121:main.c        ****     return result;    
 122:main.c        **** }
 180              		.loc 1 122 0
 181 0052 201C     		mov	r0, r4
 182              		@ sp needed
 183              	.LVL34:
 184 0054 10BD     		pop	{r4, pc}
 185              	.L8:
 186 0056 C046     		.align	2
 187              	.L7:
 188 0058 00000000 		.word	.LC0
 189 005c 0F000000 		.word	.LC2
 190 0060 1A000000 		.word	.LC4
 191              		.cfi_endproc
 192              	.LFE65:
 193              		.size	InitRTC, .-InitRTC
 194              		.section	.text.TimeSynchronize,"ax",%progbits
 195              		.align	1
 196              		.global	TimeSynchronize
 197              		.code	16
 198              		.thumb_func
 199              		.type	TimeSynchronize, %function
 200              	TimeSynchronize:
 201              	.LFB66:
 123:main.c        **** 
 124:main.c        **** uint32_t TimeSynchronize(void)
 125:main.c        **** {
 202              		.loc 1 125 0
 203              		.cfi_startproc
 204 0000 10B5     		push	{r4, lr}
 205              		.cfi_def_cfa_offset 8
 206              		.cfi_offset 4, -8
 207              		.cfi_offset 14, -4
 126:main.c        ****     uint32_t result;
 127:main.c        ****     
 128:main.c        ****     LedBlink(FREQ_INIT_BLINK);
 208              		.loc 1 128 0
 209 0002 0A20     		mov	r0, #10
 210 0004 FFF7FEFF 		bl	LedBlink
 211              	.LVL35:
 129:main.c        ****     
 130:main.c        ****     /* network connect */
 131:main.c        ****     if(NetworkStatus() == NETWORK_DISCONNECT)
ARM GAS  C:\Users\Petro\AppData\Local\Temp\ccEETKdg.s 			page 7


 212              		.loc 1 131 0
 213 0008 FFF7FEFF 		bl	NetworkStatus
 214              	.LVL36:
 215 000c 0028     		cmp	r0, #0
 216 000e 03D1     		bne	.L10
 132:main.c        ****     {
 133:main.c        ****         Display("Connect...");
 217              		.loc 1 133 0
 218 0010 1448     		ldr	r0, .L13
 219 0012 FFF7FEFF 		bl	Display
 220              	.LVL37:
 221 0016 22E0     		b	.L11
 222              	.L10:
 134:main.c        ****     }
 135:main.c        ****     else
 136:main.c        ****     {  
 137:main.c        ****         /* time sync */
 138:main.c        ****         Display("Sync time...");
 223              		.loc 1 138 0
 224 0018 1348     		ldr	r0, .L13+4
 225 001a FFF7FEFF 		bl	Display
 226              	.LVL38:
 139:main.c        ****         if(NTPsync() == TIME_SYNC_OK)
 227              		.loc 1 139 0
 228 001e FFF7FEFF 		bl	NTPsync
 229              	.LVL39:
 230 0022 041E     		sub	r4, r0, #0
 231 0024 0ED1     		bne	.L12
 232              	.LBB8:
 233              	.LBB9:
 140:main.c        ****         {
 141:main.c        ****             Display("  Sync ok");
 234              		.loc 1 141 0
 235 0026 1148     		ldr	r0, .L13+8
 236 0028 FFF7FEFF 		bl	Display
 237              	.LVL40:
 142:main.c        ****             ClearRebootFlag();
 238              		.loc 1 142 0
 239 002c FFF7FEFF 		bl	ClearRebootFlag
 240              	.LVL41:
 143:main.c        ****             BLE_sendSystemStatus(STATUS_OK);
 241              		.loc 1 143 0
 242 0030 201C     		mov	r0, r4
 243 0032 FFF7FEFF 		bl	BLE_sendSystemStatus
 244              	.LVL42:
 144:main.c        ****             ResetTimerForTimeSync();
 245              		.loc 1 144 0
 246 0036 FFF7FEFF 		bl	ResetTimerForTimeSync
 247              	.LVL43:
 145:main.c        ****             
 146:main.c        ****             CyDelay(TIMEOUT_USER_READ_INFO);
 248              		.loc 1 146 0
 249 003a FA20     		mov	r0, #250
 250 003c 4000     		lsl	r0, r0, #1
 251 003e FFF7FEFF 		bl	CyDelay
 252              	.LVL44:
 253 0042 0CE0     		b	.L11
ARM GAS  C:\Users\Petro\AppData\Local\Temp\ccEETKdg.s 			page 8


 254              	.LVL45:
 255              	.L12:
 256              	.LBE9:
 257              	.LBE8:
 147:main.c        ****             
 148:main.c        ****             result = TIME_SYNC_OK;
 149:main.c        ****         }
 150:main.c        ****         else
 151:main.c        ****         {
 152:main.c        ****             Display("Sync error");
 258              		.loc 1 152 0
 259 0044 0A48     		ldr	r0, .L13+12
 260 0046 FFF7FEFF 		bl	Display
 261              	.LVL46:
 153:main.c        ****             SetRebootFlag();
 262              		.loc 1 153 0
 263 004a FFF7FEFF 		bl	SetRebootFlag
 264              	.LVL47:
 154:main.c        ****             BLE_sendSystemStatus(STATUS_ERROR);
 265              		.loc 1 154 0
 266 004e 0120     		mov	r0, #1
 267 0050 FFF7FEFF 		bl	BLE_sendSystemStatus
 268              	.LVL48:
 155:main.c        ****             CyDelay(TIMEOUT_USER_READ_INFO);
 269              		.loc 1 155 0
 270 0054 FA20     		mov	r0, #250
 271 0056 4000     		lsl	r0, r0, #1
 272 0058 FFF7FEFF 		bl	CyDelay
 273              	.LVL49:
 156:main.c        ****             
 157:main.c        ****             result = TIME_SYNC_ERR;
 274              		.loc 1 157 0
 275 005c 0124     		mov	r4, #1
 276              	.LVL50:
 277              	.L11:
 158:main.c        ****         }
 159:main.c        ****     }
 160:main.c        ****     
 161:main.c        ****     return result;
 162:main.c        **** }
 278              		.loc 1 162 0
 279 005e 201C     		mov	r0, r4
 280              		@ sp needed
 281              	.LVL51:
 282 0060 10BD     		pop	{r4, pc}
 283              	.L14:
 284 0062 C046     		.align	2
 285              	.L13:
 286 0064 25000000 		.word	.LC6
 287 0068 30000000 		.word	.LC8
 288 006c 3D000000 		.word	.LC10
 289 0070 47000000 		.word	.LC12
 290              		.cfi_endproc
 291              	.LFE66:
 292              		.size	TimeSynchronize, .-TimeSynchronize
 293              		.section	.text.CheckReady,"ax",%progbits
 294              		.align	1
ARM GAS  C:\Users\Petro\AppData\Local\Temp\ccEETKdg.s 			page 9


 295              		.global	CheckReady
 296              		.code	16
 297              		.thumb_func
 298              		.type	CheckReady, %function
 299              	CheckReady:
 300              	.LFB67:
 163:main.c        **** 
 164:main.c        **** 
 165:main.c        **** uint32_t CheckReady(void)
 166:main.c        **** {
 301              		.loc 1 166 0
 302              		.cfi_startproc
 303 0000 38B5     		push	{r3, r4, r5, lr}
 304              		.cfi_def_cfa_offset 16
 305              		.cfi_offset 3, -16
 306              		.cfi_offset 4, -12
 307              		.cfi_offset 5, -8
 308              		.cfi_offset 14, -4
 167:main.c        ****     uint32_t result;   
 168:main.c        ****  
 169:main.c        ****     /*sise FIFO*/
 170:main.c        ****     if ((FifoGetSize() >= MAX_SKIERS_ON_BUF/*main_db_buffer) */)&& (FifoGetSize() <= MAX_FIFO_SIZE)
 309              		.loc 1 170 0
 310 0002 FFF7FEFF 		bl	FifoGetSize
 311              	.LVL52:
 312 0006 0728     		cmp	r0, #7
 313 0008 0FD9     		bls	.L16
 314              		.loc 1 170 0 is_stmt 0 discriminator 1
 315 000a FFF7FEFF 		bl	FifoGetSize
 316              	.LVL53:
 317 000e 0C28     		cmp	r0, #12
 318 0010 0BD8     		bhi	.L16
 171:main.c        ****     {
 172:main.c        ****         /*skier finish successful*/
 173:main.c        ****         Display("Err SD Card!");
 319              		.loc 1 173 0 is_stmt 1
 320 0012 2748     		ldr	r0, .L28
 321 0014 FFF7FEFF 		bl	Display
 322              	.LVL54:
 174:main.c        ****         SendFinStatus(FIN_NO_READY); 
 323              		.loc 1 174 0
 324 0018 0020     		mov	r0, #0
 325 001a FFF7FEFF 		bl	SendFinStatus
 326              	.LVL55:
 175:main.c        ****         
 176:main.c        ****         if (SkierOnWay() != 0)
 327              		.loc 1 176 0
 328 001e FFF7FEFF 		bl	SkierOnWay
 329              	.LVL56:
 177:main.c        ****         {
 178:main.c        ****             /*if skiers on way*/
 179:main.c        ****             result = NO_ERROR;
 180:main.c        ****         }
 181:main.c        ****         else
 182:main.c        ****         {
 183:main.c        ****             /*if not skiers on way*/
 184:main.c        ****             result = ERROR;
ARM GAS  C:\Users\Petro\AppData\Local\Temp\ccEETKdg.s 			page 10


 330              		.loc 1 184 0
 331 0022 041C     		mov	r4, r0
 332 0024 601E     		sub	r0, r4, #1
 333 0026 8441     		sbc	r4, r4, r0
 334 0028 2CE0     		b	.L17
 335              	.L16:
 185:main.c        ****         }        
 186:main.c        ****     }
 187:main.c        ****     else if(FifoGetSize() > MAX_FIFO_SIZE)
 336              		.loc 1 187 0
 337 002a FFF7FEFF 		bl	FifoGetSize
 338              	.LVL57:
 339 002e 0C28     		cmp	r0, #12
 340 0030 07D9     		bls	.L18
 188:main.c        ****     {
 189:main.c        ****         /*skier finish no successful*/
 190:main.c        ****         Display("Err SD Card!");
 341              		.loc 1 190 0
 342 0032 1F48     		ldr	r0, .L28
 343 0034 FFF7FEFF 		bl	Display
 344              	.LVL58:
 191:main.c        ****         SendFinStatus(FIN_NO_READY); 
 345              		.loc 1 191 0
 346 0038 0020     		mov	r0, #0
 347 003a FFF7FEFF 		bl	SendFinStatus
 348              	.LVL59:
 192:main.c        ****         
 193:main.c        ****         result = ERROR;                
 349              		.loc 1 193 0
 350 003e 0024     		mov	r4, #0
 351 0040 20E0     		b	.L17
 352              	.LVL60:
 353              	.L18:
 194:main.c        ****     }
 195:main.c        ****     else if(SkierOnWay() >= MAX_SKIERS_ON_WAY/*MAX_COUNT, TRACK_OVERFLOW*/)
 354              		.loc 1 195 0
 355 0042 FFF7FEFF 		bl	SkierOnWay
 356              	.LVL61:
 357 0046 0328     		cmp	r0, #3
 358 0048 06D9     		bls	.L19
 196:main.c        ****     {
 197:main.c        ****         /*max skier on way*/
 198:main.c        ****      
 199:main.c        ****         Display(" Max skier");
 359              		.loc 1 199 0
 360 004a 1A48     		ldr	r0, .L28+4
 361 004c FFF7FEFF 		bl	Display
 362              	.LVL62:
 200:main.c        ****         SendFinStatus(FIN_NO_READY);
 363              		.loc 1 200 0
 364 0050 0020     		mov	r0, #0
 365 0052 FFF7FEFF 		bl	SendFinStatus
 366              	.LVL63:
 367 0056 14E0     		b	.L27
 368              	.LVL64:
 369              	.L19:
 201:main.c        ****         ////CyDelay(TIMEOUT_USER_READ_INFO);
ARM GAS  C:\Users\Petro\AppData\Local\Temp\ccEETKdg.s 			page 11


 202:main.c        ****         
 203:main.c        ****         result = NO_ERROR;      
 204:main.c        ****     }
 205:main.c        ****     else if(SkierOnWay() == 0)
 370              		.loc 1 205 0
 371 0058 FFF7FEFF 		bl	SkierOnWay
 372              	.LVL65:
 373 005c 164D     		ldr	r5, .L28+8
 374 005e 041E     		sub	r4, r0, #0
 375 0060 09D1     		bne	.L20
 206:main.c        ****     {
 207:main.c        ****         Display("   Ready");
 376              		.loc 1 207 0
 377 0062 281C     		mov	r0, r5
 378 0064 FFF7FEFF 		bl	Display
 379              	.LVL66:
 208:main.c        ****         SendFinStatus(FIN_READY);
 380              		.loc 1 208 0
 381 0068 0120     		mov	r0, #1
 382 006a FFF7FEFF 		bl	SendFinStatus
 383              	.LVL67:
 209:main.c        ****         SetLedState(LED_DISABLE);        
 384              		.loc 1 209 0
 385 006e 201C     		mov	r0, r4
 386 0070 FFF7FEFF 		bl	SetLedState
 387              	.LVL68:
 388 0074 06E0     		b	.L17
 389              	.LVL69:
 390              	.L20:
 210:main.c        ****         
 211:main.c        ****         result = ERROR;      
 212:main.c        ****     }
 213:main.c        ****     else
 214:main.c        ****     {
 215:main.c        ****         /*finish ready*/
 216:main.c        ****         SendFinStatus(FIN_READY);
 391              		.loc 1 216 0
 392 0076 0120     		mov	r0, #1
 393 0078 FFF7FEFF 		bl	SendFinStatus
 394              	.LVL70:
 217:main.c        ****         Display("   Ready");
 395              		.loc 1 217 0
 396 007c 281C     		mov	r0, r5
 397 007e FFF7FEFF 		bl	Display
 398              	.LVL71:
 399              	.L27:
 218:main.c        ****         
 219:main.c        ****         result = NO_ERROR;
 400              		.loc 1 219 0
 401 0082 0124     		mov	r4, #1
 402              	.LVL72:
 403              	.L17:
 220:main.c        ****     }
 221:main.c        ****     
 222:main.c        ****     //if(ReadRebootStartFlag() == REBOOT/*IS*/)
 223:main.c        ****     if(IsRebootStartFlag() == REBOOT)
 404              		.loc 1 223 0
ARM GAS  C:\Users\Petro\AppData\Local\Temp\ccEETKdg.s 			page 12


 405 0084 FFF7FEFF 		bl	IsRebootStartFlag
 406              	.LVL73:
 407 0088 FF28     		cmp	r0, #255
 408 008a 00D1     		bne	.L21
 224:main.c        ****     {
 225:main.c        ****         result = REBOOT;
 409              		.loc 1 225 0
 410 008c 041C     		mov	r4, r0
 411              	.LVL74:
 412              	.L21:
 226:main.c        ****     }
 227:main.c        ****     
 228:main.c        ****     /*if  admin , read skier time from SD card and send bluetooth*/
 229:main.c        ****     if(BLE_getFlagAdminOnly() != 0)
 413              		.loc 1 229 0
 414 008e FFF7FEFF 		bl	BLE_getFlagAdminOnly
 415              	.LVL75:
 416 0092 0028     		cmp	r0, #0
 417 0094 01D0     		beq	.L22
 230:main.c        ****     {
 231:main.c        ****         ReadSkierResultAndSendBLE();
 418              		.loc 1 231 0
 419 0096 FFF7FEFF 		bl	ReadSkierResultAndSendBLE
 420              	.LVL76:
 421              	.L22:
 232:main.c        ****     }
 233:main.c        ****     
 234:main.c        ****     if(ChekTimerForTimeSync() == SYNC_REQUIRES)
 422              		.loc 1 234 0
 423 009a FFF7FEFF 		bl	ChekTimerForTimeSync
 424              	.LVL77:
 425 009e 0128     		cmp	r0, #1
 426 00a0 01D1     		bne	.L23
 235:main.c        ****     {
 236:main.c        ****         SetRebootFlag();
 427              		.loc 1 236 0
 428 00a2 FFF7FEFF 		bl	SetRebootFlag
 429              	.LVL78:
 430              	.L23:
 237:main.c        ****     }
 238:main.c        ****    
 239:main.c        ****     /*test mode on/off*/
 240:main.c        ****     newFuncTestMode();
 431              		.loc 1 240 0
 432 00a6 FFF7FEFF 		bl	newFuncTestMode
 433              	.LVL79:
 241:main.c        ****  
 242:main.c        ****     return result;
 243:main.c        **** }
 434              		.loc 1 243 0
 435              		@ sp needed
 436 00aa 201C     		mov	r0, r4
 437              	.LVL80:
 438 00ac 38BD     		pop	{r3, r4, r5, pc}
 439              	.L29:
 440 00ae C046     		.align	2
 441              	.L28:
ARM GAS  C:\Users\Petro\AppData\Local\Temp\ccEETKdg.s 			page 13


 442 00b0 52000000 		.word	.LC14
 443 00b4 5F000000 		.word	.LC16
 444 00b8 6A000000 		.word	.LC18
 445              		.cfi_endproc
 446              	.LFE67:
 447              		.size	CheckReady, .-CheckReady
 448              		.section	.text.CheckGate,"ax",%progbits
 449              		.align	1
 450              		.global	CheckGate
 451              		.code	16
 452              		.thumb_func
 453              		.type	CheckGate, %function
 454              	CheckGate:
 455              	.LFB68:
 244:main.c        **** 
 245:main.c        **** uint32_t CheckGate(void)
 246:main.c        **** {
 456              		.loc 1 246 0
 457              		.cfi_startproc
 458 0000 10B5     		push	{r4, lr}
 459              		.cfi_def_cfa_offset 8
 460              		.cfi_offset 4, -8
 461              		.cfi_offset 14, -4
 247:main.c        ****     uint32_t result;
 248:main.c        ****     
 249:main.c        ****     SetLedState(LED_ENABLE);
 462              		.loc 1 249 0
 463 0002 0120     		mov	r0, #1
 464 0004 FFF7FEFF 		bl	SetLedState
 465              	.LVL81:
 250:main.c        ****     result = GateIsOpen();/*IsGateOpen(), CheckGateStatus()*/
 466              		.loc 1 250 0
 467 0008 FFF7FEFF 		bl	GateIsOpen
 468              	.LVL82:
 469 000c 041E     		sub	r4, r0, #0
 470              	.LVL83:
 251:main.c        ****     
 252:main.c        ****     if(result == GATE_OPEN)
 471              		.loc 1 252 0
 472 000e 012C     		cmp	r4, #1
 473 0010 07D1     		bne	.L31
 474              	.LBB12:
 475              	.LBB13:
 253:main.c        ****     {
 254:main.c        ****         Display("Skier Finished");
 476              		.loc 1 254 0
 477 0012 0748     		ldr	r0, .L33
 478              	.LVL84:
 479 0014 FFF7FEFF 		bl	Display
 480              	.LVL85:
 255:main.c        ****         CyDelay(TIMEOUT_USER_READ_INFO);
 481              		.loc 1 255 0
 482 0018 FA20     		mov	r0, #250
 483 001a 4000     		lsl	r0, r0, #1
 484 001c FFF7FEFF 		bl	CyDelay
 485              	.LVL86:
 486 0020 03E0     		b	.L32
ARM GAS  C:\Users\Petro\AppData\Local\Temp\ccEETKdg.s 			page 14


 487              	.LVL87:
 488              	.L31:
 489              	.LBE13:
 490              	.LBE12:
 256:main.c        ****     }
 257:main.c        ****     else
 258:main.c        ****     {
 259:main.c        ****         AllowNextSkier();
 491              		.loc 1 259 0
 492 0022 FFF7FEFF 		bl	AllowNextSkier
 493              	.LVL88:
 260:main.c        ****         AllowNextTestSkier();
 494              		.loc 1 260 0
 495 0026 FFF7FEFF 		bl	AllowNextTestSkier
 496              	.LVL89:
 497              	.L32:
 261:main.c        ****     }
 262:main.c        ****     
 263:main.c        ****     return result;  
 264:main.c        **** }
 498              		.loc 1 264 0
 499 002a 201C     		mov	r0, r4
 500              		@ sp needed
 501              	.LVL90:
 502 002c 10BD     		pop	{r4, pc}
 503              	.L34:
 504 002e C046     		.align	2
 505              	.L33:
 506 0030 73000000 		.word	.LC20
 507              		.cfi_endproc
 508              	.LFE68:
 509              		.size	CheckGate, .-CheckGate
 510              		.section	.text.SaveResult,"ax",%progbits
 511              		.align	1
 512              		.global	SaveResult
 513              		.code	16
 514              		.thumb_func
 515              		.type	SaveResult, %function
 516              	SaveResult:
 517              	.LFB69:
 265:main.c        **** 
 266:main.c        **** void SaveResult(void)
 267:main.c        **** {
 518              		.loc 1 267 0
 519              		.cfi_startproc
 520 0000 1FB5     		push	{r0, r1, r2, r3, r4, lr}
 521              		.cfi_def_cfa_offset 24
 522              		.cfi_offset 0, -24
 523              		.cfi_offset 1, -20
 524              		.cfi_offset 2, -16
 525              		.cfi_offset 3, -12
 526              		.cfi_offset 4, -8
 527              		.cfi_offset 14, -4
 268:main.c        ****     uint64_t finUnixTime;
 269:main.c        ****     uint32_t finRecentMs;
 270:main.c        ****     
 271:main.c        ****     SendFinStatus(FIN_READY);
ARM GAS  C:\Users\Petro\AppData\Local\Temp\ccEETKdg.s 			page 15


 528              		.loc 1 271 0
 529 0002 0120     		mov	r0, #1
 530 0004 FFF7FEFF 		bl	SendFinStatus
 531              	.LVL91:
 272:main.c        ****     LedBlink(FREQ_INIT_BLINK);
 532              		.loc 1 272 0
 533 0008 0A20     		mov	r0, #10
 534 000a FFF7FEFF 		bl	LedBlink
 535              	.LVL92:
 273:main.c        ****     Display(" Save data");
 536              		.loc 1 273 0
 537 000e 0E48     		ldr	r0, .L36
 538 0010 FFF7FEFF 		bl	Display
 539              	.LVL93:
 274:main.c        ****     ////CyDelay(TIMEOUT_USER_READ_INFO);
 275:main.c        ****     
 276:main.c        ****     /*write time in fifo*/
 277:main.c        ****     GetFinTime(&finUnixTime, &finRecentMs);
 540              		.loc 1 277 0
 541 0014 02A8     		add	r0, sp, #8
 542 0016 01A9     		add	r1, sp, #4
 543 0018 FFF7FEFF 		bl	GetFinTime
 544              	.LVL94:
 278:main.c        ****     WriteFinishTime(finUnixTime,finRecentMs);
 545              		.loc 1 278 0
 546 001c 0298     		ldr	r0, [sp, #8]
 547 001e 0399     		ldr	r1, [sp, #12]
 548 0020 019B     		ldr	r3, [sp, #4]
 279:main.c        ****     
 280:main.c        ****     FifoPushLastFinished();
 281:main.c        ****     
 282:main.c        ****     /*print time result last skier finished*/
 283:main.c        ****     DisplayLastSkierTime(LastSecTimeOnWay(),LastMillsTimeOnWay());/*LastTimeOnWaySecs(), LastTimeOn
 284:main.c        ****     CyDelay(TIMEOUT_USER_READ_INFO);
 285:main.c        **** }
 549              		.loc 1 285 0
 550              		@ sp needed
 278:main.c        ****     WriteFinishTime(finUnixTime,finRecentMs);
 551              		.loc 1 278 0
 552 0022 9AB2     		uxth	r2, r3
 553 0024 FFF7FEFF 		bl	WriteFinishTime
 554              	.LVL95:
 280:main.c        ****     
 555              		.loc 1 280 0
 556 0028 FFF7FEFF 		bl	FifoPushLastFinished
 557              	.LVL96:
 283:main.c        ****     CyDelay(TIMEOUT_USER_READ_INFO);
 558              		.loc 1 283 0
 559 002c FFF7FEFF 		bl	LastSecTimeOnWay
 560              	.LVL97:
 561 0030 041C     		mov	r4, r0
 562 0032 FFF7FEFF 		bl	LastMillsTimeOnWay
 563              	.LVL98:
 564 0036 81B2     		uxth	r1, r0
 565 0038 201C     		mov	r0, r4
 566 003a FFF7FEFF 		bl	DisplayLastSkierTime
 567              	.LVL99:
ARM GAS  C:\Users\Petro\AppData\Local\Temp\ccEETKdg.s 			page 16


 284:main.c        **** }
 568              		.loc 1 284 0
 569 003e FA20     		mov	r0, #250
 570 0040 4000     		lsl	r0, r0, #1
 571 0042 FFF7FEFF 		bl	CyDelay
 572              	.LVL100:
 573              		.loc 1 285 0
 574 0046 1FBD     		pop	{r0, r1, r2, r3, r4, pc}
 575              	.L37:
 576              		.align	2
 577              	.L36:
 578 0048 82000000 		.word	.LC22
 579              		.cfi_endproc
 580              	.LFE69:
 581              		.size	SaveResult, .-SaveResult
 582              		.section	.text.startup.main,"ax",%progbits
 583              		.align	1
 584              		.global	main
 585              		.code	16
 586              		.thumb_func
 587              		.type	main, %function
 588              	main:
 589              	.LFB63:
   6:main.c        ****     SystemInit();
 590              		.loc 1 6 0
 591              		.cfi_startproc
 592 0000 10B5     		push	{r4, lr}
 593              		.cfi_def_cfa_offset 8
 594              		.cfi_offset 4, -8
 595              		.cfi_offset 14, -4
   7:main.c        ****     while(InitRTC() == ERROR);
 596              		.loc 1 7 0
 597 0002 FFF7FEFF 		bl	SystemInit
 598              	.LVL101:
 599              	.L39:
   8:main.c        **** 
 600              		.loc 1 8 0 discriminator 1
 601 0006 FFF7FEFF 		bl	InitRTC
 602              	.LVL102:
 603 000a 0028     		cmp	r0, #0
 604 000c FBD0     		beq	.L39
  10:main.c        ****     
 605              		.loc 1 10 0
 606 000e 0023     		mov	r3, #0
 607 0010 144C     		ldr	r4, .L56
 608 0012 2370     		strb	r3, [r4]
 609              	.L49:
  14:main.c        ****         {
 610              		.loc 1 14 0
 611 0014 2078     		ldrb	r0, [r4]
 612 0016 0328     		cmp	r0, #3
 613 0018 21D8     		bhi	.L40
 614 001a FFF7FEFF 		bl	__gnu_thumb1_case_uqi
 615              	.L42:
 616 001e 02       		.byte	(.L41-.L42)/2
 617 001f 09       		.byte	(.L43-.L42)/2
 618 0020 14       		.byte	(.L44-.L42)/2
ARM GAS  C:\Users\Petro\AppData\Local\Temp\ccEETKdg.s 			page 17


 619 0021 1C       		.byte	(.L45-.L42)/2
 620              		.p2align 1
 621              	.L41:
  18:main.c        ****                 if(result == TIME_SYNC_OK)
 622              		.loc 1 18 0
 623 0022 FFF7FEFF 		bl	TimeSynchronize
 624              	.LVL103:
 625 0026 104B     		ldr	r3, .L56+4
 626 0028 1860     		str	r0, [r3]
  19:main.c        ****                 {
 627              		.loc 1 19 0
 628 002a 0028     		cmp	r0, #0
 629 002c 17D1     		bne	.L40
 630 002e 14E0     		b	.L54
 631              	.L43:
  27:main.c        ****                 if(result == NO_ERROR)
 632              		.loc 1 27 0
 633 0030 FFF7FEFF 		bl	CheckReady
 634              	.LVL104:
 635 0034 0C4B     		ldr	r3, .L56+4
 636 0036 1860     		str	r0, [r3]
  30:main.c        ****                 }
 637              		.loc 1 30 0
 638 0038 0223     		mov	r3, #2
  28:main.c        ****                 {
 639              		.loc 1 28 0
 640 003a 0128     		cmp	r0, #1
 641 003c 0ED0     		beq	.L55
  34:main.c        ****                 }
 642              		.loc 1 34 0
 643 003e 0023     		mov	r3, #0
  32:main.c        ****                 {
 644              		.loc 1 32 0
 645 0040 FF28     		cmp	r0, #255
 646 0042 0CD1     		bne	.L40
 647 0044 0AE0     		b	.L55
 648              	.L44:
  40:main.c        ****                 if(result == GATE_OPEN)
 649              		.loc 1 40 0
 650 0046 FFF7FEFF 		bl	CheckGate
 651              	.LVL105:
 652 004a 074B     		ldr	r3, .L56+4
 653 004c 1860     		str	r0, [r3]
  43:main.c        ****                 }
 654              		.loc 1 43 0
 655 004e 0323     		mov	r3, #3
  41:main.c        ****                 {
 656              		.loc 1 41 0
 657 0050 0128     		cmp	r0, #1
 658 0052 02D1     		bne	.L54
 659 0054 02E0     		b	.L55
 660              	.L45:
  53:main.c        ****                 currentState = READY;
 661              		.loc 1 53 0
 662 0056 FFF7FEFF 		bl	SaveResult
 663              	.LVL106:
 664              	.L54:
ARM GAS  C:\Users\Petro\AppData\Local\Temp\ccEETKdg.s 			page 18


  54:main.c        ****                 break;
 665              		.loc 1 54 0
 666 005a 0123     		mov	r3, #1
 667              	.L55:
 668 005c 2370     		strb	r3, [r4]
 669              	.L40:
  59:main.c        ****     }
 670              		.loc 1 59 0
 671 005e FFF7FEFF 		bl	TaskCheck
 672              	.LVL107:
  60:main.c        **** }
 673              		.loc 1 60 0
 674 0062 D7E7     		b	.L49
 675              	.L57:
 676              		.align	2
 677              	.L56:
 678 0064 00000000 		.word	currentState
 679 0068 00000000 		.word	.LANCHOR0
 680              		.cfi_endproc
 681              	.LFE63:
 682              		.size	main, .-main
 683              		.comm	currentState,1,1
 684              		.section	.rodata.str1.1,"aMS",%progbits,1
 685              	.LC0:
 686 0000 53797374 		.ascii	"System init...\000"
 686      656D2069 
 686      6E69742E 
 686      2E2E00
 687              	.LC2:
 688 000f 20496E73 		.ascii	" Insert SD\000"
 688      65727420 
 688      534400
 689              	.LC4:
 690 001a 4572726F 		.ascii	"Error sync\000"
 690      72207379 
 690      6E6300
 691              	.LC6:
 692 0025 436F6E6E 		.ascii	"Connect...\000"
 692      6563742E 
 692      2E2E00
 693              	.LC8:
 694 0030 53796E63 		.ascii	"Sync time...\000"
 694      2074696D 
 694      652E2E2E 
 694      00
 695              	.LC10:
 696 003d 20205379 		.ascii	"  Sync ok\000"
 696      6E63206F 
 696      6B00
 697              	.LC12:
 698 0047 53796E63 		.ascii	"Sync error\000"
 698      20657272 
 698      6F7200
 699              	.LC14:
 700 0052 45727220 		.ascii	"Err SD Card!\000"
 700      53442043 
 700      61726421 
ARM GAS  C:\Users\Petro\AppData\Local\Temp\ccEETKdg.s 			page 19


 700      00
 701              	.LC16:
 702 005f 204D6178 		.ascii	" Max skier\000"
 702      20736B69 
 702      657200
 703              	.LC18:
 704 006a 20202052 		.ascii	"   Ready\000"
 704      65616479 
 704      00
 705              	.LC20:
 706 0073 536B6965 		.ascii	"Skier Finished\000"
 706      72204669 
 706      6E697368 
 706      656400
 707              	.LC22:
 708 0082 20536176 		.ascii	" Save data\000"
 708      65206461 
 708      746100
 709              		.bss
 710              		.align	2
 711              		.set	.LANCHOR0,. + 0
 712              		.type	result, %object
 713              		.size	result, 4
 714              	result:
 715 0000 00000000 		.space	4
 716              		.text
 717              	.Letext0:
 718              		.file 2 "c:\\program files (x86)\\cypress\\psoc creator\\4.0\\psoc creator\\import\\gnu\\arm\\4.9.
 719              		.file 3 "c:\\program files (x86)\\cypress\\psoc creator\\4.0\\psoc creator\\import\\gnu\\arm\\4.9.
 720              		.file 4 "Generated_Source\\PSoC4/cytypes.h"
 721              		.file 5 "Generated_Source\\PSoC4/ble_Stack.h"
 722              		.file 6 "lib_BLE\\bluetooth.h"
 723              		.file 7 "lib_TaskTimer\\taskAutomat.h"
 724              		.file 8 "appGlobal.h"
 725              		.file 9 "lib_Display\\display.h"
 726              		.file 10 "lib_LED\\LED.h"
 727              		.file 11 "lib_Network\\network.h"
 728              		.file 12 "lib_Gate\\gate.h"
 729              		.file 13 "lib_RTC\\RTC_WDT.h"
 730              		.file 14 "lib_DB\\database.h"
 731              		.file 15 "lib_Batt\\batt.h"
 732              		.file 16 "Generated_Source\\PSoC4/CyLib.h"
 733              		.file 17 "Generated_Source\\PSoC4/RTC.h"
 734              		.file 18 "lib_DS1307\\DS1307.h"
 735              		.file 19 "./lib_DB\\logResult.h"
 736              		.file 20 "lib_testMode\\testMode.h"