ARM GAS  C:\Users\Petro\AppData\Local\Temp\ccQnjlQx.s 			page 1


   1              		.cpu cortex-m0
   2              		.fpu softvfp
   3              		.eabi_attribute 20, 1
   4              		.eabi_attribute 21, 1
   5              		.eabi_attribute 23, 3
   6              		.eabi_attribute 24, 1
   7              		.eabi_attribute 25, 1
   8              		.eabi_attribute 26, 1
   9              		.eabi_attribute 30, 6
  10              		.eabi_attribute 34, 0
  11              		.eabi_attribute 18, 4
  12              		.code	16
  13              		.file	"ble.c"
  14              		.text
  15              	.Ltext0:
  16              		.cfi_sections	.debug_frame
  17              		.global	cyBle_initVar
  18              		.bss
  19              		.type	cyBle_initVar, %object
  20              		.size	cyBle_initVar, 1
  21              	cyBle_initVar:
  22 0000 00       		.space	1
  23              		.comm	cyBle_stackMemoryRam,2760,8
  24              		.global	cyBle_discoveryParam
  25              		.data
  26              		.align	2
  27              		.type	cyBle_discoveryParam, %object
  28              		.size	cyBle_discoveryParam, 16
  29              	cyBle_discoveryParam:
  30 0000 2000     		.short	32
  31 0002 3000     		.short	48
  32 0004 00       		.byte	0
  33 0005 00       		.byte	0
  34 0006 00       		.byte	0
  35 0007 00       		.byte	0
  36 0008 00       		.byte	0
  37 0009 00       		.byte	0
  38 000a 50       		.byte	80
  39 000b A0       		.byte	-96
  40 000c 00       		.byte	0
  41 000d 07       		.byte	7
  42 000e 00       		.byte	0
  43 000f 00       		.space	1
  44              		.global	cyBle_discoveryData
  45              		.align	2
  46              		.type	cyBle_discoveryData, %object
  47              		.size	cyBle_discoveryData, 32
  48              	cyBle_discoveryData:
  49 0010 02       		.byte	2
  50 0011 01       		.byte	1
  51 0012 06       		.byte	6
  52 0013 09       		.byte	9
  53 0014 09       		.byte	9
  54 0015 53       		.byte	83
  55 0016 46       		.byte	70
  56 0017 73       		.byte	115
  57 0018 79       		.byte	121
ARM GAS  C:\Users\Petro\AppData\Local\Temp\ccQnjlQx.s 			page 2


  58 0019 73       		.byte	115
  59 001a 74       		.byte	116
  60 001b 65       		.byte	101
  61 001c 6D       		.byte	109
  62 001d 11       		.byte	17
  63 001e 07       		.byte	7
  64 001f F0       		.byte	-16
  65 0020 34       		.byte	52
  66 0021 9B       		.byte	-101
  67 0022 5F       		.byte	95
  68 0023 80       		.byte	-128
  69 0024 00       		.byte	0
  70 0025 00       		.byte	0
  71 0026 80       		.byte	-128
  72 0027 00       		.byte	0
  73 0028 10       		.byte	16
  74 0029 00       		.byte	0
  75 002a 00       		.byte	0
  76 002b 00       		.byte	0
  77 002c 00       		.byte	0
  78 002d 00       		.byte	0
  79 002e 00       		.byte	0
  80 002f 1F       		.byte	31
  81              		.global	cyBle_scanRspData
  82              		.bss
  83 0001 000000   		.align	2
  84              		.type	cyBle_scanRspData, %object
  85              		.size	cyBle_scanRspData, 32
  86              	cyBle_scanRspData:
  87 0004 00000000 		.space	32
  87      00000000 
  87      00000000 
  87      00000000 
  87      00000000 
  88              		.global	cyBle_discoveryModeInfo
  89              		.data
  90              		.align	2
  91              		.type	cyBle_discoveryModeInfo, %object
  92              		.size	cyBle_discoveryModeInfo, 20
  93              	cyBle_discoveryModeInfo:
  94 0030 02       		.byte	2
  95 0031 000000   		.space	3
  96 0034 00000000 		.word	cyBle_discoveryParam
  97 0038 00000000 		.word	cyBle_discoveryData
  98 003c 00000000 		.word	cyBle_scanRspData
  99 0040 0000     		.short	0
 100 0042 0000     		.space	2
 101              		.comm	cyBle_peerBonding,1,1
 102              		.comm	cyBle_pendingFlashWrite,1,1
 103              		.comm	CyBle_ApplCallback,4,4
 104              		.global	cyBle_deviceAddress
 105              		.align	2
 106              		.type	cyBle_deviceAddress, %object
 107              		.size	cyBle_deviceAddress, 7
 108              	cyBle_deviceAddress:
 109 0044 00       		.byte	0
 110 0045 00       		.byte	0
ARM GAS  C:\Users\Petro\AppData\Local\Temp\ccQnjlQx.s 			page 3


 111 0046 00       		.byte	0
 112 0047 50       		.byte	80
 113 0048 A0       		.byte	-96
 114 0049 00       		.byte	0
 115 004a 00       		.byte	0
 116              		.global	cyBle_sflashDeviceAddress
 117 004b 00       		.align	2
 118              		.type	cyBle_sflashDeviceAddress, %object
 119              		.size	cyBle_sflashDeviceAddress, 4
 120              	cyBle_sflashDeviceAddress:
 121 004c 00F2FF0F 		.word	268431872
 122              		.global	cyBle_StackFlashptr
 123              		.section	.rodata
 124              		.align	7
 125              		.type	cyBle_StackFlashptr, %object
 126              		.size	cyBle_StackFlashptr, 365
 127              	cyBle_StackFlashptr:
 128 0000 00000000 		.space	365
 128      00000000 
 128      00000000 
 128      00000000 
 128      00000000 
 129              		.section	.text.CyBle_Init,"ax",%progbits
 130              		.align	2
 131              		.global	CyBle_Init
 132              		.code	16
 133              		.thumb_func
 134              		.type	CyBle_Init, %function
 135              	CyBle_Init:
 136              	.LFB2:
 137              		.file 1 "Generated_Source\\PSoC4\\ble.c"
   1:Generated_Source\PSoC4/ble.c **** /***************************************************************************//**
   2:Generated_Source\PSoC4/ble.c **** * \file CYBLE.c
   3:Generated_Source\PSoC4/ble.c **** * \version 2.30
   4:Generated_Source\PSoC4/ble.c **** * 
   5:Generated_Source\PSoC4/ble.c **** * \brief
   6:Generated_Source\PSoC4/ble.c **** *  This file contains the source code for the Common APIs of the BLE Component.
   7:Generated_Source\PSoC4/ble.c **** * 
   8:Generated_Source\PSoC4/ble.c **** ********************************************************************************
   9:Generated_Source\PSoC4/ble.c **** * \copyright
  10:Generated_Source\PSoC4/ble.c **** * Copyright 2014-2015, Cypress Semiconductor Corporation.  All rights reserved.
  11:Generated_Source\PSoC4/ble.c **** * You may use this file only in accordance with the license, terms, conditions,
  12:Generated_Source\PSoC4/ble.c **** * disclaimers, and limitations in the end user license agreement accompanying
  13:Generated_Source\PSoC4/ble.c **** * the software package with which this file was provided.
  14:Generated_Source\PSoC4/ble.c **** *******************************************************************************/
  15:Generated_Source\PSoC4/ble.c **** 
  16:Generated_Source\PSoC4/ble.c **** #include "ble_eventHandler.h"
  17:Generated_Source\PSoC4/ble.c **** #include "ble_HAL_PVT.h"
  18:Generated_Source\PSoC4/ble.c **** #include <stdlib.h>
  19:Generated_Source\PSoC4/ble.c **** 
  20:Generated_Source\PSoC4/ble.c **** 
  21:Generated_Source\PSoC4/ble.c **** /***************************************
  22:Generated_Source\PSoC4/ble.c **** * Function Prototypes
  23:Generated_Source\PSoC4/ble.c **** ***************************************/
  24:Generated_Source\PSoC4/ble.c **** 
  25:Generated_Source\PSoC4/ble.c **** #if(CYBLE_GATT_ROLE_SERVER)
  26:Generated_Source\PSoC4/ble.c ****     #if(CYBLE_GAP_ROLE_PERIPHERAL)
ARM GAS  C:\Users\Petro\AppData\Local\Temp\ccQnjlQx.s 			page 4


  27:Generated_Source\PSoC4/ble.c ****         static void CyBle_ChangeAdLocalName(const char8 name[], uint8 dest);
  28:Generated_Source\PSoC4/ble.c ****     #endif /* (CYBLE_GAP_ROLE_PERIPHERAL) */
  29:Generated_Source\PSoC4/ble.c **** #endif /* (CYBLE_GATT_ROLE_SERVER) */
  30:Generated_Source\PSoC4/ble.c ****     
  31:Generated_Source\PSoC4/ble.c **** 
  32:Generated_Source\PSoC4/ble.c **** /***************************************
  33:Generated_Source\PSoC4/ble.c **** * Global Variables
  34:Generated_Source\PSoC4/ble.c **** ***************************************/
  35:Generated_Source\PSoC4/ble.c **** 
  36:Generated_Source\PSoC4/ble.c **** /* Indicates whether the BLE has been initialized. The variable is initialized to
  37:Generated_Source\PSoC4/ble.c ****    0 and set to 1 the first time CyBle_Start() is called. This allows the component
  38:Generated_Source\PSoC4/ble.c ****    to restart without reinitialization after the first call to the CyBle_Start() 
  39:Generated_Source\PSoC4/ble.c ****    routine. If reinitialization of the component is required, the variable should 
  40:Generated_Source\PSoC4/ble.c ****    be set to 0 before the CyBle_Start() routine is called. Alternatively, the BLE
  41:Generated_Source\PSoC4/ble.c ****    can be reinitialized by calling the CyBle_Init() function.
  42:Generated_Source\PSoC4/ble.c **** */
  43:Generated_Source\PSoC4/ble.c **** uint8  cyBle_initVar = 0u;
  44:Generated_Source\PSoC4/ble.c **** 
  45:Generated_Source\PSoC4/ble.c **** /* Allocate RAM memory for stack. This buffer could be reused by application when 
  46:Generated_Source\PSoC4/ble.c ****    BLE component is stopped. For export mode buffer is allocated in heap.
  47:Generated_Source\PSoC4/ble.c **** */
  48:Generated_Source\PSoC4/ble.c **** #if(CYBLE_SHARING_MODE_EXPORT)
  49:Generated_Source\PSoC4/ble.c ****     
  50:Generated_Source\PSoC4/ble.c **** uint8 *cyBle_stackMemoryRam = NULL;
  51:Generated_Source\PSoC4/ble.c **** 
  52:Generated_Source\PSoC4/ble.c **** #else
  53:Generated_Source\PSoC4/ble.c **** 
  54:Generated_Source\PSoC4/ble.c **** CYBLE_CYALIGNED_BEGIN uint8 cyBle_stackMemoryRam[CYBLE_STACK_RAM_SIZE] CYBLE_CYALIGNED_END;
  55:Generated_Source\PSoC4/ble.c **** 
  56:Generated_Source\PSoC4/ble.c **** #endif  /* CYBLE_SHARING_MODE_EXPORT */
  57:Generated_Source\PSoC4/ble.c **** 
  58:Generated_Source\PSoC4/ble.c **** #if(CYBLE_GAP_ROLE_PERIPHERAL || CYBLE_GAP_ROLE_BROADCASTER)
  59:Generated_Source\PSoC4/ble.c **** 
  60:Generated_Source\PSoC4/ble.c **** CYBLE_GAPP_DISC_PARAM_T cyBle_discoveryParam =
  61:Generated_Source\PSoC4/ble.c **** {
  62:Generated_Source\PSoC4/ble.c ****     0x0020u,    /* uint16 advertising_interval_min */
  63:Generated_Source\PSoC4/ble.c ****     0x0030u,    /* uint16 advertising_interval_max */
  64:Generated_Source\PSoC4/ble.c ****     CYBLE_GAPP_CONNECTABLE_UNDIRECTED_ADV, /* uint8 advertising_type */
  65:Generated_Source\PSoC4/ble.c ****     0x00u,      /* uint8 own_addr_type */
  66:Generated_Source\PSoC4/ble.c ****     0x00u,      /* uint8 direct_addr_type */
  67:Generated_Source\PSoC4/ble.c ****     {0x00u, 0x00u, 0x00u, 0x50u, 0xA0u, 0x00u}, /* uint8* direct_addr */
  68:Generated_Source\PSoC4/ble.c ****     0x07u,      /* uint8 advertising_channel_map */
  69:Generated_Source\PSoC4/ble.c ****     0x00u,      /* uint8 advertising_filter_policy */
  70:Generated_Source\PSoC4/ble.c **** };
  71:Generated_Source\PSoC4/ble.c **** 
  72:Generated_Source\PSoC4/ble.c **** CYBLE_GAPP_DISC_DATA_T cyBle_discoveryData =
  73:Generated_Source\PSoC4/ble.c **** {
  74:Generated_Source\PSoC4/ble.c ****     { 0x02u, 0x01u, 0x06u, 0x09u, 0x09u, 0x53u, 0x46u,
  75:Generated_Source\PSoC4/ble.c ****     0x73u, 0x79u, 0x73u, 0x74u, 0x65u, 0x6Du, 0x11u, 0x07u,
  76:Generated_Source\PSoC4/ble.c ****     0xF0u, 0x34u, 0x9Bu, 0x5Fu, 0x80u, 0x00u, 0x00u, 0x80u,
  77:Generated_Source\PSoC4/ble.c ****     0x00u, 0x10u, 0x00u, 0x00u, 0x00u, 0x00u, 0x00u, 0x00u }, /* uint8 advertising_data[CYBLE_MAX_A
  78:Generated_Source\PSoC4/ble.c ****     0x1Fu,      /* uint8 adv_data_length */
  79:Generated_Source\PSoC4/ble.c **** };
  80:Generated_Source\PSoC4/ble.c **** 
  81:Generated_Source\PSoC4/ble.c **** CYBLE_GAPP_SCAN_RSP_DATA_T cyBle_scanRspData =
  82:Generated_Source\PSoC4/ble.c **** {
  83:Generated_Source\PSoC4/ble.c ****     { 0x00u, 0x00u, 0x00u, 0x00u, 0x00u, 0x00u, 0x00u,
ARM GAS  C:\Users\Petro\AppData\Local\Temp\ccQnjlQx.s 			page 5


  84:Generated_Source\PSoC4/ble.c ****     0x00u, 0x00u, 0x00u, 0x00u, 0x00u, 0x00u, 0x00u, 0x00u,
  85:Generated_Source\PSoC4/ble.c ****     0x00u, 0x00u, 0x00u, 0x00u, 0x00u, 0x00u, 0x00u, 0x00u,
  86:Generated_Source\PSoC4/ble.c ****     0x00u, 0x00u, 0x00u, 0x00u, 0x00u, 0x00u, 0x00u, 0x00u }, /* uint8 scan_rsp_data[CYBLE_MAX_SCAN
  87:Generated_Source\PSoC4/ble.c ****     0x00u,      /* uint8 scan_rsp_data_length */
  88:Generated_Source\PSoC4/ble.c **** };
  89:Generated_Source\PSoC4/ble.c **** 
  90:Generated_Source\PSoC4/ble.c **** /* This variable of type CYBLE_GAPP_DISC_MODE_INFO_T is present only when 
  91:Generated_Source\PSoC4/ble.c ****    the BLE component is configured for Peripheral GAP role or Central and 
  92:Generated_Source\PSoC4/ble.c ****    Peripheral GAP role. It contains the Advertisement settings and also the 
  93:Generated_Source\PSoC4/ble.c ****    Advertisement and Scan response data parameters entered in the customizer.
  94:Generated_Source\PSoC4/ble.c ****    This variable can be used by advanced users to change Advertisement settings,
  95:Generated_Source\PSoC4/ble.c ****    Advertisement or Scan response data in runtime. 
  96:Generated_Source\PSoC4/ble.c **** */
  97:Generated_Source\PSoC4/ble.c **** CYBLE_GAPP_DISC_MODE_INFO_T cyBle_discoveryModeInfo =
  98:Generated_Source\PSoC4/ble.c **** {
  99:Generated_Source\PSoC4/ble.c ****     0x02u,      /* uint8 discMode */
 100:Generated_Source\PSoC4/ble.c ****     &cyBle_discoveryParam,
 101:Generated_Source\PSoC4/ble.c ****     &cyBle_discoveryData,
 102:Generated_Source\PSoC4/ble.c ****     &cyBle_scanRspData,
 103:Generated_Source\PSoC4/ble.c ****     0x0000u,    /* uint16 advTo */
 104:Generated_Source\PSoC4/ble.c **** };
 105:Generated_Source\PSoC4/ble.c **** 
 106:Generated_Source\PSoC4/ble.c **** 
 107:Generated_Source\PSoC4/ble.c **** #endif /* CYBLE_GAP_ROLE_PERIPHERAL || CYBLE_GAP_ROLE_BROADCASTER */
 108:Generated_Source\PSoC4/ble.c **** 
 109:Generated_Source\PSoC4/ble.c **** #if(CYBLE_GAP_ROLE_CENTRAL)
 110:Generated_Source\PSoC4/ble.c ****     
 111:Generated_Source\PSoC4/ble.c **** CYBLE_GAPC_CONN_PARAM_T cyBle_connectionParameters;
 112:Generated_Source\PSoC4/ble.c **** 
 113:Generated_Source\PSoC4/ble.c **** /* Connecting timeout is set to 30 seconds in CyBle_Init function. 
 114:Generated_Source\PSoC4/ble.c ****    Not zero value starts timer in CyBle_GapcConnectDevice API.
 115:Generated_Source\PSoC4/ble.c **** */
 116:Generated_Source\PSoC4/ble.c **** uint16 cyBle_connectingTimeout;
 117:Generated_Source\PSoC4/ble.c ****     
 118:Generated_Source\PSoC4/ble.c **** #endif /* CYBLE_GAP_ROLE_CENTRAL */
 119:Generated_Source\PSoC4/ble.c **** 
 120:Generated_Source\PSoC4/ble.c **** #if(CYBLE_GAP_ROLE_CENTRAL || CYBLE_GAP_ROLE_OBSERVER)
 121:Generated_Source\PSoC4/ble.c ****     
 122:Generated_Source\PSoC4/ble.c **** 
 123:Generated_Source\PSoC4/ble.c ****     
 124:Generated_Source\PSoC4/ble.c **** #endif /* CYBLE_GAP_ROLE_CENTRAL || CYBLE_GAP_ROLE_OBSERVER */
 125:Generated_Source\PSoC4/ble.c **** 
 126:Generated_Source\PSoC4/ble.c **** #if((CYBLE_GAP_ROLE_PERIPHERAL || CYBLE_GAP_ROLE_CENTRAL) && (CYBLE_BONDING_REQUIREMENT == CYBLE_BO
 127:Generated_Source\PSoC4/ble.c **** 
 128:Generated_Source\PSoC4/ble.c **** uint8 cyBle_peerBonding;
 129:Generated_Source\PSoC4/ble.c **** uint8 cyBle_pendingFlashWrite;
 130:Generated_Source\PSoC4/ble.c ****     
 131:Generated_Source\PSoC4/ble.c **** #endif  /* (CYBLE_BONDING_REQUIREMENT == CYBLE_BONDING_YES) */
 132:Generated_Source\PSoC4/ble.c **** 
 133:Generated_Source\PSoC4/ble.c **** CYBLE_CALLBACK_T CyBle_ApplCallback;
 134:Generated_Source\PSoC4/ble.c **** CYBLE_GAP_BD_ADDR_T cyBle_deviceAddress = {{0x00u, 0x00u, 0x00u, 0x50u, 0xA0u, 0x00u}, 0x00u };
 135:Generated_Source\PSoC4/ble.c **** CYBLE_GAP_BD_ADDR_T * cyBle_sflashDeviceAddress = CYBLE_SFLASH_DEVICE_ADDRESS_PTR;
 136:Generated_Source\PSoC4/ble.c **** 
 137:Generated_Source\PSoC4/ble.c **** #if(CYBLE_MODE_PROFILE)
 138:Generated_Source\PSoC4/ble.c ****     #if defined(__ARMCC_VERSION)
 139:Generated_Source\PSoC4/ble.c ****         CY_ALIGN(CYDEV_FLS_ROW_SIZE) const uint8 cyBle_StackFlashptr[CYBLE_STACK_FLASH_SIZE] = {0u}
 140:Generated_Source\PSoC4/ble.c ****     #elif defined (__GNUC__)
ARM GAS  C:\Users\Petro\AppData\Local\Temp\ccQnjlQx.s 			page 6


 141:Generated_Source\PSoC4/ble.c ****         const uint8 cyBle_StackFlashptr[CYBLE_STACK_FLASH_SIZE] CY_ALIGN(CYDEV_FLS_ROW_SIZE) = {0u}
 142:Generated_Source\PSoC4/ble.c ****     #elif defined (__ICCARM__)
 143:Generated_Source\PSoC4/ble.c ****         #pragma data_alignment=CY_FLASH_SIZEOF_ROW
 144:Generated_Source\PSoC4/ble.c ****         const uint8 cyBle_StackFlashptr[CYBLE_STACK_FLASH_SIZE] = {0u};
 145:Generated_Source\PSoC4/ble.c ****     #endif  /* (__ARMCC_VERSION) */
 146:Generated_Source\PSoC4/ble.c **** #endif /* (CYBLE_MODE_PROFILE) */
 147:Generated_Source\PSoC4/ble.c **** 
 148:Generated_Source\PSoC4/ble.c **** 
 149:Generated_Source\PSoC4/ble.c **** /******************************************************************************
 150:Generated_Source\PSoC4/ble.c **** * Function Name: CyBle_Init
 151:Generated_Source\PSoC4/ble.c **** ***************************************************************************//**
 152:Generated_Source\PSoC4/ble.c **** *
 153:Generated_Source\PSoC4/ble.c **** *   Initializes the component with the parameters set in the customizer.
 154:Generated_Source\PSoC4/ble.c **** * 
 155:Generated_Source\PSoC4/ble.c **** *  \return
 156:Generated_Source\PSoC4/ble.c **** *   None
 157:Generated_Source\PSoC4/ble.c **** * 
 158:Generated_Source\PSoC4/ble.c **** ******************************************************************************/
 159:Generated_Source\PSoC4/ble.c **** void CyBle_Init(void)
 160:Generated_Source\PSoC4/ble.c **** {
 138              		.loc 1 160 0
 139              		.cfi_startproc
 140 0000 80B5     		push	{r7, lr}
 141              		.cfi_def_cfa_offset 8
 142              		.cfi_offset 7, -8
 143              		.cfi_offset 14, -4
 144 0002 00AF     		add	r7, sp, #0
 145              		.cfi_def_cfa_register 7
 161:Generated_Source\PSoC4/ble.c ****     cyBle_eventHandlerFlag = 0u;
 146              		.loc 1 161 0
 147 0004 094B     		ldr	r3, .L2
 148 0006 0022     		mov	r2, #0
 149 0008 1A70     		strb	r2, [r3]
 162:Generated_Source\PSoC4/ble.c ****     cyBle_busyStatus = CYBLE_STACK_STATE_FREE;
 150              		.loc 1 162 0
 151 000a 094B     		ldr	r3, .L2+4
 152 000c 0022     		mov	r2, #0
 153 000e 1A70     		strb	r2, [r3]
 163:Generated_Source\PSoC4/ble.c **** 
 164:Generated_Source\PSoC4/ble.c ****     #if(CYBLE_GAP_ROLE_PERIPHERAL || CYBLE_GAP_ROLE_BROADCASTER) 
 165:Generated_Source\PSoC4/ble.c ****         cyBle_advertisingIntervalType = CYBLE_ADVERTISING_FAST; 
 154              		.loc 1 165 0
 155 0010 084B     		ldr	r3, .L2+8
 156 0012 0022     		mov	r2, #0
 157 0014 1A70     		strb	r2, [r3]
 166:Generated_Source\PSoC4/ble.c ****     #endif /* (CYBLE_GAP_ROLE_PERIPHERAL || CYBLE_GAP_ROLE_BROADCASTER)  */
 167:Generated_Source\PSoC4/ble.c ****     #if(CYBLE_GAP_ROLE_CENTRAL || CYBLE_GAP_ROLE_OBSERVER)
 168:Generated_Source\PSoC4/ble.c ****         cyBle_scanningIntervalType = CYBLE_SCANNING_FAST; 
 169:Generated_Source\PSoC4/ble.c ****     #endif /* (CYBLE_GAP_ROLE_CENTRAL || CYBLE_GAP_ROLE_OBSERVER) */
 170:Generated_Source\PSoC4/ble.c ****         
 171:Generated_Source\PSoC4/ble.c ****     /* Init default connection parameters. 
 172:Generated_Source\PSoC4/ble.c ****        Application may change it before initiating a connection */
 173:Generated_Source\PSoC4/ble.c ****     #if(CYBLE_GAP_ROLE_CENTRAL)
 174:Generated_Source\PSoC4/ble.c ****         cyBle_connectionParameters.scanIntv = cyBle_discoveryInfo.scanIntv;
 175:Generated_Source\PSoC4/ble.c ****         cyBle_connectionParameters.scanWindow = cyBle_discoveryInfo.scanWindow;
 176:Generated_Source\PSoC4/ble.c ****         cyBle_connectionParameters.ownAddrType = cyBle_discoveryInfo.ownAddrType;
 177:Generated_Source\PSoC4/ble.c ****         cyBle_connectionParameters.initiatorFilterPolicy = cyBle_discoveryInfo.scanFilterPolicy;
ARM GAS  C:\Users\Petro\AppData\Local\Temp\ccQnjlQx.s 			page 7


 178:Generated_Source\PSoC4/ble.c ****         cyBle_connectionParameters.connIntvMin = CYBLE_GAPC_CONNECTION_INTERVAL_MIN;
 179:Generated_Source\PSoC4/ble.c ****         cyBle_connectionParameters.connIntvMax = CYBLE_GAPC_CONNECTION_INTERVAL_MAX;
 180:Generated_Source\PSoC4/ble.c ****         cyBle_connectionParameters.connLatency = CYBLE_GAPC_CONNECTION_SLAVE_LATENCY;
 181:Generated_Source\PSoC4/ble.c ****         cyBle_connectionParameters.supervisionTO = CYBLE_GAPC_CONNECTION_TIME_OUT;
 182:Generated_Source\PSoC4/ble.c ****         cyBle_connectionParameters.minCeLength = 0x0000u;
 183:Generated_Source\PSoC4/ble.c ****         cyBle_connectionParameters.maxCeLength = 0xFFFFu;
 184:Generated_Source\PSoC4/ble.c ****         
 185:Generated_Source\PSoC4/ble.c ****         cyBle_connectingTimeout = CYBLE_GAPC_CONNECTING_TIMEOUT;
 186:Generated_Source\PSoC4/ble.c ****     #endif /* CYBLE_GAP_ROLE_CENTRAL */
 187:Generated_Source\PSoC4/ble.c **** 
 188:Generated_Source\PSoC4/ble.c ****     CyBle_ServiceInit();
 158              		.loc 1 188 0
 159 0016 FFF7FEFF 		bl	CyBle_ServiceInit
 189:Generated_Source\PSoC4/ble.c **** 
 190:Generated_Source\PSoC4/ble.c ****     #if((CYBLE_GAP_ROLE_PERIPHERAL || CYBLE_GAP_ROLE_CENTRAL) && (CYBLE_BONDING_REQUIREMENT == CYBL
 191:Generated_Source\PSoC4/ble.c ****         cyBle_pendingFlashWrite = 0u;
 160              		.loc 1 191 0
 161 001a 074B     		ldr	r3, .L2+12
 162 001c 0022     		mov	r2, #0
 163 001e 1A70     		strb	r2, [r3]
 192:Generated_Source\PSoC4/ble.c ****         cyBle_peerBonding = CYBLE_GAP_BONDING_NONE;
 164              		.loc 1 192 0
 165 0020 064B     		ldr	r3, .L2+16
 166 0022 0022     		mov	r2, #0
 167 0024 1A70     		strb	r2, [r3]
 193:Generated_Source\PSoC4/ble.c ****     #endif  /* (CYBLE_BONDING_REQUIREMENT == CYBLE_BONDING_YES) */
 194:Generated_Source\PSoC4/ble.c **** 
 195:Generated_Source\PSoC4/ble.c **** }
 168              		.loc 1 195 0
 169 0026 BD46     		mov	sp, r7
 170              		@ sp needed
 171 0028 80BD     		pop	{r7, pc}
 172              	.L3:
 173 002a C046     		.align	2
 174              	.L2:
 175 002c 00000000 		.word	cyBle_eventHandlerFlag
 176 0030 00000000 		.word	cyBle_busyStatus
 177 0034 00000000 		.word	cyBle_advertisingIntervalType
 178 0038 00000000 		.word	cyBle_pendingFlashWrite
 179 003c 00000000 		.word	cyBle_peerBonding
 180              		.cfi_endproc
 181              	.LFE2:
 182              		.size	CyBle_Init, .-CyBle_Init
 183              		.section	.text.CyBle_ServiceInit,"ax",%progbits
 184              		.align	2
 185              		.global	CyBle_ServiceInit
 186              		.code	16
 187              		.thumb_func
 188              		.type	CyBle_ServiceInit, %function
 189              	CyBle_ServiceInit:
 190              	.LFB3:
 196:Generated_Source\PSoC4/ble.c **** 
 197:Generated_Source\PSoC4/ble.c **** 
 198:Generated_Source\PSoC4/ble.c **** /******************************************************************************
 199:Generated_Source\PSoC4/ble.c **** * Function Name: CyBle_ServiceInit
 200:Generated_Source\PSoC4/ble.c **** ***************************************************************************//**
 201:Generated_Source\PSoC4/ble.c **** * 
ARM GAS  C:\Users\Petro\AppData\Local\Temp\ccQnjlQx.s 			page 8


 202:Generated_Source\PSoC4/ble.c **** *  Initializes all included services.
 203:Generated_Source\PSoC4/ble.c **** * 
 204:Generated_Source\PSoC4/ble.c **** * \return
 205:Generated_Source\PSoC4/ble.c **** *  None
 206:Generated_Source\PSoC4/ble.c **** * 
 207:Generated_Source\PSoC4/ble.c **** ******************************************************************************/
 208:Generated_Source\PSoC4/ble.c **** void CyBle_ServiceInit(void)
 209:Generated_Source\PSoC4/ble.c **** {
 191              		.loc 1 209 0
 192              		.cfi_startproc
 193 0000 80B5     		push	{r7, lr}
 194              		.cfi_def_cfa_offset 8
 195              		.cfi_offset 7, -8
 196              		.cfi_offset 14, -4
 197 0002 00AF     		add	r7, sp, #0
 198              		.cfi_def_cfa_register 7
 210:Generated_Source\PSoC4/ble.c ****     #if(CYBLE_GATT_ROLE_CLIENT)
 211:Generated_Source\PSoC4/ble.c ****         (void)memset(&cyBle_gapc, 0, sizeof(cyBle_gapc));
 212:Generated_Source\PSoC4/ble.c ****         (void)memset(&cyBle_gattc, 0, sizeof(cyBle_gattc));
 213:Generated_Source\PSoC4/ble.c ****     #endif /* CYBLE_GATT_ROLE_CLIENT */
 214:Generated_Source\PSoC4/ble.c ****     
 215:Generated_Source\PSoC4/ble.c **** 	#ifdef CYBLE_ANCS
 216:Generated_Source\PSoC4/ble.c ****         CyBle_AncsInit();
 217:Generated_Source\PSoC4/ble.c ****     #endif /* CYBLE_ANCS */
 218:Generated_Source\PSoC4/ble.c **** 	
 219:Generated_Source\PSoC4/ble.c ****     #ifdef CYBLE_ANS
 220:Generated_Source\PSoC4/ble.c ****         CyBle_AnsInit();
 221:Generated_Source\PSoC4/ble.c ****     #endif /* CYBLE_ANS */
 222:Generated_Source\PSoC4/ble.c ****     
 223:Generated_Source\PSoC4/ble.c ****     #ifdef CYBLE_BAS
 224:Generated_Source\PSoC4/ble.c ****         CyBle_BasInit();
 225:Generated_Source\PSoC4/ble.c ****     #endif /* CYBLE_BAS */
 226:Generated_Source\PSoC4/ble.c ****     
 227:Generated_Source\PSoC4/ble.c ****     #ifdef CYBLE_BLS
 228:Generated_Source\PSoC4/ble.c ****         CyBle_BlsInit();
 229:Generated_Source\PSoC4/ble.c ****     #endif /* CYBLE_BLS */
 230:Generated_Source\PSoC4/ble.c ****     
 231:Generated_Source\PSoC4/ble.c ****     #ifdef CYBLE_BMS
 232:Generated_Source\PSoC4/ble.c ****         CyBle_BmsInit();
 233:Generated_Source\PSoC4/ble.c ****     #endif /* CYBLE_BMS */
 234:Generated_Source\PSoC4/ble.c ****     
 235:Generated_Source\PSoC4/ble.c ****     #ifdef CYBLE_CGMS
 236:Generated_Source\PSoC4/ble.c ****         CyBle_CgmsInit();
 237:Generated_Source\PSoC4/ble.c ****     #endif /* CYBLE_CGMS */
 238:Generated_Source\PSoC4/ble.c **** 
 239:Generated_Source\PSoC4/ble.c ****     #ifdef CYBLE_CPS
 240:Generated_Source\PSoC4/ble.c ****         CyBle_CpsInit();
 241:Generated_Source\PSoC4/ble.c ****     #endif /* CYBLE_CPS */
 242:Generated_Source\PSoC4/ble.c **** 
 243:Generated_Source\PSoC4/ble.c ****     #ifdef CYBLE_CSCS
 244:Generated_Source\PSoC4/ble.c ****         CyBle_CscsInit();
 245:Generated_Source\PSoC4/ble.c ****     #endif /* CYBLE_CSCS */
 246:Generated_Source\PSoC4/ble.c ****     
 247:Generated_Source\PSoC4/ble.c ****     #ifdef CYBLE_CTS
 248:Generated_Source\PSoC4/ble.c ****         CyBle_CtsInit();
 249:Generated_Source\PSoC4/ble.c ****     #endif /* CYBLE_CTS */
 250:Generated_Source\PSoC4/ble.c **** 
ARM GAS  C:\Users\Petro\AppData\Local\Temp\ccQnjlQx.s 			page 9


 251:Generated_Source\PSoC4/ble.c ****     #ifdef CYBLE_DIS
 252:Generated_Source\PSoC4/ble.c ****         CyBle_DisInit();
 253:Generated_Source\PSoC4/ble.c ****     #endif /* CYBLE_DIS */
 254:Generated_Source\PSoC4/ble.c **** 
 255:Generated_Source\PSoC4/ble.c ****     #ifdef CYBLE_ESS
 256:Generated_Source\PSoC4/ble.c ****         CyBle_EssInit();
 257:Generated_Source\PSoC4/ble.c ****     #endif /* CYBLE_ESS */
 258:Generated_Source\PSoC4/ble.c ****     
 259:Generated_Source\PSoC4/ble.c ****     #ifdef CYBLE_GLS
 260:Generated_Source\PSoC4/ble.c ****         CyBle_GlsInit();
 261:Generated_Source\PSoC4/ble.c ****     #endif /* CYBLE_GLS */
 262:Generated_Source\PSoC4/ble.c ****     
 263:Generated_Source\PSoC4/ble.c ****     #ifdef CYBLE_CUSTOM
 264:Generated_Source\PSoC4/ble.c ****         CyBle_CustomInit();
 199              		.loc 1 264 0
 200 0004 FFF7FEFF 		bl	CyBle_CustomInit
 265:Generated_Source\PSoC4/ble.c ****     #endif /* CYBLE_CUSTOM */
 266:Generated_Source\PSoC4/ble.c **** 
 267:Generated_Source\PSoC4/ble.c ****     #ifdef CYBLE_HIDS
 268:Generated_Source\PSoC4/ble.c ****         CyBle_HidsInit();
 269:Generated_Source\PSoC4/ble.c ****     #endif /* CYBLE_HIDS */
 270:Generated_Source\PSoC4/ble.c **** 
 271:Generated_Source\PSoC4/ble.c ****     #ifdef CYBLE_HRS
 272:Generated_Source\PSoC4/ble.c ****         CyBle_HrsInit();
 273:Generated_Source\PSoC4/ble.c ****     #endif /* CYBLE_HRS */
 274:Generated_Source\PSoC4/ble.c ****     
 275:Generated_Source\PSoC4/ble.c ****     #ifdef CYBLE_HTS
 276:Generated_Source\PSoC4/ble.c ****         CyBle_HtsInit();
 277:Generated_Source\PSoC4/ble.c ****     #endif /* CYBLE_RSCS */
 278:Generated_Source\PSoC4/ble.c **** 
 279:Generated_Source\PSoC4/ble.c ****     #ifdef CYBLE_IAS
 280:Generated_Source\PSoC4/ble.c ****         CyBle_IasInit();
 281:Generated_Source\PSoC4/ble.c ****     #endif /* CYBLE_IAS */
 282:Generated_Source\PSoC4/ble.c **** 
 283:Generated_Source\PSoC4/ble.c ****     #ifdef CYBLE_LLS
 284:Generated_Source\PSoC4/ble.c ****         CyBle_LlsInit();
 285:Generated_Source\PSoC4/ble.c ****     #endif /* CYBLE_LLS */
 286:Generated_Source\PSoC4/ble.c **** 
 287:Generated_Source\PSoC4/ble.c ****     #ifdef CYBLE_RTUS
 288:Generated_Source\PSoC4/ble.c ****         CyBle_RtusInit();
 289:Generated_Source\PSoC4/ble.c ****     #endif /* CYBLE_RTUS */
 290:Generated_Source\PSoC4/ble.c **** 
 291:Generated_Source\PSoC4/ble.c ****     #ifdef CYBLE_LNS
 292:Generated_Source\PSoC4/ble.c ****         CyBle_LnsInit();
 293:Generated_Source\PSoC4/ble.c ****     #endif /* CYBLE_LNS */
 294:Generated_Source\PSoC4/ble.c ****     
 295:Generated_Source\PSoC4/ble.c ****     #ifdef CYBLE_PASS
 296:Generated_Source\PSoC4/ble.c ****         CyBle_PassInit();
 297:Generated_Source\PSoC4/ble.c ****     #endif /* CYBLE_PASS */
 298:Generated_Source\PSoC4/ble.c ****     
 299:Generated_Source\PSoC4/ble.c ****     #ifdef CYBLE_RSCS
 300:Generated_Source\PSoC4/ble.c ****         CyBle_RscsInit();
 301:Generated_Source\PSoC4/ble.c ****     #endif /* CYBLE_RSCS */
 302:Generated_Source\PSoC4/ble.c **** 
 303:Generated_Source\PSoC4/ble.c ****     #ifdef CYBLE_SCPS
 304:Generated_Source\PSoC4/ble.c ****         CyBle_ScpsInit();
 305:Generated_Source\PSoC4/ble.c ****     #endif /* CYBLE_SCPS */
ARM GAS  C:\Users\Petro\AppData\Local\Temp\ccQnjlQx.s 			page 10


 306:Generated_Source\PSoC4/ble.c ****     
 307:Generated_Source\PSoC4/ble.c ****     #ifdef CYBLE_TPS
 308:Generated_Source\PSoC4/ble.c ****         CyBle_TpsInit();
 309:Generated_Source\PSoC4/ble.c ****     #endif /* CYBLE_TPS */
 310:Generated_Source\PSoC4/ble.c ****     
 311:Generated_Source\PSoC4/ble.c ****     #ifdef CYBLE_UDS
 312:Generated_Source\PSoC4/ble.c ****         CyBle_UdsInit();
 313:Generated_Source\PSoC4/ble.c ****     #endif /* CYBLE_UDS */
 314:Generated_Source\PSoC4/ble.c **** 
 315:Generated_Source\PSoC4/ble.c ****     #ifdef CYBLE_WPTS
 316:Generated_Source\PSoC4/ble.c ****         CyBle_WptsInit();
 317:Generated_Source\PSoC4/ble.c ****     #endif /* CYBLE_WPTS */
 318:Generated_Source\PSoC4/ble.c **** 
 319:Generated_Source\PSoC4/ble.c ****     #ifdef CYBLE_WSS
 320:Generated_Source\PSoC4/ble.c ****         CyBle_WssInit();
 321:Generated_Source\PSoC4/ble.c ****     #endif /* CYBLE_WSS */
 322:Generated_Source\PSoC4/ble.c **** }
 201              		.loc 1 322 0
 202 0008 BD46     		mov	sp, r7
 203              		@ sp needed
 204 000a 80BD     		pop	{r7, pc}
 205              		.cfi_endproc
 206              	.LFE3:
 207              		.size	CyBle_ServiceInit, .-CyBle_ServiceInit
 208              		.section	.rodata
 209 016d 000000   		.align	2
 210              	.LC0:
 211 0170 2400     		.short	36
 212 0172 03       		.byte	3
 213 0173 00       		.space	1
 214 0174 1C00     		.short	28
 215 0176 01       		.byte	1
 216 0177 00       		.space	1
 217 0178 3000     		.short	48
 218 017a 01       		.byte	1
 219 017b 00       		.space	1
 220 017c 4800     		.short	72
 221 017e 01       		.byte	1
 222 017f 00       		.space	1
 223 0180 2400     		.short	36
 224 0182 01       		.byte	1
 225 0183 00       		.space	1
 226 0184 2400     		.short	36
 227 0186 01       		.byte	1
 228 0187 00       		.space	1
 229 0188 00000000 		.section	.text.CyBle_Start,"ax",%progbits
 229      00000000 
 229      00000000 
 229      00000000 
 229      00000000 
 230              		.align	2
 231              		.global	CyBle_Start
 232              		.code	16
 233              		.thumb_func
 234              		.type	CyBle_Start, %function
 235              	CyBle_Start:
 236              	.LFB4:
ARM GAS  C:\Users\Petro\AppData\Local\Temp\ccQnjlQx.s 			page 11


 323:Generated_Source\PSoC4/ble.c **** 
 324:Generated_Source\PSoC4/ble.c **** 
 325:Generated_Source\PSoC4/ble.c **** /******************************************************************************
 326:Generated_Source\PSoC4/ble.c **** * Function Name: CyBle_Start
 327:Generated_Source\PSoC4/ble.c **** ***************************************************************************//**
 328:Generated_Source\PSoC4/ble.c **** * 
 329:Generated_Source\PSoC4/ble.c **** *  This function initializes the BLE Stack, which consists of the BLE Stack 
 330:Generated_Source\PSoC4/ble.c **** *  Manager, BLE Controller, and BLE Host modules. It takes care of initializing
 331:Generated_Source\PSoC4/ble.c **** *  the Profile layer, schedulers, Timer and other platform related
 332:Generated_Source\PSoC4/ble.c **** *  resources required for the BLE component. It also registers the callback 
 333:Generated_Source\PSoC4/ble.c **** *  function for BLE events that will be registered in the BLE stack.
 334:Generated_Source\PSoC4/ble.c **** * 
 335:Generated_Source\PSoC4/ble.c **** *  Note that this function does not reset the BLE Stack.
 336:Generated_Source\PSoC4/ble.c **** * 
 337:Generated_Source\PSoC4/ble.c **** *  For HCI-Mode of operation, this function will not initialize the BLE Host 
 338:Generated_Source\PSoC4/ble.c **** *  module.
 339:Generated_Source\PSoC4/ble.c **** * 
 340:Generated_Source\PSoC4/ble.c **** *  Calling this function results in the generation of CYBLE_EVT_STACK_ON event
 341:Generated_Source\PSoC4/ble.c **** *  on successful initialization of the BLE Stack.
 342:Generated_Source\PSoC4/ble.c **** * 
 343:Generated_Source\PSoC4/ble.c **** *  \param callbackFunc: Event callback function to receive events from BLE stack.
 344:Generated_Source\PSoC4/ble.c **** *   CYBLE_CALLBACK_T is a function pointer type.
 345:Generated_Source\PSoC4/ble.c **** * 
 346:Generated_Source\PSoC4/ble.c **** * \return
 347:Generated_Source\PSoC4/ble.c **** *  CYBLE_API_RESULT_T : Return value indicates if the function succeeded or 
 348:Generated_Source\PSoC4/ble.c **** *  failed. Following are the possible error codes.
 349:Generated_Source\PSoC4/ble.c **** * 
 350:Generated_Source\PSoC4/ble.c **** *   <table>
 351:Generated_Source\PSoC4/ble.c **** *  	  <tr>
 352:Generated_Source\PSoC4/ble.c **** *       <th>Error codes</th>
 353:Generated_Source\PSoC4/ble.c **** *       <th>Description</th>
 354:Generated_Source\PSoC4/ble.c **** *     </tr>
 355:Generated_Source\PSoC4/ble.c **** *     <tr>
 356:Generated_Source\PSoC4/ble.c **** *       <td>CYBLE_ERROR_OK</td>
 357:Generated_Source\PSoC4/ble.c **** *       <td>On successful operation.</td>
 358:Generated_Source\PSoC4/ble.c **** *     </tr>
 359:Generated_Source\PSoC4/ble.c **** *     <tr>
 360:Generated_Source\PSoC4/ble.c **** *       <td>CYBLE_ERROR_INVALID_PARAMETER</td>
 361:Generated_Source\PSoC4/ble.c **** *       <td>On passing a NULL pointer to the function when the BLE stack is not built in HCI mode. 
 362:Generated_Source\PSoC4/ble.c **** *			CYBLE_ERROR_INVALID_PARAMETER is never returned in HCI mode.</td>
 363:Generated_Source\PSoC4/ble.c **** *     </tr>
 364:Generated_Source\PSoC4/ble.c **** *     <tr>
 365:Generated_Source\PSoC4/ble.c **** *       <td>CYBLE_ERROR_REPEATED_ATTEMPTS</td>
 366:Generated_Source\PSoC4/ble.c **** *       <td>On invoking this function more than once without calling CyBle_Shutdown() 
 367:Generated_Source\PSoC4/ble.c **** *           function between calls to this function.</td>
 368:Generated_Source\PSoC4/ble.c **** *     </tr>
 369:Generated_Source\PSoC4/ble.c **** *     <tr>
 370:Generated_Source\PSoC4/ble.c **** *       <td>CYBLE_ERROR_MEMORY_ALLOCATION_FAILED</td>
 371:Generated_Source\PSoC4/ble.c **** *       <td>There is insufficient memory available.</td>
 372:Generated_Source\PSoC4/ble.c **** *     </tr>
 373:Generated_Source\PSoC4/ble.c **** *   </table>
 374:Generated_Source\PSoC4/ble.c **** * 
 375:Generated_Source\PSoC4/ble.c **** *  \globalvars
 376:Generated_Source\PSoC4/ble.c **** *   The CyBle_initVar variable is used to indicate initial
 377:Generated_Source\PSoC4/ble.c **** *   configuration of this component. The variable is initialized to zero (0u)
 378:Generated_Source\PSoC4/ble.c **** *   and set to one (1u) the first time CyBle_Start() is called. This
 379:Generated_Source\PSoC4/ble.c **** *   allows for component initialization without re-initialization in all
ARM GAS  C:\Users\Petro\AppData\Local\Temp\ccQnjlQx.s 			page 12


 380:Generated_Source\PSoC4/ble.c **** *   subsequent calls to the CyBle_Start() routine.
 381:Generated_Source\PSoC4/ble.c **** * 
 382:Generated_Source\PSoC4/ble.c **** ******************************************************************************/
 383:Generated_Source\PSoC4/ble.c **** CYBLE_API_RESULT_T CyBle_Start(CYBLE_CALLBACK_T callbackFunc)
 384:Generated_Source\PSoC4/ble.c **** {
 237              		.loc 1 384 0
 238              		.cfi_startproc
 239 0000 F0B5     		push	{r4, r5, r6, r7, lr}
 240              		.cfi_def_cfa_offset 20
 241              		.cfi_offset 4, -20
 242              		.cfi_offset 5, -16
 243              		.cfi_offset 6, -12
 244              		.cfi_offset 7, -8
 245              		.cfi_offset 14, -4
 246 0002 8FB0     		sub	sp, sp, #60
 247              		.cfi_def_cfa_offset 80
 248 0004 04AF     		add	r7, sp, #16
 249              		.cfi_def_cfa 7, 64
 250 0006 7860     		str	r0, [r7, #4]
 385:Generated_Source\PSoC4/ble.c ****     CYBLE_API_RESULT_T apiResult = CYBLE_ERROR_OK;
 251              		.loc 1 385 0
 252 0008 2623     		mov	r3, #38
 253 000a FB18     		add	r3, r7, r3
 254 000c 0022     		mov	r2, #0
 255 000e 1A80     		strh	r2, [r3]
 386:Generated_Source\PSoC4/ble.c ****     
 387:Generated_Source\PSoC4/ble.c ****     #if(CYBLE_MODE_PROFILE)
 388:Generated_Source\PSoC4/ble.c ****     
 389:Generated_Source\PSoC4/ble.c ****     CYBLE_STK_APP_DATA_BUFF_T cyBle_stackDataBuff[CYBLE_STACK_BUF_COUNT] = 
 256              		.loc 1 389 0
 257 0010 0C23     		mov	r3, #12
 258 0012 FA18     		add	r2, r7, r3
 259 0014 284B     		ldr	r3, .L11
 260 0016 111C     		mov	r1, r2
 261 0018 1A1C     		mov	r2, r3
 262 001a 1823     		mov	r3, #24
 263 001c 081C     		mov	r0, r1
 264 001e 111C     		mov	r1, r2
 265 0020 1A1C     		mov	r2, r3
 266 0022 FFF7FEFF 		bl	memcpy
 390:Generated_Source\PSoC4/ble.c ****     {
 391:Generated_Source\PSoC4/ble.c ****         {CYBLE_GATT_MTU_PLUS_L2CAP_MEM_EXT, CYBLE_GATT_MTU_BUF_COUNT},
 392:Generated_Source\PSoC4/ble.c ****         {CYBLE_GATT_MAX_ATTR_LEN_PLUS_L2CAP_MEM_EXT, 1u},
 393:Generated_Source\PSoC4/ble.c ****         {CYBLE_L2CAP_PSM_PLUS_L2CAP_MEM_EXT, CYBLE_L2CAP_PSM_COUNT},
 394:Generated_Source\PSoC4/ble.c ****         {CYBLE_L2CAP_CBFC_PLUS_L2CAP_MEM_EXT, CYBLE_L2CAP_LOGICAL_CHANNEL_COUNT},
 395:Generated_Source\PSoC4/ble.c ****         {CYBLE_L2CAP_MTU_PLUS_L2CAP_MEM_EXT, CYBLE_L2CAP_LOGICAL_CHANNEL_COUNT},
 396:Generated_Source\PSoC4/ble.c ****         {CYBLE_L2CAP_MPS_PLUS_L2CAP_MEM_EXT, CYBLE_L2CAP_LOGICAL_CHANNEL_COUNT * (CYBLE_L2CAP_MTU/C
 397:Generated_Source\PSoC4/ble.c ****     }; 
 398:Generated_Source\PSoC4/ble.c **** 
 399:Generated_Source\PSoC4/ble.c ****     #endif /* CYBLE_MODE_PROFILE */
 400:Generated_Source\PSoC4/ble.c ****     
 401:Generated_Source\PSoC4/ble.c ****     /* If not initialized then initialize all the required hardware and software */
 402:Generated_Source\PSoC4/ble.c ****     if(cyBle_initVar == 0u)
 267              		.loc 1 402 0
 268 0026 254B     		ldr	r3, .L11+4
 269 0028 1B78     		ldrb	r3, [r3]
 270 002a 002B     		cmp	r3, #0
ARM GAS  C:\Users\Petro\AppData\Local\Temp\ccQnjlQx.s 			page 13


 271 002c 04D1     		bne	.L6
 403:Generated_Source\PSoC4/ble.c ****     {
 404:Generated_Source\PSoC4/ble.c ****         CyBle_Init();
 272              		.loc 1 404 0
 273 002e FFF7FEFF 		bl	CyBle_Init
 405:Generated_Source\PSoC4/ble.c ****         cyBle_initVar = 1u;
 274              		.loc 1 405 0
 275 0032 224B     		ldr	r3, .L11+4
 276 0034 0122     		mov	r2, #1
 277 0036 1A70     		strb	r2, [r3]
 278              	.L6:
 406:Generated_Source\PSoC4/ble.c ****     }
 407:Generated_Source\PSoC4/ble.c ****     
 408:Generated_Source\PSoC4/ble.c ****     if(callbackFunc != NULL)
 279              		.loc 1 408 0
 280 0038 7B68     		ldr	r3, [r7, #4]
 281 003a 002B     		cmp	r3, #0
 282 003c 30D0     		beq	.L7
 409:Generated_Source\PSoC4/ble.c ****     {
 410:Generated_Source\PSoC4/ble.c ****     #if(CYBLE_SHARING_MODE_EXPORT)
 411:Generated_Source\PSoC4/ble.c ****         if(cyBle_stackMemoryRam == NULL)
 412:Generated_Source\PSoC4/ble.c ****         {
 413:Generated_Source\PSoC4/ble.c ****             cyBle_stackMemoryRam = (uint8 *)malloc(CYBLE_STACK_RAM_SIZE);
 414:Generated_Source\PSoC4/ble.c ****             if(cyBle_stackMemoryRam == NULL)
 415:Generated_Source\PSoC4/ble.c ****             {
 416:Generated_Source\PSoC4/ble.c ****                 apiResult = CYBLE_ERROR_MEMORY_ALLOCATION_FAILED;
 417:Generated_Source\PSoC4/ble.c ****             } 
 418:Generated_Source\PSoC4/ble.c ****         }
 419:Generated_Source\PSoC4/ble.c ****     #endif /* CYBLE_SHARING_MODE_EXPORT */
 420:Generated_Source\PSoC4/ble.c ****         if(apiResult == CYBLE_ERROR_OK)
 283              		.loc 1 420 0
 284 003e 2623     		mov	r3, #38
 285 0040 FB18     		add	r3, r7, r3
 286 0042 1B88     		ldrh	r3, [r3]
 287 0044 002B     		cmp	r3, #0
 288 0046 2FD1     		bne	.L9
 421:Generated_Source\PSoC4/ble.c ****         {
 422:Generated_Source\PSoC4/ble.c ****             CyBle_ApplCallback = callbackFunc;
 289              		.loc 1 422 0
 290 0048 1D4B     		ldr	r3, .L11+8
 291 004a 7A68     		ldr	r2, [r7, #4]
 292 004c 1A60     		str	r2, [r3]
 423:Generated_Source\PSoC4/ble.c ****             
 424:Generated_Source\PSoC4/ble.c ****         #if(CYBLE_MODE_PROFILE)
 425:Generated_Source\PSoC4/ble.c ****             apiResult = CyBle_StackInit(&CyBle_EventHandler, cyBle_stackMemoryRam, CYBLE_STACK_RAM_
 293              		.loc 1 425 0
 294 004e 2623     		mov	r3, #38
 295 0050 FC18     		add	r4, r7, r3
 296 0052 1C49     		ldr	r1, .L11+12
 297 0054 1C4A     		ldr	r2, .L11+16
 298 0056 1D4E     		ldr	r6, .L11+20
 299 0058 0C23     		mov	r3, #12
 300 005a FD18     		add	r5, r7, r3
 301 005c 0623     		mov	r3, #6
 302 005e 0093     		str	r3, [sp]
 303 0060 1B4B     		ldr	r3, .L11+24
 304 0062 0193     		str	r3, [sp, #4]
ARM GAS  C:\Users\Petro\AppData\Local\Temp\ccQnjlQx.s 			page 14


 305 0064 6E23     		mov	r3, #110
 306 0066 FF33     		add	r3, r3, #255
 307 0068 0293     		str	r3, [sp, #8]
 308 006a 081C     		mov	r0, r1
 309 006c 111C     		mov	r1, r2
 310 006e 321C     		mov	r2, r6
 311 0070 2B1C     		mov	r3, r5
 312 0072 FFF7FEFF 		bl	CyBle_StackInit
 313 0076 031C     		mov	r3, r0
 314 0078 2380     		strh	r3, [r4]
 426:Generated_Source\PSoC4/ble.c ****                 cyBle_stackDataBuff, CYBLE_STACK_BUF_COUNT, cyBle_flashStorage.stackFlashptr, CYBLE
 427:Generated_Source\PSoC4/ble.c ****         #else
 428:Generated_Source\PSoC4/ble.c ****             apiResult = CyBle_StackInit(&CyBle_EventHandler, cyBle_stackMemoryRam, CYBLE_STACK_RAM_
 429:Generated_Source\PSoC4/ble.c ****                 NULL, 0u, NULL, 0u);
 430:Generated_Source\PSoC4/ble.c ****         #endif /* CYBLE_MODE_PROFILE */
 431:Generated_Source\PSoC4/ble.c **** 
 432:Generated_Source\PSoC4/ble.c ****             if(apiResult == CYBLE_ERROR_OK)
 315              		.loc 1 432 0
 316 007a 2623     		mov	r3, #38
 317 007c FB18     		add	r3, r7, r3
 318 007e 1B88     		ldrh	r3, [r3]
 319 0080 002B     		cmp	r3, #0
 320 0082 11D1     		bne	.L9
 433:Generated_Source\PSoC4/ble.c ****             {
 434:Generated_Source\PSoC4/ble.c ****                 CyBle_SetState(CYBLE_STATE_INITIALIZING);
 321              		.loc 1 434 0
 322 0084 134B     		ldr	r3, .L11+28
 323 0086 0122     		mov	r2, #1
 324 0088 1A70     		strb	r2, [r3]
 435:Generated_Source\PSoC4/ble.c ****                 
 436:Generated_Source\PSoC4/ble.c ****             #if (CYBLE_GATT_ROLE_CLIENT)
 437:Generated_Source\PSoC4/ble.c ****                 CyBle_SetClientState(CYBLE_CLIENT_STATE_DISCONNECTED);
 438:Generated_Source\PSoC4/ble.c ****             #endif /* CYBLE_GATT_ROLE_CLIENT */
 439:Generated_Source\PSoC4/ble.c ****                 
 440:Generated_Source\PSoC4/ble.c ****             #if(CYBLE_GATT_ROLE_SERVER)
 441:Generated_Source\PSoC4/ble.c ****                 apiResult = CyBle_GattsDbRegister(cyBle_gattDB, CYBLE_GATT_DB_INDEX_COUNT, CYBLE_GA
 325              		.loc 1 441 0
 326 008a 2623     		mov	r3, #38
 327 008c FC18     		add	r4, r7, r3
 328 008e 124B     		ldr	r3, .L11+32
 329 0090 181C     		mov	r0, r3
 330 0092 2621     		mov	r1, #38
 331 0094 0F22     		mov	r2, #15
 332 0096 FFF7FEFF 		bl	CyBle_GattsDbRegister
 333 009a 031C     		mov	r3, r0
 334 009c 2380     		strh	r3, [r4]
 335 009e 03E0     		b	.L9
 336              	.L7:
 442:Generated_Source\PSoC4/ble.c ****             #endif /* CYBLE_GATT_ROLE_SERVER */
 443:Generated_Source\PSoC4/ble.c ****             }
 444:Generated_Source\PSoC4/ble.c ****         }
 445:Generated_Source\PSoC4/ble.c ****     }
 446:Generated_Source\PSoC4/ble.c ****     else
 447:Generated_Source\PSoC4/ble.c ****     {
 448:Generated_Source\PSoC4/ble.c ****         apiResult = CYBLE_ERROR_INVALID_PARAMETER;
 337              		.loc 1 448 0
 338 00a0 2623     		mov	r3, #38
ARM GAS  C:\Users\Petro\AppData\Local\Temp\ccQnjlQx.s 			page 15


 339 00a2 FB18     		add	r3, r7, r3
 340 00a4 0122     		mov	r2, #1
 341 00a6 1A80     		strh	r2, [r3]
 342              	.L9:
 449:Generated_Source\PSoC4/ble.c ****     }
 450:Generated_Source\PSoC4/ble.c **** 
 451:Generated_Source\PSoC4/ble.c ****     return (apiResult);
 343              		.loc 1 451 0
 344 00a8 2623     		mov	r3, #38
 345 00aa FB18     		add	r3, r7, r3
 346 00ac 1B88     		ldrh	r3, [r3]
 452:Generated_Source\PSoC4/ble.c **** }
 347              		.loc 1 452 0
 348 00ae 181C     		mov	r0, r3
 349 00b0 BD46     		mov	sp, r7
 350 00b2 0BB0     		add	sp, sp, #44
 351              		@ sp needed
 352 00b4 F0BD     		pop	{r4, r5, r6, r7, pc}
 353              	.L12:
 354 00b6 C046     		.align	2
 355              	.L11:
 356 00b8 70010000 		.word	.LC0
 357 00bc 00000000 		.word	cyBle_initVar
 358 00c0 00000000 		.word	CyBle_ApplCallback
 359 00c4 00000000 		.word	CyBle_EventHandler
 360 00c8 00000000 		.word	cyBle_stackMemoryRam
 361 00cc C80A0000 		.word	2760
 362 00d0 00000000 		.word	cyBle_flashStorage
 363 00d4 00000000 		.word	cyBle_state
 364 00d8 00000000 		.word	cyBle_gattDB
 365              		.cfi_endproc
 366              	.LFE4:
 367              		.size	CyBle_Start, .-CyBle_Start
 368              		.section	.text.CyBle_Stop,"ax",%progbits
 369              		.align	2
 370              		.global	CyBle_Stop
 371              		.code	16
 372              		.thumb_func
 373              		.type	CyBle_Stop, %function
 374              	CyBle_Stop:
 375              	.LFB5:
 453:Generated_Source\PSoC4/ble.c **** 
 454:Generated_Source\PSoC4/ble.c **** 
 455:Generated_Source\PSoC4/ble.c **** /******************************************************************************
 456:Generated_Source\PSoC4/ble.c **** * Function Name: CyBle_Stop
 457:Generated_Source\PSoC4/ble.c **** ***************************************************************************//**
 458:Generated_Source\PSoC4/ble.c **** * 
 459:Generated_Source\PSoC4/ble.c **** *  This function stops any ongoing operation in the BLE Stack and forces the 
 460:Generated_Source\PSoC4/ble.c **** *  BLE Stack to shut down. The only function that can be called after calling
 461:Generated_Source\PSoC4/ble.c **** *  this function is CyBle_Start(). 
 462:Generated_Source\PSoC4/ble.c **** * 
 463:Generated_Source\PSoC4/ble.c **** * \return
 464:Generated_Source\PSoC4/ble.c **** *  None
 465:Generated_Source\PSoC4/ble.c **** * 
 466:Generated_Source\PSoC4/ble.c **** ******************************************************************************/
 467:Generated_Source\PSoC4/ble.c **** void CyBle_Stop(void)
 468:Generated_Source\PSoC4/ble.c **** {
ARM GAS  C:\Users\Petro\AppData\Local\Temp\ccQnjlQx.s 			page 16


 376              		.loc 1 468 0
 377              		.cfi_startproc
 378 0000 80B5     		push	{r7, lr}
 379              		.cfi_def_cfa_offset 8
 380              		.cfi_offset 7, -8
 381              		.cfi_offset 14, -4
 382 0002 00AF     		add	r7, sp, #0
 383              		.cfi_def_cfa_register 7
 469:Generated_Source\PSoC4/ble.c ****     CyBle_Shutdown();                         /* Stop all ongoing activities */
 384              		.loc 1 469 0
 385 0004 FFF7FEFF 		bl	CyBle_Shutdown
 470:Generated_Source\PSoC4/ble.c ****     CyBle_SetState(CYBLE_STATE_STOPPED);
 386              		.loc 1 470 0
 387 0008 024B     		ldr	r3, .L14
 388 000a 0022     		mov	r2, #0
 389 000c 1A70     		strb	r2, [r3]
 471:Generated_Source\PSoC4/ble.c ****     #if(CYBLE_SHARING_MODE_EXPORT)
 472:Generated_Source\PSoC4/ble.c ****         if(cyBle_stackMemoryRam != NULL)
 473:Generated_Source\PSoC4/ble.c ****         {
 474:Generated_Source\PSoC4/ble.c ****             free(cyBle_stackMemoryRam);
 475:Generated_Source\PSoC4/ble.c ****         }
 476:Generated_Source\PSoC4/ble.c ****     #endif /* CYBLE_SHARING_MODE_EXPORT */
 477:Generated_Source\PSoC4/ble.c **** }
 390              		.loc 1 477 0
 391 000e BD46     		mov	sp, r7
 392              		@ sp needed
 393 0010 80BD     		pop	{r7, pc}
 394              	.L15:
 395 0012 C046     		.align	2
 396              	.L14:
 397 0014 00000000 		.word	cyBle_state
 398              		.cfi_endproc
 399              	.LFE5:
 400              		.size	CyBle_Stop, .-CyBle_Stop
 401              		.section	.text.CyBle_StoreBondingData,"ax",%progbits
 402              		.align	2
 403              		.global	CyBle_StoreBondingData
 404              		.code	16
 405              		.thumb_func
 406              		.type	CyBle_StoreBondingData, %function
 407              	CyBle_StoreBondingData:
 408              	.LFB6:
 478:Generated_Source\PSoC4/ble.c **** 
 479:Generated_Source\PSoC4/ble.c **** 
 480:Generated_Source\PSoC4/ble.c **** #if((CYBLE_GAP_ROLE_PERIPHERAL || CYBLE_GAP_ROLE_CENTRAL) && (CYBLE_BONDING_REQUIREMENT == CYBLE_BO
 481:Generated_Source\PSoC4/ble.c **** 
 482:Generated_Source\PSoC4/ble.c ****     
 483:Generated_Source\PSoC4/ble.c **** /******************************************************************************
 484:Generated_Source\PSoC4/ble.c **** * Function Name: CyBle_StoreBondingData
 485:Generated_Source\PSoC4/ble.c **** ***************************************************************************//**
 486:Generated_Source\PSoC4/ble.c **** * 
 487:Generated_Source\PSoC4/ble.c **** *  This function writes the new bonding data from RAM to the dedicated Flash 
 488:Generated_Source\PSoC4/ble.c **** *  location as defined by the component. It performs data comparing between RAM
 489:Generated_Source\PSoC4/ble.c **** *  and Flash before writing to Flash. If there is no change between RAM and Flash
 490:Generated_Source\PSoC4/ble.c **** *  data, then no write is performed. It writes only one flash row in one call.
 491:Generated_Source\PSoC4/ble.c **** *  Application should keep calling this function till API return CYBLE_ERROR_OK. 
 492:Generated_Source\PSoC4/ble.c **** *  This function is available only when Bonding requirement is selected in
ARM GAS  C:\Users\Petro\AppData\Local\Temp\ccQnjlQx.s 			page 17


 493:Generated_Source\PSoC4/ble.c **** *  Security settings.    
 494:Generated_Source\PSoC4/ble.c **** * 
 495:Generated_Source\PSoC4/ble.c **** *  \param isForceWrite:  If value is set to 0, then stack will check if flash write 
 496:Generated_Source\PSoC4/ble.c **** *                 is permissible. 
 497:Generated_Source\PSoC4/ble.c **** *  
 498:Generated_Source\PSoC4/ble.c **** * \return
 499:Generated_Source\PSoC4/ble.c **** *  Return value is of type CYBLE_API_RESULT_T.
 500:Generated_Source\PSoC4/ble.c **** *
 501:Generated_Source\PSoC4/ble.c **** *   Errors codes                         | Description
 502:Generated_Source\PSoC4/ble.c **** *   ----------------------------------   | ------------------------------------
 503:Generated_Source\PSoC4/ble.c **** *   CYBLE_ERROR_OK                       | On successful operation
 504:Generated_Source\PSoC4/ble.c **** *   CYBLE_ERROR_FLASH_WRITE_NOT_PERMITED | Flash Write is not complete
 505:Generated_Source\PSoC4/ble.c **** *    
 506:Generated_Source\PSoC4/ble.c **** *  \sideeffect
 507:Generated_Source\PSoC4/ble.c **** *   For BLE devices with 128K of Flash memory this API will automatically 
 508:Generated_Source\PSoC4/ble.c **** *   modify the clock settings for the device.
 509:Generated_Source\PSoC4/ble.c **** *   Writing to flash requires changes to be done to the IMO (set to 48 MHz)
 510:Generated_Source\PSoC4/ble.c **** *   and HFCLK (source set to IMO) settings. The configuration is restored before
 511:Generated_Source\PSoC4/ble.c **** *   returning. This will impact the operation of most of the hardware in the
 512:Generated_Source\PSoC4/ble.c **** *   device.
 513:Generated_Source\PSoC4/ble.c **** * 
 514:Generated_Source\PSoC4/ble.c **** *  \globalvars
 515:Generated_Source\PSoC4/ble.c **** *   The ble_pendingFlashWrite variable is used to detect status
 516:Generated_Source\PSoC4/ble.c **** *   of pending write to flash operation for stack data and CCCD.
 517:Generated_Source\PSoC4/ble.c **** *   This API automatically clears pending bits after write operation complete.
 518:Generated_Source\PSoC4/ble.c **** *     
 519:Generated_Source\PSoC4/ble.c **** ******************************************************************************/
 520:Generated_Source\PSoC4/ble.c **** CYBLE_API_RESULT_T CyBle_StoreBondingData(uint8 isForceWrite)
 521:Generated_Source\PSoC4/ble.c **** {
 409              		.loc 1 521 0
 410              		.cfi_startproc
 411 0000 90B5     		push	{r4, r7, lr}
 412              		.cfi_def_cfa_offset 12
 413              		.cfi_offset 4, -12
 414              		.cfi_offset 7, -8
 415              		.cfi_offset 14, -4
 416 0002 85B0     		sub	sp, sp, #20
 417              		.cfi_def_cfa_offset 32
 418 0004 00AF     		add	r7, sp, #0
 419              		.cfi_def_cfa_register 7
 420 0006 021C     		mov	r2, r0
 421 0008 FB1D     		add	r3, r7, #7
 422 000a 1A70     		strb	r2, [r3]
 522:Generated_Source\PSoC4/ble.c ****     CYBLE_API_RESULT_T apiResult = CYBLE_ERROR_OK;
 423              		.loc 1 522 0
 424 000c 0E23     		mov	r3, #14
 425 000e FB18     		add	r3, r7, r3
 426 0010 0022     		mov	r2, #0
 427 0012 1A80     		strh	r2, [r3]
 523:Generated_Source\PSoC4/ble.c ****     
 524:Generated_Source\PSoC4/ble.c ****     /* Store Stack data */
 525:Generated_Source\PSoC4/ble.c ****     if((cyBle_pendingFlashWrite & CYBLE_PENDING_STACK_FLASH_WRITE_BIT) != 0u)
 428              		.loc 1 525 0
 429 0014 314B     		ldr	r3, .L21
 430 0016 1B78     		ldrb	r3, [r3]
 431 0018 1A1C     		mov	r2, r3
 432 001a 0123     		mov	r3, #1
ARM GAS  C:\Users\Petro\AppData\Local\Temp\ccQnjlQx.s 			page 18


 433 001c 1340     		and	r3, r2
 434 001e 1ED0     		beq	.L17
 526:Generated_Source\PSoC4/ble.c ****     {
 527:Generated_Source\PSoC4/ble.c ****         apiResult = CyBle_StoreStackData(isForceWrite);
 435              		.loc 1 527 0
 436 0020 0E23     		mov	r3, #14
 437 0022 FC18     		add	r4, r7, r3
 438 0024 FB1D     		add	r3, r7, #7
 439 0026 1B78     		ldrb	r3, [r3]
 440 0028 181C     		mov	r0, r3
 441 002a FFF7FEFF 		bl	CyBle_StoreStackData
 442 002e 031C     		mov	r3, r0
 443 0030 2380     		strh	r3, [r4]
 528:Generated_Source\PSoC4/ble.c ****         if(apiResult == CYBLE_ERROR_OK)
 444              		.loc 1 528 0
 445 0032 0E23     		mov	r3, #14
 446 0034 FB18     		add	r3, r7, r3
 447 0036 1B88     		ldrh	r3, [r3]
 448 0038 002B     		cmp	r3, #0
 449 003a 10D1     		bne	.L17
 529:Generated_Source\PSoC4/ble.c ****         {
 530:Generated_Source\PSoC4/ble.c ****             cyBle_pendingFlashWrite &= (uint8)~CYBLE_PENDING_STACK_FLASH_WRITE_BIT;
 450              		.loc 1 530 0
 451 003c 274B     		ldr	r3, .L21
 452 003e 1B78     		ldrb	r3, [r3]
 453 0040 0122     		mov	r2, #1
 454 0042 9343     		bic	r3, r2
 455 0044 DAB2     		uxtb	r2, r3
 456 0046 254B     		ldr	r3, .L21
 457 0048 1A70     		strb	r2, [r3]
 531:Generated_Source\PSoC4/ble.c ****             /* Change apiResult if there are more pending data to store */
 532:Generated_Source\PSoC4/ble.c ****             if((cyBle_pendingFlashWrite & CYBLE_PENDING_CCCD_FLASH_WRITE_BIT) != 0u)
 458              		.loc 1 532 0
 459 004a 244B     		ldr	r3, .L21
 460 004c 1B78     		ldrb	r3, [r3]
 461 004e 1A1C     		mov	r2, r3
 462 0050 0223     		mov	r3, #2
 463 0052 1340     		and	r3, r2
 464 0054 03D0     		beq	.L17
 533:Generated_Source\PSoC4/ble.c ****             {
 534:Generated_Source\PSoC4/ble.c ****                 apiResult = CYBLE_ERROR_FLASH_WRITE_NOT_PERMITED;
 465              		.loc 1 534 0
 466 0056 0E23     		mov	r3, #14
 467 0058 FB18     		add	r3, r7, r3
 468 005a 2822     		mov	r2, #40
 469 005c 1A80     		strh	r2, [r3]
 470              	.L17:
 535:Generated_Source\PSoC4/ble.c ****             }
 536:Generated_Source\PSoC4/ble.c ****         }
 537:Generated_Source\PSoC4/ble.c ****     }
 538:Generated_Source\PSoC4/ble.c **** #if(CYBLE_GATT_DB_CCCD_COUNT != 0u)
 539:Generated_Source\PSoC4/ble.c ****     /* Store CCCD values */
 540:Generated_Source\PSoC4/ble.c ****     if( ((apiResult == CYBLE_ERROR_OK) || (isForceWrite != 0u)) && 
 471              		.loc 1 540 0
 472 005e 0E23     		mov	r3, #14
 473 0060 FB18     		add	r3, r7, r3
 474 0062 1B88     		ldrh	r3, [r3]
ARM GAS  C:\Users\Petro\AppData\Local\Temp\ccQnjlQx.s 			page 19


 475 0064 002B     		cmp	r3, #0
 476 0066 03D0     		beq	.L18
 477              		.loc 1 540 0 is_stmt 0 discriminator 2
 478 0068 FB1D     		add	r3, r7, #7
 479 006a 1B78     		ldrb	r3, [r3]
 480 006c 002B     		cmp	r3, #0
 481 006e 2ED0     		beq	.L19
 482              	.L18:
 541:Generated_Source\PSoC4/ble.c ****         ((cyBle_pendingFlashWrite & CYBLE_PENDING_CCCD_FLASH_WRITE_BIT) != 0u) &&
 483              		.loc 1 541 0 is_stmt 1 discriminator 3
 484 0070 1A4B     		ldr	r3, .L21
 485 0072 1B78     		ldrb	r3, [r3]
 486 0074 1A1C     		mov	r2, r3
 487 0076 0223     		mov	r3, #2
 488 0078 1340     		and	r3, r2
 540:Generated_Source\PSoC4/ble.c ****         ((cyBle_pendingFlashWrite & CYBLE_PENDING_CCCD_FLASH_WRITE_BIT) != 0u) &&
 489              		.loc 1 540 0 discriminator 3
 490 007a 28D0     		beq	.L19
 542:Generated_Source\PSoC4/ble.c ****         (cyBle_connHandle.bdHandle <= CYBLE_GAP_MAX_BONDED_DEVICE))
 491              		.loc 1 542 0
 492 007c 184B     		ldr	r3, .L21+4
 493 007e 1B78     		ldrb	r3, [r3]
 541:Generated_Source\PSoC4/ble.c ****         ((cyBle_pendingFlashWrite & CYBLE_PENDING_CCCD_FLASH_WRITE_BIT) != 0u) &&
 494              		.loc 1 541 0
 495 0080 042B     		cmp	r3, #4
 496 0082 24D8     		bhi	.L19
 543:Generated_Source\PSoC4/ble.c ****     {
 544:Generated_Source\PSoC4/ble.c ****         apiResult = CyBle_StoreAppData(cyBle_attValuesCCCD, cyBle_flashStorage.attValuesCCCDFlashMe
 497              		.loc 1 544 0
 498 0084 164B     		ldr	r3, .L21+4
 499 0086 1B78     		ldrb	r3, [r3]
 500 0088 1A1C     		mov	r2, r3
 501 008a 131C     		mov	r3, r2
 502 008c 5B00     		lsl	r3, r3, #1
 503 008e 9B18     		add	r3, r3, r2
 504 0090 9B00     		lsl	r3, r3, #2
 505 0092 6933     		add	r3, r3, #105
 506 0094 FF33     		add	r3, r3, #255
 507 0096 1A1C     		mov	r2, r3
 508 0098 124B     		ldr	r3, .L21+8
 509 009a D318     		add	r3, r2, r3
 510 009c 5A1D     		add	r2, r3, #5
 511 009e 0E23     		mov	r3, #14
 512 00a0 FC18     		add	r4, r7, r3
 513 00a2 1149     		ldr	r1, .L21+12
 514 00a4 FB1D     		add	r3, r7, #7
 515 00a6 1B78     		ldrb	r3, [r3]
 516 00a8 081C     		mov	r0, r1
 517 00aa 111C     		mov	r1, r2
 518 00ac 0C22     		mov	r2, #12
 519 00ae FFF7FEFF 		bl	CyBle_StoreAppData
 520 00b2 031C     		mov	r3, r0
 521 00b4 2380     		strh	r3, [r4]
 545:Generated_Source\PSoC4/ble.c ****                                        CYBLE_GATT_DB_CCCD_COUNT, isForceWrite);
 546:Generated_Source\PSoC4/ble.c ****         if(apiResult == CYBLE_ERROR_OK)
 522              		.loc 1 546 0
 523 00b6 0E23     		mov	r3, #14
ARM GAS  C:\Users\Petro\AppData\Local\Temp\ccQnjlQx.s 			page 20


 524 00b8 FB18     		add	r3, r7, r3
 525 00ba 1B88     		ldrh	r3, [r3]
 526 00bc 002B     		cmp	r3, #0
 527 00be 06D1     		bne	.L19
 547:Generated_Source\PSoC4/ble.c ****         {
 548:Generated_Source\PSoC4/ble.c ****             cyBle_pendingFlashWrite &= (uint8)~CYBLE_PENDING_CCCD_FLASH_WRITE_BIT;
 528              		.loc 1 548 0
 529 00c0 064B     		ldr	r3, .L21
 530 00c2 1B78     		ldrb	r3, [r3]
 531 00c4 0222     		mov	r2, #2
 532 00c6 9343     		bic	r3, r2
 533 00c8 DAB2     		uxtb	r2, r3
 534 00ca 044B     		ldr	r3, .L21
 535 00cc 1A70     		strb	r2, [r3]
 536              	.L19:
 549:Generated_Source\PSoC4/ble.c ****         }
 550:Generated_Source\PSoC4/ble.c ****     }
 551:Generated_Source\PSoC4/ble.c **** #endif /* CYBLE_GATT_DB_CCCD_COUNT != 0u */
 552:Generated_Source\PSoC4/ble.c ****     return(apiResult);
 537              		.loc 1 552 0
 538 00ce 0E23     		mov	r3, #14
 539 00d0 FB18     		add	r3, r7, r3
 540 00d2 1B88     		ldrh	r3, [r3]
 553:Generated_Source\PSoC4/ble.c **** }
 541              		.loc 1 553 0
 542 00d4 181C     		mov	r0, r3
 543 00d6 BD46     		mov	sp, r7
 544 00d8 05B0     		add	sp, sp, #20
 545              		@ sp needed
 546 00da 90BD     		pop	{r4, r7, pc}
 547              	.L22:
 548              		.align	2
 549              	.L21:
 550 00dc 00000000 		.word	cyBle_pendingFlashWrite
 551 00e0 00000000 		.word	cyBle_connHandle
 552 00e4 00000000 		.word	cyBle_flashStorage
 553 00e8 00000000 		.word	cyBle_attValuesCCCD
 554              		.cfi_endproc
 555              	.LFE6:
 556              		.size	CyBle_StoreBondingData, .-CyBle_StoreBondingData
 557              		.section	.text.CyBle_GappStartAdvertisement,"ax",%progbits
 558              		.align	2
 559              		.global	CyBle_GappStartAdvertisement
 560              		.code	16
 561              		.thumb_func
 562              		.type	CyBle_GappStartAdvertisement, %function
 563              	CyBle_GappStartAdvertisement:
 564              	.LFB7:
 554:Generated_Source\PSoC4/ble.c **** 
 555:Generated_Source\PSoC4/ble.c **** 
 556:Generated_Source\PSoC4/ble.c **** #endif /* (CYBLE_GAP_ROLE_PERIPHERAL || CYBLE_GAP_ROLE_CENTRAL) && (CYBLE_BONDING_REQUIREMENT == CY
 557:Generated_Source\PSoC4/ble.c **** 
 558:Generated_Source\PSoC4/ble.c **** 
 559:Generated_Source\PSoC4/ble.c **** #if(CYBLE_GAP_ROLE_PERIPHERAL || CYBLE_GAP_ROLE_BROADCASTER)
 560:Generated_Source\PSoC4/ble.c **** 
 561:Generated_Source\PSoC4/ble.c ****     /******************************************************************************
 562:Generated_Source\PSoC4/ble.c ****     *  Function Name: CyBle_GappStartAdvertisement
ARM GAS  C:\Users\Petro\AppData\Local\Temp\ccQnjlQx.s 			page 21


 563:Generated_Source\PSoC4/ble.c ****     ***************************************************************************//**
 564:Generated_Source\PSoC4/ble.c ****     *     
 565:Generated_Source\PSoC4/ble.c ****     *  This function is used to start the advertisement using the advertisement data 
 566:Generated_Source\PSoC4/ble.c ****     *  set in the component customizer's GUI. After invoking this API, the device 
 567:Generated_Source\PSoC4/ble.c ****     *  will be available for connection by the devices configured for GAP central 
 568:Generated_Source\PSoC4/ble.c ****     *  role. It is only included if the device is configured for GAP Peripheral or 
 569:Generated_Source\PSoC4/ble.c ****     *  GAP Peripheral + Central role.
 570:Generated_Source\PSoC4/ble.c ****     *  
 571:Generated_Source\PSoC4/ble.c ****     *  On start of advertisement, GAP Peripheral receives the
 572:Generated_Source\PSoC4/ble.c ****     *  CYBLE_EVT_GAPP_ADVERTISEMENT_START_STOP event. The following events are 
 573:Generated_Source\PSoC4/ble.c ****     *  possible on invoking this function:
 574:Generated_Source\PSoC4/ble.c ****     *  
 575:Generated_Source\PSoC4/ble.c ****     *  * CYBLE_EVT_GAP_DEVICE_CONNECTED: If the device connects to remote GAP 
 576:Generated_Source\PSoC4/ble.c ****     *                                      Central device
 577:Generated_Source\PSoC4/ble.c ****     *  * CYBLE_EVT_TIMEOUT: If no device in GAP Central mode connects to this 
 578:Generated_Source\PSoC4/ble.c ****     *                       device within the specified timeout limit. Stack 
 579:Generated_Source\PSoC4/ble.c ****     *                       automatically initiate stop advertising when Slow 
 580:Generated_Source\PSoC4/ble.c ****     *                       advertising was initiated, or starts Slow advertising
 581:Generated_Source\PSoC4/ble.c ****     *                       after Fast advertising timeout occur.
 582:Generated_Source\PSoC4/ble.c ****     *  * CYBLE_EVT_GAPP_ADVERTISEMENT_START_STOP: If device started or stopped
 583:Generated_Source\PSoC4/ble.c ****     *                                               advertising. Use CyBle_GetState()
 584:Generated_Source\PSoC4/ble.c ****     *                                               to determine the state. Sequential 
 585:Generated_Source\PSoC4/ble.c ****     *                                               advertising could be started when
 586:Generated_Source\PSoC4/ble.c ****     *                                               CYBLE_STATE_DISCONNECTED state is
 587:Generated_Source\PSoC4/ble.c ****     *                                               returned.
 588:Generated_Source\PSoC4/ble.c ****     * 
 589:Generated_Source\PSoC4/ble.c ****     *  \param advertisingIntervalType: Fast or slow advertising interval with timings
 590:Generated_Source\PSoC4/ble.c ****     *                                 entered in Advertising settings section of the
 591:Generated_Source\PSoC4/ble.c ****     *                                 customizer.
 592:Generated_Source\PSoC4/ble.c ****     *  * CYBLE_ADVERTISING_FAST   0x00u
 593:Generated_Source\PSoC4/ble.c ****     *  * CYBLE_ADVERTISING_SLOW   0x01u
 594:Generated_Source\PSoC4/ble.c ****     *  * CYBLE_ADVERTISING_CUSTOM 0x02u
 595:Generated_Source\PSoC4/ble.c ****     * 
 596:Generated_Source\PSoC4/ble.c ****     * \return
 597:Generated_Source\PSoC4/ble.c ****     *  CYBLE_API_RESULT_T : Return value indicates if the function succeeded or
 598:Generated_Source\PSoC4/ble.c ****     *  failed. Following are the possible error codes.
 599:Generated_Source\PSoC4/ble.c ****     * 
 600:Generated_Source\PSoC4/ble.c ****     *   Errors codes                      |  Description
 601:Generated_Source\PSoC4/ble.c ****     *   --------------------------------- |  --------------------------------
 602:Generated_Source\PSoC4/ble.c ****     *   CYBLE_ERROR_OK                    |  On successful operation.
 603:Generated_Source\PSoC4/ble.c ****     *   CYBLE_ERROR_INVALID_PARAMETER     |  On passing an invalid parameter.
 604:Generated_Source\PSoC4/ble.c ****     *   CYBLE_ERROR_INVALID_STATE         |  On calling this API not in Disconnected state.
 605:Generated_Source\PSoC4/ble.c ****     *
 606:Generated_Source\PSoC4/ble.c ****     * 
 607:Generated_Source\PSoC4/ble.c ****     *******************************************************************************/
 608:Generated_Source\PSoC4/ble.c ****     CYBLE_API_RESULT_T CyBle_GappStartAdvertisement(uint8 advertisingIntervalType)
 609:Generated_Source\PSoC4/ble.c ****     {
 565              		.loc 1 609 0
 566              		.cfi_startproc
 567 0000 90B5     		push	{r4, r7, lr}
 568              		.cfi_def_cfa_offset 12
 569              		.cfi_offset 4, -12
 570              		.cfi_offset 7, -8
 571              		.cfi_offset 14, -4
 572 0002 85B0     		sub	sp, sp, #20
 573              		.cfi_def_cfa_offset 32
 574 0004 00AF     		add	r7, sp, #0
ARM GAS  C:\Users\Petro\AppData\Local\Temp\ccQnjlQx.s 			page 22


 575              		.cfi_def_cfa_register 7
 576 0006 021C     		mov	r2, r0
 577 0008 FB1D     		add	r3, r7, #7
 578 000a 1A70     		strb	r2, [r3]
 610:Generated_Source\PSoC4/ble.c ****         CYBLE_API_RESULT_T apiResult;
 611:Generated_Source\PSoC4/ble.c ****         
 612:Generated_Source\PSoC4/ble.c ****         if(advertisingIntervalType > CYBLE_ADVERTISING_CUSTOM)
 579              		.loc 1 612 0
 580 000c FB1D     		add	r3, r7, #7
 581 000e 1B78     		ldrb	r3, [r3]
 582 0010 022B     		cmp	r3, #2
 583 0012 04D9     		bls	.L24
 613:Generated_Source\PSoC4/ble.c ****         {
 614:Generated_Source\PSoC4/ble.c ****             apiResult = CYBLE_ERROR_INVALID_PARAMETER;
 584              		.loc 1 614 0
 585 0014 0E23     		mov	r3, #14
 586 0016 FB18     		add	r3, r7, r3
 587 0018 0122     		mov	r2, #1
 588 001a 1A80     		strh	r2, [r3]
 589 001c 4BE0     		b	.L25
 590              	.L24:
 615:Generated_Source\PSoC4/ble.c ****         }
 616:Generated_Source\PSoC4/ble.c ****         else if((CYBLE_STATE_DISCONNECTED == CyBle_GetState()) && ((cyBle_eventHandlerFlag & CYBLE_
 591              		.loc 1 616 0
 592 001e 294B     		ldr	r3, .L31
 593 0020 1B78     		ldrb	r3, [r3]
 594 0022 042B     		cmp	r3, #4
 595 0024 42D1     		bne	.L26
 596              		.loc 1 616 0 is_stmt 0 discriminator 1
 597 0026 284B     		ldr	r3, .L31+4
 598 0028 1B78     		ldrb	r3, [r3]
 599 002a DBB2     		uxtb	r3, r3
 600 002c 1A1C     		mov	r2, r3
 601 002e 0423     		mov	r3, #4
 602 0030 1340     		and	r3, r2
 603 0032 3BD1     		bne	.L26
 617:Generated_Source\PSoC4/ble.c ****         {   
 618:Generated_Source\PSoC4/ble.c ****             if(advertisingIntervalType == CYBLE_ADVERTISING_FAST)
 604              		.loc 1 618 0 is_stmt 1
 605 0034 FB1D     		add	r3, r7, #7
 606 0036 1B78     		ldrb	r3, [r3]
 607 0038 002B     		cmp	r3, #0
 608 003a 0BD1     		bne	.L27
 619:Generated_Source\PSoC4/ble.c ****             {
 620:Generated_Source\PSoC4/ble.c ****                 cyBle_discoveryModeInfo.advTo = CYBLE_FAST_ADV_TIMEOUT;
 609              		.loc 1 620 0
 610 003c 234B     		ldr	r3, .L31+8
 611 003e 0022     		mov	r2, #0
 612 0040 1A82     		strh	r2, [r3, #16]
 621:Generated_Source\PSoC4/ble.c ****                 cyBle_discoveryModeInfo.advParam->advIntvMin = CYBLE_FAST_ADV_INT_MIN;
 613              		.loc 1 621 0
 614 0042 224B     		ldr	r3, .L31+8
 615 0044 5B68     		ldr	r3, [r3, #4]
 616 0046 2022     		mov	r2, #32
 617 0048 1A80     		strh	r2, [r3]
 622:Generated_Source\PSoC4/ble.c ****                 cyBle_discoveryModeInfo.advParam->advIntvMax = CYBLE_FAST_ADV_INT_MAX;
 618              		.loc 1 622 0
ARM GAS  C:\Users\Petro\AppData\Local\Temp\ccQnjlQx.s 			page 23


 619 004a 204B     		ldr	r3, .L31+8
 620 004c 5B68     		ldr	r3, [r3, #4]
 621 004e 3022     		mov	r2, #48
 622 0050 5A80     		strh	r2, [r3, #2]
 623 0052 10E0     		b	.L28
 624              	.L27:
 623:Generated_Source\PSoC4/ble.c ****             }
 624:Generated_Source\PSoC4/ble.c ****             else if(advertisingIntervalType == CYBLE_ADVERTISING_SLOW)
 625              		.loc 1 624 0
 626 0054 FB1D     		add	r3, r7, #7
 627 0056 1B78     		ldrb	r3, [r3]
 628 0058 012B     		cmp	r3, #1
 629 005a 0CD1     		bne	.L28
 625:Generated_Source\PSoC4/ble.c ****             {
 626:Generated_Source\PSoC4/ble.c ****                 cyBle_discoveryModeInfo.advTo = CYBLE_SLOW_ADV_TIMEOUT;
 630              		.loc 1 626 0
 631 005c 1B4B     		ldr	r3, .L31+8
 632 005e 9622     		mov	r2, #150
 633 0060 1A82     		strh	r2, [r3, #16]
 627:Generated_Source\PSoC4/ble.c ****                 cyBle_discoveryModeInfo.advParam->advIntvMin = CYBLE_SLOW_ADV_INT_MIN;
 634              		.loc 1 627 0
 635 0062 1A4B     		ldr	r3, .L31+8
 636 0064 5B68     		ldr	r3, [r3, #4]
 637 0066 C822     		mov	r2, #200
 638 0068 D200     		lsl	r2, r2, #3
 639 006a 1A80     		strh	r2, [r3]
 628:Generated_Source\PSoC4/ble.c ****                 cyBle_discoveryModeInfo.advParam->advIntvMax = CYBLE_SLOW_ADV_INT_MAX;
 640              		.loc 1 628 0
 641 006c 174B     		ldr	r3, .L31+8
 642 006e 5B68     		ldr	r3, [r3, #4]
 643 0070 8022     		mov	r2, #128
 644 0072 D201     		lsl	r2, r2, #7
 645 0074 5A80     		strh	r2, [r3, #2]
 646              	.L28:
 629:Generated_Source\PSoC4/ble.c ****             }       
 630:Generated_Source\PSoC4/ble.c ****             else /* Do not update advertising intervals */
 631:Generated_Source\PSoC4/ble.c ****             {
 632:Generated_Source\PSoC4/ble.c ****             }
 633:Generated_Source\PSoC4/ble.c ****             cyBle_advertisingIntervalType = advertisingIntervalType;
 647              		.loc 1 633 0
 648 0076 164B     		ldr	r3, .L31+12
 649 0078 FA1D     		add	r2, r7, #7
 650 007a 1278     		ldrb	r2, [r2]
 651 007c 1A70     		strb	r2, [r3]
 634:Generated_Source\PSoC4/ble.c ****             apiResult = CyBle_GappEnterDiscoveryMode(&cyBle_discoveryModeInfo);
 652              		.loc 1 634 0
 653 007e 0E23     		mov	r3, #14
 654 0080 FC18     		add	r4, r7, r3
 655 0082 124B     		ldr	r3, .L31+8
 656 0084 181C     		mov	r0, r3
 657 0086 FFF7FEFF 		bl	CyBle_GappEnterDiscoveryMode
 658 008a 031C     		mov	r3, r0
 659 008c 2380     		strh	r3, [r4]
 635:Generated_Source\PSoC4/ble.c ****         
 636:Generated_Source\PSoC4/ble.c ****             if(CYBLE_ERROR_OK == apiResult)
 660              		.loc 1 636 0
 661 008e 0E23     		mov	r3, #14
ARM GAS  C:\Users\Petro\AppData\Local\Temp\ccQnjlQx.s 			page 24


 662 0090 FB18     		add	r3, r7, r3
 663 0092 1B88     		ldrh	r3, [r3]
 664 0094 002B     		cmp	r3, #0
 665 0096 08D1     		bne	.L29
 637:Generated_Source\PSoC4/ble.c ****             {
 638:Generated_Source\PSoC4/ble.c ****                 cyBle_eventHandlerFlag |= CYBLE_START_FLAG;
 666              		.loc 1 638 0
 667 0098 0B4B     		ldr	r3, .L31+4
 668 009a 1B78     		ldrb	r3, [r3]
 669 009c DBB2     		uxtb	r3, r3
 670 009e 0422     		mov	r2, #4
 671 00a0 1343     		orr	r3, r2
 672 00a2 DAB2     		uxtb	r2, r3
 673 00a4 084B     		ldr	r3, .L31+4
 674 00a6 1A70     		strb	r2, [r3]
 636:Generated_Source\PSoC4/ble.c ****             {
 675              		.loc 1 636 0
 676 00a8 05E0     		b	.L25
 677              	.L29:
 678 00aa 04E0     		b	.L25
 679              	.L26:
 639:Generated_Source\PSoC4/ble.c ****             }
 640:Generated_Source\PSoC4/ble.c ****         }
 641:Generated_Source\PSoC4/ble.c ****         else
 642:Generated_Source\PSoC4/ble.c ****         {
 643:Generated_Source\PSoC4/ble.c ****             apiResult = CYBLE_ERROR_INVALID_STATE;
 680              		.loc 1 643 0
 681 00ac 0E23     		mov	r3, #14
 682 00ae FB18     		add	r3, r7, r3
 683 00b0 0422     		mov	r2, #4
 684 00b2 FF32     		add	r2, r2, #255
 685 00b4 1A80     		strh	r2, [r3]
 686              	.L25:
 644:Generated_Source\PSoC4/ble.c ****         }
 645:Generated_Source\PSoC4/ble.c **** 
 646:Generated_Source\PSoC4/ble.c ****         return (apiResult);
 687              		.loc 1 646 0
 688 00b6 0E23     		mov	r3, #14
 689 00b8 FB18     		add	r3, r7, r3
 690 00ba 1B88     		ldrh	r3, [r3]
 647:Generated_Source\PSoC4/ble.c ****     }
 691              		.loc 1 647 0
 692 00bc 181C     		mov	r0, r3
 693 00be BD46     		mov	sp, r7
 694 00c0 05B0     		add	sp, sp, #20
 695              		@ sp needed
 696 00c2 90BD     		pop	{r4, r7, pc}
 697              	.L32:
 698              		.align	2
 699              	.L31:
 700 00c4 00000000 		.word	cyBle_state
 701 00c8 00000000 		.word	cyBle_eventHandlerFlag
 702 00cc 00000000 		.word	cyBle_discoveryModeInfo
 703 00d0 00000000 		.word	cyBle_advertisingIntervalType
 704              		.cfi_endproc
 705              	.LFE7:
 706              		.size	CyBle_GappStartAdvertisement, .-CyBle_GappStartAdvertisement
ARM GAS  C:\Users\Petro\AppData\Local\Temp\ccQnjlQx.s 			page 25


 707              		.section	.text.CyBle_GappStopAdvertisement,"ax",%progbits
 708              		.align	2
 709              		.global	CyBle_GappStopAdvertisement
 710              		.code	16
 711              		.thumb_func
 712              		.type	CyBle_GappStopAdvertisement, %function
 713              	CyBle_GappStopAdvertisement:
 714              	.LFB8:
 648:Generated_Source\PSoC4/ble.c **** 
 649:Generated_Source\PSoC4/ble.c ****     
 650:Generated_Source\PSoC4/ble.c ****     /******************************************************************************
 651:Generated_Source\PSoC4/ble.c ****     * Function Name: CyBle_GappStopAdvertisement
 652:Generated_Source\PSoC4/ble.c ****     ***************************************************************************//**
 653:Generated_Source\PSoC4/ble.c ****     * 
 654:Generated_Source\PSoC4/ble.c ****     *   This function can be used to exit from discovery mode. After the execution 
 655:Generated_Source\PSoC4/ble.c ****     *   of this function, there will no longer be any advertisements. On stopping 
 656:Generated_Source\PSoC4/ble.c ****     *   advertising, GAP Peripheral receives CYBLE_EVT_GAPP_ADVERTISEMENT_START_STOP
 657:Generated_Source\PSoC4/ble.c ****     *   event. It is expected that the application layer tracks the function call 
 658:Generated_Source\PSoC4/ble.c ****     *   performed before occurrence of this event as this event can occur on making 
 659:Generated_Source\PSoC4/ble.c ****     *   a call to Cy_BleGappStartAdvertisement(), CyBle_GappEnterDiscoveryMode(), 
 660:Generated_Source\PSoC4/ble.c ****     *   or CyBle_GappStartAdvertisement() functions as well.
 661:Generated_Source\PSoC4/ble.c ****     *   
 662:Generated_Source\PSoC4/ble.c ****     *   The following event occurs on invoking this function:
 663:Generated_Source\PSoC4/ble.c ****     *   * CYBLE_EVT_GAPP_ADVERTISEMENT_START_STOP
 664:Generated_Source\PSoC4/ble.c ****     * 
 665:Generated_Source\PSoC4/ble.c ****     *  \return
 666:Generated_Source\PSoC4/ble.c ****     *   None
 667:Generated_Source\PSoC4/ble.c ****     * 
 668:Generated_Source\PSoC4/ble.c ****     *******************************************************************************/
 669:Generated_Source\PSoC4/ble.c ****     void CyBle_GappStopAdvertisement(void)
 670:Generated_Source\PSoC4/ble.c ****     {
 715              		.loc 1 670 0
 716              		.cfi_startproc
 717 0000 80B5     		push	{r7, lr}
 718              		.cfi_def_cfa_offset 8
 719              		.cfi_offset 7, -8
 720              		.cfi_offset 14, -4
 721 0002 00AF     		add	r7, sp, #0
 722              		.cfi_def_cfa_register 7
 671:Generated_Source\PSoC4/ble.c ****         CyBle_GappExitDiscoveryMode();
 723              		.loc 1 671 0
 724 0004 FFF7FEFF 		bl	CyBle_GappExitDiscoveryMode
 672:Generated_Source\PSoC4/ble.c ****         cyBle_eventHandlerFlag |= CYBLE_STOP_FLAG;
 725              		.loc 1 672 0
 726 0008 044B     		ldr	r3, .L34
 727 000a 1B78     		ldrb	r3, [r3]
 728 000c DBB2     		uxtb	r3, r3
 729 000e 0822     		mov	r2, #8
 730 0010 1343     		orr	r3, r2
 731 0012 DAB2     		uxtb	r2, r3
 732 0014 014B     		ldr	r3, .L34
 733 0016 1A70     		strb	r2, [r3]
 673:Generated_Source\PSoC4/ble.c ****     }
 734              		.loc 1 673 0
 735 0018 BD46     		mov	sp, r7
 736              		@ sp needed
 737 001a 80BD     		pop	{r7, pc}
ARM GAS  C:\Users\Petro\AppData\Local\Temp\ccQnjlQx.s 			page 26


 738              	.L35:
 739              		.align	2
 740              	.L34:
 741 001c 00000000 		.word	cyBle_eventHandlerFlag
 742              		.cfi_endproc
 743              	.LFE8:
 744              		.size	CyBle_GappStopAdvertisement, .-CyBle_GappStopAdvertisement
 745              		.section	.text.CyBle_ChangeAdDeviceAddress,"ax",%progbits
 746              		.align	2
 747              		.global	CyBle_ChangeAdDeviceAddress
 748              		.code	16
 749              		.thumb_func
 750              		.type	CyBle_ChangeAdDeviceAddress, %function
 751              	CyBle_ChangeAdDeviceAddress:
 752              	.LFB9:
 674:Generated_Source\PSoC4/ble.c ****     
 675:Generated_Source\PSoC4/ble.c ****     
 676:Generated_Source\PSoC4/ble.c ****     /******************************************************************************
 677:Generated_Source\PSoC4/ble.c ****     * Function Name: CyBle_ChangeAdDeviceAddress
 678:Generated_Source\PSoC4/ble.c ****     ***************************************************************************//**
 679:Generated_Source\PSoC4/ble.c ****     * 
 680:Generated_Source\PSoC4/ble.c ****     *  This API is used to set the Bluetooth device address into the advertisement 
 681:Generated_Source\PSoC4/ble.c ****     *  or scan response data structure.
 682:Generated_Source\PSoC4/ble.c ****     * 
 683:Generated_Source\PSoC4/ble.c ****     *  \param bdAddr: Bluetooth Device address. The variable is of type CYBLE_GAP_BD_ADDR_T
 684:Generated_Source\PSoC4/ble.c ****     *  \param dest: 0 - selects advertisement structure, not zero value selects scan 
 685:Generated_Source\PSoC4/ble.c ****     *               response structure.
 686:Generated_Source\PSoC4/ble.c ****     * 
 687:Generated_Source\PSoC4/ble.c ****     * \return
 688:Generated_Source\PSoC4/ble.c ****     *  None
 689:Generated_Source\PSoC4/ble.c ****     *  
 690:Generated_Source\PSoC4/ble.c ****     *******************************************************************************/
 691:Generated_Source\PSoC4/ble.c ****     void CyBle_ChangeAdDeviceAddress(const CYBLE_GAP_BD_ADDR_T* bdAddr, uint8 dest)
 692:Generated_Source\PSoC4/ble.c ****     {
 753              		.loc 1 692 0
 754              		.cfi_startproc
 755 0000 80B5     		push	{r7, lr}
 756              		.cfi_def_cfa_offset 8
 757              		.cfi_offset 7, -8
 758              		.cfi_offset 14, -4
 759 0002 84B0     		sub	sp, sp, #16
 760              		.cfi_def_cfa_offset 24
 761 0004 00AF     		add	r7, sp, #0
 762              		.cfi_def_cfa_register 7
 763 0006 7860     		str	r0, [r7, #4]
 764 0008 0A1C     		mov	r2, r1
 765 000a FB1C     		add	r3, r7, #3
 766 000c 1A70     		strb	r2, [r3]
 693:Generated_Source\PSoC4/ble.c ****         uint8 i;
 694:Generated_Source\PSoC4/ble.c ****         uint8 *destBuffer = NULL;
 767              		.loc 1 694 0
 768 000e 0023     		mov	r3, #0
 769 0010 BB60     		str	r3, [r7, #8]
 695:Generated_Source\PSoC4/ble.c ****         
 696:Generated_Source\PSoC4/ble.c ****         if(dest == 0u)      /* Destination - advertising structure */
 697:Generated_Source\PSoC4/ble.c ****         {
 698:Generated_Source\PSoC4/ble.c ****             #ifdef CYBLE_ADV_PKT_INDEX_BLUETOOTH_DEVICE_ADDRESS
ARM GAS  C:\Users\Petro\AppData\Local\Temp\ccQnjlQx.s 			page 27


 699:Generated_Source\PSoC4/ble.c ****                 destBuffer = &cyBle_discoveryData.advData[CYBLE_ADV_PKT_INDEX_BLUETOOTH_DEVICE_ADDR
 700:Generated_Source\PSoC4/ble.c ****             #endif /* CYBLE_ADV_PKT_INDEX_BLUETOOTH_DEVICE_ADDRESS */
 701:Generated_Source\PSoC4/ble.c ****         }
 702:Generated_Source\PSoC4/ble.c ****         else                /* Destination - scan response structure */
 703:Generated_Source\PSoC4/ble.c ****         {
 704:Generated_Source\PSoC4/ble.c ****             #ifdef CYBLE_SCN_PKT_INDEX_BLUETOOTH_DEVICE_ADDRESS
 705:Generated_Source\PSoC4/ble.c ****                 destBuffer = &cyBle_scanRspData.scanRspData[CYBLE_SCN_PKT_INDEX_BLUETOOTH_DEVICE_AD
 706:Generated_Source\PSoC4/ble.c ****             #endif /* CYBLE_SCN_PKT_INDEX_BLUETOOTH_DEVICE_ADDRESS */    
 707:Generated_Source\PSoC4/ble.c ****         }
 708:Generated_Source\PSoC4/ble.c ****         
 709:Generated_Source\PSoC4/ble.c ****         if(destBuffer != NULL)
 770              		.loc 1 709 0
 771 0012 BB68     		ldr	r3, [r7, #8]
 772 0014 002B     		cmp	r3, #0
 773 0016 20D0     		beq	.L36
 710:Generated_Source\PSoC4/ble.c ****         {
 711:Generated_Source\PSoC4/ble.c ****             /* Update Device Address type */
 712:Generated_Source\PSoC4/ble.c ****             destBuffer[0u] = bdAddr->type;
 774              		.loc 1 712 0
 775 0018 7B68     		ldr	r3, [r7, #4]
 776 001a 9A79     		ldrb	r2, [r3, #6]
 777 001c BB68     		ldr	r3, [r7, #8]
 778 001e 1A70     		strb	r2, [r3]
 713:Generated_Source\PSoC4/ble.c ****             
 714:Generated_Source\PSoC4/ble.c ****             for(i = 0u; i < CYBLE_GAP_BD_ADDR_SIZE; i++)
 779              		.loc 1 714 0
 780 0020 0F23     		mov	r3, #15
 781 0022 FB18     		add	r3, r7, r3
 782 0024 0022     		mov	r2, #0
 783 0026 1A70     		strb	r2, [r3]
 784 0028 12E0     		b	.L38
 785              	.L39:
 715:Generated_Source\PSoC4/ble.c ****             {
 716:Generated_Source\PSoC4/ble.c ****                 destBuffer[i + 1u] = bdAddr->bdAddr[i];
 786              		.loc 1 716 0 discriminator 3
 787 002a 0F23     		mov	r3, #15
 788 002c FB18     		add	r3, r7, r3
 789 002e 1B78     		ldrb	r3, [r3]
 790 0030 0133     		add	r3, r3, #1
 791 0032 BA68     		ldr	r2, [r7, #8]
 792 0034 D318     		add	r3, r2, r3
 793 0036 0F22     		mov	r2, #15
 794 0038 BA18     		add	r2, r7, r2
 795 003a 1278     		ldrb	r2, [r2]
 796 003c 7968     		ldr	r1, [r7, #4]
 797 003e 8A5C     		ldrb	r2, [r1, r2]
 798 0040 1A70     		strb	r2, [r3]
 714:Generated_Source\PSoC4/ble.c ****             {
 799              		.loc 1 714 0 discriminator 3
 800 0042 0F23     		mov	r3, #15
 801 0044 FB18     		add	r3, r7, r3
 802 0046 1A78     		ldrb	r2, [r3]
 803 0048 0F23     		mov	r3, #15
 804 004a FB18     		add	r3, r7, r3
 805 004c 0132     		add	r2, r2, #1
 806 004e 1A70     		strb	r2, [r3]
 807              	.L38:
ARM GAS  C:\Users\Petro\AppData\Local\Temp\ccQnjlQx.s 			page 28


 714:Generated_Source\PSoC4/ble.c ****             {
 808              		.loc 1 714 0 is_stmt 0 discriminator 1
 809 0050 0F23     		mov	r3, #15
 810 0052 FB18     		add	r3, r7, r3
 811 0054 1B78     		ldrb	r3, [r3]
 812 0056 052B     		cmp	r3, #5
 813 0058 E7D9     		bls	.L39
 814              	.L36:
 717:Generated_Source\PSoC4/ble.c ****             }
 718:Generated_Source\PSoC4/ble.c ****         }
 719:Generated_Source\PSoC4/ble.c ****     }
 815              		.loc 1 719 0 is_stmt 1
 816 005a BD46     		mov	sp, r7
 817 005c 04B0     		add	sp, sp, #16
 818              		@ sp needed
 819 005e 80BD     		pop	{r7, pc}
 820              		.cfi_endproc
 821              	.LFE9:
 822              		.size	CyBle_ChangeAdDeviceAddress, .-CyBle_ChangeAdDeviceAddress
 823              		.section	.text.CyBle_ChangeAdLocalName,"ax",%progbits
 824              		.align	2
 825              		.code	16
 826              		.thumb_func
 827              		.type	CyBle_ChangeAdLocalName, %function
 828              	CyBle_ChangeAdLocalName:
 829              	.LFB10:
 720:Generated_Source\PSoC4/ble.c ****   
 721:Generated_Source\PSoC4/ble.c **** #endif /* CYBLE_GAP_ROLE_PERIPHERAL || CYBLE_GAP_ROLE_BROADCASTER */
 722:Generated_Source\PSoC4/ble.c **** 
 723:Generated_Source\PSoC4/ble.c **** 
 724:Generated_Source\PSoC4/ble.c **** #if(CYBLE_GAP_ROLE_CENTRAL || CYBLE_GAP_ROLE_OBSERVER)
 725:Generated_Source\PSoC4/ble.c **** 
 726:Generated_Source\PSoC4/ble.c ****     /******************************************************************************
 727:Generated_Source\PSoC4/ble.c ****     * Function Name: CyBle_GapcStartScan
 728:Generated_Source\PSoC4/ble.c ****     ***************************************************************************//**
 729:Generated_Source\PSoC4/ble.c ****     * 
 730:Generated_Source\PSoC4/ble.c ****     *   This function is used for discovering GAP peripheral devices that are 
 731:Generated_Source\PSoC4/ble.c ****     *   available for connection. It performs the scanning routine using the 
 732:Generated_Source\PSoC4/ble.c ****     *   parameters entered in the component's customizer.
 733:Generated_Source\PSoC4/ble.c ****     *   
 734:Generated_Source\PSoC4/ble.c ****     *   As soon as the discovery operation starts, CYBLE_EVT_GAPC_SCAN_START_STOP 
 735:Generated_Source\PSoC4/ble.c ****     *   event is generated. The CYBLE_EVT_GAPC_SCAN_PROGRESS_RESULT event is 
 736:Generated_Source\PSoC4/ble.c ****     *   generated when a GAP peripheral device is located. There are three discovery
 737:Generated_Source\PSoC4/ble.c ****     *   procedures can be selected in the customizer's GUI:
 738:Generated_Source\PSoC4/ble.c ****     *   
 739:Generated_Source\PSoC4/ble.c ****     *   * Observation procedure: A device performing the observer role receives only
 740:Generated_Source\PSoC4/ble.c ****     *                            advertisement data from devices irrespective of 
 741:Generated_Source\PSoC4/ble.c ****     *                            their discoverable mode settings. Advertisement 
 742:Generated_Source\PSoC4/ble.c ****     *                            data received is provided by the event,      
 743:Generated_Source\PSoC4/ble.c ****     *                            CYBLE_EVT_GAPC_SCAN_PROGRESS_RESULT. This procedure
 744:Generated_Source\PSoC4/ble.c ****     *                            requires the scanType sub parameter to be passive
 745:Generated_Source\PSoC4/ble.c ****     *                            scanning. 
 746:Generated_Source\PSoC4/ble.c ****     *   
 747:Generated_Source\PSoC4/ble.c ****     *   * Limited Discovery procedure: A device performing the limited discovery
 748:Generated_Source\PSoC4/ble.c ****     *                                  procedure receives advertisement data and 
 749:Generated_Source\PSoC4/ble.c ****     *                                  scan# response data from devices in the 
 750:Generated_Source\PSoC4/ble.c ****     *                                  limited discoverable mode only. Received data
ARM GAS  C:\Users\Petro\AppData\Local\Temp\ccQnjlQx.s 			page 29


 751:Generated_Source\PSoC4/ble.c ****     *                                  is provided by the event, 
 752:Generated_Source\PSoC4/ble.c ****     *                                  CYBLE_EVT_GAPC_SCAN_PROGRESS_RESULT. This 
 753:Generated_Source\PSoC4/ble.c ****     *                                  procedure requires the scanType sub-parameter 
 754:Generated_Source\PSoC4/ble.c ****     *                                  to be active scanning.
 755:Generated_Source\PSoC4/ble.c ****     *   
 756:Generated_Source\PSoC4/ble.c ****     *   * General Discovery procedure: A device performing the general discovery 
 757:Generated_Source\PSoC4/ble.c ****     *                                  procedure receives the advertisement data and
 758:Generated_Source\PSoC4/ble.c ****     *                                  scan response data from devices in both 
 759:Generated_Source\PSoC4/ble.c ****     *                                  limited discoverable mode and the general 
 760:Generated_Source\PSoC4/ble.c ****     *                                  discoverable mode. Received data is provided
 761:Generated_Source\PSoC4/ble.c ****     *                                  by the event,
 762:Generated_Source\PSoC4/ble.c ****     *                                  CYBLE_EVT_GAPC_SCAN_PROGRESS_RESULT. This 
 763:Generated_Source\PSoC4/ble.c ****     *                                  procedure requires the scanType sub-parameter
 764:Generated_Source\PSoC4/ble.c ****     *                                  to be active scanning.
 765:Generated_Source\PSoC4/ble.c ****     *   
 766:Generated_Source\PSoC4/ble.c ****     *   Every Advertisement / Scan response packet received results in a new event, 
 767:Generated_Source\PSoC4/ble.c ****     *   CYBLE_EVT_GAPC_SCAN_PROGRESS_RESULT.
 768:Generated_Source\PSoC4/ble.c ****     *   If 'scanTo' sub-parameter is a non-zero value, then upon commencement of 
 769:Generated_Source\PSoC4/ble.c ****     *   discovery procedure and elapsed time = 'scanTo', CYBLE_EVT_TIMEOUT event
 770:Generated_Source\PSoC4/ble.c ****     *   is generated with the event parameter indicating CYBLE_GAP_SCAN_TO.
 771:Generated_Source\PSoC4/ble.c ****     *   Possible generated events are:
 772:Generated_Source\PSoC4/ble.c ****     *   * CYBLE_EVT_GAPC_SCAN_START_STOP: If a device started or stopped scanning. 
 773:Generated_Source\PSoC4/ble.c ****     *                                     Use CyBle_GetState() to determine the 
 774:Generated_Source\PSoC4/ble.c ****     *                                     state. Sequential scanning could be 
 775:Generated_Source\PSoC4/ble.c ****     *                                     started when CYBLE_STATE_DISCONNECTED 
 776:Generated_Source\PSoC4/ble.c ****     *                                     state is returned. 
 777:Generated_Source\PSoC4/ble.c ****     *   * CYBLE_EVT_GAPC_SCAN_PROGRESS_RESULT 
 778:Generated_Source\PSoC4/ble.c ****     *   * CYBLE_EVT_TIMEOUT (CYBLE_GAP_SCAN_TO)
 779:Generated_Source\PSoC4/ble.c ****     * 
 780:Generated_Source\PSoC4/ble.c ****     *   \param scanningIntervalType:  Fast or slow scanning interval with
 781:Generated_Source\PSoC4/ble.c ****     *       timings entered in Scan settings section of the customizer.
 782:Generated_Source\PSoC4/ble.c ****     * 	  * CYBLE_SCANNING_FAST   0x00u
 783:Generated_Source\PSoC4/ble.c ****     * 	  * CYBLE_SCANNING_SLOW   0x01u
 784:Generated_Source\PSoC4/ble.c ****     * 	  * CYBLE_SCANNING_CUSTOM 0x02u
 785:Generated_Source\PSoC4/ble.c ****     * 
 786:Generated_Source\PSoC4/ble.c ****     * \return
 787:Generated_Source\PSoC4/ble.c ****     *  CYBLE_API_RESULT_T : Return value indicates if the function succeeded or
 788:Generated_Source\PSoC4/ble.c ****     *  failed. Following are the possible error codes.
 789:Generated_Source\PSoC4/ble.c ****     *
 790:Generated_Source\PSoC4/ble.c ****     *   Errors codes                       | Description
 791:Generated_Source\PSoC4/ble.c ****     *   ---------------------------------- | -----------------------------------
 792:Generated_Source\PSoC4/ble.c ****     *   CYBLE_ERROR_OK                     | On successful operation.
 793:Generated_Source\PSoC4/ble.c ****     *   CYBLE_ERROR_STACK_INTERNAL         | An error occurred in the BLE stack.
 794:Generated_Source\PSoC4/ble.c ****     *   CYBLE_ERROR_INVALID_PARAMETER      | On passing an invalid parameter.
 795:Generated_Source\PSoC4/ble.c ****     *  
 796:Generated_Source\PSoC4/ble.c ****     *******************************************************************************/
 797:Generated_Source\PSoC4/ble.c ****     CYBLE_API_RESULT_T CyBle_GapcStartScan(uint8 scanningIntervalType)
 798:Generated_Source\PSoC4/ble.c ****     {
 799:Generated_Source\PSoC4/ble.c ****         CYBLE_API_RESULT_T apiResult;
 800:Generated_Source\PSoC4/ble.c **** 
 801:Generated_Source\PSoC4/ble.c ****         if(scanningIntervalType > CYBLE_SCANNING_CUSTOM)
 802:Generated_Source\PSoC4/ble.c ****         {
 803:Generated_Source\PSoC4/ble.c ****             apiResult = CYBLE_ERROR_INVALID_PARAMETER;
 804:Generated_Source\PSoC4/ble.c ****         }
 805:Generated_Source\PSoC4/ble.c ****         else
 806:Generated_Source\PSoC4/ble.c ****         {
 807:Generated_Source\PSoC4/ble.c ****             if(scanningIntervalType == CYBLE_SCANNING_FAST)
ARM GAS  C:\Users\Petro\AppData\Local\Temp\ccQnjlQx.s 			page 30


 808:Generated_Source\PSoC4/ble.c ****             {
 809:Generated_Source\PSoC4/ble.c ****                 cyBle_discoveryInfo.scanTo = CYBLE_FAST_SCAN_TIMEOUT;
 810:Generated_Source\PSoC4/ble.c ****                 cyBle_discoveryInfo.scanIntv = CYBLE_FAST_SCAN_INTERVAL;
 811:Generated_Source\PSoC4/ble.c ****                 cyBle_discoveryInfo.scanWindow = CYBLE_FAST_SCAN_WINDOW;
 812:Generated_Source\PSoC4/ble.c ****             }
 813:Generated_Source\PSoC4/ble.c ****             else if(scanningIntervalType == CYBLE_SCANNING_SLOW)
 814:Generated_Source\PSoC4/ble.c ****             {
 815:Generated_Source\PSoC4/ble.c ****                 cyBle_discoveryInfo.scanTo = CYBLE_SLOW_SCAN_TIMEOUT;
 816:Generated_Source\PSoC4/ble.c ****                 cyBle_discoveryInfo.scanIntv = CYBLE_SLOW_SCAN_INTERVAL;
 817:Generated_Source\PSoC4/ble.c ****                 cyBle_discoveryInfo.scanWindow = CYBLE_SLOW_SCAN_WINDOW;
 818:Generated_Source\PSoC4/ble.c ****             }       
 819:Generated_Source\PSoC4/ble.c ****             else /* Do not update scanning intervals */
 820:Generated_Source\PSoC4/ble.c ****             {
 821:Generated_Source\PSoC4/ble.c ****             }
 822:Generated_Source\PSoC4/ble.c ****             
 823:Generated_Source\PSoC4/ble.c ****             cyBle_scanningIntervalType = scanningIntervalType;
 824:Generated_Source\PSoC4/ble.c ****             apiResult = CyBle_GapcStartDiscovery(&cyBle_discoveryInfo);
 825:Generated_Source\PSoC4/ble.c ****         
 826:Generated_Source\PSoC4/ble.c ****             if(CYBLE_ERROR_OK == apiResult)
 827:Generated_Source\PSoC4/ble.c ****             {
 828:Generated_Source\PSoC4/ble.c ****                 cyBle_eventHandlerFlag |= CYBLE_START_FLAG;
 829:Generated_Source\PSoC4/ble.c ****             }
 830:Generated_Source\PSoC4/ble.c ****         }
 831:Generated_Source\PSoC4/ble.c ****        
 832:Generated_Source\PSoC4/ble.c ****         return (apiResult);
 833:Generated_Source\PSoC4/ble.c ****     }
 834:Generated_Source\PSoC4/ble.c ****     
 835:Generated_Source\PSoC4/ble.c ****     
 836:Generated_Source\PSoC4/ble.c ****     /******************************************************************************
 837:Generated_Source\PSoC4/ble.c ****     * Function Name: CyBle_GapcStopScan
 838:Generated_Source\PSoC4/ble.c ****     ***************************************************************************//**
 839:Generated_Source\PSoC4/ble.c ****     * 
 840:Generated_Source\PSoC4/ble.c ****     *   This function used to stop the discovery of devices. On stopping discovery
 841:Generated_Source\PSoC4/ble.c ****     *   operation, CYBLE_EVT_GAPC_SCAN_START_STOP event is generated. Application
 842:Generated_Source\PSoC4/ble.c ****     *   layer needs to keep track of the function call made before receiving this
 843:Generated_Source\PSoC4/ble.c ****     *   event to associate this event with either the start or stop discovery
 844:Generated_Source\PSoC4/ble.c ****     *   function.
 845:Generated_Source\PSoC4/ble.c ****     * 
 846:Generated_Source\PSoC4/ble.c ****     *   Possible events generated are:
 847:Generated_Source\PSoC4/ble.c ****     *    * CYBLE_EVT_GAPC_SCAN_START_STOP
 848:Generated_Source\PSoC4/ble.c ****     * 
 849:Generated_Source\PSoC4/ble.c ****     *  \return
 850:Generated_Source\PSoC4/ble.c ****     *   None
 851:Generated_Source\PSoC4/ble.c ****     * 
 852:Generated_Source\PSoC4/ble.c ****     *******************************************************************************/
 853:Generated_Source\PSoC4/ble.c ****     void CyBle_GapcStopScan(void)
 854:Generated_Source\PSoC4/ble.c ****     {
 855:Generated_Source\PSoC4/ble.c ****         CyBle_GapcStopDiscovery();
 856:Generated_Source\PSoC4/ble.c ****         
 857:Generated_Source\PSoC4/ble.c ****         cyBle_eventHandlerFlag |= CYBLE_STOP_FLAG;
 858:Generated_Source\PSoC4/ble.c ****     }
 859:Generated_Source\PSoC4/ble.c **** 
 860:Generated_Source\PSoC4/ble.c ****     
 861:Generated_Source\PSoC4/ble.c **** #endif /* CYBLE_GAP_ROLE_CENTRAL || CYBLE_GAP_ROLE_OBSERVER */
 862:Generated_Source\PSoC4/ble.c **** 
 863:Generated_Source\PSoC4/ble.c **** 
 864:Generated_Source\PSoC4/ble.c **** #if(CYBLE_GAP_ROLE_CENTRAL)
ARM GAS  C:\Users\Petro\AppData\Local\Temp\ccQnjlQx.s 			page 31


 865:Generated_Source\PSoC4/ble.c **** 
 866:Generated_Source\PSoC4/ble.c ****     /******************************************************************************
 867:Generated_Source\PSoC4/ble.c ****     * Function Name: CyBle_GapcConnectDevice
 868:Generated_Source\PSoC4/ble.c ****     ***************************************************************************//**
 869:Generated_Source\PSoC4/ble.c ****     * 
 870:Generated_Source\PSoC4/ble.c ****     *  This function is used to send a connection request to the remote device with
 871:Generated_Source\PSoC4/ble.c ****     *  the connection parameters set in the component customizer. This function needs
 872:Generated_Source\PSoC4/ble.c ****     *  to be called only once after the target device is discovered by 
 873:Generated_Source\PSoC4/ble.c ****     *  CyBle_GapcStartScan() and further scanning has stopped. Scanning is 
 874:Generated_Source\PSoC4/ble.c ****     *  successfully stopped on invoking CyBle_GapcStopScan() and then receiving the
 875:Generated_Source\PSoC4/ble.c ****     *  event CYBLE_EVT_GAPC_SCAN_START_STOP with sub-parameter 'success' = 0x01u.
 876:Generated_Source\PSoC4/ble.c ****     *  
 877:Generated_Source\PSoC4/ble.c ****     *  On successful connection, the following events are generated at the GAP 
 878:Generated_Source\PSoC4/ble.c ****     *  Central device (as well as the GAP Peripheral device), in the following order.
 879:Generated_Source\PSoC4/ble.c ****     *  * CYBLE_EVT_GATT_CONNECT_IND
 880:Generated_Source\PSoC4/ble.c ****     *  * CYBLE_EVT_GAP_DEVICE_CONNECTED
 881:Generated_Source\PSoC4/ble.c ****     *  
 882:Generated_Source\PSoC4/ble.c ****     *  A procedure is considered to have timed out if a connection response packet is 
 883:Generated_Source\PSoC4/ble.c ****     *  not received within time set by cyBle_connectingTimeout global variable
 884:Generated_Source\PSoC4/ble.c ****     *  (30 seconds by default). CYBLE_EVT_TIMEOUT event with CYBLE_GENERIC_TO parameter
 885:Generated_Source\PSoC4/ble.c ****     *  will indicate about connection procedure timeout. Connection will automatically
 886:Generated_Source\PSoC4/ble.c ****     *  be canceled and state will be changed to CYBLE_STATE_DISCONNECTED.
 887:Generated_Source\PSoC4/ble.c ****     * 
 888:Generated_Source\PSoC4/ble.c ****     *  \param address: The device address of the remote device to connect to. 
 889:Generated_Source\PSoC4/ble.c ****     *  \param timeout: Timeout for which timer to be started in seconds.
 890:Generated_Source\PSoC4/ble.c ****     *  
 891:Generated_Source\PSoC4/ble.c ****     * \return
 892:Generated_Source\PSoC4/ble.c ****     *  CYBLE_API_RESULT_T : Return value indicates if the function succeeded or 
 893:Generated_Source\PSoC4/ble.c ****     *  failed. Following are the possible error codes.
 894:Generated_Source\PSoC4/ble.c ****     *
 895:Generated_Source\PSoC4/ble.c ****     *   Errors codes                       | Description
 896:Generated_Source\PSoC4/ble.c ****     *   ------------                       | -----------
 897:Generated_Source\PSoC4/ble.c ****     *   CYBLE_ERROR_OK                     | On successful operation.
 898:Generated_Source\PSoC4/ble.c ****     *   CYBLE_ERROR_STACK_INTERNAL         | On error occurred in the BLE stack.
 899:Generated_Source\PSoC4/ble.c ****     *   CYBLE_ERROR_INVALID_PARAMETER      | On passing an invalid parameter.
 900:Generated_Source\PSoC4/ble.c ****     *   CYBLE_ERROR_INVALID_STATE          | On calling this API not in Disconnected state.
 901:Generated_Source\PSoC4/ble.c ****     *  
 902:Generated_Source\PSoC4/ble.c ****     ******************************************************************************/
 903:Generated_Source\PSoC4/ble.c ****     CYBLE_API_RESULT_T CyBle_GapcConnectDevice(const CYBLE_GAP_BD_ADDR_T * address)
 904:Generated_Source\PSoC4/ble.c ****     {
 905:Generated_Source\PSoC4/ble.c ****         CYBLE_API_RESULT_T apiResult;
 906:Generated_Source\PSoC4/ble.c ****         uint8 i;
 907:Generated_Source\PSoC4/ble.c **** 
 908:Generated_Source\PSoC4/ble.c ****         if(CYBLE_STATE_DISCONNECTED != CyBle_GetState())
 909:Generated_Source\PSoC4/ble.c ****         {
 910:Generated_Source\PSoC4/ble.c ****             apiResult = CYBLE_ERROR_INVALID_STATE;
 911:Generated_Source\PSoC4/ble.c ****         }
 912:Generated_Source\PSoC4/ble.c ****         else if(address == NULL)
 913:Generated_Source\PSoC4/ble.c ****         {
 914:Generated_Source\PSoC4/ble.c ****             apiResult = CYBLE_ERROR_INVALID_PARAMETER;
 915:Generated_Source\PSoC4/ble.c ****         }
 916:Generated_Source\PSoC4/ble.c ****         else
 917:Generated_Source\PSoC4/ble.c ****         {
 918:Generated_Source\PSoC4/ble.c ****             for(i = 0u; i < CYBLE_GAP_BD_ADDR_SIZE; i++)
 919:Generated_Source\PSoC4/ble.c ****             {
 920:Generated_Source\PSoC4/ble.c ****                 cyBle_connectionParameters.peerBdAddr[i] = address->bdAddr[i];
 921:Generated_Source\PSoC4/ble.c ****             }
ARM GAS  C:\Users\Petro\AppData\Local\Temp\ccQnjlQx.s 			page 32


 922:Generated_Source\PSoC4/ble.c ****             cyBle_connectionParameters.peerAddrType = address -> type;
 923:Generated_Source\PSoC4/ble.c ****             apiResult = CyBle_GapcInitConnection(&cyBle_connectionParameters);
 924:Generated_Source\PSoC4/ble.c ****             
 925:Generated_Source\PSoC4/ble.c ****             if(CYBLE_ERROR_OK == apiResult)
 926:Generated_Source\PSoC4/ble.c ****             {
 927:Generated_Source\PSoC4/ble.c ****                 CyBle_SetState(CYBLE_STATE_CONNECTING);
 928:Generated_Source\PSoC4/ble.c ****                 if(cyBle_connectingTimeout != 0u)
 929:Generated_Source\PSoC4/ble.c ****                 {
 930:Generated_Source\PSoC4/ble.c ****                     (void)CyBle_StartTimer(cyBle_connectingTimeout);
 931:Generated_Source\PSoC4/ble.c ****                 }
 932:Generated_Source\PSoC4/ble.c ****             }
 933:Generated_Source\PSoC4/ble.c ****         }
 934:Generated_Source\PSoC4/ble.c ****         return (apiResult);
 935:Generated_Source\PSoC4/ble.c ****     }
 936:Generated_Source\PSoC4/ble.c ****     
 937:Generated_Source\PSoC4/ble.c **** 
 938:Generated_Source\PSoC4/ble.c ****     /******************************************************************************
 939:Generated_Source\PSoC4/ble.c ****     * Function Name: CyBle_GapcCancelDeviceConnection
 940:Generated_Source\PSoC4/ble.c ****     ***************************************************************************//**
 941:Generated_Source\PSoC4/ble.c ****     * 
 942:Generated_Source\PSoC4/ble.c ****     *  This function cancels a previously initiated connection with the remote 
 943:Generated_Source\PSoC4/ble.c ****     *  device. It is a blocking function. No event is generated on calling this 
 944:Generated_Source\PSoC4/ble.c ****     *  function. If the devices are already connected then this function should not
 945:Generated_Source\PSoC4/ble.c ****     *  be used. If you intend to disconnect from an existing connection, the function
 946:Generated_Source\PSoC4/ble.c ****     *  CyBle_GapDisconnect() should be used.
 947:Generated_Source\PSoC4/ble.c ****     * 
 948:Generated_Source\PSoC4/ble.c ****     * \return
 949:Generated_Source\PSoC4/ble.c ****     *  CYBLE_API_RESULT_T : Return value indicates if the function succeeded or 
 950:Generated_Source\PSoC4/ble.c ****     *  failed. Following are the possible error codes.
 951:Generated_Source\PSoC4/ble.c ****     *
 952:Generated_Source\PSoC4/ble.c ****     *   Errors codes                       | Description
 953:Generated_Source\PSoC4/ble.c ****     *   ---------------------------------- | --------------------------------------
 954:Generated_Source\PSoC4/ble.c ****     *   CYBLE_ERROR_OK                     | On successful operation.
 955:Generated_Source\PSoC4/ble.c ****     *   CYBLE_ERROR_STACK_INTERNAL         | An error occurred in the BLE stack.
 956:Generated_Source\PSoC4/ble.c ****     *   CYBLE_ERROR_INVALID_OPERATION      | Device is already connected.
 957:Generated_Source\PSoC4/ble.c ****     *  
 958:Generated_Source\PSoC4/ble.c ****     *******************************************************************************/
 959:Generated_Source\PSoC4/ble.c ****     CYBLE_API_RESULT_T CyBle_GapcCancelDeviceConnection(void)
 960:Generated_Source\PSoC4/ble.c ****     {
 961:Generated_Source\PSoC4/ble.c ****         CYBLE_API_RESULT_T apiResult;
 962:Generated_Source\PSoC4/ble.c ****         
 963:Generated_Source\PSoC4/ble.c ****         apiResult = CyBle_GapcCancelConnection();
 964:Generated_Source\PSoC4/ble.c ****             
 965:Generated_Source\PSoC4/ble.c ****         if(cyBle_connectingTimeout != 0u)
 966:Generated_Source\PSoC4/ble.c ****         {
 967:Generated_Source\PSoC4/ble.c ****             (void)CyBle_StopTimer();
 968:Generated_Source\PSoC4/ble.c ****         }
 969:Generated_Source\PSoC4/ble.c **** 
 970:Generated_Source\PSoC4/ble.c ****         if(CYBLE_ERROR_OK == apiResult)
 971:Generated_Source\PSoC4/ble.c ****         {
 972:Generated_Source\PSoC4/ble.c ****             CyBle_SetState(CYBLE_STATE_DISCONNECTED);
 973:Generated_Source\PSoC4/ble.c ****         }
 974:Generated_Source\PSoC4/ble.c ****         return (apiResult);
 975:Generated_Source\PSoC4/ble.c ****     }    
 976:Generated_Source\PSoC4/ble.c **** 
 977:Generated_Source\PSoC4/ble.c ****     
 978:Generated_Source\PSoC4/ble.c **** #endif /* CYBLE_GAP_ROLE_CENTRAL */
ARM GAS  C:\Users\Petro\AppData\Local\Temp\ccQnjlQx.s 			page 33


 979:Generated_Source\PSoC4/ble.c **** 
 980:Generated_Source\PSoC4/ble.c **** 
 981:Generated_Source\PSoC4/ble.c **** #if(CYBLE_GATT_ROLE_SERVER)
 982:Generated_Source\PSoC4/ble.c **** 
 983:Generated_Source\PSoC4/ble.c **** #if(CYBLE_GAP_ROLE_PERIPHERAL)
 984:Generated_Source\PSoC4/ble.c **** 
 985:Generated_Source\PSoC4/ble.c ****         /******************************************************************************
 986:Generated_Source\PSoC4/ble.c ****         * Function Name: CyBle_ChangeAdLocalName
 987:Generated_Source\PSoC4/ble.c ****         ***************************************************************************//**
 988:Generated_Source\PSoC4/ble.c ****         *  This API is used to set the local device name in the advertisement or scan 
 989:Generated_Source\PSoC4/ble.c ****         *  response data structure.
 990:Generated_Source\PSoC4/ble.c ****         * 
 991:Generated_Source\PSoC4/ble.c ****         *  \param name: The local device name string to be set in advertisement data 
 992:Generated_Source\PSoC4/ble.c ****         *            structure.
 993:Generated_Source\PSoC4/ble.c ****         *  \param dest: 0 - advertisement structure, not zero value selects scan response
 994:Generated_Source\PSoC4/ble.c ****         *              structure.
 995:Generated_Source\PSoC4/ble.c ****         * 
 996:Generated_Source\PSoC4/ble.c ****         * \return
 997:Generated_Source\PSoC4/ble.c ****         *  None
 998:Generated_Source\PSoC4/ble.c ****         *  
 999:Generated_Source\PSoC4/ble.c ****         *******************************************************************************/
1000:Generated_Source\PSoC4/ble.c ****         static void CyBle_ChangeAdLocalName(const char8 name[], uint8 dest)
1001:Generated_Source\PSoC4/ble.c ****         {
 830              		.loc 1 1001 0
 831              		.cfi_startproc
 832 0000 80B5     		push	{r7, lr}
 833              		.cfi_def_cfa_offset 8
 834              		.cfi_offset 7, -8
 835              		.cfi_offset 14, -4
 836 0002 86B0     		sub	sp, sp, #24
 837              		.cfi_def_cfa_offset 32
 838 0004 00AF     		add	r7, sp, #0
 839              		.cfi_def_cfa_register 7
 840 0006 7860     		str	r0, [r7, #4]
 841 0008 0A1C     		mov	r2, r1
 842 000a FB1C     		add	r3, r7, #3
 843 000c 1A70     		strb	r2, [r3]
1002:Generated_Source\PSoC4/ble.c ****             uint8 i;
1003:Generated_Source\PSoC4/ble.c ****             uint8 flag = 0u;
 844              		.loc 1 1003 0
 845 000e 1623     		mov	r3, #22
 846 0010 FB18     		add	r3, r7, r3
 847 0012 0022     		mov	r2, #0
 848 0014 1A70     		strb	r2, [r3]
1004:Generated_Source\PSoC4/ble.c ****             uint8 adLength = 0u;
 849              		.loc 1 1004 0
 850 0016 1523     		mov	r3, #21
 851 0018 FB18     		add	r3, r7, r3
 852 001a 0022     		mov	r2, #0
 853 001c 1A70     		strb	r2, [r3]
1005:Generated_Source\PSoC4/ble.c ****             uint8 byteCounter = 0u;
 854              		.loc 1 1005 0
 855 001e 1423     		mov	r3, #20
 856 0020 FB18     		add	r3, r7, r3
 857 0022 0022     		mov	r2, #0
 858 0024 1A70     		strb	r2, [r3]
1006:Generated_Source\PSoC4/ble.c ****             uint8 *destBuffer;
ARM GAS  C:\Users\Petro\AppData\Local\Temp\ccQnjlQx.s 			page 34


1007:Generated_Source\PSoC4/ble.c ****             uint8 maxLength;
1008:Generated_Source\PSoC4/ble.c ****             
1009:Generated_Source\PSoC4/ble.c ****             if(dest == 0u)      /* Destination - advertising structure */
 859              		.loc 1 1009 0
 860 0026 FB1C     		add	r3, r7, #3
 861 0028 1B78     		ldrb	r3, [r3]
 862 002a 002B     		cmp	r3, #0
 863 002c 07D1     		bne	.L41
1010:Generated_Source\PSoC4/ble.c ****             {
1011:Generated_Source\PSoC4/ble.c ****                 destBuffer = cyBle_discoveryData.advData;
 864              		.loc 1 1011 0
 865 002e 5B4B     		ldr	r3, .L56
 866 0030 3B61     		str	r3, [r7, #16]
1012:Generated_Source\PSoC4/ble.c ****                 maxLength = cyBle_discoveryData.advDataLen;
 867              		.loc 1 1012 0
 868 0032 0F23     		mov	r3, #15
 869 0034 FB18     		add	r3, r7, r3
 870 0036 594A     		ldr	r2, .L56
 871 0038 D27F     		ldrb	r2, [r2, #31]
 872 003a 1A70     		strb	r2, [r3]
 873 003c 06E0     		b	.L42
 874              	.L41:
1013:Generated_Source\PSoC4/ble.c ****             }
1014:Generated_Source\PSoC4/ble.c ****             else                /* Destination - scan response structure */
1015:Generated_Source\PSoC4/ble.c ****             {
1016:Generated_Source\PSoC4/ble.c ****                 destBuffer = cyBle_scanRspData.scanRspData;
 875              		.loc 1 1016 0
 876 003e 584B     		ldr	r3, .L56+4
 877 0040 3B61     		str	r3, [r7, #16]
1017:Generated_Source\PSoC4/ble.c ****                 maxLength = cyBle_scanRspData.scanRspDataLen;
 878              		.loc 1 1017 0
 879 0042 0F23     		mov	r3, #15
 880 0044 FB18     		add	r3, r7, r3
 881 0046 564A     		ldr	r2, .L56+4
 882 0048 D27F     		ldrb	r2, [r2, #31]
 883 004a 1A70     		strb	r2, [r3]
 884              	.L42:
1018:Generated_Source\PSoC4/ble.c ****             }
1019:Generated_Source\PSoC4/ble.c ****             
1020:Generated_Source\PSoC4/ble.c ****             while((byteCounter < maxLength) && (0u == flag))
 885              		.loc 1 1020 0
 886 004c 35E0     		b	.L43
 887              	.L49:
1021:Generated_Source\PSoC4/ble.c ****             {
1022:Generated_Source\PSoC4/ble.c ****                 adLength = destBuffer[byteCounter];
 888              		.loc 1 1022 0
 889 004e 1423     		mov	r3, #20
 890 0050 FB18     		add	r3, r7, r3
 891 0052 1B78     		ldrb	r3, [r3]
 892 0054 3A69     		ldr	r2, [r7, #16]
 893 0056 D218     		add	r2, r2, r3
 894 0058 1523     		mov	r3, #21
 895 005a FB18     		add	r3, r7, r3
 896 005c 1278     		ldrb	r2, [r2]
 897 005e 1A70     		strb	r2, [r3]
1023:Generated_Source\PSoC4/ble.c ****                 
1024:Generated_Source\PSoC4/ble.c ****                 if(0u != adLength)
ARM GAS  C:\Users\Petro\AppData\Local\Temp\ccQnjlQx.s 			page 35


 898              		.loc 1 1024 0
 899 0060 1523     		mov	r3, #21
 900 0062 FB18     		add	r3, r7, r3
 901 0064 1B78     		ldrb	r3, [r3]
 902 0066 002B     		cmp	r3, #0
 903 0068 26D0     		beq	.L44
1025:Generated_Source\PSoC4/ble.c ****                 {
1026:Generated_Source\PSoC4/ble.c ****                     /* Increment byte counter so it can point to AD type */
1027:Generated_Source\PSoC4/ble.c ****                     byteCounter++;
 904              		.loc 1 1027 0
 905 006a 1423     		mov	r3, #20
 906 006c FB18     		add	r3, r7, r3
 907 006e 1A78     		ldrb	r2, [r3]
 908 0070 1423     		mov	r3, #20
 909 0072 FB18     		add	r3, r7, r3
 910 0074 0132     		add	r2, r2, #1
 911 0076 1A70     		strb	r2, [r3]
1028:Generated_Source\PSoC4/ble.c ****                     
1029:Generated_Source\PSoC4/ble.c ****                     if((CYBLE_SHORT_LOCAL_NAME == destBuffer[byteCounter]) || 
 912              		.loc 1 1029 0
 913 0078 1423     		mov	r3, #20
 914 007a FB18     		add	r3, r7, r3
 915 007c 1B78     		ldrb	r3, [r3]
 916 007e 3A69     		ldr	r2, [r7, #16]
 917 0080 D318     		add	r3, r2, r3
 918 0082 1B78     		ldrb	r3, [r3]
 919 0084 082B     		cmp	r3, #8
 920 0086 07D0     		beq	.L45
1030:Generated_Source\PSoC4/ble.c ****                        (CYBLE_COMPLETE_LOCAL_NAME == destBuffer[byteCounter]))
 921              		.loc 1 1030 0 discriminator 1
 922 0088 1423     		mov	r3, #20
 923 008a FB18     		add	r3, r7, r3
 924 008c 1B78     		ldrb	r3, [r3]
 925 008e 3A69     		ldr	r2, [r7, #16]
 926 0090 D318     		add	r3, r2, r3
 927 0092 1B78     		ldrb	r3, [r3]
1029:Generated_Source\PSoC4/ble.c ****                        (CYBLE_COMPLETE_LOCAL_NAME == destBuffer[byteCounter]))
 928              		.loc 1 1029 0 discriminator 1
 929 0094 092B     		cmp	r3, #9
 930 0096 04D1     		bne	.L46
 931              	.L45:
1031:Generated_Source\PSoC4/ble.c ****                     {
1032:Generated_Source\PSoC4/ble.c ****                         /* Start of the Local Name AD type was fount. Set flag and exit the loop. *
1033:Generated_Source\PSoC4/ble.c ****                         flag = 1u;
 932              		.loc 1 1033 0
 933 0098 1623     		mov	r3, #22
 934 009a FB18     		add	r3, r7, r3
 935 009c 0122     		mov	r2, #1
 936 009e 1A70     		strb	r2, [r3]
 937 00a0 09E0     		b	.L47
 938              	.L46:
1034:Generated_Source\PSoC4/ble.c ****                     }
1035:Generated_Source\PSoC4/ble.c ****                     else
1036:Generated_Source\PSoC4/ble.c ****                     {
1037:Generated_Source\PSoC4/ble.c ****                         byteCounter += adLength;
 939              		.loc 1 1037 0
 940 00a2 1423     		mov	r3, #20
ARM GAS  C:\Users\Petro\AppData\Local\Temp\ccQnjlQx.s 			page 36


 941 00a4 FB18     		add	r3, r7, r3
 942 00a6 1422     		mov	r2, #20
 943 00a8 B918     		add	r1, r7, r2
 944 00aa 1522     		mov	r2, #21
 945 00ac BA18     		add	r2, r7, r2
 946 00ae 0978     		ldrb	r1, [r1]
 947 00b0 1278     		ldrb	r2, [r2]
 948 00b2 8A18     		add	r2, r1, r2
 949 00b4 1A70     		strb	r2, [r3]
 950              	.L47:
 951 00b6 00E0     		b	.L43
 952              	.L44:
1038:Generated_Source\PSoC4/ble.c ****                     }
1039:Generated_Source\PSoC4/ble.c ****                 }
1040:Generated_Source\PSoC4/ble.c ****                 else
1041:Generated_Source\PSoC4/ble.c ****                 {
1042:Generated_Source\PSoC4/ble.c ****                     /* The end of advertisement data structure was encountered though exit the loop
1043:Generated_Source\PSoC4/ble.c ****                     break;
 953              		.loc 1 1043 0
 954 00b8 0CE0     		b	.L48
 955              	.L43:
1020:Generated_Source\PSoC4/ble.c ****             {
 956              		.loc 1 1020 0
 957 00ba 1423     		mov	r3, #20
 958 00bc FA18     		add	r2, r7, r3
 959 00be 0F23     		mov	r3, #15
 960 00c0 FB18     		add	r3, r7, r3
 961 00c2 1278     		ldrb	r2, [r2]
 962 00c4 1B78     		ldrb	r3, [r3]
 963 00c6 9A42     		cmp	r2, r3
 964 00c8 04D2     		bcs	.L48
1020:Generated_Source\PSoC4/ble.c ****             {
 965              		.loc 1 1020 0 is_stmt 0 discriminator 1
 966 00ca 1623     		mov	r3, #22
 967 00cc FB18     		add	r3, r7, r3
 968 00ce 1B78     		ldrb	r3, [r3]
 969 00d0 002B     		cmp	r3, #0
 970 00d2 BCD0     		beq	.L49
 971              	.L48:
1044:Generated_Source\PSoC4/ble.c ****                 }
1045:Generated_Source\PSoC4/ble.c ****             }
1046:Generated_Source\PSoC4/ble.c ****             
1047:Generated_Source\PSoC4/ble.c ****             if(0u != flag)
 972              		.loc 1 1047 0 is_stmt 1
 973 00d4 1623     		mov	r3, #22
 974 00d6 FB18     		add	r3, r7, r3
 975 00d8 1B78     		ldrb	r3, [r3]
 976 00da 002B     		cmp	r3, #0
 977 00dc 5BD0     		beq	.L40
1048:Generated_Source\PSoC4/ble.c ****             {
1049:Generated_Source\PSoC4/ble.c ****                 /* Reuse "adLength" to hold location of the last character of local name in 
1050:Generated_Source\PSoC4/ble.c ****                    AD structure. */
1051:Generated_Source\PSoC4/ble.c ****                 adLength += byteCounter;
 978              		.loc 1 1051 0
 979 00de 1523     		mov	r3, #21
 980 00e0 FB18     		add	r3, r7, r3
 981 00e2 1522     		mov	r2, #21
ARM GAS  C:\Users\Petro\AppData\Local\Temp\ccQnjlQx.s 			page 37


 982 00e4 B918     		add	r1, r7, r2
 983 00e6 1422     		mov	r2, #20
 984 00e8 BA18     		add	r2, r7, r2
 985 00ea 0978     		ldrb	r1, [r1]
 986 00ec 1278     		ldrb	r2, [r2]
 987 00ee 8A18     		add	r2, r1, r2
 988 00f0 1A70     		strb	r2, [r3]
1052:Generated_Source\PSoC4/ble.c ****                 
1053:Generated_Source\PSoC4/ble.c ****                 /* Increment byte counter to point to start of the local Name string */
1054:Generated_Source\PSoC4/ble.c ****                 byteCounter++;
 989              		.loc 1 1054 0
 990 00f2 1423     		mov	r3, #20
 991 00f4 FB18     		add	r3, r7, r3
 992 00f6 1A78     		ldrb	r2, [r3]
 993 00f8 1423     		mov	r3, #20
 994 00fa FB18     		add	r3, r7, r3
 995 00fc 0132     		add	r2, r2, #1
 996 00fe 1A70     		strb	r2, [r3]
1055:Generated_Source\PSoC4/ble.c ****                 
1056:Generated_Source\PSoC4/ble.c ****                 for(i = byteCounter; ((i < (adLength)) && (CYBLE_NULL_CHARCTER != name[i - byteCoun
 997              		.loc 1 1056 0
 998 0100 1723     		mov	r3, #23
 999 0102 FB18     		add	r3, r7, r3
 1000 0104 1422     		mov	r2, #20
 1001 0106 BA18     		add	r2, r7, r2
 1002 0108 1278     		ldrb	r2, [r2]
 1003 010a 1A70     		strb	r2, [r3]
 1004 010c 17E0     		b	.L51
 1005              	.L53:
1057:Generated_Source\PSoC4/ble.c ****                 {
1058:Generated_Source\PSoC4/ble.c ****                     destBuffer[i] = (uint8)name[i - byteCounter];
 1006              		.loc 1 1058 0 discriminator 4
 1007 010e 1723     		mov	r3, #23
 1008 0110 FB18     		add	r3, r7, r3
 1009 0112 1B78     		ldrb	r3, [r3]
 1010 0114 3A69     		ldr	r2, [r7, #16]
 1011 0116 D318     		add	r3, r2, r3
 1012 0118 1722     		mov	r2, #23
 1013 011a BA18     		add	r2, r7, r2
 1014 011c 1178     		ldrb	r1, [r2]
 1015 011e 1422     		mov	r2, #20
 1016 0120 BA18     		add	r2, r7, r2
 1017 0122 1278     		ldrb	r2, [r2]
 1018 0124 8A1A     		sub	r2, r1, r2
 1019 0126 111C     		mov	r1, r2
 1020 0128 7A68     		ldr	r2, [r7, #4]
 1021 012a 5218     		add	r2, r2, r1
 1022 012c 1278     		ldrb	r2, [r2]
 1023 012e 1A70     		strb	r2, [r3]
1056:Generated_Source\PSoC4/ble.c ****                 {
 1024              		.loc 1 1056 0 discriminator 4
 1025 0130 1723     		mov	r3, #23
 1026 0132 FB18     		add	r3, r7, r3
 1027 0134 1A78     		ldrb	r2, [r3]
 1028 0136 1723     		mov	r3, #23
 1029 0138 FB18     		add	r3, r7, r3
 1030 013a 0132     		add	r2, r2, #1
ARM GAS  C:\Users\Petro\AppData\Local\Temp\ccQnjlQx.s 			page 38


 1031 013c 1A70     		strb	r2, [r3]
 1032              	.L51:
1056:Generated_Source\PSoC4/ble.c ****                 {
 1033              		.loc 1 1056 0 is_stmt 0 discriminator 1
 1034 013e 1723     		mov	r3, #23
 1035 0140 FA18     		add	r2, r7, r3
 1036 0142 1523     		mov	r3, #21
 1037 0144 FB18     		add	r3, r7, r3
 1038 0146 1278     		ldrb	r2, [r2]
 1039 0148 1B78     		ldrb	r3, [r3]
 1040 014a 9A42     		cmp	r2, r3
 1041 014c 0CD2     		bcs	.L52
1056:Generated_Source\PSoC4/ble.c ****                 {
 1042              		.loc 1 1056 0 discriminator 3
 1043 014e 1723     		mov	r3, #23
 1044 0150 FB18     		add	r3, r7, r3
 1045 0152 1A78     		ldrb	r2, [r3]
 1046 0154 1423     		mov	r3, #20
 1047 0156 FB18     		add	r3, r7, r3
 1048 0158 1B78     		ldrb	r3, [r3]
 1049 015a D31A     		sub	r3, r2, r3
 1050 015c 1A1C     		mov	r2, r3
 1051 015e 7B68     		ldr	r3, [r7, #4]
 1052 0160 9B18     		add	r3, r3, r2
 1053 0162 1B78     		ldrb	r3, [r3]
 1054 0164 002B     		cmp	r3, #0
 1055 0166 D2D1     		bne	.L53
 1056              	.L52:
1059:Generated_Source\PSoC4/ble.c ****                 }
1060:Generated_Source\PSoC4/ble.c ****                 
1061:Generated_Source\PSoC4/ble.c ****                 /* This loop handles the case when new local name is shorted than old one.
1062:Generated_Source\PSoC4/ble.c ****                    In this case all remaining characters should be null characters. */
1063:Generated_Source\PSoC4/ble.c ****                 while(adLength > i)
 1057              		.loc 1 1063 0 is_stmt 1
 1058 0168 0DE0     		b	.L54
 1059              	.L55:
1064:Generated_Source\PSoC4/ble.c ****                 {
1065:Generated_Source\PSoC4/ble.c ****                     /* Terminate string */
1066:Generated_Source\PSoC4/ble.c ****                     destBuffer[i] = (uint8)CYBLE_NULL_CHARCTER;
 1060              		.loc 1 1066 0
 1061 016a 1723     		mov	r3, #23
 1062 016c FB18     		add	r3, r7, r3
 1063 016e 1B78     		ldrb	r3, [r3]
 1064 0170 3A69     		ldr	r2, [r7, #16]
 1065 0172 D318     		add	r3, r2, r3
 1066 0174 0022     		mov	r2, #0
 1067 0176 1A70     		strb	r2, [r3]
1067:Generated_Source\PSoC4/ble.c ****                     i++;
 1068              		.loc 1 1067 0
 1069 0178 1723     		mov	r3, #23
 1070 017a FB18     		add	r3, r7, r3
 1071 017c 1A78     		ldrb	r2, [r3]
 1072 017e 1723     		mov	r3, #23
 1073 0180 FB18     		add	r3, r7, r3
 1074 0182 0132     		add	r2, r2, #1
 1075 0184 1A70     		strb	r2, [r3]
 1076              	.L54:
ARM GAS  C:\Users\Petro\AppData\Local\Temp\ccQnjlQx.s 			page 39


1063:Generated_Source\PSoC4/ble.c ****                 {
 1077              		.loc 1 1063 0
 1078 0186 1523     		mov	r3, #21
 1079 0188 FA18     		add	r2, r7, r3
 1080 018a 1723     		mov	r3, #23
 1081 018c FB18     		add	r3, r7, r3
 1082 018e 1278     		ldrb	r2, [r2]
 1083 0190 1B78     		ldrb	r3, [r3]
 1084 0192 9A42     		cmp	r2, r3
 1085 0194 E9D8     		bhi	.L55
 1086              	.L40:
1068:Generated_Source\PSoC4/ble.c ****                 }
1069:Generated_Source\PSoC4/ble.c ****             }
1070:Generated_Source\PSoC4/ble.c ****         }
 1087              		.loc 1 1070 0
 1088 0196 BD46     		mov	sp, r7
 1089 0198 06B0     		add	sp, sp, #24
 1090              		@ sp needed
 1091 019a 80BD     		pop	{r7, pc}
 1092              	.L57:
 1093              		.align	2
 1094              	.L56:
 1095 019c 00000000 		.word	cyBle_discoveryData
 1096 01a0 00000000 		.word	cyBle_scanRspData
 1097              		.cfi_endproc
 1098              	.LFE10:
 1099              		.size	CyBle_ChangeAdLocalName, .-CyBle_ChangeAdLocalName
 1100              		.section	.text.CyBle_GapSetLocalName,"ax",%progbits
 1101              		.align	2
 1102              		.global	CyBle_GapSetLocalName
 1103              		.code	16
 1104              		.thumb_func
 1105              		.type	CyBle_GapSetLocalName, %function
 1106              	CyBle_GapSetLocalName:
 1107              	.LFB11:
1071:Generated_Source\PSoC4/ble.c ****         
1072:Generated_Source\PSoC4/ble.c **** #endif /* (CYBLE_GAP_ROLE_PERIPHERAL) */  
1073:Generated_Source\PSoC4/ble.c ****     
1074:Generated_Source\PSoC4/ble.c ****     
1075:Generated_Source\PSoC4/ble.c ****     /******************************************************************************
1076:Generated_Source\PSoC4/ble.c ****     * Function Name: CyBle_GapSetLocalName
1077:Generated_Source\PSoC4/ble.c ****     ***************************************************************************//**
1078:Generated_Source\PSoC4/ble.c ****     *  This API is used to set the local device name - a Characteristic of the 
1079:Generated_Source\PSoC4/ble.c ****     *  GAP Service. If the characteristic length entered in the component customizer
1080:Generated_Source\PSoC4/ble.c ****     *  is shorter than the string specified by the "name" parameter, the local device
1081:Generated_Source\PSoC4/ble.c ****     *  name will be cut to the length specified in the customizer.
1082:Generated_Source\PSoC4/ble.c ****     * 
1083:Generated_Source\PSoC4/ble.c ****     *  \param name: The local device name string. The name string to be written as
1084:Generated_Source\PSoC4/ble.c ****     *              the local device name. It represents a UTF-8 encoded User
1085:Generated_Source\PSoC4/ble.c ****     *              Friendly Descriptive Name for the device. The length of the local
1086:Generated_Source\PSoC4/ble.c ****     *              device string is entered into the component customizer and it can
1087:Generated_Source\PSoC4/ble.c ****     *              be set to a value from 0 to 248 bytes. If the name contained in
1088:Generated_Source\PSoC4/ble.c ****     *              the parameter is shorter than the length from the customizer, the
1089:Generated_Source\PSoC4/ble.c ****     *              end of the name is indicated by a NULL octet (0x00).
1090:Generated_Source\PSoC4/ble.c ****     * 
1091:Generated_Source\PSoC4/ble.c ****     * \return
1092:Generated_Source\PSoC4/ble.c ****     *  CYBLE_API_RESULT_T : Return value indicates if the function succeeded or 
ARM GAS  C:\Users\Petro\AppData\Local\Temp\ccQnjlQx.s 			page 40


1093:Generated_Source\PSoC4/ble.c ****     *  failed. Following are the possible error codes.
1094:Generated_Source\PSoC4/ble.c ****     *
1095:Generated_Source\PSoC4/ble.c ****     *   Errors codes                       | Description
1096:Generated_Source\PSoC4/ble.c ****     *   ------------                       | -----------
1097:Generated_Source\PSoC4/ble.c ****     *   CYBLE_ERROR_OK                     | Function completed successfully.
1098:Generated_Source\PSoC4/ble.c ****     *   CYBLE_ERROR_INVALID_PARAMETER      | On specifying NULL as input parameter
1099:Generated_Source\PSoC4/ble.c ****     *  
1100:Generated_Source\PSoC4/ble.c ****     *******************************************************************************/
1101:Generated_Source\PSoC4/ble.c ****     CYBLE_API_RESULT_T CyBle_GapSetLocalName(const char8 name[])
1102:Generated_Source\PSoC4/ble.c ****     {
 1108              		.loc 1 1102 0
 1109              		.cfi_startproc
 1110 0000 80B5     		push	{r7, lr}
 1111              		.cfi_def_cfa_offset 8
 1112              		.cfi_offset 7, -8
 1113              		.cfi_offset 14, -4
 1114 0002 86B0     		sub	sp, sp, #24
 1115              		.cfi_def_cfa_offset 32
 1116 0004 00AF     		add	r7, sp, #0
 1117              		.cfi_def_cfa_register 7
 1118 0006 7860     		str	r0, [r7, #4]
1103:Generated_Source\PSoC4/ble.c ****         CYBLE_API_RESULT_T apiResult = CYBLE_ERROR_OK;
 1119              		.loc 1 1103 0
 1120 0008 1623     		mov	r3, #22
 1121 000a FB18     		add	r3, r7, r3
 1122 000c 0022     		mov	r2, #0
 1123 000e 1A80     		strh	r2, [r3]
1104:Generated_Source\PSoC4/ble.c ****         uint8 i;
1105:Generated_Source\PSoC4/ble.c ****         char8 *ptr;
1106:Generated_Source\PSoC4/ble.c ****         uint8 charLen;
1107:Generated_Source\PSoC4/ble.c **** 
1108:Generated_Source\PSoC4/ble.c ****         if(NULL != name)
 1124              		.loc 1 1108 0
 1125 0010 7B68     		ldr	r3, [r7, #4]
 1126 0012 002B     		cmp	r3, #0
 1127 0014 4AD0     		beq	.L59
1109:Generated_Source\PSoC4/ble.c ****         {
1110:Generated_Source\PSoC4/ble.c ****             /* Get the pointer to the Device Name characteristic  */
1111:Generated_Source\PSoC4/ble.c ****             ptr = (char8 *) CYBLE_GATT_DB_ATTR_GET_ATTR_GEN_PTR(CYBLE_GAP_DEVICE_NAME_INDEX + 1u);
 1128              		.loc 1 1111 0
 1129 0016 2B4B     		ldr	r3, .L66
 1130 0018 9B6B     		ldr	r3, [r3, #56]
 1131 001a 5B68     		ldr	r3, [r3, #4]
 1132 001c 3B61     		str	r3, [r7, #16]
1112:Generated_Source\PSoC4/ble.c **** 
1113:Generated_Source\PSoC4/ble.c ****             /* First need to get the maximum length of the characteristic data in the GATT
1114:Generated_Source\PSoC4/ble.c ****                 database to make sure there is enough place for the data. The length
1115:Generated_Source\PSoC4/ble.c ****                 can't be longer than 248, so only the LSB of 16 bit of length is to
1116:Generated_Source\PSoC4/ble.c ****                 be used. */
1117:Generated_Source\PSoC4/ble.c ****             charLen = (uint8)CYBLE_GATT_DB_ATTR_GET_ATTR_GEN_MAX_LEN(CYBLE_GAP_DEVICE_NAME_INDEX + 
 1133              		.loc 1 1117 0
 1134 001e 294B     		ldr	r3, .L66
 1135 0020 9A8E     		ldrh	r2, [r3, #52]
 1136 0022 0F23     		mov	r3, #15
 1137 0024 FB18     		add	r3, r7, r3
 1138 0026 1A70     		strb	r2, [r3]
1118:Generated_Source\PSoC4/ble.c **** 
ARM GAS  C:\Users\Petro\AppData\Local\Temp\ccQnjlQx.s 			page 41


1119:Generated_Source\PSoC4/ble.c ****             /* Copy name into characteristic */
1120:Generated_Source\PSoC4/ble.c ****             for(i = 0u; ((i < charLen) && (CYBLE_NULL_CHARCTER != name[i])); i++)
 1139              		.loc 1 1120 0
 1140 0028 1523     		mov	r3, #21
 1141 002a FB18     		add	r3, r7, r3
 1142 002c 0022     		mov	r2, #0
 1143 002e 1A70     		strb	r2, [r3]
 1144 0030 12E0     		b	.L60
 1145              	.L62:
1121:Generated_Source\PSoC4/ble.c ****             {
1122:Generated_Source\PSoC4/ble.c ****                 ptr[i] = name[i];
 1146              		.loc 1 1122 0 discriminator 4
 1147 0032 1523     		mov	r3, #21
 1148 0034 FB18     		add	r3, r7, r3
 1149 0036 1B78     		ldrb	r3, [r3]
 1150 0038 3A69     		ldr	r2, [r7, #16]
 1151 003a D318     		add	r3, r2, r3
 1152 003c 1522     		mov	r2, #21
 1153 003e BA18     		add	r2, r7, r2
 1154 0040 1278     		ldrb	r2, [r2]
 1155 0042 7968     		ldr	r1, [r7, #4]
 1156 0044 8A18     		add	r2, r1, r2
 1157 0046 1278     		ldrb	r2, [r2]
 1158 0048 1A70     		strb	r2, [r3]
1120:Generated_Source\PSoC4/ble.c ****             {
 1159              		.loc 1 1120 0 discriminator 4
 1160 004a 1523     		mov	r3, #21
 1161 004c FB18     		add	r3, r7, r3
 1162 004e 1A78     		ldrb	r2, [r3]
 1163 0050 1523     		mov	r3, #21
 1164 0052 FB18     		add	r3, r7, r3
 1165 0054 0132     		add	r2, r2, #1
 1166 0056 1A70     		strb	r2, [r3]
 1167              	.L60:
1120:Generated_Source\PSoC4/ble.c ****             {
 1168              		.loc 1 1120 0 is_stmt 0 discriminator 1
 1169 0058 1523     		mov	r3, #21
 1170 005a FA18     		add	r2, r7, r3
 1171 005c 0F23     		mov	r3, #15
 1172 005e FB18     		add	r3, r7, r3
 1173 0060 1278     		ldrb	r2, [r2]
 1174 0062 1B78     		ldrb	r3, [r3]
 1175 0064 9A42     		cmp	r2, r3
 1176 0066 07D2     		bcs	.L61
1120:Generated_Source\PSoC4/ble.c ****             {
 1177              		.loc 1 1120 0 discriminator 3
 1178 0068 1523     		mov	r3, #21
 1179 006a FB18     		add	r3, r7, r3
 1180 006c 1B78     		ldrb	r3, [r3]
 1181 006e 7A68     		ldr	r2, [r7, #4]
 1182 0070 D318     		add	r3, r2, r3
 1183 0072 1B78     		ldrb	r3, [r3]
 1184 0074 002B     		cmp	r3, #0
 1185 0076 DCD1     		bne	.L62
 1186              	.L61:
1123:Generated_Source\PSoC4/ble.c ****             }
1124:Generated_Source\PSoC4/ble.c **** 
ARM GAS  C:\Users\Petro\AppData\Local\Temp\ccQnjlQx.s 			page 42


1125:Generated_Source\PSoC4/ble.c ****             if(i < charLen)
 1187              		.loc 1 1125 0 is_stmt 1
 1188 0078 1523     		mov	r3, #21
 1189 007a FA18     		add	r2, r7, r3
 1190 007c 0F23     		mov	r3, #15
 1191 007e FB18     		add	r3, r7, r3
 1192 0080 1278     		ldrb	r2, [r2]
 1193 0082 1B78     		ldrb	r3, [r3]
 1194 0084 9A42     		cmp	r2, r3
 1195 0086 06D2     		bcs	.L63
1126:Generated_Source\PSoC4/ble.c ****             {
1127:Generated_Source\PSoC4/ble.c ****                 /* Terminate string */
1128:Generated_Source\PSoC4/ble.c ****                 ptr[i] = CYBLE_NULL_CHARCTER;
 1196              		.loc 1 1128 0
 1197 0088 1523     		mov	r3, #21
 1198 008a FB18     		add	r3, r7, r3
 1199 008c 1B78     		ldrb	r3, [r3]
 1200 008e 3A69     		ldr	r2, [r7, #16]
 1201 0090 D318     		add	r3, r2, r3
 1202 0092 0022     		mov	r2, #0
 1203 0094 1A70     		strb	r2, [r3]
 1204              	.L63:
1129:Generated_Source\PSoC4/ble.c ****             }
1130:Generated_Source\PSoC4/ble.c ****             
1131:Generated_Source\PSoC4/ble.c ****             /* Set new actual length */
1132:Generated_Source\PSoC4/ble.c ****             
1133:Generated_Source\PSoC4/ble.c ****             /* Update device name in advertising and scan response structure */
1134:Generated_Source\PSoC4/ble.c ****             #if(CYBLE_GAP_ROLE_PERIPHERAL)
1135:Generated_Source\PSoC4/ble.c ****                 CyBle_ChangeAdLocalName(name, 0u);
 1205              		.loc 1 1135 0
 1206 0096 7B68     		ldr	r3, [r7, #4]
 1207 0098 181C     		mov	r0, r3
 1208 009a 0021     		mov	r1, #0
 1209 009c FFF7FEFF 		bl	CyBle_ChangeAdLocalName
1136:Generated_Source\PSoC4/ble.c ****                 CyBle_ChangeAdLocalName(name, 1u);
 1210              		.loc 1 1136 0
 1211 00a0 7B68     		ldr	r3, [r7, #4]
 1212 00a2 181C     		mov	r0, r3
 1213 00a4 0121     		mov	r1, #1
 1214 00a6 FFF7FEFF 		bl	CyBle_ChangeAdLocalName
 1215 00aa 03E0     		b	.L64
 1216              	.L59:
1137:Generated_Source\PSoC4/ble.c ****             #endif /* (CYBLE_GAP_ROLE_PERIPHERAL) */
1138:Generated_Source\PSoC4/ble.c ****         }
1139:Generated_Source\PSoC4/ble.c ****         else
1140:Generated_Source\PSoC4/ble.c ****         {
1141:Generated_Source\PSoC4/ble.c ****             apiResult = CYBLE_ERROR_INVALID_PARAMETER;
 1217              		.loc 1 1141 0
 1218 00ac 1623     		mov	r3, #22
 1219 00ae FB18     		add	r3, r7, r3
 1220 00b0 0122     		mov	r2, #1
 1221 00b2 1A80     		strh	r2, [r3]
 1222              	.L64:
1142:Generated_Source\PSoC4/ble.c ****         }
1143:Generated_Source\PSoC4/ble.c ****         
1144:Generated_Source\PSoC4/ble.c ****         return(apiResult);
 1223              		.loc 1 1144 0
ARM GAS  C:\Users\Petro\AppData\Local\Temp\ccQnjlQx.s 			page 43


 1224 00b4 1623     		mov	r3, #22
 1225 00b6 FB18     		add	r3, r7, r3
 1226 00b8 1B88     		ldrh	r3, [r3]
1145:Generated_Source\PSoC4/ble.c ****     }
 1227              		.loc 1 1145 0
 1228 00ba 181C     		mov	r0, r3
 1229 00bc BD46     		mov	sp, r7
 1230 00be 06B0     		add	sp, sp, #24
 1231              		@ sp needed
 1232 00c0 80BD     		pop	{r7, pc}
 1233              	.L67:
 1234 00c2 C046     		.align	2
 1235              	.L66:
 1236 00c4 00000000 		.word	cyBle_gattDB
 1237              		.cfi_endproc
 1238              	.LFE11:
 1239              		.size	CyBle_GapSetLocalName, .-CyBle_GapSetLocalName
 1240              		.section	.text.CyBle_GapGetLocalName,"ax",%progbits
 1241              		.align	2
 1242              		.global	CyBle_GapGetLocalName
 1243              		.code	16
 1244              		.thumb_func
 1245              		.type	CyBle_GapGetLocalName, %function
 1246              	CyBle_GapGetLocalName:
 1247              	.LFB12:
1146:Generated_Source\PSoC4/ble.c **** 
1147:Generated_Source\PSoC4/ble.c **** 
1148:Generated_Source\PSoC4/ble.c ****     /******************************************************************************
1149:Generated_Source\PSoC4/ble.c ****     * Function Name: CyBle_GapGetLocalName
1150:Generated_Source\PSoC4/ble.c ****     ***************************************************************************//**
1151:Generated_Source\PSoC4/ble.c ****     *  
1152:Generated_Source\PSoC4/ble.c ****     *  This API is used to read the local device name - a Characteristic of the 
1153:Generated_Source\PSoC4/ble.c ****     *  GAP Service.
1154:Generated_Source\PSoC4/ble.c ****     * 
1155:Generated_Source\PSoC4/ble.c ****     * \param name: The local device name string. Used to read the local name to the
1156:Generated_Source\PSoC4/ble.c ****     *             given string array. It represents a UTF-8 encoded User Friendly 
1157:Generated_Source\PSoC4/ble.c ****     *             Descriptive Name for the device. The length of the local device
1158:Generated_Source\PSoC4/ble.c ****     *             string is entered into the component customizer and it can be set
1159:Generated_Source\PSoC4/ble.c ****     *             to a value from 0 to 248 bytes. If the name contained in the
1160:Generated_Source\PSoC4/ble.c ****     *             parameter is shorter than the length from the customizer, the end
1161:Generated_Source\PSoC4/ble.c ****     *             of the name is indicated by a NULL octet (0x00).
1162:Generated_Source\PSoC4/ble.c ****     * 
1163:Generated_Source\PSoC4/ble.c ****     * \return
1164:Generated_Source\PSoC4/ble.c ****     *  CYBLE_API_RESULT_T : Return value indicates if the function succeeded or 
1165:Generated_Source\PSoC4/ble.c ****     *  failed. Following are the possible error codes.
1166:Generated_Source\PSoC4/ble.c ****     *
1167:Generated_Source\PSoC4/ble.c ****     *   Errors codes                       | Description
1168:Generated_Source\PSoC4/ble.c ****     *   ------------                       | -----------
1169:Generated_Source\PSoC4/ble.c ****     *   CYBLE_ERROR_OK                     | Function completed successfully.
1170:Generated_Source\PSoC4/ble.c ****     *   CYBLE_ERROR_INVALID_PARAMETER      | On specifying NULL as input parameter
1171:Generated_Source\PSoC4/ble.c ****     *
1172:Generated_Source\PSoC4/ble.c ****     *******************************************************************************/
1173:Generated_Source\PSoC4/ble.c ****     CYBLE_API_RESULT_T CyBle_GapGetLocalName(char8 name[])
1174:Generated_Source\PSoC4/ble.c ****     {
 1248              		.loc 1 1174 0
 1249              		.cfi_startproc
 1250 0000 80B5     		push	{r7, lr}
ARM GAS  C:\Users\Petro\AppData\Local\Temp\ccQnjlQx.s 			page 44


 1251              		.cfi_def_cfa_offset 8
 1252              		.cfi_offset 7, -8
 1253              		.cfi_offset 14, -4
 1254 0002 86B0     		sub	sp, sp, #24
 1255              		.cfi_def_cfa_offset 32
 1256 0004 00AF     		add	r7, sp, #0
 1257              		.cfi_def_cfa_register 7
 1258 0006 7860     		str	r0, [r7, #4]
1175:Generated_Source\PSoC4/ble.c ****         CYBLE_API_RESULT_T apiResult = CYBLE_ERROR_OK;
 1259              		.loc 1 1175 0
 1260 0008 1623     		mov	r3, #22
 1261 000a FB18     		add	r3, r7, r3
 1262 000c 0022     		mov	r2, #0
 1263 000e 1A80     		strh	r2, [r3]
1176:Generated_Source\PSoC4/ble.c ****         uint8 charLen;
1177:Generated_Source\PSoC4/ble.c ****         uint8 i;
1178:Generated_Source\PSoC4/ble.c ****         char8 *ptr;
1179:Generated_Source\PSoC4/ble.c **** 
1180:Generated_Source\PSoC4/ble.c ****         if(NULL != name)
 1264              		.loc 1 1180 0
 1265 0010 7B68     		ldr	r3, [r7, #4]
 1266 0012 002B     		cmp	r3, #0
 1267 0014 39D0     		beq	.L69
1181:Generated_Source\PSoC4/ble.c ****         {
1182:Generated_Source\PSoC4/ble.c ****             /* Get the pointer to the Device Name characteristic  */
1183:Generated_Source\PSoC4/ble.c ****             ptr = (char8 *) CYBLE_GATT_DB_ATTR_GET_ATTR_GEN_PTR(CYBLE_GAP_DEVICE_NAME_INDEX + 1u);
 1268              		.loc 1 1183 0
 1269 0016 224B     		ldr	r3, .L75
 1270 0018 9B6B     		ldr	r3, [r3, #56]
 1271 001a 5B68     		ldr	r3, [r3, #4]
 1272 001c 3B61     		str	r3, [r7, #16]
1184:Generated_Source\PSoC4/ble.c **** 
1185:Generated_Source\PSoC4/ble.c ****             /* First need to get the length of the characteristic data in the GATT
1186:Generated_Source\PSoC4/ble.c ****                 database to make sure there is enough place for the data. The length
1187:Generated_Source\PSoC4/ble.c ****                 can't be longer than 248, so only the LSB of 16 bit of length is to
1188:Generated_Source\PSoC4/ble.c ****                 be used. */
1189:Generated_Source\PSoC4/ble.c ****             charLen = (uint8)CYBLE_GATT_DB_ATTR_GET_ATTR_GEN_LEN(CYBLE_GAP_DEVICE_NAME_INDEX + 1u);
 1273              		.loc 1 1189 0
 1274 001e 204B     		ldr	r3, .L75
 1275 0020 9B6B     		ldr	r3, [r3, #56]
 1276 0022 1A88     		ldrh	r2, [r3]
 1277 0024 0F23     		mov	r3, #15
 1278 0026 FB18     		add	r3, r7, r3
 1279 0028 1A70     		strb	r2, [r3]
1190:Generated_Source\PSoC4/ble.c **** 
1191:Generated_Source\PSoC4/ble.c ****             /* Copy name from characteristic */
1192:Generated_Source\PSoC4/ble.c ****             for(i = 0u; ((i < charLen) && (CYBLE_NULL_CHARCTER != ptr[i])); i++)
 1280              		.loc 1 1192 0
 1281 002a 1523     		mov	r3, #21
 1282 002c FB18     		add	r3, r7, r3
 1283 002e 0022     		mov	r2, #0
 1284 0030 1A70     		strb	r2, [r3]
 1285 0032 12E0     		b	.L70
 1286              	.L72:
1193:Generated_Source\PSoC4/ble.c ****             {
1194:Generated_Source\PSoC4/ble.c ****                 name[i] = ptr[i];
 1287              		.loc 1 1194 0 discriminator 4
ARM GAS  C:\Users\Petro\AppData\Local\Temp\ccQnjlQx.s 			page 45


 1288 0034 1523     		mov	r3, #21
 1289 0036 FB18     		add	r3, r7, r3
 1290 0038 1B78     		ldrb	r3, [r3]
 1291 003a 7A68     		ldr	r2, [r7, #4]
 1292 003c D318     		add	r3, r2, r3
 1293 003e 1522     		mov	r2, #21
 1294 0040 BA18     		add	r2, r7, r2
 1295 0042 1278     		ldrb	r2, [r2]
 1296 0044 3969     		ldr	r1, [r7, #16]
 1297 0046 8A18     		add	r2, r1, r2
 1298 0048 1278     		ldrb	r2, [r2]
 1299 004a 1A70     		strb	r2, [r3]
1192:Generated_Source\PSoC4/ble.c ****             {
 1300              		.loc 1 1192 0 discriminator 4
 1301 004c 1523     		mov	r3, #21
 1302 004e FB18     		add	r3, r7, r3
 1303 0050 1A78     		ldrb	r2, [r3]
 1304 0052 1523     		mov	r3, #21
 1305 0054 FB18     		add	r3, r7, r3
 1306 0056 0132     		add	r2, r2, #1
 1307 0058 1A70     		strb	r2, [r3]
 1308              	.L70:
1192:Generated_Source\PSoC4/ble.c ****             {
 1309              		.loc 1 1192 0 is_stmt 0 discriminator 1
 1310 005a 1523     		mov	r3, #21
 1311 005c FA18     		add	r2, r7, r3
 1312 005e 0F23     		mov	r3, #15
 1313 0060 FB18     		add	r3, r7, r3
 1314 0062 1278     		ldrb	r2, [r2]
 1315 0064 1B78     		ldrb	r3, [r3]
 1316 0066 9A42     		cmp	r2, r3
 1317 0068 07D2     		bcs	.L71
1192:Generated_Source\PSoC4/ble.c ****             {
 1318              		.loc 1 1192 0 discriminator 3
 1319 006a 1523     		mov	r3, #21
 1320 006c FB18     		add	r3, r7, r3
 1321 006e 1B78     		ldrb	r3, [r3]
 1322 0070 3A69     		ldr	r2, [r7, #16]
 1323 0072 D318     		add	r3, r2, r3
 1324 0074 1B78     		ldrb	r3, [r3]
 1325 0076 002B     		cmp	r3, #0
 1326 0078 DCD1     		bne	.L72
 1327              	.L71:
1195:Generated_Source\PSoC4/ble.c ****             }
1196:Generated_Source\PSoC4/ble.c **** 
1197:Generated_Source\PSoC4/ble.c ****             /* Terminate string */
1198:Generated_Source\PSoC4/ble.c ****             name[i] = CYBLE_NULL_CHARCTER;
 1328              		.loc 1 1198 0 is_stmt 1
 1329 007a 1523     		mov	r3, #21
 1330 007c FB18     		add	r3, r7, r3
 1331 007e 1B78     		ldrb	r3, [r3]
 1332 0080 7A68     		ldr	r2, [r7, #4]
 1333 0082 D318     		add	r3, r2, r3
 1334 0084 0022     		mov	r2, #0
 1335 0086 1A70     		strb	r2, [r3]
 1336 0088 03E0     		b	.L73
 1337              	.L69:
ARM GAS  C:\Users\Petro\AppData\Local\Temp\ccQnjlQx.s 			page 46


1199:Generated_Source\PSoC4/ble.c ****         }
1200:Generated_Source\PSoC4/ble.c ****         else
1201:Generated_Source\PSoC4/ble.c ****         {
1202:Generated_Source\PSoC4/ble.c ****             apiResult = CYBLE_ERROR_INVALID_PARAMETER;
 1338              		.loc 1 1202 0
 1339 008a 1623     		mov	r3, #22
 1340 008c FB18     		add	r3, r7, r3
 1341 008e 0122     		mov	r2, #1
 1342 0090 1A80     		strh	r2, [r3]
 1343              	.L73:
1203:Generated_Source\PSoC4/ble.c ****         }
1204:Generated_Source\PSoC4/ble.c ****         
1205:Generated_Source\PSoC4/ble.c ****         return(apiResult);
 1344              		.loc 1 1205 0
 1345 0092 1623     		mov	r3, #22
 1346 0094 FB18     		add	r3, r7, r3
 1347 0096 1B88     		ldrh	r3, [r3]
1206:Generated_Source\PSoC4/ble.c ****     }
 1348              		.loc 1 1206 0
 1349 0098 181C     		mov	r0, r3
 1350 009a BD46     		mov	sp, r7
 1351 009c 06B0     		add	sp, sp, #24
 1352              		@ sp needed
 1353 009e 80BD     		pop	{r7, pc}
 1354              	.L76:
 1355              		.align	2
 1356              	.L75:
 1357 00a0 00000000 		.word	cyBle_gattDB
 1358              		.cfi_endproc
 1359              	.LFE12:
 1360              		.size	CyBle_GapGetLocalName, .-CyBle_GapGetLocalName
 1361              		.section	.text.CyBle_Get16ByPtr,"ax",%progbits
 1362              		.align	2
 1363              		.global	CyBle_Get16ByPtr
 1364              		.code	16
 1365              		.thumb_func
 1366              		.type	CyBle_Get16ByPtr, %function
 1367              	CyBle_Get16ByPtr:
 1368              	.LFB13:
1207:Generated_Source\PSoC4/ble.c **** 
1208:Generated_Source\PSoC4/ble.c **** #endif /* (CYBLE_GATT_ROLE_SERVER) */
1209:Generated_Source\PSoC4/ble.c **** 
1210:Generated_Source\PSoC4/ble.c **** 
1211:Generated_Source\PSoC4/ble.c **** /******************************************************************************
1212:Generated_Source\PSoC4/ble.c **** * Function Name: CyBle_Get16ByPtr
1213:Generated_Source\PSoC4/ble.c **** ***************************************************************************//**
1214:Generated_Source\PSoC4/ble.c **** * 
1215:Generated_Source\PSoC4/ble.c **** *  Returns the two-bytes value by using a pointer to the LSB.
1216:Generated_Source\PSoC4/ble.c **** * 
1217:Generated_Source\PSoC4/ble.c **** *  \param ptr: Pointer to the LSB of two-bytes data (little endian).
1218:Generated_Source\PSoC4/ble.c **** * 
1219:Generated_Source\PSoC4/ble.c **** *  \return
1220:Generated_Source\PSoC4/ble.c **** *  uint16: Two-bytes data.
1221:Generated_Source\PSoC4/ble.c **** * 
1222:Generated_Source\PSoC4/ble.c **** ******************************************************************************/
1223:Generated_Source\PSoC4/ble.c **** uint16 CyBle_Get16ByPtr(const uint8 ptr[])
1224:Generated_Source\PSoC4/ble.c **** {
ARM GAS  C:\Users\Petro\AppData\Local\Temp\ccQnjlQx.s 			page 47


 1369              		.loc 1 1224 0
 1370              		.cfi_startproc
 1371 0000 80B5     		push	{r7, lr}
 1372              		.cfi_def_cfa_offset 8
 1373              		.cfi_offset 7, -8
 1374              		.cfi_offset 14, -4
 1375 0002 82B0     		sub	sp, sp, #8
 1376              		.cfi_def_cfa_offset 16
 1377 0004 00AF     		add	r7, sp, #0
 1378              		.cfi_def_cfa_register 7
 1379 0006 7860     		str	r0, [r7, #4]
1225:Generated_Source\PSoC4/ble.c ****     return ((uint16) ptr[0u] | ((uint16) (((uint16) ptr[1u]) << 8u)));
 1380              		.loc 1 1225 0
 1381 0008 7B68     		ldr	r3, [r7, #4]
 1382 000a 1B78     		ldrb	r3, [r3]
 1383 000c 9AB2     		uxth	r2, r3
 1384 000e 7B68     		ldr	r3, [r7, #4]
 1385 0010 0133     		add	r3, r3, #1
 1386 0012 1B78     		ldrb	r3, [r3]
 1387 0014 9BB2     		uxth	r3, r3
 1388 0016 1B02     		lsl	r3, r3, #8
 1389 0018 9BB2     		uxth	r3, r3
 1390 001a 1343     		orr	r3, r2
 1391 001c 9BB2     		uxth	r3, r3
1226:Generated_Source\PSoC4/ble.c **** }
 1392              		.loc 1 1226 0
 1393 001e 181C     		mov	r0, r3
 1394 0020 BD46     		mov	sp, r7
 1395 0022 02B0     		add	sp, sp, #8
 1396              		@ sp needed
 1397 0024 80BD     		pop	{r7, pc}
 1398              		.cfi_endproc
 1399              	.LFE13:
 1400              		.size	CyBle_Get16ByPtr, .-CyBle_Get16ByPtr
 1401 0026 C046     		.section	.text.CyBle_Set16ByPtr,"ax",%progbits
 1402              		.align	2
 1403              		.global	CyBle_Set16ByPtr
 1404              		.code	16
 1405              		.thumb_func
 1406              		.type	CyBle_Set16ByPtr, %function
 1407              	CyBle_Set16ByPtr:
 1408              	.LFB14:
1227:Generated_Source\PSoC4/ble.c **** 
1228:Generated_Source\PSoC4/ble.c **** 
1229:Generated_Source\PSoC4/ble.c **** /******************************************************************************
1230:Generated_Source\PSoC4/ble.c **** * Function Name: CyBle_Set16ByPtr
1231:Generated_Source\PSoC4/ble.c **** ***************************************************************************//**
1232:Generated_Source\PSoC4/ble.c **** * 
1233:Generated_Source\PSoC4/ble.c **** *  Sets the two-bytes value by using a pointer to the LSB.
1234:Generated_Source\PSoC4/ble.c **** * 
1235:Generated_Source\PSoC4/ble.c **** *  \param ptr:    Pointer to the LSB of two-bytes data (little endian).
1236:Generated_Source\PSoC4/ble.c **** *  \param value:  Two-bytes data to be written.
1237:Generated_Source\PSoC4/ble.c **** * 
1238:Generated_Source\PSoC4/ble.c **** *  \return
1239:Generated_Source\PSoC4/ble.c **** *  None
1240:Generated_Source\PSoC4/ble.c **** * 
1241:Generated_Source\PSoC4/ble.c **** ******************************************************************************/
ARM GAS  C:\Users\Petro\AppData\Local\Temp\ccQnjlQx.s 			page 48


1242:Generated_Source\PSoC4/ble.c **** void CyBle_Set16ByPtr(uint8 ptr[], uint16 value)
1243:Generated_Source\PSoC4/ble.c **** {
 1409              		.loc 1 1243 0
 1410              		.cfi_startproc
 1411 0000 80B5     		push	{r7, lr}
 1412              		.cfi_def_cfa_offset 8
 1413              		.cfi_offset 7, -8
 1414              		.cfi_offset 14, -4
 1415 0002 82B0     		sub	sp, sp, #8
 1416              		.cfi_def_cfa_offset 16
 1417 0004 00AF     		add	r7, sp, #0
 1418              		.cfi_def_cfa_register 7
 1419 0006 7860     		str	r0, [r7, #4]
 1420 0008 0A1C     		mov	r2, r1
 1421 000a BB1C     		add	r3, r7, #2
 1422 000c 1A80     		strh	r2, [r3]
1244:Generated_Source\PSoC4/ble.c ****     ptr[0u] = (uint8) value;
 1423              		.loc 1 1244 0
 1424 000e BB1C     		add	r3, r7, #2
 1425 0010 1B88     		ldrh	r3, [r3]
 1426 0012 DAB2     		uxtb	r2, r3
 1427 0014 7B68     		ldr	r3, [r7, #4]
 1428 0016 1A70     		strb	r2, [r3]
1245:Generated_Source\PSoC4/ble.c ****     ptr[1u] = (uint8) (value >> 8u);
 1429              		.loc 1 1245 0
 1430 0018 7B68     		ldr	r3, [r7, #4]
 1431 001a 0133     		add	r3, r3, #1
 1432 001c BA1C     		add	r2, r7, #2
 1433 001e 1288     		ldrh	r2, [r2]
 1434 0020 120A     		lsr	r2, r2, #8
 1435 0022 92B2     		uxth	r2, r2
 1436 0024 D2B2     		uxtb	r2, r2
 1437 0026 1A70     		strb	r2, [r3]
1246:Generated_Source\PSoC4/ble.c **** }
 1438              		.loc 1 1246 0
 1439 0028 BD46     		mov	sp, r7
 1440 002a 02B0     		add	sp, sp, #8
 1441              		@ sp needed
 1442 002c 80BD     		pop	{r7, pc}
 1443              		.cfi_endproc
 1444              	.LFE14:
 1445              		.size	CyBle_Set16ByPtr, .-CyBle_Set16ByPtr
 1446 002e C046     		.text
 1447              	.Letext0:
 1448              		.file 2 "Generated_Source\\PSoC4\\cytypes.h"
 1449              		.file 3 "Generated_Source\\PSoC4\\ble_Stack.h"
 1450              		.file 4 "Generated_Source\\PSoC4\\ble_StackGap.h"
 1451              		.file 5 "Generated_Source\\PSoC4\\ble_StackGatt.h"
 1452              		.file 6 "Generated_Source\\PSoC4\\ble_StackGattDb.h"
 1453              		.file 7 "Generated_Source\\PSoC4\\ble.h"
 1454              		.file 8 "Generated_Source\\PSoC4\\ble_gatt.h"
 1455              		.file 9 "Generated_Source\\PSoC4\\ble_eventHandler.h"