ARM GAS  C:\Users\Petro\AppData\Local\Temp\ccWntimC.s 			page 1


   1              		.cpu cortex-m0
   2              		.fpu softvfp
   3              		.eabi_attribute 20, 1
   4              		.eabi_attribute 21, 1
   5              		.eabi_attribute 23, 3
   6              		.eabi_attribute 24, 1
   7              		.eabi_attribute 25, 1
   8              		.eabi_attribute 26, 1
   9              		.eabi_attribute 30, 6
  10              		.eabi_attribute 34, 0
  11              		.eabi_attribute 18, 4
  12              		.code	16
  13              		.file	"cyfitter_cfg.c"
  14              		.text
  15              	.Ltext0:
  16              		.cfi_sections	.debug_frame
  17              		.section	.text.CYMEMZERO,"ax",%progbits
  18              		.align	2
  19              		.code	16
  20              		.thumb_func
  21              		.type	CYMEMZERO, %function
  22              	CYMEMZERO:
  23              	.LFB2:
  24              		.file 1 "Generated_Source\\PSoC4\\cyfitter_cfg.c"
   1:Generated_Source\PSoC4/cyfitter_cfg.c **** /*******************************************************************************
   2:Generated_Source\PSoC4/cyfitter_cfg.c **** * File Name: cyfitter_cfg.c
   3:Generated_Source\PSoC4/cyfitter_cfg.c **** * 
   4:Generated_Source\PSoC4/cyfitter_cfg.c **** * PSoC Creator  4.0
   5:Generated_Source\PSoC4/cyfitter_cfg.c **** *
   6:Generated_Source\PSoC4/cyfitter_cfg.c **** * Description:
   7:Generated_Source\PSoC4/cyfitter_cfg.c **** * This file contains device initialization code.
   8:Generated_Source\PSoC4/cyfitter_cfg.c **** * Except for the user defined sections in CyClockStartupError(), this file should not be modified.
   9:Generated_Source\PSoC4/cyfitter_cfg.c **** * This file is automatically generated by PSoC Creator.
  10:Generated_Source\PSoC4/cyfitter_cfg.c **** *
  11:Generated_Source\PSoC4/cyfitter_cfg.c **** ********************************************************************************
  12:Generated_Source\PSoC4/cyfitter_cfg.c **** * Copyright (c) 2007-2016 Cypress Semiconductor.  All rights reserved.
  13:Generated_Source\PSoC4/cyfitter_cfg.c **** * You may use this file only in accordance with the license, terms, conditions, 
  14:Generated_Source\PSoC4/cyfitter_cfg.c **** * disclaimers, and limitations in the end user license agreement accompanying 
  15:Generated_Source\PSoC4/cyfitter_cfg.c **** * the software package with which this file was provided.
  16:Generated_Source\PSoC4/cyfitter_cfg.c **** ********************************************************************************/
  17:Generated_Source\PSoC4/cyfitter_cfg.c **** 
  18:Generated_Source\PSoC4/cyfitter_cfg.c **** #include <string.h>
  19:Generated_Source\PSoC4/cyfitter_cfg.c **** #include "cytypes.h"
  20:Generated_Source\PSoC4/cyfitter_cfg.c **** #include "cydevice_trm.h"
  21:Generated_Source\PSoC4/cyfitter_cfg.c **** #include "cyfitter.h"
  22:Generated_Source\PSoC4/cyfitter_cfg.c **** #include "CyLib.h"
  23:Generated_Source\PSoC4/cyfitter_cfg.c **** #include "CyLFClk.h"
  24:Generated_Source\PSoC4/cyfitter_cfg.c **** #include "cyfitter_cfg.h"
  25:Generated_Source\PSoC4/cyfitter_cfg.c **** #include "cyapicallbacks.h"
  26:Generated_Source\PSoC4/cyfitter_cfg.c **** 
  27:Generated_Source\PSoC4/cyfitter_cfg.c **** 
  28:Generated_Source\PSoC4/cyfitter_cfg.c **** #if defined(__GNUC__) || defined(__ARMCC_VERSION)
  29:Generated_Source\PSoC4/cyfitter_cfg.c ****     #define CYPACKED 
  30:Generated_Source\PSoC4/cyfitter_cfg.c ****     #define CYPACKED_ATTR __attribute__ ((packed))
  31:Generated_Source\PSoC4/cyfitter_cfg.c ****     #define CYALIGNED __attribute__ ((aligned))
  32:Generated_Source\PSoC4/cyfitter_cfg.c ****     #define CY_CFG_UNUSED __attribute__ ((unused))
  33:Generated_Source\PSoC4/cyfitter_cfg.c ****     #ifndef CY_CFG_SECTION
ARM GAS  C:\Users\Petro\AppData\Local\Temp\ccWntimC.s 			page 2


  34:Generated_Source\PSoC4/cyfitter_cfg.c ****         #define CY_CFG_SECTION __attribute__ ((section(".psocinit")))
  35:Generated_Source\PSoC4/cyfitter_cfg.c ****     #endif
  36:Generated_Source\PSoC4/cyfitter_cfg.c ****     
  37:Generated_Source\PSoC4/cyfitter_cfg.c ****     #if defined(__ARMCC_VERSION)
  38:Generated_Source\PSoC4/cyfitter_cfg.c ****         #define CY_CFG_MEMORY_BARRIER() __memory_changed()
  39:Generated_Source\PSoC4/cyfitter_cfg.c ****     #else
  40:Generated_Source\PSoC4/cyfitter_cfg.c ****         #define CY_CFG_MEMORY_BARRIER() __sync_synchronize()
  41:Generated_Source\PSoC4/cyfitter_cfg.c ****     #endif
  42:Generated_Source\PSoC4/cyfitter_cfg.c ****     
  43:Generated_Source\PSoC4/cyfitter_cfg.c **** #elif defined(__ICCARM__)
  44:Generated_Source\PSoC4/cyfitter_cfg.c ****     #include <intrinsics.h>
  45:Generated_Source\PSoC4/cyfitter_cfg.c **** 
  46:Generated_Source\PSoC4/cyfitter_cfg.c ****     #define CYPACKED __packed
  47:Generated_Source\PSoC4/cyfitter_cfg.c ****     #define CYPACKED_ATTR 
  48:Generated_Source\PSoC4/cyfitter_cfg.c ****     #define CYALIGNED _Pragma("data_alignment=4")
  49:Generated_Source\PSoC4/cyfitter_cfg.c ****     #define CY_CFG_UNUSED _Pragma("diag_suppress=Pe177")
  50:Generated_Source\PSoC4/cyfitter_cfg.c ****     #define CY_CFG_SECTION _Pragma("location=\".psocinit\"")
  51:Generated_Source\PSoC4/cyfitter_cfg.c ****     
  52:Generated_Source\PSoC4/cyfitter_cfg.c ****     #define CY_CFG_MEMORY_BARRIER() __DMB()
  53:Generated_Source\PSoC4/cyfitter_cfg.c ****     
  54:Generated_Source\PSoC4/cyfitter_cfg.c **** #else
  55:Generated_Source\PSoC4/cyfitter_cfg.c ****     #error Unsupported toolchain
  56:Generated_Source\PSoC4/cyfitter_cfg.c **** #endif
  57:Generated_Source\PSoC4/cyfitter_cfg.c **** 
  58:Generated_Source\PSoC4/cyfitter_cfg.c **** 
  59:Generated_Source\PSoC4/cyfitter_cfg.c **** CY_CFG_UNUSED
  60:Generated_Source\PSoC4/cyfitter_cfg.c **** static void CYMEMZERO(void *s, size_t n);
  61:Generated_Source\PSoC4/cyfitter_cfg.c **** CY_CFG_UNUSED
  62:Generated_Source\PSoC4/cyfitter_cfg.c **** static void CYMEMZERO(void *s, size_t n)
  63:Generated_Source\PSoC4/cyfitter_cfg.c **** {
  25              		.loc 1 63 0
  26              		.cfi_startproc
  27 0000 80B5     		push	{r7, lr}
  28              		.cfi_def_cfa_offset 8
  29              		.cfi_offset 7, -8
  30              		.cfi_offset 14, -4
  31 0002 82B0     		sub	sp, sp, #8
  32              		.cfi_def_cfa_offset 16
  33 0004 00AF     		add	r7, sp, #0
  34              		.cfi_def_cfa_register 7
  35 0006 7860     		str	r0, [r7, #4]
  36 0008 3960     		str	r1, [r7]
  64:Generated_Source\PSoC4/cyfitter_cfg.c **** 	(void)memset(s, 0, n);
  37              		.loc 1 64 0
  38 000a 7A68     		ldr	r2, [r7, #4]
  39 000c 3B68     		ldr	r3, [r7]
  40 000e 101C     		mov	r0, r2
  41 0010 0021     		mov	r1, #0
  42 0012 1A1C     		mov	r2, r3
  43 0014 FFF7FEFF 		bl	memset
  65:Generated_Source\PSoC4/cyfitter_cfg.c **** }
  44              		.loc 1 65 0
  45 0018 BD46     		mov	sp, r7
  46 001a 02B0     		add	sp, sp, #8
  47              		@ sp needed
  48 001c 80BD     		pop	{r7, pc}
  49              		.cfi_endproc
ARM GAS  C:\Users\Petro\AppData\Local\Temp\ccWntimC.s 			page 3


  50              	.LFE2:
  51              		.size	CYMEMZERO, .-CYMEMZERO
  52 001e C046     		.section	.text.CYCONFIGCPY,"ax",%progbits
  53              		.align	2
  54              		.code	16
  55              		.thumb_func
  56              		.type	CYCONFIGCPY, %function
  57              	CYCONFIGCPY:
  58              	.LFB3:
  66:Generated_Source\PSoC4/cyfitter_cfg.c **** CY_CFG_UNUSED
  67:Generated_Source\PSoC4/cyfitter_cfg.c **** static void CYCONFIGCPY(void *dest, const void *src, size_t n);
  68:Generated_Source\PSoC4/cyfitter_cfg.c **** CY_CFG_UNUSED
  69:Generated_Source\PSoC4/cyfitter_cfg.c **** static void CYCONFIGCPY(void *dest, const void *src, size_t n)
  70:Generated_Source\PSoC4/cyfitter_cfg.c **** {
  59              		.loc 1 70 0
  60              		.cfi_startproc
  61 0000 80B5     		push	{r7, lr}
  62              		.cfi_def_cfa_offset 8
  63              		.cfi_offset 7, -8
  64              		.cfi_offset 14, -4
  65 0002 84B0     		sub	sp, sp, #16
  66              		.cfi_def_cfa_offset 24
  67 0004 00AF     		add	r7, sp, #0
  68              		.cfi_def_cfa_register 7
  69 0006 F860     		str	r0, [r7, #12]
  70 0008 B960     		str	r1, [r7, #8]
  71 000a 7A60     		str	r2, [r7, #4]
  71:Generated_Source\PSoC4/cyfitter_cfg.c **** 	(void)memcpy(dest, src, n);
  72              		.loc 1 71 0
  73 000c F968     		ldr	r1, [r7, #12]
  74 000e BA68     		ldr	r2, [r7, #8]
  75 0010 7B68     		ldr	r3, [r7, #4]
  76 0012 081C     		mov	r0, r1
  77 0014 111C     		mov	r1, r2
  78 0016 1A1C     		mov	r2, r3
  79 0018 FFF7FEFF 		bl	memcpy
  72:Generated_Source\PSoC4/cyfitter_cfg.c **** }
  80              		.loc 1 72 0
  81 001c BD46     		mov	sp, r7
  82 001e 04B0     		add	sp, sp, #16
  83              		@ sp needed
  84 0020 80BD     		pop	{r7, pc}
  85              		.cfi_endproc
  86              	.LFE3:
  87              		.size	CYCONFIGCPY, .-CYCONFIGCPY
  88 0022 C046     		.section	.text.CYCONFIGCPYCODE,"ax",%progbits
  89              		.align	2
  90              		.code	16
  91              		.thumb_func
  92              		.type	CYCONFIGCPYCODE, %function
  93              	CYCONFIGCPYCODE:
  94              	.LFB4:
  73:Generated_Source\PSoC4/cyfitter_cfg.c **** CY_CFG_UNUSED
  74:Generated_Source\PSoC4/cyfitter_cfg.c **** static void CYCONFIGCPYCODE(void *dest, const void *src, size_t n);
  75:Generated_Source\PSoC4/cyfitter_cfg.c **** CY_CFG_UNUSED
  76:Generated_Source\PSoC4/cyfitter_cfg.c **** static void CYCONFIGCPYCODE(void *dest, const void *src, size_t n)
  77:Generated_Source\PSoC4/cyfitter_cfg.c **** {
ARM GAS  C:\Users\Petro\AppData\Local\Temp\ccWntimC.s 			page 4


  95              		.loc 1 77 0
  96              		.cfi_startproc
  97 0000 80B5     		push	{r7, lr}
  98              		.cfi_def_cfa_offset 8
  99              		.cfi_offset 7, -8
 100              		.cfi_offset 14, -4
 101 0002 84B0     		sub	sp, sp, #16
 102              		.cfi_def_cfa_offset 24
 103 0004 00AF     		add	r7, sp, #0
 104              		.cfi_def_cfa_register 7
 105 0006 F860     		str	r0, [r7, #12]
 106 0008 B960     		str	r1, [r7, #8]
 107 000a 7A60     		str	r2, [r7, #4]
  78:Generated_Source\PSoC4/cyfitter_cfg.c **** 	(void)memcpy(dest, src, n);
 108              		.loc 1 78 0
 109 000c F968     		ldr	r1, [r7, #12]
 110 000e BA68     		ldr	r2, [r7, #8]
 111 0010 7B68     		ldr	r3, [r7, #4]
 112 0012 081C     		mov	r0, r1
 113 0014 111C     		mov	r1, r2
 114 0016 1A1C     		mov	r2, r3
 115 0018 FFF7FEFF 		bl	memcpy
  79:Generated_Source\PSoC4/cyfitter_cfg.c **** }
 116              		.loc 1 79 0
 117 001c BD46     		mov	sp, r7
 118 001e 04B0     		add	sp, sp, #16
 119              		@ sp needed
 120 0020 80BD     		pop	{r7, pc}
 121              		.cfi_endproc
 122              	.LFE4:
 123              		.size	CYCONFIGCPYCODE, .-CYCONFIGCPYCODE
 124 0022 C046     		.section	.text.cfg_write_bytes32,"ax",%progbits
 125              		.align	2
 126              		.code	16
 127              		.thumb_func
 128              		.type	cfg_write_bytes32, %function
 129              	cfg_write_bytes32:
 130              	.LFB5:
  80:Generated_Source\PSoC4/cyfitter_cfg.c **** 
  81:Generated_Source\PSoC4/cyfitter_cfg.c **** 
  82:Generated_Source\PSoC4/cyfitter_cfg.c **** 
  83:Generated_Source\PSoC4/cyfitter_cfg.c **** 
  84:Generated_Source\PSoC4/cyfitter_cfg.c **** /* Clock startup error codes                                                   */
  85:Generated_Source\PSoC4/cyfitter_cfg.c **** #define CYCLOCKSTART_NO_ERROR    0u
  86:Generated_Source\PSoC4/cyfitter_cfg.c **** #define CYCLOCKSTART_XTAL_ERROR  1u
  87:Generated_Source\PSoC4/cyfitter_cfg.c **** #define CYCLOCKSTART_32KHZ_ERROR 2u
  88:Generated_Source\PSoC4/cyfitter_cfg.c **** #define CYCLOCKSTART_PLL_ERROR   3u
  89:Generated_Source\PSoC4/cyfitter_cfg.c **** 
  90:Generated_Source\PSoC4/cyfitter_cfg.c **** 
  91:Generated_Source\PSoC4/cyfitter_cfg.c **** #ifdef CY_NEED_CYCLOCKSTARTUPERROR
  92:Generated_Source\PSoC4/cyfitter_cfg.c **** /*******************************************************************************
  93:Generated_Source\PSoC4/cyfitter_cfg.c **** * Function Name: CyClockStartupError
  94:Generated_Source\PSoC4/cyfitter_cfg.c **** ********************************************************************************
  95:Generated_Source\PSoC4/cyfitter_cfg.c **** * Summary:
  96:Generated_Source\PSoC4/cyfitter_cfg.c **** *  If an error is encountered during clock configuration (crystal startup error,
  97:Generated_Source\PSoC4/cyfitter_cfg.c **** *  PLL lock error, etc.), the system will end up here.  Unless reimplemented by
  98:Generated_Source\PSoC4/cyfitter_cfg.c **** *  the customer, this function will stop in an infinite loop.
ARM GAS  C:\Users\Petro\AppData\Local\Temp\ccWntimC.s 			page 5


  99:Generated_Source\PSoC4/cyfitter_cfg.c **** *
 100:Generated_Source\PSoC4/cyfitter_cfg.c **** * Parameters:
 101:Generated_Source\PSoC4/cyfitter_cfg.c **** *   void
 102:Generated_Source\PSoC4/cyfitter_cfg.c **** *
 103:Generated_Source\PSoC4/cyfitter_cfg.c **** * Return:
 104:Generated_Source\PSoC4/cyfitter_cfg.c **** *   void
 105:Generated_Source\PSoC4/cyfitter_cfg.c **** *
 106:Generated_Source\PSoC4/cyfitter_cfg.c **** *******************************************************************************/
 107:Generated_Source\PSoC4/cyfitter_cfg.c **** CY_CFG_UNUSED
 108:Generated_Source\PSoC4/cyfitter_cfg.c **** static void CyClockStartupError(uint8 errorCode);
 109:Generated_Source\PSoC4/cyfitter_cfg.c **** CY_CFG_UNUSED
 110:Generated_Source\PSoC4/cyfitter_cfg.c **** static void CyClockStartupError(uint8 errorCode)
 111:Generated_Source\PSoC4/cyfitter_cfg.c **** {
 112:Generated_Source\PSoC4/cyfitter_cfg.c ****     /* To remove the compiler warning if errorCode not used.                */
 113:Generated_Source\PSoC4/cyfitter_cfg.c ****     errorCode = errorCode;
 114:Generated_Source\PSoC4/cyfitter_cfg.c **** 
 115:Generated_Source\PSoC4/cyfitter_cfg.c ****     /* If we have a clock startup error (bad MHz crystal, PLL lock, etc.),  */
 116:Generated_Source\PSoC4/cyfitter_cfg.c ****     /* we will end up here to allow the customer to implement something to  */
 117:Generated_Source\PSoC4/cyfitter_cfg.c ****     /* deal with the clock condition.                                       */
 118:Generated_Source\PSoC4/cyfitter_cfg.c **** 
 119:Generated_Source\PSoC4/cyfitter_cfg.c **** #ifdef CY_CFG_CLOCK_STARTUP_ERROR_CALLBACK
 120:Generated_Source\PSoC4/cyfitter_cfg.c **** 	CY_CFG_Clock_Startup_ErrorCallback();
 121:Generated_Source\PSoC4/cyfitter_cfg.c **** #else
 122:Generated_Source\PSoC4/cyfitter_cfg.c **** 	/*  If not using CY_CFG_CLOCK_STARTUP_ERROR_CALLBACK, place your clock startup code here. */
 123:Generated_Source\PSoC4/cyfitter_cfg.c ****     /* `#START CyClockStartupError` */
 124:Generated_Source\PSoC4/cyfitter_cfg.c **** 
 125:Generated_Source\PSoC4/cyfitter_cfg.c ****     /* If we have a clock startup error (bad MHz crystal, PLL lock, etc.),  */
 126:Generated_Source\PSoC4/cyfitter_cfg.c ****     /* we will end up here to allow the customer to implement something to  */
 127:Generated_Source\PSoC4/cyfitter_cfg.c ****     /* deal with the clock condition.                                       */
 128:Generated_Source\PSoC4/cyfitter_cfg.c **** 
 129:Generated_Source\PSoC4/cyfitter_cfg.c ****     /* `#END` */
 130:Generated_Source\PSoC4/cyfitter_cfg.c **** 
 131:Generated_Source\PSoC4/cyfitter_cfg.c ****     /* If nothing else, stop here since the clocks have not started         */
 132:Generated_Source\PSoC4/cyfitter_cfg.c ****     /* correctly.                                                           */
 133:Generated_Source\PSoC4/cyfitter_cfg.c ****     while(1) {}
 134:Generated_Source\PSoC4/cyfitter_cfg.c **** #endif /* CY_CFG_CLOCK_STARTUP_ERROR_CALLBACK */ 
 135:Generated_Source\PSoC4/cyfitter_cfg.c **** }
 136:Generated_Source\PSoC4/cyfitter_cfg.c **** #endif
 137:Generated_Source\PSoC4/cyfitter_cfg.c **** 
 138:Generated_Source\PSoC4/cyfitter_cfg.c **** #define CY_CFG_BASE_ADDR_COUNT 10u
 139:Generated_Source\PSoC4/cyfitter_cfg.c **** CYPACKED typedef struct
 140:Generated_Source\PSoC4/cyfitter_cfg.c **** {
 141:Generated_Source\PSoC4/cyfitter_cfg.c **** 	uint8 offset;
 142:Generated_Source\PSoC4/cyfitter_cfg.c **** 	uint8 value;
 143:Generated_Source\PSoC4/cyfitter_cfg.c **** } CYPACKED_ATTR cy_cfg_addrvalue_t;
 144:Generated_Source\PSoC4/cyfitter_cfg.c **** 
 145:Generated_Source\PSoC4/cyfitter_cfg.c **** 
 146:Generated_Source\PSoC4/cyfitter_cfg.c **** 
 147:Generated_Source\PSoC4/cyfitter_cfg.c **** /*******************************************************************************
 148:Generated_Source\PSoC4/cyfitter_cfg.c **** * Function Name: cfg_write_bytes32
 149:Generated_Source\PSoC4/cyfitter_cfg.c **** ********************************************************************************
 150:Generated_Source\PSoC4/cyfitter_cfg.c **** * Summary:
 151:Generated_Source\PSoC4/cyfitter_cfg.c **** *  This function is used for setting up the chip configuration areas that
 152:Generated_Source\PSoC4/cyfitter_cfg.c **** *  contain relatively sparse data.
 153:Generated_Source\PSoC4/cyfitter_cfg.c **** *
 154:Generated_Source\PSoC4/cyfitter_cfg.c **** * Parameters:
 155:Generated_Source\PSoC4/cyfitter_cfg.c **** *   void
ARM GAS  C:\Users\Petro\AppData\Local\Temp\ccWntimC.s 			page 6


 156:Generated_Source\PSoC4/cyfitter_cfg.c **** *
 157:Generated_Source\PSoC4/cyfitter_cfg.c **** * Return:
 158:Generated_Source\PSoC4/cyfitter_cfg.c **** *   void
 159:Generated_Source\PSoC4/cyfitter_cfg.c **** *
 160:Generated_Source\PSoC4/cyfitter_cfg.c **** *******************************************************************************/
 161:Generated_Source\PSoC4/cyfitter_cfg.c **** static void cfg_write_bytes32(const uint32 addr_table[], const cy_cfg_addrvalue_t data_table[]);
 162:Generated_Source\PSoC4/cyfitter_cfg.c **** static void cfg_write_bytes32(const uint32 addr_table[], const cy_cfg_addrvalue_t data_table[])
 163:Generated_Source\PSoC4/cyfitter_cfg.c **** {
 131              		.loc 1 163 0
 132              		.cfi_startproc
 133 0000 80B5     		push	{r7, lr}
 134              		.cfi_def_cfa_offset 8
 135              		.cfi_offset 7, -8
 136              		.cfi_offset 14, -4
 137 0002 86B0     		sub	sp, sp, #24
 138              		.cfi_def_cfa_offset 32
 139 0004 00AF     		add	r7, sp, #0
 140              		.cfi_def_cfa_register 7
 141 0006 7860     		str	r0, [r7, #4]
 142 0008 3960     		str	r1, [r7]
 164:Generated_Source\PSoC4/cyfitter_cfg.c **** 	/* For 32-bit little-endian architectures */
 165:Generated_Source\PSoC4/cyfitter_cfg.c **** 	uint32 i, j = 0u;
 143              		.loc 1 165 0
 144 000a 0023     		mov	r3, #0
 145 000c 3B61     		str	r3, [r7, #16]
 166:Generated_Source\PSoC4/cyfitter_cfg.c **** 	for (i = 0u; i < CY_CFG_BASE_ADDR_COUNT; i++)
 146              		.loc 1 166 0
 147 000e 0023     		mov	r3, #0
 148 0010 7B61     		str	r3, [r7, #20]
 149 0012 2FE0     		b	.L5
 150              	.L8:
 151              	.LBB2:
 167:Generated_Source\PSoC4/cyfitter_cfg.c **** 	{
 168:Generated_Source\PSoC4/cyfitter_cfg.c **** 		uint32 baseAddr = addr_table[i];
 152              		.loc 1 168 0
 153 0014 7B69     		ldr	r3, [r7, #20]
 154 0016 9B00     		lsl	r3, r3, #2
 155 0018 7A68     		ldr	r2, [r7, #4]
 156 001a D318     		add	r3, r2, r3
 157 001c 1B68     		ldr	r3, [r3]
 158 001e BB60     		str	r3, [r7, #8]
 169:Generated_Source\PSoC4/cyfitter_cfg.c **** 		uint8 count = (uint8)baseAddr;
 159              		.loc 1 169 0
 160 0020 0F23     		mov	r3, #15
 161 0022 FB18     		add	r3, r7, r3
 162 0024 BA68     		ldr	r2, [r7, #8]
 163 0026 1A70     		strb	r2, [r3]
 170:Generated_Source\PSoC4/cyfitter_cfg.c **** 		baseAddr &= 0xFFFFFF00u;
 164              		.loc 1 170 0
 165 0028 BB68     		ldr	r3, [r7, #8]
 166 002a FF22     		mov	r2, #255
 167 002c 9343     		bic	r3, r2
 168 002e BB60     		str	r3, [r7, #8]
 171:Generated_Source\PSoC4/cyfitter_cfg.c **** 		while (count != 0u)
 169              		.loc 1 171 0
 170 0030 18E0     		b	.L6
 171              	.L7:
ARM GAS  C:\Users\Petro\AppData\Local\Temp\ccWntimC.s 			page 7


 172:Generated_Source\PSoC4/cyfitter_cfg.c **** 		{
 173:Generated_Source\PSoC4/cyfitter_cfg.c **** 			CY_SET_XTND_REG8((void CYFAR *)(baseAddr + data_table[j].offset), data_table[j].value);
 172              		.loc 1 173 0
 173 0032 3B69     		ldr	r3, [r7, #16]
 174 0034 5B00     		lsl	r3, r3, #1
 175 0036 3A68     		ldr	r2, [r7]
 176 0038 D318     		add	r3, r2, r3
 177 003a 1B78     		ldrb	r3, [r3]
 178 003c 1A1C     		mov	r2, r3
 179 003e BB68     		ldr	r3, [r7, #8]
 180 0040 D318     		add	r3, r2, r3
 181 0042 191C     		mov	r1, r3
 182 0044 3B69     		ldr	r3, [r7, #16]
 183 0046 5B00     		lsl	r3, r3, #1
 184 0048 3A68     		ldr	r2, [r7]
 185 004a D318     		add	r3, r2, r3
 186 004c 5B78     		ldrb	r3, [r3, #1]
 187 004e 0B70     		strb	r3, [r1]
 174:Generated_Source\PSoC4/cyfitter_cfg.c **** 			j++;
 188              		.loc 1 174 0
 189 0050 3B69     		ldr	r3, [r7, #16]
 190 0052 0133     		add	r3, r3, #1
 191 0054 3B61     		str	r3, [r7, #16]
 175:Generated_Source\PSoC4/cyfitter_cfg.c **** 			count--;
 192              		.loc 1 175 0
 193 0056 0F23     		mov	r3, #15
 194 0058 FB18     		add	r3, r7, r3
 195 005a 1A78     		ldrb	r2, [r3]
 196 005c 0F23     		mov	r3, #15
 197 005e FB18     		add	r3, r7, r3
 198 0060 013A     		sub	r2, r2, #1
 199 0062 1A70     		strb	r2, [r3]
 200              	.L6:
 171:Generated_Source\PSoC4/cyfitter_cfg.c **** 		{
 201              		.loc 1 171 0
 202 0064 0F23     		mov	r3, #15
 203 0066 FB18     		add	r3, r7, r3
 204 0068 1B78     		ldrb	r3, [r3]
 205 006a 002B     		cmp	r3, #0
 206 006c E1D1     		bne	.L7
 207              	.LBE2:
 166:Generated_Source\PSoC4/cyfitter_cfg.c **** 	{
 208              		.loc 1 166 0 discriminator 2
 209 006e 7B69     		ldr	r3, [r7, #20]
 210 0070 0133     		add	r3, r3, #1
 211 0072 7B61     		str	r3, [r7, #20]
 212              	.L5:
 166:Generated_Source\PSoC4/cyfitter_cfg.c **** 	{
 213              		.loc 1 166 0 is_stmt 0 discriminator 1
 214 0074 7B69     		ldr	r3, [r7, #20]
 215 0076 092B     		cmp	r3, #9
 216 0078 CCD9     		bls	.L8
 176:Generated_Source\PSoC4/cyfitter_cfg.c **** 		}
 177:Generated_Source\PSoC4/cyfitter_cfg.c **** 	}
 178:Generated_Source\PSoC4/cyfitter_cfg.c **** }
 217              		.loc 1 178 0 is_stmt 1
 218 007a BD46     		mov	sp, r7
ARM GAS  C:\Users\Petro\AppData\Local\Temp\ccWntimC.s 			page 8


 219 007c 06B0     		add	sp, sp, #24
 220              		@ sp needed
 221 007e 80BD     		pop	{r7, pc}
 222              		.cfi_endproc
 223              	.LFE5:
 224              		.size	cfg_write_bytes32, .-cfg_write_bytes32
 225              		.section	.psocinit,"ax",%progbits
 226              		.align	2
 227              		.code	16
 228              		.thumb_func
 229              		.type	ClockSetup, %function
 230              	ClockSetup:
 231              	.LFB6:
 179:Generated_Source\PSoC4/cyfitter_cfg.c **** 
 180:Generated_Source\PSoC4/cyfitter_cfg.c **** 
 181:Generated_Source\PSoC4/cyfitter_cfg.c **** /*******************************************************************************
 182:Generated_Source\PSoC4/cyfitter_cfg.c **** * Function Name: ClockSetup
 183:Generated_Source\PSoC4/cyfitter_cfg.c **** ********************************************************************************
 184:Generated_Source\PSoC4/cyfitter_cfg.c **** *
 185:Generated_Source\PSoC4/cyfitter_cfg.c **** * Summary:
 186:Generated_Source\PSoC4/cyfitter_cfg.c **** *   Performs the initialization of all of the clocks in the device based on the
 187:Generated_Source\PSoC4/cyfitter_cfg.c **** *   settings in the Clock tab of the DWR.  This includes enabling the requested
 188:Generated_Source\PSoC4/cyfitter_cfg.c **** *   clocks and setting the necessary dividers to produce the desired frequency. 
 189:Generated_Source\PSoC4/cyfitter_cfg.c **** *
 190:Generated_Source\PSoC4/cyfitter_cfg.c **** * Parameters:
 191:Generated_Source\PSoC4/cyfitter_cfg.c **** *   void
 192:Generated_Source\PSoC4/cyfitter_cfg.c **** *
 193:Generated_Source\PSoC4/cyfitter_cfg.c **** * Return:
 194:Generated_Source\PSoC4/cyfitter_cfg.c **** *   void
 195:Generated_Source\PSoC4/cyfitter_cfg.c **** *
 196:Generated_Source\PSoC4/cyfitter_cfg.c **** *******************************************************************************/
 197:Generated_Source\PSoC4/cyfitter_cfg.c **** static void ClockSetup(void);
 198:Generated_Source\PSoC4/cyfitter_cfg.c **** CY_CFG_SECTION
 199:Generated_Source\PSoC4/cyfitter_cfg.c **** static void ClockSetup(void)
 200:Generated_Source\PSoC4/cyfitter_cfg.c **** {
 232              		.loc 1 200 0
 233              		.cfi_startproc
 234 0000 80B5     		push	{r7, lr}
 235              		.cfi_def_cfa_offset 8
 236              		.cfi_offset 7, -8
 237              		.cfi_offset 14, -4
 238 0002 00AF     		add	r7, sp, #0
 239              		.cfi_def_cfa_register 7
 201:Generated_Source\PSoC4/cyfitter_cfg.c **** 
 202:Generated_Source\PSoC4/cyfitter_cfg.c **** 	/* Set Flash Cycles based on max possible frequency in case a glitch occurs during ClockSetup(). *
 203:Generated_Source\PSoC4/cyfitter_cfg.c **** 	CY_SET_REG32((void CYXDATA *)(CYREG_CPUSS_FLASH_CTL), (0x0012u));
 240              		.loc 1 203 0
 241 0004 3B4B     		ldr	r3, .L11
 242 0006 1222     		mov	r2, #18
 243 0008 1A60     		str	r2, [r3]
 204:Generated_Source\PSoC4/cyfitter_cfg.c **** 
 205:Generated_Source\PSoC4/cyfitter_cfg.c **** 	/* Start the WCO */
 206:Generated_Source\PSoC4/cyfitter_cfg.c **** 	CySysClkWcoStart();
 244              		.loc 1 206 0
 245 000a FFF7FEFF 		bl	CySysClkWcoStart
 207:Generated_Source\PSoC4/cyfitter_cfg.c **** 	CyDelayCycles(12000000u); /* WCO may take up to 500ms to start */
 246              		.loc 1 207 0
ARM GAS  C:\Users\Petro\AppData\Local\Temp\ccWntimC.s 			page 9


 247 000e 3A4B     		ldr	r3, .L11+4
 248 0010 181C     		mov	r0, r3
 249 0012 FFF7FEFF 		bl	CyDelayCycles
 208:Generated_Source\PSoC4/cyfitter_cfg.c **** 	(void)CySysClkWcoSetPowerMode(CY_SYS_CLK_WCO_LPM);    /* Switch to the low power mode */
 250              		.loc 1 208 0
 251 0016 0120     		mov	r0, #1
 252 0018 FFF7FEFF 		bl	CySysClkWcoSetPowerMode
 209:Generated_Source\PSoC4/cyfitter_cfg.c **** 
 210:Generated_Source\PSoC4/cyfitter_cfg.c **** 	/* Setup and trim IMO based on desired frequency. */
 211:Generated_Source\PSoC4/cyfitter_cfg.c **** 	CySysClkWriteImoFreq(48u);
 253              		.loc 1 211 0
 254 001c 3020     		mov	r0, #48
 255 001e FFF7FEFF 		bl	CySysClkWriteImoFreq
 212:Generated_Source\PSoC4/cyfitter_cfg.c **** 	/* CYDEV_WDT_CONFIG Starting address: CYDEV_WDT_CONFIG */
 213:Generated_Source\PSoC4/cyfitter_cfg.c **** 	CY_SET_XTND_REG32((void CYFAR *)(CYREG_WDT_CONFIG), 0x40000000u);
 256              		.loc 1 213 0
 257 0022 364B     		ldr	r3, .L11+8
 258 0024 8022     		mov	r2, #128
 259 0026 D205     		lsl	r2, r2, #23
 260 0028 1A60     		str	r2, [r3]
 214:Generated_Source\PSoC4/cyfitter_cfg.c **** 
 215:Generated_Source\PSoC4/cyfitter_cfg.c **** 
 216:Generated_Source\PSoC4/cyfitter_cfg.c **** 	/* Enable fast start mode for XO */
 217:Generated_Source\PSoC4/cyfitter_cfg.c **** 	CY_SET_REG32((void*)CYREG_BLE_BLERD_BB_XO, CY_GET_REG32((void*)CYREG_BLE_BLERD_BB_XO) | (uint32)0x
 261              		.loc 1 217 0
 262 002a 354B     		ldr	r3, .L11+12
 263 002c 344A     		ldr	r2, .L11+12
 264 002e 1268     		ldr	r2, [r2]
 265 0030 0221     		mov	r1, #2
 266 0032 0A43     		orr	r2, r1
 267 0034 1A60     		str	r2, [r3]
 218:Generated_Source\PSoC4/cyfitter_cfg.c **** 	CY_SET_XTND_REG32((void CYFAR *)(CYREG_BLE_BLERD_BB_XO_CAPTRIM), 0x00003E2Du);
 268              		.loc 1 218 0
 269 0036 334B     		ldr	r3, .L11+16
 270 0038 334A     		ldr	r2, .L11+20
 271 003a 1A60     		str	r2, [r3]
 219:Generated_Source\PSoC4/cyfitter_cfg.c **** 	/*Set XTAL(ECO) divider*/
 220:Generated_Source\PSoC4/cyfitter_cfg.c **** 	CY_SET_XTND_REG32((void CYFAR *)(CYREG_BLE_BLESS_XTAL_CLK_DIV_CONFIG), 0x00000000u);
 272              		.loc 1 220 0
 273 003c 334B     		ldr	r3, .L11+24
 274 003e 0022     		mov	r2, #0
 275 0040 1A60     		str	r2, [r3]
 221:Generated_Source\PSoC4/cyfitter_cfg.c **** 	/* Disable Crystal Stable Interrupt before enabling ECO */
 222:Generated_Source\PSoC4/cyfitter_cfg.c **** 	CY_SET_REG32((void*)CYREG_BLE_BLESS_LL_DSM_CTRL, CY_GET_REG32((void*)CYREG_BLE_BLESS_LL_DSM_CTRL) 
 276              		.loc 1 222 0
 277 0042 334B     		ldr	r3, .L11+28
 278 0044 324A     		ldr	r2, .L11+28
 279 0046 1268     		ldr	r2, [r2]
 280 0048 0821     		mov	r1, #8
 281 004a 8A43     		bic	r2, r1
 282 004c 1A60     		str	r2, [r3]
 223:Generated_Source\PSoC4/cyfitter_cfg.c **** 	/* Start the ECO and do not check status since it is not needed for HFCLK */
 224:Generated_Source\PSoC4/cyfitter_cfg.c **** 	(void)CySysClkEcoStart(2000u);
 283              		.loc 1 224 0
 284 004e FA23     		mov	r3, #250
 285 0050 DB00     		lsl	r3, r3, #3
 286 0052 181C     		mov	r0, r3
ARM GAS  C:\Users\Petro\AppData\Local\Temp\ccWntimC.s 			page 10


 287 0054 FFF7FEFF 		bl	CySysClkEcoStart
 225:Generated_Source\PSoC4/cyfitter_cfg.c **** 	CyDelayUs(1500u); /* Wait to stabalize */
 288              		.loc 1 225 0
 289 0058 2E4B     		ldr	r3, .L11+32
 290 005a 181C     		mov	r0, r3
 291 005c FFF7FEFF 		bl	CyDelayUs
 226:Generated_Source\PSoC4/cyfitter_cfg.c **** 
 227:Generated_Source\PSoC4/cyfitter_cfg.c **** 	/* Setup phase aligned clocks */
 228:Generated_Source\PSoC4/cyfitter_cfg.c **** 	CY_SET_REG32((void *)CYREG_PERI_DIV_16_CTL3, 0x00BB7F00u);
 292              		.loc 1 228 0
 293 0060 2D4B     		ldr	r3, .L11+36
 294 0062 2E4A     		ldr	r2, .L11+40
 295 0064 1A60     		str	r2, [r3]
 229:Generated_Source\PSoC4/cyfitter_cfg.c **** 	CY_SET_REG32((void *)CYREG_PERI_DIV_CMD, 0x8000FF43u);
 296              		.loc 1 229 0
 297 0066 2E4B     		ldr	r3, .L11+44
 298 0068 2E4A     		ldr	r2, .L11+48
 299 006a 1A60     		str	r2, [r3]
 230:Generated_Source\PSoC4/cyfitter_cfg.c **** 	CY_SET_REG32((void *)CYREG_PERI_DIV_16_CTL2, 0x00BB7F00u);
 300              		.loc 1 230 0
 301 006c 2E4B     		ldr	r3, .L11+52
 302 006e 2B4A     		ldr	r2, .L11+40
 303 0070 1A60     		str	r2, [r3]
 231:Generated_Source\PSoC4/cyfitter_cfg.c **** 	CY_SET_REG32((void *)CYREG_PERI_DIV_CMD, 0x8000FF42u);
 304              		.loc 1 231 0
 305 0072 2B4B     		ldr	r3, .L11+44
 306 0074 2D4A     		ldr	r2, .L11+56
 307 0076 1A60     		str	r2, [r3]
 232:Generated_Source\PSoC4/cyfitter_cfg.c **** 	CY_SET_REG32((void *)CYREG_PERI_DIV_16_CTL1, 0x0001A000u);
 308              		.loc 1 232 0
 309 0078 2D4B     		ldr	r3, .L11+60
 310 007a D022     		mov	r2, #208
 311 007c 5202     		lsl	r2, r2, #9
 312 007e 1A60     		str	r2, [r3]
 233:Generated_Source\PSoC4/cyfitter_cfg.c **** 	CY_SET_REG32((void *)CYREG_PERI_DIV_CMD, 0x8000FF41u);
 313              		.loc 1 233 0
 314 0080 274B     		ldr	r3, .L11+44
 315 0082 2C4A     		ldr	r2, .L11+64
 316 0084 1A60     		str	r2, [r3]
 234:Generated_Source\PSoC4/cyfitter_cfg.c **** 	CY_SET_REG32((void *)CYREG_PERI_DIV_16_CTL0, 0x00001D00u);
 317              		.loc 1 234 0
 318 0086 2C4B     		ldr	r3, .L11+68
 319 0088 E822     		mov	r2, #232
 320 008a 5201     		lsl	r2, r2, #5
 321 008c 1A60     		str	r2, [r3]
 235:Generated_Source\PSoC4/cyfitter_cfg.c **** 	CY_SET_REG32((void *)CYREG_PERI_DIV_CMD, 0x8000FF40u);
 322              		.loc 1 235 0
 323 008e 244B     		ldr	r3, .L11+44
 324 0090 2A4A     		ldr	r2, .L11+72
 325 0092 1A60     		str	r2, [r3]
 236:Generated_Source\PSoC4/cyfitter_cfg.c **** 
 237:Generated_Source\PSoC4/cyfitter_cfg.c **** 	/* CYDEV_CLK_IMO_CONFIG Starting address: CYDEV_CLK_IMO_CONFIG */
 238:Generated_Source\PSoC4/cyfitter_cfg.c **** 	CY_SET_XTND_REG32((void CYFAR *)(CYREG_CLK_IMO_CONFIG), 0x80000000u);
 326              		.loc 1 238 0
 327 0094 2A4B     		ldr	r3, .L11+76
 328 0096 8022     		mov	r2, #128
 329 0098 1206     		lsl	r2, r2, #24
ARM GAS  C:\Users\Petro\AppData\Local\Temp\ccWntimC.s 			page 11


 330 009a 1A60     		str	r2, [r3]
 239:Generated_Source\PSoC4/cyfitter_cfg.c **** 
 240:Generated_Source\PSoC4/cyfitter_cfg.c **** 	/* CYDEV_CLK_SELECT Starting address: CYDEV_CLK_SELECT */
 241:Generated_Source\PSoC4/cyfitter_cfg.c **** 	CY_SET_XTND_REG32((void CYFAR *)(CYREG_CLK_SELECT), 0x00040000u);
 331              		.loc 1 241 0
 332 009c 294B     		ldr	r3, .L11+80
 333 009e 8022     		mov	r2, #128
 334 00a0 D202     		lsl	r2, r2, #11
 335 00a2 1A60     		str	r2, [r3]
 242:Generated_Source\PSoC4/cyfitter_cfg.c **** 
 243:Generated_Source\PSoC4/cyfitter_cfg.c **** 	/* CYDEV_PERI_PCLK_CTL11 Starting address: CYDEV_PERI_PCLK_CTL11 */
 244:Generated_Source\PSoC4/cyfitter_cfg.c **** 	CY_SET_XTND_REG32((void CYFAR *)(CYREG_PERI_PCLK_CTL11), 0x00000043u);
 336              		.loc 1 244 0
 337 00a4 284B     		ldr	r3, .L11+84
 338 00a6 4322     		mov	r2, #67
 339 00a8 1A60     		str	r2, [r3]
 245:Generated_Source\PSoC4/cyfitter_cfg.c **** 
 246:Generated_Source\PSoC4/cyfitter_cfg.c **** 	/* CYDEV_PERI_PCLK_CTL7 Starting address: CYDEV_PERI_PCLK_CTL7 */
 247:Generated_Source\PSoC4/cyfitter_cfg.c **** 	CY_SET_XTND_REG32((void CYFAR *)(CYREG_PERI_PCLK_CTL7), 0x00000042u);
 340              		.loc 1 247 0
 341 00aa 284B     		ldr	r3, .L11+88
 342 00ac 4222     		mov	r2, #66
 343 00ae 1A60     		str	r2, [r3]
 248:Generated_Source\PSoC4/cyfitter_cfg.c **** 
 249:Generated_Source\PSoC4/cyfitter_cfg.c **** 	/* CYDEV_PERI_PCLK_CTL2 Starting address: CYDEV_PERI_PCLK_CTL2 */
 250:Generated_Source\PSoC4/cyfitter_cfg.c **** 	CY_SET_XTND_REG32((void CYFAR *)(CYREG_PERI_PCLK_CTL2), 0x00000041u);
 344              		.loc 1 250 0
 345 00b0 274B     		ldr	r3, .L11+92
 346 00b2 4122     		mov	r2, #65
 347 00b4 1A60     		str	r2, [r3]
 251:Generated_Source\PSoC4/cyfitter_cfg.c **** 
 252:Generated_Source\PSoC4/cyfitter_cfg.c **** 	/* CYDEV_PERI_PCLK_CTL1 Starting address: CYDEV_PERI_PCLK_CTL1 */
 253:Generated_Source\PSoC4/cyfitter_cfg.c **** 	CY_SET_XTND_REG32((void CYFAR *)(CYREG_PERI_PCLK_CTL1), 0x00000040u);
 348              		.loc 1 253 0
 349 00b6 274B     		ldr	r3, .L11+96
 350 00b8 4022     		mov	r2, #64
 351 00ba 1A60     		str	r2, [r3]
 254:Generated_Source\PSoC4/cyfitter_cfg.c **** 
 255:Generated_Source\PSoC4/cyfitter_cfg.c **** 	(void)CyIntSetVector(8u, &CySysWdtIsr);
 352              		.loc 1 255 0
 353 00bc 264B     		ldr	r3, .L11+100
 354 00be 0820     		mov	r0, #8
 355 00c0 191C     		mov	r1, r3
 356 00c2 FFF7FEFF 		bl	CyIntSetVector
 256:Generated_Source\PSoC4/cyfitter_cfg.c **** 	CyIntEnable(8u);
 357              		.loc 1 256 0
 358 00c6 0820     		mov	r0, #8
 359 00c8 FFF7FEFF 		bl	CyIntEnable
 257:Generated_Source\PSoC4/cyfitter_cfg.c **** 	CY_SET_XTND_REG32((void CYFAR *)(CYREG_WDT_MATCH), 0x00000020u);
 360              		.loc 1 257 0
 361 00cc 234B     		ldr	r3, .L11+104
 362 00ce 2022     		mov	r2, #32
 363 00d0 1A60     		str	r2, [r3]
 258:Generated_Source\PSoC4/cyfitter_cfg.c **** 	CY_SET_XTND_REG32((void CYFAR *)(CYREG_WDT_CONFIG), 0x40000005u);
 364              		.loc 1 258 0
 365 00d2 0A4B     		ldr	r3, .L11+8
 366 00d4 224A     		ldr	r2, .L11+108
ARM GAS  C:\Users\Petro\AppData\Local\Temp\ccWntimC.s 			page 12


 367 00d6 1A60     		str	r2, [r3]
 259:Generated_Source\PSoC4/cyfitter_cfg.c **** 	CY_SET_XTND_REG32((void CYFAR *)(CYREG_WDT_CONTROL), 0x00000008u);
 368              		.loc 1 259 0
 369 00d8 224B     		ldr	r3, .L11+112
 370 00da 0822     		mov	r2, #8
 371 00dc 1A60     		str	r2, [r3]
 260:Generated_Source\PSoC4/cyfitter_cfg.c **** 	while ((CY_GET_XTND_REG32((void CYFAR *)(CYREG_WDT_CONTROL)) & 0x00000008u) != 0u) { }
 372              		.loc 1 260 0
 373 00de C046     		mov	r8, r8
 374              	.L10:
 375              		.loc 1 260 0 is_stmt 0 discriminator 1
 376 00e0 204B     		ldr	r3, .L11+112
 377 00e2 1B68     		ldr	r3, [r3]
 378 00e4 0822     		mov	r2, #8
 379 00e6 1340     		and	r3, r2
 380 00e8 FAD1     		bne	.L10
 261:Generated_Source\PSoC4/cyfitter_cfg.c **** 	CY_SET_XTND_REG32((void CYFAR *)(CYREG_WDT_CONTROL), 0x00000001u);
 381              		.loc 1 261 0 is_stmt 1
 382 00ea 1E4B     		ldr	r3, .L11+112
 383 00ec 0122     		mov	r2, #1
 384 00ee 1A60     		str	r2, [r3]
 262:Generated_Source\PSoC4/cyfitter_cfg.c **** }
 385              		.loc 1 262 0
 386 00f0 BD46     		mov	sp, r7
 387              		@ sp needed
 388 00f2 80BD     		pop	{r7, pc}
 389              	.L12:
 390              		.align	2
 391              	.L11:
 392 00f4 30001040 		.word	1074790448
 393 00f8 001BB700 		.word	12000000
 394 00fc 0C020B40 		.word	1074463244
 395 0100 78002E40 		.word	1076756600
 396 0104 7C002E40 		.word	1076756604
 397 0108 2D3E0000 		.word	15917
 398 010c 64F02E40 		.word	1076818020
 399 0110 6CF02E40 		.word	1076818028
 400 0114 DC050000 		.word	1500
 401 0118 0C030140 		.word	1073808140
 402 011c 007FBB00 		.word	12287744
 403 0120 00000140 		.word	1073807360
 404 0124 43FF0080 		.word	-2147418301
 405 0128 08030140 		.word	1073808136
 406 012c 42FF0080 		.word	-2147418302
 407 0130 04030140 		.word	1073808132
 408 0134 41FF0080 		.word	-2147418303
 409 0138 00030140 		.word	1073808128
 410 013c 40FF0080 		.word	-2147418304
 411 0140 08010B40 		.word	1074462984
 412 0144 00010B40 		.word	1074462976
 413 0148 2C010140 		.word	1073807660
 414 014c 1C010140 		.word	1073807644
 415 0150 08010140 		.word	1073807624
 416 0154 04010140 		.word	1073807620
 417 0158 00000000 		.word	CySysWdtIsr
 418 015c 08020B40 		.word	1074463240
 419 0160 05000040 		.word	1073741829
ARM GAS  C:\Users\Petro\AppData\Local\Temp\ccWntimC.s 			page 13


 420 0164 10020B40 		.word	1074463248
 421              		.cfi_endproc
 422              	.LFE6:
 423              		.size	ClockSetup, .-ClockSetup
 424              		.section	.text.AnalogSetDefault,"ax",%progbits
 425              		.align	2
 426              		.code	16
 427              		.thumb_func
 428              		.type	AnalogSetDefault, %function
 429              	AnalogSetDefault:
 430              	.LFB7:
 263:Generated_Source\PSoC4/cyfitter_cfg.c **** 
 264:Generated_Source\PSoC4/cyfitter_cfg.c **** 
 265:Generated_Source\PSoC4/cyfitter_cfg.c **** /* Analog API Functions */
 266:Generated_Source\PSoC4/cyfitter_cfg.c **** 
 267:Generated_Source\PSoC4/cyfitter_cfg.c **** 
 268:Generated_Source\PSoC4/cyfitter_cfg.c **** /*******************************************************************************
 269:Generated_Source\PSoC4/cyfitter_cfg.c **** * Function Name: AnalogSetDefault
 270:Generated_Source\PSoC4/cyfitter_cfg.c **** ********************************************************************************
 271:Generated_Source\PSoC4/cyfitter_cfg.c **** *
 272:Generated_Source\PSoC4/cyfitter_cfg.c **** * Summary:
 273:Generated_Source\PSoC4/cyfitter_cfg.c **** *  Sets up the analog portions of the chip to default values based on chip
 274:Generated_Source\PSoC4/cyfitter_cfg.c **** *  configuration options from the project.
 275:Generated_Source\PSoC4/cyfitter_cfg.c **** *
 276:Generated_Source\PSoC4/cyfitter_cfg.c **** * Parameters:
 277:Generated_Source\PSoC4/cyfitter_cfg.c **** *  void
 278:Generated_Source\PSoC4/cyfitter_cfg.c **** *
 279:Generated_Source\PSoC4/cyfitter_cfg.c **** * Return:
 280:Generated_Source\PSoC4/cyfitter_cfg.c **** *  void
 281:Generated_Source\PSoC4/cyfitter_cfg.c **** *
 282:Generated_Source\PSoC4/cyfitter_cfg.c **** *******************************************************************************/
 283:Generated_Source\PSoC4/cyfitter_cfg.c **** static void AnalogSetDefault(void);
 284:Generated_Source\PSoC4/cyfitter_cfg.c **** static void AnalogSetDefault(void)
 285:Generated_Source\PSoC4/cyfitter_cfg.c **** {
 431              		.loc 1 285 0
 432              		.cfi_startproc
 433 0000 80B5     		push	{r7, lr}
 434              		.cfi_def_cfa_offset 8
 435              		.cfi_offset 7, -8
 436              		.cfi_offset 14, -4
 437 0002 00AF     		add	r7, sp, #0
 438              		.cfi_def_cfa_register 7
 286:Generated_Source\PSoC4/cyfitter_cfg.c **** 	CY_SET_XTND_REG32((void CYFAR *)CYREG_CTBM0_DFT_CTRL, 0x00000003u);
 439              		.loc 1 286 0
 440 0004 054B     		ldr	r3, .L14
 441 0006 0322     		mov	r2, #3
 442 0008 1A60     		str	r2, [r3]
 287:Generated_Source\PSoC4/cyfitter_cfg.c **** 	CY_SET_XTND_REG32((void CYFAR *)CYREG_CTBM1_DFT_CTRL, 0x00000003u);
 443              		.loc 1 287 0
 444 000a 054B     		ldr	r3, .L14+4
 445 000c 0322     		mov	r2, #3
 446 000e 1A60     		str	r2, [r3]
 288:Generated_Source\PSoC4/cyfitter_cfg.c **** 	CY_SET_XTND_REG32((void CYFAR *)CYREG_PASS_DSAB_DSAB_CTRL, 0x00000000u);
 447              		.loc 1 288 0
 448 0010 044B     		ldr	r3, .L14+8
 449 0012 0022     		mov	r2, #0
 450 0014 1A60     		str	r2, [r3]
ARM GAS  C:\Users\Petro\AppData\Local\Temp\ccWntimC.s 			page 14


 289:Generated_Source\PSoC4/cyfitter_cfg.c **** }
 451              		.loc 1 289 0
 452 0016 BD46     		mov	sp, r7
 453              		@ sp needed
 454 0018 80BD     		pop	{r7, pc}
 455              	.L15:
 456 001a C046     		.align	2
 457              	.L14:
 458 001c 30003040 		.word	1076887600
 459 0020 30003140 		.word	1076953136
 460 0024 000E3F40 		.word	1077874176
 461              		.cfi_endproc
 462              	.LFE7:
 463              		.size	AnalogSetDefault, .-AnalogSetDefault
 464              		.section	.psocinit
 465              		.align	2
 466              		.global	cyfitter_cfg
 467              		.code	16
 468              		.thumb_func
 469              		.type	cyfitter_cfg, %function
 470              	cyfitter_cfg:
 471              	.LFB8:
 290:Generated_Source\PSoC4/cyfitter_cfg.c **** 
 291:Generated_Source\PSoC4/cyfitter_cfg.c **** #define CY_AMUX_UNUSED CYREG_CM0_ROM_DWT
 292:Generated_Source\PSoC4/cyfitter_cfg.c **** 
 293:Generated_Source\PSoC4/cyfitter_cfg.c **** 
 294:Generated_Source\PSoC4/cyfitter_cfg.c **** /*******************************************************************************
 295:Generated_Source\PSoC4/cyfitter_cfg.c **** * Function Name: cyfitter_cfg
 296:Generated_Source\PSoC4/cyfitter_cfg.c **** ********************************************************************************
 297:Generated_Source\PSoC4/cyfitter_cfg.c **** * Summary:
 298:Generated_Source\PSoC4/cyfitter_cfg.c **** *  This function is called by the start-up code for the selected device. It
 299:Generated_Source\PSoC4/cyfitter_cfg.c **** *  performs all of the necessary device configuration based on the design
 300:Generated_Source\PSoC4/cyfitter_cfg.c **** *  settings.  This includes settings from the Design Wide Resources (DWR) such
 301:Generated_Source\PSoC4/cyfitter_cfg.c **** *  as Clocks and Pins as well as any component configuration that is necessary.
 302:Generated_Source\PSoC4/cyfitter_cfg.c **** *
 303:Generated_Source\PSoC4/cyfitter_cfg.c **** * Parameters:  
 304:Generated_Source\PSoC4/cyfitter_cfg.c **** *   void
 305:Generated_Source\PSoC4/cyfitter_cfg.c **** *
 306:Generated_Source\PSoC4/cyfitter_cfg.c **** * Return:
 307:Generated_Source\PSoC4/cyfitter_cfg.c **** *   void
 308:Generated_Source\PSoC4/cyfitter_cfg.c **** *
 309:Generated_Source\PSoC4/cyfitter_cfg.c **** *******************************************************************************/
 310:Generated_Source\PSoC4/cyfitter_cfg.c **** CY_CFG_SECTION
 311:Generated_Source\PSoC4/cyfitter_cfg.c **** void cyfitter_cfg(void)
 312:Generated_Source\PSoC4/cyfitter_cfg.c **** {
 472              		.loc 1 312 0
 473              		.cfi_startproc
 474 0168 80B5     		push	{r7, lr}
 475              		.cfi_def_cfa_offset 8
 476              		.cfi_offset 7, -8
 477              		.cfi_offset 14, -4
 478 016a 82B0     		sub	sp, sp, #8
 479              		.cfi_def_cfa_offset 16
 480 016c 00AF     		add	r7, sp, #0
 481              		.cfi_def_cfa_register 7
 313:Generated_Source\PSoC4/cyfitter_cfg.c **** 	/* Disable interrupts by default. Let user enable if/when they want. */
 314:Generated_Source\PSoC4/cyfitter_cfg.c **** 	CyGlobalIntDisable;
ARM GAS  C:\Users\Petro\AppData\Local\Temp\ccWntimC.s 			page 15


 482              		.loc 1 314 0
 483              	@ 314 "Generated_Source\PSoC4\cyfitter_cfg.c" 1
 484 016e 72B6     		CPSID   i
 485              	@ 0 "" 2
 315:Generated_Source\PSoC4/cyfitter_cfg.c **** 
 316:Generated_Source\PSoC4/cyfitter_cfg.c **** 	CY_SET_XTND_REG32((void CYFAR *)(CYREG_BLE_BLESS_LL_DSM_CTRL), 0x00000000u);
 486              		.loc 1 316 0
 487              		.code	16
 488 0170 4C4B     		ldr	r3, .L19
 489 0172 0022     		mov	r2, #0
 490 0174 1A60     		str	r2, [r3]
 317:Generated_Source\PSoC4/cyfitter_cfg.c **** 
 318:Generated_Source\PSoC4/cyfitter_cfg.c **** 	/* Enable the clock in the interrupt controller for the routed interrupts */
 319:Generated_Source\PSoC4/cyfitter_cfg.c **** 	CY_SET_REG8((void *)CYREG_UDB_UDBIF_INT_CLK_CTL, 0x01u);
 491              		.loc 1 319 0
 492 0176 4C4B     		ldr	r3, .L19+4
 493 0178 0122     		mov	r2, #1
 494 017a 1A70     		strb	r2, [r3]
 495              	.LBB3:
 320:Generated_Source\PSoC4/cyfitter_cfg.c **** 	{
 321:Generated_Source\PSoC4/cyfitter_cfg.c **** 		static const uint32 CYCODE cy_cfg_addr_table[] = {
 322:Generated_Source\PSoC4/cyfitter_cfg.c **** 			0x400F0002u, /* Base address: 0x400F0000 Count: 2 */
 323:Generated_Source\PSoC4/cyfitter_cfg.c **** 			0x400F3046u, /* Base address: 0x400F3000 Count: 70 */
 324:Generated_Source\PSoC4/cyfitter_cfg.c **** 			0x400F3124u, /* Base address: 0x400F3100 Count: 36 */
 325:Generated_Source\PSoC4/cyfitter_cfg.c **** 			0x400F323Eu, /* Base address: 0x400F3200 Count: 62 */
 326:Generated_Source\PSoC4/cyfitter_cfg.c **** 			0x400F332Eu, /* Base address: 0x400F3300 Count: 46 */
 327:Generated_Source\PSoC4/cyfitter_cfg.c **** 			0x400F4002u, /* Base address: 0x400F4000 Count: 2 */
 328:Generated_Source\PSoC4/cyfitter_cfg.c **** 			0x400F4107u, /* Base address: 0x400F4100 Count: 7 */
 329:Generated_Source\PSoC4/cyfitter_cfg.c **** 			0x400F4204u, /* Base address: 0x400F4200 Count: 4 */
 330:Generated_Source\PSoC4/cyfitter_cfg.c **** 			0x400F4303u, /* Base address: 0x400F4300 Count: 3 */
 331:Generated_Source\PSoC4/cyfitter_cfg.c **** 			0x400F6002u, /* Base address: 0x400F6000 Count: 2 */
 332:Generated_Source\PSoC4/cyfitter_cfg.c **** 		};
 333:Generated_Source\PSoC4/cyfitter_cfg.c **** 
 334:Generated_Source\PSoC4/cyfitter_cfg.c **** 		static const cy_cfg_addrvalue_t CYCODE cy_cfg_data_table[] = {
 335:Generated_Source\PSoC4/cyfitter_cfg.c **** 			{0x80u, 0x0Du},
 336:Generated_Source\PSoC4/cyfitter_cfg.c **** 			{0x81u, 0x0Du},
 337:Generated_Source\PSoC4/cyfitter_cfg.c **** 			{0x03u, 0x04u},
 338:Generated_Source\PSoC4/cyfitter_cfg.c **** 			{0x04u, 0x02u},
 339:Generated_Source\PSoC4/cyfitter_cfg.c **** 			{0x05u, 0x02u},
 340:Generated_Source\PSoC4/cyfitter_cfg.c **** 			{0x06u, 0x10u},
 341:Generated_Source\PSoC4/cyfitter_cfg.c **** 			{0x0Cu, 0x08u},
 342:Generated_Source\PSoC4/cyfitter_cfg.c **** 			{0x0Eu, 0x11u},
 343:Generated_Source\PSoC4/cyfitter_cfg.c **** 			{0x12u, 0x2Eu},
 344:Generated_Source\PSoC4/cyfitter_cfg.c **** 			{0x14u, 0x1Eu},
 345:Generated_Source\PSoC4/cyfitter_cfg.c **** 			{0x1Bu, 0x03u},
 346:Generated_Source\PSoC4/cyfitter_cfg.c **** 			{0x1Cu, 0x04u},
 347:Generated_Source\PSoC4/cyfitter_cfg.c **** 			{0x1Eu, 0x11u},
 348:Generated_Source\PSoC4/cyfitter_cfg.c **** 			{0x30u, 0x01u},
 349:Generated_Source\PSoC4/cyfitter_cfg.c **** 			{0x31u, 0x02u},
 350:Generated_Source\PSoC4/cyfitter_cfg.c **** 			{0x32u, 0x10u},
 351:Generated_Source\PSoC4/cyfitter_cfg.c **** 			{0x33u, 0x01u},
 352:Generated_Source\PSoC4/cyfitter_cfg.c **** 			{0x34u, 0x0Eu},
 353:Generated_Source\PSoC4/cyfitter_cfg.c **** 			{0x35u, 0x04u},
 354:Generated_Source\PSoC4/cyfitter_cfg.c **** 			{0x36u, 0x20u},
 355:Generated_Source\PSoC4/cyfitter_cfg.c **** 			{0x3Au, 0x08u},
 356:Generated_Source\PSoC4/cyfitter_cfg.c **** 			{0x3Eu, 0x01u},
 357:Generated_Source\PSoC4/cyfitter_cfg.c **** 			{0x40u, 0x21u},
ARM GAS  C:\Users\Petro\AppData\Local\Temp\ccWntimC.s 			page 16


 358:Generated_Source\PSoC4/cyfitter_cfg.c **** 			{0x49u, 0xFFu},
 359:Generated_Source\PSoC4/cyfitter_cfg.c **** 			{0x4Au, 0xFFu},
 360:Generated_Source\PSoC4/cyfitter_cfg.c **** 			{0x4Bu, 0xFFu},
 361:Generated_Source\PSoC4/cyfitter_cfg.c **** 			{0x4Fu, 0x01u},
 362:Generated_Source\PSoC4/cyfitter_cfg.c **** 			{0x50u, 0x18u},
 363:Generated_Source\PSoC4/cyfitter_cfg.c **** 			{0x52u, 0x80u},
 364:Generated_Source\PSoC4/cyfitter_cfg.c **** 			{0x54u, 0x05u},
 365:Generated_Source\PSoC4/cyfitter_cfg.c **** 			{0x58u, 0x0Au},
 366:Generated_Source\PSoC4/cyfitter_cfg.c **** 			{0x59u, 0x04u},
 367:Generated_Source\PSoC4/cyfitter_cfg.c **** 			{0x5Au, 0x0Au},
 368:Generated_Source\PSoC4/cyfitter_cfg.c **** 			{0x5Bu, 0x04u},
 369:Generated_Source\PSoC4/cyfitter_cfg.c **** 			{0x5Cu, 0x09u},
 370:Generated_Source\PSoC4/cyfitter_cfg.c **** 			{0x5Du, 0x09u},
 371:Generated_Source\PSoC4/cyfitter_cfg.c **** 			{0x5Fu, 0x01u},
 372:Generated_Source\PSoC4/cyfitter_cfg.c **** 			{0x60u, 0x40u},
 373:Generated_Source\PSoC4/cyfitter_cfg.c **** 			{0x62u, 0x40u},
 374:Generated_Source\PSoC4/cyfitter_cfg.c **** 			{0x64u, 0x40u},
 375:Generated_Source\PSoC4/cyfitter_cfg.c **** 			{0x65u, 0x40u},
 376:Generated_Source\PSoC4/cyfitter_cfg.c **** 			{0x66u, 0x80u},
 377:Generated_Source\PSoC4/cyfitter_cfg.c **** 			{0x68u, 0x80u},
 378:Generated_Source\PSoC4/cyfitter_cfg.c **** 			{0x6Au, 0x80u},
 379:Generated_Source\PSoC4/cyfitter_cfg.c **** 			{0x6Cu, 0x80u},
 380:Generated_Source\PSoC4/cyfitter_cfg.c **** 			{0x6Eu, 0x80u},
 381:Generated_Source\PSoC4/cyfitter_cfg.c **** 			{0xA5u, 0x01u},
 382:Generated_Source\PSoC4/cyfitter_cfg.c **** 			{0xB3u, 0x01u},
 383:Generated_Source\PSoC4/cyfitter_cfg.c **** 			{0xBFu, 0x04u},
 384:Generated_Source\PSoC4/cyfitter_cfg.c **** 			{0xC0u, 0x61u},
 385:Generated_Source\PSoC4/cyfitter_cfg.c **** 			{0xC9u, 0xFFu},
 386:Generated_Source\PSoC4/cyfitter_cfg.c **** 			{0xCAu, 0xFFu},
 387:Generated_Source\PSoC4/cyfitter_cfg.c **** 			{0xCBu, 0xFFu},
 388:Generated_Source\PSoC4/cyfitter_cfg.c **** 			{0xCDu, 0x83u},
 389:Generated_Source\PSoC4/cyfitter_cfg.c **** 			{0xCEu, 0x03u},
 390:Generated_Source\PSoC4/cyfitter_cfg.c **** 			{0xCFu, 0x01u},
 391:Generated_Source\PSoC4/cyfitter_cfg.c **** 			{0xD0u, 0x18u},
 392:Generated_Source\PSoC4/cyfitter_cfg.c **** 			{0xD4u, 0x01u},
 393:Generated_Source\PSoC4/cyfitter_cfg.c **** 			{0xD9u, 0x04u},
 394:Generated_Source\PSoC4/cyfitter_cfg.c **** 			{0xDAu, 0x09u},
 395:Generated_Source\PSoC4/cyfitter_cfg.c **** 			{0xDBu, 0x09u},
 396:Generated_Source\PSoC4/cyfitter_cfg.c **** 			{0xDDu, 0x99u},
 397:Generated_Source\PSoC4/cyfitter_cfg.c **** 			{0xDFu, 0x01u},
 398:Generated_Source\PSoC4/cyfitter_cfg.c **** 			{0xE0u, 0x40u},
 399:Generated_Source\PSoC4/cyfitter_cfg.c **** 			{0xE2u, 0x40u},
 400:Generated_Source\PSoC4/cyfitter_cfg.c **** 			{0xE4u, 0x40u},
 401:Generated_Source\PSoC4/cyfitter_cfg.c **** 			{0xE5u, 0x40u},
 402:Generated_Source\PSoC4/cyfitter_cfg.c **** 			{0xE6u, 0x80u},
 403:Generated_Source\PSoC4/cyfitter_cfg.c **** 			{0xE8u, 0x80u},
 404:Generated_Source\PSoC4/cyfitter_cfg.c **** 			{0xEAu, 0x80u},
 405:Generated_Source\PSoC4/cyfitter_cfg.c **** 			{0xECu, 0x80u},
 406:Generated_Source\PSoC4/cyfitter_cfg.c **** 			{0xEEu, 0x80u},
 407:Generated_Source\PSoC4/cyfitter_cfg.c **** 			{0x00u, 0x04u},
 408:Generated_Source\PSoC4/cyfitter_cfg.c **** 			{0x02u, 0x01u},
 409:Generated_Source\PSoC4/cyfitter_cfg.c **** 			{0x0Au, 0x11u},
 410:Generated_Source\PSoC4/cyfitter_cfg.c **** 			{0x0Bu, 0x40u},
 411:Generated_Source\PSoC4/cyfitter_cfg.c **** 			{0x18u, 0x44u},
 412:Generated_Source\PSoC4/cyfitter_cfg.c **** 			{0x1Au, 0x11u},
 413:Generated_Source\PSoC4/cyfitter_cfg.c **** 			{0x1Bu, 0x10u},
 414:Generated_Source\PSoC4/cyfitter_cfg.c **** 			{0x20u, 0x08u},
ARM GAS  C:\Users\Petro\AppData\Local\Temp\ccWntimC.s 			page 17


 415:Generated_Source\PSoC4/cyfitter_cfg.c **** 			{0x21u, 0x04u},
 416:Generated_Source\PSoC4/cyfitter_cfg.c **** 			{0x23u, 0x80u},
 417:Generated_Source\PSoC4/cyfitter_cfg.c **** 			{0x27u, 0x20u},
 418:Generated_Source\PSoC4/cyfitter_cfg.c **** 			{0x2Fu, 0x10u},
 419:Generated_Source\PSoC4/cyfitter_cfg.c **** 			{0x30u, 0x20u},
 420:Generated_Source\PSoC4/cyfitter_cfg.c **** 			{0x38u, 0x02u},
 421:Generated_Source\PSoC4/cyfitter_cfg.c **** 			{0x39u, 0x08u},
 422:Generated_Source\PSoC4/cyfitter_cfg.c **** 			{0x40u, 0x04u},
 423:Generated_Source\PSoC4/cyfitter_cfg.c **** 			{0x42u, 0x02u},
 424:Generated_Source\PSoC4/cyfitter_cfg.c **** 			{0x46u, 0x02u},
 425:Generated_Source\PSoC4/cyfitter_cfg.c **** 			{0x4Fu, 0x20u},
 426:Generated_Source\PSoC4/cyfitter_cfg.c **** 			{0x59u, 0x06u},
 427:Generated_Source\PSoC4/cyfitter_cfg.c **** 			{0x5Bu, 0x80u},
 428:Generated_Source\PSoC4/cyfitter_cfg.c **** 			{0x5Cu, 0x40u},
 429:Generated_Source\PSoC4/cyfitter_cfg.c **** 			{0x5Fu, 0x05u},
 430:Generated_Source\PSoC4/cyfitter_cfg.c **** 			{0x70u, 0x01u},
 431:Generated_Source\PSoC4/cyfitter_cfg.c **** 			{0x78u, 0x04u},
 432:Generated_Source\PSoC4/cyfitter_cfg.c **** 			{0x7Fu, 0x04u},
 433:Generated_Source\PSoC4/cyfitter_cfg.c **** 			{0x8Du, 0x80u},
 434:Generated_Source\PSoC4/cyfitter_cfg.c **** 			{0xC0u, 0x05u},
 435:Generated_Source\PSoC4/cyfitter_cfg.c **** 			{0xC2u, 0x0Du},
 436:Generated_Source\PSoC4/cyfitter_cfg.c **** 			{0xCAu, 0x40u},
 437:Generated_Source\PSoC4/cyfitter_cfg.c **** 			{0xCCu, 0x04u},
 438:Generated_Source\PSoC4/cyfitter_cfg.c **** 			{0xCEu, 0x03u},
 439:Generated_Source\PSoC4/cyfitter_cfg.c **** 			{0xD0u, 0x1Cu},
 440:Generated_Source\PSoC4/cyfitter_cfg.c **** 			{0xD2u, 0x20u},
 441:Generated_Source\PSoC4/cyfitter_cfg.c **** 			{0xD6u, 0xDBu},
 442:Generated_Source\PSoC4/cyfitter_cfg.c **** 			{0xDEu, 0x22u},
 443:Generated_Source\PSoC4/cyfitter_cfg.c **** 			{0x40u, 0x61u},
 444:Generated_Source\PSoC4/cyfitter_cfg.c **** 			{0x45u, 0xECu},
 445:Generated_Source\PSoC4/cyfitter_cfg.c **** 			{0x47u, 0x20u},
 446:Generated_Source\PSoC4/cyfitter_cfg.c **** 			{0x48u, 0x23u},
 447:Generated_Source\PSoC4/cyfitter_cfg.c **** 			{0x49u, 0xFFu},
 448:Generated_Source\PSoC4/cyfitter_cfg.c **** 			{0x4Au, 0xFFu},
 449:Generated_Source\PSoC4/cyfitter_cfg.c **** 			{0x4Bu, 0xFFu},
 450:Generated_Source\PSoC4/cyfitter_cfg.c **** 			{0x4Du, 0x83u},
 451:Generated_Source\PSoC4/cyfitter_cfg.c **** 			{0x4Eu, 0x03u},
 452:Generated_Source\PSoC4/cyfitter_cfg.c **** 			{0x4Fu, 0x01u},
 453:Generated_Source\PSoC4/cyfitter_cfg.c **** 			{0x50u, 0x18u},
 454:Generated_Source\PSoC4/cyfitter_cfg.c **** 			{0x56u, 0x08u},
 455:Generated_Source\PSoC4/cyfitter_cfg.c **** 			{0x5Au, 0x09u},
 456:Generated_Source\PSoC4/cyfitter_cfg.c **** 			{0x5Bu, 0x04u},
 457:Generated_Source\PSoC4/cyfitter_cfg.c **** 			{0x5Du, 0x99u},
 458:Generated_Source\PSoC4/cyfitter_cfg.c **** 			{0x5Fu, 0x01u},
 459:Generated_Source\PSoC4/cyfitter_cfg.c **** 			{0x60u, 0x40u},
 460:Generated_Source\PSoC4/cyfitter_cfg.c **** 			{0x62u, 0x40u},
 461:Generated_Source\PSoC4/cyfitter_cfg.c **** 			{0x64u, 0x40u},
 462:Generated_Source\PSoC4/cyfitter_cfg.c **** 			{0x65u, 0x40u},
 463:Generated_Source\PSoC4/cyfitter_cfg.c **** 			{0x66u, 0x80u},
 464:Generated_Source\PSoC4/cyfitter_cfg.c **** 			{0x68u, 0x80u},
 465:Generated_Source\PSoC4/cyfitter_cfg.c **** 			{0x6Au, 0x80u},
 466:Generated_Source\PSoC4/cyfitter_cfg.c **** 			{0x6Cu, 0x80u},
 467:Generated_Source\PSoC4/cyfitter_cfg.c **** 			{0x6Eu, 0x80u},
 468:Generated_Source\PSoC4/cyfitter_cfg.c **** 			{0x86u, 0x01u},
 469:Generated_Source\PSoC4/cyfitter_cfg.c **** 			{0x8Au, 0x01u},
 470:Generated_Source\PSoC4/cyfitter_cfg.c **** 			{0x9Bu, 0x01u},
 471:Generated_Source\PSoC4/cyfitter_cfg.c **** 			{0xABu, 0x01u},
ARM GAS  C:\Users\Petro\AppData\Local\Temp\ccWntimC.s 			page 18


 472:Generated_Source\PSoC4/cyfitter_cfg.c **** 			{0xACu, 0x02u},
 473:Generated_Source\PSoC4/cyfitter_cfg.c **** 			{0xB1u, 0x01u},
 474:Generated_Source\PSoC4/cyfitter_cfg.c **** 			{0xB2u, 0x01u},
 475:Generated_Source\PSoC4/cyfitter_cfg.c **** 			{0xB6u, 0x02u},
 476:Generated_Source\PSoC4/cyfitter_cfg.c **** 			{0xBEu, 0x44u},
 477:Generated_Source\PSoC4/cyfitter_cfg.c **** 			{0xC0u, 0x60u},
 478:Generated_Source\PSoC4/cyfitter_cfg.c **** 			{0xC1u, 0x03u},
 479:Generated_Source\PSoC4/cyfitter_cfg.c **** 			{0xC5u, 0xD0u},
 480:Generated_Source\PSoC4/cyfitter_cfg.c **** 			{0xC6u, 0x10u},
 481:Generated_Source\PSoC4/cyfitter_cfg.c **** 			{0xC7u, 0x02u},
 482:Generated_Source\PSoC4/cyfitter_cfg.c **** 			{0xC8u, 0x1Au},
 483:Generated_Source\PSoC4/cyfitter_cfg.c **** 			{0xC9u, 0xFFu},
 484:Generated_Source\PSoC4/cyfitter_cfg.c **** 			{0xCAu, 0xFFu},
 485:Generated_Source\PSoC4/cyfitter_cfg.c **** 			{0xCBu, 0xFFu},
 486:Generated_Source\PSoC4/cyfitter_cfg.c **** 			{0xCDu, 0xA0u},
 487:Generated_Source\PSoC4/cyfitter_cfg.c **** 			{0xCFu, 0x04u},
 488:Generated_Source\PSoC4/cyfitter_cfg.c **** 			{0xD0u, 0x18u},
 489:Generated_Source\PSoC4/cyfitter_cfg.c **** 			{0xD2u, 0x80u},
 490:Generated_Source\PSoC4/cyfitter_cfg.c **** 			{0xD8u, 0x04u},
 491:Generated_Source\PSoC4/cyfitter_cfg.c **** 			{0xD9u, 0x04u},
 492:Generated_Source\PSoC4/cyfitter_cfg.c **** 			{0xDAu, 0x04u},
 493:Generated_Source\PSoC4/cyfitter_cfg.c **** 			{0xDBu, 0x0Bu},
 494:Generated_Source\PSoC4/cyfitter_cfg.c **** 			{0xDDu, 0x90u},
 495:Generated_Source\PSoC4/cyfitter_cfg.c **** 			{0xDFu, 0x01u},
 496:Generated_Source\PSoC4/cyfitter_cfg.c **** 			{0xE0u, 0x40u},
 497:Generated_Source\PSoC4/cyfitter_cfg.c **** 			{0xE2u, 0xC0u},
 498:Generated_Source\PSoC4/cyfitter_cfg.c **** 			{0xE4u, 0x40u},
 499:Generated_Source\PSoC4/cyfitter_cfg.c **** 			{0xE5u, 0x40u},
 500:Generated_Source\PSoC4/cyfitter_cfg.c **** 			{0xE6u, 0xC0u},
 501:Generated_Source\PSoC4/cyfitter_cfg.c **** 			{0xE8u, 0xC0u},
 502:Generated_Source\PSoC4/cyfitter_cfg.c **** 			{0xEAu, 0xC0u},
 503:Generated_Source\PSoC4/cyfitter_cfg.c **** 			{0xECu, 0xC0u},
 504:Generated_Source\PSoC4/cyfitter_cfg.c **** 			{0xEEu, 0xC0u},
 505:Generated_Source\PSoC4/cyfitter_cfg.c **** 			{0x00u, 0x08u},
 506:Generated_Source\PSoC4/cyfitter_cfg.c **** 			{0x03u, 0x08u},
 507:Generated_Source\PSoC4/cyfitter_cfg.c **** 			{0x12u, 0x02u},
 508:Generated_Source\PSoC4/cyfitter_cfg.c **** 			{0x19u, 0x04u},
 509:Generated_Source\PSoC4/cyfitter_cfg.c **** 			{0x1Bu, 0x80u},
 510:Generated_Source\PSoC4/cyfitter_cfg.c **** 			{0x22u, 0x02u},
 511:Generated_Source\PSoC4/cyfitter_cfg.c **** 			{0x29u, 0x10u},
 512:Generated_Source\PSoC4/cyfitter_cfg.c **** 			{0x30u, 0x20u},
 513:Generated_Source\PSoC4/cyfitter_cfg.c **** 			{0x43u, 0x08u},
 514:Generated_Source\PSoC4/cyfitter_cfg.c **** 			{0x46u, 0x02u},
 515:Generated_Source\PSoC4/cyfitter_cfg.c **** 			{0x48u, 0x04u},
 516:Generated_Source\PSoC4/cyfitter_cfg.c **** 			{0x49u, 0x12u},
 517:Generated_Source\PSoC4/cyfitter_cfg.c **** 			{0x4Fu, 0x25u},
 518:Generated_Source\PSoC4/cyfitter_cfg.c **** 			{0x50u, 0x20u},
 519:Generated_Source\PSoC4/cyfitter_cfg.c **** 			{0x53u, 0x08u},
 520:Generated_Source\PSoC4/cyfitter_cfg.c **** 			{0x56u, 0x03u},
 521:Generated_Source\PSoC4/cyfitter_cfg.c **** 			{0x5Du, 0xA0u},
 522:Generated_Source\PSoC4/cyfitter_cfg.c **** 			{0x5Eu, 0x80u},
 523:Generated_Source\PSoC4/cyfitter_cfg.c **** 			{0x64u, 0x05u},
 524:Generated_Source\PSoC4/cyfitter_cfg.c **** 			{0x67u, 0x08u},
 525:Generated_Source\PSoC4/cyfitter_cfg.c **** 			{0x73u, 0x40u},
 526:Generated_Source\PSoC4/cyfitter_cfg.c **** 			{0x78u, 0x01u},
 527:Generated_Source\PSoC4/cyfitter_cfg.c **** 			{0x7Fu, 0x04u},
 528:Generated_Source\PSoC4/cyfitter_cfg.c **** 			{0x83u, 0x80u},
ARM GAS  C:\Users\Petro\AppData\Local\Temp\ccWntimC.s 			page 19


 529:Generated_Source\PSoC4/cyfitter_cfg.c **** 			{0x85u, 0x20u},
 530:Generated_Source\PSoC4/cyfitter_cfg.c **** 			{0x86u, 0x40u},
 531:Generated_Source\PSoC4/cyfitter_cfg.c **** 			{0x97u, 0x4Du},
 532:Generated_Source\PSoC4/cyfitter_cfg.c **** 			{0x99u, 0x80u},
 533:Generated_Source\PSoC4/cyfitter_cfg.c **** 			{0x9Cu, 0x04u},
 534:Generated_Source\PSoC4/cyfitter_cfg.c **** 			{0x9Du, 0x06u},
 535:Generated_Source\PSoC4/cyfitter_cfg.c **** 			{0x9Eu, 0x03u},
 536:Generated_Source\PSoC4/cyfitter_cfg.c **** 			{0xA0u, 0x04u},
 537:Generated_Source\PSoC4/cyfitter_cfg.c **** 			{0xA3u, 0x10u},
 538:Generated_Source\PSoC4/cyfitter_cfg.c **** 			{0xA4u, 0x20u},
 539:Generated_Source\PSoC4/cyfitter_cfg.c **** 			{0xABu, 0x20u},
 540:Generated_Source\PSoC4/cyfitter_cfg.c **** 			{0xAFu, 0x10u},
 541:Generated_Source\PSoC4/cyfitter_cfg.c **** 			{0xC0u, 0x06u},
 542:Generated_Source\PSoC4/cyfitter_cfg.c **** 			{0xC4u, 0x01u},
 543:Generated_Source\PSoC4/cyfitter_cfg.c **** 			{0xCAu, 0x04u},
 544:Generated_Source\PSoC4/cyfitter_cfg.c **** 			{0xCCu, 0x04u},
 545:Generated_Source\PSoC4/cyfitter_cfg.c **** 			{0xD0u, 0x12u},
 546:Generated_Source\PSoC4/cyfitter_cfg.c **** 			{0xD2u, 0x24u},
 547:Generated_Source\PSoC4/cyfitter_cfg.c **** 			{0xD6u, 0x30u},
 548:Generated_Source\PSoC4/cyfitter_cfg.c **** 			{0xD8u, 0x30u},
 549:Generated_Source\PSoC4/cyfitter_cfg.c **** 			{0xDEu, 0x21u},
 550:Generated_Source\PSoC4/cyfitter_cfg.c **** 			{0xE4u, 0x04u},
 551:Generated_Source\PSoC4/cyfitter_cfg.c **** 			{0x03u, 0x08u},
 552:Generated_Source\PSoC4/cyfitter_cfg.c **** 			{0xC0u, 0x40u},
 553:Generated_Source\PSoC4/cyfitter_cfg.c **** 			{0x6Fu, 0x04u},
 554:Generated_Source\PSoC4/cyfitter_cfg.c **** 			{0x9Bu, 0x04u},
 555:Generated_Source\PSoC4/cyfitter_cfg.c **** 			{0xABu, 0x04u},
 556:Generated_Source\PSoC4/cyfitter_cfg.c **** 			{0xAFu, 0x08u},
 557:Generated_Source\PSoC4/cyfitter_cfg.c **** 			{0xDAu, 0x80u},
 558:Generated_Source\PSoC4/cyfitter_cfg.c **** 			{0xEAu, 0x80u},
 559:Generated_Source\PSoC4/cyfitter_cfg.c **** 			{0xECu, 0x40u},
 560:Generated_Source\PSoC4/cyfitter_cfg.c **** 			{0x27u, 0x10u},
 561:Generated_Source\PSoC4/cyfitter_cfg.c **** 			{0x8Fu, 0x10u},
 562:Generated_Source\PSoC4/cyfitter_cfg.c **** 			{0xC8u, 0x01u},
 563:Generated_Source\PSoC4/cyfitter_cfg.c **** 			{0xE6u, 0x02u},
 564:Generated_Source\PSoC4/cyfitter_cfg.c **** 			{0x67u, 0x02u},
 565:Generated_Source\PSoC4/cyfitter_cfg.c **** 			{0x83u, 0x01u},
 566:Generated_Source\PSoC4/cyfitter_cfg.c **** 			{0xD6u, 0x01u},
 567:Generated_Source\PSoC4/cyfitter_cfg.c **** 			{0x10u, 0x01u},
 568:Generated_Source\PSoC4/cyfitter_cfg.c **** 			{0x11u, 0x01u},
 569:Generated_Source\PSoC4/cyfitter_cfg.c **** 		};
 570:Generated_Source\PSoC4/cyfitter_cfg.c **** 
 571:Generated_Source\PSoC4/cyfitter_cfg.c **** 
 572:Generated_Source\PSoC4/cyfitter_cfg.c **** 
 573:Generated_Source\PSoC4/cyfitter_cfg.c **** 		CYPACKED typedef struct {
 574:Generated_Source\PSoC4/cyfitter_cfg.c **** 			void CYFAR *address;
 575:Generated_Source\PSoC4/cyfitter_cfg.c **** 			uint16 size;
 576:Generated_Source\PSoC4/cyfitter_cfg.c **** 		} CYPACKED_ATTR cfg_memset_t;
 577:Generated_Source\PSoC4/cyfitter_cfg.c **** 
 578:Generated_Source\PSoC4/cyfitter_cfg.c **** 		static const cfg_memset_t CYCODE cfg_memset_list [] = {
 579:Generated_Source\PSoC4/cyfitter_cfg.c **** 			/* address, size */
 580:Generated_Source\PSoC4/cyfitter_cfg.c **** 			{(void CYFAR *)(CYDEV_UDB_P0_U0_BASE), 1024u},
 581:Generated_Source\PSoC4/cyfitter_cfg.c **** 			{(void CYFAR *)(CYDEV_UDB_DSI0_BASE), 1024u},
 582:Generated_Source\PSoC4/cyfitter_cfg.c **** 		};
 583:Generated_Source\PSoC4/cyfitter_cfg.c **** 
 584:Generated_Source\PSoC4/cyfitter_cfg.c **** 		uint8 CYDATA i;
 585:Generated_Source\PSoC4/cyfitter_cfg.c **** 
ARM GAS  C:\Users\Petro\AppData\Local\Temp\ccWntimC.s 			page 20


 586:Generated_Source\PSoC4/cyfitter_cfg.c **** 		/* Zero out critical memory blocks before beginning configuration */
 587:Generated_Source\PSoC4/cyfitter_cfg.c **** 		for (i = 0u; i < (sizeof(cfg_memset_list)/sizeof(cfg_memset_list[0])); i++)
 496              		.loc 1 587 0
 497 017c FB1D     		add	r3, r7, #7
 498 017e 0022     		mov	r2, #0
 499 0180 1A70     		strb	r2, [r3]
 500 0182 23E0     		b	.L17
 501              	.L18:
 502              	.LBB4:
 588:Generated_Source\PSoC4/cyfitter_cfg.c **** 		{
 589:Generated_Source\PSoC4/cyfitter_cfg.c **** 			const cfg_memset_t CYCODE * CYDATA ms = &cfg_memset_list[i];
 503              		.loc 1 589 0 discriminator 3
 504 0184 FB1D     		add	r3, r7, #7
 505 0186 1A78     		ldrb	r2, [r3]
 506 0188 131C     		mov	r3, r2
 507 018a 5B00     		lsl	r3, r3, #1
 508 018c 9B18     		add	r3, r3, r2
 509 018e 5B00     		lsl	r3, r3, #1
 510 0190 464A     		ldr	r2, .L19+8
 511 0192 9B18     		add	r3, r3, r2
 512 0194 3B60     		str	r3, [r7]
 590:Generated_Source\PSoC4/cyfitter_cfg.c **** 			CYMEMZERO(ms->address, (size_t)(uint32)(ms->size));
 513              		.loc 1 590 0 discriminator 3
 514 0196 3B68     		ldr	r3, [r7]
 515 0198 1A78     		ldrb	r2, [r3]
 516 019a 5978     		ldrb	r1, [r3, #1]
 517 019c 0902     		lsl	r1, r1, #8
 518 019e 0A43     		orr	r2, r1
 519 01a0 9978     		ldrb	r1, [r3, #2]
 520 01a2 0904     		lsl	r1, r1, #16
 521 01a4 0A43     		orr	r2, r1
 522 01a6 DB78     		ldrb	r3, [r3, #3]
 523 01a8 1B06     		lsl	r3, r3, #24
 524 01aa 1343     		orr	r3, r2
 525 01ac 191C     		mov	r1, r3
 526 01ae 3B68     		ldr	r3, [r7]
 527 01b0 1A79     		ldrb	r2, [r3, #4]
 528 01b2 5B79     		ldrb	r3, [r3, #5]
 529 01b4 1B02     		lsl	r3, r3, #8
 530 01b6 1343     		orr	r3, r2
 531 01b8 9BB2     		uxth	r3, r3
 532 01ba 081C     		mov	r0, r1
 533 01bc 191C     		mov	r1, r3
 534 01be FFF7FEFF 		bl	CYMEMZERO
 535              	.LBE4:
 587:Generated_Source\PSoC4/cyfitter_cfg.c **** 		{
 536              		.loc 1 587 0 discriminator 3
 537 01c2 FB1D     		add	r3, r7, #7
 538 01c4 1A78     		ldrb	r2, [r3]
 539 01c6 FB1D     		add	r3, r7, #7
 540 01c8 0132     		add	r2, r2, #1
 541 01ca 1A70     		strb	r2, [r3]
 542              	.L17:
 587:Generated_Source\PSoC4/cyfitter_cfg.c **** 		{
 543              		.loc 1 587 0 is_stmt 0 discriminator 1
 544 01cc FB1D     		add	r3, r7, #7
 545 01ce 1B78     		ldrb	r3, [r3]
ARM GAS  C:\Users\Petro\AppData\Local\Temp\ccWntimC.s 			page 21


 546 01d0 012B     		cmp	r3, #1
 547 01d2 D7D9     		bls	.L18
 591:Generated_Source\PSoC4/cyfitter_cfg.c **** 		}
 592:Generated_Source\PSoC4/cyfitter_cfg.c **** 
 593:Generated_Source\PSoC4/cyfitter_cfg.c **** 		cfg_write_bytes32(cy_cfg_addr_table, cy_cfg_data_table);
 548              		.loc 1 593 0 is_stmt 1
 549 01d4 364A     		ldr	r2, .L19+12
 550 01d6 374B     		ldr	r3, .L19+16
 551 01d8 101C     		mov	r0, r2
 552 01da 191C     		mov	r1, r3
 553 01dc FFF7FEFF 		bl	cfg_write_bytes32
 594:Generated_Source\PSoC4/cyfitter_cfg.c **** 
 595:Generated_Source\PSoC4/cyfitter_cfg.c **** 		/* Perform normal device configuration. Order is not critical for these items. */
 596:Generated_Source\PSoC4/cyfitter_cfg.c **** 		CY_SET_XTND_REG16((void CYFAR *)(CYREG_UDB_BCTL0_DRV), 0x0100u);
 554              		.loc 1 596 0
 555 01e0 354B     		ldr	r3, .L19+20
 556 01e2 8022     		mov	r2, #128
 557 01e4 5200     		lsl	r2, r2, #1
 558 01e6 1A80     		strh	r2, [r3]
 597:Generated_Source\PSoC4/cyfitter_cfg.c **** 		CY_SET_XTND_REG8((void CYFAR *)(CYREG_UDB_BCTL0_DRV + 0x2u), 0x01u);
 559              		.loc 1 597 0
 560 01e8 344B     		ldr	r3, .L19+24
 561 01ea 0122     		mov	r2, #1
 562 01ec 1A70     		strb	r2, [r3]
 598:Generated_Source\PSoC4/cyfitter_cfg.c **** 
 599:Generated_Source\PSoC4/cyfitter_cfg.c **** 		/* HSIOM Starting address: CYDEV_HSIOM_BASE */
 600:Generated_Source\PSoC4/cyfitter_cfg.c **** 		CY_SET_XTND_REG32((void CYFAR *)(CYDEV_HSIOM_BASE), 0xEE000099u);
 563              		.loc 1 600 0
 564 01ee 344B     		ldr	r3, .L19+28
 565 01f0 344A     		ldr	r2, .L19+32
 566 01f2 1A60     		str	r2, [r3]
 601:Generated_Source\PSoC4/cyfitter_cfg.c **** 		CY_SET_XTND_REG32((void CYFAR *)(CYREG_HSIOM_PORT_SEL3), 0x300000EEu);
 567              		.loc 1 601 0
 568 01f4 344B     		ldr	r3, .L19+36
 569 01f6 354A     		ldr	r2, .L19+40
 570 01f8 1A60     		str	r2, [r3]
 602:Generated_Source\PSoC4/cyfitter_cfg.c **** 
 603:Generated_Source\PSoC4/cyfitter_cfg.c **** 		/* UDB_PA_0 Starting address: CYDEV_UDB_PA0_BASE */
 604:Generated_Source\PSoC4/cyfitter_cfg.c **** 		CY_SET_XTND_REG32((void CYFAR *)(CYDEV_UDB_PA0_BASE), 0x00990000u);
 571              		.loc 1 604 0
 572 01fa 354B     		ldr	r3, .L19+44
 573 01fc 9922     		mov	r2, #153
 574 01fe 1204     		lsl	r2, r2, #16
 575 0200 1A60     		str	r2, [r3]
 605:Generated_Source\PSoC4/cyfitter_cfg.c **** 
 606:Generated_Source\PSoC4/cyfitter_cfg.c **** 		/* UDB_PA_1 Starting address: CYDEV_UDB_PA1_BASE */
 607:Generated_Source\PSoC4/cyfitter_cfg.c **** 		CY_SET_XTND_REG32((void CYFAR *)(CYDEV_UDB_PA1_BASE), 0x00990000u);
 576              		.loc 1 607 0
 577 0202 344B     		ldr	r3, .L19+48
 578 0204 9922     		mov	r2, #153
 579 0206 1204     		lsl	r2, r2, #16
 580 0208 1A60     		str	r2, [r3]
 608:Generated_Source\PSoC4/cyfitter_cfg.c **** 
 609:Generated_Source\PSoC4/cyfitter_cfg.c **** 		/* UDB_PA_2 Starting address: CYDEV_UDB_PA2_BASE */
 610:Generated_Source\PSoC4/cyfitter_cfg.c **** 		CY_SET_XTND_REG32((void CYFAR *)(CYDEV_UDB_PA2_BASE), 0x00990000u);
 581              		.loc 1 610 0
 582 020a 334B     		ldr	r3, .L19+52
ARM GAS  C:\Users\Petro\AppData\Local\Temp\ccWntimC.s 			page 22


 583 020c 9922     		mov	r2, #153
 584 020e 1204     		lsl	r2, r2, #16
 585 0210 1A60     		str	r2, [r3]
 611:Generated_Source\PSoC4/cyfitter_cfg.c **** 
 612:Generated_Source\PSoC4/cyfitter_cfg.c **** 		/* UDB_PA_3 Starting address: CYDEV_UDB_PA3_BASE */
 613:Generated_Source\PSoC4/cyfitter_cfg.c **** 		CY_SET_XTND_REG32((void CYFAR *)(CYDEV_UDB_PA3_BASE), 0x00990000u);
 586              		.loc 1 613 0
 587 0212 324B     		ldr	r3, .L19+56
 588 0214 9922     		mov	r2, #153
 589 0216 1204     		lsl	r2, r2, #16
 590 0218 1A60     		str	r2, [r3]
 614:Generated_Source\PSoC4/cyfitter_cfg.c **** 		CY_SET_XTND_REG32((void CYFAR *)(CYREG_UDB_PA3_CFG8), 0x40000000u);
 591              		.loc 1 614 0
 592 021a 314B     		ldr	r3, .L19+60
 593 021c 8022     		mov	r2, #128
 594 021e D205     		lsl	r2, r2, #23
 595 0220 1A60     		str	r2, [r3]
 615:Generated_Source\PSoC4/cyfitter_cfg.c **** 
 616:Generated_Source\PSoC4/cyfitter_cfg.c **** 		/* INT_SELECT Starting address: CYDEV_CPUSS_INT_SEL */
 617:Generated_Source\PSoC4/cyfitter_cfg.c **** 		CY_SET_XTND_REG32((void CYFAR *)(CYREG_CPUSS_INT_SEL), 0x00000002u);
 596              		.loc 1 617 0
 597 0222 304B     		ldr	r3, .L19+64
 598 0224 0222     		mov	r2, #2
 599 0226 1A60     		str	r2, [r3]
 618:Generated_Source\PSoC4/cyfitter_cfg.c **** 
 619:Generated_Source\PSoC4/cyfitter_cfg.c **** 		/* INT_CONFIG Starting address: CYDEV_UDB_INT_CFG */
 620:Generated_Source\PSoC4/cyfitter_cfg.c **** 		CY_SET_XTND_REG32((void CYFAR *)(CYREG_UDB_INT_CFG), 0x00000002u);
 600              		.loc 1 620 0
 601 0228 2F4B     		ldr	r3, .L19+68
 602 022a 0222     		mov	r2, #2
 603 022c 1A60     		str	r2, [r3]
 621:Generated_Source\PSoC4/cyfitter_cfg.c **** 
 622:Generated_Source\PSoC4/cyfitter_cfg.c **** 		/* Enable digital routing */
 623:Generated_Source\PSoC4/cyfitter_cfg.c **** 		CY_SET_XTND_REG8((void *)CYREG_UDB_UDBIF_BANK_CTL, CY_GET_XTND_REG8((void *)CYREG_UDB_UDBIF_BANK_
 604              		.loc 1 623 0
 605 022e 2F4A     		ldr	r2, .L19+72
 606 0230 2E4B     		ldr	r3, .L19+72
 607 0232 1B78     		ldrb	r3, [r3]
 608 0234 DBB2     		uxtb	r3, r3
 609 0236 0221     		mov	r1, #2
 610 0238 0B43     		orr	r3, r1
 611 023a DBB2     		uxtb	r3, r3
 612 023c 1370     		strb	r3, [r2]
 624:Generated_Source\PSoC4/cyfitter_cfg.c **** 
 625:Generated_Source\PSoC4/cyfitter_cfg.c **** 		/* Enable UDB array */
 626:Generated_Source\PSoC4/cyfitter_cfg.c **** 		CY_SET_XTND_REG8((void *)CYREG_UDB_UDBIF_WAIT_CFG, (uint8)((CY_GET_XTND_REG8((void *)CYREG_UDB_UD
 613              		.loc 1 626 0
 614 023e 2C4A     		ldr	r2, .L19+76
 615 0240 2B4B     		ldr	r3, .L19+76
 616 0242 1B78     		ldrb	r3, [r3]
 617 0244 DBB2     		uxtb	r3, r3
 618 0246 3C21     		mov	r1, #60
 619 0248 8B43     		bic	r3, r1
 620 024a DBB2     		uxtb	r3, r3
 621 024c 1421     		mov	r1, #20
 622 024e 0B43     		orr	r3, r1
 623 0250 DBB2     		uxtb	r3, r3
ARM GAS  C:\Users\Petro\AppData\Local\Temp\ccWntimC.s 			page 23


 624 0252 1370     		strb	r3, [r2]
 627:Generated_Source\PSoC4/cyfitter_cfg.c **** 		CY_SET_XTND_REG8((void *)CYREG_UDB_UDBIF_BANK_CTL, (uint8)(CY_GET_XTND_REG8((void *)CYREG_UDB_UDB
 625              		.loc 1 627 0
 626 0254 254A     		ldr	r2, .L19+72
 627 0256 254B     		ldr	r3, .L19+72
 628 0258 1B78     		ldrb	r3, [r3]
 629 025a DBB2     		uxtb	r3, r3
 630 025c 1621     		mov	r1, #22
 631 025e 0B43     		orr	r3, r1
 632 0260 DBB2     		uxtb	r3, r3
 633 0262 1370     		strb	r3, [r2]
 634              	.LBE3:
 628:Generated_Source\PSoC4/cyfitter_cfg.c **** 	}
 629:Generated_Source\PSoC4/cyfitter_cfg.c **** 
 630:Generated_Source\PSoC4/cyfitter_cfg.c **** 	/* Perform second pass device configuration. These items must be configured in specific order afte
 631:Generated_Source\PSoC4/cyfitter_cfg.c **** 	/* IOPINS0_0 Starting address: CYDEV_GPIO_PRT0_BASE */
 632:Generated_Source\PSoC4/cyfitter_cfg.c **** 	CY_SET_XTND_REG32((void CYFAR *)(CYDEV_GPIO_PRT0_BASE), 0x00000006u);
 635              		.loc 1 632 0
 636 0264 234B     		ldr	r3, .L19+80
 637 0266 0622     		mov	r2, #6
 638 0268 1A60     		str	r2, [r3]
 633:Generated_Source\PSoC4/cyfitter_cfg.c **** 	CY_SET_XTND_REG32((void CYFAR *)(CYREG_GPIO_PRT0_PC), 0x00D800B1u);
 639              		.loc 1 633 0
 640 026a 234B     		ldr	r3, .L19+84
 641 026c 234A     		ldr	r2, .L19+88
 642 026e 1A60     		str	r2, [r3]
 634:Generated_Source\PSoC4/cyfitter_cfg.c **** 	CY_SET_XTND_REG32((void CYFAR *)(CYREG_GPIO_PRT0_PC2), 0x00000002u);
 643              		.loc 1 634 0
 644 0270 234B     		ldr	r3, .L19+92
 645 0272 0222     		mov	r2, #2
 646 0274 1A60     		str	r2, [r3]
 635:Generated_Source\PSoC4/cyfitter_cfg.c **** 
 636:Generated_Source\PSoC4/cyfitter_cfg.c **** 	/* IOPINS0_1 Starting address: CYDEV_GPIO_PRT1_BASE */
 637:Generated_Source\PSoC4/cyfitter_cfg.c **** 	CY_SET_XTND_REG32((void CYFAR *)(CYREG_GPIO_PRT1_PC), 0x007B6DB6u);
 647              		.loc 1 637 0
 648 0276 234B     		ldr	r3, .L19+96
 649 0278 234A     		ldr	r2, .L19+100
 650 027a 1A60     		str	r2, [r3]
 638:Generated_Source\PSoC4/cyfitter_cfg.c **** 
 639:Generated_Source\PSoC4/cyfitter_cfg.c **** 	/* IOPINS0_2 Starting address: CYDEV_GPIO_PRT2_BASE */
 640:Generated_Source\PSoC4/cyfitter_cfg.c **** 	CY_SET_XTND_REG32((void CYFAR *)(CYDEV_GPIO_PRT2_BASE), 0x00000010u);
 651              		.loc 1 640 0
 652 027c 234B     		ldr	r3, .L19+104
 653 027e 1022     		mov	r2, #16
 654 0280 1A60     		str	r2, [r3]
 641:Generated_Source\PSoC4/cyfitter_cfg.c **** 	CY_SET_XTND_REG32((void CYFAR *)(CYREG_GPIO_PRT2_PC), 0x00C023B6u);
 655              		.loc 1 641 0
 656 0282 234B     		ldr	r3, .L19+108
 657 0284 234A     		ldr	r2, .L19+112
 658 0286 1A60     		str	r2, [r3]
 642:Generated_Source\PSoC4/cyfitter_cfg.c **** 
 643:Generated_Source\PSoC4/cyfitter_cfg.c **** 	/* IOPINS0_3 Starting address: CYDEV_GPIO_PRT3_BASE */
 644:Generated_Source\PSoC4/cyfitter_cfg.c **** 	CY_SET_XTND_REG32((void CYFAR *)(CYDEV_GPIO_PRT3_BASE), 0x00000083u);
 659              		.loc 1 644 0
 660 0288 234B     		ldr	r3, .L19+116
 661 028a 8322     		mov	r2, #131
 662 028c 1A60     		str	r2, [r3]
ARM GAS  C:\Users\Petro\AppData\Local\Temp\ccWntimC.s 			page 24


 645:Generated_Source\PSoC4/cyfitter_cfg.c **** 	CY_SET_XTND_REG32((void CYFAR *)(CYREG_GPIO_PRT3_PC), 0x00C18024u);
 663              		.loc 1 645 0
 664 028e 234B     		ldr	r3, .L19+120
 665 0290 234A     		ldr	r2, .L19+124
 666 0292 1A60     		str	r2, [r3]
 646:Generated_Source\PSoC4/cyfitter_cfg.c **** 
 647:Generated_Source\PSoC4/cyfitter_cfg.c **** 
 648:Generated_Source\PSoC4/cyfitter_cfg.c **** 	/* Setup clocks based on selections from Clock DWR */
 649:Generated_Source\PSoC4/cyfitter_cfg.c **** 	ClockSetup();
 667              		.loc 1 649 0
 668 0294 FFF7B4FE 		bl	ClockSetup
 650:Generated_Source\PSoC4/cyfitter_cfg.c **** 
 651:Generated_Source\PSoC4/cyfitter_cfg.c **** 	/* Perform basic analog initialization to defaults */
 652:Generated_Source\PSoC4/cyfitter_cfg.c **** 	AnalogSetDefault();
 669              		.loc 1 652 0
 670 0298 FFF7FEFF 		bl	AnalogSetDefault
 653:Generated_Source\PSoC4/cyfitter_cfg.c **** 
 654:Generated_Source\PSoC4/cyfitter_cfg.c **** }
 671              		.loc 1 654 0
 672 029c BD46     		mov	sp, r7
 673 029e 02B0     		add	sp, sp, #8
 674              		@ sp needed
 675 02a0 80BD     		pop	{r7, pc}
 676              	.L20:
 677 02a2 C046     		.align	2
 678              	.L19:
 679 02a4 6CF02E40 		.word	1076818028
 680 02a8 1C700F40 		.word	1074753564
 681 02ac 00000000 		.word	cfg_memset_list.4784
 682 02b0 0C000000 		.word	cy_cfg_addr_table.4778
 683 02b4 34000000 		.word	cy_cfg_data_table.4779
 684 02b8 00600F40 		.word	1074749440
 685 02bc 02600F40 		.word	1074749442
 686 02c0 00000240 		.word	1073872896
 687 02c4 990000EE 		.word	-301989735
 688 02c8 00030240 		.word	1073873664
 689 02cc EE000030 		.word	805306606
 690 02d0 00500F40 		.word	1074745344
 691 02d4 10500F40 		.word	1074745360
 692 02d8 20500F40 		.word	1074745376
 693 02dc 30500F40 		.word	1074745392
 694 02e0 38500F40 		.word	1074745400
 695 02e4 20001040 		.word	1074790432
 696 02e8 00800F40 		.word	1074757632
 697 02ec 00700F40 		.word	1074753536
 698 02f0 01700F40 		.word	1074753537
 699 02f4 00000440 		.word	1074003968
 700 02f8 08000440 		.word	1074003976
 701 02fc B100D800 		.word	14155953
 702 0300 18000440 		.word	1074003992
 703 0304 08010440 		.word	1074004232
 704 0308 B66D7B00 		.word	8089014
 705 030c 00020440 		.word	1074004480
 706 0310 08020440 		.word	1074004488
 707 0314 B623C000 		.word	12592054
 708 0318 00030440 		.word	1074004736
 709 031c 08030440 		.word	1074004744
ARM GAS  C:\Users\Petro\AppData\Local\Temp\ccWntimC.s 			page 25


 710 0320 2480C100 		.word	12681252
 711              		.cfi_endproc
 712              	.LFE8:
 713              		.size	cyfitter_cfg, .-cyfitter_cfg
 714              		.section	.rodata
 715              		.align	2
 716              		.type	cfg_memset_list.4784, %object
 717              		.size	cfg_memset_list.4784, 12
 718              	cfg_memset_list.4784:
 719 0000 00300F40 		.word	1074737152
 720 0004 0004     		.short	1024
 721 0006 00400F40 		.4byte	1074741248
 722 000a 0004     		.short	1024
 723              		.align	2
 724              		.type	cy_cfg_addr_table.4778, %object
 725              		.size	cy_cfg_addr_table.4778, 40
 726              	cy_cfg_addr_table.4778:
 727 000c 02000F40 		.word	1074724866
 728 0010 46300F40 		.word	1074737222
 729 0014 24310F40 		.word	1074737444
 730 0018 3E320F40 		.word	1074737726
 731 001c 2E330F40 		.word	1074737966
 732 0020 02400F40 		.word	1074741250
 733 0024 07410F40 		.word	1074741511
 734 0028 04420F40 		.word	1074741764
 735 002c 03430F40 		.word	1074742019
 736 0030 02600F40 		.word	1074749442
 737              		.align	2
 738              		.type	cy_cfg_data_table.4779, %object
 739              		.size	cy_cfg_data_table.4779, 468
 740              	cy_cfg_data_table.4779:
 741 0034 80       		.byte	-128
 742 0035 0D       		.byte	13
 743 0036 81       		.byte	-127
 744 0037 0D       		.byte	13
 745 0038 03       		.byte	3
 746 0039 04       		.byte	4
 747 003a 04       		.byte	4
 748 003b 02       		.byte	2
 749 003c 05       		.byte	5
 750 003d 02       		.byte	2
 751 003e 06       		.byte	6
 752 003f 10       		.byte	16
 753 0040 0C       		.byte	12
 754 0041 08       		.byte	8
 755 0042 0E       		.byte	14
 756 0043 11       		.byte	17
 757 0044 12       		.byte	18
 758 0045 2E       		.byte	46
 759 0046 14       		.byte	20
 760 0047 1E       		.byte	30
 761 0048 1B       		.byte	27
 762 0049 03       		.byte	3
 763 004a 1C       		.byte	28
 764 004b 04       		.byte	4
 765 004c 1E       		.byte	30
 766 004d 11       		.byte	17
ARM GAS  C:\Users\Petro\AppData\Local\Temp\ccWntimC.s 			page 26


 767 004e 30       		.byte	48
 768 004f 01       		.byte	1
 769 0050 31       		.byte	49
 770 0051 02       		.byte	2
 771 0052 32       		.byte	50
 772 0053 10       		.byte	16
 773 0054 33       		.byte	51
 774 0055 01       		.byte	1
 775 0056 34       		.byte	52
 776 0057 0E       		.byte	14
 777 0058 35       		.byte	53
 778 0059 04       		.byte	4
 779 005a 36       		.byte	54
 780 005b 20       		.byte	32
 781 005c 3A       		.byte	58
 782 005d 08       		.byte	8
 783 005e 3E       		.byte	62
 784 005f 01       		.byte	1
 785 0060 40       		.byte	64
 786 0061 21       		.byte	33
 787 0062 49       		.byte	73
 788 0063 FF       		.byte	-1
 789 0064 4A       		.byte	74
 790 0065 FF       		.byte	-1
 791 0066 4B       		.byte	75
 792 0067 FF       		.byte	-1
 793 0068 4F       		.byte	79
 794 0069 01       		.byte	1
 795 006a 50       		.byte	80
 796 006b 18       		.byte	24
 797 006c 52       		.byte	82
 798 006d 80       		.byte	-128
 799 006e 54       		.byte	84
 800 006f 05       		.byte	5
 801 0070 58       		.byte	88
 802 0071 0A       		.byte	10
 803 0072 59       		.byte	89
 804 0073 04       		.byte	4
 805 0074 5A       		.byte	90
 806 0075 0A       		.byte	10
 807 0076 5B       		.byte	91
 808 0077 04       		.byte	4
 809 0078 5C       		.byte	92
 810 0079 09       		.byte	9
 811 007a 5D       		.byte	93
 812 007b 09       		.byte	9
 813 007c 5F       		.byte	95
 814 007d 01       		.byte	1
 815 007e 60       		.byte	96
 816 007f 40       		.byte	64
 817 0080 62       		.byte	98
 818 0081 40       		.byte	64
 819 0082 64       		.byte	100
 820 0083 40       		.byte	64
 821 0084 65       		.byte	101
 822 0085 40       		.byte	64
 823 0086 66       		.byte	102
ARM GAS  C:\Users\Petro\AppData\Local\Temp\ccWntimC.s 			page 27


 824 0087 80       		.byte	-128
 825 0088 68       		.byte	104
 826 0089 80       		.byte	-128
 827 008a 6A       		.byte	106
 828 008b 80       		.byte	-128
 829 008c 6C       		.byte	108
 830 008d 80       		.byte	-128
 831 008e 6E       		.byte	110
 832 008f 80       		.byte	-128
 833 0090 A5       		.byte	-91
 834 0091 01       		.byte	1
 835 0092 B3       		.byte	-77
 836 0093 01       		.byte	1
 837 0094 BF       		.byte	-65
 838 0095 04       		.byte	4
 839 0096 C0       		.byte	-64
 840 0097 61       		.byte	97
 841 0098 C9       		.byte	-55
 842 0099 FF       		.byte	-1
 843 009a CA       		.byte	-54
 844 009b FF       		.byte	-1
 845 009c CB       		.byte	-53
 846 009d FF       		.byte	-1
 847 009e CD       		.byte	-51
 848 009f 83       		.byte	-125
 849 00a0 CE       		.byte	-50
 850 00a1 03       		.byte	3
 851 00a2 CF       		.byte	-49
 852 00a3 01       		.byte	1
 853 00a4 D0       		.byte	-48
 854 00a5 18       		.byte	24
 855 00a6 D4       		.byte	-44
 856 00a7 01       		.byte	1
 857 00a8 D9       		.byte	-39
 858 00a9 04       		.byte	4
 859 00aa DA       		.byte	-38
 860 00ab 09       		.byte	9
 861 00ac DB       		.byte	-37
 862 00ad 09       		.byte	9
 863 00ae DD       		.byte	-35
 864 00af 99       		.byte	-103
 865 00b0 DF       		.byte	-33
 866 00b1 01       		.byte	1
 867 00b2 E0       		.byte	-32
 868 00b3 40       		.byte	64
 869 00b4 E2       		.byte	-30
 870 00b5 40       		.byte	64
 871 00b6 E4       		.byte	-28
 872 00b7 40       		.byte	64
 873 00b8 E5       		.byte	-27
 874 00b9 40       		.byte	64
 875 00ba E6       		.byte	-26
 876 00bb 80       		.byte	-128
 877 00bc E8       		.byte	-24
 878 00bd 80       		.byte	-128
 879 00be EA       		.byte	-22
 880 00bf 80       		.byte	-128
ARM GAS  C:\Users\Petro\AppData\Local\Temp\ccWntimC.s 			page 28


 881 00c0 EC       		.byte	-20
 882 00c1 80       		.byte	-128
 883 00c2 EE       		.byte	-18
 884 00c3 80       		.byte	-128
 885 00c4 00       		.byte	0
 886 00c5 04       		.byte	4
 887 00c6 02       		.byte	2
 888 00c7 01       		.byte	1
 889 00c8 0A       		.byte	10
 890 00c9 11       		.byte	17
 891 00ca 0B       		.byte	11
 892 00cb 40       		.byte	64
 893 00cc 18       		.byte	24
 894 00cd 44       		.byte	68
 895 00ce 1A       		.byte	26
 896 00cf 11       		.byte	17
 897 00d0 1B       		.byte	27
 898 00d1 10       		.byte	16
 899 00d2 20       		.byte	32
 900 00d3 08       		.byte	8
 901 00d4 21       		.byte	33
 902 00d5 04       		.byte	4
 903 00d6 23       		.byte	35
 904 00d7 80       		.byte	-128
 905 00d8 27       		.byte	39
 906 00d9 20       		.byte	32
 907 00da 2F       		.byte	47
 908 00db 10       		.byte	16
 909 00dc 30       		.byte	48
 910 00dd 20       		.byte	32
 911 00de 38       		.byte	56
 912 00df 02       		.byte	2
 913 00e0 39       		.byte	57
 914 00e1 08       		.byte	8
 915 00e2 40       		.byte	64
 916 00e3 04       		.byte	4
 917 00e4 42       		.byte	66
 918 00e5 02       		.byte	2
 919 00e6 46       		.byte	70
 920 00e7 02       		.byte	2
 921 00e8 4F       		.byte	79
 922 00e9 20       		.byte	32
 923 00ea 59       		.byte	89
 924 00eb 06       		.byte	6
 925 00ec 5B       		.byte	91
 926 00ed 80       		.byte	-128
 927 00ee 5C       		.byte	92
 928 00ef 40       		.byte	64
 929 00f0 5F       		.byte	95
 930 00f1 05       		.byte	5
 931 00f2 70       		.byte	112
 932 00f3 01       		.byte	1
 933 00f4 78       		.byte	120
 934 00f5 04       		.byte	4
 935 00f6 7F       		.byte	127
 936 00f7 04       		.byte	4
 937 00f8 8D       		.byte	-115
ARM GAS  C:\Users\Petro\AppData\Local\Temp\ccWntimC.s 			page 29


 938 00f9 80       		.byte	-128
 939 00fa C0       		.byte	-64
 940 00fb 05       		.byte	5
 941 00fc C2       		.byte	-62
 942 00fd 0D       		.byte	13
 943 00fe CA       		.byte	-54
 944 00ff 40       		.byte	64
 945 0100 CC       		.byte	-52
 946 0101 04       		.byte	4
 947 0102 CE       		.byte	-50
 948 0103 03       		.byte	3
 949 0104 D0       		.byte	-48
 950 0105 1C       		.byte	28
 951 0106 D2       		.byte	-46
 952 0107 20       		.byte	32
 953 0108 D6       		.byte	-42
 954 0109 DB       		.byte	-37
 955 010a DE       		.byte	-34
 956 010b 22       		.byte	34
 957 010c 40       		.byte	64
 958 010d 61       		.byte	97
 959 010e 45       		.byte	69
 960 010f EC       		.byte	-20
 961 0110 47       		.byte	71
 962 0111 20       		.byte	32
 963 0112 48       		.byte	72
 964 0113 23       		.byte	35
 965 0114 49       		.byte	73
 966 0115 FF       		.byte	-1
 967 0116 4A       		.byte	74
 968 0117 FF       		.byte	-1
 969 0118 4B       		.byte	75
 970 0119 FF       		.byte	-1
 971 011a 4D       		.byte	77
 972 011b 83       		.byte	-125
 973 011c 4E       		.byte	78
 974 011d 03       		.byte	3
 975 011e 4F       		.byte	79
 976 011f 01       		.byte	1
 977 0120 50       		.byte	80
 978 0121 18       		.byte	24
 979 0122 56       		.byte	86
 980 0123 08       		.byte	8
 981 0124 5A       		.byte	90
 982 0125 09       		.byte	9
 983 0126 5B       		.byte	91
 984 0127 04       		.byte	4
 985 0128 5D       		.byte	93
 986 0129 99       		.byte	-103
 987 012a 5F       		.byte	95
 988 012b 01       		.byte	1
 989 012c 60       		.byte	96
 990 012d 40       		.byte	64
 991 012e 62       		.byte	98
 992 012f 40       		.byte	64
 993 0130 64       		.byte	100
 994 0131 40       		.byte	64
ARM GAS  C:\Users\Petro\AppData\Local\Temp\ccWntimC.s 			page 30


 995 0132 65       		.byte	101
 996 0133 40       		.byte	64
 997 0134 66       		.byte	102
 998 0135 80       		.byte	-128
 999 0136 68       		.byte	104
 1000 0137 80       		.byte	-128
 1001 0138 6A       		.byte	106
 1002 0139 80       		.byte	-128
 1003 013a 6C       		.byte	108
 1004 013b 80       		.byte	-128
 1005 013c 6E       		.byte	110
 1006 013d 80       		.byte	-128
 1007 013e 86       		.byte	-122
 1008 013f 01       		.byte	1
 1009 0140 8A       		.byte	-118
 1010 0141 01       		.byte	1
 1011 0142 9B       		.byte	-101
 1012 0143 01       		.byte	1
 1013 0144 AB       		.byte	-85
 1014 0145 01       		.byte	1
 1015 0146 AC       		.byte	-84
 1016 0147 02       		.byte	2
 1017 0148 B1       		.byte	-79
 1018 0149 01       		.byte	1
 1019 014a B2       		.byte	-78
 1020 014b 01       		.byte	1
 1021 014c B6       		.byte	-74
 1022 014d 02       		.byte	2
 1023 014e BE       		.byte	-66
 1024 014f 44       		.byte	68
 1025 0150 C0       		.byte	-64
 1026 0151 60       		.byte	96
 1027 0152 C1       		.byte	-63
 1028 0153 03       		.byte	3
 1029 0154 C5       		.byte	-59
 1030 0155 D0       		.byte	-48
 1031 0156 C6       		.byte	-58
 1032 0157 10       		.byte	16
 1033 0158 C7       		.byte	-57
 1034 0159 02       		.byte	2
 1035 015a C8       		.byte	-56
 1036 015b 1A       		.byte	26
 1037 015c C9       		.byte	-55
 1038 015d FF       		.byte	-1
 1039 015e CA       		.byte	-54
 1040 015f FF       		.byte	-1
 1041 0160 CB       		.byte	-53
 1042 0161 FF       		.byte	-1
 1043 0162 CD       		.byte	-51
 1044 0163 A0       		.byte	-96
 1045 0164 CF       		.byte	-49
 1046 0165 04       		.byte	4
 1047 0166 D0       		.byte	-48
 1048 0167 18       		.byte	24
 1049 0168 D2       		.byte	-46
 1050 0169 80       		.byte	-128
 1051 016a D8       		.byte	-40
ARM GAS  C:\Users\Petro\AppData\Local\Temp\ccWntimC.s 			page 31


 1052 016b 04       		.byte	4
 1053 016c D9       		.byte	-39
 1054 016d 04       		.byte	4
 1055 016e DA       		.byte	-38
 1056 016f 04       		.byte	4
 1057 0170 DB       		.byte	-37
 1058 0171 0B       		.byte	11
 1059 0172 DD       		.byte	-35
 1060 0173 90       		.byte	-112
 1061 0174 DF       		.byte	-33
 1062 0175 01       		.byte	1
 1063 0176 E0       		.byte	-32
 1064 0177 40       		.byte	64
 1065 0178 E2       		.byte	-30
 1066 0179 C0       		.byte	-64
 1067 017a E4       		.byte	-28
 1068 017b 40       		.byte	64
 1069 017c E5       		.byte	-27
 1070 017d 40       		.byte	64
 1071 017e E6       		.byte	-26
 1072 017f C0       		.byte	-64
 1073 0180 E8       		.byte	-24
 1074 0181 C0       		.byte	-64
 1075 0182 EA       		.byte	-22
 1076 0183 C0       		.byte	-64
 1077 0184 EC       		.byte	-20
 1078 0185 C0       		.byte	-64
 1079 0186 EE       		.byte	-18
 1080 0187 C0       		.byte	-64
 1081 0188 00       		.byte	0
 1082 0189 08       		.byte	8
 1083 018a 03       		.byte	3
 1084 018b 08       		.byte	8
 1085 018c 12       		.byte	18
 1086 018d 02       		.byte	2
 1087 018e 19       		.byte	25
 1088 018f 04       		.byte	4
 1089 0190 1B       		.byte	27
 1090 0191 80       		.byte	-128
 1091 0192 22       		.byte	34
 1092 0193 02       		.byte	2
 1093 0194 29       		.byte	41
 1094 0195 10       		.byte	16
 1095 0196 30       		.byte	48
 1096 0197 20       		.byte	32
 1097 0198 43       		.byte	67
 1098 0199 08       		.byte	8
 1099 019a 46       		.byte	70
 1100 019b 02       		.byte	2
 1101 019c 48       		.byte	72
 1102 019d 04       		.byte	4
 1103 019e 49       		.byte	73
 1104 019f 12       		.byte	18
 1105 01a0 4F       		.byte	79
 1106 01a1 25       		.byte	37
 1107 01a2 50       		.byte	80
 1108 01a3 20       		.byte	32
ARM GAS  C:\Users\Petro\AppData\Local\Temp\ccWntimC.s 			page 32


 1109 01a4 53       		.byte	83
 1110 01a5 08       		.byte	8
 1111 01a6 56       		.byte	86
 1112 01a7 03       		.byte	3
 1113 01a8 5D       		.byte	93
 1114 01a9 A0       		.byte	-96
 1115 01aa 5E       		.byte	94
 1116 01ab 80       		.byte	-128
 1117 01ac 64       		.byte	100
 1118 01ad 05       		.byte	5
 1119 01ae 67       		.byte	103
 1120 01af 08       		.byte	8
 1121 01b0 73       		.byte	115
 1122 01b1 40       		.byte	64
 1123 01b2 78       		.byte	120
 1124 01b3 01       		.byte	1
 1125 01b4 7F       		.byte	127
 1126 01b5 04       		.byte	4
 1127 01b6 83       		.byte	-125
 1128 01b7 80       		.byte	-128
 1129 01b8 85       		.byte	-123
 1130 01b9 20       		.byte	32
 1131 01ba 86       		.byte	-122
 1132 01bb 40       		.byte	64
 1133 01bc 97       		.byte	-105
 1134 01bd 4D       		.byte	77
 1135 01be 99       		.byte	-103
 1136 01bf 80       		.byte	-128
 1137 01c0 9C       		.byte	-100
 1138 01c1 04       		.byte	4
 1139 01c2 9D       		.byte	-99
 1140 01c3 06       		.byte	6
 1141 01c4 9E       		.byte	-98
 1142 01c5 03       		.byte	3
 1143 01c6 A0       		.byte	-96
 1144 01c7 04       		.byte	4
 1145 01c8 A3       		.byte	-93
 1146 01c9 10       		.byte	16
 1147 01ca A4       		.byte	-92
 1148 01cb 20       		.byte	32
 1149 01cc AB       		.byte	-85
 1150 01cd 20       		.byte	32
 1151 01ce AF       		.byte	-81
 1152 01cf 10       		.byte	16
 1153 01d0 C0       		.byte	-64
 1154 01d1 06       		.byte	6
 1155 01d2 C4       		.byte	-60
 1156 01d3 01       		.byte	1
 1157 01d4 CA       		.byte	-54
 1158 01d5 04       		.byte	4
 1159 01d6 CC       		.byte	-52
 1160 01d7 04       		.byte	4
 1161 01d8 D0       		.byte	-48
 1162 01d9 12       		.byte	18
 1163 01da D2       		.byte	-46
 1164 01db 24       		.byte	36
 1165 01dc D6       		.byte	-42
ARM GAS  C:\Users\Petro\AppData\Local\Temp\ccWntimC.s 			page 33


 1166 01dd 30       		.byte	48
 1167 01de D8       		.byte	-40
 1168 01df 30       		.byte	48
 1169 01e0 DE       		.byte	-34
 1170 01e1 21       		.byte	33
 1171 01e2 E4       		.byte	-28
 1172 01e3 04       		.byte	4
 1173 01e4 03       		.byte	3
 1174 01e5 08       		.byte	8
 1175 01e6 C0       		.byte	-64
 1176 01e7 40       		.byte	64
 1177 01e8 6F       		.byte	111
 1178 01e9 04       		.byte	4
 1179 01ea 9B       		.byte	-101
 1180 01eb 04       		.byte	4
 1181 01ec AB       		.byte	-85
 1182 01ed 04       		.byte	4
 1183 01ee AF       		.byte	-81
 1184 01ef 08       		.byte	8
 1185 01f0 DA       		.byte	-38
 1186 01f1 80       		.byte	-128
 1187 01f2 EA       		.byte	-22
 1188 01f3 80       		.byte	-128
 1189 01f4 EC       		.byte	-20
 1190 01f5 40       		.byte	64
 1191 01f6 27       		.byte	39
 1192 01f7 10       		.byte	16
 1193 01f8 8F       		.byte	-113
 1194 01f9 10       		.byte	16
 1195 01fa C8       		.byte	-56
 1196 01fb 01       		.byte	1
 1197 01fc E6       		.byte	-26
 1198 01fd 02       		.byte	2
 1199 01fe 67       		.byte	103
 1200 01ff 02       		.byte	2
 1201 0200 83       		.byte	-125
 1202 0201 01       		.byte	1
 1203 0202 D6       		.byte	-42
 1204 0203 01       		.byte	1
 1205 0204 10       		.byte	16
 1206 0205 01       		.byte	1
 1207 0206 11       		.byte	17
 1208 0207 01       		.byte	1
 1209              		.text
 1210              	.Letext0:
 1211              		.file 2 "c:\\program files (x86)\\cypress\\psoc creator\\4.0\\psoc creator\\import\\gnu\\arm\\4.9.
 1212              		.file 3 "Generated_Source\\PSoC4\\cytypes.h"