ARM GAS  C:\Users\Petro\AppData\Local\Temp\cceUkp3V.s 			page 1


   1              		.cpu cortex-m0
   2              		.fpu softvfp
   3              		.eabi_attribute 20, 1
   4              		.eabi_attribute 21, 1
   5              		.eabi_attribute 23, 3
   6              		.eabi_attribute 24, 1
   7              		.eabi_attribute 25, 1
   8              		.eabi_attribute 26, 1
   9              		.eabi_attribute 30, 6
  10              		.eabi_attribute 34, 0
  11              		.eabi_attribute 18, 4
  12              		.code	16
  13              		.file	"database.c"
  14              		.text
  15              	.Ltext0:
  16              		.cfi_sections	.debug_frame
  17              		.comm	fatFs,560,4
  18              		.comm	fileO,552,4
  19              		.comm	createFlag,4,4
  20              		.comm	bufferSkiersOnWay,64,8
  21              		.comm	bufferFifo,384,8
  22              		.comm	currentSizeBuff,4,4
  23              		.comm	currentElementStart,4,4
  24              		.comm	currentElementFinish,4,4
  25              		.comm	skiersFinished,2,2
  26              		.comm	skierDB,7200,8
  27              		.comm	fifo,632,8
  28              		.section	.text.DataBaseStart,"ax",%progbits
  29              		.align	2
  30              		.global	DataBaseStart
  31              		.code	16
  32              		.thumb_func
  33              		.type	DataBaseStart, %function
  34              	DataBaseStart:
  35              	.LFB63:
  36              		.file 1 ".\\lib_DB\\database.c"
   1:.\lib_DB/database.c **** /* ========================================
   2:.\lib_DB/database.c ****  *
   3:.\lib_DB/database.c ****  * Copyright YOUR COMPANY, THE YEAR
   4:.\lib_DB/database.c ****  * All Rights Reserved
   5:.\lib_DB/database.c ****  * UNPUBLISHED, LICENSED SOFTWARE.
   6:.\lib_DB/database.c ****  *
   7:.\lib_DB/database.c ****  * CONFIDENTIAL AND PROPRIETARY INFORMATION
   8:.\lib_DB/database.c ****  * WHICH IS THE PROPERTY OF your company.
   9:.\lib_DB/database.c ****  *
  10:.\lib_DB/database.c ****  * ========================================
  11:.\lib_DB/database.c **** */
  12:.\lib_DB/database.c **** #include "lib_DB\database.h"
  13:.\lib_DB/database.c **** 
  14:.\lib_DB/database.c **** uint32_t DataBaseStart(void)
  15:.\lib_DB/database.c **** {
  37              		.loc 1 15 0
  38              		.cfi_startproc
  39 0000 80B5     		push	{r7, lr}
  40              		.cfi_def_cfa_offset 8
  41              		.cfi_offset 7, -8
  42              		.cfi_offset 14, -4
ARM GAS  C:\Users\Petro\AppData\Local\Temp\cceUkp3V.s 			page 2


  43 0002 82B0     		sub	sp, sp, #8
  44              		.cfi_def_cfa_offset 16
  45 0004 00AF     		add	r7, sp, #0
  46              		.cfi_def_cfa_register 7
  16:.\lib_DB/database.c ****     uint32_t result; 
  17:.\lib_DB/database.c ****     
  18:.\lib_DB/database.c ****     result = logStart();
  47              		.loc 1 18 0
  48 0006 FFF7FEFF 		bl	logStart
  49 000a 031C     		mov	r3, r0
  50 000c 7B60     		str	r3, [r7, #4]
  19:.\lib_DB/database.c ****     if(result == FR_OK)
  51              		.loc 1 19 0
  52 000e 7B68     		ldr	r3, [r7, #4]
  53 0010 002B     		cmp	r3, #0
  54 0012 02D1     		bne	.L2
  20:.\lib_DB/database.c ****     {
  21:.\lib_DB/database.c ****         result = DB_START;
  55              		.loc 1 21 0
  56 0014 0123     		mov	r3, #1
  57 0016 7B60     		str	r3, [r7, #4]
  58 0018 01E0     		b	.L3
  59              	.L2:
  22:.\lib_DB/database.c ****     }else
  23:.\lib_DB/database.c ****     {
  24:.\lib_DB/database.c ****         result = DB_NO_START;
  60              		.loc 1 24 0
  61 001a 0023     		mov	r3, #0
  62 001c 7B60     		str	r3, [r7, #4]
  63              	.L3:
  25:.\lib_DB/database.c ****     }
  26:.\lib_DB/database.c ****     return result;
  64              		.loc 1 26 0
  65 001e 7B68     		ldr	r3, [r7, #4]
  27:.\lib_DB/database.c **** }
  66              		.loc 1 27 0
  67 0020 181C     		mov	r0, r3
  68 0022 BD46     		mov	sp, r7
  69 0024 02B0     		add	sp, sp, #8
  70              		@ sp needed
  71 0026 80BD     		pop	{r7, pc}
  72              		.cfi_endproc
  73              	.LFE63:
  74              		.size	DataBaseStart, .-DataBaseStart
  75              		.section	.text.InitBuff,"ax",%progbits
  76              		.align	2
  77              		.global	InitBuff
  78              		.code	16
  79              		.thumb_func
  80              		.type	InitBuff, %function
  81              	InitBuff:
  82              	.LFB64:
  28:.\lib_DB/database.c **** 
  29:.\lib_DB/database.c **** void InitBuff()
  30:.\lib_DB/database.c **** {
  83              		.loc 1 30 0
  84              		.cfi_startproc
ARM GAS  C:\Users\Petro\AppData\Local\Temp\cceUkp3V.s 			page 3


  85 0000 80B5     		push	{r7, lr}
  86              		.cfi_def_cfa_offset 8
  87              		.cfi_offset 7, -8
  88              		.cfi_offset 14, -4
  89 0002 82B0     		sub	sp, sp, #8
  90              		.cfi_def_cfa_offset 16
  91 0004 00AF     		add	r7, sp, #0
  92              		.cfi_def_cfa_register 7
  31:.\lib_DB/database.c ****     uint32_t i;
  32:.\lib_DB/database.c ****     
  33:.\lib_DB/database.c ****     /*init fifo*/
  34:.\lib_DB/database.c ****     fifo.totalSize = MAX_FIFO_SIZE;
  93              		.loc 1 34 0
  94 0006 114B     		ldr	r3, .L8
  95 0008 0C22     		mov	r2, #12
  96 000a DA80     		strh	r2, [r3, #6]
  35:.\lib_DB/database.c ****     
  36:.\lib_DB/database.c ****     for( i = 0; i< BUFFER_SIZE - 1; i++)
  97              		.loc 1 36 0
  98 000c 0023     		mov	r3, #0
  99 000e 7B60     		str	r3, [r7, #4]
 100 0010 0DE0     		b	.L6
 101              	.L7:
  37:.\lib_DB/database.c ****     {
  38:.\lib_DB/database.c ****         bufferSkiersOnWay[i].nextSki = &bufferSkiersOnWay[i+1];
 102              		.loc 1 38 0 discriminator 3
 103 0012 7B68     		ldr	r3, [r7, #4]
 104 0014 0133     		add	r3, r3, #1
 105 0016 1A01     		lsl	r2, r3, #4
 106 0018 0D4B     		ldr	r3, .L8+4
 107 001a D218     		add	r2, r2, r3
 108 001c 0C49     		ldr	r1, .L8+4
 109 001e 7B68     		ldr	r3, [r7, #4]
 110 0020 1B01     		lsl	r3, r3, #4
 111 0022 CB18     		add	r3, r1, r3
 112 0024 0833     		add	r3, r3, #8
 113 0026 5A60     		str	r2, [r3, #4]
  36:.\lib_DB/database.c ****     {
 114              		.loc 1 36 0 discriminator 3
 115 0028 7B68     		ldr	r3, [r7, #4]
 116 002a 0133     		add	r3, r3, #1
 117 002c 7B60     		str	r3, [r7, #4]
 118              	.L6:
  36:.\lib_DB/database.c ****     {
 119              		.loc 1 36 0 is_stmt 0 discriminator 1
 120 002e 7B68     		ldr	r3, [r7, #4]
 121 0030 022B     		cmp	r3, #2
 122 0032 EED9     		bls	.L7
  39:.\lib_DB/database.c ****     }
  40:.\lib_DB/database.c ****     bufferSkiersOnWay[BUFFER_SIZE - 1].nextSki = &bufferSkiersOnWay[0];
 123              		.loc 1 40 0 is_stmt 1
 124 0034 064B     		ldr	r3, .L8+4
 125 0036 064A     		ldr	r2, .L8+4
 126 0038 DA63     		str	r2, [r3, #60]
  41:.\lib_DB/database.c ****     currentElementStart = &bufferSkiersOnWay[0];
 127              		.loc 1 41 0
 128 003a 064B     		ldr	r3, .L8+8
ARM GAS  C:\Users\Petro\AppData\Local\Temp\cceUkp3V.s 			page 4


 129 003c 044A     		ldr	r2, .L8+4
 130 003e 1A60     		str	r2, [r3]
  42:.\lib_DB/database.c ****     currentElementFinish = &bufferSkiersOnWay[0];
 131              		.loc 1 42 0
 132 0040 054B     		ldr	r3, .L8+12
 133 0042 034A     		ldr	r2, .L8+4
 134 0044 1A60     		str	r2, [r3]
  43:.\lib_DB/database.c **** }
 135              		.loc 1 43 0
 136 0046 BD46     		mov	sp, r7
 137 0048 02B0     		add	sp, sp, #8
 138              		@ sp needed
 139 004a 80BD     		pop	{r7, pc}
 140              	.L9:
 141              		.align	2
 142              	.L8:
 143 004c 00000000 		.word	fifo
 144 0050 00000000 		.word	bufferSkiersOnWay
 145 0054 00000000 		.word	currentElementStart
 146 0058 00000000 		.word	currentElementFinish
 147              		.cfi_endproc
 148              	.LFE64:
 149              		.size	InitBuff, .-InitBuff
 150              		.section	.text.putSkiOnWay,"ax",%progbits
 151              		.align	2
 152              		.global	putSkiOnWay
 153              		.code	16
 154              		.thumb_func
 155              		.type	putSkiOnWay, %function
 156              	putSkiOnWay:
 157              	.LFB65:
  44:.\lib_DB/database.c **** 
  45:.\lib_DB/database.c **** void putSkiOnWay(uint64_t unixTime, uint16_t mills)
  46:.\lib_DB/database.c **** {
 158              		.loc 1 46 0
 159              		.cfi_startproc
 160 0000 90B5     		push	{r4, r7, lr}
 161              		.cfi_def_cfa_offset 12
 162              		.cfi_offset 4, -12
 163              		.cfi_offset 7, -8
 164              		.cfi_offset 14, -4
 165 0002 85B0     		sub	sp, sp, #20
 166              		.cfi_def_cfa_offset 32
 167 0004 00AF     		add	r7, sp, #0
 168              		.cfi_def_cfa_register 7
 169 0006 B860     		str	r0, [r7, #8]
 170 0008 F960     		str	r1, [r7, #12]
 171 000a BB1D     		add	r3, r7, #6
 172 000c 1A80     		strh	r2, [r3]
  47:.\lib_DB/database.c ****     currentElementFinish->millsStartSkier = mills;
 173              		.loc 1 47 0
 174 000e 0C4B     		ldr	r3, .L11
 175 0010 1B68     		ldr	r3, [r3]
 176 0012 BA1D     		add	r2, r7, #6
 177 0014 1288     		ldrh	r2, [r2]
 178 0016 1A81     		strh	r2, [r3, #8]
  48:.\lib_DB/database.c ****     currentElementFinish->unixStartSkier = unixTime;
ARM GAS  C:\Users\Petro\AppData\Local\Temp\cceUkp3V.s 			page 5


 179              		.loc 1 48 0
 180 0018 094B     		ldr	r3, .L11
 181 001a 1A68     		ldr	r2, [r3]
 182 001c BB68     		ldr	r3, [r7, #8]
 183 001e FC68     		ldr	r4, [r7, #12]
 184 0020 1360     		str	r3, [r2]
 185 0022 5460     		str	r4, [r2, #4]
  49:.\lib_DB/database.c ****     currentElementFinish = currentElementFinish->nextSki;
 186              		.loc 1 49 0
 187 0024 064B     		ldr	r3, .L11
 188 0026 1B68     		ldr	r3, [r3]
 189 0028 DA68     		ldr	r2, [r3, #12]
 190 002a 054B     		ldr	r3, .L11
 191 002c 1A60     		str	r2, [r3]
  50:.\lib_DB/database.c ****     currentSizeBuff++;
 192              		.loc 1 50 0
 193 002e 054B     		ldr	r3, .L11+4
 194 0030 1B68     		ldr	r3, [r3]
 195 0032 5A1C     		add	r2, r3, #1
 196 0034 034B     		ldr	r3, .L11+4
 197 0036 1A60     		str	r2, [r3]
  51:.\lib_DB/database.c **** }
 198              		.loc 1 51 0
 199 0038 BD46     		mov	sp, r7
 200 003a 05B0     		add	sp, sp, #20
 201              		@ sp needed
 202 003c 90BD     		pop	{r4, r7, pc}
 203              	.L12:
 204 003e C046     		.align	2
 205              	.L11:
 206 0040 00000000 		.word	currentElementFinish
 207 0044 00000000 		.word	currentSizeBuff
 208              		.cfi_endproc
 209              	.LFE65:
 210              		.size	putSkiOnWay, .-putSkiOnWay
 211              		.section	.text.getSkiFromWay,"ax",%progbits
 212              		.align	2
 213              		.global	getSkiFromWay
 214              		.code	16
 215              		.thumb_func
 216              		.type	getSkiFromWay, %function
 217              	getSkiFromWay:
 218              	.LFB66:
  52:.\lib_DB/database.c **** 
  53:.\lib_DB/database.c **** void getSkiFromWay(uint64_t *unixTime, uint16_t *mills)
  54:.\lib_DB/database.c **** {
 219              		.loc 1 54 0
 220              		.cfi_startproc
 221 0000 90B5     		push	{r4, r7, lr}
 222              		.cfi_def_cfa_offset 12
 223              		.cfi_offset 4, -12
 224              		.cfi_offset 7, -8
 225              		.cfi_offset 14, -4
 226 0002 83B0     		sub	sp, sp, #12
 227              		.cfi_def_cfa_offset 24
 228 0004 00AF     		add	r7, sp, #0
 229              		.cfi_def_cfa_register 7
ARM GAS  C:\Users\Petro\AppData\Local\Temp\cceUkp3V.s 			page 6


 230 0006 7860     		str	r0, [r7, #4]
 231 0008 3960     		str	r1, [r7]
  55:.\lib_DB/database.c ****     *mills = currentElementStart->millsStartSkier;
 232              		.loc 1 55 0
 233 000a 0C4B     		ldr	r3, .L14
 234 000c 1B68     		ldr	r3, [r3]
 235 000e 1A89     		ldrh	r2, [r3, #8]
 236 0010 3B68     		ldr	r3, [r7]
 237 0012 1A80     		strh	r2, [r3]
  56:.\lib_DB/database.c ****     *unixTime = currentElementStart->unixStartSkier;
 238              		.loc 1 56 0
 239 0014 094B     		ldr	r3, .L14
 240 0016 1B68     		ldr	r3, [r3]
 241 0018 5C68     		ldr	r4, [r3, #4]
 242 001a 1B68     		ldr	r3, [r3]
 243 001c 7A68     		ldr	r2, [r7, #4]
 244 001e 1360     		str	r3, [r2]
 245 0020 5460     		str	r4, [r2, #4]
  57:.\lib_DB/database.c ****     currentElementStart = currentElementStart->nextSki;
 246              		.loc 1 57 0
 247 0022 064B     		ldr	r3, .L14
 248 0024 1B68     		ldr	r3, [r3]
 249 0026 DA68     		ldr	r2, [r3, #12]
 250 0028 044B     		ldr	r3, .L14
 251 002a 1A60     		str	r2, [r3]
  58:.\lib_DB/database.c ****     currentSizeBuff--;
 252              		.loc 1 58 0
 253 002c 044B     		ldr	r3, .L14+4
 254 002e 1B68     		ldr	r3, [r3]
 255 0030 5A1E     		sub	r2, r3, #1
 256 0032 034B     		ldr	r3, .L14+4
 257 0034 1A60     		str	r2, [r3]
  59:.\lib_DB/database.c **** }
 258              		.loc 1 59 0
 259 0036 BD46     		mov	sp, r7
 260 0038 03B0     		add	sp, sp, #12
 261              		@ sp needed
 262 003a 90BD     		pop	{r4, r7, pc}
 263              	.L15:
 264              		.align	2
 265              	.L14:
 266 003c 00000000 		.word	currentElementStart
 267 0040 00000000 		.word	currentSizeBuff
 268              		.cfi_endproc
 269              	.LFE66:
 270              		.size	getSkiFromWay, .-getSkiFromWay
 271              		.section	.text.WriteStartTime,"ax",%progbits
 272              		.align	2
 273              		.global	WriteStartTime
 274              		.code	16
 275              		.thumb_func
 276              		.type	WriteStartTime, %function
 277              	WriteStartTime:
 278              	.LFB67:
  60:.\lib_DB/database.c **** 
  61:.\lib_DB/database.c **** 
  62:.\lib_DB/database.c **** bool WriteStartTime(uint64_t unixTime, uint16_t mills)
ARM GAS  C:\Users\Petro\AppData\Local\Temp\cceUkp3V.s 			page 7


  63:.\lib_DB/database.c **** {
 279              		.loc 1 63 0
 280              		.cfi_startproc
 281 0000 90B5     		push	{r4, r7, lr}
 282              		.cfi_def_cfa_offset 12
 283              		.cfi_offset 4, -12
 284              		.cfi_offset 7, -8
 285              		.cfi_offset 14, -4
 286 0002 85B0     		sub	sp, sp, #20
 287              		.cfi_def_cfa_offset 32
 288 0004 00AF     		add	r7, sp, #0
 289              		.cfi_def_cfa_register 7
 290 0006 B860     		str	r0, [r7, #8]
 291 0008 F960     		str	r1, [r7, #12]
 292 000a BB1D     		add	r3, r7, #6
 293 000c 1A80     		strh	r2, [r3]
  64:.\lib_DB/database.c ****     putSkiOnWay(unixTime, mills);
 294              		.loc 1 64 0
 295 000e BB68     		ldr	r3, [r7, #8]
 296 0010 FC68     		ldr	r4, [r7, #12]
 297 0012 BA1D     		add	r2, r7, #6
 298 0014 1288     		ldrh	r2, [r2]
 299 0016 181C     		mov	r0, r3
 300 0018 211C     		mov	r1, r4
 301 001a FFF7FEFF 		bl	putSkiOnWay
  65:.\lib_DB/database.c **** /*
  66:.\lib_DB/database.c ****     if (skiersStarted == MAX_SKIERS_ON_DB)
  67:.\lib_DB/database.c ****     {
  68:.\lib_DB/database.c ****         skiersStarted = 0;
  69:.\lib_DB/database.c ****     }
  70:.\lib_DB/database.c ****     skierDB[skiersStarted].millsStartSkier = mills;
  71:.\lib_DB/database.c ****     skierDB[skiersStarted].unixStartSkier = unixTime;
  72:.\lib_DB/database.c ****     skiersStarted++;
  73:.\lib_DB/database.c ****     return true;
  74:.\lib_DB/database.c **** */
  75:.\lib_DB/database.c ****     return 1u;
 302              		.loc 1 75 0
 303 001e 0123     		mov	r3, #1
  76:.\lib_DB/database.c **** }
 304              		.loc 1 76 0
 305 0020 181C     		mov	r0, r3
 306 0022 BD46     		mov	sp, r7
 307 0024 05B0     		add	sp, sp, #20
 308              		@ sp needed
 309 0026 90BD     		pop	{r4, r7, pc}
 310              		.cfi_endproc
 311              	.LFE67:
 312              		.size	WriteStartTime, .-WriteStartTime
 313              		.section	.text.WriteFinishTime,"ax",%progbits
 314              		.align	2
 315              		.global	WriteFinishTime
 316              		.code	16
 317              		.thumb_func
 318              		.type	WriteFinishTime, %function
 319              	WriteFinishTime:
 320              	.LFB68:
  77:.\lib_DB/database.c **** 
ARM GAS  C:\Users\Petro\AppData\Local\Temp\cceUkp3V.s 			page 8


  78:.\lib_DB/database.c **** 
  79:.\lib_DB/database.c **** bool WriteFinishTime(uint64_t unixTime, uint16_t mills)
  80:.\lib_DB/database.c **** {
 321              		.loc 1 80 0
 322              		.cfi_startproc
 323 0000 90B5     		push	{r4, r7, lr}
 324              		.cfi_def_cfa_offset 12
 325              		.cfi_offset 4, -12
 326              		.cfi_offset 7, -8
 327              		.cfi_offset 14, -4
 328 0002 85B0     		sub	sp, sp, #20
 329              		.cfi_def_cfa_offset 32
 330 0004 00AF     		add	r7, sp, #0
 331              		.cfi_def_cfa_register 7
 332 0006 B860     		str	r0, [r7, #8]
 333 0008 F960     		str	r1, [r7, #12]
 334 000a BB1D     		add	r3, r7, #6
 335 000c 1A80     		strh	r2, [r3]
  81:.\lib_DB/database.c ****     
  82:.\lib_DB/database.c ****     if (skiersFinished == MAX_SKIERS_ON_DB)
 336              		.loc 1 82 0
 337 000e 254B     		ldr	r3, .L21
 338 0010 1B88     		ldrh	r3, [r3]
 339 0012 962B     		cmp	r3, #150
 340 0014 02D1     		bne	.L19
  83:.\lib_DB/database.c ****     {
  84:.\lib_DB/database.c ****         skiersFinished = 0;
 341              		.loc 1 84 0
 342 0016 234B     		ldr	r3, .L21
 343 0018 0022     		mov	r2, #0
 344 001a 1A80     		strh	r2, [r3]
 345              	.L19:
  85:.\lib_DB/database.c ****     }
  86:.\lib_DB/database.c ****     getSkiFromWay(&skierDB[skiersFinished].unixStartSkier, &skierDB[skiersFinished].millsStartSkier
 346              		.loc 1 86 0
 347 001c 214B     		ldr	r3, .L21
 348 001e 1B88     		ldrh	r3, [r3]
 349 0020 1A1C     		mov	r2, r3
 350 0022 131C     		mov	r3, r2
 351 0024 5B00     		lsl	r3, r3, #1
 352 0026 9B18     		add	r3, r3, r2
 353 0028 1B01     		lsl	r3, r3, #4
 354 002a 1F4A     		ldr	r2, .L21+4
 355 002c 9918     		add	r1, r3, r2
 356 002e 1D4B     		ldr	r3, .L21
 357 0030 1B88     		ldrh	r3, [r3]
 358 0032 1A1C     		mov	r2, r3
 359 0034 131C     		mov	r3, r2
 360 0036 5B00     		lsl	r3, r3, #1
 361 0038 9B18     		add	r3, r3, r2
 362 003a 1B01     		lsl	r3, r3, #4
 363 003c 0833     		add	r3, r3, #8
 364 003e 1A1C     		mov	r2, r3
 365 0040 194B     		ldr	r3, .L21+4
 366 0042 D318     		add	r3, r2, r3
 367 0044 081C     		mov	r0, r1
 368 0046 191C     		mov	r1, r3
ARM GAS  C:\Users\Petro\AppData\Local\Temp\cceUkp3V.s 			page 9


 369 0048 FFF7FEFF 		bl	getSkiFromWay
  87:.\lib_DB/database.c ****     skierDB[skiersFinished].millsFinishSkier = mills;
 370              		.loc 1 87 0
 371 004c 154B     		ldr	r3, .L21
 372 004e 1B88     		ldrh	r3, [r3]
 373 0050 191C     		mov	r1, r3
 374 0052 154A     		ldr	r2, .L21+4
 375 0054 0B1C     		mov	r3, r1
 376 0056 5B00     		lsl	r3, r3, #1
 377 0058 5B18     		add	r3, r3, r1
 378 005a 1B01     		lsl	r3, r3, #4
 379 005c D318     		add	r3, r2, r3
 380 005e 1833     		add	r3, r3, #24
 381 0060 BA1D     		add	r2, r7, #6
 382 0062 1288     		ldrh	r2, [r2]
 383 0064 1A80     		strh	r2, [r3]
  88:.\lib_DB/database.c ****     skierDB[skiersFinished].unixFinishSkier = unixTime;
 384              		.loc 1 88 0
 385 0066 0F4B     		ldr	r3, .L21
 386 0068 1B88     		ldrh	r3, [r3]
 387 006a 191C     		mov	r1, r3
 388 006c 0E4A     		ldr	r2, .L21+4
 389 006e 0B1C     		mov	r3, r1
 390 0070 5B00     		lsl	r3, r3, #1
 391 0072 5B18     		add	r3, r3, r1
 392 0074 1B01     		lsl	r3, r3, #4
 393 0076 D318     		add	r3, r2, r3
 394 0078 1033     		add	r3, r3, #16
 395 007a 1A1C     		mov	r2, r3
 396 007c BB68     		ldr	r3, [r7, #8]
 397 007e FC68     		ldr	r4, [r7, #12]
 398 0080 1360     		str	r3, [r2]
 399 0082 5460     		str	r4, [r2, #4]
  89:.\lib_DB/database.c ****     TimeOnWay(skiersFinished);
 400              		.loc 1 89 0
 401 0084 074B     		ldr	r3, .L21
 402 0086 1B88     		ldrh	r3, [r3]
 403 0088 181C     		mov	r0, r3
 404 008a FFF7FEFF 		bl	TimeOnWay
  90:.\lib_DB/database.c ****     skiersFinished++;
 405              		.loc 1 90 0
 406 008e 054B     		ldr	r3, .L21
 407 0090 1B88     		ldrh	r3, [r3]
 408 0092 0133     		add	r3, r3, #1
 409 0094 9AB2     		uxth	r2, r3
 410 0096 034B     		ldr	r3, .L21
 411 0098 1A80     		strh	r2, [r3]
  91:.\lib_DB/database.c ****     return true;
 412              		.loc 1 91 0
 413 009a 0123     		mov	r3, #1
  92:.\lib_DB/database.c **** }
 414              		.loc 1 92 0
 415 009c 181C     		mov	r0, r3
 416 009e BD46     		mov	sp, r7
 417 00a0 05B0     		add	sp, sp, #20
 418              		@ sp needed
 419 00a2 90BD     		pop	{r4, r7, pc}
ARM GAS  C:\Users\Petro\AppData\Local\Temp\cceUkp3V.s 			page 10


 420              	.L22:
 421              		.align	2
 422              	.L21:
 423 00a4 00000000 		.word	skiersFinished
 424 00a8 00000000 		.word	skierDB
 425              		.cfi_endproc
 426              	.LFE68:
 427              		.size	WriteFinishTime, .-WriteFinishTime
 428              		.section	.text.SkierOnWay,"ax",%progbits
 429              		.align	2
 430              		.global	SkierOnWay
 431              		.code	16
 432              		.thumb_func
 433              		.type	SkierOnWay, %function
 434              	SkierOnWay:
 435              	.LFB69:
  93:.\lib_DB/database.c **** 
  94:.\lib_DB/database.c **** uint32_t SkierOnWay()
  95:.\lib_DB/database.c **** {
 436              		.loc 1 95 0
 437              		.cfi_startproc
 438 0000 80B5     		push	{r7, lr}
 439              		.cfi_def_cfa_offset 8
 440              		.cfi_offset 7, -8
 441              		.cfi_offset 14, -4
 442 0002 00AF     		add	r7, sp, #0
 443              		.cfi_def_cfa_register 7
  96:.\lib_DB/database.c ****     return currentSizeBuff;
 444              		.loc 1 96 0
 445 0004 024B     		ldr	r3, .L25
 446 0006 1B68     		ldr	r3, [r3]
  97:.\lib_DB/database.c **** }
 447              		.loc 1 97 0
 448 0008 181C     		mov	r0, r3
 449 000a BD46     		mov	sp, r7
 450              		@ sp needed
 451 000c 80BD     		pop	{r7, pc}
 452              	.L26:
 453 000e C046     		.align	2
 454              	.L25:
 455 0010 00000000 		.word	currentSizeBuff
 456              		.cfi_endproc
 457              	.LFE69:
 458              		.size	SkierOnWay, .-SkierOnWay
 459              		.section	.text.TimeOnWay,"ax",%progbits
 460              		.align	2
 461              		.global	TimeOnWay
 462              		.code	16
 463              		.thumb_func
 464              		.type	TimeOnWay, %function
 465              	TimeOnWay:
 466              	.LFB70:
  98:.\lib_DB/database.c **** 
  99:.\lib_DB/database.c **** uint32_t TimeOnWay(uint32_t Number)
 100:.\lib_DB/database.c **** {
 467              		.loc 1 100 0
 468              		.cfi_startproc
ARM GAS  C:\Users\Petro\AppData\Local\Temp\cceUkp3V.s 			page 11


 469 0000 90B5     		push	{r4, r7, lr}
 470              		.cfi_def_cfa_offset 12
 471              		.cfi_offset 4, -12
 472              		.cfi_offset 7, -8
 473              		.cfi_offset 14, -4
 474 0002 83B0     		sub	sp, sp, #12
 475              		.cfi_def_cfa_offset 24
 476 0004 00AF     		add	r7, sp, #0
 477              		.cfi_def_cfa_register 7
 478 0006 7860     		str	r0, [r7, #4]
 101:.\lib_DB/database.c ****     skierDB[Number].SecondsWay =  skierDB[Number].unixFinishSkier - skierDB[Number].unixStartSkier;
 479              		.loc 1 101 0
 480 0008 3E49     		ldr	r1, .L30
 481 000a 7A68     		ldr	r2, [r7, #4]
 482 000c 131C     		mov	r3, r2
 483 000e 5B00     		lsl	r3, r3, #1
 484 0010 9B18     		add	r3, r3, r2
 485 0012 1B01     		lsl	r3, r3, #4
 486 0014 CB18     		add	r3, r1, r3
 487 0016 1033     		add	r3, r3, #16
 488 0018 1968     		ldr	r1, [r3]
 489 001a 5A68     		ldr	r2, [r3, #4]
 490 001c 394C     		ldr	r4, .L30
 491 001e 7868     		ldr	r0, [r7, #4]
 492 0020 031C     		mov	r3, r0
 493 0022 5B00     		lsl	r3, r3, #1
 494 0024 1B18     		add	r3, r3, r0
 495 0026 1B01     		lsl	r3, r3, #4
 496 0028 E318     		add	r3, r4, r3
 497 002a 5C68     		ldr	r4, [r3, #4]
 498 002c 1B68     		ldr	r3, [r3]
 499 002e C91A     		sub	r1, r1, r3
 500 0030 A241     		sbc	r2, r2, r4
 501 0032 344C     		ldr	r4, .L30
 502 0034 7868     		ldr	r0, [r7, #4]
 503 0036 031C     		mov	r3, r0
 504 0038 5B00     		lsl	r3, r3, #1
 505 003a 1B18     		add	r3, r3, r0
 506 003c 1B01     		lsl	r3, r3, #4
 507 003e E318     		add	r3, r4, r3
 508 0040 2033     		add	r3, r3, #32
 509 0042 1960     		str	r1, [r3]
 510 0044 5A60     		str	r2, [r3, #4]
 102:.\lib_DB/database.c ****     skierDB[Number].millsWay =  skierDB[Number].millsFinishSkier - skierDB[Number].millsStartSkier;
 511              		.loc 1 102 0
 512 0046 2F49     		ldr	r1, .L30
 513 0048 7A68     		ldr	r2, [r7, #4]
 514 004a 131C     		mov	r3, r2
 515 004c 5B00     		lsl	r3, r3, #1
 516 004e 9B18     		add	r3, r3, r2
 517 0050 1B01     		lsl	r3, r3, #4
 518 0052 CB18     		add	r3, r1, r3
 519 0054 1833     		add	r3, r3, #24
 520 0056 1988     		ldrh	r1, [r3]
 521 0058 2A48     		ldr	r0, .L30
 522 005a 7A68     		ldr	r2, [r7, #4]
 523 005c 131C     		mov	r3, r2
ARM GAS  C:\Users\Petro\AppData\Local\Temp\cceUkp3V.s 			page 12


 524 005e 5B00     		lsl	r3, r3, #1
 525 0060 9B18     		add	r3, r3, r2
 526 0062 1B01     		lsl	r3, r3, #4
 527 0064 C318     		add	r3, r0, r3
 528 0066 0833     		add	r3, r3, #8
 529 0068 1B88     		ldrh	r3, [r3]
 530 006a CB1A     		sub	r3, r1, r3
 531 006c 98B2     		uxth	r0, r3
 532 006e 2549     		ldr	r1, .L30
 533 0070 7A68     		ldr	r2, [r7, #4]
 534 0072 131C     		mov	r3, r2
 535 0074 5B00     		lsl	r3, r3, #1
 536 0076 9B18     		add	r3, r3, r2
 537 0078 1B01     		lsl	r3, r3, #4
 538 007a CB18     		add	r3, r1, r3
 539 007c 2833     		add	r3, r3, #40
 540 007e 021C     		add	r2, r0, #0
 541 0080 1A80     		strh	r2, [r3]
 103:.\lib_DB/database.c ****     if (skierDB[Number].millsWay > 1000u)
 542              		.loc 1 103 0
 543 0082 2049     		ldr	r1, .L30
 544 0084 7A68     		ldr	r2, [r7, #4]
 545 0086 131C     		mov	r3, r2
 546 0088 5B00     		lsl	r3, r3, #1
 547 008a 9B18     		add	r3, r3, r2
 548 008c 1B01     		lsl	r3, r3, #4
 549 008e CB18     		add	r3, r1, r3
 550 0090 2833     		add	r3, r3, #40
 551 0092 1A88     		ldrh	r2, [r3]
 552 0094 FA23     		mov	r3, #250
 553 0096 9B00     		lsl	r3, r3, #2
 554 0098 9A42     		cmp	r2, r3
 555 009a 2DD9     		bls	.L28
 104:.\lib_DB/database.c ****     {
 105:.\lib_DB/database.c ****         skierDB[Number].SecondsWay--;
 556              		.loc 1 105 0
 557 009c 1949     		ldr	r1, .L30
 558 009e 7A68     		ldr	r2, [r7, #4]
 559 00a0 131C     		mov	r3, r2
 560 00a2 5B00     		lsl	r3, r3, #1
 561 00a4 9B18     		add	r3, r3, r2
 562 00a6 1B01     		lsl	r3, r3, #4
 563 00a8 CB18     		add	r3, r1, r3
 564 00aa 2033     		add	r3, r3, #32
 565 00ac 5C68     		ldr	r4, [r3, #4]
 566 00ae 1B68     		ldr	r3, [r3]
 567 00b0 0121     		mov	r1, #1
 568 00b2 4942     		neg	r1, r1
 569 00b4 CA17     		asr	r2, r1, #31
 570 00b6 C918     		add	r1, r1, r3
 571 00b8 6241     		adc	r2, r2, r4
 572 00ba 124C     		ldr	r4, .L30
 573 00bc 7868     		ldr	r0, [r7, #4]
 574 00be 031C     		mov	r3, r0
 575 00c0 5B00     		lsl	r3, r3, #1
 576 00c2 1B18     		add	r3, r3, r0
 577 00c4 1B01     		lsl	r3, r3, #4
ARM GAS  C:\Users\Petro\AppData\Local\Temp\cceUkp3V.s 			page 13


 578 00c6 E318     		add	r3, r4, r3
 579 00c8 2033     		add	r3, r3, #32
 580 00ca 1960     		str	r1, [r3]
 581 00cc 5A60     		str	r2, [r3, #4]
 106:.\lib_DB/database.c ****         skierDB[Number].millsWay = 0 - skierDB[Number].millsWay;
 582              		.loc 1 106 0
 583 00ce 0D49     		ldr	r1, .L30
 584 00d0 7A68     		ldr	r2, [r7, #4]
 585 00d2 131C     		mov	r3, r2
 586 00d4 5B00     		lsl	r3, r3, #1
 587 00d6 9B18     		add	r3, r3, r2
 588 00d8 1B01     		lsl	r3, r3, #4
 589 00da CB18     		add	r3, r1, r3
 590 00dc 2833     		add	r3, r3, #40
 591 00de 1B88     		ldrh	r3, [r3]
 592 00e0 5B42     		neg	r3, r3
 593 00e2 98B2     		uxth	r0, r3
 594 00e4 0749     		ldr	r1, .L30
 595 00e6 7A68     		ldr	r2, [r7, #4]
 596 00e8 131C     		mov	r3, r2
 597 00ea 5B00     		lsl	r3, r3, #1
 598 00ec 9B18     		add	r3, r3, r2
 599 00ee 1B01     		lsl	r3, r3, #4
 600 00f0 CB18     		add	r3, r1, r3
 601 00f2 2833     		add	r3, r3, #40
 602 00f4 021C     		add	r2, r0, #0
 603 00f6 1A80     		strh	r2, [r3]
 604              	.L28:
 107:.\lib_DB/database.c ****     }
 108:.\lib_DB/database.c ****     return 1u;
 605              		.loc 1 108 0
 606 00f8 0123     		mov	r3, #1
 109:.\lib_DB/database.c **** }
 607              		.loc 1 109 0
 608 00fa 181C     		mov	r0, r3
 609 00fc BD46     		mov	sp, r7
 610 00fe 03B0     		add	sp, sp, #12
 611              		@ sp needed
 612 0100 90BD     		pop	{r4, r7, pc}
 613              	.L31:
 614 0102 C046     		.align	2
 615              	.L30:
 616 0104 00000000 		.word	skierDB
 617              		.cfi_endproc
 618              	.LFE70:
 619              		.size	TimeOnWay, .-TimeOnWay
 620              		.section	.text.LastSecTimeOnWay,"ax",%progbits
 621              		.align	2
 622              		.global	LastSecTimeOnWay
 623              		.code	16
 624              		.thumb_func
 625              		.type	LastSecTimeOnWay, %function
 626              	LastSecTimeOnWay:
 627              	.LFB71:
 110:.\lib_DB/database.c **** 
 111:.\lib_DB/database.c **** uint32_t LastSecTimeOnWay()
 112:.\lib_DB/database.c **** {
ARM GAS  C:\Users\Petro\AppData\Local\Temp\cceUkp3V.s 			page 14


 628              		.loc 1 112 0
 629              		.cfi_startproc
 630 0000 90B5     		push	{r4, r7, lr}
 631              		.cfi_def_cfa_offset 12
 632              		.cfi_offset 4, -12
 633              		.cfi_offset 7, -8
 634              		.cfi_offset 14, -4
 635 0002 83B0     		sub	sp, sp, #12
 636              		.cfi_def_cfa_offset 24
 637 0004 00AF     		add	r7, sp, #0
 638              		.cfi_def_cfa_register 7
 113:.\lib_DB/database.c ****     uint32_t tmpData;
 114:.\lib_DB/database.c ****     if (skiersFinished == 0)
 639              		.loc 1 114 0
 640 0006 0F4B     		ldr	r3, .L36
 641 0008 1B88     		ldrh	r3, [r3]
 642 000a 002B     		cmp	r3, #0
 643 000c 07D1     		bne	.L33
 115:.\lib_DB/database.c ****     {
 116:.\lib_DB/database.c ****         tmpData = skierDB[MAX_SKIERS_ON_DB].SecondsWay;
 644              		.loc 1 116 0
 645 000e 0E4A     		ldr	r2, .L36+4
 646 0010 E223     		mov	r3, #226
 647 0012 5B01     		lsl	r3, r3, #5
 648 0014 D318     		add	r3, r2, r3
 649 0016 5C68     		ldr	r4, [r3, #4]
 650 0018 1B68     		ldr	r3, [r3]
 651 001a 7B60     		str	r3, [r7, #4]
 652 001c 0CE0     		b	.L34
 653              	.L33:
 117:.\lib_DB/database.c ****     }
 118:.\lib_DB/database.c ****     else
 119:.\lib_DB/database.c ****     {
 120:.\lib_DB/database.c ****         tmpData = skierDB[skiersFinished-1].SecondsWay;
 654              		.loc 1 120 0
 655 001e 094B     		ldr	r3, .L36
 656 0020 1B88     		ldrh	r3, [r3]
 657 0022 5A1E     		sub	r2, r3, #1
 658 0024 0849     		ldr	r1, .L36+4
 659 0026 131C     		mov	r3, r2
 660 0028 5B00     		lsl	r3, r3, #1
 661 002a 9B18     		add	r3, r3, r2
 662 002c 1B01     		lsl	r3, r3, #4
 663 002e CB18     		add	r3, r1, r3
 664 0030 2033     		add	r3, r3, #32
 665 0032 5C68     		ldr	r4, [r3, #4]
 666 0034 1B68     		ldr	r3, [r3]
 667 0036 7B60     		str	r3, [r7, #4]
 668              	.L34:
 121:.\lib_DB/database.c ****     }
 122:.\lib_DB/database.c ****     return tmpData;
 669              		.loc 1 122 0
 670 0038 7B68     		ldr	r3, [r7, #4]
 123:.\lib_DB/database.c **** }
 671              		.loc 1 123 0
 672 003a 181C     		mov	r0, r3
 673 003c BD46     		mov	sp, r7
ARM GAS  C:\Users\Petro\AppData\Local\Temp\cceUkp3V.s 			page 15


 674 003e 03B0     		add	sp, sp, #12
 675              		@ sp needed
 676 0040 90BD     		pop	{r4, r7, pc}
 677              	.L37:
 678 0042 C046     		.align	2
 679              	.L36:
 680 0044 00000000 		.word	skiersFinished
 681 0048 00000000 		.word	skierDB
 682              		.cfi_endproc
 683              	.LFE71:
 684              		.size	LastSecTimeOnWay, .-LastSecTimeOnWay
 685              		.section	.text.LastMillsTimeOnWay,"ax",%progbits
 686              		.align	2
 687              		.global	LastMillsTimeOnWay
 688              		.code	16
 689              		.thumb_func
 690              		.type	LastMillsTimeOnWay, %function
 691              	LastMillsTimeOnWay:
 692              	.LFB72:
 124:.\lib_DB/database.c **** 
 125:.\lib_DB/database.c **** uint32_t LastMillsTimeOnWay()
 126:.\lib_DB/database.c **** {
 693              		.loc 1 126 0
 694              		.cfi_startproc
 695 0000 80B5     		push	{r7, lr}
 696              		.cfi_def_cfa_offset 8
 697              		.cfi_offset 7, -8
 698              		.cfi_offset 14, -4
 699 0002 82B0     		sub	sp, sp, #8
 700              		.cfi_def_cfa_offset 16
 701 0004 00AF     		add	r7, sp, #0
 702              		.cfi_def_cfa_register 7
 127:.\lib_DB/database.c ****     uint32_t tmpData;
 128:.\lib_DB/database.c ****     if (skiersFinished == 0)
 703              		.loc 1 128 0
 704 0006 0D4B     		ldr	r3, .L42
 705 0008 1B88     		ldrh	r3, [r3]
 706 000a 002B     		cmp	r3, #0
 707 000c 04D1     		bne	.L39
 129:.\lib_DB/database.c ****     {
 130:.\lib_DB/database.c ****         tmpData = skierDB[MAX_SKIERS_ON_DB].millsWay;
 708              		.loc 1 130 0
 709 000e 0C4B     		ldr	r3, .L42+4
 710 0010 0C4A     		ldr	r2, .L42+8
 711 0012 9B5A     		ldrh	r3, [r3, r2]
 712 0014 7B60     		str	r3, [r7, #4]
 713 0016 0BE0     		b	.L40
 714              	.L39:
 131:.\lib_DB/database.c ****     }
 132:.\lib_DB/database.c ****     else
 133:.\lib_DB/database.c ****     {
 134:.\lib_DB/database.c ****         tmpData = skierDB[skiersFinished-1].millsWay;
 715              		.loc 1 134 0
 716 0018 084B     		ldr	r3, .L42
 717 001a 1B88     		ldrh	r3, [r3]
 718 001c 5A1E     		sub	r2, r3, #1
 719 001e 0849     		ldr	r1, .L42+4
ARM GAS  C:\Users\Petro\AppData\Local\Temp\cceUkp3V.s 			page 16


 720 0020 131C     		mov	r3, r2
 721 0022 5B00     		lsl	r3, r3, #1
 722 0024 9B18     		add	r3, r3, r2
 723 0026 1B01     		lsl	r3, r3, #4
 724 0028 CB18     		add	r3, r1, r3
 725 002a 2833     		add	r3, r3, #40
 726 002c 1B88     		ldrh	r3, [r3]
 727 002e 7B60     		str	r3, [r7, #4]
 728              	.L40:
 135:.\lib_DB/database.c ****     }
 136:.\lib_DB/database.c ****     return tmpData;
 729              		.loc 1 136 0
 730 0030 7B68     		ldr	r3, [r7, #4]
 137:.\lib_DB/database.c **** }
 731              		.loc 1 137 0
 732 0032 181C     		mov	r0, r3
 733 0034 BD46     		mov	sp, r7
 734 0036 02B0     		add	sp, sp, #8
 735              		@ sp needed
 736 0038 80BD     		pop	{r7, pc}
 737              	.L43:
 738 003a C046     		.align	2
 739              	.L42:
 740 003c 00000000 		.word	skiersFinished
 741 0040 00000000 		.word	skierDB
 742 0044 481C0000 		.word	7240
 743              		.cfi_endproc
 744              	.LFE72:
 745              		.size	LastMillsTimeOnWay, .-LastMillsTimeOnWay
 746              		.section	.text.FifoGetSize,"ax",%progbits
 747              		.align	2
 748              		.global	FifoGetSize
 749              		.code	16
 750              		.thumb_func
 751              		.type	FifoGetSize, %function
 752              	FifoGetSize:
 753              	.LFB73:
 138:.\lib_DB/database.c **** 
 139:.\lib_DB/database.c **** 
 140:.\lib_DB/database.c **** /*FIFO*/
 141:.\lib_DB/database.c **** uint16_t FifoGetSize(void)
 142:.\lib_DB/database.c **** {
 754              		.loc 1 142 0
 755              		.cfi_startproc
 756 0000 80B5     		push	{r7, lr}
 757              		.cfi_def_cfa_offset 8
 758              		.cfi_offset 7, -8
 759              		.cfi_offset 14, -4
 760 0002 00AF     		add	r7, sp, #0
 761              		.cfi_def_cfa_register 7
 143:.\lib_DB/database.c ****     return fifo.size;
 762              		.loc 1 143 0
 763 0004 024B     		ldr	r3, .L46
 764 0006 1B88     		ldrh	r3, [r3]
 144:.\lib_DB/database.c **** }
 765              		.loc 1 144 0
 766 0008 181C     		mov	r0, r3
ARM GAS  C:\Users\Petro\AppData\Local\Temp\cceUkp3V.s 			page 17


 767 000a BD46     		mov	sp, r7
 768              		@ sp needed
 769 000c 80BD     		pop	{r7, pc}
 770              	.L47:
 771 000e C046     		.align	2
 772              	.L46:
 773 0010 00000000 		.word	fifo
 774              		.cfi_endproc
 775              	.LFE73:
 776              		.size	FifoGetSize, .-FifoGetSize
 777              		.section	.text.FifoPush,"ax",%progbits
 778              		.align	2
 779              		.global	FifoPush
 780              		.code	16
 781              		.thumb_func
 782              		.type	FifoPush, %function
 783              	FifoPush:
 784              	.LFB74:
 145:.\lib_DB/database.c **** 
 146:.\lib_DB/database.c **** void FifoPush(skierDB_El data)
 147:.\lib_DB/database.c **** {
 785              		.loc 1 147 0
 786              		.cfi_startproc
 787 0000 84B0     		sub	sp, sp, #16
 788              		.cfi_def_cfa_offset 16
 789 0002 98B5     		push	{r3, r4, r7, lr}
 790              		.cfi_def_cfa_offset 32
 791              		.cfi_offset 3, -32
 792              		.cfi_offset 4, -28
 793              		.cfi_offset 7, -24
 794              		.cfi_offset 14, -20
 795 0004 00AF     		add	r7, sp, #0
 796              		.cfi_def_cfa_register 7
 797 0006 1024     		mov	r4, #16
 798 0008 3C19     		add	r4, r7, r4
 799 000a 2060     		str	r0, [r4]
 800 000c 6160     		str	r1, [r4, #4]
 801 000e A260     		str	r2, [r4, #8]
 802 0010 E360     		str	r3, [r4, #12]
 148:.\lib_DB/database.c ****     if (fifo.size<fifo.totalSize)           
 803              		.loc 1 148 0
 804 0012 194B     		ldr	r3, .L50
 805 0014 1A88     		ldrh	r2, [r3]
 806 0016 184B     		ldr	r3, .L50
 807 0018 DB88     		ldrh	r3, [r3, #6]
 808 001a 9A42     		cmp	r2, r3
 809 001c 26D2     		bcs	.L48
 149:.\lib_DB/database.c ****     {                                                  
 150:.\lib_DB/database.c ****         ++fifo.size;                               
 810              		.loc 1 150 0
 811 001e 164B     		ldr	r3, .L50
 812 0020 1B88     		ldrh	r3, [r3]
 813 0022 0133     		add	r3, r3, #1
 814 0024 9AB2     		uxth	r2, r3
 815 0026 144B     		ldr	r3, .L50
 816 0028 1A80     		strh	r2, [r3]
 151:.\lib_DB/database.c ****                                                        
ARM GAS  C:\Users\Petro\AppData\Local\Temp\cceUkp3V.s 			page 18


 152:.\lib_DB/database.c ****         fifo.buffer[fifo.lastElement++] = data;  
 817              		.loc 1 152 0
 818 002a 134B     		ldr	r3, .L50
 819 002c 9B88     		ldrh	r3, [r3, #4]
 820 002e 5A1C     		add	r2, r3, #1
 821 0030 91B2     		uxth	r1, r2
 822 0032 114A     		ldr	r2, .L50
 823 0034 9180     		strh	r1, [r2, #4]
 824 0036 181C     		mov	r0, r3
 825 0038 0F4A     		ldr	r2, .L50
 826 003a 0821     		mov	r1, #8
 827 003c 031C     		mov	r3, r0
 828 003e 5B00     		lsl	r3, r3, #1
 829 0040 1B18     		add	r3, r3, r0
 830 0042 1B01     		lsl	r3, r3, #4
 831 0044 D318     		add	r3, r2, r3
 832 0046 5B18     		add	r3, r3, r1
 833 0048 1022     		mov	r2, #16
 834 004a BA18     		add	r2, r7, r2
 835 004c 191C     		mov	r1, r3
 836 004e 3023     		mov	r3, #48
 837 0050 081C     		mov	r0, r1
 838 0052 111C     		mov	r1, r2
 839 0054 1A1C     		mov	r2, r3
 840 0056 FFF7FEFF 		bl	memcpy
 153:.\lib_DB/database.c ****                                                        
 154:.\lib_DB/database.c ****         if (fifo.lastElement == fifo.totalSize) 
 841              		.loc 1 154 0
 842 005a 074B     		ldr	r3, .L50
 843 005c 9A88     		ldrh	r2, [r3, #4]
 844 005e 064B     		ldr	r3, .L50
 845 0060 DB88     		ldrh	r3, [r3, #6]
 846 0062 9A42     		cmp	r2, r3
 847 0064 02D1     		bne	.L48
 155:.\lib_DB/database.c ****             fifo.lastElement = 0;
 848              		.loc 1 155 0
 849 0066 044B     		ldr	r3, .L50
 850 0068 0022     		mov	r2, #0
 851 006a 9A80     		strh	r2, [r3, #4]
 852              	.L48:
 156:.\lib_DB/database.c ****     }  
 157:.\lib_DB/database.c **** }
 853              		.loc 1 157 0
 854 006c BD46     		mov	sp, r7
 855              		@ sp needed
 856 006e 98BC     		pop	{r3, r4, r7}
 857 0070 08BC     		pop	{r3}
 858 0072 04B0     		add	sp, sp, #16
 859 0074 1847     		bx	r3
 860              	.L51:
 861 0076 C046     		.align	2
 862              	.L50:
 863 0078 00000000 		.word	fifo
 864              		.cfi_endproc
 865              	.LFE74:
 866              		.size	FifoPush, .-FifoPush
 867              		.section	.text.FifoGet,"ax",%progbits
ARM GAS  C:\Users\Petro\AppData\Local\Temp\cceUkp3V.s 			page 19


 868              		.align	2
 869              		.global	FifoGet
 870              		.code	16
 871              		.thumb_func
 872              		.type	FifoGet, %function
 873              	FifoGet:
 874              	.LFB75:
 158:.\lib_DB/database.c **** 
 159:.\lib_DB/database.c **** void FifoGet(skierDB_El *data)                    
 160:.\lib_DB/database.c **** {                                                   
 875              		.loc 1 160 0
 876              		.cfi_startproc
 877 0000 90B5     		push	{r4, r7, lr}
 878              		.cfi_def_cfa_offset 12
 879              		.cfi_offset 4, -12
 880              		.cfi_offset 7, -8
 881              		.cfi_offset 14, -4
 882 0002 83B0     		sub	sp, sp, #12
 883              		.cfi_def_cfa_offset 24
 884 0004 00AF     		add	r7, sp, #0
 885              		.cfi_def_cfa_register 7
 886 0006 7860     		str	r0, [r7, #4]
 161:.\lib_DB/database.c ****     if (fifo.size != 0)                             
 887              		.loc 1 161 0
 888 0008 164B     		ldr	r3, .L55
 889 000a 1B88     		ldrh	r3, [r3]
 890 000c 002B     		cmp	r3, #0
 891 000e 26D0     		beq	.L52
 162:.\lib_DB/database.c ****     {                                                           
 163:.\lib_DB/database.c ****         *data = fifo.buffer[fifo.firstElement++];
 892              		.loc 1 163 0
 893 0010 144B     		ldr	r3, .L55
 894 0012 5B88     		ldrh	r3, [r3, #2]
 895 0014 5A1C     		add	r2, r3, #1
 896 0016 91B2     		uxth	r1, r2
 897 0018 124A     		ldr	r2, .L55
 898 001a 5180     		strh	r1, [r2, #2]
 899 001c 181C     		mov	r0, r3
 900 001e 7C68     		ldr	r4, [r7, #4]
 901 0020 104A     		ldr	r2, .L55
 902 0022 0821     		mov	r1, #8
 903 0024 031C     		mov	r3, r0
 904 0026 5B00     		lsl	r3, r3, #1
 905 0028 1B18     		add	r3, r3, r0
 906 002a 1B01     		lsl	r3, r3, #4
 907 002c D318     		add	r3, r2, r3
 908 002e 5B18     		add	r3, r3, r1
 909 0030 211C     		mov	r1, r4
 910 0032 1A1C     		mov	r2, r3
 911 0034 3023     		mov	r3, #48
 912 0036 081C     		mov	r0, r1
 913 0038 111C     		mov	r1, r2
 914 003a 1A1C     		mov	r2, r3
 915 003c FFF7FEFF 		bl	memcpy
 164:.\lib_DB/database.c ****                                                         
 165:.\lib_DB/database.c ****         if (fifo.firstElement == fifo.totalSize) 
 916              		.loc 1 165 0
ARM GAS  C:\Users\Petro\AppData\Local\Temp\cceUkp3V.s 			page 20


 917 0040 084B     		ldr	r3, .L55
 918 0042 5A88     		ldrh	r2, [r3, #2]
 919 0044 074B     		ldr	r3, .L55
 920 0046 DB88     		ldrh	r3, [r3, #6]
 921 0048 9A42     		cmp	r2, r3
 922 004a 02D1     		bne	.L54
 166:.\lib_DB/database.c ****             fifo.firstElement = 0;  
 923              		.loc 1 166 0
 924 004c 054B     		ldr	r3, .L55
 925 004e 0022     		mov	r2, #0
 926 0050 5A80     		strh	r2, [r3, #2]
 927              	.L54:
 167:.\lib_DB/database.c ****         
 168:.\lib_DB/database.c ****         --fifo.size;                               
 928              		.loc 1 168 0
 929 0052 044B     		ldr	r3, .L55
 930 0054 1B88     		ldrh	r3, [r3]
 931 0056 013B     		sub	r3, r3, #1
 932 0058 9AB2     		uxth	r2, r3
 933 005a 024B     		ldr	r3, .L55
 934 005c 1A80     		strh	r2, [r3]
 935              	.L52:
 169:.\lib_DB/database.c ****     }                                                  
 170:.\lib_DB/database.c **** }
 936              		.loc 1 170 0
 937 005e BD46     		mov	sp, r7
 938 0060 03B0     		add	sp, sp, #12
 939              		@ sp needed
 940 0062 90BD     		pop	{r4, r7, pc}
 941              	.L56:
 942              		.align	2
 943              	.L55:
 944 0064 00000000 		.word	fifo
 945              		.cfi_endproc
 946              	.LFE75:
 947              		.size	FifoGet, .-FifoGet
 948              		.section	.text.FifoPushLast,"ax",%progbits
 949              		.align	2
 950              		.global	FifoPushLast
 951              		.code	16
 952              		.thumb_func
 953              		.type	FifoPushLast, %function
 954              	FifoPushLast:
 955              	.LFB76:
 171:.\lib_DB/database.c **** 
 172:.\lib_DB/database.c **** void FifoPushLast(skierDB_El data)
 173:.\lib_DB/database.c **** {
 956              		.loc 1 173 0
 957              		.cfi_startproc
 958 0000 84B0     		sub	sp, sp, #16
 959              		.cfi_def_cfa_offset 16
 960 0002 98B5     		push	{r3, r4, r7, lr}
 961              		.cfi_def_cfa_offset 32
 962              		.cfi_offset 3, -32
 963              		.cfi_offset 4, -28
 964              		.cfi_offset 7, -24
 965              		.cfi_offset 14, -20
ARM GAS  C:\Users\Petro\AppData\Local\Temp\cceUkp3V.s 			page 21


 966 0004 00AF     		add	r7, sp, #0
 967              		.cfi_def_cfa_register 7
 968 0006 1024     		mov	r4, #16
 969 0008 3C19     		add	r4, r7, r4
 970 000a 2060     		str	r0, [r4]
 971 000c 6160     		str	r1, [r4, #4]
 972 000e A260     		str	r2, [r4, #8]
 973 0010 E360     		str	r3, [r4, #12]
 174:.\lib_DB/database.c ****     fifo.last = data;
 974              		.loc 1 174 0
 975 0012 074A     		ldr	r2, .L58
 976 0014 9223     		mov	r3, #146
 977 0016 9B00     		lsl	r3, r3, #2
 978 0018 1021     		mov	r1, #16
 979 001a 7918     		add	r1, r7, r1
 980 001c D318     		add	r3, r2, r3
 981 001e 3022     		mov	r2, #48
 982 0020 181C     		mov	r0, r3
 983 0022 FFF7FEFF 		bl	memcpy
 175:.\lib_DB/database.c **** }
 984              		.loc 1 175 0
 985 0026 BD46     		mov	sp, r7
 986              		@ sp needed
 987 0028 98BC     		pop	{r3, r4, r7}
 988 002a 08BC     		pop	{r3}
 989 002c 04B0     		add	sp, sp, #16
 990 002e 1847     		bx	r3
 991              	.L59:
 992              		.align	2
 993              	.L58:
 994 0030 00000000 		.word	fifo
 995              		.cfi_endproc
 996              	.LFE76:
 997              		.size	FifoPushLast, .-FifoPushLast
 998              		.text
 999              	.Letext0:
 1000              		.file 2 "c:\\program files (x86)\\cypress\\psoc creator\\3.3\\psoc creator\\import\\gnu\\arm\\4.9.
 1001              		.file 3 "c:\\program files (x86)\\cypress\\psoc creator\\3.3\\psoc creator\\import\\gnu\\arm\\4.9.
 1002              		.file 4 "./lib_DB\\database.h"
 1003              		.file 5 "./lib_Fat\\integer.h"
 1004              		.file 6 "./lib_Fat\\ff.h"
 1005              		.file 7 "./lib_DB\\logResult.h"
 1006              		.section	.debug_info,"",%progbits
 1007              	.Ldebug_info0:
 1008 0000 84070000 		.4byte	0x784
 1009 0004 0400     		.2byte	0x4
 1010 0006 00000000 		.4byte	.Ldebug_abbrev0
 1011 000a 04       		.byte	0x4
 1012 000b 01       		.uleb128 0x1
 1013 000c 81020000 		.4byte	.LASF114
 1014 0010 01       		.byte	0x1
 1015 0011 7E040000 		.4byte	.LASF115
 1016 0015 51030000 		.4byte	.LASF116
 1017 0019 00000000 		.4byte	.Ldebug_ranges0+0
 1018 001d 00000000 		.4byte	0
 1019 0021 00000000 		.4byte	.Ldebug_line0
 1020 0025 02       		.uleb128 0x2
ARM GAS  C:\Users\Petro\AppData\Local\Temp\cceUkp3V.s 			page 22


 1021 0026 01       		.byte	0x1
 1022 0027 06       		.byte	0x6
 1023 0028 87050000 		.4byte	.LASF0
 1024 002c 02       		.uleb128 0x2
 1025 002d 01       		.byte	0x1
 1026 002e 08       		.byte	0x8
 1027 002f F5040000 		.4byte	.LASF1
 1028 0033 02       		.uleb128 0x2
 1029 0034 02       		.byte	0x2
 1030 0035 05       		.byte	0x5
 1031 0036 1E040000 		.4byte	.LASF2
 1032 003a 03       		.uleb128 0x3
 1033 003b 6F010000 		.4byte	.LASF5
 1034 003f 02       		.byte	0x2
 1035 0040 2B       		.byte	0x2b
 1036 0041 45000000 		.4byte	0x45
 1037 0045 02       		.uleb128 0x2
 1038 0046 02       		.byte	0x2
 1039 0047 07       		.byte	0x7
 1040 0048 93050000 		.4byte	.LASF3
 1041 004c 02       		.uleb128 0x2
 1042 004d 04       		.byte	0x4
 1043 004e 05       		.byte	0x5
 1044 004f 3B040000 		.4byte	.LASF4
 1045 0053 03       		.uleb128 0x3
 1046 0054 03050000 		.4byte	.LASF6
 1047 0058 02       		.byte	0x2
 1048 0059 41       		.byte	0x41
 1049 005a 5E000000 		.4byte	0x5e
 1050 005e 02       		.uleb128 0x2
 1051 005f 04       		.byte	0x4
 1052 0060 07       		.byte	0x7
 1053 0061 CF040000 		.4byte	.LASF7
 1054 0065 02       		.uleb128 0x2
 1055 0066 08       		.byte	0x8
 1056 0067 05       		.byte	0x5
 1057 0068 2C020000 		.4byte	.LASF8
 1058 006c 03       		.uleb128 0x3
 1059 006d D6010000 		.4byte	.LASF9
 1060 0071 02       		.byte	0x2
 1061 0072 5B       		.byte	0x5b
 1062 0073 77000000 		.4byte	0x77
 1063 0077 02       		.uleb128 0x2
 1064 0078 08       		.byte	0x8
 1065 0079 07       		.byte	0x7
 1066 007a 3C010000 		.4byte	.LASF10
 1067 007e 04       		.uleb128 0x4
 1068 007f 04       		.byte	0x4
 1069 0080 05       		.byte	0x5
 1070 0081 696E7400 		.ascii	"int\000"
 1071 0085 02       		.uleb128 0x2
 1072 0086 04       		.byte	0x4
 1073 0087 07       		.byte	0x7
 1074 0088 51000000 		.4byte	.LASF11
 1075 008c 03       		.uleb128 0x3
 1076 008d CE030000 		.4byte	.LASF12
 1077 0091 03       		.byte	0x3
ARM GAS  C:\Users\Petro\AppData\Local\Temp\cceUkp3V.s 			page 23


 1078 0092 21       		.byte	0x21
 1079 0093 3A000000 		.4byte	0x3a
 1080 0097 03       		.uleb128 0x3
 1081 0098 E7000000 		.4byte	.LASF13
 1082 009c 03       		.byte	0x3
 1083 009d 2D       		.byte	0x2d
 1084 009e 53000000 		.4byte	0x53
 1085 00a2 03       		.uleb128 0x3
 1086 00a3 59040000 		.4byte	.LASF14
 1087 00a7 03       		.byte	0x3
 1088 00a8 39       		.byte	0x39
 1089 00a9 6C000000 		.4byte	0x6c
 1090 00ad 05       		.uleb128 0x5
 1091 00ae 30       		.byte	0x30
 1092 00af 04       		.byte	0x4
 1093 00b0 1B       		.byte	0x1b
 1094 00b1 FE000000 		.4byte	0xfe
 1095 00b5 06       		.uleb128 0x6
 1096 00b6 56050000 		.4byte	.LASF15
 1097 00ba 04       		.byte	0x4
 1098 00bb 1D       		.byte	0x1d
 1099 00bc A2000000 		.4byte	0xa2
 1100 00c0 00       		.byte	0
 1101 00c1 06       		.uleb128 0x6
 1102 00c2 1F010000 		.4byte	.LASF16
 1103 00c6 04       		.byte	0x4
 1104 00c7 1E       		.byte	0x1e
 1105 00c8 8C000000 		.4byte	0x8c
 1106 00cc 08       		.byte	0x8
 1107 00cd 06       		.uleb128 0x6
 1108 00ce BA050000 		.4byte	.LASF17
 1109 00d2 04       		.byte	0x4
 1110 00d3 1F       		.byte	0x1f
 1111 00d4 A2000000 		.4byte	0xa2
 1112 00d8 10       		.byte	0x10
 1113 00d9 06       		.uleb128 0x6
 1114 00da EB010000 		.4byte	.LASF18
 1115 00de 04       		.byte	0x4
 1116 00df 20       		.byte	0x20
 1117 00e0 8C000000 		.4byte	0x8c
 1118 00e4 18       		.byte	0x18
 1119 00e5 06       		.uleb128 0x6
 1120 00e6 4B050000 		.4byte	.LASF19
 1121 00ea 04       		.byte	0x4
 1122 00eb 21       		.byte	0x21
 1123 00ec A2000000 		.4byte	0xa2
 1124 00f0 20       		.byte	0x20
 1125 00f1 06       		.uleb128 0x6
 1126 00f2 F0030000 		.4byte	.LASF20
 1127 00f6 04       		.byte	0x4
 1128 00f7 22       		.byte	0x22
 1129 00f8 8C000000 		.4byte	0x8c
 1130 00fc 28       		.byte	0x28
 1131 00fd 00       		.byte	0
 1132 00fe 03       		.uleb128 0x3
 1133 00ff CB010000 		.4byte	.LASF21
 1134 0103 04       		.byte	0x4
ARM GAS  C:\Users\Petro\AppData\Local\Temp\cceUkp3V.s 			page 24


 1135 0104 23       		.byte	0x23
 1136 0105 AD000000 		.4byte	0xad
 1137 0109 02       		.uleb128 0x2
 1138 010a 04       		.byte	0x4
 1139 010b 04       		.byte	0x4
 1140 010c 0E010000 		.4byte	.LASF22
 1141 0110 02       		.uleb128 0x2
 1142 0111 08       		.byte	0x8
 1143 0112 04       		.byte	0x4
 1144 0113 CA050000 		.4byte	.LASF23
 1145 0117 02       		.uleb128 0x2
 1146 0118 01       		.byte	0x1
 1147 0119 08       		.byte	0x8
 1148 011a 0C020000 		.4byte	.LASF24
 1149 011e 02       		.uleb128 0x2
 1150 011f 04       		.byte	0x4
 1151 0120 07       		.byte	0x7
 1152 0121 C6040000 		.4byte	.LASF25
 1153 0125 03       		.uleb128 0x3
 1154 0126 7C020000 		.4byte	.LASF26
 1155 012a 05       		.byte	0x5
 1156 012b 10       		.byte	0x10
 1157 012c 2C000000 		.4byte	0x2c
 1158 0130 03       		.uleb128 0x3
 1159 0131 0F030000 		.4byte	.LASF27
 1160 0135 05       		.byte	0x5
 1161 0136 14       		.byte	0x14
 1162 0137 45000000 		.4byte	0x45
 1163 013b 03       		.uleb128 0x3
 1164 013c 2F010000 		.4byte	.LASF28
 1165 0140 05       		.byte	0x5
 1166 0141 1D       		.byte	0x1d
 1167 0142 5E000000 		.4byte	0x5e
 1168 0146 03       		.uleb128 0x3
 1169 0147 00000000 		.4byte	.LASF29
 1170 014b 06       		.byte	0x6
 1171 014c 55       		.byte	0x55
 1172 014d 3B010000 		.4byte	0x13b
 1173 0151 07       		.uleb128 0x7
 1174 0152 3002     		.2byte	0x230
 1175 0154 06       		.byte	0x6
 1176 0155 5C       		.byte	0x5c
 1177 0156 32020000 		.4byte	0x232
 1178 015a 06       		.uleb128 0x6
 1179 015b 7A010000 		.4byte	.LASF30
 1180 015f 06       		.byte	0x6
 1181 0160 5D       		.byte	0x5d
 1182 0161 25010000 		.4byte	0x125
 1183 0165 00       		.byte	0
 1184 0166 08       		.uleb128 0x8
 1185 0167 64727600 		.ascii	"drv\000"
 1186 016b 06       		.byte	0x6
 1187 016c 5E       		.byte	0x5e
 1188 016d 25010000 		.4byte	0x125
 1189 0171 01       		.byte	0x1
 1190 0172 06       		.uleb128 0x6
 1191 0173 6F000000 		.4byte	.LASF31
ARM GAS  C:\Users\Petro\AppData\Local\Temp\cceUkp3V.s 			page 25


 1192 0177 06       		.byte	0x6
 1193 0178 5F       		.byte	0x5f
 1194 0179 25010000 		.4byte	0x125
 1195 017d 02       		.byte	0x2
 1196 017e 06       		.uleb128 0x6
 1197 017f 65020000 		.4byte	.LASF32
 1198 0183 06       		.byte	0x6
 1199 0184 60       		.byte	0x60
 1200 0185 25010000 		.4byte	0x125
 1201 0189 03       		.byte	0x3
 1202 018a 06       		.uleb128 0x6
 1203 018b F0000000 		.4byte	.LASF33
 1204 018f 06       		.byte	0x6
 1205 0190 61       		.byte	0x61
 1206 0191 25010000 		.4byte	0x125
 1207 0195 04       		.byte	0x4
 1208 0196 08       		.uleb128 0x8
 1209 0197 696400   		.ascii	"id\000"
 1210 019a 06       		.byte	0x6
 1211 019b 62       		.byte	0x62
 1212 019c 30010000 		.4byte	0x130
 1213 01a0 06       		.byte	0x6
 1214 01a1 06       		.uleb128 0x6
 1215 01a2 6B040000 		.4byte	.LASF34
 1216 01a6 06       		.byte	0x6
 1217 01a7 63       		.byte	0x63
 1218 01a8 30010000 		.4byte	0x130
 1219 01ac 08       		.byte	0x8
 1220 01ad 06       		.uleb128 0x6
 1221 01ae 14030000 		.4byte	.LASF35
 1222 01b2 06       		.byte	0x6
 1223 01b3 64       		.byte	0x64
 1224 01b4 30010000 		.4byte	0x130
 1225 01b8 0A       		.byte	0xa
 1226 01b9 06       		.uleb128 0x6
 1227 01ba 47000000 		.4byte	.LASF36
 1228 01be 06       		.byte	0x6
 1229 01bf 72       		.byte	0x72
 1230 01c0 3B010000 		.4byte	0x13b
 1231 01c4 0C       		.byte	0xc
 1232 01c5 06       		.uleb128 0x6
 1233 01c6 08040000 		.4byte	.LASF37
 1234 01ca 06       		.byte	0x6
 1235 01cb 73       		.byte	0x73
 1236 01cc 3B010000 		.4byte	0x13b
 1237 01d0 10       		.byte	0x10
 1238 01d1 06       		.uleb128 0x6
 1239 01d2 32030000 		.4byte	.LASF38
 1240 01d6 06       		.byte	0x6
 1241 01d7 7D       		.byte	0x7d
 1242 01d8 3B010000 		.4byte	0x13b
 1243 01dc 14       		.byte	0x14
 1244 01dd 06       		.uleb128 0x6
 1245 01de 3A020000 		.4byte	.LASF39
 1246 01e2 06       		.byte	0x6
 1247 01e3 7E       		.byte	0x7e
 1248 01e4 3B010000 		.4byte	0x13b
ARM GAS  C:\Users\Petro\AppData\Local\Temp\cceUkp3V.s 			page 26


 1249 01e8 18       		.byte	0x18
 1250 01e9 06       		.uleb128 0x6
 1251 01ea 48020000 		.4byte	.LASF40
 1252 01ee 06       		.byte	0x6
 1253 01ef 7F       		.byte	0x7f
 1254 01f0 3B010000 		.4byte	0x13b
 1255 01f4 1C       		.byte	0x1c
 1256 01f5 06       		.uleb128 0x6
 1257 01f6 8F010000 		.4byte	.LASF41
 1258 01fa 06       		.byte	0x6
 1259 01fb 80       		.byte	0x80
 1260 01fc 3B010000 		.4byte	0x13b
 1261 0200 20       		.byte	0x20
 1262 0201 06       		.uleb128 0x6
 1263 0202 3B030000 		.4byte	.LASF42
 1264 0206 06       		.byte	0x6
 1265 0207 81       		.byte	0x81
 1266 0208 3B010000 		.4byte	0x13b
 1267 020c 24       		.byte	0x24
 1268 020d 06       		.uleb128 0x6
 1269 020e A6050000 		.4byte	.LASF43
 1270 0212 06       		.byte	0x6
 1271 0213 82       		.byte	0x82
 1272 0214 3B010000 		.4byte	0x13b
 1273 0218 28       		.byte	0x28
 1274 0219 06       		.uleb128 0x6
 1275 021a 8C000000 		.4byte	.LASF44
 1276 021e 06       		.byte	0x6
 1277 021f 83       		.byte	0x83
 1278 0220 3B010000 		.4byte	0x13b
 1279 0224 2C       		.byte	0x2c
 1280 0225 08       		.uleb128 0x8
 1281 0226 77696E00 		.ascii	"win\000"
 1282 022a 06       		.byte	0x6
 1283 022b 84       		.byte	0x84
 1284 022c 32020000 		.4byte	0x232
 1285 0230 30       		.byte	0x30
 1286 0231 00       		.byte	0
 1287 0232 09       		.uleb128 0x9
 1288 0233 25010000 		.4byte	0x125
 1289 0237 43020000 		.4byte	0x243
 1290 023b 0A       		.uleb128 0xa
 1291 023c 1E010000 		.4byte	0x11e
 1292 0240 FF01     		.2byte	0x1ff
 1293 0242 00       		.byte	0
 1294 0243 03       		.uleb128 0x3
 1295 0244 22000000 		.4byte	.LASF45
 1296 0248 06       		.byte	0x6
 1297 0249 85       		.byte	0x85
 1298 024a 51010000 		.4byte	0x151
 1299 024e 05       		.uleb128 0x5
 1300 024f 10       		.byte	0x10
 1301 0250 06       		.byte	0x6
 1302 0251 8B       		.byte	0x8b
 1303 0252 9D020000 		.4byte	0x29d
 1304 0256 08       		.uleb128 0x8
 1305 0257 667300   		.ascii	"fs\000"
ARM GAS  C:\Users\Petro\AppData\Local\Temp\cceUkp3V.s 			page 27


 1306 025a 06       		.byte	0x6
 1307 025b 8C       		.byte	0x8c
 1308 025c 9D020000 		.4byte	0x29d
 1309 0260 00       		.byte	0
 1310 0261 08       		.uleb128 0x8
 1311 0262 696400   		.ascii	"id\000"
 1312 0265 06       		.byte	0x6
 1313 0266 8D       		.byte	0x8d
 1314 0267 30010000 		.4byte	0x130
 1315 026b 04       		.byte	0x4
 1316 026c 06       		.uleb128 0x6
 1317 026d 6A010000 		.4byte	.LASF46
 1318 0271 06       		.byte	0x6
 1319 0272 8E       		.byte	0x8e
 1320 0273 25010000 		.4byte	0x125
 1321 0277 06       		.byte	0x6
 1322 0278 06       		.uleb128 0x6
 1323 0279 97010000 		.4byte	.LASF47
 1324 027d 06       		.byte	0x6
 1325 027e 8F       		.byte	0x8f
 1326 027f 25010000 		.4byte	0x125
 1327 0283 07       		.byte	0x7
 1328 0284 06       		.uleb128 0x6
 1329 0285 EF050000 		.4byte	.LASF48
 1330 0289 06       		.byte	0x6
 1331 028a 90       		.byte	0x90
 1332 028b 3B010000 		.4byte	0x13b
 1333 028f 08       		.byte	0x8
 1334 0290 06       		.uleb128 0x6
 1335 0291 E7040000 		.4byte	.LASF49
 1336 0295 06       		.byte	0x6
 1337 0296 91       		.byte	0x91
 1338 0297 46010000 		.4byte	0x146
 1339 029b 0C       		.byte	0xc
 1340 029c 00       		.byte	0
 1341 029d 0B       		.uleb128 0xb
 1342 029e 04       		.byte	0x4
 1343 029f 43020000 		.4byte	0x243
 1344 02a3 03       		.uleb128 0x3
 1345 02a4 30000000 		.4byte	.LASF50
 1346 02a8 06       		.byte	0x6
 1347 02a9 9B       		.byte	0x9b
 1348 02aa 4E020000 		.4byte	0x24e
 1349 02ae 07       		.uleb128 0x7
 1350 02af 2802     		.2byte	0x228
 1351 02b1 06       		.byte	0x6
 1352 02b2 A1       		.byte	0xa1
 1353 02b3 24030000 		.4byte	0x324
 1354 02b7 08       		.uleb128 0x8
 1355 02b8 6F626A00 		.ascii	"obj\000"
 1356 02bc 06       		.byte	0x6
 1357 02bd A2       		.byte	0xa2
 1358 02be A3020000 		.4byte	0x2a3
 1359 02c2 00       		.byte	0
 1360 02c3 06       		.uleb128 0x6
 1361 02c4 54040000 		.4byte	.LASF51
 1362 02c8 06       		.byte	0x6
ARM GAS  C:\Users\Petro\AppData\Local\Temp\cceUkp3V.s 			page 28


 1363 02c9 A3       		.byte	0xa3
 1364 02ca 25010000 		.4byte	0x125
 1365 02ce 10       		.byte	0x10
 1366 02cf 08       		.uleb128 0x8
 1367 02d0 65727200 		.ascii	"err\000"
 1368 02d4 06       		.byte	0x6
 1369 02d5 A4       		.byte	0xa4
 1370 02d6 25010000 		.4byte	0x125
 1371 02da 11       		.byte	0x11
 1372 02db 06       		.uleb128 0x6
 1373 02dc 1F030000 		.4byte	.LASF52
 1374 02e0 06       		.byte	0x6
 1375 02e1 A5       		.byte	0xa5
 1376 02e2 46010000 		.4byte	0x146
 1377 02e6 14       		.byte	0x14
 1378 02e7 06       		.uleb128 0x6
 1379 02e8 EF040000 		.4byte	.LASF53
 1380 02ec 06       		.byte	0x6
 1381 02ed A6       		.byte	0xa6
 1382 02ee 3B010000 		.4byte	0x13b
 1383 02f2 18       		.byte	0x18
 1384 02f3 06       		.uleb128 0x6
 1385 02f4 16020000 		.4byte	.LASF54
 1386 02f8 06       		.byte	0x6
 1387 02f9 A7       		.byte	0xa7
 1388 02fa 3B010000 		.4byte	0x13b
 1389 02fe 1C       		.byte	0x1c
 1390 02ff 06       		.uleb128 0x6
 1391 0300 05010000 		.4byte	.LASF55
 1392 0304 06       		.byte	0x6
 1393 0305 A9       		.byte	0xa9
 1394 0306 3B010000 		.4byte	0x13b
 1395 030a 20       		.byte	0x20
 1396 030b 06       		.uleb128 0x6
 1397 030c 0D000000 		.4byte	.LASF56
 1398 0310 06       		.byte	0x6
 1399 0311 AA       		.byte	0xaa
 1400 0312 24030000 		.4byte	0x324
 1401 0316 24       		.byte	0x24
 1402 0317 08       		.uleb128 0x8
 1403 0318 62756600 		.ascii	"buf\000"
 1404 031c 06       		.byte	0x6
 1405 031d B0       		.byte	0xb0
 1406 031e 32020000 		.4byte	0x232
 1407 0322 28       		.byte	0x28
 1408 0323 00       		.byte	0
 1409 0324 0B       		.uleb128 0xb
 1410 0325 04       		.byte	0x4
 1411 0326 25010000 		.4byte	0x125
 1412 032a 0C       		.uleb128 0xc
 1413 032b 46494C00 		.ascii	"FIL\000"
 1414 032f 06       		.byte	0x6
 1415 0330 B2       		.byte	0xb2
 1416 0331 AE020000 		.4byte	0x2ae
 1417 0335 0D       		.uleb128 0xd
 1418 0336 01       		.byte	0x1
 1419 0337 06       		.byte	0x6
ARM GAS  C:\Users\Petro\AppData\Local\Temp\cceUkp3V.s 			page 29


 1420 0338 DC       		.byte	0xdc
 1421 0339 B6030000 		.4byte	0x3b6
 1422 033d 0E       		.uleb128 0xe
 1423 033e E1040000 		.4byte	.LASF57
 1424 0342 00       		.sleb128 0
 1425 0343 0E       		.uleb128 0xe
 1426 0344 12040000 		.4byte	.LASF58
 1427 0348 01       		.sleb128 1
 1428 0349 0E       		.uleb128 0xe
 1429 034a 53010000 		.4byte	.LASF59
 1430 034e 02       		.sleb128 2
 1431 034f 0E       		.uleb128 0xe
 1432 0350 15000000 		.4byte	.LASF60
 1433 0354 03       		.sleb128 3
 1434 0355 0E       		.uleb128 0xe
 1435 0356 71020000 		.4byte	.LASF61
 1436 035a 04       		.sleb128 4
 1437 035b 0E       		.uleb128 0xe
 1438 035c D7030000 		.4byte	.LASF62
 1439 0360 05       		.sleb128 5
 1440 0361 0E       		.uleb128 0xe
 1441 0362 44040000 		.4byte	.LASF63
 1442 0366 06       		.sleb128 6
 1443 0367 0E       		.uleb128 0xe
 1444 0368 AF030000 		.4byte	.LASF64
 1445 036c 07       		.sleb128 7
 1446 036d 0E       		.uleb128 0xe
 1447 036e AA010000 		.4byte	.LASF65
 1448 0372 08       		.sleb128 8
 1449 0373 0E       		.uleb128 0xe
 1450 0374 B3010000 		.4byte	.LASF66
 1451 0378 09       		.sleb128 9
 1452 0379 0E       		.uleb128 0xe
 1453 037a D1050000 		.4byte	.LASF67
 1454 037e 0A       		.sleb128 10
 1455 037f 0E       		.uleb128 0xe
 1456 0380 5E000000 		.4byte	.LASF68
 1457 0384 0B       		.sleb128 11
 1458 0385 0E       		.uleb128 0xe
 1459 0386 F9030000 		.4byte	.LASF69
 1460 038a 0C       		.sleb128 12
 1461 038b 0E       		.uleb128 0xe
 1462 038c 1B020000 		.4byte	.LASF70
 1463 0390 0D       		.sleb128 13
 1464 0391 0E       		.uleb128 0xe
 1465 0392 7C000000 		.4byte	.LASF71
 1466 0396 0E       		.sleb128 14
 1467 0397 0E       		.uleb128 0xe
 1468 0398 23050000 		.4byte	.LASF72
 1469 039c 0F       		.sleb128 15
 1470 039d 0E       		.uleb128 0xe
 1471 039e E1010000 		.4byte	.LASF73
 1472 03a2 10       		.sleb128 16
 1473 03a3 0E       		.uleb128 0xe
 1474 03a4 28040000 		.4byte	.LASF74
 1475 03a8 11       		.sleb128 17
 1476 03a9 0E       		.uleb128 0xe
ARM GAS  C:\Users\Petro\AppData\Local\Temp\cceUkp3V.s 			page 30


 1477 03aa D0000000 		.4byte	.LASF75
 1478 03ae 12       		.sleb128 18
 1479 03af 0E       		.uleb128 0xe
 1480 03b0 50020000 		.4byte	.LASF76
 1481 03b4 13       		.sleb128 19
 1482 03b5 00       		.byte	0
 1483 03b6 0F       		.uleb128 0xf
 1484 03b7 5E010000 		.4byte	.LASF117
 1485 03bb 10       		.byte	0x10
 1486 03bc 04       		.byte	0x4
 1487 03bd 28       		.byte	0x28
 1488 03be E7030000 		.4byte	0x3e7
 1489 03c2 06       		.uleb128 0x6
 1490 03c3 56050000 		.4byte	.LASF15
 1491 03c7 04       		.byte	0x4
 1492 03c8 2A       		.byte	0x2a
 1493 03c9 A2000000 		.4byte	0xa2
 1494 03cd 00       		.byte	0
 1495 03ce 06       		.uleb128 0x6
 1496 03cf 1F010000 		.4byte	.LASF16
 1497 03d3 04       		.byte	0x4
 1498 03d4 2B       		.byte	0x2b
 1499 03d5 8C000000 		.4byte	0x8c
 1500 03d9 08       		.byte	0x8
 1501 03da 06       		.uleb128 0x6
 1502 03db 28000000 		.4byte	.LASF77
 1503 03df 04       		.byte	0x4
 1504 03e0 2C       		.byte	0x2c
 1505 03e1 E7030000 		.4byte	0x3e7
 1506 03e5 0C       		.byte	0xc
 1507 03e6 00       		.byte	0
 1508 03e7 0B       		.uleb128 0xb
 1509 03e8 04       		.byte	0x4
 1510 03e9 B6030000 		.4byte	0x3b6
 1511 03ed 07       		.uleb128 0x7
 1512 03ee 7802     		.2byte	0x278
 1513 03f0 04       		.byte	0x4
 1514 03f1 4A       		.byte	0x4a
 1515 03f2 40040000 		.4byte	0x440
 1516 03f6 06       		.uleb128 0x6
 1517 03f7 1A030000 		.4byte	.LASF78
 1518 03fb 04       		.byte	0x4
 1519 03fc 4C       		.byte	0x4c
 1520 03fd 8C000000 		.4byte	0x8c
 1521 0401 00       		.byte	0
 1522 0402 06       		.uleb128 0x6
 1523 0403 2E050000 		.4byte	.LASF79
 1524 0407 04       		.byte	0x4
 1525 0408 4D       		.byte	0x4d
 1526 0409 8C000000 		.4byte	0x8c
 1527 040d 02       		.byte	0x2
 1528 040e 06       		.uleb128 0x6
 1529 040f F9000000 		.4byte	.LASF80
 1530 0413 04       		.byte	0x4
 1531 0414 4E       		.byte	0x4e
 1532 0415 8C000000 		.4byte	0x8c
 1533 0419 04       		.byte	0x4
ARM GAS  C:\Users\Petro\AppData\Local\Temp\cceUkp3V.s 			page 31


 1534 041a 06       		.uleb128 0x6
 1535 041b 3D000000 		.4byte	.LASF81
 1536 041f 04       		.byte	0x4
 1537 0420 50       		.byte	0x50
 1538 0421 8C000000 		.4byte	0x8c
 1539 0425 06       		.byte	0x6
 1540 0426 06       		.uleb128 0x6
 1541 0427 36000000 		.4byte	.LASF82
 1542 042b 04       		.byte	0x4
 1543 042c 52       		.byte	0x52
 1544 042d 40040000 		.4byte	0x440
 1545 0431 08       		.byte	0x8
 1546 0432 10       		.uleb128 0x10
 1547 0433 08000000 		.4byte	.LASF83
 1548 0437 04       		.byte	0x4
 1549 0438 54       		.byte	0x54
 1550 0439 FE000000 		.4byte	0xfe
 1551 043d 4802     		.2byte	0x248
 1552 043f 00       		.byte	0
 1553 0440 09       		.uleb128 0x9
 1554 0441 FE000000 		.4byte	0xfe
 1555 0445 50040000 		.4byte	0x450
 1556 0449 11       		.uleb128 0x11
 1557 044a 1E010000 		.4byte	0x11e
 1558 044e 0B       		.byte	0xb
 1559 044f 00       		.byte	0
 1560 0450 03       		.uleb128 0x3
 1561 0451 43030000 		.4byte	.LASF84
 1562 0455 04       		.byte	0x4
 1563 0456 55       		.byte	0x55
 1564 0457 ED030000 		.4byte	0x3ed
 1565 045b 12       		.uleb128 0x12
 1566 045c E2030000 		.4byte	.LASF90
 1567 0460 01       		.byte	0x1
 1568 0461 0E       		.byte	0xe
 1569 0462 97000000 		.4byte	0x97
 1570 0466 00000000 		.4byte	.LFB63
 1571 046a 28000000 		.4byte	.LFE63-.LFB63
 1572 046e 01       		.uleb128 0x1
 1573 046f 9C       		.byte	0x9c
 1574 0470 83040000 		.4byte	0x483
 1575 0474 13       		.uleb128 0x13
 1576 0475 35010000 		.4byte	.LASF85
 1577 0479 01       		.byte	0x1
 1578 047a 10       		.byte	0x10
 1579 047b 97000000 		.4byte	0x97
 1580 047f 02       		.uleb128 0x2
 1581 0480 91       		.byte	0x91
 1582 0481 74       		.sleb128 -12
 1583 0482 00       		.byte	0
 1584 0483 14       		.uleb128 0x14
 1585 0484 62040000 		.4byte	.LASF118
 1586 0488 01       		.byte	0x1
 1587 0489 1D       		.byte	0x1d
 1588 048a 00000000 		.4byte	.LFB64
 1589 048e 5C000000 		.4byte	.LFE64-.LFB64
 1590 0492 01       		.uleb128 0x1
ARM GAS  C:\Users\Petro\AppData\Local\Temp\cceUkp3V.s 			page 32


 1591 0493 9C       		.byte	0x9c
 1592 0494 A5040000 		.4byte	0x4a5
 1593 0498 15       		.uleb128 0x15
 1594 0499 6900     		.ascii	"i\000"
 1595 049b 01       		.byte	0x1
 1596 049c 1F       		.byte	0x1f
 1597 049d 97000000 		.4byte	0x97
 1598 04a1 02       		.uleb128 0x2
 1599 04a2 91       		.byte	0x91
 1600 04a3 74       		.sleb128 -12
 1601 04a4 00       		.byte	0
 1602 04a5 16       		.uleb128 0x16
 1603 04a6 BA040000 		.4byte	.LASF88
 1604 04aa 01       		.byte	0x1
 1605 04ab 2D       		.byte	0x2d
 1606 04ac 00000000 		.4byte	.LFB65
 1607 04b0 48000000 		.4byte	.LFE65-.LFB65
 1608 04b4 01       		.uleb128 0x1
 1609 04b5 9C       		.byte	0x9c
 1610 04b6 D7040000 		.4byte	0x4d7
 1611 04ba 17       		.uleb128 0x17
 1612 04bb 03020000 		.4byte	.LASF86
 1613 04bf 01       		.byte	0x1
 1614 04c0 2D       		.byte	0x2d
 1615 04c1 A2000000 		.4byte	0xa2
 1616 04c5 02       		.uleb128 0x2
 1617 04c6 91       		.byte	0x91
 1618 04c7 68       		.sleb128 -24
 1619 04c8 17       		.uleb128 0x17
 1620 04c9 2C030000 		.4byte	.LASF87
 1621 04cd 01       		.byte	0x1
 1622 04ce 2D       		.byte	0x2d
 1623 04cf 8C000000 		.4byte	0x8c
 1624 04d3 02       		.uleb128 0x2
 1625 04d4 91       		.byte	0x91
 1626 04d5 66       		.sleb128 -26
 1627 04d6 00       		.byte	0
 1628 04d7 16       		.uleb128 0x16
 1629 04d8 9C010000 		.4byte	.LASF89
 1630 04dc 01       		.byte	0x1
 1631 04dd 35       		.byte	0x35
 1632 04de 00000000 		.4byte	.LFB66
 1633 04e2 44000000 		.4byte	.LFE66-.LFB66
 1634 04e6 01       		.uleb128 0x1
 1635 04e7 9C       		.byte	0x9c
 1636 04e8 09050000 		.4byte	0x509
 1637 04ec 17       		.uleb128 0x17
 1638 04ed 03020000 		.4byte	.LASF86
 1639 04f1 01       		.byte	0x1
 1640 04f2 35       		.byte	0x35
 1641 04f3 09050000 		.4byte	0x509
 1642 04f7 02       		.uleb128 0x2
 1643 04f8 91       		.byte	0x91
 1644 04f9 6C       		.sleb128 -20
 1645 04fa 17       		.uleb128 0x17
 1646 04fb 2C030000 		.4byte	.LASF87
 1647 04ff 01       		.byte	0x1
ARM GAS  C:\Users\Petro\AppData\Local\Temp\cceUkp3V.s 			page 33


 1648 0500 35       		.byte	0x35
 1649 0501 0F050000 		.4byte	0x50f
 1650 0505 02       		.uleb128 0x2
 1651 0506 91       		.byte	0x91
 1652 0507 68       		.sleb128 -24
 1653 0508 00       		.byte	0
 1654 0509 0B       		.uleb128 0xb
 1655 050a 04       		.byte	0x4
 1656 050b A2000000 		.4byte	0xa2
 1657 050f 0B       		.uleb128 0xb
 1658 0510 04       		.byte	0x4
 1659 0511 8C000000 		.4byte	0x8c
 1660 0515 12       		.uleb128 0x12
 1661 0516 AB040000 		.4byte	.LASF91
 1662 051a 01       		.byte	0x1
 1663 051b 3E       		.byte	0x3e
 1664 051c 4B050000 		.4byte	0x54b
 1665 0520 00000000 		.4byte	.LFB67
 1666 0524 28000000 		.4byte	.LFE67-.LFB67
 1667 0528 01       		.uleb128 0x1
 1668 0529 9C       		.byte	0x9c
 1669 052a 4B050000 		.4byte	0x54b
 1670 052e 17       		.uleb128 0x17
 1671 052f 03020000 		.4byte	.LASF86
 1672 0533 01       		.byte	0x1
 1673 0534 3E       		.byte	0x3e
 1674 0535 A2000000 		.4byte	0xa2
 1675 0539 02       		.uleb128 0x2
 1676 053a 91       		.byte	0x91
 1677 053b 68       		.sleb128 -24
 1678 053c 17       		.uleb128 0x17
 1679 053d 2C030000 		.4byte	.LASF87
 1680 0541 01       		.byte	0x1
 1681 0542 3E       		.byte	0x3e
 1682 0543 8C000000 		.4byte	0x8c
 1683 0547 02       		.uleb128 0x2
 1684 0548 91       		.byte	0x91
 1685 0549 66       		.sleb128 -26
 1686 054a 00       		.byte	0
 1687 054b 02       		.uleb128 0x2
 1688 054c 01       		.byte	0x1
 1689 054d 02       		.byte	0x2
 1690 054e C5010000 		.4byte	.LASF92
 1691 0552 12       		.uleb128 0x12
 1692 0553 0E050000 		.4byte	.LASF93
 1693 0557 01       		.byte	0x1
 1694 0558 4F       		.byte	0x4f
 1695 0559 4B050000 		.4byte	0x54b
 1696 055d 00000000 		.4byte	.LFB68
 1697 0561 AC000000 		.4byte	.LFE68-.LFB68
 1698 0565 01       		.uleb128 0x1
 1699 0566 9C       		.byte	0x9c
 1700 0567 88050000 		.4byte	0x588
 1701 056b 17       		.uleb128 0x17
 1702 056c 03020000 		.4byte	.LASF86
 1703 0570 01       		.byte	0x1
 1704 0571 4F       		.byte	0x4f
ARM GAS  C:\Users\Petro\AppData\Local\Temp\cceUkp3V.s 			page 34


 1705 0572 A2000000 		.4byte	0xa2
 1706 0576 02       		.uleb128 0x2
 1707 0577 91       		.byte	0x91
 1708 0578 68       		.sleb128 -24
 1709 0579 17       		.uleb128 0x17
 1710 057a 2C030000 		.4byte	.LASF87
 1711 057e 01       		.byte	0x1
 1712 057f 4F       		.byte	0x4f
 1713 0580 8C000000 		.4byte	0x8c
 1714 0584 02       		.uleb128 0x2
 1715 0585 91       		.byte	0x91
 1716 0586 66       		.sleb128 -26
 1717 0587 00       		.byte	0
 1718 0588 18       		.uleb128 0x18
 1719 0589 E4050000 		.4byte	.LASF119
 1720 058d 01       		.byte	0x1
 1721 058e 5E       		.byte	0x5e
 1722 058f 97000000 		.4byte	0x97
 1723 0593 00000000 		.4byte	.LFB69
 1724 0597 14000000 		.4byte	.LFE69-.LFB69
 1725 059b 01       		.uleb128 0x1
 1726 059c 9C       		.byte	0x9c
 1727 059d 19       		.uleb128 0x19
 1728 059e B2000000 		.4byte	.LASF94
 1729 05a2 01       		.byte	0x1
 1730 05a3 63       		.byte	0x63
 1731 05a4 97000000 		.4byte	0x97
 1732 05a8 00000000 		.4byte	.LFB70
 1733 05ac 08010000 		.4byte	.LFE70-.LFB70
 1734 05b0 01       		.uleb128 0x1
 1735 05b1 9C       		.byte	0x9c
 1736 05b2 C5050000 		.4byte	0x5c5
 1737 05b6 17       		.uleb128 0x17
 1738 05b7 FC010000 		.4byte	.LASF95
 1739 05bb 01       		.byte	0x1
 1740 05bc 63       		.byte	0x63
 1741 05bd 97000000 		.4byte	0x97
 1742 05c1 02       		.uleb128 0x2
 1743 05c2 91       		.byte	0x91
 1744 05c3 6C       		.sleb128 -20
 1745 05c4 00       		.byte	0
 1746 05c5 1A       		.uleb128 0x1a
 1747 05c6 92040000 		.4byte	.LASF96
 1748 05ca 01       		.byte	0x1
 1749 05cb 6F       		.byte	0x6f
 1750 05cc 97000000 		.4byte	0x97
 1751 05d0 00000000 		.4byte	.LFB71
 1752 05d4 4C000000 		.4byte	.LFE71-.LFB71
 1753 05d8 01       		.uleb128 0x1
 1754 05d9 9C       		.byte	0x9c
 1755 05da ED050000 		.4byte	0x5ed
 1756 05de 13       		.uleb128 0x13
 1757 05df 24030000 		.4byte	.LASF97
 1758 05e3 01       		.byte	0x1
 1759 05e4 71       		.byte	0x71
 1760 05e5 97000000 		.4byte	0x97
 1761 05e9 02       		.uleb128 0x2
ARM GAS  C:\Users\Petro\AppData\Local\Temp\cceUkp3V.s 			page 35


 1762 05ea 91       		.byte	0x91
 1763 05eb 6C       		.sleb128 -20
 1764 05ec 00       		.byte	0
 1765 05ed 1A       		.uleb128 0x1a
 1766 05ee 74050000 		.4byte	.LASF98
 1767 05f2 01       		.byte	0x1
 1768 05f3 7D       		.byte	0x7d
 1769 05f4 97000000 		.4byte	0x97
 1770 05f8 00000000 		.4byte	.LFB72
 1771 05fc 48000000 		.4byte	.LFE72-.LFB72
 1772 0600 01       		.uleb128 0x1
 1773 0601 9C       		.byte	0x9c
 1774 0602 15060000 		.4byte	0x615
 1775 0606 13       		.uleb128 0x13
 1776 0607 24030000 		.4byte	.LASF97
 1777 060b 01       		.byte	0x1
 1778 060c 7F       		.byte	0x7f
 1779 060d 97000000 		.4byte	0x97
 1780 0611 02       		.uleb128 0x2
 1781 0612 91       		.byte	0x91
 1782 0613 74       		.sleb128 -12
 1783 0614 00       		.byte	0
 1784 0615 1B       		.uleb128 0x1b
 1785 0616 94000000 		.4byte	.LASF120
 1786 061a 01       		.byte	0x1
 1787 061b 8D       		.byte	0x8d
 1788 061c 8C000000 		.4byte	0x8c
 1789 0620 00000000 		.4byte	.LFB73
 1790 0624 14000000 		.4byte	.LFE73-.LFB73
 1791 0628 01       		.uleb128 0x1
 1792 0629 9C       		.byte	0x9c
 1793 062a 1C       		.uleb128 0x1c
 1794 062b 75040000 		.4byte	.LASF99
 1795 062f 01       		.byte	0x1
 1796 0630 92       		.byte	0x92
 1797 0631 00000000 		.4byte	.LFB74
 1798 0635 7C000000 		.4byte	.LFE74-.LFB74
 1799 0639 01       		.uleb128 0x1
 1800 063a 9C       		.byte	0x9c
 1801 063b 4E060000 		.4byte	0x64e
 1802 063f 17       		.uleb128 0x17
 1803 0640 11020000 		.4byte	.LASF100
 1804 0644 01       		.byte	0x1
 1805 0645 92       		.byte	0x92
 1806 0646 FE000000 		.4byte	0xfe
 1807 064a 02       		.uleb128 0x2
 1808 064b 91       		.byte	0x91
 1809 064c 70       		.sleb128 -16
 1810 064d 00       		.byte	0
 1811 064e 1C       		.uleb128 0x1c
 1812 064f 40020000 		.4byte	.LASF101
 1813 0653 01       		.byte	0x1
 1814 0654 9F       		.byte	0x9f
 1815 0655 00000000 		.4byte	.LFB75
 1816 0659 68000000 		.4byte	.LFE75-.LFB75
 1817 065d 01       		.uleb128 0x1
 1818 065e 9C       		.byte	0x9c
ARM GAS  C:\Users\Petro\AppData\Local\Temp\cceUkp3V.s 			page 36


 1819 065f 72060000 		.4byte	0x672
 1820 0663 17       		.uleb128 0x17
 1821 0664 11020000 		.4byte	.LASF100
 1822 0668 01       		.byte	0x1
 1823 0669 9F       		.byte	0x9f
 1824 066a 72060000 		.4byte	0x672
 1825 066e 02       		.uleb128 0x2
 1826 066f 91       		.byte	0x91
 1827 0670 6C       		.sleb128 -20
 1828 0671 00       		.byte	0
 1829 0672 0B       		.uleb128 0xb
 1830 0673 04       		.byte	0x4
 1831 0674 FE000000 		.4byte	0xfe
 1832 0678 1C       		.uleb128 0x1c
 1833 0679 82010000 		.4byte	.LASF102
 1834 067d 01       		.byte	0x1
 1835 067e AC       		.byte	0xac
 1836 067f 00000000 		.4byte	.LFB76
 1837 0683 34000000 		.4byte	.LFE76-.LFB76
 1838 0687 01       		.uleb128 0x1
 1839 0688 9C       		.byte	0x9c
 1840 0689 9C060000 		.4byte	0x69c
 1841 068d 17       		.uleb128 0x17
 1842 068e 11020000 		.4byte	.LASF100
 1843 0692 01       		.byte	0x1
 1844 0693 AC       		.byte	0xac
 1845 0694 FE000000 		.4byte	0xfe
 1846 0698 02       		.uleb128 0x2
 1847 0699 91       		.byte	0x91
 1848 069a 70       		.sleb128 -16
 1849 069b 00       		.byte	0
 1850 069c 1D       		.uleb128 0x1d
 1851 069d 76000000 		.4byte	.LASF103
 1852 06a1 07       		.byte	0x7
 1853 06a2 18       		.byte	0x18
 1854 06a3 43020000 		.4byte	0x243
 1855 06a7 05       		.uleb128 0x5
 1856 06a8 03       		.byte	0x3
 1857 06a9 00000000 		.4byte	fatFs
 1858 06ad 1D       		.uleb128 0x1d
 1859 06ae 6B020000 		.4byte	.LASF104
 1860 06b2 07       		.byte	0x7
 1861 06b3 19       		.byte	0x19
 1862 06b4 2A030000 		.4byte	0x32a
 1863 06b8 05       		.uleb128 0x5
 1864 06b9 03       		.byte	0x3
 1865 06ba 00000000 		.4byte	fileO
 1866 06be 1D       		.uleb128 0x1d
 1867 06bf AF050000 		.4byte	.LASF105
 1868 06c3 07       		.byte	0x7
 1869 06c4 1C       		.byte	0x1c
 1870 06c5 3B010000 		.4byte	0x13b
 1871 06c9 05       		.uleb128 0x5
 1872 06ca 03       		.byte	0x3
 1873 06cb 00000000 		.4byte	createFlag
 1874 06cf 09       		.uleb128 0x9
 1875 06d0 B6030000 		.4byte	0x3b6
ARM GAS  C:\Users\Petro\AppData\Local\Temp\cceUkp3V.s 			page 37


 1876 06d4 DF060000 		.4byte	0x6df
 1877 06d8 11       		.uleb128 0x11
 1878 06d9 1E010000 		.4byte	0x11e
 1879 06dd 03       		.byte	0x3
 1880 06de 00       		.byte	0
 1881 06df 1D       		.uleb128 0x1d
 1882 06e0 A0000000 		.4byte	.LASF106
 1883 06e4 04       		.byte	0x4
 1884 06e5 2D       		.byte	0x2d
 1885 06e6 CF060000 		.4byte	0x6cf
 1886 06ea 05       		.uleb128 0x5
 1887 06eb 03       		.byte	0x3
 1888 06ec 00000000 		.4byte	bufferSkiersOnWay
 1889 06f0 09       		.uleb128 0x9
 1890 06f1 FE000000 		.4byte	0xfe
 1891 06f5 00070000 		.4byte	0x700
 1892 06f9 11       		.uleb128 0x11
 1893 06fa 1E010000 		.4byte	0x11e
 1894 06fe 07       		.byte	0x7
 1895 06ff 00       		.byte	0
 1896 0700 1D       		.uleb128 0x1d
 1897 0701 14010000 		.4byte	.LASF107
 1898 0705 04       		.byte	0x4
 1899 0706 30       		.byte	0x30
 1900 0707 F0060000 		.4byte	0x6f0
 1901 070b 05       		.uleb128 0x5
 1902 070c 03       		.byte	0x3
 1903 070d 00000000 		.4byte	bufferFifo
 1904 0711 1D       		.uleb128 0x1d
 1905 0712 3B050000 		.4byte	.LASF108
 1906 0716 04       		.byte	0x4
 1907 0717 33       		.byte	0x33
 1908 0718 97000000 		.4byte	0x97
 1909 071c 05       		.uleb128 0x5
 1910 071d 03       		.byte	0x3
 1911 071e 00000000 		.4byte	currentSizeBuff
 1912 0722 1D       		.uleb128 0x1d
 1913 0723 BC000000 		.4byte	.LASF109
 1914 0727 04       		.byte	0x4
 1915 0728 36       		.byte	0x36
 1916 0729 E7030000 		.4byte	0x3e7
 1917 072d 05       		.uleb128 0x5
 1918 072e 03       		.byte	0x3
 1919 072f 00000000 		.4byte	currentElementStart
 1920 0733 1D       		.uleb128 0x1d
 1921 0734 B9030000 		.4byte	.LASF110
 1922 0738 04       		.byte	0x4
 1923 0739 37       		.byte	0x37
 1924 073a E7030000 		.4byte	0x3e7
 1925 073e 05       		.uleb128 0x5
 1926 073f 03       		.byte	0x3
 1927 0740 00000000 		.4byte	currentElementFinish
 1928 0744 1D       		.uleb128 0x1d
 1929 0745 65050000 		.4byte	.LASF111
 1930 0749 04       		.byte	0x4
 1931 074a 3A       		.byte	0x3a
 1932 074b 8C000000 		.4byte	0x8c
ARM GAS  C:\Users\Petro\AppData\Local\Temp\cceUkp3V.s 			page 38


 1933 074f 05       		.uleb128 0x5
 1934 0750 03       		.byte	0x3
 1935 0751 00000000 		.4byte	skiersFinished
 1936 0755 09       		.uleb128 0x9
 1937 0756 FE000000 		.4byte	0xfe
 1938 075a 65070000 		.4byte	0x765
 1939 075e 11       		.uleb128 0x11
 1940 075f 1E010000 		.4byte	0x11e
 1941 0763 95       		.byte	0x95
 1942 0764 00       		.byte	0
 1943 0765 1D       		.uleb128 0x1d
 1944 0766 A3040000 		.4byte	.LASF112
 1945 076a 04       		.byte	0x4
 1946 076b 3D       		.byte	0x3d
 1947 076c 55070000 		.4byte	0x755
 1948 0770 05       		.uleb128 0x5
 1949 0771 03       		.byte	0x3
 1950 0772 00000000 		.4byte	skierDB
 1951 0776 1D       		.uleb128 0x1d
 1952 0777 1E050000 		.4byte	.LASF113
 1953 077b 04       		.byte	0x4
 1954 077c 57       		.byte	0x57
 1955 077d 50040000 		.4byte	0x450
 1956 0781 05       		.uleb128 0x5
 1957 0782 03       		.byte	0x3
 1958 0783 00000000 		.4byte	fifo
 1959 0787 00       		.byte	0
 1960              		.section	.debug_abbrev,"",%progbits
 1961              	.Ldebug_abbrev0:
 1962 0000 01       		.uleb128 0x1
 1963 0001 11       		.uleb128 0x11
 1964 0002 01       		.byte	0x1
 1965 0003 25       		.uleb128 0x25
 1966 0004 0E       		.uleb128 0xe
 1967 0005 13       		.uleb128 0x13
 1968 0006 0B       		.uleb128 0xb
 1969 0007 03       		.uleb128 0x3
 1970 0008 0E       		.uleb128 0xe
 1971 0009 1B       		.uleb128 0x1b
 1972 000a 0E       		.uleb128 0xe
 1973 000b 55       		.uleb128 0x55
 1974 000c 17       		.uleb128 0x17
 1975 000d 11       		.uleb128 0x11
 1976 000e 01       		.uleb128 0x1
 1977 000f 10       		.uleb128 0x10
 1978 0010 17       		.uleb128 0x17
 1979 0011 00       		.byte	0
 1980 0012 00       		.byte	0
 1981 0013 02       		.uleb128 0x2
 1982 0014 24       		.uleb128 0x24
 1983 0015 00       		.byte	0
 1984 0016 0B       		.uleb128 0xb
 1985 0017 0B       		.uleb128 0xb
 1986 0018 3E       		.uleb128 0x3e
 1987 0019 0B       		.uleb128 0xb
 1988 001a 03       		.uleb128 0x3
 1989 001b 0E       		.uleb128 0xe
ARM GAS  C:\Users\Petro\AppData\Local\Temp\cceUkp3V.s 			page 39


 1990 001c 00       		.byte	0
 1991 001d 00       		.byte	0
 1992 001e 03       		.uleb128 0x3
 1993 001f 16       		.uleb128 0x16
 1994 0020 00       		.byte	0
 1995 0021 03       		.uleb128 0x3
 1996 0022 0E       		.uleb128 0xe
 1997 0023 3A       		.uleb128 0x3a
 1998 0024 0B       		.uleb128 0xb
 1999 0025 3B       		.uleb128 0x3b
 2000 0026 0B       		.uleb128 0xb
 2001 0027 49       		.uleb128 0x49
 2002 0028 13       		.uleb128 0x13
 2003 0029 00       		.byte	0
 2004 002a 00       		.byte	0
 2005 002b 04       		.uleb128 0x4
 2006 002c 24       		.uleb128 0x24
 2007 002d 00       		.byte	0
 2008 002e 0B       		.uleb128 0xb
 2009 002f 0B       		.uleb128 0xb
 2010 0030 3E       		.uleb128 0x3e
 2011 0031 0B       		.uleb128 0xb
 2012 0032 03       		.uleb128 0x3
 2013 0033 08       		.uleb128 0x8
 2014 0034 00       		.byte	0
 2015 0035 00       		.byte	0
 2016 0036 05       		.uleb128 0x5
 2017 0037 13       		.uleb128 0x13
 2018 0038 01       		.byte	0x1
 2019 0039 0B       		.uleb128 0xb
 2020 003a 0B       		.uleb128 0xb
 2021 003b 3A       		.uleb128 0x3a
 2022 003c 0B       		.uleb128 0xb
 2023 003d 3B       		.uleb128 0x3b
 2024 003e 0B       		.uleb128 0xb
 2025 003f 01       		.uleb128 0x1
 2026 0040 13       		.uleb128 0x13
 2027 0041 00       		.byte	0
 2028 0042 00       		.byte	0
 2029 0043 06       		.uleb128 0x6
 2030 0044 0D       		.uleb128 0xd
 2031 0045 00       		.byte	0
 2032 0046 03       		.uleb128 0x3
 2033 0047 0E       		.uleb128 0xe
 2034 0048 3A       		.uleb128 0x3a
 2035 0049 0B       		.uleb128 0xb
 2036 004a 3B       		.uleb128 0x3b
 2037 004b 0B       		.uleb128 0xb
 2038 004c 49       		.uleb128 0x49
 2039 004d 13       		.uleb128 0x13
 2040 004e 38       		.uleb128 0x38
 2041 004f 0B       		.uleb128 0xb
 2042 0050 00       		.byte	0
 2043 0051 00       		.byte	0
 2044 0052 07       		.uleb128 0x7
 2045 0053 13       		.uleb128 0x13
 2046 0054 01       		.byte	0x1
ARM GAS  C:\Users\Petro\AppData\Local\Temp\cceUkp3V.s 			page 40


 2047 0055 0B       		.uleb128 0xb
 2048 0056 05       		.uleb128 0x5
 2049 0057 3A       		.uleb128 0x3a
 2050 0058 0B       		.uleb128 0xb
 2051 0059 3B       		.uleb128 0x3b
 2052 005a 0B       		.uleb128 0xb
 2053 005b 01       		.uleb128 0x1
 2054 005c 13       		.uleb128 0x13
 2055 005d 00       		.byte	0
 2056 005e 00       		.byte	0
 2057 005f 08       		.uleb128 0x8
 2058 0060 0D       		.uleb128 0xd
 2059 0061 00       		.byte	0
 2060 0062 03       		.uleb128 0x3
 2061 0063 08       		.uleb128 0x8
 2062 0064 3A       		.uleb128 0x3a
 2063 0065 0B       		.uleb128 0xb
 2064 0066 3B       		.uleb128 0x3b
 2065 0067 0B       		.uleb128 0xb
 2066 0068 49       		.uleb128 0x49
 2067 0069 13       		.uleb128 0x13
 2068 006a 38       		.uleb128 0x38
 2069 006b 0B       		.uleb128 0xb
 2070 006c 00       		.byte	0
 2071 006d 00       		.byte	0
 2072 006e 09       		.uleb128 0x9
 2073 006f 01       		.uleb128 0x1
 2074 0070 01       		.byte	0x1
 2075 0071 49       		.uleb128 0x49
 2076 0072 13       		.uleb128 0x13
 2077 0073 01       		.uleb128 0x1
 2078 0074 13       		.uleb128 0x13
 2079 0075 00       		.byte	0
 2080 0076 00       		.byte	0
 2081 0077 0A       		.uleb128 0xa
 2082 0078 21       		.uleb128 0x21
 2083 0079 00       		.byte	0
 2084 007a 49       		.uleb128 0x49
 2085 007b 13       		.uleb128 0x13
 2086 007c 2F       		.uleb128 0x2f
 2087 007d 05       		.uleb128 0x5
 2088 007e 00       		.byte	0
 2089 007f 00       		.byte	0
 2090 0080 0B       		.uleb128 0xb
 2091 0081 0F       		.uleb128 0xf
 2092 0082 00       		.byte	0
 2093 0083 0B       		.uleb128 0xb
 2094 0084 0B       		.uleb128 0xb
 2095 0085 49       		.uleb128 0x49
 2096 0086 13       		.uleb128 0x13
 2097 0087 00       		.byte	0
 2098 0088 00       		.byte	0
 2099 0089 0C       		.uleb128 0xc
 2100 008a 16       		.uleb128 0x16
 2101 008b 00       		.byte	0
 2102 008c 03       		.uleb128 0x3
 2103 008d 08       		.uleb128 0x8
ARM GAS  C:\Users\Petro\AppData\Local\Temp\cceUkp3V.s 			page 41


 2104 008e 3A       		.uleb128 0x3a
 2105 008f 0B       		.uleb128 0xb
 2106 0090 3B       		.uleb128 0x3b
 2107 0091 0B       		.uleb128 0xb
 2108 0092 49       		.uleb128 0x49
 2109 0093 13       		.uleb128 0x13
 2110 0094 00       		.byte	0
 2111 0095 00       		.byte	0
 2112 0096 0D       		.uleb128 0xd
 2113 0097 04       		.uleb128 0x4
 2114 0098 01       		.byte	0x1
 2115 0099 0B       		.uleb128 0xb
 2116 009a 0B       		.uleb128 0xb
 2117 009b 3A       		.uleb128 0x3a
 2118 009c 0B       		.uleb128 0xb
 2119 009d 3B       		.uleb128 0x3b
 2120 009e 0B       		.uleb128 0xb
 2121 009f 01       		.uleb128 0x1
 2122 00a0 13       		.uleb128 0x13
 2123 00a1 00       		.byte	0
 2124 00a2 00       		.byte	0
 2125 00a3 0E       		.uleb128 0xe
 2126 00a4 28       		.uleb128 0x28
 2127 00a5 00       		.byte	0
 2128 00a6 03       		.uleb128 0x3
 2129 00a7 0E       		.uleb128 0xe
 2130 00a8 1C       		.uleb128 0x1c
 2131 00a9 0D       		.uleb128 0xd
 2132 00aa 00       		.byte	0
 2133 00ab 00       		.byte	0
 2134 00ac 0F       		.uleb128 0xf
 2135 00ad 13       		.uleb128 0x13
 2136 00ae 01       		.byte	0x1
 2137 00af 03       		.uleb128 0x3
 2138 00b0 0E       		.uleb128 0xe
 2139 00b1 0B       		.uleb128 0xb
 2140 00b2 0B       		.uleb128 0xb
 2141 00b3 3A       		.uleb128 0x3a
 2142 00b4 0B       		.uleb128 0xb
 2143 00b5 3B       		.uleb128 0x3b
 2144 00b6 0B       		.uleb128 0xb
 2145 00b7 01       		.uleb128 0x1
 2146 00b8 13       		.uleb128 0x13
 2147 00b9 00       		.byte	0
 2148 00ba 00       		.byte	0
 2149 00bb 10       		.uleb128 0x10
 2150 00bc 0D       		.uleb128 0xd
 2151 00bd 00       		.byte	0
 2152 00be 03       		.uleb128 0x3
 2153 00bf 0E       		.uleb128 0xe
 2154 00c0 3A       		.uleb128 0x3a
 2155 00c1 0B       		.uleb128 0xb
 2156 00c2 3B       		.uleb128 0x3b
 2157 00c3 0B       		.uleb128 0xb
 2158 00c4 49       		.uleb128 0x49
 2159 00c5 13       		.uleb128 0x13
 2160 00c6 38       		.uleb128 0x38
ARM GAS  C:\Users\Petro\AppData\Local\Temp\cceUkp3V.s 			page 42


 2161 00c7 05       		.uleb128 0x5
 2162 00c8 00       		.byte	0
 2163 00c9 00       		.byte	0
 2164 00ca 11       		.uleb128 0x11
 2165 00cb 21       		.uleb128 0x21
 2166 00cc 00       		.byte	0
 2167 00cd 49       		.uleb128 0x49
 2168 00ce 13       		.uleb128 0x13
 2169 00cf 2F       		.uleb128 0x2f
 2170 00d0 0B       		.uleb128 0xb
 2171 00d1 00       		.byte	0
 2172 00d2 00       		.byte	0
 2173 00d3 12       		.uleb128 0x12
 2174 00d4 2E       		.uleb128 0x2e
 2175 00d5 01       		.byte	0x1
 2176 00d6 3F       		.uleb128 0x3f
 2177 00d7 19       		.uleb128 0x19
 2178 00d8 03       		.uleb128 0x3
 2179 00d9 0E       		.uleb128 0xe
 2180 00da 3A       		.uleb128 0x3a
 2181 00db 0B       		.uleb128 0xb
 2182 00dc 3B       		.uleb128 0x3b
 2183 00dd 0B       		.uleb128 0xb
 2184 00de 27       		.uleb128 0x27
 2185 00df 19       		.uleb128 0x19
 2186 00e0 49       		.uleb128 0x49
 2187 00e1 13       		.uleb128 0x13
 2188 00e2 11       		.uleb128 0x11
 2189 00e3 01       		.uleb128 0x1
 2190 00e4 12       		.uleb128 0x12
 2191 00e5 06       		.uleb128 0x6
 2192 00e6 40       		.uleb128 0x40
 2193 00e7 18       		.uleb128 0x18
 2194 00e8 9642     		.uleb128 0x2116
 2195 00ea 19       		.uleb128 0x19
 2196 00eb 01       		.uleb128 0x1
 2197 00ec 13       		.uleb128 0x13
 2198 00ed 00       		.byte	0
 2199 00ee 00       		.byte	0
 2200 00ef 13       		.uleb128 0x13
 2201 00f0 34       		.uleb128 0x34
 2202 00f1 00       		.byte	0
 2203 00f2 03       		.uleb128 0x3
 2204 00f3 0E       		.uleb128 0xe
 2205 00f4 3A       		.uleb128 0x3a
 2206 00f5 0B       		.uleb128 0xb
 2207 00f6 3B       		.uleb128 0x3b
 2208 00f7 0B       		.uleb128 0xb
 2209 00f8 49       		.uleb128 0x49
 2210 00f9 13       		.uleb128 0x13
 2211 00fa 02       		.uleb128 0x2
 2212 00fb 18       		.uleb128 0x18
 2213 00fc 00       		.byte	0
 2214 00fd 00       		.byte	0
 2215 00fe 14       		.uleb128 0x14
 2216 00ff 2E       		.uleb128 0x2e
 2217 0100 01       		.byte	0x1
ARM GAS  C:\Users\Petro\AppData\Local\Temp\cceUkp3V.s 			page 43


 2218 0101 3F       		.uleb128 0x3f
 2219 0102 19       		.uleb128 0x19
 2220 0103 03       		.uleb128 0x3
 2221 0104 0E       		.uleb128 0xe
 2222 0105 3A       		.uleb128 0x3a
 2223 0106 0B       		.uleb128 0xb
 2224 0107 3B       		.uleb128 0x3b
 2225 0108 0B       		.uleb128 0xb
 2226 0109 11       		.uleb128 0x11
 2227 010a 01       		.uleb128 0x1
 2228 010b 12       		.uleb128 0x12
 2229 010c 06       		.uleb128 0x6
 2230 010d 40       		.uleb128 0x40
 2231 010e 18       		.uleb128 0x18
 2232 010f 9742     		.uleb128 0x2117
 2233 0111 19       		.uleb128 0x19
 2234 0112 01       		.uleb128 0x1
 2235 0113 13       		.uleb128 0x13
 2236 0114 00       		.byte	0
 2237 0115 00       		.byte	0
 2238 0116 15       		.uleb128 0x15
 2239 0117 34       		.uleb128 0x34
 2240 0118 00       		.byte	0
 2241 0119 03       		.uleb128 0x3
 2242 011a 08       		.uleb128 0x8
 2243 011b 3A       		.uleb128 0x3a
 2244 011c 0B       		.uleb128 0xb
 2245 011d 3B       		.uleb128 0x3b
 2246 011e 0B       		.uleb128 0xb
 2247 011f 49       		.uleb128 0x49
 2248 0120 13       		.uleb128 0x13
 2249 0121 02       		.uleb128 0x2
 2250 0122 18       		.uleb128 0x18
 2251 0123 00       		.byte	0
 2252 0124 00       		.byte	0
 2253 0125 16       		.uleb128 0x16
 2254 0126 2E       		.uleb128 0x2e
 2255 0127 01       		.byte	0x1
 2256 0128 3F       		.uleb128 0x3f
 2257 0129 19       		.uleb128 0x19
 2258 012a 03       		.uleb128 0x3
 2259 012b 0E       		.uleb128 0xe
 2260 012c 3A       		.uleb128 0x3a
 2261 012d 0B       		.uleb128 0xb
 2262 012e 3B       		.uleb128 0x3b
 2263 012f 0B       		.uleb128 0xb
 2264 0130 27       		.uleb128 0x27
 2265 0131 19       		.uleb128 0x19
 2266 0132 11       		.uleb128 0x11
 2267 0133 01       		.uleb128 0x1
 2268 0134 12       		.uleb128 0x12
 2269 0135 06       		.uleb128 0x6
 2270 0136 40       		.uleb128 0x40
 2271 0137 18       		.uleb128 0x18
 2272 0138 9742     		.uleb128 0x2117
 2273 013a 19       		.uleb128 0x19
 2274 013b 01       		.uleb128 0x1
ARM GAS  C:\Users\Petro\AppData\Local\Temp\cceUkp3V.s 			page 44


 2275 013c 13       		.uleb128 0x13
 2276 013d 00       		.byte	0
 2277 013e 00       		.byte	0
 2278 013f 17       		.uleb128 0x17
 2279 0140 05       		.uleb128 0x5
 2280 0141 00       		.byte	0
 2281 0142 03       		.uleb128 0x3
 2282 0143 0E       		.uleb128 0xe
 2283 0144 3A       		.uleb128 0x3a
 2284 0145 0B       		.uleb128 0xb
 2285 0146 3B       		.uleb128 0x3b
 2286 0147 0B       		.uleb128 0xb
 2287 0148 49       		.uleb128 0x49
 2288 0149 13       		.uleb128 0x13
 2289 014a 02       		.uleb128 0x2
 2290 014b 18       		.uleb128 0x18
 2291 014c 00       		.byte	0
 2292 014d 00       		.byte	0
 2293 014e 18       		.uleb128 0x18
 2294 014f 2E       		.uleb128 0x2e
 2295 0150 00       		.byte	0
 2296 0151 3F       		.uleb128 0x3f
 2297 0152 19       		.uleb128 0x19
 2298 0153 03       		.uleb128 0x3
 2299 0154 0E       		.uleb128 0xe
 2300 0155 3A       		.uleb128 0x3a
 2301 0156 0B       		.uleb128 0xb
 2302 0157 3B       		.uleb128 0x3b
 2303 0158 0B       		.uleb128 0xb
 2304 0159 49       		.uleb128 0x49
 2305 015a 13       		.uleb128 0x13
 2306 015b 11       		.uleb128 0x11
 2307 015c 01       		.uleb128 0x1
 2308 015d 12       		.uleb128 0x12
 2309 015e 06       		.uleb128 0x6
 2310 015f 40       		.uleb128 0x40
 2311 0160 18       		.uleb128 0x18
 2312 0161 9742     		.uleb128 0x2117
 2313 0163 19       		.uleb128 0x19
 2314 0164 00       		.byte	0
 2315 0165 00       		.byte	0
 2316 0166 19       		.uleb128 0x19
 2317 0167 2E       		.uleb128 0x2e
 2318 0168 01       		.byte	0x1
 2319 0169 3F       		.uleb128 0x3f
 2320 016a 19       		.uleb128 0x19
 2321 016b 03       		.uleb128 0x3
 2322 016c 0E       		.uleb128 0xe
 2323 016d 3A       		.uleb128 0x3a
 2324 016e 0B       		.uleb128 0xb
 2325 016f 3B       		.uleb128 0x3b
 2326 0170 0B       		.uleb128 0xb
 2327 0171 27       		.uleb128 0x27
 2328 0172 19       		.uleb128 0x19
 2329 0173 49       		.uleb128 0x49
 2330 0174 13       		.uleb128 0x13
 2331 0175 11       		.uleb128 0x11
ARM GAS  C:\Users\Petro\AppData\Local\Temp\cceUkp3V.s 			page 45


 2332 0176 01       		.uleb128 0x1
 2333 0177 12       		.uleb128 0x12
 2334 0178 06       		.uleb128 0x6
 2335 0179 40       		.uleb128 0x40
 2336 017a 18       		.uleb128 0x18
 2337 017b 9742     		.uleb128 0x2117
 2338 017d 19       		.uleb128 0x19
 2339 017e 01       		.uleb128 0x1
 2340 017f 13       		.uleb128 0x13
 2341 0180 00       		.byte	0
 2342 0181 00       		.byte	0
 2343 0182 1A       		.uleb128 0x1a
 2344 0183 2E       		.uleb128 0x2e
 2345 0184 01       		.byte	0x1
 2346 0185 3F       		.uleb128 0x3f
 2347 0186 19       		.uleb128 0x19
 2348 0187 03       		.uleb128 0x3
 2349 0188 0E       		.uleb128 0xe
 2350 0189 3A       		.uleb128 0x3a
 2351 018a 0B       		.uleb128 0xb
 2352 018b 3B       		.uleb128 0x3b
 2353 018c 0B       		.uleb128 0xb
 2354 018d 49       		.uleb128 0x49
 2355 018e 13       		.uleb128 0x13
 2356 018f 11       		.uleb128 0x11
 2357 0190 01       		.uleb128 0x1
 2358 0191 12       		.uleb128 0x12
 2359 0192 06       		.uleb128 0x6
 2360 0193 40       		.uleb128 0x40
 2361 0194 18       		.uleb128 0x18
 2362 0195 9742     		.uleb128 0x2117
 2363 0197 19       		.uleb128 0x19
 2364 0198 01       		.uleb128 0x1
 2365 0199 13       		.uleb128 0x13
 2366 019a 00       		.byte	0
 2367 019b 00       		.byte	0
 2368 019c 1B       		.uleb128 0x1b
 2369 019d 2E       		.uleb128 0x2e
 2370 019e 00       		.byte	0
 2371 019f 3F       		.uleb128 0x3f
 2372 01a0 19       		.uleb128 0x19
 2373 01a1 03       		.uleb128 0x3
 2374 01a2 0E       		.uleb128 0xe
 2375 01a3 3A       		.uleb128 0x3a
 2376 01a4 0B       		.uleb128 0xb
 2377 01a5 3B       		.uleb128 0x3b
 2378 01a6 0B       		.uleb128 0xb
 2379 01a7 27       		.uleb128 0x27
 2380 01a8 19       		.uleb128 0x19
 2381 01a9 49       		.uleb128 0x49
 2382 01aa 13       		.uleb128 0x13
 2383 01ab 11       		.uleb128 0x11
 2384 01ac 01       		.uleb128 0x1
 2385 01ad 12       		.uleb128 0x12
 2386 01ae 06       		.uleb128 0x6
 2387 01af 40       		.uleb128 0x40
 2388 01b0 18       		.uleb128 0x18
ARM GAS  C:\Users\Petro\AppData\Local\Temp\cceUkp3V.s 			page 46


 2389 01b1 9742     		.uleb128 0x2117
 2390 01b3 19       		.uleb128 0x19
 2391 01b4 00       		.byte	0
 2392 01b5 00       		.byte	0
 2393 01b6 1C       		.uleb128 0x1c
 2394 01b7 2E       		.uleb128 0x2e
 2395 01b8 01       		.byte	0x1
 2396 01b9 3F       		.uleb128 0x3f
 2397 01ba 19       		.uleb128 0x19
 2398 01bb 03       		.uleb128 0x3
 2399 01bc 0E       		.uleb128 0xe
 2400 01bd 3A       		.uleb128 0x3a
 2401 01be 0B       		.uleb128 0xb
 2402 01bf 3B       		.uleb128 0x3b
 2403 01c0 0B       		.uleb128 0xb
 2404 01c1 27       		.uleb128 0x27
 2405 01c2 19       		.uleb128 0x19
 2406 01c3 11       		.uleb128 0x11
 2407 01c4 01       		.uleb128 0x1
 2408 01c5 12       		.uleb128 0x12
 2409 01c6 06       		.uleb128 0x6
 2410 01c7 40       		.uleb128 0x40
 2411 01c8 18       		.uleb128 0x18
 2412 01c9 9642     		.uleb128 0x2116
 2413 01cb 19       		.uleb128 0x19
 2414 01cc 01       		.uleb128 0x1
 2415 01cd 13       		.uleb128 0x13
 2416 01ce 00       		.byte	0
 2417 01cf 00       		.byte	0
 2418 01d0 1D       		.uleb128 0x1d
 2419 01d1 34       		.uleb128 0x34
 2420 01d2 00       		.byte	0
 2421 01d3 03       		.uleb128 0x3
 2422 01d4 0E       		.uleb128 0xe
 2423 01d5 3A       		.uleb128 0x3a
 2424 01d6 0B       		.uleb128 0xb
 2425 01d7 3B       		.uleb128 0x3b
 2426 01d8 0B       		.uleb128 0xb
 2427 01d9 49       		.uleb128 0x49
 2428 01da 13       		.uleb128 0x13
 2429 01db 3F       		.uleb128 0x3f
 2430 01dc 19       		.uleb128 0x19
 2431 01dd 02       		.uleb128 0x2
 2432 01de 18       		.uleb128 0x18
 2433 01df 00       		.byte	0
 2434 01e0 00       		.byte	0
 2435 01e1 00       		.byte	0
 2436              		.section	.debug_aranges,"",%progbits
 2437 0000 84000000 		.4byte	0x84
 2438 0004 0200     		.2byte	0x2
 2439 0006 00000000 		.4byte	.Ldebug_info0
 2440 000a 04       		.byte	0x4
 2441 000b 00       		.byte	0
 2442 000c 0000     		.2byte	0
 2443 000e 0000     		.2byte	0
 2444 0010 00000000 		.4byte	.LFB63
 2445 0014 28000000 		.4byte	.LFE63-.LFB63
ARM GAS  C:\Users\Petro\AppData\Local\Temp\cceUkp3V.s 			page 47


 2446 0018 00000000 		.4byte	.LFB64
 2447 001c 5C000000 		.4byte	.LFE64-.LFB64
 2448 0020 00000000 		.4byte	.LFB65
 2449 0024 48000000 		.4byte	.LFE65-.LFB65
 2450 0028 00000000 		.4byte	.LFB66
 2451 002c 44000000 		.4byte	.LFE66-.LFB66
 2452 0030 00000000 		.4byte	.LFB67
 2453 0034 28000000 		.4byte	.LFE67-.LFB67
 2454 0038 00000000 		.4byte	.LFB68
 2455 003c AC000000 		.4byte	.LFE68-.LFB68
 2456 0040 00000000 		.4byte	.LFB69
 2457 0044 14000000 		.4byte	.LFE69-.LFB69
 2458 0048 00000000 		.4byte	.LFB70
 2459 004c 08010000 		.4byte	.LFE70-.LFB70
 2460 0050 00000000 		.4byte	.LFB71
 2461 0054 4C000000 		.4byte	.LFE71-.LFB71
 2462 0058 00000000 		.4byte	.LFB72
 2463 005c 48000000 		.4byte	.LFE72-.LFB72
 2464 0060 00000000 		.4byte	.LFB73
 2465 0064 14000000 		.4byte	.LFE73-.LFB73
 2466 0068 00000000 		.4byte	.LFB74
 2467 006c 7C000000 		.4byte	.LFE74-.LFB74
 2468 0070 00000000 		.4byte	.LFB75
 2469 0074 68000000 		.4byte	.LFE75-.LFB75
 2470 0078 00000000 		.4byte	.LFB76
 2471 007c 34000000 		.4byte	.LFE76-.LFB76
 2472 0080 00000000 		.4byte	0
 2473 0084 00000000 		.4byte	0
 2474              		.section	.debug_ranges,"",%progbits
 2475              	.Ldebug_ranges0:
 2476 0000 00000000 		.4byte	.LFB63
 2477 0004 28000000 		.4byte	.LFE63
 2478 0008 00000000 		.4byte	.LFB64
 2479 000c 5C000000 		.4byte	.LFE64
 2480 0010 00000000 		.4byte	.LFB65
 2481 0014 48000000 		.4byte	.LFE65
 2482 0018 00000000 		.4byte	.LFB66
 2483 001c 44000000 		.4byte	.LFE66
 2484 0020 00000000 		.4byte	.LFB67
 2485 0024 28000000 		.4byte	.LFE67
 2486 0028 00000000 		.4byte	.LFB68
 2487 002c AC000000 		.4byte	.LFE68
 2488 0030 00000000 		.4byte	.LFB69
 2489 0034 14000000 		.4byte	.LFE69
 2490 0038 00000000 		.4byte	.LFB70
 2491 003c 08010000 		.4byte	.LFE70
 2492 0040 00000000 		.4byte	.LFB71
 2493 0044 4C000000 		.4byte	.LFE71
 2494 0048 00000000 		.4byte	.LFB72
 2495 004c 48000000 		.4byte	.LFE72
 2496 0050 00000000 		.4byte	.LFB73
 2497 0054 14000000 		.4byte	.LFE73
 2498 0058 00000000 		.4byte	.LFB74
 2499 005c 7C000000 		.4byte	.LFE74
 2500 0060 00000000 		.4byte	.LFB75
 2501 0064 68000000 		.4byte	.LFE75
 2502 0068 00000000 		.4byte	.LFB76
ARM GAS  C:\Users\Petro\AppData\Local\Temp\cceUkp3V.s 			page 48


 2503 006c 34000000 		.4byte	.LFE76
 2504 0070 00000000 		.4byte	0
 2505 0074 00000000 		.4byte	0
 2506              		.section	.debug_line,"",%progbits
 2507              	.Ldebug_line0:
 2508 0000 9E020000 		.section	.debug_str,"MS",%progbits,1
 2508      02005E01 
 2508      00000201 
 2508      FB0E0D00 
 2508      01010101 
 2509              	.LASF29:
 2510 0000 4653495A 		.ascii	"FSIZE_t\000"
 2510      455F7400 
 2511              	.LASF83:
 2512 0008 6C617374 		.ascii	"last\000"
 2512      00
 2513              	.LASF56:
 2514 000d 6469725F 		.ascii	"dir_ptr\000"
 2514      70747200 
 2515              	.LASF60:
 2516 0015 46525F4E 		.ascii	"FR_NOT_READY\000"
 2516      4F545F52 
 2516      45414459 
 2516      00
 2517              	.LASF45:
 2518 0022 46415446 		.ascii	"FATFS\000"
 2518      5300
 2519              	.LASF77:
 2520 0028 6E657874 		.ascii	"nextSki\000"
 2520      536B6900 
 2521              	.LASF50:
 2522 0030 5F464449 		.ascii	"_FDID\000"
 2522      4400
 2523              	.LASF82:
 2524 0036 62756666 		.ascii	"buffer\000"
 2524      657200
 2525              	.LASF81:
 2526 003d 746F7461 		.ascii	"totalSize\000"
 2526      6C53697A 
 2526      6500
 2527              	.LASF36:
 2528 0047 6C617374 		.ascii	"last_clst\000"
 2528      5F636C73 
 2528      7400
 2529              	.LASF11:
 2530 0051 756E7369 		.ascii	"unsigned int\000"
 2530      676E6564 
 2530      20696E74 
 2530      00
 2531              	.LASF68:
 2532 005e 46525F49 		.ascii	"FR_INVALID_DRIVE\000"
 2532      4E56414C 
 2532      49445F44 
 2532      52495645 
 2532      00
 2533              	.LASF31:
 2534 006f 6E5F6661 		.ascii	"n_fats\000"
ARM GAS  C:\Users\Petro\AppData\Local\Temp\cceUkp3V.s 			page 49


 2534      747300
 2535              	.LASF103:
 2536 0076 66617446 		.ascii	"fatFs\000"
 2536      7300
 2537              	.LASF71:
 2538 007c 46525F4D 		.ascii	"FR_MKFS_ABORTED\000"
 2538      4B46535F 
 2538      41424F52 
 2538      54454400 
 2539              	.LASF44:
 2540 008c 77696E73 		.ascii	"winsect\000"
 2540      65637400 
 2541              	.LASF120:
 2542 0094 4669666F 		.ascii	"FifoGetSize\000"
 2542      47657453 
 2542      697A6500 
 2543              	.LASF106:
 2544 00a0 62756666 		.ascii	"bufferSkiersOnWay\000"
 2544      6572536B 
 2544      69657273 
 2544      4F6E5761 
 2544      7900
 2545              	.LASF94:
 2546 00b2 54696D65 		.ascii	"TimeOnWay\000"
 2546      4F6E5761 
 2546      7900
 2547              	.LASF109:
 2548 00bc 63757272 		.ascii	"currentElementStart\000"
 2548      656E7445 
 2548      6C656D65 
 2548      6E745374 
 2548      61727400 
 2549              	.LASF75:
 2550 00d0 46525F54 		.ascii	"FR_TOO_MANY_OPEN_FILES\000"
 2550      4F4F5F4D 
 2550      414E595F 
 2550      4F50454E 
 2550      5F46494C 
 2551              	.LASF13:
 2552 00e7 75696E74 		.ascii	"uint32_t\000"
 2552      33325F74 
 2552      00
 2553              	.LASF33:
 2554 00f0 6673695F 		.ascii	"fsi_flag\000"
 2554      666C6167 
 2554      00
 2555              	.LASF80:
 2556 00f9 6C617374 		.ascii	"lastElement\000"
 2556      456C656D 
 2556      656E7400 
 2557              	.LASF55:
 2558 0105 6469725F 		.ascii	"dir_sect\000"
 2558      73656374 
 2558      00
 2559              	.LASF22:
 2560 010e 666C6F61 		.ascii	"float\000"
 2560      7400
ARM GAS  C:\Users\Petro\AppData\Local\Temp\cceUkp3V.s 			page 50


 2561              	.LASF107:
 2562 0114 62756666 		.ascii	"bufferFifo\000"
 2562      65724669 
 2562      666F00
 2563              	.LASF16:
 2564 011f 6D696C6C 		.ascii	"millsStartSkier\000"
 2564      73537461 
 2564      7274536B 
 2564      69657200 
 2565              	.LASF28:
 2566 012f 44574F52 		.ascii	"DWORD\000"
 2566      4400
 2567              	.LASF85:
 2568 0135 72657375 		.ascii	"result\000"
 2568      6C7400
 2569              	.LASF10:
 2570 013c 6C6F6E67 		.ascii	"long long unsigned int\000"
 2570      206C6F6E 
 2570      6720756E 
 2570      7369676E 
 2570      65642069 
 2571              	.LASF59:
 2572 0153 46525F49 		.ascii	"FR_INT_ERR\000"
 2572      4E545F45 
 2572      525200
 2573              	.LASF117:
 2574 015e 656C656D 		.ascii	"elementBuff\000"
 2574      656E7442 
 2574      75666600 
 2575              	.LASF46:
 2576 016a 61747472 		.ascii	"attr\000"
 2576      00
 2577              	.LASF5:
 2578 016f 5F5F7569 		.ascii	"__uint16_t\000"
 2578      6E743136 
 2578      5F7400
 2579              	.LASF30:
 2580 017a 66735F74 		.ascii	"fs_type\000"
 2580      79706500 
 2581              	.LASF102:
 2582 0182 4669666F 		.ascii	"FifoPushLast\000"
 2582      50757368 
 2582      4C617374 
 2582      00
 2583              	.LASF41:
 2584 018f 66617462 		.ascii	"fatbase\000"
 2584      61736500 
 2585              	.LASF47:
 2586 0197 73746174 		.ascii	"stat\000"
 2586      00
 2587              	.LASF89:
 2588 019c 67657453 		.ascii	"getSkiFromWay\000"
 2588      6B694672 
 2588      6F6D5761 
 2588      7900
 2589              	.LASF65:
 2590 01aa 46525F45 		.ascii	"FR_EXIST\000"
ARM GAS  C:\Users\Petro\AppData\Local\Temp\cceUkp3V.s 			page 51


 2590      58495354 
 2590      00
 2591              	.LASF66:
 2592 01b3 46525F49 		.ascii	"FR_INVALID_OBJECT\000"
 2592      4E56414C 
 2592      49445F4F 
 2592      424A4543 
 2592      5400
 2593              	.LASF92:
 2594 01c5 5F426F6F 		.ascii	"_Bool\000"
 2594      6C00
 2595              	.LASF21:
 2596 01cb 736B6965 		.ascii	"skierDB_El\000"
 2596      7244425F 
 2596      456C00
 2597              	.LASF9:
 2598 01d6 5F5F7569 		.ascii	"__uint64_t\000"
 2598      6E743634 
 2598      5F7400
 2599              	.LASF73:
 2600 01e1 46525F4C 		.ascii	"FR_LOCKED\000"
 2600      4F434B45 
 2600      4400
 2601              	.LASF18:
 2602 01eb 6D696C6C 		.ascii	"millsFinishSkier\000"
 2602      7346696E 
 2602      69736853 
 2602      6B696572 
 2602      00
 2603              	.LASF95:
 2604 01fc 4E756D62 		.ascii	"Number\000"
 2604      657200
 2605              	.LASF86:
 2606 0203 756E6978 		.ascii	"unixTime\000"
 2606      54696D65 
 2606      00
 2607              	.LASF24:
 2608 020c 63686172 		.ascii	"char\000"
 2608      00
 2609              	.LASF100:
 2610 0211 64617461 		.ascii	"data\000"
 2610      00
 2611              	.LASF54:
 2612 0216 73656374 		.ascii	"sect\000"
 2612      00
 2613              	.LASF70:
 2614 021b 46525F4E 		.ascii	"FR_NO_FILESYSTEM\000"
 2614      4F5F4649 
 2614      4C455359 
 2614      5354454D 
 2614      00
 2615              	.LASF8:
 2616 022c 6C6F6E67 		.ascii	"long long int\000"
 2616      206C6F6E 
 2616      6720696E 
 2616      7400
 2617              	.LASF39:
ARM GAS  C:\Users\Petro\AppData\Local\Temp\cceUkp3V.s 			page 52


 2618 023a 6673697A 		.ascii	"fsize\000"
 2618      6500
 2619              	.LASF101:
 2620 0240 4669666F 		.ascii	"FifoGet\000"
 2620      47657400 
 2621              	.LASF40:
 2622 0248 766F6C62 		.ascii	"volbase\000"
 2622      61736500 
 2623              	.LASF76:
 2624 0250 46525F49 		.ascii	"FR_INVALID_PARAMETER\000"
 2624      4E56414C 
 2624      49445F50 
 2624      4152414D 
 2624      45544552 
 2625              	.LASF32:
 2626 0265 77666C61 		.ascii	"wflag\000"
 2626      6700
 2627              	.LASF104:
 2628 026b 66696C65 		.ascii	"fileO\000"
 2628      4F00
 2629              	.LASF61:
 2630 0271 46525F4E 		.ascii	"FR_NO_FILE\000"
 2630      4F5F4649 
 2630      4C4500
 2631              	.LASF26:
 2632 027c 42595445 		.ascii	"BYTE\000"
 2632      00
 2633              	.LASF114:
 2634 0281 474E5520 		.ascii	"GNU C 4.9.3 20150303 (release) [ARM/embedded-4_9-br"
 2634      4320342E 
 2634      392E3320 
 2634      32303135 
 2634      30333033 
 2635 02b4 616E6368 		.ascii	"anch revision 221220] -mcpu=cortex-m0 -mthumb -g -O"
 2635      20726576 
 2635      6973696F 
 2635      6E203232 
 2635      31323230 
 2636 02e7 30202D66 		.ascii	"0 -ffunction-sections -ffat-lto-objects\000"
 2636      66756E63 
 2636      74696F6E 
 2636      2D736563 
 2636      74696F6E 
 2637              	.LASF27:
 2638 030f 574F5244 		.ascii	"WORD\000"
 2638      00
 2639              	.LASF35:
 2640 0314 6373697A 		.ascii	"csize\000"
 2640      6500
 2641              	.LASF78:
 2642 031a 73697A65 		.ascii	"size\000"
 2642      00
 2643              	.LASF52:
 2644 031f 66707472 		.ascii	"fptr\000"
 2644      00
 2645              	.LASF97:
 2646 0324 746D7044 		.ascii	"tmpData\000"
ARM GAS  C:\Users\Petro\AppData\Local\Temp\cceUkp3V.s 			page 53


 2646      61746100 
 2647              	.LASF87:
 2648 032c 6D696C6C 		.ascii	"mills\000"
 2648      7300
 2649              	.LASF38:
 2650 0332 6E5F6661 		.ascii	"n_fatent\000"
 2650      74656E74 
 2650      00
 2651              	.LASF42:
 2652 033b 64697262 		.ascii	"dirbase\000"
 2652      61736500 
 2653              	.LASF84:
 2654 0343 6669666F 		.ascii	"fifoTimeSkier\000"
 2654      54696D65 
 2654      536B6965 
 2654      7200
 2655              	.LASF116:
 2656 0351 443A5C43 		.ascii	"D:\\Cypress\\system-start-finish\\vesion 2\\fw\\fin"
 2656      79707265 
 2656      73735C73 
 2656      79737465 
 2656      6D2D7374 
 2657 037f 6973685C 		.ascii	"ish\\mainline\\Finish(state machine)\\fin_v0.cydsn\000"
 2657      6D61696E 
 2657      6C696E65 
 2657      5C46696E 
 2657      69736828 
 2658              	.LASF64:
 2659 03af 46525F44 		.ascii	"FR_DENIED\000"
 2659      454E4945 
 2659      4400
 2660              	.LASF110:
 2661 03b9 63757272 		.ascii	"currentElementFinish\000"
 2661      656E7445 
 2661      6C656D65 
 2661      6E744669 
 2661      6E697368 
 2662              	.LASF12:
 2663 03ce 75696E74 		.ascii	"uint16_t\000"
 2663      31365F74 
 2663      00
 2664              	.LASF62:
 2665 03d7 46525F4E 		.ascii	"FR_NO_PATH\000"
 2665      4F5F5041 
 2665      544800
 2666              	.LASF90:
 2667 03e2 44617461 		.ascii	"DataBaseStart\000"
 2667      42617365 
 2667      53746172 
 2667      7400
 2668              	.LASF20:
 2669 03f0 6D696C6C 		.ascii	"millsWay\000"
 2669      73576179 
 2669      00
 2670              	.LASF69:
 2671 03f9 46525F4E 		.ascii	"FR_NOT_ENABLED\000"
 2671      4F545F45 
ARM GAS  C:\Users\Petro\AppData\Local\Temp\cceUkp3V.s 			page 54


 2671      4E41424C 
 2671      454400
 2672              	.LASF37:
 2673 0408 66726565 		.ascii	"free_clst\000"
 2673      5F636C73 
 2673      7400
 2674              	.LASF58:
 2675 0412 46525F44 		.ascii	"FR_DISK_ERR\000"
 2675      49534B5F 
 2675      45525200 
 2676              	.LASF2:
 2677 041e 73686F72 		.ascii	"short int\000"
 2677      7420696E 
 2677      7400
 2678              	.LASF74:
 2679 0428 46525F4E 		.ascii	"FR_NOT_ENOUGH_CORE\000"
 2679      4F545F45 
 2679      4E4F5547 
 2679      485F434F 
 2679      524500
 2680              	.LASF4:
 2681 043b 6C6F6E67 		.ascii	"long int\000"
 2681      20696E74 
 2681      00
 2682              	.LASF63:
 2683 0444 46525F49 		.ascii	"FR_INVALID_NAME\000"
 2683      4E56414C 
 2683      49445F4E 
 2683      414D4500 
 2684              	.LASF51:
 2685 0454 666C6167 		.ascii	"flag\000"
 2685      00
 2686              	.LASF14:
 2687 0459 75696E74 		.ascii	"uint64_t\000"
 2687      36345F74 
 2687      00
 2688              	.LASF118:
 2689 0462 496E6974 		.ascii	"InitBuff\000"
 2689      42756666 
 2689      00
 2690              	.LASF34:
 2691 046b 6E5F726F 		.ascii	"n_rootdir\000"
 2691      6F746469 
 2691      7200
 2692              	.LASF99:
 2693 0475 4669666F 		.ascii	"FifoPush\000"
 2693      50757368 
 2693      00
 2694              	.LASF115:
 2695 047e 2E5C6C69 		.ascii	".\\lib_DB\\database.c\000"
 2695      625F4442 
 2695      5C646174 
 2695      61626173 
 2695      652E6300 
 2696              	.LASF96:
 2697 0492 4C617374 		.ascii	"LastSecTimeOnWay\000"
 2697      53656354 
ARM GAS  C:\Users\Petro\AppData\Local\Temp\cceUkp3V.s 			page 55


 2697      696D654F 
 2697      6E576179 
 2697      00
 2698              	.LASF112:
 2699 04a3 736B6965 		.ascii	"skierDB\000"
 2699      72444200 
 2700              	.LASF91:
 2701 04ab 57726974 		.ascii	"WriteStartTime\000"
 2701      65537461 
 2701      72745469 
 2701      6D6500
 2702              	.LASF88:
 2703 04ba 70757453 		.ascii	"putSkiOnWay\000"
 2703      6B694F6E 
 2703      57617900 
 2704              	.LASF25:
 2705 04c6 73697A65 		.ascii	"sizetype\000"
 2705      74797065 
 2705      00
 2706              	.LASF7:
 2707 04cf 6C6F6E67 		.ascii	"long unsigned int\000"
 2707      20756E73 
 2707      69676E65 
 2707      6420696E 
 2707      7400
 2708              	.LASF57:
 2709 04e1 46525F4F 		.ascii	"FR_OK\000"
 2709      4B00
 2710              	.LASF49:
 2711 04e7 6F626A73 		.ascii	"objsize\000"
 2711      697A6500 
 2712              	.LASF53:
 2713 04ef 636C7573 		.ascii	"clust\000"
 2713      7400
 2714              	.LASF1:
 2715 04f5 756E7369 		.ascii	"unsigned char\000"
 2715      676E6564 
 2715      20636861 
 2715      7200
 2716              	.LASF6:
 2717 0503 5F5F7569 		.ascii	"__uint32_t\000"
 2717      6E743332 
 2717      5F7400
 2718              	.LASF93:
 2719 050e 57726974 		.ascii	"WriteFinishTime\000"
 2719      6546696E 
 2719      69736854 
 2719      696D6500 
 2720              	.LASF113:
 2721 051e 6669666F 		.ascii	"fifo\000"
 2721      00
 2722              	.LASF72:
 2723 0523 46525F54 		.ascii	"FR_TIMEOUT\000"
 2723      494D454F 
 2723      555400
 2724              	.LASF79:
 2725 052e 66697273 		.ascii	"firstElement\000"
ARM GAS  C:\Users\Petro\AppData\Local\Temp\cceUkp3V.s 			page 56


 2725      74456C65 
 2725      6D656E74 
 2725      00
 2726              	.LASF108:
 2727 053b 63757272 		.ascii	"currentSizeBuff\000"
 2727      656E7453 
 2727      697A6542 
 2727      75666600 
 2728              	.LASF19:
 2729 054b 5365636F 		.ascii	"SecondsWay\000"
 2729      6E647357 
 2729      617900
 2730              	.LASF15:
 2731 0556 756E6978 		.ascii	"unixStartSkier\000"
 2731      53746172 
 2731      74536B69 
 2731      657200
 2732              	.LASF111:
 2733 0565 736B6965 		.ascii	"skiersFinished\000"
 2733      72734669 
 2733      6E697368 
 2733      656400
 2734              	.LASF98:
 2735 0574 4C617374 		.ascii	"LastMillsTimeOnWay\000"
 2735      4D696C6C 
 2735      7354696D 
 2735      654F6E57 
 2735      617900
 2736              	.LASF0:
 2737 0587 7369676E 		.ascii	"signed char\000"
 2737      65642063 
 2737      68617200 
 2738              	.LASF3:
 2739 0593 73686F72 		.ascii	"short unsigned int\000"
 2739      7420756E 
 2739      7369676E 
 2739      65642069 
 2739      6E7400
 2740              	.LASF43:
 2741 05a6 64617461 		.ascii	"database\000"
 2741      62617365 
 2741      00
 2742              	.LASF105:
 2743 05af 63726561 		.ascii	"createFlag\000"
 2743      7465466C 
 2743      616700
 2744              	.LASF17:
 2745 05ba 756E6978 		.ascii	"unixFinishSkier\000"
 2745      46696E69 
 2745      7368536B 
 2745      69657200 
 2746              	.LASF23:
 2747 05ca 646F7562 		.ascii	"double\000"
 2747      6C6500
 2748              	.LASF67:
 2749 05d1 46525F57 		.ascii	"FR_WRITE_PROTECTED\000"
 2749      52495445 
ARM GAS  C:\Users\Petro\AppData\Local\Temp\cceUkp3V.s 			page 57


 2749      5F50524F 
 2749      54454354 
 2749      454400
 2750              	.LASF119:
 2751 05e4 536B6965 		.ascii	"SkierOnWay\000"
 2751      724F6E57 
 2751      617900
 2752              	.LASF48:
 2753 05ef 73636C75 		.ascii	"sclust\000"
 2753      737400
 2754              		.ident	"GCC: (GNU Tools for ARM Embedded Processors) 4.9.3 20150303 (release) [ARM/embedded-4_9-br
