ARM GAS  C:\Users\Petro\AppData\Local\Temp\ccPzTkZo.s 			page 1


   1              		.cpu cortex-m0
   2              		.fpu softvfp
   3              		.eabi_attribute 20, 1
   4              		.eabi_attribute 21, 1
   5              		.eabi_attribute 23, 3
   6              		.eabi_attribute 24, 1
   7              		.eabi_attribute 25, 1
   8              		.eabi_attribute 26, 1
   9              		.eabi_attribute 30, 6
  10              		.eabi_attribute 34, 0
  11              		.eabi_attribute 18, 4
  12              		.code	16
  13              		.file	"DS1307.c"
  14              		.text
  15              	.Ltext0:
  16              		.cfi_sections	.debug_frame
  17              		.data
  18              		.align	2
  19              		.type	DS1307_daysBeforeMonthTbl1, %object
  20              		.size	DS1307_daysBeforeMonthTbl1, 24
  21              	DS1307_daysBeforeMonthTbl1:
  22 0000 0000     		.short	0
  23 0002 1F00     		.short	31
  24 0004 3B00     		.short	59
  25 0006 5A00     		.short	90
  26 0008 7800     		.short	120
  27 000a 9700     		.short	151
  28 000c B500     		.short	181
  29 000e D400     		.short	212
  30 0010 F300     		.short	243
  31 0012 1101     		.short	273
  32 0014 3001     		.short	304
  33 0016 4E01     		.short	334
  34              		.align	2
  35              		.type	DS1307_daysInMonthTbl, %object
  36              		.size	DS1307_daysInMonthTbl, 12
  37              	DS1307_daysInMonthTbl:
  38 0018 1F       		.byte	31
  39 0019 1C       		.byte	28
  40 001a 1F       		.byte	31
  41 001b 1E       		.byte	30
  42 001c 1F       		.byte	31
  43 001d 1E       		.byte	30
  44 001e 1F       		.byte	31
  45 001f 1F       		.byte	31
  46 0020 1E       		.byte	30
  47 0021 1F       		.byte	31
  48 0022 1E       		.byte	30
  49 0023 1F       		.byte	31
  50              		.comm	DS1307_currentTimeDate,10,4
  51              		.section	.text.DS1307_ReadTimeToStruct,"ax",%progbits
  52              		.align	2
  53              		.code	16
  54              		.thumb_func
  55              		.type	DS1307_ReadTimeToStruct, %function
  56              	DS1307_ReadTimeToStruct:
  57              	.LFB2:
ARM GAS  C:\Users\Petro\AppData\Local\Temp\ccPzTkZo.s 			page 2


  58              		.file 1 "lib_DS1307\\DS1307.c"
   1:lib_DS1307/DS1307.c **** #include "lib_DS1307\DS1307.h"
   2:lib_DS1307/DS1307.c **** #include <I2C.h>
   3:lib_DS1307/DS1307.c **** #include <I2C_I2C.h>
   4:lib_DS1307/DS1307.c **** 
   5:lib_DS1307/DS1307.c **** /*struct for time*/
   6:lib_DS1307/DS1307.c **** typedef struct
   7:lib_DS1307/DS1307.c **** {
   8:lib_DS1307/DS1307.c ****     uint8_t second;
   9:lib_DS1307/DS1307.c ****     uint8_t minutes;
  10:lib_DS1307/DS1307.c ****     uint8_t hours;
  11:lib_DS1307/DS1307.c ****     uint8_t timeFormat;
  12:lib_DS1307/DS1307.c ****     uint8_t AmRm;
  13:lib_DS1307/DS1307.c ****     uint8_t day;
  14:lib_DS1307/DS1307.c ****     uint8_t date;
  15:lib_DS1307/DS1307.c ****     uint8_t month;
  16:lib_DS1307/DS1307.c ****     uint16_t year;  
  17:lib_DS1307/DS1307.c **** }DS1307_DATE_TIME;
  18:lib_DS1307/DS1307.c **** 
  19:lib_DS1307/DS1307.c **** /*data for DS1307*/
  20:lib_DS1307/DS1307.c **** #define DS1307_SLAVE_ADRESS (0x68)
  21:lib_DS1307/DS1307.c **** #define DS1307_NULL_ADRESS  (0x00)
  22:lib_DS1307/DS1307.c **** #define DS1307_NUMBER_OF_BYTES     (0x07)
  23:lib_DS1307/DS1307.c **** 
  24:lib_DS1307/DS1307.c **** 
  25:lib_DS1307/DS1307.c **** #define DS1307_SEC_MASK         (0x0f)
  26:lib_DS1307/DS1307.c **** #define DS1307_10_SEC_MASK      (0x70)
  27:lib_DS1307/DS1307.c **** #define DS1307_MIN_MASK         (0x0f)
  28:lib_DS1307/DS1307.c **** #define DS1307_10_MIN_MASK      (0x70)
  29:lib_DS1307/DS1307.c **** #define DS1307_HOUR_MASK        (0x0f)
  30:lib_DS1307/DS1307.c **** #define DS1307_10_12HOUR_MASK   (0x10)
  31:lib_DS1307/DS1307.c **** #define DS1307_10_24HOUR_MASK   (0x30)
  32:lib_DS1307/DS1307.c **** #define DS1307_DAY_MASK         (0x07)
  33:lib_DS1307/DS1307.c **** #define DS1307_DATE_MASK        (0x0f)
  34:lib_DS1307/DS1307.c **** #define DS1307_10_DATE_MASK     (0x30)
  35:lib_DS1307/DS1307.c **** #define DS1307_MONTH_MASK       (0x0f)
  36:lib_DS1307/DS1307.c **** #define DS1307_10_MONTH_MASK    (0x10)
  37:lib_DS1307/DS1307.c **** #define DS1307_YEAR_MASK        (0x0f)
  38:lib_DS1307/DS1307.c **** #define DS1307_10_YEAR_MASK     (0xf0)
  39:lib_DS1307/DS1307.c **** #define DS1307_TIME_FORMAT_MASK (0x40)
  40:lib_DS1307/DS1307.c **** #define DS1307_AM_RM_MASK       (0x20)
  41:lib_DS1307/DS1307.c **** #define DS1307_OFF_MASK         (0x80)
  42:lib_DS1307/DS1307.c **** 
  43:lib_DS1307/DS1307.c **** #define DS1307_SEC_ADRESS   (0x00)
  44:lib_DS1307/DS1307.c **** #define DS1307_MIN_ADRESS   (0x01)
  45:lib_DS1307/DS1307.c **** #define DS1307_HOUR_ADRESS  (0x02)
  46:lib_DS1307/DS1307.c **** #define DS1307_DAY_ADRESS   (0x03)
  47:lib_DS1307/DS1307.c **** #define DS1307_DATE_ADRESS  (0x04)
  48:lib_DS1307/DS1307.c **** #define DS1307_MONTH_ADRESS (0x05)
  49:lib_DS1307/DS1307.c **** #define DS1307_YEAR_ADRESS  (0x06)
  50:lib_DS1307/DS1307.c **** 
  51:lib_DS1307/DS1307.c **** /* Time format definitions */
  52:lib_DS1307/DS1307.c **** #define DS1307_PM                  (1u)
  53:lib_DS1307/DS1307.c **** #define DS1307_AM                  (0u)
  54:lib_DS1307/DS1307.c **** #define DS1307_12TIME_FORMAT       (1u)
  55:lib_DS1307/DS1307.c **** #define DS1307_24TIME_FORMAT       (0u)
  56:lib_DS1307/DS1307.c **** #define DS1307_UNIX_TIME_PM   ((12uL * 3600uL) + 1uL)
ARM GAS  C:\Users\Petro\AppData\Local\Temp\ccPzTkZo.s 			page 3


  57:lib_DS1307/DS1307.c **** 
  58:lib_DS1307/DS1307.c **** /* Definition of time register fields */
  59:lib_DS1307/DS1307.c **** #define DS1307_TIME_FORMAT_OFFSET     (23u)
  60:lib_DS1307/DS1307.c **** #define DS1307_PERIOD_OF_DAY_OFFSET   (22u)
  61:lib_DS1307/DS1307.c **** #define DS1307_10_HOURS_OFFSET        (20u)
  62:lib_DS1307/DS1307.c **** #define DS1307_HOURS_OFFSET           (16u)
  63:lib_DS1307/DS1307.c **** #define DS1307_10_MINUTES_OFFSET      (12u)
  64:lib_DS1307/DS1307.c **** #define DS1307_MINUTES_OFFSET         (8u)
  65:lib_DS1307/DS1307.c **** #define DS1307_10_SECONDS_OFFSET      (4u)
  66:lib_DS1307/DS1307.c **** #define DS1307_SECONDS_OFFSET         (0u)
  67:lib_DS1307/DS1307.c **** 
  68:lib_DS1307/DS1307.c **** /* Definition of date register fields */
  69:lib_DS1307/DS1307.c **** #define DS1307_10_MONTH_OFFSET   (28u)
  70:lib_DS1307/DS1307.c **** #define DS1307_MONTH_OFFSET      (24u)
  71:lib_DS1307/DS1307.c **** #define DS1307_10_DAY_OFFSET     (20u)
  72:lib_DS1307/DS1307.c **** #define DS1307_DAY_OFFSET        (16u)
  73:lib_DS1307/DS1307.c **** #define DS1307_1000_YEAR_OFFSET  (12u)
  74:lib_DS1307/DS1307.c **** #define DS1307_100_YEAR_OFFSET   (8u)
  75:lib_DS1307/DS1307.c **** #define DS1307_10_YEAR_OFFSET    (4u)
  76:lib_DS1307/DS1307.c **** #define DS1307_YEAR_OFFSET       (0u)
  77:lib_DS1307/DS1307.c **** 
  78:lib_DS1307/DS1307.c **** /*Define for unix time*/
  79:lib_DS1307/DS1307.c **** /* UNIX time begins in 1970 year.  */
  80:lib_DS1307/DS1307.c **** #define DS1307_YEAR_0             (1970u)
  81:lib_DS1307/DS1307.c **** #define DS1307_SECONDS_PER_LEAP_YEAR    (366uL * 24uL * 3600uL)
  82:lib_DS1307/DS1307.c **** #define DS1307_SECONDS_PER_NONLEAP_YEAR (365uL * 24uL * 3600uL)
  83:lib_DS1307/DS1307.c **** #define DS1307_MONTHS_PER_YEAR     (12uL)
  84:lib_DS1307/DS1307.c **** #define DS1307_HOURS_PER_DAY       (24uL)
  85:lib_DS1307/DS1307.c **** #define DS1307_HOURS_PER_HALF_DAY  (12uL)
  86:lib_DS1307/DS1307.c **** #define DS1307_SECONDS_PER_MINUTE  (60uL)
  87:lib_DS1307/DS1307.c **** #define DS1307_SECONDS_PER_HOUR    (3600uL)
  88:lib_DS1307/DS1307.c **** #define DS1307_SECONDS_PER_DAY     (24uL * 3600uL)
  89:lib_DS1307/DS1307.c **** 
  90:lib_DS1307/DS1307.c **** #define DS1307_10_MONTH_MASK_UNIX          (0x00000001uL << DS1307_10_MONTH_OFFSET)
  91:lib_DS1307/DS1307.c **** #define DS1307_MONTH_MASK_UNIX             (0x0000000FuL << DS1307_MONTH_OFFSET)
  92:lib_DS1307/DS1307.c **** #define DS1307_10_DAY_MASK_UNIX            (0x00000003uL << DS1307_10_DAY_OFFSET)
  93:lib_DS1307/DS1307.c **** #define DS1307_DAY_MASK_UNIX               (0x0000000FuL << DS1307_DAY_OFFSET)
  94:lib_DS1307/DS1307.c **** #define DS1307_1000_YEAR_MASK_UNIX         (0x00000003uL << DS1307_1000_YEAR_OFFSET)
  95:lib_DS1307/DS1307.c **** #define DS1307_100_YEAR_MASK_UNIX          (0x0000000FuL << DS1307_100_YEAR_OFFSET)
  96:lib_DS1307/DS1307.c **** #define DS1307_10_YEAR_MASK_UNIX           (0x0000000FuL << DS1307_10_YEAR_OFFSET)
  97:lib_DS1307/DS1307.c **** #define DS1307_YEAR_MASK_UNIX              (0x0000000FuL << DS1307_YEAR_OFFSET)
  98:lib_DS1307/DS1307.c **** 
  99:lib_DS1307/DS1307.c **** #define DS1307_TIME_FORMAT_MASK_UNIX       (0x00000001uL << DS1307_TIME_FORMAT_OFFSET)
 100:lib_DS1307/DS1307.c **** #define DS1307_PERIOD_OF_DAY_MASK_UNIX     (0x00000001uL << DS1307_PERIOD_OF_DAY_OFFSET)
 101:lib_DS1307/DS1307.c **** #define DS1307_10_HOURS_MASK_UNIX          (0x00000003uL << DS1307_10_HOURS_OFFSET)
 102:lib_DS1307/DS1307.c **** #define DS1307_HOURS_MASK_UNIX             (0x0000000FuL << DS1307_HOURS_OFFSET)
 103:lib_DS1307/DS1307.c **** #define DS1307_10_MINUTES_MASK_UNIX        (0x00000007uL << DS1307_10_MINUTES_OFFSET)
 104:lib_DS1307/DS1307.c **** #define DS1307_MINUTES_MASK_UNIX           (0x0000000FuL << DS1307_MINUTES_OFFSET)
 105:lib_DS1307/DS1307.c **** #define DS1307_10_SECONDS_MASK_UNIX        (0x00000007uL << DS1307_10_SECONDS_OFFSET)
 106:lib_DS1307/DS1307.c **** #define DS1307_SECONDS_MASK_UNIX           (0x0000000FuL << DS1307_SECONDS_OFFSET)
 107:lib_DS1307/DS1307.c **** 
 108:lib_DS1307/DS1307.c **** /* Number of days in month definitions */
 109:lib_DS1307/DS1307.c **** #define DS1307_DAYS_IN_JANUARY     (31u)
 110:lib_DS1307/DS1307.c **** #define DS1307_DAYS_IN_FEBRUARY    (28u)
 111:lib_DS1307/DS1307.c **** #define DS1307_DAYS_IN_MARCH       (31u)
 112:lib_DS1307/DS1307.c **** #define DS1307_DAYS_IN_APRIL       (30u)
 113:lib_DS1307/DS1307.c **** #define DS1307_DAYS_IN_MAY         (31u)
ARM GAS  C:\Users\Petro\AppData\Local\Temp\ccPzTkZo.s 			page 4


 114:lib_DS1307/DS1307.c **** #define DS1307_DAYS_IN_JUNE        (30u)
 115:lib_DS1307/DS1307.c **** #define DS1307_DAYS_IN_JULY        (31u)
 116:lib_DS1307/DS1307.c **** #define DS1307_DAYS_IN_AUGUST      (31u)
 117:lib_DS1307/DS1307.c **** #define DS1307_DAYS_IN_SEPTEMBER   (30u)
 118:lib_DS1307/DS1307.c **** #define DS1307_DAYS_IN_OCTOBER     (31u)
 119:lib_DS1307/DS1307.c **** #define DS1307_DAYS_IN_NOVEMBER    (30u)
 120:lib_DS1307/DS1307.c **** #define DS1307_DAYS_IN_DECEMBER    (31u)
 121:lib_DS1307/DS1307.c **** 
 122:lib_DS1307/DS1307.c **** /* Month definitions */
 123:lib_DS1307/DS1307.c **** #define DS1307_JANUARY    (1)
 124:lib_DS1307/DS1307.c **** #define DS1307_FEBRUARY   (2)
 125:lib_DS1307/DS1307.c **** #define DS1307_MARCH      (3)
 126:lib_DS1307/DS1307.c **** #define DS1307_APRIL      (4)
 127:lib_DS1307/DS1307.c **** #define DS1307_MAY        (5)
 128:lib_DS1307/DS1307.c **** #define DS1307_JUNE       (6)
 129:lib_DS1307/DS1307.c **** #define DS1307_JULY       (7)
 130:lib_DS1307/DS1307.c **** #define DS1307_AUGUST     (8)
 131:lib_DS1307/DS1307.c **** #define DS1307_SEPTEMBER  (9)
 132:lib_DS1307/DS1307.c **** #define DS1307_OCTOBER    (10)
 133:lib_DS1307/DS1307.c **** #define DS1307_NOVEMBER   (11)
 134:lib_DS1307/DS1307.c **** #define DS1307_DECEMBER   (12)
 135:lib_DS1307/DS1307.c **** 
 136:lib_DS1307/DS1307.c **** static uint16 DS1307_daysBeforeMonthTbl1[DS1307_MONTHS_PER_YEAR] = {
 137:lib_DS1307/DS1307.c ****                                                  (0u), /* JANUARY */
 138:lib_DS1307/DS1307.c ****                                                  (0u + 31u), /* FEBRUARY */
 139:lib_DS1307/DS1307.c ****                                                  (0u + 31u + 28u), /* MARCH */
 140:lib_DS1307/DS1307.c ****                                                  (0u + 31u + 28u + 31u), /* APRIL */
 141:lib_DS1307/DS1307.c ****                                                  (0u + 31u + 28u + 31u + 30u), /* MAY */
 142:lib_DS1307/DS1307.c ****                                                  (0u + 31u + 28u + 31u + 30u + 31u), /* JUNE */
 143:lib_DS1307/DS1307.c ****                                                  (0u + 31u + 28u + 31u + 30u + 31u + 30u), /* JULY 
 144:lib_DS1307/DS1307.c ****                                                  (0u + 31u + 28u + 31u + 30u + 31u + 30u + 31u), /*
 145:lib_DS1307/DS1307.c ****                                                  (0u + 31u + 28u + 31u + 30u + 31u + 30u + 31u + 31
 146:lib_DS1307/DS1307.c ****                                                  (0u + 31u + 28u + 31u + 30u + 31u + 30u + 31u + 31
 147:lib_DS1307/DS1307.c ****                                                  (0u + 31u + 28u + 31u + 30u + 31u + 30u + 31u + 31
 148:lib_DS1307/DS1307.c ****                                                  (0u + 31u + 28u + 31u + 30u + 31u + 30u + 31u + 31
 149:lib_DS1307/DS1307.c **** 
 150:lib_DS1307/DS1307.c **** static uint8 DS1307_daysInMonthTbl[DS1307_MONTHS_PER_YEAR] = {DS1307_DAYS_IN_JANUARY,
 151:lib_DS1307/DS1307.c ****                                                             DS1307_DAYS_IN_FEBRUARY,
 152:lib_DS1307/DS1307.c ****                                                             DS1307_DAYS_IN_MARCH,
 153:lib_DS1307/DS1307.c ****                                                             DS1307_DAYS_IN_APRIL,
 154:lib_DS1307/DS1307.c ****                                                             DS1307_DAYS_IN_MAY,
 155:lib_DS1307/DS1307.c ****                                                             DS1307_DAYS_IN_JUNE,
 156:lib_DS1307/DS1307.c ****                                                             DS1307_DAYS_IN_JULY,
 157:lib_DS1307/DS1307.c ****                                                             DS1307_DAYS_IN_AUGUST,
 158:lib_DS1307/DS1307.c ****                                                             DS1307_DAYS_IN_SEPTEMBER,
 159:lib_DS1307/DS1307.c ****                                                             DS1307_DAYS_IN_OCTOBER,
 160:lib_DS1307/DS1307.c ****                                                             DS1307_DAYS_IN_NOVEMBER,
 161:lib_DS1307/DS1307.c ****                                                             DS1307_DAYS_IN_DECEMBER};
 162:lib_DS1307/DS1307.c **** 
 163:lib_DS1307/DS1307.c **** 
 164:lib_DS1307/DS1307.c **** static uint32 DS1307_ReadTimeToStruct(void);
 165:lib_DS1307/DS1307.c **** static void DS1307_WriteTimeFromStruct(void);
 166:lib_DS1307/DS1307.c **** static uint32_t DS1307_ConstructTime(uint32 timeFormat, uint32 stateAmPm, uint32 hour, uint32 min, 
 167:lib_DS1307/DS1307.c **** static uint32 DS1307_ConstructDate(uint32 month, uint32 day, uint32 year);
 168:lib_DS1307/DS1307.c **** static uint64 DS1307_DateTimeToUnix(uint32 inputDate, uint32 inputTime);
 169:lib_DS1307/DS1307.c **** 
 170:lib_DS1307/DS1307.c **** DS1307_DATE_TIME DS1307_currentTimeDate ;
ARM GAS  C:\Users\Petro\AppData\Local\Temp\ccPzTkZo.s 			page 5


 171:lib_DS1307/DS1307.c **** 
 172:lib_DS1307/DS1307.c **** 
 173:lib_DS1307/DS1307.c **** 
 174:lib_DS1307/DS1307.c **** /*******************************************************************************
 175:lib_DS1307/DS1307.c **** * Function Name: DS1307_ReadTimeToStruct
 176:lib_DS1307/DS1307.c **** ********************************************************************************
 177:lib_DS1307/DS1307.c **** *
 178:lib_DS1307/DS1307.c **** * Summary:
 179:lib_DS1307/DS1307.c **** *   Read real time from chip DS1307
 180:lib_DS1307/DS1307.c **** *
 181:lib_DS1307/DS1307.c **** * Return:
 182:lib_DS1307/DS1307.c **** *   status the I2C connect
 183:lib_DS1307/DS1307.c **** *
 184:lib_DS1307/DS1307.c **** *******************************************************************************/
 185:lib_DS1307/DS1307.c **** static uint32 DS1307_ReadTimeToStruct(void)
 186:lib_DS1307/DS1307.c **** {
  59              		.loc 1 186 0
  60              		.cfi_startproc
  61 0000 80B5     		push	{r7, lr}
  62              		.cfi_def_cfa_offset 8
  63              		.cfi_offset 7, -8
  64              		.cfi_offset 14, -4
  65 0002 84B0     		sub	sp, sp, #16
  66              		.cfi_def_cfa_offset 24
  67 0004 00AF     		add	r7, sp, #0
  68              		.cfi_def_cfa_register 7
 187:lib_DS1307/DS1307.c ****     uint8_t data[DS1307_NUMBER_OF_BYTES];
 188:lib_DS1307/DS1307.c ****     uint32_t status;    
 189:lib_DS1307/DS1307.c ****     int i;
 190:lib_DS1307/DS1307.c ****     
 191:lib_DS1307/DS1307.c ****     I2C_Start();
  69              		.loc 1 191 0
  70 0006 FFF7FEFF 		bl	I2C_Start
 192:lib_DS1307/DS1307.c ****     
 193:lib_DS1307/DS1307.c ****     /*reset pointer register reading*/
 194:lib_DS1307/DS1307.c ****     //I2C_I2CMasterClearStatus();
 195:lib_DS1307/DS1307.c ****     status = I2C_I2CMasterSendStart(DS1307_SLAVE_ADRESS,I2C_I2C_WRITE_XFER_MODE);
  71              		.loc 1 195 0
  72 000a 6820     		mov	r0, #104
  73 000c 0021     		mov	r1, #0
  74 000e FFF7FEFF 		bl	I2C_I2CMasterSendStart
  75 0012 031C     		mov	r3, r0
  76 0014 BB60     		str	r3, [r7, #8]
 196:lib_DS1307/DS1307.c ****     if(status == I2C_I2C_MSTR_NO_ERROR)
  77              		.loc 1 196 0
  78 0016 BB68     		ldr	r3, [r7, #8]
  79 0018 002B     		cmp	r3, #0
  80 001a 10D1     		bne	.L2
 197:lib_DS1307/DS1307.c ****     {
 198:lib_DS1307/DS1307.c ****         I2C_I2CMasterWriteByte(DS1307_NULL_ADRESS);
  81              		.loc 1 198 0
  82 001c 0020     		mov	r0, #0
  83 001e FFF7FEFF 		bl	I2C_I2CMasterWriteByte
 199:lib_DS1307/DS1307.c ****     }
 200:lib_DS1307/DS1307.c ****     else 
 201:lib_DS1307/DS1307.c ****     {
 202:lib_DS1307/DS1307.c ****         /*error connect from DS1307*/
ARM GAS  C:\Users\Petro\AppData\Local\Temp\ccPzTkZo.s 			page 6


 203:lib_DS1307/DS1307.c ****         return status;
 204:lib_DS1307/DS1307.c ****     }
 205:lib_DS1307/DS1307.c ****     I2C_I2CMasterSendStop();
  84              		.loc 1 205 0
  85 0022 FFF7FEFF 		bl	I2C_I2CMasterSendStop
 206:lib_DS1307/DS1307.c **** 
 207:lib_DS1307/DS1307.c ****     /*read data*/
 208:lib_DS1307/DS1307.c ****     I2C_I2CMasterClearStatus();
  86              		.loc 1 208 0
  87 0026 FFF7FEFF 		bl	I2C_I2CMasterClearStatus
 209:lib_DS1307/DS1307.c ****     status = I2C_I2CMasterSendStart(DS1307_SLAVE_ADRESS,I2C_I2C_READ_XFER_MODE);
  88              		.loc 1 209 0
  89 002a 6820     		mov	r0, #104
  90 002c 0121     		mov	r1, #1
  91 002e FFF7FEFF 		bl	I2C_I2CMasterSendStart
  92 0032 031C     		mov	r3, r0
  93 0034 BB60     		str	r3, [r7, #8]
 210:lib_DS1307/DS1307.c ****     if(I2C_I2C_MSTR_NO_ERROR == status) 
  94              		.loc 1 210 0
  95 0036 BB68     		ldr	r3, [r7, #8]
  96 0038 002B     		cmp	r3, #0
  97 003a 23D1     		bne	.L5
  98 003c 01E0     		b	.L13
  99              	.L2:
 203:lib_DS1307/DS1307.c ****     }
 100              		.loc 1 203 0
 101 003e BB68     		ldr	r3, [r7, #8]
 102 0040 D5E0     		b	.L12
 103              	.L13:
 211:lib_DS1307/DS1307.c ****     {
 212:lib_DS1307/DS1307.c ****         /*write data in buffer*/
 213:lib_DS1307/DS1307.c ****         for(i=0; i<DS1307_NUMBER_OF_BYTES; i++)
 104              		.loc 1 213 0
 105 0042 0023     		mov	r3, #0
 106 0044 FB60     		str	r3, [r7, #12]
 107 0046 1AE0     		b	.L6
 108              	.L9:
 214:lib_DS1307/DS1307.c ****         {   
 215:lib_DS1307/DS1307.c ****             if(i < DS1307_NUMBER_OF_BYTES-1)
 109              		.loc 1 215 0
 110 0048 FB68     		ldr	r3, [r7, #12]
 111 004a 052B     		cmp	r3, #5
 112 004c 0ADC     		bgt	.L7
 216:lib_DS1307/DS1307.c ****             {
 217:lib_DS1307/DS1307.c ****                 data[i] = I2C_I2CMasterReadByte(I2C_I2C_ACK_DATA);
 113              		.loc 1 217 0
 114 004e 0020     		mov	r0, #0
 115 0050 FFF7FEFF 		bl	I2C_I2CMasterReadByte
 116 0054 031C     		mov	r3, r0
 117 0056 D9B2     		uxtb	r1, r3
 118 0058 3A1C     		mov	r2, r7
 119 005a FB68     		ldr	r3, [r7, #12]
 120 005c D318     		add	r3, r2, r3
 121 005e 0A1C     		add	r2, r1, #0
 122 0060 1A70     		strb	r2, [r3]
 123 0062 09E0     		b	.L8
 124              	.L7:
ARM GAS  C:\Users\Petro\AppData\Local\Temp\ccPzTkZo.s 			page 7


 218:lib_DS1307/DS1307.c ****             }
 219:lib_DS1307/DS1307.c ****             else
 220:lib_DS1307/DS1307.c ****             {
 221:lib_DS1307/DS1307.c ****                 data[i] = I2C_I2CMasterReadByte(I2C_I2C_NAK_DATA);
 125              		.loc 1 221 0
 126 0064 0120     		mov	r0, #1
 127 0066 FFF7FEFF 		bl	I2C_I2CMasterReadByte
 128 006a 031C     		mov	r3, r0
 129 006c D9B2     		uxtb	r1, r3
 130 006e 3A1C     		mov	r2, r7
 131 0070 FB68     		ldr	r3, [r7, #12]
 132 0072 D318     		add	r3, r2, r3
 133 0074 0A1C     		add	r2, r1, #0
 134 0076 1A70     		strb	r2, [r3]
 135              	.L8:
 213:lib_DS1307/DS1307.c ****         {   
 136              		.loc 1 213 0 discriminator 2
 137 0078 FB68     		ldr	r3, [r7, #12]
 138 007a 0133     		add	r3, r3, #1
 139 007c FB60     		str	r3, [r7, #12]
 140              	.L6:
 213:lib_DS1307/DS1307.c ****         {   
 141              		.loc 1 213 0 is_stmt 0 discriminator 1
 142 007e FB68     		ldr	r3, [r7, #12]
 143 0080 062B     		cmp	r3, #6
 144 0082 E1DD     		ble	.L9
 145              	.L5:
 222:lib_DS1307/DS1307.c ****             }
 223:lib_DS1307/DS1307.c ****         }
 224:lib_DS1307/DS1307.c ****     }
 225:lib_DS1307/DS1307.c ****     I2C_I2CMasterSendStop();
 146              		.loc 1 225 0 is_stmt 1
 147 0084 FFF7FEFF 		bl	I2C_I2CMasterSendStop
 226:lib_DS1307/DS1307.c ****     I2C_Stop();
 148              		.loc 1 226 0
 149 0088 FFF7FEFF 		bl	I2C_Stop
 227:lib_DS1307/DS1307.c ****     
 228:lib_DS1307/DS1307.c ****     /*write data from buffer in struct*/
 229:lib_DS1307/DS1307.c ****     DS1307_currentTimeDate.second =  (data[DS1307_SEC_ADRESS]& DS1307_SEC_MASK)+(((data[DS1307_SEC_
 150              		.loc 1 229 0
 151 008c 3B1C     		mov	r3, r7
 152 008e 1B78     		ldrb	r3, [r3]
 153 0090 0F22     		mov	r2, #15
 154 0092 1340     		and	r3, r2
 155 0094 DAB2     		uxtb	r2, r3
 156 0096 3B1C     		mov	r3, r7
 157 0098 1B78     		ldrb	r3, [r3]
 158 009a 191C     		mov	r1, r3
 159 009c 7023     		mov	r3, #112
 160 009e 0B40     		and	r3, r1
 161 00a0 1B11     		asr	r3, r3, #4
 162 00a2 DBB2     		uxtb	r3, r3
 163 00a4 191C     		add	r1, r3, #0
 164 00a6 8900     		lsl	r1, r1, #2
 165 00a8 CB18     		add	r3, r1, r3
 166 00aa DB18     		add	r3, r3, r3
 167 00ac DBB2     		uxtb	r3, r3
ARM GAS  C:\Users\Petro\AppData\Local\Temp\ccPzTkZo.s 			page 8


 168 00ae D318     		add	r3, r2, r3
 169 00b0 DAB2     		uxtb	r2, r3
 170 00b2 514B     		ldr	r3, .L14
 171 00b4 1A70     		strb	r2, [r3]
 230:lib_DS1307/DS1307.c ****     DS1307_currentTimeDate.minutes = (data[DS1307_MIN_ADRESS]& DS1307_MIN_MASK)+(((data[DS1307_MIN_
 172              		.loc 1 230 0
 173 00b6 3B1C     		mov	r3, r7
 174 00b8 5B78     		ldrb	r3, [r3, #1]
 175 00ba 0F22     		mov	r2, #15
 176 00bc 1340     		and	r3, r2
 177 00be DAB2     		uxtb	r2, r3
 178 00c0 3B1C     		mov	r3, r7
 179 00c2 5B78     		ldrb	r3, [r3, #1]
 180 00c4 191C     		mov	r1, r3
 181 00c6 7023     		mov	r3, #112
 182 00c8 0B40     		and	r3, r1
 183 00ca 1B11     		asr	r3, r3, #4
 184 00cc DBB2     		uxtb	r3, r3
 185 00ce 191C     		add	r1, r3, #0
 186 00d0 8900     		lsl	r1, r1, #2
 187 00d2 CB18     		add	r3, r1, r3
 188 00d4 DB18     		add	r3, r3, r3
 189 00d6 DBB2     		uxtb	r3, r3
 190 00d8 D318     		add	r3, r2, r3
 191 00da DAB2     		uxtb	r2, r3
 192 00dc 464B     		ldr	r3, .L14
 193 00de 5A70     		strb	r2, [r3, #1]
 231:lib_DS1307/DS1307.c ****     DS1307_currentTimeDate.timeFormat = (data[DS1307_HOUR_ADRESS] & DS1307_TIME_FORMAT_MASK)>>6;
 194              		.loc 1 231 0
 195 00e0 3B1C     		mov	r3, r7
 196 00e2 9B78     		ldrb	r3, [r3, #2]
 197 00e4 1A1C     		mov	r2, r3
 198 00e6 4023     		mov	r3, #64
 199 00e8 1340     		and	r3, r2
 200 00ea 9B11     		asr	r3, r3, #6
 201 00ec DAB2     		uxtb	r2, r3
 202 00ee 424B     		ldr	r3, .L14
 203 00f0 DA70     		strb	r2, [r3, #3]
 232:lib_DS1307/DS1307.c ****     if(DS1307_currentTimeDate.timeFormat == DS1307_12TIME_FORMAT)
 204              		.loc 1 232 0
 205 00f2 414B     		ldr	r3, .L14
 206 00f4 DB78     		ldrb	r3, [r3, #3]
 207 00f6 012B     		cmp	r3, #1
 208 00f8 1ED1     		bne	.L10
 233:lib_DS1307/DS1307.c ****     {
 234:lib_DS1307/DS1307.c ****         DS1307_currentTimeDate.hours = (data[DS1307_HOUR_ADRESS]& DS1307_HOUR_MASK)+(((data[DS1307_
 209              		.loc 1 234 0
 210 00fa 3B1C     		mov	r3, r7
 211 00fc 9B78     		ldrb	r3, [r3, #2]
 212 00fe 0F22     		mov	r2, #15
 213 0100 1340     		and	r3, r2
 214 0102 DAB2     		uxtb	r2, r3
 215 0104 3B1C     		mov	r3, r7
 216 0106 9B78     		ldrb	r3, [r3, #2]
 217 0108 191C     		mov	r1, r3
 218 010a 1023     		mov	r3, #16
 219 010c 0B40     		and	r3, r1
ARM GAS  C:\Users\Petro\AppData\Local\Temp\ccPzTkZo.s 			page 9


 220 010e 1B11     		asr	r3, r3, #4
 221 0110 DBB2     		uxtb	r3, r3
 222 0112 191C     		add	r1, r3, #0
 223 0114 8900     		lsl	r1, r1, #2
 224 0116 CB18     		add	r3, r1, r3
 225 0118 DB18     		add	r3, r3, r3
 226 011a DBB2     		uxtb	r3, r3
 227 011c D318     		add	r3, r2, r3
 228 011e DAB2     		uxtb	r2, r3
 229 0120 354B     		ldr	r3, .L14
 230 0122 9A70     		strb	r2, [r3, #2]
 235:lib_DS1307/DS1307.c ****         DS1307_currentTimeDate.AmRm = (data[DS1307_HOUR_ADRESS]&DS1307_AM_RM_MASK)>>5;
 231              		.loc 1 235 0
 232 0124 3B1C     		mov	r3, r7
 233 0126 9B78     		ldrb	r3, [r3, #2]
 234 0128 1A1C     		mov	r2, r3
 235 012a 2023     		mov	r3, #32
 236 012c 1340     		and	r3, r2
 237 012e 5B11     		asr	r3, r3, #5
 238 0130 DAB2     		uxtb	r2, r3
 239 0132 314B     		ldr	r3, .L14
 240 0134 1A71     		strb	r2, [r3, #4]
 241 0136 14E0     		b	.L11
 242              	.L10:
 236:lib_DS1307/DS1307.c ****     }
 237:lib_DS1307/DS1307.c ****     else 
 238:lib_DS1307/DS1307.c ****     {
 239:lib_DS1307/DS1307.c ****         DS1307_currentTimeDate.hours = (uint32_t)(data[DS1307_HOUR_ADRESS]& DS1307_HOUR_MASK) + (((
 243              		.loc 1 239 0
 244 0138 3B1C     		mov	r3, r7
 245 013a 9B78     		ldrb	r3, [r3, #2]
 246 013c 0F22     		mov	r2, #15
 247 013e 1340     		and	r3, r2
 248 0140 DAB2     		uxtb	r2, r3
 249 0142 3B1C     		mov	r3, r7
 250 0144 9B78     		ldrb	r3, [r3, #2]
 251 0146 191C     		mov	r1, r3
 252 0148 3023     		mov	r3, #48
 253 014a 0B40     		and	r3, r1
 254 014c 1B11     		asr	r3, r3, #4
 255 014e DBB2     		uxtb	r3, r3
 256 0150 191C     		add	r1, r3, #0
 257 0152 8900     		lsl	r1, r1, #2
 258 0154 CB18     		add	r3, r1, r3
 259 0156 DB18     		add	r3, r3, r3
 260 0158 DBB2     		uxtb	r3, r3
 261 015a D318     		add	r3, r2, r3
 262 015c DAB2     		uxtb	r2, r3
 263 015e 264B     		ldr	r3, .L14
 264 0160 9A70     		strb	r2, [r3, #2]
 265              	.L11:
 240:lib_DS1307/DS1307.c ****     }
 241:lib_DS1307/DS1307.c ****     DS1307_currentTimeDate.day = data[DS1307_DAY_ADRESS]&DS1307_DAY_MASK;
 266              		.loc 1 241 0
 267 0162 3B1C     		mov	r3, r7
 268 0164 DB78     		ldrb	r3, [r3, #3]
 269 0166 0722     		mov	r2, #7
ARM GAS  C:\Users\Petro\AppData\Local\Temp\ccPzTkZo.s 			page 10


 270 0168 1340     		and	r3, r2
 271 016a DAB2     		uxtb	r2, r3
 272 016c 224B     		ldr	r3, .L14
 273 016e 5A71     		strb	r2, [r3, #5]
 242:lib_DS1307/DS1307.c ****     DS1307_currentTimeDate.date = (data[DS1307_DATE_ADRESS]&DS1307_DATE_MASK) + (((data[DS1307_DATE
 274              		.loc 1 242 0
 275 0170 3B1C     		mov	r3, r7
 276 0172 1B79     		ldrb	r3, [r3, #4]
 277 0174 0F22     		mov	r2, #15
 278 0176 1340     		and	r3, r2
 279 0178 DAB2     		uxtb	r2, r3
 280 017a 3B1C     		mov	r3, r7
 281 017c 1B79     		ldrb	r3, [r3, #4]
 282 017e 191C     		mov	r1, r3
 283 0180 3023     		mov	r3, #48
 284 0182 0B40     		and	r3, r1
 285 0184 1B11     		asr	r3, r3, #4
 286 0186 DBB2     		uxtb	r3, r3
 287 0188 191C     		add	r1, r3, #0
 288 018a 8900     		lsl	r1, r1, #2
 289 018c CB18     		add	r3, r1, r3
 290 018e DB18     		add	r3, r3, r3
 291 0190 DBB2     		uxtb	r3, r3
 292 0192 D318     		add	r3, r2, r3
 293 0194 DAB2     		uxtb	r2, r3
 294 0196 184B     		ldr	r3, .L14
 295 0198 9A71     		strb	r2, [r3, #6]
 243:lib_DS1307/DS1307.c ****     DS1307_currentTimeDate.month  = (data[DS1307_MONTH_ADRESS]&DS1307_MONTH_MASK) + (((data[DS1307_
 296              		.loc 1 243 0
 297 019a 3B1C     		mov	r3, r7
 298 019c 5B79     		ldrb	r3, [r3, #5]
 299 019e 0F22     		mov	r2, #15
 300 01a0 1340     		and	r3, r2
 301 01a2 DAB2     		uxtb	r2, r3
 302 01a4 3B1C     		mov	r3, r7
 303 01a6 5B79     		ldrb	r3, [r3, #5]
 304 01a8 191C     		mov	r1, r3
 305 01aa 1023     		mov	r3, #16
 306 01ac 0B40     		and	r3, r1
 307 01ae 1B11     		asr	r3, r3, #4
 308 01b0 DBB2     		uxtb	r3, r3
 309 01b2 191C     		add	r1, r3, #0
 310 01b4 8900     		lsl	r1, r1, #2
 311 01b6 CB18     		add	r3, r1, r3
 312 01b8 DB18     		add	r3, r3, r3
 313 01ba DBB2     		uxtb	r3, r3
 314 01bc D318     		add	r3, r2, r3
 315 01be DAB2     		uxtb	r2, r3
 316 01c0 0D4B     		ldr	r3, .L14
 317 01c2 DA71     		strb	r2, [r3, #7]
 244:lib_DS1307/DS1307.c ****     DS1307_currentTimeDate.year = (data[DS1307_YEAR_ADRESS]&DS1307_YEAR_MASK) + (((data[DS1307_YEAR
 318              		.loc 1 244 0
 319 01c4 3B1C     		mov	r3, r7
 320 01c6 9B79     		ldrb	r3, [r3, #6]
 321 01c8 9BB2     		uxth	r3, r3
 322 01ca 0F22     		mov	r2, #15
 323 01cc 1340     		and	r3, r2
ARM GAS  C:\Users\Petro\AppData\Local\Temp\ccPzTkZo.s 			page 11


 324 01ce 9AB2     		uxth	r2, r3
 325 01d0 3B1C     		mov	r3, r7
 326 01d2 9B79     		ldrb	r3, [r3, #6]
 327 01d4 1B09     		lsr	r3, r3, #4
 328 01d6 DBB2     		uxtb	r3, r3
 329 01d8 9BB2     		uxth	r3, r3
 330 01da 191C     		add	r1, r3, #0
 331 01dc 8900     		lsl	r1, r1, #2
 332 01de CB18     		add	r3, r1, r3
 333 01e0 DB18     		add	r3, r3, r3
 334 01e2 9BB2     		uxth	r3, r3
 335 01e4 D318     		add	r3, r2, r3
 336 01e6 9AB2     		uxth	r2, r3
 337 01e8 034B     		ldr	r3, .L14
 338 01ea 1A81     		strh	r2, [r3, #8]
 245:lib_DS1307/DS1307.c ****     
 246:lib_DS1307/DS1307.c ****     return I2C_I2C_MSTR_NO_ERROR;
 339              		.loc 1 246 0
 340 01ec 0023     		mov	r3, #0
 341              	.L12:
 247:lib_DS1307/DS1307.c **** }
 342              		.loc 1 247 0 discriminator 1
 343 01ee 181C     		mov	r0, r3
 344 01f0 BD46     		mov	sp, r7
 345 01f2 04B0     		add	sp, sp, #16
 346              		@ sp needed
 347 01f4 80BD     		pop	{r7, pc}
 348              	.L15:
 349 01f6 C046     		.align	2
 350              	.L14:
 351 01f8 00000000 		.word	DS1307_currentTimeDate
 352              		.cfi_endproc
 353              	.LFE2:
 354              		.size	DS1307_ReadTimeToStruct, .-DS1307_ReadTimeToStruct
 355              		.global	__aeabi_uidiv
 356              		.global	__aeabi_uidivmod
 357              		.section	.text.DS1307_WriteTimeFromStruct,"ax",%progbits
 358              		.align	2
 359              		.code	16
 360              		.thumb_func
 361              		.type	DS1307_WriteTimeFromStruct, %function
 362              	DS1307_WriteTimeFromStruct:
 363              	.LFB3:
 248:lib_DS1307/DS1307.c **** 
 249:lib_DS1307/DS1307.c **** 
 250:lib_DS1307/DS1307.c **** /*******************************************************************************
 251:lib_DS1307/DS1307.c **** * Function Name: DS1307_WriteTimeFromStruct
 252:lib_DS1307/DS1307.c **** ********************************************************************************
 253:lib_DS1307/DS1307.c **** *
 254:lib_DS1307/DS1307.c **** * Summary:
 255:lib_DS1307/DS1307.c **** *   write time in chip DS1307
 256:lib_DS1307/DS1307.c **** *
 257:lib_DS1307/DS1307.c **** *******************************************************************************/
 258:lib_DS1307/DS1307.c **** static void DS1307_WriteTimeFromStruct(void)
 259:lib_DS1307/DS1307.c **** {
 364              		.loc 1 259 0
 365              		.cfi_startproc
ARM GAS  C:\Users\Petro\AppData\Local\Temp\ccPzTkZo.s 			page 12


 366 0000 90B5     		push	{r4, r7, lr}
 367              		.cfi_def_cfa_offset 12
 368              		.cfi_offset 4, -12
 369              		.cfi_offset 7, -8
 370              		.cfi_offset 14, -4
 371 0002 85B0     		sub	sp, sp, #20
 372              		.cfi_def_cfa_offset 32
 373 0004 00AF     		add	r7, sp, #0
 374              		.cfi_def_cfa_register 7
 260:lib_DS1307/DS1307.c ****     uint32_t status;
 261:lib_DS1307/DS1307.c ****     int i;
 262:lib_DS1307/DS1307.c ****     uint8_t data[DS1307_NUMBER_OF_BYTES] ;
 263:lib_DS1307/DS1307.c ****     
 264:lib_DS1307/DS1307.c ****     /*write data from buffer*/
 265:lib_DS1307/DS1307.c ****     data[DS1307_SEC_ADRESS] = ((DS1307_currentTimeDate.second/10)<<4) + (DS1307_currentTimeDate.sec
 375              		.loc 1 265 0
 376 0006 7A4B     		ldr	r3, .L23
 377 0008 1B78     		ldrb	r3, [r3]
 378 000a 181C     		mov	r0, r3
 379 000c 0A21     		mov	r1, #10
 380 000e FFF7FEFF 		bl	__aeabi_uidiv
 381 0012 031C     		mov	r3, r0
 382 0014 DBB2     		uxtb	r3, r3
 383 0016 1B01     		lsl	r3, r3, #4
 384 0018 DCB2     		uxtb	r4, r3
 385 001a 754B     		ldr	r3, .L23
 386 001c 1B78     		ldrb	r3, [r3]
 387 001e 181C     		mov	r0, r3
 388 0020 0A21     		mov	r1, #10
 389 0022 FFF7FEFF 		bl	__aeabi_uidivmod
 390 0026 0B1C     		mov	r3, r1
 391 0028 DBB2     		uxtb	r3, r3
 392 002a E318     		add	r3, r4, r3
 393 002c DAB2     		uxtb	r2, r3
 394 002e 3B1C     		mov	r3, r7
 395 0030 1A70     		strb	r2, [r3]
 266:lib_DS1307/DS1307.c ****     data[DS1307_MIN_ADRESS] = ((DS1307_currentTimeDate.minutes/10)<<4) + (DS1307_currentTimeDate.mi
 396              		.loc 1 266 0
 397 0032 6F4B     		ldr	r3, .L23
 398 0034 5B78     		ldrb	r3, [r3, #1]
 399 0036 181C     		mov	r0, r3
 400 0038 0A21     		mov	r1, #10
 401 003a FFF7FEFF 		bl	__aeabi_uidiv
 402 003e 031C     		mov	r3, r0
 403 0040 DBB2     		uxtb	r3, r3
 404 0042 1B01     		lsl	r3, r3, #4
 405 0044 DCB2     		uxtb	r4, r3
 406 0046 6A4B     		ldr	r3, .L23
 407 0048 5B78     		ldrb	r3, [r3, #1]
 408 004a 181C     		mov	r0, r3
 409 004c 0A21     		mov	r1, #10
 410 004e FFF7FEFF 		bl	__aeabi_uidivmod
 411 0052 0B1C     		mov	r3, r1
 412 0054 DBB2     		uxtb	r3, r3
 413 0056 E318     		add	r3, r4, r3
 414 0058 DAB2     		uxtb	r2, r3
 415 005a 3B1C     		mov	r3, r7
ARM GAS  C:\Users\Petro\AppData\Local\Temp\ccPzTkZo.s 			page 13


 416 005c 5A70     		strb	r2, [r3, #1]
 267:lib_DS1307/DS1307.c ****     if(DS1307_currentTimeDate.timeFormat == DS1307_12TIME_FORMAT)
 417              		.loc 1 267 0
 418 005e 644B     		ldr	r3, .L23
 419 0060 DB78     		ldrb	r3, [r3, #3]
 420 0062 012B     		cmp	r3, #1
 421 0064 2ED1     		bne	.L17
 268:lib_DS1307/DS1307.c ****     {
 269:lib_DS1307/DS1307.c ****         data[DS1307_HOUR_ADRESS] = ((DS1307_currentTimeDate.hours/10)<<4) + (DS1307_currentTimeDate
 422              		.loc 1 269 0
 423 0066 624B     		ldr	r3, .L23
 424 0068 9B78     		ldrb	r3, [r3, #2]
 425 006a 181C     		mov	r0, r3
 426 006c 0A21     		mov	r1, #10
 427 006e FFF7FEFF 		bl	__aeabi_uidiv
 428 0072 031C     		mov	r3, r0
 429 0074 DBB2     		uxtb	r3, r3
 430 0076 1B01     		lsl	r3, r3, #4
 431 0078 DCB2     		uxtb	r4, r3
 432 007a 5D4B     		ldr	r3, .L23
 433 007c 9B78     		ldrb	r3, [r3, #2]
 434 007e 181C     		mov	r0, r3
 435 0080 0A21     		mov	r1, #10
 436 0082 FFF7FEFF 		bl	__aeabi_uidivmod
 437 0086 0B1C     		mov	r3, r1
 438 0088 DBB2     		uxtb	r3, r3
 439 008a E318     		add	r3, r4, r3
 440 008c DAB2     		uxtb	r2, r3
 441 008e 3B1C     		mov	r3, r7
 442 0090 9A70     		strb	r2, [r3, #2]
 270:lib_DS1307/DS1307.c ****         data[DS1307_HOUR_ADRESS] |= (DS1307_currentTimeDate.AmRm << 5);
 443              		.loc 1 270 0
 444 0092 3B1C     		mov	r3, r7
 445 0094 9B78     		ldrb	r3, [r3, #2]
 446 0096 DAB2     		uxtb	r2, r3
 447 0098 554B     		ldr	r3, .L23
 448 009a 1B79     		ldrb	r3, [r3, #4]
 449 009c 5B01     		lsl	r3, r3, #5
 450 009e DBB2     		uxtb	r3, r3
 451 00a0 1343     		orr	r3, r2
 452 00a2 DBB2     		uxtb	r3, r3
 453 00a4 DAB2     		uxtb	r2, r3
 454 00a6 3B1C     		mov	r3, r7
 455 00a8 9A70     		strb	r2, [r3, #2]
 271:lib_DS1307/DS1307.c ****         data[DS1307_HOUR_ADRESS] |= (DS1307_currentTimeDate.timeFormat << 6);
 456              		.loc 1 271 0
 457 00aa 3B1C     		mov	r3, r7
 458 00ac 9B78     		ldrb	r3, [r3, #2]
 459 00ae DAB2     		uxtb	r2, r3
 460 00b0 4F4B     		ldr	r3, .L23
 461 00b2 DB78     		ldrb	r3, [r3, #3]
 462 00b4 9B01     		lsl	r3, r3, #6
 463 00b6 DBB2     		uxtb	r3, r3
 464 00b8 1343     		orr	r3, r2
 465 00ba DBB2     		uxtb	r3, r3
 466 00bc DAB2     		uxtb	r2, r3
 467 00be 3B1C     		mov	r3, r7
ARM GAS  C:\Users\Petro\AppData\Local\Temp\ccPzTkZo.s 			page 14


 468 00c0 9A70     		strb	r2, [r3, #2]
 469 00c2 21E0     		b	.L18
 470              	.L17:
 272:lib_DS1307/DS1307.c ****     }
 273:lib_DS1307/DS1307.c ****     else
 274:lib_DS1307/DS1307.c ****     {
 275:lib_DS1307/DS1307.c ****         data[DS1307_HOUR_ADRESS] = ((DS1307_currentTimeDate.hours/10)<<4) + (DS1307_currentTimeDate
 471              		.loc 1 275 0
 472 00c4 4A4B     		ldr	r3, .L23
 473 00c6 9B78     		ldrb	r3, [r3, #2]
 474 00c8 181C     		mov	r0, r3
 475 00ca 0A21     		mov	r1, #10
 476 00cc FFF7FEFF 		bl	__aeabi_uidiv
 477 00d0 031C     		mov	r3, r0
 478 00d2 DBB2     		uxtb	r3, r3
 479 00d4 1B01     		lsl	r3, r3, #4
 480 00d6 DCB2     		uxtb	r4, r3
 481 00d8 454B     		ldr	r3, .L23
 482 00da 9B78     		ldrb	r3, [r3, #2]
 483 00dc 181C     		mov	r0, r3
 484 00de 0A21     		mov	r1, #10
 485 00e0 FFF7FEFF 		bl	__aeabi_uidivmod
 486 00e4 0B1C     		mov	r3, r1
 487 00e6 DBB2     		uxtb	r3, r3
 488 00e8 E318     		add	r3, r4, r3
 489 00ea DAB2     		uxtb	r2, r3
 490 00ec 3B1C     		mov	r3, r7
 491 00ee 9A70     		strb	r2, [r3, #2]
 276:lib_DS1307/DS1307.c ****         data[DS1307_HOUR_ADRESS] |= (DS1307_currentTimeDate.timeFormat << 6);
 492              		.loc 1 276 0
 493 00f0 3B1C     		mov	r3, r7
 494 00f2 9B78     		ldrb	r3, [r3, #2]
 495 00f4 DAB2     		uxtb	r2, r3
 496 00f6 3E4B     		ldr	r3, .L23
 497 00f8 DB78     		ldrb	r3, [r3, #3]
 498 00fa 9B01     		lsl	r3, r3, #6
 499 00fc DBB2     		uxtb	r3, r3
 500 00fe 1343     		orr	r3, r2
 501 0100 DBB2     		uxtb	r3, r3
 502 0102 DAB2     		uxtb	r2, r3
 503 0104 3B1C     		mov	r3, r7
 504 0106 9A70     		strb	r2, [r3, #2]
 505              	.L18:
 277:lib_DS1307/DS1307.c ****     }
 278:lib_DS1307/DS1307.c ****     data[DS1307_DAY_ADRESS] = DS1307_currentTimeDate.day;
 506              		.loc 1 278 0
 507 0108 394B     		ldr	r3, .L23
 508 010a 5A79     		ldrb	r2, [r3, #5]
 509 010c 3B1C     		mov	r3, r7
 510 010e DA70     		strb	r2, [r3, #3]
 279:lib_DS1307/DS1307.c ****     data[DS1307_DATE_ADRESS] = ((DS1307_currentTimeDate.date/10)<<4) + (DS1307_currentTimeDate.date
 511              		.loc 1 279 0
 512 0110 374B     		ldr	r3, .L23
 513 0112 9B79     		ldrb	r3, [r3, #6]
 514 0114 181C     		mov	r0, r3
 515 0116 0A21     		mov	r1, #10
 516 0118 FFF7FEFF 		bl	__aeabi_uidiv
ARM GAS  C:\Users\Petro\AppData\Local\Temp\ccPzTkZo.s 			page 15


 517 011c 031C     		mov	r3, r0
 518 011e DBB2     		uxtb	r3, r3
 519 0120 1B01     		lsl	r3, r3, #4
 520 0122 DCB2     		uxtb	r4, r3
 521 0124 324B     		ldr	r3, .L23
 522 0126 9B79     		ldrb	r3, [r3, #6]
 523 0128 181C     		mov	r0, r3
 524 012a 0A21     		mov	r1, #10
 525 012c FFF7FEFF 		bl	__aeabi_uidivmod
 526 0130 0B1C     		mov	r3, r1
 527 0132 DBB2     		uxtb	r3, r3
 528 0134 E318     		add	r3, r4, r3
 529 0136 DAB2     		uxtb	r2, r3
 530 0138 3B1C     		mov	r3, r7
 531 013a 1A71     		strb	r2, [r3, #4]
 280:lib_DS1307/DS1307.c ****     data[DS1307_MONTH_ADRESS] = ((DS1307_currentTimeDate.month/10)<<4) + (DS1307_currentTimeDate.mo
 532              		.loc 1 280 0
 533 013c 2C4B     		ldr	r3, .L23
 534 013e DB79     		ldrb	r3, [r3, #7]
 535 0140 181C     		mov	r0, r3
 536 0142 0A21     		mov	r1, #10
 537 0144 FFF7FEFF 		bl	__aeabi_uidiv
 538 0148 031C     		mov	r3, r0
 539 014a DBB2     		uxtb	r3, r3
 540 014c 1B01     		lsl	r3, r3, #4
 541 014e DCB2     		uxtb	r4, r3
 542 0150 274B     		ldr	r3, .L23
 543 0152 DB79     		ldrb	r3, [r3, #7]
 544 0154 181C     		mov	r0, r3
 545 0156 0A21     		mov	r1, #10
 546 0158 FFF7FEFF 		bl	__aeabi_uidivmod
 547 015c 0B1C     		mov	r3, r1
 548 015e DBB2     		uxtb	r3, r3
 549 0160 E318     		add	r3, r4, r3
 550 0162 DAB2     		uxtb	r2, r3
 551 0164 3B1C     		mov	r3, r7
 552 0166 5A71     		strb	r2, [r3, #5]
 281:lib_DS1307/DS1307.c ****     data[DS1307_YEAR_ADRESS] = ((DS1307_currentTimeDate.year/10)<<4) + (DS1307_currentTimeDate.year
 553              		.loc 1 281 0
 554 0168 214B     		ldr	r3, .L23
 555 016a 1B89     		ldrh	r3, [r3, #8]
 556 016c 181C     		mov	r0, r3
 557 016e 0A21     		mov	r1, #10
 558 0170 FFF7FEFF 		bl	__aeabi_uidiv
 559 0174 031C     		mov	r3, r0
 560 0176 9BB2     		uxth	r3, r3
 561 0178 DBB2     		uxtb	r3, r3
 562 017a 1B01     		lsl	r3, r3, #4
 563 017c DCB2     		uxtb	r4, r3
 564 017e 1C4B     		ldr	r3, .L23
 565 0180 1B89     		ldrh	r3, [r3, #8]
 566 0182 181C     		mov	r0, r3
 567 0184 0A21     		mov	r1, #10
 568 0186 FFF7FEFF 		bl	__aeabi_uidivmod
 569 018a 0B1C     		mov	r3, r1
 570 018c 9BB2     		uxth	r3, r3
 571 018e DBB2     		uxtb	r3, r3
ARM GAS  C:\Users\Petro\AppData\Local\Temp\ccPzTkZo.s 			page 16


 572 0190 E318     		add	r3, r4, r3
 573 0192 DAB2     		uxtb	r2, r3
 574 0194 3B1C     		mov	r3, r7
 575 0196 9A71     		strb	r2, [r3, #6]
 282:lib_DS1307/DS1307.c ****     
 283:lib_DS1307/DS1307.c ****     /*write data on DS1307*/
 284:lib_DS1307/DS1307.c ****     I2C_Start();
 576              		.loc 1 284 0
 577 0198 FFF7FEFF 		bl	I2C_Start
 285:lib_DS1307/DS1307.c ****     I2C_I2CMasterClearStatus();
 578              		.loc 1 285 0
 579 019c FFF7FEFF 		bl	I2C_I2CMasterClearStatus
 286:lib_DS1307/DS1307.c ****     status = I2C_I2CMasterSendStart(DS1307_SLAVE_ADRESS, I2C_I2C_WRITE_XFER_MODE);
 580              		.loc 1 286 0
 581 01a0 6820     		mov	r0, #104
 582 01a2 0021     		mov	r1, #0
 583 01a4 FFF7FEFF 		bl	I2C_I2CMasterSendStart
 584 01a8 031C     		mov	r3, r0
 585 01aa BB60     		str	r3, [r7, #8]
 287:lib_DS1307/DS1307.c ****     I2C_I2CMasterWriteByte(DS1307_NULL_ADRESS);
 586              		.loc 1 287 0
 587 01ac 0020     		mov	r0, #0
 588 01ae FFF7FEFF 		bl	I2C_I2CMasterWriteByte
 288:lib_DS1307/DS1307.c ****     if(I2C_I2C_MSTR_NO_ERROR == status) 
 589              		.loc 1 288 0
 590 01b2 BB68     		ldr	r3, [r7, #8]
 591 01b4 002B     		cmp	r3, #0
 592 01b6 15D1     		bne	.L19
 289:lib_DS1307/DS1307.c ****     {
 290:lib_DS1307/DS1307.c ****         for(i=0; i < DS1307_NUMBER_OF_BYTES; i++)
 593              		.loc 1 290 0
 594 01b8 0023     		mov	r3, #0
 595 01ba FB60     		str	r3, [r7, #12]
 596 01bc 0FE0     		b	.L20
 597              	.L22:
 291:lib_DS1307/DS1307.c ****         {
 292:lib_DS1307/DS1307.c ****             status = I2C_I2CMasterWriteByte(data[i]);
 598              		.loc 1 292 0
 599 01be 3A1C     		mov	r2, r7
 600 01c0 FB68     		ldr	r3, [r7, #12]
 601 01c2 D318     		add	r3, r2, r3
 602 01c4 1B78     		ldrb	r3, [r3]
 603 01c6 181C     		mov	r0, r3
 604 01c8 FFF7FEFF 		bl	I2C_I2CMasterWriteByte
 605 01cc 031C     		mov	r3, r0
 606 01ce BB60     		str	r3, [r7, #8]
 293:lib_DS1307/DS1307.c ****             if(I2C_I2C_MSTR_NO_ERROR != status)
 607              		.loc 1 293 0
 608 01d0 BB68     		ldr	r3, [r7, #8]
 609 01d2 002B     		cmp	r3, #0
 610 01d4 00D0     		beq	.L21
 294:lib_DS1307/DS1307.c ****             {
 295:lib_DS1307/DS1307.c ****                 break;
 611              		.loc 1 295 0
 612 01d6 05E0     		b	.L19
 613              	.L21:
 290:lib_DS1307/DS1307.c ****         {
ARM GAS  C:\Users\Petro\AppData\Local\Temp\ccPzTkZo.s 			page 17


 614              		.loc 1 290 0 discriminator 2
 615 01d8 FB68     		ldr	r3, [r7, #12]
 616 01da 0133     		add	r3, r3, #1
 617 01dc FB60     		str	r3, [r7, #12]
 618              	.L20:
 290:lib_DS1307/DS1307.c ****         {
 619              		.loc 1 290 0 is_stmt 0 discriminator 1
 620 01de FB68     		ldr	r3, [r7, #12]
 621 01e0 062B     		cmp	r3, #6
 622 01e2 ECDD     		ble	.L22
 623              	.L19:
 296:lib_DS1307/DS1307.c ****             }
 297:lib_DS1307/DS1307.c ****         }
 298:lib_DS1307/DS1307.c ****     }
 299:lib_DS1307/DS1307.c ****     I2C_I2CMasterSendStop();    
 624              		.loc 1 299 0 is_stmt 1
 625 01e4 FFF7FEFF 		bl	I2C_I2CMasterSendStop
 300:lib_DS1307/DS1307.c **** }
 626              		.loc 1 300 0
 627 01e8 BD46     		mov	sp, r7
 628 01ea 05B0     		add	sp, sp, #20
 629              		@ sp needed
 630 01ec 90BD     		pop	{r4, r7, pc}
 631              	.L24:
 632 01ee C046     		.align	2
 633              	.L23:
 634 01f0 00000000 		.word	DS1307_currentTimeDate
 635              		.cfi_endproc
 636              	.LFE3:
 637              		.size	DS1307_WriteTimeFromStruct, .-DS1307_WriteTimeFromStruct
 638              		.section	.text.DS1307_ConstructTime,"ax",%progbits
 639              		.align	2
 640              		.code	16
 641              		.thumb_func
 642              		.type	DS1307_ConstructTime, %function
 643              	DS1307_ConstructTime:
 644              	.LFB4:
 301:lib_DS1307/DS1307.c **** 
 302:lib_DS1307/DS1307.c **** /*******************************************************************************
 303:lib_DS1307/DS1307.c **** * Function Name: DS1307_ConstructTime
 304:lib_DS1307/DS1307.c **** ********************************************************************************
 305:lib_DS1307/DS1307.c **** *
 306:lib_DS1307/DS1307.c **** * Summary:
 307:lib_DS1307/DS1307.c **** *   Returns the time in the format used in APIs from individual elements passed (hour, min, sec etc
 308:lib_DS1307/DS1307.c **** * Parametrs:
 309:lib_DS1307/DS1307.c **** *   timeFormat - DS1307_12TIME_FORMAT or DS1307_24TIME_FORMAT
 310:lib_DS1307/DS1307.c **** *   stateAmRm - DS1307_PM or DS1307_AM
 311:lib_DS1307/DS1307.c **** *   hour, min, sec - time
 312:lib_DS1307/DS1307.c **** *
 313:lib_DS1307/DS1307.c **** *******************************************************************************/
 314:lib_DS1307/DS1307.c **** static uint32_t DS1307_ConstructTime(uint32 timeFormat, uint32 stateAmPm, uint32 hour, uint32 min, 
 315:lib_DS1307/DS1307.c **** {
 645              		.loc 1 315 0
 646              		.cfi_startproc
 647 0000 80B5     		push	{r7, lr}
 648              		.cfi_def_cfa_offset 8
 649              		.cfi_offset 7, -8
ARM GAS  C:\Users\Petro\AppData\Local\Temp\ccPzTkZo.s 			page 18


 650              		.cfi_offset 14, -4
 651 0002 86B0     		sub	sp, sp, #24
 652              		.cfi_def_cfa_offset 32
 653 0004 00AF     		add	r7, sp, #0
 654              		.cfi_def_cfa_register 7
 655 0006 F860     		str	r0, [r7, #12]
 656 0008 B960     		str	r1, [r7, #8]
 657 000a 7A60     		str	r2, [r7, #4]
 658 000c 3B60     		str	r3, [r7]
 316:lib_DS1307/DS1307.c ****     uint32 retVal;
 317:lib_DS1307/DS1307.c ****     stateAmPm = stateAmPm;
 318:lib_DS1307/DS1307.c ****     timeFormat = timeFormat;
 319:lib_DS1307/DS1307.c ****     
 320:lib_DS1307/DS1307.c ****     retVal  = timeFormat << DS1307_TIME_FORMAT_OFFSET;
 659              		.loc 1 320 0
 660 000e FB68     		ldr	r3, [r7, #12]
 661 0010 DB05     		lsl	r3, r3, #23
 662 0012 7B61     		str	r3, [r7, #20]
 321:lib_DS1307/DS1307.c ****     retVal |= stateAmPm << DS1307_PERIOD_OF_DAY_OFFSET;
 663              		.loc 1 321 0
 664 0014 BB68     		ldr	r3, [r7, #8]
 665 0016 9B05     		lsl	r3, r3, #22
 666 0018 7A69     		ldr	r2, [r7, #20]
 667 001a 1343     		orr	r3, r2
 668 001c 7B61     		str	r3, [r7, #20]
 322:lib_DS1307/DS1307.c **** 
 323:lib_DS1307/DS1307.c ****     retVal |= (hour / 10u) << DS1307_10_HOURS_OFFSET;
 669              		.loc 1 323 0
 670 001e 7B68     		ldr	r3, [r7, #4]
 671 0020 181C     		mov	r0, r3
 672 0022 0A21     		mov	r1, #10
 673 0024 FFF7FEFF 		bl	__aeabi_uidiv
 674 0028 031C     		mov	r3, r0
 675 002a 1B05     		lsl	r3, r3, #20
 676 002c 7A69     		ldr	r2, [r7, #20]
 677 002e 1343     		orr	r3, r2
 678 0030 7B61     		str	r3, [r7, #20]
 324:lib_DS1307/DS1307.c ****     retVal |= (hour % 10u) << DS1307_HOURS_OFFSET;
 679              		.loc 1 324 0
 680 0032 7B68     		ldr	r3, [r7, #4]
 681 0034 181C     		mov	r0, r3
 682 0036 0A21     		mov	r1, #10
 683 0038 FFF7FEFF 		bl	__aeabi_uidivmod
 684 003c 0B1C     		mov	r3, r1
 685 003e 1B04     		lsl	r3, r3, #16
 686 0040 7A69     		ldr	r2, [r7, #20]
 687 0042 1343     		orr	r3, r2
 688 0044 7B61     		str	r3, [r7, #20]
 325:lib_DS1307/DS1307.c **** 
 326:lib_DS1307/DS1307.c ****     retVal |= (min / 10u) << DS1307_10_MINUTES_OFFSET;
 689              		.loc 1 326 0
 690 0046 3B68     		ldr	r3, [r7]
 691 0048 181C     		mov	r0, r3
 692 004a 0A21     		mov	r1, #10
 693 004c FFF7FEFF 		bl	__aeabi_uidiv
 694 0050 031C     		mov	r3, r0
 695 0052 1B03     		lsl	r3, r3, #12
ARM GAS  C:\Users\Petro\AppData\Local\Temp\ccPzTkZo.s 			page 19


 696 0054 7A69     		ldr	r2, [r7, #20]
 697 0056 1343     		orr	r3, r2
 698 0058 7B61     		str	r3, [r7, #20]
 327:lib_DS1307/DS1307.c ****     retVal |= (min % 10u) << DS1307_MINUTES_OFFSET;
 699              		.loc 1 327 0
 700 005a 3B68     		ldr	r3, [r7]
 701 005c 181C     		mov	r0, r3
 702 005e 0A21     		mov	r1, #10
 703 0060 FFF7FEFF 		bl	__aeabi_uidivmod
 704 0064 0B1C     		mov	r3, r1
 705 0066 1B02     		lsl	r3, r3, #8
 706 0068 7A69     		ldr	r2, [r7, #20]
 707 006a 1343     		orr	r3, r2
 708 006c 7B61     		str	r3, [r7, #20]
 328:lib_DS1307/DS1307.c **** 
 329:lib_DS1307/DS1307.c ****     retVal |= (sec / 10u) << DS1307_10_SECONDS_OFFSET;
 709              		.loc 1 329 0
 710 006e 3B6A     		ldr	r3, [r7, #32]
 711 0070 181C     		mov	r0, r3
 712 0072 0A21     		mov	r1, #10
 713 0074 FFF7FEFF 		bl	__aeabi_uidiv
 714 0078 031C     		mov	r3, r0
 715 007a 1B01     		lsl	r3, r3, #4
 716 007c 7A69     		ldr	r2, [r7, #20]
 717 007e 1343     		orr	r3, r2
 718 0080 7B61     		str	r3, [r7, #20]
 330:lib_DS1307/DS1307.c ****     retVal |= (sec % 10u) << DS1307_SECONDS_OFFSET;
 719              		.loc 1 330 0
 720 0082 3B6A     		ldr	r3, [r7, #32]
 721 0084 181C     		mov	r0, r3
 722 0086 0A21     		mov	r1, #10
 723 0088 FFF7FEFF 		bl	__aeabi_uidivmod
 724 008c 0B1C     		mov	r3, r1
 725 008e 1A1C     		mov	r2, r3
 726 0090 7B69     		ldr	r3, [r7, #20]
 727 0092 1343     		orr	r3, r2
 728 0094 7B61     		str	r3, [r7, #20]
 331:lib_DS1307/DS1307.c **** 
 332:lib_DS1307/DS1307.c ****     return (retVal);
 729              		.loc 1 332 0
 730 0096 7B69     		ldr	r3, [r7, #20]
 333:lib_DS1307/DS1307.c **** }
 731              		.loc 1 333 0
 732 0098 181C     		mov	r0, r3
 733 009a BD46     		mov	sp, r7
 734 009c 06B0     		add	sp, sp, #24
 735              		@ sp needed
 736 009e 80BD     		pop	{r7, pc}
 737              		.cfi_endproc
 738              	.LFE4:
 739              		.size	DS1307_ConstructTime, .-DS1307_ConstructTime
 740              		.section	.text.DS1307_ConstructDate,"ax",%progbits
 741              		.align	2
 742              		.code	16
 743              		.thumb_func
 744              		.type	DS1307_ConstructDate, %function
 745              	DS1307_ConstructDate:
ARM GAS  C:\Users\Petro\AppData\Local\Temp\ccPzTkZo.s 			page 20


 746              	.LFB5:
 334:lib_DS1307/DS1307.c **** 
 335:lib_DS1307/DS1307.c **** /*******************************************************************************
 336:lib_DS1307/DS1307.c **** * Function Name: DS1307_ConstructDate
 337:lib_DS1307/DS1307.c **** ********************************************************************************
 338:lib_DS1307/DS1307.c **** *
 339:lib_DS1307/DS1307.c **** * Summary:
 340:lib_DS1307/DS1307.c **** *   Returns the date in the format used in APIs from individual elements passed 
 341:lib_DS1307/DS1307.c **** * Parametrs:
 342:lib_DS1307/DS1307.c **** *   month, day, year - date
 343:lib_DS1307/DS1307.c **** *
 344:lib_DS1307/DS1307.c **** *******************************************************************************/
 345:lib_DS1307/DS1307.c **** static uint32 DS1307_ConstructDate(uint32 month, uint32 day, uint32 year)
 346:lib_DS1307/DS1307.c **** {  
 747              		.loc 1 346 0
 748              		.cfi_startproc
 749 0000 80B5     		push	{r7, lr}
 750              		.cfi_def_cfa_offset 8
 751              		.cfi_offset 7, -8
 752              		.cfi_offset 14, -4
 753 0002 86B0     		sub	sp, sp, #24
 754              		.cfi_def_cfa_offset 32
 755 0004 00AF     		add	r7, sp, #0
 756              		.cfi_def_cfa_register 7
 757 0006 F860     		str	r0, [r7, #12]
 758 0008 B960     		str	r1, [r7, #8]
 759 000a 7A60     		str	r2, [r7, #4]
 347:lib_DS1307/DS1307.c ****     /*year in D1307 save ten (16 =>2016 year)*/
 348:lib_DS1307/DS1307.c ****     year +=2000;
 760              		.loc 1 348 0
 761 000c 7B68     		ldr	r3, [r7, #4]
 762 000e FA22     		mov	r2, #250
 763 0010 D200     		lsl	r2, r2, #3
 764 0012 9446     		mov	ip, r2
 765 0014 6344     		add	r3, r3, ip
 766 0016 7B60     		str	r3, [r7, #4]
 349:lib_DS1307/DS1307.c ****     uint32 retVal;
 350:lib_DS1307/DS1307.c ****     uint32 tmpVal = year;
 767              		.loc 1 350 0
 768 0018 7B68     		ldr	r3, [r7, #4]
 769 001a 7B61     		str	r3, [r7, #20]
 351:lib_DS1307/DS1307.c **** 
 352:lib_DS1307/DS1307.c ****     retVal  = (month / 10u) << DS1307_10_MONTH_OFFSET;
 770              		.loc 1 352 0
 771 001c FB68     		ldr	r3, [r7, #12]
 772 001e 181C     		mov	r0, r3
 773 0020 0A21     		mov	r1, #10
 774 0022 FFF7FEFF 		bl	__aeabi_uidiv
 775 0026 031C     		mov	r3, r0
 776 0028 1B07     		lsl	r3, r3, #28
 777 002a 3B61     		str	r3, [r7, #16]
 353:lib_DS1307/DS1307.c ****     retVal |= (month % 10u) << DS1307_MONTH_OFFSET;
 778              		.loc 1 353 0
 779 002c FB68     		ldr	r3, [r7, #12]
 780 002e 181C     		mov	r0, r3
 781 0030 0A21     		mov	r1, #10
 782 0032 FFF7FEFF 		bl	__aeabi_uidivmod
ARM GAS  C:\Users\Petro\AppData\Local\Temp\ccPzTkZo.s 			page 21


 783 0036 0B1C     		mov	r3, r1
 784 0038 1B06     		lsl	r3, r3, #24
 785 003a 3A69     		ldr	r2, [r7, #16]
 786 003c 1343     		orr	r3, r2
 787 003e 3B61     		str	r3, [r7, #16]
 354:lib_DS1307/DS1307.c **** 
 355:lib_DS1307/DS1307.c ****     retVal |= (day / 10u) << DS1307_10_DAY_OFFSET;
 788              		.loc 1 355 0
 789 0040 BB68     		ldr	r3, [r7, #8]
 790 0042 181C     		mov	r0, r3
 791 0044 0A21     		mov	r1, #10
 792 0046 FFF7FEFF 		bl	__aeabi_uidiv
 793 004a 031C     		mov	r3, r0
 794 004c 1B05     		lsl	r3, r3, #20
 795 004e 3A69     		ldr	r2, [r7, #16]
 796 0050 1343     		orr	r3, r2
 797 0052 3B61     		str	r3, [r7, #16]
 356:lib_DS1307/DS1307.c ****     retVal |= (day % 10u) << DS1307_DAY_OFFSET;
 798              		.loc 1 356 0
 799 0054 BB68     		ldr	r3, [r7, #8]
 800 0056 181C     		mov	r0, r3
 801 0058 0A21     		mov	r1, #10
 802 005a FFF7FEFF 		bl	__aeabi_uidivmod
 803 005e 0B1C     		mov	r3, r1
 804 0060 1B04     		lsl	r3, r3, #16
 805 0062 3A69     		ldr	r2, [r7, #16]
 806 0064 1343     		orr	r3, r2
 807 0066 3B61     		str	r3, [r7, #16]
 357:lib_DS1307/DS1307.c **** 
 358:lib_DS1307/DS1307.c ****     retVal |= (year / 1000u) << DS1307_1000_YEAR_OFFSET;
 808              		.loc 1 358 0
 809 0068 7B68     		ldr	r3, [r7, #4]
 810 006a 181C     		mov	r0, r3
 811 006c FA23     		mov	r3, #250
 812 006e 9900     		lsl	r1, r3, #2
 813 0070 FFF7FEFF 		bl	__aeabi_uidiv
 814 0074 031C     		mov	r3, r0
 815 0076 1B03     		lsl	r3, r3, #12
 816 0078 3A69     		ldr	r2, [r7, #16]
 817 007a 1343     		orr	r3, r2
 818 007c 3B61     		str	r3, [r7, #16]
 359:lib_DS1307/DS1307.c ****     tmpVal %= 1000u;
 819              		.loc 1 359 0
 820 007e 7B69     		ldr	r3, [r7, #20]
 821 0080 181C     		mov	r0, r3
 822 0082 FA23     		mov	r3, #250
 823 0084 9900     		lsl	r1, r3, #2
 824 0086 FFF7FEFF 		bl	__aeabi_uidivmod
 825 008a 0B1C     		mov	r3, r1
 826 008c 7B61     		str	r3, [r7, #20]
 360:lib_DS1307/DS1307.c **** 
 361:lib_DS1307/DS1307.c ****     retVal |= (tmpVal / 100u) << DS1307_100_YEAR_OFFSET;
 827              		.loc 1 361 0
 828 008e 7B69     		ldr	r3, [r7, #20]
 829 0090 181C     		mov	r0, r3
 830 0092 6421     		mov	r1, #100
 831 0094 FFF7FEFF 		bl	__aeabi_uidiv
ARM GAS  C:\Users\Petro\AppData\Local\Temp\ccPzTkZo.s 			page 22


 832 0098 031C     		mov	r3, r0
 833 009a 1B02     		lsl	r3, r3, #8
 834 009c 3A69     		ldr	r2, [r7, #16]
 835 009e 1343     		orr	r3, r2
 836 00a0 3B61     		str	r3, [r7, #16]
 362:lib_DS1307/DS1307.c ****     tmpVal %= 100u;
 837              		.loc 1 362 0
 838 00a2 7B69     		ldr	r3, [r7, #20]
 839 00a4 181C     		mov	r0, r3
 840 00a6 6421     		mov	r1, #100
 841 00a8 FFF7FEFF 		bl	__aeabi_uidivmod
 842 00ac 0B1C     		mov	r3, r1
 843 00ae 7B61     		str	r3, [r7, #20]
 363:lib_DS1307/DS1307.c **** 
 364:lib_DS1307/DS1307.c ****     retVal |= (tmpVal / 10u) << DS1307_10_YEAR_OFFSET;
 844              		.loc 1 364 0
 845 00b0 7B69     		ldr	r3, [r7, #20]
 846 00b2 181C     		mov	r0, r3
 847 00b4 0A21     		mov	r1, #10
 848 00b6 FFF7FEFF 		bl	__aeabi_uidiv
 849 00ba 031C     		mov	r3, r0
 850 00bc 1B01     		lsl	r3, r3, #4
 851 00be 3A69     		ldr	r2, [r7, #16]
 852 00c0 1343     		orr	r3, r2
 853 00c2 3B61     		str	r3, [r7, #16]
 365:lib_DS1307/DS1307.c ****     retVal |= (tmpVal % 10u) << DS1307_YEAR_OFFSET;
 854              		.loc 1 365 0
 855 00c4 7B69     		ldr	r3, [r7, #20]
 856 00c6 181C     		mov	r0, r3
 857 00c8 0A21     		mov	r1, #10
 858 00ca FFF7FEFF 		bl	__aeabi_uidivmod
 859 00ce 0B1C     		mov	r3, r1
 860 00d0 1A1C     		mov	r2, r3
 861 00d2 3B69     		ldr	r3, [r7, #16]
 862 00d4 1343     		orr	r3, r2
 863 00d6 3B61     		str	r3, [r7, #16]
 366:lib_DS1307/DS1307.c **** 
 367:lib_DS1307/DS1307.c ****     return (retVal);
 864              		.loc 1 367 0
 865 00d8 3B69     		ldr	r3, [r7, #16]
 368:lib_DS1307/DS1307.c **** }
 866              		.loc 1 368 0
 867 00da 181C     		mov	r0, r3
 868 00dc BD46     		mov	sp, r7
 869 00de 06B0     		add	sp, sp, #24
 870              		@ sp needed
 871 00e0 80BD     		pop	{r7, pc}
 872              		.cfi_endproc
 873              	.LFE5:
 874              		.size	DS1307_ConstructDate, .-DS1307_ConstructDate
 875 00e2 C046     		.section	.text.DS1307_DateTimeToUnix,"ax",%progbits
 876              		.align	2
 877              		.code	16
 878              		.thumb_func
 879              		.type	DS1307_DateTimeToUnix, %function
 880              	DS1307_DateTimeToUnix:
 881              	.LFB6:
ARM GAS  C:\Users\Petro\AppData\Local\Temp\ccPzTkZo.s 			page 23


 369:lib_DS1307/DS1307.c **** 
 370:lib_DS1307/DS1307.c **** 
 371:lib_DS1307/DS1307.c **** /*******************************************************************************
 372:lib_DS1307/DS1307.c **** * Function Name: DS1307_DateTimeToUnix
 373:lib_DS1307/DS1307.c **** ********************************************************************************
 374:lib_DS1307/DS1307.c **** *
 375:lib_DS1307/DS1307.c **** * Summary:
 376:lib_DS1307/DS1307.c **** *   convert the time in unix format
 377:lib_DS1307/DS1307.c **** * Parametrs:
 378:lib_DS1307/DS1307.c **** *   inoutDate, inoutTime - date and time 
 379:lib_DS1307/DS1307.c **** *
 380:lib_DS1307/DS1307.c **** *******************************************************************************/
 381:lib_DS1307/DS1307.c **** static uint64 DS1307_DateTimeToUnix(uint32 inputDate, uint32 inputTime)
 382:lib_DS1307/DS1307.c **** {
 882              		.loc 1 382 0
 883              		.cfi_startproc
 884 0000 F0B5     		push	{r4, r5, r6, r7, lr}
 885              		.cfi_def_cfa_offset 20
 886              		.cfi_offset 4, -20
 887              		.cfi_offset 5, -16
 888              		.cfi_offset 6, -12
 889              		.cfi_offset 7, -8
 890              		.cfi_offset 14, -4
 891 0002 97B0     		sub	sp, sp, #92
 892              		.cfi_def_cfa_offset 112
 893 0004 00AF     		add	r7, sp, #0
 894              		.cfi_def_cfa_register 7
 895 0006 7862     		str	r0, [r7, #36]
 896 0008 3962     		str	r1, [r7, #32]
 383:lib_DS1307/DS1307.c ****     uint32 i;
 384:lib_DS1307/DS1307.c ****     uint32 tmpYear;
 385:lib_DS1307/DS1307.c ****     uint32 tmpMonth;
 386:lib_DS1307/DS1307.c ****     uint32 tmpVal;
 387:lib_DS1307/DS1307.c ****     uint64 unixTime;
 388:lib_DS1307/DS1307.c **** 
 389:lib_DS1307/DS1307.c ****     unixTime = 0u;
 897              		.loc 1 389 0
 898 000a 0023     		mov	r3, #0
 899 000c 0024     		mov	r4, #0
 900 000e BB64     		str	r3, [r7, #72]
 901 0010 FC64     		str	r4, [r7, #76]
 390:lib_DS1307/DS1307.c ****     
 391:lib_DS1307/DS1307.c ****     /*GetYear*/
 392:lib_DS1307/DS1307.c ****     tmpYear  = ((inputDate & DS1307_1000_YEAR_MASK_UNIX) >> DS1307_1000_YEAR_OFFSET) * 1000u;
 902              		.loc 1 392 0
 903 0012 7A6A     		ldr	r2, [r7, #36]
 904 0014 C023     		mov	r3, #192
 905 0016 9B01     		lsl	r3, r3, #6
 906 0018 1340     		and	r3, r2
 907 001a 1B0B     		lsr	r3, r3, #12
 908 001c FA22     		mov	r2, #250
 909 001e 9200     		lsl	r2, r2, #2
 910 0020 5343     		mul	r3, r2
 911 0022 7B64     		str	r3, [r7, #68]
 393:lib_DS1307/DS1307.c ****     tmpYear += ((inputDate & DS1307_100_YEAR_MASK_UNIX) >> DS1307_100_YEAR_OFFSET) * 100u;
 912              		.loc 1 393 0
 913 0024 7A6A     		ldr	r2, [r7, #36]
ARM GAS  C:\Users\Petro\AppData\Local\Temp\ccPzTkZo.s 			page 24


 914 0026 F023     		mov	r3, #240
 915 0028 1B01     		lsl	r3, r3, #4
 916 002a 1340     		and	r3, r2
 917 002c 1B0A     		lsr	r3, r3, #8
 918 002e 6422     		mov	r2, #100
 919 0030 5343     		mul	r3, r2
 920 0032 7A6C     		ldr	r2, [r7, #68]
 921 0034 D318     		add	r3, r2, r3
 922 0036 7B64     		str	r3, [r7, #68]
 394:lib_DS1307/DS1307.c ****     tmpYear += ((inputDate & DS1307_10_YEAR_MASK_UNIX) >> DS1307_10_YEAR_OFFSET) * 10u;
 923              		.loc 1 394 0
 924 0038 7B6A     		ldr	r3, [r7, #36]
 925 003a F022     		mov	r2, #240
 926 003c 1340     		and	r3, r2
 927 003e 1A09     		lsr	r2, r3, #4
 928 0040 131C     		mov	r3, r2
 929 0042 9B00     		lsl	r3, r3, #2
 930 0044 9B18     		add	r3, r3, r2
 931 0046 5B00     		lsl	r3, r3, #1
 932 0048 1A1C     		mov	r2, r3
 933 004a 7B6C     		ldr	r3, [r7, #68]
 934 004c 9B18     		add	r3, r3, r2
 935 004e 7B64     		str	r3, [r7, #68]
 395:lib_DS1307/DS1307.c ****     tmpYear += (inputDate & DS1307_YEAR_MASK_UNIX) >> DS1307_YEAR_OFFSET;
 936              		.loc 1 395 0
 937 0050 7B6A     		ldr	r3, [r7, #36]
 938 0052 0F22     		mov	r2, #15
 939 0054 1340     		and	r3, r2
 940 0056 7A6C     		ldr	r2, [r7, #68]
 941 0058 D318     		add	r3, r2, r3
 942 005a 7B64     		str	r3, [r7, #68]
 396:lib_DS1307/DS1307.c **** 
 397:lib_DS1307/DS1307.c ****     /* Calculate seconds from epoch start up to (but not including) current year. */
 398:lib_DS1307/DS1307.c ****     for(i = DS1307_YEAR_0; i < tmpYear; i++)
 943              		.loc 1 398 0
 944 005c 8C4B     		ldr	r3, .L47
 945 005e 7B65     		str	r3, [r7, #84]
 946 0060 2BE0     		b	.L30
 947              	.L37:
 399:lib_DS1307/DS1307.c ****     {
 400:lib_DS1307/DS1307.c ****         if(0u != ((((0u == (i % 4Lu)) && (0u != (i % 100Lu))) || (0u == (i % 400Lu)))))
 948              		.loc 1 400 0
 949 0062 7B6D     		ldr	r3, [r7, #84]
 950 0064 0322     		mov	r2, #3
 951 0066 1340     		and	r3, r2
 952 0068 06D1     		bne	.L31
 953              		.loc 1 400 0 is_stmt 0 discriminator 1
 954 006a 7B6D     		ldr	r3, [r7, #84]
 955 006c 181C     		mov	r0, r3
 956 006e 6421     		mov	r1, #100
 957 0070 FFF7FEFF 		bl	__aeabi_uidivmod
 958 0074 0B1E     		sub	r3, r1, #0
 959 0076 07D1     		bne	.L32
 960              	.L31:
 961              		.loc 1 400 0 discriminator 4
 962 0078 7B6D     		ldr	r3, [r7, #84]
 963 007a 181C     		mov	r0, r3
ARM GAS  C:\Users\Petro\AppData\Local\Temp\ccPzTkZo.s 			page 25


 964 007c C823     		mov	r3, #200
 965 007e 5900     		lsl	r1, r3, #1
 966 0080 FFF7FEFF 		bl	__aeabi_uidivmod
 967 0084 0B1E     		sub	r3, r1, #0
 968 0086 01D1     		bne	.L33
 969              	.L32:
 970              		.loc 1 400 0 discriminator 5
 971 0088 0123     		mov	r3, #1
 972 008a 00E0     		b	.L34
 973              	.L33:
 974              		.loc 1 400 0 discriminator 6
 975 008c 0023     		mov	r3, #0
 976              	.L34:
 977              		.loc 1 400 0 discriminator 8
 978 008e 002B     		cmp	r3, #0
 979 0090 08D0     		beq	.L35
 401:lib_DS1307/DS1307.c ****         {
 402:lib_DS1307/DS1307.c ****             unixTime += DS1307_SECONDS_PER_LEAP_YEAR;
 980              		.loc 1 402 0 is_stmt 1
 981 0092 BB6C     		ldr	r3, [r7, #72]
 982 0094 FC6C     		ldr	r4, [r7, #76]
 983 0096 7F49     		ldr	r1, .L47+4
 984 0098 0022     		mov	r2, #0
 985 009a 5B18     		add	r3, r3, r1
 986 009c 5441     		adc	r4, r4, r2
 987 009e BB64     		str	r3, [r7, #72]
 988 00a0 FC64     		str	r4, [r7, #76]
 989 00a2 07E0     		b	.L36
 990              	.L35:
 403:lib_DS1307/DS1307.c ****         }
 404:lib_DS1307/DS1307.c ****         else
 405:lib_DS1307/DS1307.c ****         {
 406:lib_DS1307/DS1307.c ****             unixTime += DS1307_SECONDS_PER_NONLEAP_YEAR;
 991              		.loc 1 406 0
 992 00a4 BB6C     		ldr	r3, [r7, #72]
 993 00a6 FC6C     		ldr	r4, [r7, #76]
 994 00a8 7B49     		ldr	r1, .L47+8
 995 00aa 0022     		mov	r2, #0
 996 00ac 5B18     		add	r3, r3, r1
 997 00ae 5441     		adc	r4, r4, r2
 998 00b0 BB64     		str	r3, [r7, #72]
 999 00b2 FC64     		str	r4, [r7, #76]
 1000              	.L36:
 398:lib_DS1307/DS1307.c ****     {
 1001              		.loc 1 398 0 discriminator 2
 1002 00b4 7B6D     		ldr	r3, [r7, #84]
 1003 00b6 0133     		add	r3, r3, #1
 1004 00b8 7B65     		str	r3, [r7, #84]
 1005              	.L30:
 398:lib_DS1307/DS1307.c ****     {
 1006              		.loc 1 398 0 is_stmt 0 discriminator 1
 1007 00ba 7A6D     		ldr	r2, [r7, #84]
 1008 00bc 7B6C     		ldr	r3, [r7, #68]
 1009 00be 9A42     		cmp	r2, r3
 1010 00c0 CFD3     		bcc	.L37
 407:lib_DS1307/DS1307.c ****         }
 408:lib_DS1307/DS1307.c ****     }
ARM GAS  C:\Users\Petro\AppData\Local\Temp\ccPzTkZo.s 			page 26


 409:lib_DS1307/DS1307.c **** 
 410:lib_DS1307/DS1307.c ****     /* Calculates how many seconds had elapsed in this year prior to the current month. */
 411:lib_DS1307/DS1307.c ****     /*GetMonth*/
 412:lib_DS1307/DS1307.c ****     tmpMonth  = ((inputDate & DS1307_10_MONTH_MASK_UNIX) >> DS1307_10_MONTH_OFFSET) * 10u;
 1011              		.loc 1 412 0 is_stmt 1
 1012 00c2 7A6A     		ldr	r2, [r7, #36]
 1013 00c4 8023     		mov	r3, #128
 1014 00c6 5B05     		lsl	r3, r3, #21
 1015 00c8 1340     		and	r3, r2
 1016 00ca 1A0F     		lsr	r2, r3, #28
 1017 00cc 131C     		mov	r3, r2
 1018 00ce 9B00     		lsl	r3, r3, #2
 1019 00d0 9B18     		add	r3, r3, r2
 1020 00d2 5B00     		lsl	r3, r3, #1
 1021 00d4 3B64     		str	r3, [r7, #64]
 413:lib_DS1307/DS1307.c ****     tmpMonth += (inputDate & DS1307_MONTH_MASK_UNIX) >> DS1307_MONTH_OFFSET;
 1022              		.loc 1 413 0
 1023 00d6 7A6A     		ldr	r2, [r7, #36]
 1024 00d8 F023     		mov	r3, #240
 1025 00da 1B05     		lsl	r3, r3, #20
 1026 00dc 1340     		and	r3, r2
 1027 00de 1B0E     		lsr	r3, r3, #24
 1028 00e0 3A6C     		ldr	r2, [r7, #64]
 1029 00e2 D318     		add	r3, r2, r3
 1030 00e4 3B64     		str	r3, [r7, #64]
 414:lib_DS1307/DS1307.c ****     
 415:lib_DS1307/DS1307.c ****     tmpVal = DS1307_daysBeforeMonthTbl1[tmpMonth - 1u];
 1031              		.loc 1 415 0
 1032 00e6 3B6C     		ldr	r3, [r7, #64]
 1033 00e8 5A1E     		sub	r2, r3, #1
 1034 00ea 6C4B     		ldr	r3, .L47+12
 1035 00ec 5200     		lsl	r2, r2, #1
 1036 00ee D35A     		ldrh	r3, [r2, r3]
 1037 00f0 3B65     		str	r3, [r7, #80]
 416:lib_DS1307/DS1307.c **** 
 417:lib_DS1307/DS1307.c ****     if((tmpMonth > 2u) && (0u != (((0u == (tmpYear % 4Lu)) && (0u != (tmpYear % 100Lu))) || (0u == 
 1038              		.loc 1 417 0
 1039 00f2 3B6C     		ldr	r3, [r7, #64]
 1040 00f4 022B     		cmp	r3, #2
 1041 00f6 1AD9     		bls	.L38
 1042              		.loc 1 417 0 is_stmt 0 discriminator 1
 1043 00f8 7B6C     		ldr	r3, [r7, #68]
 1044 00fa 0322     		mov	r2, #3
 1045 00fc 1340     		and	r3, r2
 1046 00fe 06D1     		bne	.L39
 1047              		.loc 1 417 0 discriminator 2
 1048 0100 7B6C     		ldr	r3, [r7, #68]
 1049 0102 181C     		mov	r0, r3
 1050 0104 6421     		mov	r1, #100
 1051 0106 FFF7FEFF 		bl	__aeabi_uidivmod
 1052 010a 0B1E     		sub	r3, r1, #0
 1053 010c 07D1     		bne	.L40
 1054              	.L39:
 1055              		.loc 1 417 0 discriminator 5
 1056 010e 7B6C     		ldr	r3, [r7, #68]
 1057 0110 181C     		mov	r0, r3
 1058 0112 C823     		mov	r3, #200
ARM GAS  C:\Users\Petro\AppData\Local\Temp\ccPzTkZo.s 			page 27


 1059 0114 5900     		lsl	r1, r3, #1
 1060 0116 FFF7FEFF 		bl	__aeabi_uidivmod
 1061 011a 0B1E     		sub	r3, r1, #0
 1062 011c 01D1     		bne	.L41
 1063              	.L40:
 1064              		.loc 1 417 0 discriminator 6
 1065 011e 0123     		mov	r3, #1
 1066 0120 00E0     		b	.L42
 1067              	.L41:
 1068              		.loc 1 417 0 discriminator 7
 1069 0122 0023     		mov	r3, #0
 1070              	.L42:
 1071              		.loc 1 417 0 discriminator 9
 1072 0124 002B     		cmp	r3, #0
 1073 0126 02D0     		beq	.L38
 418:lib_DS1307/DS1307.c ****     {
 419:lib_DS1307/DS1307.c ****         tmpVal++;
 1074              		.loc 1 419 0 is_stmt 1
 1075 0128 3B6D     		ldr	r3, [r7, #80]
 1076 012a 0133     		add	r3, r3, #1
 1077 012c 3B65     		str	r3, [r7, #80]
 1078              	.L38:
 420:lib_DS1307/DS1307.c ****     }
 421:lib_DS1307/DS1307.c **** 
 422:lib_DS1307/DS1307.c ****     /* Calculates how many seconds are in current month days prior to today. */
 423:lib_DS1307/DS1307.c ****     unixTime += tmpVal * DS1307_SECONDS_PER_DAY;
 1079              		.loc 1 423 0
 1080 012e 3B6D     		ldr	r3, [r7, #80]
 1081 0130 5B4A     		ldr	r2, .L47+16
 1082 0132 5343     		mul	r3, r2
 1083 0134 BB61     		str	r3, [r7, #24]
 1084 0136 0023     		mov	r3, #0
 1085 0138 FB61     		str	r3, [r7, #28]
 1086 013a BB6C     		ldr	r3, [r7, #72]
 1087 013c FC6C     		ldr	r4, [r7, #76]
 1088 013e B969     		ldr	r1, [r7, #24]
 1089 0140 FA69     		ldr	r2, [r7, #28]
 1090 0142 5B18     		add	r3, r3, r1
 1091 0144 5441     		adc	r4, r4, r2
 1092 0146 BB64     		str	r3, [r7, #72]
 1093 0148 FC64     		str	r4, [r7, #76]
 424:lib_DS1307/DS1307.c ****     /*GetDay*/
 425:lib_DS1307/DS1307.c ****     uint32_t getDay;
 426:lib_DS1307/DS1307.c ****     getDay  = ((inputDate & DS1307_10_DAY_MASK_UNIX) >> DS1307_10_DAY_OFFSET) * 10u;
 1094              		.loc 1 426 0
 1095 014a 7A6A     		ldr	r2, [r7, #36]
 1096 014c C023     		mov	r3, #192
 1097 014e 9B03     		lsl	r3, r3, #14
 1098 0150 1340     		and	r3, r2
 1099 0152 1A0D     		lsr	r2, r3, #20
 1100 0154 131C     		mov	r3, r2
 1101 0156 9B00     		lsl	r3, r3, #2
 1102 0158 9B18     		add	r3, r3, r2
 1103 015a 5B00     		lsl	r3, r3, #1
 1104 015c FB63     		str	r3, [r7, #60]
 427:lib_DS1307/DS1307.c ****     getDay += (inputDate & DS1307_DAY_MASK_UNIX) >> DS1307_DAY_OFFSET;
 1105              		.loc 1 427 0
ARM GAS  C:\Users\Petro\AppData\Local\Temp\ccPzTkZo.s 			page 28


 1106 015e 7A6A     		ldr	r2, [r7, #36]
 1107 0160 F023     		mov	r3, #240
 1108 0162 1B03     		lsl	r3, r3, #12
 1109 0164 1340     		and	r3, r2
 1110 0166 1B0C     		lsr	r3, r3, #16
 1111 0168 FA6B     		ldr	r2, [r7, #60]
 1112 016a D318     		add	r3, r2, r3
 1113 016c FB63     		str	r3, [r7, #60]
 428:lib_DS1307/DS1307.c ****     
 429:lib_DS1307/DS1307.c ****     unixTime += (getDay - 1u) * DS1307_SECONDS_PER_DAY;
 1114              		.loc 1 429 0
 1115 016e FB6B     		ldr	r3, [r7, #60]
 1116 0170 4B4A     		ldr	r2, .L47+16
 1117 0172 5343     		mul	r3, r2
 1118 0174 4B4A     		ldr	r2, .L47+20
 1119 0176 9446     		mov	ip, r2
 1120 0178 6344     		add	r3, r3, ip
 1121 017a 3B61     		str	r3, [r7, #16]
 1122 017c 0023     		mov	r3, #0
 1123 017e 7B61     		str	r3, [r7, #20]
 1124 0180 BB6C     		ldr	r3, [r7, #72]
 1125 0182 FC6C     		ldr	r4, [r7, #76]
 1126 0184 3969     		ldr	r1, [r7, #16]
 1127 0186 7A69     		ldr	r2, [r7, #20]
 1128 0188 5B18     		add	r3, r3, r1
 1129 018a 5441     		adc	r4, r4, r2
 1130 018c BB64     		str	r3, [r7, #72]
 1131 018e FC64     		str	r4, [r7, #76]
 430:lib_DS1307/DS1307.c **** 
 431:lib_DS1307/DS1307.c ****     /* Calculates how many seconds have elapsed today up to the current hour. */
 432:lib_DS1307/DS1307.c ****     /*GetHours*/
 433:lib_DS1307/DS1307.c ****     tmpVal  = ((inputTime & DS1307_10_HOURS_MASK_UNIX) >> DS1307_10_HOURS_OFFSET) * 10u;
 1132              		.loc 1 433 0
 1133 0190 3A6A     		ldr	r2, [r7, #32]
 1134 0192 C023     		mov	r3, #192
 1135 0194 9B03     		lsl	r3, r3, #14
 1136 0196 1340     		and	r3, r2
 1137 0198 1A0D     		lsr	r2, r3, #20
 1138 019a 131C     		mov	r3, r2
 1139 019c 9B00     		lsl	r3, r3, #2
 1140 019e 9B18     		add	r3, r3, r2
 1141 01a0 5B00     		lsl	r3, r3, #1
 1142 01a2 3B65     		str	r3, [r7, #80]
 434:lib_DS1307/DS1307.c ****     tmpVal += (inputTime & DS1307_HOURS_MASK_UNIX) >> DS1307_HOURS_OFFSET;
 1143              		.loc 1 434 0
 1144 01a4 3A6A     		ldr	r2, [r7, #32]
 1145 01a6 F023     		mov	r3, #240
 1146 01a8 1B03     		lsl	r3, r3, #12
 1147 01aa 1340     		and	r3, r2
 1148 01ac 1B0C     		lsr	r3, r3, #16
 1149 01ae 3A6D     		ldr	r2, [r7, #80]
 1150 01b0 D318     		add	r3, r2, r3
 1151 01b2 3B65     		str	r3, [r7, #80]
 435:lib_DS1307/DS1307.c ****     
 436:lib_DS1307/DS1307.c ****     /*Get time format*/
 437:lib_DS1307/DS1307.c ****     uint32_t timeFormat= ((0uL != (inputTime & (1uL << DS1307_TIME_FORMAT_OFFSET))) ? (uint32)!DS13
 1152              		.loc 1 437 0
ARM GAS  C:\Users\Petro\AppData\Local\Temp\ccPzTkZo.s 			page 29


 1153 01b4 3A6A     		ldr	r2, [r7, #32]
 1154 01b6 8023     		mov	r3, #128
 1155 01b8 1B04     		lsl	r3, r3, #16
 1156 01ba 1340     		and	r3, r2
 1157 01bc 5A42     		neg	r2, r3
 1158 01be 5341     		adc	r3, r3, r2
 1159 01c0 DBB2     		uxtb	r3, r3
 1160 01c2 BB63     		str	r3, [r7, #56]
 438:lib_DS1307/DS1307.c ****                                                                                   (uint32)!DS1307_2
 439:lib_DS1307/DS1307.c ****    
 440:lib_DS1307/DS1307.c ****     uint32_t AmRm = ((DS1307_PERIOD_OF_DAY_MASK_UNIX == (inputTime & DS1307_PERIOD_OF_DAY_MASK_UNIX
 1161              		.loc 1 440 0
 1162 01c4 3A6A     		ldr	r2, [r7, #32]
 1163 01c6 8023     		mov	r3, #128
 1164 01c8 DB03     		lsl	r3, r3, #15
 1165 01ca 1340     		and	r3, r2
 1166 01cc 01D0     		beq	.L43
 1167              		.loc 1 440 0 is_stmt 0 discriminator 1
 1168 01ce 0123     		mov	r3, #1
 1169 01d0 00E0     		b	.L44
 1170              	.L43:
 1171              		.loc 1 440 0 discriminator 2
 1172 01d2 0023     		mov	r3, #0
 1173              	.L44:
 1174              		.loc 1 440 0 discriminator 4
 1175 01d4 7B63     		str	r3, [r7, #52]
 441:lib_DS1307/DS1307.c ****     if(((uint32)!DS1307_24TIME_FORMAT != timeFormat) &&
 1176              		.loc 1 441 0 is_stmt 1 discriminator 4
 1177 01d6 BB6B     		ldr	r3, [r7, #56]
 1178 01d8 012B     		cmp	r3, #1
 1179 01da 08D0     		beq	.L45
 1180              		.loc 1 441 0 is_stmt 0 discriminator 1
 1181 01dc 7B6B     		ldr	r3, [r7, #52]
 1182 01de 002B     		cmp	r3, #0
 1183 01e0 05D1     		bne	.L45
 442:lib_DS1307/DS1307.c ****        ((uint32)DS1307_AM == AmRm) && (tmpVal < 12u))
 1184              		.loc 1 442 0 is_stmt 1
 1185 01e2 3B6D     		ldr	r3, [r7, #80]
 1186 01e4 0B2B     		cmp	r3, #11
 1187 01e6 02D8     		bhi	.L45
 443:lib_DS1307/DS1307.c ****     {
 444:lib_DS1307/DS1307.c ****         tmpVal += DS1307_HOURS_PER_HALF_DAY;
 1188              		.loc 1 444 0
 1189 01e8 3B6D     		ldr	r3, [r7, #80]
 1190 01ea 0C33     		add	r3, r3, #12
 1191 01ec 3B65     		str	r3, [r7, #80]
 1192              	.L45:
 445:lib_DS1307/DS1307.c ****     }
 446:lib_DS1307/DS1307.c ****     unixTime += tmpVal * DS1307_SECONDS_PER_HOUR;
 1193              		.loc 1 446 0
 1194 01ee 3B6D     		ldr	r3, [r7, #80]
 1195 01f0 E122     		mov	r2, #225
 1196 01f2 1201     		lsl	r2, r2, #4
 1197 01f4 5343     		mul	r3, r2
 1198 01f6 BB60     		str	r3, [r7, #8]
 1199 01f8 0023     		mov	r3, #0
 1200 01fa FB60     		str	r3, [r7, #12]
ARM GAS  C:\Users\Petro\AppData\Local\Temp\ccPzTkZo.s 			page 30


 1201 01fc BB6C     		ldr	r3, [r7, #72]
 1202 01fe FC6C     		ldr	r4, [r7, #76]
 1203 0200 B968     		ldr	r1, [r7, #8]
 1204 0202 FA68     		ldr	r2, [r7, #12]
 1205 0204 5B18     		add	r3, r3, r1
 1206 0206 5441     		adc	r4, r4, r2
 1207 0208 BB64     		str	r3, [r7, #72]
 1208 020a FC64     		str	r4, [r7, #76]
 447:lib_DS1307/DS1307.c **** 
 448:lib_DS1307/DS1307.c ****     /* Calculates how many seconds have elapsed today up to the current minute. */
 449:lib_DS1307/DS1307.c ****     /*get Minutes*/
 450:lib_DS1307/DS1307.c ****     uint32_t minutes;
 451:lib_DS1307/DS1307.c ****     minutes  = ((inputTime & DS1307_10_MINUTES_MASK_UNIX) >> DS1307_10_MINUTES_OFFSET) * 10u;
 1209              		.loc 1 451 0
 1210 020c 3A6A     		ldr	r2, [r7, #32]
 1211 020e E023     		mov	r3, #224
 1212 0210 DB01     		lsl	r3, r3, #7
 1213 0212 1340     		and	r3, r2
 1214 0214 1A0B     		lsr	r2, r3, #12
 1215 0216 131C     		mov	r3, r2
 1216 0218 9B00     		lsl	r3, r3, #2
 1217 021a 9B18     		add	r3, r3, r2
 1218 021c 5B00     		lsl	r3, r3, #1
 1219 021e 3B63     		str	r3, [r7, #48]
 452:lib_DS1307/DS1307.c ****     minutes += (inputTime & DS1307_MINUTES_MASK_UNIX) >> DS1307_MINUTES_OFFSET;
 1220              		.loc 1 452 0
 1221 0220 3A6A     		ldr	r2, [r7, #32]
 1222 0222 F023     		mov	r3, #240
 1223 0224 1B01     		lsl	r3, r3, #4
 1224 0226 1340     		and	r3, r2
 1225 0228 1B0A     		lsr	r3, r3, #8
 1226 022a 3A6B     		ldr	r2, [r7, #48]
 1227 022c D318     		add	r3, r2, r3
 1228 022e 3B63     		str	r3, [r7, #48]
 453:lib_DS1307/DS1307.c ****     
 454:lib_DS1307/DS1307.c ****     unixTime += minutes * DS1307_SECONDS_PER_MINUTE;
 1229              		.loc 1 454 0
 1230 0230 3A6B     		ldr	r2, [r7, #48]
 1231 0232 131C     		mov	r3, r2
 1232 0234 1B01     		lsl	r3, r3, #4
 1233 0236 9B1A     		sub	r3, r3, r2
 1234 0238 9B00     		lsl	r3, r3, #2
 1235 023a 3B60     		str	r3, [r7]
 1236 023c 0023     		mov	r3, #0
 1237 023e 7B60     		str	r3, [r7, #4]
 1238 0240 BB6C     		ldr	r3, [r7, #72]
 1239 0242 FC6C     		ldr	r4, [r7, #76]
 1240 0244 3968     		ldr	r1, [r7]
 1241 0246 7A68     		ldr	r2, [r7, #4]
 1242 0248 5B18     		add	r3, r3, r1
 1243 024a 5441     		adc	r4, r4, r2
 1244 024c BB64     		str	r3, [r7, #72]
 1245 024e FC64     		str	r4, [r7, #76]
 455:lib_DS1307/DS1307.c **** 
 456:lib_DS1307/DS1307.c ****     /* Add remaining seconds of current minute. */
 457:lib_DS1307/DS1307.c ****     uint32_t seconds;
 458:lib_DS1307/DS1307.c ****     seconds  = ((inputTime & DS1307_10_SECONDS_MASK_UNIX) >> DS1307_10_SECONDS_OFFSET) * 10u;
ARM GAS  C:\Users\Petro\AppData\Local\Temp\ccPzTkZo.s 			page 31


 1246              		.loc 1 458 0
 1247 0250 3B6A     		ldr	r3, [r7, #32]
 1248 0252 7022     		mov	r2, #112
 1249 0254 1340     		and	r3, r2
 1250 0256 1A09     		lsr	r2, r3, #4
 1251 0258 131C     		mov	r3, r2
 1252 025a 9B00     		lsl	r3, r3, #2
 1253 025c 9B18     		add	r3, r3, r2
 1254 025e 5B00     		lsl	r3, r3, #1
 1255 0260 FB62     		str	r3, [r7, #44]
 459:lib_DS1307/DS1307.c ****     seconds += (inputTime & DS1307_SECONDS_MASK_UNIX) >> DS1307_SECONDS_OFFSET;
 1256              		.loc 1 459 0
 1257 0262 3B6A     		ldr	r3, [r7, #32]
 1258 0264 0F22     		mov	r2, #15
 1259 0266 1340     		and	r3, r2
 1260 0268 FA6A     		ldr	r2, [r7, #44]
 1261 026a D318     		add	r3, r2, r3
 1262 026c FB62     		str	r3, [r7, #44]
 460:lib_DS1307/DS1307.c ****     unixTime += seconds;
 1263              		.loc 1 460 0
 1264 026e FB6A     		ldr	r3, [r7, #44]
 1265 0270 1D1C     		mov	r5, r3
 1266 0272 0023     		mov	r3, #0
 1267 0274 1E1C     		mov	r6, r3
 1268 0276 BB6C     		ldr	r3, [r7, #72]
 1269 0278 FC6C     		ldr	r4, [r7, #76]
 1270 027a 5B19     		add	r3, r3, r5
 1271 027c 7441     		adc	r4, r4, r6
 1272 027e BB64     		str	r3, [r7, #72]
 1273 0280 FC64     		str	r4, [r7, #76]
 461:lib_DS1307/DS1307.c **** 
 462:lib_DS1307/DS1307.c ****     return(unixTime);
 1274              		.loc 1 462 0
 1275 0282 BB6C     		ldr	r3, [r7, #72]
 1276 0284 FC6C     		ldr	r4, [r7, #76]
 463:lib_DS1307/DS1307.c **** }
 1277              		.loc 1 463 0
 1278 0286 181C     		mov	r0, r3
 1279 0288 211C     		mov	r1, r4
 1280 028a BD46     		mov	sp, r7
 1281 028c 17B0     		add	sp, sp, #92
 1282              		@ sp needed
 1283 028e F0BD     		pop	{r4, r5, r6, r7, pc}
 1284              	.L48:
 1285              		.align	2
 1286              	.L47:
 1287 0290 B2070000 		.word	1970
 1288 0294 0085E201 		.word	31622400
 1289 0298 8033E101 		.word	31536000
 1290 029c 00000000 		.word	DS1307_daysBeforeMonthTbl1
 1291 02a0 80510100 		.word	86400
 1292 02a4 80AEFEFF 		.word	-86400
 1293              		.cfi_endproc
 1294              	.LFE6:
 1295              		.size	DS1307_DateTimeToUnix, .-DS1307_DateTimeToUnix
 1296              		.section	.text.DS1307_GetUnixTime,"ax",%progbits
 1297              		.align	2
ARM GAS  C:\Users\Petro\AppData\Local\Temp\ccPzTkZo.s 			page 32


 1298              		.global	DS1307_GetUnixTime
 1299              		.code	16
 1300              		.thumb_func
 1301              		.type	DS1307_GetUnixTime, %function
 1302              	DS1307_GetUnixTime:
 1303              	.LFB7:
 464:lib_DS1307/DS1307.c **** 
 465:lib_DS1307/DS1307.c **** /*******************************************************************************
 466:lib_DS1307/DS1307.c **** * Function Name: DS1307_GetUnixTime
 467:lib_DS1307/DS1307.c **** ********************************************************************************
 468:lib_DS1307/DS1307.c **** *
 469:lib_DS1307/DS1307.c **** * Summary:
 470:lib_DS1307/DS1307.c **** *   get time from DS1307
 471:lib_DS1307/DS1307.c **** * Return:
 472:lib_DS1307/DS1307.c **** *   unix time
 473:lib_DS1307/DS1307.c **** *
 474:lib_DS1307/DS1307.c **** *******************************************************************************/
 475:lib_DS1307/DS1307.c **** uint64_t DS1307_GetUnixTime(void)
 476:lib_DS1307/DS1307.c **** {
 1304              		.loc 1 476 0
 1305              		.cfi_startproc
 1306 0000 90B5     		push	{r4, r7, lr}
 1307              		.cfi_def_cfa_offset 12
 1308              		.cfi_offset 4, -12
 1309              		.cfi_offset 7, -8
 1310              		.cfi_offset 14, -4
 1311 0002 89B0     		sub	sp, sp, #36
 1312              		.cfi_def_cfa_offset 48
 1313 0004 02AF     		add	r7, sp, #8
 1314              		.cfi_def_cfa 7, 40
 477:lib_DS1307/DS1307.c ****     uint64_t unixTime;
 478:lib_DS1307/DS1307.c ****     uint32_t date;
 479:lib_DS1307/DS1307.c ****     uint32_t time;
 480:lib_DS1307/DS1307.c ****     uint32_t status;
 481:lib_DS1307/DS1307.c ****     
 482:lib_DS1307/DS1307.c ****     status = DS1307_ReadTimeToStruct();
 1315              		.loc 1 482 0
 1316 0006 FFF7FEFF 		bl	DS1307_ReadTimeToStruct
 1317 000a 031C     		mov	r3, r0
 1318 000c FB60     		str	r3, [r7, #12]
 483:lib_DS1307/DS1307.c ****     
 484:lib_DS1307/DS1307.c ****     if(status == I2C_I2C_MSTR_NO_ERROR)
 1319              		.loc 1 484 0
 1320 000e FB68     		ldr	r3, [r7, #12]
 1321 0010 002B     		cmp	r3, #0
 1322 0012 2DD1     		bne	.L50
 485:lib_DS1307/DS1307.c ****     {
 486:lib_DS1307/DS1307.c ****         date = DS1307_ConstructDate(DS1307_currentTimeDate.month,\
 1323              		.loc 1 486 0
 1324 0014 1C4B     		ldr	r3, .L53
 1325 0016 DB79     		ldrb	r3, [r3, #7]
 1326 0018 191C     		mov	r1, r3
 487:lib_DS1307/DS1307.c ****                                     DS1307_currentTimeDate.date, \
 1327              		.loc 1 487 0
 1328 001a 1B4B     		ldr	r3, .L53
 1329 001c 9B79     		ldrb	r3, [r3, #6]
 486:lib_DS1307/DS1307.c ****                                     DS1307_currentTimeDate.date, \
ARM GAS  C:\Users\Petro\AppData\Local\Temp\ccPzTkZo.s 			page 33


 1330              		.loc 1 486 0
 1331 001e 1A1C     		mov	r2, r3
 488:lib_DS1307/DS1307.c ****                                     DS1307_currentTimeDate.year);
 1332              		.loc 1 488 0
 1333 0020 194B     		ldr	r3, .L53
 1334 0022 1B89     		ldrh	r3, [r3, #8]
 486:lib_DS1307/DS1307.c ****                                     DS1307_currentTimeDate.date, \
 1335              		.loc 1 486 0
 1336 0024 081C     		mov	r0, r1
 1337 0026 111C     		mov	r1, r2
 1338 0028 1A1C     		mov	r2, r3
 1339 002a FFF7FEFF 		bl	DS1307_ConstructDate
 1340 002e 031C     		mov	r3, r0
 1341 0030 BB60     		str	r3, [r7, #8]
 489:lib_DS1307/DS1307.c ****         time = DS1307_ConstructTime(DS1307_currentTimeDate.timeFormat,   \
 1342              		.loc 1 489 0
 1343 0032 154B     		ldr	r3, .L53
 1344 0034 DB78     		ldrb	r3, [r3, #3]
 1345 0036 181C     		mov	r0, r3
 490:lib_DS1307/DS1307.c ****                                     DS1307_currentTimeDate.AmRm,   \
 1346              		.loc 1 490 0
 1347 0038 134B     		ldr	r3, .L53
 1348 003a 1B79     		ldrb	r3, [r3, #4]
 489:lib_DS1307/DS1307.c ****         time = DS1307_ConstructTime(DS1307_currentTimeDate.timeFormat,   \
 1349              		.loc 1 489 0
 1350 003c 191C     		mov	r1, r3
 491:lib_DS1307/DS1307.c ****                                     DS1307_currentTimeDate.hours,   \
 1351              		.loc 1 491 0
 1352 003e 124B     		ldr	r3, .L53
 1353 0040 9B78     		ldrb	r3, [r3, #2]
 489:lib_DS1307/DS1307.c ****         time = DS1307_ConstructTime(DS1307_currentTimeDate.timeFormat,   \
 1354              		.loc 1 489 0
 1355 0042 1A1C     		mov	r2, r3
 492:lib_DS1307/DS1307.c ****                                     DS1307_currentTimeDate.minutes,   \
 1356              		.loc 1 492 0
 1357 0044 104B     		ldr	r3, .L53
 1358 0046 5B78     		ldrb	r3, [r3, #1]
 489:lib_DS1307/DS1307.c ****                                     DS1307_currentTimeDate.AmRm,   \
 1359              		.loc 1 489 0
 1360 0048 1C1C     		mov	r4, r3
 493:lib_DS1307/DS1307.c ****                                     DS1307_currentTimeDate.second);
 1361              		.loc 1 493 0
 1362 004a 0F4B     		ldr	r3, .L53
 1363 004c 1B78     		ldrb	r3, [r3]
 489:lib_DS1307/DS1307.c ****                                     DS1307_currentTimeDate.AmRm,   \
 1364              		.loc 1 489 0
 1365 004e 0093     		str	r3, [sp]
 1366 0050 231C     		mov	r3, r4
 1367 0052 FFF7FEFF 		bl	DS1307_ConstructTime
 1368 0056 031C     		mov	r3, r0
 1369 0058 7B60     		str	r3, [r7, #4]
 494:lib_DS1307/DS1307.c ****         /*convert  time and data in unix format*/
 495:lib_DS1307/DS1307.c ****         unixTime = DS1307_DateTimeToUnix(date, time);
 1370              		.loc 1 495 0
 1371 005a BA68     		ldr	r2, [r7, #8]
 1372 005c 7B68     		ldr	r3, [r7, #4]
 1373 005e 101C     		mov	r0, r2
ARM GAS  C:\Users\Petro\AppData\Local\Temp\ccPzTkZo.s 			page 34


 1374 0060 191C     		mov	r1, r3
 1375 0062 FFF7FEFF 		bl	DS1307_DateTimeToUnix
 1376 0066 031C     		mov	r3, r0
 1377 0068 0C1C     		mov	r4, r1
 1378 006a 3B61     		str	r3, [r7, #16]
 1379 006c 7C61     		str	r4, [r7, #20]
 1380 006e 03E0     		b	.L51
 1381              	.L50:
 496:lib_DS1307/DS1307.c ****     }
 497:lib_DS1307/DS1307.c ****     else 
 498:lib_DS1307/DS1307.c ****     {
 499:lib_DS1307/DS1307.c ****         unixTime = 0;
 1382              		.loc 1 499 0
 1383 0070 0023     		mov	r3, #0
 1384 0072 0024     		mov	r4, #0
 1385 0074 3B61     		str	r3, [r7, #16]
 1386 0076 7C61     		str	r4, [r7, #20]
 1387              	.L51:
 500:lib_DS1307/DS1307.c ****     }
 501:lib_DS1307/DS1307.c ****     
 502:lib_DS1307/DS1307.c ****     return unixTime;
 1388              		.loc 1 502 0
 1389 0078 3B69     		ldr	r3, [r7, #16]
 1390 007a 7C69     		ldr	r4, [r7, #20]
 503:lib_DS1307/DS1307.c **** }
 1391              		.loc 1 503 0
 1392 007c 181C     		mov	r0, r3
 1393 007e 211C     		mov	r1, r4
 1394 0080 BD46     		mov	sp, r7
 1395 0082 07B0     		add	sp, sp, #28
 1396              		@ sp needed
 1397 0084 90BD     		pop	{r4, r7, pc}
 1398              	.L54:
 1399 0086 C046     		.align	2
 1400              	.L53:
 1401 0088 00000000 		.word	DS1307_currentTimeDate
 1402              		.cfi_endproc
 1403              	.LFE7:
 1404              		.size	DS1307_GetUnixTime, .-DS1307_GetUnixTime
 1405              		.global	__aeabi_uldivmod
 1406              		.section	.text.DS1307_SetUnixTime,"ax",%progbits
 1407              		.align	2
 1408              		.global	DS1307_SetUnixTime
 1409              		.code	16
 1410              		.thumb_func
 1411              		.type	DS1307_SetUnixTime, %function
 1412              	DS1307_SetUnixTime:
 1413              	.LFB8:
 504:lib_DS1307/DS1307.c **** 
 505:lib_DS1307/DS1307.c **** /*******************************************************************************
 506:lib_DS1307/DS1307.c **** * Function Name: DS1307_SetUnixTime
 507:lib_DS1307/DS1307.c **** ********************************************************************************
 508:lib_DS1307/DS1307.c **** *
 509:lib_DS1307/DS1307.c **** * Summary:
 510:lib_DS1307/DS1307.c **** *   Set time in DS1307
 511:lib_DS1307/DS1307.c **** * Parametrs:
 512:lib_DS1307/DS1307.c **** *   unixTime - time in unix format
ARM GAS  C:\Users\Petro\AppData\Local\Temp\ccPzTkZo.s 			page 35


 513:lib_DS1307/DS1307.c **** *
 514:lib_DS1307/DS1307.c **** *******************************************************************************/
 515:lib_DS1307/DS1307.c **** void DS1307_SetUnixTime( uint64 unixTime)
 516:lib_DS1307/DS1307.c **** {
 1414              		.loc 1 516 0
 1415              		.cfi_startproc
 1416 0000 F0B5     		push	{r4, r5, r6, r7, lr}
 1417              		.cfi_def_cfa_offset 20
 1418              		.cfi_offset 4, -20
 1419              		.cfi_offset 5, -16
 1420              		.cfi_offset 6, -12
 1421              		.cfi_offset 7, -8
 1422              		.cfi_offset 14, -4
 1423 0002 A7B0     		sub	sp, sp, #156
 1424              		.cfi_def_cfa_offset 176
 1425 0004 00AF     		add	r7, sp, #0
 1426              		.cfi_def_cfa_register 7
 1427 0006 B864     		str	r0, [r7, #72]
 1428 0008 F964     		str	r1, [r7, #76]
 517:lib_DS1307/DS1307.c ****     uint32 tmpMinute;
 518:lib_DS1307/DS1307.c ****     uint32 tmpHour;
 519:lib_DS1307/DS1307.c ****     uint32 tmpAmPmState;
 520:lib_DS1307/DS1307.c ****     uint32 timeFormat;
 521:lib_DS1307/DS1307.c **** 
 522:lib_DS1307/DS1307.c ****     uint32 tmpDay;
 523:lib_DS1307/DS1307.c ****     uint32 tmpMonth;
 524:lib_DS1307/DS1307.c ****     uint32 tmpYear;
 525:lib_DS1307/DS1307.c **** 
 526:lib_DS1307/DS1307.c ****     uint32 tmpVar;
 527:lib_DS1307/DS1307.c ****     
 528:lib_DS1307/DS1307.c ****     timeFormat = DS1307_24TIME_FORMAT;
 1429              		.loc 1 528 0
 1430 000a 0023     		mov	r3, #0
 1431 000c 7B66     		str	r3, [r7, #100]
 529:lib_DS1307/DS1307.c ****     tmpAmPmState = DS1307_AM;
 1432              		.loc 1 529 0
 1433 000e 0023     		mov	r3, #0
 1434 0010 9022     		mov	r2, #144
 1435 0012 BA18     		add	r2, r7, r2
 1436 0014 1360     		str	r3, [r2]
 530:lib_DS1307/DS1307.c ****     tmpYear = DS1307_YEAR_0;
 1437              		.loc 1 530 0
 1438 0016 CB4B     		ldr	r3, .L106
 1439 0018 8822     		mov	r2, #136
 1440 001a BA18     		add	r2, r7, r2
 1441 001c 1360     		str	r3, [r2]
 531:lib_DS1307/DS1307.c ****     tmpVar = DS1307_SECONDS_PER_NONLEAP_YEAR;
 1442              		.loc 1 531 0
 1443 001e CA4B     		ldr	r3, .L106+4
 1444 0020 8422     		mov	r2, #132
 1445 0022 BA18     		add	r2, r7, r2
 1446 0024 1360     		str	r3, [r2]
 532:lib_DS1307/DS1307.c **** 
 533:lib_DS1307/DS1307.c ****     /* Calculates current year value. Variable tmpYear
 534:lib_DS1307/DS1307.c ****     *  increments while it contains value greater than number
 535:lib_DS1307/DS1307.c ****     *  of seconds in current year.
 536:lib_DS1307/DS1307.c ****     */
ARM GAS  C:\Users\Petro\AppData\Local\Temp\ccPzTkZo.s 			page 36


 537:lib_DS1307/DS1307.c ****     while(unixTime > tmpVar)
 1447              		.loc 1 537 0
 1448 0026 44E0     		b	.L56
 1449              	.L62:
 1450              	.LBB2:
 538:lib_DS1307/DS1307.c ****     {
 539:lib_DS1307/DS1307.c ****         unixTime -= tmpVar;
 1451              		.loc 1 539 0
 1452 0028 8423     		mov	r3, #132
 1453 002a FB18     		add	r3, r7, r3
 1454 002c 1B68     		ldr	r3, [r3]
 1455 002e BB60     		str	r3, [r7, #8]
 1456 0030 0023     		mov	r3, #0
 1457 0032 FB60     		str	r3, [r7, #12]
 1458 0034 BB6C     		ldr	r3, [r7, #72]
 1459 0036 FC6C     		ldr	r4, [r7, #76]
 1460 0038 B968     		ldr	r1, [r7, #8]
 1461 003a FA68     		ldr	r2, [r7, #12]
 1462 003c 5B1A     		sub	r3, r3, r1
 1463 003e 9441     		sbc	r4, r4, r2
 1464 0040 BB64     		str	r3, [r7, #72]
 1465 0042 FC64     		str	r4, [r7, #76]
 540:lib_DS1307/DS1307.c ****         tmpYear++;
 1466              		.loc 1 540 0
 1467 0044 8823     		mov	r3, #136
 1468 0046 FB18     		add	r3, r7, r3
 1469 0048 1B68     		ldr	r3, [r3]
 1470 004a 0133     		add	r3, r3, #1
 1471 004c 8822     		mov	r2, #136
 1472 004e BA18     		add	r2, r7, r2
 1473 0050 1360     		str	r3, [r2]
 541:lib_DS1307/DS1307.c ****         
 542:lib_DS1307/DS1307.c ****         /*Leap year*/
 543:lib_DS1307/DS1307.c ****         uint32_t leapYear;
 544:lib_DS1307/DS1307.c ****         if(((0u == (tmpYear % 4Lu)) && (0u != (tmpYear % 100Lu))) || (0u == (tmpYear % 400Lu)))
 1474              		.loc 1 544 0
 1475 0052 8823     		mov	r3, #136
 1476 0054 FB18     		add	r3, r7, r3
 1477 0056 1A68     		ldr	r2, [r3]
 1478 0058 0323     		mov	r3, #3
 1479 005a 1340     		and	r3, r2
 1480 005c 08D1     		bne	.L57
 1481              		.loc 1 544 0 is_stmt 0 discriminator 1
 1482 005e 8823     		mov	r3, #136
 1483 0060 FB18     		add	r3, r7, r3
 1484 0062 1B68     		ldr	r3, [r3]
 1485 0064 181C     		mov	r0, r3
 1486 0066 6421     		mov	r1, #100
 1487 0068 FFF7FEFF 		bl	__aeabi_uidivmod
 1488 006c 0B1E     		sub	r3, r1, #0
 1489 006e 09D1     		bne	.L58
 1490              	.L57:
 1491              		.loc 1 544 0 discriminator 3
 1492 0070 8823     		mov	r3, #136
 1493 0072 FB18     		add	r3, r7, r3
 1494 0074 1B68     		ldr	r3, [r3]
 1495 0076 181C     		mov	r0, r3
ARM GAS  C:\Users\Petro\AppData\Local\Temp\ccPzTkZo.s 			page 37


 1496 0078 C823     		mov	r3, #200
 1497 007a 5900     		lsl	r1, r3, #1
 1498 007c FFF7FEFF 		bl	__aeabi_uidivmod
 1499 0080 0B1E     		sub	r3, r1, #0
 1500 0082 04D1     		bne	.L59
 1501              	.L58:
 545:lib_DS1307/DS1307.c ****         {
 546:lib_DS1307/DS1307.c ****             leapYear = 1uL;
 1502              		.loc 1 546 0 is_stmt 1
 1503 0084 0123     		mov	r3, #1
 1504 0086 8022     		mov	r2, #128
 1505 0088 BA18     		add	r2, r7, r2
 1506 008a 1360     		str	r3, [r2]
 1507 008c 03E0     		b	.L60
 1508              	.L59:
 547:lib_DS1307/DS1307.c ****         }
 548:lib_DS1307/DS1307.c ****         else
 549:lib_DS1307/DS1307.c ****         {
 550:lib_DS1307/DS1307.c ****             leapYear = 0uL;
 1509              		.loc 1 550 0
 1510 008e 0023     		mov	r3, #0
 1511 0090 8022     		mov	r2, #128
 1512 0092 BA18     		add	r2, r7, r2
 1513 0094 1360     		str	r3, [r2]
 1514              	.L60:
 551:lib_DS1307/DS1307.c ****         }
 552:lib_DS1307/DS1307.c ****         
 553:lib_DS1307/DS1307.c ****         if(0u != leapYear)
 1515              		.loc 1 553 0
 1516 0096 8023     		mov	r3, #128
 1517 0098 FB18     		add	r3, r7, r3
 1518 009a 1B68     		ldr	r3, [r3]
 1519 009c 002B     		cmp	r3, #0
 1520 009e 04D0     		beq	.L61
 554:lib_DS1307/DS1307.c ****         {
 555:lib_DS1307/DS1307.c ****             tmpVar = DS1307_SECONDS_PER_LEAP_YEAR;
 1521              		.loc 1 555 0
 1522 00a0 AA4B     		ldr	r3, .L106+8
 1523 00a2 8422     		mov	r2, #132
 1524 00a4 BA18     		add	r2, r7, r2
 1525 00a6 1360     		str	r3, [r2]
 1526 00a8 03E0     		b	.L56
 1527              	.L61:
 556:lib_DS1307/DS1307.c ****         }
 557:lib_DS1307/DS1307.c ****         else
 558:lib_DS1307/DS1307.c ****         {
 559:lib_DS1307/DS1307.c ****             tmpVar = DS1307_SECONDS_PER_NONLEAP_YEAR;
 1528              		.loc 1 559 0
 1529 00aa A74B     		ldr	r3, .L106+4
 1530 00ac 8422     		mov	r2, #132
 1531 00ae BA18     		add	r2, r7, r2
 1532 00b0 1360     		str	r3, [r2]
 1533              	.L56:
 1534              	.LBE2:
 537:lib_DS1307/DS1307.c ****     {
 1535              		.loc 1 537 0
 1536 00b2 8423     		mov	r3, #132
ARM GAS  C:\Users\Petro\AppData\Local\Temp\ccPzTkZo.s 			page 38


 1537 00b4 FB18     		add	r3, r7, r3
 1538 00b6 1B68     		ldr	r3, [r3]
 1539 00b8 1D1C     		mov	r5, r3
 1540 00ba 0023     		mov	r3, #0
 1541 00bc 1E1C     		mov	r6, r3
 1542 00be FB6C     		ldr	r3, [r7, #76]
 1543 00c0 B342     		cmp	r3, r6
 1544 00c2 B1D8     		bhi	.L62
 1545 00c4 FB6C     		ldr	r3, [r7, #76]
 1546 00c6 B342     		cmp	r3, r6
 1547 00c8 02D1     		bne	.L100
 1548 00ca BB6C     		ldr	r3, [r7, #72]
 1549 00cc AB42     		cmp	r3, r5
 1550 00ce ABD8     		bhi	.L62
 1551              	.L100:
 560:lib_DS1307/DS1307.c ****         }
 561:lib_DS1307/DS1307.c **** 
 562:lib_DS1307/DS1307.c ****     }
 563:lib_DS1307/DS1307.c **** 
 564:lib_DS1307/DS1307.c ****     /* Calculates current month value. tmpMonth variable increments
 565:lib_DS1307/DS1307.c ****      * while unixTime variable value is greater than time
 566:lib_DS1307/DS1307.c ****      * interval from beginning of current year to beginning of
 567:lib_DS1307/DS1307.c ****      * current month
 568:lib_DS1307/DS1307.c ****     */
 569:lib_DS1307/DS1307.c ****     tmpMonth = 1;
 1552              		.loc 1 569 0
 1553 00d0 0123     		mov	r3, #1
 1554 00d2 8C22     		mov	r2, #140
 1555 00d4 BA18     		add	r2, r7, r2
 1556 00d6 1360     		str	r3, [r2]
 570:lib_DS1307/DS1307.c ****     
 571:lib_DS1307/DS1307.c ****     uint32_t daysInMonth;
 572:lib_DS1307/DS1307.c ****     daysInMonth = DS1307_daysInMonthTbl[tmpMonth - 1u];
 1557              		.loc 1 572 0
 1558 00d8 8C23     		mov	r3, #140
 1559 00da FB18     		add	r3, r7, r3
 1560 00dc 1B68     		ldr	r3, [r3]
 1561 00de 5A1E     		sub	r2, r3, #1
 1562 00e0 9B4B     		ldr	r3, .L106+12
 1563 00e2 9B5C     		ldrb	r3, [r3, r2]
 1564 00e4 FB67     		str	r3, [r7, #124]
 573:lib_DS1307/DS1307.c ****     if((uint32)DS1307_FEBRUARY == tmpMonth)
 1565              		.loc 1 573 0
 1566 00e6 8C23     		mov	r3, #140
 1567 00e8 FB18     		add	r3, r7, r3
 1568 00ea 1B68     		ldr	r3, [r3]
 1569 00ec 022B     		cmp	r3, #2
 1570 00ee 23D1     		bne	.L64
 1571              	.LBB3:
 574:lib_DS1307/DS1307.c ****     {
 575:lib_DS1307/DS1307.c ****         /*Leap year*/
 576:lib_DS1307/DS1307.c ****         uint32_t leapYear;
 577:lib_DS1307/DS1307.c ****         if(((0u == (tmpYear % 4Lu)) && (0u != (tmpYear % 100Lu))) || (0u == (tmpYear % 400Lu)))
 1572              		.loc 1 577 0
 1573 00f0 8823     		mov	r3, #136
 1574 00f2 FB18     		add	r3, r7, r3
 1575 00f4 1A68     		ldr	r2, [r3]
ARM GAS  C:\Users\Petro\AppData\Local\Temp\ccPzTkZo.s 			page 39


 1576 00f6 0323     		mov	r3, #3
 1577 00f8 1340     		and	r3, r2
 1578 00fa 08D1     		bne	.L65
 1579              		.loc 1 577 0 is_stmt 0 discriminator 1
 1580 00fc 8823     		mov	r3, #136
 1581 00fe FB18     		add	r3, r7, r3
 1582 0100 1B68     		ldr	r3, [r3]
 1583 0102 181C     		mov	r0, r3
 1584 0104 6421     		mov	r1, #100
 1585 0106 FFF7FEFF 		bl	__aeabi_uidivmod
 1586 010a 0B1E     		sub	r3, r1, #0
 1587 010c 09D1     		bne	.L66
 1588              	.L65:
 1589              		.loc 1 577 0 discriminator 3
 1590 010e 8823     		mov	r3, #136
 1591 0110 FB18     		add	r3, r7, r3
 1592 0112 1B68     		ldr	r3, [r3]
 1593 0114 181C     		mov	r0, r3
 1594 0116 C823     		mov	r3, #200
 1595 0118 5900     		lsl	r1, r3, #1
 1596 011a FFF7FEFF 		bl	__aeabi_uidivmod
 1597 011e 0B1E     		sub	r3, r1, #0
 1598 0120 02D1     		bne	.L67
 1599              	.L66:
 578:lib_DS1307/DS1307.c ****         {
 579:lib_DS1307/DS1307.c ****             leapYear = 1uL;
 1600              		.loc 1 579 0 is_stmt 1
 1601 0122 0123     		mov	r3, #1
 1602 0124 BB67     		str	r3, [r7, #120]
 1603 0126 01E0     		b	.L68
 1604              	.L67:
 580:lib_DS1307/DS1307.c ****         }
 581:lib_DS1307/DS1307.c ****         else
 582:lib_DS1307/DS1307.c ****         {
 583:lib_DS1307/DS1307.c ****             leapYear = 0uL;
 1605              		.loc 1 583 0
 1606 0128 0023     		mov	r3, #0
 1607 012a BB67     		str	r3, [r7, #120]
 1608              	.L68:
 584:lib_DS1307/DS1307.c ****         }
 585:lib_DS1307/DS1307.c ****         
 586:lib_DS1307/DS1307.c ****         if(0u != leapYear)
 1609              		.loc 1 586 0
 1610 012c BB6F     		ldr	r3, [r7, #120]
 1611 012e 002B     		cmp	r3, #0
 1612 0130 02D0     		beq	.L64
 587:lib_DS1307/DS1307.c ****         {
 588:lib_DS1307/DS1307.c ****             daysInMonth++;
 1613              		.loc 1 588 0
 1614 0132 FB6F     		ldr	r3, [r7, #124]
 1615 0134 0133     		add	r3, r3, #1
 1616 0136 FB67     		str	r3, [r7, #124]
 1617              	.L64:
 1618              	.LBE3:
 589:lib_DS1307/DS1307.c ****         }
 590:lib_DS1307/DS1307.c ****     }
 591:lib_DS1307/DS1307.c ****     
ARM GAS  C:\Users\Petro\AppData\Local\Temp\ccPzTkZo.s 			page 40


 592:lib_DS1307/DS1307.c ****     /*days in month*/
 593:lib_DS1307/DS1307.c ****     daysInMonth = DS1307_daysInMonthTbl[tmpMonth - 1u];
 1619              		.loc 1 593 0
 1620 0138 8C23     		mov	r3, #140
 1621 013a FB18     		add	r3, r7, r3
 1622 013c 1B68     		ldr	r3, [r3]
 1623 013e 5A1E     		sub	r2, r3, #1
 1624 0140 834B     		ldr	r3, .L106+12
 1625 0142 9B5C     		ldrb	r3, [r3, r2]
 1626 0144 FB67     		str	r3, [r7, #124]
 594:lib_DS1307/DS1307.c ****     if((uint32)DS1307_FEBRUARY == tmpMonth)
 1627              		.loc 1 594 0
 1628 0146 8C23     		mov	r3, #140
 1629 0148 FB18     		add	r3, r7, r3
 1630 014a 1B68     		ldr	r3, [r3]
 1631 014c 022B     		cmp	r3, #2
 1632 014e 23D1     		bne	.L69
 1633              	.LBB4:
 595:lib_DS1307/DS1307.c ****     {
 596:lib_DS1307/DS1307.c ****         uint32_t leapYear;
 597:lib_DS1307/DS1307.c ****         if(((0u == (tmpYear % 4Lu)) && (0u != (tmpYear % 100Lu))) || (0u == (tmpYear % 400Lu)))
 1634              		.loc 1 597 0
 1635 0150 8823     		mov	r3, #136
 1636 0152 FB18     		add	r3, r7, r3
 1637 0154 1A68     		ldr	r2, [r3]
 1638 0156 0323     		mov	r3, #3
 1639 0158 1340     		and	r3, r2
 1640 015a 08D1     		bne	.L70
 1641              		.loc 1 597 0 is_stmt 0 discriminator 1
 1642 015c 8823     		mov	r3, #136
 1643 015e FB18     		add	r3, r7, r3
 1644 0160 1B68     		ldr	r3, [r3]
 1645 0162 181C     		mov	r0, r3
 1646 0164 6421     		mov	r1, #100
 1647 0166 FFF7FEFF 		bl	__aeabi_uidivmod
 1648 016a 0B1E     		sub	r3, r1, #0
 1649 016c 09D1     		bne	.L71
 1650              	.L70:
 1651              		.loc 1 597 0 discriminator 3
 1652 016e 8823     		mov	r3, #136
 1653 0170 FB18     		add	r3, r7, r3
 1654 0172 1B68     		ldr	r3, [r3]
 1655 0174 181C     		mov	r0, r3
 1656 0176 C823     		mov	r3, #200
 1657 0178 5900     		lsl	r1, r3, #1
 1658 017a FFF7FEFF 		bl	__aeabi_uidivmod
 1659 017e 0B1E     		sub	r3, r1, #0
 1660 0180 02D1     		bne	.L72
 1661              	.L71:
 598:lib_DS1307/DS1307.c ****         {
 599:lib_DS1307/DS1307.c ****             leapYear = 1uL;
 1662              		.loc 1 599 0 is_stmt 1
 1663 0182 0123     		mov	r3, #1
 1664 0184 7B67     		str	r3, [r7, #116]
 1665 0186 01E0     		b	.L73
 1666              	.L72:
 600:lib_DS1307/DS1307.c ****         }
ARM GAS  C:\Users\Petro\AppData\Local\Temp\ccPzTkZo.s 			page 41


 601:lib_DS1307/DS1307.c ****         else
 602:lib_DS1307/DS1307.c ****         {
 603:lib_DS1307/DS1307.c ****             leapYear = 0uL;
 1667              		.loc 1 603 0
 1668 0188 0023     		mov	r3, #0
 1669 018a 7B67     		str	r3, [r7, #116]
 1670              	.L73:
 604:lib_DS1307/DS1307.c ****         }
 605:lib_DS1307/DS1307.c ****         if(0u != leapYear)
 1671              		.loc 1 605 0
 1672 018c 7B6F     		ldr	r3, [r7, #116]
 1673 018e 002B     		cmp	r3, #0
 1674 0190 02D0     		beq	.L69
 606:lib_DS1307/DS1307.c ****         {
 607:lib_DS1307/DS1307.c ****             daysInMonth++;
 1675              		.loc 1 607 0
 1676 0192 FB6F     		ldr	r3, [r7, #124]
 1677 0194 0133     		add	r3, r3, #1
 1678 0196 FB67     		str	r3, [r7, #124]
 1679              	.L69:
 1680              	.LBE4:
 608:lib_DS1307/DS1307.c ****         }
 609:lib_DS1307/DS1307.c ****     }
 610:lib_DS1307/DS1307.c ****     tmpVar = daysInMonth * DS1307_SECONDS_PER_DAY;
 1681              		.loc 1 610 0
 1682 0198 FA6F     		ldr	r2, [r7, #124]
 1683 019a 6E4B     		ldr	r3, .L106+16
 1684 019c 5343     		mul	r3, r2
 1685 019e 8422     		mov	r2, #132
 1686 01a0 BA18     		add	r2, r7, r2
 1687 01a2 1360     		str	r3, [r2]
 611:lib_DS1307/DS1307.c **** 
 612:lib_DS1307/DS1307.c ****     while(unixTime >= tmpVar)
 1688              		.loc 1 612 0
 1689 01a4 4AE0     		b	.L74
 1690              	.L80:
 613:lib_DS1307/DS1307.c ****     {
 614:lib_DS1307/DS1307.c ****         unixTime -= tmpVar;
 1691              		.loc 1 614 0
 1692 01a6 8423     		mov	r3, #132
 1693 01a8 FB18     		add	r3, r7, r3
 1694 01aa 1B68     		ldr	r3, [r3]
 1695 01ac 3B60     		str	r3, [r7]
 1696 01ae 0023     		mov	r3, #0
 1697 01b0 7B60     		str	r3, [r7, #4]
 1698 01b2 BB6C     		ldr	r3, [r7, #72]
 1699 01b4 FC6C     		ldr	r4, [r7, #76]
 1700 01b6 3968     		ldr	r1, [r7]
 1701 01b8 7A68     		ldr	r2, [r7, #4]
 1702 01ba 5B1A     		sub	r3, r3, r1
 1703 01bc 9441     		sbc	r4, r4, r2
 1704 01be BB64     		str	r3, [r7, #72]
 1705 01c0 FC64     		str	r4, [r7, #76]
 615:lib_DS1307/DS1307.c ****         tmpMonth++;
 1706              		.loc 1 615 0
 1707 01c2 8C23     		mov	r3, #140
 1708 01c4 FB18     		add	r3, r7, r3
ARM GAS  C:\Users\Petro\AppData\Local\Temp\ccPzTkZo.s 			page 42


 1709 01c6 1B68     		ldr	r3, [r3]
 1710 01c8 0133     		add	r3, r3, #1
 1711 01ca 8C22     		mov	r2, #140
 1712 01cc BA18     		add	r2, r7, r2
 1713 01ce 1360     		str	r3, [r2]
 616:lib_DS1307/DS1307.c ****             /*days in month*/
 617:lib_DS1307/DS1307.c ****         daysInMonth = DS1307_daysInMonthTbl[tmpMonth - 1u];
 1714              		.loc 1 617 0
 1715 01d0 8C23     		mov	r3, #140
 1716 01d2 FB18     		add	r3, r7, r3
 1717 01d4 1B68     		ldr	r3, [r3]
 1718 01d6 5A1E     		sub	r2, r3, #1
 1719 01d8 5D4B     		ldr	r3, .L106+12
 1720 01da 9B5C     		ldrb	r3, [r3, r2]
 1721 01dc FB67     		str	r3, [r7, #124]
 618:lib_DS1307/DS1307.c ****         if((uint32)DS1307_FEBRUARY == tmpMonth)
 1722              		.loc 1 618 0
 1723 01de 8C23     		mov	r3, #140
 1724 01e0 FB18     		add	r3, r7, r3
 1725 01e2 1B68     		ldr	r3, [r3]
 1726 01e4 022B     		cmp	r3, #2
 1727 01e6 23D1     		bne	.L75
 1728              	.LBB5:
 619:lib_DS1307/DS1307.c ****         {
 620:lib_DS1307/DS1307.c ****             uint32_t leapYear;
 621:lib_DS1307/DS1307.c ****             if(((0u == (tmpYear % 4Lu)) && (0u != (tmpYear % 100Lu))) || (0u == (tmpYear % 400Lu)))
 1729              		.loc 1 621 0
 1730 01e8 8823     		mov	r3, #136
 1731 01ea FB18     		add	r3, r7, r3
 1732 01ec 1A68     		ldr	r2, [r3]
 1733 01ee 0323     		mov	r3, #3
 1734 01f0 1340     		and	r3, r2
 1735 01f2 08D1     		bne	.L76
 1736              		.loc 1 621 0 is_stmt 0 discriminator 1
 1737 01f4 8823     		mov	r3, #136
 1738 01f6 FB18     		add	r3, r7, r3
 1739 01f8 1B68     		ldr	r3, [r3]
 1740 01fa 181C     		mov	r0, r3
 1741 01fc 6421     		mov	r1, #100
 1742 01fe FFF7FEFF 		bl	__aeabi_uidivmod
 1743 0202 0B1E     		sub	r3, r1, #0
 1744 0204 09D1     		bne	.L77
 1745              	.L76:
 1746              		.loc 1 621 0 discriminator 3
 1747 0206 8823     		mov	r3, #136
 1748 0208 FB18     		add	r3, r7, r3
 1749 020a 1B68     		ldr	r3, [r3]
 1750 020c 181C     		mov	r0, r3
 1751 020e C823     		mov	r3, #200
 1752 0210 5900     		lsl	r1, r3, #1
 1753 0212 FFF7FEFF 		bl	__aeabi_uidivmod
 1754 0216 0B1E     		sub	r3, r1, #0
 1755 0218 02D1     		bne	.L78
 1756              	.L77:
 622:lib_DS1307/DS1307.c ****             {
 623:lib_DS1307/DS1307.c ****                 leapYear = 1uL;
 1757              		.loc 1 623 0 is_stmt 1
ARM GAS  C:\Users\Petro\AppData\Local\Temp\ccPzTkZo.s 			page 43


 1758 021a 0123     		mov	r3, #1
 1759 021c 3B67     		str	r3, [r7, #112]
 1760 021e 01E0     		b	.L79
 1761              	.L78:
 624:lib_DS1307/DS1307.c ****             }
 625:lib_DS1307/DS1307.c ****             else
 626:lib_DS1307/DS1307.c ****             {
 627:lib_DS1307/DS1307.c ****                 leapYear = 0uL;
 1762              		.loc 1 627 0
 1763 0220 0023     		mov	r3, #0
 1764 0222 3B67     		str	r3, [r7, #112]
 1765              	.L79:
 628:lib_DS1307/DS1307.c ****             }
 629:lib_DS1307/DS1307.c ****             if(0u != leapYear)
 1766              		.loc 1 629 0
 1767 0224 3B6F     		ldr	r3, [r7, #112]
 1768 0226 002B     		cmp	r3, #0
 1769 0228 02D0     		beq	.L75
 630:lib_DS1307/DS1307.c ****             {
 631:lib_DS1307/DS1307.c ****                daysInMonth++;
 1770              		.loc 1 631 0
 1771 022a FB6F     		ldr	r3, [r7, #124]
 1772 022c 0133     		add	r3, r3, #1
 1773 022e FB67     		str	r3, [r7, #124]
 1774              	.L75:
 1775              	.LBE5:
 632:lib_DS1307/DS1307.c ****             }
 633:lib_DS1307/DS1307.c ****         }
 634:lib_DS1307/DS1307.c ****             tmpVar = daysInMonth * DS1307_SECONDS_PER_DAY;
 1776              		.loc 1 634 0
 1777 0230 FA6F     		ldr	r2, [r7, #124]
 1778 0232 484B     		ldr	r3, .L106+16
 1779 0234 5343     		mul	r3, r2
 1780 0236 8422     		mov	r2, #132
 1781 0238 BA18     		add	r2, r7, r2
 1782 023a 1360     		str	r3, [r2]
 1783              	.L74:
 612:lib_DS1307/DS1307.c ****     {
 1784              		.loc 1 612 0
 1785 023c 8423     		mov	r3, #132
 1786 023e FB18     		add	r3, r7, r3
 1787 0240 1B68     		ldr	r3, [r3]
 1788 0242 3B64     		str	r3, [r7, #64]
 1789 0244 0023     		mov	r3, #0
 1790 0246 7B64     		str	r3, [r7, #68]
 1791 0248 FB6C     		ldr	r3, [r7, #76]
 1792 024a 7A6C     		ldr	r2, [r7, #68]
 1793 024c 9342     		cmp	r3, r2
 1794 024e 07D3     		bcc	.L101
 1795 0250 FB6C     		ldr	r3, [r7, #76]
 1796 0252 7A6C     		ldr	r2, [r7, #68]
 1797 0254 9342     		cmp	r3, r2
 1798 0256 A6D1     		bne	.L80
 1799 0258 BB6C     		ldr	r3, [r7, #72]
 1800 025a 3A6C     		ldr	r2, [r7, #64]
 1801 025c 9342     		cmp	r3, r2
 1802 025e A2D2     		bcs	.L80
ARM GAS  C:\Users\Petro\AppData\Local\Temp\ccPzTkZo.s 			page 44


 1803              	.L101:
 635:lib_DS1307/DS1307.c ****         }
 636:lib_DS1307/DS1307.c **** 
 637:lib_DS1307/DS1307.c ****     /* Calculates current day value. */
 638:lib_DS1307/DS1307.c ****     tmpDay = (unixTime / DS1307_SECONDS_PER_DAY);
 1804              		.loc 1 638 0
 1805 0260 BB6C     		ldr	r3, [r7, #72]
 1806 0262 FC6C     		ldr	r4, [r7, #76]
 1807 0264 181C     		mov	r0, r3
 1808 0266 211C     		mov	r1, r4
 1809 0268 3A4A     		ldr	r2, .L106+16
 1810 026a 0023     		mov	r3, #0
 1811 026c FFF7FEFF 		bl	__aeabi_uldivmod
 1812 0270 031C     		mov	r3, r0
 1813 0272 0C1C     		mov	r4, r1
 1814 0274 3B66     		str	r3, [r7, #96]
 639:lib_DS1307/DS1307.c ****     tmpVar = tmpDay * DS1307_SECONDS_PER_DAY;
 1815              		.loc 1 639 0
 1816 0276 3A6E     		ldr	r2, [r7, #96]
 1817 0278 364B     		ldr	r3, .L106+16
 1818 027a 5343     		mul	r3, r2
 1819 027c 8422     		mov	r2, #132
 1820 027e BA18     		add	r2, r7, r2
 1821 0280 1360     		str	r3, [r2]
 640:lib_DS1307/DS1307.c ****     unixTime -= (unixTime >= tmpVar) ? tmpVar : 0u;
 1822              		.loc 1 640 0
 1823 0282 8423     		mov	r3, #132
 1824 0284 FB18     		add	r3, r7, r3
 1825 0286 1B68     		ldr	r3, [r3]
 1826 0288 BB63     		str	r3, [r7, #56]
 1827 028a 0023     		mov	r3, #0
 1828 028c FB63     		str	r3, [r7, #60]
 1829 028e FB6C     		ldr	r3, [r7, #76]
 1830 0290 FA6B     		ldr	r2, [r7, #60]
 1831 0292 9342     		cmp	r3, r2
 1832 0294 0ED3     		bcc	.L82
 1833 0296 FB6C     		ldr	r3, [r7, #76]
 1834 0298 FA6B     		ldr	r2, [r7, #60]
 1835 029a 9342     		cmp	r3, r2
 1836 029c 03D1     		bne	.L102
 1837 029e BB6C     		ldr	r3, [r7, #72]
 1838 02a0 BA6B     		ldr	r2, [r7, #56]
 1839 02a2 9342     		cmp	r3, r2
 1840 02a4 06D3     		bcc	.L82
 1841              	.L102:
 1842              		.loc 1 640 0 is_stmt 0 discriminator 1
 1843 02a6 8423     		mov	r3, #132
 1844 02a8 FB18     		add	r3, r7, r3
 1845 02aa 1B68     		ldr	r3, [r3]
 1846 02ac 3B62     		str	r3, [r7, #32]
 1847 02ae 0023     		mov	r3, #0
 1848 02b0 7B62     		str	r3, [r7, #36]
 1849 02b2 03E0     		b	.L84
 1850              	.L82:
 1851              		.loc 1 640 0 discriminator 2
 1852 02b4 0023     		mov	r3, #0
 1853 02b6 0024     		mov	r4, #0
ARM GAS  C:\Users\Petro\AppData\Local\Temp\ccPzTkZo.s 			page 45


 1854 02b8 3B62     		str	r3, [r7, #32]
 1855 02ba 7C62     		str	r4, [r7, #36]
 1856              	.L84:
 1857              		.loc 1 640 0 discriminator 4
 1858 02bc BB6C     		ldr	r3, [r7, #72]
 1859 02be FC6C     		ldr	r4, [r7, #76]
 1860 02c0 396A     		ldr	r1, [r7, #32]
 1861 02c2 7A6A     		ldr	r2, [r7, #36]
 1862 02c4 5B1A     		sub	r3, r3, r1
 1863 02c6 9441     		sbc	r4, r4, r2
 1864 02c8 BB64     		str	r3, [r7, #72]
 1865 02ca FC64     		str	r4, [r7, #76]
 641:lib_DS1307/DS1307.c ****     tmpDay += 1u;
 1866              		.loc 1 641 0 is_stmt 1 discriminator 4
 1867 02cc 3B6E     		ldr	r3, [r7, #96]
 1868 02ce 0133     		add	r3, r3, #1
 1869 02d0 3B66     		str	r3, [r7, #96]
 642:lib_DS1307/DS1307.c **** 
 643:lib_DS1307/DS1307.c ****     /* Calculates current hour value. If function works in 12-Hour mode,
 644:lib_DS1307/DS1307.c ****      * it converts time to 12-Hours mode and calculates AmPm status */
 645:lib_DS1307/DS1307.c ****     tmpHour = unixTime / DS1307_SECONDS_PER_HOUR;
 1870              		.loc 1 645 0 discriminator 4
 1871 02d2 BB6C     		ldr	r3, [r7, #72]
 1872 02d4 FC6C     		ldr	r4, [r7, #76]
 1873 02d6 181C     		mov	r0, r3
 1874 02d8 211C     		mov	r1, r4
 1875 02da E122     		mov	r2, #225
 1876 02dc 1201     		lsl	r2, r2, #4
 1877 02de 0023     		mov	r3, #0
 1878 02e0 FFF7FEFF 		bl	__aeabi_uldivmod
 1879 02e4 031C     		mov	r3, r0
 1880 02e6 0C1C     		mov	r4, r1
 1881 02e8 9422     		mov	r2, #148
 1882 02ea BA18     		add	r2, r7, r2
 1883 02ec 1360     		str	r3, [r2]
 646:lib_DS1307/DS1307.c ****     tmpVar  = tmpHour * DS1307_SECONDS_PER_HOUR;
 1884              		.loc 1 646 0 discriminator 4
 1885 02ee 9423     		mov	r3, #148
 1886 02f0 FB18     		add	r3, r7, r3
 1887 02f2 1B68     		ldr	r3, [r3]
 1888 02f4 E122     		mov	r2, #225
 1889 02f6 1201     		lsl	r2, r2, #4
 1890 02f8 5343     		mul	r3, r2
 1891 02fa 8422     		mov	r2, #132
 1892 02fc BA18     		add	r2, r7, r2
 1893 02fe 1360     		str	r3, [r2]
 647:lib_DS1307/DS1307.c ****     if((uint32)DS1307_24TIME_FORMAT != timeFormat)
 1894              		.loc 1 647 0 discriminator 4
 1895 0300 7B6E     		ldr	r3, [r7, #100]
 1896 0302 002B     		cmp	r3, #0
 1897 0304 3BD0     		beq	.L85
 648:lib_DS1307/DS1307.c ****     {
 649:lib_DS1307/DS1307.c ****         if(unixTime > DS1307_UNIX_TIME_PM)
 1898              		.loc 1 649 0
 1899 0306 FB6C     		ldr	r3, [r7, #76]
 1900 0308 002B     		cmp	r3, #0
 1901 030a 06D1     		bne	.L103
ARM GAS  C:\Users\Petro\AppData\Local\Temp\ccPzTkZo.s 			page 46


 1902 030c FB6C     		ldr	r3, [r7, #76]
 1903 030e 002B     		cmp	r3, #0
 1904 0310 24D1     		bne	.L86
 1905 0312 BB6C     		ldr	r3, [r7, #72]
 1906 0314 104A     		ldr	r2, .L106+20
 1907 0316 9342     		cmp	r3, r2
 1908 0318 20D9     		bls	.L86
 1909              	.L103:
 650:lib_DS1307/DS1307.c ****         {
 651:lib_DS1307/DS1307.c ****             tmpAmPmState = !DS1307_PM;
 1910              		.loc 1 651 0
 1911 031a 0023     		mov	r3, #0
 1912 031c 9022     		mov	r2, #144
 1913 031e BA18     		add	r2, r7, r2
 1914 0320 1360     		str	r3, [r2]
 652:lib_DS1307/DS1307.c ****             tmpHour = (tmpHour > 12u) ? (tmpHour - 12u) : tmpHour;
 1915              		.loc 1 652 0
 1916 0322 9423     		mov	r3, #148
 1917 0324 FB18     		add	r3, r7, r3
 1918 0326 1B68     		ldr	r3, [r3]
 1919 0328 0C2B     		cmp	r3, #12
 1920 032a 04D9     		bls	.L88
 1921              		.loc 1 652 0 is_stmt 0 discriminator 1
 1922 032c 9423     		mov	r3, #148
 1923 032e FB18     		add	r3, r7, r3
 1924 0330 1B68     		ldr	r3, [r3]
 1925 0332 0C3B     		sub	r3, r3, #12
 1926 0334 02E0     		b	.L89
 1927              	.L88:
 1928              		.loc 1 652 0 discriminator 2
 1929 0336 9423     		mov	r3, #148
 1930 0338 FB18     		add	r3, r7, r3
 1931 033a 1B68     		ldr	r3, [r3]
 1932              	.L89:
 1933              		.loc 1 652 0 discriminator 4
 1934 033c 9422     		mov	r2, #148
 1935 033e BA18     		add	r2, r7, r2
 1936 0340 1360     		str	r3, [r2]
 1937 0342 1CE0     		b	.L85
 1938              	.L107:
 1939              		.align	2
 1940              	.L106:
 1941 0344 B2070000 		.word	1970
 1942 0348 8033E101 		.word	31536000
 1943 034c 0085E201 		.word	31622400
 1944 0350 18000000 		.word	DS1307_daysInMonthTbl
 1945 0354 80510100 		.word	86400
 1946 0358 C1A80000 		.word	43201
 1947              	.L86:
 653:lib_DS1307/DS1307.c ****         }
 654:lib_DS1307/DS1307.c ****         else
 655:lib_DS1307/DS1307.c ****         {
 656:lib_DS1307/DS1307.c ****             tmpAmPmState = !DS1307_AM;
 1948              		.loc 1 656 0 is_stmt 1
 1949 035c 0123     		mov	r3, #1
 1950 035e 9022     		mov	r2, #144
 1951 0360 BA18     		add	r2, r7, r2
ARM GAS  C:\Users\Petro\AppData\Local\Temp\ccPzTkZo.s 			page 47


 1952 0362 1360     		str	r3, [r2]
 657:lib_DS1307/DS1307.c ****             tmpHour = (0u != tmpHour) ? tmpHour : 12u;
 1953              		.loc 1 657 0
 1954 0364 9423     		mov	r3, #148
 1955 0366 FB18     		add	r3, r7, r3
 1956 0368 1B68     		ldr	r3, [r3]
 1957 036a 002B     		cmp	r3, #0
 1958 036c 03D0     		beq	.L90
 1959              		.loc 1 657 0 is_stmt 0 discriminator 1
 1960 036e 9423     		mov	r3, #148
 1961 0370 FB18     		add	r3, r7, r3
 1962 0372 1B68     		ldr	r3, [r3]
 1963 0374 00E0     		b	.L91
 1964              	.L90:
 1965              		.loc 1 657 0 discriminator 2
 1966 0376 0C23     		mov	r3, #12
 1967              	.L91:
 1968              		.loc 1 657 0 discriminator 4
 1969 0378 9422     		mov	r2, #148
 1970 037a BA18     		add	r2, r7, r2
 1971 037c 1360     		str	r3, [r2]
 1972              	.L85:
 658:lib_DS1307/DS1307.c ****         }
 659:lib_DS1307/DS1307.c ****     }
 660:lib_DS1307/DS1307.c ****     unixTime -= (unixTime >= tmpVar) ? tmpVar : 0u;
 1973              		.loc 1 660 0 is_stmt 1
 1974 037e 8423     		mov	r3, #132
 1975 0380 FB18     		add	r3, r7, r3
 1976 0382 1B68     		ldr	r3, [r3]
 1977 0384 3B63     		str	r3, [r7, #48]
 1978 0386 0023     		mov	r3, #0
 1979 0388 7B63     		str	r3, [r7, #52]
 1980 038a FB6C     		ldr	r3, [r7, #76]
 1981 038c 7A6B     		ldr	r2, [r7, #52]
 1982 038e 9342     		cmp	r3, r2
 1983 0390 0ED3     		bcc	.L92
 1984 0392 FB6C     		ldr	r3, [r7, #76]
 1985 0394 7A6B     		ldr	r2, [r7, #52]
 1986 0396 9342     		cmp	r3, r2
 1987 0398 03D1     		bne	.L104
 1988 039a BB6C     		ldr	r3, [r7, #72]
 1989 039c 3A6B     		ldr	r2, [r7, #48]
 1990 039e 9342     		cmp	r3, r2
 1991 03a0 06D3     		bcc	.L92
 1992              	.L104:
 1993              		.loc 1 660 0 is_stmt 0 discriminator 1
 1994 03a2 8423     		mov	r3, #132
 1995 03a4 FB18     		add	r3, r7, r3
 1996 03a6 1B68     		ldr	r3, [r3]
 1997 03a8 BB61     		str	r3, [r7, #24]
 1998 03aa 0023     		mov	r3, #0
 1999 03ac FB61     		str	r3, [r7, #28]
 2000 03ae 03E0     		b	.L94
 2001              	.L92:
 2002              		.loc 1 660 0 discriminator 2
 2003 03b0 0023     		mov	r3, #0
 2004 03b2 0024     		mov	r4, #0
ARM GAS  C:\Users\Petro\AppData\Local\Temp\ccPzTkZo.s 			page 48


 2005 03b4 BB61     		str	r3, [r7, #24]
 2006 03b6 FC61     		str	r4, [r7, #28]
 2007              	.L94:
 2008              		.loc 1 660 0 discriminator 4
 2009 03b8 BB6C     		ldr	r3, [r7, #72]
 2010 03ba FC6C     		ldr	r4, [r7, #76]
 2011 03bc B969     		ldr	r1, [r7, #24]
 2012 03be FA69     		ldr	r2, [r7, #28]
 2013 03c0 5B1A     		sub	r3, r3, r1
 2014 03c2 9441     		sbc	r4, r4, r2
 2015 03c4 BB64     		str	r3, [r7, #72]
 2016 03c6 FC64     		str	r4, [r7, #76]
 661:lib_DS1307/DS1307.c **** 
 662:lib_DS1307/DS1307.c ****     /* Calculates current minute.  */
 663:lib_DS1307/DS1307.c ****     tmpMinute = unixTime / DS1307_SECONDS_PER_MINUTE;
 2017              		.loc 1 663 0 is_stmt 1 discriminator 4
 2018 03c8 BB6C     		ldr	r3, [r7, #72]
 2019 03ca FC6C     		ldr	r4, [r7, #76]
 2020 03cc 181C     		mov	r0, r3
 2021 03ce 211C     		mov	r1, r4
 2022 03d0 3C22     		mov	r2, #60
 2023 03d2 0023     		mov	r3, #0
 2024 03d4 FFF7FEFF 		bl	__aeabi_uldivmod
 2025 03d8 031C     		mov	r3, r0
 2026 03da 0C1C     		mov	r4, r1
 2027 03dc FB65     		str	r3, [r7, #92]
 664:lib_DS1307/DS1307.c ****     tmpVar = tmpMinute * DS1307_SECONDS_PER_MINUTE;
 2028              		.loc 1 664 0 discriminator 4
 2029 03de FA6D     		ldr	r2, [r7, #92]
 2030 03e0 131C     		mov	r3, r2
 2031 03e2 1B01     		lsl	r3, r3, #4
 2032 03e4 9B1A     		sub	r3, r3, r2
 2033 03e6 9B00     		lsl	r3, r3, #2
 2034 03e8 8422     		mov	r2, #132
 2035 03ea BA18     		add	r2, r7, r2
 2036 03ec 1360     		str	r3, [r2]
 665:lib_DS1307/DS1307.c **** 
 666:lib_DS1307/DS1307.c ****     /* Calculates current second. */
 667:lib_DS1307/DS1307.c ****     unixTime -= (unixTime >= tmpVar) ? tmpVar : 0u;
 2037              		.loc 1 667 0 discriminator 4
 2038 03ee 8423     		mov	r3, #132
 2039 03f0 FB18     		add	r3, r7, r3
 2040 03f2 1B68     		ldr	r3, [r3]
 2041 03f4 BB62     		str	r3, [r7, #40]
 2042 03f6 0023     		mov	r3, #0
 2043 03f8 FB62     		str	r3, [r7, #44]
 2044 03fa FB6C     		ldr	r3, [r7, #76]
 2045 03fc FA6A     		ldr	r2, [r7, #44]
 2046 03fe 9342     		cmp	r3, r2
 2047 0400 0ED3     		bcc	.L95
 2048 0402 FB6C     		ldr	r3, [r7, #76]
 2049 0404 FA6A     		ldr	r2, [r7, #44]
 2050 0406 9342     		cmp	r3, r2
 2051 0408 03D1     		bne	.L105
 2052 040a BB6C     		ldr	r3, [r7, #72]
 2053 040c BA6A     		ldr	r2, [r7, #40]
 2054 040e 9342     		cmp	r3, r2
ARM GAS  C:\Users\Petro\AppData\Local\Temp\ccPzTkZo.s 			page 49


 2055 0410 06D3     		bcc	.L95
 2056              	.L105:
 2057              		.loc 1 667 0 is_stmt 0 discriminator 1
 2058 0412 8423     		mov	r3, #132
 2059 0414 FB18     		add	r3, r7, r3
 2060 0416 1B68     		ldr	r3, [r3]
 2061 0418 3B61     		str	r3, [r7, #16]
 2062 041a 0023     		mov	r3, #0
 2063 041c 7B61     		str	r3, [r7, #20]
 2064 041e 03E0     		b	.L97
 2065              	.L95:
 2066              		.loc 1 667 0 discriminator 2
 2067 0420 0023     		mov	r3, #0
 2068 0422 0024     		mov	r4, #0
 2069 0424 3B61     		str	r3, [r7, #16]
 2070 0426 7C61     		str	r4, [r7, #20]
 2071              	.L97:
 2072              		.loc 1 667 0 discriminator 4
 2073 0428 BB6C     		ldr	r3, [r7, #72]
 2074 042a FC6C     		ldr	r4, [r7, #76]
 2075 042c 3969     		ldr	r1, [r7, #16]
 2076 042e 7A69     		ldr	r2, [r7, #20]
 2077 0430 5B1A     		sub	r3, r3, r1
 2078 0432 9441     		sbc	r4, r4, r2
 2079 0434 BB64     		str	r3, [r7, #72]
 2080 0436 FC64     		str	r4, [r7, #76]
 668:lib_DS1307/DS1307.c ****     
 669:lib_DS1307/DS1307.c ****     /*construct date*/
 670:lib_DS1307/DS1307.c ****     uint32_t tmpDate;
 671:lib_DS1307/DS1307.c ****     uint32 tmpVal = tmpYear;
 2081              		.loc 1 671 0 is_stmt 1 discriminator 4
 2082 0438 8823     		mov	r3, #136
 2083 043a FB18     		add	r3, r7, r3
 2084 043c 1B68     		ldr	r3, [r3]
 2085 043e BB65     		str	r3, [r7, #88]
 672:lib_DS1307/DS1307.c ****     tmpDate  = (tmpMonth / 10u) << DS1307_10_MONTH_OFFSET;
 2086              		.loc 1 672 0 discriminator 4
 2087 0440 8C23     		mov	r3, #140
 2088 0442 FB18     		add	r3, r7, r3
 2089 0444 1B68     		ldr	r3, [r3]
 2090 0446 181C     		mov	r0, r3
 2091 0448 0A21     		mov	r1, #10
 2092 044a FFF7FEFF 		bl	__aeabi_uidiv
 2093 044e 031C     		mov	r3, r0
 2094 0450 1B07     		lsl	r3, r3, #28
 2095 0452 7B65     		str	r3, [r7, #84]
 673:lib_DS1307/DS1307.c ****     tmpDate |= (tmpMonth % 10u) << DS1307_MONTH_OFFSET;
 2096              		.loc 1 673 0 discriminator 4
 2097 0454 8C23     		mov	r3, #140
 2098 0456 FB18     		add	r3, r7, r3
 2099 0458 1B68     		ldr	r3, [r3]
 2100 045a 181C     		mov	r0, r3
 2101 045c 0A21     		mov	r1, #10
 2102 045e FFF7FEFF 		bl	__aeabi_uidivmod
 2103 0462 0B1C     		mov	r3, r1
 2104 0464 1B06     		lsl	r3, r3, #24
 2105 0466 7A6D     		ldr	r2, [r7, #84]
ARM GAS  C:\Users\Petro\AppData\Local\Temp\ccPzTkZo.s 			page 50


 2106 0468 1343     		orr	r3, r2
 2107 046a 7B65     		str	r3, [r7, #84]
 674:lib_DS1307/DS1307.c **** 
 675:lib_DS1307/DS1307.c ****     tmpDate |= (tmpDay / 10u) << DS1307_10_DAY_OFFSET;
 2108              		.loc 1 675 0 discriminator 4
 2109 046c 3B6E     		ldr	r3, [r7, #96]
 2110 046e 181C     		mov	r0, r3
 2111 0470 0A21     		mov	r1, #10
 2112 0472 FFF7FEFF 		bl	__aeabi_uidiv
 2113 0476 031C     		mov	r3, r0
 2114 0478 1B05     		lsl	r3, r3, #20
 2115 047a 7A6D     		ldr	r2, [r7, #84]
 2116 047c 1343     		orr	r3, r2
 2117 047e 7B65     		str	r3, [r7, #84]
 676:lib_DS1307/DS1307.c ****     tmpDate |= (tmpDay % 10u) << DS1307_DAY_OFFSET;
 2118              		.loc 1 676 0 discriminator 4
 2119 0480 3B6E     		ldr	r3, [r7, #96]
 2120 0482 181C     		mov	r0, r3
 2121 0484 0A21     		mov	r1, #10
 2122 0486 FFF7FEFF 		bl	__aeabi_uidivmod
 2123 048a 0B1C     		mov	r3, r1
 2124 048c 1B04     		lsl	r3, r3, #16
 2125 048e 7A6D     		ldr	r2, [r7, #84]
 2126 0490 1343     		orr	r3, r2
 2127 0492 7B65     		str	r3, [r7, #84]
 677:lib_DS1307/DS1307.c **** 
 678:lib_DS1307/DS1307.c ****     tmpDate |= (tmpYear / 1000u) << DS1307_1000_YEAR_OFFSET;
 2128              		.loc 1 678 0 discriminator 4
 2129 0494 8823     		mov	r3, #136
 2130 0496 FB18     		add	r3, r7, r3
 2131 0498 1B68     		ldr	r3, [r3]
 2132 049a 181C     		mov	r0, r3
 2133 049c FA23     		mov	r3, #250
 2134 049e 9900     		lsl	r1, r3, #2
 2135 04a0 FFF7FEFF 		bl	__aeabi_uidiv
 2136 04a4 031C     		mov	r3, r0
 2137 04a6 1B03     		lsl	r3, r3, #12
 2138 04a8 7A6D     		ldr	r2, [r7, #84]
 2139 04aa 1343     		orr	r3, r2
 2140 04ac 7B65     		str	r3, [r7, #84]
 679:lib_DS1307/DS1307.c ****     tmpVal %= 1000u;
 2141              		.loc 1 679 0 discriminator 4
 2142 04ae BB6D     		ldr	r3, [r7, #88]
 2143 04b0 181C     		mov	r0, r3
 2144 04b2 FA23     		mov	r3, #250
 2145 04b4 9900     		lsl	r1, r3, #2
 2146 04b6 FFF7FEFF 		bl	__aeabi_uidivmod
 2147 04ba 0B1C     		mov	r3, r1
 2148 04bc BB65     		str	r3, [r7, #88]
 680:lib_DS1307/DS1307.c **** 
 681:lib_DS1307/DS1307.c ****     tmpDate |= (tmpVal / 100u) << DS1307_100_YEAR_OFFSET;
 2149              		.loc 1 681 0 discriminator 4
 2150 04be BB6D     		ldr	r3, [r7, #88]
 2151 04c0 181C     		mov	r0, r3
 2152 04c2 6421     		mov	r1, #100
 2153 04c4 FFF7FEFF 		bl	__aeabi_uidiv
 2154 04c8 031C     		mov	r3, r0
ARM GAS  C:\Users\Petro\AppData\Local\Temp\ccPzTkZo.s 			page 51


 2155 04ca 1B02     		lsl	r3, r3, #8
 2156 04cc 7A6D     		ldr	r2, [r7, #84]
 2157 04ce 1343     		orr	r3, r2
 2158 04d0 7B65     		str	r3, [r7, #84]
 682:lib_DS1307/DS1307.c ****     tmpVal %= 100u;
 2159              		.loc 1 682 0 discriminator 4
 2160 04d2 BB6D     		ldr	r3, [r7, #88]
 2161 04d4 181C     		mov	r0, r3
 2162 04d6 6421     		mov	r1, #100
 2163 04d8 FFF7FEFF 		bl	__aeabi_uidivmod
 2164 04dc 0B1C     		mov	r3, r1
 2165 04de BB65     		str	r3, [r7, #88]
 683:lib_DS1307/DS1307.c **** 
 684:lib_DS1307/DS1307.c ****     tmpDate |= (tmpVal / 10u) << DS1307_10_YEAR_OFFSET;
 2166              		.loc 1 684 0 discriminator 4
 2167 04e0 BB6D     		ldr	r3, [r7, #88]
 2168 04e2 181C     		mov	r0, r3
 2169 04e4 0A21     		mov	r1, #10
 2170 04e6 FFF7FEFF 		bl	__aeabi_uidiv
 2171 04ea 031C     		mov	r3, r0
 2172 04ec 1B01     		lsl	r3, r3, #4
 2173 04ee 7A6D     		ldr	r2, [r7, #84]
 2174 04f0 1343     		orr	r3, r2
 2175 04f2 7B65     		str	r3, [r7, #84]
 685:lib_DS1307/DS1307.c ****     tmpDate |= (tmpVal % 10u) << DS1307_YEAR_OFFSET;
 2176              		.loc 1 685 0 discriminator 4
 2177 04f4 BB6D     		ldr	r3, [r7, #88]
 2178 04f6 181C     		mov	r0, r3
 2179 04f8 0A21     		mov	r1, #10
 2180 04fa FFF7FEFF 		bl	__aeabi_uidivmod
 2181 04fe 0B1C     		mov	r3, r1
 2182 0500 1A1C     		mov	r2, r3
 2183 0502 7B6D     		ldr	r3, [r7, #84]
 2184 0504 1343     		orr	r3, r2
 2185 0506 7B65     		str	r3, [r7, #84]
 686:lib_DS1307/DS1307.c ****     
 687:lib_DS1307/DS1307.c ****     /*day of week*/
 688:lib_DS1307/DS1307.c ****     uint32_t dayOfWeek;
 689:lib_DS1307/DS1307.c ****     uint32_t year;
 690:lib_DS1307/DS1307.c ****     year = tmpYear;
 2186              		.loc 1 690 0 discriminator 4
 2187 0508 8823     		mov	r3, #136
 2188 050a FB18     		add	r3, r7, r3
 2189 050c 1B68     		ldr	r3, [r3]
 2190 050e BB66     		str	r3, [r7, #104]
 691:lib_DS1307/DS1307.c ****     if(tmpMonth < (uint32)DS1307_MARCH)
 2191              		.loc 1 691 0 discriminator 4
 2192 0510 8C23     		mov	r3, #140
 2193 0512 FB18     		add	r3, r7, r3
 2194 0514 1B68     		ldr	r3, [r3]
 2195 0516 022B     		cmp	r3, #2
 2196 0518 09D8     		bhi	.L98
 692:lib_DS1307/DS1307.c ****     {
 693:lib_DS1307/DS1307.c ****         tmpMonth = 12u + tmpMonth;
 2197              		.loc 1 693 0
 2198 051a 8C23     		mov	r3, #140
 2199 051c FB18     		add	r3, r7, r3
ARM GAS  C:\Users\Petro\AppData\Local\Temp\ccPzTkZo.s 			page 52


 2200 051e 1B68     		ldr	r3, [r3]
 2201 0520 0C33     		add	r3, r3, #12
 2202 0522 8C22     		mov	r2, #140
 2203 0524 BA18     		add	r2, r7, r2
 2204 0526 1360     		str	r3, [r2]
 694:lib_DS1307/DS1307.c ****         year--;
 2205              		.loc 1 694 0
 2206 0528 BB6E     		ldr	r3, [r7, #104]
 2207 052a 013B     		sub	r3, r3, #1
 2208 052c BB66     		str	r3, [r7, #104]
 2209              	.L98:
 695:lib_DS1307/DS1307.c ****     }
 696:lib_DS1307/DS1307.c ****     /* Calculates Day of Week using Zeller's congruence algorithms.
 697:lib_DS1307/DS1307.c ****     */
 698:lib_DS1307/DS1307.c ****     dayOfWeek = (tmpDay + (((tmpMonth + 1u) * 26u) / 10u) + year + (year / 4u) + (6u * (year / 100u
 2210              		.loc 1 698 0
 2211 052e 8C23     		mov	r3, #140
 2212 0530 FB18     		add	r3, r7, r3
 2213 0532 1B68     		ldr	r3, [r3]
 2214 0534 0133     		add	r3, r3, #1
 2215 0536 1A22     		mov	r2, #26
 2216 0538 5343     		mul	r3, r2
 2217 053a 181C     		mov	r0, r3
 2218 053c 0A21     		mov	r1, #10
 2219 053e FFF7FEFF 		bl	__aeabi_uidiv
 2220 0542 031C     		mov	r3, r0
 2221 0544 1A1C     		mov	r2, r3
 2222 0546 3B6E     		ldr	r3, [r7, #96]
 2223 0548 D218     		add	r2, r2, r3
 2224 054a BB6E     		ldr	r3, [r7, #104]
 2225 054c D218     		add	r2, r2, r3
 2226 054e BB6E     		ldr	r3, [r7, #104]
 2227 0550 9B08     		lsr	r3, r3, #2
 2228 0552 D418     		add	r4, r2, r3
 2229 0554 BB6E     		ldr	r3, [r7, #104]
 2230 0556 181C     		mov	r0, r3
 2231 0558 6421     		mov	r1, #100
 2232 055a FFF7FEFF 		bl	__aeabi_uidiv
 2233 055e 031C     		mov	r3, r0
 2234 0560 1A1C     		mov	r2, r3
 2235 0562 131C     		mov	r3, r2
 2236 0564 5B00     		lsl	r3, r3, #1
 2237 0566 9B18     		add	r3, r3, r2
 2238 0568 5B00     		lsl	r3, r3, #1
 2239 056a E418     		add	r4, r4, r3
 2240 056c BB6E     		ldr	r3, [r7, #104]
 2241 056e 181C     		mov	r0, r3
 2242 0570 C823     		mov	r3, #200
 2243 0572 5900     		lsl	r1, r3, #1
 2244 0574 FFF7FEFF 		bl	__aeabi_uidiv
 2245 0578 031C     		mov	r3, r0
 2246 057a E318     		add	r3, r4, r3
 2247 057c 181C     		mov	r0, r3
 2248 057e 0721     		mov	r1, #7
 2249 0580 FFF7FEFF 		bl	__aeabi_uidivmod
 2250 0584 0B1C     		mov	r3, r1
 2251 0586 FB66     		str	r3, [r7, #108]
ARM GAS  C:\Users\Petro\AppData\Local\Temp\ccPzTkZo.s 			page 53


 699:lib_DS1307/DS1307.c **** 
 700:lib_DS1307/DS1307.c ****     /* Makes correction for Saturday. Saturday number should be 7 instead of 0. */
 701:lib_DS1307/DS1307.c ****     if(0u == dayOfWeek)
 2252              		.loc 1 701 0
 2253 0588 FB6E     		ldr	r3, [r7, #108]
 2254 058a 002B     		cmp	r3, #0
 2255 058c 01D1     		bne	.L99
 702:lib_DS1307/DS1307.c ****     {
 703:lib_DS1307/DS1307.c ****         dayOfWeek = 7;
 2256              		.loc 1 703 0
 2257 058e 0723     		mov	r3, #7
 2258 0590 FB66     		str	r3, [r7, #108]
 2259              	.L99:
 704:lib_DS1307/DS1307.c ****     }
 705:lib_DS1307/DS1307.c **** 
 706:lib_DS1307/DS1307.c ****     /*write data to struct*/
 707:lib_DS1307/DS1307.c ****     DS1307_currentTimeDate.second = unixTime;
 2260              		.loc 1 707 0
 2261 0592 BB6C     		ldr	r3, [r7, #72]
 2262 0594 FC6C     		ldr	r4, [r7, #76]
 2263 0596 DAB2     		uxtb	r2, r3
 2264 0598 194B     		ldr	r3, .L108
 2265 059a 1A70     		strb	r2, [r3]
 708:lib_DS1307/DS1307.c ****     DS1307_currentTimeDate.minutes = tmpMinute;
 2266              		.loc 1 708 0
 2267 059c FB6D     		ldr	r3, [r7, #92]
 2268 059e DAB2     		uxtb	r2, r3
 2269 05a0 174B     		ldr	r3, .L108
 2270 05a2 5A70     		strb	r2, [r3, #1]
 709:lib_DS1307/DS1307.c ****     DS1307_currentTimeDate.hours = tmpHour;
 2271              		.loc 1 709 0
 2272 05a4 9423     		mov	r3, #148
 2273 05a6 FB18     		add	r3, r7, r3
 2274 05a8 1B68     		ldr	r3, [r3]
 2275 05aa DAB2     		uxtb	r2, r3
 2276 05ac 144B     		ldr	r3, .L108
 2277 05ae 9A70     		strb	r2, [r3, #2]
 710:lib_DS1307/DS1307.c ****     DS1307_currentTimeDate.AmRm = tmpAmPmState;
 2278              		.loc 1 710 0
 2279 05b0 9023     		mov	r3, #144
 2280 05b2 FB18     		add	r3, r7, r3
 2281 05b4 1B68     		ldr	r3, [r3]
 2282 05b6 DAB2     		uxtb	r2, r3
 2283 05b8 114B     		ldr	r3, .L108
 2284 05ba 1A71     		strb	r2, [r3, #4]
 711:lib_DS1307/DS1307.c ****     DS1307_currentTimeDate.timeFormat = timeFormat;
 2285              		.loc 1 711 0
 2286 05bc 7B6E     		ldr	r3, [r7, #100]
 2287 05be DAB2     		uxtb	r2, r3
 2288 05c0 0F4B     		ldr	r3, .L108
 2289 05c2 DA70     		strb	r2, [r3, #3]
 712:lib_DS1307/DS1307.c ****     DS1307_currentTimeDate.day = dayOfWeek;
 2290              		.loc 1 712 0
 2291 05c4 FB6E     		ldr	r3, [r7, #108]
 2292 05c6 DAB2     		uxtb	r2, r3
 2293 05c8 0D4B     		ldr	r3, .L108
 2294 05ca 5A71     		strb	r2, [r3, #5]
ARM GAS  C:\Users\Petro\AppData\Local\Temp\ccPzTkZo.s 			page 54


 713:lib_DS1307/DS1307.c ****     DS1307_currentTimeDate.month = tmpMonth;
 2295              		.loc 1 713 0
 2296 05cc 8C23     		mov	r3, #140
 2297 05ce FB18     		add	r3, r7, r3
 2298 05d0 1B68     		ldr	r3, [r3]
 2299 05d2 DAB2     		uxtb	r2, r3
 2300 05d4 0A4B     		ldr	r3, .L108
 2301 05d6 DA71     		strb	r2, [r3, #7]
 714:lib_DS1307/DS1307.c ****     DS1307_currentTimeDate.year = tmpYear-2000;
 2302              		.loc 1 714 0
 2303 05d8 8823     		mov	r3, #136
 2304 05da FB18     		add	r3, r7, r3
 2305 05dc 1B68     		ldr	r3, [r3]
 2306 05de 9BB2     		uxth	r3, r3
 2307 05e0 084A     		ldr	r2, .L108+4
 2308 05e2 9446     		mov	ip, r2
 2309 05e4 6344     		add	r3, r3, ip
 2310 05e6 9AB2     		uxth	r2, r3
 2311 05e8 054B     		ldr	r3, .L108
 2312 05ea 1A81     		strh	r2, [r3, #8]
 715:lib_DS1307/DS1307.c ****     DS1307_currentTimeDate.date = tmpDay;
 2313              		.loc 1 715 0
 2314 05ec 3B6E     		ldr	r3, [r7, #96]
 2315 05ee DAB2     		uxtb	r2, r3
 2316 05f0 034B     		ldr	r3, .L108
 2317 05f2 9A71     		strb	r2, [r3, #6]
 716:lib_DS1307/DS1307.c ****     
 717:lib_DS1307/DS1307.c ****     /*write in chip*/
 718:lib_DS1307/DS1307.c ****     DS1307_WriteTimeFromStruct();
 2318              		.loc 1 718 0
 2319 05f4 FFF7FEFF 		bl	DS1307_WriteTimeFromStruct
 719:lib_DS1307/DS1307.c **** }
 2320              		.loc 1 719 0
 2321 05f8 BD46     		mov	sp, r7
 2322 05fa 27B0     		add	sp, sp, #156
 2323              		@ sp needed
 2324 05fc F0BD     		pop	{r4, r5, r6, r7, pc}
 2325              	.L109:
 2326 05fe C046     		.align	2
 2327              	.L108:
 2328 0600 00000000 		.word	DS1307_currentTimeDate
 2329 0604 30F8FFFF 		.word	-2000
 2330              		.cfi_endproc
 2331              	.LFE8:
 2332              		.size	DS1307_SetUnixTime, .-DS1307_SetUnixTime
 2333              		.section	.text.DS1307_Start,"ax",%progbits
 2334              		.align	2
 2335              		.global	DS1307_Start
 2336              		.code	16
 2337              		.thumb_func
 2338              		.type	DS1307_Start, %function
 2339              	DS1307_Start:
 2340              	.LFB9:
 720:lib_DS1307/DS1307.c **** 
 721:lib_DS1307/DS1307.c **** /*******************************************************************************
 722:lib_DS1307/DS1307.c **** * Function Name: DS1307_Start
 723:lib_DS1307/DS1307.c **** ********************************************************************************
ARM GAS  C:\Users\Petro\AppData\Local\Temp\ccPzTkZo.s 			page 55


 724:lib_DS1307/DS1307.c **** *
 725:lib_DS1307/DS1307.c **** * Summary:
 726:lib_DS1307/DS1307.c **** *   start the chip DS1307
 727:lib_DS1307/DS1307.c **** *
 728:lib_DS1307/DS1307.c **** *******************************************************************************/
 729:lib_DS1307/DS1307.c **** void DS1307_Start(void)
 730:lib_DS1307/DS1307.c **** {
 2341              		.loc 1 730 0
 2342              		.cfi_startproc
 2343 0000 80B5     		push	{r7, lr}
 2344              		.cfi_def_cfa_offset 8
 2345              		.cfi_offset 7, -8
 2346              		.cfi_offset 14, -4
 2347 0002 82B0     		sub	sp, sp, #8
 2348              		.cfi_def_cfa_offset 16
 2349 0004 00AF     		add	r7, sp, #0
 2350              		.cfi_def_cfa_register 7
 731:lib_DS1307/DS1307.c ****     uint8_t data ;
 732:lib_DS1307/DS1307.c ****     uint32_t status;
 733:lib_DS1307/DS1307.c ****     
 734:lib_DS1307/DS1307.c ****     data = DS1307_currentTimeDate.second & (~DS1307_OFF_MASK); 
 2351              		.loc 1 734 0
 2352 0006 114B     		ldr	r3, .L112
 2353 0008 1A78     		ldrb	r2, [r3]
 2354 000a FB1D     		add	r3, r7, #7
 2355 000c 7F21     		mov	r1, #127
 2356 000e 0A40     		and	r2, r1
 2357 0010 1A70     		strb	r2, [r3]
 735:lib_DS1307/DS1307.c ****     
 736:lib_DS1307/DS1307.c ****     I2C_Start();
 2358              		.loc 1 736 0
 2359 0012 FFF7FEFF 		bl	I2C_Start
 737:lib_DS1307/DS1307.c ****     I2C_I2CMasterClearStatus();
 2360              		.loc 1 737 0
 2361 0016 FFF7FEFF 		bl	I2C_I2CMasterClearStatus
 738:lib_DS1307/DS1307.c ****     status = I2C_I2CMasterSendStart(DS1307_SLAVE_ADRESS, I2C_I2C_WRITE_XFER_MODE);
 2362              		.loc 1 738 0
 2363 001a 6820     		mov	r0, #104
 2364 001c 0021     		mov	r1, #0
 2365 001e FFF7FEFF 		bl	I2C_I2CMasterSendStart
 2366 0022 031C     		mov	r3, r0
 2367 0024 3B60     		str	r3, [r7]
 739:lib_DS1307/DS1307.c ****     I2C_I2CMasterWriteByte(DS1307_NULL_ADRESS);
 2368              		.loc 1 739 0
 2369 0026 0020     		mov	r0, #0
 2370 0028 FFF7FEFF 		bl	I2C_I2CMasterWriteByte
 740:lib_DS1307/DS1307.c ****     
 741:lib_DS1307/DS1307.c ****     if(I2C_I2C_MSTR_NO_ERROR == status) 
 2371              		.loc 1 741 0
 2372 002c 3B68     		ldr	r3, [r7]
 2373 002e 002B     		cmp	r3, #0
 2374 0030 06D1     		bne	.L111
 742:lib_DS1307/DS1307.c ****     {
 743:lib_DS1307/DS1307.c ****         status = I2C_I2CMasterWriteByte(data);
 2375              		.loc 1 743 0
 2376 0032 FB1D     		add	r3, r7, #7
 2377 0034 1B78     		ldrb	r3, [r3]
ARM GAS  C:\Users\Petro\AppData\Local\Temp\ccPzTkZo.s 			page 56


 2378 0036 181C     		mov	r0, r3
 2379 0038 FFF7FEFF 		bl	I2C_I2CMasterWriteByte
 2380 003c 031C     		mov	r3, r0
 2381 003e 3B60     		str	r3, [r7]
 2382              	.L111:
 744:lib_DS1307/DS1307.c ****     }
 745:lib_DS1307/DS1307.c ****     I2C_I2CMasterSendStop();
 2383              		.loc 1 745 0
 2384 0040 FFF7FEFF 		bl	I2C_I2CMasterSendStop
 746:lib_DS1307/DS1307.c **** }
 2385              		.loc 1 746 0
 2386 0044 BD46     		mov	sp, r7
 2387 0046 02B0     		add	sp, sp, #8
 2388              		@ sp needed
 2389 0048 80BD     		pop	{r7, pc}
 2390              	.L113:
 2391 004a C046     		.align	2
 2392              	.L112:
 2393 004c 00000000 		.word	DS1307_currentTimeDate
 2394              		.cfi_endproc
 2395              	.LFE9:
 2396              		.size	DS1307_Start, .-DS1307_Start
 2397              		.section	.text.DS1307_Stop,"ax",%progbits
 2398              		.align	2
 2399              		.global	DS1307_Stop
 2400              		.code	16
 2401              		.thumb_func
 2402              		.type	DS1307_Stop, %function
 2403              	DS1307_Stop:
 2404              	.LFB10:
 747:lib_DS1307/DS1307.c **** 
 748:lib_DS1307/DS1307.c **** 
 749:lib_DS1307/DS1307.c **** /*******************************************************************************
 750:lib_DS1307/DS1307.c **** * Function Name: DS1307_Start
 751:lib_DS1307/DS1307.c **** ********************************************************************************
 752:lib_DS1307/DS1307.c **** *
 753:lib_DS1307/DS1307.c **** * Summary:
 754:lib_DS1307/DS1307.c **** *   stop the chip DS1307
 755:lib_DS1307/DS1307.c **** *
 756:lib_DS1307/DS1307.c **** *******************************************************************************/
 757:lib_DS1307/DS1307.c **** void DS1307_Stop(void)
 758:lib_DS1307/DS1307.c **** {
 2405              		.loc 1 758 0
 2406              		.cfi_startproc
 2407 0000 80B5     		push	{r7, lr}
 2408              		.cfi_def_cfa_offset 8
 2409              		.cfi_offset 7, -8
 2410              		.cfi_offset 14, -4
 2411 0002 82B0     		sub	sp, sp, #8
 2412              		.cfi_def_cfa_offset 16
 2413 0004 00AF     		add	r7, sp, #0
 2414              		.cfi_def_cfa_register 7
 759:lib_DS1307/DS1307.c ****     uint8_t data ;
 760:lib_DS1307/DS1307.c ****     uint32_t status;
 761:lib_DS1307/DS1307.c ****     
 762:lib_DS1307/DS1307.c ****     data = DS1307_currentTimeDate.second | DS1307_OFF_MASK; 
 2415              		.loc 1 762 0
ARM GAS  C:\Users\Petro\AppData\Local\Temp\ccPzTkZo.s 			page 57


 2416 0006 114B     		ldr	r3, .L116
 2417 0008 1A78     		ldrb	r2, [r3]
 2418 000a FB1D     		add	r3, r7, #7
 2419 000c 8021     		mov	r1, #128
 2420 000e 4942     		neg	r1, r1
 2421 0010 0A43     		orr	r2, r1
 2422 0012 1A70     		strb	r2, [r3]
 763:lib_DS1307/DS1307.c ****     
 764:lib_DS1307/DS1307.c ****     I2C_Start();
 2423              		.loc 1 764 0
 2424 0014 FFF7FEFF 		bl	I2C_Start
 765:lib_DS1307/DS1307.c ****     I2C_I2CMasterClearStatus();
 2425              		.loc 1 765 0
 2426 0018 FFF7FEFF 		bl	I2C_I2CMasterClearStatus
 766:lib_DS1307/DS1307.c ****     status = I2C_I2CMasterSendStart(DS1307_SLAVE_ADRESS, I2C_I2C_WRITE_XFER_MODE);
 2427              		.loc 1 766 0
 2428 001c 6820     		mov	r0, #104
 2429 001e 0021     		mov	r1, #0
 2430 0020 FFF7FEFF 		bl	I2C_I2CMasterSendStart
 2431 0024 031C     		mov	r3, r0
 2432 0026 3B60     		str	r3, [r7]
 767:lib_DS1307/DS1307.c ****     I2C_I2CMasterWriteByte(DS1307_NULL_ADRESS);
 2433              		.loc 1 767 0
 2434 0028 0020     		mov	r0, #0
 2435 002a FFF7FEFF 		bl	I2C_I2CMasterWriteByte
 768:lib_DS1307/DS1307.c ****     
 769:lib_DS1307/DS1307.c ****     if(I2C_I2C_MSTR_NO_ERROR == status) 
 2436              		.loc 1 769 0
 2437 002e 3B68     		ldr	r3, [r7]
 2438 0030 002B     		cmp	r3, #0
 2439 0032 06D1     		bne	.L115
 770:lib_DS1307/DS1307.c ****     {
 771:lib_DS1307/DS1307.c ****         status = I2C_I2CMasterWriteByte(data);
 2440              		.loc 1 771 0
 2441 0034 FB1D     		add	r3, r7, #7
 2442 0036 1B78     		ldrb	r3, [r3]
 2443 0038 181C     		mov	r0, r3
 2444 003a FFF7FEFF 		bl	I2C_I2CMasterWriteByte
 2445 003e 031C     		mov	r3, r0
 2446 0040 3B60     		str	r3, [r7]
 2447              	.L115:
 772:lib_DS1307/DS1307.c ****     }
 773:lib_DS1307/DS1307.c ****     I2C_I2CMasterSendStop();
 2448              		.loc 1 773 0
 2449 0042 FFF7FEFF 		bl	I2C_I2CMasterSendStop
 774:lib_DS1307/DS1307.c **** }
 2450              		.loc 1 774 0
 2451 0046 BD46     		mov	sp, r7
 2452 0048 02B0     		add	sp, sp, #8
 2453              		@ sp needed
 2454 004a 80BD     		pop	{r7, pc}
 2455              	.L117:
 2456              		.align	2
 2457              	.L116:
 2458 004c 00000000 		.word	DS1307_currentTimeDate
 2459              		.cfi_endproc
 2460              	.LFE10:
ARM GAS  C:\Users\Petro\AppData\Local\Temp\ccPzTkZo.s 			page 58


 2461              		.size	DS1307_Stop, .-DS1307_Stop
 2462              		.text
 2463              	.Letext0:
 2464              		.file 2 "c:\\program files (x86)\\cypress\\psoc creator\\4.0\\psoc creator\\import\\gnu\\arm\\4.9.
 2465              		.file 3 "c:\\program files (x86)\\cypress\\psoc creator\\4.0\\psoc creator\\import\\gnu\\arm\\4.9.
 2466              		.file 4 "Generated_Source\\PSoC4/cytypes.h"