ARM GAS  C:\Users\Petro\AppData\Local\Temp\ccWqpGRP.s 			page 1


   1              		.cpu cortex-m0
   2              		.fpu softvfp
   3              		.eabi_attribute 20, 1
   4              		.eabi_attribute 21, 1
   5              		.eabi_attribute 23, 3
   6              		.eabi_attribute 24, 1
   7              		.eabi_attribute 25, 1
   8              		.eabi_attribute 26, 1
   9              		.eabi_attribute 30, 6
  10              		.eabi_attribute 34, 0
  11              		.eabi_attribute 18, 4
  12              		.code	16
  13              		.file	"gate.c"
  14              		.text
  15              	.Ltext0:
  16              		.cfi_sections	.debug_frame
  17              		.comm	fatFs,560,4
  18              		.comm	fileO,552,4
  19              		.comm	createFlag,4,4
  20              		.comm	bufferSkiersOnWay,64,8
  21              		.comm	bufferFifo,384,8
  22              		.comm	currentSizeBuff,4,4
  23              		.comm	currentElementStart,4,4
  24              		.comm	currentElementFinish,4,4
  25              		.comm	skiersFinished,2,2
  26              		.comm	skierDB,7200,8
  27              		.comm	fifo,632,8
  28              		.bss
  29              		.align	3
  30              	savedUnixTime:
  31 0000 00000000 		.space	8
  31      00000000 
  32              		.align	2
  33              	savedRecentMs:
  34 0008 00000000 		.space	4
  35              		.align	2
  36              	gateOpen:
  37 000c 00000000 		.space	4
  38              		.section	.text.GATE_INTERRUPT,"ax",%progbits
  39              		.align	2
  40              		.global	GATE_INTERRUPT
  41              		.code	16
  42              		.thumb_func
  43              		.type	GATE_INTERRUPT, %function
  44              	GATE_INTERRUPT:
  45              	.LFB63:
  46              		.file 1 ".\\lib_Gate\\gate.c"
   1:.\lib_Gate/gate.c **** /* ========================================
   2:.\lib_Gate/gate.c ****  *
   3:.\lib_Gate/gate.c ****  * Copyright YOUR COMPANY, THE YEAR
   4:.\lib_Gate/gate.c ****  * All Rights Reserved
   5:.\lib_Gate/gate.c ****  * UNPUBLISHED, LICENSED SOFTWARE.
   6:.\lib_Gate/gate.c ****  *
   7:.\lib_Gate/gate.c ****  * CONFIDENTIAL AND PROPRIETARY INFORMATION
   8:.\lib_Gate/gate.c ****  * WHICH IS THE PROPERTY OF your company.
   9:.\lib_Gate/gate.c ****  *
  10:.\lib_Gate/gate.c ****  * ========================================
ARM GAS  C:\Users\Petro\AppData\Local\Temp\ccWqpGRP.s 			page 2


  11:.\lib_Gate/gate.c **** */
  12:.\lib_Gate/gate.c **** #include "lib_Gate\gate.h"
  13:.\lib_Gate/gate.c **** 
  14:.\lib_Gate/gate.c **** 
  15:.\lib_Gate/gate.c **** 
  16:.\lib_Gate/gate.c **** CY_ISR(GATE_INTERRUPT)
  17:.\lib_Gate/gate.c **** {   
  47              		.loc 1 17 0
  48              		.cfi_startproc
  49 0000 98B5     		push	{r3, r4, r7, lr}
  50              		.cfi_def_cfa_offset 16
  51              		.cfi_offset 3, -16
  52              		.cfi_offset 4, -12
  53              		.cfi_offset 7, -8
  54              		.cfi_offset 14, -4
  55 0002 00AF     		add	r7, sp, #0
  56              		.cfi_def_cfa_register 7
  18:.\lib_Gate/gate.c ****     GATE_INT_Disable();
  57              		.loc 1 18 0
  58 0004 FFF7FEFF 		bl	GATE_INT_Disable
  19:.\lib_Gate/gate.c ****     
  20:.\lib_Gate/gate.c ****     gateOpen = GATE_OPEN;    
  59              		.loc 1 20 0
  60 0008 0A4B     		ldr	r3, .L2
  61 000a 0122     		mov	r2, #1
  62 000c 1A60     		str	r2, [r3]
  21:.\lib_Gate/gate.c **** 
  22:.\lib_Gate/gate.c ****     savedUnixTime = RTCGetUnixTime();
  63              		.loc 1 22 0
  64 000e FFF7FEFF 		bl	RTCGetUnixTime
  65 0012 031C     		mov	r3, r0
  66 0014 0C1C     		mov	r4, r1
  67 0016 084A     		ldr	r2, .L2+4
  68 0018 1360     		str	r3, [r2]
  69 001a 5460     		str	r4, [r2, #4]
  23:.\lib_Gate/gate.c ****     savedRecentMs = RTCgetRecentMs();
  70              		.loc 1 23 0
  71 001c FFF7FEFF 		bl	RTCgetRecentMs
  72 0020 021C     		mov	r2, r0
  73 0022 064B     		ldr	r3, .L2+8
  74 0024 1A60     		str	r2, [r3]
  24:.\lib_Gate/gate.c ****     
  25:.\lib_Gate/gate.c ****     GatePin_ClearInterrupt();
  75              		.loc 1 25 0
  76 0026 FFF7FEFF 		bl	GatePin_ClearInterrupt
  26:.\lib_Gate/gate.c ****     GATE_INT_ClearPending();   
  77              		.loc 1 26 0
  78 002a FFF7FEFF 		bl	GATE_INT_ClearPending
  27:.\lib_Gate/gate.c **** }
  79              		.loc 1 27 0
  80 002e BD46     		mov	sp, r7
  81              		@ sp needed
  82 0030 98BD     		pop	{r3, r4, r7, pc}
  83              	.L3:
  84 0032 C046     		.align	2
  85              	.L2:
  86 0034 0C000000 		.word	gateOpen
ARM GAS  C:\Users\Petro\AppData\Local\Temp\ccWqpGRP.s 			page 3


  87 0038 00000000 		.word	savedUnixTime
  88 003c 08000000 		.word	savedRecentMs
  89              		.cfi_endproc
  90              	.LFE63:
  91              		.size	GATE_INTERRUPT, .-GATE_INTERRUPT
  92              		.section	.text.GateInit,"ax",%progbits
  93              		.align	2
  94              		.global	GateInit
  95              		.code	16
  96              		.thumb_func
  97              		.type	GateInit, %function
  98              	GateInit:
  99              	.LFB64:
  28:.\lib_Gate/gate.c **** 
  29:.\lib_Gate/gate.c **** 
  30:.\lib_Gate/gate.c **** void GateInit(void)
  31:.\lib_Gate/gate.c **** {
 100              		.loc 1 31 0
 101              		.cfi_startproc
 102 0000 80B5     		push	{r7, lr}
 103              		.cfi_def_cfa_offset 8
 104              		.cfi_offset 7, -8
 105              		.cfi_offset 14, -4
 106 0002 00AF     		add	r7, sp, #0
 107              		.cfi_def_cfa_register 7
  32:.\lib_Gate/gate.c ****     GatePin_ClearInterrupt();
 108              		.loc 1 32 0
 109 0004 FFF7FEFF 		bl	GatePin_ClearInterrupt
  33:.\lib_Gate/gate.c ****     GATE_INT_ClearPending();
 110              		.loc 1 33 0
 111 0008 FFF7FEFF 		bl	GATE_INT_ClearPending
  34:.\lib_Gate/gate.c ****     GATE_INT_StartEx(GATE_INTERRUPT); 
 112              		.loc 1 34 0
 113 000c 054B     		ldr	r3, .L5
 114 000e 181C     		mov	r0, r3
 115 0010 FFF7FEFF 		bl	GATE_INT_StartEx
  35:.\lib_Gate/gate.c ****     GATE_INT_Disable();
 116              		.loc 1 35 0
 117 0014 FFF7FEFF 		bl	GATE_INT_Disable
  36:.\lib_Gate/gate.c ****     
  37:.\lib_Gate/gate.c ****     gateOpen = GATE_CLOSE;     
 118              		.loc 1 37 0
 119 0018 034B     		ldr	r3, .L5+4
 120 001a 0022     		mov	r2, #0
 121 001c 1A60     		str	r2, [r3]
  38:.\lib_Gate/gate.c **** }
 122              		.loc 1 38 0
 123 001e BD46     		mov	sp, r7
 124              		@ sp needed
 125 0020 80BD     		pop	{r7, pc}
 126              	.L6:
 127 0022 C046     		.align	2
 128              	.L5:
 129 0024 00000000 		.word	GATE_INTERRUPT
 130 0028 0C000000 		.word	gateOpen
 131              		.cfi_endproc
 132              	.LFE64:
ARM GAS  C:\Users\Petro\AppData\Local\Temp\ccWqpGRP.s 			page 4


 133              		.size	GateInit, .-GateInit
 134              		.section	.text.GateIsOpen,"ax",%progbits
 135              		.align	2
 136              		.global	GateIsOpen
 137              		.code	16
 138              		.thumb_func
 139              		.type	GateIsOpen, %function
 140              	GateIsOpen:
 141              	.LFB65:
  39:.\lib_Gate/gate.c **** 
  40:.\lib_Gate/gate.c **** 
  41:.\lib_Gate/gate.c **** /*******************************************************************************
  42:.\lib_Gate/gate.c **** * Function Name: GateOpen
  43:.\lib_Gate/gate.c **** ********************************************************************************
  44:.\lib_Gate/gate.c **** *
  45:.\lib_Gate/gate.c **** * * verification or gate closed
  46:.\lib_Gate/gate.c **** *
  47:.\lib_Gate/gate.c **** * Return:
  48:.\lib_Gate/gate.c **** *  GATE_CLOSE or GATE_OPEN
  49:.\lib_Gate/gate.c **** *******************************************************************************/
  50:.\lib_Gate/gate.c **** uint32_t GateIsOpen(void)
  51:.\lib_Gate/gate.c **** {   
 142              		.loc 1 51 0
 143              		.cfi_startproc
 144 0000 80B5     		push	{r7, lr}
 145              		.cfi_def_cfa_offset 8
 146              		.cfi_offset 7, -8
 147              		.cfi_offset 14, -4
 148 0002 82B0     		sub	sp, sp, #8
 149              		.cfi_def_cfa_offset 16
 150 0004 00AF     		add	r7, sp, #0
 151              		.cfi_def_cfa_register 7
  52:.\lib_Gate/gate.c ****     uint32_t result;
  53:.\lib_Gate/gate.c ****     
  54:.\lib_Gate/gate.c ****     result = gateOpen;
 152              		.loc 1 54 0
 153 0006 054B     		ldr	r3, .L9
 154 0008 1B68     		ldr	r3, [r3]
 155 000a 7B60     		str	r3, [r7, #4]
  55:.\lib_Gate/gate.c ****     gateOpen = GATE_CLOSE;
 156              		.loc 1 55 0
 157 000c 034B     		ldr	r3, .L9
 158 000e 0022     		mov	r2, #0
 159 0010 1A60     		str	r2, [r3]
  56:.\lib_Gate/gate.c ****     
  57:.\lib_Gate/gate.c ****     return result;
 160              		.loc 1 57 0
 161 0012 7B68     		ldr	r3, [r7, #4]
  58:.\lib_Gate/gate.c **** }
 162              		.loc 1 58 0
 163 0014 181C     		mov	r0, r3
 164 0016 BD46     		mov	sp, r7
 165 0018 02B0     		add	sp, sp, #8
 166              		@ sp needed
 167 001a 80BD     		pop	{r7, pc}
 168              	.L10:
 169              		.align	2
ARM GAS  C:\Users\Petro\AppData\Local\Temp\ccWqpGRP.s 			page 5


 170              	.L9:
 171 001c 0C000000 		.word	gateOpen
 172              		.cfi_endproc
 173              	.LFE65:
 174              		.size	GateIsOpen, .-GateIsOpen
 175              		.section	.text.AllowNextSkier,"ax",%progbits
 176              		.align	2
 177              		.global	AllowNextSkier
 178              		.code	16
 179              		.thumb_func
 180              		.type	AllowNextSkier, %function
 181              	AllowNextSkier:
 182              	.LFB66:
  59:.\lib_Gate/gate.c **** 
  60:.\lib_Gate/gate.c **** 
  61:.\lib_Gate/gate.c **** void AllowNextSkier(void)
  62:.\lib_Gate/gate.c **** {
 183              		.loc 1 62 0
 184              		.cfi_startproc
 185 0000 80B5     		push	{r7, lr}
 186              		.cfi_def_cfa_offset 8
 187              		.cfi_offset 7, -8
 188              		.cfi_offset 14, -4
 189 0002 00AF     		add	r7, sp, #0
 190              		.cfi_def_cfa_register 7
  63:.\lib_Gate/gate.c ****     GatePin_ClearInterrupt();
 191              		.loc 1 63 0
 192 0004 FFF7FEFF 		bl	GatePin_ClearInterrupt
  64:.\lib_Gate/gate.c ****     GATE_INT_ClearPending();
 193              		.loc 1 64 0
 194 0008 FFF7FEFF 		bl	GATE_INT_ClearPending
  65:.\lib_Gate/gate.c ****     GATE_INT_Enable();
 195              		.loc 1 65 0
 196 000c FFF7FEFF 		bl	GATE_INT_Enable
  66:.\lib_Gate/gate.c **** }
 197              		.loc 1 66 0
 198 0010 BD46     		mov	sp, r7
 199              		@ sp needed
 200 0012 80BD     		pop	{r7, pc}
 201              		.cfi_endproc
 202              	.LFE66:
 203              		.size	AllowNextSkier, .-AllowNextSkier
 204              		.section	.text.GetFinTime,"ax",%progbits
 205              		.align	2
 206              		.global	GetFinTime
 207              		.code	16
 208              		.thumb_func
 209              		.type	GetFinTime, %function
 210              	GetFinTime:
 211              	.LFB67:
  67:.\lib_Gate/gate.c **** 
  68:.\lib_Gate/gate.c **** 
  69:.\lib_Gate/gate.c **** void GetFinTime(uint64_t *unixTime,  uint32_t *recentMs)
  70:.\lib_Gate/gate.c **** {
 212              		.loc 1 70 0
 213              		.cfi_startproc
 214 0000 90B5     		push	{r4, r7, lr}
ARM GAS  C:\Users\Petro\AppData\Local\Temp\ccWqpGRP.s 			page 6


 215              		.cfi_def_cfa_offset 12
 216              		.cfi_offset 4, -12
 217              		.cfi_offset 7, -8
 218              		.cfi_offset 14, -4
 219 0002 83B0     		sub	sp, sp, #12
 220              		.cfi_def_cfa_offset 24
 221 0004 00AF     		add	r7, sp, #0
 222              		.cfi_def_cfa_register 7
 223 0006 7860     		str	r0, [r7, #4]
 224 0008 3960     		str	r1, [r7]
  71:.\lib_Gate/gate.c ****     *unixTime = savedUnixTime;
 225              		.loc 1 71 0
 226 000a 064B     		ldr	r3, .L13
 227 000c 5C68     		ldr	r4, [r3, #4]
 228 000e 1B68     		ldr	r3, [r3]
 229 0010 7A68     		ldr	r2, [r7, #4]
 230 0012 1360     		str	r3, [r2]
 231 0014 5460     		str	r4, [r2, #4]
  72:.\lib_Gate/gate.c ****     *recentMs = savedRecentMs;
 232              		.loc 1 72 0
 233 0016 044B     		ldr	r3, .L13+4
 234 0018 1A68     		ldr	r2, [r3]
 235 001a 3B68     		ldr	r3, [r7]
 236 001c 1A60     		str	r2, [r3]
  73:.\lib_Gate/gate.c **** }
 237              		.loc 1 73 0
 238 001e BD46     		mov	sp, r7
 239 0020 03B0     		add	sp, sp, #12
 240              		@ sp needed
 241 0022 90BD     		pop	{r4, r7, pc}
 242              	.L14:
 243              		.align	2
 244              	.L13:
 245 0024 00000000 		.word	savedUnixTime
 246 0028 08000000 		.word	savedRecentMs
 247              		.cfi_endproc
 248              	.LFE67:
 249              		.size	GetFinTime, .-GetFinTime
 250              		.text
 251              	.Letext0:
 252              		.file 2 "c:\\program files (x86)\\cypress\\psoc creator\\3.3\\psoc creator\\import\\gnu\\arm\\4.9.
 253              		.file 3 "c:\\program files (x86)\\cypress\\psoc creator\\3.3\\psoc creator\\import\\gnu\\arm\\4.9.
 254              		.file 4 "./lib_DB\\database.h"
 255              		.file 5 "./lib_Fat\\integer.h"
 256              		.file 6 "./lib_Fat\\ff.h"
 257              		.file 7 "./lib_Gate\\gate.h"
 258              		.file 8 "./lib_DB\\logResult.h"