ARM GAS  C:\Users\Petro\AppData\Local\Temp\cclReBew.s 			page 1


   1              		.cpu cortex-m0
   2              		.fpu softvfp
   3              		.eabi_attribute 20, 1
   4              		.eabi_attribute 21, 1
   5              		.eabi_attribute 23, 3
   6              		.eabi_attribute 24, 1
   7              		.eabi_attribute 25, 1
   8              		.eabi_attribute 26, 1
   9              		.eabi_attribute 30, 6
  10              		.eabi_attribute 34, 0
  11              		.eabi_attribute 18, 4
  12              		.code	16
  13              		.file	"network.c"
  14              		.text
  15              	.Ltext0:
  16              		.cfi_sections	.debug_frame
  17              		.comm	outData,24,8
  18              		.comm	inData,24,8
  19              		.comm	rebootFlag,1,1
  20              		.comm	numAttemps,4,4
  21              		.comm	noConnect,4,4
  22              		.comm	networkStatus,4,4
  23              		.comm	unixTime,16,4
  24              		.comm	millisTime,8,4
  25              		.comm	ntpFlagEndReceivePacket,1,1
  26              		.comm	ntpFlagReadyForReceive,1,1
  27              		.comm	recvDataNTP,24,4
  28              		.global	onNtpSync
  29              		.bss
  30              		.type	onNtpSync, %object
  31              		.size	onNtpSync, 1
  32              	onNtpSync:
  33 0000 00       		.space	1
  34              		.section	.text.InitNetwork,"ax",%progbits
  35              		.align	2
  36              		.global	InitNetwork
  37              		.code	16
  38              		.thumb_func
  39              		.type	InitNetwork, %function
  40              	InitNetwork:
  41              	.LFB63:
  42              		.file 1 "network.c"
   1:network.c     **** 
   2:network.c     **** #include "lib_Network/network.h"
   3:network.c     **** #include <lib_BLE/bluetooth.h>
   4:network.c     **** #include <UART_XB.h>
   5:network.c     **** #include <UART_XB_SPI_UART.h>
   6:network.c     **** 
   7:network.c     **** #ifdef DEBUG_INFO
   8:network.c     ****     #include <DEBUG_UART.h>
   9:network.c     **** #endif
  10:network.c     **** #ifdef DEBUG_TIME
  11:network.c     ****     #include <debug.h>
  12:network.c     **** #endif
  13:network.c     **** #ifdef DEBUG_NTP
  14:network.c     ****     #include <debugntp.h>
  15:network.c     **** #endif
ARM GAS  C:\Users\Petro\AppData\Local\Temp\cclReBew.s 			page 2


  16:network.c     **** #ifdef DEBUGNTP
  17:network.c     ****     #include <pinDebugNtp.h>
  18:network.c     **** #endif
  19:network.c     **** 
  20:network.c     **** #include "lib_Network/svt.h"
  21:network.c     **** #include "lib_DB/database.h"
  22:network.c     **** #include "lib_RTC/RTC_WDT.h"
  23:network.c     **** #include "lib_Network/ntp.h"
  24:network.c     **** #include "lib_Display/display.h"
  25:network.c     **** 
  26:network.c     **** 
  27:network.c     **** /*size buffer*/
  28:network.c     **** #define DATA_BUFFER   50
  29:network.c     ****  
  30:network.c     **** #define ADRESS_READY        8
  31:network.c     **** #define ADRESS_REBOOT       9
  32:network.c     **** #define ADRESS_COUNT_SK     10
  33:network.c     **** 
  34:network.c     **** #define NETWORK_TIMEOUT     50
  35:network.c     **** 
  36:network.c     **** /*for NTP protocol*/
  37:network.c     **** #define NTP_TRY_SYNC        14
  38:network.c     **** #define NTP_CONNECT_ATTEMPS 6       //кількість спроб надсилання пакет
  39:network.c     **** #define NTP_SUCCESSFUL_PACKET 5       //кількість пакетів для синхроніз
  40:network.c     **** #define NTP_DELAY_RECEIVED_PACKET 500
  41:network.c     **** 
  42:network.c     **** /*define for result ntp sync*/
  43:network.c     **** #define OK      1
  44:network.c     **** #define ERROR   0
  45:network.c     ****     
  46:network.c     **** /*segment time for NTP*/
  47:network.c     **** #define T1                  0
  48:network.c     **** #define T2                  1
  49:network.c     **** #define T3                  2
  50:network.c     **** #define T4                  3
  51:network.c     **** 
  52:network.c     **** typedef struct
  53:network.c     **** {
  54:network.c     ****     /*data to transmit*/
  55:network.c     ****     uint8_t IDpacket;    
  56:network.c     ****     uint8_t ready;          /*flag readu finish*/
  57:network.c     ****     uint8_t reboot;         /*flag finish reboot*/
  58:network.c     ****     uint8_t countSkiers;
  59:network.c     ****     
  60:network.c     ****     uint64_t tmpTime;
  61:network.c     ****     uint16_t tmpMsTime;
  62:network.c     ****     uint8_t writeStatus;    /*flag transmitt data*/
  63:network.c     **** }FinishData;
  64:network.c     **** 
  65:network.c     **** typedef struct
  66:network.c     **** {
  67:network.c     ****     /*data to receive*/
  68:network.c     ****     uint8_t IDpacket;
  69:network.c     ****     uint64_t unixStartTime;
  70:network.c     ****     uint16_t startMsTime;
  71:network.c     ****     uint8_t newSkier;
  72:network.c     ****     uint8_t reboot;     /*reboot=1, no reboot=0*/
ARM GAS  C:\Users\Petro\AppData\Local\Temp\cclReBew.s 			page 3


  73:network.c     ****     
  74:network.c     ****     uint8_t readStatus;     /*flag successful read data in start*/
  75:network.c     **** }StartData;
  76:network.c     **** 
  77:network.c     **** FinishData outData ;
  78:network.c     **** StartData inData;
  79:network.c     **** uint8_t rebootFlag ;
  80:network.c     **** 
  81:network.c     **** uint32_t numAttemps,noConnect, networkStatus;
  82:network.c     **** uint32_t unixTime[4];
  83:network.c     **** uint16_t millisTime[4];
  84:network.c     **** /*new ntp*/
  85:network.c     **** uint8_t ntpFlagEndReceivePacket;        //indicator end receive packet
  86:network.c     **** uint8_t ntpFlagReadyForReceive;         //indicator ready for receive next packet
  87:network.c     **** NtpResp recvDataNTP;
  88:network.c     **** uint8_t onNtpSync = 0;
  89:network.c     **** /*end*/
  90:network.c     **** 
  91:network.c     **** 
  92:network.c     **** uint32_t SendRealTimeToStart(void);
  93:network.c     **** void NTPsendTime(uint32_t unixTime1,uint16_t millis1, uint16_t ID);
  94:network.c     **** uint32_t NTPreceiveTime(uint32_t *unixTime2,uint16_t *millis2, uint32_t *unixTime3, uint16_t *milli
  95:network.c     **** uint32_t NTPsetTimeToStart(uint32_t unixTime4,uint16_t millis4,  uint16_t ID);
  96:network.c     **** void NTPcalculateTime(uint32_t unixTime[], uint16_t msTime[], int32_t *sumTime, int32_t *sumMs);
  97:network.c     **** void CustomInterruptHandler(void);
  98:network.c     **** void FuncTake(uint32_t sec1, uint16_t ms1, uint32_t sec2, uint16_t ms2, int32_t *resultSec, int16_t
  99:network.c     **** 
 100:network.c     **** 
 101:network.c     **** 
 102:network.c     **** /*******************************************************************************
 103:network.c     **** * Function Name: InitNetwork
 104:network.c     **** ********************************************************************************
 105:network.c     **** *
 106:network.c     **** * Summary:
 107:network.c     **** *   initialization UART for XBee module
 108:network.c     **** *
 109:network.c     **** *******************************************************************************/
 110:network.c     **** void InitNetwork(void)
 111:network.c     **** {
  43              		.loc 1 111 0
  44              		.cfi_startproc
  45 0000 80B5     		push	{r7, lr}
  46              		.cfi_def_cfa_offset 8
  47              		.cfi_offset 7, -8
  48              		.cfi_offset 14, -4
  49 0002 00AF     		add	r7, sp, #0
  50              		.cfi_def_cfa_register 7
 112:network.c     ****     UART_XB_Start();
  51              		.loc 1 112 0
  52 0004 FFF7FEFF 		bl	UART_XB_Start
 113:network.c     ****     UART_XB_SetCustomInterruptHandler(&CustomInterruptHandler);
  53              		.loc 1 113 0
  54 0008 084B     		ldr	r3, .L2
  55 000a 181C     		mov	r0, r3
  56 000c FFF7FEFF 		bl	UART_XB_SetCustomInterruptHandler
 114:network.c     ****     
 115:network.c     ****     #ifdef DEBUG_INFO
ARM GAS  C:\Users\Petro\AppData\Local\Temp\cclReBew.s 			page 4


 116:network.c     ****     DEBUG_UART_Start();     
 117:network.c     ****     DEBUG_UART_UartPutString("HElLO, IM READY(fin)\n\r");
 118:network.c     ****     #endif
 119:network.c     ****     
 120:network.c     ****     inData.readStatus = READ_OK;
  57              		.loc 1 120 0
  58 0010 074B     		ldr	r3, .L2+4
  59 0012 0122     		mov	r2, #1
  60 0014 1A75     		strb	r2, [r3, #20]
 121:network.c     ****     outData.writeStatus = NO_WRITE;
  61              		.loc 1 121 0
  62 0016 074B     		ldr	r3, .L2+8
  63 0018 0022     		mov	r2, #0
  64 001a 9A74     		strb	r2, [r3, #18]
 122:network.c     ****     UART_XB_SpiUartClearRxBuffer();
  65              		.loc 1 122 0
  66 001c FFF7FEFF 		bl	UART_XB_SpiUartClearRxBuffer
 123:network.c     ****     
 124:network.c     ****     rebootFlag = REBOOT;
  67              		.loc 1 124 0
  68 0020 054B     		ldr	r3, .L2+12
  69 0022 FF22     		mov	r2, #255
  70 0024 1A70     		strb	r2, [r3]
 125:network.c     **** }
  71              		.loc 1 125 0
  72 0026 BD46     		mov	sp, r7
  73              		@ sp needed
  74 0028 80BD     		pop	{r7, pc}
  75              	.L3:
  76 002a C046     		.align	2
  77              	.L2:
  78 002c 00000000 		.word	CustomInterruptHandler
  79 0030 00000000 		.word	inData
  80 0034 00000000 		.word	outData
  81 0038 00000000 		.word	rebootFlag
  82              		.cfi_endproc
  83              	.LFE63:
  84              		.size	InitNetwork, .-InitNetwork
  85              		.section	.text.CustomInterruptHandler,"ax",%progbits
  86              		.align	2
  87              		.global	CustomInterruptHandler
  88              		.code	16
  89              		.thumb_func
  90              		.type	CustomInterruptHandler, %function
  91              	CustomInterruptHandler:
  92              	.LFB64:
 126:network.c     **** 
 127:network.c     **** 
 128:network.c     **** void CustomInterruptHandler(void)
 129:network.c     **** {
  93              		.loc 1 129 0
  94              		.cfi_startproc
  95 0000 90B5     		push	{r4, r7, lr}
  96              		.cfi_def_cfa_offset 12
  97              		.cfi_offset 4, -12
  98              		.cfi_offset 7, -8
  99              		.cfi_offset 14, -4
ARM GAS  C:\Users\Petro\AppData\Local\Temp\cclReBew.s 			page 5


 100 0002 83B0     		sub	sp, sp, #12
 101              		.cfi_def_cfa_offset 24
 102 0004 00AF     		add	r7, sp, #0
 103              		.cfi_def_cfa_register 7
 130:network.c     ****     if(onNtpSync)
 104              		.loc 1 130 0
 105 0006 244B     		ldr	r3, .L7
 106 0008 1B78     		ldrb	r3, [r3]
 107 000a 002B     		cmp	r3, #0
 108 000c 41D0     		beq	.L4
 109              	.LBB2:
 131:network.c     ****     {
 132:network.c     ****         uint8_t byte = 0;
 110              		.loc 1 132 0
 111 000e FB1D     		add	r3, r7, #7
 112 0010 0022     		mov	r2, #0
 113 0012 1A70     		strb	r2, [r3]
 133:network.c     ****         
 134:network.c     ****         if(UART_XB_SpiUartGetRxBufferSize() > 0)
 114              		.loc 1 134 0
 115 0014 FFF7FEFF 		bl	UART_XB_SpiUartGetRxBufferSize
 116 0018 031E     		sub	r3, r0, #0
 117 001a 04D0     		beq	.L6
 135:network.c     ****             byte=UART_XB_UartGetChar();
 118              		.loc 1 135 0
 119 001c FFF7FEFF 		bl	UART_XB_UartGetChar
 120 0020 021C     		mov	r2, r0
 121 0022 FB1D     		add	r3, r7, #7
 122 0024 1A70     		strb	r2, [r3]
 123              	.L6:
 136:network.c     ****         
 137:network.c     ****         if(ntpFlagReadyForReceive && byte != 0)
 124              		.loc 1 137 0
 125 0026 1D4B     		ldr	r3, .L7+4
 126 0028 1B78     		ldrb	r3, [r3]
 127 002a 002B     		cmp	r3, #0
 128 002c 31D0     		beq	.L4
 129              		.loc 1 137 0 is_stmt 0 discriminator 1
 130 002e FB1D     		add	r3, r7, #7
 131 0030 1B78     		ldrb	r3, [r3]
 132 0032 002B     		cmp	r3, #0
 133 0034 2DD0     		beq	.L4
 138:network.c     ****         {
 139:network.c     ****             NtpUnpackData(&recvDataNTP, (uint8_t)(byte & 0xFF));
 134              		.loc 1 139 0 is_stmt 1
 135 0036 1A4A     		ldr	r2, .L7+8
 136 0038 FB1D     		add	r3, r7, #7
 137 003a 1B78     		ldrb	r3, [r3]
 138 003c 101C     		mov	r0, r2
 139 003e 191C     		mov	r1, r3
 140 0040 FFF7FEFF 		bl	NtpUnpackData
 140:network.c     ****             
 141:network.c     ****             if(recvDataNTP.EndPacket)
 141              		.loc 1 141 0
 142 0044 164B     		ldr	r3, .L7+8
 143 0046 1B7D     		ldrb	r3, [r3, #20]
 144 0048 002B     		cmp	r3, #0
ARM GAS  C:\Users\Petro\AppData\Local\Temp\cclReBew.s 			page 6


 145 004a 22D0     		beq	.L4
 142:network.c     ****             {
 143:network.c     ****                 unixTime[T4] = RTC_GetUnixTime();
 146              		.loc 1 143 0
 147 004c FFF7FEFF 		bl	RTC_GetUnixTime
 148 0050 031C     		mov	r3, r0
 149 0052 0C1C     		mov	r4, r1
 150 0054 1A1C     		mov	r2, r3
 151 0056 134B     		ldr	r3, .L7+12
 152 0058 DA60     		str	r2, [r3, #12]
 144:network.c     ****                 millisTime[T4] = RTCgetRecentMs();
 153              		.loc 1 144 0
 154 005a FFF7FEFF 		bl	RTCgetRecentMs
 155 005e 031C     		mov	r3, r0
 156 0060 9AB2     		uxth	r2, r3
 157 0062 114B     		ldr	r3, .L7+16
 158 0064 DA80     		strh	r2, [r3, #6]
 145:network.c     ****                 unixTime[T2] = recvDataNTP.Data1;
 159              		.loc 1 145 0
 160 0066 0E4B     		ldr	r3, .L7+8
 161 0068 5A68     		ldr	r2, [r3, #4]
 162 006a 0E4B     		ldr	r3, .L7+12
 163 006c 5A60     		str	r2, [r3, #4]
 146:network.c     ****                 millisTime[T2] = recvDataNTP.DataMs1;
 164              		.loc 1 146 0
 165 006e 0C4B     		ldr	r3, .L7+8
 166 0070 1A89     		ldrh	r2, [r3, #8]
 167 0072 0D4B     		ldr	r3, .L7+16
 168 0074 5A80     		strh	r2, [r3, #2]
 147:network.c     ****                 unixTime[T3] = recvDataNTP.Data2;
 169              		.loc 1 147 0
 170 0076 0A4B     		ldr	r3, .L7+8
 171 0078 DA68     		ldr	r2, [r3, #12]
 172 007a 0A4B     		ldr	r3, .L7+12
 173 007c 9A60     		str	r2, [r3, #8]
 148:network.c     ****                 millisTime[T3] = recvDataNTP.DataMs2;
 174              		.loc 1 148 0
 175 007e 084B     		ldr	r3, .L7+8
 176 0080 5A89     		ldrh	r2, [r3, #10]
 177 0082 094B     		ldr	r3, .L7+16
 178 0084 9A80     		strh	r2, [r3, #4]
 149:network.c     ****                 
 150:network.c     ****                 #ifdef DEBUGNTP
 151:network.c     ****                     pinDebugNtp_Write(1);
 152:network.c     ****                     pinDebugNtp_Write(0);
 153:network.c     ****                 #endif
 154:network.c     ****                 
 155:network.c     ****                 ntpFlagEndReceivePacket = 1;
 179              		.loc 1 155 0
 180 0086 094B     		ldr	r3, .L7+20
 181 0088 0122     		mov	r2, #1
 182 008a 1A70     		strb	r2, [r3]
 156:network.c     ****                 ntpFlagReadyForReceive = 0;
 183              		.loc 1 156 0
 184 008c 034B     		ldr	r3, .L7+4
 185 008e 0022     		mov	r2, #0
 186 0090 1A70     		strb	r2, [r3]
ARM GAS  C:\Users\Petro\AppData\Local\Temp\cclReBew.s 			page 7


 187              	.L4:
 188              	.LBE2:
 157:network.c     ****             }
 158:network.c     ****         }
 159:network.c     ****     }
 160:network.c     ****     
 161:network.c     **** }
 189              		.loc 1 161 0
 190 0092 BD46     		mov	sp, r7
 191 0094 03B0     		add	sp, sp, #12
 192              		@ sp needed
 193 0096 90BD     		pop	{r4, r7, pc}
 194              	.L8:
 195              		.align	2
 196              	.L7:
 197 0098 00000000 		.word	onNtpSync
 198 009c 00000000 		.word	ntpFlagReadyForReceive
 199 00a0 00000000 		.word	recvDataNTP
 200 00a4 00000000 		.word	unixTime
 201 00a8 00000000 		.word	millisTime
 202 00ac 00000000 		.word	ntpFlagEndReceivePacket
 203              		.cfi_endproc
 204              	.LFE64:
 205              		.size	CustomInterruptHandler, .-CustomInterruptHandler
 206              		.section	.rodata
 207              		.align	2
 208              	.LC12:
 209 0000 25303258 		.ascii	"%02X:%016X%02X%02X%02X%02X\000"
 209      3A253031 
 209      36582530 
 209      32582530 
 209      32582530 
 210              		.section	.text.SendData,"ax",%progbits
 211              		.align	2
 212              		.global	SendData
 213              		.code	16
 214              		.thumb_func
 215              		.type	SendData, %function
 216              	SendData:
 217              	.LFB65:
 162:network.c     **** 
 163:network.c     **** 
 164:network.c     **** /*******************************************************************************
 165:network.c     **** * Function Name: SendData
 166:network.c     **** ********************************************************************************
 167:network.c     **** *
 168:network.c     **** * Summary:
 169:network.c     **** *   send data to start from struct "outData"
 170:network.c     **** *
 171:network.c     **** *******************************************************************************/
 172:network.c     **** void SendData(void)
 173:network.c     **** {   
 218              		.loc 1 173 0
 219              		.cfi_startproc
 220 0000 90B5     		push	{r4, r7, lr}
 221              		.cfi_def_cfa_offset 12
 222              		.cfi_offset 4, -12
ARM GAS  C:\Users\Petro\AppData\Local\Temp\cclReBew.s 			page 8


 223              		.cfi_offset 7, -8
 224              		.cfi_offset 14, -4
 225 0002 9FB0     		sub	sp, sp, #124
 226              		.cfi_def_cfa_offset 136
 227 0004 04AF     		add	r7, sp, #16
 228              		.cfi_def_cfa 7, 120
 174:network.c     ****     if( outData.writeStatus == NO_WRITE || inData.readStatus == READ_OK)
 229              		.loc 1 174 0
 230 0006 214B     		ldr	r3, .L12
 231 0008 9B7C     		ldrb	r3, [r3, #18]
 232 000a 002B     		cmp	r3, #0
 233 000c 03D0     		beq	.L10
 234              		.loc 1 174 0 is_stmt 0 discriminator 1
 235 000e 204B     		ldr	r3, .L12+4
 236 0010 1B7D     		ldrb	r3, [r3, #20]
 237 0012 012B     		cmp	r3, #1
 238 0014 36D1     		bne	.L9
 239              	.L10:
 240              	.LBB3:
 175:network.c     ****     {
 176:network.c     ****         char sendBuffer[DATA_BUFFER];
 177:network.c     ****         char sendData[DATA_BUFFER];
 178:network.c     ****         
 179:network.c     ****         outData.countSkiers = SkierOnWay();
 241              		.loc 1 179 0 is_stmt 1
 242 0016 FFF7FEFF 		bl	SkierOnWay
 243 001a 031C     		mov	r3, r0
 244 001c DAB2     		uxtb	r2, r3
 245 001e 1B4B     		ldr	r3, .L12
 246 0020 DA70     		strb	r2, [r3, #3]
 180:network.c     ****         
 181:network.c     ****         /*pack data*/
 182:network.c     ****         sprintf(sendData,"%02X:%016X%02X%02X%02X%02X", 0u, 0u, outData.ready, outData.reboot, \
 247              		.loc 1 182 0
 248 0022 1A4B     		ldr	r3, .L12
 249 0024 5B78     		ldrb	r3, [r3, #1]
 250 0026 1C1C     		mov	r4, r3
 251 0028 184B     		ldr	r3, .L12
 252 002a 9B78     		ldrb	r3, [r3, #2]
 253 002c 181C     		mov	r0, r3
 183:network.c     ****             outData.countSkiers, 0u);    
 254              		.loc 1 183 0
 255 002e 174B     		ldr	r3, .L12
 256 0030 DB78     		ldrb	r3, [r3, #3]
 182:network.c     ****             outData.countSkiers, 0u);    
 257              		.loc 1 182 0
 258 0032 3422     		mov	r2, #52
 259 0034 B918     		add	r1, r7, r2
 260 0036 174A     		ldr	r2, .L12+8
 261 0038 0094     		str	r4, [sp]
 262 003a 0190     		str	r0, [sp, #4]
 263 003c 0293     		str	r3, [sp, #8]
 264 003e 0023     		mov	r3, #0
 265 0040 0393     		str	r3, [sp, #12]
 266 0042 081C     		mov	r0, r1
 267 0044 111C     		mov	r1, r2
 268 0046 0022     		mov	r2, #0
ARM GAS  C:\Users\Petro\AppData\Local\Temp\cclReBew.s 			page 9


 269 0048 0023     		mov	r3, #0
 270 004a FFF7FEFF 		bl	sprintf
 184:network.c     ****         PackData(sendBuffer, (uint8_t *)sendData, outData.IDpacket);
 271              		.loc 1 184 0
 272 004e 0F4B     		ldr	r3, .L12
 273 0050 1B78     		ldrb	r3, [r3]
 274 0052 9BB2     		uxth	r3, r3
 275 0054 391C     		mov	r1, r7
 276 0056 3422     		mov	r2, #52
 277 0058 BA18     		add	r2, r7, r2
 278 005a 081C     		mov	r0, r1
 279 005c 111C     		mov	r1, r2
 280 005e 1A1C     		mov	r2, r3
 281 0060 FFF7FEFF 		bl	PackData
 185:network.c     ****         UART_XB_UartPutString(sendBuffer);
 282              		.loc 1 185 0
 283 0064 3B1C     		mov	r3, r7
 284 0066 181C     		mov	r0, r3
 285 0068 FFF7FEFF 		bl	UART_XB_UartPutString
 186:network.c     ****         
 187:network.c     ****         
 188:network.c     ****         /*flag transmit data*/
 189:network.c     ****         outData.writeStatus = WRITE_OK;
 286              		.loc 1 189 0
 287 006c 074B     		ldr	r3, .L12
 288 006e 0122     		mov	r2, #1
 289 0070 9A74     		strb	r2, [r3, #18]
 190:network.c     ****         inData.readStatus = NO_READ;
 290              		.loc 1 190 0
 291 0072 074B     		ldr	r3, .L12+4
 292 0074 0022     		mov	r2, #0
 293 0076 1A75     		strb	r2, [r3, #20]
 191:network.c     ****         
 192:network.c     ****         /*set timeout*/
 193:network.c     ****         noConnect = 0; 
 294              		.loc 1 193 0
 295 0078 074B     		ldr	r3, .L12+12
 296 007a 0022     		mov	r2, #0
 297 007c 1A60     		str	r2, [r3]
 194:network.c     ****         
 195:network.c     ****         CyDelay(50);
 298              		.loc 1 195 0
 299 007e 3220     		mov	r0, #50
 300 0080 FFF7FEFF 		bl	CyDelay
 301              	.L9:
 302              	.LBE3:
 196:network.c     ****     }
 197:network.c     **** }
 303              		.loc 1 197 0
 304 0084 BD46     		mov	sp, r7
 305 0086 1BB0     		add	sp, sp, #108
 306              		@ sp needed
 307 0088 90BD     		pop	{r4, r7, pc}
 308              	.L13:
 309 008a C046     		.align	2
 310              	.L12:
 311 008c 00000000 		.word	outData
ARM GAS  C:\Users\Petro\AppData\Local\Temp\cclReBew.s 			page 10


 312 0090 00000000 		.word	inData
 313 0094 00000000 		.word	.LC12
 314 0098 00000000 		.word	noConnect
 315              		.cfi_endproc
 316              	.LFE65:
 317              		.size	SendData, .-SendData
 318              		.section	.text.ReceiveData,"ax",%progbits
 319              		.align	2
 320              		.global	ReceiveData
 321              		.code	16
 322              		.thumb_func
 323              		.type	ReceiveData, %function
 324              	ReceiveData:
 325              	.LFB66:
 198:network.c     **** 
 199:network.c     **** /*******************************************************************************
 200:network.c     **** * Function Name: ReceiveData
 201:network.c     **** ********************************************************************************
 202:network.c     **** *
 203:network.c     **** * Summary:
 204:network.c     **** *   receive data from start in struct "inData"
 205:network.c     **** * Return:
 206:network.c     **** *   NETWORK_CONNECT or NETWORK_DISCONNECT
 207:network.c     **** *
 208:network.c     **** *******************************************************************************/
 209:network.c     **** uint32_t  ReceiveData(void)
 210:network.c     **** {   
 326              		.loc 1 210 0
 327              		.cfi_startproc
 328 0000 F0B5     		push	{r4, r5, r6, r7, lr}
 329              		.cfi_def_cfa_offset 20
 330              		.cfi_offset 4, -20
 331              		.cfi_offset 5, -16
 332              		.cfi_offset 6, -12
 333              		.cfi_offset 7, -8
 334              		.cfi_offset 14, -4
 335 0002 4746     		mov	r7, r8
 336 0004 80B4     		push	{r7}
 337              		.cfi_def_cfa_offset 24
 338              		.cfi_offset 8, -24
 339 0006 8CB0     		sub	sp, sp, #48
 340              		.cfi_def_cfa_offset 72
 341 0008 02AF     		add	r7, sp, #8
 342              		.cfi_def_cfa 7, 64
 211:network.c     ****     if(inData.readStatus == NO_READ && outData.writeStatus == WRITE_OK)
 343              		.loc 1 211 0
 344 000a 644B     		ldr	r3, .L25
 345 000c 1B7D     		ldrb	r3, [r3, #20]
 346 000e 002B     		cmp	r3, #0
 347 0010 00D0     		beq	.LCB263
 348 0012 BCE0     		b	.L15	@long jump
 349              	.LCB263:
 350              		.loc 1 211 0 is_stmt 0 discriminator 1
 351 0014 624B     		ldr	r3, .L25+4
 352 0016 9B7C     		ldrb	r3, [r3, #18]
 353 0018 012B     		cmp	r3, #1
 354 001a 00D0     		beq	.LCB267
ARM GAS  C:\Users\Petro\AppData\Local\Temp\cclReBew.s 			page 11


 355 001c B7E0     		b	.L15	@long jump
 356              	.LCB267:
 357              	.LBB4:
 212:network.c     ****     {
 213:network.c     ****         uint32_t result = 0;
 358              		.loc 1 213 0 is_stmt 1
 359 001e 0023     		mov	r3, #0
 360 0020 7B62     		str	r3, [r7, #36]
 214:network.c     ****         int i;
 215:network.c     ****         uint8_t byte;
 216:network.c     ****         struct Resp recvData;
 217:network.c     ****           
 218:network.c     ****         while((UART_XB_SpiUartGetRxBufferSize() > 0) && ((byte=UART_XB_UartGetChar()) != 0))
 361              		.loc 1 218 0
 362 0022 90E0     		b	.L16
 363              	.L22:
 219:network.c     ****         { 
 220:network.c     ****             result = UnpackData(&recvData, (uint8_t)(byte & 0xFF));
 364              		.loc 1 220 0
 365 0024 3A1C     		mov	r2, r7
 366 0026 2323     		mov	r3, #35
 367 0028 FB18     		add	r3, r7, r3
 368 002a 1B78     		ldrb	r3, [r3]
 369 002c 101C     		mov	r0, r2
 370 002e 191C     		mov	r1, r3
 371 0030 FFF7FEFF 		bl	UnpackData
 372 0034 031C     		mov	r3, r0
 373 0036 7B62     		str	r3, [r7, #36]
 221:network.c     ****             CyDelay(2);
 374              		.loc 1 221 0
 375 0038 0220     		mov	r0, #2
 376 003a FFF7FEFF 		bl	CyDelay
 222:network.c     ****             
 223:network.c     ****             
 224:network.c     ****             if(recvData.EndPacket == 1)
 377              		.loc 1 224 0
 378 003e 3B1C     		mov	r3, r7
 379 0040 1B7E     		ldrb	r3, [r3, #24]
 380 0042 012B     		cmp	r3, #1
 381 0044 00D0     		beq	.LCB289
 382 0046 7EE0     		b	.L16	@long jump
 383              	.LCB289:
 225:network.c     ****             {
 226:network.c     ****                 inData.IDpacket = recvData.Seq;
 384              		.loc 1 226 0
 385 0048 3B1C     		mov	r3, r7
 386 004a 1B88     		ldrh	r3, [r3]
 387 004c DAB2     		uxtb	r2, r3
 388 004e 534B     		ldr	r3, .L25
 389 0050 1A70     		strb	r2, [r3]
 227:network.c     ****                 
 228:network.c     ****                 /*id packet ok*/
 229:network.c     ****                 if(outData.IDpacket == inData.IDpacket)
 390              		.loc 1 229 0
 391 0052 534B     		ldr	r3, .L25+4
 392 0054 1A78     		ldrb	r2, [r3]
 393 0056 514B     		ldr	r3, .L25
ARM GAS  C:\Users\Petro\AppData\Local\Temp\cclReBew.s 			page 12


 394 0058 1B78     		ldrb	r3, [r3]
 395 005a 9A42     		cmp	r2, r3
 396 005c 51D1     		bne	.L17
 230:network.c     ****                 {
 231:network.c     ****                     inData.readStatus = READ_OK;
 397              		.loc 1 231 0
 398 005e 4F4B     		ldr	r3, .L25
 399 0060 0122     		mov	r2, #1
 400 0062 1A75     		strb	r2, [r3, #20]
 232:network.c     ****                     outData.writeStatus = NO_WRITE;
 401              		.loc 1 232 0
 402 0064 4E4B     		ldr	r3, .L25+4
 403 0066 0022     		mov	r2, #0
 404 0068 9A74     		strb	r2, [r3, #18]
 233:network.c     ****                     
 234:network.c     ****                     /*connect network*/
 235:network.c     ****                     networkStatus = NETWORK_CONNECT;
 405              		.loc 1 235 0
 406 006a 4E4B     		ldr	r3, .L25+8
 407 006c 0122     		mov	r2, #1
 408 006e 1A60     		str	r2, [r3]
 236:network.c     ****                     noConnect = 0;
 409              		.loc 1 236 0
 410 0070 4D4B     		ldr	r3, .L25+12
 411 0072 0022     		mov	r2, #0
 412 0074 1A60     		str	r2, [r3]
 237:network.c     ****                     
 238:network.c     ****                     /*write data*/
 239:network.c     ****                     inData.newSkier = (recvData.Data3 & 0xFF00) >> 8;
 413              		.loc 1 239 0
 414 0076 3B1C     		mov	r3, r7
 415 0078 5B8A     		ldrh	r3, [r3, #18]
 416 007a 1B0A     		lsr	r3, r3, #8
 417 007c 9BB2     		uxth	r3, r3
 418 007e DAB2     		uxtb	r2, r3
 419 0080 464B     		ldr	r3, .L25
 420 0082 9A74     		strb	r2, [r3, #18]
 240:network.c     ****                     inData.unixStartTime = recvData.Data1;
 421              		.loc 1 240 0
 422 0084 3B1C     		mov	r3, r7
 423 0086 DC68     		ldr	r4, [r3, #12]
 424 0088 9B68     		ldr	r3, [r3, #8]
 425 008a 444A     		ldr	r2, .L25
 426 008c 9360     		str	r3, [r2, #8]
 427 008e D460     		str	r4, [r2, #12]
 241:network.c     ****                     inData.startMsTime = recvData.Data2;
 428              		.loc 1 241 0
 429 0090 3B1C     		mov	r3, r7
 430 0092 1A8A     		ldrh	r2, [r3, #16]
 431 0094 414B     		ldr	r3, .L25
 432 0096 1A82     		strh	r2, [r3, #16]
 242:network.c     ****                     inData.reboot = (recvData.Data3 & 0x00FF);
 433              		.loc 1 242 0
 434 0098 3B1C     		mov	r3, r7
 435 009a 5B8A     		ldrh	r3, [r3, #18]
 436 009c DAB2     		uxtb	r2, r3
 437 009e 3F4B     		ldr	r3, .L25
ARM GAS  C:\Users\Petro\AppData\Local\Temp\cclReBew.s 			page 13


 438 00a0 DA74     		strb	r2, [r3, #19]
 243:network.c     ****                     
 244:network.c     ****                     /*if new skier on track*/
 245:network.c     ****                     if(inData.newSkier == NEW_SKIER_IN_TARCK )
 439              		.loc 1 245 0
 440 00a2 3E4B     		ldr	r3, .L25
 441 00a4 9B7C     		ldrb	r3, [r3, #18]
 442 00a6 012B     		cmp	r3, #1
 443 00a8 21D1     		bne	.L18
 246:network.c     ****                     {
 247:network.c     ****                         WriteStartTime(inData.unixStartTime, inData.startMsTime);
 444              		.loc 1 247 0
 445 00aa 3C4B     		ldr	r3, .L25
 446 00ac DC68     		ldr	r4, [r3, #12]
 447 00ae 9B68     		ldr	r3, [r3, #8]
 448 00b0 3A4A     		ldr	r2, .L25
 449 00b2 128A     		ldrh	r2, [r2, #16]
 450 00b4 181C     		mov	r0, r3
 451 00b6 211C     		mov	r1, r4
 452 00b8 FFF7FEFF 		bl	WriteStartTime
 248:network.c     ****                         BLE_sendOneSkierTimeStart(inData.unixStartTime, inData.startMsTime,GetIDski
 453              		.loc 1 248 0
 454 00bc 374B     		ldr	r3, .L25
 455 00be 9C68     		ldr	r4, [r3, #8]
 456 00c0 DD68     		ldr	r5, [r3, #12]
 457 00c2 364B     		ldr	r3, .L25
 458 00c4 1B8A     		ldrh	r3, [r3, #16]
 459 00c6 9846     		mov	r8, r3
 460 00c8 FFF7FEFF 		bl	GetIDskierStarted
 461 00cc 031C     		mov	r3, r0
 462 00ce DEB2     		uxtb	r6, r3
 463 00d0 FFF7FEFF 		bl	SkierOnWay
 464 00d4 031C     		mov	r3, r0
 465 00d6 DBB2     		uxtb	r3, r3
 466 00d8 0093     		str	r3, [sp]
 467 00da 0423     		mov	r3, #4
 468 00dc 0193     		str	r3, [sp, #4]
 469 00de 201C     		mov	r0, r4
 470 00e0 291C     		mov	r1, r5
 471 00e2 4246     		mov	r2, r8
 472 00e4 331C     		mov	r3, r6
 473 00e6 FFF7FEFF 		bl	BLE_sendOneSkierTimeStart
 249:network.c     ****                         IncrementID();
 474              		.loc 1 249 0
 475 00ea FFF7FEFF 		bl	IncrementID
 476              	.L18:
 250:network.c     ****                     }
 251:network.c     ****                     
 252:network.c     ****                     /*next packet*/
 253:network.c     ****                     outData.IDpacket++;
 477              		.loc 1 253 0
 478 00ee 2C4B     		ldr	r3, .L25+4
 479 00f0 1B78     		ldrb	r3, [r3]
 480 00f2 0133     		add	r3, r3, #1
 481 00f4 DAB2     		uxtb	r2, r3
 482 00f6 2A4B     		ldr	r3, .L25+4
 483 00f8 1A70     		strb	r2, [r3]
ARM GAS  C:\Users\Petro\AppData\Local\Temp\cclReBew.s 			page 14


 254:network.c     ****                     CyDelay(50);
 484              		.loc 1 254 0
 485 00fa 3220     		mov	r0, #50
 486 00fc FFF7FEFF 		bl	CyDelay
 487 0100 1FE0     		b	.L19
 488              	.L17:
 255:network.c     ****                 }  
 256:network.c     ****                 /* if prev packet late*/
 257:network.c     ****                 else if(outData.IDpacket == (inData.IDpacket + 1))
 489              		.loc 1 257 0
 490 0102 274B     		ldr	r3, .L25+4
 491 0104 1B78     		ldrb	r3, [r3]
 492 0106 1A1C     		mov	r2, r3
 493 0108 244B     		ldr	r3, .L25
 494 010a 1B78     		ldrb	r3, [r3]
 495 010c 0133     		add	r3, r3, #1
 496 010e 9A42     		cmp	r2, r3
 497 0110 17D1     		bne	.L19
 258:network.c     ****                 {
 259:network.c     ****                     inData.newSkier = recvData.Data3;
 498              		.loc 1 259 0
 499 0112 3B1C     		mov	r3, r7
 500 0114 5B8A     		ldrh	r3, [r3, #18]
 501 0116 DAB2     		uxtb	r2, r3
 502 0118 204B     		ldr	r3, .L25
 503 011a 9A74     		strb	r2, [r3, #18]
 260:network.c     ****                     inData.unixStartTime = recvData.Data1;
 504              		.loc 1 260 0
 505 011c 3B1C     		mov	r3, r7
 506 011e DC68     		ldr	r4, [r3, #12]
 507 0120 9B68     		ldr	r3, [r3, #8]
 508 0122 1E4A     		ldr	r2, .L25
 509 0124 9360     		str	r3, [r2, #8]
 510 0126 D460     		str	r4, [r2, #12]
 261:network.c     ****                     inData.startMsTime = recvData.Data2;
 511              		.loc 1 261 0
 512 0128 3B1C     		mov	r3, r7
 513 012a 1A8A     		ldrh	r2, [r3, #16]
 514 012c 1B4B     		ldr	r3, .L25
 515 012e 1A82     		strh	r2, [r3, #16]
 262:network.c     ****                     
 263:network.c     ****                     networkStatus = NETWORK_CONNECT;
 516              		.loc 1 263 0
 517 0130 1C4B     		ldr	r3, .L25+8
 518 0132 0122     		mov	r2, #1
 519 0134 1A60     		str	r2, [r3]
 264:network.c     ****                     noConnect = 0;
 520              		.loc 1 264 0
 521 0136 1C4B     		ldr	r3, .L25+12
 522 0138 0022     		mov	r2, #0
 523 013a 1A60     		str	r2, [r3]
 265:network.c     ****                     CyDelay(50);
 524              		.loc 1 265 0
 525 013c 3220     		mov	r0, #50
 526 013e FFF7FEFF 		bl	CyDelay
 527              	.L19:
 266:network.c     ****                 }
ARM GAS  C:\Users\Petro\AppData\Local\Temp\cclReBew.s 			page 15


 267:network.c     ****                 return  NETWORK_CONNECT;  
 528              		.loc 1 267 0
 529 0142 0123     		mov	r3, #1
 530 0144 24E0     		b	.L24
 531              	.L16:
 218:network.c     ****         { 
 532              		.loc 1 218 0
 533 0146 FFF7FEFF 		bl	UART_XB_SpiUartGetRxBufferSize
 534 014a 031E     		sub	r3, r0, #0
 535 014c 0BD0     		beq	.L21
 218:network.c     ****         { 
 536              		.loc 1 218 0 is_stmt 0 discriminator 1
 537 014e FFF7FEFF 		bl	UART_XB_UartGetChar
 538 0152 021C     		mov	r2, r0
 539 0154 2323     		mov	r3, #35
 540 0156 FB18     		add	r3, r7, r3
 541 0158 1A70     		strb	r2, [r3]
 542 015a 2323     		mov	r3, #35
 543 015c FB18     		add	r3, r7, r3
 544 015e 1B78     		ldrb	r3, [r3]
 545 0160 002B     		cmp	r3, #0
 546 0162 00D0     		beq	.LCB427
 547 0164 5EE7     		b	.L22	@long jump
 548              	.LCB427:
 549              	.L21:
 268:network.c     ****             }
 269:network.c     ****         }
 270:network.c     ****         
 271:network.c     ****         noConnect++;
 550              		.loc 1 271 0 is_stmt 1
 551 0166 104B     		ldr	r3, .L25+12
 552 0168 1B68     		ldr	r3, [r3]
 553 016a 5A1C     		add	r2, r3, #1
 554 016c 0E4B     		ldr	r3, .L25+12
 555 016e 1A60     		str	r2, [r3]
 272:network.c     ****         if(noConnect >= NETWORK_TIMEOUT)
 556              		.loc 1 272 0
 557 0170 0D4B     		ldr	r3, .L25+12
 558 0172 1B68     		ldr	r3, [r3]
 559 0174 312B     		cmp	r3, #49
 560 0176 08D9     		bls	.L23
 273:network.c     ****         {
 274:network.c     ****             outData.writeStatus = NO_WRITE;
 561              		.loc 1 274 0
 562 0178 094B     		ldr	r3, .L25+4
 563 017a 0022     		mov	r2, #0
 564 017c 9A74     		strb	r2, [r3, #18]
 275:network.c     ****             inData.readStatus = NO_READ;
 565              		.loc 1 275 0
 566 017e 074B     		ldr	r3, .L25
 567 0180 0022     		mov	r2, #0
 568 0182 1A75     		strb	r2, [r3, #20]
 276:network.c     ****             networkStatus = NETWORK_DISCONNECT;
 569              		.loc 1 276 0
 570 0184 074B     		ldr	r3, .L25+8
 571 0186 0022     		mov	r2, #0
 572 0188 1A60     		str	r2, [r3]
ARM GAS  C:\Users\Petro\AppData\Local\Temp\cclReBew.s 			page 16


 573              	.L23:
 277:network.c     ****         }
 278:network.c     ****         
 279:network.c     ****         return  NETWORK_DISCONNECT;
 574              		.loc 1 279 0
 575 018a 0023     		mov	r3, #0
 576 018c 00E0     		b	.L24
 577              	.L15:
 578              	.LBE4:
 280:network.c     ****     }
 281:network.c     ****     return 0;
 579              		.loc 1 281 0
 580 018e 0023     		mov	r3, #0
 581              	.L24:
 282:network.c     **** }
 582              		.loc 1 282 0 discriminator 1
 583 0190 181C     		mov	r0, r3
 584 0192 BD46     		mov	sp, r7
 585 0194 0AB0     		add	sp, sp, #40
 586              		@ sp needed
 587 0196 04BC     		pop	{r2}
 588 0198 9046     		mov	r8, r2
 589 019a F0BD     		pop	{r4, r5, r6, r7, pc}
 590              	.L26:
 591              		.align	2
 592              	.L25:
 593 019c 00000000 		.word	inData
 594 01a0 00000000 		.word	outData
 595 01a4 00000000 		.word	networkStatus
 596 01a8 00000000 		.word	noConnect
 597              		.cfi_endproc
 598              	.LFE66:
 599              		.size	ReceiveData, .-ReceiveData
 600              		.section	.text.SendFinStatus,"ax",%progbits
 601              		.align	2
 602              		.global	SendFinStatus
 603              		.code	16
 604              		.thumb_func
 605              		.type	SendFinStatus, %function
 606              	SendFinStatus:
 607              	.LFB67:
 283:network.c     **** 
 284:network.c     **** 
 285:network.c     **** /*******************************************************************************
 286:network.c     **** * Function Name: SendFinStatus
 287:network.c     **** ********************************************************************************
 288:network.c     **** *
 289:network.c     **** * Summary:
 290:network.c     **** *   set fin status
 291:network.c     **** * Parametrs:
 292:network.c     **** *   FIN_READY or FIN_NO_READY
 293:network.c     **** *
 294:network.c     **** *******************************************************************************/
 295:network.c     **** void SendFinStatus(uint32_t status)
 296:network.c     **** {
 608              		.loc 1 296 0
 609              		.cfi_startproc
ARM GAS  C:\Users\Petro\AppData\Local\Temp\cclReBew.s 			page 17


 610 0000 80B5     		push	{r7, lr}
 611              		.cfi_def_cfa_offset 8
 612              		.cfi_offset 7, -8
 613              		.cfi_offset 14, -4
 614 0002 82B0     		sub	sp, sp, #8
 615              		.cfi_def_cfa_offset 16
 616 0004 00AF     		add	r7, sp, #0
 617              		.cfi_def_cfa_register 7
 618 0006 7860     		str	r0, [r7, #4]
 297:network.c     ****     outData.ready = status;
 619              		.loc 1 297 0
 620 0008 7B68     		ldr	r3, [r7, #4]
 621 000a DAB2     		uxtb	r2, r3
 622 000c 024B     		ldr	r3, .L28
 623 000e 5A70     		strb	r2, [r3, #1]
 298:network.c     **** }
 624              		.loc 1 298 0
 625 0010 BD46     		mov	sp, r7
 626 0012 02B0     		add	sp, sp, #8
 627              		@ sp needed
 628 0014 80BD     		pop	{r7, pc}
 629              	.L29:
 630 0016 C046     		.align	2
 631              	.L28:
 632 0018 00000000 		.word	outData
 633              		.cfi_endproc
 634              	.LFE67:
 635              		.size	SendFinStatus, .-SendFinStatus
 636              		.section	.text.NetworkStatus,"ax",%progbits
 637              		.align	2
 638              		.global	NetworkStatus
 639              		.code	16
 640              		.thumb_func
 641              		.type	NetworkStatus, %function
 642              	NetworkStatus:
 643              	.LFB68:
 299:network.c     **** 
 300:network.c     **** /*******************************************************************************
 301:network.c     **** * Function Name: NetworkStatus
 302:network.c     **** ********************************************************************************
 303:network.c     **** *
 304:network.c     **** * Summary:
 305:network.c     **** *   read network status
 306:network.c     **** * Return:
 307:network.c     **** *   NETWORK_CONNECT or NETWORK_DISCONNECT
 308:network.c     **** *
 309:network.c     **** *******************************************************************************/
 310:network.c     **** uint32_t NetworkStatus(void)
 311:network.c     **** {
 644              		.loc 1 311 0
 645              		.cfi_startproc
 646 0000 80B5     		push	{r7, lr}
 647              		.cfi_def_cfa_offset 8
 648              		.cfi_offset 7, -8
 649              		.cfi_offset 14, -4
 650 0002 00AF     		add	r7, sp, #0
 651              		.cfi_def_cfa_register 7
ARM GAS  C:\Users\Petro\AppData\Local\Temp\cclReBew.s 			page 18


 312:network.c     ****     return networkStatus;
 652              		.loc 1 312 0
 653 0004 024B     		ldr	r3, .L32
 654 0006 1B68     		ldr	r3, [r3]
 313:network.c     **** }
 655              		.loc 1 313 0
 656 0008 181C     		mov	r0, r3
 657 000a BD46     		mov	sp, r7
 658              		@ sp needed
 659 000c 80BD     		pop	{r7, pc}
 660              	.L33:
 661 000e C046     		.align	2
 662              	.L32:
 663 0010 00000000 		.word	networkStatus
 664              		.cfi_endproc
 665              	.LFE68:
 666              		.size	NetworkStatus, .-NetworkStatus
 667              		.section	.text.IsRebootStartFlag,"ax",%progbits
 668              		.align	2
 669              		.global	IsRebootStartFlag
 670              		.code	16
 671              		.thumb_func
 672              		.type	IsRebootStartFlag, %function
 673              	IsRebootStartFlag:
 674              	.LFB69:
 314:network.c     **** 
 315:network.c     **** /*******************************************************************************
 316:network.c     **** * Function Name: ReadRebootStartFlag
 317:network.c     **** ********************************************************************************
 318:network.c     **** *
 319:network.c     **** * Summary:
 320:network.c     **** *   read reboot flag from start
 321:network.c     **** * Return:
 322:network.c     **** *   REBOOT or NO_REBOOT
 323:network.c     **** *
 324:network.c     **** *******************************************************************************/
 325:network.c     **** uint32_t IsRebootStartFlag(void)
 326:network.c     **** {
 675              		.loc 1 326 0
 676              		.cfi_startproc
 677 0000 80B5     		push	{r7, lr}
 678              		.cfi_def_cfa_offset 8
 679              		.cfi_offset 7, -8
 680              		.cfi_offset 14, -4
 681 0002 82B0     		sub	sp, sp, #8
 682              		.cfi_def_cfa_offset 16
 683 0004 00AF     		add	r7, sp, #0
 684              		.cfi_def_cfa_register 7
 327:network.c     ****     uint32_t result;
 328:network.c     ****     
 329:network.c     ****     if((inData.reboot == 1 && outData.reboot == 0) || (rebootFlag == REBOOT))
 685              		.loc 1 329 0
 686 0006 0F4B     		ldr	r3, .L40
 687 0008 DB7C     		ldrb	r3, [r3, #19]
 688 000a 012B     		cmp	r3, #1
 689 000c 03D1     		bne	.L35
 690              		.loc 1 329 0 is_stmt 0 discriminator 1
ARM GAS  C:\Users\Petro\AppData\Local\Temp\cclReBew.s 			page 19


 691 000e 0E4B     		ldr	r3, .L40+4
 692 0010 9B78     		ldrb	r3, [r3, #2]
 693 0012 002B     		cmp	r3, #0
 694 0014 03D0     		beq	.L36
 695              	.L35:
 696              		.loc 1 329 0 discriminator 3
 697 0016 0D4B     		ldr	r3, .L40+8
 698 0018 1B78     		ldrb	r3, [r3]
 699 001a FF2B     		cmp	r3, #255
 700 001c 05D1     		bne	.L37
 701              	.L36:
 330:network.c     ****     {
 331:network.c     ****         result = REBOOT;
 702              		.loc 1 331 0 is_stmt 1
 703 001e FF23     		mov	r3, #255
 704 0020 7B60     		str	r3, [r7, #4]
 332:network.c     ****         inData.reboot = 0;
 705              		.loc 1 332 0
 706 0022 084B     		ldr	r3, .L40
 707 0024 0022     		mov	r2, #0
 708 0026 DA74     		strb	r2, [r3, #19]
 709 0028 07E0     		b	.L38
 710              	.L37:
 333:network.c     ****     }
 334:network.c     ****     else 
 335:network.c     ****     {
 336:network.c     ****         outData.reboot = 0;
 711              		.loc 1 336 0
 712 002a 074B     		ldr	r3, .L40+4
 713 002c 0022     		mov	r2, #0
 714 002e 9A70     		strb	r2, [r3, #2]
 337:network.c     ****         inData.reboot = 0;
 715              		.loc 1 337 0
 716 0030 044B     		ldr	r3, .L40
 717 0032 0022     		mov	r2, #0
 718 0034 DA74     		strb	r2, [r3, #19]
 338:network.c     ****         result = NO_REBOOT;
 719              		.loc 1 338 0
 720 0036 FE23     		mov	r3, #254
 721 0038 7B60     		str	r3, [r7, #4]
 722              	.L38:
 339:network.c     ****     }
 340:network.c     ****     return result;
 723              		.loc 1 340 0
 724 003a 7B68     		ldr	r3, [r7, #4]
 341:network.c     **** }
 725              		.loc 1 341 0
 726 003c 181C     		mov	r0, r3
 727 003e BD46     		mov	sp, r7
 728 0040 02B0     		add	sp, sp, #8
 729              		@ sp needed
 730 0042 80BD     		pop	{r7, pc}
 731              	.L41:
 732              		.align	2
 733              	.L40:
 734 0044 00000000 		.word	inData
 735 0048 00000000 		.word	outData
ARM GAS  C:\Users\Petro\AppData\Local\Temp\cclReBew.s 			page 20


 736 004c 00000000 		.word	rebootFlag
 737              		.cfi_endproc
 738              	.LFE69:
 739              		.size	IsRebootStartFlag, .-IsRebootStartFlag
 740              		.section	.text.ClearRebootFlag,"ax",%progbits
 741              		.align	2
 742              		.global	ClearRebootFlag
 743              		.code	16
 744              		.thumb_func
 745              		.type	ClearRebootFlag, %function
 746              	ClearRebootFlag:
 747              	.LFB70:
 342:network.c     **** 
 343:network.c     **** void ClearRebootFlag(void)
 344:network.c     **** {
 748              		.loc 1 344 0
 749              		.cfi_startproc
 750 0000 80B5     		push	{r7, lr}
 751              		.cfi_def_cfa_offset 8
 752              		.cfi_offset 7, -8
 753              		.cfi_offset 14, -4
 754 0002 00AF     		add	r7, sp, #0
 755              		.cfi_def_cfa_register 7
 345:network.c     ****     outData.reboot = 0;
 756              		.loc 1 345 0
 757 0004 054B     		ldr	r3, .L43
 758 0006 0022     		mov	r2, #0
 759 0008 9A70     		strb	r2, [r3, #2]
 346:network.c     ****     inData.reboot = 0;
 760              		.loc 1 346 0
 761 000a 054B     		ldr	r3, .L43+4
 762 000c 0022     		mov	r2, #0
 763 000e DA74     		strb	r2, [r3, #19]
 347:network.c     ****     rebootFlag = NO_REBOOT;
 764              		.loc 1 347 0
 765 0010 044B     		ldr	r3, .L43+8
 766 0012 FE22     		mov	r2, #254
 767 0014 1A70     		strb	r2, [r3]
 348:network.c     **** }
 768              		.loc 1 348 0
 769 0016 BD46     		mov	sp, r7
 770              		@ sp needed
 771 0018 80BD     		pop	{r7, pc}
 772              	.L44:
 773 001a C046     		.align	2
 774              	.L43:
 775 001c 00000000 		.word	outData
 776 0020 00000000 		.word	inData
 777 0024 00000000 		.word	rebootFlag
 778              		.cfi_endproc
 779              	.LFE70:
 780              		.size	ClearRebootFlag, .-ClearRebootFlag
 781              		.section	.text.SetRebootFlag,"ax",%progbits
 782              		.align	2
 783              		.global	SetRebootFlag
 784              		.code	16
 785              		.thumb_func
ARM GAS  C:\Users\Petro\AppData\Local\Temp\cclReBew.s 			page 21


 786              		.type	SetRebootFlag, %function
 787              	SetRebootFlag:
 788              	.LFB71:
 349:network.c     **** 
 350:network.c     **** /*******************************************************************************
 351:network.c     **** * Function Name: WriteRebootFlag
 352:network.c     **** ********************************************************************************
 353:network.c     **** *
 354:network.c     **** * Summary:
 355:network.c     **** *   write reboot flag to start
 356:network.c     **** *
 357:network.c     **** *******************************************************************************/
 358:network.c     **** void SetRebootFlag(void)
 359:network.c     **** {
 789              		.loc 1 359 0
 790              		.cfi_startproc
 791 0000 80B5     		push	{r7, lr}
 792              		.cfi_def_cfa_offset 8
 793              		.cfi_offset 7, -8
 794              		.cfi_offset 14, -4
 795 0002 00AF     		add	r7, sp, #0
 796              		.cfi_def_cfa_register 7
 360:network.c     ****     outData.reboot = 1;
 797              		.loc 1 360 0
 798 0004 054B     		ldr	r3, .L46
 799 0006 0122     		mov	r2, #1
 800 0008 9A70     		strb	r2, [r3, #2]
 361:network.c     ****     inData.reboot = 0;
 801              		.loc 1 361 0
 802 000a 054B     		ldr	r3, .L46+4
 803 000c 0022     		mov	r2, #0
 804 000e DA74     		strb	r2, [r3, #19]
 362:network.c     ****     rebootFlag = REBOOT;
 805              		.loc 1 362 0
 806 0010 044B     		ldr	r3, .L46+8
 807 0012 FF22     		mov	r2, #255
 808 0014 1A70     		strb	r2, [r3]
 363:network.c     **** }
 809              		.loc 1 363 0
 810 0016 BD46     		mov	sp, r7
 811              		@ sp needed
 812 0018 80BD     		pop	{r7, pc}
 813              	.L47:
 814 001a C046     		.align	2
 815              	.L46:
 816 001c 00000000 		.word	outData
 817 0020 00000000 		.word	inData
 818 0024 00000000 		.word	rebootFlag
 819              		.cfi_endproc
 820              	.LFE71:
 821              		.size	SetRebootFlag, .-SetRebootFlag
 822              		.global	__aeabi_idiv
 823              		.section	.text.NTPsync,"ax",%progbits
 824              		.align	2
 825              		.global	NTPsync
 826              		.code	16
 827              		.thumb_func
ARM GAS  C:\Users\Petro\AppData\Local\Temp\cclReBew.s 			page 22


 828              		.type	NTPsync, %function
 829              	NTPsync:
 830              	.LFB72:
 364:network.c     **** 
 365:network.c     **** 
 366:network.c     **** /*******************************************************************************
 367:network.c     **** * Function Name: NTPsync
 368:network.c     **** ********************************************************************************
 369:network.c     **** *
 370:network.c     **** * Summary:
 371:network.c     **** *   NTP time synchronization protocol on
 372:network.c     **** * Return:
 373:network.c     **** *   TIME_SYNC_OK or TIME_SYNC_ERR
 374:network.c     **** *
 375:network.c     **** *******************************************************************************/
 376:network.c     **** uint32_t NTPsync(void)
 377:network.c     **** {
 831              		.loc 1 377 0
 832              		.cfi_startproc
 833 0000 F0B5     		push	{r4, r5, r6, r7, lr}
 834              		.cfi_def_cfa_offset 20
 835              		.cfi_offset 4, -20
 836              		.cfi_offset 5, -16
 837              		.cfi_offset 6, -12
 838              		.cfi_offset 7, -8
 839              		.cfi_offset 14, -4
 840 0002 8FB0     		sub	sp, sp, #60
 841              		.cfi_def_cfa_offset 80
 842 0004 00AF     		add	r7, sp, #0
 843              		.cfi_def_cfa_register 7
 378:network.c     ****     uint16_t result;
 379:network.c     ****     uint16_t IDpacket;
 380:network.c     ****     UART_XB_SpiUartClearRxBuffer();
 844              		.loc 1 380 0
 845 0006 FFF7FEFF 		bl	UART_XB_SpiUartClearRxBuffer
 381:network.c     ****     
 382:network.c     ****     /*----------------------------------------------------------
 383:network.c     ****     send real unix time
 384:network.c     ****     ----------------------------------------------------------*/
 385:network.c     ****     uint16_t delayReceivePacket ;
 386:network.c     ****     uint16_t numAttemptSendPacket = NTP_CONNECT_ATTEMPS;
 846              		.loc 1 386 0
 847 000a 2023     		mov	r3, #32
 848 000c 1022     		mov	r2, #16
 849 000e 9446     		mov	ip, r2
 850 0010 BC44     		add	ip, ip, r7
 851 0012 6344     		add	r3, r3, ip
 852 0014 0622     		mov	r2, #6
 853 0016 1A80     		strh	r2, [r3]
 387:network.c     ****     result = ERROR;
 854              		.loc 1 387 0
 855 0018 2623     		mov	r3, #38
 856 001a 1022     		mov	r2, #16
 857 001c 9446     		mov	ip, r2
 858 001e BC44     		add	ip, ip, r7
 859 0020 6344     		add	r3, r3, ip
 860 0022 0022     		mov	r2, #0
ARM GAS  C:\Users\Petro\AppData\Local\Temp\cclReBew.s 			page 23


 861 0024 1A80     		strh	r2, [r3]
 388:network.c     ****     ntpFlagReadyForReceive = 1;
 862              		.loc 1 388 0
 863 0026 D44B     		ldr	r3, .L84
 864 0028 0122     		mov	r2, #1
 865 002a 1A70     		strb	r2, [r3]
 389:network.c     ****     onNtpSync = 1;
 866              		.loc 1 389 0
 867 002c D34B     		ldr	r3, .L84+4
 868 002e 0122     		mov	r2, #1
 869 0030 1A70     		strb	r2, [r3]
 390:network.c     ****     
 391:network.c     ****     while(numAttemptSendPacket && result != OK)
 870              		.loc 1 391 0
 871 0032 C1E0     		b	.L49
 872              	.L57:
 873              	.LBB5:
 392:network.c     ****     {
 393:network.c     ****         IDpacket = 1;
 874              		.loc 1 393 0
 875 0034 2423     		mov	r3, #36
 876 0036 1022     		mov	r2, #16
 877 0038 9446     		mov	ip, r2
 878 003a BC44     		add	ip, ip, r7
 879 003c 6344     		add	r3, r3, ip
 880 003e 0122     		mov	r2, #1
 881 0040 1A80     		strh	r2, [r3]
 394:network.c     ****         unixTime[T1] = RTCGetUnixTime();
 882              		.loc 1 394 0
 883 0042 FFF7FEFF 		bl	RTCGetUnixTime
 884 0046 021C     		mov	r2, r0
 885 0048 0B1C     		mov	r3, r1
 886 004a CD4B     		ldr	r3, .L84+8
 887 004c 1A60     		str	r2, [r3]
 395:network.c     ****         millisTime[T1] = RTCgetRecentMs();
 888              		.loc 1 395 0
 889 004e FFF7FEFF 		bl	RTCgetRecentMs
 890 0052 031C     		mov	r3, r0
 891 0054 9AB2     		uxth	r2, r3
 892 0056 CB4B     		ldr	r3, .L84+12
 893 0058 1A80     		strh	r2, [r3]
 396:network.c     ****         #ifdef DEBUGNTP
 397:network.c     ****             pinDebugNtp_Write(1);
 398:network.c     ****             pinDebugNtp_Write(0);
 399:network.c     ****             pinDebugNtp_Write(1);
 400:network.c     ****             pinDebugNtp_Write(0);
 401:network.c     ****         #endif 
 402:network.c     ****         
 403:network.c     ****         NTPsendTime(unixTime[T1], millisTime[T1], IDpacket);
 894              		.loc 1 403 0
 895 005a C94B     		ldr	r3, .L84+8
 896 005c 1968     		ldr	r1, [r3]
 897 005e C94B     		ldr	r3, .L84+12
 898 0060 1A88     		ldrh	r2, [r3]
 899 0062 2423     		mov	r3, #36
 900 0064 1020     		mov	r0, #16
 901 0066 8446     		mov	ip, r0
ARM GAS  C:\Users\Petro\AppData\Local\Temp\cclReBew.s 			page 24


 902 0068 BC44     		add	ip, ip, r7
 903 006a 6344     		add	r3, r3, ip
 904 006c 1B88     		ldrh	r3, [r3]
 905 006e 081C     		mov	r0, r1
 906 0070 111C     		mov	r1, r2
 907 0072 1A1C     		mov	r2, r3
 908 0074 FFF7FEFF 		bl	NTPsendTime
 404:network.c     ****         
 405:network.c     ****         delayReceivePacket = NTP_DELAY_RECEIVED_PACKET;
 909              		.loc 1 405 0
 910 0078 2223     		mov	r3, #34
 911 007a 1022     		mov	r2, #16
 912 007c 9446     		mov	ip, r2
 913 007e BC44     		add	ip, ip, r7
 914 0080 6344     		add	r3, r3, ip
 915 0082 FA22     		mov	r2, #250
 916 0084 5200     		lsl	r2, r2, #1
 917 0086 1A80     		strh	r2, [r3]
 406:network.c     ****         uint32_t oldUnixTime = RTCGetUnixTime();
 918              		.loc 1 406 0
 919 0088 FFF7FEFF 		bl	RTCGetUnixTime
 920 008c 021C     		mov	r2, r0
 921 008e 0B1C     		mov	r3, r1
 922 0090 131C     		mov	r3, r2
 923 0092 FB62     		str	r3, [r7, #44]
 407:network.c     ****         delayReceivePacket += RTCgetRecentMs();
 924              		.loc 1 407 0
 925 0094 FFF7FEFF 		bl	RTCgetRecentMs
 926 0098 031C     		mov	r3, r0
 927 009a 99B2     		uxth	r1, r3
 928 009c 2223     		mov	r3, #34
 929 009e 1022     		mov	r2, #16
 930 00a0 9446     		mov	ip, r2
 931 00a2 BC44     		add	ip, ip, r7
 932 00a4 6344     		add	r3, r3, ip
 933 00a6 2222     		mov	r2, #34
 934 00a8 1020     		mov	r0, #16
 935 00aa 8446     		mov	ip, r0
 936 00ac BC44     		add	ip, ip, r7
 937 00ae 6244     		add	r2, r2, ip
 938 00b0 1288     		ldrh	r2, [r2]
 939 00b2 8A18     		add	r2, r1, r2
 940 00b4 1A80     		strh	r2, [r3]
 408:network.c     ****         
 409:network.c     ****         #ifdef DEBUG_INFO
 410:network.c     **** //                DEBUG_UART_UartPutString("send new packet\n\r");
 411:network.c     ****         #endif
 412:network.c     ****         
 413:network.c     ****         while((RTCgetRecentMs() < delayReceivePacket) && (result != OK))
 941              		.loc 1 413 0
 942 00b6 5FE0     		b	.L50
 943              	.L55:
 414:network.c     ****         {
 415:network.c     ****             if(ntpFlagEndReceivePacket)
 944              		.loc 1 415 0
 945 00b8 B34B     		ldr	r3, .L84+16
 946 00ba 1B78     		ldrb	r3, [r3]
ARM GAS  C:\Users\Petro\AppData\Local\Temp\cclReBew.s 			page 25


 947 00bc 002B     		cmp	r3, #0
 948 00be 16D0     		beq	.L51
 416:network.c     ****             {
 417:network.c     ****                 ntpFlagEndReceivePacket = 0;
 949              		.loc 1 417 0
 950 00c0 B14B     		ldr	r3, .L84+16
 951 00c2 0022     		mov	r2, #0
 952 00c4 1A70     		strb	r2, [r3]
 418:network.c     ****                 
 419:network.c     ****                 if(recvDataNTP.Id == IDpacket)
 953              		.loc 1 419 0
 954 00c6 B14B     		ldr	r3, .L84+20
 955 00c8 1B88     		ldrh	r3, [r3]
 956 00ca 2422     		mov	r2, #36
 957 00cc 1021     		mov	r1, #16
 958 00ce 8C46     		mov	ip, r1
 959 00d0 BC44     		add	ip, ip, r7
 960 00d2 6244     		add	r2, r2, ip
 961 00d4 1288     		ldrh	r2, [r2]
 962 00d6 9A42     		cmp	r2, r3
 963 00d8 06D1     		bne	.L52
 420:network.c     ****                 {
 421:network.c     ****                     result = OK;
 964              		.loc 1 421 0
 965 00da 2623     		mov	r3, #38
 966 00dc 1022     		mov	r2, #16
 967 00de 9446     		mov	ip, r2
 968 00e0 BC44     		add	ip, ip, r7
 969 00e2 6344     		add	r3, r3, ip
 970 00e4 0122     		mov	r2, #1
 971 00e6 1A80     		strh	r2, [r3]
 972              	.L52:
 422:network.c     ****                 }
 423:network.c     ****                 
 424:network.c     ****                 #ifdef DEBUG_INFO
 425:network.c     **** //                        sprintf(uartBuff,"idreceive=%d\n\r",recvDataNTP.Id);
 426:network.c     **** //                        DEBUG_UART_UartPutString(uartBuff);
 427:network.c     ****                 #endif
 428:network.c     ****                 
 429:network.c     ****                 ntpFlagReadyForReceive = 1;
 973              		.loc 1 429 0
 974 00e8 A34B     		ldr	r3, .L84
 975 00ea 0122     		mov	r2, #1
 976 00ec 1A70     		strb	r2, [r3]
 977              	.L51:
 430:network.c     ****             }
 431:network.c     ****             
 432:network.c     ****             if((oldUnixTime<RTCGetUnixTime()) && (delayReceivePacket >= 1000))
 978              		.loc 1 432 0
 979 00ee FB6A     		ldr	r3, [r7, #44]
 980 00f0 BB60     		str	r3, [r7, #8]
 981 00f2 0023     		mov	r3, #0
 982 00f4 FB60     		str	r3, [r7, #12]
 983 00f6 FFF7FEFF 		bl	RTCGetUnixTime
 984 00fa 021C     		mov	r2, r0
 985 00fc 0B1C     		mov	r3, r1
 986 00fe 2221     		mov	r1, #34
ARM GAS  C:\Users\Petro\AppData\Local\Temp\cclReBew.s 			page 26


 987 0100 1020     		mov	r0, #16
 988 0102 8446     		mov	ip, r0
 989 0104 BC44     		add	ip, ip, r7
 990 0106 6144     		add	r1, r1, ip
 991 0108 2220     		mov	r0, #34
 992 010a 1026     		mov	r6, #16
 993 010c B446     		mov	ip, r6
 994 010e BC44     		add	ip, ip, r7
 995 0110 6044     		add	r0, r0, ip
 996 0112 0088     		ldrh	r0, [r0]
 997 0114 0880     		strh	r0, [r1]
 998 0116 F968     		ldr	r1, [r7, #12]
 999 0118 8B42     		cmp	r3, r1
 1000 011a 06D8     		bhi	.L81
 1001 011c F968     		ldr	r1, [r7, #12]
 1002 011e 8B42     		cmp	r3, r1
 1003 0120 2AD1     		bne	.L50
 1004 0122 B968     		ldr	r1, [r7, #8]
 1005 0124 8A42     		cmp	r2, r1
 1006 0126 00D8     		bhi	.L81
 1007 0128 26E0     		b	.L50
 1008              	.L81:
 1009 012a 2223     		mov	r3, #34
 1010 012c 1022     		mov	r2, #16
 1011 012e 9446     		mov	ip, r2
 1012 0130 BC44     		add	ip, ip, r7
 1013 0132 6344     		add	r3, r3, ip
 1014 0134 2222     		mov	r2, #34
 1015 0136 1021     		mov	r1, #16
 1016 0138 8C46     		mov	ip, r1
 1017 013a BC44     		add	ip, ip, r7
 1018 013c 6244     		add	r2, r2, ip
 1019 013e 1288     		ldrh	r2, [r2]
 1020 0140 1A80     		strh	r2, [r3]
 1021              		.loc 1 432 0 is_stmt 0 discriminator 1
 1022 0142 2223     		mov	r3, #34
 1023 0144 1022     		mov	r2, #16
 1024 0146 9446     		mov	ip, r2
 1025 0148 BC44     		add	ip, ip, r7
 1026 014a 6344     		add	r3, r3, ip
 1027 014c 1B88     		ldrh	r3, [r3]
 1028 014e 904A     		ldr	r2, .L84+24
 1029 0150 9342     		cmp	r3, r2
 1030 0152 11D9     		bls	.L50
 433:network.c     ****             {
 434:network.c     ****                 delayReceivePacket -= 1000;
 1031              		.loc 1 434 0 is_stmt 1
 1032 0154 2223     		mov	r3, #34
 1033 0156 1022     		mov	r2, #16
 1034 0158 9446     		mov	ip, r2
 1035 015a BC44     		add	ip, ip, r7
 1036 015c 6344     		add	r3, r3, ip
 1037 015e 2222     		mov	r2, #34
 1038 0160 1021     		mov	r1, #16
 1039 0162 8C46     		mov	ip, r1
 1040 0164 BC44     		add	ip, ip, r7
 1041 0166 6244     		add	r2, r2, ip
ARM GAS  C:\Users\Petro\AppData\Local\Temp\cclReBew.s 			page 27


 1042 0168 1288     		ldrh	r2, [r2]
 1043 016a 8A49     		ldr	r1, .L84+28
 1044 016c 8C46     		mov	ip, r1
 1045 016e 6244     		add	r2, r2, ip
 1046 0170 1A80     		strh	r2, [r3]
 435:network.c     ****                 oldUnixTime++;
 1047              		.loc 1 435 0
 1048 0172 FB6A     		ldr	r3, [r7, #44]
 1049 0174 0133     		add	r3, r3, #1
 1050 0176 FB62     		str	r3, [r7, #44]
 1051              	.L50:
 413:network.c     ****         {
 1052              		.loc 1 413 0
 1053 0178 FFF7FEFF 		bl	RTCgetRecentMs
 1054 017c 021C     		mov	r2, r0
 1055 017e 2223     		mov	r3, #34
 1056 0180 1021     		mov	r1, #16
 1057 0182 8C46     		mov	ip, r1
 1058 0184 BC44     		add	ip, ip, r7
 1059 0186 6344     		add	r3, r3, ip
 1060 0188 1B88     		ldrh	r3, [r3]
 1061 018a 9A42     		cmp	r2, r3
 1062 018c 07D2     		bcs	.L54
 413:network.c     ****         {
 1063              		.loc 1 413 0 is_stmt 0 discriminator 1
 1064 018e 2623     		mov	r3, #38
 1065 0190 1022     		mov	r2, #16
 1066 0192 9446     		mov	ip, r2
 1067 0194 BC44     		add	ip, ip, r7
 1068 0196 6344     		add	r3, r3, ip
 1069 0198 1B88     		ldrh	r3, [r3]
 1070 019a 012B     		cmp	r3, #1
 1071 019c 8CD1     		bne	.L55
 1072              	.L54:
 436:network.c     ****                 
 437:network.c     ****                 #ifdef DEBUG_INFO
 438:network.c     **** //                        sprintf(uartBuff,"delayReceive=%d, realTimeMs=%d\n\r",delayReceivePacket,
 439:network.c     **** //                        DEBUG_UART_UartPutString(uartBuff);
 440:network.c     **** //                        sprintf(uartBuff,"unix[T1]=%d, realTimeunix=%d\n\r",unixTime[T1],(uint32_
 441:network.c     **** //                        DEBUG_UART_UartPutString(uartBuff);
 442:network.c     ****                 #endif
 443:network.c     ****             }
 444:network.c     ****         }
 445:network.c     ****         numAttemptSendPacket--;
 1073              		.loc 1 445 0 is_stmt 1
 1074 019e 2023     		mov	r3, #32
 1075 01a0 1022     		mov	r2, #16
 1076 01a2 9446     		mov	ip, r2
 1077 01a4 BC44     		add	ip, ip, r7
 1078 01a6 6344     		add	r3, r3, ip
 1079 01a8 1A88     		ldrh	r2, [r3]
 1080 01aa 2023     		mov	r3, #32
 1081 01ac 1021     		mov	r1, #16
 1082 01ae 8C46     		mov	ip, r1
 1083 01b0 BC44     		add	ip, ip, r7
 1084 01b2 6344     		add	r3, r3, ip
 1085 01b4 013A     		sub	r2, r2, #1
ARM GAS  C:\Users\Petro\AppData\Local\Temp\cclReBew.s 			page 28


 1086 01b6 1A80     		strh	r2, [r3]
 1087              	.L49:
 1088              	.LBE5:
 391:network.c     ****     {
 1089              		.loc 1 391 0
 1090 01b8 2023     		mov	r3, #32
 1091 01ba 1022     		mov	r2, #16
 1092 01bc 9446     		mov	ip, r2
 1093 01be BC44     		add	ip, ip, r7
 1094 01c0 6344     		add	r3, r3, ip
 1095 01c2 1B88     		ldrh	r3, [r3]
 1096 01c4 002B     		cmp	r3, #0
 1097 01c6 08D0     		beq	.L56
 391:network.c     ****     {
 1098              		.loc 1 391 0 is_stmt 0 discriminator 1
 1099 01c8 2623     		mov	r3, #38
 1100 01ca 1022     		mov	r2, #16
 1101 01cc 9446     		mov	ip, r2
 1102 01ce BC44     		add	ip, ip, r7
 1103 01d0 6344     		add	r3, r3, ip
 1104 01d2 1B88     		ldrh	r3, [r3]
 1105 01d4 012B     		cmp	r3, #1
 1106 01d6 00D0     		beq	.LCB938
 1107 01d8 2CE7     		b	.L57	@long jump
 1108              	.LCB938:
 1109              	.L56:
 446:network.c     ****     }
 447:network.c     ****     
 448:network.c     ****     
 449:network.c     ****     
 450:network.c     ****     /*----------------------------------------------------------
 451:network.c     ****     calculate difference time
 452:network.c     ****     ----------------------------------------------------------*/
 453:network.c     ****     uint8_t numSuccessuflPacket = 0;
 1110              		.loc 1 453 0 is_stmt 1
 1111 01da 1B23     		mov	r3, #27
 1112 01dc 1022     		mov	r2, #16
 1113 01de 9446     		mov	ip, r2
 1114 01e0 BC44     		add	ip, ip, r7
 1115 01e2 6344     		add	r3, r3, ip
 1116 01e4 0022     		mov	r2, #0
 1117 01e6 1A70     		strb	r2, [r3]
 454:network.c     ****     int32_t unixTimeDifference = 0;
 1118              		.loc 1 454 0
 1119 01e8 0023     		mov	r3, #0
 1120 01ea 7B62     		str	r3, [r7, #36]
 455:network.c     ****     int32_t msTimeDifference = 0;
 1121              		.loc 1 455 0
 1122 01ec 0023     		mov	r3, #0
 1123 01ee 3B62     		str	r3, [r7, #32]
 456:network.c     ****     numAttemptSendPacket = 0;
 1124              		.loc 1 456 0
 1125 01f0 2023     		mov	r3, #32
 1126 01f2 1022     		mov	r2, #16
 1127 01f4 9446     		mov	ip, r2
 1128 01f6 BC44     		add	ip, ip, r7
 1129 01f8 6344     		add	r3, r3, ip
ARM GAS  C:\Users\Petro\AppData\Local\Temp\cclReBew.s 			page 29


 1130 01fa 0022     		mov	r2, #0
 1131 01fc 1A80     		strh	r2, [r3]
 457:network.c     ****     IDpacket = 2;
 1132              		.loc 1 457 0
 1133 01fe 2423     		mov	r3, #36
 1134 0200 1022     		mov	r2, #16
 1135 0202 9446     		mov	ip, r2
 1136 0204 BC44     		add	ip, ip, r7
 1137 0206 6344     		add	r3, r3, ip
 1138 0208 0222     		mov	r2, #2
 1139 020a 1A80     		strh	r2, [r3]
 458:network.c     **** 
 459:network.c     ****     if(result == OK)
 1140              		.loc 1 459 0
 1141 020c 2623     		mov	r3, #38
 1142 020e 1022     		mov	r2, #16
 1143 0210 9446     		mov	ip, r2
 1144 0212 BC44     		add	ip, ip, r7
 1145 0214 6344     		add	r3, r3, ip
 1146 0216 1B88     		ldrh	r3, [r3]
 1147 0218 012B     		cmp	r3, #1
 1148 021a 0DD1     		bne	.L58
 460:network.c     ****     {
 461:network.c     ****         numSuccessuflPacket = NTP_SUCCESSFUL_PACKET;
 1149              		.loc 1 461 0
 1150 021c 1B23     		mov	r3, #27
 1151 021e 1022     		mov	r2, #16
 1152 0220 9446     		mov	ip, r2
 1153 0222 BC44     		add	ip, ip, r7
 1154 0224 6344     		add	r3, r3, ip
 1155 0226 0522     		mov	r2, #5
 1156 0228 1A70     		strb	r2, [r3]
 462:network.c     ****         numAttemptSendPacket = NTP_CONNECT_ATTEMPS;
 1157              		.loc 1 462 0
 1158 022a 2023     		mov	r3, #32
 1159 022c 1022     		mov	r2, #16
 1160 022e 9446     		mov	ip, r2
 1161 0230 BC44     		add	ip, ip, r7
 1162 0232 6344     		add	r3, r3, ip
 1163 0234 0622     		mov	r2, #6
 1164 0236 1A80     		strh	r2, [r3]
 1165              	.L58:
 463:network.c     ****     }
 464:network.c     ****     
 465:network.c     ****     while(numAttemptSendPacket && numSuccessuflPacket )
 1166              		.loc 1 465 0
 1167 0238 03E1     		b	.L59
 1168              	.L67:
 1169              	.LBB6:
 466:network.c     ****     {
 467:network.c     ****         result = ERROR;
 1170              		.loc 1 467 0
 1171 023a 2623     		mov	r3, #38
 1172 023c 1022     		mov	r2, #16
 1173 023e 9446     		mov	ip, r2
 1174 0240 BC44     		add	ip, ip, r7
 1175 0242 6344     		add	r3, r3, ip
ARM GAS  C:\Users\Petro\AppData\Local\Temp\cclReBew.s 			page 30


 1176 0244 0022     		mov	r2, #0
 1177 0246 1A80     		strh	r2, [r3]
 468:network.c     ****         unixTime[T1] = RTCGetUnixTime();
 1178              		.loc 1 468 0
 1179 0248 FFF7FEFF 		bl	RTCGetUnixTime
 1180 024c 021C     		mov	r2, r0
 1181 024e 0B1C     		mov	r3, r1
 1182 0250 4B4B     		ldr	r3, .L84+8
 1183 0252 1A60     		str	r2, [r3]
 469:network.c     ****         millisTime[T1] = RTCgetRecentMs();
 1184              		.loc 1 469 0
 1185 0254 FFF7FEFF 		bl	RTCgetRecentMs
 1186 0258 031C     		mov	r3, r0
 1187 025a 9AB2     		uxth	r2, r3
 1188 025c 494B     		ldr	r3, .L84+12
 1189 025e 1A80     		strh	r2, [r3]
 470:network.c     ****         #ifdef DEBUGNTP
 471:network.c     ****             pinDebugNtp_Write(1);
 472:network.c     ****             pinDebugNtp_Write(0);
 473:network.c     ****             pinDebugNtp_Write(1);
 474:network.c     ****             pinDebugNtp_Write(0);
 475:network.c     ****         #endif 
 476:network.c     ****         NTPsendTime(unixTime[T1], millisTime[T1], IDpacket);
 1190              		.loc 1 476 0
 1191 0260 474B     		ldr	r3, .L84+8
 1192 0262 1968     		ldr	r1, [r3]
 1193 0264 474B     		ldr	r3, .L84+12
 1194 0266 1A88     		ldrh	r2, [r3]
 1195 0268 2423     		mov	r3, #36
 1196 026a 1020     		mov	r0, #16
 1197 026c 8446     		mov	ip, r0
 1198 026e BC44     		add	ip, ip, r7
 1199 0270 6344     		add	r3, r3, ip
 1200 0272 1B88     		ldrh	r3, [r3]
 1201 0274 081C     		mov	r0, r1
 1202 0276 111C     		mov	r1, r2
 1203 0278 1A1C     		mov	r2, r3
 1204 027a FFF7FEFF 		bl	NTPsendTime
 477:network.c     ****         
 478:network.c     ****         delayReceivePacket =  2*NTP_DELAY_RECEIVED_PACKET ;
 1205              		.loc 1 478 0
 1206 027e 2223     		mov	r3, #34
 1207 0280 1022     		mov	r2, #16
 1208 0282 9446     		mov	ip, r2
 1209 0284 BC44     		add	ip, ip, r7
 1210 0286 6344     		add	r3, r3, ip
 1211 0288 FA22     		mov	r2, #250
 1212 028a 9200     		lsl	r2, r2, #2
 1213 028c 1A80     		strh	r2, [r3]
 479:network.c     ****         delayReceivePacket += RTCgetRecentMs();
 1214              		.loc 1 479 0
 1215 028e FFF7FEFF 		bl	RTCgetRecentMs
 1216 0292 031C     		mov	r3, r0
 1217 0294 99B2     		uxth	r1, r3
 1218 0296 2223     		mov	r3, #34
 1219 0298 1022     		mov	r2, #16
 1220 029a 9446     		mov	ip, r2
ARM GAS  C:\Users\Petro\AppData\Local\Temp\cclReBew.s 			page 31


 1221 029c BC44     		add	ip, ip, r7
 1222 029e 6344     		add	r3, r3, ip
 1223 02a0 2222     		mov	r2, #34
 1224 02a2 1020     		mov	r0, #16
 1225 02a4 8446     		mov	ip, r0
 1226 02a6 BC44     		add	ip, ip, r7
 1227 02a8 6244     		add	r2, r2, ip
 1228 02aa 1288     		ldrh	r2, [r2]
 1229 02ac 8A18     		add	r2, r1, r2
 1230 02ae 1A80     		strh	r2, [r3]
 480:network.c     ****         uint32_t oldUnixTime = RTCGetUnixTime();
 1231              		.loc 1 480 0
 1232 02b0 FFF7FEFF 		bl	RTCGetUnixTime
 1233 02b4 021C     		mov	r2, r0
 1234 02b6 0B1C     		mov	r3, r1
 1235 02b8 131C     		mov	r3, r2
 1236 02ba FB61     		str	r3, [r7, #28]
 481:network.c     ****         #ifdef DEBUG_INFO
 482:network.c     **** //                DEBUG_UART_UartPutString("send new packet\n\r");
 483:network.c     **** //                sprintf(uartBuff,"numSuccesful=%d\n\n\r",numSuccessuflPacket);
 484:network.c     **** //                DEBUG_UART_UartPutString(uartBuff);
 485:network.c     ****         #endif
 486:network.c     ****         
 487:network.c     ****         while((RTCgetRecentMs() < delayReceivePacket) && (result != OK) )
 1237              		.loc 1 487 0
 1238 02bc 93E0     		b	.L60
 1239              	.L65:
 488:network.c     ****         {
 489:network.c     ****             if(ntpFlagEndReceivePacket)
 1240              		.loc 1 489 0
 1241 02be 324B     		ldr	r3, .L84+16
 1242 02c0 1B78     		ldrb	r3, [r3]
 1243 02c2 002B     		cmp	r3, #0
 1244 02c4 3AD0     		beq	.L61
 490:network.c     ****             {
 491:network.c     ****                 ntpFlagEndReceivePacket = 0;
 1245              		.loc 1 491 0
 1246 02c6 304B     		ldr	r3, .L84+16
 1247 02c8 0022     		mov	r2, #0
 1248 02ca 1A70     		strb	r2, [r3]
 492:network.c     ****                 
 493:network.c     ****                 if(recvDataNTP.Id == IDpacket)
 1249              		.loc 1 493 0
 1250 02cc 2F4B     		ldr	r3, .L84+20
 1251 02ce 1B88     		ldrh	r3, [r3]
 1252 02d0 2422     		mov	r2, #36
 1253 02d2 1021     		mov	r1, #16
 1254 02d4 8C46     		mov	ip, r1
 1255 02d6 BC44     		add	ip, ip, r7
 1256 02d8 6244     		add	r2, r2, ip
 1257 02da 1288     		ldrh	r2, [r2]
 1258 02dc 9A42     		cmp	r2, r3
 1259 02de 2AD1     		bne	.L62
 1260              	.LBB7:
 494:network.c     ****                 {
 495:network.c     ****                     numSuccessuflPacket--;  
 1261              		.loc 1 495 0
ARM GAS  C:\Users\Petro\AppData\Local\Temp\cclReBew.s 			page 32


 1262 02e0 1B23     		mov	r3, #27
 1263 02e2 1022     		mov	r2, #16
 1264 02e4 9446     		mov	ip, r2
 1265 02e6 BC44     		add	ip, ip, r7
 1266 02e8 6344     		add	r3, r3, ip
 1267 02ea 1A78     		ldrb	r2, [r3]
 1268 02ec 1B23     		mov	r3, #27
 1269 02ee 1021     		mov	r1, #16
 1270 02f0 8C46     		mov	ip, r1
 1271 02f2 BC44     		add	ip, ip, r7
 1272 02f4 6344     		add	r3, r3, ip
 1273 02f6 013A     		sub	r2, r2, #1
 1274 02f8 1A70     		strb	r2, [r3]
 496:network.c     ****                     numAttemptSendPacket = NTP_CONNECT_ATTEMPS;
 1275              		.loc 1 496 0
 1276 02fa 2023     		mov	r3, #32
 1277 02fc 1022     		mov	r2, #16
 1278 02fe 9446     		mov	ip, r2
 1279 0300 BC44     		add	ip, ip, r7
 1280 0302 6344     		add	r3, r3, ip
 1281 0304 0622     		mov	r2, #6
 1282 0306 1A80     		strh	r2, [r3]
 497:network.c     ****                     result = OK;
 1283              		.loc 1 497 0
 1284 0308 2623     		mov	r3, #38
 1285 030a 1022     		mov	r2, #16
 1286 030c 9446     		mov	ip, r2
 1287 030e BC44     		add	ip, ip, r7
 1288 0310 6344     		add	r3, r3, ip
 1289 0312 0122     		mov	r2, #1
 1290 0314 1A80     		strh	r2, [r3]
 498:network.c     ****                     
 499:network.c     ****                     /*calculate difference time*/
 500:network.c     ****                     int32_t tmpUnix, tmpMs;
 501:network.c     ****                     NTPcalculateTime(unixTime,millisTime,&tmpUnix,&tmpMs);
 1291              		.loc 1 501 0
 1292 0316 1A48     		ldr	r0, .L84+8
 1293 0318 1A49     		ldr	r1, .L84+12
 1294 031a 1423     		mov	r3, #20
 1295 031c FA18     		add	r2, r7, r3
 1296 031e 1023     		mov	r3, #16
 1297 0320 FB18     		add	r3, r7, r3
 1298 0322 FFF7FEFF 		bl	NTPcalculateTime
 502:network.c     ****                     unixTimeDifference += tmpUnix;
 1299              		.loc 1 502 0
 1300 0326 7B69     		ldr	r3, [r7, #20]
 1301 0328 7A6A     		ldr	r2, [r7, #36]
 1302 032a D318     		add	r3, r2, r3
 1303 032c 7B62     		str	r3, [r7, #36]
 503:network.c     ****                     msTimeDifference += tmpMs;
 1304              		.loc 1 503 0
 1305 032e 3B69     		ldr	r3, [r7, #16]
 1306 0330 3A6A     		ldr	r2, [r7, #32]
 1307 0332 D318     		add	r3, r2, r3
 1308 0334 3B62     		str	r3, [r7, #32]
 1309              	.L62:
 1310              	.LBE7:
ARM GAS  C:\Users\Petro\AppData\Local\Temp\cclReBew.s 			page 33


 504:network.c     ****                     
 505:network.c     ****                     #ifdef DEBUG_INFO
 506:network.c     **** //                        sprintf(uartBuff,"diff unix=%d, diff ms-%d\n\r",tmpUnix, tmpMs);
 507:network.c     **** //                        DEBUG_UART_UartPutString(uartBuff);
 508:network.c     **** //                        int32_t tmpU;
 509:network.c     **** //                        int16_t tmpms;
 510:network.c     **** //
 511:network.c     **** //                        FuncTake(unixTime[T3],millisTime[T3],unixTime[T2],millisTime[T2],&tmpU,&t
 512:network.c     **** //                        sprintf(uartBuff,"T3-T2=%d.%d\n\r",tmpU, tmpms);
 513:network.c     **** //                        DEBUG_UART_UartPutString(uartBuff);
 514:network.c     **** //                        
 515:network.c     **** //                        FuncTake(unixTime[T4],millisTime[T4],unixTime[T1],millisTime[T1],&tmpU,&t
 516:network.c     **** //                        sprintf(uartBuff,"T4-T1=%d.%d\n\r",tmpU, tmpms);
 517:network.c     **** //                        DEBUG_UART_UartPutString(uartBuff);
 518:network.c     **** //                        
 519:network.c     **** //                        FuncTake(unixTime[T2],millisTime[T2],unixTime[T1],millisTime[T1],&tmpU,&t
 520:network.c     **** //                        sprintf(uartBuff,"T2-T1=%d.%d\n\r",tmpU, tmpms);
 521:network.c     **** //                        DEBUG_UART_UartPutString(uartBuff);
 522:network.c     ****                     #endif
 523:network.c     ****                 }
 524:network.c     ****                 
 525:network.c     ****                 #ifdef DEBUG_INFO
 526:network.c     **** //                        sprintf(uartBuff,"succesful=%d\n\r",numSuccessuflPacket);
 527:network.c     **** //                        DEBUG_UART_UartPutString(uartBuff);
 528:network.c     ****                 #endif
 529:network.c     ****                 
 530:network.c     ****                 ntpFlagReadyForReceive = 1;
 1311              		.loc 1 530 0
 1312 0336 104B     		ldr	r3, .L84
 1313 0338 0122     		mov	r2, #1
 1314 033a 1A70     		strb	r2, [r3]
 1315              	.L61:
 531:network.c     ****             }
 532:network.c     ****             if((oldUnixTime<RTCGetUnixTime()) && (delayReceivePacket >= 1000))
 1316              		.loc 1 532 0
 1317 033c FB69     		ldr	r3, [r7, #28]
 1318 033e 3B60     		str	r3, [r7]
 1319 0340 0023     		mov	r3, #0
 1320 0342 7B60     		str	r3, [r7, #4]
 1321 0344 FFF7FEFF 		bl	RTCGetUnixTime
 1322 0348 021C     		mov	r2, r0
 1323 034a 0B1C     		mov	r3, r1
 1324 034c 2221     		mov	r1, #34
 1325 034e 1020     		mov	r0, #16
 1326 0350 8446     		mov	ip, r0
 1327 0352 BC44     		add	ip, ip, r7
 1328 0354 6144     		add	r1, r1, ip
 1329 0356 2220     		mov	r0, #34
 1330 0358 1026     		mov	r6, #16
 1331 035a B446     		mov	ip, r6
 1332 035c BC44     		add	ip, ip, r7
 1333 035e 6044     		add	r0, r0, ip
 1334 0360 0088     		ldrh	r0, [r0]
 1335 0362 0880     		strh	r0, [r1]
 1336 0364 7968     		ldr	r1, [r7, #4]
 1337 0366 8B42     		cmp	r3, r1
 1338 0368 16D8     		bhi	.L82
ARM GAS  C:\Users\Petro\AppData\Local\Temp\cclReBew.s 			page 34


 1339 036a 7968     		ldr	r1, [r7, #4]
 1340 036c 8B42     		cmp	r3, r1
 1341 036e 3AD1     		bne	.L60
 1342 0370 3968     		ldr	r1, [r7]
 1343 0372 8A42     		cmp	r2, r1
 1344 0374 10D8     		bhi	.L82
 1345 0376 36E0     		b	.L60
 1346              	.L85:
 1347              		.align	2
 1348              	.L84:
 1349 0378 00000000 		.word	ntpFlagReadyForReceive
 1350 037c 00000000 		.word	onNtpSync
 1351 0380 00000000 		.word	unixTime
 1352 0384 00000000 		.word	millisTime
 1353 0388 00000000 		.word	ntpFlagEndReceivePacket
 1354 038c 00000000 		.word	recvDataNTP
 1355 0390 E7030000 		.word	999
 1356 0394 18FCFFFF 		.word	-1000
 1357              	.L82:
 1358 0398 2223     		mov	r3, #34
 1359 039a 1022     		mov	r2, #16
 1360 039c 9446     		mov	ip, r2
 1361 039e BC44     		add	ip, ip, r7
 1362 03a0 6344     		add	r3, r3, ip
 1363 03a2 2222     		mov	r2, #34
 1364 03a4 1021     		mov	r1, #16
 1365 03a6 8C46     		mov	ip, r1
 1366 03a8 BC44     		add	ip, ip, r7
 1367 03aa 6244     		add	r2, r2, ip
 1368 03ac 1288     		ldrh	r2, [r2]
 1369 03ae 1A80     		strh	r2, [r3]
 1370              		.loc 1 532 0 is_stmt 0 discriminator 1
 1371 03b0 2223     		mov	r3, #34
 1372 03b2 1022     		mov	r2, #16
 1373 03b4 9446     		mov	ip, r2
 1374 03b6 BC44     		add	ip, ip, r7
 1375 03b8 6344     		add	r3, r3, ip
 1376 03ba 1B88     		ldrh	r3, [r3]
 1377 03bc BD4A     		ldr	r2, .L86
 1378 03be 9342     		cmp	r3, r2
 1379 03c0 11D9     		bls	.L60
 533:network.c     ****             {
 534:network.c     ****                 delayReceivePacket -= 1000;
 1380              		.loc 1 534 0 is_stmt 1
 1381 03c2 2223     		mov	r3, #34
 1382 03c4 1022     		mov	r2, #16
 1383 03c6 9446     		mov	ip, r2
 1384 03c8 BC44     		add	ip, ip, r7
 1385 03ca 6344     		add	r3, r3, ip
 1386 03cc 2222     		mov	r2, #34
 1387 03ce 1021     		mov	r1, #16
 1388 03d0 8C46     		mov	ip, r1
 1389 03d2 BC44     		add	ip, ip, r7
 1390 03d4 6244     		add	r2, r2, ip
 1391 03d6 1288     		ldrh	r2, [r2]
 1392 03d8 B749     		ldr	r1, .L86+4
 1393 03da 8C46     		mov	ip, r1
ARM GAS  C:\Users\Petro\AppData\Local\Temp\cclReBew.s 			page 35


 1394 03dc 6244     		add	r2, r2, ip
 1395 03de 1A80     		strh	r2, [r3]
 535:network.c     ****                 oldUnixTime++;
 1396              		.loc 1 535 0
 1397 03e0 FB69     		ldr	r3, [r7, #28]
 1398 03e2 0133     		add	r3, r3, #1
 1399 03e4 FB61     		str	r3, [r7, #28]
 1400              	.L60:
 487:network.c     ****         {
 1401              		.loc 1 487 0
 1402 03e6 FFF7FEFF 		bl	RTCgetRecentMs
 1403 03ea 021C     		mov	r2, r0
 1404 03ec 2223     		mov	r3, #34
 1405 03ee 1021     		mov	r1, #16
 1406 03f0 8C46     		mov	ip, r1
 1407 03f2 BC44     		add	ip, ip, r7
 1408 03f4 6344     		add	r3, r3, ip
 1409 03f6 1B88     		ldrh	r3, [r3]
 1410 03f8 9A42     		cmp	r2, r3
 1411 03fa 08D2     		bcs	.L64
 487:network.c     ****         {
 1412              		.loc 1 487 0 is_stmt 0 discriminator 1
 1413 03fc 2623     		mov	r3, #38
 1414 03fe 1022     		mov	r2, #16
 1415 0400 9446     		mov	ip, r2
 1416 0402 BC44     		add	ip, ip, r7
 1417 0404 6344     		add	r3, r3, ip
 1418 0406 1B88     		ldrh	r3, [r3]
 1419 0408 012B     		cmp	r3, #1
 1420 040a 00D0     		beq	.LCB1229
 1421 040c 57E7     		b	.L65	@long jump
 1422              	.LCB1229:
 1423              	.L64:
 536:network.c     ****             }
 537:network.c     ****         }
 538:network.c     ****         numAttemptSendPacket--;
 1424              		.loc 1 538 0 is_stmt 1
 1425 040e 2023     		mov	r3, #32
 1426 0410 1022     		mov	r2, #16
 1427 0412 9446     		mov	ip, r2
 1428 0414 BC44     		add	ip, ip, r7
 1429 0416 6344     		add	r3, r3, ip
 1430 0418 1A88     		ldrh	r2, [r3]
 1431 041a 2023     		mov	r3, #32
 1432 041c 1021     		mov	r1, #16
 1433 041e 8C46     		mov	ip, r1
 1434 0420 BC44     		add	ip, ip, r7
 1435 0422 6344     		add	r3, r3, ip
 1436 0424 013A     		sub	r2, r2, #1
 1437 0426 1A80     		strh	r2, [r3]
 539:network.c     ****         IDpacket++;
 1438              		.loc 1 539 0
 1439 0428 2423     		mov	r3, #36
 1440 042a 1022     		mov	r2, #16
 1441 042c 9446     		mov	ip, r2
 1442 042e BC44     		add	ip, ip, r7
 1443 0430 6344     		add	r3, r3, ip
ARM GAS  C:\Users\Petro\AppData\Local\Temp\cclReBew.s 			page 36


 1444 0432 1A88     		ldrh	r2, [r3]
 1445 0434 2423     		mov	r3, #36
 1446 0436 1021     		mov	r1, #16
 1447 0438 8C46     		mov	ip, r1
 1448 043a BC44     		add	ip, ip, r7
 1449 043c 6344     		add	r3, r3, ip
 1450 043e 0132     		add	r2, r2, #1
 1451 0440 1A80     		strh	r2, [r3]
 1452              	.L59:
 1453              	.LBE6:
 465:network.c     ****     {
 1454              		.loc 1 465 0
 1455 0442 2023     		mov	r3, #32
 1456 0444 1022     		mov	r2, #16
 1457 0446 9446     		mov	ip, r2
 1458 0448 BC44     		add	ip, ip, r7
 1459 044a 6344     		add	r3, r3, ip
 1460 044c 1B88     		ldrh	r3, [r3]
 1461 044e 002B     		cmp	r3, #0
 1462 0450 08D0     		beq	.L66
 465:network.c     ****     {
 1463              		.loc 1 465 0 is_stmt 0 discriminator 1
 1464 0452 1B23     		mov	r3, #27
 1465 0454 1022     		mov	r2, #16
 1466 0456 9446     		mov	ip, r2
 1467 0458 BC44     		add	ip, ip, r7
 1468 045a 6344     		add	r3, r3, ip
 1469 045c 1B78     		ldrb	r3, [r3]
 1470 045e 002B     		cmp	r3, #0
 1471 0460 00D0     		beq	.LCB1275
 1472 0462 EAE6     		b	.L67	@long jump
 1473              	.LCB1275:
 1474              	.L66:
 540:network.c     ****     }
 541:network.c     ****     
 542:network.c     ****     
 543:network.c     ****     if(result == OK)
 1475              		.loc 1 543 0 is_stmt 1
 1476 0464 2623     		mov	r3, #38
 1477 0466 1022     		mov	r2, #16
 1478 0468 9446     		mov	ip, r2
 1479 046a BC44     		add	ip, ip, r7
 1480 046c 6344     		add	r3, r3, ip
 1481 046e 1B88     		ldrh	r3, [r3]
 1482 0470 012B     		cmp	r3, #1
 1483 0472 10D1     		bne	.L68
 544:network.c     ****     {
 545:network.c     ****         unixTimeDifference /= NTP_SUCCESSFUL_PACKET;
 1484              		.loc 1 545 0
 1485 0474 7B6A     		ldr	r3, [r7, #36]
 1486 0476 181C     		mov	r0, r3
 1487 0478 0521     		mov	r1, #5
 1488 047a FFF7FEFF 		bl	__aeabi_idiv
 1489 047e 031C     		mov	r3, r0
 1490 0480 7B62     		str	r3, [r7, #36]
 546:network.c     ****         msTimeDifference /= NTP_SUCCESSFUL_PACKET;
 1491              		.loc 1 546 0
ARM GAS  C:\Users\Petro\AppData\Local\Temp\cclReBew.s 			page 37


 1492 0482 3B6A     		ldr	r3, [r7, #32]
 1493 0484 181C     		mov	r0, r3
 1494 0486 0521     		mov	r1, #5
 1495 0488 FFF7FEFF 		bl	__aeabi_idiv
 1496 048c 031C     		mov	r3, r0
 1497 048e 3B62     		str	r3, [r7, #32]
 547:network.c     ****         msTimeDifference += 13; //add static diff time to send packet 
 1498              		.loc 1 547 0
 1499 0490 3B6A     		ldr	r3, [r7, #32]
 1500 0492 0D33     		add	r3, r3, #13
 1501 0494 3B62     		str	r3, [r7, #32]
 1502              	.L68:
 548:network.c     ****     }
 549:network.c     ****     
 550:network.c     ****     #ifdef DEBUG_INFO
 551:network.c     ****         sprintf(uartBuff,"---------diff_sum=%d.%d\n\r",unixTimeDifference, msTimeDifference);
 552:network.c     ****         DEBUG_UART_UartPutString(uartBuff);
 553:network.c     ****     #endif
 554:network.c     ****     
 555:network.c     ****     
 556:network.c     ****     
 557:network.c     ****     /*----------------------------------------------------------
 558:network.c     ****     send to start difference time
 559:network.c     ****     ----------------------------------------------------------*/
 560:network.c     ****     numAttemptSendPacket = 0;
 1503              		.loc 1 560 0
 1504 0496 2023     		mov	r3, #32
 1505 0498 1022     		mov	r2, #16
 1506 049a 9446     		mov	ip, r2
 1507 049c BC44     		add	ip, ip, r7
 1508 049e 6344     		add	r3, r3, ip
 1509 04a0 0022     		mov	r2, #0
 1510 04a2 1A80     		strh	r2, [r3]
 561:network.c     ****     if(result == OK)
 1511              		.loc 1 561 0
 1512 04a4 2623     		mov	r3, #38
 1513 04a6 1022     		mov	r2, #16
 1514 04a8 9446     		mov	ip, r2
 1515 04aa BC44     		add	ip, ip, r7
 1516 04ac 6344     		add	r3, r3, ip
 1517 04ae 1B88     		ldrh	r3, [r3]
 1518 04b0 012B     		cmp	r3, #1
 1519 04b2 06D1     		bne	.L69
 562:network.c     ****     {
 563:network.c     ****         numAttemptSendPacket = NTP_CONNECT_ATTEMPS;
 1520              		.loc 1 563 0
 1521 04b4 2023     		mov	r3, #32
 1522 04b6 1022     		mov	r2, #16
 1523 04b8 9446     		mov	ip, r2
 1524 04ba BC44     		add	ip, ip, r7
 1525 04bc 6344     		add	r3, r3, ip
 1526 04be 0622     		mov	r2, #6
 1527 04c0 1A80     		strh	r2, [r3]
 1528              	.L69:
 564:network.c     ****     }
 565:network.c     ****     ntpFlagReadyForReceive = 1;
 1529              		.loc 1 565 0
ARM GAS  C:\Users\Petro\AppData\Local\Temp\cclReBew.s 			page 38


 1530 04c2 7E4B     		ldr	r3, .L86+8
 1531 04c4 0122     		mov	r2, #1
 1532 04c6 1A70     		strb	r2, [r3]
 566:network.c     ****     IDpacket = 0;
 1533              		.loc 1 566 0
 1534 04c8 2423     		mov	r3, #36
 1535 04ca 1022     		mov	r2, #16
 1536 04cc 9446     		mov	ip, r2
 1537 04ce BC44     		add	ip, ip, r7
 1538 04d0 6344     		add	r3, r3, ip
 1539 04d2 0022     		mov	r2, #0
 1540 04d4 1A80     		strh	r2, [r3]
 567:network.c     ****     
 568:network.c     ****     while(numAttemptSendPacket)
 1541              		.loc 1 568 0
 1542 04d6 C0E0     		b	.L70
 1543              	.L77:
 1544              	.LBB8:
 569:network.c     ****     {
 570:network.c     ****         result = ERROR;
 1545              		.loc 1 570 0
 1546 04d8 2623     		mov	r3, #38
 1547 04da 1022     		mov	r2, #16
 1548 04dc 9446     		mov	ip, r2
 1549 04de BC44     		add	ip, ip, r7
 1550 04e0 6344     		add	r3, r3, ip
 1551 04e2 0022     		mov	r2, #0
 1552 04e4 1A80     		strh	r2, [r3]
 571:network.c     ****         
 572:network.c     ****         #ifdef DEBUGNTP
 573:network.c     ****             pinDebugNtp_Write(1);
 574:network.c     ****             pinDebugNtp_Write(0);
 575:network.c     ****             pinDebugNtp_Write(1);
 576:network.c     ****             pinDebugNtp_Write(0);
 577:network.c     ****         #endif 
 578:network.c     ****         /*send difference time*/
 579:network.c     ****         NTPsendTime(0, (uint16)-msTimeDifference, IDpacket);
 1553              		.loc 1 579 0
 1554 04e6 3B6A     		ldr	r3, [r7, #32]
 1555 04e8 9BB2     		uxth	r3, r3
 1556 04ea 5B42     		neg	r3, r3
 1557 04ec 9AB2     		uxth	r2, r3
 1558 04ee 2423     		mov	r3, #36
 1559 04f0 1021     		mov	r1, #16
 1560 04f2 8C46     		mov	ip, r1
 1561 04f4 BC44     		add	ip, ip, r7
 1562 04f6 6344     		add	r3, r3, ip
 1563 04f8 1B88     		ldrh	r3, [r3]
 1564 04fa 0020     		mov	r0, #0
 1565 04fc 111C     		mov	r1, r2
 1566 04fe 1A1C     		mov	r2, r3
 1567 0500 FFF7FEFF 		bl	NTPsendTime
 580:network.c     ****         
 581:network.c     ****         delayReceivePacket = NTP_DELAY_RECEIVED_PACKET;
 1568              		.loc 1 581 0
 1569 0504 2223     		mov	r3, #34
 1570 0506 1022     		mov	r2, #16
ARM GAS  C:\Users\Petro\AppData\Local\Temp\cclReBew.s 			page 39


 1571 0508 9446     		mov	ip, r2
 1572 050a BC44     		add	ip, ip, r7
 1573 050c 6344     		add	r3, r3, ip
 1574 050e FA22     		mov	r2, #250
 1575 0510 5200     		lsl	r2, r2, #1
 1576 0512 1A80     		strh	r2, [r3]
 582:network.c     ****         uint32_t oldUnixTime = RTCGetUnixTime();       
 1577              		.loc 1 582 0
 1578 0514 FFF7FEFF 		bl	RTCGetUnixTime
 1579 0518 021C     		mov	r2, r0
 1580 051a 0B1C     		mov	r3, r1
 1581 051c 131C     		mov	r3, r2
 1582 051e BB61     		str	r3, [r7, #24]
 583:network.c     ****         delayReceivePacket += RTCgetRecentMs();
 1583              		.loc 1 583 0
 1584 0520 FFF7FEFF 		bl	RTCgetRecentMs
 1585 0524 031C     		mov	r3, r0
 1586 0526 99B2     		uxth	r1, r3
 1587 0528 2223     		mov	r3, #34
 1588 052a 1022     		mov	r2, #16
 1589 052c 9446     		mov	ip, r2
 1590 052e BC44     		add	ip, ip, r7
 1591 0530 6344     		add	r3, r3, ip
 1592 0532 2222     		mov	r2, #34
 1593 0534 1020     		mov	r0, #16
 1594 0536 8446     		mov	ip, r0
 1595 0538 BC44     		add	ip, ip, r7
 1596 053a 6244     		add	r2, r2, ip
 1597 053c 1288     		ldrh	r2, [r2]
 1598 053e 8A18     		add	r2, r1, r2
 1599 0540 1A80     		strh	r2, [r3]
 584:network.c     ****         
 585:network.c     ****         #ifdef DEBUG_INFO
 586:network.c     **** //            DEBUG_UART_UartPutString("send new packet\n\r");
 587:network.c     **** //            sprintf(uartBuff, "numAttemptSendPacket=%d\n\r",numAttemptSendPacket);
 588:network.c     **** //            DEBUG_UART_UartPutString(uartBuff);
 589:network.c     ****         #endif
 590:network.c     ****         
 591:network.c     ****         while((RTCgetRecentMs() < delayReceivePacket) && (result != OK))
 1600              		.loc 1 591 0
 1601 0542 5BE0     		b	.L71
 1602              	.L76:
 592:network.c     ****         {
 593:network.c     ****             if(ntpFlagEndReceivePacket)
 1603              		.loc 1 593 0
 1604 0544 5E4B     		ldr	r3, .L86+12
 1605 0546 1B78     		ldrb	r3, [r3]
 1606 0548 002B     		cmp	r3, #0
 1607 054a 16D0     		beq	.L72
 594:network.c     ****             {
 595:network.c     ****                 ntpFlagEndReceivePacket = 0;
 1608              		.loc 1 595 0
 1609 054c 5C4B     		ldr	r3, .L86+12
 1610 054e 0022     		mov	r2, #0
 1611 0550 1A70     		strb	r2, [r3]
 596:network.c     ****                 
 597:network.c     ****                 if(recvDataNTP.Id == IDpacket)
ARM GAS  C:\Users\Petro\AppData\Local\Temp\cclReBew.s 			page 40


 1612              		.loc 1 597 0
 1613 0552 5C4B     		ldr	r3, .L86+16
 1614 0554 1B88     		ldrh	r3, [r3]
 1615 0556 2422     		mov	r2, #36
 1616 0558 1021     		mov	r1, #16
 1617 055a 8C46     		mov	ip, r1
 1618 055c BC44     		add	ip, ip, r7
 1619 055e 6244     		add	r2, r2, ip
 1620 0560 1288     		ldrh	r2, [r2]
 1621 0562 9A42     		cmp	r2, r3
 1622 0564 06D1     		bne	.L73
 598:network.c     ****                 {
 599:network.c     ****                     result = OK;
 1623              		.loc 1 599 0
 1624 0566 2623     		mov	r3, #38
 1625 0568 1022     		mov	r2, #16
 1626 056a 9446     		mov	ip, r2
 1627 056c BC44     		add	ip, ip, r7
 1628 056e 6344     		add	r3, r3, ip
 1629 0570 0122     		mov	r2, #1
 1630 0572 1A80     		strh	r2, [r3]
 1631              	.L73:
 600:network.c     ****                 }
 601:network.c     ****                 
 602:network.c     ****                 #ifdef DEBUG_INFO
 603:network.c     **** //                        sprintf(uartBuff,"idreceive=%d\n\r",recvDataNTP.Id);
 604:network.c     **** //                        DEBUG_UART_UartPutString(uartBuff);
 605:network.c     ****                 #endif
 606:network.c     ****                 
 607:network.c     ****                 ntpFlagReadyForReceive = 1;
 1632              		.loc 1 607 0
 1633 0574 514B     		ldr	r3, .L86+8
 1634 0576 0122     		mov	r2, #1
 1635 0578 1A70     		strb	r2, [r3]
 1636              	.L72:
 608:network.c     ****             }
 609:network.c     ****             
 610:network.c     ****             if((oldUnixTime<RTCGetUnixTime()) && (delayReceivePacket >= 1000))
 1637              		.loc 1 610 0
 1638 057a BB69     		ldr	r3, [r7, #24]
 1639 057c 1C1C     		mov	r4, r3
 1640 057e 0023     		mov	r3, #0
 1641 0580 1D1C     		mov	r5, r3
 1642 0582 FFF7FEFF 		bl	RTCGetUnixTime
 1643 0586 021C     		mov	r2, r0
 1644 0588 0B1C     		mov	r3, r1
 1645 058a 2221     		mov	r1, #34
 1646 058c 1020     		mov	r0, #16
 1647 058e 8446     		mov	ip, r0
 1648 0590 BC44     		add	ip, ip, r7
 1649 0592 6144     		add	r1, r1, ip
 1650 0594 2220     		mov	r0, #34
 1651 0596 1026     		mov	r6, #16
 1652 0598 B446     		mov	ip, r6
 1653 059a BC44     		add	ip, ip, r7
 1654 059c 6044     		add	r0, r0, ip
 1655 059e 0088     		ldrh	r0, [r0]
ARM GAS  C:\Users\Petro\AppData\Local\Temp\cclReBew.s 			page 41


 1656 05a0 0880     		strh	r0, [r1]
 1657 05a2 AB42     		cmp	r3, r5
 1658 05a4 03D8     		bhi	.L83
 1659 05a6 29D1     		bne	.L71
 1660 05a8 A242     		cmp	r2, r4
 1661 05aa 00D8     		bhi	.L83
 1662 05ac 26E0     		b	.L71
 1663              	.L83:
 1664 05ae 2223     		mov	r3, #34
 1665 05b0 1022     		mov	r2, #16
 1666 05b2 9446     		mov	ip, r2
 1667 05b4 BC44     		add	ip, ip, r7
 1668 05b6 6344     		add	r3, r3, ip
 1669 05b8 2222     		mov	r2, #34
 1670 05ba 1021     		mov	r1, #16
 1671 05bc 8C46     		mov	ip, r1
 1672 05be BC44     		add	ip, ip, r7
 1673 05c0 6244     		add	r2, r2, ip
 1674 05c2 1288     		ldrh	r2, [r2]
 1675 05c4 1A80     		strh	r2, [r3]
 1676              		.loc 1 610 0 is_stmt 0 discriminator 1
 1677 05c6 2223     		mov	r3, #34
 1678 05c8 1022     		mov	r2, #16
 1679 05ca 9446     		mov	ip, r2
 1680 05cc BC44     		add	ip, ip, r7
 1681 05ce 6344     		add	r3, r3, ip
 1682 05d0 1B88     		ldrh	r3, [r3]
 1683 05d2 384A     		ldr	r2, .L86
 1684 05d4 9342     		cmp	r3, r2
 1685 05d6 11D9     		bls	.L71
 611:network.c     ****             {
 612:network.c     ****                 delayReceivePacket -= 1000;
 1686              		.loc 1 612 0 is_stmt 1
 1687 05d8 2223     		mov	r3, #34
 1688 05da 1022     		mov	r2, #16
 1689 05dc 9446     		mov	ip, r2
 1690 05de BC44     		add	ip, ip, r7
 1691 05e0 6344     		add	r3, r3, ip
 1692 05e2 2222     		mov	r2, #34
 1693 05e4 1021     		mov	r1, #16
 1694 05e6 8C46     		mov	ip, r1
 1695 05e8 BC44     		add	ip, ip, r7
 1696 05ea 6244     		add	r2, r2, ip
 1697 05ec 1288     		ldrh	r2, [r2]
 1698 05ee 3249     		ldr	r1, .L86+4
 1699 05f0 8C46     		mov	ip, r1
 1700 05f2 6244     		add	r2, r2, ip
 1701 05f4 1A80     		strh	r2, [r3]
 613:network.c     ****                 oldUnixTime++;
 1702              		.loc 1 613 0
 1703 05f6 BB69     		ldr	r3, [r7, #24]
 1704 05f8 0133     		add	r3, r3, #1
 1705 05fa BB61     		str	r3, [r7, #24]
 1706              	.L71:
 591:network.c     ****         {
 1707              		.loc 1 591 0
 1708 05fc FFF7FEFF 		bl	RTCgetRecentMs
ARM GAS  C:\Users\Petro\AppData\Local\Temp\cclReBew.s 			page 42


 1709 0600 021C     		mov	r2, r0
 1710 0602 2223     		mov	r3, #34
 1711 0604 1021     		mov	r1, #16
 1712 0606 8C46     		mov	ip, r1
 1713 0608 BC44     		add	ip, ip, r7
 1714 060a 6344     		add	r3, r3, ip
 1715 060c 1B88     		ldrh	r3, [r3]
 1716 060e 9A42     		cmp	r2, r3
 1717 0610 07D2     		bcs	.L75
 591:network.c     ****         {
 1718              		.loc 1 591 0 is_stmt 0 discriminator 1
 1719 0612 2623     		mov	r3, #38
 1720 0614 1022     		mov	r2, #16
 1721 0616 9446     		mov	ip, r2
 1722 0618 BC44     		add	ip, ip, r7
 1723 061a 6344     		add	r3, r3, ip
 1724 061c 1B88     		ldrh	r3, [r3]
 1725 061e 012B     		cmp	r3, #1
 1726 0620 90D1     		bne	.L76
 1727              	.L75:
 614:network.c     ****                 
 615:network.c     ****                 #ifdef DEBUG_INFO
 616:network.c     **** //                        sprintf(uartBuff,"delayReceive=%d, realTimeMs=%d\n\r",delayReceivePacket,
 617:network.c     **** //                        DEBUG_UART_UartPutString(uartBuff);
 618:network.c     **** //                        sprintf(uartBuff,"unix[T1]=%d, realTimeunix=%d\n\r",unixTime[T1],(uint32_
 619:network.c     **** //                        DEBUG_UART_UartPutString(uartBuff);
 620:network.c     ****                 #endif
 621:network.c     ****             }
 622:network.c     ****         }
 623:network.c     ****         numAttemptSendPacket--;
 1728              		.loc 1 623 0 is_stmt 1
 1729 0622 2023     		mov	r3, #32
 1730 0624 1022     		mov	r2, #16
 1731 0626 9446     		mov	ip, r2
 1732 0628 BC44     		add	ip, ip, r7
 1733 062a 6344     		add	r3, r3, ip
 1734 062c 1A88     		ldrh	r2, [r3]
 1735 062e 2023     		mov	r3, #32
 1736 0630 1021     		mov	r1, #16
 1737 0632 8C46     		mov	ip, r1
 1738 0634 BC44     		add	ip, ip, r7
 1739 0636 6344     		add	r3, r3, ip
 1740 0638 013A     		sub	r2, r2, #1
 1741 063a 1A80     		strh	r2, [r3]
 624:network.c     ****         if(result == OK)
 1742              		.loc 1 624 0
 1743 063c 2623     		mov	r3, #38
 1744 063e 1022     		mov	r2, #16
 1745 0640 9446     		mov	ip, r2
 1746 0642 BC44     		add	ip, ip, r7
 1747 0644 6344     		add	r3, r3, ip
 1748 0646 1B88     		ldrh	r3, [r3]
 1749 0648 012B     		cmp	r3, #1
 1750 064a 06D1     		bne	.L70
 625:network.c     ****             numAttemptSendPacket = 0;
 1751              		.loc 1 625 0
 1752 064c 2023     		mov	r3, #32
ARM GAS  C:\Users\Petro\AppData\Local\Temp\cclReBew.s 			page 43


 1753 064e 1022     		mov	r2, #16
 1754 0650 9446     		mov	ip, r2
 1755 0652 BC44     		add	ip, ip, r7
 1756 0654 6344     		add	r3, r3, ip
 1757 0656 0022     		mov	r2, #0
 1758 0658 1A80     		strh	r2, [r3]
 1759              	.L70:
 1760              	.LBE8:
 568:network.c     ****     {
 1761              		.loc 1 568 0
 1762 065a 2023     		mov	r3, #32
 1763 065c 1022     		mov	r2, #16
 1764 065e 9446     		mov	ip, r2
 1765 0660 BC44     		add	ip, ip, r7
 1766 0662 6344     		add	r3, r3, ip
 1767 0664 1B88     		ldrh	r3, [r3]
 1768 0666 002B     		cmp	r3, #0
 1769 0668 00D0     		beq	.LCB1553
 1770 066a 35E7     		b	.L77	@long jump
 1771              	.LCB1553:
 626:network.c     ****     }
 627:network.c     ****     
 628:network.c     ****     #ifdef DEBUG_INFO
 629:network.c     ****         if(result == OK)
 630:network.c     ****         DEBUG_UART_UartPutString("okey\n\r");
 631:network.c     ****         else
 632:network.c     ****         DEBUG_UART_UartPutString("error\n\r");
 633:network.c     ****     #endif
 634:network.c     ****     
 635:network.c     ****     if(result == OK)
 1772              		.loc 1 635 0
 1773 066c 2623     		mov	r3, #38
 1774 066e 1022     		mov	r2, #16
 1775 0670 9446     		mov	ip, r2
 1776 0672 BC44     		add	ip, ip, r7
 1777 0674 6344     		add	r3, r3, ip
 1778 0676 1B88     		ldrh	r3, [r3]
 1779 0678 012B     		cmp	r3, #1
 1780 067a 07D1     		bne	.L78
 636:network.c     ****         result = TIME_SYNC_OK;
 1781              		.loc 1 636 0
 1782 067c 2623     		mov	r3, #38
 1783 067e 1022     		mov	r2, #16
 1784 0680 9446     		mov	ip, r2
 1785 0682 BC44     		add	ip, ip, r7
 1786 0684 6344     		add	r3, r3, ip
 1787 0686 0022     		mov	r2, #0
 1788 0688 1A80     		strh	r2, [r3]
 1789 068a 06E0     		b	.L79
 1790              	.L78:
 637:network.c     ****     else
 638:network.c     ****         result = TIME_SYNC_ERR;
 1791              		.loc 1 638 0
 1792 068c 2623     		mov	r3, #38
 1793 068e 1022     		mov	r2, #16
 1794 0690 9446     		mov	ip, r2
 1795 0692 BC44     		add	ip, ip, r7
ARM GAS  C:\Users\Petro\AppData\Local\Temp\cclReBew.s 			page 44


 1796 0694 6344     		add	r3, r3, ip
 1797 0696 0122     		mov	r2, #1
 1798 0698 1A80     		strh	r2, [r3]
 1799              	.L79:
 639:network.c     ****     
 640:network.c     ****     onNtpSync = 0;
 1800              		.loc 1 640 0
 1801 069a 0B4B     		ldr	r3, .L86+20
 1802 069c 0022     		mov	r2, #0
 1803 069e 1A70     		strb	r2, [r3]
 641:network.c     **** 
 642:network.c     ****     return result;
 1804              		.loc 1 642 0
 1805 06a0 2623     		mov	r3, #38
 1806 06a2 1022     		mov	r2, #16
 1807 06a4 9446     		mov	ip, r2
 1808 06a6 BC44     		add	ip, ip, r7
 1809 06a8 6344     		add	r3, r3, ip
 1810 06aa 1B88     		ldrh	r3, [r3]
 643:network.c     **** }
 1811              		.loc 1 643 0
 1812 06ac 181C     		mov	r0, r3
 1813 06ae BD46     		mov	sp, r7
 1814 06b0 0FB0     		add	sp, sp, #60
 1815              		@ sp needed
 1816 06b2 F0BD     		pop	{r4, r5, r6, r7, pc}
 1817              	.L87:
 1818              		.align	2
 1819              	.L86:
 1820 06b4 E7030000 		.word	999
 1821 06b8 18FCFFFF 		.word	-1000
 1822 06bc 00000000 		.word	ntpFlagReadyForReceive
 1823 06c0 00000000 		.word	ntpFlagEndReceivePacket
 1824 06c4 00000000 		.word	recvDataNTP
 1825 06c8 00000000 		.word	onNtpSync
 1826              		.cfi_endproc
 1827              	.LFE72:
 1828              		.size	NTPsync, .-NTPsync
 1829              		.section	.rodata
 1830 001b 00       		.align	2
 1831              	.LC36:
 1832 001c 25303858 		.ascii	"%08X%03X\000"
 1832      25303358 
 1832      00
 1833 0025 000000   		.section	.text.NTPsendTime,"ax",%progbits
 1834              		.align	2
 1835              		.global	NTPsendTime
 1836              		.code	16
 1837              		.thumb_func
 1838              		.type	NTPsendTime, %function
 1839              	NTPsendTime:
 1840              	.LFB73:
 644:network.c     **** 
 645:network.c     **** 
 646:network.c     **** /*******************************************************************************
 647:network.c     **** * Function Name: NTPsendTime
 648:network.c     **** ********************************************************************************
ARM GAS  C:\Users\Petro\AppData\Local\Temp\cclReBew.s 			page 45


 649:network.c     **** *
 650:network.c     **** * Summary:
 651:network.c     **** *   send time to NTP protocol
 652:network.c     **** * Parametrs:
 653:network.c     **** *   unixTime - time in unix format
 654:network.c     **** *   millis - millis time
 655:network.c     **** *   ID - ID packet
 656:network.c     **** *
 657:network.c     **** *******************************************************************************/
 658:network.c     **** void NTPsendTime(uint32_t unixTime,uint16_t millis, uint16_t ID)
 659:network.c     **** {
 1841              		.loc 1 659 0
 1842              		.cfi_startproc
 1843 0000 80B5     		push	{r7, lr}
 1844              		.cfi_def_cfa_offset 8
 1845              		.cfi_offset 7, -8
 1846              		.cfi_offset 14, -4
 1847 0002 9CB0     		sub	sp, sp, #112
 1848              		.cfi_def_cfa_offset 120
 1849 0004 00AF     		add	r7, sp, #0
 1850              		.cfi_def_cfa_register 7
 1851 0006 7860     		str	r0, [r7, #4]
 1852 0008 081C     		mov	r0, r1
 1853 000a 111C     		mov	r1, r2
 1854 000c BB1C     		add	r3, r7, #2
 1855 000e 021C     		add	r2, r0, #0
 1856 0010 1A80     		strh	r2, [r3]
 1857 0012 3B1C     		mov	r3, r7
 1858 0014 0A1C     		add	r2, r1, #0
 1859 0016 1A80     		strh	r2, [r3]
 660:network.c     ****     char sendBuffer[DATA_BUFFER];
 661:network.c     ****     char sendData[DATA_BUFFER];
 662:network.c     ****     
 663:network.c     ****     /*pack data*/
 664:network.c     ****     sprintf(sendData,"%08X%03X", unixTime,millis); 
 1860              		.loc 1 664 0
 1861 0018 BB1C     		add	r3, r7, #2
 1862 001a 1B88     		ldrh	r3, [r3]
 1863 001c 0822     		mov	r2, #8
 1864 001e B818     		add	r0, r7, r2
 1865 0020 0C49     		ldr	r1, .L89
 1866 0022 7A68     		ldr	r2, [r7, #4]
 1867 0024 FFF7FEFF 		bl	sprintf
 665:network.c     ****     PackData(sendBuffer, (uint8_t *)sendData, ID);
 1868              		.loc 1 665 0
 1869 0028 3C23     		mov	r3, #60
 1870 002a F918     		add	r1, r7, r3
 1871 002c 0823     		mov	r3, #8
 1872 002e FA18     		add	r2, r7, r3
 1873 0030 3B1C     		mov	r3, r7
 1874 0032 1B88     		ldrh	r3, [r3]
 1875 0034 081C     		mov	r0, r1
 1876 0036 111C     		mov	r1, r2
 1877 0038 1A1C     		mov	r2, r3
 1878 003a FFF7FEFF 		bl	PackData
 666:network.c     ****     UART_XB_UartPutString(sendBuffer);
 1879              		.loc 1 666 0
ARM GAS  C:\Users\Petro\AppData\Local\Temp\cclReBew.s 			page 46


 1880 003e 3C23     		mov	r3, #60
 1881 0040 FB18     		add	r3, r7, r3
 1882 0042 181C     		mov	r0, r3
 1883 0044 FFF7FEFF 		bl	UART_XB_UartPutString
 667:network.c     ****     UART_XB_UartPutChar('0');
 1884              		.loc 1 667 0
 1885 0048 3020     		mov	r0, #48
 1886 004a FFF7FEFF 		bl	UART_XB_SpiUartWriteTxData
 668:network.c     ****     
 669:network.c     **** }
 1887              		.loc 1 669 0
 1888 004e BD46     		mov	sp, r7
 1889 0050 1CB0     		add	sp, sp, #112
 1890              		@ sp needed
 1891 0052 80BD     		pop	{r7, pc}
 1892              	.L90:
 1893              		.align	2
 1894              	.L89:
 1895 0054 1C000000 		.word	.LC36
 1896              		.cfi_endproc
 1897              	.LFE73:
 1898              		.size	NTPsendTime, .-NTPsendTime
 1899              		.section	.text.NTPcalculateTime,"ax",%progbits
 1900              		.align	2
 1901              		.global	NTPcalculateTime
 1902              		.code	16
 1903              		.thumb_func
 1904              		.type	NTPcalculateTime, %function
 1905              	NTPcalculateTime:
 1906              	.LFB74:
 670:network.c     **** 
 671:network.c     **** 
 672:network.c     **** 
 673:network.c     **** 
 674:network.c     **** void NTPcalculateTime(uint32_t unixTime[], uint16_t msTime[], int32_t *sumTime, int32_t *sumMs)
 675:network.c     **** {
 1907              		.loc 1 675 0
 1908              		.cfi_startproc
 1909 0000 90B5     		push	{r4, r7, lr}
 1910              		.cfi_def_cfa_offset 12
 1911              		.cfi_offset 4, -12
 1912              		.cfi_offset 7, -8
 1913              		.cfi_offset 14, -4
 1914 0002 8DB0     		sub	sp, sp, #52
 1915              		.cfi_def_cfa_offset 64
 1916 0004 02AF     		add	r7, sp, #8
 1917              		.cfi_def_cfa 7, 56
 1918 0006 F860     		str	r0, [r7, #12]
 1919 0008 B960     		str	r1, [r7, #8]
 1920 000a 7A60     		str	r2, [r7, #4]
 1921 000c 3B60     		str	r3, [r7]
 676:network.c     ****     /*calculate ms time*/
 677:network.c     ****     int16_t tmpMs21;
 678:network.c     ****     int32_t tmpTime21;    
 679:network.c     ****     int16_t tmpMs34;
 680:network.c     ****     int32_t tmpTime34;
 681:network.c     ****     int32_t tmpDiffTime;
ARM GAS  C:\Users\Petro\AppData\Local\Temp\cclReBew.s 			page 47


 682:network.c     ****     int16_t tmpDiffMs;
 683:network.c     **** 
 684:network.c     ****     FuncTake(unixTime[T2],msTime[T2],unixTime[T1],msTime[T1],&tmpTime21,&tmpMs21);
 1922              		.loc 1 684 0
 1923 000e FB68     		ldr	r3, [r7, #12]
 1924 0010 0433     		add	r3, r3, #4
 1925 0012 1868     		ldr	r0, [r3]
 1926 0014 BB68     		ldr	r3, [r7, #8]
 1927 0016 0233     		add	r3, r3, #2
 1928 0018 1988     		ldrh	r1, [r3]
 1929 001a FB68     		ldr	r3, [r7, #12]
 1930 001c 1A68     		ldr	r2, [r3]
 1931 001e BB68     		ldr	r3, [r7, #8]
 1932 0020 1C88     		ldrh	r4, [r3]
 1933 0022 1C23     		mov	r3, #28
 1934 0024 FB18     		add	r3, r7, r3
 1935 0026 0093     		str	r3, [sp]
 1936 0028 2023     		mov	r3, #32
 1937 002a FB18     		add	r3, r7, r3
 1938 002c 0193     		str	r3, [sp, #4]
 1939 002e 231C     		mov	r3, r4
 1940 0030 FFF7FEFF 		bl	FuncTake
 685:network.c     ****     FuncTake(unixTime[T3],msTime[T3],unixTime[T4],msTime[T4],&tmpTime34,&tmpMs34);
 1941              		.loc 1 685 0
 1942 0034 FB68     		ldr	r3, [r7, #12]
 1943 0036 0833     		add	r3, r3, #8
 1944 0038 1868     		ldr	r0, [r3]
 1945 003a BB68     		ldr	r3, [r7, #8]
 1946 003c 0433     		add	r3, r3, #4
 1947 003e 1988     		ldrh	r1, [r3]
 1948 0040 FB68     		ldr	r3, [r7, #12]
 1949 0042 0C33     		add	r3, r3, #12
 1950 0044 1A68     		ldr	r2, [r3]
 1951 0046 BB68     		ldr	r3, [r7, #8]
 1952 0048 0633     		add	r3, r3, #6
 1953 004a 1C88     		ldrh	r4, [r3]
 1954 004c 1423     		mov	r3, #20
 1955 004e FB18     		add	r3, r7, r3
 1956 0050 0093     		str	r3, [sp]
 1957 0052 1A23     		mov	r3, #26
 1958 0054 FB18     		add	r3, r7, r3
 1959 0056 0193     		str	r3, [sp, #4]
 1960 0058 231C     		mov	r3, r4
 1961 005a FFF7FEFF 		bl	FuncTake
 686:network.c     **** 
 687:network.c     ****     tmpDiffTime = tmpTime21 + tmpTime34;
 1962              		.loc 1 687 0
 1963 005e FA69     		ldr	r2, [r7, #28]
 1964 0060 7B69     		ldr	r3, [r7, #20]
 1965 0062 D318     		add	r3, r2, r3
 1966 0064 7B62     		str	r3, [r7, #36]
 688:network.c     ****     tmpDiffMs = tmpMs21 + tmpMs34;
 1967              		.loc 1 688 0
 1968 0066 2023     		mov	r3, #32
 1969 0068 FB18     		add	r3, r7, r3
 1970 006a 1B88     		ldrh	r3, [r3]
 1971 006c 9AB2     		uxth	r2, r3
ARM GAS  C:\Users\Petro\AppData\Local\Temp\cclReBew.s 			page 48


 1972 006e 1A23     		mov	r3, #26
 1973 0070 FB18     		add	r3, r7, r3
 1974 0072 1B88     		ldrh	r3, [r3]
 1975 0074 9BB2     		uxth	r3, r3
 1976 0076 D318     		add	r3, r2, r3
 1977 0078 9AB2     		uxth	r2, r3
 1978 007a 2223     		mov	r3, #34
 1979 007c FB18     		add	r3, r7, r3
 1980 007e 1A80     		strh	r2, [r3]
 689:network.c     ****     if(tmpDiffMs >= 1000)
 1981              		.loc 1 689 0
 1982 0080 2223     		mov	r3, #34
 1983 0082 FB18     		add	r3, r7, r3
 1984 0084 0022     		mov	r2, #0
 1985 0086 9B5E     		ldrsh	r3, [r3, r2]
 1986 0088 2B4A     		ldr	r2, .L98
 1987 008a 9342     		cmp	r3, r2
 1988 008c 0DDD     		ble	.L92
 690:network.c     ****     {
 691:network.c     ****         tmpDiffTime += 1;
 1989              		.loc 1 691 0
 1990 008e 7B6A     		ldr	r3, [r7, #36]
 1991 0090 0133     		add	r3, r3, #1
 1992 0092 7B62     		str	r3, [r7, #36]
 692:network.c     ****         tmpDiffMs -= 1000;
 1993              		.loc 1 692 0
 1994 0094 2223     		mov	r3, #34
 1995 0096 FB18     		add	r3, r7, r3
 1996 0098 1B88     		ldrh	r3, [r3]
 1997 009a 284A     		ldr	r2, .L98+4
 1998 009c 9446     		mov	ip, r2
 1999 009e 6344     		add	r3, r3, ip
 2000 00a0 9AB2     		uxth	r2, r3
 2001 00a2 2223     		mov	r3, #34
 2002 00a4 FB18     		add	r3, r7, r3
 2003 00a6 1A80     		strh	r2, [r3]
 2004 00a8 14E0     		b	.L93
 2005              	.L92:
 693:network.c     ****     }
 694:network.c     ****     else if(tmpDiffMs <= -1000)
 2006              		.loc 1 694 0
 2007 00aa 2223     		mov	r3, #34
 2008 00ac FB18     		add	r3, r7, r3
 2009 00ae 0022     		mov	r2, #0
 2010 00b0 9B5E     		ldrsh	r3, [r3, r2]
 2011 00b2 234A     		ldr	r2, .L98+8
 2012 00b4 9342     		cmp	r3, r2
 2013 00b6 0DDA     		bge	.L93
 695:network.c     ****     {
 696:network.c     ****         tmpDiffTime -= 1;
 2014              		.loc 1 696 0
 2015 00b8 7B6A     		ldr	r3, [r7, #36]
 2016 00ba 013B     		sub	r3, r3, #1
 2017 00bc 7B62     		str	r3, [r7, #36]
 697:network.c     ****         tmpDiffMs += 1000;
 2018              		.loc 1 697 0
 2019 00be 2223     		mov	r3, #34
ARM GAS  C:\Users\Petro\AppData\Local\Temp\cclReBew.s 			page 49


 2020 00c0 FB18     		add	r3, r7, r3
 2021 00c2 1B88     		ldrh	r3, [r3]
 2022 00c4 FA22     		mov	r2, #250
 2023 00c6 9200     		lsl	r2, r2, #2
 2024 00c8 9446     		mov	ip, r2
 2025 00ca 6344     		add	r3, r3, ip
 2026 00cc 9AB2     		uxth	r2, r3
 2027 00ce 2223     		mov	r3, #34
 2028 00d0 FB18     		add	r3, r7, r3
 2029 00d2 1A80     		strh	r2, [r3]
 2030              	.L93:
 698:network.c     ****     }
 699:network.c     ****     
 700:network.c     ****     tmpDiffMs /= 2;
 2031              		.loc 1 700 0
 2032 00d4 2223     		mov	r3, #34
 2033 00d6 FA18     		add	r2, r7, r3
 2034 00d8 2223     		mov	r3, #34
 2035 00da FB18     		add	r3, r7, r3
 2036 00dc 0021     		mov	r1, #0
 2037 00de 5B5E     		ldrsh	r3, [r3, r1]
 2038 00e0 002B     		cmp	r3, #0
 2039 00e2 00DA     		bge	.L94
 2040 00e4 0133     		add	r3, r3, #1
 2041              	.L94:
 2042 00e6 5B10     		asr	r3, r3, #1
 2043 00e8 1380     		strh	r3, [r2]
 701:network.c     ****     if(tmpDiffTime%2 == 1)
 2044              		.loc 1 701 0
 2045 00ea 7B6A     		ldr	r3, [r7, #36]
 2046 00ec 154A     		ldr	r2, .L98+12
 2047 00ee 1340     		and	r3, r2
 2048 00f0 04D5     		bpl	.L95
 2049 00f2 013B     		sub	r3, r3, #1
 2050 00f4 0222     		mov	r2, #2
 2051 00f6 5242     		neg	r2, r2
 2052 00f8 1343     		orr	r3, r2
 2053 00fa 0133     		add	r3, r3, #1
 2054              	.L95:
 2055 00fc 012B     		cmp	r3, #1
 2056 00fe 08D1     		bne	.L96
 702:network.c     ****     {
 703:network.c     ****         tmpDiffMs += 500;
 2057              		.loc 1 703 0
 2058 0100 2223     		mov	r3, #34
 2059 0102 FB18     		add	r3, r7, r3
 2060 0104 1B88     		ldrh	r3, [r3]
 2061 0106 F533     		add	r3, r3, #245
 2062 0108 FF33     		add	r3, r3, #255
 2063 010a 9AB2     		uxth	r2, r3
 2064 010c 2223     		mov	r3, #34
 2065 010e FB18     		add	r3, r7, r3
 2066 0110 1A80     		strh	r2, [r3]
 2067              	.L96:
 704:network.c     ****     }
 705:network.c     ****     tmpDiffTime /= 2;
 2068              		.loc 1 705 0
ARM GAS  C:\Users\Petro\AppData\Local\Temp\cclReBew.s 			page 50


 2069 0112 7B6A     		ldr	r3, [r7, #36]
 2070 0114 002B     		cmp	r3, #0
 2071 0116 00DA     		bge	.L97
 2072 0118 0133     		add	r3, r3, #1
 2073              	.L97:
 2074 011a 5B10     		asr	r3, r3, #1
 2075 011c 7B62     		str	r3, [r7, #36]
 706:network.c     ****     
 707:network.c     ****     *sumTime = tmpDiffTime;
 2076              		.loc 1 707 0
 2077 011e 7B68     		ldr	r3, [r7, #4]
 2078 0120 7A6A     		ldr	r2, [r7, #36]
 2079 0122 1A60     		str	r2, [r3]
 708:network.c     ****     *sumMs = tmpDiffMs; 
 2080              		.loc 1 708 0
 2081 0124 2223     		mov	r3, #34
 2082 0126 FB18     		add	r3, r7, r3
 2083 0128 0022     		mov	r2, #0
 2084 012a 9A5E     		ldrsh	r2, [r3, r2]
 2085 012c 3B68     		ldr	r3, [r7]
 2086 012e 1A60     		str	r2, [r3]
 709:network.c     **** 
 710:network.c     **** }
 2087              		.loc 1 710 0
 2088 0130 BD46     		mov	sp, r7
 2089 0132 0BB0     		add	sp, sp, #44
 2090              		@ sp needed
 2091 0134 90BD     		pop	{r4, r7, pc}
 2092              	.L99:
 2093 0136 C046     		.align	2
 2094              	.L98:
 2095 0138 E7030000 		.word	999
 2096 013c 18FCFFFF 		.word	-1000
 2097 0140 19FCFFFF 		.word	-999
 2098 0144 01000080 		.word	-2147483647
 2099              		.cfi_endproc
 2100              	.LFE74:
 2101              		.size	NTPcalculateTime, .-NTPcalculateTime
 2102              		.section	.text.FuncTake,"ax",%progbits
 2103              		.align	2
 2104              		.global	FuncTake
 2105              		.code	16
 2106              		.thumb_func
 2107              		.type	FuncTake, %function
 2108              	FuncTake:
 2109              	.LFB75:
 711:network.c     **** 
 712:network.c     **** void FuncTake(uint32_t sec1, uint16_t ms1, uint32_t sec2, uint16_t ms2, int32_t *resultSec, int16_t
 713:network.c     **** {
 2110              		.loc 1 713 0
 2111              		.cfi_startproc
 2112 0000 80B5     		push	{r7, lr}
 2113              		.cfi_def_cfa_offset 8
 2114              		.cfi_offset 7, -8
 2115              		.cfi_offset 14, -4
 2116 0002 84B0     		sub	sp, sp, #16
 2117              		.cfi_def_cfa_offset 24
ARM GAS  C:\Users\Petro\AppData\Local\Temp\cclReBew.s 			page 51


 2118 0004 00AF     		add	r7, sp, #0
 2119              		.cfi_def_cfa_register 7
 2120 0006 F860     		str	r0, [r7, #12]
 2121 0008 081C     		mov	r0, r1
 2122 000a 7A60     		str	r2, [r7, #4]
 2123 000c 191C     		mov	r1, r3
 2124 000e 0A23     		mov	r3, #10
 2125 0010 FB18     		add	r3, r7, r3
 2126 0012 021C     		add	r2, r0, #0
 2127 0014 1A80     		strh	r2, [r3]
 2128 0016 0823     		mov	r3, #8
 2129 0018 FB18     		add	r3, r7, r3
 2130 001a 0A1C     		add	r2, r1, #0
 2131 001c 1A80     		strh	r2, [r3]
 714:network.c     **** 	*resultSec = sec1 - sec2;
 2132              		.loc 1 714 0
 2133 001e FA68     		ldr	r2, [r7, #12]
 2134 0020 7B68     		ldr	r3, [r7, #4]
 2135 0022 D31A     		sub	r3, r2, r3
 2136 0024 1A1C     		mov	r2, r3
 2137 0026 BB69     		ldr	r3, [r7, #24]
 2138 0028 1A60     		str	r2, [r3]
 715:network.c     **** 	*resultMs = ms1 - ms2;
 2139              		.loc 1 715 0
 2140 002a 0A23     		mov	r3, #10
 2141 002c FA18     		add	r2, r7, r3
 2142 002e 0823     		mov	r3, #8
 2143 0030 FB18     		add	r3, r7, r3
 2144 0032 1288     		ldrh	r2, [r2]
 2145 0034 1B88     		ldrh	r3, [r3]
 2146 0036 D31A     		sub	r3, r2, r3
 2147 0038 9BB2     		uxth	r3, r3
 2148 003a 9AB2     		uxth	r2, r3
 2149 003c FB69     		ldr	r3, [r7, #28]
 2150 003e 1A80     		strh	r2, [r3]
 716:network.c     **** 	if (*resultSec < 0)
 2151              		.loc 1 716 0
 2152 0040 BB69     		ldr	r3, [r7, #24]
 2153 0042 1B68     		ldr	r3, [r3]
 2154 0044 002B     		cmp	r3, #0
 2155 0046 14DA     		bge	.L101
 717:network.c     **** 	{	
 718:network.c     **** 		if (*resultMs > 0)
 2156              		.loc 1 718 0
 2157 0048 FB69     		ldr	r3, [r7, #28]
 2158 004a 1B88     		ldrh	r3, [r3]
 2159 004c 1BB2     		sxth	r3, r3
 2160 004e 002B     		cmp	r3, #0
 2161 0050 28DD     		ble	.L100
 719:network.c     **** 		{
 720:network.c     **** 			*resultMs -= 1000;
 2162              		.loc 1 720 0
 2163 0052 FB69     		ldr	r3, [r7, #28]
 2164 0054 1B88     		ldrh	r3, [r3]
 2165 0056 9BB2     		uxth	r3, r3
 2166 0058 144A     		ldr	r2, .L104
 2167 005a 9446     		mov	ip, r2
ARM GAS  C:\Users\Petro\AppData\Local\Temp\cclReBew.s 			page 52


 2168 005c 6344     		add	r3, r3, ip
 2169 005e 9BB2     		uxth	r3, r3
 2170 0060 9AB2     		uxth	r2, r3
 2171 0062 FB69     		ldr	r3, [r7, #28]
 2172 0064 1A80     		strh	r2, [r3]
 721:network.c     **** 			*resultSec += 1;
 2173              		.loc 1 721 0
 2174 0066 BB69     		ldr	r3, [r7, #24]
 2175 0068 1B68     		ldr	r3, [r3]
 2176 006a 5A1C     		add	r2, r3, #1
 2177 006c BB69     		ldr	r3, [r7, #24]
 2178 006e 1A60     		str	r2, [r3]
 2179 0070 18E0     		b	.L100
 2180              	.L101:
 722:network.c     **** 		}
 723:network.c     **** 	}
 724:network.c     **** 	else if(*resultSec > 0)
 2181              		.loc 1 724 0
 2182 0072 BB69     		ldr	r3, [r7, #24]
 2183 0074 1B68     		ldr	r3, [r3]
 2184 0076 002B     		cmp	r3, #0
 2185 0078 14DD     		ble	.L100
 725:network.c     **** 	{
 726:network.c     **** 		if (*resultMs < 0)
 2186              		.loc 1 726 0
 2187 007a FB69     		ldr	r3, [r7, #28]
 2188 007c 1B88     		ldrh	r3, [r3]
 2189 007e 1BB2     		sxth	r3, r3
 2190 0080 002B     		cmp	r3, #0
 2191 0082 0FDA     		bge	.L100
 727:network.c     **** 		{
 728:network.c     **** 			*resultMs += 1000;
 2192              		.loc 1 728 0
 2193 0084 FB69     		ldr	r3, [r7, #28]
 2194 0086 1B88     		ldrh	r3, [r3]
 2195 0088 9BB2     		uxth	r3, r3
 2196 008a FA22     		mov	r2, #250
 2197 008c 9200     		lsl	r2, r2, #2
 2198 008e 9446     		mov	ip, r2
 2199 0090 6344     		add	r3, r3, ip
 2200 0092 9BB2     		uxth	r3, r3
 2201 0094 9AB2     		uxth	r2, r3
 2202 0096 FB69     		ldr	r3, [r7, #28]
 2203 0098 1A80     		strh	r2, [r3]
 729:network.c     **** 			*resultSec -= 1;
 2204              		.loc 1 729 0
 2205 009a BB69     		ldr	r3, [r7, #24]
 2206 009c 1B68     		ldr	r3, [r3]
 2207 009e 5A1E     		sub	r2, r3, #1
 2208 00a0 BB69     		ldr	r3, [r7, #24]
 2209 00a2 1A60     		str	r2, [r3]
 2210              	.L100:
 730:network.c     **** 		}
 731:network.c     **** 	}
 732:network.c     **** }
 2211              		.loc 1 732 0
 2212 00a4 BD46     		mov	sp, r7
ARM GAS  C:\Users\Petro\AppData\Local\Temp\cclReBew.s 			page 53


 2213 00a6 04B0     		add	sp, sp, #16
 2214              		@ sp needed
 2215 00a8 80BD     		pop	{r7, pc}
 2216              	.L105:
 2217 00aa C046     		.align	2
 2218              	.L104:
 2219 00ac 18FCFFFF 		.word	-1000
 2220              		.cfi_endproc
 2221              	.LFE75:
 2222              		.size	FuncTake, .-FuncTake
 2223              		.text
 2224              	.Letext0:
 2225              		.file 2 "c:\\program files (x86)\\cypress\\psoc creator\\4.0\\psoc creator\\import\\gnu\\arm\\4.9.
 2226              		.file 3 "c:\\program files (x86)\\cypress\\psoc creator\\4.0\\psoc creator\\import\\gnu\\arm\\4.9.
 2227              		.file 4 "Generated_Source\\PSoC4/cytypes.h"
 2228              		.file 5 "lib_Network/svt.h"
 2229              		.file 6 "lib_Network/ntp.h"
 2230              		.file 7 "Generated_Source\\PSoC4/ble_Stack.h"
 2231              		.section	.debug_info,"",%progbits
 2232              	.Ldebug_info0:
 2233 0000 25090000 		.4byte	0x925
 2234 0004 0400     		.2byte	0x4
 2235 0006 00000000 		.4byte	.Ldebug_abbrev0
 2236 000a 04       		.byte	0x4
 2237 000b 01       		.uleb128 0x1
 2238 000c DB0A0000 		.4byte	.LASF158
 2239 0010 01       		.byte	0x1
 2240 0011 CA030000 		.4byte	.LASF159
 2241 0015 F7070000 		.4byte	.LASF160
 2242 0019 00000000 		.4byte	.Ldebug_ranges0+0
 2243 001d 00000000 		.4byte	0
 2244 0021 00000000 		.4byte	.Ldebug_line0
 2245 0025 02       		.uleb128 0x2
 2246 0026 01       		.byte	0x1
 2247 0027 06       		.byte	0x6
 2248 0028 D8000000 		.4byte	.LASF0
 2249 002c 03       		.uleb128 0x3
 2250 002d E4000000 		.4byte	.LASF2
 2251 0031 02       		.byte	0x2
 2252 0032 1D       		.byte	0x1d
 2253 0033 37000000 		.4byte	0x37
 2254 0037 02       		.uleb128 0x2
 2255 0038 01       		.byte	0x1
 2256 0039 08       		.byte	0x8
 2257 003a E0070000 		.4byte	.LASF1
 2258 003e 03       		.uleb128 0x3
 2259 003f D10A0000 		.4byte	.LASF3
 2260 0043 02       		.byte	0x2
 2261 0044 29       		.byte	0x29
 2262 0045 49000000 		.4byte	0x49
 2263 0049 02       		.uleb128 0x2
 2264 004a 02       		.byte	0x2
 2265 004b 05       		.byte	0x5
 2266 004c 61080000 		.4byte	.LASF4
 2267 0050 03       		.uleb128 0x3
 2268 0051 78090000 		.4byte	.LASF5
 2269 0055 02       		.byte	0x2
ARM GAS  C:\Users\Petro\AppData\Local\Temp\cclReBew.s 			page 54


 2270 0056 2B       		.byte	0x2b
 2271 0057 5B000000 		.4byte	0x5b
 2272 005b 02       		.uleb128 0x2
 2273 005c 02       		.byte	0x2
 2274 005d 07       		.byte	0x7
 2275 005e 3E0A0000 		.4byte	.LASF6
 2276 0062 03       		.uleb128 0x3
 2277 0063 B8090000 		.4byte	.LASF7
 2278 0067 02       		.byte	0x2
 2279 0068 3F       		.byte	0x3f
 2280 0069 6D000000 		.4byte	0x6d
 2281 006d 02       		.uleb128 0x2
 2282 006e 04       		.byte	0x4
 2283 006f 05       		.byte	0x5
 2284 0070 1E010000 		.4byte	.LASF8
 2285 0074 03       		.uleb128 0x3
 2286 0075 21030000 		.4byte	.LASF9
 2287 0079 02       		.byte	0x2
 2288 007a 41       		.byte	0x41
 2289 007b 7F000000 		.4byte	0x7f
 2290 007f 02       		.uleb128 0x2
 2291 0080 04       		.byte	0x4
 2292 0081 07       		.byte	0x7
 2293 0082 2E040000 		.4byte	.LASF10
 2294 0086 02       		.uleb128 0x2
 2295 0087 08       		.byte	0x8
 2296 0088 05       		.byte	0x5
 2297 0089 FB010000 		.4byte	.LASF11
 2298 008d 03       		.uleb128 0x3
 2299 008e 61070000 		.4byte	.LASF12
 2300 0092 02       		.byte	0x2
 2301 0093 5B       		.byte	0x5b
 2302 0094 98000000 		.4byte	0x98
 2303 0098 02       		.uleb128 0x2
 2304 0099 08       		.byte	0x8
 2305 009a 07       		.byte	0x7
 2306 009b 27010000 		.4byte	.LASF13
 2307 009f 04       		.uleb128 0x4
 2308 00a0 04       		.byte	0x4
 2309 00a1 05       		.byte	0x5
 2310 00a2 696E7400 		.ascii	"int\000"
 2311 00a6 02       		.uleb128 0x2
 2312 00a7 04       		.byte	0x4
 2313 00a8 07       		.byte	0x7
 2314 00a9 BD030000 		.4byte	.LASF14
 2315 00ad 03       		.uleb128 0x3
 2316 00ae C10A0000 		.4byte	.LASF15
 2317 00b2 03       		.byte	0x3
 2318 00b3 15       		.byte	0x15
 2319 00b4 2C000000 		.4byte	0x2c
 2320 00b8 03       		.uleb128 0x3
 2321 00b9 EB010000 		.4byte	.LASF16
 2322 00bd 03       		.byte	0x3
 2323 00be 20       		.byte	0x20
 2324 00bf 3E000000 		.4byte	0x3e
 2325 00c3 03       		.uleb128 0x3
 2326 00c4 71050000 		.4byte	.LASF17
ARM GAS  C:\Users\Petro\AppData\Local\Temp\cclReBew.s 			page 55


 2327 00c8 03       		.byte	0x3
 2328 00c9 21       		.byte	0x21
 2329 00ca 50000000 		.4byte	0x50
 2330 00ce 03       		.uleb128 0x3
 2331 00cf D8070000 		.4byte	.LASF18
 2332 00d3 03       		.byte	0x3
 2333 00d4 2C       		.byte	0x2c
 2334 00d5 62000000 		.4byte	0x62
 2335 00d9 03       		.uleb128 0x3
 2336 00da 16090000 		.4byte	.LASF19
 2337 00de 03       		.byte	0x3
 2338 00df 2D       		.byte	0x2d
 2339 00e0 74000000 		.4byte	0x74
 2340 00e4 03       		.uleb128 0x3
 2341 00e5 B3000000 		.4byte	.LASF20
 2342 00e9 03       		.byte	0x3
 2343 00ea 39       		.byte	0x39
 2344 00eb 8D000000 		.4byte	0x8d
 2345 00ef 05       		.uleb128 0x5
 2346 00f0 2B000000 		.4byte	.LASF21
 2347 00f4 04       		.byte	0x4
 2348 00f5 9901     		.2byte	0x199
 2349 00f7 5B000000 		.4byte	0x5b
 2350 00fb 05       		.uleb128 0x5
 2351 00fc FF020000 		.4byte	.LASF22
 2352 0100 04       		.byte	0x4
 2353 0101 9A01     		.2byte	0x19a
 2354 0103 7F000000 		.4byte	0x7f
 2355 0107 02       		.uleb128 0x2
 2356 0108 04       		.byte	0x4
 2357 0109 04       		.byte	0x4
 2358 010a 93070000 		.4byte	.LASF23
 2359 010e 02       		.uleb128 0x2
 2360 010f 08       		.byte	0x8
 2361 0110 04       		.byte	0x4
 2362 0111 F1020000 		.4byte	.LASF24
 2363 0115 02       		.uleb128 0x2
 2364 0116 01       		.byte	0x1
 2365 0117 08       		.byte	0x8
 2366 0118 3A090000 		.4byte	.LASF25
 2367 011c 02       		.uleb128 0x2
 2368 011d 04       		.byte	0x4
 2369 011e 07       		.byte	0x7
 2370 011f 70060000 		.4byte	.LASF26
 2371 0123 06       		.uleb128 0x6
 2372 0124 01       		.byte	0x1
 2373 0125 07       		.byte	0x7
 2374 0126 A4       		.byte	0xa4
 2375 0127 A8020000 		.4byte	0x2a8
 2376 012b 07       		.uleb128 0x7
 2377 012c B6040000 		.4byte	.LASF27
 2378 0130 00       		.sleb128 0
 2379 0131 07       		.uleb128 0x7
 2380 0132 0F020000 		.4byte	.LASF28
 2381 0136 01       		.sleb128 1
 2382 0137 07       		.uleb128 0x7
 2383 0138 0C010000 		.4byte	.LASF29
ARM GAS  C:\Users\Petro\AppData\Local\Temp\cclReBew.s 			page 56


 2384 013c 02       		.sleb128 2
 2385 013d 07       		.uleb128 0x7
 2386 013e 250A0000 		.4byte	.LASF30
 2387 0142 03       		.sleb128 3
 2388 0143 07       		.uleb128 0x7
 2389 0144 3E010000 		.4byte	.LASF31
 2390 0148 04       		.sleb128 4
 2391 0149 07       		.uleb128 0x7
 2392 014a BC000000 		.4byte	.LASF32
 2393 014e 05       		.sleb128 5
 2394 014f 07       		.uleb128 0x7
 2395 0150 FF050000 		.4byte	.LASF33
 2396 0154 20       		.sleb128 32
 2397 0155 07       		.uleb128 0x7
 2398 0156 4B020000 		.4byte	.LASF34
 2399 015a 21       		.sleb128 33
 2400 015b 07       		.uleb128 0x7
 2401 015c 0B050000 		.4byte	.LASF35
 2402 0160 22       		.sleb128 34
 2403 0161 07       		.uleb128 0x7
 2404 0162 81050000 		.4byte	.LASF36
 2405 0166 23       		.sleb128 35
 2406 0167 07       		.uleb128 0x7
 2407 0168 CE060000 		.4byte	.LASF37
 2408 016c 24       		.sleb128 36
 2409 016d 07       		.uleb128 0x7
 2410 016e 79060000 		.4byte	.LASF38
 2411 0172 25       		.sleb128 37
 2412 0173 07       		.uleb128 0x7
 2413 0174 A3020000 		.4byte	.LASF39
 2414 0178 26       		.sleb128 38
 2415 0179 07       		.uleb128 0x7
 2416 017a 2F050000 		.4byte	.LASF40
 2417 017e 27       		.sleb128 39
 2418 017f 07       		.uleb128 0x7
 2419 0180 50090000 		.4byte	.LASF41
 2420 0184 28       		.sleb128 40
 2421 0185 07       		.uleb128 0x7
 2422 0186 C5010000 		.4byte	.LASF42
 2423 018a 29       		.sleb128 41
 2424 018b 07       		.uleb128 0x7
 2425 018c 5D000000 		.4byte	.LASF43
 2426 0190 2A       		.sleb128 42
 2427 0191 07       		.uleb128 0x7
 2428 0192 2C020000 		.4byte	.LASF44
 2429 0196 2B       		.sleb128 43
 2430 0197 07       		.uleb128 0x7
 2431 0198 900B0000 		.4byte	.LASF45
 2432 019c 2C       		.sleb128 44
 2433 019d 07       		.uleb128 0x7
 2434 019e FC080000 		.4byte	.LASF46
 2435 01a2 C000     		.sleb128 64
 2436 01a4 07       		.uleb128 0x7
 2437 01a5 A7050000 		.4byte	.LASF47
 2438 01a9 C100     		.sleb128 65
 2439 01ab 07       		.uleb128 0x7
 2440 01ac BA070000 		.4byte	.LASF48
ARM GAS  C:\Users\Petro\AppData\Local\Temp\cclReBew.s 			page 57


 2441 01b0 C200     		.sleb128 66
 2442 01b2 07       		.uleb128 0x7
 2443 01b3 700A0000 		.4byte	.LASF49
 2444 01b7 C300     		.sleb128 67
 2445 01b9 07       		.uleb128 0x7
 2446 01ba 63040000 		.4byte	.LASF50
 2447 01be C400     		.sleb128 68
 2448 01c0 07       		.uleb128 0x7
 2449 01c1 6C070000 		.4byte	.LASF51
 2450 01c5 C500     		.sleb128 69
 2451 01c7 07       		.uleb128 0x7
 2452 01c8 4F060000 		.4byte	.LASF52
 2453 01cc C600     		.sleb128 70
 2454 01ce 07       		.uleb128 0x7
 2455 01cf EE000000 		.4byte	.LASF53
 2456 01d3 C700     		.sleb128 71
 2457 01d5 07       		.uleb128 0x7
 2458 01d6 690B0000 		.4byte	.LASF54
 2459 01da C800     		.sleb128 72
 2460 01dc 07       		.uleb128 0x7
 2461 01dd 62020000 		.4byte	.LASF55
 2462 01e1 C900     		.sleb128 73
 2463 01e3 07       		.uleb128 0x7
 2464 01e4 E5090000 		.4byte	.LASF56
 2465 01e8 CA00     		.sleb128 74
 2466 01ea 07       		.uleb128 0x7
 2467 01eb 04040000 		.4byte	.LASF57
 2468 01ef CB00     		.sleb128 75
 2469 01f1 07       		.uleb128 0x7
 2470 01f2 49040000 		.4byte	.LASF58
 2471 01f6 CC00     		.sleb128 76
 2472 01f8 07       		.uleb128 0x7
 2473 01f9 93060000 		.4byte	.LASF59
 2474 01fd CD00     		.sleb128 77
 2475 01ff 07       		.uleb128 0x7
 2476 0200 7B020000 		.4byte	.LASF60
 2477 0204 CE00     		.sleb128 78
 2478 0206 07       		.uleb128 0x7
 2479 0207 A9080000 		.4byte	.LASF61
 2480 020b CF00     		.sleb128 79
 2481 020d 07       		.uleb128 0x7
 2482 020e D9040000 		.4byte	.LASF62
 2483 0212 D000     		.sleb128 80
 2484 0214 07       		.uleb128 0x7
 2485 0215 D2020000 		.4byte	.LASF63
 2486 0219 D100     		.sleb128 81
 2487 021b 07       		.uleb128 0x7
 2488 021c 01070000 		.4byte	.LASF64
 2489 0220 D200     		.sleb128 82
 2490 0222 07       		.uleb128 0x7
 2491 0223 77080000 		.4byte	.LASF65
 2492 0227 D300     		.sleb128 83
 2493 0229 07       		.uleb128 0x7
 2494 022a DB080000 		.4byte	.LASF66
 2495 022e D400     		.sleb128 84
 2496 0230 07       		.uleb128 0x7
 2497 0231 81040000 		.4byte	.LASF67
ARM GAS  C:\Users\Petro\AppData\Local\Temp\cclReBew.s 			page 58


 2498 0235 D500     		.sleb128 85
 2499 0237 07       		.uleb128 0x7
 2500 0238 9B030000 		.4byte	.LASF68
 2501 023c D600     		.sleb128 86
 2502 023e 07       		.uleb128 0x7
 2503 023f 83090000 		.4byte	.LASF69
 2504 0243 D700     		.sleb128 87
 2505 0245 07       		.uleb128 0x7
 2506 0246 94010000 		.4byte	.LASF70
 2507 024a F000     		.sleb128 112
 2508 024c 07       		.uleb128 0x7
 2509 024d F10B0000 		.4byte	.LASF71
 2510 0251 F100     		.sleb128 113
 2511 0253 07       		.uleb128 0x7
 2512 0254 D9050000 		.4byte	.LASF72
 2513 0258 F200     		.sleb128 114
 2514 025a 07       		.uleb128 0x7
 2515 025b 31060000 		.4byte	.LASF73
 2516 025f F300     		.sleb128 115
 2517 0261 07       		.uleb128 0x7
 2518 0262 43070000 		.4byte	.LASF74
 2519 0266 F400     		.sleb128 116
 2520 0268 07       		.uleb128 0x7
 2521 0269 BC0B0000 		.4byte	.LASF75
 2522 026d F500     		.sleb128 117
 2523 026f 07       		.uleb128 0x7
 2524 0270 92000000 		.4byte	.LASF76
 2525 0274 F600     		.sleb128 118
 2526 0276 07       		.uleb128 0x7
 2527 0277 32000000 		.4byte	.LASF77
 2528 027b F700     		.sleb128 119
 2529 027d 07       		.uleb128 0x7
 2530 027e 00000000 		.4byte	.LASF78
 2531 0282 F800     		.sleb128 120
 2532 0284 07       		.uleb128 0x7
 2533 0285 C2090000 		.4byte	.LASF79
 2534 0289 F900     		.sleb128 121
 2535 028b 07       		.uleb128 0x7
 2536 028c 63030000 		.4byte	.LASF80
 2537 0290 FA00     		.sleb128 122
 2538 0292 07       		.uleb128 0x7
 2539 0293 53010000 		.4byte	.LASF81
 2540 0297 FA01     		.sleb128 250
 2541 0299 07       		.uleb128 0x7
 2542 029a D4030000 		.4byte	.LASF82
 2543 029e FB01     		.sleb128 251
 2544 02a0 07       		.uleb128 0x7
 2545 02a1 13030000 		.4byte	.LASF83
 2546 02a5 FF01     		.sleb128 255
 2547 02a7 00       		.byte	0
 2548 02a8 08       		.uleb128 0x8
 2549 02a9 C9060000 		.4byte	.LASF161
 2550 02ad 20       		.byte	0x20
 2551 02ae 05       		.byte	0x5
 2552 02af 08       		.byte	0x8
 2553 02b0 09030000 		.4byte	0x309
 2554 02b4 09       		.uleb128 0x9
ARM GAS  C:\Users\Petro\AppData\Local\Temp\cclReBew.s 			page 59


 2555 02b5 53657100 		.ascii	"Seq\000"
 2556 02b9 05       		.byte	0x5
 2557 02ba 0A       		.byte	0xa
 2558 02bb C3000000 		.4byte	0xc3
 2559 02bf 00       		.byte	0
 2560 02c0 0A       		.uleb128 0xa
 2561 02c1 06030000 		.4byte	.LASF84
 2562 02c5 05       		.byte	0x5
 2563 02c6 0B       		.byte	0xb
 2564 02c7 9F000000 		.4byte	0x9f
 2565 02cb 04       		.byte	0x4
 2566 02cc 0A       		.uleb128 0xa
 2567 02cd 98080000 		.4byte	.LASF85
 2568 02d1 05       		.byte	0x5
 2569 02d2 0C       		.byte	0xc
 2570 02d3 E4000000 		.4byte	0xe4
 2571 02d7 08       		.byte	0x8
 2572 02d8 0A       		.uleb128 0xa
 2573 02d9 CD040000 		.4byte	.LASF86
 2574 02dd 05       		.byte	0x5
 2575 02de 0D       		.byte	0xd
 2576 02df C3000000 		.4byte	0xc3
 2577 02e3 10       		.byte	0x10
 2578 02e4 0A       		.uleb128 0xa
 2579 02e5 D3040000 		.4byte	.LASF87
 2580 02e9 05       		.byte	0x5
 2581 02ea 0E       		.byte	0xe
 2582 02eb C3000000 		.4byte	0xc3
 2583 02ef 12       		.byte	0x12
 2584 02f0 0A       		.uleb128 0xa
 2585 02f1 99070000 		.4byte	.LASF88
 2586 02f5 05       		.byte	0x5
 2587 02f6 0F       		.byte	0xf
 2588 02f7 D9000000 		.4byte	0xd9
 2589 02fb 14       		.byte	0x14
 2590 02fc 0A       		.uleb128 0xa
 2591 02fd 290C0000 		.4byte	.LASF89
 2592 0301 05       		.byte	0x5
 2593 0302 10       		.byte	0x10
 2594 0303 AD000000 		.4byte	0xad
 2595 0307 18       		.byte	0x18
 2596 0308 00       		.byte	0
 2597 0309 0B       		.uleb128 0xb
 2598 030a 18       		.byte	0x18
 2599 030b 06       		.byte	0x6
 2600 030c 18       		.byte	0x18
 2601 030d 65030000 		.4byte	0x365
 2602 0311 09       		.uleb128 0x9
 2603 0312 496400   		.ascii	"Id\000"
 2604 0315 06       		.byte	0x6
 2605 0316 1A       		.byte	0x1a
 2606 0317 C3000000 		.4byte	0xc3
 2607 031b 00       		.byte	0
 2608 031c 0A       		.uleb128 0xa
 2609 031d 98080000 		.4byte	.LASF85
 2610 0321 06       		.byte	0x6
 2611 0322 1B       		.byte	0x1b
ARM GAS  C:\Users\Petro\AppData\Local\Temp\cclReBew.s 			page 60


 2612 0323 D9000000 		.4byte	0xd9
 2613 0327 04       		.byte	0x4
 2614 0328 0A       		.uleb128 0xa
 2615 0329 32090000 		.4byte	.LASF90
 2616 032d 06       		.byte	0x6
 2617 032e 1C       		.byte	0x1c
 2618 032f C3000000 		.4byte	0xc3
 2619 0333 08       		.byte	0x8
 2620 0334 0A       		.uleb128 0xa
 2621 0335 B40B0000 		.4byte	.LASF91
 2622 0339 06       		.byte	0x6
 2623 033a 1D       		.byte	0x1d
 2624 033b C3000000 		.4byte	0xc3
 2625 033f 0A       		.byte	0xa
 2626 0340 0A       		.uleb128 0xa
 2627 0341 CD040000 		.4byte	.LASF86
 2628 0345 06       		.byte	0x6
 2629 0346 1E       		.byte	0x1e
 2630 0347 D9000000 		.4byte	0xd9
 2631 034b 0C       		.byte	0xc
 2632 034c 0A       		.uleb128 0xa
 2633 034d 99070000 		.4byte	.LASF88
 2634 0351 06       		.byte	0x6
 2635 0352 1F       		.byte	0x1f
 2636 0353 D9000000 		.4byte	0xd9
 2637 0357 10       		.byte	0x10
 2638 0358 0A       		.uleb128 0xa
 2639 0359 290C0000 		.4byte	.LASF89
 2640 035d 06       		.byte	0x6
 2641 035e 20       		.byte	0x20
 2642 035f AD000000 		.4byte	0xad
 2643 0363 14       		.byte	0x14
 2644 0364 00       		.byte	0
 2645 0365 03       		.uleb128 0x3
 2646 0366 DD0B0000 		.4byte	.LASF92
 2647 036a 06       		.byte	0x6
 2648 036b 21       		.byte	0x21
 2649 036c 09030000 		.4byte	0x309
 2650 0370 0B       		.uleb128 0xb
 2651 0371 18       		.byte	0x18
 2652 0372 01       		.byte	0x1
 2653 0373 34       		.byte	0x34
 2654 0374 CD030000 		.4byte	0x3cd
 2655 0378 0A       		.uleb128 0xa
 2656 0379 A5040000 		.4byte	.LASF93
 2657 037d 01       		.byte	0x1
 2658 037e 37       		.byte	0x37
 2659 037f AD000000 		.4byte	0xad
 2660 0383 00       		.byte	0
 2661 0384 0A       		.uleb128 0xa
 2662 0385 09020000 		.4byte	.LASF94
 2663 0389 01       		.byte	0x1
 2664 038a 38       		.byte	0x38
 2665 038b AD000000 		.4byte	0xad
 2666 038f 01       		.byte	0x1
 2667 0390 0A       		.uleb128 0xa
 2668 0391 F3030000 		.4byte	.LASF95
ARM GAS  C:\Users\Petro\AppData\Local\Temp\cclReBew.s 			page 61


 2669 0395 01       		.byte	0x1
 2670 0396 39       		.byte	0x39
 2671 0397 AD000000 		.4byte	0xad
 2672 039b 02       		.byte	0x2
 2673 039c 0A       		.uleb128 0xa
 2674 039d 57030000 		.4byte	.LASF96
 2675 03a1 01       		.byte	0x1
 2676 03a2 3A       		.byte	0x3a
 2677 03a3 AD000000 		.4byte	0xad
 2678 03a7 03       		.byte	0x3
 2679 03a8 0A       		.uleb128 0xa
 2680 03a9 C90A0000 		.4byte	.LASF97
 2681 03ad 01       		.byte	0x1
 2682 03ae 3C       		.byte	0x3c
 2683 03af E4000000 		.4byte	0xe4
 2684 03b3 08       		.byte	0x8
 2685 03b4 0A       		.uleb128 0xa
 2686 03b5 F5050000 		.4byte	.LASF98
 2687 03b9 01       		.byte	0x1
 2688 03ba 3D       		.byte	0x3d
 2689 03bb C3000000 		.4byte	0xc3
 2690 03bf 10       		.byte	0x10
 2691 03c0 0A       		.uleb128 0xa
 2692 03c1 6B080000 		.4byte	.LASF99
 2693 03c5 01       		.byte	0x1
 2694 03c6 3E       		.byte	0x3e
 2695 03c7 AD000000 		.4byte	0xad
 2696 03cb 12       		.byte	0x12
 2697 03cc 00       		.byte	0
 2698 03cd 03       		.uleb128 0x3
 2699 03ce BA010000 		.4byte	.LASF100
 2700 03d2 01       		.byte	0x1
 2701 03d3 3F       		.byte	0x3f
 2702 03d4 70030000 		.4byte	0x370
 2703 03d8 0B       		.uleb128 0xb
 2704 03d9 18       		.byte	0x18
 2705 03da 01       		.byte	0x1
 2706 03db 41       		.byte	0x41
 2707 03dc 29040000 		.4byte	0x429
 2708 03e0 0A       		.uleb128 0xa
 2709 03e1 A5040000 		.4byte	.LASF93
 2710 03e5 01       		.byte	0x1
 2711 03e6 44       		.byte	0x44
 2712 03e7 AD000000 		.4byte	0xad
 2713 03eb 00       		.byte	0
 2714 03ec 0A       		.uleb128 0xa
 2715 03ed 35070000 		.4byte	.LASF101
 2716 03f1 01       		.byte	0x1
 2717 03f2 45       		.byte	0x45
 2718 03f3 E4000000 		.4byte	0xe4
 2719 03f7 08       		.byte	0x8
 2720 03f8 0A       		.uleb128 0xa
 2721 03f9 4E050000 		.4byte	.LASF102
 2722 03fd 01       		.byte	0x1
 2723 03fe 46       		.byte	0x46
 2724 03ff C3000000 		.4byte	0xc3
 2725 0403 10       		.byte	0x10
ARM GAS  C:\Users\Petro\AppData\Local\Temp\cclReBew.s 			page 62


 2726 0404 0A       		.uleb128 0xa
 2727 0405 E2010000 		.4byte	.LASF103
 2728 0409 01       		.byte	0x1
 2729 040a 47       		.byte	0x47
 2730 040b AD000000 		.4byte	0xad
 2731 040f 12       		.byte	0x12
 2732 0410 0A       		.uleb128 0xa
 2733 0411 F3030000 		.4byte	.LASF95
 2734 0415 01       		.byte	0x1
 2735 0416 48       		.byte	0x48
 2736 0417 AD000000 		.4byte	0xad
 2737 041b 13       		.byte	0x13
 2738 041c 0A       		.uleb128 0xa
 2739 041d 00050000 		.4byte	.LASF104
 2740 0421 01       		.byte	0x1
 2741 0422 4A       		.byte	0x4a
 2742 0423 AD000000 		.4byte	0xad
 2743 0427 14       		.byte	0x14
 2744 0428 00       		.byte	0
 2745 0429 03       		.uleb128 0x3
 2746 042a 4D030000 		.4byte	.LASF105
 2747 042e 01       		.byte	0x1
 2748 042f 4B       		.byte	0x4b
 2749 0430 D8030000 		.4byte	0x3d8
 2750 0434 0C       		.uleb128 0xc
 2751 0435 BD060000 		.4byte	.LASF116
 2752 0439 01       		.byte	0x1
 2753 043a 6E       		.byte	0x6e
 2754 043b 00000000 		.4byte	.LFB63
 2755 043f 3C000000 		.4byte	.LFE63-.LFB63
 2756 0443 01       		.uleb128 0x1
 2757 0444 9C       		.byte	0x9c
 2758 0445 0D       		.uleb128 0xd
 2759 0446 5A050000 		.4byte	.LASF106
 2760 044a 01       		.byte	0x1
 2761 044b 80       		.byte	0x80
 2762 044c 00000000 		.4byte	.LFB64
 2763 0450 B0000000 		.4byte	.LFE64-.LFB64
 2764 0454 01       		.uleb128 0x1
 2765 0455 9C       		.byte	0x9c
 2766 0456 73040000 		.4byte	0x473
 2767 045a 0E       		.uleb128 0xe
 2768 045b 0E000000 		.4byte	.LBB2
 2769 045f 84000000 		.4byte	.LBE2-.LBB2
 2770 0463 0F       		.uleb128 0xf
 2771 0464 0E030000 		.4byte	.LASF108
 2772 0468 01       		.byte	0x1
 2773 0469 84       		.byte	0x84
 2774 046a AD000000 		.4byte	0xad
 2775 046e 02       		.uleb128 0x2
 2776 046f 91       		.byte	0x91
 2777 0470 6F       		.sleb128 -17
 2778 0471 00       		.byte	0
 2779 0472 00       		.byte	0
 2780 0473 0D       		.uleb128 0xd
 2781 0474 29090000 		.4byte	.LASF107
 2782 0478 01       		.byte	0x1
ARM GAS  C:\Users\Petro\AppData\Local\Temp\cclReBew.s 			page 63


 2783 0479 AC       		.byte	0xac
 2784 047a 00000000 		.4byte	.LFB65
 2785 047e 9C000000 		.4byte	.LFE65-.LFB65
 2786 0482 01       		.uleb128 0x1
 2787 0483 9C       		.byte	0x9c
 2788 0484 B1040000 		.4byte	0x4b1
 2789 0488 0E       		.uleb128 0xe
 2790 0489 16000000 		.4byte	.LBB3
 2791 048d 6E000000 		.4byte	.LBE3-.LBB3
 2792 0491 0F       		.uleb128 0xf
 2793 0492 9E080000 		.4byte	.LASF109
 2794 0496 01       		.byte	0x1
 2795 0497 B0       		.byte	0xb0
 2796 0498 B1040000 		.4byte	0x4b1
 2797 049c 03       		.uleb128 0x3
 2798 049d 91       		.byte	0x91
 2799 049e 887F     		.sleb128 -120
 2800 04a0 0F       		.uleb128 0xf
 2801 04a1 2C030000 		.4byte	.LASF110
 2802 04a5 01       		.byte	0x1
 2803 04a6 B1       		.byte	0xb1
 2804 04a7 B1040000 		.4byte	0x4b1
 2805 04ab 03       		.uleb128 0x3
 2806 04ac 91       		.byte	0x91
 2807 04ad BC7F     		.sleb128 -68
 2808 04af 00       		.byte	0
 2809 04b0 00       		.byte	0
 2810 04b1 10       		.uleb128 0x10
 2811 04b2 15010000 		.4byte	0x115
 2812 04b6 C1040000 		.4byte	0x4c1
 2813 04ba 11       		.uleb128 0x11
 2814 04bb 1C010000 		.4byte	0x11c
 2815 04bf 31       		.byte	0x31
 2816 04c0 00       		.byte	0
 2817 04c1 12       		.uleb128 0x12
 2818 04c2 86000000 		.4byte	.LASF114
 2819 04c6 01       		.byte	0x1
 2820 04c7 D1       		.byte	0xd1
 2821 04c8 D9000000 		.4byte	0xd9
 2822 04cc 00000000 		.4byte	.LFB66
 2823 04d0 AC010000 		.4byte	.LFE66-.LFB66
 2824 04d4 01       		.uleb128 0x1
 2825 04d5 9C       		.byte	0x9c
 2826 04d6 18050000 		.4byte	0x518
 2827 04da 0E       		.uleb128 0xe
 2828 04db 1E000000 		.4byte	.LBB4
 2829 04df 70010000 		.4byte	.LBE4-.LBB4
 2830 04e3 0F       		.uleb128 0xf
 2831 04e4 CB020000 		.4byte	.LASF111
 2832 04e8 01       		.byte	0x1
 2833 04e9 D5       		.byte	0xd5
 2834 04ea D9000000 		.4byte	0xd9
 2835 04ee 02       		.uleb128 0x2
 2836 04ef 91       		.byte	0x91
 2837 04f0 64       		.sleb128 -28
 2838 04f1 13       		.uleb128 0x13
 2839 04f2 6900     		.ascii	"i\000"
ARM GAS  C:\Users\Petro\AppData\Local\Temp\cclReBew.s 			page 64


 2840 04f4 01       		.byte	0x1
 2841 04f5 D6       		.byte	0xd6
 2842 04f6 9F000000 		.4byte	0x9f
 2843 04fa 0F       		.uleb128 0xf
 2844 04fb 0E030000 		.4byte	.LASF108
 2845 04ff 01       		.byte	0x1
 2846 0500 D7       		.byte	0xd7
 2847 0501 AD000000 		.4byte	0xad
 2848 0505 02       		.uleb128 0x2
 2849 0506 91       		.byte	0x91
 2850 0507 63       		.sleb128 -29
 2851 0508 0F       		.uleb128 0xf
 2852 0509 EE070000 		.4byte	.LASF112
 2853 050d 01       		.byte	0x1
 2854 050e D8       		.byte	0xd8
 2855 050f A8020000 		.4byte	0x2a8
 2856 0513 02       		.uleb128 0x2
 2857 0514 91       		.byte	0x91
 2858 0515 40       		.sleb128 -64
 2859 0516 00       		.byte	0
 2860 0517 00       		.byte	0
 2861 0518 14       		.uleb128 0x14
 2862 0519 23060000 		.4byte	.LASF113
 2863 051d 01       		.byte	0x1
 2864 051e 2701     		.2byte	0x127
 2865 0520 00000000 		.4byte	.LFB67
 2866 0524 1C000000 		.4byte	.LFE67-.LFB67
 2867 0528 01       		.uleb128 0x1
 2868 0529 9C       		.byte	0x9c
 2869 052a 3E050000 		.4byte	0x53e
 2870 052e 15       		.uleb128 0x15
 2871 052f 8E0A0000 		.4byte	.LASF129
 2872 0533 01       		.byte	0x1
 2873 0534 2701     		.2byte	0x127
 2874 0536 D9000000 		.4byte	0xd9
 2875 053a 02       		.uleb128 0x2
 2876 053b 91       		.byte	0x91
 2877 053c 74       		.sleb128 -12
 2878 053d 00       		.byte	0
 2879 053e 16       		.uleb128 0x16
 2880 053f F3060000 		.4byte	.LASF162
 2881 0543 01       		.byte	0x1
 2882 0544 3601     		.2byte	0x136
 2883 0546 D9000000 		.4byte	0xd9
 2884 054a 00000000 		.4byte	.LFB68
 2885 054e 14000000 		.4byte	.LFE68-.LFB68
 2886 0552 01       		.uleb128 0x1
 2887 0553 9C       		.byte	0x9c
 2888 0554 17       		.uleb128 0x17
 2889 0555 130A0000 		.4byte	.LASF115
 2890 0559 01       		.byte	0x1
 2891 055a 4501     		.2byte	0x145
 2892 055c D9000000 		.4byte	0xd9
 2893 0560 00000000 		.4byte	.LFB69
 2894 0564 50000000 		.4byte	.LFE69-.LFB69
 2895 0568 01       		.uleb128 0x1
 2896 0569 9C       		.byte	0x9c
ARM GAS  C:\Users\Petro\AppData\Local\Temp\cclReBew.s 			page 65


 2897 056a 7E050000 		.4byte	0x57e
 2898 056e 18       		.uleb128 0x18
 2899 056f CB020000 		.4byte	.LASF111
 2900 0573 01       		.byte	0x1
 2901 0574 4701     		.2byte	0x147
 2902 0576 D9000000 		.4byte	0xd9
 2903 057a 02       		.uleb128 0x2
 2904 057b 91       		.byte	0x91
 2905 057c 74       		.sleb128 -12
 2906 057d 00       		.byte	0
 2907 057e 19       		.uleb128 0x19
 2908 057f AD060000 		.4byte	.LASF117
 2909 0583 01       		.byte	0x1
 2910 0584 5701     		.2byte	0x157
 2911 0586 00000000 		.4byte	.LFB70
 2912 058a 28000000 		.4byte	.LFE70-.LFB70
 2913 058e 01       		.uleb128 0x1
 2914 058f 9C       		.byte	0x9c
 2915 0590 19       		.uleb128 0x19
 2916 0591 620A0000 		.4byte	.LASF118
 2917 0595 01       		.byte	0x1
 2918 0596 6601     		.2byte	0x166
 2919 0598 00000000 		.4byte	.LFB71
 2920 059c 28000000 		.4byte	.LFE71-.LFB71
 2921 05a0 01       		.uleb128 0x1
 2922 05a1 9C       		.byte	0x9c
 2923 05a2 1A       		.uleb128 0x1a
 2924 05a3 210C0000 		.4byte	.LASF119
 2925 05a7 01       		.byte	0x1
 2926 05a8 7801     		.2byte	0x178
 2927 05aa D9000000 		.4byte	0xd9
 2928 05ae 00000000 		.4byte	.LFB72
 2929 05b2 CC060000 		.4byte	.LFE72-.LFB72
 2930 05b6 01       		.uleb128 0x1
 2931 05b7 9C       		.byte	0x9c
 2932 05b8 A1060000 		.4byte	0x6a1
 2933 05bc 18       		.uleb128 0x18
 2934 05bd CB020000 		.4byte	.LASF111
 2935 05c1 01       		.byte	0x1
 2936 05c2 7A01     		.2byte	0x17a
 2937 05c4 C3000000 		.4byte	0xc3
 2938 05c8 02       		.uleb128 0x2
 2939 05c9 91       		.byte	0x91
 2940 05ca 66       		.sleb128 -26
 2941 05cb 18       		.uleb128 0x18
 2942 05cc A5040000 		.4byte	.LASF93
 2943 05d0 01       		.byte	0x1
 2944 05d1 7B01     		.2byte	0x17b
 2945 05d3 C3000000 		.4byte	0xc3
 2946 05d7 02       		.uleb128 0x2
 2947 05d8 91       		.byte	0x91
 2948 05d9 64       		.sleb128 -28
 2949 05da 18       		.uleb128 0x18
 2950 05db 22070000 		.4byte	.LASF120
 2951 05df 01       		.byte	0x1
 2952 05e0 8101     		.2byte	0x181
 2953 05e2 C3000000 		.4byte	0xc3
ARM GAS  C:\Users\Petro\AppData\Local\Temp\cclReBew.s 			page 66


 2954 05e6 02       		.uleb128 0x2
 2955 05e7 91       		.byte	0x91
 2956 05e8 62       		.sleb128 -30
 2957 05e9 18       		.uleb128 0x18
 2958 05ea 7F010000 		.4byte	.LASF121
 2959 05ee 01       		.byte	0x1
 2960 05ef 8201     		.2byte	0x182
 2961 05f1 C3000000 		.4byte	0xc3
 2962 05f5 02       		.uleb128 0x2
 2963 05f6 91       		.byte	0x91
 2964 05f7 60       		.sleb128 -32
 2965 05f8 18       		.uleb128 0x18
 2966 05f9 87030000 		.4byte	.LASF122
 2967 05fd 01       		.byte	0x1
 2968 05fe C501     		.2byte	0x1c5
 2969 0600 AD000000 		.4byte	0xad
 2970 0604 02       		.uleb128 0x2
 2971 0605 91       		.byte	0x91
 2972 0606 5B       		.sleb128 -37
 2973 0607 18       		.uleb128 0x18
 2974 0608 C8080000 		.4byte	.LASF123
 2975 060c 01       		.byte	0x1
 2976 060d C601     		.2byte	0x1c6
 2977 060f CE000000 		.4byte	0xce
 2978 0613 02       		.uleb128 0x2
 2979 0614 91       		.byte	0x91
 2980 0615 54       		.sleb128 -44
 2981 0616 18       		.uleb128 0x18
 2982 0617 3C030000 		.4byte	.LASF124
 2983 061b 01       		.byte	0x1
 2984 061c C701     		.2byte	0x1c7
 2985 061e CE000000 		.4byte	0xce
 2986 0622 02       		.uleb128 0x2
 2987 0623 91       		.byte	0x91
 2988 0624 50       		.sleb128 -48
 2989 0625 1B       		.uleb128 0x1b
 2990 0626 34000000 		.4byte	.LBB5
 2991 062a 84010000 		.4byte	.LBE5-.LBB5
 2992 062e 42060000 		.4byte	0x642
 2993 0632 18       		.uleb128 0x18
 2994 0633 CD050000 		.4byte	.LASF125
 2995 0637 01       		.byte	0x1
 2996 0638 9601     		.2byte	0x196
 2997 063a D9000000 		.4byte	0xd9
 2998 063e 02       		.uleb128 0x2
 2999 063f 91       		.byte	0x91
 3000 0640 5C       		.sleb128 -36
 3001 0641 00       		.byte	0
 3002 0642 1B       		.uleb128 0x1b
 3003 0643 3A020000 		.4byte	.LBB6
 3004 0647 08020000 		.4byte	.LBE6-.LBB6
 3005 064b 87060000 		.4byte	0x687
 3006 064f 18       		.uleb128 0x18
 3007 0650 CD050000 		.4byte	.LASF125
 3008 0654 01       		.byte	0x1
 3009 0655 E001     		.2byte	0x1e0
 3010 0657 D9000000 		.4byte	0xd9
ARM GAS  C:\Users\Petro\AppData\Local\Temp\cclReBew.s 			page 67


 3011 065b 02       		.uleb128 0x2
 3012 065c 91       		.byte	0x91
 3013 065d 4C       		.sleb128 -52
 3014 065e 0E       		.uleb128 0xe
 3015 065f E0020000 		.4byte	.LBB7
 3016 0663 56000000 		.4byte	.LBE7-.LBB7
 3017 0667 18       		.uleb128 0x18
 3018 0668 F8040000 		.4byte	.LASF126
 3019 066c 01       		.byte	0x1
 3020 066d F401     		.2byte	0x1f4
 3021 066f CE000000 		.4byte	0xce
 3022 0673 02       		.uleb128 0x2
 3023 0674 91       		.byte	0x91
 3024 0675 44       		.sleb128 -60
 3025 0676 18       		.uleb128 0x18
 3026 0677 72090000 		.4byte	.LASF127
 3027 067b 01       		.byte	0x1
 3028 067c F401     		.2byte	0x1f4
 3029 067e CE000000 		.4byte	0xce
 3030 0682 02       		.uleb128 0x2
 3031 0683 91       		.byte	0x91
 3032 0684 40       		.sleb128 -64
 3033 0685 00       		.byte	0
 3034 0686 00       		.byte	0
 3035 0687 0E       		.uleb128 0xe
 3036 0688 D8040000 		.4byte	.LBB8
 3037 068c 82010000 		.4byte	.LBE8-.LBB8
 3038 0690 18       		.uleb128 0x18
 3039 0691 CD050000 		.4byte	.LASF125
 3040 0695 01       		.byte	0x1
 3041 0696 4602     		.2byte	0x246
 3042 0698 D9000000 		.4byte	0xd9
 3043 069c 02       		.uleb128 0x2
 3044 069d 91       		.byte	0x91
 3045 069e 48       		.sleb128 -56
 3046 069f 00       		.byte	0
 3047 06a0 00       		.byte	0
 3048 06a1 1C       		.uleb128 0x1c
 3049 06a2 51000000 		.4byte	.LASF128
 3050 06a6 01       		.byte	0x1
 3051 06a7 9202     		.2byte	0x292
 3052 06a9 00000000 		.4byte	.LFB73
 3053 06ad 58000000 		.4byte	.LFE73-.LFB73
 3054 06b1 01       		.uleb128 0x1
 3055 06b2 9C       		.byte	0x9c
 3056 06b3 06070000 		.4byte	0x706
 3057 06b7 15       		.uleb128 0x15
 3058 06b8 510A0000 		.4byte	.LASF130
 3059 06bc 01       		.byte	0x1
 3060 06bd 9202     		.2byte	0x292
 3061 06bf D9000000 		.4byte	0xd9
 3062 06c3 03       		.uleb128 0x3
 3063 06c4 91       		.byte	0x91
 3064 06c5 8C7F     		.sleb128 -116
 3065 06c7 15       		.uleb128 0x15
 3066 06c8 35030000 		.4byte	.LASF131
 3067 06cc 01       		.byte	0x1
ARM GAS  C:\Users\Petro\AppData\Local\Temp\cclReBew.s 			page 68


 3068 06cd 9202     		.2byte	0x292
 3069 06cf C3000000 		.4byte	0xc3
 3070 06d3 03       		.uleb128 0x3
 3071 06d4 91       		.byte	0x91
 3072 06d5 8A7F     		.sleb128 -118
 3073 06d7 1D       		.uleb128 0x1d
 3074 06d8 494400   		.ascii	"ID\000"
 3075 06db 01       		.byte	0x1
 3076 06dc 9202     		.2byte	0x292
 3077 06de C3000000 		.4byte	0xc3
 3078 06e2 03       		.uleb128 0x3
 3079 06e3 91       		.byte	0x91
 3080 06e4 887F     		.sleb128 -120
 3081 06e6 18       		.uleb128 0x18
 3082 06e7 9E080000 		.4byte	.LASF109
 3083 06eb 01       		.byte	0x1
 3084 06ec 9402     		.2byte	0x294
 3085 06ee B1040000 		.4byte	0x4b1
 3086 06f2 02       		.uleb128 0x2
 3087 06f3 91       		.byte	0x91
 3088 06f4 44       		.sleb128 -60
 3089 06f5 18       		.uleb128 0x18
 3090 06f6 2C030000 		.4byte	.LASF110
 3091 06fa 01       		.byte	0x1
 3092 06fb 9502     		.2byte	0x295
 3093 06fd B1040000 		.4byte	0x4b1
 3094 0701 03       		.uleb128 0x3
 3095 0702 91       		.byte	0x91
 3096 0703 907F     		.sleb128 -112
 3097 0705 00       		.byte	0
 3098 0706 1C       		.uleb128 0x1c
 3099 0707 3F090000 		.4byte	.LASF132
 3100 070b 01       		.byte	0x1
 3101 070c A202     		.2byte	0x2a2
 3102 070e 00000000 		.4byte	.LFB74
 3103 0712 48010000 		.4byte	.LFE74-.LFB74
 3104 0716 01       		.uleb128 0x1
 3105 0717 9C       		.byte	0x9c
 3106 0718 B3070000 		.4byte	0x7b3
 3107 071c 15       		.uleb128 0x15
 3108 071d 510A0000 		.4byte	.LASF130
 3109 0721 01       		.byte	0x1
 3110 0722 A202     		.2byte	0x2a2
 3111 0724 B3070000 		.4byte	0x7b3
 3112 0728 02       		.uleb128 0x2
 3113 0729 91       		.byte	0x91
 3114 072a 54       		.sleb128 -44
 3115 072b 15       		.uleb128 0x15
 3116 072c F8020000 		.4byte	.LASF133
 3117 0730 01       		.byte	0x1
 3118 0731 A202     		.2byte	0x2a2
 3119 0733 B9070000 		.4byte	0x7b9
 3120 0737 02       		.uleb128 0x2
 3121 0738 91       		.byte	0x91
 3122 0739 50       		.sleb128 -48
 3123 073a 15       		.uleb128 0x15
 3124 073b AE040000 		.4byte	.LASF134
ARM GAS  C:\Users\Petro\AppData\Local\Temp\cclReBew.s 			page 69


 3125 073f 01       		.byte	0x1
 3126 0740 A202     		.2byte	0x2a2
 3127 0742 BF070000 		.4byte	0x7bf
 3128 0746 02       		.uleb128 0x2
 3129 0747 91       		.byte	0x91
 3130 0748 4C       		.sleb128 -52
 3131 0749 15       		.uleb128 0x15
 3132 074a 0D0A0000 		.4byte	.LASF135
 3133 074e 01       		.byte	0x1
 3134 074f A202     		.2byte	0x2a2
 3135 0751 BF070000 		.4byte	0x7bf
 3136 0755 02       		.uleb128 0x2
 3137 0756 91       		.byte	0x91
 3138 0757 48       		.sleb128 -56
 3139 0758 18       		.uleb128 0x18
 3140 0759 23000000 		.4byte	.LASF136
 3141 075d 01       		.byte	0x1
 3142 075e A502     		.2byte	0x2a5
 3143 0760 B8000000 		.4byte	0xb8
 3144 0764 02       		.uleb128 0x2
 3145 0765 91       		.byte	0x91
 3146 0766 68       		.sleb128 -24
 3147 0767 18       		.uleb128 0x18
 3148 0768 1F090000 		.4byte	.LASF137
 3149 076c 01       		.byte	0x1
 3150 076d A602     		.2byte	0x2a6
 3151 076f CE000000 		.4byte	0xce
 3152 0773 02       		.uleb128 0x2
 3153 0774 91       		.byte	0x91
 3154 0775 64       		.sleb128 -28
 3155 0776 18       		.uleb128 0x18
 3156 0777 F3010000 		.4byte	.LASF138
 3157 077b 01       		.byte	0x1
 3158 077c A702     		.2byte	0x2a7
 3159 077e B8000000 		.4byte	0xb8
 3160 0782 02       		.uleb128 0x2
 3161 0783 91       		.byte	0x91
 3162 0784 62       		.sleb128 -30
 3163 0785 18       		.uleb128 0x18
 3164 0786 950A0000 		.4byte	.LASF139
 3165 078a 01       		.byte	0x1
 3166 078b A802     		.2byte	0x2a8
 3167 078d CE000000 		.4byte	0xce
 3168 0791 02       		.uleb128 0x2
 3169 0792 91       		.byte	0x91
 3170 0793 5C       		.sleb128 -36
 3171 0794 18       		.uleb128 0x18
 3172 0795 AC090000 		.4byte	.LASF140
 3173 0799 01       		.byte	0x1
 3174 079a A902     		.2byte	0x2a9
 3175 079c CE000000 		.4byte	0xce
 3176 07a0 02       		.uleb128 0x2
 3177 07a1 91       		.byte	0x91
 3178 07a2 6C       		.sleb128 -20
 3179 07a3 18       		.uleb128 0x18
 3180 07a4 99020000 		.4byte	.LASF141
 3181 07a8 01       		.byte	0x1
ARM GAS  C:\Users\Petro\AppData\Local\Temp\cclReBew.s 			page 70


 3182 07a9 AA02     		.2byte	0x2aa
 3183 07ab B8000000 		.4byte	0xb8
 3184 07af 02       		.uleb128 0x2
 3185 07b0 91       		.byte	0x91
 3186 07b1 6A       		.sleb128 -22
 3187 07b2 00       		.byte	0
 3188 07b3 1E       		.uleb128 0x1e
 3189 07b4 04       		.byte	0x4
 3190 07b5 D9000000 		.4byte	0xd9
 3191 07b9 1E       		.uleb128 0x1e
 3192 07ba 04       		.byte	0x4
 3193 07bb C3000000 		.4byte	0xc3
 3194 07bf 1E       		.uleb128 0x1e
 3195 07c0 04       		.byte	0x4
 3196 07c1 CE000000 		.4byte	0xce
 3197 07c5 14       		.uleb128 0x14
 3198 07c6 40040000 		.4byte	.LASF142
 3199 07ca 01       		.byte	0x1
 3200 07cb C802     		.2byte	0x2c8
 3201 07cd 00000000 		.4byte	.LFB75
 3202 07d1 B0000000 		.4byte	.LFE75-.LFB75
 3203 07d5 01       		.uleb128 0x1
 3204 07d6 9C       		.byte	0x9c
 3205 07d7 36080000 		.4byte	0x836
 3206 07db 15       		.uleb128 0x15
 3207 07dc 170C0000 		.4byte	.LASF143
 3208 07e0 01       		.byte	0x1
 3209 07e1 C802     		.2byte	0x2c8
 3210 07e3 D9000000 		.4byte	0xd9
 3211 07e7 02       		.uleb128 0x2
 3212 07e8 91       		.byte	0x91
 3213 07e9 74       		.sleb128 -12
 3214 07ea 1D       		.uleb128 0x1d
 3215 07eb 6D733100 		.ascii	"ms1\000"
 3216 07ef 01       		.byte	0x1
 3217 07f0 C802     		.2byte	0x2c8
 3218 07f2 C3000000 		.4byte	0xc3
 3219 07f6 02       		.uleb128 0x2
 3220 07f7 91       		.byte	0x91
 3221 07f8 72       		.sleb128 -14
 3222 07f9 15       		.uleb128 0x15
 3223 07fa 1C0C0000 		.4byte	.LASF144
 3224 07fe 01       		.byte	0x1
 3225 07ff C802     		.2byte	0x2c8
 3226 0801 D9000000 		.4byte	0xd9
 3227 0805 02       		.uleb128 0x2
 3228 0806 91       		.byte	0x91
 3229 0807 6C       		.sleb128 -20
 3230 0808 1D       		.uleb128 0x1d
 3231 0809 6D733200 		.ascii	"ms2\000"
 3232 080d 01       		.byte	0x1
 3233 080e C802     		.2byte	0x2c8
 3234 0810 C3000000 		.4byte	0xc3
 3235 0814 02       		.uleb128 0x2
 3236 0815 91       		.byte	0x91
 3237 0816 70       		.sleb128 -16
 3238 0817 15       		.uleb128 0x15
ARM GAS  C:\Users\Petro\AppData\Local\Temp\cclReBew.s 			page 71


 3239 0818 FA030000 		.4byte	.LASF145
 3240 081c 01       		.byte	0x1
 3241 081d C802     		.2byte	0x2c8
 3242 081f BF070000 		.4byte	0x7bf
 3243 0823 02       		.uleb128 0x2
 3244 0824 91       		.byte	0x91
 3245 0825 00       		.sleb128 0
 3246 0826 15       		.uleb128 0x15
 3247 0827 EA060000 		.4byte	.LASF146
 3248 082b 01       		.byte	0x1
 3249 082c C802     		.2byte	0x2c8
 3250 082e 36080000 		.4byte	0x836
 3251 0832 02       		.uleb128 0x2
 3252 0833 91       		.byte	0x91
 3253 0834 04       		.sleb128 4
 3254 0835 00       		.byte	0
 3255 0836 1E       		.uleb128 0x1e
 3256 0837 04       		.byte	0x4
 3257 0838 B8000000 		.4byte	0xb8
 3258 083c 1F       		.uleb128 0x1f
 3259 083d 5A0A0000 		.4byte	.LASF147
 3260 0841 01       		.byte	0x1
 3261 0842 4D       		.byte	0x4d
 3262 0843 CD030000 		.4byte	0x3cd
 3263 0847 05       		.uleb128 0x5
 3264 0848 03       		.byte	0x3
 3265 0849 00000000 		.4byte	outData
 3266 084d 1F       		.uleb128 0x1f
 3267 084e 7A050000 		.4byte	.LASF148
 3268 0852 01       		.byte	0x1
 3269 0853 4E       		.byte	0x4e
 3270 0854 29040000 		.4byte	0x429
 3271 0858 05       		.uleb128 0x5
 3272 0859 03       		.byte	0x3
 3273 085a 00000000 		.4byte	inData
 3274 085e 1F       		.uleb128 0x1f
 3275 085f C2050000 		.4byte	.LASF149
 3276 0863 01       		.byte	0x1
 3277 0864 4F       		.byte	0x4f
 3278 0865 AD000000 		.4byte	0xad
 3279 0869 05       		.uleb128 0x5
 3280 086a 03       		.byte	0x3
 3281 086b 00000000 		.4byte	rebootFlag
 3282 086f 1F       		.uleb128 0x1f
 3283 0870 23040000 		.4byte	.LASF150
 3284 0874 01       		.byte	0x1
 3285 0875 51       		.byte	0x51
 3286 0876 D9000000 		.4byte	0xd9
 3287 087a 05       		.uleb128 0x5
 3288 087b 03       		.byte	0x3
 3289 087c 00000000 		.4byte	numAttemps
 3290 0880 1F       		.uleb128 0x1f
 3291 0881 030A0000 		.4byte	.LASF151
 3292 0885 01       		.byte	0x1
 3293 0886 51       		.byte	0x51
 3294 0887 D9000000 		.4byte	0xd9
 3295 088b 05       		.uleb128 0x5
ARM GAS  C:\Users\Petro\AppData\Local\Temp\cclReBew.s 			page 72


 3296 088c 03       		.byte	0x3
 3297 088d 00000000 		.4byte	noConnect
 3298 0891 1F       		.uleb128 0x1f
 3299 0892 71010000 		.4byte	.LASF152
 3300 0896 01       		.byte	0x1
 3301 0897 51       		.byte	0x51
 3302 0898 D9000000 		.4byte	0xd9
 3303 089c 05       		.uleb128 0x5
 3304 089d 03       		.byte	0x3
 3305 089e 00000000 		.4byte	networkStatus
 3306 08a2 10       		.uleb128 0x10
 3307 08a3 D9000000 		.4byte	0xd9
 3308 08a7 B2080000 		.4byte	0x8b2
 3309 08ab 11       		.uleb128 0x11
 3310 08ac 1C010000 		.4byte	0x11c
 3311 08b0 03       		.byte	0x3
 3312 08b1 00       		.byte	0
 3313 08b2 1F       		.uleb128 0x1f
 3314 08b3 510A0000 		.4byte	.LASF130
 3315 08b7 01       		.byte	0x1
 3316 08b8 52       		.byte	0x52
 3317 08b9 A2080000 		.4byte	0x8a2
 3318 08bd 05       		.uleb128 0x5
 3319 08be 03       		.byte	0x3
 3320 08bf 00000000 		.4byte	unixTime
 3321 08c3 10       		.uleb128 0x10
 3322 08c4 C3000000 		.4byte	0xc3
 3323 08c8 D3080000 		.4byte	0x8d3
 3324 08cc 11       		.uleb128 0x11
 3325 08cd 1C010000 		.4byte	0x11c
 3326 08d1 03       		.byte	0x3
 3327 08d2 00       		.byte	0
 3328 08d3 1F       		.uleb128 0x1f
 3329 08d4 9F0A0000 		.4byte	.LASF153
 3330 08d8 01       		.byte	0x1
 3331 08d9 53       		.byte	0x53
 3332 08da C3080000 		.4byte	0x8c3
 3333 08de 05       		.uleb128 0x5
 3334 08df 03       		.byte	0x3
 3335 08e0 00000000 		.4byte	millisTime
 3336 08e4 1F       		.uleb128 0x1f
 3337 08e5 A2070000 		.4byte	.LASF154
 3338 08e9 01       		.byte	0x1
 3339 08ea 55       		.byte	0x55
 3340 08eb AD000000 		.4byte	0xad
 3341 08ef 05       		.uleb128 0x5
 3342 08f0 03       		.byte	0x3
 3343 08f1 00000000 		.4byte	ntpFlagEndReceivePacket
 3344 08f5 1F       		.uleb128 0x1f
 3345 08f6 AA0A0000 		.4byte	.LASF155
 3346 08fa 01       		.byte	0x1
 3347 08fb 56       		.byte	0x56
 3348 08fc AD000000 		.4byte	0xad
 3349 0900 05       		.uleb128 0x5
 3350 0901 03       		.byte	0x3
 3351 0902 00000000 		.4byte	ntpFlagReadyForReceive
 3352 0906 1F       		.uleb128 0x1f
ARM GAS  C:\Users\Petro\AppData\Local\Temp\cclReBew.s 			page 73


 3353 0907 E50B0000 		.4byte	.LASF156
 3354 090b 01       		.byte	0x1
 3355 090c 57       		.byte	0x57
 3356 090d 65030000 		.4byte	0x365
 3357 0911 05       		.uleb128 0x5
 3358 0912 03       		.byte	0x3
 3359 0913 00000000 		.4byte	recvDataNTP
 3360 0917 1F       		.uleb128 0x1f
 3361 0918 22020000 		.4byte	.LASF157
 3362 091c 01       		.byte	0x1
 3363 091d 58       		.byte	0x58
 3364 091e AD000000 		.4byte	0xad
 3365 0922 05       		.uleb128 0x5
 3366 0923 03       		.byte	0x3
 3367 0924 00000000 		.4byte	onNtpSync
 3368 0928 00       		.byte	0
 3369              		.section	.debug_abbrev,"",%progbits
 3370              	.Ldebug_abbrev0:
 3371 0000 01       		.uleb128 0x1
 3372 0001 11       		.uleb128 0x11
 3373 0002 01       		.byte	0x1
 3374 0003 25       		.uleb128 0x25
 3375 0004 0E       		.uleb128 0xe
 3376 0005 13       		.uleb128 0x13
 3377 0006 0B       		.uleb128 0xb
 3378 0007 03       		.uleb128 0x3
 3379 0008 0E       		.uleb128 0xe
 3380 0009 1B       		.uleb128 0x1b
 3381 000a 0E       		.uleb128 0xe
 3382 000b 55       		.uleb128 0x55
 3383 000c 17       		.uleb128 0x17
 3384 000d 11       		.uleb128 0x11
 3385 000e 01       		.uleb128 0x1
 3386 000f 10       		.uleb128 0x10
 3387 0010 17       		.uleb128 0x17
 3388 0011 00       		.byte	0
 3389 0012 00       		.byte	0
 3390 0013 02       		.uleb128 0x2
 3391 0014 24       		.uleb128 0x24
 3392 0015 00       		.byte	0
 3393 0016 0B       		.uleb128 0xb
 3394 0017 0B       		.uleb128 0xb
 3395 0018 3E       		.uleb128 0x3e
 3396 0019 0B       		.uleb128 0xb
 3397 001a 03       		.uleb128 0x3
 3398 001b 0E       		.uleb128 0xe
 3399 001c 00       		.byte	0
 3400 001d 00       		.byte	0
 3401 001e 03       		.uleb128 0x3
 3402 001f 16       		.uleb128 0x16
 3403 0020 00       		.byte	0
 3404 0021 03       		.uleb128 0x3
 3405 0022 0E       		.uleb128 0xe
 3406 0023 3A       		.uleb128 0x3a
 3407 0024 0B       		.uleb128 0xb
 3408 0025 3B       		.uleb128 0x3b
 3409 0026 0B       		.uleb128 0xb
ARM GAS  C:\Users\Petro\AppData\Local\Temp\cclReBew.s 			page 74


 3410 0027 49       		.uleb128 0x49
 3411 0028 13       		.uleb128 0x13
 3412 0029 00       		.byte	0
 3413 002a 00       		.byte	0
 3414 002b 04       		.uleb128 0x4
 3415 002c 24       		.uleb128 0x24
 3416 002d 00       		.byte	0
 3417 002e 0B       		.uleb128 0xb
 3418 002f 0B       		.uleb128 0xb
 3419 0030 3E       		.uleb128 0x3e
 3420 0031 0B       		.uleb128 0xb
 3421 0032 03       		.uleb128 0x3
 3422 0033 08       		.uleb128 0x8
 3423 0034 00       		.byte	0
 3424 0035 00       		.byte	0
 3425 0036 05       		.uleb128 0x5
 3426 0037 16       		.uleb128 0x16
 3427 0038 00       		.byte	0
 3428 0039 03       		.uleb128 0x3
 3429 003a 0E       		.uleb128 0xe
 3430 003b 3A       		.uleb128 0x3a
 3431 003c 0B       		.uleb128 0xb
 3432 003d 3B       		.uleb128 0x3b
 3433 003e 05       		.uleb128 0x5
 3434 003f 49       		.uleb128 0x49
 3435 0040 13       		.uleb128 0x13
 3436 0041 00       		.byte	0
 3437 0042 00       		.byte	0
 3438 0043 06       		.uleb128 0x6
 3439 0044 04       		.uleb128 0x4
 3440 0045 01       		.byte	0x1
 3441 0046 0B       		.uleb128 0xb
 3442 0047 0B       		.uleb128 0xb
 3443 0048 3A       		.uleb128 0x3a
 3444 0049 0B       		.uleb128 0xb
 3445 004a 3B       		.uleb128 0x3b
 3446 004b 0B       		.uleb128 0xb
 3447 004c 01       		.uleb128 0x1
 3448 004d 13       		.uleb128 0x13
 3449 004e 00       		.byte	0
 3450 004f 00       		.byte	0
 3451 0050 07       		.uleb128 0x7
 3452 0051 28       		.uleb128 0x28
 3453 0052 00       		.byte	0
 3454 0053 03       		.uleb128 0x3
 3455 0054 0E       		.uleb128 0xe
 3456 0055 1C       		.uleb128 0x1c
 3457 0056 0D       		.uleb128 0xd
 3458 0057 00       		.byte	0
 3459 0058 00       		.byte	0
 3460 0059 08       		.uleb128 0x8
 3461 005a 13       		.uleb128 0x13
 3462 005b 01       		.byte	0x1
 3463 005c 03       		.uleb128 0x3
 3464 005d 0E       		.uleb128 0xe
 3465 005e 0B       		.uleb128 0xb
 3466 005f 0B       		.uleb128 0xb
ARM GAS  C:\Users\Petro\AppData\Local\Temp\cclReBew.s 			page 75


 3467 0060 3A       		.uleb128 0x3a
 3468 0061 0B       		.uleb128 0xb
 3469 0062 3B       		.uleb128 0x3b
 3470 0063 0B       		.uleb128 0xb
 3471 0064 01       		.uleb128 0x1
 3472 0065 13       		.uleb128 0x13
 3473 0066 00       		.byte	0
 3474 0067 00       		.byte	0
 3475 0068 09       		.uleb128 0x9
 3476 0069 0D       		.uleb128 0xd
 3477 006a 00       		.byte	0
 3478 006b 03       		.uleb128 0x3
 3479 006c 08       		.uleb128 0x8
 3480 006d 3A       		.uleb128 0x3a
 3481 006e 0B       		.uleb128 0xb
 3482 006f 3B       		.uleb128 0x3b
 3483 0070 0B       		.uleb128 0xb
 3484 0071 49       		.uleb128 0x49
 3485 0072 13       		.uleb128 0x13
 3486 0073 38       		.uleb128 0x38
 3487 0074 0B       		.uleb128 0xb
 3488 0075 00       		.byte	0
 3489 0076 00       		.byte	0
 3490 0077 0A       		.uleb128 0xa
 3491 0078 0D       		.uleb128 0xd
 3492 0079 00       		.byte	0
 3493 007a 03       		.uleb128 0x3
 3494 007b 0E       		.uleb128 0xe
 3495 007c 3A       		.uleb128 0x3a
 3496 007d 0B       		.uleb128 0xb
 3497 007e 3B       		.uleb128 0x3b
 3498 007f 0B       		.uleb128 0xb
 3499 0080 49       		.uleb128 0x49
 3500 0081 13       		.uleb128 0x13
 3501 0082 38       		.uleb128 0x38
 3502 0083 0B       		.uleb128 0xb
 3503 0084 00       		.byte	0
 3504 0085 00       		.byte	0
 3505 0086 0B       		.uleb128 0xb
 3506 0087 13       		.uleb128 0x13
 3507 0088 01       		.byte	0x1
 3508 0089 0B       		.uleb128 0xb
 3509 008a 0B       		.uleb128 0xb
 3510 008b 3A       		.uleb128 0x3a
 3511 008c 0B       		.uleb128 0xb
 3512 008d 3B       		.uleb128 0x3b
 3513 008e 0B       		.uleb128 0xb
 3514 008f 01       		.uleb128 0x1
 3515 0090 13       		.uleb128 0x13
 3516 0091 00       		.byte	0
 3517 0092 00       		.byte	0
 3518 0093 0C       		.uleb128 0xc
 3519 0094 2E       		.uleb128 0x2e
 3520 0095 00       		.byte	0
 3521 0096 3F       		.uleb128 0x3f
 3522 0097 19       		.uleb128 0x19
 3523 0098 03       		.uleb128 0x3
ARM GAS  C:\Users\Petro\AppData\Local\Temp\cclReBew.s 			page 76


 3524 0099 0E       		.uleb128 0xe
 3525 009a 3A       		.uleb128 0x3a
 3526 009b 0B       		.uleb128 0xb
 3527 009c 3B       		.uleb128 0x3b
 3528 009d 0B       		.uleb128 0xb
 3529 009e 27       		.uleb128 0x27
 3530 009f 19       		.uleb128 0x19
 3531 00a0 11       		.uleb128 0x11
 3532 00a1 01       		.uleb128 0x1
 3533 00a2 12       		.uleb128 0x12
 3534 00a3 06       		.uleb128 0x6
 3535 00a4 40       		.uleb128 0x40
 3536 00a5 18       		.uleb128 0x18
 3537 00a6 9642     		.uleb128 0x2116
 3538 00a8 19       		.uleb128 0x19
 3539 00a9 00       		.byte	0
 3540 00aa 00       		.byte	0
 3541 00ab 0D       		.uleb128 0xd
 3542 00ac 2E       		.uleb128 0x2e
 3543 00ad 01       		.byte	0x1
 3544 00ae 3F       		.uleb128 0x3f
 3545 00af 19       		.uleb128 0x19
 3546 00b0 03       		.uleb128 0x3
 3547 00b1 0E       		.uleb128 0xe
 3548 00b2 3A       		.uleb128 0x3a
 3549 00b3 0B       		.uleb128 0xb
 3550 00b4 3B       		.uleb128 0x3b
 3551 00b5 0B       		.uleb128 0xb
 3552 00b6 27       		.uleb128 0x27
 3553 00b7 19       		.uleb128 0x19
 3554 00b8 11       		.uleb128 0x11
 3555 00b9 01       		.uleb128 0x1
 3556 00ba 12       		.uleb128 0x12
 3557 00bb 06       		.uleb128 0x6
 3558 00bc 40       		.uleb128 0x40
 3559 00bd 18       		.uleb128 0x18
 3560 00be 9642     		.uleb128 0x2116
 3561 00c0 19       		.uleb128 0x19
 3562 00c1 01       		.uleb128 0x1
 3563 00c2 13       		.uleb128 0x13
 3564 00c3 00       		.byte	0
 3565 00c4 00       		.byte	0
 3566 00c5 0E       		.uleb128 0xe
 3567 00c6 0B       		.uleb128 0xb
 3568 00c7 01       		.byte	0x1
 3569 00c8 11       		.uleb128 0x11
 3570 00c9 01       		.uleb128 0x1
 3571 00ca 12       		.uleb128 0x12
 3572 00cb 06       		.uleb128 0x6
 3573 00cc 00       		.byte	0
 3574 00cd 00       		.byte	0
 3575 00ce 0F       		.uleb128 0xf
 3576 00cf 34       		.uleb128 0x34
 3577 00d0 00       		.byte	0
 3578 00d1 03       		.uleb128 0x3
 3579 00d2 0E       		.uleb128 0xe
 3580 00d3 3A       		.uleb128 0x3a
ARM GAS  C:\Users\Petro\AppData\Local\Temp\cclReBew.s 			page 77


 3581 00d4 0B       		.uleb128 0xb
 3582 00d5 3B       		.uleb128 0x3b
 3583 00d6 0B       		.uleb128 0xb
 3584 00d7 49       		.uleb128 0x49
 3585 00d8 13       		.uleb128 0x13
 3586 00d9 02       		.uleb128 0x2
 3587 00da 18       		.uleb128 0x18
 3588 00db 00       		.byte	0
 3589 00dc 00       		.byte	0
 3590 00dd 10       		.uleb128 0x10
 3591 00de 01       		.uleb128 0x1
 3592 00df 01       		.byte	0x1
 3593 00e0 49       		.uleb128 0x49
 3594 00e1 13       		.uleb128 0x13
 3595 00e2 01       		.uleb128 0x1
 3596 00e3 13       		.uleb128 0x13
 3597 00e4 00       		.byte	0
 3598 00e5 00       		.byte	0
 3599 00e6 11       		.uleb128 0x11
 3600 00e7 21       		.uleb128 0x21
 3601 00e8 00       		.byte	0
 3602 00e9 49       		.uleb128 0x49
 3603 00ea 13       		.uleb128 0x13
 3604 00eb 2F       		.uleb128 0x2f
 3605 00ec 0B       		.uleb128 0xb
 3606 00ed 00       		.byte	0
 3607 00ee 00       		.byte	0
 3608 00ef 12       		.uleb128 0x12
 3609 00f0 2E       		.uleb128 0x2e
 3610 00f1 01       		.byte	0x1
 3611 00f2 3F       		.uleb128 0x3f
 3612 00f3 19       		.uleb128 0x19
 3613 00f4 03       		.uleb128 0x3
 3614 00f5 0E       		.uleb128 0xe
 3615 00f6 3A       		.uleb128 0x3a
 3616 00f7 0B       		.uleb128 0xb
 3617 00f8 3B       		.uleb128 0x3b
 3618 00f9 0B       		.uleb128 0xb
 3619 00fa 27       		.uleb128 0x27
 3620 00fb 19       		.uleb128 0x19
 3621 00fc 49       		.uleb128 0x49
 3622 00fd 13       		.uleb128 0x13
 3623 00fe 11       		.uleb128 0x11
 3624 00ff 01       		.uleb128 0x1
 3625 0100 12       		.uleb128 0x12
 3626 0101 06       		.uleb128 0x6
 3627 0102 40       		.uleb128 0x40
 3628 0103 18       		.uleb128 0x18
 3629 0104 9642     		.uleb128 0x2116
 3630 0106 19       		.uleb128 0x19
 3631 0107 01       		.uleb128 0x1
 3632 0108 13       		.uleb128 0x13
 3633 0109 00       		.byte	0
 3634 010a 00       		.byte	0
 3635 010b 13       		.uleb128 0x13
 3636 010c 34       		.uleb128 0x34
 3637 010d 00       		.byte	0
ARM GAS  C:\Users\Petro\AppData\Local\Temp\cclReBew.s 			page 78


 3638 010e 03       		.uleb128 0x3
 3639 010f 08       		.uleb128 0x8
 3640 0110 3A       		.uleb128 0x3a
 3641 0111 0B       		.uleb128 0xb
 3642 0112 3B       		.uleb128 0x3b
 3643 0113 0B       		.uleb128 0xb
 3644 0114 49       		.uleb128 0x49
 3645 0115 13       		.uleb128 0x13
 3646 0116 00       		.byte	0
 3647 0117 00       		.byte	0
 3648 0118 14       		.uleb128 0x14
 3649 0119 2E       		.uleb128 0x2e
 3650 011a 01       		.byte	0x1
 3651 011b 3F       		.uleb128 0x3f
 3652 011c 19       		.uleb128 0x19
 3653 011d 03       		.uleb128 0x3
 3654 011e 0E       		.uleb128 0xe
 3655 011f 3A       		.uleb128 0x3a
 3656 0120 0B       		.uleb128 0xb
 3657 0121 3B       		.uleb128 0x3b
 3658 0122 05       		.uleb128 0x5
 3659 0123 27       		.uleb128 0x27
 3660 0124 19       		.uleb128 0x19
 3661 0125 11       		.uleb128 0x11
 3662 0126 01       		.uleb128 0x1
 3663 0127 12       		.uleb128 0x12
 3664 0128 06       		.uleb128 0x6
 3665 0129 40       		.uleb128 0x40
 3666 012a 18       		.uleb128 0x18
 3667 012b 9742     		.uleb128 0x2117
 3668 012d 19       		.uleb128 0x19
 3669 012e 01       		.uleb128 0x1
 3670 012f 13       		.uleb128 0x13
 3671 0130 00       		.byte	0
 3672 0131 00       		.byte	0
 3673 0132 15       		.uleb128 0x15
 3674 0133 05       		.uleb128 0x5
 3675 0134 00       		.byte	0
 3676 0135 03       		.uleb128 0x3
 3677 0136 0E       		.uleb128 0xe
 3678 0137 3A       		.uleb128 0x3a
 3679 0138 0B       		.uleb128 0xb
 3680 0139 3B       		.uleb128 0x3b
 3681 013a 05       		.uleb128 0x5
 3682 013b 49       		.uleb128 0x49
 3683 013c 13       		.uleb128 0x13
 3684 013d 02       		.uleb128 0x2
 3685 013e 18       		.uleb128 0x18
 3686 013f 00       		.byte	0
 3687 0140 00       		.byte	0
 3688 0141 16       		.uleb128 0x16
 3689 0142 2E       		.uleb128 0x2e
 3690 0143 00       		.byte	0
 3691 0144 3F       		.uleb128 0x3f
 3692 0145 19       		.uleb128 0x19
 3693 0146 03       		.uleb128 0x3
 3694 0147 0E       		.uleb128 0xe
ARM GAS  C:\Users\Petro\AppData\Local\Temp\cclReBew.s 			page 79


 3695 0148 3A       		.uleb128 0x3a
 3696 0149 0B       		.uleb128 0xb
 3697 014a 3B       		.uleb128 0x3b
 3698 014b 05       		.uleb128 0x5
 3699 014c 27       		.uleb128 0x27
 3700 014d 19       		.uleb128 0x19
 3701 014e 49       		.uleb128 0x49
 3702 014f 13       		.uleb128 0x13
 3703 0150 11       		.uleb128 0x11
 3704 0151 01       		.uleb128 0x1
 3705 0152 12       		.uleb128 0x12
 3706 0153 06       		.uleb128 0x6
 3707 0154 40       		.uleb128 0x40
 3708 0155 18       		.uleb128 0x18
 3709 0156 9742     		.uleb128 0x2117
 3710 0158 19       		.uleb128 0x19
 3711 0159 00       		.byte	0
 3712 015a 00       		.byte	0
 3713 015b 17       		.uleb128 0x17
 3714 015c 2E       		.uleb128 0x2e
 3715 015d 01       		.byte	0x1
 3716 015e 3F       		.uleb128 0x3f
 3717 015f 19       		.uleb128 0x19
 3718 0160 03       		.uleb128 0x3
 3719 0161 0E       		.uleb128 0xe
 3720 0162 3A       		.uleb128 0x3a
 3721 0163 0B       		.uleb128 0xb
 3722 0164 3B       		.uleb128 0x3b
 3723 0165 05       		.uleb128 0x5
 3724 0166 27       		.uleb128 0x27
 3725 0167 19       		.uleb128 0x19
 3726 0168 49       		.uleb128 0x49
 3727 0169 13       		.uleb128 0x13
 3728 016a 11       		.uleb128 0x11
 3729 016b 01       		.uleb128 0x1
 3730 016c 12       		.uleb128 0x12
 3731 016d 06       		.uleb128 0x6
 3732 016e 40       		.uleb128 0x40
 3733 016f 18       		.uleb128 0x18
 3734 0170 9742     		.uleb128 0x2117
 3735 0172 19       		.uleb128 0x19
 3736 0173 01       		.uleb128 0x1
 3737 0174 13       		.uleb128 0x13
 3738 0175 00       		.byte	0
 3739 0176 00       		.byte	0
 3740 0177 18       		.uleb128 0x18
 3741 0178 34       		.uleb128 0x34
 3742 0179 00       		.byte	0
 3743 017a 03       		.uleb128 0x3
 3744 017b 0E       		.uleb128 0xe
 3745 017c 3A       		.uleb128 0x3a
 3746 017d 0B       		.uleb128 0xb
 3747 017e 3B       		.uleb128 0x3b
 3748 017f 05       		.uleb128 0x5
 3749 0180 49       		.uleb128 0x49
 3750 0181 13       		.uleb128 0x13
 3751 0182 02       		.uleb128 0x2
ARM GAS  C:\Users\Petro\AppData\Local\Temp\cclReBew.s 			page 80


 3752 0183 18       		.uleb128 0x18
 3753 0184 00       		.byte	0
 3754 0185 00       		.byte	0
 3755 0186 19       		.uleb128 0x19
 3756 0187 2E       		.uleb128 0x2e
 3757 0188 00       		.byte	0
 3758 0189 3F       		.uleb128 0x3f
 3759 018a 19       		.uleb128 0x19
 3760 018b 03       		.uleb128 0x3
 3761 018c 0E       		.uleb128 0xe
 3762 018d 3A       		.uleb128 0x3a
 3763 018e 0B       		.uleb128 0xb
 3764 018f 3B       		.uleb128 0x3b
 3765 0190 05       		.uleb128 0x5
 3766 0191 27       		.uleb128 0x27
 3767 0192 19       		.uleb128 0x19
 3768 0193 11       		.uleb128 0x11
 3769 0194 01       		.uleb128 0x1
 3770 0195 12       		.uleb128 0x12
 3771 0196 06       		.uleb128 0x6
 3772 0197 40       		.uleb128 0x40
 3773 0198 18       		.uleb128 0x18
 3774 0199 9742     		.uleb128 0x2117
 3775 019b 19       		.uleb128 0x19
 3776 019c 00       		.byte	0
 3777 019d 00       		.byte	0
 3778 019e 1A       		.uleb128 0x1a
 3779 019f 2E       		.uleb128 0x2e
 3780 01a0 01       		.byte	0x1
 3781 01a1 3F       		.uleb128 0x3f
 3782 01a2 19       		.uleb128 0x19
 3783 01a3 03       		.uleb128 0x3
 3784 01a4 0E       		.uleb128 0xe
 3785 01a5 3A       		.uleb128 0x3a
 3786 01a6 0B       		.uleb128 0xb
 3787 01a7 3B       		.uleb128 0x3b
 3788 01a8 05       		.uleb128 0x5
 3789 01a9 27       		.uleb128 0x27
 3790 01aa 19       		.uleb128 0x19
 3791 01ab 49       		.uleb128 0x49
 3792 01ac 13       		.uleb128 0x13
 3793 01ad 11       		.uleb128 0x11
 3794 01ae 01       		.uleb128 0x1
 3795 01af 12       		.uleb128 0x12
 3796 01b0 06       		.uleb128 0x6
 3797 01b1 40       		.uleb128 0x40
 3798 01b2 18       		.uleb128 0x18
 3799 01b3 9642     		.uleb128 0x2116
 3800 01b5 19       		.uleb128 0x19
 3801 01b6 01       		.uleb128 0x1
 3802 01b7 13       		.uleb128 0x13
 3803 01b8 00       		.byte	0
 3804 01b9 00       		.byte	0
 3805 01ba 1B       		.uleb128 0x1b
 3806 01bb 0B       		.uleb128 0xb
 3807 01bc 01       		.byte	0x1
 3808 01bd 11       		.uleb128 0x11
ARM GAS  C:\Users\Petro\AppData\Local\Temp\cclReBew.s 			page 81


 3809 01be 01       		.uleb128 0x1
 3810 01bf 12       		.uleb128 0x12
 3811 01c0 06       		.uleb128 0x6
 3812 01c1 01       		.uleb128 0x1
 3813 01c2 13       		.uleb128 0x13
 3814 01c3 00       		.byte	0
 3815 01c4 00       		.byte	0
 3816 01c5 1C       		.uleb128 0x1c
 3817 01c6 2E       		.uleb128 0x2e
 3818 01c7 01       		.byte	0x1
 3819 01c8 3F       		.uleb128 0x3f
 3820 01c9 19       		.uleb128 0x19
 3821 01ca 03       		.uleb128 0x3
 3822 01cb 0E       		.uleb128 0xe
 3823 01cc 3A       		.uleb128 0x3a
 3824 01cd 0B       		.uleb128 0xb
 3825 01ce 3B       		.uleb128 0x3b
 3826 01cf 05       		.uleb128 0x5
 3827 01d0 27       		.uleb128 0x27
 3828 01d1 19       		.uleb128 0x19
 3829 01d2 11       		.uleb128 0x11
 3830 01d3 01       		.uleb128 0x1
 3831 01d4 12       		.uleb128 0x12
 3832 01d5 06       		.uleb128 0x6
 3833 01d6 40       		.uleb128 0x40
 3834 01d7 18       		.uleb128 0x18
 3835 01d8 9642     		.uleb128 0x2116
 3836 01da 19       		.uleb128 0x19
 3837 01db 01       		.uleb128 0x1
 3838 01dc 13       		.uleb128 0x13
 3839 01dd 00       		.byte	0
 3840 01de 00       		.byte	0
 3841 01df 1D       		.uleb128 0x1d
 3842 01e0 05       		.uleb128 0x5
 3843 01e1 00       		.byte	0
 3844 01e2 03       		.uleb128 0x3
 3845 01e3 08       		.uleb128 0x8
 3846 01e4 3A       		.uleb128 0x3a
 3847 01e5 0B       		.uleb128 0xb
 3848 01e6 3B       		.uleb128 0x3b
 3849 01e7 05       		.uleb128 0x5
 3850 01e8 49       		.uleb128 0x49
 3851 01e9 13       		.uleb128 0x13
 3852 01ea 02       		.uleb128 0x2
 3853 01eb 18       		.uleb128 0x18
 3854 01ec 00       		.byte	0
 3855 01ed 00       		.byte	0
 3856 01ee 1E       		.uleb128 0x1e
 3857 01ef 0F       		.uleb128 0xf
 3858 01f0 00       		.byte	0
 3859 01f1 0B       		.uleb128 0xb
 3860 01f2 0B       		.uleb128 0xb
 3861 01f3 49       		.uleb128 0x49
 3862 01f4 13       		.uleb128 0x13
 3863 01f5 00       		.byte	0
 3864 01f6 00       		.byte	0
 3865 01f7 1F       		.uleb128 0x1f
ARM GAS  C:\Users\Petro\AppData\Local\Temp\cclReBew.s 			page 82


 3866 01f8 34       		.uleb128 0x34
 3867 01f9 00       		.byte	0
 3868 01fa 03       		.uleb128 0x3
 3869 01fb 0E       		.uleb128 0xe
 3870 01fc 3A       		.uleb128 0x3a
 3871 01fd 0B       		.uleb128 0xb
 3872 01fe 3B       		.uleb128 0x3b
 3873 01ff 0B       		.uleb128 0xb
 3874 0200 49       		.uleb128 0x49
 3875 0201 13       		.uleb128 0x13
 3876 0202 3F       		.uleb128 0x3f
 3877 0203 19       		.uleb128 0x19
 3878 0204 02       		.uleb128 0x2
 3879 0205 18       		.uleb128 0x18
 3880 0206 00       		.byte	0
 3881 0207 00       		.byte	0
 3882 0208 00       		.byte	0
 3883              		.section	.debug_aranges,"",%progbits
 3884 0000 7C000000 		.4byte	0x7c
 3885 0004 0200     		.2byte	0x2
 3886 0006 00000000 		.4byte	.Ldebug_info0
 3887 000a 04       		.byte	0x4
 3888 000b 00       		.byte	0
 3889 000c 0000     		.2byte	0
 3890 000e 0000     		.2byte	0
 3891 0010 00000000 		.4byte	.LFB63
 3892 0014 3C000000 		.4byte	.LFE63-.LFB63
 3893 0018 00000000 		.4byte	.LFB64
 3894 001c B0000000 		.4byte	.LFE64-.LFB64
 3895 0020 00000000 		.4byte	.LFB65
 3896 0024 9C000000 		.4byte	.LFE65-.LFB65
 3897 0028 00000000 		.4byte	.LFB66
 3898 002c AC010000 		.4byte	.LFE66-.LFB66
 3899 0030 00000000 		.4byte	.LFB67
 3900 0034 1C000000 		.4byte	.LFE67-.LFB67
 3901 0038 00000000 		.4byte	.LFB68
 3902 003c 14000000 		.4byte	.LFE68-.LFB68
 3903 0040 00000000 		.4byte	.LFB69
 3904 0044 50000000 		.4byte	.LFE69-.LFB69
 3905 0048 00000000 		.4byte	.LFB70
 3906 004c 28000000 		.4byte	.LFE70-.LFB70
 3907 0050 00000000 		.4byte	.LFB71
 3908 0054 28000000 		.4byte	.LFE71-.LFB71
 3909 0058 00000000 		.4byte	.LFB72
 3910 005c CC060000 		.4byte	.LFE72-.LFB72
 3911 0060 00000000 		.4byte	.LFB73
 3912 0064 58000000 		.4byte	.LFE73-.LFB73
 3913 0068 00000000 		.4byte	.LFB74
 3914 006c 48010000 		.4byte	.LFE74-.LFB74
 3915 0070 00000000 		.4byte	.LFB75
 3916 0074 B0000000 		.4byte	.LFE75-.LFB75
 3917 0078 00000000 		.4byte	0
 3918 007c 00000000 		.4byte	0
 3919              		.section	.debug_ranges,"",%progbits
 3920              	.Ldebug_ranges0:
 3921 0000 00000000 		.4byte	.LFB63
 3922 0004 3C000000 		.4byte	.LFE63
ARM GAS  C:\Users\Petro\AppData\Local\Temp\cclReBew.s 			page 83


 3923 0008 00000000 		.4byte	.LFB64
 3924 000c B0000000 		.4byte	.LFE64
 3925 0010 00000000 		.4byte	.LFB65
 3926 0014 9C000000 		.4byte	.LFE65
 3927 0018 00000000 		.4byte	.LFB66
 3928 001c AC010000 		.4byte	.LFE66
 3929 0020 00000000 		.4byte	.LFB67
 3930 0024 1C000000 		.4byte	.LFE67
 3931 0028 00000000 		.4byte	.LFB68
 3932 002c 14000000 		.4byte	.LFE68
 3933 0030 00000000 		.4byte	.LFB69
 3934 0034 50000000 		.4byte	.LFE69
 3935 0038 00000000 		.4byte	.LFB70
 3936 003c 28000000 		.4byte	.LFE70
 3937 0040 00000000 		.4byte	.LFB71
 3938 0044 28000000 		.4byte	.LFE71
 3939 0048 00000000 		.4byte	.LFB72
 3940 004c CC060000 		.4byte	.LFE72
 3941 0050 00000000 		.4byte	.LFB73
 3942 0054 58000000 		.4byte	.LFE73
 3943 0058 00000000 		.4byte	.LFB74
 3944 005c 48010000 		.4byte	.LFE74
 3945 0060 00000000 		.4byte	.LFB75
 3946 0064 B0000000 		.4byte	.LFE75
 3947 0068 00000000 		.4byte	0
 3948 006c 00000000 		.4byte	0
 3949              		.section	.debug_line,"",%progbits
 3950              	.Ldebug_line0:
 3951 0000 B3030000 		.section	.debug_str,"MS",%progbits,1
 3951      02006901 
 3951      00000201 
 3951      FB0E0D00 
 3951      01010101 
 3952              	.LASF78:
 3953 0000 4359424C 		.ascii	"CYBLE_EVT_L2CAP_CBFC_RX_CREDIT_IND\000"
 3953      455F4556 
 3953      545F4C32 
 3953      4341505F 
 3953      43424643 
 3954              	.LASF136:
 3955 0023 746D704D 		.ascii	"tmpMs21\000"
 3955      73323100 
 3956              	.LASF21:
 3957 002b 75696E74 		.ascii	"uint16\000"
 3957      313600
 3958              	.LASF77:
 3959 0032 4359424C 		.ascii	"CYBLE_EVT_L2CAP_CBFC_DATA_READ\000"
 3959      455F4556 
 3959      545F4C32 
 3959      4341505F 
 3959      43424643 
 3960              	.LASF128:
 3961 0051 4E545073 		.ascii	"NTPsendTime\000"
 3961      656E6454 
 3961      696D6500 
 3962              	.LASF43:
 3963 005d 4359424C 		.ascii	"CYBLE_EVT_GAP_CONNECTION_UPDATE_COMPLETE\000"
ARM GAS  C:\Users\Petro\AppData\Local\Temp\cclReBew.s 			page 84


 3963      455F4556 
 3963      545F4741 
 3963      505F434F 
 3963      4E4E4543 
 3964              	.LASF114:
 3965 0086 52656365 		.ascii	"ReceiveData\000"
 3965      69766544 
 3965      61746100 
 3966              	.LASF76:
 3967 0092 4359424C 		.ascii	"CYBLE_EVT_L2CAP_CBFC_DISCONN_CNF\000"
 3967      455F4556 
 3967      545F4C32 
 3967      4341505F 
 3967      43424643 
 3968              	.LASF20:
 3969 00b3 75696E74 		.ascii	"uint64_t\000"
 3969      36345F74 
 3969      00
 3970              	.LASF32:
 3971 00bc 4359424C 		.ascii	"CYBLE_EVT_STACK_BUSY_STATUS\000"
 3971      455F4556 
 3971      545F5354 
 3971      41434B5F 
 3971      42555359 
 3972              	.LASF0:
 3973 00d8 7369676E 		.ascii	"signed char\000"
 3973      65642063 
 3973      68617200 
 3974              	.LASF2:
 3975 00e4 5F5F7569 		.ascii	"__uint8_t\000"
 3975      6E74385F 
 3975      7400
 3976              	.LASF53:
 3977 00ee 4359424C 		.ascii	"CYBLE_EVT_GATTC_FIND_INFO_RSP\000"
 3977      455F4556 
 3977      545F4741 
 3977      5454435F 
 3977      46494E44 
 3978              	.LASF29:
 3979 010c 4359424C 		.ascii	"CYBLE_EVT_TIMEOUT\000"
 3979      455F4556 
 3979      545F5449 
 3979      4D454F55 
 3979      5400
 3980              	.LASF8:
 3981 011e 6C6F6E67 		.ascii	"long int\000"
 3981      20696E74 
 3981      00
 3982              	.LASF13:
 3983 0127 6C6F6E67 		.ascii	"long long unsigned int\000"
 3983      206C6F6E 
 3983      6720756E 
 3983      7369676E 
 3983      65642069 
 3984              	.LASF31:
 3985 013e 4359424C 		.ascii	"CYBLE_EVT_HCI_STATUS\000"
 3985      455F4556 
ARM GAS  C:\Users\Petro\AppData\Local\Temp\cclReBew.s 			page 85


 3985      545F4843 
 3985      495F5354 
 3985      41545553 
 3986              	.LASF81:
 3987 0153 4359424C 		.ascii	"CYBLE_EVT_PENDING_FLASH_WRITE\000"
 3987      455F4556 
 3987      545F5045 
 3987      4E44494E 
 3987      475F464C 
 3988              	.LASF152:
 3989 0171 6E657477 		.ascii	"networkStatus\000"
 3989      6F726B53 
 3989      74617475 
 3989      7300
 3990              	.LASF121:
 3991 017f 6E756D41 		.ascii	"numAttemptSendPacket\000"
 3991      7474656D 
 3991      70745365 
 3991      6E645061 
 3991      636B6574 
 3992              	.LASF70:
 3993 0194 4359424C 		.ascii	"CYBLE_EVT_L2CAP_CONN_PARAM_UPDATE_REQ\000"
 3993      455F4556 
 3993      545F4C32 
 3993      4341505F 
 3993      434F4E4E 
 3994              	.LASF100:
 3995 01ba 46696E69 		.ascii	"FinishData\000"
 3995      73684461 
 3995      746100
 3996              	.LASF42:
 3997 01c5 4359424C 		.ascii	"CYBLE_EVT_GAP_ENCRYPT_CHANGE\000"
 3997      455F4556 
 3997      545F4741 
 3997      505F454E 
 3997      43525950 
 3998              	.LASF103:
 3999 01e2 6E657753 		.ascii	"newSkier\000"
 3999      6B696572 
 3999      00
 4000              	.LASF16:
 4001 01eb 696E7431 		.ascii	"int16_t\000"
 4001      365F7400 
 4002              	.LASF138:
 4003 01f3 746D704D 		.ascii	"tmpMs34\000"
 4003      73333400 
 4004              	.LASF11:
 4005 01fb 6C6F6E67 		.ascii	"long long int\000"
 4005      206C6F6E 
 4005      6720696E 
 4005      7400
 4006              	.LASF94:
 4007 0209 72656164 		.ascii	"ready\000"
 4007      7900
 4008              	.LASF28:
 4009 020f 4359424C 		.ascii	"CYBLE_EVT_STACK_ON\000"
 4009      455F4556 
ARM GAS  C:\Users\Petro\AppData\Local\Temp\cclReBew.s 			page 86


 4009      545F5354 
 4009      41434B5F 
 4009      4F4E00
 4010              	.LASF157:
 4011 0222 6F6E4E74 		.ascii	"onNtpSync\000"
 4011      7053796E 
 4011      6300
 4012              	.LASF44:
 4013 022c 4359424C 		.ascii	"CYBLE_EVT_GAPC_SCAN_START_STOP\000"
 4013      455F4556 
 4013      545F4741 
 4013      50435F53 
 4013      43414E5F 
 4014              	.LASF34:
 4015 024b 4359424C 		.ascii	"CYBLE_EVT_GAP_AUTH_REQ\000"
 4015      455F4556 
 4015      545F4741 
 4015      505F4155 
 4015      54485F52 
 4016              	.LASF55:
 4017 0262 4359424C 		.ascii	"CYBLE_EVT_GATTC_READ_RSP\000"
 4017      455F4556 
 4017      545F4741 
 4017      5454435F 
 4017      52454144 
 4018              	.LASF60:
 4019 027b 4359424C 		.ascii	"CYBLE_EVT_GATTS_WRITE_CMD_REQ\000"
 4019      455F4556 
 4019      545F4741 
 4019      5454535F 
 4019      57524954 
 4020              	.LASF141:
 4021 0299 746D7044 		.ascii	"tmpDiffMs\000"
 4021      6966664D 
 4021      7300
 4022              	.LASF39:
 4023 02a3 4359424C 		.ascii	"CYBLE_EVT_GAPP_ADVERTISEMENT_START_STOP\000"
 4023      455F4556 
 4023      545F4741 
 4023      50505F41 
 4023      44564552 
 4024              	.LASF111:
 4025 02cb 72657375 		.ascii	"result\000"
 4025      6C7400
 4026              	.LASF63:
 4027 02d2 4359424C 		.ascii	"CYBLE_EVT_GATTC_EXEC_WRITE_RSP\000"
 4027      455F4556 
 4027      545F4741 
 4027      5454435F 
 4027      45584543 
 4028              	.LASF24:
 4029 02f1 646F7562 		.ascii	"double\000"
 4029      6C6500
 4030              	.LASF133:
 4031 02f8 6D735469 		.ascii	"msTime\000"
 4031      6D6500
 4032              	.LASF22:
ARM GAS  C:\Users\Petro\AppData\Local\Temp\cclReBew.s 			page 87


 4033 02ff 75696E74 		.ascii	"uint32\000"
 4033      333200
 4034              	.LASF84:
 4035 0306 436F6D6D 		.ascii	"Command\000"
 4035      616E6400 
 4036              	.LASF108:
 4037 030e 62797465 		.ascii	"byte\000"
 4037      00
 4038              	.LASF83:
 4039 0313 4359424C 		.ascii	"CYBLE_EVT_MAX\000"
 4039      455F4556 
 4039      545F4D41 
 4039      5800
 4040              	.LASF9:
 4041 0321 5F5F7569 		.ascii	"__uint32_t\000"
 4041      6E743332 
 4041      5F7400
 4042              	.LASF110:
 4043 032c 73656E64 		.ascii	"sendData\000"
 4043      44617461 
 4043      00
 4044              	.LASF131:
 4045 0335 6D696C6C 		.ascii	"millis\000"
 4045      697300
 4046              	.LASF124:
 4047 033c 6D735469 		.ascii	"msTimeDifference\000"
 4047      6D654469 
 4047      66666572 
 4047      656E6365 
 4047      00
 4048              	.LASF105:
 4049 034d 53746172 		.ascii	"StartData\000"
 4049      74446174 
 4049      6100
 4050              	.LASF96:
 4051 0357 636F756E 		.ascii	"countSkiers\000"
 4051      74536B69 
 4051      65727300 
 4052              	.LASF80:
 4053 0363 4359424C 		.ascii	"CYBLE_EVT_L2CAP_CBFC_DATA_WRITE_IND\000"
 4053      455F4556 
 4053      545F4C32 
 4053      4341505F 
 4053      43424643 
 4054              	.LASF122:
 4055 0387 6E756D53 		.ascii	"numSuccessuflPacket\000"
 4055      75636365 
 4055      73737566 
 4055      6C506163 
 4055      6B657400 
 4056              	.LASF68:
 4057 039b 4359424C 		.ascii	"CYBLE_EVT_GATTC_STOP_CMD_COMPLETE\000"
 4057      455F4556 
 4057      545F4741 
 4057      5454435F 
 4057      53544F50 
 4058              	.LASF14:
ARM GAS  C:\Users\Petro\AppData\Local\Temp\cclReBew.s 			page 88


 4059 03bd 756E7369 		.ascii	"unsigned int\000"
 4059      676E6564 
 4059      20696E74 
 4059      00
 4060              	.LASF159:
 4061 03ca 6E657477 		.ascii	"network.c\000"
 4061      6F726B2E 
 4061      6300
 4062              	.LASF82:
 4063 03d4 4359424C 		.ascii	"CYBLE_EVT_LE_PING_AUTH_TIMEOUT\000"
 4063      455F4556 
 4063      545F4C45 
 4063      5F50494E 
 4063      475F4155 
 4064              	.LASF95:
 4065 03f3 7265626F 		.ascii	"reboot\000"
 4065      6F7400
 4066              	.LASF145:
 4067 03fa 72657375 		.ascii	"resultSec\000"
 4067      6C745365 
 4067      6300
 4068              	.LASF57:
 4069 0404 4359424C 		.ascii	"CYBLE_EVT_GATTC_READ_MULTI_RSP\000"
 4069      455F4556 
 4069      545F4741 
 4069      5454435F 
 4069      52454144 
 4070              	.LASF150:
 4071 0423 6E756D41 		.ascii	"numAttemps\000"
 4071      7474656D 
 4071      707300
 4072              	.LASF10:
 4073 042e 6C6F6E67 		.ascii	"long unsigned int\000"
 4073      20756E73 
 4073      69676E65 
 4073      6420696E 
 4073      7400
 4074              	.LASF142:
 4075 0440 46756E63 		.ascii	"FuncTake\000"
 4075      54616B65 
 4075      00
 4076              	.LASF58:
 4077 0449 4359424C 		.ascii	"CYBLE_EVT_GATTS_WRITE_REQ\000"
 4077      455F4556 
 4077      545F4741 
 4077      5454535F 
 4077      57524954 
 4078              	.LASF50:
 4079 0463 4359424C 		.ascii	"CYBLE_EVT_GATTC_XCHNG_MTU_RSP\000"
 4079      455F4556 
 4079      545F4741 
 4079      5454435F 
 4079      5843484E 
 4080              	.LASF67:
 4081 0481 4359424C 		.ascii	"CYBLE_EVT_GATTS_DATA_SIGNED_CMD_REQ\000"
 4081      455F4556 
 4081      545F4741 
ARM GAS  C:\Users\Petro\AppData\Local\Temp\cclReBew.s 			page 89


 4081      5454535F 
 4081      44415441 
 4082              	.LASF93:
 4083 04a5 49447061 		.ascii	"IDpacket\000"
 4083      636B6574 
 4083      00
 4084              	.LASF134:
 4085 04ae 73756D54 		.ascii	"sumTime\000"
 4085      696D6500 
 4086              	.LASF27:
 4087 04b6 4359424C 		.ascii	"CYBLE_EVT_HOST_INVALID\000"
 4087      455F4556 
 4087      545F484F 
 4087      53545F49 
 4087      4E56414C 
 4088              	.LASF86:
 4089 04cd 44617461 		.ascii	"Data2\000"
 4089      3200
 4090              	.LASF87:
 4091 04d3 44617461 		.ascii	"Data3\000"
 4091      3300
 4092              	.LASF62:
 4093 04d9 4359424C 		.ascii	"CYBLE_EVT_GATTS_EXEC_WRITE_REQ\000"
 4093      455F4556 
 4093      545F4741 
 4093      5454535F 
 4093      45584543 
 4094              	.LASF126:
 4095 04f8 746D7055 		.ascii	"tmpUnix\000"
 4095      6E697800 
 4096              	.LASF104:
 4097 0500 72656164 		.ascii	"readStatus\000"
 4097      53746174 
 4097      757300
 4098              	.LASF35:
 4099 050b 4359424C 		.ascii	"CYBLE_EVT_GAP_PASSKEY_ENTRY_REQUEST\000"
 4099      455F4556 
 4099      545F4741 
 4099      505F5041 
 4099      53534B45 
 4100              	.LASF40:
 4101 052f 4359424C 		.ascii	"CYBLE_EVT_GAP_DEVICE_CONNECTED\000"
 4101      455F4556 
 4101      545F4741 
 4101      505F4445 
 4101      56494345 
 4102              	.LASF102:
 4103 054e 73746172 		.ascii	"startMsTime\000"
 4103      744D7354 
 4103      696D6500 
 4104              	.LASF106:
 4105 055a 43757374 		.ascii	"CustomInterruptHandler\000"
 4105      6F6D496E 
 4105      74657272 
 4105      75707448 
 4105      616E646C 
 4106              	.LASF17:
ARM GAS  C:\Users\Petro\AppData\Local\Temp\cclReBew.s 			page 90


 4107 0571 75696E74 		.ascii	"uint16_t\000"
 4107      31365F74 
 4107      00
 4108              	.LASF148:
 4109 057a 696E4461 		.ascii	"inData\000"
 4109      746100
 4110              	.LASF36:
 4111 0581 4359424C 		.ascii	"CYBLE_EVT_GAP_PASSKEY_DISPLAY_REQUEST\000"
 4111      455F4556 
 4111      545F4741 
 4111      505F5041 
 4111      53534B45 
 4112              	.LASF47:
 4113 05a7 4359424C 		.ascii	"CYBLE_EVT_GATT_CONNECT_IND\000"
 4113      455F4556 
 4113      545F4741 
 4113      54545F43 
 4113      4F4E4E45 
 4114              	.LASF149:
 4115 05c2 7265626F 		.ascii	"rebootFlag\000"
 4115      6F74466C 
 4115      616700
 4116              	.LASF125:
 4117 05cd 6F6C6455 		.ascii	"oldUnixTime\000"
 4117      6E697854 
 4117      696D6500 
 4118              	.LASF72:
 4119 05d9 4359424C 		.ascii	"CYBLE_EVT_L2CAP_COMMAND_REJ\000"
 4119      455F4556 
 4119      545F4C32 
 4119      4341505F 
 4119      434F4D4D 
 4120              	.LASF98:
 4121 05f5 746D704D 		.ascii	"tmpMsTime\000"
 4121      7354696D 
 4121      6500
 4122              	.LASF33:
 4123 05ff 4359424C 		.ascii	"CYBLE_EVT_GAPC_SCAN_PROGRESS_RESULT\000"
 4123      455F4556 
 4123      545F4741 
 4123      50435F53 
 4123      43414E5F 
 4124              	.LASF113:
 4125 0623 53656E64 		.ascii	"SendFinStatus\000"
 4125      46696E53 
 4125      74617475 
 4125      7300
 4126              	.LASF73:
 4127 0631 4359424C 		.ascii	"CYBLE_EVT_L2CAP_CBFC_CONN_IND\000"
 4127      455F4556 
 4127      545F4C32 
 4127      4341505F 
 4127      43424643 
 4128              	.LASF52:
 4129 064f 4359424C 		.ascii	"CYBLE_EVT_GATTC_READ_BY_TYPE_RSP\000"
 4129      455F4556 
 4129      545F4741 
ARM GAS  C:\Users\Petro\AppData\Local\Temp\cclReBew.s 			page 91


 4129      5454435F 
 4129      52454144 
 4130              	.LASF26:
 4131 0670 73697A65 		.ascii	"sizetype\000"
 4131      74797065 
 4131      00
 4132              	.LASF38:
 4133 0679 4359424C 		.ascii	"CYBLE_EVT_GAP_AUTH_FAILED\000"
 4133      455F4556 
 4133      545F4741 
 4133      505F4155 
 4133      54485F46 
 4134              	.LASF59:
 4135 0693 4359424C 		.ascii	"CYBLE_EVT_GATTC_WRITE_RSP\000"
 4135      455F4556 
 4135      545F4741 
 4135      5454435F 
 4135      57524954 
 4136              	.LASF117:
 4137 06ad 436C6561 		.ascii	"ClearRebootFlag\000"
 4137      72526562 
 4137      6F6F7446 
 4137      6C616700 
 4138              	.LASF116:
 4139 06bd 496E6974 		.ascii	"InitNetwork\000"
 4139      4E657477 
 4139      6F726B00 
 4140              	.LASF161:
 4141 06c9 52657370 		.ascii	"Resp\000"
 4141      00
 4142              	.LASF37:
 4143 06ce 4359424C 		.ascii	"CYBLE_EVT_GAP_AUTH_COMPLETE\000"
 4143      455F4556 
 4143      545F4741 
 4143      505F4155 
 4143      54485F43 
 4144              	.LASF146:
 4145 06ea 72657375 		.ascii	"resultMs\000"
 4145      6C744D73 
 4145      00
 4146              	.LASF162:
 4147 06f3 4E657477 		.ascii	"NetworkStatus\000"
 4147      6F726B53 
 4147      74617475 
 4147      7300
 4148              	.LASF64:
 4149 0701 4359424C 		.ascii	"CYBLE_EVT_GATTC_HANDLE_VALUE_NTF\000"
 4149      455F4556 
 4149      545F4741 
 4149      5454435F 
 4149      48414E44 
 4150              	.LASF120:
 4151 0722 64656C61 		.ascii	"delayReceivePacket\000"
 4151      79526563 
 4151      65697665 
 4151      5061636B 
 4151      657400
ARM GAS  C:\Users\Petro\AppData\Local\Temp\cclReBew.s 			page 92


 4152              	.LASF101:
 4153 0735 756E6978 		.ascii	"unixStartTime\000"
 4153      53746172 
 4153      7454696D 
 4153      6500
 4154              	.LASF74:
 4155 0743 4359424C 		.ascii	"CYBLE_EVT_L2CAP_CBFC_CONN_CNF\000"
 4155      455F4556 
 4155      545F4C32 
 4155      4341505F 
 4155      43424643 
 4156              	.LASF12:
 4157 0761 5F5F7569 		.ascii	"__uint64_t\000"
 4157      6E743634 
 4157      5F7400
 4158              	.LASF51:
 4159 076c 4359424C 		.ascii	"CYBLE_EVT_GATTC_READ_BY_GROUP_TYPE_RSP\000"
 4159      455F4556 
 4159      545F4741 
 4159      5454435F 
 4159      52454144 
 4160              	.LASF23:
 4161 0793 666C6F61 		.ascii	"float\000"
 4161      7400
 4162              	.LASF88:
 4163 0799 43686563 		.ascii	"CheckSum\000"
 4163      6B53756D 
 4163      00
 4164              	.LASF154:
 4165 07a2 6E747046 		.ascii	"ntpFlagEndReceivePacket\000"
 4165      6C616745 
 4165      6E645265 
 4165      63656976 
 4165      65506163 
 4166              	.LASF48:
 4167 07ba 4359424C 		.ascii	"CYBLE_EVT_GATT_DISCONNECT_IND\000"
 4167      455F4556 
 4167      545F4741 
 4167      54545F44 
 4167      4953434F 
 4168              	.LASF18:
 4169 07d8 696E7433 		.ascii	"int32_t\000"
 4169      325F7400 
 4170              	.LASF1:
 4171 07e0 756E7369 		.ascii	"unsigned char\000"
 4171      676E6564 
 4171      20636861 
 4171      7200
 4172              	.LASF112:
 4173 07ee 72656376 		.ascii	"recvData\000"
 4173      44617461 
 4173      00
 4174              	.LASF160:
 4175 07f7 443A5C43 		.ascii	"D:\\Cypress\\system-start-finish\\vesion 2\\fw\\fin"
 4175      79707265 
 4175      73735C73 
 4175      79737465 
ARM GAS  C:\Users\Petro\AppData\Local\Temp\cclReBew.s 			page 93


 4175      6D2D7374 
 4176 0825 6973685C 		.ascii	"ish\\sandbox\\v7_debug_ntp\\Finish(state machine)\\"
 4176      73616E64 
 4176      626F785C 
 4176      76375F64 
 4176      65627567 
 4177 0854 66696E5F 		.ascii	"fin_v0.cydsn\000"
 4177      76302E63 
 4177      7964736E 
 4177      00
 4178              	.LASF4:
 4179 0861 73686F72 		.ascii	"short int\000"
 4179      7420696E 
 4179      7400
 4180              	.LASF99:
 4181 086b 77726974 		.ascii	"writeStatus\000"
 4181      65537461 
 4181      74757300 
 4182              	.LASF65:
 4183 0877 4359424C 		.ascii	"CYBLE_EVT_GATTC_HANDLE_VALUE_IND\000"
 4183      455F4556 
 4183      545F4741 
 4183      5454435F 
 4183      48414E44 
 4184              	.LASF85:
 4185 0898 44617461 		.ascii	"Data1\000"
 4185      3100
 4186              	.LASF109:
 4187 089e 73656E64 		.ascii	"sendBuffer\000"
 4187      42756666 
 4187      657200
 4188              	.LASF61:
 4189 08a9 4359424C 		.ascii	"CYBLE_EVT_GATTS_PREP_WRITE_REQ\000"
 4189      455F4556 
 4189      545F4741 
 4189      5454535F 
 4189      50524550 
 4190              	.LASF123:
 4191 08c8 756E6978 		.ascii	"unixTimeDifference\000"
 4191      54696D65 
 4191      44696666 
 4191      6572656E 
 4191      636500
 4192              	.LASF66:
 4193 08db 4359424C 		.ascii	"CYBLE_EVT_GATTS_HANDLE_VALUE_CNF\000"
 4193      455F4556 
 4193      545F4741 
 4193      5454535F 
 4193      48414E44 
 4194              	.LASF46:
 4195 08fc 4359424C 		.ascii	"CYBLE_EVT_GATTC_ERROR_RSP\000"
 4195      455F4556 
 4195      545F4741 
 4195      5454435F 
 4195      4552524F 
 4196              	.LASF19:
 4197 0916 75696E74 		.ascii	"uint32_t\000"
ARM GAS  C:\Users\Petro\AppData\Local\Temp\cclReBew.s 			page 94


 4197      33325F74 
 4197      00
 4198              	.LASF137:
 4199 091f 746D7054 		.ascii	"tmpTime21\000"
 4199      696D6532 
 4199      3100
 4200              	.LASF107:
 4201 0929 53656E64 		.ascii	"SendData\000"
 4201      44617461 
 4201      00
 4202              	.LASF90:
 4203 0932 44617461 		.ascii	"DataMs1\000"
 4203      4D733100 
 4204              	.LASF25:
 4205 093a 63686172 		.ascii	"char\000"
 4205      00
 4206              	.LASF132:
 4207 093f 4E545063 		.ascii	"NTPcalculateTime\000"
 4207      616C6375 
 4207      6C617465 
 4207      54696D65 
 4207      00
 4208              	.LASF41:
 4209 0950 4359424C 		.ascii	"CYBLE_EVT_GAP_DEVICE_DISCONNECTED\000"
 4209      455F4556 
 4209      545F4741 
 4209      505F4445 
 4209      56494345 
 4210              	.LASF127:
 4211 0972 746D704D 		.ascii	"tmpMs\000"
 4211      7300
 4212              	.LASF5:
 4213 0978 5F5F7569 		.ascii	"__uint16_t\000"
 4213      6E743136 
 4213      5F7400
 4214              	.LASF69:
 4215 0983 4359424C 		.ascii	"CYBLE_EVT_GATTS_READ_CHAR_VAL_ACCESS_REQ\000"
 4215      455F4556 
 4215      545F4741 
 4215      5454535F 
 4215      52454144 
 4216              	.LASF140:
 4217 09ac 746D7044 		.ascii	"tmpDiffTime\000"
 4217      69666654 
 4217      696D6500 
 4218              	.LASF7:
 4219 09b8 5F5F696E 		.ascii	"__int32_t\000"
 4219      7433325F 
 4219      7400
 4220              	.LASF79:
 4221 09c2 4359424C 		.ascii	"CYBLE_EVT_L2CAP_CBFC_TX_CREDIT_IND\000"
 4221      455F4556 
 4221      545F4C32 
 4221      4341505F 
 4221      43424643 
 4222              	.LASF56:
 4223 09e5 4359424C 		.ascii	"CYBLE_EVT_GATTC_READ_BLOB_RSP\000"
ARM GAS  C:\Users\Petro\AppData\Local\Temp\cclReBew.s 			page 95


 4223      455F4556 
 4223      545F4741 
 4223      5454435F 
 4223      52454144 
 4224              	.LASF151:
 4225 0a03 6E6F436F 		.ascii	"noConnect\000"
 4225      6E6E6563 
 4225      7400
 4226              	.LASF135:
 4227 0a0d 73756D4D 		.ascii	"sumMs\000"
 4227      7300
 4228              	.LASF115:
 4229 0a13 49735265 		.ascii	"IsRebootStartFlag\000"
 4229      626F6F74 
 4229      53746172 
 4229      74466C61 
 4229      6700
 4230              	.LASF30:
 4231 0a25 4359424C 		.ascii	"CYBLE_EVT_HARDWARE_ERROR\000"
 4231      455F4556 
 4231      545F4841 
 4231      52445741 
 4231      52455F45 
 4232              	.LASF6:
 4233 0a3e 73686F72 		.ascii	"short unsigned int\000"
 4233      7420756E 
 4233      7369676E 
 4233      65642069 
 4233      6E7400
 4234              	.LASF130:
 4235 0a51 756E6978 		.ascii	"unixTime\000"
 4235      54696D65 
 4235      00
 4236              	.LASF147:
 4237 0a5a 6F757444 		.ascii	"outData\000"
 4237      61746100 
 4238              	.LASF118:
 4239 0a62 53657452 		.ascii	"SetRebootFlag\000"
 4239      65626F6F 
 4239      74466C61 
 4239      6700
 4240              	.LASF49:
 4241 0a70 4359424C 		.ascii	"CYBLE_EVT_GATTS_XCNHG_MTU_REQ\000"
 4241      455F4556 
 4241      545F4741 
 4241      5454535F 
 4241      58434E48 
 4242              	.LASF129:
 4243 0a8e 73746174 		.ascii	"status\000"
 4243      757300
 4244              	.LASF139:
 4245 0a95 746D7054 		.ascii	"tmpTime34\000"
 4245      696D6533 
 4245      3400
 4246              	.LASF153:
 4247 0a9f 6D696C6C 		.ascii	"millisTime\000"
 4247      69735469 
ARM GAS  C:\Users\Petro\AppData\Local\Temp\cclReBew.s 			page 96


 4247      6D6500
 4248              	.LASF155:
 4249 0aaa 6E747046 		.ascii	"ntpFlagReadyForReceive\000"
 4249      6C616752 
 4249      65616479 
 4249      466F7252 
 4249      65636569 
 4250              	.LASF15:
 4251 0ac1 75696E74 		.ascii	"uint8_t\000"
 4251      385F7400 
 4252              	.LASF97:
 4253 0ac9 746D7054 		.ascii	"tmpTime\000"
 4253      696D6500 
 4254              	.LASF3:
 4255 0ad1 5F5F696E 		.ascii	"__int16_t\000"
 4255      7431365F 
 4255      7400
 4256              	.LASF158:
 4257 0adb 474E5520 		.ascii	"GNU C 4.9.3 20150303 (release) [ARM/embedded-4_9-br"
 4257      4320342E 
 4257      392E3320 
 4257      32303135 
 4257      30333033 
 4258 0b0e 616E6368 		.ascii	"anch revision 221220] -mcpu=cortex-m0 -mthumb -g -O"
 4258      20726576 
 4258      6973696F 
 4258      6E203232 
 4258      31323230 
 4259 0b41 30202D66 		.ascii	"0 -ffunction-sections -ffat-lto-objects\000"
 4259      66756E63 
 4259      74696F6E 
 4259      2D736563 
 4259      74696F6E 
 4260              	.LASF54:
 4261 0b69 4359424C 		.ascii	"CYBLE_EVT_GATTC_FIND_BY_TYPE_VALUE_RSP\000"
 4261      455F4556 
 4261      545F4741 
 4261      5454435F 
 4261      46494E44 
 4262              	.LASF45:
 4263 0b90 4359424C 		.ascii	"CYBLE_EVT_GAP_KEYINFO_EXCHNGE_CMPLT\000"
 4263      455F4556 
 4263      545F4741 
 4263      505F4B45 
 4263      59494E46 
 4264              	.LASF91:
 4265 0bb4 44617461 		.ascii	"DataMs2\000"
 4265      4D733200 
 4266              	.LASF75:
 4267 0bbc 4359424C 		.ascii	"CYBLE_EVT_L2CAP_CBFC_DISCONN_IND\000"
 4267      455F4556 
 4267      545F4C32 
 4267      4341505F 
 4267      43424643 
 4268              	.LASF92:
 4269 0bdd 4E747052 		.ascii	"NtpResp\000"
 4269      65737000 
ARM GAS  C:\Users\Petro\AppData\Local\Temp\cclReBew.s 			page 97


 4270              	.LASF156:
 4271 0be5 72656376 		.ascii	"recvDataNTP\000"
 4271      44617461 
 4271      4E545000 
 4272              	.LASF71:
 4273 0bf1 4359424C 		.ascii	"CYBLE_EVT_L2CAP_CONN_PARAM_UPDATE_RSP\000"
 4273      455F4556 
 4273      545F4C32 
 4273      4341505F 
 4273      434F4E4E 
 4274              	.LASF143:
 4275 0c17 73656331 		.ascii	"sec1\000"
 4275      00
 4276              	.LASF144:
 4277 0c1c 73656332 		.ascii	"sec2\000"
 4277      00
 4278              	.LASF119:
 4279 0c21 4E545073 		.ascii	"NTPsync\000"
 4279      796E6300 
 4280              	.LASF89:
 4281 0c29 456E6450 		.ascii	"EndPacket\000"
 4281      61636B65 
 4281      7400
 4282              		.ident	"GCC: (GNU Tools for ARM Embedded Processors) 4.9.3 20150303 (release) [ARM/embedded-4_9-br
