ARM GAS  C:\Users\Petro\AppData\Local\Temp\cce2eE99.s 			page 1


   1              		.cpu cortex-m0
   2              		.fpu softvfp
   3              		.eabi_attribute 20, 1
   4              		.eabi_attribute 21, 1
   5              		.eabi_attribute 23, 3
   6              		.eabi_attribute 24, 1
   7              		.eabi_attribute 25, 1
   8              		.eabi_attribute 26, 1
   9              		.eabi_attribute 30, 6
  10              		.eabi_attribute 34, 0
  11              		.eabi_attribute 18, 4
  12              		.code	16
  13              		.file	"network.c"
  14              		.text
  15              	.Ltext0:
  16              		.cfi_sections	.debug_frame
  17              		.comm	PROTO_STATE,1,1
  18              		.comm	LenD1,1,1
  19              		.comm	LenD2,1,1
  20              		.comm	LenD3,1,1
  21              		.comm	LenSeq,1,1
  22              		.comm	LenChS,1,1
  23              		.comm	LenC,1,1
  24              		.comm	fatFs,560,4
  25              		.comm	fileO,552,4
  26              		.comm	createFlag,4,4
  27              		.comm	bufferSkiersOnWay,128,8
  28              		.comm	currentSizeBuff,4,4
  29              		.comm	currentElementStart,4,4
  30              		.comm	currentElementFinish,4,4
  31              		.comm	skiersStarted,2,2
  32              		.comm	skiersFinished,2,2
  33              		.comm	skierDB,7200,8
  34              		.comm	outData,24,8
  35              		.comm	inData,24,8
  36              		.bss
  37              		.align	2
  38              	networkStatus:
  39 0000 00000000 		.space	4
  40              		.align	2
  41              	numAttemps:
  42 0004 00000000 		.space	4
  43              		.align	2
  44              	noConnect:
  45 0008 00000000 		.space	4
  46              		.section	.text.InitNetwork,"ax",%progbits
  47              		.align	2
  48              		.global	InitNetwork
  49              		.code	16
  50              		.thumb_func
  51              		.type	InitNetwork, %function
  52              	InitNetwork:
  53              	.LFB63:
  54              		.file 1 ".\\lib_Network\\network.c"
   1:.\lib_Network/network.c **** /* ========================================
   2:.\lib_Network/network.c ****  *
   3:.\lib_Network/network.c ****  * Copyright YOUR COMPANY, THE YEAR
ARM GAS  C:\Users\Petro\AppData\Local\Temp\cce2eE99.s 			page 2


   4:.\lib_Network/network.c ****  * All Rights Reserved
   5:.\lib_Network/network.c ****  * UNPUBLISHED, LICENSED SOFTWARE.
   6:.\lib_Network/network.c ****  *
   7:.\lib_Network/network.c ****  * CONFIDENTIAL AND PROPRIETARY INFORMATION
   8:.\lib_Network/network.c ****  * WHICH IS THE PROPERTY OF your company.
   9:.\lib_Network/network.c ****  *
  10:.\lib_Network/network.c ****  * ========================================
  11:.\lib_Network/network.c **** */
  12:.\lib_Network/network.c **** #include "lib_Network\network.h"
  13:.\lib_Network/network.c **** 
  14:.\lib_Network/network.c **** 
  15:.\lib_Network/network.c **** 
  16:.\lib_Network/network.c **** void InitNetwork(void)
  17:.\lib_Network/network.c **** {
  55              		.loc 1 17 0
  56              		.cfi_startproc
  57 0000 80B5     		push	{r7, lr}
  58              		.cfi_def_cfa_offset 8
  59              		.cfi_offset 7, -8
  60              		.cfi_offset 14, -4
  61 0002 00AF     		add	r7, sp, #0
  62              		.cfi_def_cfa_register 7
  18:.\lib_Network/network.c ****     UART_XB_Start();
  63              		.loc 1 18 0
  64 0004 FFF7FEFF 		bl	UART_XB_Start
  19:.\lib_Network/network.c ****     
  20:.\lib_Network/network.c ****     #ifdef DEBUG_PC
  21:.\lib_Network/network.c ****     SW_UART_DEBUG_Start();
  65              		.loc 1 21 0
  66 0008 FFF7FEFF 		bl	SW_UART_DEBUG_Start
  22:.\lib_Network/network.c ****     #endif
  23:.\lib_Network/network.c ****     
  24:.\lib_Network/network.c ****     inData.readStatus = READ_OK;
  67              		.loc 1 24 0
  68 000c 064B     		ldr	r3, .L2
  69 000e 0122     		mov	r2, #1
  70 0010 DA74     		strb	r2, [r3, #19]
  25:.\lib_Network/network.c ****     outData.writeStatus = NO_WRITE;
  71              		.loc 1 25 0
  72 0012 064B     		ldr	r3, .L2+4
  73 0014 0022     		mov	r2, #0
  74 0016 9A74     		strb	r2, [r3, #18]
  26:.\lib_Network/network.c ****     UART_XB_SpiUartClearRxBuffer();
  75              		.loc 1 26 0
  76 0018 FFF7FEFF 		bl	UART_XB_SpiUartClearRxBuffer
  27:.\lib_Network/network.c ****     
  28:.\lib_Network/network.c ****     networkStatus = NETWORK_DISCONN;
  77              		.loc 1 28 0
  78 001c 044B     		ldr	r3, .L2+8
  79 001e 0022     		mov	r2, #0
  80 0020 1A60     		str	r2, [r3]
  29:.\lib_Network/network.c ****     
  30:.\lib_Network/network.c **** }
  81              		.loc 1 30 0
  82 0022 BD46     		mov	sp, r7
  83              		@ sp needed
  84 0024 80BD     		pop	{r7, pc}
ARM GAS  C:\Users\Petro\AppData\Local\Temp\cce2eE99.s 			page 3


  85              	.L3:
  86 0026 C046     		.align	2
  87              	.L2:
  88 0028 00000000 		.word	inData
  89 002c 00000000 		.word	outData
  90 0030 00000000 		.word	networkStatus
  91              		.cfi_endproc
  92              	.LFE63:
  93              		.size	InitNetwork, .-InitNetwork
  94              		.global	__aeabi_ui2d
  95              		.global	__aeabi_ddiv
  96              		.global	__aeabi_d2uiz
  97              		.section	.rodata
  98              		.align	2
  99              	.LC5:
 100 0000 74696D65 		.ascii	"time send data %u\012\015\000"
 100      2073656E 
 100      64206461 
 100      74612025 
 100      750A0D00 
 101              		.section	.text.AppDelay,"ax",%progbits
 102              		.align	2
 103              		.global	AppDelay
 104              		.code	16
 105              		.thumb_func
 106              		.type	AppDelay, %function
 107              	AppDelay:
 108              	.LFB64:
  31:.\lib_Network/network.c **** 
  32:.\lib_Network/network.c **** void AppDelay(uint32_t delayMs)
  33:.\lib_Network/network.c **** {
 109              		.loc 1 33 0
 110              		.cfi_startproc
 111 0000 90B5     		push	{r4, r7, lr}
 112              		.cfi_def_cfa_offset 12
 113              		.cfi_offset 4, -12
 114              		.cfi_offset 7, -8
 115              		.cfi_offset 14, -4
 116 0002 A1B0     		sub	sp, sp, #132
 117              		.cfi_def_cfa_offset 144
 118 0004 00AF     		add	r7, sp, #0
 119              		.cfi_def_cfa_register 7
 120 0006 7860     		str	r0, [r7, #4]
  34:.\lib_Network/network.c ****     uint32_t runTime;
  35:.\lib_Network/network.c ****     uint32_t tmpWait = 0;
 121              		.loc 1 35 0
 122 0008 0023     		mov	r3, #0
 123 000a BB67     		str	r3, [r7, #120]
  36:.\lib_Network/network.c ****     runTime = 0;
 124              		.loc 1 36 0
 125 000c 0023     		mov	r3, #0
 126 000e FB67     		str	r3, [r7, #124]
  37:.\lib_Network/network.c ****     if(delayMs < MIN_DELAYMS)
 127              		.loc 1 37 0
 128 0010 7B68     		ldr	r3, [r7, #4]
 129 0012 952B     		cmp	r3, #149
 130 0014 04D8     		bhi	.L5
ARM GAS  C:\Users\Petro\AppData\Local\Temp\cce2eE99.s 			page 4


  38:.\lib_Network/network.c ****     {
  39:.\lib_Network/network.c ****         CyDelay(delayMs);
 131              		.loc 1 39 0
 132 0016 7B68     		ldr	r3, [r7, #4]
 133 0018 181C     		mov	r0, r3
 134 001a FFF7FEFF 		bl	CyDelay
 135 001e 85E0     		b	.L4
 136              	.L5:
 137              	.LBB2:
  40:.\lib_Network/network.c ****     }else
  41:.\lib_Network/network.c ****     {
  42:.\lib_Network/network.c ****         AppDelay_WriteCounter(131071);
 138              		.loc 1 42 0
 139 0020 444B     		ldr	r3, .L16
 140 0022 181C     		mov	r0, r3
 141 0024 FFF7FEFF 		bl	AppDelay_WriteCounter
  43:.\lib_Network/network.c ****         uint32_t counter = AppDelay_ReadCounter();
 142              		.loc 1 43 0
 143 0028 FFF7FEFF 		bl	AppDelay_ReadCounter
 144 002c 031C     		mov	r3, r0
 145 002e 7B67     		str	r3, [r7, #116]
  44:.\lib_Network/network.c ****         //AppDelay_Wakeup();
  45:.\lib_Network/network.c ****         //AppDelay_Enable();
  46:.\lib_Network/network.c ****         AppDelay_Start();
 146              		.loc 1 46 0
 147 0030 FFF7FEFF 		bl	AppDelay_Start
  47:.\lib_Network/network.c ****         
  48:.\lib_Network/network.c ****         while(((delayMs - runTime) > MIN_DELAYMS) && (runTime <= delayMs))
 148              		.loc 1 48 0
 149 0034 40E0     		b	.L7
 150              	.L12:
 151              	.LBB3:
  49:.\lib_Network/network.c ****         {
  50:.\lib_Network/network.c ****             /*user function*/      
  51:.\lib_Network/network.c ****             if(inData.readStatus == READ_OK && outData.writeStatus == NO_WRITE && ((tmpWait == 0) |
 152              		.loc 1 51 0
 153 0036 404B     		ldr	r3, .L16+4
 154 0038 DB7C     		ldrb	r3, [r3, #19]
 155 003a 012B     		cmp	r3, #1
 156 003c 0BD1     		bne	.L8
 157              		.loc 1 51 0 is_stmt 0 discriminator 1
 158 003e 3F4B     		ldr	r3, .L16+8
 159 0040 9B7C     		ldrb	r3, [r3, #18]
 160 0042 002B     		cmp	r3, #0
 161 0044 07D1     		bne	.L8
 162              		.loc 1 51 0 discriminator 2
 163 0046 BB6F     		ldr	r3, [r7, #120]
 164 0048 002B     		cmp	r3, #0
 165 004a 02D0     		beq	.L9
 166              		.loc 1 51 0 discriminator 3
 167 004c BB6F     		ldr	r3, [r7, #120]
 168 004e 0A2B     		cmp	r3, #10
 169 0050 01D9     		bls	.L8
 170              	.L9:
  52:.\lib_Network/network.c ****             {
  53:.\lib_Network/network.c ****                 SendData();           
 171              		.loc 1 53 0 is_stmt 1
ARM GAS  C:\Users\Petro\AppData\Local\Temp\cce2eE99.s 			page 5


 172 0052 FFF7FEFF 		bl	SendData
 173              	.L8:
  54:.\lib_Network/network.c ****             }
  55:.\lib_Network/network.c ****             
  56:.\lib_Network/network.c ****             if(inData.readStatus == READ_OK && outData.writeStatus == WRITE_OK)
 174              		.loc 1 56 0
 175 0056 384B     		ldr	r3, .L16+4
 176 0058 DB7C     		ldrb	r3, [r3, #19]
 177 005a 012B     		cmp	r3, #1
 178 005c 08D1     		bne	.L10
 179              		.loc 1 56 0 is_stmt 0 discriminator 1
 180 005e 374B     		ldr	r3, .L16+8
 181 0060 9B7C     		ldrb	r3, [r3, #18]
 182 0062 012B     		cmp	r3, #1
 183 0064 04D1     		bne	.L10
  57:.\lib_Network/network.c ****             {
  58:.\lib_Network/network.c ****                 ReceiveData();
 184              		.loc 1 58 0 is_stmt 1
 185 0066 FFF7FEFF 		bl	ReceiveData
  59:.\lib_Network/network.c ****                 
  60:.\lib_Network/network.c ****                 #ifdef DEBUG_PC
  61:.\lib_Network/network.c ****                 inData.readStatus = READ_OK;
 186              		.loc 1 61 0
 187 006a 334B     		ldr	r3, .L16+4
 188 006c 0122     		mov	r2, #1
 189 006e DA74     		strb	r2, [r3, #19]
 190              	.L10:
  62:.\lib_Network/network.c ****                 #endif
  63:.\lib_Network/network.c ****             }
  64:.\lib_Network/network.c ****             CyDelay(MIN_DELAYMS);
 191              		.loc 1 64 0
 192 0070 9620     		mov	r0, #150
 193 0072 FFF7FEFF 		bl	CyDelay
  65:.\lib_Network/network.c ****             tmpWait++;
 194              		.loc 1 65 0
 195 0076 BB6F     		ldr	r3, [r7, #120]
 196 0078 0133     		add	r3, r3, #1
 197 007a BB67     		str	r3, [r7, #120]
  66:.\lib_Network/network.c ****             uint32_t period = AppDelay_ReadPeriod();
 198              		.loc 1 66 0
 199 007c FFF7FEFF 		bl	AppDelay_ReadPeriod
 200 0080 031C     		mov	r3, r0
 201 0082 3B67     		str	r3, [r7, #112]
  67:.\lib_Network/network.c ****             counter = AppDelay_ReadCounter();
 202              		.loc 1 67 0
 203 0084 FFF7FEFF 		bl	AppDelay_ReadCounter
 204 0088 031C     		mov	r3, r0
 205 008a 7B67     		str	r3, [r7, #116]
  68:.\lib_Network/network.c ****             runTime = (period -  counter)/32.768;
 206              		.loc 1 68 0
 207 008c 3A6F     		ldr	r2, [r7, #112]
 208 008e 7B6F     		ldr	r3, [r7, #116]
 209 0090 D31A     		sub	r3, r2, r3
 210 0092 181C     		mov	r0, r3
 211 0094 FFF7FEFF 		bl	__aeabi_ui2d
 212 0098 031C     		mov	r3, r0
 213 009a 0C1C     		mov	r4, r1
ARM GAS  C:\Users\Petro\AppData\Local\Temp\cce2eE99.s 			page 6


 214 009c 181C     		mov	r0, r3
 215 009e 211C     		mov	r1, r4
 216 00a0 274A     		ldr	r2, .L16+12
 217 00a2 284B     		ldr	r3, .L16+16
 218 00a4 FFF7FEFF 		bl	__aeabi_ddiv
 219 00a8 031C     		mov	r3, r0
 220 00aa 0C1C     		mov	r4, r1
 221 00ac 181C     		mov	r0, r3
 222 00ae 211C     		mov	r1, r4
 223 00b0 FFF7FEFF 		bl	__aeabi_d2uiz
 224 00b4 031C     		mov	r3, r0
 225 00b6 FB67     		str	r3, [r7, #124]
 226              	.L7:
 227              	.LBE3:
  48:.\lib_Network/network.c ****         {
 228              		.loc 1 48 0
 229 00b8 7A68     		ldr	r2, [r7, #4]
 230 00ba FB6F     		ldr	r3, [r7, #124]
 231 00bc D31A     		sub	r3, r2, r3
 232 00be 962B     		cmp	r3, #150
 233 00c0 03D9     		bls	.L11
  48:.\lib_Network/network.c ****         {
 234              		.loc 1 48 0 is_stmt 0 discriminator 1
 235 00c2 FA6F     		ldr	r2, [r7, #124]
 236 00c4 7B68     		ldr	r3, [r7, #4]
 237 00c6 9A42     		cmp	r2, r3
 238 00c8 B5D9     		bls	.L12
 239              	.L11:
  69:.\lib_Network/network.c ****         }
  70:.\lib_Network/network.c ****         AppDelay_Stop();
 240              		.loc 1 70 0 is_stmt 1
 241 00ca FFF7FEFF 		bl	AppDelay_Stop
  71:.\lib_Network/network.c ****         
  72:.\lib_Network/network.c ****         #ifdef DEBUG_PC
  73:.\lib_Network/network.c ****         char buffer[100];
  74:.\lib_Network/network.c ****         sprintf(buffer,"time send data %u\n\r", (runTime));
 242              		.loc 1 74 0
 243 00ce 0C23     		mov	r3, #12
 244 00d0 F918     		add	r1, r7, r3
 245 00d2 1D4A     		ldr	r2, .L16+20
 246 00d4 FB6F     		ldr	r3, [r7, #124]
 247 00d6 081C     		mov	r0, r1
 248 00d8 111C     		mov	r1, r2
 249 00da 1A1C     		mov	r2, r3
 250 00dc FFF7FEFF 		bl	sprintf
  75:.\lib_Network/network.c ****         SW_UART_DEBUG_PutString(buffer);
 251              		.loc 1 75 0
 252 00e0 0C23     		mov	r3, #12
 253 00e2 FB18     		add	r3, r7, r3
 254 00e4 181C     		mov	r0, r3
 255 00e6 FFF7FEFF 		bl	SW_UART_DEBUG_PutString
  76:.\lib_Network/network.c ****         #endif
  77:.\lib_Network/network.c ****         
  78:.\lib_Network/network.c ****         /*tyme to respond*/
  79:.\lib_Network/network.c ****         if(numAttemps++ >= 2)
 256              		.loc 1 79 0
 257 00ea 184B     		ldr	r3, .L16+24
ARM GAS  C:\Users\Petro\AppData\Local\Temp\cce2eE99.s 			page 7


 258 00ec 1B68     		ldr	r3, [r3]
 259 00ee 591C     		add	r1, r3, #1
 260 00f0 164A     		ldr	r2, .L16+24
 261 00f2 1160     		str	r1, [r2]
 262 00f4 012B     		cmp	r3, #1
 263 00f6 05DD     		ble	.L13
  80:.\lib_Network/network.c ****         {
  81:.\lib_Network/network.c ****             numAttemps=0;
 264              		.loc 1 81 0
 265 00f8 144B     		ldr	r3, .L16+24
 266 00fa 0022     		mov	r2, #0
 267 00fc 1A60     		str	r2, [r3]
  82:.\lib_Network/network.c ****             outData.writeStatus = NO_WRITE;
 268              		.loc 1 82 0
 269 00fe 0F4B     		ldr	r3, .L16+8
 270 0100 0022     		mov	r2, #0
 271 0102 9A74     		strb	r2, [r3, #18]
 272              	.L13:
  83:.\lib_Network/network.c ****         }
  84:.\lib_Network/network.c ****         if(noConnect++ >= 4)
 273              		.loc 1 84 0
 274 0104 124B     		ldr	r3, .L16+28
 275 0106 1B68     		ldr	r3, [r3]
 276 0108 591C     		add	r1, r3, #1
 277 010a 114A     		ldr	r2, .L16+28
 278 010c 1160     		str	r1, [r2]
 279 010e 032B     		cmp	r3, #3
 280 0110 02DD     		ble	.L14
  85:.\lib_Network/network.c ****         {
  86:.\lib_Network/network.c ****             networkStatus = NETWORK_DISCONN;
 281              		.loc 1 86 0
 282 0112 104B     		ldr	r3, .L16+32
 283 0114 0022     		mov	r2, #0
 284 0116 1A60     		str	r2, [r3]
 285              	.L14:
  87:.\lib_Network/network.c ****         }
  88:.\lib_Network/network.c ****         if (delayMs > runTime)
 286              		.loc 1 88 0
 287 0118 7A68     		ldr	r2, [r7, #4]
 288 011a FB6F     		ldr	r3, [r7, #124]
 289 011c 9A42     		cmp	r2, r3
 290 011e 05D9     		bls	.L4
  89:.\lib_Network/network.c ****         {
  90:.\lib_Network/network.c ****             CyDelay(delayMs - runTime);
 291              		.loc 1 90 0
 292 0120 7A68     		ldr	r2, [r7, #4]
 293 0122 FB6F     		ldr	r3, [r7, #124]
 294 0124 D31A     		sub	r3, r2, r3
 295 0126 181C     		mov	r0, r3
 296 0128 FFF7FEFF 		bl	CyDelay
 297              	.L4:
 298              	.LBE2:
  91:.\lib_Network/network.c ****         }
  92:.\lib_Network/network.c ****     }
  93:.\lib_Network/network.c ****     
  94:.\lib_Network/network.c **** 
  95:.\lib_Network/network.c **** }
ARM GAS  C:\Users\Petro\AppData\Local\Temp\cce2eE99.s 			page 8


 299              		.loc 1 95 0
 300 012c BD46     		mov	sp, r7
 301 012e 21B0     		add	sp, sp, #132
 302              		@ sp needed
 303 0130 90BD     		pop	{r4, r7, pc}
 304              	.L17:
 305 0132 C046     		.align	2
 306              	.L16:
 307 0134 FFFF0100 		.word	131071
 308 0138 00000000 		.word	inData
 309 013c 00000000 		.word	outData
 310 0140 FCA9F1D2 		.word	-755914244
 311 0144 4D624040 		.word	1077961293
 312 0148 00000000 		.word	.LC5
 313 014c 04000000 		.word	numAttemps
 314 0150 08000000 		.word	noConnect
 315 0154 00000000 		.word	networkStatus
 316              		.cfi_endproc
 317              	.LFE64:
 318              		.size	AppDelay, .-AppDelay
 319              		.section	.rodata
 320              		.align	2
 321              	.LC11:
 322 0014 25303258 		.ascii	"%02X:%016X%02X%02X%02X\000"
 322      3A253031 
 322      36582530 
 322      32582530 
 322      32582530 
 323 002b 00       		.align	2
 324              	.LC13:
 325 002c 6F757420 		.ascii	"out data - \000"
 325      64617461 
 325      202D2000 
 326              		.align	2
 327              	.LC15:
 328 0038 0A0D00   		.ascii	"\012\015\000"
 329              		.section	.text.SendData,"ax",%progbits
 330              		.align	2
 331              		.global	SendData
 332              		.code	16
 333              		.thumb_func
 334              		.type	SendData, %function
 335              	SendData:
 336              	.LFB65:
  96:.\lib_Network/network.c **** 
  97:.\lib_Network/network.c **** void SendData(void)
  98:.\lib_Network/network.c **** {
 337              		.loc 1 98 0
 338              		.cfi_startproc
 339 0000 90B5     		push	{r4, r7, lr}
 340              		.cfi_def_cfa_offset 12
 341              		.cfi_offset 4, -12
 342              		.cfi_offset 7, -8
 343              		.cfi_offset 14, -4
 344 0002 9FB0     		sub	sp, sp, #124
 345              		.cfi_def_cfa_offset 136
 346 0004 04AF     		add	r7, sp, #16
ARM GAS  C:\Users\Petro\AppData\Local\Temp\cce2eE99.s 			page 9


 347              		.cfi_def_cfa 7, 120
  99:.\lib_Network/network.c ****     char sendBuffer[DATA_BUFFER];
 100:.\lib_Network/network.c ****     char sendData[DATA_BUFFER];
 101:.\lib_Network/network.c ****     int i;
 102:.\lib_Network/network.c ****     
 103:.\lib_Network/network.c ****     outData.countSkiers = SkierOnWay();
 348              		.loc 1 103 0
 349 0006 FFF7FEFF 		bl	SkierOnWay
 350 000a 031C     		mov	r3, r0
 351 000c DAB2     		uxtb	r2, r3
 352 000e 1E4B     		ldr	r3, .L19
 353 0010 DA70     		strb	r2, [r3, #3]
 104:.\lib_Network/network.c ****     outData.reboot = 0;
 354              		.loc 1 104 0
 355 0012 1D4B     		ldr	r3, .L19
 356 0014 0022     		mov	r2, #0
 357 0016 9A70     		strb	r2, [r3, #2]
 105:.\lib_Network/network.c ****     /*pack data*/
 106:.\lib_Network/network.c ****     sprintf(sendData,"%02X:%016X%02X%02X%02X", 0u, 0u, outData.ready, outData.reboot, outData.count
 358              		.loc 1 106 0
 359 0018 1B4B     		ldr	r3, .L19
 360 001a 5B78     		ldrb	r3, [r3, #1]
 361 001c 1C1C     		mov	r4, r3
 362 001e 1A4B     		ldr	r3, .L19
 363 0020 9B78     		ldrb	r3, [r3, #2]
 364 0022 181C     		mov	r0, r3
 365 0024 184B     		ldr	r3, .L19
 366 0026 DB78     		ldrb	r3, [r3, #3]
 367 0028 191C     		mov	r1, r3
 368 002a 3A1C     		mov	r2, r7
 369 002c 174B     		ldr	r3, .L19+4
 370 002e 0094     		str	r4, [sp]
 371 0030 0190     		str	r0, [sp, #4]
 372 0032 0291     		str	r1, [sp, #8]
 373 0034 101C     		mov	r0, r2
 374 0036 191C     		mov	r1, r3
 375 0038 0022     		mov	r2, #0
 376 003a 0023     		mov	r3, #0
 377 003c FFF7FEFF 		bl	sprintf
 107:.\lib_Network/network.c ****     
 108:.\lib_Network/network.c ****     PackData(sendBuffer, (uint8_t *)sendData, outData.IDpacket);
 378              		.loc 1 108 0
 379 0040 114B     		ldr	r3, .L19
 380 0042 1B78     		ldrb	r3, [r3]
 381 0044 1C1C     		mov	r4, r3
 382 0046 3423     		mov	r3, #52
 383 0048 FA18     		add	r2, r7, r3
 384 004a 3B1C     		mov	r3, r7
 385 004c 101C     		mov	r0, r2
 386 004e 191C     		mov	r1, r3
 387 0050 221C     		mov	r2, r4
 388 0052 FFF7FEFF 		bl	PackData
 109:.\lib_Network/network.c ****     UART_XB_UartPutString(sendBuffer);
 389              		.loc 1 109 0
 390 0056 3423     		mov	r3, #52
 391 0058 FB18     		add	r3, r7, r3
 392 005a 181C     		mov	r0, r3
ARM GAS  C:\Users\Petro\AppData\Local\Temp\cce2eE99.s 			page 10


 393 005c FFF7FEFF 		bl	UART_XB_UartPutString
 110:.\lib_Network/network.c ****     outData.writeStatus = WRITE_OK;
 394              		.loc 1 110 0
 395 0060 094B     		ldr	r3, .L19
 396 0062 0122     		mov	r2, #1
 397 0064 9A74     		strb	r2, [r3, #18]
 111:.\lib_Network/network.c ****     
 112:.\lib_Network/network.c ****     #ifdef DEBUG_PC
 113:.\lib_Network/network.c ****     SW_UART_DEBUG_PutString("out data - "); 
 398              		.loc 1 113 0
 399 0066 0A4B     		ldr	r3, .L19+8
 400 0068 181C     		mov	r0, r3
 401 006a FFF7FEFF 		bl	SW_UART_DEBUG_PutString
 114:.\lib_Network/network.c ****     SW_UART_DEBUG_PutString(sendBuffer);   
 402              		.loc 1 114 0
 403 006e 3423     		mov	r3, #52
 404 0070 FB18     		add	r3, r7, r3
 405 0072 181C     		mov	r0, r3
 406 0074 FFF7FEFF 		bl	SW_UART_DEBUG_PutString
 115:.\lib_Network/network.c ****     SW_UART_DEBUG_PutString("\n\r");
 407              		.loc 1 115 0
 408 0078 064B     		ldr	r3, .L19+12
 409 007a 181C     		mov	r0, r3
 410 007c FFF7FEFF 		bl	SW_UART_DEBUG_PutString
 116:.\lib_Network/network.c ****     #endif   
 117:.\lib_Network/network.c **** }
 411              		.loc 1 117 0
 412 0080 BD46     		mov	sp, r7
 413 0082 1BB0     		add	sp, sp, #108
 414              		@ sp needed
 415 0084 90BD     		pop	{r4, r7, pc}
 416              	.L20:
 417 0086 C046     		.align	2
 418              	.L19:
 419 0088 00000000 		.word	outData
 420 008c 14000000 		.word	.LC11
 421 0090 2C000000 		.word	.LC13
 422 0094 38000000 		.word	.LC15
 423              		.cfi_endproc
 424              	.LFE65:
 425              		.size	SendData, .-SendData
 426              		.section	.rodata
 427 003b 00       		.align	2
 428              	.LC21:
 429 003c 20202020 		.ascii	"       READ DATA OKEY\000"
 429      20202052 
 429      45414420 
 429      44415441 
 429      204F4B45 
 430 0052 0000     		.align	2
 431              	.LC24:
 432 0054 20202020 		.ascii	"       READ PREV DATA OKEY\000"
 432      20202052 
 432      45414420 
 432      50524556 
 432      20444154 
 433 006f 00       		.section	.text.ReceiveData,"ax",%progbits
ARM GAS  C:\Users\Petro\AppData\Local\Temp\cce2eE99.s 			page 11


 434              		.align	2
 435              		.global	ReceiveData
 436              		.code	16
 437              		.thumb_func
 438              		.type	ReceiveData, %function
 439              	ReceiveData:
 440              	.LFB66:
 118:.\lib_Network/network.c **** 
 119:.\lib_Network/network.c **** 
 120:.\lib_Network/network.c **** uint32_t ReceiveData(void)
 121:.\lib_Network/network.c **** {
 441              		.loc 1 121 0
 442              		.cfi_startproc
 443 0000 90B5     		push	{r4, r7, lr}
 444              		.cfi_def_cfa_offset 12
 445              		.cfi_offset 4, -12
 446              		.cfi_offset 7, -8
 447              		.cfi_offset 14, -4
 448 0002 8BB0     		sub	sp, sp, #44
 449              		.cfi_def_cfa_offset 56
 450 0004 00AF     		add	r7, sp, #0
 451              		.cfi_def_cfa_register 7
 122:.\lib_Network/network.c ****     uint32_t result = 0;
 452              		.loc 1 122 0
 453 0006 0023     		mov	r3, #0
 454 0008 7B62     		str	r3, [r7, #36]
 123:.\lib_Network/network.c ****     int i;
 124:.\lib_Network/network.c ****     uint8_t byte;
 125:.\lib_Network/network.c ****     struct Resp recvData;
 126:.\lib_Network/network.c ****       
 127:.\lib_Network/network.c ****     while((UART_XB_SpiUartGetRxBufferSize() > 0) && ((byte=UART_XB_UartGetChar()) != 0))
 455              		.loc 1 127 0
 456 000a 74E0     		b	.L22
 457              	.L28:
 128:.\lib_Network/network.c ****     { 
 129:.\lib_Network/network.c ****         result = UnpackData(&recvData, (uint8_t)(byte & 0xFF));
 458              		.loc 1 129 0
 459 000c 3A1C     		mov	r2, r7
 460 000e 2323     		mov	r3, #35
 461 0010 FB18     		add	r3, r7, r3
 462 0012 1B78     		ldrb	r3, [r3]
 463 0014 101C     		mov	r0, r2
 464 0016 191C     		mov	r1, r3
 465 0018 FFF7FEFF 		bl	UnpackData
 466 001c 031C     		mov	r3, r0
 467 001e 7B62     		str	r3, [r7, #36]
 130:.\lib_Network/network.c ****         
 131:.\lib_Network/network.c ****         #ifdef DEBUG_PC
 132:.\lib_Network/network.c ****         SW_UART_DEBUG_PutChar(byte);
 468              		.loc 1 132 0
 469 0020 2323     		mov	r3, #35
 470 0022 FB18     		add	r3, r7, r3
 471 0024 1B78     		ldrb	r3, [r3]
 472 0026 181C     		mov	r0, r3
 473 0028 FFF7FEFF 		bl	SW_UART_DEBUG_PutChar
 133:.\lib_Network/network.c ****         #endif
 134:.\lib_Network/network.c ****         if(recvData.EndPacket == 1)
ARM GAS  C:\Users\Petro\AppData\Local\Temp\cce2eE99.s 			page 12


 474              		.loc 1 134 0
 475 002c 3B1C     		mov	r3, r7
 476 002e 1B7E     		ldrb	r3, [r3, #24]
 477 0030 012B     		cmp	r3, #1
 478 0032 60D1     		bne	.L22
 135:.\lib_Network/network.c ****         {
 136:.\lib_Network/network.c ****             inData.IDpacket = recvData.Seq;
 479              		.loc 1 136 0
 480 0034 3B1C     		mov	r3, r7
 481 0036 1B88     		ldrh	r3, [r3]
 482 0038 DAB2     		uxtb	r2, r3
 483 003a 3B4B     		ldr	r3, .L30
 484 003c 1A70     		strb	r2, [r3]
 137:.\lib_Network/network.c ****             
 138:.\lib_Network/network.c ****             /*id packet ok*/
 139:.\lib_Network/network.c ****             if(outData.IDpacket == inData.IDpacket)
 485              		.loc 1 139 0
 486 003e 3B4B     		ldr	r3, .L30+4
 487 0040 1A78     		ldrb	r2, [r3]
 488 0042 394B     		ldr	r3, .L30
 489 0044 1B78     		ldrb	r3, [r3]
 490 0046 9A42     		cmp	r2, r3
 491 0048 35D1     		bne	.L23
 140:.\lib_Network/network.c ****             {
 141:.\lib_Network/network.c ****                 inData.readStatus = NO_READ;
 492              		.loc 1 141 0
 493 004a 374B     		ldr	r3, .L30
 494 004c 0022     		mov	r2, #0
 495 004e DA74     		strb	r2, [r3, #19]
 142:.\lib_Network/network.c ****                 outData.writeStatus = NO_WRITE;
 496              		.loc 1 142 0
 497 0050 364B     		ldr	r3, .L30+4
 498 0052 0022     		mov	r2, #0
 499 0054 9A74     		strb	r2, [r3, #18]
 143:.\lib_Network/network.c ****                 
 144:.\lib_Network/network.c ****                 
 145:.\lib_Network/network.c ****                 /*connect network*/
 146:.\lib_Network/network.c ****                 networkStatus = NETWORK_CONN;
 500              		.loc 1 146 0
 501 0056 364B     		ldr	r3, .L30+8
 502 0058 0122     		mov	r2, #1
 503 005a 1A60     		str	r2, [r3]
 147:.\lib_Network/network.c ****                 noConnect = 0;
 504              		.loc 1 147 0
 505 005c 354B     		ldr	r3, .L30+12
 506 005e 0022     		mov	r2, #0
 507 0060 1A60     		str	r2, [r3]
 148:.\lib_Network/network.c ****                 
 149:.\lib_Network/network.c ****                 /*write data*/
 150:.\lib_Network/network.c ****                 inData.newSkier = recvData.Data3;
 508              		.loc 1 150 0
 509 0062 3B1C     		mov	r3, r7
 510 0064 9A7C     		ldrb	r2, [r3, #18]
 511 0066 304B     		ldr	r3, .L30
 512 0068 9A74     		strb	r2, [r3, #18]
 151:.\lib_Network/network.c ****                 inData.unixStartTime = recvData.Data1;
 513              		.loc 1 151 0
ARM GAS  C:\Users\Petro\AppData\Local\Temp\cce2eE99.s 			page 13


 514 006a 3B1C     		mov	r3, r7
 515 006c DC68     		ldr	r4, [r3, #12]
 516 006e 9B68     		ldr	r3, [r3, #8]
 517 0070 2D4A     		ldr	r2, .L30
 518 0072 9360     		str	r3, [r2, #8]
 519 0074 D460     		str	r4, [r2, #12]
 152:.\lib_Network/network.c ****                 inData.startMsTime = recvData.Data2;
 520              		.loc 1 152 0
 521 0076 3B1C     		mov	r3, r7
 522 0078 1A8A     		ldrh	r2, [r3, #16]
 523 007a 2B4B     		ldr	r3, .L30
 524 007c 1A82     		strh	r2, [r3, #16]
 153:.\lib_Network/network.c ****                 
 154:.\lib_Network/network.c ****                 /*if new skier on track*/
 155:.\lib_Network/network.c ****                 if(inData.newSkier == NEW_SKIER_IN_TARCK )
 525              		.loc 1 155 0
 526 007e 2A4B     		ldr	r3, .L30
 527 0080 9B7C     		ldrb	r3, [r3, #18]
 528 0082 012B     		cmp	r3, #1
 529 0084 08D1     		bne	.L24
 156:.\lib_Network/network.c ****                 {
 157:.\lib_Network/network.c ****                     WriteStartTime(inData.unixStartTime, inData.startMsTime);
 530              		.loc 1 157 0
 531 0086 284B     		ldr	r3, .L30
 532 0088 DC68     		ldr	r4, [r3, #12]
 533 008a 9B68     		ldr	r3, [r3, #8]
 534 008c 264A     		ldr	r2, .L30
 535 008e 128A     		ldrh	r2, [r2, #16]
 536 0090 181C     		mov	r0, r3
 537 0092 211C     		mov	r1, r4
 538 0094 FFF7FEFF 		bl	WriteStartTime
 539              	.L24:
 158:.\lib_Network/network.c ****                 }
 159:.\lib_Network/network.c ****                 
 160:.\lib_Network/network.c ****                 /*next packet*/
 161:.\lib_Network/network.c ****                 outData.IDpacket++;
 540              		.loc 1 161 0
 541 0098 244B     		ldr	r3, .L30+4
 542 009a 1B78     		ldrb	r3, [r3]
 543 009c 0133     		add	r3, r3, #1
 544 009e DAB2     		uxtb	r2, r3
 545 00a0 224B     		ldr	r3, .L30+4
 546 00a2 1A70     		strb	r2, [r3]
 162:.\lib_Network/network.c ****                 #ifdef DEBUG_PC
 163:.\lib_Network/network.c ****                 SW_UART_DEBUG_PutString("       READ DATA OKEY");   
 547              		.loc 1 163 0
 548 00a4 244B     		ldr	r3, .L30+16
 549 00a6 181C     		mov	r0, r3
 550 00a8 FFF7FEFF 		bl	SW_UART_DEBUG_PutString
 164:.\lib_Network/network.c ****                 SW_UART_DEBUG_PutString("\n\r");
 551              		.loc 1 164 0
 552 00ac 234B     		ldr	r3, .L30+20
 553 00ae 181C     		mov	r0, r3
 554 00b0 FFF7FEFF 		bl	SW_UART_DEBUG_PutString
 555 00b4 1DE0     		b	.L25
 556              	.L23:
 165:.\lib_Network/network.c ****                 #endif 
ARM GAS  C:\Users\Petro\AppData\Local\Temp\cce2eE99.s 			page 14


 166:.\lib_Network/network.c ****             }  
 167:.\lib_Network/network.c ****             /* if prev packet late*/
 168:.\lib_Network/network.c ****             else if(outData.IDpacket == (inData.IDpacket + 1))
 557              		.loc 1 168 0
 558 00b6 1D4B     		ldr	r3, .L30+4
 559 00b8 1B78     		ldrb	r3, [r3]
 560 00ba 1A1C     		mov	r2, r3
 561 00bc 1A4B     		ldr	r3, .L30
 562 00be 1B78     		ldrb	r3, [r3]
 563 00c0 0133     		add	r3, r3, #1
 564 00c2 9A42     		cmp	r2, r3
 565 00c4 15D1     		bne	.L25
 169:.\lib_Network/network.c ****             {
 170:.\lib_Network/network.c ****                 inData.newSkier = recvData.Data3;
 566              		.loc 1 170 0
 567 00c6 3B1C     		mov	r3, r7
 568 00c8 9A7C     		ldrb	r2, [r3, #18]
 569 00ca 174B     		ldr	r3, .L30
 570 00cc 9A74     		strb	r2, [r3, #18]
 171:.\lib_Network/network.c ****                 inData.unixStartTime = recvData.Data1;
 571              		.loc 1 171 0
 572 00ce 3B1C     		mov	r3, r7
 573 00d0 DC68     		ldr	r4, [r3, #12]
 574 00d2 9B68     		ldr	r3, [r3, #8]
 575 00d4 144A     		ldr	r2, .L30
 576 00d6 9360     		str	r3, [r2, #8]
 577 00d8 D460     		str	r4, [r2, #12]
 172:.\lib_Network/network.c ****                 inData.startMsTime = recvData.Data2;
 578              		.loc 1 172 0
 579 00da 3B1C     		mov	r3, r7
 580 00dc 1A8A     		ldrh	r2, [r3, #16]
 581 00de 124B     		ldr	r3, .L30
 582 00e0 1A82     		strh	r2, [r3, #16]
 173:.\lib_Network/network.c ****                 
 174:.\lib_Network/network.c ****                 /*if new skier on track*/
 175:.\lib_Network/network.c ****                 /*
 176:.\lib_Network/network.c ****                 if(inData.newSkier == NEW_SKIER_IN_TARCK )
 177:.\lib_Network/network.c ****                 {
 178:.\lib_Network/network.c ****                     WriteStartTime(inData.unixStartTime, inData.startMsTime);
 179:.\lib_Network/network.c ****                 }
 180:.\lib_Network/network.c ****                 */
 181:.\lib_Network/network.c ****                 #ifdef DEBUG_PC
 182:.\lib_Network/network.c ****                 SW_UART_DEBUG_PutString("       READ PREV DATA OKEY");   
 583              		.loc 1 182 0
 584 00e2 174B     		ldr	r3, .L30+24
 585 00e4 181C     		mov	r0, r3
 586 00e6 FFF7FEFF 		bl	SW_UART_DEBUG_PutString
 183:.\lib_Network/network.c ****                 SW_UART_DEBUG_PutString("\n\r");
 587              		.loc 1 183 0
 588 00ea 144B     		ldr	r3, .L30+20
 589 00ec 181C     		mov	r0, r3
 590 00ee FFF7FEFF 		bl	SW_UART_DEBUG_PutString
 591              	.L25:
 184:.\lib_Network/network.c ****                 #endif 
 185:.\lib_Network/network.c ****             }
 186:.\lib_Network/network.c ****             return  NO_ERROR;  
 592              		.loc 1 186 0
ARM GAS  C:\Users\Petro\AppData\Local\Temp\cce2eE99.s 			page 15


 593 00f2 0123     		mov	r3, #1
 594 00f4 14E0     		b	.L29
 595              	.L22:
 127:.\lib_Network/network.c ****     { 
 596              		.loc 1 127 0
 597 00f6 FFF7FEFF 		bl	UART_XB_SpiUartGetRxBufferSize
 598 00fa 031E     		sub	r3, r0, #0
 599 00fc 0BD0     		beq	.L27
 127:.\lib_Network/network.c ****     { 
 600              		.loc 1 127 0 is_stmt 0 discriminator 1
 601 00fe FFF7FEFF 		bl	UART_XB_UartGetChar
 602 0102 021C     		mov	r2, r0
 603 0104 2323     		mov	r3, #35
 604 0106 FB18     		add	r3, r7, r3
 605 0108 1A70     		strb	r2, [r3]
 606 010a 2323     		mov	r3, #35
 607 010c FB18     		add	r3, r7, r3
 608 010e 1B78     		ldrb	r3, [r3]
 609 0110 002B     		cmp	r3, #0
 610 0112 00D0     		beq	.LCB462
 611 0114 7AE7     		b	.L28	@long jump
 612              	.LCB462:
 613              	.L27:
 187:.\lib_Network/network.c ****         }
 188:.\lib_Network/network.c ****     }
 189:.\lib_Network/network.c ****     
 190:.\lib_Network/network.c ****     #ifdef DEBUG_PC
 191:.\lib_Network/network.c ****     //SW_UART_DEBUG_PutString("ERROR READ!!!!");   
 192:.\lib_Network/network.c ****     SW_UART_DEBUG_PutString("\n\r");
 614              		.loc 1 192 0 is_stmt 1
 615 0116 094B     		ldr	r3, .L30+20
 616 0118 181C     		mov	r0, r3
 617 011a FFF7FEFF 		bl	SW_UART_DEBUG_PutString
 193:.\lib_Network/network.c ****     #endif 
 194:.\lib_Network/network.c ****     return  ERROR;
 618              		.loc 1 194 0
 619 011e 0023     		mov	r3, #0
 620              	.L29:
 195:.\lib_Network/network.c **** }
 621              		.loc 1 195 0 discriminator 1
 622 0120 181C     		mov	r0, r3
 623 0122 BD46     		mov	sp, r7
 624 0124 0BB0     		add	sp, sp, #44
 625              		@ sp needed
 626 0126 90BD     		pop	{r4, r7, pc}
 627              	.L31:
 628              		.align	2
 629              	.L30:
 630 0128 00000000 		.word	inData
 631 012c 00000000 		.word	outData
 632 0130 00000000 		.word	networkStatus
 633 0134 08000000 		.word	noConnect
 634 0138 3C000000 		.word	.LC21
 635 013c 38000000 		.word	.LC15
 636 0140 54000000 		.word	.LC24
 637              		.cfi_endproc
 638              	.LFE66:
ARM GAS  C:\Users\Petro\AppData\Local\Temp\cce2eE99.s 			page 16


 639              		.size	ReceiveData, .-ReceiveData
 640              		.section	.text.NetworkStatus,"ax",%progbits
 641              		.align	2
 642              		.global	NetworkStatus
 643              		.code	16
 644              		.thumb_func
 645              		.type	NetworkStatus, %function
 646              	NetworkStatus:
 647              	.LFB67:
 196:.\lib_Network/network.c **** 
 197:.\lib_Network/network.c **** 
 198:.\lib_Network/network.c **** uint32_t NetworkStatus(void)
 199:.\lib_Network/network.c **** {
 648              		.loc 1 199 0
 649              		.cfi_startproc
 650 0000 80B5     		push	{r7, lr}
 651              		.cfi_def_cfa_offset 8
 652              		.cfi_offset 7, -8
 653              		.cfi_offset 14, -4
 654 0002 00AF     		add	r7, sp, #0
 655              		.cfi_def_cfa_register 7
 200:.\lib_Network/network.c ****     return networkStatus;
 656              		.loc 1 200 0
 657 0004 024B     		ldr	r3, .L34
 658 0006 1B68     		ldr	r3, [r3]
 201:.\lib_Network/network.c **** }
 659              		.loc 1 201 0
 660 0008 181C     		mov	r0, r3
 661 000a BD46     		mov	sp, r7
 662              		@ sp needed
 663 000c 80BD     		pop	{r7, pc}
 664              	.L35:
 665 000e C046     		.align	2
 666              	.L34:
 667 0010 00000000 		.word	networkStatus
 668              		.cfi_endproc
 669              	.LFE67:
 670              		.size	NetworkStatus, .-NetworkStatus
 671              		.section	.text.SendFinStatus,"ax",%progbits
 672              		.align	2
 673              		.global	SendFinStatus
 674              		.code	16
 675              		.thumb_func
 676              		.type	SendFinStatus, %function
 677              	SendFinStatus:
 678              	.LFB68:
 202:.\lib_Network/network.c **** 
 203:.\lib_Network/network.c **** void SendFinStatus(uint32_t ready)
 204:.\lib_Network/network.c **** {
 679              		.loc 1 204 0
 680              		.cfi_startproc
 681 0000 80B5     		push	{r7, lr}
 682              		.cfi_def_cfa_offset 8
 683              		.cfi_offset 7, -8
 684              		.cfi_offset 14, -4
 685 0002 82B0     		sub	sp, sp, #8
 686              		.cfi_def_cfa_offset 16
ARM GAS  C:\Users\Petro\AppData\Local\Temp\cce2eE99.s 			page 17


 687 0004 00AF     		add	r7, sp, #0
 688              		.cfi_def_cfa_register 7
 689 0006 7860     		str	r0, [r7, #4]
 205:.\lib_Network/network.c ****     outData.ready = ready;
 690              		.loc 1 205 0
 691 0008 7B68     		ldr	r3, [r7, #4]
 692 000a DAB2     		uxtb	r2, r3
 693 000c 024B     		ldr	r3, .L37
 694 000e 5A70     		strb	r2, [r3, #1]
 206:.\lib_Network/network.c **** }
 695              		.loc 1 206 0
 696 0010 BD46     		mov	sp, r7
 697 0012 02B0     		add	sp, sp, #8
 698              		@ sp needed
 699 0014 80BD     		pop	{r7, pc}
 700              	.L38:
 701 0016 C046     		.align	2
 702              	.L37:
 703 0018 00000000 		.word	outData
 704              		.cfi_endproc
 705              	.LFE68:
 706              		.size	SendFinStatus, .-SendFinStatus
 707              		.text
 708              	.Letext0:
 709              		.file 2 "c:\\program files (x86)\\cypress\\psoc creator\\3.3\\psoc creator\\import\\gnu\\arm\\4.9.
 710              		.file 3 "c:\\program files (x86)\\cypress\\psoc creator\\3.3\\psoc creator\\import\\gnu\\arm\\4.9.
 711              		.file 4 "./lib_Network\\svt.h"
 712              		.file 5 "./lib_DB\\database.h"
 713              		.file 6 "./lib_Fat\\integer.h"
 714              		.file 7 "./lib_Fat\\ff.h"
 715              		.file 8 "./lib_Network\\network.h"
 716              		.file 9 "./lib_DB\\logResult.h"