ARM GAS  C:\Users\Petro\AppData\Local\Temp\cc5UDY8E.s 			page 1


   1              		.cpu cortex-m0
   2              		.fpu softvfp
   3              		.eabi_attribute 20, 1
   4              		.eabi_attribute 21, 1
   5              		.eabi_attribute 23, 3
   6              		.eabi_attribute 24, 1
   7              		.eabi_attribute 25, 1
   8              		.eabi_attribute 26, 1
   9              		.eabi_attribute 30, 6
  10              		.eabi_attribute 34, 0
  11              		.eabi_attribute 18, 4
  12              		.code	16
  13              		.file	"pwm_PM.c"
  14              		.text
  15              	.Ltext0:
  16              		.cfi_sections	.debug_frame
  17              		.bss
  18              		.align	2
  19              	pwm_backup:
  20 0000 00000000 		.space	5
  20      00
  21 0005 000000   		.section	.text.pwm_SaveConfig,"ax",%progbits
  22              		.align	2
  23              		.global	pwm_SaveConfig
  24              		.code	16
  25              		.thumb_func
  26              		.type	pwm_SaveConfig, %function
  27              	pwm_SaveConfig:
  28              	.LFB2:
  29              		.file 1 "Generated_Source\\PSoC4\\pwm_PM.c"
   1:Generated_Source\PSoC4/pwm_PM.c **** /*******************************************************************************
   2:Generated_Source\PSoC4/pwm_PM.c **** * File Name: pwm_PM.c
   3:Generated_Source\PSoC4/pwm_PM.c **** * Version 3.30
   4:Generated_Source\PSoC4/pwm_PM.c **** *
   5:Generated_Source\PSoC4/pwm_PM.c **** * Description:
   6:Generated_Source\PSoC4/pwm_PM.c **** *  This file provides the power management source code to API for the
   7:Generated_Source\PSoC4/pwm_PM.c **** *  PWM.
   8:Generated_Source\PSoC4/pwm_PM.c **** *
   9:Generated_Source\PSoC4/pwm_PM.c **** * Note:
  10:Generated_Source\PSoC4/pwm_PM.c **** *
  11:Generated_Source\PSoC4/pwm_PM.c **** ********************************************************************************
  12:Generated_Source\PSoC4/pwm_PM.c **** * Copyright 2008-2014, Cypress Semiconductor Corporation.  All rights reserved.
  13:Generated_Source\PSoC4/pwm_PM.c **** * You may use this file only in accordance with the license, terms, conditions,
  14:Generated_Source\PSoC4/pwm_PM.c **** * disclaimers, and limitations in the end user license agreement accompanying
  15:Generated_Source\PSoC4/pwm_PM.c **** * the software package with which this file was provided.
  16:Generated_Source\PSoC4/pwm_PM.c **** *******************************************************************************/
  17:Generated_Source\PSoC4/pwm_PM.c **** 
  18:Generated_Source\PSoC4/pwm_PM.c **** #include "pwm.h"
  19:Generated_Source\PSoC4/pwm_PM.c **** 
  20:Generated_Source\PSoC4/pwm_PM.c **** static pwm_backupStruct pwm_backup;
  21:Generated_Source\PSoC4/pwm_PM.c **** 
  22:Generated_Source\PSoC4/pwm_PM.c **** 
  23:Generated_Source\PSoC4/pwm_PM.c **** /*******************************************************************************
  24:Generated_Source\PSoC4/pwm_PM.c **** * Function Name: pwm_SaveConfig
  25:Generated_Source\PSoC4/pwm_PM.c **** ********************************************************************************
  26:Generated_Source\PSoC4/pwm_PM.c **** *
  27:Generated_Source\PSoC4/pwm_PM.c **** * Summary:
ARM GAS  C:\Users\Petro\AppData\Local\Temp\cc5UDY8E.s 			page 2


  28:Generated_Source\PSoC4/pwm_PM.c **** *  Saves the current user configuration of the component.
  29:Generated_Source\PSoC4/pwm_PM.c **** *
  30:Generated_Source\PSoC4/pwm_PM.c **** * Parameters:
  31:Generated_Source\PSoC4/pwm_PM.c **** *  None
  32:Generated_Source\PSoC4/pwm_PM.c **** *
  33:Generated_Source\PSoC4/pwm_PM.c **** * Return:
  34:Generated_Source\PSoC4/pwm_PM.c **** *  None
  35:Generated_Source\PSoC4/pwm_PM.c **** *
  36:Generated_Source\PSoC4/pwm_PM.c **** * Global variables:
  37:Generated_Source\PSoC4/pwm_PM.c **** *  pwm_backup:  Variables of this global structure are modified to
  38:Generated_Source\PSoC4/pwm_PM.c **** *  store the values of non retention configuration registers when Sleep() API is
  39:Generated_Source\PSoC4/pwm_PM.c **** *  called.
  40:Generated_Source\PSoC4/pwm_PM.c **** *
  41:Generated_Source\PSoC4/pwm_PM.c **** *******************************************************************************/
  42:Generated_Source\PSoC4/pwm_PM.c **** void pwm_SaveConfig(void) 
  43:Generated_Source\PSoC4/pwm_PM.c **** {
  30              		.loc 1 43 0
  31              		.cfi_startproc
  32 0000 80B5     		push	{r7, lr}
  33              		.cfi_def_cfa_offset 8
  34              		.cfi_offset 7, -8
  35              		.cfi_offset 14, -4
  36 0002 00AF     		add	r7, sp, #0
  37              		.cfi_def_cfa_register 7
  44:Generated_Source\PSoC4/pwm_PM.c **** 
  45:Generated_Source\PSoC4/pwm_PM.c ****     #if(!pwm_UsingFixedFunction)
  46:Generated_Source\PSoC4/pwm_PM.c ****         #if(!pwm_PWMModeIsCenterAligned)
  47:Generated_Source\PSoC4/pwm_PM.c ****             pwm_backup.PWMPeriod = pwm_ReadPeriod();
  38              		.loc 1 47 0
  39 0004 FFF7FEFF 		bl	pwm_ReadPeriod
  40 0008 031C     		mov	r3, r0
  41 000a 1A1C     		mov	r2, r3
  42 000c 0A4B     		ldr	r3, .L2
  43 000e 9A70     		strb	r2, [r3, #2]
  48:Generated_Source\PSoC4/pwm_PM.c ****         #endif /* (!pwm_PWMModeIsCenterAligned) */
  49:Generated_Source\PSoC4/pwm_PM.c ****         pwm_backup.PWMUdb = pwm_ReadCounter();
  44              		.loc 1 49 0
  45 0010 FFF7FEFF 		bl	pwm_ReadCounter
  46 0014 031C     		mov	r3, r0
  47 0016 1A1C     		mov	r2, r3
  48 0018 074B     		ldr	r3, .L2
  49 001a 5A70     		strb	r2, [r3, #1]
  50:Generated_Source\PSoC4/pwm_PM.c ****         #if (pwm_UseStatus)
  51:Generated_Source\PSoC4/pwm_PM.c ****             pwm_backup.InterruptMaskValue = pwm_STATUS_MASK;
  50              		.loc 1 51 0
  51 001c 074B     		ldr	r3, .L2+4
  52 001e 1B78     		ldrb	r3, [r3]
  53 0020 DAB2     		uxtb	r2, r3
  54 0022 054B     		ldr	r3, .L2
  55 0024 DA70     		strb	r2, [r3, #3]
  52:Generated_Source\PSoC4/pwm_PM.c ****         #endif /* (pwm_UseStatus) */
  53:Generated_Source\PSoC4/pwm_PM.c **** 
  54:Generated_Source\PSoC4/pwm_PM.c ****         #if(pwm_DeadBandMode == pwm__B_PWM__DBM_256_CLOCKS || \
  55:Generated_Source\PSoC4/pwm_PM.c ****             pwm_DeadBandMode == pwm__B_PWM__DBM_2_4_CLOCKS)
  56:Generated_Source\PSoC4/pwm_PM.c ****             pwm_backup.PWMdeadBandValue = pwm_ReadDeadTime();
  57:Generated_Source\PSoC4/pwm_PM.c ****         #endif /*  deadband count is either 2-4 clocks or 256 clocks */
  58:Generated_Source\PSoC4/pwm_PM.c **** 
ARM GAS  C:\Users\Petro\AppData\Local\Temp\cc5UDY8E.s 			page 3


  59:Generated_Source\PSoC4/pwm_PM.c ****         #if(pwm_KillModeMinTime)
  60:Generated_Source\PSoC4/pwm_PM.c ****              pwm_backup.PWMKillCounterPeriod = pwm_ReadKillTime();
  61:Generated_Source\PSoC4/pwm_PM.c ****         #endif /* (pwm_KillModeMinTime) */
  62:Generated_Source\PSoC4/pwm_PM.c **** 
  63:Generated_Source\PSoC4/pwm_PM.c ****         #if(pwm_UseControl)
  64:Generated_Source\PSoC4/pwm_PM.c ****             pwm_backup.PWMControlRegister = pwm_ReadControlRegister();
  56              		.loc 1 64 0
  57 0026 FFF7FEFF 		bl	pwm_ReadControlRegister
  58 002a 031C     		mov	r3, r0
  59 002c 1A1C     		mov	r2, r3
  60 002e 024B     		ldr	r3, .L2
  61 0030 1A71     		strb	r2, [r3, #4]
  65:Generated_Source\PSoC4/pwm_PM.c ****         #endif /* (pwm_UseControl) */
  66:Generated_Source\PSoC4/pwm_PM.c ****     #endif  /* (!pwm_UsingFixedFunction) */
  67:Generated_Source\PSoC4/pwm_PM.c **** }
  62              		.loc 1 67 0
  63 0032 BD46     		mov	sp, r7
  64              		@ sp needed
  65 0034 80BD     		pop	{r7, pc}
  66              	.L3:
  67 0036 C046     		.align	2
  68              	.L2:
  69 0038 00000000 		.word	pwm_backup
  70 003c 80000F40 		.word	1074724992
  71              		.cfi_endproc
  72              	.LFE2:
  73              		.size	pwm_SaveConfig, .-pwm_SaveConfig
  74              		.section	.text.pwm_RestoreConfig,"ax",%progbits
  75              		.align	2
  76              		.global	pwm_RestoreConfig
  77              		.code	16
  78              		.thumb_func
  79              		.type	pwm_RestoreConfig, %function
  80              	pwm_RestoreConfig:
  81              	.LFB3:
  68:Generated_Source\PSoC4/pwm_PM.c **** 
  69:Generated_Source\PSoC4/pwm_PM.c **** 
  70:Generated_Source\PSoC4/pwm_PM.c **** /*******************************************************************************
  71:Generated_Source\PSoC4/pwm_PM.c **** * Function Name: pwm_RestoreConfig
  72:Generated_Source\PSoC4/pwm_PM.c **** ********************************************************************************
  73:Generated_Source\PSoC4/pwm_PM.c **** *
  74:Generated_Source\PSoC4/pwm_PM.c **** * Summary:
  75:Generated_Source\PSoC4/pwm_PM.c **** *  Restores the current user configuration of the component.
  76:Generated_Source\PSoC4/pwm_PM.c **** *
  77:Generated_Source\PSoC4/pwm_PM.c **** * Parameters:
  78:Generated_Source\PSoC4/pwm_PM.c **** *  None
  79:Generated_Source\PSoC4/pwm_PM.c **** *
  80:Generated_Source\PSoC4/pwm_PM.c **** * Return:
  81:Generated_Source\PSoC4/pwm_PM.c **** *  None
  82:Generated_Source\PSoC4/pwm_PM.c **** *
  83:Generated_Source\PSoC4/pwm_PM.c **** * Global variables:
  84:Generated_Source\PSoC4/pwm_PM.c **** *  pwm_backup:  Variables of this global structure are used to
  85:Generated_Source\PSoC4/pwm_PM.c **** *  restore the values of non retention registers on wakeup from sleep mode.
  86:Generated_Source\PSoC4/pwm_PM.c **** *
  87:Generated_Source\PSoC4/pwm_PM.c **** *******************************************************************************/
  88:Generated_Source\PSoC4/pwm_PM.c **** void pwm_RestoreConfig(void) 
  89:Generated_Source\PSoC4/pwm_PM.c **** {
ARM GAS  C:\Users\Petro\AppData\Local\Temp\cc5UDY8E.s 			page 4


  82              		.loc 1 89 0
  83              		.cfi_startproc
  84 0000 80B5     		push	{r7, lr}
  85              		.cfi_def_cfa_offset 8
  86              		.cfi_offset 7, -8
  87              		.cfi_offset 14, -4
  88 0002 00AF     		add	r7, sp, #0
  89              		.cfi_def_cfa_register 7
  90:Generated_Source\PSoC4/pwm_PM.c ****         #if(!pwm_UsingFixedFunction)
  91:Generated_Source\PSoC4/pwm_PM.c ****             #if(!pwm_PWMModeIsCenterAligned)
  92:Generated_Source\PSoC4/pwm_PM.c ****                 pwm_WritePeriod(pwm_backup.PWMPeriod);
  90              		.loc 1 92 0
  91 0004 0A4B     		ldr	r3, .L5
  92 0006 9B78     		ldrb	r3, [r3, #2]
  93 0008 181C     		mov	r0, r3
  94 000a FFF7FEFF 		bl	pwm_WritePeriod
  93:Generated_Source\PSoC4/pwm_PM.c ****             #endif /* (!pwm_PWMModeIsCenterAligned) */
  94:Generated_Source\PSoC4/pwm_PM.c **** 
  95:Generated_Source\PSoC4/pwm_PM.c ****             pwm_WriteCounter(pwm_backup.PWMUdb);
  95              		.loc 1 95 0
  96 000e 084B     		ldr	r3, .L5
  97 0010 5B78     		ldrb	r3, [r3, #1]
  98 0012 181C     		mov	r0, r3
  99 0014 FFF7FEFF 		bl	pwm_WriteCounter
  96:Generated_Source\PSoC4/pwm_PM.c **** 
  97:Generated_Source\PSoC4/pwm_PM.c ****             #if (pwm_UseStatus)
  98:Generated_Source\PSoC4/pwm_PM.c ****                 pwm_STATUS_MASK = pwm_backup.InterruptMaskValue;
 100              		.loc 1 98 0
 101 0018 064A     		ldr	r2, .L5+4
 102 001a 054B     		ldr	r3, .L5
 103 001c DB78     		ldrb	r3, [r3, #3]
 104 001e 1370     		strb	r3, [r2]
  99:Generated_Source\PSoC4/pwm_PM.c ****             #endif /* (pwm_UseStatus) */
 100:Generated_Source\PSoC4/pwm_PM.c **** 
 101:Generated_Source\PSoC4/pwm_PM.c ****             #if(pwm_DeadBandMode == pwm__B_PWM__DBM_256_CLOCKS || \
 102:Generated_Source\PSoC4/pwm_PM.c ****                 pwm_DeadBandMode == pwm__B_PWM__DBM_2_4_CLOCKS)
 103:Generated_Source\PSoC4/pwm_PM.c ****                 pwm_WriteDeadTime(pwm_backup.PWMdeadBandValue);
 104:Generated_Source\PSoC4/pwm_PM.c ****             #endif /* deadband count is either 2-4 clocks or 256 clocks */
 105:Generated_Source\PSoC4/pwm_PM.c **** 
 106:Generated_Source\PSoC4/pwm_PM.c ****             #if(pwm_KillModeMinTime)
 107:Generated_Source\PSoC4/pwm_PM.c ****                 pwm_WriteKillTime(pwm_backup.PWMKillCounterPeriod);
 108:Generated_Source\PSoC4/pwm_PM.c ****             #endif /* (pwm_KillModeMinTime) */
 109:Generated_Source\PSoC4/pwm_PM.c **** 
 110:Generated_Source\PSoC4/pwm_PM.c ****             #if(pwm_UseControl)
 111:Generated_Source\PSoC4/pwm_PM.c ****                 pwm_WriteControlRegister(pwm_backup.PWMControlRegister);
 105              		.loc 1 111 0
 106 0020 034B     		ldr	r3, .L5
 107 0022 1B79     		ldrb	r3, [r3, #4]
 108 0024 181C     		mov	r0, r3
 109 0026 FFF7FEFF 		bl	pwm_WriteControlRegister
 112:Generated_Source\PSoC4/pwm_PM.c ****             #endif /* (pwm_UseControl) */
 113:Generated_Source\PSoC4/pwm_PM.c ****         #endif  /* (!pwm_UsingFixedFunction) */
 114:Generated_Source\PSoC4/pwm_PM.c ****     }
 110              		.loc 1 114 0
 111 002a BD46     		mov	sp, r7
 112              		@ sp needed
 113 002c 80BD     		pop	{r7, pc}
ARM GAS  C:\Users\Petro\AppData\Local\Temp\cc5UDY8E.s 			page 5


 114              	.L6:
 115 002e C046     		.align	2
 116              	.L5:
 117 0030 00000000 		.word	pwm_backup
 118 0034 80000F40 		.word	1074724992
 119              		.cfi_endproc
 120              	.LFE3:
 121              		.size	pwm_RestoreConfig, .-pwm_RestoreConfig
 122              		.section	.text.pwm_Sleep,"ax",%progbits
 123              		.align	2
 124              		.global	pwm_Sleep
 125              		.code	16
 126              		.thumb_func
 127              		.type	pwm_Sleep, %function
 128              	pwm_Sleep:
 129              	.LFB4:
 115:Generated_Source\PSoC4/pwm_PM.c **** 
 116:Generated_Source\PSoC4/pwm_PM.c **** 
 117:Generated_Source\PSoC4/pwm_PM.c **** /*******************************************************************************
 118:Generated_Source\PSoC4/pwm_PM.c **** * Function Name: pwm_Sleep
 119:Generated_Source\PSoC4/pwm_PM.c **** ********************************************************************************
 120:Generated_Source\PSoC4/pwm_PM.c **** *
 121:Generated_Source\PSoC4/pwm_PM.c **** * Summary:
 122:Generated_Source\PSoC4/pwm_PM.c **** *  Disables block's operation and saves the user configuration. Should be called
 123:Generated_Source\PSoC4/pwm_PM.c **** *  just prior to entering sleep.
 124:Generated_Source\PSoC4/pwm_PM.c **** *
 125:Generated_Source\PSoC4/pwm_PM.c **** * Parameters:
 126:Generated_Source\PSoC4/pwm_PM.c **** *  None
 127:Generated_Source\PSoC4/pwm_PM.c **** *
 128:Generated_Source\PSoC4/pwm_PM.c **** * Return:
 129:Generated_Source\PSoC4/pwm_PM.c **** *  None
 130:Generated_Source\PSoC4/pwm_PM.c **** *
 131:Generated_Source\PSoC4/pwm_PM.c **** * Global variables:
 132:Generated_Source\PSoC4/pwm_PM.c **** *  pwm_backup.PWMEnableState:  Is modified depending on the enable
 133:Generated_Source\PSoC4/pwm_PM.c **** *  state of the block before entering sleep mode.
 134:Generated_Source\PSoC4/pwm_PM.c **** *
 135:Generated_Source\PSoC4/pwm_PM.c **** *******************************************************************************/
 136:Generated_Source\PSoC4/pwm_PM.c **** void pwm_Sleep(void) 
 137:Generated_Source\PSoC4/pwm_PM.c **** {
 130              		.loc 1 137 0
 131              		.cfi_startproc
 132 0000 80B5     		push	{r7, lr}
 133              		.cfi_def_cfa_offset 8
 134              		.cfi_offset 7, -8
 135              		.cfi_offset 14, -4
 136 0002 00AF     		add	r7, sp, #0
 137              		.cfi_def_cfa_register 7
 138:Generated_Source\PSoC4/pwm_PM.c ****     #if(pwm_UseControl)
 139:Generated_Source\PSoC4/pwm_PM.c ****         if(pwm_CTRL_ENABLE == (pwm_CONTROL & pwm_CTRL_ENABLE))
 138              		.loc 1 139 0
 139 0004 094B     		ldr	r3, .L10
 140 0006 1B78     		ldrb	r3, [r3]
 141 0008 DBB2     		uxtb	r3, r3
 142 000a DBB2     		uxtb	r3, r3
 143 000c 5BB2     		sxtb	r3, r3
 144 000e 002B     		cmp	r3, #0
 145 0010 03DA     		bge	.L8
ARM GAS  C:\Users\Petro\AppData\Local\Temp\cc5UDY8E.s 			page 6


 140:Generated_Source\PSoC4/pwm_PM.c ****         {
 141:Generated_Source\PSoC4/pwm_PM.c ****             /*Component is enabled */
 142:Generated_Source\PSoC4/pwm_PM.c ****             pwm_backup.PWMEnableState = 1u;
 146              		.loc 1 142 0
 147 0012 074B     		ldr	r3, .L10+4
 148 0014 0122     		mov	r2, #1
 149 0016 1A70     		strb	r2, [r3]
 150 0018 02E0     		b	.L9
 151              	.L8:
 143:Generated_Source\PSoC4/pwm_PM.c ****         }
 144:Generated_Source\PSoC4/pwm_PM.c ****         else
 145:Generated_Source\PSoC4/pwm_PM.c ****         {
 146:Generated_Source\PSoC4/pwm_PM.c ****             /* Component is disabled */
 147:Generated_Source\PSoC4/pwm_PM.c ****             pwm_backup.PWMEnableState = 0u;
 152              		.loc 1 147 0
 153 001a 054B     		ldr	r3, .L10+4
 154 001c 0022     		mov	r2, #0
 155 001e 1A70     		strb	r2, [r3]
 156              	.L9:
 148:Generated_Source\PSoC4/pwm_PM.c ****         }
 149:Generated_Source\PSoC4/pwm_PM.c ****     #endif /* (pwm_UseControl) */
 150:Generated_Source\PSoC4/pwm_PM.c **** 
 151:Generated_Source\PSoC4/pwm_PM.c ****     /* Stop component */
 152:Generated_Source\PSoC4/pwm_PM.c ****     pwm_Stop();
 157              		.loc 1 152 0
 158 0020 FFF7FEFF 		bl	pwm_Stop
 153:Generated_Source\PSoC4/pwm_PM.c **** 
 154:Generated_Source\PSoC4/pwm_PM.c ****     /* Save registers configuration */
 155:Generated_Source\PSoC4/pwm_PM.c ****     pwm_SaveConfig();
 159              		.loc 1 155 0
 160 0024 FFF7FEFF 		bl	pwm_SaveConfig
 156:Generated_Source\PSoC4/pwm_PM.c **** }
 161              		.loc 1 156 0
 162 0028 BD46     		mov	sp, r7
 163              		@ sp needed
 164 002a 80BD     		pop	{r7, pc}
 165              	.L11:
 166              		.align	2
 167              	.L10:
 168 002c 70000F40 		.word	1074724976
 169 0030 00000000 		.word	pwm_backup
 170              		.cfi_endproc
 171              	.LFE4:
 172              		.size	pwm_Sleep, .-pwm_Sleep
 173              		.section	.text.pwm_Wakeup,"ax",%progbits
 174              		.align	2
 175              		.global	pwm_Wakeup
 176              		.code	16
 177              		.thumb_func
 178              		.type	pwm_Wakeup, %function
 179              	pwm_Wakeup:
 180              	.LFB5:
 157:Generated_Source\PSoC4/pwm_PM.c **** 
 158:Generated_Source\PSoC4/pwm_PM.c **** 
 159:Generated_Source\PSoC4/pwm_PM.c **** /*******************************************************************************
 160:Generated_Source\PSoC4/pwm_PM.c **** * Function Name: pwm_Wakeup
 161:Generated_Source\PSoC4/pwm_PM.c **** ********************************************************************************
ARM GAS  C:\Users\Petro\AppData\Local\Temp\cc5UDY8E.s 			page 7


 162:Generated_Source\PSoC4/pwm_PM.c **** *
 163:Generated_Source\PSoC4/pwm_PM.c **** * Summary:
 164:Generated_Source\PSoC4/pwm_PM.c **** *  Restores and enables the user configuration. Should be called just after
 165:Generated_Source\PSoC4/pwm_PM.c **** *  awaking from sleep.
 166:Generated_Source\PSoC4/pwm_PM.c **** *
 167:Generated_Source\PSoC4/pwm_PM.c **** * Parameters:
 168:Generated_Source\PSoC4/pwm_PM.c **** *  None
 169:Generated_Source\PSoC4/pwm_PM.c **** *
 170:Generated_Source\PSoC4/pwm_PM.c **** * Return:
 171:Generated_Source\PSoC4/pwm_PM.c **** *  None
 172:Generated_Source\PSoC4/pwm_PM.c **** *
 173:Generated_Source\PSoC4/pwm_PM.c **** * Global variables:
 174:Generated_Source\PSoC4/pwm_PM.c **** *  pwm_backup.pwmEnable:  Is used to restore the enable state of
 175:Generated_Source\PSoC4/pwm_PM.c **** *  block on wakeup from sleep mode.
 176:Generated_Source\PSoC4/pwm_PM.c **** *
 177:Generated_Source\PSoC4/pwm_PM.c **** *******************************************************************************/
 178:Generated_Source\PSoC4/pwm_PM.c **** void pwm_Wakeup(void) 
 179:Generated_Source\PSoC4/pwm_PM.c **** {
 181              		.loc 1 179 0
 182              		.cfi_startproc
 183 0000 80B5     		push	{r7, lr}
 184              		.cfi_def_cfa_offset 8
 185              		.cfi_offset 7, -8
 186              		.cfi_offset 14, -4
 187 0002 00AF     		add	r7, sp, #0
 188              		.cfi_def_cfa_register 7
 180:Generated_Source\PSoC4/pwm_PM.c ****      /* Restore registers values */
 181:Generated_Source\PSoC4/pwm_PM.c ****     pwm_RestoreConfig();
 189              		.loc 1 181 0
 190 0004 FFF7FEFF 		bl	pwm_RestoreConfig
 182:Generated_Source\PSoC4/pwm_PM.c **** 
 183:Generated_Source\PSoC4/pwm_PM.c ****     if(pwm_backup.PWMEnableState != 0u)
 191              		.loc 1 183 0
 192 0008 034B     		ldr	r3, .L14
 193 000a 1B78     		ldrb	r3, [r3]
 194 000c 002B     		cmp	r3, #0
 195 000e 01D0     		beq	.L12
 184:Generated_Source\PSoC4/pwm_PM.c ****     {
 185:Generated_Source\PSoC4/pwm_PM.c ****         /* Enable component's operation */
 186:Generated_Source\PSoC4/pwm_PM.c ****         pwm_Enable();
 196              		.loc 1 186 0
 197 0010 FFF7FEFF 		bl	pwm_Enable
 198              	.L12:
 187:Generated_Source\PSoC4/pwm_PM.c ****     } /* Do nothing if component's block was disabled before */
 188:Generated_Source\PSoC4/pwm_PM.c **** 
 189:Generated_Source\PSoC4/pwm_PM.c **** }
 199              		.loc 1 189 0
 200 0014 BD46     		mov	sp, r7
 201              		@ sp needed
 202 0016 80BD     		pop	{r7, pc}
 203              	.L15:
 204              		.align	2
 205              	.L14:
 206 0018 00000000 		.word	pwm_backup
 207              		.cfi_endproc
 208              	.LFE5:
 209              		.size	pwm_Wakeup, .-pwm_Wakeup
ARM GAS  C:\Users\Petro\AppData\Local\Temp\cc5UDY8E.s 			page 8


 210              		.text
 211              	.Letext0:
 212              		.file 2 "Generated_Source\\PSoC4\\cytypes.h"
 213              		.file 3 "Generated_Source\\PSoC4\\pwm.h"