ARM GAS  C:\Users\Petro\AppData\Local\Temp\ccontaDt.s 			page 1


   1              		.cpu cortex-m0
   2              		.fpu softvfp
   3              		.eabi_attribute 20, 1
   4              		.eabi_attribute 21, 1
   5              		.eabi_attribute 23, 3
   6              		.eabi_attribute 24, 1
   7              		.eabi_attribute 25, 1
   8              		.eabi_attribute 26, 1
   9              		.eabi_attribute 30, 1
  10              		.eabi_attribute 34, 0
  11              		.eabi_attribute 18, 4
  12              		.code	16
  13              		.file	"main.c"
  14              		.text
  15              	.Ltext0:
  16              		.cfi_sections	.debug_frame
  17              		.section	.text.finishHandler,"ax",%progbits
  18              		.align	2
  19              		.global	finishHandler
  20              		.code	16
  21              		.thumb_func
  22              		.type	finishHandler, %function
  23              	finishHandler:
  24              	.LFB34:
  25              		.file 1 ".\\main.c"
   1:.\main.c      **** #include <project.h>
   2:.\main.c      **** #include <stdio.h>          
   3:.\main.c      **** #include <string.h>
   4:.\main.c      **** #include <stdbool.h>
   5:.\main.c      **** 
   6:.\main.c      **** /* max number skier */
   7:.\main.c      **** #define MAXSKIER 9       
   8:.\main.c      **** 
   9:.\main.c      **** /*Commands*/
  10:.\main.c      **** #define COMMAND_START       's'
  11:.\main.c      **** #define COMMAND_CANCEL      'c'
  12:.\main.c      **** #define COMMAND_READ        'r'
  13:.\main.c      **** #define COMMAND_ST_CONNECT  'q'
  14:.\main.c      **** #define COMMAND_OK          "OK\n\r"
  15:.\main.c      **** 
  16:.\main.c      **** /* Structure for have current skier time */
  17:.\main.c      **** struct time{           
  18:.\main.c      ****     uint16_t hour;
  19:.\main.c      ****     uint16_t min;
  20:.\main.c      ****     uint16_t sec;
  21:.\main.c      ****     uint16_t msec;
  22:.\main.c      **** };
  23:.\main.c      **** 
  24:.\main.c      **** /* Structure for have start, finish 
  25:.\main.c      **** *   and rezult  skier time*/
  26:.\main.c      **** struct SKIERRESULT{
  27:.\main.c      ****     struct time start;
  28:.\main.c      ****     struct time finish;
  29:.\main.c      ****     struct time rezult;
  30:.\main.c      **** }skierRezult[MAXSKIER];
  31:.\main.c      **** 
  32:.\main.c      **** /*struct for real time*/
ARM GAS  C:\Users\Petro\AppData\Local\Temp\ccontaDt.s 			page 2


  33:.\main.c      **** struct time RealTime;
  34:.\main.c      **** 
  35:.\main.c      **** 
  36:.\main.c      **** void ShowTime(int maxSkier,struct SKIERRESULT skierTime[]);       
  37:.\main.c      **** void LedIndication(void);  
  38:.\main.c      **** void deletTimeSkier(int number, struct SKIERRESULT skierTime[]);
  39:.\main.c      **** void deletTimeSkier(int numSkier, struct SKIERRESULT skier[]);
  40:.\main.c      **** void quantifyTimeRezult(struct SKIERRESULT *skierTime);
  41:.\main.c      **** 
  42:.\main.c      **** /* flags status */
  43:.\main.c      **** /* skiers on track */
  44:.\main.c      **** bool onTrack = false;
  45:.\main.c      **** /* request read time skiers  */
  46:.\main.c      **** bool requestRead = false;
  47:.\main.c      **** 
  48:.\main.c      **** /*press button finish*/
  49:.\main.c      **** bool pressFinish = false;
  50:.\main.c      **** 
  51:.\main.c      **** /*number sportsmen last started and finished*/
  52:.\main.c      **** int last_started = 0;
  53:.\main.c      **** int last_finished = 0;
  54:.\main.c      **** 
  55:.\main.c      **** /*number free slots*/
  56:.\main.c      **** int free_slots = 0;
  57:.\main.c      **** /*the number of skiers who finished*/
  58:.\main.c      **** int finish_skier = 0;
  59:.\main.c      **** 
  60:.\main.c      **** /*for read number skiers for add or delet*/
  61:.\main.c      **** char lastCommand;  
  62:.\main.c      ****         
  63:.\main.c      **** 
  64:.\main.c      **** 
  65:.\main.c      **** /*interrupt for press finish button*/
  66:.\main.c      **** CY_ISR(finishHandler)
  67:.\main.c      **** {       
  26              		.loc 1 67 0
  27              		.cfi_startproc
  28 0000 70B5     		push	{r4, r5, r6, lr}
  29              		.cfi_def_cfa_offset 16
  30              		.cfi_offset 4, -16
  31              		.cfi_offset 5, -12
  32              		.cfi_offset 6, -8
  33              		.cfi_offset 14, -4
  68:.\main.c      ****     /*kopi real time in finished skier rezult*/
  69:.\main.c      ****     if(last_finished < last_started){
  34              		.loc 1 69 0
  35 0002 0F4B     		ldr	r3, .L3
  36 0004 1C68     		ldr	r4, [r3]
  37 0006 5B68     		ldr	r3, [r3, #4]
  38 0008 9C42     		cmp	r4, r3
  39 000a 15DA     		bge	.L2
  70:.\main.c      ****         skierRezult[last_finished].finish= RealTime;
  40              		.loc 1 70 0
  41 000c 0D4D     		ldr	r5, .L3+4
  42 000e 6600     		lsl	r6, r4, #1
  43 0010 3019     		add	r0, r6, r4
  44 0012 C000     		lsl	r0, r0, #3
ARM GAS  C:\Users\Petro\AppData\Local\Temp\ccontaDt.s 			page 3


  45 0014 2818     		add	r0, r5, r0
  46 0016 0830     		add	r0, r0, #8
  47 0018 0B49     		ldr	r1, .L3+8
  48 001a 0822     		mov	r2, #8
  49 001c FFF7FEFF 		bl	memcpy
  50              	.LVL0:
  71:.\main.c      ****         skierRezult[last_finished].finish.msec = timer_ReadCounter();
  51              		.loc 1 71 0
  52 0020 FFF7FEFF 		bl	timer_ReadCounter
  53              	.LVL1:
  54 0024 3419     		add	r4, r6, r4
  55 0026 E400     		lsl	r4, r4, #3
  56 0028 2C19     		add	r4, r5, r4
  57 002a E081     		strh	r0, [r4, #14]
  72:.\main.c      ****         
  73:.\main.c      ****         /*increment last skier finished*/
  74:.\main.c      ****         last_finished++;
  58              		.loc 1 74 0
  59 002c 044B     		ldr	r3, .L3
  60 002e 1A68     		ldr	r2, [r3]
  61 0030 0132     		add	r2, r2, #1
  62 0032 1A60     		str	r2, [r3]
  75:.\main.c      ****         
  76:.\main.c      ****         /*button pressed flag*/
  77:.\main.c      ****         pressFinish = true;
  63              		.loc 1 77 0
  64 0034 0122     		mov	r2, #1
  65 0036 1A72     		strb	r2, [r3, #8]
  66              	.L2:
  78:.\main.c      ****     }
  79:.\main.c      ****     
  80:.\main.c      ****     finish_ClearInterrupt();
  67              		.loc 1 80 0
  68 0038 FFF7FEFF 		bl	finish_ClearInterrupt
  69              	.LVL2:
  81:.\main.c      **** }
  70              		.loc 1 81 0
  71              		@ sp needed
  72 003c 70BD     		pop	{r4, r5, r6, pc}
  73              	.L4:
  74 003e C046     		.align	2
  75              	.L3:
  76 0040 00000000 		.word	.LANCHOR0
  77 0044 00000000 		.word	skierRezult
  78 0048 00000000 		.word	RealTime
  79              		.cfi_endproc
  80              	.LFE34:
  81              		.size	finishHandler, .-finishHandler
  82              		.section	.text.timerHandler,"ax",%progbits
  83              		.align	2
  84              		.global	timerHandler
  85              		.code	16
  86              		.thumb_func
  87              		.type	timerHandler, %function
  88              	timerHandler:
  89              	.LFB35:
  82:.\main.c      **** 
ARM GAS  C:\Users\Petro\AppData\Local\Temp\ccontaDt.s 			page 4


  83:.\main.c      **** /*interrupt for counter timer */
  84:.\main.c      **** CY_ISR(timerHandler)
  85:.\main.c      **** {   
  90              		.loc 1 85 0
  91              		.cfi_startproc
  92 0000 08B5     		push	{r3, lr}
  93              		.cfi_def_cfa_offset 8
  94              		.cfi_offset 3, -8
  95              		.cfi_offset 14, -4
  86:.\main.c      ****     /*if run stopwach, timer start*/
  87:.\main.c      ****     if(onTrack){
  96              		.loc 1 87 0
  97 0002 0F4B     		ldr	r3, .L7
  98 0004 5B7A     		ldrb	r3, [r3, #9]
  99 0006 002B     		cmp	r3, #0
 100 0008 16D0     		beq	.L6
  88:.\main.c      ****         if (++RealTime.sec==59){
 101              		.loc 1 88 0
 102 000a 0E4A     		ldr	r2, .L7+4
 103 000c 9388     		ldrh	r3, [r2, #4]
 104 000e 0133     		add	r3, r3, #1
 105 0010 9BB2     		uxth	r3, r3
 106 0012 9380     		strh	r3, [r2, #4]
 107 0014 3B2B     		cmp	r3, #59
 108 0016 0FD1     		bne	.L6
  89:.\main.c      ****             RealTime.sec = 0;   
 109              		.loc 1 89 0
 110 0018 0023     		mov	r3, #0
 111 001a 9380     		strh	r3, [r2, #4]
  90:.\main.c      ****             if (++RealTime.min==59){
 112              		.loc 1 90 0
 113 001c 5388     		ldrh	r3, [r2, #2]
 114 001e 0133     		add	r3, r3, #1
 115 0020 9BB2     		uxth	r3, r3
 116 0022 5380     		strh	r3, [r2, #2]
 117 0024 3B2B     		cmp	r3, #59
 118 0026 07D1     		bne	.L6
  91:.\main.c      ****                 RealTime.min = 0;    
 119              		.loc 1 91 0
 120 0028 131C     		mov	r3, r2
 121 002a 0022     		mov	r2, #0
 122 002c 5A80     		strh	r2, [r3, #2]
  92:.\main.c      ****                 if (RealTime.hour==24) 
 123              		.loc 1 92 0
 124 002e 1B88     		ldrh	r3, [r3]
 125 0030 182B     		cmp	r3, #24
 126 0032 01D1     		bne	.L6
  93:.\main.c      ****                     RealTime.hour = 0;   
 127              		.loc 1 93 0
 128 0034 034B     		ldr	r3, .L7+4
 129 0036 1A80     		strh	r2, [r3]
 130              	.L6:
  94:.\main.c      ****             }  
  95:.\main.c      ****         }
  96:.\main.c      ****     }
  97:.\main.c      ****     
  98:.\main.c      ****     timer_ClearInterrupt(timer_INTR_MASK_CC_MATCH); 
ARM GAS  C:\Users\Petro\AppData\Local\Temp\ccontaDt.s 			page 5


 131              		.loc 1 98 0
 132 0038 0220     		mov	r0, #2
 133 003a FFF7FEFF 		bl	timer_ClearInterrupt
 134              	.LVL3:
  99:.\main.c      **** }
 135              		.loc 1 99 0
 136              		@ sp needed
 137 003e 08BD     		pop	{r3, pc}
 138              	.L8:
 139              		.align	2
 140              	.L7:
 141 0040 00000000 		.word	.LANCHOR0
 142 0044 00000000 		.word	RealTime
 143              		.cfi_endproc
 144              	.LFE35:
 145              		.size	timerHandler, .-timerHandler
 146              		.section	.text.quantifyTimeRezult,"ax",%progbits
 147              		.align	2
 148              		.global	quantifyTimeRezult
 149              		.code	16
 150              		.thumb_func
 151              		.type	quantifyTimeRezult, %function
 152              	quantifyTimeRezult:
 153              	.LFB38:
 100:.\main.c      **** 
 101:.\main.c      **** /*interrupt for input simbol from xbee*/
 102:.\main.c      **** CY_ISR(xbeeHandler)
 103:.\main.c      **** {
 104:.\main.c      ****     char input = xbee_GetChar();
 105:.\main.c      ****     
 106:.\main.c      ****     switch (input){
 107:.\main.c      ****         case COMMAND_START:       
 108:.\main.c      ****             RealTime.msec = timer_ReadCounter();
 109:.\main.c      ****             skierRezult[last_started].start = RealTime;
 110:.\main.c      ****             
 111:.\main.c      ****             /*command accepted*/
 112:.\main.c      ****             xbee_PutString(COMMAND_OK);
 113:.\main.c      ****             onTrack = true;
 114:.\main.c      ****             last_started++;
 115:.\main.c      ****             break;
 116:.\main.c      ****         case COMMAND_CANCEL:
 117:.\main.c      ****             /*command accepted*/
 118:.\main.c      ****             xbee_PutString(COMMAND_OK);
 119:.\main.c      ****             break;
 120:.\main.c      ****         case COMMAND_READ:
 121:.\main.c      ****             requestRead = true;
 122:.\main.c      ****             break;
 123:.\main.c      ****         case COMMAND_ST_CONNECT:
 124:.\main.c      ****             /*command accepted*/
 125:.\main.c      ****             xbee_PutString(COMMAND_OK);
 126:.\main.c      ****             break;
 127:.\main.c      ****         default:
 128:.\main.c      ****             /*delet number skier*/
 129:.\main.c      ****             if(lastCommand == COMMAND_CANCEL)            
 130:.\main.c      ****                     deletTimeSkier((input-'0'),skierRezult);
 131:.\main.c      ****             break;       
 132:.\main.c      ****     }
ARM GAS  C:\Users\Petro\AppData\Local\Temp\ccontaDt.s 			page 6


 133:.\main.c      ****     lastCommand = input;
 134:.\main.c      **** }
 135:.\main.c      **** 
 136:.\main.c      **** 
 137:.\main.c      **** int main()
 138:.\main.c      **** {
 139:.\main.c      ****     CyGlobalIntEnable; /* Enable global interrupts. */
 140:.\main.c      ****     timer_Start();
 141:.\main.c      ****     xbee_Start();
 142:.\main.c      **** 
 143:.\main.c      ****     isr_finish_StartEx(finishHandler);      
 144:.\main.c      ****     isr_timer_StartEx(timerHandler);     
 145:.\main.c      ****     isr_xbee_StartEx(xbeeHandler);        
 146:.\main.c      ****       
 147:.\main.c      ****     for(;;)
 148:.\main.c      ****     {          
 149:.\main.c      ****         /*check skiers on the track*/
 150:.\main.c      ****         if(last_finished == last_started)
 151:.\main.c      ****             onTrack = false;   
 152:.\main.c      ****         if(onTrack) 
 153:.\main.c      ****             LedIndication();
 154:.\main.c      ****         /*if incomming command read*/
 155:.\main.c      ****         if(requestRead){
 156:.\main.c      ****             ShowTime(MAXSKIER,skierRezult);
 157:.\main.c      ****             requestRead = false;
 158:.\main.c      ****         }
 159:.\main.c      ****         
 160:.\main.c      ****         if(pressFinish){
 161:.\main.c      ****             quantifyTimeRezult(&skierRezult[last_finished-1]);
 162:.\main.c      ****             pressFinish = false;
 163:.\main.c      ****         }
 164:.\main.c      ****         
 165:.\main.c      ****         CyDelay(1000);
 166:.\main.c      ****     }
 167:.\main.c      **** }
 168:.\main.c      **** 
 169:.\main.c      **** 
 170:.\main.c      **** /*******************************************************
 171:.\main.c      **** * Function name: quantifyTimeRezult
 172:.\main.c      **** *
 173:.\main.c      **** * Function write rezult subtraction between start and finish
 174:.\main.c      **** * 
 175:.\main.c      **** * Parameters:
 176:.\main.c      **** * skierTime - struct from time skier
 177:.\main.c      **** *******************************************************/
 178:.\main.c      **** void quantifyTimeRezult(struct SKIERRESULT *skierTime)
 179:.\main.c      **** {
 154              		.loc 1 179 0
 155              		.cfi_startproc
 156              	.LVL4:
 180:.\main.c      ****     int rezult;
 181:.\main.c      ****     int negative = 0;
 182:.\main.c      ****        
 183:.\main.c      ****     rezult = skierTime->finish.msec - skierTime->start.msec;
 157              		.loc 1 183 0
 158 0000 C389     		ldrh	r3, [r0, #14]
 159 0002 C288     		ldrh	r2, [r0, #6]
ARM GAS  C:\Users\Petro\AppData\Local\Temp\ccontaDt.s 			page 7


 160 0004 9A1A     		sub	r2, r3, r2
 161              	.LVL5:
 184:.\main.c      ****     if(rezult < 0){
 162              		.loc 1 184 0
 163 0006 06D5     		bpl	.L16
 185:.\main.c      ****         rezult =1000+rezult;
 164              		.loc 1 185 0
 165 0008 FA23     		mov	r3, #250
 166 000a 9B00     		lsl	r3, r3, #2
 167 000c 9C46     		mov	ip, r3
 168 000e 6244     		add	r2, r2, ip
 169              	.LVL6:
 186:.\main.c      ****         negative = -1;
 170              		.loc 1 186 0
 171 0010 0121     		mov	r1, #1
 172 0012 4942     		neg	r1, r1
 173 0014 00E0     		b	.L10
 174              	.LVL7:
 175              	.L16:
 181:.\main.c      ****        
 176              		.loc 1 181 0
 177 0016 0021     		mov	r1, #0
 178              	.LVL8:
 179              	.L10:
 187:.\main.c      ****     }
 188:.\main.c      ****     skierTime->rezult.msec = rezult;
 180              		.loc 1 188 0
 181 0018 C282     		strh	r2, [r0, #22]
 189:.\main.c      ****     
 190:.\main.c      ****     rezult = skierTime->finish.sec - skierTime->start.sec;
 182              		.loc 1 190 0
 183 001a 8289     		ldrh	r2, [r0, #12]
 184              	.LVL9:
 185 001c 8388     		ldrh	r3, [r0, #4]
 186 001e D31A     		sub	r3, r2, r3
 187              	.LVL10:
 191:.\main.c      ****     if(rezult < 0){
 188              		.loc 1 191 0
 189 0020 04D5     		bpl	.L11
 192:.\main.c      ****         rezult = 60+rezult+negative; 
 190              		.loc 1 192 0
 191 0022 3C33     		add	r3, r3, #60
 192              	.LVL11:
 193 0024 5B18     		add	r3, r3, r1
 194              	.LVL12:
 193:.\main.c      ****         negative = -1;
 195              		.loc 1 193 0
 196 0026 0121     		mov	r1, #1
 197 0028 4942     		neg	r1, r1
 198 002a 01E0     		b	.L12
 199              	.LVL13:
 200              	.L11:
 194:.\main.c      ****     }
 195:.\main.c      ****     else {
 196:.\main.c      ****         rezult = rezult+negative;
 201              		.loc 1 196 0
 202 002c 5B18     		add	r3, r3, r1
ARM GAS  C:\Users\Petro\AppData\Local\Temp\ccontaDt.s 			page 8


 203              	.LVL14:
 197:.\main.c      ****         negative = 0;
 204              		.loc 1 197 0
 205 002e 0021     		mov	r1, #0
 206              	.LVL15:
 207              	.L12:
 198:.\main.c      ****     }
 199:.\main.c      ****     skierTime->rezult.sec = rezult;
 208              		.loc 1 199 0
 209 0030 8382     		strh	r3, [r0, #20]
 200:.\main.c      ****        
 201:.\main.c      ****     rezult = skierTime->finish.min - skierTime->start.min;
 210              		.loc 1 201 0
 211 0032 4289     		ldrh	r2, [r0, #10]
 212 0034 4388     		ldrh	r3, [r0, #2]
 213              	.LVL16:
 214 0036 D31A     		sub	r3, r2, r3
 215              	.LVL17:
 202:.\main.c      ****     if(rezult < 0){
 216              		.loc 1 202 0
 217 0038 04D5     		bpl	.L13
 203:.\main.c      ****         rezult = 60+rezult+negative; 
 218              		.loc 1 203 0
 219 003a 3C33     		add	r3, r3, #60
 220              	.LVL18:
 221 003c 5B18     		add	r3, r3, r1
 222              	.LVL19:
 204:.\main.c      ****         negative = -1;
 223              		.loc 1 204 0
 224 003e 0121     		mov	r1, #1
 225 0040 4942     		neg	r1, r1
 226 0042 01E0     		b	.L14
 227              	.LVL20:
 228              	.L13:
 205:.\main.c      ****     }
 206:.\main.c      ****     else {
 207:.\main.c      ****         rezult = rezult+negative;
 229              		.loc 1 207 0
 230 0044 5B18     		add	r3, r3, r1
 231              	.LVL21:
 208:.\main.c      ****         negative = 0;
 232              		.loc 1 208 0
 233 0046 0021     		mov	r1, #0
 234              	.LVL22:
 235              	.L14:
 209:.\main.c      ****     }
 210:.\main.c      ****     skierTime->rezult.min = rezult;
 236              		.loc 1 210 0
 237 0048 4382     		strh	r3, [r0, #18]
 211:.\main.c      ****    
 212:.\main.c      ****     rezult = skierTime->finish.hour - skierTime->start.hour + negative;
 238              		.loc 1 212 0
 239 004a 0289     		ldrh	r2, [r0, #8]
 240 004c 0388     		ldrh	r3, [r0]
 241              	.LVL23:
 242 004e D31A     		sub	r3, r2, r3
 243 0050 5B18     		add	r3, r3, r1
ARM GAS  C:\Users\Petro\AppData\Local\Temp\ccontaDt.s 			page 9


 244              	.LVL24:
 213:.\main.c      ****     if(rezult > 0)skierTime->rezult.hour = rezult + negative;
 245              		.loc 1 213 0
 246 0052 002B     		cmp	r3, #0
 247 0054 01DD     		ble	.L9
 248              		.loc 1 213 0 is_stmt 0 discriminator 1
 249 0056 5B18     		add	r3, r3, r1
 250              	.LVL25:
 251 0058 0382     		strh	r3, [r0, #16]
 252              	.L9:
 214:.\main.c      **** }
 253              		.loc 1 214 0 is_stmt 1
 254              		@ sp needed
 255 005a 7047     		bx	lr
 256              		.cfi_endproc
 257              	.LFE38:
 258              		.size	quantifyTimeRezult, .-quantifyTimeRezult
 259              		.section	.text.deletTimeSkier,"ax",%progbits
 260              		.align	2
 261              		.global	deletTimeSkier
 262              		.code	16
 263              		.thumb_func
 264              		.type	deletTimeSkier, %function
 265              	deletTimeSkier:
 266              	.LFB39:
 215:.\main.c      **** 
 216:.\main.c      **** 
 217:.\main.c      **** /*******************************************************
 218:.\main.c      **** * Function name: deletTimeSkier
 219:.\main.c      **** *
 220:.\main.c      **** * Function remove rezult from the table
 221:.\main.c      **** * 
 222:.\main.c      **** * Parameters:
 223:.\main.c      **** * numSkier - number skier for remove.
 224:.\main.c      **** * skier[] - struct from time skiers
 225:.\main.c      **** *******************************************************/
 226:.\main.c      **** void deletTimeSkier(int numSkier, struct SKIERRESULT skier[])
 227:.\main.c      **** {
 267              		.loc 1 227 0
 268              		.cfi_startproc
 269              	.LVL26:
 270 0000 08B5     		push	{r3, lr}
 271              		.cfi_def_cfa_offset 8
 272              		.cfi_offset 3, -8
 273              		.cfi_offset 14, -4
 228:.\main.c      ****     memset(&skier[numSkier-1],0,sizeof(skier[numSkier-1]));
 274              		.loc 1 228 0
 275 0002 4300     		lsl	r3, r0, #1
 276 0004 1818     		add	r0, r3, r0
 277              	.LVL27:
 278 0006 C000     		lsl	r0, r0, #3
 279 0008 1838     		sub	r0, r0, #24
 280 000a 0818     		add	r0, r1, r0
 281 000c 0021     		mov	r1, #0
 282              	.LVL28:
 283 000e 1822     		mov	r2, #24
 284 0010 FFF7FEFF 		bl	memset
ARM GAS  C:\Users\Petro\AppData\Local\Temp\ccontaDt.s 			page 10


 285              	.LVL29:
 229:.\main.c      **** }
 286              		.loc 1 229 0
 287              		@ sp needed
 288 0014 08BD     		pop	{r3, pc}
 289              		.cfi_endproc
 290              	.LFE39:
 291              		.size	deletTimeSkier, .-deletTimeSkier
 292 0016 C046     		.section	.text.xbeeHandler,"ax",%progbits
 293              		.align	2
 294              		.global	xbeeHandler
 295              		.code	16
 296              		.thumb_func
 297              		.type	xbeeHandler, %function
 298              	xbeeHandler:
 299              	.LFB36:
 103:.\main.c      ****     char input = xbee_GetChar();
 300              		.loc 1 103 0
 301              		.cfi_startproc
 302 0000 38B5     		push	{r3, r4, r5, lr}
 303              		.cfi_def_cfa_offset 16
 304              		.cfi_offset 3, -16
 305              		.cfi_offset 4, -12
 306              		.cfi_offset 5, -8
 307              		.cfi_offset 14, -4
 104:.\main.c      ****     
 308              		.loc 1 104 0
 309 0002 FFF7FEFF 		bl	xbee_GetChar
 310              	.LVL30:
 311 0006 041E     		sub	r4, r0, #0
 312              	.LVL31:
 106:.\main.c      ****         case COMMAND_START:       
 313              		.loc 1 106 0
 314 0008 712C     		cmp	r4, #113
 315 000a 27D0     		beq	.L20
 316 000c 7128     		cmp	r0, #113
 317 000e 02D8     		bhi	.L21
 318 0010 6328     		cmp	r0, #99
 319 0012 1BD0     		beq	.L22
 320 0014 26E0     		b	.L19
 321              	.L21:
 322 0016 7228     		cmp	r0, #114
 323 0018 1CD0     		beq	.L23
 324 001a 7328     		cmp	r0, #115
 325 001c 22D1     		bne	.L19
 108:.\main.c      ****             skierRezult[last_started].start = RealTime;
 326              		.loc 1 108 0
 327 001e FFF7FEFF 		bl	timer_ReadCounter
 328              	.LVL32:
 329 0022 1649     		ldr	r1, .L26
 330 0024 C880     		strh	r0, [r1, #6]
 109:.\main.c      ****             
 331              		.loc 1 109 0
 332 0026 164D     		ldr	r5, .L26+4
 333 0028 6A68     		ldr	r2, [r5, #4]
 334 002a 5300     		lsl	r3, r2, #1
 335 002c 9B18     		add	r3, r3, r2
ARM GAS  C:\Users\Petro\AppData\Local\Temp\ccontaDt.s 			page 11


 336 002e DB00     		lsl	r3, r3, #3
 337 0030 1448     		ldr	r0, .L26+8
 338 0032 C018     		add	r0, r0, r3
 339 0034 0822     		mov	r2, #8
 340 0036 FFF7FEFF 		bl	memcpy
 341              	.LVL33:
 112:.\main.c      ****             onTrack = true;
 342              		.loc 1 112 0
 343 003a 1348     		ldr	r0, .L26+12
 344 003c FFF7FEFF 		bl	xbee_PutString
 345              	.LVL34:
 113:.\main.c      ****             last_started++;
 346              		.loc 1 113 0
 347 0040 0123     		mov	r3, #1
 348 0042 6B72     		strb	r3, [r5, #9]
 114:.\main.c      ****             break;
 349              		.loc 1 114 0
 350 0044 6B68     		ldr	r3, [r5, #4]
 351 0046 0133     		add	r3, r3, #1
 352 0048 6B60     		str	r3, [r5, #4]
 115:.\main.c      ****         case COMMAND_CANCEL:
 353              		.loc 1 115 0
 354 004a 14E0     		b	.L25
 355              	.LVL35:
 356              	.L22:
 118:.\main.c      ****             break;
 357              		.loc 1 118 0
 358 004c 0E48     		ldr	r0, .L26+12
 359              	.LVL36:
 360 004e FFF7FEFF 		bl	xbee_PutString
 361              	.LVL37:
 119:.\main.c      ****         case COMMAND_READ:
 362              		.loc 1 119 0
 363 0052 10E0     		b	.L25
 364              	.LVL38:
 365              	.L23:
 121:.\main.c      ****             break;
 366              		.loc 1 121 0
 367 0054 0122     		mov	r2, #1
 368 0056 0A4B     		ldr	r3, .L26+4
 369 0058 9A72     		strb	r2, [r3, #10]
 122:.\main.c      ****         case COMMAND_ST_CONNECT:
 370              		.loc 1 122 0
 371 005a 0CE0     		b	.L25
 372              	.L20:
 125:.\main.c      ****             break;
 373              		.loc 1 125 0
 374 005c 0A48     		ldr	r0, .L26+12
 375              	.LVL39:
 376 005e FFF7FEFF 		bl	xbee_PutString
 377              	.LVL40:
 126:.\main.c      ****         default:
 378              		.loc 1 126 0
 379 0062 08E0     		b	.L25
 380              	.LVL41:
 381              	.L19:
 129:.\main.c      ****                     deletTimeSkier((input-'0'),skierRezult);
ARM GAS  C:\Users\Petro\AppData\Local\Temp\ccontaDt.s 			page 12


 382              		.loc 1 129 0
 383 0064 094B     		ldr	r3, .L26+16
 384 0066 1B78     		ldrb	r3, [r3]
 385 0068 632B     		cmp	r3, #99
 386 006a 04D1     		bne	.L25
 130:.\main.c      ****             break;       
 387              		.loc 1 130 0
 388 006c 201C     		mov	r0, r4
 389              	.LVL42:
 390 006e 3038     		sub	r0, r0, #48
 391 0070 0449     		ldr	r1, .L26+8
 392 0072 FFF7FEFF 		bl	deletTimeSkier
 393              	.LVL43:
 394              	.L25:
 133:.\main.c      **** }
 395              		.loc 1 133 0
 396 0076 054B     		ldr	r3, .L26+16
 397 0078 1C70     		strb	r4, [r3]
 134:.\main.c      **** 
 398              		.loc 1 134 0
 399              		@ sp needed
 400 007a 38BD     		pop	{r3, r4, r5, pc}
 401              	.L27:
 402              		.align	2
 403              	.L26:
 404 007c 00000000 		.word	RealTime
 405 0080 00000000 		.word	.LANCHOR0
 406 0084 00000000 		.word	skierRezult
 407 0088 00000000 		.word	.LC8
 408 008c 00000000 		.word	lastCommand
 409              		.cfi_endproc
 410              	.LFE36:
 411              		.size	xbeeHandler, .-xbeeHandler
 412              		.section	.text.ShowTime,"ax",%progbits
 413              		.align	2
 414              		.global	ShowTime
 415              		.code	16
 416              		.thumb_func
 417              		.type	ShowTime, %function
 418              	ShowTime:
 419              	.LFB40:
 230:.\main.c      **** 
 231:.\main.c      **** 
 232:.\main.c      **** /*******************************************************
 233:.\main.c      **** * Function name: ShowTime
 234:.\main.c      **** *
 235:.\main.c      **** * Function displays data for all skiers
 236:.\main.c      **** * 
 237:.\main.c      **** * Parameters:
 238:.\main.c      **** * maxSkier - max skier on distancion.
 239:.\main.c      **** * skier[] - struct from time skiers
 240:.\main.c      **** *******************************************************/
 241:.\main.c      **** void ShowTime(int maxSkier,struct SKIERRESULT skier[])
 242:.\main.c      **** {
 420              		.loc 1 242 0
 421              		.cfi_startproc
 422              	.LVL44:
ARM GAS  C:\Users\Petro\AppData\Local\Temp\ccontaDt.s 			page 13


 423 0000 F0B5     		push	{r4, r5, r6, r7, lr}
 424              		.cfi_def_cfa_offset 20
 425              		.cfi_offset 4, -20
 426              		.cfi_offset 5, -16
 427              		.cfi_offset 6, -12
 428              		.cfi_offset 7, -8
 429              		.cfi_offset 14, -4
 430 0002 4746     		mov	r7, r8
 431 0004 80B4     		push	{r7}
 432              		.cfi_def_cfa_offset 24
 433              		.cfi_offset 8, -24
 434 0006 86B0     		sub	sp, sp, #24
 435              		.cfi_def_cfa_offset 48
 436 0008 071C     		mov	r7, r0
 437 000a 8846     		mov	r8, r1
 438              	.LVL45:
 243:.\main.c      ****     char buffer[16]; 
 244:.\main.c      ****     int num;
 245:.\main.c      ****     
 246:.\main.c      ****     for(num=0; num < maxSkier; num++){
 439              		.loc 1 246 0
 440 000c 0025     		mov	r5, #0
 441 000e 2CE0     		b	.L29
 442              	.LVL46:
 443              	.L30:
 247:.\main.c      ****         sprintf(buffer, "%i:%i:%i:%i   ",
 248:.\main.c      ****             skier[num].start.hour, skier[num].start.min, 
 444              		.loc 1 248 0 discriminator 3
 445 0010 6C00     		lsl	r4, r5, #1
 446 0012 6419     		add	r4, r4, r5
 447 0014 E400     		lsl	r4, r4, #3
 448 0016 4444     		add	r4, r4, r8
 449 0018 2288     		ldrh	r2, [r4]
 450 001a 6388     		ldrh	r3, [r4, #2]
 249:.\main.c      ****             skier[num].start.sec ,skier[num].start.msec);
 451              		.loc 1 249 0 discriminator 3
 452 001c A088     		ldrh	r0, [r4, #4]
 453 001e E188     		ldrh	r1, [r4, #6]
 247:.\main.c      ****         sprintf(buffer, "%i:%i:%i:%i   ",
 454              		.loc 1 247 0 discriminator 3
 455 0020 154E     		ldr	r6, .L31
 456 0022 0090     		str	r0, [sp]
 457 0024 0191     		str	r1, [sp, #4]
 458 0026 02A8     		add	r0, sp, #8
 459 0028 311C     		mov	r1, r6
 460 002a FFF7FEFF 		bl	sprintf
 461              	.LVL47:
 250:.\main.c      ****         xbee_PutString(buffer);
 462              		.loc 1 250 0 discriminator 3
 463 002e 02A8     		add	r0, sp, #8
 464 0030 FFF7FEFF 		bl	xbee_PutString
 465              	.LVL48:
 251:.\main.c      ****         sprintf(buffer, "%i:%i:%i:%i   ",
 252:.\main.c      ****             skier[num].finish.hour, skier[num].finish.min, 
 466              		.loc 1 252 0 discriminator 3
 467 0034 2289     		ldrh	r2, [r4, #8]
 468 0036 6389     		ldrh	r3, [r4, #10]
ARM GAS  C:\Users\Petro\AppData\Local\Temp\ccontaDt.s 			page 14


 253:.\main.c      ****             skier[num].finish.sec ,skier[num].finish.msec);
 469              		.loc 1 253 0 discriminator 3
 470 0038 A089     		ldrh	r0, [r4, #12]
 471 003a E189     		ldrh	r1, [r4, #14]
 251:.\main.c      ****         sprintf(buffer, "%i:%i:%i:%i   ",
 472              		.loc 1 251 0 discriminator 3
 473 003c 0090     		str	r0, [sp]
 474 003e 0191     		str	r1, [sp, #4]
 475 0040 02A8     		add	r0, sp, #8
 476 0042 311C     		mov	r1, r6
 477 0044 FFF7FEFF 		bl	sprintf
 478              	.LVL49:
 254:.\main.c      ****         xbee_PutString(buffer);
 479              		.loc 1 254 0 discriminator 3
 480 0048 02A8     		add	r0, sp, #8
 481 004a FFF7FEFF 		bl	xbee_PutString
 482              	.LVL50:
 255:.\main.c      ****         sprintf(buffer, "%i:%i:%i:%i\n\r",
 256:.\main.c      ****             skier[num].rezult.hour, skier[num].rezult.min, 
 483              		.loc 1 256 0 discriminator 3
 484 004e 228A     		ldrh	r2, [r4, #16]
 485 0050 638A     		ldrh	r3, [r4, #18]
 257:.\main.c      ****             skier[num].rezult.sec ,skier[num].rezult.msec);
 486              		.loc 1 257 0 discriminator 3
 487 0052 A08A     		ldrh	r0, [r4, #20]
 488 0054 E18A     		ldrh	r1, [r4, #22]
 255:.\main.c      ****         sprintf(buffer, "%i:%i:%i:%i\n\r",
 489              		.loc 1 255 0 discriminator 3
 490 0056 0090     		str	r0, [sp]
 491 0058 0191     		str	r1, [sp, #4]
 492 005a 02A8     		add	r0, sp, #8
 493 005c 0749     		ldr	r1, .L31+4
 494 005e FFF7FEFF 		bl	sprintf
 495              	.LVL51:
 258:.\main.c      ****         xbee_PutString(buffer);
 496              		.loc 1 258 0 discriminator 3
 497 0062 02A8     		add	r0, sp, #8
 498 0064 FFF7FEFF 		bl	xbee_PutString
 499              	.LVL52:
 246:.\main.c      ****         sprintf(buffer, "%i:%i:%i:%i   ",
 500              		.loc 1 246 0 discriminator 3
 501 0068 0135     		add	r5, r5, #1
 502              	.LVL53:
 503              	.L29:
 246:.\main.c      ****         sprintf(buffer, "%i:%i:%i:%i   ",
 504              		.loc 1 246 0 is_stmt 0 discriminator 1
 505 006a BD42     		cmp	r5, r7
 506 006c D0DB     		blt	.L30
 259:.\main.c      ****     }
 260:.\main.c      **** }
 507              		.loc 1 260 0 is_stmt 1
 508 006e 06B0     		add	sp, sp, #24
 509              		@ sp needed
 510              	.LVL54:
 511              	.LVL55:
 512              	.LVL56:
 513 0070 04BC     		pop	{r2}
ARM GAS  C:\Users\Petro\AppData\Local\Temp\ccontaDt.s 			page 15


 514 0072 9046     		mov	r8, r2
 515 0074 F0BD     		pop	{r4, r5, r6, r7, pc}
 516              	.L32:
 517 0076 C046     		.align	2
 518              	.L31:
 519 0078 08000000 		.word	.LC11
 520 007c 18000000 		.word	.LC13
 521              		.cfi_endproc
 522              	.LFE40:
 523              		.size	ShowTime, .-ShowTime
 524              		.section	.text.LedIndication,"ax",%progbits
 525              		.align	2
 526              		.global	LedIndication
 527              		.code	16
 528              		.thumb_func
 529              		.type	LedIndication, %function
 530              	LedIndication:
 531              	.LFB41:
 261:.\main.c      **** 
 262:.\main.c      **** /*******************************************************
 263:.\main.c      **** * Function name: LedIndication
 264:.\main.c      **** *
 265:.\main.c      **** * Function led off(led on in interrrupt timer
 266:.\main.c      **** * if skier on distancion)
 267:.\main.c      **** * 
 268:.\main.c      **** *******************************************************/
 269:.\main.c      **** void LedIndication(void)
 270:.\main.c      **** {
 532              		.loc 1 270 0
 533              		.cfi_startproc
 534 0000 08B5     		push	{r3, lr}
 535              		.cfi_def_cfa_offset 8
 536              		.cfi_offset 3, -8
 537              		.cfi_offset 14, -4
 538              	.LVL57:
 271:.\main.c      ****     int LED_ON = 0;
 272:.\main.c      ****     int LED_OFF = 1;
 273:.\main.c      ****     
 274:.\main.c      ****     /*blink led*/
 275:.\main.c      ****     led_green_Write(LED_ON);
 539              		.loc 1 275 0
 540 0002 0020     		mov	r0, #0
 541 0004 FFF7FEFF 		bl	led_green_Write
 542              	.LVL58:
 276:.\main.c      ****     CyDelay(10);
 543              		.loc 1 276 0
 544 0008 0A20     		mov	r0, #10
 545 000a FFF7FEFF 		bl	CyDelay
 546              	.LVL59:
 277:.\main.c      ****     led_green_Write(LED_OFF);
 547              		.loc 1 277 0
 548 000e 0120     		mov	r0, #1
 549 0010 FFF7FEFF 		bl	led_green_Write
 550              	.LVL60:
 278:.\main.c      **** }...
 551              		.loc 1 278 0
 552              		@ sp needed
ARM GAS  C:\Users\Petro\AppData\Local\Temp\ccontaDt.s 			page 16


 553 0014 08BD     		pop	{r3, pc}
 554              		.cfi_endproc
 555              	.LFE41:
 556              		.size	LedIndication, .-LedIndication
 557 0016 C046     		.section	.text.main,"ax",%progbits
 558              		.align	2
 559              		.global	main
 560              		.code	16
 561              		.thumb_func
 562              		.type	main, %function
 563              	main:
 564              	.LFB37:
 138:.\main.c      **** {
 565              		.loc 1 138 0
 566              		.cfi_startproc
 567 0000 10B5     		push	{r4, lr}
 568              		.cfi_def_cfa_offset 8
 569              		.cfi_offset 4, -8
 570              		.cfi_offset 14, -4
 139:.\main.c      ****     CyGlobalIntEnable; /* Enable global interrupts. */
 571              		.loc 1 139 0
 572              	@ 139 ".\main.c" 1
 573 0002 62B6     		CPSIE   i
 574              	@ 0 "" 2
 140:.\main.c      ****     timer_Start();
 575              		.loc 1 140 0
 576              		.code	16
 577 0004 FFF7FEFF 		bl	timer_Start
 578              	.LVL61:
 141:.\main.c      ****     xbee_Start();
 579              		.loc 1 141 0
 580 0008 FFF7FEFF 		bl	xbee_Start
 581              	.LVL62:
 143:.\main.c      ****     isr_finish_StartEx(finishHandler);      
 582              		.loc 1 143 0
 583 000c 1B48     		ldr	r0, .L40
 584 000e FFF7FEFF 		bl	isr_finish_StartEx
 585              	.LVL63:
 144:.\main.c      ****     isr_timer_StartEx(timerHandler);     
 586              		.loc 1 144 0
 587 0012 1B48     		ldr	r0, .L40+4
 588 0014 FFF7FEFF 		bl	isr_timer_StartEx
 589              	.LVL64:
 145:.\main.c      ****     isr_xbee_StartEx(xbeeHandler);        
 590              		.loc 1 145 0
 591 0018 1A48     		ldr	r0, .L40+8
 592 001a FFF7FEFF 		bl	isr_xbee_StartEx
 593              	.LVL65:
 594              	.L39:
 150:.\main.c      ****         if(last_finished == last_started)
 595              		.loc 1 150 0
 596 001e 1A4B     		ldr	r3, .L40+12
 597 0020 1A68     		ldr	r2, [r3]
 598 0022 5B68     		ldr	r3, [r3, #4]
 599 0024 9A42     		cmp	r2, r3
 600 0026 02D1     		bne	.L35
 151:.\main.c      ****             onTrack = false;   
ARM GAS  C:\Users\Petro\AppData\Local\Temp\ccontaDt.s 			page 17


 601              		.loc 1 151 0
 602 0028 0022     		mov	r2, #0
 603 002a 174B     		ldr	r3, .L40+12
 604 002c 5A72     		strb	r2, [r3, #9]
 605              	.L35:
 152:.\main.c      ****         if(onTrack) 
 606              		.loc 1 152 0
 607 002e 164B     		ldr	r3, .L40+12
 608 0030 5B7A     		ldrb	r3, [r3, #9]
 609 0032 002B     		cmp	r3, #0
 610 0034 01D0     		beq	.L36
 153:.\main.c      ****             LedIndication();
 611              		.loc 1 153 0
 612 0036 FFF7FEFF 		bl	LedIndication
 613              	.LVL66:
 614              	.L36:
 155:.\main.c      ****         if(requestRead){
 615              		.loc 1 155 0
 616 003a 134B     		ldr	r3, .L40+12
 617 003c 9B7A     		ldrb	r3, [r3, #10]
 618 003e 002B     		cmp	r3, #0
 619 0040 06D0     		beq	.L37
 156:.\main.c      ****             ShowTime(MAXSKIER,skierRezult);
 620              		.loc 1 156 0
 621 0042 0920     		mov	r0, #9
 622 0044 1149     		ldr	r1, .L40+16
 623 0046 FFF7FEFF 		bl	ShowTime
 624              	.LVL67:
 157:.\main.c      ****             requestRead = false;
 625              		.loc 1 157 0
 626 004a 0022     		mov	r2, #0
 627 004c 0E4B     		ldr	r3, .L40+12
 628 004e 9A72     		strb	r2, [r3, #10]
 629              	.L37:
 160:.\main.c      ****         if(pressFinish){
 630              		.loc 1 160 0
 631 0050 0D4B     		ldr	r3, .L40+12
 632 0052 1B7A     		ldrb	r3, [r3, #8]
 633 0054 002B     		cmp	r3, #0
 634 0056 0BD0     		beq	.L38
 161:.\main.c      ****             quantifyTimeRezult(&skierRezult[last_finished-1]);
 635              		.loc 1 161 0
 636 0058 0B4C     		ldr	r4, .L40+12
 637 005a 2368     		ldr	r3, [r4]
 638 005c 013B     		sub	r3, r3, #1
 639 005e 5800     		lsl	r0, r3, #1
 640 0060 C318     		add	r3, r0, r3
 641 0062 DB00     		lsl	r3, r3, #3
 642 0064 0948     		ldr	r0, .L40+16
 643 0066 1818     		add	r0, r3, r0
 644 0068 FFF7FEFF 		bl	quantifyTimeRezult
 645              	.LVL68:
 162:.\main.c      ****             pressFinish = false;
 646              		.loc 1 162 0
 647 006c 0023     		mov	r3, #0
 648 006e 2372     		strb	r3, [r4, #8]
 649              	.L38:
ARM GAS  C:\Users\Petro\AppData\Local\Temp\ccontaDt.s 			page 18


 165:.\main.c      ****         CyDelay(1000);
 650              		.loc 1 165 0
 651 0070 FA20     		mov	r0, #250
 652 0072 8000     		lsl	r0, r0, #2
 653 0074 FFF7FEFF 		bl	CyDelay
 654              	.LVL69:
 166:.\main.c      ****     }
 655              		.loc 1 166 0
 656 0078 D1E7     		b	.L39
 657              	.L41:
 658 007a C046     		.align	2
 659              	.L40:
 660 007c 00000000 		.word	finishHandler
 661 0080 00000000 		.word	timerHandler
 662 0084 00000000 		.word	xbeeHandler
 663 0088 00000000 		.word	.LANCHOR0
 664 008c 00000000 		.word	skierRezult
 665              		.cfi_endproc
 666              	.LFE37:
 667              		.size	main, .-main
 668              		.comm	lastCommand,1,1
 669              		.global	finish_skier
 670              		.global	free_slots
 671              		.global	last_finished
 672              		.global	last_started
 673              		.global	pressFinish
 674              		.global	requestRead
 675              		.global	onTrack
 676              		.comm	RealTime,8,4
 677              		.comm	skierRezult,216,4
 678              		.section	.rodata.str1.4,"aMS",%progbits,1
 679              		.align	2
 680              	.LC8:
 681 0000 4F4B0A0D 		.ascii	"OK\012\015\000"
 681      00
 682 0005 000000   		.space	3
 683              	.LC11:
 684 0008 25693A25 		.ascii	"%i:%i:%i:%i   \000"
 684      693A2569 
 684      3A256920 
 684      202000
 685 0017 00       		.space	1
 686              	.LC13:
 687 0018 25693A25 		.ascii	"%i:%i:%i:%i\012\015\000"
 687      693A2569 
 687      3A25690A 
 687      0D00
 688 0026 0000     		.bss
 689              		.align	2
 690              		.set	.LANCHOR0,. + 0
 691              		.type	last_finished, %object
 692              		.size	last_finished, 4
 693              	last_finished:
 694 0000 00000000 		.space	4
 695              		.type	last_started, %object
 696              		.size	last_started, 4
 697              	last_started:
ARM GAS  C:\Users\Petro\AppData\Local\Temp\ccontaDt.s 			page 19


 698 0004 00000000 		.space	4
 699              		.type	pressFinish, %object
 700              		.size	pressFinish, 1
 701              	pressFinish:
 702 0008 00       		.space	1
 703              		.type	onTrack, %object
 704              		.size	onTrack, 1
 705              	onTrack:
 706 0009 00       		.space	1
 707              		.type	requestRead, %object
 708              		.size	requestRead, 1
 709              	requestRead:
 710 000a 00       		.space	1
 711 000b 00       		.space	1
 712              		.type	finish_skier, %object
 713              		.size	finish_skier, 4
 714              	finish_skier:
 715 000c 00000000 		.space	4
 716              		.type	free_slots, %object
 717              		.size	free_slots, 4
 718              	free_slots:
 719 0010 00000000 		.space	4
 720              		.text
 721              	.Letext0:
 722              		.file 2 "c:\\program files (x86)\\cypress\\psoc creator\\3.3\\psoc creator\\import\\gnu\\arm\\4.9.
 723              		.file 3 "c:\\program files (x86)\\cypress\\psoc creator\\3.3\\psoc creator\\import\\gnu\\arm\\4.9.
 724              		.file 4 "Generated_Source\\PSoC4/cytypes.h"
 725              		.file 5 "Generated_Source\\PSoC4/timer.h"
 726              		.file 6 "Generated_Source\\PSoC4/finish.h"
 727              		.file 7 "Generated_Source\\PSoC4/xbee.h"
 728              		.file 8 "Generated_Source\\PSoC4/led_green.h"
 729              		.file 9 "Generated_Source\\PSoC4/CyLib.h"
 730              		.file 10 "Generated_Source\\PSoC4/isr_finish.h"
 731              		.file 11 "Generated_Source\\PSoC4/isr_timer.h"
 732              		.file 12 "c:\\program files (x86)\\cypress\\psoc creator\\3.3\\psoc creator\\import\\gnu\\arm\\4.9
 733              		.file 13 "Generated_Source\\PSoC4/isr_xbee.h"