ARM GAS  C:\Users\Petro\AppData\Local\Temp\cc8NWmvT.s 			page 1


   1              		.cpu cortex-m0
   2              		.fpu softvfp
   3              		.eabi_attribute 20, 1
   4              		.eabi_attribute 21, 1
   5              		.eabi_attribute 23, 3
   6              		.eabi_attribute 24, 1
   7              		.eabi_attribute 25, 1
   8              		.eabi_attribute 26, 1
   9              		.eabi_attribute 30, 6
  10              		.eabi_attribute 34, 0
  11              		.eabi_attribute 18, 4
  12              		.code	16
  13              		.file	"batt.c"
  14              		.text
  15              	.Ltext0:
  16              		.cfi_sections	.debug_frame
  17              		.comm	voltage,4,4
  18              		.section	.text.BattADC_Init,"ax",%progbits
  19              		.align	2
  20              		.global	BattADC_Init
  21              		.code	16
  22              		.thumb_func
  23              		.type	BattADC_Init, %function
  24              	BattADC_Init:
  25              	.LFB2:
  26              		.file 1 "lib_Batt\\batt.c"
   1:lib_Batt/batt.c **** #include "lib_Batt\batt.h"
   2:lib_Batt/batt.c **** #include "ADC.h"
   3:lib_Batt/batt.c **** 
   4:lib_Batt/batt.c **** float voltage;
   5:lib_Batt/batt.c **** 
   6:lib_Batt/batt.c **** 
   7:lib_Batt/batt.c **** void BattADC_Init(void)
   8:lib_Batt/batt.c **** {
  27              		.loc 1 8 0
  28              		.cfi_startproc
  29 0000 80B5     		push	{r7, lr}
  30              		.cfi_def_cfa_offset 8
  31              		.cfi_offset 7, -8
  32              		.cfi_offset 14, -4
  33 0002 00AF     		add	r7, sp, #0
  34              		.cfi_def_cfa_register 7
   9:lib_Batt/batt.c ****     ADC_Start();
  35              		.loc 1 9 0
  36 0004 FFF7FEFF 		bl	ADC_Start
  10:lib_Batt/batt.c ****     ADC_StartConvert();
  37              		.loc 1 10 0
  38 0008 FFF7FEFF 		bl	ADC_StartConvert
  11:lib_Batt/batt.c ****     ADC_IsEndConversion(ADC_WAIT_FOR_RESULT);        
  39              		.loc 1 11 0
  40 000c 0220     		mov	r0, #2
  41 000e FFF7FEFF 		bl	ADC_IsEndConversion
  12:lib_Batt/batt.c **** }
  42              		.loc 1 12 0
  43 0012 BD46     		mov	sp, r7
  44              		@ sp needed
  45 0014 80BD     		pop	{r7, pc}
ARM GAS  C:\Users\Petro\AppData\Local\Temp\cc8NWmvT.s 			page 2


  46              		.cfi_endproc
  47              	.LFE2:
  48              		.size	BattADC_Init, .-BattADC_Init
  49 0016 C046     		.section	.text.ReadBattVoltage,"ax",%progbits
  50              		.align	2
  51              		.global	ReadBattVoltage
  52              		.code	16
  53              		.thumb_func
  54              		.type	ReadBattVoltage, %function
  55              	ReadBattVoltage:
  56              	.LFB3:
  13:lib_Batt/batt.c **** 
  14:lib_Batt/batt.c **** float ReadBattVoltage(void)
  15:lib_Batt/batt.c **** {
  57              		.loc 1 15 0
  58              		.cfi_startproc
  59 0000 80B5     		push	{r7, lr}
  60              		.cfi_def_cfa_offset 8
  61              		.cfi_offset 7, -8
  62              		.cfi_offset 14, -4
  63 0002 82B0     		sub	sp, sp, #8
  64              		.cfi_def_cfa_offset 16
  65 0004 00AF     		add	r7, sp, #0
  66              		.cfi_def_cfa_register 7
  16:lib_Batt/batt.c ****     int32_t conversion;
  17:lib_Batt/batt.c ****     
  18:lib_Batt/batt.c ****     conversion = ADC_GetResult16(0);
  67              		.loc 1 18 0
  68 0006 0020     		mov	r0, #0
  69 0008 FFF7FEFF 		bl	ADC_GetResult16
  70 000c 031C     		mov	r3, r0
  71 000e 7B60     		str	r3, [r7, #4]
  19:lib_Batt/batt.c ****     voltage = ADC_CountsTo_Volts(0,conversion);
  72              		.loc 1 19 0
  73 0010 7B68     		ldr	r3, [r7, #4]
  74 0012 9BB2     		uxth	r3, r3
  75 0014 1BB2     		sxth	r3, r3
  76 0016 0020     		mov	r0, #0
  77 0018 191C     		mov	r1, r3
  78 001a FFF7FEFF 		bl	ADC_CountsTo_Volts
  79 001e 021C     		add	r2, r0, #0
  80 0020 034B     		ldr	r3, .L4
  81 0022 1A60     		str	r2, [r3]
  20:lib_Batt/batt.c ****     
  21:lib_Batt/batt.c ****     return voltage;
  82              		.loc 1 21 0
  83 0024 024B     		ldr	r3, .L4
  84 0026 1B68     		ldr	r3, [r3]
  22:lib_Batt/batt.c **** }...
  85              		.loc 1 22 0
  86 0028 181C     		add	r0, r3, #0
  87 002a BD46     		mov	sp, r7
  88 002c 02B0     		add	sp, sp, #8
  89              		@ sp needed
  90 002e 80BD     		pop	{r7, pc}
  91              	.L5:
  92              		.align	2
ARM GAS  C:\Users\Petro\AppData\Local\Temp\cc8NWmvT.s 			page 3


  93              	.L4:
  94 0030 00000000 		.word	voltage
  95              		.cfi_endproc
  96              	.LFE3:
  97              		.size	ReadBattVoltage, .-ReadBattVoltage
  98              		.text
  99              	.Letext0:
 100              		.file 2 "c:\\program files (x86)\\cypress\\psoc creator\\4.0\\psoc creator\\import\\gnu\\arm\\4.9.
 101              		.file 3 "c:\\program files (x86)\\cypress\\psoc creator\\4.0\\psoc creator\\import\\gnu\\arm\\4.9.