ARM GAS  C:\Users\Petro\AppData\Local\Temp\ccQIv3Iu.s 			page 1


   1              		.cpu cortex-m0
   2              		.fpu softvfp
   3              		.eabi_attribute 20, 1
   4              		.eabi_attribute 21, 1
   5              		.eabi_attribute 23, 3
   6              		.eabi_attribute 24, 1
   7              		.eabi_attribute 25, 1
   8              		.eabi_attribute 26, 1
   9              		.eabi_attribute 30, 6
  10              		.eabi_attribute 34, 0
  11              		.eabi_attribute 18, 4
  12              		.code	16
  13              		.file	"network.c"
  14              		.text
  15              	.Ltext0:
  16              		.cfi_sections	.debug_frame
  17              		.comm	inData,24,8
  18              		.comm	outData,24,8
  19              		.comm	previousData,100,4
  20              		.bss
  21              		.align	2
  22              	networkStatus:
  23 0000 00000000 		.space	4
  24              		.align	2
  25              	noConnect:
  26 0004 00000000 		.space	4
  27              		.align	2
  28              	finNoReady:
  29 0008 00000000 		.space	4
  30              		.comm	unixTime,16,4
  31              		.comm	millisTime,8,4
  32              		.global	onNtpSync
  33              		.type	onNtpSync, %object
  34              		.size	onNtpSync, 1
  35              	onNtpSync:
  36 000c 00       		.space	1
  37              		.global	flagStartSendPacket
  38              		.type	flagStartSendPacket, %object
  39              		.size	flagStartSendPacket, 1
  40              	flagStartSendPacket:
  41 000d 00       		.space	1
  42              		.global	flagFinSendPacket
  43              		.type	flagFinSendPacket, %object
  44              		.size	flagFinSendPacket, 1
  45              	flagFinSendPacket:
  46 000e 00       		.space	1
  47              		.comm	resultReceive,4,4
  48              		.comm	IDreceivePacket,2,2
  49              		.comm	ntpFlagEndReceivePacket,1,1
  50              		.comm	ntpFlagReadyForReceive,1,1
  51              		.comm	recvDataNTP,20,4
  52 000f 00       		.section	.text.InitNetwork,"ax",%progbits
  53              		.align	2
  54              		.global	InitNetwork
  55              		.code	16
  56              		.thumb_func
  57              		.type	InitNetwork, %function
ARM GAS  C:\Users\Petro\AppData\Local\Temp\ccQIv3Iu.s 			page 2


  58              	InitNetwork:
  59              	.LFB28:
  60              		.file 1 "network.c"
   1:network.c     **** 
   2:network.c     **** #include "lib_Network/network.h"
   3:network.c     **** #include <UART_XB.h>
   4:network.c     **** #include <UART_XB_SPI_UART.h>
   5:network.c     **** #include <RTC.h>
   6:network.c     **** 
   7:network.c     **** #ifdef DEBUG_INFO
   8:network.c     ****     #include "SW_UART_DEBUG.h"
   9:network.c     **** #endif
  10:network.c     **** #ifdef DEBUG_TIME
  11:network.c     ****     #include <debug.h>
  12:network.c     **** #endif
  13:network.c     **** #ifdef DEBUG_NTP
  14:network.c     ****     #include <debugntp.h>
  15:network.c     **** #endif
  16:network.c     **** #ifdef DEBUGNTP
  17:network.c     ****     #include <pinDebugNtp.h>
  18:network.c     **** #endif
  19:network.c     **** #ifdef DEBUGUART
  20:network.c     ****     #include <project.h>
  21:network.c     **** #endif
  22:network.c     **** 
  23:network.c     **** #include <stdio.h>
  24:network.c     **** #include "lib_Network/svt.h"
  25:network.c     **** #include "lib_RTC/RTC_WDT.h"
  26:network.c     **** #include "lib_Network/ntp.h"
  27:network.c     **** #include "lib_Display/display.h"
  28:network.c     **** 
  29:network.c     **** #define MIN_DELAYMS 150
  30:network.c     **** 
  31:network.c     **** /*size buffer*/
  32:network.c     **** #define DATA_BUFFER   50
  33:network.c     **** #define RX_BUFFER   
  34:network.c     **** 
  35:network.c     **** #define ADRESS_READY        8
  36:network.c     **** #define ADRESS_REBOOT       9
  37:network.c     **** #define ADRESS_COUNT_SK     10
  38:network.c     **** 
  39:network.c     **** #define MASK_HIGH   0xFFFFFFFF00000000
  40:network.c     **** #define MASK_LOW    0x00000000FFFFFFFF
  41:network.c     **** #define DATA_SHIFT  32
  42:network.c     **** 
  43:network.c     **** #define TIMEOUT_FIN_READY   3
  44:network.c     **** 
  45:network.c     **** /*for NTP protocol*/
  46:network.c     **** #define NUM_TRY_SYNC        14
  47:network.c     **** #define NUM_CONNECT_ATTEMPS 1000
  48:network.c     **** 
  49:network.c     **** #define SAVE_TIME           1
  50:network.c     **** #define NETWORK_TIMEOUT     50
  51:network.c     **** #define NEW_SKIER_IN_TARCK   1
  52:network.c     **** #define NTP_DELAY_RECEIVED_PACKET 500
  53:network.c     **** 
  54:network.c     **** 
ARM GAS  C:\Users\Petro\AppData\Local\Temp\ccQIv3Iu.s 			page 3


  55:network.c     **** /*segment time*/
  56:network.c     **** #define T1                  0
  57:network.c     **** #define T2                  1
  58:network.c     **** #define T3                  2
  59:network.c     **** #define T4                  3
  60:network.c     **** 
  61:network.c     **** #define CORRECTION_TIME     0
  62:network.c     **** 
  63:network.c     **** typedef struct
  64:network.c     **** {
  65:network.c     ****     uint8_t IDpacket;
  66:network.c     ****     uint8_t ready;
  67:network.c     ****     uint8_t reboot;
  68:network.c     ****     uint8_t countSkiers;
  69:network.c     ****     uint64_t tmpTime;
  70:network.c     ****     uint16_t tmpMsTime;
  71:network.c     ****     uint8_t readStatus;
  72:network.c     **** }FinishData;
  73:network.c     **** 
  74:network.c     **** typedef struct
  75:network.c     **** {
  76:network.c     ****     uint8_t IDpacket;
  77:network.c     ****     uint64_t unixStartTime;
  78:network.c     ****     uint16_t startMsTime;
  79:network.c     ****     uint8_t newSkier;
  80:network.c     ****     uint8_t writeStatus;
  81:network.c     ****     uint8_t reboot;     /*reboot=1, not reboot=0*/
  82:network.c     **** }StartData;
  83:network.c     **** 
  84:network.c     **** FinishData inData;
  85:network.c     **** StartData outData;
  86:network.c     **** 
  87:network.c     **** char previousData[100];
  88:network.c     **** 
  89:network.c     **** static uint32_t networkStatus;
  90:network.c     **** static int noConnect;
  91:network.c     **** static int finNoReady;
  92:network.c     **** uint32_t unixTime[4];
  93:network.c     **** uint16_t millisTime[4];
  94:network.c     **** 
  95:network.c     **** /*------TEST---------*/
  96:network.c     **** uint8_t onNtpSync = 0;      //–∑–º—ñ–Ω–Ω—è –¥–ª—è —ñ–Ω–¥–∏–∫–∞—Ü—ñ—ó —â–æ –∑–∞—Ä–∞ –≤—ñ–¥–±—É–≤–∞—î
  97:network.c     **** uint8_t flagStartSendPacket = 0;    //—Ñ–ª–∞–∂–∫–∏ –ø–æ–∫–∞–∑—É—é—Ç—å —â–æ –ø–æ—á–∞–ª–∞—Å—è/–∑–∞–∫—
  98:network.c     **** uint8_t flagFinSendPacket = 0;      //
  99:network.c     **** 
 100:network.c     **** uint32_t resultReceive;
 101:network.c     **** uint16_t IDreceivePacket;
 102:network.c     **** typedef enum {ROUGH_SET_TIME, SYNC_TIME, SET_DIFF_TIME}stageSync;
 103:network.c     **** 
 104:network.c     **** /*global variable for new ntp protocol*/
 105:network.c     **** uint8_t ntpFlagEndReceivePacket;        //indicator end receive packet
 106:network.c     **** uint8_t ntpFlagReadyForReceive;         //indicator ready for receive next packet
 107:network.c     **** NTPResp recvDataNTP;                    //struct for data to ntpd receive data
 108:network.c     **** /*end */
 109:network.c     **** 
 110:network.c     **** #ifdef DEBUG_INFO
 111:network.c     ****     char uartBuff[50];
ARM GAS  C:\Users\Petro\AppData\Local\Temp\ccQIv3Iu.s 			page 4


 112:network.c     **** #endif
 113:network.c     **** 
 114:network.c     **** #ifdef DEBUGUART
 115:network.c     ****     char buffer[100];
 116:network.c     **** #endif
 117:network.c     **** 
 118:network.c     **** uint32_t ReceiveRealTime(void);
 119:network.c     **** void NTPsendTime(uint32_t unixTime2,uint32_t unixTime3,uint16_t millis2,uint16_t millis3, uint16_t 
 120:network.c     **** uint32_t NTPreceiveTime(uint32_t *unixTime2,uint16_t *millis2, uint16_t *IDreceive, uint32_t saveTi
 121:network.c     **** void CustomInterruptHandler(void);
 122:network.c     **** 
 123:network.c     **** /*******************************************************************************
 124:network.c     **** * Function Name: InitNetwork
 125:network.c     **** ********************************************************************************
 126:network.c     **** *
 127:network.c     **** * Summary:
 128:network.c     **** *   initialization UART for XBee module
 129:network.c     **** *
 130:network.c     **** *******************************************************************************/
 131:network.c     **** void InitNetwork(void)
 132:network.c     **** {
  61              		.loc 1 132 0
  62              		.cfi_startproc
  63 0000 80B5     		push	{r7, lr}
  64              		.cfi_def_cfa_offset 8
  65              		.cfi_offset 7, -8
  66              		.cfi_offset 14, -4
  67 0002 00AF     		add	r7, sp, #0
  68              		.cfi_def_cfa_register 7
 133:network.c     ****     UART_XB_Start();
  69              		.loc 1 133 0
  70 0004 FFF7FEFF 		bl	UART_XB_Start
 134:network.c     ****     UART_XB_SetCustomInterruptHandler(&CustomInterruptHandler);
  71              		.loc 1 134 0
  72 0008 094B     		ldr	r3, .L2
  73 000a 181C     		mov	r0, r3
  74 000c FFF7FEFF 		bl	UART_XB_SetCustomInterruptHandler
 135:network.c     ****     
 136:network.c     ****     #ifdef DEBUG_INFO
 137:network.c     ****         SW_UART_DEBUG_Start();
 138:network.c     ****         SW_UART_DEBUG_PutString("HElLO, IM READY(start)\n\r");
 139:network.c     ****     #endif
 140:network.c     ****     
 141:network.c     ****     #ifdef DEBUGUART
 142:network.c     ****         uartDebug_Start();
 143:network.c     ****         uartDebug_UartPutString("uart started\n\r");
 144:network.c     ****     #endif
 145:network.c     ****     
 146:network.c     ****     inData.readStatus = NO_READ;
  75              		.loc 1 146 0
  76 0010 084B     		ldr	r3, .L2+4
  77 0012 0022     		mov	r2, #0
  78 0014 9A74     		strb	r2, [r3, #18]
 147:network.c     ****     outData.writeStatus = WRITE_OK;
  79              		.loc 1 147 0
  80 0016 084B     		ldr	r3, .L2+8
  81 0018 0122     		mov	r2, #1
ARM GAS  C:\Users\Petro\AppData\Local\Temp\ccQIv3Iu.s 			page 5


  82 001a DA74     		strb	r2, [r3, #19]
 148:network.c     ****     outData.IDpacket = 0xFF;
  83              		.loc 1 148 0
  84 001c 064B     		ldr	r3, .L2+8
  85 001e FF22     		mov	r2, #255
  86 0020 1A70     		strb	r2, [r3]
 149:network.c     ****     networkStatus = NETWORK_DISCONN;   
  87              		.loc 1 149 0
  88 0022 064B     		ldr	r3, .L2+12
  89 0024 0022     		mov	r2, #0
  90 0026 1A60     		str	r2, [r3]
 150:network.c     ****     UART_XB_SpiUartClearRxBuffer();
  91              		.loc 1 150 0
  92 0028 FFF7FEFF 		bl	UART_XB_SpiUartClearRxBuffer
 151:network.c     **** }
  93              		.loc 1 151 0
  94 002c BD46     		mov	sp, r7
  95              		@ sp needed
  96 002e 80BD     		pop	{r7, pc}
  97              	.L3:
  98              		.align	2
  99              	.L2:
 100 0030 00000000 		.word	CustomInterruptHandler
 101 0034 00000000 		.word	inData
 102 0038 00000000 		.word	outData
 103 003c 00000000 		.word	networkStatus
 104              		.cfi_endproc
 105              	.LFE28:
 106              		.size	InitNetwork, .-InitNetwork
 107              		.section	.text.CustomInterruptHandler,"ax",%progbits
 108              		.align	2
 109              		.global	CustomInterruptHandler
 110              		.code	16
 111              		.thumb_func
 112              		.type	CustomInterruptHandler, %function
 113              	CustomInterruptHandler:
 114              	.LFB29:
 152:network.c     **** 
 153:network.c     **** 
 154:network.c     **** 
 155:network.c     **** 
 156:network.c     **** void CustomInterruptHandler(void)
 157:network.c     **** {
 115              		.loc 1 157 0
 116              		.cfi_startproc
 117 0000 90B5     		push	{r4, r7, lr}
 118              		.cfi_def_cfa_offset 12
 119              		.cfi_offset 4, -12
 120              		.cfi_offset 7, -8
 121              		.cfi_offset 14, -4
 122 0002 83B0     		sub	sp, sp, #12
 123              		.cfi_def_cfa_offset 24
 124 0004 00AF     		add	r7, sp, #0
 125              		.cfi_def_cfa_register 7
 158:network.c     ****     if(onNtpSync)
 126              		.loc 1 158 0
 127 0006 204B     		ldr	r3, .L7
ARM GAS  C:\Users\Petro\AppData\Local\Temp\ccQIv3Iu.s 			page 6


 128 0008 1B78     		ldrb	r3, [r3]
 129 000a 002B     		cmp	r3, #0
 130 000c 39D0     		beq	.L4
 131              	.LBB2:
 159:network.c     ****     {
 160:network.c     ****         uint8_t byte = 0;
 132              		.loc 1 160 0
 133 000e FB1D     		add	r3, r7, #7
 134 0010 0022     		mov	r2, #0
 135 0012 1A70     		strb	r2, [r3]
 161:network.c     ****         
 162:network.c     ****         if(UART_XB_SpiUartGetRxBufferSize() > 0)
 136              		.loc 1 162 0
 137 0014 FFF7FEFF 		bl	UART_XB_SpiUartGetRxBufferSize
 138 0018 031E     		sub	r3, r0, #0
 139 001a 04D0     		beq	.L6
 163:network.c     ****             byte=UART_XB_UartGetChar();
 140              		.loc 1 163 0
 141 001c FFF7FEFF 		bl	UART_XB_UartGetChar
 142 0020 021C     		mov	r2, r0
 143 0022 FB1D     		add	r3, r7, #7
 144 0024 1A70     		strb	r2, [r3]
 145              	.L6:
 164:network.c     ****             
 165:network.c     ****         if(ntpFlagReadyForReceive && byte != 0)
 146              		.loc 1 165 0
 147 0026 194B     		ldr	r3, .L7+4
 148 0028 1B78     		ldrb	r3, [r3]
 149 002a 002B     		cmp	r3, #0
 150 002c 29D0     		beq	.L4
 151              		.loc 1 165 0 is_stmt 0 discriminator 1
 152 002e FB1D     		add	r3, r7, #7
 153 0030 1B78     		ldrb	r3, [r3]
 154 0032 002B     		cmp	r3, #0
 155 0034 25D0     		beq	.L4
 166:network.c     ****         {
 167:network.c     ****             NtpUnpackData(&recvDataNTP, (uint8_t)(byte & 0xFF));
 156              		.loc 1 167 0 is_stmt 1
 157 0036 164A     		ldr	r2, .L7+8
 158 0038 FB1D     		add	r3, r7, #7
 159 003a 1B78     		ldrb	r3, [r3]
 160 003c 101C     		mov	r0, r2
 161 003e 191C     		mov	r1, r3
 162 0040 FFF7FEFF 		bl	NtpUnpackData
 168:network.c     ****             
 169:network.c     ****             if(recvDataNTP.EndPacket)
 163              		.loc 1 169 0
 164 0044 124B     		ldr	r3, .L7+8
 165 0046 1B7C     		ldrb	r3, [r3, #16]
 166 0048 002B     		cmp	r3, #0
 167 004a 1AD0     		beq	.L4
 170:network.c     ****             {
 171:network.c     ****                 unixTime[T2] = RTC_GetUnixTime();
 168              		.loc 1 171 0
 169 004c FFF7FEFF 		bl	RTC_GetUnixTime
 170 0050 031C     		mov	r3, r0
 171 0052 0C1C     		mov	r4, r1
ARM GAS  C:\Users\Petro\AppData\Local\Temp\ccQIv3Iu.s 			page 7


 172 0054 1A1C     		mov	r2, r3
 173 0056 0F4B     		ldr	r3, .L7+12
 174 0058 5A60     		str	r2, [r3, #4]
 172:network.c     ****                 millisTime[T2] = RTCgetRecentMs();
 175              		.loc 1 172 0
 176 005a FFF7FEFF 		bl	RTCgetRecentMs
 177 005e 031C     		mov	r3, r0
 178 0060 9AB2     		uxth	r2, r3
 179 0062 0D4B     		ldr	r3, .L7+16
 180 0064 5A80     		strh	r2, [r3, #2]
 173:network.c     ****                 unixTime[T1] = recvDataNTP.Data1;
 181              		.loc 1 173 0
 182 0066 0A4B     		ldr	r3, .L7+8
 183 0068 5A68     		ldr	r2, [r3, #4]
 184 006a 0A4B     		ldr	r3, .L7+12
 185 006c 1A60     		str	r2, [r3]
 174:network.c     ****                 millisTime[T1] = recvDataNTP.DataMs1;
 186              		.loc 1 174 0
 187 006e 084B     		ldr	r3, .L7+8
 188 0070 1A89     		ldrh	r2, [r3, #8]
 189 0072 094B     		ldr	r3, .L7+16
 190 0074 1A80     		strh	r2, [r3]
 175:network.c     ****                 #ifdef DEBUGNTP
 176:network.c     ****                     pinDebugNtp_Write(1);
 177:network.c     ****                     pinDebugNtp_Write(0);
 178:network.c     ****                 #endif
 179:network.c     ****                 
 180:network.c     ****                 ntpFlagEndReceivePacket = 1;
 191              		.loc 1 180 0
 192 0076 094B     		ldr	r3, .L7+20
 193 0078 0122     		mov	r2, #1
 194 007a 1A70     		strb	r2, [r3]
 181:network.c     ****                 ntpFlagReadyForReceive = 0;
 195              		.loc 1 181 0
 196 007c 034B     		ldr	r3, .L7+4
 197 007e 0022     		mov	r2, #0
 198 0080 1A70     		strb	r2, [r3]
 199              	.L4:
 200              	.LBE2:
 182:network.c     ****             }
 183:network.c     ****         }
 184:network.c     ****     }
 185:network.c     **** }
 201              		.loc 1 185 0
 202 0082 BD46     		mov	sp, r7
 203 0084 03B0     		add	sp, sp, #12
 204              		@ sp needed
 205 0086 90BD     		pop	{r4, r7, pc}
 206              	.L8:
 207              		.align	2
 208              	.L7:
 209 0088 00000000 		.word	onNtpSync
 210 008c 00000000 		.word	ntpFlagReadyForReceive
 211 0090 00000000 		.word	recvDataNTP
 212 0094 00000000 		.word	unixTime
 213 0098 00000000 		.word	millisTime
 214 009c 00000000 		.word	ntpFlagEndReceivePacket
ARM GAS  C:\Users\Petro\AppData\Local\Temp\ccQIv3Iu.s 			page 8


 215              		.cfi_endproc
 216              	.LFE29:
 217              		.size	CustomInterruptHandler, .-CustomInterruptHandler
 218              		.section	.rodata
 219              		.align	2
 220              	.LC13:
 221 0000 25303258 		.ascii	"%02X:%08X%08X%04X%02X%02X\000"
 221      3A253038 
 221      58253038 
 221      58253034 
 221      58253032 
 222              		.section	.text.SendData,"ax",%progbits
 223              		.align	2
 224              		.global	SendData
 225              		.code	16
 226              		.thumb_func
 227              		.type	SendData, %function
 228              	SendData:
 229              	.LFB30:
 186:network.c     **** 
 187:network.c     **** /*******************************************************************************
 188:network.c     **** * Function Name: SendData
 189:network.c     **** ********************************************************************************
 190:network.c     **** *
 191:network.c     **** * Summary:
 192:network.c     **** *   send data to start from struct "outData"
 193:network.c     **** *
 194:network.c     **** *******************************************************************************/
 195:network.c     **** void SendData(void)
 196:network.c     **** {
 230              		.loc 1 196 0
 231              		.cfi_startproc
 232 0000 F0B5     		push	{r4, r5, r6, r7, lr}
 233              		.cfi_def_cfa_offset 20
 234              		.cfi_offset 4, -20
 235              		.cfi_offset 5, -16
 236              		.cfi_offset 6, -12
 237              		.cfi_offset 7, -8
 238              		.cfi_offset 14, -4
 239 0002 9FB0     		sub	sp, sp, #124
 240              		.cfi_def_cfa_offset 144
 241 0004 04AF     		add	r7, sp, #16
 242              		.cfi_def_cfa 7, 128
 197:network.c     ****     if(outData.writeStatus == NO_WRITE && inData.readStatus == READ_OK)
 243              		.loc 1 197 0
 244 0006 314B     		ldr	r3, .L12
 245 0008 DB7C     		ldrb	r3, [r3, #19]
 246 000a 002B     		cmp	r3, #0
 247 000c 5AD1     		bne	.L9
 248              		.loc 1 197 0 is_stmt 0 discriminator 1
 249 000e 304B     		ldr	r3, .L12+4
 250 0010 9B7C     		ldrb	r3, [r3, #18]
 251 0012 012B     		cmp	r3, #1
 252 0014 56D1     		bne	.L9
 198:network.c     ****     { 
 199:network.c     ****         if (inData.IDpacket == outData.IDpacket)
 253              		.loc 1 199 0 is_stmt 1
ARM GAS  C:\Users\Petro\AppData\Local\Temp\ccQIv3Iu.s 			page 9


 254 0016 2E4B     		ldr	r3, .L12+4
 255 0018 1878     		ldrb	r0, [r3]
 256 001a 2C4B     		ldr	r3, .L12
 257 001c 1B78     		ldrb	r3, [r3]
 258 001e 9842     		cmp	r0, r3
 259 0020 0AD1     		bne	.L11
 200:network.c     ****         {
 201:network.c     ****             /*send previous packet*/
 202:network.c     ****             
 203:network.c     ****             UART_XB_UartPutString(previousData);
 260              		.loc 1 203 0
 261 0022 2C4B     		ldr	r3, .L12+8
 262 0024 181C     		mov	r0, r3
 263 0026 FFF7FEFF 		bl	UART_XB_UartPutString
 204:network.c     ****             outData.writeStatus = WRITE_OK;
 264              		.loc 1 204 0
 265 002a 284B     		ldr	r3, .L12
 266 002c 0122     		mov	r2, #1
 267 002e DA74     		strb	r2, [r3, #19]
 205:network.c     ****             inData.readStatus = NO_READ;
 268              		.loc 1 205 0
 269 0030 274B     		ldr	r3, .L12+4
 270 0032 0022     		mov	r2, #0
 271 0034 9A74     		strb	r2, [r3, #18]
 272 0036 45E0     		b	.L9
 273              	.L11:
 274              	.LBB3:
 206:network.c     ****         }
 207:network.c     ****         else
 208:network.c     ****         {
 209:network.c     ****             /*send nex packet*/
 210:network.c     ****             
 211:network.c     ****             char sendBuffer[DATA_BUFFER];
 212:network.c     ****             char sendData[DATA_BUFFER];
 213:network.c     ****             
 214:network.c     ****             /*pack data*/
 215:network.c     ****             sprintf(sendData,"%02X:%08X%08X%04X%02X%02X",
 216:network.c     ****                     0u,
 217:network.c     ****                     (uint32_t)((outData.unixStartTime & MASK_HIGH) >> DATA_SHIFT), 
 275              		.loc 1 217 0
 276 0038 244B     		ldr	r3, .L12
 277 003a DC68     		ldr	r4, [r3, #12]
 278 003c 9B68     		ldr	r3, [r3, #8]
 279 003e 2100     		lsr	r1, r4, #0
 280 0040 0023     		mov	r3, #0
 281 0042 1A1C     		mov	r2, r3
 215:network.c     ****                     0u,
 282              		.loc 1 215 0
 283 0044 0E1C     		mov	r6, r1
 218:network.c     ****                     (uint32_t)(outData.unixStartTime & MASK_LOW), 
 284              		.loc 1 218 0
 285 0046 214B     		ldr	r3, .L12
 286 0048 DC68     		ldr	r4, [r3, #12]
 287 004a 9B68     		ldr	r3, [r3, #8]
 215:network.c     ****                     0u,
 288              		.loc 1 215 0
 289 004c 1D1C     		mov	r5, r3
ARM GAS  C:\Users\Petro\AppData\Local\Temp\ccQIv3Iu.s 			page 10


 219:network.c     ****                     outData.startMsTime, 
 290              		.loc 1 219 0
 291 004e 1F4B     		ldr	r3, .L12
 292 0050 1B8A     		ldrh	r3, [r3, #16]
 215:network.c     ****                     0u,
 293              		.loc 1 215 0
 294 0052 1C1C     		mov	r4, r3
 220:network.c     ****                     outData.newSkier, 
 295              		.loc 1 220 0
 296 0054 1D4B     		ldr	r3, .L12
 297 0056 9B7C     		ldrb	r3, [r3, #18]
 215:network.c     ****                     0u,
 298              		.loc 1 215 0
 299 0058 181C     		mov	r0, r3
 221:network.c     ****                     outData.reboot);
 300              		.loc 1 221 0
 301 005a 1C4B     		ldr	r3, .L12
 302 005c 1B7D     		ldrb	r3, [r3, #20]
 215:network.c     ****                     0u,
 303              		.loc 1 215 0
 304 005e 191C     		mov	r1, r3
 305 0060 3423     		mov	r3, #52
 306 0062 FA18     		add	r2, r7, r3
 307 0064 1C4B     		ldr	r3, .L12+12
 308 0066 0095     		str	r5, [sp]
 309 0068 0194     		str	r4, [sp, #4]
 310 006a 0290     		str	r0, [sp, #8]
 311 006c 0391     		str	r1, [sp, #12]
 312 006e 101C     		mov	r0, r2
 313 0070 191C     		mov	r1, r3
 314 0072 0022     		mov	r2, #0
 315 0074 331C     		mov	r3, r6
 316 0076 FFF7FEFF 		bl	sprintf
 222:network.c     ****             
 223:network.c     ****             
 224:network.c     ****             PackData(sendBuffer, (uint8_t *)sendData, inData.IDpacket);
 317              		.loc 1 224 0
 318 007a 154B     		ldr	r3, .L12+4
 319 007c 1B78     		ldrb	r3, [r3]
 320 007e 9BB2     		uxth	r3, r3
 321 0080 391C     		mov	r1, r7
 322 0082 3422     		mov	r2, #52
 323 0084 BA18     		add	r2, r7, r2
 324 0086 081C     		mov	r0, r1
 325 0088 111C     		mov	r1, r2
 326 008a 1A1C     		mov	r2, r3
 327 008c FFF7FEFF 		bl	PackData
 225:network.c     ****             UART_XB_UartPutString(sendBuffer);            
 328              		.loc 1 225 0
 329 0090 3B1C     		mov	r3, r7
 330 0092 181C     		mov	r0, r3
 331 0094 FFF7FEFF 		bl	UART_XB_UartPutString
 226:network.c     **** 
 227:network.c     ****             outData.newSkier = !NEW_SKIER_IN_TARCK;
 332              		.loc 1 227 0
 333 0098 0C4B     		ldr	r3, .L12
 334 009a 0022     		mov	r2, #0
ARM GAS  C:\Users\Petro\AppData\Local\Temp\ccQIv3Iu.s 			page 11


 335 009c 9A74     		strb	r2, [r3, #18]
 228:network.c     ****                 
 229:network.c     ****             outData.writeStatus = WRITE_OK;
 336              		.loc 1 229 0
 337 009e 0B4B     		ldr	r3, .L12
 338 00a0 0122     		mov	r2, #1
 339 00a2 DA74     		strb	r2, [r3, #19]
 230:network.c     ****             outData.IDpacket = inData.IDpacket;
 340              		.loc 1 230 0
 341 00a4 0A4B     		ldr	r3, .L12+4
 342 00a6 1A78     		ldrb	r2, [r3]
 343 00a8 084B     		ldr	r3, .L12
 344 00aa 1A70     		strb	r2, [r3]
 231:network.c     ****             inData.readStatus = NO_READ;
 345              		.loc 1 231 0
 346 00ac 084B     		ldr	r3, .L12+4
 347 00ae 0022     		mov	r2, #0
 348 00b0 9A74     		strb	r2, [r3, #18]
 232:network.c     ****             strcpy(previousData, sendBuffer);
 349              		.loc 1 232 0
 350 00b2 084A     		ldr	r2, .L12+8
 351 00b4 3B1C     		mov	r3, r7
 352 00b6 101C     		mov	r0, r2
 353 00b8 191C     		mov	r1, r3
 354 00ba FFF7FEFF 		bl	strcpy
 233:network.c     ****             
 234:network.c     ****             CyDelay(50);
 355              		.loc 1 234 0
 356 00be 3220     		mov	r0, #50
 357 00c0 FFF7FEFF 		bl	CyDelay
 358              	.L9:
 359              	.LBE3:
 235:network.c     ****         }
 236:network.c     ****     }
 237:network.c     **** }
 360              		.loc 1 237 0
 361 00c4 BD46     		mov	sp, r7
 362 00c6 1BB0     		add	sp, sp, #108
 363              		@ sp needed
 364 00c8 F0BD     		pop	{r4, r5, r6, r7, pc}
 365              	.L13:
 366 00ca C046     		.align	2
 367              	.L12:
 368 00cc 00000000 		.word	outData
 369 00d0 00000000 		.word	inData
 370 00d4 00000000 		.word	previousData
 371 00d8 00000000 		.word	.LC13
 372              		.cfi_endproc
 373              	.LFE30:
 374              		.size	SendData, .-SendData
 375              		.section	.text.ReceiveData,"ax",%progbits
 376              		.align	2
 377              		.global	ReceiveData
 378              		.code	16
 379              		.thumb_func
 380              		.type	ReceiveData, %function
 381              	ReceiveData:
ARM GAS  C:\Users\Petro\AppData\Local\Temp\ccQIv3Iu.s 			page 12


 382              	.LFB31:
 238:network.c     **** 
 239:network.c     **** 
 240:network.c     **** /*******************************************************************************
 241:network.c     **** * Function Name: ReceiveData
 242:network.c     **** ********************************************************************************
 243:network.c     **** *
 244:network.c     **** * Summary:
 245:network.c     **** *   receive data from start in struct "inData"
 246:network.c     **** * Return:
 247:network.c     **** *   NETWORK_CONNECT or NETWORK_DISCONNECT
 248:network.c     **** *
 249:network.c     **** *******************************************************************************/
 250:network.c     ****     uint32_t ReceiveData(void)
 251:network.c     ****     {
 383              		.loc 1 251 0
 384              		.cfi_startproc
 385 0000 80B5     		push	{r7, lr}
 386              		.cfi_def_cfa_offset 8
 387              		.cfi_offset 7, -8
 388              		.cfi_offset 14, -4
 389 0002 8AB0     		sub	sp, sp, #40
 390              		.cfi_def_cfa_offset 48
 391 0004 00AF     		add	r7, sp, #0
 392              		.cfi_def_cfa_register 7
 252:network.c     ****     if(outData.writeStatus == WRITE_OK && inData.readStatus == NO_READ)
 393              		.loc 1 252 0
 394 0006 2D4B     		ldr	r3, .L22
 395 0008 DB7C     		ldrb	r3, [r3, #19]
 396 000a 012B     		cmp	r3, #1
 397 000c 51D1     		bne	.L15
 398              		.loc 1 252 0 is_stmt 0 discriminator 1
 399 000e 2C4B     		ldr	r3, .L22+4
 400 0010 9B7C     		ldrb	r3, [r3, #18]
 401 0012 002B     		cmp	r3, #0
 402 0014 4DD1     		bne	.L15
 403              	.LBB4:
 253:network.c     ****     {
 254:network.c     ****         uint32_t byte;
 255:network.c     ****         struct Resp recvData;
 256:network.c     ****           
 257:network.c     ****         while((UART_XB_SpiUartGetRxBufferSize() > 0) && ((byte=UART_XB_UartGetChar()) != 0))
 404              		.loc 1 257 0 is_stmt 1
 405 0016 35E0     		b	.L16
 406              	.L19:
 258:network.c     ****         { 
 259:network.c     ****             UnpackData(&recvData, (uint8_t)(byte & 0xFF));
 407              		.loc 1 259 0
 408 0018 7B6A     		ldr	r3, [r7, #36]
 409 001a DBB2     		uxtb	r3, r3
 410 001c 3A1C     		mov	r2, r7
 411 001e 101C     		mov	r0, r2
 412 0020 191C     		mov	r1, r3
 413 0022 FFF7FEFF 		bl	UnpackData
 260:network.c     ****             
 261:network.c     ****             CyDelay(2);
 414              		.loc 1 261 0
ARM GAS  C:\Users\Petro\AppData\Local\Temp\ccQIv3Iu.s 			page 13


 415 0026 0220     		mov	r0, #2
 416 0028 FFF7FEFF 		bl	CyDelay
 262:network.c     ****             
 263:network.c     ****             if(recvData.EndPacket == 1)
 417              		.loc 1 263 0
 418 002c 3B1C     		mov	r3, r7
 419 002e 1B7E     		ldrb	r3, [r3, #24]
 420 0030 012B     		cmp	r3, #1
 421 0032 27D1     		bne	.L16
 264:network.c     ****             {                      
 265:network.c     ****                 inData.IDpacket = recvData.Seq;
 422              		.loc 1 265 0
 423 0034 3B1C     		mov	r3, r7
 424 0036 1B88     		ldrh	r3, [r3]
 425 0038 DAB2     		uxtb	r2, r3
 426 003a 214B     		ldr	r3, .L22+4
 427 003c 1A70     		strb	r2, [r3]
 266:network.c     ****                 
 267:network.c     ****                 inData.readStatus = READ_OK;
 428              		.loc 1 267 0
 429 003e 204B     		ldr	r3, .L22+4
 430 0040 0122     		mov	r2, #1
 431 0042 9A74     		strb	r2, [r3, #18]
 268:network.c     ****                 outData.writeStatus = NO_WRITE;
 432              		.loc 1 268 0
 433 0044 1D4B     		ldr	r3, .L22
 434 0046 0022     		mov	r2, #0
 435 0048 DA74     		strb	r2, [r3, #19]
 269:network.c     ****                 
 270:network.c     ****                 /*connect network*/
 271:network.c     ****                 networkStatus = NETWORK_CONN;
 436              		.loc 1 271 0
 437 004a 1E4B     		ldr	r3, .L22+8
 438 004c 0122     		mov	r2, #1
 439 004e 1A60     		str	r2, [r3]
 272:network.c     ****                 noConnect = 0;
 440              		.loc 1 272 0
 441 0050 1D4B     		ldr	r3, .L22+12
 442 0052 0022     		mov	r2, #0
 443 0054 1A60     		str	r2, [r3]
 273:network.c     ****                 /*write data*/
 274:network.c     ****                 inData.countSkiers = (recvData.Data3 & 0x00FF) << 8;
 444              		.loc 1 274 0
 445 0056 3B1C     		mov	r3, r7
 446 0058 5B8A     		ldrh	r3, [r3, #18]
 447 005a 1B02     		lsl	r3, r3, #8
 448 005c DAB2     		uxtb	r2, r3
 449 005e 184B     		ldr	r3, .L22+4
 450 0060 DA70     		strb	r2, [r3, #3]
 275:network.c     ****                 //inData.unixStartTime = recvData.Data1;
 276:network.c     ****                 inData.ready = (recvData.Data2 & 0xFF00) >> 8;
 451              		.loc 1 276 0
 452 0062 3B1C     		mov	r3, r7
 453 0064 1B8A     		ldrh	r3, [r3, #16]
 454 0066 1B0A     		lsr	r3, r3, #8
 455 0068 9BB2     		uxth	r3, r3
 456 006a DAB2     		uxtb	r2, r3
ARM GAS  C:\Users\Petro\AppData\Local\Temp\ccQIv3Iu.s 			page 14


 457 006c 144B     		ldr	r3, .L22+4
 458 006e 5A70     		strb	r2, [r3, #1]
 277:network.c     ****                 inData.reboot = recvData.Data2 & 0x00FF;
 459              		.loc 1 277 0
 460 0070 3B1C     		mov	r3, r7
 461 0072 1B8A     		ldrh	r3, [r3, #16]
 462 0074 DAB2     		uxtb	r2, r3
 463 0076 124B     		ldr	r3, .L22+4
 464 0078 9A70     		strb	r2, [r3, #2]
 278:network.c     ****                 
 279:network.c     ****                 CyDelay(50);
 465              		.loc 1 279 0
 466 007a 3220     		mov	r0, #50
 467 007c FFF7FEFF 		bl	CyDelay
 280:network.c     **** 
 281:network.c     ****                 return  NETWORK_CONN;  
 468              		.loc 1 281 0
 469 0080 0123     		mov	r3, #1
 470 0082 17E0     		b	.L21
 471              	.L16:
 257:network.c     ****         { 
 472              		.loc 1 257 0
 473 0084 FFF7FEFF 		bl	UART_XB_SpiUartGetRxBufferSize
 474 0088 031E     		sub	r3, r0, #0
 475 008a 06D0     		beq	.L18
 257:network.c     ****         { 
 476              		.loc 1 257 0 is_stmt 0 discriminator 1
 477 008c FFF7FEFF 		bl	UART_XB_UartGetChar
 478 0090 031C     		mov	r3, r0
 479 0092 7B62     		str	r3, [r7, #36]
 480 0094 7B6A     		ldr	r3, [r7, #36]
 481 0096 002B     		cmp	r3, #0
 482 0098 BED1     		bne	.L19
 483              	.L18:
 282:network.c     ****             }
 283:network.c     ****         }
 284:network.c     ****         
 285:network.c     ****         /*tyme to respond*/
 286:network.c     ****         if(noConnect++ >= NETWORK_TIMEOUT)
 484              		.loc 1 286 0 is_stmt 1
 485 009a 0B4B     		ldr	r3, .L22+12
 486 009c 1B68     		ldr	r3, [r3]
 487 009e 591C     		add	r1, r3, #1
 488 00a0 094A     		ldr	r2, .L22+12
 489 00a2 1160     		str	r1, [r2]
 490 00a4 312B     		cmp	r3, #49
 491 00a6 02DD     		ble	.L20
 287:network.c     ****         {
 288:network.c     ****             networkStatus = NETWORK_DISCONN;
 492              		.loc 1 288 0
 493 00a8 064B     		ldr	r3, .L22+8
 494 00aa 0022     		mov	r2, #0
 495 00ac 1A60     		str	r2, [r3]
 496              	.L20:
 289:network.c     ****         }
 290:network.c     ****         return  NETWORK_DISCONN;
 497              		.loc 1 290 0
ARM GAS  C:\Users\Petro\AppData\Local\Temp\ccQIv3Iu.s 			page 15


 498 00ae 0023     		mov	r3, #0
 499 00b0 00E0     		b	.L21
 500              	.L15:
 501              	.LBE4:
 291:network.c     ****     }
 292:network.c     ****     return 0;
 502              		.loc 1 292 0
 503 00b2 0023     		mov	r3, #0
 504              	.L21:
 293:network.c     **** }
 505              		.loc 1 293 0 discriminator 1
 506 00b4 181C     		mov	r0, r3
 507 00b6 BD46     		mov	sp, r7
 508 00b8 0AB0     		add	sp, sp, #40
 509              		@ sp needed
 510 00ba 80BD     		pop	{r7, pc}
 511              	.L23:
 512              		.align	2
 513              	.L22:
 514 00bc 00000000 		.word	outData
 515 00c0 00000000 		.word	inData
 516 00c4 00000000 		.word	networkStatus
 517 00c8 04000000 		.word	noConnect
 518              		.cfi_endproc
 519              	.LFE31:
 520              		.size	ReceiveData, .-ReceiveData
 521              		.section	.text.NetworkStatus,"ax",%progbits
 522              		.align	2
 523              		.global	NetworkStatus
 524              		.code	16
 525              		.thumb_func
 526              		.type	NetworkStatus, %function
 527              	NetworkStatus:
 528              	.LFB32:
 294:network.c     **** 
 295:network.c     **** /*******************************************************************************
 296:network.c     **** * Function Name: NetworkStatus
 297:network.c     **** ********************************************************************************
 298:network.c     **** *
 299:network.c     **** * Summary:
 300:network.c     **** *   read network status
 301:network.c     **** * Return:
 302:network.c     **** *   NETWORK_CONNECT or NETWORK_DISCONNECT
 303:network.c     **** *
 304:network.c     **** *******************************************************************************/
 305:network.c     **** uint32_t NetworkStatus(void)
 306:network.c     **** {
 529              		.loc 1 306 0
 530              		.cfi_startproc
 531 0000 80B5     		push	{r7, lr}
 532              		.cfi_def_cfa_offset 8
 533              		.cfi_offset 7, -8
 534              		.cfi_offset 14, -4
 535 0002 00AF     		add	r7, sp, #0
 536              		.cfi_def_cfa_register 7
 307:network.c     ****     return networkStatus;
 537              		.loc 1 307 0
ARM GAS  C:\Users\Petro\AppData\Local\Temp\ccQIv3Iu.s 			page 16


 538 0004 024B     		ldr	r3, .L26
 539 0006 1B68     		ldr	r3, [r3]
 308:network.c     **** }
 540              		.loc 1 308 0
 541 0008 181C     		mov	r0, r3
 542 000a BD46     		mov	sp, r7
 543              		@ sp needed
 544 000c 80BD     		pop	{r7, pc}
 545              	.L27:
 546 000e C046     		.align	2
 547              	.L26:
 548 0010 00000000 		.word	networkStatus
 549              		.cfi_endproc
 550              	.LFE32:
 551              		.size	NetworkStatus, .-NetworkStatus
 552              		.section	.text.SendSkierStart,"ax",%progbits
 553              		.align	2
 554              		.global	SendSkierStart
 555              		.code	16
 556              		.thumb_func
 557              		.type	SendSkierStart, %function
 558              	SendSkierStart:
 559              	.LFB33:
 309:network.c     **** 
 310:network.c     **** 
 311:network.c     **** 
 312:network.c     **** void SendSkierStart(uint64_t unixTimeStart, uint32_t recentMs)
 313:network.c     **** {
 560              		.loc 1 313 0
 561              		.cfi_startproc
 562 0000 90B5     		push	{r4, r7, lr}
 563              		.cfi_def_cfa_offset 12
 564              		.cfi_offset 4, -12
 565              		.cfi_offset 7, -8
 566              		.cfi_offset 14, -4
 567 0002 85B0     		sub	sp, sp, #20
 568              		.cfi_def_cfa_offset 32
 569 0004 00AF     		add	r7, sp, #0
 570              		.cfi_def_cfa_register 7
 571 0006 B860     		str	r0, [r7, #8]
 572 0008 F960     		str	r1, [r7, #12]
 573 000a 7A60     		str	r2, [r7, #4]
 314:network.c     ****     outData.unixStartTime = unixTimeStart;
 574              		.loc 1 314 0
 575 000c 074A     		ldr	r2, .L29
 576 000e BB68     		ldr	r3, [r7, #8]
 577 0010 FC68     		ldr	r4, [r7, #12]
 578 0012 9360     		str	r3, [r2, #8]
 579 0014 D460     		str	r4, [r2, #12]
 315:network.c     ****     outData.startMsTime = recentMs;
 580              		.loc 1 315 0
 581 0016 7B68     		ldr	r3, [r7, #4]
 582 0018 9AB2     		uxth	r2, r3
 583 001a 044B     		ldr	r3, .L29
 584 001c 1A82     		strh	r2, [r3, #16]
 316:network.c     ****     outData.newSkier = NEW_SKIER_IN_TARCK;
 585              		.loc 1 316 0
ARM GAS  C:\Users\Petro\AppData\Local\Temp\ccQIv3Iu.s 			page 17


 586 001e 034B     		ldr	r3, .L29
 587 0020 0122     		mov	r2, #1
 588 0022 9A74     		strb	r2, [r3, #18]
 317:network.c     **** }
 589              		.loc 1 317 0
 590 0024 BD46     		mov	sp, r7
 591 0026 05B0     		add	sp, sp, #20
 592              		@ sp needed
 593 0028 90BD     		pop	{r4, r7, pc}
 594              	.L30:
 595 002a C046     		.align	2
 596              	.L29:
 597 002c 00000000 		.word	outData
 598              		.cfi_endproc
 599              	.LFE33:
 600              		.size	SendSkierStart, .-SendSkierStart
 601              		.section	.text.FinReady,"ax",%progbits
 602              		.align	2
 603              		.global	FinReady
 604              		.code	16
 605              		.thumb_func
 606              		.type	FinReady, %function
 607              	FinReady:
 608              	.LFB34:
 318:network.c     **** 
 319:network.c     **** 
 320:network.c     **** uint32_t FinReady(void)
 321:network.c     **** {
 609              		.loc 1 321 0
 610              		.cfi_startproc
 611 0000 80B5     		push	{r7, lr}
 612              		.cfi_def_cfa_offset 8
 613              		.cfi_offset 7, -8
 614              		.cfi_offset 14, -4
 615 0002 00AF     		add	r7, sp, #0
 616              		.cfi_def_cfa_register 7
 322:network.c     ****     return inData.ready;
 617              		.loc 1 322 0
 618 0004 024B     		ldr	r3, .L33
 619 0006 5B78     		ldrb	r3, [r3, #1]
 323:network.c     **** }
 620              		.loc 1 323 0
 621 0008 181C     		mov	r0, r3
 622 000a BD46     		mov	sp, r7
 623              		@ sp needed
 624 000c 80BD     		pop	{r7, pc}
 625              	.L34:
 626 000e C046     		.align	2
 627              	.L33:
 628 0010 00000000 		.word	inData
 629              		.cfi_endproc
 630              	.LFE34:
 631              		.size	FinReady, .-FinReady
 632              		.section	.text.FinWriteInDB,"ax",%progbits
 633              		.align	2
 634              		.global	FinWriteInDB
 635              		.code	16
ARM GAS  C:\Users\Petro\AppData\Local\Temp\ccQIv3Iu.s 			page 18


 636              		.thumb_func
 637              		.type	FinWriteInDB, %function
 638              	FinWriteInDB:
 639              	.LFB35:
 324:network.c     **** 
 325:network.c     **** 
 326:network.c     **** uint32_t FinWriteInDB(void)
 327:network.c     **** {
 640              		.loc 1 327 0
 641              		.cfi_startproc
 642 0000 80B5     		push	{r7, lr}
 643              		.cfi_def_cfa_offset 8
 644              		.cfi_offset 7, -8
 645              		.cfi_offset 14, -4
 646 0002 82B0     		sub	sp, sp, #8
 647              		.cfi_def_cfa_offset 16
 648 0004 00AF     		add	r7, sp, #0
 649              		.cfi_def_cfa_register 7
 328:network.c     ****     uint32_t result;
 329:network.c     ****     
 330:network.c     ****     if(outData.newSkier == NEW_SKIER_IN_TARCK)
 650              		.loc 1 330 0
 651 0006 074B     		ldr	r3, .L39
 652 0008 9B7C     		ldrb	r3, [r3, #18]
 653 000a 012B     		cmp	r3, #1
 654 000c 02D1     		bne	.L36
 331:network.c     ****     {
 332:network.c     ****         result = NO_WRITE;
 655              		.loc 1 332 0
 656 000e 0023     		mov	r3, #0
 657 0010 7B60     		str	r3, [r7, #4]
 658 0012 01E0     		b	.L37
 659              	.L36:
 333:network.c     ****     }
 334:network.c     ****     else
 335:network.c     ****     {
 336:network.c     ****         result = WRITE_OK;
 660              		.loc 1 336 0
 661 0014 0123     		mov	r3, #1
 662 0016 7B60     		str	r3, [r7, #4]
 663              	.L37:
 337:network.c     ****     }
 338:network.c     ****     
 339:network.c     ****     return result;
 664              		.loc 1 339 0
 665 0018 7B68     		ldr	r3, [r7, #4]
 340:network.c     **** }
 666              		.loc 1 340 0
 667 001a 181C     		mov	r0, r3
 668 001c BD46     		mov	sp, r7
 669 001e 02B0     		add	sp, sp, #8
 670              		@ sp needed
 671 0020 80BD     		pop	{r7, pc}
 672              	.L40:
 673 0022 C046     		.align	2
 674              	.L39:
 675 0024 00000000 		.word	outData
ARM GAS  C:\Users\Petro\AppData\Local\Temp\ccQIv3Iu.s 			page 19


 676              		.cfi_endproc
 677              	.LFE35:
 678              		.size	FinWriteInDB, .-FinWriteInDB
 679              		.section	.text.IsRebootFinishFlag,"ax",%progbits
 680              		.align	2
 681              		.global	IsRebootFinishFlag
 682              		.code	16
 683              		.thumb_func
 684              		.type	IsRebootFinishFlag, %function
 685              	IsRebootFinishFlag:
 686              	.LFB36:
 341:network.c     **** 
 342:network.c     **** uint32_t IsRebootFinishFlag(void)
 343:network.c     **** {
 687              		.loc 1 343 0
 688              		.cfi_startproc
 689 0000 80B5     		push	{r7, lr}
 690              		.cfi_def_cfa_offset 8
 691              		.cfi_offset 7, -8
 692              		.cfi_offset 14, -4
 693 0002 82B0     		sub	sp, sp, #8
 694              		.cfi_def_cfa_offset 16
 695 0004 00AF     		add	r7, sp, #0
 696              		.cfi_def_cfa_register 7
 344:network.c     ****     uint32_t result;
 345:network.c     ****     
 346:network.c     ****     if(inData.reboot == 1 && outData.reboot == 0)
 697              		.loc 1 346 0
 698 0006 0D4B     		ldr	r3, .L45
 699 0008 9B78     		ldrb	r3, [r3, #2]
 700 000a 012B     		cmp	r3, #1
 701 000c 09D1     		bne	.L42
 702              		.loc 1 346 0 is_stmt 0 discriminator 1
 703 000e 0C4B     		ldr	r3, .L45+4
 704 0010 1B7D     		ldrb	r3, [r3, #20]
 705 0012 002B     		cmp	r3, #0
 706 0014 05D1     		bne	.L42
 347:network.c     ****     {
 348:network.c     ****         result = REBOOT;
 707              		.loc 1 348 0 is_stmt 1
 708 0016 FF23     		mov	r3, #255
 709 0018 7B60     		str	r3, [r7, #4]
 349:network.c     ****         inData.reboot = 0;
 710              		.loc 1 349 0
 711 001a 084B     		ldr	r3, .L45
 712 001c 0022     		mov	r2, #0
 713 001e 9A70     		strb	r2, [r3, #2]
 714 0020 07E0     		b	.L43
 715              	.L42:
 350:network.c     ****     }
 351:network.c     ****     else
 352:network.c     ****     {
 353:network.c     ****         outData.reboot = 0;
 716              		.loc 1 353 0
 717 0022 074B     		ldr	r3, .L45+4
 718 0024 0022     		mov	r2, #0
 719 0026 1A75     		strb	r2, [r3, #20]
ARM GAS  C:\Users\Petro\AppData\Local\Temp\ccQIv3Iu.s 			page 20


 354:network.c     ****         inData.reboot = 0;
 720              		.loc 1 354 0
 721 0028 044B     		ldr	r3, .L45
 722 002a 0022     		mov	r2, #0
 723 002c 9A70     		strb	r2, [r3, #2]
 355:network.c     ****         result = NO_REBOOT;
 724              		.loc 1 355 0
 725 002e FE23     		mov	r3, #254
 726 0030 7B60     		str	r3, [r7, #4]
 727              	.L43:
 356:network.c     ****     }
 357:network.c     ****     return result;
 728              		.loc 1 357 0
 729 0032 7B68     		ldr	r3, [r7, #4]
 358:network.c     **** }
 730              		.loc 1 358 0
 731 0034 181C     		mov	r0, r3
 732 0036 BD46     		mov	sp, r7
 733 0038 02B0     		add	sp, sp, #8
 734              		@ sp needed
 735 003a 80BD     		pop	{r7, pc}
 736              	.L46:
 737              		.align	2
 738              	.L45:
 739 003c 00000000 		.word	inData
 740 0040 00000000 		.word	outData
 741              		.cfi_endproc
 742              	.LFE36:
 743              		.size	IsRebootFinishFlag, .-IsRebootFinishFlag
 744              		.section	.text.SetRebootFlag,"ax",%progbits
 745              		.align	2
 746              		.global	SetRebootFlag
 747              		.code	16
 748              		.thumb_func
 749              		.type	SetRebootFlag, %function
 750              	SetRebootFlag:
 751              	.LFB37:
 359:network.c     **** 
 360:network.c     **** void SetRebootFlag(void)
 361:network.c     **** {
 752              		.loc 1 361 0
 753              		.cfi_startproc
 754 0000 80B5     		push	{r7, lr}
 755              		.cfi_def_cfa_offset 8
 756              		.cfi_offset 7, -8
 757              		.cfi_offset 14, -4
 758 0002 00AF     		add	r7, sp, #0
 759              		.cfi_def_cfa_register 7
 362:network.c     ****     outData.reboot = 1;
 760              		.loc 1 362 0
 761 0004 024B     		ldr	r3, .L48
 762 0006 0122     		mov	r2, #1
 763 0008 1A75     		strb	r2, [r3, #20]
 363:network.c     **** }
 764              		.loc 1 363 0
 765 000a BD46     		mov	sp, r7
 766              		@ sp needed
ARM GAS  C:\Users\Petro\AppData\Local\Temp\ccQIv3Iu.s 			page 21


 767 000c 80BD     		pop	{r7, pc}
 768              	.L49:
 769 000e C046     		.align	2
 770              	.L48:
 771 0010 00000000 		.word	outData
 772              		.cfi_endproc
 773              	.LFE37:
 774              		.size	SetRebootFlag, .-SetRebootFlag
 775              		.section	.text.ClearRebootFlag,"ax",%progbits
 776              		.align	2
 777              		.global	ClearRebootFlag
 778              		.code	16
 779              		.thumb_func
 780              		.type	ClearRebootFlag, %function
 781              	ClearRebootFlag:
 782              	.LFB38:
 364:network.c     **** 
 365:network.c     **** void ClearRebootFlag(void)
 366:network.c     **** {
 783              		.loc 1 366 0
 784              		.cfi_startproc
 785 0000 80B5     		push	{r7, lr}
 786              		.cfi_def_cfa_offset 8
 787              		.cfi_offset 7, -8
 788              		.cfi_offset 14, -4
 789 0002 00AF     		add	r7, sp, #0
 790              		.cfi_def_cfa_register 7
 367:network.c     ****     inData.reboot = 0;
 791              		.loc 1 367 0
 792 0004 034B     		ldr	r3, .L51
 793 0006 0022     		mov	r2, #0
 794 0008 9A70     		strb	r2, [r3, #2]
 368:network.c     ****     outData.reboot = 0;
 795              		.loc 1 368 0
 796 000a 034B     		ldr	r3, .L51+4
 797 000c 0022     		mov	r2, #0
 798 000e 1A75     		strb	r2, [r3, #20]
 369:network.c     **** }
 799              		.loc 1 369 0
 800 0010 BD46     		mov	sp, r7
 801              		@ sp needed
 802 0012 80BD     		pop	{r7, pc}
 803              	.L52:
 804              		.align	2
 805              	.L51:
 806 0014 00000000 		.word	inData
 807 0018 00000000 		.word	outData
 808              		.cfi_endproc
 809              	.LFE38:
 810              		.size	ClearRebootFlag, .-ClearRebootFlag
 811              		.section	.text.NTPsync,"ax",%progbits
 812              		.align	2
 813              		.global	NTPsync
 814              		.code	16
 815              		.thumb_func
 816              		.type	NTPsync, %function
 817              	NTPsync:
ARM GAS  C:\Users\Petro\AppData\Local\Temp\ccQIv3Iu.s 			page 22


 818              	.LFB39:
 370:network.c     **** 
 371:network.c     **** 
 372:network.c     **** /*******************************************************************************
 373:network.c     **** * Function Name: NTPsync
 374:network.c     **** ********************************************************************************
 375:network.c     **** *
 376:network.c     **** * Summary:
 377:network.c     **** *   NTP time synchronization protocol on
 378:network.c     ****     1) –≤—ñ–¥–±—É–≤–∞—î—Ç—Å—å—è –≤–∏–º—ñ—Ä—é–≤–∞–Ω–Ω—è —á–∞—Å—É –ø—Ä–∏–π–Ω—è—Ç—Ç—è  —Ç–∞ –ø–µ—Ä–µ–¥
 379:network.c     ****     2) –≤–∏–∑–Ω–∞—á–µ–Ω–Ω—è —á–∞—Å—É –ø–µ—Ä–µ–¥–∞—á—ñ –ø–∞–∫–µ—Ç—É –∑–∞ –¥–æ–ø–æ–º–æ–≥–æ—é __ –ø–∞–
 380:network.c     ****     3) –≤—Å—Ç–∞–Ω–æ–≤–ª–µ–Ω–Ω—è —á–∞—Å—É –∑ –≤—Ä–∞—Ö—É–≤–∞–Ω–Ω—è–º —á–∞—Å—É –ø–µ—Ä–µ–¥–∞—á—ñ
 381:network.c     **** * Return:
 382:network.c     **** *   TIME_SYNC_OK or TIME_SYNC_ERR
 383:network.c     **** *
 384:network.c     **** *******************************************************************************/
 385:network.c     **** uint32_t NTPsync(void)
 386:network.c     **** {
 819              		.loc 1 386 0
 820              		.cfi_startproc
 821 0000 F0B5     		push	{r4, r5, r6, r7, lr}
 822              		.cfi_def_cfa_offset 20
 823              		.cfi_offset 4, -20
 824              		.cfi_offset 5, -16
 825              		.cfi_offset 6, -12
 826              		.cfi_offset 7, -8
 827              		.cfi_offset 14, -4
 828 0002 87B0     		sub	sp, sp, #28
 829              		.cfi_def_cfa_offset 48
 830 0004 02AF     		add	r7, sp, #8
 831              		.cfi_def_cfa 7, 40
 387:network.c     ****     uint16_t result;    
 388:network.c     ****     
 389:network.c     ****     result = TIME_SYNC_ERR; 
 832              		.loc 1 389 0
 833 0006 0E23     		mov	r3, #14
 834 0008 FB18     		add	r3, r7, r3
 835 000a 0122     		mov	r2, #1
 836 000c 1A80     		strh	r2, [r3]
 390:network.c     ****     ntpFlagEndReceivePacket = 0;
 837              		.loc 1 390 0
 838 000e 8F4B     		ldr	r3, .L67
 839 0010 0022     		mov	r2, #0
 840 0012 1A70     		strb	r2, [r3]
 391:network.c     ****     ntpFlagReadyForReceive = 1;
 841              		.loc 1 391 0
 842 0014 8E4B     		ldr	r3, .L67+4
 843 0016 0122     		mov	r2, #1
 844 0018 1A70     		strb	r2, [r3]
 392:network.c     ****     uint16_t delayReceivePacket;
 393:network.c     ****     uint32_t oldUnixTime;
 394:network.c     ****     
 395:network.c     ****     delayReceivePacket = 4*NTP_DELAY_RECEIVED_PACKET;
 845              		.loc 1 395 0
 846 001a 0C23     		mov	r3, #12
 847 001c FB18     		add	r3, r7, r3
 848 001e FA22     		mov	r2, #250
ARM GAS  C:\Users\Petro\AppData\Local\Temp\ccQIv3Iu.s 			page 23


 849 0020 D200     		lsl	r2, r2, #3
 850 0022 1A80     		strh	r2, [r3]
 396:network.c     ****     oldUnixTime = RTCGetUnixTime();
 851              		.loc 1 396 0
 852 0024 FFF7FEFF 		bl	RTCGetUnixTime
 853 0028 021C     		mov	r2, r0
 854 002a 0B1C     		mov	r3, r1
 855 002c 131C     		mov	r3, r2
 856 002e BB60     		str	r3, [r7, #8]
 397:network.c     ****     delayReceivePacket += RTCgetRecentMs();
 857              		.loc 1 397 0
 858 0030 FFF7FEFF 		bl	RTCgetRecentMs
 859 0034 031C     		mov	r3, r0
 860 0036 99B2     		uxth	r1, r3
 861 0038 0C23     		mov	r3, #12
 862 003a FB18     		add	r3, r7, r3
 863 003c 0C22     		mov	r2, #12
 864 003e BA18     		add	r2, r7, r2
 865 0040 1288     		ldrh	r2, [r2]
 866 0042 8A18     		add	r2, r1, r2
 867 0044 1A80     		strh	r2, [r3]
 398:network.c     ****     onNtpSync = 1;
 868              		.loc 1 398 0
 869 0046 834B     		ldr	r3, .L67+8
 870 0048 0122     		mov	r2, #1
 871 004a 1A70     		strb	r2, [r3]
 399:network.c     ****     
 400:network.c     ****     UART_XB_SpiUartClearRxBuffer();
 872              		.loc 1 400 0
 873 004c FFF7FEFF 		bl	UART_XB_SpiUartClearRxBuffer
 401:network.c     ****     
 402:network.c     ****     while((RTCgetRecentMs() < delayReceivePacket) )//&& (result != TIME_SYNC_OK))
 874              		.loc 1 402 0
 875 0050 E9E0     		b	.L54
 876              	.L64:
 403:network.c     ****     {
 404:network.c     ****         if(ntpFlagEndReceivePacket)
 877              		.loc 1 404 0
 878 0052 7E4B     		ldr	r3, .L67
 879 0054 1B78     		ldrb	r3, [r3]
 880 0056 002B     		cmp	r3, #0
 881 0058 00D1     		bne	.LCB718
 882 005a C4E0     		b	.L55	@long jump
 883              	.LCB718:
 405:network.c     ****         {
 406:network.c     ****             #ifdef DEBUGNTP
 407:network.c     ****                 pinDebugNtp_Write(1);
 408:network.c     ****                 pinDebugNtp_Write(0);
 409:network.c     ****             #endif
 410:network.c     ****             
 411:network.c     ****             if(recvDataNTP.Id == 1 )//&& (currentStage == ROUGH_SET_TIME)) /*set real unix time*/
 884              		.loc 1 411 0
 885 005c 7E4B     		ldr	r3, .L67+12
 886 005e 1B88     		ldrh	r3, [r3]
 887 0060 012B     		cmp	r3, #1
 888 0062 21D1     		bne	.L56
 412:network.c     ****             {
ARM GAS  C:\Users\Petro\AppData\Local\Temp\ccQIv3Iu.s 			page 24


 413:network.c     ****                 ntpFlagEndReceivePacket = 0;
 889              		.loc 1 413 0
 890 0064 794B     		ldr	r3, .L67
 891 0066 0022     		mov	r2, #0
 892 0068 1A70     		strb	r2, [r3]
 414:network.c     ****                 
 415:network.c     ****                 RTCSync(unixTime[T1], millisTime[T1]);
 893              		.loc 1 415 0
 894 006a 7C4B     		ldr	r3, .L67+16
 895 006c 1A68     		ldr	r2, [r3]
 896 006e 7C4B     		ldr	r3, .L67+20
 897 0070 1B88     		ldrh	r3, [r3]
 898 0072 101C     		mov	r0, r2
 899 0074 191C     		mov	r1, r3
 900 0076 FFF7FEFF 		bl	RTCSync
 416:network.c     ****                 oldUnixTime = unixTime[T1];
 901              		.loc 1 416 0
 902 007a 784B     		ldr	r3, .L67+16
 903 007c 1B68     		ldr	r3, [r3]
 904 007e BB60     		str	r3, [r7, #8]
 417:network.c     ****                 delayReceivePacket = NTP_DELAY_RECEIVED_PACKET+millisTime[T1];
 905              		.loc 1 417 0
 906 0080 774B     		ldr	r3, .L67+20
 907 0082 1A88     		ldrh	r2, [r3]
 908 0084 0C23     		mov	r3, #12
 909 0086 FB18     		add	r3, r7, r3
 910 0088 F532     		add	r2, r2, #245
 911 008a FF32     		add	r2, r2, #255
 912 008c 1A80     		strh	r2, [r3]
 418:network.c     ****                 
 419:network.c     ****                 /*send response*/
 420:network.c     ****                 NTPsendTime(0,0,0,0,recvDataNTP.Id);
 913              		.loc 1 420 0
 914 008e 724B     		ldr	r3, .L67+12
 915 0090 1B88     		ldrh	r3, [r3]
 916 0092 0093     		str	r3, [sp]
 917 0094 0020     		mov	r0, #0
 918 0096 0021     		mov	r1, #0
 919 0098 0022     		mov	r2, #0
 920 009a 0023     		mov	r3, #0
 921 009c FFF7FEFF 		bl	NTPsendTime
 421:network.c     ****                 
 422:network.c     ****                 
 423:network.c     ****                 #ifdef DEBUG_INFO
 424:network.c     **** //                sprintf(uartBuff, "set unix=%d,ms=%d   ",unixTime[T1], millisTime[T1]);
 425:network.c     **** //                SW_uartDebug_PutString(uartBuff);
 426:network.c     **** //                SW_uartDebug_PutString("receive id=1\n\r");
 427:network.c     ****                 #endif
 428:network.c     ****                 ntpFlagReadyForReceive = 1;
 922              		.loc 1 428 0
 923 00a0 6B4B     		ldr	r3, .L67+4
 924 00a2 0122     		mov	r2, #1
 925 00a4 1A70     		strb	r2, [r3]
 926 00a6 88E0     		b	.L57
 927              	.L56:
 429:network.c     ****             }
 430:network.c     ****             else if(recvDataNTP.Id == 0) /*set difference time*/
ARM GAS  C:\Users\Petro\AppData\Local\Temp\ccQIv3Iu.s 			page 25


 928              		.loc 1 430 0
 929 00a8 6B4B     		ldr	r3, .L67+12
 930 00aa 1B88     		ldrh	r3, [r3]
 931 00ac 002B     		cmp	r3, #0
 932 00ae 54D1     		bne	.L58
 933              	.LBB5:
 431:network.c     ****             {
 432:network.c     ****                 ntpFlagEndReceivePacket = 0;
 934              		.loc 1 432 0
 935 00b0 664B     		ldr	r3, .L67
 936 00b2 0022     		mov	r2, #0
 937 00b4 1A70     		strb	r2, [r3]
 433:network.c     ****                 
 434:network.c     ****                 uint32_t unixTimeReal;
 435:network.c     ****                 uint16_t millisTimeReal;
 436:network.c     ****                 
 437:network.c     ****                 if(result == TIME_SYNC_ERR)
 938              		.loc 1 437 0
 939 00b6 0E23     		mov	r3, #14
 940 00b8 FB18     		add	r3, r7, r3
 941 00ba 1B88     		ldrh	r3, [r3]
 942 00bc 012B     		cmp	r3, #1
 943 00be 2CD1     		bne	.L59
 438:network.c     ****                 {
 439:network.c     ****                     unixTimeReal = RTC_GetUnixTime();
 944              		.loc 1 439 0
 945 00c0 FFF7FEFF 		bl	RTC_GetUnixTime
 946 00c4 021C     		mov	r2, r0
 947 00c6 0B1C     		mov	r3, r1
 948 00c8 131C     		mov	r3, r2
 949 00ca 7B60     		str	r3, [r7, #4]
 440:network.c     ****                     millisTimeReal = RTCgetRecentMs();
 950              		.loc 1 440 0
 951 00cc FFF7FEFF 		bl	RTCgetRecentMs
 952 00d0 021C     		mov	r2, r0
 953 00d2 BB1C     		add	r3, r7, #2
 954 00d4 1A80     		strh	r2, [r3]
 441:network.c     ****                     
 442:network.c     ****                     /*add difference time*/
 443:network.c     ****                     unixTimeReal += unixTime[T1];
 955              		.loc 1 443 0
 956 00d6 614B     		ldr	r3, .L67+16
 957 00d8 1B68     		ldr	r3, [r3]
 958 00da 7A68     		ldr	r2, [r7, #4]
 959 00dc D318     		add	r3, r2, r3
 960 00de 7B60     		str	r3, [r7, #4]
 444:network.c     ****                     millisTimeReal += millisTime[T1];
 961              		.loc 1 444 0
 962 00e0 5F4B     		ldr	r3, .L67+20
 963 00e2 1988     		ldrh	r1, [r3]
 964 00e4 BB1C     		add	r3, r7, #2
 965 00e6 BA1C     		add	r2, r7, #2
 966 00e8 1288     		ldrh	r2, [r2]
 967 00ea 8A18     		add	r2, r1, r2
 968 00ec 1A80     		strh	r2, [r3]
 445:network.c     ****                     if(millisTimeReal  >= 1000)
 969              		.loc 1 445 0
ARM GAS  C:\Users\Petro\AppData\Local\Temp\ccQIv3Iu.s 			page 26


 970 00ee BB1C     		add	r3, r7, #2
 971 00f0 1B88     		ldrh	r3, [r3]
 972 00f2 5C4A     		ldr	r2, .L67+24
 973 00f4 9342     		cmp	r3, r2
 974 00f6 09D9     		bls	.L60
 446:network.c     ****                     {
 447:network.c     ****                         unixTimeReal++;
 975              		.loc 1 447 0
 976 00f8 7B68     		ldr	r3, [r7, #4]
 977 00fa 0133     		add	r3, r3, #1
 978 00fc 7B60     		str	r3, [r7, #4]
 448:network.c     ****                         millisTimeReal -= 1000;
 979              		.loc 1 448 0
 980 00fe BB1C     		add	r3, r7, #2
 981 0100 BA1C     		add	r2, r7, #2
 982 0102 1288     		ldrh	r2, [r2]
 983 0104 5849     		ldr	r1, .L67+28
 984 0106 8C46     		mov	ip, r1
 985 0108 6244     		add	r2, r2, ip
 986 010a 1A80     		strh	r2, [r3]
 987              	.L60:
 449:network.c     ****                     }
 450:network.c     ****                     RTCSync(unixTimeReal, millisTimeReal);
 988              		.loc 1 450 0
 989 010c 7A68     		ldr	r2, [r7, #4]
 990 010e BB1C     		add	r3, r7, #2
 991 0110 1B88     		ldrh	r3, [r3]
 992 0112 101C     		mov	r0, r2
 993 0114 191C     		mov	r1, r3
 994 0116 FFF7FEFF 		bl	RTCSync
 995              	.L59:
 451:network.c     ****                 }
 452:network.c     ****                 oldUnixTime = RTCGetUnixTime();;
 996              		.loc 1 452 0
 997 011a FFF7FEFF 		bl	RTCGetUnixTime
 998 011e 021C     		mov	r2, r0
 999 0120 0B1C     		mov	r3, r1
 1000 0122 131C     		mov	r3, r2
 1001 0124 BB60     		str	r3, [r7, #8]
 453:network.c     ****                 delayReceivePacket = NTP_DELAY_RECEIVED_PACKET+RTCgetRecentMs();;
 1002              		.loc 1 453 0
 1003 0126 FFF7FEFF 		bl	RTCgetRecentMs
 1004 012a 031C     		mov	r3, r0
 1005 012c 9AB2     		uxth	r2, r3
 1006 012e 0C23     		mov	r3, #12
 1007 0130 FB18     		add	r3, r7, r3
 1008 0132 F532     		add	r2, r2, #245
 1009 0134 FF32     		add	r2, r2, #255
 1010 0136 1A80     		strh	r2, [r3]
 454:network.c     ****                 /*send response*/
 455:network.c     ****                 NTPsendTime(0,0,0,0,recvDataNTP.Id);
 1011              		.loc 1 455 0
 1012 0138 474B     		ldr	r3, .L67+12
 1013 013a 1B88     		ldrh	r3, [r3]
 1014 013c 0093     		str	r3, [sp]
 1015 013e 0020     		mov	r0, #0
 1016 0140 0021     		mov	r1, #0
ARM GAS  C:\Users\Petro\AppData\Local\Temp\ccQIv3Iu.s 			page 27


 1017 0142 0022     		mov	r2, #0
 1018 0144 0023     		mov	r3, #0
 1019 0146 FFF7FEFF 		bl	NTPsendTime
 456:network.c     ****                 result = TIME_SYNC_OK;
 1020              		.loc 1 456 0
 1021 014a 0E23     		mov	r3, #14
 1022 014c FB18     		add	r3, r7, r3
 1023 014e 0022     		mov	r2, #0
 1024 0150 1A80     		strh	r2, [r3]
 457:network.c     ****                                 
 458:network.c     ****                 #ifdef DEBUG_INFO    
 459:network.c     **** //                SW_uartDebug_PutString("receive id=0\n\r");
 460:network.c     ****                 #endif
 461:network.c     ****                 
 462:network.c     ****                 ntpFlagReadyForReceive = 1;
 1025              		.loc 1 462 0
 1026 0152 3F4B     		ldr	r3, .L67+4
 1027 0154 0122     		mov	r2, #1
 1028 0156 1A70     		strb	r2, [r3]
 1029              	.LBE5:
 1030 0158 2FE0     		b	.L57
 1031              	.L58:
 463:network.c     ****             }
 464:network.c     ****             else    /*packet for determite the difference time */
 465:network.c     ****             {
 466:network.c     ****                 ntpFlagEndReceivePacket = 0;
 1032              		.loc 1 466 0
 1033 015a 3C4B     		ldr	r3, .L67
 1034 015c 0022     		mov	r2, #0
 1035 015e 1A70     		strb	r2, [r3]
 467:network.c     ****                 
 468:network.c     ****                 CyDelay(100);
 1036              		.loc 1 468 0
 1037 0160 6420     		mov	r0, #100
 1038 0162 FFF7FEFF 		bl	CyDelay
 469:network.c     ****                 
 470:network.c     ****                 /*read real time*/
 471:network.c     ****                 millisTime[T3] = RTCgetRecentMs();
 1039              		.loc 1 471 0
 1040 0166 FFF7FEFF 		bl	RTCgetRecentMs
 1041 016a 031C     		mov	r3, r0
 1042 016c 9AB2     		uxth	r2, r3
 1043 016e 3C4B     		ldr	r3, .L67+20
 1044 0170 9A80     		strh	r2, [r3, #4]
 472:network.c     ****                 unixTime[T3] = RTC_GetUnixTime();
 1045              		.loc 1 472 0
 1046 0172 FFF7FEFF 		bl	RTC_GetUnixTime
 1047 0176 021C     		mov	r2, r0
 1048 0178 0B1C     		mov	r3, r1
 1049 017a 384B     		ldr	r3, .L67+16
 1050 017c 9A60     		str	r2, [r3, #8]
 473:network.c     **** 
 474:network.c     ****                 #ifdef DEBUGNTP
 475:network.c     ****                     pinDebugNtp_Write(1);
 476:network.c     ****                     pinDebugNtp_Write(0);
 477:network.c     ****                     pinDebugNtp_Write(1);
 478:network.c     ****                     pinDebugNtp_Write(0);
ARM GAS  C:\Users\Petro\AppData\Local\Temp\ccQIv3Iu.s 			page 28


 479:network.c     ****                 #endif
 480:network.c     ****                 
 481:network.c     ****                 if((unixTime[T2] == unixTime[T3]) || ((unixTime[T2] == (unixTime[T3])-1)))
 1051              		.loc 1 481 0
 1052 017e 374B     		ldr	r3, .L67+16
 1053 0180 5A68     		ldr	r2, [r3, #4]
 1054 0182 364B     		ldr	r3, .L67+16
 1055 0184 9B68     		ldr	r3, [r3, #8]
 1056 0186 9A42     		cmp	r2, r3
 1057 0188 06D0     		beq	.L61
 1058              		.loc 1 481 0 is_stmt 0 discriminator 1
 1059 018a 344B     		ldr	r3, .L67+16
 1060 018c 5A68     		ldr	r2, [r3, #4]
 1061 018e 334B     		ldr	r3, .L67+16
 1062 0190 9B68     		ldr	r3, [r3, #8]
 1063 0192 013B     		sub	r3, r3, #1
 1064 0194 9A42     		cmp	r2, r3
 1065 0196 0DD1     		bne	.L62
 1066              	.L61:
 482:network.c     ****                 {
 483:network.c     ****                     NTPsendTime(unixTime[T2], unixTime[T3], millisTime[T2], millisTime[T3], recvDat
 1067              		.loc 1 483 0 is_stmt 1
 1068 0198 304B     		ldr	r3, .L67+16
 1069 019a 5868     		ldr	r0, [r3, #4]
 1070 019c 2F4B     		ldr	r3, .L67+16
 1071 019e 9968     		ldr	r1, [r3, #8]
 1072 01a0 2F4B     		ldr	r3, .L67+20
 1073 01a2 5A88     		ldrh	r2, [r3, #2]
 1074 01a4 2E4B     		ldr	r3, .L67+20
 1075 01a6 9E88     		ldrh	r6, [r3, #4]
 1076 01a8 2B4B     		ldr	r3, .L67+12
 1077 01aa 1B88     		ldrh	r3, [r3]
 1078 01ac 0093     		str	r3, [sp]
 1079 01ae 331C     		mov	r3, r6
 1080 01b0 FFF7FEFF 		bl	NTPsendTime
 1081              	.L62:
 484:network.c     ****                 }
 485:network.c     ****                 
 486:network.c     ****                 #ifdef DEBUG_INFO
 487:network.c     **** //                sprintf(uartBuff,"uT2=%d,uT3=%d, mT2=%d,mT3=%d   ",unixTime[T2], unixTime[T3], mi
 488:network.c     **** //                SW_uartDebug_PutString(uartBuff);
 489:network.c     **** //                sprintf(uartBuff,"receive id>1 id=%d\n\r",recvDataNTP.Id);
 490:network.c     **** //                SW_uartDebug_PutString(uartBuff);
 491:network.c     ****                 #endif
 492:network.c     ****                 
 493:network.c     ****                 ntpFlagReadyForReceive = 1;
 1082              		.loc 1 493 0
 1083 01b4 264B     		ldr	r3, .L67+4
 1084 01b6 0122     		mov	r2, #1
 1085 01b8 1A70     		strb	r2, [r3]
 1086              	.L57:
 494:network.c     ****             }
 495:network.c     ****             delayReceivePacket = NTP_DELAY_RECEIVED_PACKET;
 1087              		.loc 1 495 0
 1088 01ba 0C23     		mov	r3, #12
 1089 01bc FB18     		add	r3, r7, r3
 1090 01be FA22     		mov	r2, #250
ARM GAS  C:\Users\Petro\AppData\Local\Temp\ccQIv3Iu.s 			page 29


 1091 01c0 5200     		lsl	r2, r2, #1
 1092 01c2 1A80     		strh	r2, [r3]
 496:network.c     ****             oldUnixTime = RTCGetUnixTime();
 1093              		.loc 1 496 0
 1094 01c4 FFF7FEFF 		bl	RTCGetUnixTime
 1095 01c8 021C     		mov	r2, r0
 1096 01ca 0B1C     		mov	r3, r1
 1097 01cc 131C     		mov	r3, r2
 1098 01ce BB60     		str	r3, [r7, #8]
 497:network.c     ****             delayReceivePacket += RTCgetRecentMs();
 1099              		.loc 1 497 0
 1100 01d0 FFF7FEFF 		bl	RTCgetRecentMs
 1101 01d4 031C     		mov	r3, r0
 1102 01d6 99B2     		uxth	r1, r3
 1103 01d8 0C23     		mov	r3, #12
 1104 01da FB18     		add	r3, r7, r3
 1105 01dc 0C22     		mov	r2, #12
 1106 01de BA18     		add	r2, r7, r2
 1107 01e0 1288     		ldrh	r2, [r2]
 1108 01e2 8A18     		add	r2, r1, r2
 1109 01e4 1A80     		strh	r2, [r3]
 1110              	.L55:
 498:network.c     ****         }
 499:network.c     ****         
 500:network.c     ****         if((oldUnixTime < RTCGetUnixTime()) && (delayReceivePacket >= 1000))
 1111              		.loc 1 500 0
 1112 01e6 BB68     		ldr	r3, [r7, #8]
 1113 01e8 1C1C     		mov	r4, r3
 1114 01ea 0023     		mov	r3, #0
 1115 01ec 1D1C     		mov	r5, r3
 1116 01ee FFF7FEFF 		bl	RTCGetUnixTime
 1117 01f2 021C     		mov	r2, r0
 1118 01f4 0B1C     		mov	r3, r1
 1119 01f6 AB42     		cmp	r3, r5
 1120 01f8 03D8     		bhi	.L66
 1121 01fa 14D1     		bne	.L54
 1122 01fc A242     		cmp	r2, r4
 1123 01fe 00D8     		bhi	.L66
 1124 0200 11E0     		b	.L54
 1125              	.L66:
 1126              		.loc 1 500 0 is_stmt 0 discriminator 1
 1127 0202 0C23     		mov	r3, #12
 1128 0204 FB18     		add	r3, r7, r3
 1129 0206 1B88     		ldrh	r3, [r3]
 1130 0208 164A     		ldr	r2, .L67+24
 1131 020a 9342     		cmp	r3, r2
 1132 020c 0BD9     		bls	.L54
 501:network.c     ****         {
 502:network.c     ****             delayReceivePacket -= 1000;
 1133              		.loc 1 502 0 is_stmt 1
 1134 020e 0C23     		mov	r3, #12
 1135 0210 FB18     		add	r3, r7, r3
 1136 0212 0C22     		mov	r2, #12
 1137 0214 BA18     		add	r2, r7, r2
 1138 0216 1288     		ldrh	r2, [r2]
 1139 0218 1349     		ldr	r1, .L67+28
 1140 021a 8C46     		mov	ip, r1
ARM GAS  C:\Users\Petro\AppData\Local\Temp\ccQIv3Iu.s 			page 30


 1141 021c 6244     		add	r2, r2, ip
 1142 021e 1A80     		strh	r2, [r3]
 503:network.c     ****             oldUnixTime++;
 1143              		.loc 1 503 0
 1144 0220 BB68     		ldr	r3, [r7, #8]
 1145 0222 0133     		add	r3, r3, #1
 1146 0224 BB60     		str	r3, [r7, #8]
 1147              	.L54:
 402:network.c     ****     {
 1148              		.loc 1 402 0
 1149 0226 FFF7FEFF 		bl	RTCgetRecentMs
 1150 022a 021C     		mov	r2, r0
 1151 022c 0C23     		mov	r3, #12
 1152 022e FB18     		add	r3, r7, r3
 1153 0230 1B88     		ldrh	r3, [r3]
 1154 0232 9A42     		cmp	r2, r3
 1155 0234 00D2     		bcs	.LCB964
 1156 0236 0CE7     		b	.L64	@long jump
 1157              	.LCB964:
 504:network.c     ****         }
 505:network.c     ****     }
 506:network.c     **** 
 507:network.c     ****     onNtpSync = 0;
 1158              		.loc 1 507 0
 1159 0238 064B     		ldr	r3, .L67+8
 1160 023a 0022     		mov	r2, #0
 1161 023c 1A70     		strb	r2, [r3]
 508:network.c     ****     
 509:network.c     ****     return result;
 1162              		.loc 1 509 0
 1163 023e 0E23     		mov	r3, #14
 1164 0240 FB18     		add	r3, r7, r3
 1165 0242 1B88     		ldrh	r3, [r3]
 510:network.c     **** }
 1166              		.loc 1 510 0
 1167 0244 181C     		mov	r0, r3
 1168 0246 BD46     		mov	sp, r7
 1169 0248 05B0     		add	sp, sp, #20
 1170              		@ sp needed
 1171 024a F0BD     		pop	{r4, r5, r6, r7, pc}
 1172              	.L68:
 1173              		.align	2
 1174              	.L67:
 1175 024c 00000000 		.word	ntpFlagEndReceivePacket
 1176 0250 00000000 		.word	ntpFlagReadyForReceive
 1177 0254 00000000 		.word	onNtpSync
 1178 0258 00000000 		.word	recvDataNTP
 1179 025c 00000000 		.word	unixTime
 1180 0260 00000000 		.word	millisTime
 1181 0264 E7030000 		.word	999
 1182 0268 18FCFFFF 		.word	-1000
 1183              		.cfi_endproc
 1184              	.LFE39:
 1185              		.size	NTPsync, .-NTPsync
 1186              		.section	.rodata
 1187 001a 0000     		.align	2
 1188              	.LC34:
ARM GAS  C:\Users\Petro\AppData\Local\Temp\ccQIv3Iu.s 			page 31


 1189 001c 25303858 		.ascii	"%08X%03X%08X%03X\000"
 1189      25303358 
 1189      25303858 
 1189      25303358 
 1189      00
 1190 002d 000000   		.section	.text.NTPsendTime,"ax",%progbits
 1191              		.align	2
 1192              		.global	NTPsendTime
 1193              		.code	16
 1194              		.thumb_func
 1195              		.type	NTPsendTime, %function
 1196              	NTPsendTime:
 1197              	.LFB40:
 511:network.c     **** 
 512:network.c     **** 
 513:network.c     **** 
 514:network.c     **** /*******************************************************************************
 515:network.c     **** * Function Name: NTPsendTime
 516:network.c     **** ********************************************************************************
 517:network.c     **** *
 518:network.c     **** * Summary:
 519:network.c     **** *   send time t2 and t3 to NTP protocol
 520:network.c     **** * Parametrs:
 521:network.c     **** *   unixTime2,unixTime3 - time in unix format
 522:network.c     **** *   millis2, millis3 - millis time
 523:network.c     **** *   ID - ID packet
 524:network.c     **** *
 525:network.c     **** *******************************************************************************/
 526:network.c     **** void NTPsendTime(uint32_t unixTime2,uint32_t unixTime3,uint16_t millis2,uint16_t millis3, uint16_t 
 527:network.c     **** {
 1198              		.loc 1 527 0
 1199              		.cfi_startproc
 1200 0000 B0B5     		push	{r4, r5, r7, lr}
 1201              		.cfi_def_cfa_offset 16
 1202              		.cfi_offset 4, -16
 1203              		.cfi_offset 5, -12
 1204              		.cfi_offset 7, -8
 1205              		.cfi_offset 14, -4
 1206 0002 A0B0     		sub	sp, sp, #128
 1207              		.cfi_def_cfa_offset 144
 1208 0004 02AF     		add	r7, sp, #8
 1209              		.cfi_def_cfa 7, 136
 1210 0006 F860     		str	r0, [r7, #12]
 1211 0008 B960     		str	r1, [r7, #8]
 1212 000a 191C     		mov	r1, r3
 1213 000c BB1D     		add	r3, r7, #6
 1214 000e 1A80     		strh	r2, [r3]
 1215 0010 3B1D     		add	r3, r7, #4
 1216 0012 0A1C     		add	r2, r1, #0
 1217 0014 1A80     		strh	r2, [r3]
 528:network.c     ****     char sendBuffer[DATA_BUFFER];
 529:network.c     ****     char sendData[DATA_BUFFER];
 530:network.c     ****     
 531:network.c     ****     /*pack data*/
 532:network.c     ****     sprintf(sendData,"%08X%03X%08X%03X", unixTime2, millis2, unixTime3, millis3); 
 1218              		.loc 1 532 0
 1219 0016 BB1D     		add	r3, r7, #6
ARM GAS  C:\Users\Petro\AppData\Local\Temp\ccQIv3Iu.s 			page 32


 1220 0018 1C88     		ldrh	r4, [r3]
 1221 001a 3B1D     		add	r3, r7, #4
 1222 001c 1B88     		ldrh	r3, [r3]
 1223 001e 1022     		mov	r2, #16
 1224 0020 B818     		add	r0, r7, r2
 1225 0022 1049     		ldr	r1, .L70
 1226 0024 FD68     		ldr	r5, [r7, #12]
 1227 0026 BA68     		ldr	r2, [r7, #8]
 1228 0028 0092     		str	r2, [sp]
 1229 002a 0193     		str	r3, [sp, #4]
 1230 002c 2A1C     		mov	r2, r5
 1231 002e 231C     		mov	r3, r4
 1232 0030 FFF7FEFF 		bl	sprintf
 533:network.c     ****     PackData(sendBuffer, (uint8_t *)sendData, ID);
 1233              		.loc 1 533 0
 1234 0034 4423     		mov	r3, #68
 1235 0036 F918     		add	r1, r7, r3
 1236 0038 1023     		mov	r3, #16
 1237 003a FA18     		add	r2, r7, r3
 1238 003c 8823     		mov	r3, #136
 1239 003e FB18     		add	r3, r7, r3
 1240 0040 1B88     		ldrh	r3, [r3]
 1241 0042 081C     		mov	r0, r1
 1242 0044 111C     		mov	r1, r2
 1243 0046 1A1C     		mov	r2, r3
 1244 0048 FFF7FEFF 		bl	PackData
 534:network.c     ****     UART_XB_UartPutString(sendBuffer);
 1245              		.loc 1 534 0
 1246 004c 4423     		mov	r3, #68
 1247 004e FB18     		add	r3, r7, r3
 1248 0050 181C     		mov	r0, r3
 1249 0052 FFF7FEFF 		bl	UART_XB_UartPutString
 535:network.c     ****     UART_XB_UartPutChar('0');
 1250              		.loc 1 535 0
 1251 0056 3020     		mov	r0, #48
 1252 0058 FFF7FEFF 		bl	UART_XB_SpiUartWriteTxData
 536:network.c     ****     #ifdef DEBUG_INFO
 537:network.c     **** //    SW_uartDebug_PutString("send time ");
 538:network.c     **** //    SW_uartDebug_PutString(sendBuffer);
 539:network.c     **** //    SW_uartDebug_PutString("\n\r");
 540:network.c     ****     #endif
 541:network.c     **** }
 1253              		.loc 1 541 0
 1254 005c BD46     		mov	sp, r7
 1255 005e 1EB0     		add	sp, sp, #120
 1256              		@ sp needed
 1257 0060 B0BD     		pop	{r4, r5, r7, pc}
 1258              	.L71:
 1259 0062 C046     		.align	2
 1260              	.L70:
 1261 0064 1C000000 		.word	.LC34
 1262              		.cfi_endproc
 1263              	.LFE40:
 1264              		.size	NTPsendTime, .-NTPsendTime
 1265              		.text
 1266              	.Letext0:
 1267              		.file 2 "c:\\program files (x86)\\cypress\\psoc creator\\4.0\\psoc creator\\import\\gnu\\arm\\4.9.
ARM GAS  C:\Users\Petro\AppData\Local\Temp\ccQIv3Iu.s 			page 33


 1268              		.file 3 "c:\\program files (x86)\\cypress\\psoc creator\\4.0\\psoc creator\\import\\gnu\\arm\\4.9.
 1269              		.file 4 "Generated_Source\\PSoC4/cytypes.h"
 1270              		.file 5 "lib_Network/svt.h"
 1271              		.file 6 "lib_Network/ntp.h"
 1272              		.section	.debug_info,"",%progbits
 1273              	.Ldebug_info0:
 1274 0000 37060000 		.4byte	0x637
 1275 0004 0400     		.2byte	0x4
 1276 0006 00000000 		.4byte	.Ldebug_abbrev0
 1277 000a 04       		.byte	0x4
 1278 000b 01       		.uleb128 0x1
 1279 000c 70030000 		.4byte	.LASF87
 1280 0010 01       		.byte	0x1
 1281 0011 52030000 		.4byte	.LASF88
 1282 0015 8E010000 		.4byte	.LASF89
 1283 0019 00000000 		.4byte	.Ldebug_ranges0+0
 1284 001d 00000000 		.4byte	0
 1285 0021 00000000 		.4byte	.Ldebug_line0
 1286 0025 02       		.uleb128 0x2
 1287 0026 01       		.byte	0x1
 1288 0027 06       		.byte	0x6
 1289 0028 4D010000 		.4byte	.LASF0
 1290 002c 03       		.uleb128 0x3
 1291 002d 23020000 		.4byte	.LASF3
 1292 0031 02       		.byte	0x2
 1293 0032 1D       		.byte	0x1d
 1294 0033 37000000 		.4byte	0x37
 1295 0037 02       		.uleb128 0x2
 1296 0038 01       		.byte	0x1
 1297 0039 08       		.byte	0x8
 1298 003a 70020000 		.4byte	.LASF1
 1299 003e 02       		.uleb128 0x2
 1300 003f 02       		.byte	0x2
 1301 0040 05       		.byte	0x5
 1302 0041 E2000000 		.4byte	.LASF2
 1303 0045 03       		.uleb128 0x3
 1304 0046 C8000000 		.4byte	.LASF4
 1305 004a 02       		.byte	0x2
 1306 004b 2B       		.byte	0x2b
 1307 004c 50000000 		.4byte	0x50
 1308 0050 02       		.uleb128 0x2
 1309 0051 02       		.byte	0x2
 1310 0052 07       		.byte	0x7
 1311 0053 0C040000 		.4byte	.LASF5
 1312 0057 02       		.uleb128 0x2
 1313 0058 04       		.byte	0x4
 1314 0059 05       		.byte	0x5
 1315 005a F8010000 		.4byte	.LASF6
 1316 005e 03       		.uleb128 0x3
 1317 005f B3000000 		.4byte	.LASF7
 1318 0063 02       		.byte	0x2
 1319 0064 41       		.byte	0x41
 1320 0065 69000000 		.4byte	0x69
 1321 0069 02       		.uleb128 0x2
 1322 006a 04       		.byte	0x4
 1323 006b 07       		.byte	0x7
 1324 006c 10030000 		.4byte	.LASF8
ARM GAS  C:\Users\Petro\AppData\Local\Temp\ccQIv3Iu.s 			page 34


 1325 0070 02       		.uleb128 0x2
 1326 0071 08       		.byte	0x8
 1327 0072 05       		.byte	0x5
 1328 0073 69010000 		.4byte	.LASF9
 1329 0077 03       		.uleb128 0x3
 1330 0078 20000000 		.4byte	.LASF10
 1331 007c 02       		.byte	0x2
 1332 007d 5B       		.byte	0x5b
 1333 007e 82000000 		.4byte	0x82
 1334 0082 02       		.uleb128 0x2
 1335 0083 08       		.byte	0x8
 1336 0084 07       		.byte	0x7
 1337 0085 B7020000 		.4byte	.LASF11
 1338 0089 04       		.uleb128 0x4
 1339 008a 04       		.byte	0x4
 1340 008b 05       		.byte	0x5
 1341 008c 696E7400 		.ascii	"int\000"
 1342 0090 02       		.uleb128 0x2
 1343 0091 04       		.byte	0x4
 1344 0092 07       		.byte	0x7
 1345 0093 FA020000 		.4byte	.LASF12
 1346 0097 03       		.uleb128 0x3
 1347 0098 02010000 		.4byte	.LASF13
 1348 009c 03       		.byte	0x3
 1349 009d 15       		.byte	0x15
 1350 009e 2C000000 		.4byte	0x2c
 1351 00a2 03       		.uleb128 0x3
 1352 00a3 07030000 		.4byte	.LASF14
 1353 00a7 03       		.byte	0x3
 1354 00a8 21       		.byte	0x21
 1355 00a9 45000000 		.4byte	0x45
 1356 00ad 03       		.uleb128 0x3
 1357 00ae DB020000 		.4byte	.LASF15
 1358 00b2 03       		.byte	0x3
 1359 00b3 2D       		.byte	0x2d
 1360 00b4 5E000000 		.4byte	0x5e
 1361 00b8 03       		.uleb128 0x3
 1362 00b9 50000000 		.4byte	.LASF16
 1363 00bd 03       		.byte	0x3
 1364 00be 39       		.byte	0x39
 1365 00bf 77000000 		.4byte	0x77
 1366 00c3 05       		.uleb128 0x5
 1367 00c4 55040000 		.4byte	.LASF17
 1368 00c8 04       		.byte	0x4
 1369 00c9 9A01     		.2byte	0x19a
 1370 00cb 69000000 		.4byte	0x69
 1371 00cf 02       		.uleb128 0x2
 1372 00d0 04       		.byte	0x4
 1373 00d1 04       		.byte	0x4
 1374 00d2 59010000 		.4byte	.LASF18
 1375 00d6 02       		.uleb128 0x2
 1376 00d7 08       		.byte	0x8
 1377 00d8 04       		.byte	0x4
 1378 00d9 B8040000 		.4byte	.LASF19
 1379 00dd 02       		.uleb128 0x2
 1380 00de 01       		.byte	0x1
 1381 00df 08       		.byte	0x8
ARM GAS  C:\Users\Petro\AppData\Local\Temp\ccQIv3Iu.s 			page 35


 1382 00e0 5C030000 		.4byte	.LASF20
 1383 00e4 02       		.uleb128 0x2
 1384 00e5 04       		.byte	0x4
 1385 00e6 07       		.byte	0x7
 1386 00e7 7D000000 		.4byte	.LASF21
 1387 00eb 06       		.uleb128 0x6
 1388 00ec 9F040000 		.4byte	.LASF90
 1389 00f0 20       		.byte	0x20
 1390 00f1 05       		.byte	0x5
 1391 00f2 0D       		.byte	0xd
 1392 00f3 4C010000 		.4byte	0x14c
 1393 00f7 07       		.uleb128 0x7
 1394 00f8 53657100 		.ascii	"Seq\000"
 1395 00fc 05       		.byte	0x5
 1396 00fd 0F       		.byte	0xf
 1397 00fe A2000000 		.4byte	0xa2
 1398 0102 00       		.byte	0
 1399 0103 08       		.uleb128 0x8
 1400 0104 3F030000 		.4byte	.LASF22
 1401 0108 05       		.byte	0x5
 1402 0109 10       		.byte	0x10
 1403 010a 89000000 		.4byte	0x89
 1404 010e 04       		.byte	0x4
 1405 010f 08       		.uleb128 0x8
 1406 0110 28040000 		.4byte	.LASF23
 1407 0114 05       		.byte	0x5
 1408 0115 11       		.byte	0x11
 1409 0116 B8000000 		.4byte	0xb8
 1410 011a 08       		.byte	0x8
 1411 011b 08       		.uleb128 0x8
 1412 011c 2E040000 		.4byte	.LASF24
 1413 0120 05       		.byte	0x5
 1414 0121 12       		.byte	0x12
 1415 0122 A2000000 		.4byte	0xa2
 1416 0126 10       		.byte	0x10
 1417 0127 08       		.uleb128 0x8
 1418 0128 34040000 		.4byte	.LASF25
 1419 012c 05       		.byte	0x5
 1420 012d 13       		.byte	0x13
 1421 012e A2000000 		.4byte	0xa2
 1422 0132 12       		.byte	0x12
 1423 0133 08       		.uleb128 0x8
 1424 0134 67020000 		.4byte	.LASF26
 1425 0138 05       		.byte	0x5
 1426 0139 14       		.byte	0x14
 1427 013a AD000000 		.4byte	0xad
 1428 013e 14       		.byte	0x14
 1429 013f 08       		.uleb128 0x8
 1430 0140 5F010000 		.4byte	.LASF27
 1431 0144 05       		.byte	0x5
 1432 0145 15       		.byte	0x15
 1433 0146 97000000 		.4byte	0x97
 1434 014a 18       		.byte	0x18
 1435 014b 00       		.byte	0
 1436 014c 09       		.uleb128 0x9
 1437 014d 14       		.byte	0x14
 1438 014e 06       		.byte	0x6
ARM GAS  C:\Users\Petro\AppData\Local\Temp\ccQIv3Iu.s 			page 36


 1439 014f 07       		.byte	0x7
 1440 0150 90010000 		.4byte	0x190
 1441 0154 07       		.uleb128 0x7
 1442 0155 496400   		.ascii	"Id\000"
 1443 0158 06       		.byte	0x6
 1444 0159 09       		.byte	0x9
 1445 015a A2000000 		.4byte	0xa2
 1446 015e 00       		.byte	0
 1447 015f 08       		.uleb128 0x8
 1448 0160 28040000 		.4byte	.LASF23
 1449 0164 06       		.byte	0x6
 1450 0165 0A       		.byte	0xa
 1451 0166 AD000000 		.4byte	0xad
 1452 016a 04       		.byte	0x4
 1453 016b 08       		.uleb128 0x8
 1454 016c 18000000 		.4byte	.LASF28
 1455 0170 06       		.byte	0x6
 1456 0171 0B       		.byte	0xb
 1457 0172 A2000000 		.4byte	0xa2
 1458 0176 08       		.byte	0x8
 1459 0177 08       		.uleb128 0x8
 1460 0178 67020000 		.4byte	.LASF26
 1461 017c 06       		.byte	0x6
 1462 017d 0C       		.byte	0xc
 1463 017e AD000000 		.4byte	0xad
 1464 0182 0C       		.byte	0xc
 1465 0183 08       		.uleb128 0x8
 1466 0184 5F010000 		.4byte	.LASF27
 1467 0188 06       		.byte	0x6
 1468 0189 0D       		.byte	0xd
 1469 018a 97000000 		.4byte	0x97
 1470 018e 10       		.byte	0x10
 1471 018f 00       		.byte	0
 1472 0190 03       		.uleb128 0x3
 1473 0191 07000000 		.4byte	.LASF29
 1474 0195 06       		.byte	0x6
 1475 0196 0E       		.byte	0xe
 1476 0197 4C010000 		.4byte	0x14c
 1477 019b 09       		.uleb128 0x9
 1478 019c 18       		.byte	0x18
 1479 019d 01       		.byte	0x1
 1480 019e 3F       		.byte	0x3f
 1481 019f F8010000 		.4byte	0x1f8
 1482 01a3 08       		.uleb128 0x8
 1483 01a4 36030000 		.4byte	.LASF30
 1484 01a8 01       		.byte	0x1
 1485 01a9 41       		.byte	0x41
 1486 01aa 97000000 		.4byte	0x97
 1487 01ae 00       		.byte	0
 1488 01af 08       		.uleb128 0x8
 1489 01b0 6A030000 		.4byte	.LASF31
 1490 01b4 01       		.byte	0x1
 1491 01b5 42       		.byte	0x42
 1492 01b6 97000000 		.4byte	0x97
 1493 01ba 01       		.byte	0x1
 1494 01bb 08       		.uleb128 0x8
 1495 01bc 76000000 		.4byte	.LASF32
ARM GAS  C:\Users\Petro\AppData\Local\Temp\ccQIv3Iu.s 			page 37


 1496 01c0 01       		.byte	0x1
 1497 01c1 43       		.byte	0x43
 1498 01c2 97000000 		.4byte	0x97
 1499 01c6 02       		.byte	0x2
 1500 01c7 08       		.uleb128 0x8
 1501 01c8 CE040000 		.4byte	.LASF33
 1502 01cc 01       		.byte	0x1
 1503 01cd 44       		.byte	0x44
 1504 01ce 97000000 		.4byte	0x97
 1505 01d2 03       		.byte	0x3
 1506 01d3 08       		.uleb128 0x8
 1507 01d4 2E030000 		.4byte	.LASF34
 1508 01d8 01       		.byte	0x1
 1509 01d9 45       		.byte	0x45
 1510 01da B8000000 		.4byte	0xb8
 1511 01de 08       		.byte	0x8
 1512 01df 08       		.uleb128 0x8
 1513 01e0 5D020000 		.4byte	.LASF35
 1514 01e4 01       		.byte	0x1
 1515 01e5 46       		.byte	0x46
 1516 01e6 A2000000 		.4byte	0xa2
 1517 01ea 10       		.byte	0x10
 1518 01eb 08       		.uleb128 0x8
 1519 01ec 47030000 		.4byte	.LASF36
 1520 01f0 01       		.byte	0x1
 1521 01f1 47       		.byte	0x47
 1522 01f2 97000000 		.4byte	0x97
 1523 01f6 12       		.byte	0x12
 1524 01f7 00       		.byte	0
 1525 01f8 03       		.uleb128 0x3
 1526 01f9 42010000 		.4byte	.LASF37
 1527 01fd 01       		.byte	0x1
 1528 01fe 48       		.byte	0x48
 1529 01ff 9B010000 		.4byte	0x19b
 1530 0203 09       		.uleb128 0x9
 1531 0204 18       		.byte	0x18
 1532 0205 01       		.byte	0x1
 1533 0206 4A       		.byte	0x4a
 1534 0207 54020000 		.4byte	0x254
 1535 020b 08       		.uleb128 0x8
 1536 020c 36030000 		.4byte	.LASF30
 1537 0210 01       		.byte	0x1
 1538 0211 4C       		.byte	0x4c
 1539 0212 97000000 		.4byte	0x97
 1540 0216 00       		.byte	0
 1541 0217 08       		.uleb128 0x8
 1542 0218 FE030000 		.4byte	.LASF38
 1543 021c 01       		.byte	0x1
 1544 021d 4D       		.byte	0x4d
 1545 021e B8000000 		.4byte	0xb8
 1546 0222 08       		.byte	0x8
 1547 0223 08       		.uleb128 0x8
 1548 0224 A7000000 		.4byte	.LASF39
 1549 0228 01       		.byte	0x1
 1550 0229 4E       		.byte	0x4e
 1551 022a A2000000 		.4byte	0xa2
 1552 022e 10       		.byte	0x10
ARM GAS  C:\Users\Petro\AppData\Local\Temp\ccQIv3Iu.s 			page 38


 1553 022f 08       		.uleb128 0x8
 1554 0230 0F000000 		.4byte	.LASF40
 1555 0234 01       		.byte	0x1
 1556 0235 4F       		.byte	0x4f
 1557 0236 97000000 		.4byte	0x97
 1558 023a 12       		.byte	0x12
 1559 023b 08       		.uleb128 0x8
 1560 023c 17020000 		.4byte	.LASF41
 1561 0240 01       		.byte	0x1
 1562 0241 50       		.byte	0x50
 1563 0242 97000000 		.4byte	0x97
 1564 0246 13       		.byte	0x13
 1565 0247 08       		.uleb128 0x8
 1566 0248 76000000 		.4byte	.LASF32
 1567 024c 01       		.byte	0x1
 1568 024d 51       		.byte	0x51
 1569 024e 97000000 		.4byte	0x97
 1570 0252 14       		.byte	0x14
 1571 0253 00       		.byte	0
 1572 0254 03       		.uleb128 0x3
 1573 0255 2C010000 		.4byte	.LASF42
 1574 0259 01       		.byte	0x1
 1575 025a 52       		.byte	0x52
 1576 025b 03020000 		.4byte	0x203
 1577 025f 0A       		.uleb128 0xa
 1578 0260 22030000 		.4byte	.LASF58
 1579 0264 01       		.byte	0x1
 1580 0265 83       		.byte	0x83
 1581 0266 00000000 		.4byte	.LFB28
 1582 026a 40000000 		.4byte	.LFE28-.LFB28
 1583 026e 01       		.uleb128 0x1
 1584 026f 9C       		.byte	0x9c
 1585 0270 0B       		.uleb128 0xb
 1586 0271 2D020000 		.4byte	.LASF43
 1587 0275 01       		.byte	0x1
 1588 0276 9C       		.byte	0x9c
 1589 0277 00000000 		.4byte	.LFB29
 1590 027b A0000000 		.4byte	.LFE29-.LFB29
 1591 027f 01       		.uleb128 0x1
 1592 0280 9C       		.byte	0x9c
 1593 0281 9E020000 		.4byte	0x29e
 1594 0285 0C       		.uleb128 0xc
 1595 0286 0E000000 		.4byte	.LBB2
 1596 028a 74000000 		.4byte	.LBE2-.LBB2
 1597 028e 0D       		.uleb128 0xd
 1598 028f 9A040000 		.4byte	.LASF45
 1599 0293 01       		.byte	0x1
 1600 0294 A0       		.byte	0xa0
 1601 0295 97000000 		.4byte	0x97
 1602 0299 02       		.uleb128 0x2
 1603 029a 91       		.byte	0x91
 1604 029b 6F       		.sleb128 -17
 1605 029c 00       		.byte	0
 1606 029d 00       		.byte	0
 1607 029e 0B       		.uleb128 0xb
 1608 029f 2B000000 		.4byte	.LASF44
 1609 02a3 01       		.byte	0x1
ARM GAS  C:\Users\Petro\AppData\Local\Temp\ccQIv3Iu.s 			page 39


 1610 02a4 C3       		.byte	0xc3
 1611 02a5 00000000 		.4byte	.LFB30
 1612 02a9 DC000000 		.4byte	.LFE30-.LFB30
 1613 02ad 01       		.uleb128 0x1
 1614 02ae 9C       		.byte	0x9c
 1615 02af DC020000 		.4byte	0x2dc
 1616 02b3 0C       		.uleb128 0xc
 1617 02b4 38000000 		.4byte	.LBB3
 1618 02b8 8C000000 		.4byte	.LBE3-.LBB3
 1619 02bc 0D       		.uleb128 0xd
 1620 02bd F7000000 		.4byte	.LASF46
 1621 02c1 01       		.byte	0x1
 1622 02c2 D3       		.byte	0xd3
 1623 02c3 DC020000 		.4byte	0x2dc
 1624 02c7 03       		.uleb128 0x3
 1625 02c8 91       		.byte	0x91
 1626 02c9 807F     		.sleb128 -128
 1627 02cb 0D       		.uleb128 0xd
 1628 02cc 34000000 		.4byte	.LASF47
 1629 02d0 01       		.byte	0x1
 1630 02d1 D4       		.byte	0xd4
 1631 02d2 DC020000 		.4byte	0x2dc
 1632 02d6 03       		.uleb128 0x3
 1633 02d7 91       		.byte	0x91
 1634 02d8 B47F     		.sleb128 -76
 1635 02da 00       		.byte	0
 1636 02db 00       		.byte	0
 1637 02dc 0E       		.uleb128 0xe
 1638 02dd DD000000 		.4byte	0xdd
 1639 02e1 EC020000 		.4byte	0x2ec
 1640 02e5 0F       		.uleb128 0xf
 1641 02e6 E4000000 		.4byte	0xe4
 1642 02ea 31       		.byte	0x31
 1643 02eb 00       		.byte	0
 1644 02ec 10       		.uleb128 0x10
 1645 02ed AC040000 		.4byte	.LASF54
 1646 02f1 01       		.byte	0x1
 1647 02f2 FA       		.byte	0xfa
 1648 02f3 AD000000 		.4byte	0xad
 1649 02f7 00000000 		.4byte	.LFB31
 1650 02fb CC000000 		.4byte	.LFE31-.LFB31
 1651 02ff 01       		.uleb128 0x1
 1652 0300 9C       		.byte	0x9c
 1653 0301 2C030000 		.4byte	0x32c
 1654 0305 0C       		.uleb128 0xc
 1655 0306 16000000 		.4byte	.LBB4
 1656 030a 9C000000 		.4byte	.LBE4-.LBB4
 1657 030e 0D       		.uleb128 0xd
 1658 030f 9A040000 		.4byte	.LASF45
 1659 0313 01       		.byte	0x1
 1660 0314 FE       		.byte	0xfe
 1661 0315 AD000000 		.4byte	0xad
 1662 0319 02       		.uleb128 0x2
 1663 031a 91       		.byte	0x91
 1664 031b 74       		.sleb128 -12
 1665 031c 0D       		.uleb128 0xd
 1666 031d 86000000 		.4byte	.LASF48
ARM GAS  C:\Users\Petro\AppData\Local\Temp\ccQIv3Iu.s 			page 40


 1667 0321 01       		.byte	0x1
 1668 0322 FF       		.byte	0xff
 1669 0323 EB000000 		.4byte	0xeb
 1670 0327 02       		.uleb128 0x2
 1671 0328 91       		.byte	0x91
 1672 0329 50       		.sleb128 -48
 1673 032a 00       		.byte	0
 1674 032b 00       		.byte	0
 1675 032c 11       		.uleb128 0x11
 1676 032d 0A010000 		.4byte	.LASF52
 1677 0331 01       		.byte	0x1
 1678 0332 3101     		.2byte	0x131
 1679 0334 AD000000 		.4byte	0xad
 1680 0338 00000000 		.4byte	.LFB32
 1681 033c 14000000 		.4byte	.LFE32-.LFB32
 1682 0340 01       		.uleb128 0x1
 1683 0341 9C       		.byte	0x9c
 1684 0342 12       		.uleb128 0x12
 1685 0343 BF040000 		.4byte	.LASF49
 1686 0347 01       		.byte	0x1
 1687 0348 3801     		.2byte	0x138
 1688 034a 00000000 		.4byte	.LFB33
 1689 034e 30000000 		.4byte	.LFE33-.LFB33
 1690 0352 01       		.uleb128 0x1
 1691 0353 9C       		.byte	0x9c
 1692 0354 77030000 		.4byte	0x377
 1693 0358 13       		.uleb128 0x13
 1694 0359 EC020000 		.4byte	.LASF50
 1695 035d 01       		.byte	0x1
 1696 035e 3801     		.2byte	0x138
 1697 0360 B8000000 		.4byte	0xb8
 1698 0364 02       		.uleb128 0x2
 1699 0365 91       		.byte	0x91
 1700 0366 68       		.sleb128 -24
 1701 0367 13       		.uleb128 0x13
 1702 0368 1F040000 		.4byte	.LASF51
 1703 036c 01       		.byte	0x1
 1704 036d 3801     		.2byte	0x138
 1705 036f AD000000 		.4byte	0xad
 1706 0373 02       		.uleb128 0x2
 1707 0374 91       		.byte	0x91
 1708 0375 64       		.sleb128 -28
 1709 0376 00       		.byte	0
 1710 0377 11       		.uleb128 0x11
 1711 0378 61030000 		.4byte	.LASF53
 1712 037c 01       		.byte	0x1
 1713 037d 4001     		.2byte	0x140
 1714 037f AD000000 		.4byte	0xad
 1715 0383 00000000 		.4byte	.LFB34
 1716 0387 14000000 		.4byte	.LFE34-.LFB34
 1717 038b 01       		.uleb128 0x1
 1718 038c 9C       		.byte	0x9c
 1719 038d 14       		.uleb128 0x14
 1720 038e 5C040000 		.4byte	.LASF55
 1721 0392 01       		.byte	0x1
 1722 0393 4601     		.2byte	0x146
 1723 0395 AD000000 		.4byte	0xad
ARM GAS  C:\Users\Petro\AppData\Local\Temp\ccQIv3Iu.s 			page 41


 1724 0399 00000000 		.4byte	.LFB35
 1725 039d 28000000 		.4byte	.LFE35-.LFB35
 1726 03a1 01       		.uleb128 0x1
 1727 03a2 9C       		.byte	0x9c
 1728 03a3 B7030000 		.4byte	0x3b7
 1729 03a7 15       		.uleb128 0x15
 1730 03a8 00000000 		.4byte	.LASF56
 1731 03ac 01       		.byte	0x1
 1732 03ad 4801     		.2byte	0x148
 1733 03af AD000000 		.4byte	0xad
 1734 03b3 02       		.uleb128 0x2
 1735 03b4 91       		.byte	0x91
 1736 03b5 74       		.sleb128 -12
 1737 03b6 00       		.byte	0
 1738 03b7 14       		.uleb128 0x14
 1739 03b8 3D000000 		.4byte	.LASF57
 1740 03bc 01       		.byte	0x1
 1741 03bd 5601     		.2byte	0x156
 1742 03bf AD000000 		.4byte	0xad
 1743 03c3 00000000 		.4byte	.LFB36
 1744 03c7 44000000 		.4byte	.LFE36-.LFB36
 1745 03cb 01       		.uleb128 0x1
 1746 03cc 9C       		.byte	0x9c
 1747 03cd E1030000 		.4byte	0x3e1
 1748 03d1 15       		.uleb128 0x15
 1749 03d2 00000000 		.4byte	.LASF56
 1750 03d6 01       		.byte	0x1
 1751 03d7 5801     		.2byte	0x158
 1752 03d9 AD000000 		.4byte	0xad
 1753 03dd 02       		.uleb128 0x2
 1754 03de 91       		.byte	0x91
 1755 03df 74       		.sleb128 -12
 1756 03e0 00       		.byte	0
 1757 03e1 16       		.uleb128 0x16
 1758 03e2 09020000 		.4byte	.LASF59
 1759 03e6 01       		.byte	0x1
 1760 03e7 6801     		.2byte	0x168
 1761 03e9 00000000 		.4byte	.LFB37
 1762 03ed 14000000 		.4byte	.LFE37-.LFB37
 1763 03f1 01       		.uleb128 0x1
 1764 03f2 9C       		.byte	0x9c
 1765 03f3 16       		.uleb128 0x16
 1766 03f4 45040000 		.4byte	.LASF60
 1767 03f8 01       		.byte	0x1
 1768 03f9 6D01     		.2byte	0x16d
 1769 03fb 00000000 		.4byte	.LFB38
 1770 03ff 1C000000 		.4byte	.LFE38-.LFB38
 1771 0403 01       		.uleb128 0x1
 1772 0404 9C       		.byte	0x9c
 1773 0405 17       		.uleb128 0x17
 1774 0406 A4040000 		.4byte	.LASF61
 1775 040a 01       		.byte	0x1
 1776 040b 8101     		.2byte	0x181
 1777 040d AD000000 		.4byte	0xad
 1778 0411 00000000 		.4byte	.LFB39
 1779 0415 6C020000 		.4byte	.LFE39-.LFB39
 1780 0419 01       		.uleb128 0x1
ARM GAS  C:\Users\Petro\AppData\Local\Temp\ccQIv3Iu.s 			page 42


 1781 041a 9C       		.byte	0x9c
 1782 041b 75040000 		.4byte	0x475
 1783 041f 15       		.uleb128 0x15
 1784 0420 00000000 		.4byte	.LASF56
 1785 0424 01       		.byte	0x1
 1786 0425 8301     		.2byte	0x183
 1787 0427 A2000000 		.4byte	0xa2
 1788 042b 02       		.uleb128 0x2
 1789 042c 91       		.byte	0x91
 1790 042d 66       		.sleb128 -26
 1791 042e 15       		.uleb128 0x15
 1792 042f 59000000 		.4byte	.LASF62
 1793 0433 01       		.byte	0x1
 1794 0434 8801     		.2byte	0x188
 1795 0436 A2000000 		.4byte	0xa2
 1796 043a 02       		.uleb128 0x2
 1797 043b 91       		.byte	0x91
 1798 043c 64       		.sleb128 -28
 1799 043d 15       		.uleb128 0x15
 1800 043e 72040000 		.4byte	.LASF63
 1801 0442 01       		.byte	0x1
 1802 0443 8901     		.2byte	0x189
 1803 0445 AD000000 		.4byte	0xad
 1804 0449 02       		.uleb128 0x2
 1805 044a 91       		.byte	0x91
 1806 044b 60       		.sleb128 -32
 1807 044c 0C       		.uleb128 0xc
 1808 044d B0000000 		.4byte	.LBB5
 1809 0451 A8000000 		.4byte	.LBE5-.LBB5
 1810 0455 15       		.uleb128 0x15
 1811 0456 CE020000 		.4byte	.LASF64
 1812 045a 01       		.byte	0x1
 1813 045b B201     		.2byte	0x1b2
 1814 045d AD000000 		.4byte	0xad
 1815 0461 02       		.uleb128 0x2
 1816 0462 91       		.byte	0x91
 1817 0463 5C       		.sleb128 -36
 1818 0464 15       		.uleb128 0x15
 1819 0465 D3000000 		.4byte	.LASF65
 1820 0469 01       		.byte	0x1
 1821 046a B301     		.2byte	0x1b3
 1822 046c A2000000 		.4byte	0xa2
 1823 0470 02       		.uleb128 0x2
 1824 0471 91       		.byte	0x91
 1825 0472 5A       		.sleb128 -38
 1826 0473 00       		.byte	0
 1827 0474 00       		.byte	0
 1828 0475 18       		.uleb128 0x18
 1829 0476 DA040000 		.4byte	.LASF66
 1830 047a 01       		.byte	0x1
 1831 047b 0E02     		.2byte	0x20e
 1832 047d 00000000 		.4byte	.LFB40
 1833 0481 68000000 		.4byte	.LFE40-.LFB40
 1834 0485 01       		.uleb128 0x1
 1835 0486 9C       		.byte	0x9c
 1836 0487 FA040000 		.4byte	0x4fa
 1837 048b 13       		.uleb128 0x13
ARM GAS  C:\Users\Petro\AppData\Local\Temp\ccQIv3Iu.s 			page 43


 1838 048c 88020000 		.4byte	.LASF67
 1839 0490 01       		.byte	0x1
 1840 0491 0E02     		.2byte	0x20e
 1841 0493 AD000000 		.4byte	0xad
 1842 0497 03       		.uleb128 0x3
 1843 0498 91       		.byte	0x91
 1844 0499 847F     		.sleb128 -124
 1845 049b 13       		.uleb128 0x13
 1846 049c BE000000 		.4byte	.LASF68
 1847 04a0 01       		.byte	0x1
 1848 04a1 0E02     		.2byte	0x20e
 1849 04a3 AD000000 		.4byte	0xad
 1850 04a7 03       		.uleb128 0x3
 1851 04a8 91       		.byte	0x91
 1852 04a9 807F     		.sleb128 -128
 1853 04ab 13       		.uleb128 0x13
 1854 04ac E4020000 		.4byte	.LASF69
 1855 04b0 01       		.byte	0x1
 1856 04b1 0E02     		.2byte	0x20e
 1857 04b3 A2000000 		.4byte	0xa2
 1858 04b7 03       		.uleb128 0x3
 1859 04b8 91       		.byte	0x91
 1860 04b9 FE7E     		.sleb128 -130
 1861 04bb 13       		.uleb128 0x13
 1862 04bc 8F000000 		.4byte	.LASF70
 1863 04c0 01       		.byte	0x1
 1864 04c1 0E02     		.2byte	0x20e
 1865 04c3 A2000000 		.4byte	0xa2
 1866 04c7 03       		.uleb128 0x3
 1867 04c8 91       		.byte	0x91
 1868 04c9 FC7E     		.sleb128 -132
 1869 04cb 19       		.uleb128 0x19
 1870 04cc 494400   		.ascii	"ID\000"
 1871 04cf 01       		.byte	0x1
 1872 04d0 0E02     		.2byte	0x20e
 1873 04d2 A2000000 		.4byte	0xa2
 1874 04d6 02       		.uleb128 0x2
 1875 04d7 91       		.byte	0x91
 1876 04d8 00       		.sleb128 0
 1877 04d9 15       		.uleb128 0x15
 1878 04da F7000000 		.4byte	.LASF46
 1879 04de 01       		.byte	0x1
 1880 04df 1002     		.2byte	0x210
 1881 04e1 DC020000 		.4byte	0x2dc
 1882 04e5 03       		.uleb128 0x3
 1883 04e6 91       		.byte	0x91
 1884 04e7 BC7F     		.sleb128 -68
 1885 04e9 15       		.uleb128 0x15
 1886 04ea 34000000 		.4byte	.LASF47
 1887 04ee 01       		.byte	0x1
 1888 04ef 1102     		.2byte	0x211
 1889 04f1 DC020000 		.4byte	0x2dc
 1890 04f5 03       		.uleb128 0x3
 1891 04f6 91       		.byte	0x91
 1892 04f7 887F     		.sleb128 -120
 1893 04f9 00       		.byte	0
 1894 04fa 0D       		.uleb128 0xd
ARM GAS  C:\Users\Petro\AppData\Local\Temp\ccQIv3Iu.s 			page 44


 1895 04fb 7E040000 		.4byte	.LASF71
 1896 04ff 01       		.byte	0x1
 1897 0500 59       		.byte	0x59
 1898 0501 AD000000 		.4byte	0xad
 1899 0505 05       		.uleb128 0x5
 1900 0506 03       		.byte	0x3
 1901 0507 00000000 		.4byte	networkStatus
 1902 050b 0D       		.uleb128 0xd
 1903 050c 6C000000 		.4byte	.LASF72
 1904 0510 01       		.byte	0x1
 1905 0511 5A       		.byte	0x5a
 1906 0512 89000000 		.4byte	0x89
 1907 0516 05       		.uleb128 0x5
 1908 0517 03       		.byte	0x3
 1909 0518 04000000 		.4byte	noConnect
 1910 051c 0D       		.uleb128 0xd
 1911 051d EC000000 		.4byte	.LASF73
 1912 0521 01       		.byte	0x1
 1913 0522 5B       		.byte	0x5b
 1914 0523 89000000 		.4byte	0x89
 1915 0527 05       		.uleb128 0x5
 1916 0528 03       		.byte	0x3
 1917 0529 08000000 		.4byte	finNoReady
 1918 052d 1A       		.uleb128 0x1a
 1919 052e 56020000 		.4byte	.LASF74
 1920 0532 01       		.byte	0x1
 1921 0533 54       		.byte	0x54
 1922 0534 F8010000 		.4byte	0x1f8
 1923 0538 05       		.uleb128 0x5
 1924 0539 03       		.byte	0x3
 1925 053a 00000000 		.4byte	inData
 1926 053e 1A       		.uleb128 0x1a
 1927 053f 01020000 		.4byte	.LASF75
 1928 0543 01       		.byte	0x1
 1929 0544 55       		.byte	0x55
 1930 0545 54020000 		.4byte	0x254
 1931 0549 05       		.uleb128 0x5
 1932 054a 03       		.byte	0x3
 1933 054b 00000000 		.4byte	outData
 1934 054f 0E       		.uleb128 0xe
 1935 0550 DD000000 		.4byte	0xdd
 1936 0554 5F050000 		.4byte	0x55f
 1937 0558 0F       		.uleb128 0xf
 1938 0559 E4000000 		.4byte	0xe4
 1939 055d 63       		.byte	0x63
 1940 055e 00       		.byte	0
 1941 055f 1A       		.uleb128 0x1a
 1942 0560 92020000 		.4byte	.LASF76
 1943 0564 01       		.byte	0x1
 1944 0565 57       		.byte	0x57
 1945 0566 4F050000 		.4byte	0x54f
 1946 056a 05       		.uleb128 0x5
 1947 056b 03       		.byte	0x3
 1948 056c 00000000 		.4byte	previousData
 1949 0570 0E       		.uleb128 0xe
 1950 0571 AD000000 		.4byte	0xad
 1951 0575 80050000 		.4byte	0x580
ARM GAS  C:\Users\Petro\AppData\Local\Temp\ccQIv3Iu.s 			page 45


 1952 0579 0F       		.uleb128 0xf
 1953 057a E4000000 		.4byte	0xe4
 1954 057e 03       		.byte	0x3
 1955 057f 00       		.byte	0
 1956 0580 1A       		.uleb128 0x1a
 1957 0581 69040000 		.4byte	.LASF77
 1958 0585 01       		.byte	0x1
 1959 0586 5C       		.byte	0x5c
 1960 0587 70050000 		.4byte	0x570
 1961 058b 05       		.uleb128 0x5
 1962 058c 03       		.byte	0x3
 1963 058d 00000000 		.4byte	unixTime
 1964 0591 0E       		.uleb128 0xe
 1965 0592 A2000000 		.4byte	0xa2
 1966 0596 A1050000 		.4byte	0x5a1
 1967 059a 0F       		.uleb128 0xf
 1968 059b E4000000 		.4byte	0xe4
 1969 059f 03       		.byte	0x3
 1970 05a0 00       		.byte	0
 1971 05a1 1A       		.uleb128 0x1a
 1972 05a2 3A040000 		.4byte	.LASF78
 1973 05a6 01       		.byte	0x1
 1974 05a7 5D       		.byte	0x5d
 1975 05a8 91050000 		.4byte	0x591
 1976 05ac 05       		.uleb128 0x5
 1977 05ad 03       		.byte	0x3
 1978 05ae 00000000 		.4byte	millisTime
 1979 05b2 1A       		.uleb128 0x1a
 1980 05b3 7E020000 		.4byte	.LASF79
 1981 05b7 01       		.byte	0x1
 1982 05b8 60       		.byte	0x60
 1983 05b9 97000000 		.4byte	0x97
 1984 05bd 05       		.uleb128 0x5
 1985 05be 03       		.byte	0x3
 1986 05bf 00000000 		.4byte	onNtpSync
 1987 05c3 1A       		.uleb128 0x1a
 1988 05c4 18010000 		.4byte	.LASF80
 1989 05c8 01       		.byte	0x1
 1990 05c9 61       		.byte	0x61
 1991 05ca 97000000 		.4byte	0x97
 1992 05ce 05       		.uleb128 0x5
 1993 05cf 03       		.byte	0x3
 1994 05d0 00000000 		.4byte	flagStartSendPacket
 1995 05d4 1A       		.uleb128 0x1a
 1996 05d5 44020000 		.4byte	.LASF81
 1997 05d9 01       		.byte	0x1
 1998 05da 62       		.byte	0x62
 1999 05db 97000000 		.4byte	0x97
 2000 05df 05       		.uleb128 0x5
 2001 05e0 03       		.byte	0x3
 2002 05e1 00000000 		.4byte	flagFinSendPacket
 2003 05e5 1A       		.uleb128 0x1a
 2004 05e6 8C040000 		.4byte	.LASF82
 2005 05ea 01       		.byte	0x1
 2006 05eb 64       		.byte	0x64
 2007 05ec AD000000 		.4byte	0xad
 2008 05f0 05       		.uleb128 0x5
ARM GAS  C:\Users\Petro\AppData\Local\Temp\ccQIv3Iu.s 			page 46


 2009 05f1 03       		.byte	0x3
 2010 05f2 00000000 		.4byte	resultReceive
 2011 05f6 1A       		.uleb128 0x1a
 2012 05f7 97000000 		.4byte	.LASF83
 2013 05fb 01       		.byte	0x1
 2014 05fc 65       		.byte	0x65
 2015 05fd A2000000 		.4byte	0xa2
 2016 0601 05       		.uleb128 0x5
 2017 0602 03       		.byte	0x3
 2018 0603 00000000 		.4byte	IDreceivePacket
 2019 0607 1A       		.uleb128 0x1a
 2020 0608 9F020000 		.4byte	.LASF84
 2021 060c 01       		.byte	0x1
 2022 060d 69       		.byte	0x69
 2023 060e 97000000 		.4byte	0x97
 2024 0612 05       		.uleb128 0x5
 2025 0613 03       		.byte	0x3
 2026 0614 00000000 		.4byte	ntpFlagEndReceivePacket
 2027 0618 1A       		.uleb128 0x1a
 2028 0619 77010000 		.4byte	.LASF85
 2029 061d 01       		.byte	0x1
 2030 061e 6A       		.byte	0x6a
 2031 061f 97000000 		.4byte	0x97
 2032 0623 05       		.uleb128 0x5
 2033 0624 03       		.byte	0x3
 2034 0625 00000000 		.4byte	ntpFlagReadyForReceive
 2035 0629 1A       		.uleb128 0x1a
 2036 062a 36010000 		.4byte	.LASF86
 2037 062e 01       		.byte	0x1
 2038 062f 6B       		.byte	0x6b
 2039 0630 90010000 		.4byte	0x190
 2040 0634 05       		.uleb128 0x5
 2041 0635 03       		.byte	0x3
 2042 0636 00000000 		.4byte	recvDataNTP
 2043 063a 00       		.byte	0
 2044              		.section	.debug_abbrev,"",%progbits
 2045              	.Ldebug_abbrev0:
 2046 0000 01       		.uleb128 0x1
 2047 0001 11       		.uleb128 0x11
 2048 0002 01       		.byte	0x1
 2049 0003 25       		.uleb128 0x25
 2050 0004 0E       		.uleb128 0xe
 2051 0005 13       		.uleb128 0x13
 2052 0006 0B       		.uleb128 0xb
 2053 0007 03       		.uleb128 0x3
 2054 0008 0E       		.uleb128 0xe
 2055 0009 1B       		.uleb128 0x1b
 2056 000a 0E       		.uleb128 0xe
 2057 000b 55       		.uleb128 0x55
 2058 000c 17       		.uleb128 0x17
 2059 000d 11       		.uleb128 0x11
 2060 000e 01       		.uleb128 0x1
 2061 000f 10       		.uleb128 0x10
 2062 0010 17       		.uleb128 0x17
 2063 0011 00       		.byte	0
 2064 0012 00       		.byte	0
 2065 0013 02       		.uleb128 0x2
ARM GAS  C:\Users\Petro\AppData\Local\Temp\ccQIv3Iu.s 			page 47


 2066 0014 24       		.uleb128 0x24
 2067 0015 00       		.byte	0
 2068 0016 0B       		.uleb128 0xb
 2069 0017 0B       		.uleb128 0xb
 2070 0018 3E       		.uleb128 0x3e
 2071 0019 0B       		.uleb128 0xb
 2072 001a 03       		.uleb128 0x3
 2073 001b 0E       		.uleb128 0xe
 2074 001c 00       		.byte	0
 2075 001d 00       		.byte	0
 2076 001e 03       		.uleb128 0x3
 2077 001f 16       		.uleb128 0x16
 2078 0020 00       		.byte	0
 2079 0021 03       		.uleb128 0x3
 2080 0022 0E       		.uleb128 0xe
 2081 0023 3A       		.uleb128 0x3a
 2082 0024 0B       		.uleb128 0xb
 2083 0025 3B       		.uleb128 0x3b
 2084 0026 0B       		.uleb128 0xb
 2085 0027 49       		.uleb128 0x49
 2086 0028 13       		.uleb128 0x13
 2087 0029 00       		.byte	0
 2088 002a 00       		.byte	0
 2089 002b 04       		.uleb128 0x4
 2090 002c 24       		.uleb128 0x24
 2091 002d 00       		.byte	0
 2092 002e 0B       		.uleb128 0xb
 2093 002f 0B       		.uleb128 0xb
 2094 0030 3E       		.uleb128 0x3e
 2095 0031 0B       		.uleb128 0xb
 2096 0032 03       		.uleb128 0x3
 2097 0033 08       		.uleb128 0x8
 2098 0034 00       		.byte	0
 2099 0035 00       		.byte	0
 2100 0036 05       		.uleb128 0x5
 2101 0037 16       		.uleb128 0x16
 2102 0038 00       		.byte	0
 2103 0039 03       		.uleb128 0x3
 2104 003a 0E       		.uleb128 0xe
 2105 003b 3A       		.uleb128 0x3a
 2106 003c 0B       		.uleb128 0xb
 2107 003d 3B       		.uleb128 0x3b
 2108 003e 05       		.uleb128 0x5
 2109 003f 49       		.uleb128 0x49
 2110 0040 13       		.uleb128 0x13
 2111 0041 00       		.byte	0
 2112 0042 00       		.byte	0
 2113 0043 06       		.uleb128 0x6
 2114 0044 13       		.uleb128 0x13
 2115 0045 01       		.byte	0x1
 2116 0046 03       		.uleb128 0x3
 2117 0047 0E       		.uleb128 0xe
 2118 0048 0B       		.uleb128 0xb
 2119 0049 0B       		.uleb128 0xb
 2120 004a 3A       		.uleb128 0x3a
 2121 004b 0B       		.uleb128 0xb
 2122 004c 3B       		.uleb128 0x3b
ARM GAS  C:\Users\Petro\AppData\Local\Temp\ccQIv3Iu.s 			page 48


 2123 004d 0B       		.uleb128 0xb
 2124 004e 01       		.uleb128 0x1
 2125 004f 13       		.uleb128 0x13
 2126 0050 00       		.byte	0
 2127 0051 00       		.byte	0
 2128 0052 07       		.uleb128 0x7
 2129 0053 0D       		.uleb128 0xd
 2130 0054 00       		.byte	0
 2131 0055 03       		.uleb128 0x3
 2132 0056 08       		.uleb128 0x8
 2133 0057 3A       		.uleb128 0x3a
 2134 0058 0B       		.uleb128 0xb
 2135 0059 3B       		.uleb128 0x3b
 2136 005a 0B       		.uleb128 0xb
 2137 005b 49       		.uleb128 0x49
 2138 005c 13       		.uleb128 0x13
 2139 005d 38       		.uleb128 0x38
 2140 005e 0B       		.uleb128 0xb
 2141 005f 00       		.byte	0
 2142 0060 00       		.byte	0
 2143 0061 08       		.uleb128 0x8
 2144 0062 0D       		.uleb128 0xd
 2145 0063 00       		.byte	0
 2146 0064 03       		.uleb128 0x3
 2147 0065 0E       		.uleb128 0xe
 2148 0066 3A       		.uleb128 0x3a
 2149 0067 0B       		.uleb128 0xb
 2150 0068 3B       		.uleb128 0x3b
 2151 0069 0B       		.uleb128 0xb
 2152 006a 49       		.uleb128 0x49
 2153 006b 13       		.uleb128 0x13
 2154 006c 38       		.uleb128 0x38
 2155 006d 0B       		.uleb128 0xb
 2156 006e 00       		.byte	0
 2157 006f 00       		.byte	0
 2158 0070 09       		.uleb128 0x9
 2159 0071 13       		.uleb128 0x13
 2160 0072 01       		.byte	0x1
 2161 0073 0B       		.uleb128 0xb
 2162 0074 0B       		.uleb128 0xb
 2163 0075 3A       		.uleb128 0x3a
 2164 0076 0B       		.uleb128 0xb
 2165 0077 3B       		.uleb128 0x3b
 2166 0078 0B       		.uleb128 0xb
 2167 0079 01       		.uleb128 0x1
 2168 007a 13       		.uleb128 0x13
 2169 007b 00       		.byte	0
 2170 007c 00       		.byte	0
 2171 007d 0A       		.uleb128 0xa
 2172 007e 2E       		.uleb128 0x2e
 2173 007f 00       		.byte	0
 2174 0080 3F       		.uleb128 0x3f
 2175 0081 19       		.uleb128 0x19
 2176 0082 03       		.uleb128 0x3
 2177 0083 0E       		.uleb128 0xe
 2178 0084 3A       		.uleb128 0x3a
 2179 0085 0B       		.uleb128 0xb
ARM GAS  C:\Users\Petro\AppData\Local\Temp\ccQIv3Iu.s 			page 49


 2180 0086 3B       		.uleb128 0x3b
 2181 0087 0B       		.uleb128 0xb
 2182 0088 27       		.uleb128 0x27
 2183 0089 19       		.uleb128 0x19
 2184 008a 11       		.uleb128 0x11
 2185 008b 01       		.uleb128 0x1
 2186 008c 12       		.uleb128 0x12
 2187 008d 06       		.uleb128 0x6
 2188 008e 40       		.uleb128 0x40
 2189 008f 18       		.uleb128 0x18
 2190 0090 9642     		.uleb128 0x2116
 2191 0092 19       		.uleb128 0x19
 2192 0093 00       		.byte	0
 2193 0094 00       		.byte	0
 2194 0095 0B       		.uleb128 0xb
 2195 0096 2E       		.uleb128 0x2e
 2196 0097 01       		.byte	0x1
 2197 0098 3F       		.uleb128 0x3f
 2198 0099 19       		.uleb128 0x19
 2199 009a 03       		.uleb128 0x3
 2200 009b 0E       		.uleb128 0xe
 2201 009c 3A       		.uleb128 0x3a
 2202 009d 0B       		.uleb128 0xb
 2203 009e 3B       		.uleb128 0x3b
 2204 009f 0B       		.uleb128 0xb
 2205 00a0 27       		.uleb128 0x27
 2206 00a1 19       		.uleb128 0x19
 2207 00a2 11       		.uleb128 0x11
 2208 00a3 01       		.uleb128 0x1
 2209 00a4 12       		.uleb128 0x12
 2210 00a5 06       		.uleb128 0x6
 2211 00a6 40       		.uleb128 0x40
 2212 00a7 18       		.uleb128 0x18
 2213 00a8 9642     		.uleb128 0x2116
 2214 00aa 19       		.uleb128 0x19
 2215 00ab 01       		.uleb128 0x1
 2216 00ac 13       		.uleb128 0x13
 2217 00ad 00       		.byte	0
 2218 00ae 00       		.byte	0
 2219 00af 0C       		.uleb128 0xc
 2220 00b0 0B       		.uleb128 0xb
 2221 00b1 01       		.byte	0x1
 2222 00b2 11       		.uleb128 0x11
 2223 00b3 01       		.uleb128 0x1
 2224 00b4 12       		.uleb128 0x12
 2225 00b5 06       		.uleb128 0x6
 2226 00b6 00       		.byte	0
 2227 00b7 00       		.byte	0
 2228 00b8 0D       		.uleb128 0xd
 2229 00b9 34       		.uleb128 0x34
 2230 00ba 00       		.byte	0
 2231 00bb 03       		.uleb128 0x3
 2232 00bc 0E       		.uleb128 0xe
 2233 00bd 3A       		.uleb128 0x3a
 2234 00be 0B       		.uleb128 0xb
 2235 00bf 3B       		.uleb128 0x3b
 2236 00c0 0B       		.uleb128 0xb
ARM GAS  C:\Users\Petro\AppData\Local\Temp\ccQIv3Iu.s 			page 50


 2237 00c1 49       		.uleb128 0x49
 2238 00c2 13       		.uleb128 0x13
 2239 00c3 02       		.uleb128 0x2
 2240 00c4 18       		.uleb128 0x18
 2241 00c5 00       		.byte	0
 2242 00c6 00       		.byte	0
 2243 00c7 0E       		.uleb128 0xe
 2244 00c8 01       		.uleb128 0x1
 2245 00c9 01       		.byte	0x1
 2246 00ca 49       		.uleb128 0x49
 2247 00cb 13       		.uleb128 0x13
 2248 00cc 01       		.uleb128 0x1
 2249 00cd 13       		.uleb128 0x13
 2250 00ce 00       		.byte	0
 2251 00cf 00       		.byte	0
 2252 00d0 0F       		.uleb128 0xf
 2253 00d1 21       		.uleb128 0x21
 2254 00d2 00       		.byte	0
 2255 00d3 49       		.uleb128 0x49
 2256 00d4 13       		.uleb128 0x13
 2257 00d5 2F       		.uleb128 0x2f
 2258 00d6 0B       		.uleb128 0xb
 2259 00d7 00       		.byte	0
 2260 00d8 00       		.byte	0
 2261 00d9 10       		.uleb128 0x10
 2262 00da 2E       		.uleb128 0x2e
 2263 00db 01       		.byte	0x1
 2264 00dc 3F       		.uleb128 0x3f
 2265 00dd 19       		.uleb128 0x19
 2266 00de 03       		.uleb128 0x3
 2267 00df 0E       		.uleb128 0xe
 2268 00e0 3A       		.uleb128 0x3a
 2269 00e1 0B       		.uleb128 0xb
 2270 00e2 3B       		.uleb128 0x3b
 2271 00e3 0B       		.uleb128 0xb
 2272 00e4 27       		.uleb128 0x27
 2273 00e5 19       		.uleb128 0x19
 2274 00e6 49       		.uleb128 0x49
 2275 00e7 13       		.uleb128 0x13
 2276 00e8 11       		.uleb128 0x11
 2277 00e9 01       		.uleb128 0x1
 2278 00ea 12       		.uleb128 0x12
 2279 00eb 06       		.uleb128 0x6
 2280 00ec 40       		.uleb128 0x40
 2281 00ed 18       		.uleb128 0x18
 2282 00ee 9642     		.uleb128 0x2116
 2283 00f0 19       		.uleb128 0x19
 2284 00f1 01       		.uleb128 0x1
 2285 00f2 13       		.uleb128 0x13
 2286 00f3 00       		.byte	0
 2287 00f4 00       		.byte	0
 2288 00f5 11       		.uleb128 0x11
 2289 00f6 2E       		.uleb128 0x2e
 2290 00f7 00       		.byte	0
 2291 00f8 3F       		.uleb128 0x3f
 2292 00f9 19       		.uleb128 0x19
 2293 00fa 03       		.uleb128 0x3
ARM GAS  C:\Users\Petro\AppData\Local\Temp\ccQIv3Iu.s 			page 51


 2294 00fb 0E       		.uleb128 0xe
 2295 00fc 3A       		.uleb128 0x3a
 2296 00fd 0B       		.uleb128 0xb
 2297 00fe 3B       		.uleb128 0x3b
 2298 00ff 05       		.uleb128 0x5
 2299 0100 27       		.uleb128 0x27
 2300 0101 19       		.uleb128 0x19
 2301 0102 49       		.uleb128 0x49
 2302 0103 13       		.uleb128 0x13
 2303 0104 11       		.uleb128 0x11
 2304 0105 01       		.uleb128 0x1
 2305 0106 12       		.uleb128 0x12
 2306 0107 06       		.uleb128 0x6
 2307 0108 40       		.uleb128 0x40
 2308 0109 18       		.uleb128 0x18
 2309 010a 9742     		.uleb128 0x2117
 2310 010c 19       		.uleb128 0x19
 2311 010d 00       		.byte	0
 2312 010e 00       		.byte	0
 2313 010f 12       		.uleb128 0x12
 2314 0110 2E       		.uleb128 0x2e
 2315 0111 01       		.byte	0x1
 2316 0112 3F       		.uleb128 0x3f
 2317 0113 19       		.uleb128 0x19
 2318 0114 03       		.uleb128 0x3
 2319 0115 0E       		.uleb128 0xe
 2320 0116 3A       		.uleb128 0x3a
 2321 0117 0B       		.uleb128 0xb
 2322 0118 3B       		.uleb128 0x3b
 2323 0119 05       		.uleb128 0x5
 2324 011a 27       		.uleb128 0x27
 2325 011b 19       		.uleb128 0x19
 2326 011c 11       		.uleb128 0x11
 2327 011d 01       		.uleb128 0x1
 2328 011e 12       		.uleb128 0x12
 2329 011f 06       		.uleb128 0x6
 2330 0120 40       		.uleb128 0x40
 2331 0121 18       		.uleb128 0x18
 2332 0122 9742     		.uleb128 0x2117
 2333 0124 19       		.uleb128 0x19
 2334 0125 01       		.uleb128 0x1
 2335 0126 13       		.uleb128 0x13
 2336 0127 00       		.byte	0
 2337 0128 00       		.byte	0
 2338 0129 13       		.uleb128 0x13
 2339 012a 05       		.uleb128 0x5
 2340 012b 00       		.byte	0
 2341 012c 03       		.uleb128 0x3
 2342 012d 0E       		.uleb128 0xe
 2343 012e 3A       		.uleb128 0x3a
 2344 012f 0B       		.uleb128 0xb
 2345 0130 3B       		.uleb128 0x3b
 2346 0131 05       		.uleb128 0x5
 2347 0132 49       		.uleb128 0x49
 2348 0133 13       		.uleb128 0x13
 2349 0134 02       		.uleb128 0x2
 2350 0135 18       		.uleb128 0x18
ARM GAS  C:\Users\Petro\AppData\Local\Temp\ccQIv3Iu.s 			page 52


 2351 0136 00       		.byte	0
 2352 0137 00       		.byte	0
 2353 0138 14       		.uleb128 0x14
 2354 0139 2E       		.uleb128 0x2e
 2355 013a 01       		.byte	0x1
 2356 013b 3F       		.uleb128 0x3f
 2357 013c 19       		.uleb128 0x19
 2358 013d 03       		.uleb128 0x3
 2359 013e 0E       		.uleb128 0xe
 2360 013f 3A       		.uleb128 0x3a
 2361 0140 0B       		.uleb128 0xb
 2362 0141 3B       		.uleb128 0x3b
 2363 0142 05       		.uleb128 0x5
 2364 0143 27       		.uleb128 0x27
 2365 0144 19       		.uleb128 0x19
 2366 0145 49       		.uleb128 0x49
 2367 0146 13       		.uleb128 0x13
 2368 0147 11       		.uleb128 0x11
 2369 0148 01       		.uleb128 0x1
 2370 0149 12       		.uleb128 0x12
 2371 014a 06       		.uleb128 0x6
 2372 014b 40       		.uleb128 0x40
 2373 014c 18       		.uleb128 0x18
 2374 014d 9742     		.uleb128 0x2117
 2375 014f 19       		.uleb128 0x19
 2376 0150 01       		.uleb128 0x1
 2377 0151 13       		.uleb128 0x13
 2378 0152 00       		.byte	0
 2379 0153 00       		.byte	0
 2380 0154 15       		.uleb128 0x15
 2381 0155 34       		.uleb128 0x34
 2382 0156 00       		.byte	0
 2383 0157 03       		.uleb128 0x3
 2384 0158 0E       		.uleb128 0xe
 2385 0159 3A       		.uleb128 0x3a
 2386 015a 0B       		.uleb128 0xb
 2387 015b 3B       		.uleb128 0x3b
 2388 015c 05       		.uleb128 0x5
 2389 015d 49       		.uleb128 0x49
 2390 015e 13       		.uleb128 0x13
 2391 015f 02       		.uleb128 0x2
 2392 0160 18       		.uleb128 0x18
 2393 0161 00       		.byte	0
 2394 0162 00       		.byte	0
 2395 0163 16       		.uleb128 0x16
 2396 0164 2E       		.uleb128 0x2e
 2397 0165 00       		.byte	0
 2398 0166 3F       		.uleb128 0x3f
 2399 0167 19       		.uleb128 0x19
 2400 0168 03       		.uleb128 0x3
 2401 0169 0E       		.uleb128 0xe
 2402 016a 3A       		.uleb128 0x3a
 2403 016b 0B       		.uleb128 0xb
 2404 016c 3B       		.uleb128 0x3b
 2405 016d 05       		.uleb128 0x5
 2406 016e 27       		.uleb128 0x27
 2407 016f 19       		.uleb128 0x19
ARM GAS  C:\Users\Petro\AppData\Local\Temp\ccQIv3Iu.s 			page 53


 2408 0170 11       		.uleb128 0x11
 2409 0171 01       		.uleb128 0x1
 2410 0172 12       		.uleb128 0x12
 2411 0173 06       		.uleb128 0x6
 2412 0174 40       		.uleb128 0x40
 2413 0175 18       		.uleb128 0x18
 2414 0176 9742     		.uleb128 0x2117
 2415 0178 19       		.uleb128 0x19
 2416 0179 00       		.byte	0
 2417 017a 00       		.byte	0
 2418 017b 17       		.uleb128 0x17
 2419 017c 2E       		.uleb128 0x2e
 2420 017d 01       		.byte	0x1
 2421 017e 3F       		.uleb128 0x3f
 2422 017f 19       		.uleb128 0x19
 2423 0180 03       		.uleb128 0x3
 2424 0181 0E       		.uleb128 0xe
 2425 0182 3A       		.uleb128 0x3a
 2426 0183 0B       		.uleb128 0xb
 2427 0184 3B       		.uleb128 0x3b
 2428 0185 05       		.uleb128 0x5
 2429 0186 27       		.uleb128 0x27
 2430 0187 19       		.uleb128 0x19
 2431 0188 49       		.uleb128 0x49
 2432 0189 13       		.uleb128 0x13
 2433 018a 11       		.uleb128 0x11
 2434 018b 01       		.uleb128 0x1
 2435 018c 12       		.uleb128 0x12
 2436 018d 06       		.uleb128 0x6
 2437 018e 40       		.uleb128 0x40
 2438 018f 18       		.uleb128 0x18
 2439 0190 9642     		.uleb128 0x2116
 2440 0192 19       		.uleb128 0x19
 2441 0193 01       		.uleb128 0x1
 2442 0194 13       		.uleb128 0x13
 2443 0195 00       		.byte	0
 2444 0196 00       		.byte	0
 2445 0197 18       		.uleb128 0x18
 2446 0198 2E       		.uleb128 0x2e
 2447 0199 01       		.byte	0x1
 2448 019a 3F       		.uleb128 0x3f
 2449 019b 19       		.uleb128 0x19
 2450 019c 03       		.uleb128 0x3
 2451 019d 0E       		.uleb128 0xe
 2452 019e 3A       		.uleb128 0x3a
 2453 019f 0B       		.uleb128 0xb
 2454 01a0 3B       		.uleb128 0x3b
 2455 01a1 05       		.uleb128 0x5
 2456 01a2 27       		.uleb128 0x27
 2457 01a3 19       		.uleb128 0x19
 2458 01a4 11       		.uleb128 0x11
 2459 01a5 01       		.uleb128 0x1
 2460 01a6 12       		.uleb128 0x12
 2461 01a7 06       		.uleb128 0x6
 2462 01a8 40       		.uleb128 0x40
 2463 01a9 18       		.uleb128 0x18
 2464 01aa 9642     		.uleb128 0x2116
ARM GAS  C:\Users\Petro\AppData\Local\Temp\ccQIv3Iu.s 			page 54


 2465 01ac 19       		.uleb128 0x19
 2466 01ad 01       		.uleb128 0x1
 2467 01ae 13       		.uleb128 0x13
 2468 01af 00       		.byte	0
 2469 01b0 00       		.byte	0
 2470 01b1 19       		.uleb128 0x19
 2471 01b2 05       		.uleb128 0x5
 2472 01b3 00       		.byte	0
 2473 01b4 03       		.uleb128 0x3
 2474 01b5 08       		.uleb128 0x8
 2475 01b6 3A       		.uleb128 0x3a
 2476 01b7 0B       		.uleb128 0xb
 2477 01b8 3B       		.uleb128 0x3b
 2478 01b9 05       		.uleb128 0x5
 2479 01ba 49       		.uleb128 0x49
 2480 01bb 13       		.uleb128 0x13
 2481 01bc 02       		.uleb128 0x2
 2482 01bd 18       		.uleb128 0x18
 2483 01be 00       		.byte	0
 2484 01bf 00       		.byte	0
 2485 01c0 1A       		.uleb128 0x1a
 2486 01c1 34       		.uleb128 0x34
 2487 01c2 00       		.byte	0
 2488 01c3 03       		.uleb128 0x3
 2489 01c4 0E       		.uleb128 0xe
 2490 01c5 3A       		.uleb128 0x3a
 2491 01c6 0B       		.uleb128 0xb
 2492 01c7 3B       		.uleb128 0x3b
 2493 01c8 0B       		.uleb128 0xb
 2494 01c9 49       		.uleb128 0x49
 2495 01ca 13       		.uleb128 0x13
 2496 01cb 3F       		.uleb128 0x3f
 2497 01cc 19       		.uleb128 0x19
 2498 01cd 02       		.uleb128 0x2
 2499 01ce 18       		.uleb128 0x18
 2500 01cf 00       		.byte	0
 2501 01d0 00       		.byte	0
 2502 01d1 00       		.byte	0
 2503              		.section	.debug_aranges,"",%progbits
 2504 0000 7C000000 		.4byte	0x7c
 2505 0004 0200     		.2byte	0x2
 2506 0006 00000000 		.4byte	.Ldebug_info0
 2507 000a 04       		.byte	0x4
 2508 000b 00       		.byte	0
 2509 000c 0000     		.2byte	0
 2510 000e 0000     		.2byte	0
 2511 0010 00000000 		.4byte	.LFB28
 2512 0014 40000000 		.4byte	.LFE28-.LFB28
 2513 0018 00000000 		.4byte	.LFB29
 2514 001c A0000000 		.4byte	.LFE29-.LFB29
 2515 0020 00000000 		.4byte	.LFB30
 2516 0024 DC000000 		.4byte	.LFE30-.LFB30
 2517 0028 00000000 		.4byte	.LFB31
 2518 002c CC000000 		.4byte	.LFE31-.LFB31
 2519 0030 00000000 		.4byte	.LFB32
 2520 0034 14000000 		.4byte	.LFE32-.LFB32
 2521 0038 00000000 		.4byte	.LFB33
ARM GAS  C:\Users\Petro\AppData\Local\Temp\ccQIv3Iu.s 			page 55


 2522 003c 30000000 		.4byte	.LFE33-.LFB33
 2523 0040 00000000 		.4byte	.LFB34
 2524 0044 14000000 		.4byte	.LFE34-.LFB34
 2525 0048 00000000 		.4byte	.LFB35
 2526 004c 28000000 		.4byte	.LFE35-.LFB35
 2527 0050 00000000 		.4byte	.LFB36
 2528 0054 44000000 		.4byte	.LFE36-.LFB36
 2529 0058 00000000 		.4byte	.LFB37
 2530 005c 14000000 		.4byte	.LFE37-.LFB37
 2531 0060 00000000 		.4byte	.LFB38
 2532 0064 1C000000 		.4byte	.LFE38-.LFB38
 2533 0068 00000000 		.4byte	.LFB39
 2534 006c 6C020000 		.4byte	.LFE39-.LFB39
 2535 0070 00000000 		.4byte	.LFB40
 2536 0074 68000000 		.4byte	.LFE40-.LFB40
 2537 0078 00000000 		.4byte	0
 2538 007c 00000000 		.4byte	0
 2539              		.section	.debug_ranges,"",%progbits
 2540              	.Ldebug_ranges0:
 2541 0000 00000000 		.4byte	.LFB28
 2542 0004 40000000 		.4byte	.LFE28
 2543 0008 00000000 		.4byte	.LFB29
 2544 000c A0000000 		.4byte	.LFE29
 2545 0010 00000000 		.4byte	.LFB30
 2546 0014 DC000000 		.4byte	.LFE30
 2547 0018 00000000 		.4byte	.LFB31
 2548 001c CC000000 		.4byte	.LFE31
 2549 0020 00000000 		.4byte	.LFB32
 2550 0024 14000000 		.4byte	.LFE32
 2551 0028 00000000 		.4byte	.LFB33
 2552 002c 30000000 		.4byte	.LFE33
 2553 0030 00000000 		.4byte	.LFB34
 2554 0034 14000000 		.4byte	.LFE34
 2555 0038 00000000 		.4byte	.LFB35
 2556 003c 28000000 		.4byte	.LFE35
 2557 0040 00000000 		.4byte	.LFB36
 2558 0044 44000000 		.4byte	.LFE36
 2559 0048 00000000 		.4byte	.LFB37
 2560 004c 14000000 		.4byte	.LFE37
 2561 0050 00000000 		.4byte	.LFB38
 2562 0054 1C000000 		.4byte	.LFE38
 2563 0058 00000000 		.4byte	.LFB39
 2564 005c 6C020000 		.4byte	.LFE39
 2565 0060 00000000 		.4byte	.LFB40
 2566 0064 68000000 		.4byte	.LFE40
 2567 0068 00000000 		.4byte	0
 2568 006c 00000000 		.4byte	0
 2569              		.section	.debug_line,"",%progbits
 2570              	.Ldebug_line0:
 2571 0000 0F030000 		.section	.debug_str,"MS",%progbits,1
 2571      02005A01 
 2571      00000201 
 2571      FB0E0D00 
 2571      01010101 
 2572              	.LASF56:
 2573 0000 72657375 		.ascii	"result\000"
 2573      6C7400
ARM GAS  C:\Users\Petro\AppData\Local\Temp\ccQIv3Iu.s 			page 56


 2574              	.LASF29:
 2575 0007 4E545052 		.ascii	"NTPResp\000"
 2575      65737000 
 2576              	.LASF40:
 2577 000f 6E657753 		.ascii	"newSkier\000"
 2577      6B696572 
 2577      00
 2578              	.LASF28:
 2579 0018 44617461 		.ascii	"DataMs1\000"
 2579      4D733100 
 2580              	.LASF10:
 2581 0020 5F5F7569 		.ascii	"__uint64_t\000"
 2581      6E743634 
 2581      5F7400
 2582              	.LASF44:
 2583 002b 53656E64 		.ascii	"SendData\000"
 2583      44617461 
 2583      00
 2584              	.LASF47:
 2585 0034 73656E64 		.ascii	"sendData\000"
 2585      44617461 
 2585      00
 2586              	.LASF57:
 2587 003d 49735265 		.ascii	"IsRebootFinishFlag\000"
 2587      626F6F74 
 2587      46696E69 
 2587      7368466C 
 2587      616700
 2588              	.LASF16:
 2589 0050 75696E74 		.ascii	"uint64_t\000"
 2589      36345F74 
 2589      00
 2590              	.LASF62:
 2591 0059 64656C61 		.ascii	"delayReceivePacket\000"
 2591      79526563 
 2591      65697665 
 2591      5061636B 
 2591      657400
 2592              	.LASF72:
 2593 006c 6E6F436F 		.ascii	"noConnect\000"
 2593      6E6E6563 
 2593      7400
 2594              	.LASF32:
 2595 0076 7265626F 		.ascii	"reboot\000"
 2595      6F7400
 2596              	.LASF21:
 2597 007d 73697A65 		.ascii	"sizetype\000"
 2597      74797065 
 2597      00
 2598              	.LASF48:
 2599 0086 72656376 		.ascii	"recvData\000"
 2599      44617461 
 2599      00
 2600              	.LASF70:
 2601 008f 6D696C6C 		.ascii	"millis3\000"
 2601      69733300 
 2602              	.LASF83:
ARM GAS  C:\Users\Petro\AppData\Local\Temp\ccQIv3Iu.s 			page 57


 2603 0097 49447265 		.ascii	"IDreceivePacket\000"
 2603      63656976 
 2603      65506163 
 2603      6B657400 
 2604              	.LASF39:
 2605 00a7 73746172 		.ascii	"startMsTime\000"
 2605      744D7354 
 2605      696D6500 
 2606              	.LASF7:
 2607 00b3 5F5F7569 		.ascii	"__uint32_t\000"
 2607      6E743332 
 2607      5F7400
 2608              	.LASF68:
 2609 00be 756E6978 		.ascii	"unixTime3\000"
 2609      54696D65 
 2609      3300
 2610              	.LASF4:
 2611 00c8 5F5F7569 		.ascii	"__uint16_t\000"
 2611      6E743136 
 2611      5F7400
 2612              	.LASF65:
 2613 00d3 6D696C6C 		.ascii	"millisTimeReal\000"
 2613      69735469 
 2613      6D655265 
 2613      616C00
 2614              	.LASF2:
 2615 00e2 73686F72 		.ascii	"short int\000"
 2615      7420696E 
 2615      7400
 2616              	.LASF73:
 2617 00ec 66696E4E 		.ascii	"finNoReady\000"
 2617      6F526561 
 2617      647900
 2618              	.LASF46:
 2619 00f7 73656E64 		.ascii	"sendBuffer\000"
 2619      42756666 
 2619      657200
 2620              	.LASF13:
 2621 0102 75696E74 		.ascii	"uint8_t\000"
 2621      385F7400 
 2622              	.LASF52:
 2623 010a 4E657477 		.ascii	"NetworkStatus\000"
 2623      6F726B53 
 2623      74617475 
 2623      7300
 2624              	.LASF80:
 2625 0118 666C6167 		.ascii	"flagStartSendPacket\000"
 2625      53746172 
 2625      7453656E 
 2625      64506163 
 2625      6B657400 
 2626              	.LASF42:
 2627 012c 53746172 		.ascii	"StartData\000"
 2627      74446174 
 2627      6100
 2628              	.LASF86:
 2629 0136 72656376 		.ascii	"recvDataNTP\000"
ARM GAS  C:\Users\Petro\AppData\Local\Temp\ccQIv3Iu.s 			page 58


 2629      44617461 
 2629      4E545000 
 2630              	.LASF37:
 2631 0142 46696E69 		.ascii	"FinishData\000"
 2631      73684461 
 2631      746100
 2632              	.LASF0:
 2633 014d 7369676E 		.ascii	"signed char\000"
 2633      65642063 
 2633      68617200 
 2634              	.LASF18:
 2635 0159 666C6F61 		.ascii	"float\000"
 2635      7400
 2636              	.LASF27:
 2637 015f 456E6450 		.ascii	"EndPacket\000"
 2637      61636B65 
 2637      7400
 2638              	.LASF9:
 2639 0169 6C6F6E67 		.ascii	"long long int\000"
 2639      206C6F6E 
 2639      6720696E 
 2639      7400
 2640              	.LASF85:
 2641 0177 6E747046 		.ascii	"ntpFlagReadyForReceive\000"
 2641      6C616752 
 2641      65616479 
 2641      466F7252 
 2641      65636569 
 2642              	.LASF89:
 2643 018e 443A5C43 		.ascii	"D:\\Cypress\\system-start-finish\\vesion 2\\fw\\sta"
 2643      79707265 
 2643      73735C73 
 2643      79737465 
 2643      6D2D7374 
 2644 01bc 72745C73 		.ascii	"rt\\sandbox\\v7_debug_ntp\\Start(state machine)\\st"
 2644      616E6462 
 2644      6F785C76 
 2644      375F6465 
 2644      6275675F 
 2645 01eb 6172745F 		.ascii	"art_v0.cydsn\000"
 2645      76302E63 
 2645      7964736E 
 2645      00
 2646              	.LASF6:
 2647 01f8 6C6F6E67 		.ascii	"long int\000"
 2647      20696E74 
 2647      00
 2648              	.LASF75:
 2649 0201 6F757444 		.ascii	"outData\000"
 2649      61746100 
 2650              	.LASF59:
 2651 0209 53657452 		.ascii	"SetRebootFlag\000"
 2651      65626F6F 
 2651      74466C61 
 2651      6700
 2652              	.LASF41:
 2653 0217 77726974 		.ascii	"writeStatus\000"
ARM GAS  C:\Users\Petro\AppData\Local\Temp\ccQIv3Iu.s 			page 59


 2653      65537461 
 2653      74757300 
 2654              	.LASF3:
 2655 0223 5F5F7569 		.ascii	"__uint8_t\000"
 2655      6E74385F 
 2655      7400
 2656              	.LASF43:
 2657 022d 43757374 		.ascii	"CustomInterruptHandler\000"
 2657      6F6D496E 
 2657      74657272 
 2657      75707448 
 2657      616E646C 
 2658              	.LASF81:
 2659 0244 666C6167 		.ascii	"flagFinSendPacket\000"
 2659      46696E53 
 2659      656E6450 
 2659      61636B65 
 2659      7400
 2660              	.LASF74:
 2661 0256 696E4461 		.ascii	"inData\000"
 2661      746100
 2662              	.LASF35:
 2663 025d 746D704D 		.ascii	"tmpMsTime\000"
 2663      7354696D 
 2663      6500
 2664              	.LASF26:
 2665 0267 43686563 		.ascii	"CheckSum\000"
 2665      6B53756D 
 2665      00
 2666              	.LASF1:
 2667 0270 756E7369 		.ascii	"unsigned char\000"
 2667      676E6564 
 2667      20636861 
 2667      7200
 2668              	.LASF79:
 2669 027e 6F6E4E74 		.ascii	"onNtpSync\000"
 2669      7053796E 
 2669      6300
 2670              	.LASF67:
 2671 0288 756E6978 		.ascii	"unixTime2\000"
 2671      54696D65 
 2671      3200
 2672              	.LASF76:
 2673 0292 70726576 		.ascii	"previousData\000"
 2673      696F7573 
 2673      44617461 
 2673      00
 2674              	.LASF84:
 2675 029f 6E747046 		.ascii	"ntpFlagEndReceivePacket\000"
 2675      6C616745 
 2675      6E645265 
 2675      63656976 
 2675      65506163 
 2676              	.LASF11:
 2677 02b7 6C6F6E67 		.ascii	"long long unsigned int\000"
 2677      206C6F6E 
 2677      6720756E 
ARM GAS  C:\Users\Petro\AppData\Local\Temp\ccQIv3Iu.s 			page 60


 2677      7369676E 
 2677      65642069 
 2678              	.LASF64:
 2679 02ce 756E6978 		.ascii	"unixTimeReal\000"
 2679      54696D65 
 2679      5265616C 
 2679      00
 2680              	.LASF15:
 2681 02db 75696E74 		.ascii	"uint32_t\000"
 2681      33325F74 
 2681      00
 2682              	.LASF69:
 2683 02e4 6D696C6C 		.ascii	"millis2\000"
 2683      69733200 
 2684              	.LASF50:
 2685 02ec 756E6978 		.ascii	"unixTimeStart\000"
 2685      54696D65 
 2685      53746172 
 2685      7400
 2686              	.LASF12:
 2687 02fa 756E7369 		.ascii	"unsigned int\000"
 2687      676E6564 
 2687      20696E74 
 2687      00
 2688              	.LASF14:
 2689 0307 75696E74 		.ascii	"uint16_t\000"
 2689      31365F74 
 2689      00
 2690              	.LASF8:
 2691 0310 6C6F6E67 		.ascii	"long unsigned int\000"
 2691      20756E73 
 2691      69676E65 
 2691      6420696E 
 2691      7400
 2692              	.LASF58:
 2693 0322 496E6974 		.ascii	"InitNetwork\000"
 2693      4E657477 
 2693      6F726B00 
 2694              	.LASF34:
 2695 032e 746D7054 		.ascii	"tmpTime\000"
 2695      696D6500 
 2696              	.LASF30:
 2697 0336 49447061 		.ascii	"IDpacket\000"
 2697      636B6574 
 2697      00
 2698              	.LASF22:
 2699 033f 436F6D6D 		.ascii	"Command\000"
 2699      616E6400 
 2700              	.LASF36:
 2701 0347 72656164 		.ascii	"readStatus\000"
 2701      53746174 
 2701      757300
 2702              	.LASF88:
 2703 0352 6E657477 		.ascii	"network.c\000"
 2703      6F726B2E 
 2703      6300
 2704              	.LASF20:
ARM GAS  C:\Users\Petro\AppData\Local\Temp\ccQIv3Iu.s 			page 61


 2705 035c 63686172 		.ascii	"char\000"
 2705      00
 2706              	.LASF53:
 2707 0361 46696E52 		.ascii	"FinReady\000"
 2707      65616479 
 2707      00
 2708              	.LASF31:
 2709 036a 72656164 		.ascii	"ready\000"
 2709      7900
 2710              	.LASF87:
 2711 0370 474E5520 		.ascii	"GNU C 4.9.3 20150303 (release) [ARM/embedded-4_9-br"
 2711      4320342E 
 2711      392E3320 
 2711      32303135 
 2711      30333033 
 2712 03a3 616E6368 		.ascii	"anch revision 221220] -mcpu=cortex-m0 -mthumb -g -O"
 2712      20726576 
 2712      6973696F 
 2712      6E203232 
 2712      31323230 
 2713 03d6 30202D66 		.ascii	"0 -ffunction-sections -ffat-lto-objects\000"
 2713      66756E63 
 2713      74696F6E 
 2713      2D736563 
 2713      74696F6E 
 2714              	.LASF38:
 2715 03fe 756E6978 		.ascii	"unixStartTime\000"
 2715      53746172 
 2715      7454696D 
 2715      6500
 2716              	.LASF5:
 2717 040c 73686F72 		.ascii	"short unsigned int\000"
 2717      7420756E 
 2717      7369676E 
 2717      65642069 
 2717      6E7400
 2718              	.LASF51:
 2719 041f 72656365 		.ascii	"recentMs\000"
 2719      6E744D73 
 2719      00
 2720              	.LASF23:
 2721 0428 44617461 		.ascii	"Data1\000"
 2721      3100
 2722              	.LASF24:
 2723 042e 44617461 		.ascii	"Data2\000"
 2723      3200
 2724              	.LASF25:
 2725 0434 44617461 		.ascii	"Data3\000"
 2725      3300
 2726              	.LASF78:
 2727 043a 6D696C6C 		.ascii	"millisTime\000"
 2727      69735469 
 2727      6D6500
 2728              	.LASF60:
 2729 0445 436C6561 		.ascii	"ClearRebootFlag\000"
 2729      72526562 
 2729      6F6F7446 
ARM GAS  C:\Users\Petro\AppData\Local\Temp\ccQIv3Iu.s 			page 62


 2729      6C616700 
 2730              	.LASF17:
 2731 0455 75696E74 		.ascii	"uint32\000"
 2731      333200
 2732              	.LASF55:
 2733 045c 46696E57 		.ascii	"FinWriteInDB\000"
 2733      72697465 
 2733      496E4442 
 2733      00
 2734              	.LASF77:
 2735 0469 756E6978 		.ascii	"unixTime\000"
 2735      54696D65 
 2735      00
 2736              	.LASF63:
 2737 0472 6F6C6455 		.ascii	"oldUnixTime\000"
 2737      6E697854 
 2737      696D6500 
 2738              	.LASF71:
 2739 047e 6E657477 		.ascii	"networkStatus\000"
 2739      6F726B53 
 2739      74617475 
 2739      7300
 2740              	.LASF82:
 2741 048c 72657375 		.ascii	"resultReceive\000"
 2741      6C745265 
 2741      63656976 
 2741      6500
 2742              	.LASF45:
 2743 049a 62797465 		.ascii	"byte\000"
 2743      00
 2744              	.LASF90:
 2745 049f 52657370 		.ascii	"Resp\000"
 2745      00
 2746              	.LASF61:
 2747 04a4 4E545073 		.ascii	"NTPsync\000"
 2747      796E6300 
 2748              	.LASF54:
 2749 04ac 52656365 		.ascii	"ReceiveData\000"
 2749      69766544 
 2749      61746100 
 2750              	.LASF19:
 2751 04b8 646F7562 		.ascii	"double\000"
 2751      6C6500
 2752              	.LASF49:
 2753 04bf 53656E64 		.ascii	"SendSkierStart\000"
 2753      536B6965 
 2753      72537461 
 2753      727400
 2754              	.LASF33:
 2755 04ce 636F756E 		.ascii	"countSkiers\000"
 2755      74536B69 
 2755      65727300 
 2756              	.LASF66:
 2757 04da 4E545073 		.ascii	"NTPsendTime\000"
 2757      656E6454 
 2757      696D6500 
 2758              		.ident	"GCC: (GNU Tools for ARM Embedded Processors) 4.9.3 20150303 (release) [ARM/embedded-4_9-br
ARM GAS  C:\Users\Petro\AppData\Local\Temp\ccQIv3Iu.s 			page 63


