ARM GAS  C:\Users\Petro\AppData\Local\Temp\ccQIv3Iu.s 			page 1


   1              		.cpu cortex-m0
   2              		.fpu softvfp
   3              		.eabi_attribute 20, 1
   4              		.eabi_attribute 21, 1
   5              		.eabi_attribute 23, 3
   6              		.eabi_attribute 24, 1
   7              		.eabi_attribute 25, 1
   8              		.eabi_attribute 26, 1
   9              		.eabi_attribute 30, 6
  10              		.eabi_attribute 34, 0
  11              		.eabi_attribute 18, 4
  12              		.code	16
  13              		.file	"network.c"
  14              		.text
  15              	.Ltext0:
  16              		.cfi_sections	.debug_frame
  17              		.comm	inData,24,8
  18              		.comm	outData,24,8
  19              		.comm	previousData,100,4
  20              		.bss
  21              		.align	2
  22              	networkStatus:
  23 0000 00000000 		.space	4
  24              		.align	2
  25              	noConnect:
  26 0004 00000000 		.space	4
  27              		.align	2
  28              	finNoReady:
  29 0008 00000000 		.space	4
  30              		.comm	unixTime,16,4
  31              		.comm	millisTime,8,4
  32              		.global	onNtpSync
  33              		.type	onNtpSync, %object
  34              		.size	onNtpSync, 1
  35              	onNtpSync:
  36 000c 00       		.space	1
  37              		.global	flagStartSendPacket
  38              		.type	flagStartSendPacket, %object
  39              		.size	flagStartSendPacket, 1
  40              	flagStartSendPacket:
  41 000d 00       		.space	1
  42              		.global	flagFinSendPacket
  43              		.type	flagFinSendPacket, %object
  44              		.size	flagFinSendPacket, 1
  45              	flagFinSendPacket:
  46 000e 00       		.space	1
  47              		.comm	resultReceive,4,4
  48              		.comm	IDreceivePacket,2,2
  49              		.comm	ntpFlagEndReceivePacket,1,1
  50              		.comm	ntpFlagReadyForReceive,1,1
  51              		.comm	recvDataNTP,20,4
  52 000f 00       		.section	.text.InitNetwork,"ax",%progbits
  53              		.align	2
  54              		.global	InitNetwork
  55              		.code	16
  56              		.thumb_func
  57              		.type	InitNetwork, %function
ARM GAS  C:\Users\Petro\AppData\Local\Temp\ccQIv3Iu.s 			page 2


  58              	InitNetwork:
  59              	.LFB28:
  60              		.file 1 "network.c"
   1:network.c     **** 
   2:network.c     **** #include "lib_Network/network.h"
   3:network.c     **** #include <UART_XB.h>
   4:network.c     **** #include <UART_XB_SPI_UART.h>
   5:network.c     **** #include <RTC.h>
   6:network.c     **** 
   7:network.c     **** #ifdef DEBUG_INFO
   8:network.c     ****     #include "SW_UART_DEBUG.h"
   9:network.c     **** #endif
  10:network.c     **** #ifdef DEBUG_TIME
  11:network.c     ****     #include <debug.h>
  12:network.c     **** #endif
  13:network.c     **** #ifdef DEBUG_NTP
  14:network.c     ****     #include <debugntp.h>
  15:network.c     **** #endif
  16:network.c     **** #ifdef DEBUGNTP
  17:network.c     ****     #include <pinDebugNtp.h>
  18:network.c     **** #endif
  19:network.c     **** #ifdef DEBUGUART
  20:network.c     ****     #include <project.h>
  21:network.c     **** #endif
  22:network.c     **** 
  23:network.c     **** #include <stdio.h>
  24:network.c     **** #include "lib_Network/svt.h"
  25:network.c     **** #include "lib_RTC/RTC_WDT.h"
  26:network.c     **** #include "lib_Network/ntp.h"
  27:network.c     **** #include "lib_Display/display.h"
  28:network.c     **** 
  29:network.c     **** #define MIN_DELAYMS 150
  30:network.c     **** 
  31:network.c     **** /*size buffer*/
  32:network.c     **** #define DATA_BUFFER   50
  33:network.c     **** #define RX_BUFFER   
  34:network.c     **** 
  35:network.c     **** #define ADRESS_READY        8
  36:network.c     **** #define ADRESS_REBOOT       9
  37:network.c     **** #define ADRESS_COUNT_SK     10
  38:network.c     **** 
  39:network.c     **** #define MASK_HIGH   0xFFFFFFFF00000000
  40:network.c     **** #define MASK_LOW    0x00000000FFFFFFFF
  41:network.c     **** #define DATA_SHIFT  32
  42:network.c     **** 
  43:network.c     **** #define TIMEOUT_FIN_READY   3
  44:network.c     **** 
  45:network.c     **** /*for NTP protocol*/
  46:network.c     **** #define NUM_TRY_SYNC        14
  47:network.c     **** #define NUM_CONNECT_ATTEMPS 1000
  48:network.c     **** 
  49:network.c     **** #define SAVE_TIME           1
  50:network.c     **** #define NETWORK_TIMEOUT     50
  51:network.c     **** #define NEW_SKIER_IN_TARCK   1
  52:network.c     **** #define NTP_DELAY_RECEIVED_PACKET 500
  53:network.c     **** 
  54:network.c     **** 
ARM GAS  C:\Users\Petro\AppData\Local\Temp\ccQIv3Iu.s 			page 3


  55:network.c     **** /*segment time*/
  56:network.c     **** #define T1                  0
  57:network.c     **** #define T2                  1
  58:network.c     **** #define T3                  2
  59:network.c     **** #define T4                  3
  60:network.c     **** 
  61:network.c     **** #define CORRECTION_TIME     0
  62:network.c     **** 
  63:network.c     **** typedef struct
  64:network.c     **** {
  65:network.c     ****     uint8_t IDpacket;
  66:network.c     ****     uint8_t ready;
  67:network.c     ****     uint8_t reboot;
  68:network.c     ****     uint8_t countSkiers;
  69:network.c     ****     uint64_t tmpTime;
  70:network.c     ****     uint16_t tmpMsTime;
  71:network.c     ****     uint8_t readStatus;
  72:network.c     **** }FinishData;
  73:network.c     **** 
  74:network.c     **** typedef struct
  75:network.c     **** {
  76:network.c     ****     uint8_t IDpacket;
  77:network.c     ****     uint64_t unixStartTime;
  78:network.c     ****     uint16_t startMsTime;
  79:network.c     ****     uint8_t newSkier;
  80:network.c     ****     uint8_t writeStatus;
  81:network.c     ****     uint8_t reboot;     /*reboot=1, not reboot=0*/
  82:network.c     **** }StartData;
  83:network.c     **** 
  84:network.c     **** FinishData inData;
  85:network.c     **** StartData outData;
  86:network.c     **** 
  87:network.c     **** char previousData[100];
  88:network.c     **** 
  89:network.c     **** static uint32_t networkStatus;
  90:network.c     **** static int noConnect;
  91:network.c     **** static int finNoReady;
  92:network.c     **** uint32_t unixTime[4];
  93:network.c     **** uint16_t millisTime[4];
  94:network.c     **** 
  95:network.c     **** /*------TEST---------*/
  96:network.c     **** uint8_t onNtpSync = 0;      //–∑–º—ñ–Ω–Ω—è –¥–ª—è —ñ–Ω–¥–∏–∫–∞—Ü—ñ—ó —â–æ –∑–∞—Ä–∞ –≤—ñ–¥–±—É–≤–∞—î
  97:network.c     **** uint8_t flagStartSendPacket = 0;    //—Ñ–ª–∞–∂–∫–∏ –ø–æ–∫–∞–∑—É—é—Ç—å —â–æ –ø–æ—á–∞–ª–∞—Å—è/–∑–∞–∫—
  98:network.c     **** uint8_t flagFinSendPacket = 0;      //
  99:network.c     **** 
 100:network.c     **** uint32_t resultReceive;
 101:network.c     **** uint16_t IDreceivePacket;
 102:network.c     **** typedef enum {ROUGH_SET_TIME, SYNC_TIME, SET_DIFF_TIME}stageSync;
 103:network.c     **** 
 104:network.c     **** /*global variable for new ntp protocol*/
 105:network.c     **** uint8_t ntpFlagEndReceivePacket;        //indicator end receive packet
 106:network.c     **** uint8_t ntpFlagReadyForReceive;         //indicator ready for receive next packet
 107:network.c     **** NTPResp recvDataNTP;                    //struct for data to ntpd receive data
 108:network.c     **** /*end */
 109:network.c     **** 
 110:network.c     **** #ifdef DEBUG_INFO
 111:network.c     ****     char uartBuff[50];
ARM GAS  C:\Users\Petro\AppData\Local\Temp\ccQIv3Iu.s 			page 4


 112:network.c     **** #endif
 113:network.c     **** 
 114:network.c     **** #ifdef DEBUGUART
 115:network.c     ****     char buffer[100];
 116:network.c     **** #endif
 117:network.c     **** 
 118:network.c     **** uint32_t ReceiveRealTime(void);
 119:network.c     **** void NTPsendTime(uint32_t unixTime2,uint32_t unixTime3,uint16_t millis2,uint16_t millis3, uint16_t 
 120:network.c     **** uint32_t NTPreceiveTime(uint32_t *unixTime2,uint16_t *millis2, uint16_t *IDreceive, uint32_t saveTi
 121:network.c     **** void CustomInterruptHandler(void);
 122:network.c     **** 
 123:network.c     **** /*******************************************************************************
 124:network.c     **** * Function Name: InitNetwork
 125:network.c     **** ********************************************************************************
 126:network.c     **** *
 127:network.c     **** * Summary:
 128:network.c     **** *   initialization UART for XBee module
 129:network.c     **** *
 130:network.c     **** *******************************************************************************/
 131:network.c     **** void InitNetwork(void)
 132:network.c     **** {
  61              		.loc 1 132 0
  62              		.cfi_startproc
  63 0000 80B5     		push	{r7, lr}
  64              		.cfi_def_cfa_offset 8
  65              		.cfi_offset 7, -8
  66              		.cfi_offset 14, -4
  67 0002 00AF     		add	r7, sp, #0
  68              		.cfi_def_cfa_register 7
 133:network.c     ****     UART_XB_Start();
  69              		.loc 1 133 0
  70 0004 FFF7FEFF 		bl	UART_XB_Start
 134:network.c     ****     UART_XB_SetCustomInterruptHandler(&CustomInterruptHandler);
  71              		.loc 1 134 0
  72 0008 094B     		ldr	r3, .L2
  73 000a 181C     		mov	r0, r3
  74 000c FFF7FEFF 		bl	UART_XB_SetCustomInterruptHandler
 135:network.c     ****     
 136:network.c     ****     #ifdef DEBUG_INFO
 137:network.c     ****         SW_UART_DEBUG_Start();
 138:network.c     ****         SW_UART_DEBUG_PutString("HElLO, IM READY(start)\n\r");
 139:network.c     ****     #endif
 140:network.c     ****     
 141:network.c     ****     #ifdef DEBUGUART
 142:network.c     ****         uartDebug_Start();
 143:network.c     ****         uartDebug_UartPutString("uart started\n\r");
 144:network.c     ****     #endif
 145:network.c     ****     
 146:network.c     ****     inData.readStatus = NO_READ;
  75              		.loc 1 146 0
  76 0010 084B     		ldr	r3, .L2+4
  77 0012 0022     		mov	r2, #0
  78 0014 9A74     		strb	r2, [r3, #18]
 147:network.c     ****     outData.writeStatus = WRITE_OK;
  79              		.loc 1 147 0
  80 0016 084B     		ldr	r3, .L2+8
  81 0018 0122     		mov	r2, #1
ARM GAS  C:\Users\Petro\AppData\Local\Temp\ccQIv3Iu.s 			page 5


  82 001a DA74     		strb	r2, [r3, #19]
 148:network.c     ****     outData.IDpacket = 0xFF;
  83              		.loc 1 148 0
  84 001c 064B     		ldr	r3, .L2+8
  85 001e FF22     		mov	r2, #255
  86 0020 1A70     		strb	r2, [r3]
 149:network.c     ****     networkStatus = NETWORK_DISCONN;   
  87              		.loc 1 149 0
  88 0022 064B     		ldr	r3, .L2+12
  89 0024 0022     		mov	r2, #0
  90 0026 1A60     		str	r2, [r3]
 150:network.c     ****     UART_XB_SpiUartClearRxBuffer();
  91              		.loc 1 150 0
  92 0028 FFF7FEFF 		bl	UART_XB_SpiUartClearRxBuffer
 151:network.c     **** }
  93              		.loc 1 151 0
  94 002c BD46     		mov	sp, r7
  95              		@ sp needed
  96 002e 80BD     		pop	{r7, pc}
  97              	.L3:
  98              		.align	2
  99              	.L2:
 100 0030 00000000 		.word	CustomInterruptHandler
 101 0034 00000000 		.word	inData
 102 0038 00000000 		.word	outData
 103 003c 00000000 		.word	networkStatus
 104              		.cfi_endproc
 105              	.LFE28:
 106              		.size	InitNetwork, .-InitNetwork
 107              		.section	.text.CustomInterruptHandler,"ax",%progbits
 108              		.align	2
 109              		.global	CustomInterruptHandler
 110              		.code	16
 111              		.thumb_func
 112              		.type	CustomInterruptHandler, %function
 113              	CustomInterruptHandler:
 114              	.LFB29:
 152:network.c     **** 
 153:network.c     **** 
 154:network.c     **** 
 155:network.c     **** 
 156:network.c     **** void CustomInterruptHandler(void)
 157:network.c     **** {
 115              		.loc 1 157 0
 116              		.cfi_startproc
 117 0000 90B5     		push	{r4, r7, lr}
 118              		.cfi_def_cfa_offset 12
 119              		.cfi_offset 4, -12
 120              		.cfi_offset 7, -8
 121              		.cfi_offset 14, -4
 122 0002 83B0     		sub	sp, sp, #12
 123              		.cfi_def_cfa_offset 24
 124 0004 00AF     		add	r7, sp, #0
 125              		.cfi_def_cfa_register 7
 158:network.c     ****     if(onNtpSync)
 126              		.loc 1 158 0
 127 0006 204B     		ldr	r3, .L7
ARM GAS  C:\Users\Petro\AppData\Local\Temp\ccQIv3Iu.s 			page 6


 128 0008 1B78     		ldrb	r3, [r3]
 129 000a 002B     		cmp	r3, #0
 130 000c 39D0     		beq	.L4
 131              	.LBB2:
 159:network.c     ****     {
 160:network.c     ****         uint8_t byte = 0;
 132              		.loc 1 160 0
 133 000e FB1D     		add	r3, r7, #7
 134 0010 0022     		mov	r2, #0
 135 0012 1A70     		strb	r2, [r3]
 161:network.c     ****         
 162:network.c     ****         if(UART_XB_SpiUartGetRxBufferSize() > 0)
 136              		.loc 1 162 0
 137 0014 FFF7FEFF 		bl	UART_XB_SpiUartGetRxBufferSize
 138 0018 031E     		sub	r3, r0, #0
 139 001a 04D0     		beq	.L6
 163:network.c     ****             byte=UART_XB_UartGetChar();
 140              		.loc 1 163 0
 141 001c FFF7FEFF 		bl	UART_XB_UartGetChar
 142 0020 021C     		mov	r2, r0
 143 0022 FB1D     		add	r3, r7, #7
 144 0024 1A70     		strb	r2, [r3]
 145              	.L6:
 164:network.c     ****             
 165:network.c     ****         if(ntpFlagReadyForReceive && byte != 0)
 146              		.loc 1 165 0
 147 0026 194B     		ldr	r3, .L7+4
 148 0028 1B78     		ldrb	r3, [r3]
 149 002a 002B     		cmp	r3, #0
 150 002c 29D0     		beq	.L4
 151              		.loc 1 165 0 is_stmt 0 discriminator 1
 152 002e FB1D     		add	r3, r7, #7
 153 0030 1B78     		ldrb	r3, [r3]
 154 0032 002B     		cmp	r3, #0
 155 0034 25D0     		beq	.L4
 166:network.c     ****         {
 167:network.c     ****             NtpUnpackData(&recvDataNTP, (uint8_t)(byte & 0xFF));
 156              		.loc 1 167 0 is_stmt 1
 157 0036 164A     		ldr	r2, .L7+8
 158 0038 FB1D     		add	r3, r7, #7
 159 003a 1B78     		ldrb	r3, [r3]
 160 003c 101C     		mov	r0, r2
 161 003e 191C     		mov	r1, r3
 162 0040 FFF7FEFF 		bl	NtpUnpackData
 168:network.c     ****             
 169:network.c     ****             if(recvDataNTP.EndPacket)
 163              		.loc 1 169 0
 164 0044 124B     		ldr	r3, .L7+8
 165 0046 1B7C     		ldrb	r3, [r3, #16]
 166 0048 002B     		cmp	r3, #0
 167 004a 1AD0     		beq	.L4
 170:network.c     ****             {
 171:network.c     ****                 unixTime[T2] = RTC_GetUnixTime();
 168              		.loc 1 171 0
 169 004c FFF7FEFF 		bl	RTC_GetUnixTime
 170 0050 031C     		mov	r3, r0
 171 0052 0C1C     		mov	r4, r1
ARM GAS  C:\Users\Petro\AppData\Local\Temp\ccQIv3Iu.s 			page 7


 172 0054 1A1C     		mov	r2, r3
 173 0056 0F4B     		ldr	r3, .L7+12
 174 0058 5A60     		str	r2, [r3, #4]
 172:network.c     ****                 millisTime[T2] = RTCgetRecentMs();
 175              		.loc 1 172 0
 176 005a FFF7FEFF 		bl	RTCgetRecentMs
 177 005e 031C     		mov	r3, r0
 178 0060 9AB2     		uxth	r2, r3
 179 0062 0D4B     		ldr	r3, .L7+16
 180 0064 5A80     		strh	r2, [r3, #2]
 173:network.c     ****                 unixTime[T1] = recvDataNTP.Data1;
 181              		.loc 1 173 0
 182 0066 0A4B     		ldr	r3, .L7+8
 183 0068 5A68     		ldr	r2, [r3, #4]
 184 006a 0A4B     		ldr	r3, .L7+12
 185 006c 1A60     		str	r2, [r3]
 174:network.c     ****                 millisTime[T1] = recvDataNTP.DataMs1;
 186              		.loc 1 174 0
 187 006e 084B     		ldr	r3, .L7+8
 188 0070 1A89     		ldrh	r2, [r3, #8]
 189 0072 094B     		ldr	r3, .L7+16
 190 0074 1A80     		strh	r2, [r3]
 175:network.c     ****                 #ifdef DEBUGNTP
 176:network.c     ****                     pinDebugNtp_Write(1);
 177:network.c     ****                     pinDebugNtp_Write(0);
 178:network.c     ****                 #endif
 179:network.c     ****                 
 180:network.c     ****                 ntpFlagEndReceivePacket = 1;
 191              		.loc 1 180 0
 192 0076 094B     		ldr	r3, .L7+20
 193 0078 0122     		mov	r2, #1
 194 007a 1A70     		strb	r2, [r3]
 181:network.c     ****                 ntpFlagReadyForReceive = 0;
 195              		.loc 1 181 0
 196 007c 034B     		ldr	r3, .L7+4
 197 007e 0022     		mov	r2, #0
 198 0080 1A70     		strb	r2, [r3]
 199              	.L4:
 200              	.LBE2:
 182:network.c     ****             }
 183:network.c     ****         }
 184:network.c     ****     }
 185:network.c     **** }
 201              		.loc 1 185 0
 202 0082 BD46     		mov	sp, r7
 203 0084 03B0     		add	sp, sp, #12
 204              		@ sp needed
 205 0086 90BD     		pop	{r4, r7, pc}
 206              	.L8:
 207              		.align	2
 208              	.L7:
 209 0088 00000000 		.word	onNtpSync
 210 008c 00000000 		.word	ntpFlagReadyForReceive
 211 0090 00000000 		.word	recvDataNTP
 212 0094 00000000 		.word	unixTime
 213 0098 00000000 		.word	millisTime
 214 009c 00000000 		.word	ntpFlagEndReceivePacket
ARM GAS  C:\Users\Petro\AppData\Local\Temp\ccQIv3Iu.s 			page 8


 215              		.cfi_endproc
 216              	.LFE29:
 217              		.size	CustomInterruptHandler, .-CustomInterruptHandler
 218              		.section	.rodata
 219              		.align	2
 220              	.LC13:
 221 0000 25303258 		.ascii	"%02X:%08X%08X%04X%02X%02X\000"
 221      3A253038 
 221      58253038 
 221      58253034 
 221      58253032 
 222              		.section	.text.SendData,"ax",%progbits
 223              		.align	2
 224              		.global	SendData
 225              		.code	16
 226              		.thumb_func
 227              		.type	SendData, %function
 228              	SendData:
 229              	.LFB30:
 186:network.c     **** 
 187:network.c     **** /*******************************************************************************
 188:network.c     **** * Function Name: SendData
 189:network.c     **** ********************************************************************************
 190:network.c     **** *
 191:network.c     **** * Summary:
 192:network.c     **** *   send data to start from struct "outData"
 193:network.c     **** *
 194:network.c     **** *******************************************************************************/
 195:network.c     **** void SendData(void)
 196:network.c     **** {
 230              		.loc 1 196 0
 231              		.cfi_startproc
 232 0000 F0B5     		push	{r4, r5, r6, r7, lr}
 233              		.cfi_def_cfa_offset 20
 234              		.cfi_offset 4, -20
 235              		.cfi_offset 5, -16
 236              		.cfi_offset 6, -12
 237              		.cfi_offset 7, -8
 238              		.cfi_offset 14, -4
 239 0002 9FB0     		sub	sp, sp, #124
 240              		.cfi_def_cfa_offset 144
 241 0004 04AF     		add	r7, sp, #16
 242              		.cfi_def_cfa 7, 128
 197:network.c     ****     if(outData.writeStatus == NO_WRITE && inData.readStatus == READ_OK)
 243              		.loc 1 197 0
 244 0006 314B     		ldr	r3, .L12
 245 0008 DB7C     		ldrb	r3, [r3, #19]
 246 000a 002B     		cmp	r3, #0
 247 000c 5AD1     		bne	.L9
 248              		.loc 1 197 0 is_stmt 0 discriminator 1
 249 000e 304B     		ldr	r3, .L12+4
 250 0010 9B7C     		ldrb	r3, [r3, #18]
 251 0012 012B     		cmp	r3, #1
 252 0014 56D1     		bne	.L9
 198:network.c     ****     { 
 199:network.c     ****         if (inData.IDpacket == outData.IDpacket)
 253              		.loc 1 199 0 is_stmt 1
ARM GAS  C:\Users\Petro\AppData\Local\Temp\ccQIv3Iu.s 			page 9


 254 0016 2E4B     		ldr	r3, .L12+4
 255 0018 1878     		ldrb	r0, [r3]
 256 001a 2C4B     		ldr	r3, .L12
 257 001c 1B78     		ldrb	r3, [r3]
 258 001e 9842     		cmp	r0, r3
 259 0020 0AD1     		bne	.L11
 200:network.c     ****         {
 201:network.c     ****             /*send previous packet*/
 202:network.c     ****             
 203:network.c     ****             UART_XB_UartPutString(previousData);
 260              		.loc 1 203 0
 261 0022 2C4B     		ldr	r3, .L12+8
 262 0024 181C     		mov	r0, r3
 263 0026 FFF7FEFF 		bl	UART_XB_UartPutString
 204:network.c     ****             outData.writeStatus = WRITE_OK;
 264              		.loc 1 204 0
 265 002a 284B     		ldr	r3, .L12
 266 002c 0122     		mov	r2, #1
 267 002e DA74     		strb	r2, [r3, #19]
 205:network.c     ****             inData.readStatus = NO_READ;
 268              		.loc 1 205 0
 269 0030 274B     		ldr	r3, .L12+4
 270 0032 0022     		mov	r2, #0
 271 0034 9A74     		strb	r2, [r3, #18]
 272 0036 45E0     		b	.L9
 273              	.L11:
 274              	.LBB3:
 206:network.c     ****         }
 207:network.c     ****         else
 208:network.c     ****         {
 209:network.c     ****             /*send nex packet*/
 210:network.c     ****             
 211:network.c     ****             char sendBuffer[DATA_BUFFER];
 212:network.c     ****             char sendData[DATA_BUFFER];
 213:network.c     ****             
 214:network.c     ****             /*pack data*/
 215:network.c     ****             sprintf(sendData,"%02X:%08X%08X%04X%02X%02X",
 216:network.c     ****                     0u,
 217:network.c     ****                     (uint32_t)((outData.unixStartTime & MASK_HIGH) >> DATA_SHIFT), 
 275              		.loc 1 217 0
 276 0038 244B     		ldr	r3, .L12
 277 003a DC68     		ldr	r4, [r3, #12]
 278 003c 9B68     		ldr	r3, [r3, #8]
 279 003e 2100     		lsr	r1, r4, #0
 280 0040 0023     		mov	r3, #0
 281 0042 1A1C     		mov	r2, r3
 215:network.c     ****                     0u,
 282              		.loc 1 215 0
 283 0044 0E1C     		mov	r6, r1
 218:network.c     ****                     (uint32_t)(outData.unixStartTime & MASK_LOW), 
 284              		.loc 1 218 0
 285 0046 214B     		ldr	r3, .L12
 286 0048 DC68     		ldr	r4, [r3, #12]
 287 004a 9B68     		ldr	r3, [r3, #8]
 215:network.c     ****                     0u,
 288              		.loc 1 215 0
 289 004c 1D1C     		mov	r5, r3
ARM GAS  C:\Users\Petro\AppData\Local\Temp\ccQIv3Iu.s 			page 10


 219:network.c     ****                     outData.startMsTime, 
 290              		.loc 1 219 0
 291 004e 1F4B     		ldr	r3, .L12
 292 0050 1B8A     		ldrh	r3, [r3, #16]
 215:network.c     ****                     0u,
 293              		.loc 1 215 0
 294 0052 1C1C     		mov	r4, r3
 220:network.c     ****                     outData.newSkier, 
 295              		.loc 1 220 0
 296 0054 1D4B     		ldr	r3, .L12
 297 0056 9B7C     		ldrb	r3, [r3, #18]
 215:network.c     ****                     0u,
 298              		.loc 1 215 0
 299 0058 181C     		mov	r0, r3
 221:network.c     ****                     outData.reboot);
 300              		.loc 1 221 0
 301 005a 1C4B     		ldr	r3, .L12
 302 005c 1B7D     		ldrb	r3, [r3, #20]
 215:network.c     ****                     0u,
 303              		.loc 1 215 0
 304 005e 191C     		mov	r1, r3
 305 0060 3423     		mov	r3, #52
 306 0062 FA18     		add	r2, r7, r3
 307 0064 1C4B     		ldr	r3, .L12+12
 308 0066 0095     		str	r5, [sp]
 309 0068 0194     		str	r4, [sp, #4]
 310 006a 0290     		str	r0, [sp, #8]
 311 006c 0391     		str	r1, [sp, #12]
 312 006e 101C     		mov	r0, r2
 313 0070 191C     		mov	r1, r3
 314 0072 0022     		mov	r2, #0
 315 0074 331C     		mov	r3, r6
 316 0076 FFF7FEFF 		bl	sprintf
 222:network.c     ****             
 223:network.c     ****             
 224:network.c     ****             PackData(sendBuffer, (uint8_t *)sendData, inData.IDpacket);
 317              		.loc 1 224 0
 318 007a 154B     		ldr	r3, .L12+4
 319 007c 1B78     		ldrb	r3, [r3]
 320 007e 9BB2     		uxth	r3, r3
 321 0080 391C     		mov	r1, r7
 322 0082 3422     		mov	r2, #52
 323 0084 BA18     		add	r2, r7, r2
 324 0086 081C     		mov	r0, r1
 325 0088 111C     		mov	r1, r2
 326 008a 1A1C     		mov	r2, r3
 327 008c FFF7FEFF 		bl	PackData
 225:network.c     ****             UART_XB_UartPutString(sendBuffer);            
 328              		.loc 1 225 0
 329 0090 3B1C     		mov	r3, r7
 330 0092 181C     		mov	r0, r3
 331 0094 FFF7FEFF 		bl	UART_XB_UartPutString
 226:network.c     **** 
 227:network.c     ****             outData.newSkier = !NEW_SKIER_IN_TARCK;
 332              		.loc 1 227 0
 333 0098 0C4B     		ldr	r3, .L12
 334 009a 0022     		mov	r2, #0
ARM GAS  C:\Users\Petro\AppData\Local\Temp\ccQIv3Iu.s 			page 11


 335 009c 9A74     		strb	r2, [r3, #18]
 228:network.c     ****                 
 229:network.c     ****             outData.writeStatus = WRITE_OK;
 336              		.loc 1 229 0
 337 009e 0B4B     		ldr	r3, .L12
 338 00a0 0122     		mov	r2, #1
 339 00a2 DA74     		strb	r2, [r3, #19]
 230:network.c     ****             outData.IDpacket = inData.IDpacket;
 340              		.loc 1 230 0
 341 00a4 0A4B     		ldr	r3, .L12+4
 342 00a6 1A78     		ldrb	r2, [r3]
 343 00a8 084B     		ldr	r3, .L12
 344 00aa 1A70     		strb	r2, [r3]
 231:network.c     ****             inData.readStatus = NO_READ;
 345              		.loc 1 231 0
 346 00ac 084B     		ldr	r3, .L12+4
 347 00ae 0022     		mov	r2, #0
 348 00b0 9A74     		strb	r2, [r3, #18]
 232:network.c     ****             strcpy(previousData, sendBuffer);
 349              		.loc 1 232 0
 350 00b2 084A     		ldr	r2, .L12+8
 351 00b4 3B1C     		mov	r3, r7
 352 00b6 101C     		mov	r0, r2
 353 00b8 191C     		mov	r1, r3
 354 00ba FFF7FEFF 		bl	strcpy
 233:network.c     ****             
 234:network.c     ****             CyDelay(50);
 355              		.loc 1 234 0
 356 00be 3220     		mov	r0, #50
 357 00c0 FFF7FEFF 		bl	CyDelay
 358              	.L9:
 359              	.LBE3:
 235:network.c     ****         }
 236:network.c     ****     }
 237:network.c     **** }
 360              		.loc 1 237 0
 361 00c4 BD46     		mov	sp, r7
 362 00c6 1BB0     		add	sp, sp, #108
 363              		@ sp needed
 364 00c8 F0BD     		pop	{r4, r5, r6, r7, pc}
 365              	.L13:
 366 00ca C046     		.align	2
 367              	.L12:
 368 00cc 00000000 		.word	outData
 369 00d0 00000000 		.word	inData
 370 00d4 00000000 		.word	previousData
 371 00d8 00000000 		.word	.LC13
 372              		.cfi_endproc
 373              	.LFE30:
 374              		.size	SendData, .-SendData
 375              		.section	.text.ReceiveData,"ax",%progbits
 376              		.align	2
 377              		.global	ReceiveData
 378              		.code	16
 379              		.thumb_func
 380              		.type	ReceiveData, %function
 381              	ReceiveData:
ARM GAS  C:\Users\Petro\AppData\Local\Temp\ccQIv3Iu.s 			page 12


 382              	.LFB31:
 238:network.c     **** 
 239:network.c     **** 
 240:network.c     **** /*******************************************************************************
 241:network.c     **** * Function Name: ReceiveData
 242:network.c     **** ********************************************************************************
 243:network.c     **** *
 244:network.c     **** * Summary:
 245:network.c     **** *   receive data from start in struct "inData"
 246:network.c     **** * Return:
 247:network.c     **** *   NETWORK_CONNECT or NETWORK_DISCONNECT
 248:network.c     **** *
 249:network.c     **** *******************************************************************************/
 250:network.c     ****     uint32_t ReceiveData(void)
 251:network.c     ****     {
 383              		.loc 1 251 0
 384              		.cfi_startproc
 385 0000 80B5     		push	{r7, lr}
 386              		.cfi_def_cfa_offset 8
 387              		.cfi_offset 7, -8
 388              		.cfi_offset 14, -4
 389 0002 8AB0     		sub	sp, sp, #40
 390              		.cfi_def_cfa_offset 48
 391 0004 00AF     		add	r7, sp, #0
 392              		.cfi_def_cfa_register 7
 252:network.c     ****     if(outData.writeStatus == WRITE_OK && inData.readStatus == NO_READ)
 393              		.loc 1 252 0
 394 0006 2D4B     		ldr	r3, .L22
 395 0008 DB7C     		ldrb	r3, [r3, #19]
 396 000a 012B     		cmp	r3, #1
 397 000c 51D1     		bne	.L15
 398              		.loc 1 252 0 is_stmt 0 discriminator 1
 399 000e 2C4B     		ldr	r3, .L22+4
 400 0010 9B7C     		ldrb	r3, [r3, #18]
 401 0012 002B     		cmp	r3, #0
 402 0014 4DD1     		bne	.L15
 403              	.LBB4:
 253:network.c     ****     {
 254:network.c     ****         uint32_t byte;
 255:network.c     ****         struct Resp recvData;
 256:network.c     ****           
 257:network.c     ****         while((UART_XB_SpiUartGetRxBufferSize() > 0) && ((byte=UART_XB_UartGetChar()) != 0))
 404              		.loc 1 257 0 is_stmt 1
 405 0016 35E0     		b	.L16
 406              	.L19:
 258:network.c     ****         { 
 259:network.c     ****             UnpackData(&recvData, (uint8_t)(byte & 0xFF));
 407              		.loc 1 259 0
 408 0018 7B6A     		ldr	r3, [r7, #36]
 409 001a DBB2     		uxtb	r3, r3
 410 001c 3A1C     		mov	r2, r7
 411 001e 101C     		mov	r0, r2
 412 0020 191C     		mov	r1, r3
 413 0022 FFF7FEFF 		bl	UnpackData
 260:network.c     ****             
 261:network.c     ****             CyDelay(2);
 414              		.loc 1 261 0
ARM GAS  C:\Users\Petro\AppData\Local\Temp\ccQIv3Iu.s 			page 13


 415 0026 0220     		mov	r0, #2
 416 0028 FFF7FEFF 		bl	CyDelay
 262:network.c     ****             
 263:network.c     ****             if(recvData.EndPacket == 1)
 417              		.loc 1 263 0
 418 002c 3B1C     		mov	r3, r7
 419 002e 1B7E     		ldrb	r3, [r3, #24]
 420 0030 012B     		cmp	r3, #1
 421 0032 27D1     		bne	.L16
 264:network.c     ****             {                      
 265:network.c     ****                 inData.IDpacket = recvData.Seq;
 422              		.loc 1 265 0
 423 0034 3B1C     		mov	r3, r7
 424 0036 1B88     		ldrh	r3, [r3]
 425 0038 DAB2     		uxtb	r2, r3
 426 003a 214B     		ldr	r3, .L22+4
 427 003c 1A70     		strb	r2, [r3]
 266:network.c     ****                 
 267:network.c     ****                 inData.readStatus = READ_OK;
 428              		.loc 1 267 0
 429 003e 204B     		ldr	r3, .L22+4
 430 0040 0122     		mov	r2, #1
 431 0042 9A74     		strb	r2, [r3, #18]
 268:network.c     ****                 outData.writeStatus = NO_WRITE;
 432              		.loc 1 268 0
 433 0044 1D4B     		ldr	r3, .L22
 434 0046 0022     		mov	r2, #0
 435 0048 DA74     		strb	r2, [r3, #19]
 269:network.c     ****                 
 270:network.c     ****                 /*connect network*/
 271:network.c     ****                 networkStatus = NETWORK_CONN;
 436              		.loc 1 271 0
 437 004a 1E4B     		ldr	r3, .L22+8
 438 004c 0122     		mov	r2, #1
 439 004e 1A60     		str	r2, [r3]
 272:network.c     ****                 noConnect = 0;
 440              		.loc 1 272 0
 441 0050 1D4B     		ldr	r3, .L22+12
 442 0052 0022     		mov	r2, #0
 443 0054 1A60     		str	r2, [r3]
 273:network.c     ****                 /*write data*/
 274:network.c     ****                 inData.countSkiers = (recvData.Data3 & 0x00FF) << 8;
 444              		.loc 1 274 0
 445 0056 3B1C     		mov	r3, r7
 446 0058 5B8A     		ldrh	r3, [r3, #18]
 447 005a 1B02     		lsl	r3, r3, #8
 448 005c DAB2     		uxtb	r2, r3
 449 005e 184B     		ldr	r3, .L22+4
 450 0060 DA70     		strb	r2, [r3, #3]
 275:network.c     ****                 //inData.unixStartTime = recvData.Data1;
 276:network.c     ****                 inData.ready = (recvData.Data2 & 0xFF00) >> 8;
 451              		.loc 1 276 0
 452 0062 3B1C     		mov	r3, r7
 453 0064 1B8A     		ldrh	r3, [r3, #16]
 454 0066 1B0A     		lsr	r3, r3, #8
 455 0068 9BB2     		uxth	r3, r3
 456 006a DAB2     		uxtb	r2, r3
ARM GAS  C:\Users\Petro\AppData\Local\Temp\ccQIv3Iu.s 			page 14


 457 006c 144B     		ldr	r3, .L22+4
 458 006e 5A70     		strb	r2, [r3, #1]
 277:network.c     ****                 inData.reboot = recvData.Data2 & 0x00FF;
 459              		.loc 1 277 0
 460 0070 3B1C     		mov	r3, r7
 461 0072 1B8A     		ldrh	r3, [r3, #16]
 462 0074 DAB2     		uxtb	r2, r3
 463 0076 124B     		ldr	r3, .L22+4
 464 0078 9A70     		strb	r2, [r3, #2]
 278:network.c     ****                 
 279:network.c     ****                 CyDelay(50);
 465              		.loc 1 279 0
 466 007a 3220     		mov	r0, #50
 467 007c FFF7FEFF 		bl	CyDelay
 280:network.c     **** 
 281:network.c     ****                 return  NETWORK_CONN;  
 468              		.loc 1 281 0
 469 0080 0123     		mov	r3, #1
 470 0082 17E0     		b	.L21
 471              	.L16:
 257:network.c     ****         { 
 472              		.loc 1 257 0
 473 0084 FFF7FEFF 		bl	UART_XB_SpiUartGetRxBufferSize
 474 0088 031E     		sub	r3, r0, #0
 475 008a 06D0     		beq	.L18
 257:network.c     ****         { 
 476              		.loc 1 257 0 is_stmt 0 discriminator 1
 477 008c FFF7FEFF 		bl	UART_XB_UartGetChar
 478 0090 031C     		mov	r3, r0
 479 0092 7B62     		str	r3, [r7, #36]
 480 0094 7B6A     		ldr	r3, [r7, #36]
 481 0096 002B     		cmp	r3, #0
 482 0098 BED1     		bne	.L19
 483              	.L18:
 282:network.c     ****             }
 283:network.c     ****         }
 284:network.c     ****         
 285:network.c     ****         /*tyme to respond*/
 286:network.c     ****         if(noConnect++ >= NETWORK_TIMEOUT)
 484              		.loc 1 286 0 is_stmt 1
 485 009a 0B4B     		ldr	r3, .L22+12
 486 009c 1B68     		ldr	r3, [r3]
 487 009e 591C     		add	r1, r3, #1
 488 00a0 094A     		ldr	r2, .L22+12
 489 00a2 1160     		str	r1, [r2]
 490 00a4 312B     		cmp	r3, #49
 491 00a6 02DD     		ble	.L20
 287:network.c     ****         {
 288:network.c     ****             networkStatus = NETWORK_DISCONN;
 492              		.loc 1 288 0
 493 00a8 064B     		ldr	r3, .L22+8
 494 00aa 0022     		mov	r2, #0
 495 00ac 1A60     		str	r2, [r3]
 496              	.L20:
 289:network.c     ****         }
 290:network.c     ****         return  NETWORK_DISCONN;
 497              		.loc 1 290 0
ARM GAS  C:\Users\Petro\AppData\Local\Temp\ccQIv3Iu.s 			page 15


 498 00ae 0023     		mov	r3, #0
 499 00b0 00E0     		b	.L21
 500              	.L15:
 501              	.LBE4:
 291:network.c     ****     }
 292:network.c     ****     return 0;
 502              		.loc 1 292 0
 503 00b2 0023     		mov	r3, #0
 504              	.L21:
 293:network.c     **** }
 505              		.loc 1 293 0 discriminator 1
 506 00b4 181C     		mov	r0, r3
 507 00b6 BD46     		mov	sp, r7
 508 00b8 0AB0     		add	sp, sp, #40
 509              		@ sp needed
 510 00ba 80BD     		pop	{r7, pc}
 511              	.L23:
 512              		.align	2
 513              	.L22:
 514 00bc 00000000 		.word	outData
 515 00c0 00000000 		.word	inData
 516 00c4 00000000 		.word	networkStatus
 517 00c8 04000000 		.word	noConnect
 518              		.cfi_endproc
 519              	.LFE31:
 520              		.size	ReceiveData, .-ReceiveData
 521              		.section	.text.NetworkStatus,"ax",%progbits
 522              		.align	2
 523              		.global	NetworkStatus
 524              		.code	16
 525              		.thumb_func
 526              		.type	NetworkStatus, %function
 527              	NetworkStatus:
 528              	.LFB32:
 294:network.c     **** 
 295:network.c     **** /*******************************************************************************
 296:network.c     **** * Function Name: NetworkStatus
 297:network.c     **** ********************************************************************************
 298:network.c     **** *
 299:network.c     **** * Summary:
 300:network.c     **** *   read network status
 301:network.c     **** * Return:
 302:network.c     **** *   NETWORK_CONNECT or NETWORK_DISCONNECT
 303:network.c     **** *
 304:network.c     **** *******************************************************************************/
 305:network.c     **** uint32_t NetworkStatus(void)
 306:network.c     **** {
 529              		.loc 1 306 0
 530              		.cfi_startproc
 531 0000 80B5     		push	{r7, lr}
 532              		.cfi_def_cfa_offset 8
 533              		.cfi_offset 7, -8
 534              		.cfi_offset 14, -4
 535 0002 00AF     		add	r7, sp, #0
 536              		.cfi_def_cfa_register 7
 307:network.c     ****     return networkStatus;
 537              		.loc 1 307 0
ARM GAS  C:\Users\Petro\AppData\Local\Temp\ccQIv3Iu.s 			page 16


 538 0004 024B     		ldr	r3, .L26
 539 0006 1B68     		ldr	r3, [r3]
 308:network.c     **** }
 540              		.loc 1 308 0
 541 0008 181C     		mov	r0, r3
 542 000a BD46     		mov	sp, r7
 543              		@ sp needed
 544 000c 80BD     		pop	{r7, pc}
 545              	.L27:
 546 000e C046     		.align	2
 547              	.L26:
 548 0010 00000000 		.word	networkStatus
 549              		.cfi_endproc
 550              	.LFE32:
 551              		.size	NetworkStatus, .-NetworkStatus
 552              		.section	.text.SendSkierStart,"ax",%progbits
 553              		.align	2
 554              		.global	SendSkierStart
 555              		.code	16
 556              		.thumb_func
 557              		.type	SendSkierStart, %function
 558              	SendSkierStart:
 559              	.LFB33:
 309:network.c     **** 
 310:network.c     **** 
 311:network.c     **** 
 312:network.c     **** void SendSkierStart(uint64_t unixTimeStart, uint32_t recentMs)
 313:network.c     **** {
 560              		.loc 1 313 0
 561              		.cfi_startproc
 562 0000 90B5     		push	{r4, r7, lr}
 563              		.cfi_def_cfa_offset 12
 564              		.cfi_offset 4, -12
 565              		.cfi_offset 7, -8
 566              		.cfi_offset 14, -4
 567 0002 85B0     		sub	sp, sp, #20
 568              		.cfi_def_cfa_offset 32
 569 0004 00AF     		add	r7, sp, #0
 570              		.cfi_def_cfa_register 7
 571 0006 B860     		str	r0, [r7, #8]
 572 0008 F960     		str	r1, [r7, #12]
 573 000a 7A60     		str	r2, [r7, #4]
 314:network.c     ****     outData.unixStartTime = unixTimeStart;
 574              		.loc 1 314 0
 575 000c 074A     		ldr	r2, .L29
 576 000e BB68     		ldr	r3, [r7, #8]
 577 0010 FC68     		ldr	r4, [r7, #12]
 578 0012 9360     		str	r3, [r2, #8]
 579 0014 D460     		str	r4, [r2, #12]
 315:network.c     ****     outData.startMsTime = recentMs;
 580              		.loc 1 315 0
 581 0016 7B68     		ldr	r3, [r7, #4]
 582 0018 9AB2     		uxth	r2, r3
 583 001a 044B     		ldr	r3, .L29
 584 001c 1A82     		strh	r2, [r3, #16]
 316:network.c     ****     outData.newSkier = NEW_SKIER_IN_TARCK;
 585              		.loc 1 316 0
ARM GAS  C:\Users\Petro\AppData\Local\Temp\ccQIv3Iu.s 			page 17


 586 001e 034B     		ldr	r3, .L29
 587 0020 0122     		mov	r2, #1
 588 0022 9A74     		strb	r2, [r3, #18]
 317:network.c     **** }
 589              		.loc 1 317 0
 590 0024 BD46     		mov	sp, r7
 591 0026 05B0     		add	sp, sp, #20
 592              		@ sp needed
 593 0028 90BD     		pop	{r4, r7, pc}
 594              	.L30:
 595 002a C046     		.align	2
 596              	.L29:
 597 002c 00000000 		.word	outData
 598              		.cfi_endproc
 599              	.LFE33:
 600              		.size	SendSkierStart, .-SendSkierStart
 601              		.section	.text.FinReady,"ax",%progbits
 602              		.align	2
 603              		.global	FinReady
 604              		.code	16
 605              		.thumb_func
 606              		.type	FinReady, %function
 607              	FinReady:
 608              	.LFB34:
 318:network.c     **** 
 319:network.c     **** 
 320:network.c     **** uint32_t FinReady(void)
 321:network.c     **** {
 609              		.loc 1 321 0
 610              		.cfi_startproc
 611 0000 80B5     		push	{r7, lr}
 612              		.cfi_def_cfa_offset 8
 613              		.cfi_offset 7, -8
 614              		.cfi_offset 14, -4
 615 0002 00AF     		add	r7, sp, #0
 616              		.cfi_def_cfa_register 7
 322:network.c     ****     return inData.ready;
 617              		.loc 1 322 0
 618 0004 024B     		ldr	r3, .L33
 619 0006 5B78     		ldrb	r3, [r3, #1]
 323:network.c     **** }
 620              		.loc 1 323 0
 621 0008 181C     		mov	r0, r3
 622 000a BD46     		mov	sp, r7
 623              		@ sp needed
 624 000c 80BD     		pop	{r7, pc}
 625              	.L34:
 626 000e C046     		.align	2
 627              	.L33:
 628 0010 00000000 		.word	inData
 629              		.cfi_endproc
 630              	.LFE34:
 631              		.size	FinReady, .-FinReady
 632              		.section	.text.FinWriteInDB,"ax",%progbits
 633              		.align	2
 634              		.global	FinWriteInDB
 635              		.code	16
ARM GAS  C:\Users\Petro\AppData\Local\Temp\ccQIv3Iu.s 			page 18


 636              		.thumb_func
 637              		.type	FinWriteInDB, %function
 638              	FinWriteInDB:
 639              	.LFB35:
 324:network.c     **** 
 325:network.c     **** 
 326:network.c     **** uint32_t FinWriteInDB(void)
 327:network.c     **** {
 640              		.loc 1 327 0
 641              		.cfi_startproc
 642 0000 80B5     		push	{r7, lr}
 643              		.cfi_def_cfa_offset 8
 644              		.cfi_offset 7, -8
 645              		.cfi_offset 14, -4
 646 0002 82B0     		sub	sp, sp, #8
 647              		.cfi_def_cfa_offset 16
 648 0004 00AF     		add	r7, sp, #0
 649              		.cfi_def_cfa_register 7
 328:network.c     ****     uint32_t result;
 329:network.c     ****     
 330:network.c     ****     if(outData.newSkier == NEW_SKIER_IN_TARCK)
 650              		.loc 1 330 0
 651 0006 074B     		ldr	r3, .L39
 652 0008 9B7C     		ldrb	r3, [r3, #18]
 653 000a 012B     		cmp	r3, #1
 654 000c 02D1     		bne	.L36
 331:network.c     ****     {
 332:network.c     ****         result = NO_WRITE;
 655              		.loc 1 332 0
 656 000e 0023     		mov	r3, #0
 657 0010 7B60     		str	r3, [r7, #4]
 658 0012 01E0     		b	.L37
 659              	.L36:
 333:network.c     ****     }
 334:network.c     ****     else
 335:network.c     ****     {
 336:network.c     ****         result = WRITE_OK;
 660              		.loc 1 336 0
 661 0014 0123     		mov	r3, #1
 662 0016 7B60     		str	r3, [r7, #4]
 663              	.L37:
 337:network.c     ****     }
 338:network.c     ****     
 339:network.c     ****     return result;
 664              		.loc 1 339 0
 665 0018 7B68     		ldr	r3, [r7, #4]
 340:network.c     **** }
 666              		.loc 1 340 0
 667 001a 181C     		mov	r0, r3
 668 001c BD46     		mov	sp, r7
 669 001e 02B0     		add	sp, sp, #8
 670              		@ sp needed
 671 0020 80BD     		pop	{r7, pc}
 672              	.L40:
 673 0022 C046     		.align	2
 674              	.L39:
 675 0024 00000000 		.word	outData
ARM GAS  C:\Users\Petro\AppData\Local\Temp\ccQIv3Iu.s 			page 19


 676              		.cfi_endproc
 677              	.LFE35:
 678              		.size	FinWriteInDB, .-FinWriteInDB
 679              		.section	.text.IsRebootFinishFlag,"ax",%progbits
 680              		.align	2
 681              		.global	IsRebootFinishFlag
 682              		.code	16
 683              		.thumb_func
 684              		.type	IsRebootFinishFlag, %function
 685              	IsRebootFinishFlag:
 686              	.LFB36:
 341:network.c     **** 
 342:network.c     **** uint32_t IsRebootFinishFlag(void)
 343:network.c     **** {
 687              		.loc 1 343 0
 688              		.cfi_startproc
 689 0000 80B5     		push	{r7, lr}
 690              		.cfi_def_cfa_offset 8
 691              		.cfi_offset 7, -8
 692              		.cfi_offset 14, -4
 693 0002 82B0     		sub	sp, sp, #8
 694              		.cfi_def_cfa_offset 16
 695 0004 00AF     		add	r7, sp, #0
 696              		.cfi_def_cfa_register 7
 344:network.c     ****     uint32_t result;
 345:network.c     ****     
 346:network.c     ****     if(inData.reboot == 1 && outData.reboot == 0)
 697              		.loc 1 346 0
 698 0006 0D4B     		ldr	r3, .L45
 699 0008 9B78     		ldrb	r3, [r3, #2]
 700 000a 012B     		cmp	r3, #1
 701 000c 09D1     		bne	.L42
 702              		.loc 1 346 0 is_stmt 0 discriminator 1
 703 000e 0C4B     		ldr	r3, .L45+4
 704 0010 1B7D     		ldrb	r3, [r3, #20]
 705 0012 002B     		cmp	r3, #0
 706 0014 05D1     		bne	.L42
 347:network.c     ****     {
 348:network.c     ****         result = REBOOT;
 707              		.loc 1 348 0 is_stmt 1
 708 0016 FF23     		mov	r3, #255
 709 0018 7B60     		str	r3, [r7, #4]
 349:network.c     ****         inData.reboot = 0;
 710              		.loc 1 349 0
 711 001a 084B     		ldr	r3, .L45
 712 001c 0022     		mov	r2, #0
 713 001e 9A70     		strb	r2, [r3, #2]
 714 0020 07E0     		b	.L43
 715              	.L42:
 350:network.c     ****     }
 351:network.c     ****     else
 352:network.c     ****     {
 353:network.c     ****         outData.reboot = 0;
 716              		.loc 1 353 0
 717 0022 074B     		ldr	r3, .L45+4
 718 0024 0022     		mov	r2, #0
 719 0026 1A75     		strb	r2, [r3, #20]
ARM GAS  C:\Users\Petro\AppData\Local\Temp\ccQIv3Iu.s 			page 20


 354:network.c     ****         inData.reboot = 0;
 720              		.loc 1 354 0
 721 0028 044B     		ldr	r3, .L45
 722 002a 0022     		mov	r2, #0
 723 002c 9A70     		strb	r2, [r3, #2]
 355:network.c     ****         result = NO_REBOOT;
 724              		.loc 1 355 0
 725 002e FE23     		mov	r3, #254
 726 0030 7B60     		str	r3, [r7, #4]
 727              	.L43:
 356:network.c     ****     }
 357:network.c     ****     return result;
 728              		.loc 1 357 0
 729 0032 7B68     		ldr	r3, [r7, #4]
 358:network.c     **** }
 730              		.loc 1 358 0
 731 0034 181C     		mov	r0, r3
 732 0036 BD46     		mov	sp, r7
 733 0038 02B0     		add	sp, sp, #8
 734              		@ sp needed
 735 003a 80BD     		pop	{r7, pc}
 736              	.L46:
 737              		.align	2
 738              	.L45:
 739 003c 00000000 		.word	inData
 740 0040 00000000 		.word	outData
 741              		.cfi_endproc
 742              	.LFE36:
 743              		.size	IsRebootFinishFlag, .-IsRebootFinishFlag
 744              		.section	.text.SetRebootFlag,"ax",%progbits
 745              		.align	2
 746              		.global	SetRebootFlag
 747              		.code	16
 748              		.thumb_func
 749              		.type	SetRebootFlag, %function
 750              	SetRebootFlag:
 751              	.LFB37:
 359:network.c     **** 
 360:network.c     **** void SetRebootFlag(void)
 361:network.c     **** {
 752              		.loc 1 361 0
 753              		.cfi_startproc
 754 0000 80B5     		push	{r7, lr}
 755              		.cfi_def_cfa_offset 8
 756              		.cfi_offset 7, -8
 757              		.cfi_offset 14, -4
 758 0002 00AF     		add	r7, sp, #0
 759              		.cfi_def_cfa_register 7
 362:network.c     ****     outData.reboot = 1;
 760              		.loc 1 362 0
 761 0004 024B     		ldr	r3, .L48
 762 0006 0122     		mov	r2, #1
 763 0008 1A75     		strb	r2, [r3, #20]
 363:network.c     **** }
 764              		.loc 1 363 0
 765 000a BD46     		mov	sp, r7
 766              		@ sp needed
ARM GAS  C:\Users\Petro\AppData\Local\Temp\ccQIv3Iu.s 			page 21


 767 000c 80BD     		pop	{r7, pc}
 768              	.L49:
 769 000e C046     		.align	2
 770              	.L48:
 771 0010 00000000 		.word	outData
 772              		.cfi_endproc
 773              	.LFE37:
 774              		.size	SetRebootFlag, .-SetRebootFlag
 775              		.section	.text.ClearRebootFlag,"ax",%progbits
 776              		.align	2
 777              		.global	ClearRebootFlag
 778              		.code	16
 779              		.thumb_func
 780              		.type	ClearRebootFlag, %function
 781              	ClearRebootFlag:
 782              	.LFB38:
 364:network.c     **** 
 365:network.c     **** void ClearRebootFlag(void)
 366:network.c     **** {
 783              		.loc 1 366 0
 784              		.cfi_startproc
 785 0000 80B5     		push	{r7, lr}
 786              		.cfi_def_cfa_offset 8
 787              		.cfi_offset 7, -8
 788              		.cfi_offset 14, -4
 789 0002 00AF     		add	r7, sp, #0
 790              		.cfi_def_cfa_register 7
 367:network.c     ****     inData.reboot = 0;
 791              		.loc 1 367 0
 792 0004 034B     		ldr	r3, .L51
 793 0006 0022     		mov	r2, #0
 794 0008 9A70     		strb	r2, [r3, #2]
 368:network.c     ****     outData.reboot = 0;
 795              		.loc 1 368 0
 796 000a 034B     		ldr	r3, .L51+4
 797 000c 0022     		mov	r2, #0
 798 000e 1A75     		strb	r2, [r3, #20]
 369:network.c     **** }
 799              		.loc 1 369 0
 800 0010 BD46     		mov	sp, r7
 801              		@ sp needed
 802 0012 80BD     		pop	{r7, pc}
 803              	.L52:
 804              		.align	2
 805              	.L51:
 806 0014 00000000 		.word	inData
 807 0018 00000000 		.word	outData
 808              		.cfi_endproc
 809              	.LFE38:
 810              		.size	ClearRebootFlag, .-ClearRebootFlag
 811              		.section	.text.NTPsync,"ax",%progbits
 812              		.align	2
 813              		.global	NTPsync
 814              		.code	16
 815              		.thumb_func
 816              		.type	NTPsync, %function
 817              	NTPsync:
ARM GAS  C:\Users\Petro\AppData\Local\Temp\ccQIv3Iu.s 			page 22


 818              	.LFB39:
 370:network.c     **** 
 371:network.c     **** 
 372:network.c     **** /*******************************************************************************
 373:network.c     **** * Function Name: NTPsync
 374:network.c     **** ********************************************************************************
 375:network.c     **** *
 376:network.c     **** * Summary:
 377:network.c     **** *   NTP time synchronization protocol on
 378:network.c     ****     1) –≤—ñ–¥–±—É–≤–∞—î—Ç—Å—å—è –≤–∏–º—ñ—Ä—é–≤–∞–Ω–Ω—è —á–∞—Å—É –ø—Ä–∏–π–Ω—è—Ç—Ç—è  —Ç–∞ –ø–µ—Ä–µ–¥
 379:network.c     ****     2) –≤–∏–∑–Ω–∞—á–µ–Ω–Ω—è —á–∞—Å—É –ø–µ—Ä–µ–¥–∞—á—ñ –ø–∞–∫–µ—Ç—É –∑–∞ –¥–æ–ø–æ–º–æ–≥–æ—é __ –ø–∞–
 380:network.c     ****     3) –≤—Å—Ç–∞–Ω–æ–≤–ª–µ–Ω–Ω—è —á–∞—Å—É –∑ –≤—Ä–∞—Ö—É–≤–∞–Ω–Ω—è–º —á–∞—Å—É –ø–µ—Ä–µ–¥–∞—á—ñ
 381:network.c     **** * Return:
 382:network.c     **** *   TIME_SYNC_OK or TIME_SYNC_ERR
 383:network.c     **** *
 384:network.c     **** *******************************************************************************/
 385:network.c     **** uint32_t NTPsync(void)
 386:network.c     **** {
 819              		.loc 1 386 0
 820              		.cfi_startproc
 821 0000 F0B5     		push	{r4, r5, r6, r7, lr}
 822              		.cfi_def_cfa_offset 20
 823              		.cfi_offset 4, -20
 824              		.cfi_offset 5, -16
 825              		.cfi_offset 6, -12
 826              		.cfi_offset 7, -8
 827              		.cfi_offset 14, -4
 828 0002 87B0     		sub	sp, sp, #28
 829              		.cfi_def_cfa_offset 48
 830 0004 02AF     		add	r7, sp, #8
 831              		.cfi_def_cfa 7, 40
 387:network.c     ****     uint16_t result;    
 388:network.c     ****     
 389:network.c     ****     result = TIME_SYNC_ERR; 
 832              		.loc 1 389 0
 833 0006 0E23     		mov	r3, #14
 834 0008 FB18     		add	r3, r7, r3
 835 000a 0122     		mov	r2, #1
 836 000c 1A80     		strh	r2, [r3]
 390:network.c     ****     ntpFlagEndReceivePacket = 0;
 837              		.loc 1 390 0
 838 000e 8F4B     		ldr	r3, .L67
 839 0010 0022     		mov	r2, #0
 840 0012 1A70     		strb	r2, [r3]
 391:network.c     ****     ntpFlagReadyForReceive = 1;
 841              		.loc 1 391 0
 842 0014 8E4B     		ldr	r3, .L67+4
 843 0016 0122     		mov	r2, #1
 844 0018 1A70     		strb	r2, [r3]
 392:network.c     ****     uint16_t delayReceivePacket;
 393:network.c     ****     uint32_t oldUnixTime;
 394:network.c     ****     
 395:network.c     ****     delayReceivePacket = 4*NTP_DELAY_RECEIVED_PACKET;
 845              		.loc 1 395 0
 846 001a 0C23     		mov	r3, #12
 847 001c FB18     		add	r3, r7, r3
 848 001e FA22     		mov	r2, #250
ARM GAS  C:\Users\Petro\AppData\Local\Temp\ccQIv3Iu.s 			page 23


 849 0020 D200     		lsl	r2, r2, #3
 850 0022 1A80     		strh	r2, [r3]
 396:network.c     ****     oldUnixTime = RTCGetUnixTime();
 851              		.loc 1 396 0
 852 0024 FFF7FEFF 		bl	RTCGetUnixTime
 853 0028 021C     		mov	r2, r0
 854 002a 0B1C     		mov	r3, r1
 855 002c 131C     		mov	r3, r2
 856 002e BB60     		str	r3, [r7, #8]
 397:network.c     ****     delayReceivePacket += RTCgetRecentMs();
 857              		.loc 1 397 0
 858 0030 FFF7FEFF 		bl	RTCgetRecentMs
 859 0034 031C     		mov	r3, r0
 860 0036 99B2     		uxth	r1, r3
 861 0038 0C23     		mov	r3, #12
 862 003a FB18     		add	r3, r7, r3
 863 003c 0C22     		mov	r2, #12
 864 003e BA18     		add	r2, r7, r2
 865 0040 1288     		ldrh	r2, [r2]
 866 0042 8A18     		add	r2, r1, r2
 867 0044 1A80     		strh	r2, [r3]
 398:network.c     ****     onNtpSync = 1;
 868              		.loc 1 398 0
 869 0046 834B     		ldr	r3, .L67+8
 870 0048 0122     		mov	r2, #1
 871 004a 1A70     		strb	r2, [r3]
 399:network.c     ****     
 400:network.c     ****     UART_XB_SpiUartClearRxBuffer();
 872              		.loc 1 400 0
 873 004c FFF7FEFF 		bl	UART_XB_SpiUartClearRxBuffer
 401:network.c     ****     
 402:network.c     ****     while((RTCgetRecentMs() < delayReceivePacket) )//&& (result != TIME_SYNC_OK))
 874              		.loc 1 402 0
 875 0050 E9E0     		b	.L54
 876              	.L64:
 403:network.c     ****     {
 404:network.c     ****         if(ntpFlagEndReceivePacket)
 877              		.loc 1 404 0
 878 0052 7E4B     		ldr	r3, .L67
 879 0054 1B78     		ldrb	r3, [r3]
 880 0056 002B     		cmp	r3, #0
 881 0058 00D1     		bne	.LCB718
 882 005a C4E0     		b	.L55	@long jump
 883              	.LCB718:
 405:network.c     ****         {
 406:network.c     ****             #ifdef DEBUGNTP
 407:network.c     ****                 pinDebugNtp_Write(1);
 408:network.c     ****                 pinDebugNtp_Write(0);
 409:network.c     ****             #endif
 410:network.c     ****             
 411:network.c     ****             if(recvDataNTP.Id == 1 )//&& (currentStage == ROUGH_SET_TIME)) /*set real unix time*/
 884              		.loc 1 411 0
 885 005c 7E4B     		ldr	r3, .L67+12
 886 005e 1B88     		ldrh	r3, [r3]
 887 0060 012B     		cmp	r3, #1
 888 0062 21D1     		bne	.L56
 412:network.c     ****             {
ARM GAS  C:\Users\Petro\AppData\Local\Temp\ccQIv3Iu.s 			page 24


 413:network.c     ****                 ntpFlagEndReceivePacket = 0;
 889              		.loc 1 413 0
 890 0064 794B     		ldr	r3, .L67
 891 0066 0022     		mov	r2, #0
 892 0068 1A70     		strb	r2, [r3]
 414:network.c     ****                 
 415:network.c     ****                 RTCSync(unixTime[T1], millisTime[T1]);
 893              		.loc 1 415 0
 894 006a 7C4B     		ldr	r3, .L67+16
 895 006c 1A68     		ldr	r2, [r3]
 896 006e 7C4B     		ldr	r3, .L67+20
 897 0070 1B88     		ldrh	r3, [r3]
 898 0072 101C     		mov	r0, r2
 899 0074 191C     		mov	r1, r3
 900 0076 FFF7FEFF 		bl	RTCSync
 416:network.c     ****                 oldUnixTime = unixTime[T1];
 901              		.loc 1 416 0
 902 007a 784B     		ldr	r3, .L67+16
 903 007c 1B68     		ldr	r3, [r3]
 904 007e BB60     		str	r3, [r7, #8]
 417:network.c     ****                 delayReceivePacket = NTP_DELAY_RECEIVED_PACKET+millisTime[T1];
 905              		.loc 1 417 0
 906 0080 774B     		ldr	r3, .L67+20
 907 0082 1A88     		ldrh	r2, [r3]
 908 0084 0C23     		mov	r3, #12
 909 0086 FB18     		add	r3, r7, r3
 910 0088 F532     		add	r2, r2, #245
 911 008a FF32     		add	r2, r2, #255
 912 008c 1A80     		strh	r2, [r3]
 418:network.c     ****                 
 419:network.c     ****                 /*send response*/
 420:network.c     ****                 NTPsendTime(0,0,0,0,recvDataNTP.Id);
 913              		.loc 1 420 0
 914 008e 724B     		ldr	r3, .L67+12
 915 0090 1B88     		ldrh	r3, [r3]
 916 0092 0093     		str	r3, [sp]
 917 0094 0020     		mov	r0, #0
 918 0096 0021     		mov	r1, #0
 919 0098 0022     		mov	r2, #0
 920 009a 0023     		mov	r3, #0
 921 009c FFF7FEFF 		bl	NTPsendTime
 421:network.c     ****                 
 422:network.c     ****                 
 423:network.c     ****                 #ifdef DEBUG_INFO
 424:network.c     **** //                sprintf(uartBuff, "set unix=%d,ms=%d   ",unixTime[T1], millisTime[T1]);
 425:network.c     **** //                SW_uartDebug_PutString(uartBuff);
 426:network.c     **** //                SW_uartDebug_PutString("receive id=1\n\r");
 427:network.c     ****                 #endif
 428:network.c     ****                 ntpFlagReadyForReceive = 1;
 922              		.loc 1 428 0
 923 00a0 6B4B     		ldr	r3, .L67+4
 924 00a2 0122     		mov	r2, #1
 925 00a4 1A70     		strb	r2, [r3]
 926 00a6 88E0     		b	.L57
 927              	.L56:
 429:network.c     ****             }
 430:network.c     ****             else if(recvDataNTP.Id == 0) /*set difference time*/
ARM GAS  C:\Users\Petro\AppData\Local\Temp\ccQIv3Iu.s 			page 25


 928              		.loc 1 430 0
 929 00a8 6B4B     		ldr	r3, .L67+12
 930 00aa 1B88     		ldrh	r3, [r3]
 931 00ac 002B     		cmp	r3, #0
 932 00ae 54D1     		bne	.L58
 933              	.LBB5:
 431:network.c     ****             {
 432:network.c     ****                 ntpFlagEndReceivePacket = 0;
 934              		.loc 1 432 0
 935 00b0 664B     		ldr	r3, .L67
 936 00b2 0022     		mov	r2, #0
 937 00b4 1A70     		strb	r2, [r3]
 433:network.c     ****                 
 434:network.c     ****                 uint32_t unixTimeReal;
 435:network.c     ****                 uint16_t millisTimeReal;
 436:network.c     ****                 
 437:network.c     ****                 if(result == TIME_SYNC_ERR)
 938              		.loc 1 437 0
 939 00b6 0E23     		mov	r3, #14
 940 00b8 FB18     		add	r3, r7, r3
 941 00ba 1B88     		ldrh	r3, [r3]
 942 00bc 012B     		cmp	r3, #1
 943 00be 2CD1     		bne	.L59
 438:network.c     ****                 {
 439:network.c     ****                     unixTimeReal = RTC_GetUnixTime();
 944              		.loc 1 439 0
 945 00c0 FFF7FEFF 		bl	RTC_GetUnixTime
 946 00c4 021C     		mov	r2, r0
 947 00c6 0B1C     		mov	r3, r1
 948 00c8 131C     		mov	r3, r2
 949 00ca 7B60     		str	r3, [r7, #4]
 440:network.c     ****                     millisTimeReal = RTCgetRecentMs();
 950              		.loc 1 440 0
 951 00cc FFF7FEFF 		bl	RTCgetRecentMs
 952 00d0 021C     		mov	r2, r0
 953 00d2 BB1C     		add	r3, r7, #2
 954 00d4 1A80     		strh	r2, [r3]
 441:network.c     ****                     
 442:network.c     ****                     /*add difference time*/
 443:network.c     ****                     unixTimeReal += unixTime[T1];
 955              		.loc 1 443 0
 956 00d6 614B     		ldr	r3, .L67+16
 957 00d8 1B68     		ldr	r3, [r3]
 958 00da 7A68     		ldr	r2, [r7, #4]
 959 00dc D318     		add	r3, r2, r3
 960 00de 7B60     		str	r3, [r7, #4]
 444:network.c     ****                     millisTimeReal += millisTime[T1];
 961              		.loc 1 444 0
 962 00e0 5F4B     		ldr	r3, .L67+20
 963 00e2 1988     		ldrh	r1, [r3]
 964 00e4 BB1C     		add	r3, r7, #2
 965 00e6 BA1C     		add	r2, r7, #2
 966 00e8 1288     		ldrh	r2, [r2]
 967 00ea 8A18     		add	r2, r1, r2
 968 00ec 1A80     		strh	r2, [r3]
 445:network.c     ****                     if(millisTimeReal  >= 1000)
 969              		.loc 1 445 0
ARM GAS  C:\Users\Petro\AppData\Local\Temp\ccQIv3Iu.s 			page 26


 970 00ee BB1C     		add	r3, r7, #2
 971 00f0 1B88     		ldrh	r3, [r3]
 972 00f2 5C4A     		ldr	r2, .L67+24
 973 00f4 9342     		cmp	r3, r2
 974 00f6 09D9     		bls	.L60
 446:network.c     ****                     {
 447:network.c     ****                         unixTimeReal++;
 975              		.loc 1 447 0
 976 00f8 7B68     		ldr	r3, [r7, #4]
 977 00fa 0133     		add	r3, r3, #1
 978 00fc 7B60     		str	r3, [r7, #4]
 448:network.c     ****                         millisTimeReal -= 1000;
 979              		.loc 1 448 0
 980 00fe BB1C     		add	r3, r7, #2
 981 0100 BA1C     		add	r2, r7, #2
 982 0102 1288     		ldrh	r2, [r2]
 983 0104 5849     		ldr	r1, .L67+28
 984 0106 8C46     		mov	ip, r1
 985 0108 6244     		add	r2, r2, ip
 986 010a 1A80     		strh	r2, [r3]
 987              	.L60:
 449:network.c     ****                     }
 450:network.c     ****                     RTCSync(unixTimeReal, millisTimeReal);
 988              		.loc 1 450 0
 989 010c 7A68     		ldr	r2, [r7, #4]
 990 010e BB1C     		add	r3, r7, #2
 991 0110 1B88     		ldrh	r3, [r3]
 992 0112 101C     		mov	r0, r2
 993 0114 191C     		mov	r1, r3
 994 0116 FFF7FEFF 		bl	RTCSync
 995              	.L59:
 451:network.c     ****                 }
 452:network.c     ****                 oldUnixTime = RTCGetUnixTime();;
 996              		.loc 1 452 0
 997 011a FFF7FEFF 		bl	RTCGetUnixTime
 998 011e 021C     		mov	r2, r0
 999 0120 0B1C     		mov	r3, r1
 1000 0122 131C     		mov	r3, r2
 1001 0124 BB60     		str	r3, [r7, #8]
 453:network.c     ****                 delayReceivePacket = NTP_DELAY_RECEIVED_PACKET+RTCgetRecentMs();;
 1002              		.loc 1 453 0
 1003 0126 FFF7FEFF 		bl	RTCgetRecentMs
 1004 012a 031C     		mov	r3, r0
 1005 012c 9AB2     		uxth	r2, r3
 1006 012e 0C23     		mov	r3, #12
 1007 0130 FB18     		add	r3, r7, r3
 1008 0132 F532     		add	r2, r2, #245
 1009 0134 FF32     		add	r2, r2, #255
 1010 0136 1A80     		strh	r2, [r3]
 454:network.c     ****                 /*send response*/
 455:network.c     ****                 NTPsendTime(0,0,0,0,recvDataNTP.Id);
 1011              		.loc 1 455 0
 1012 0138 474B     		ldr	r3, .L67+12
 1013 013a 1B88     		ldrh	r3, [r3]
 1014 013c 0093     		str	r3, [sp]
 1015 013e 0020     		mov	r0, #0
 1016 0140 0021     		mov	r1, #0
ARM GAS  C:\Users\Petro\AppData\Local\Temp\ccQIv3Iu.s 			page 27


 1017 0142 0022     		mov	r2, #0
 1018 0144 0023     		mov	r3, #0
 1019 0146 FFF7FEFF 		bl	NTPsendTime
 456:network.c     ****                 result = TIME_SYNC_OK;
 1020              		.loc 1 456 0
 1021 014a 0E23     		mov	r3, #14
 1022 014c FB18     		add	r3, r7, r3
 1023 014e 0022     		mov	r2, #0
 1024 0150 1A80     		strh	r2, [r3]
 457:network.c     ****                                 
 458:network.c     ****                 #ifdef DEBUG_INFO    
 459:network.c     **** //                SW_uartDebug_PutString("receive id=0\n\r");
 460:network.c     ****                 #endif
 461:network.c     ****                 
 462:network.c     ****                 ntpFlagReadyForReceive = 1;
 1025              		.loc 1 462 0
 1026 0152 3F4B     		ldr	r3, .L67+4
 1027 0154 0122     		mov	r2, #1
 1028 0156 1A70     		strb	r2, [r3]
 1029              	.LBE5:
 1030 0158 2FE0     		b	.L57
 1031              	.L58:
 463:network.c     ****             }
 464:network.c     ****             else    /*packet for determite the difference time */
 465:network.c     ****             {
 466:network.c     ****                 ntpFlagEndReceivePacket = 0;
 1032              		.loc 1 466 0
 1033 015a 3C4B     		ldr	r3, .L67
 1034 015c 0022     		mov	r2, #0
 1035 015e 1A70     		strb	r2, [r3]
 467:network.c     ****                 
 468:network.c     ****                 CyDelay(100);
 1036              		.loc 1 468 0
 1037 0160 6420     		mov	r0, #100
 1038 0162 FFF7FEFF 		bl	CyDelay
 469:network.c     ****                 
 470:network.c     ****                 /*read real time*/
 471:network.c     ****                 millisTime[T3] = RTCgetRecentMs();
 1039              		.loc 1 471 0
 1040 0166 FFF7FEFF 		bl	RTCgetRecentMs
 1041 016a 031C     		mov	r3, r0
 1042 016c 9AB2     		uxth	r2, r3
 1043 016e 3C4B     		ldr	r3, .L67+20
 1044 0170 9A80     		strh	r2, [r3, #4]
 472:network.c     ****                 unixTime[T3] = RTC_GetUnixTime();
 1045              		.loc 1 472 0
 1046 0172 FFF7FEFF 		bl	RTC_GetUnixTime
 1047 0176 021C     		mov	r2, r0
 1048 0178 0B1C     		mov	r3, r1
 1049 017a 384B     		ldr	r3, .L67+16
 1050 017c 9A60     		str	r2, [r3, #8]
 473:network.c     **** 
 474:network.c     ****                 #ifdef DEBUGNTP
 475:network.c     ****                     pinDebugNtp_Write(1);
 476:network.c     ****                     pinDebugNtp_Write(0);
 477:network.c     ****                     pinDebugNtp_Write(1);
 478:network.c     ****                     pinDebugNtp_Write(0);
ARM GAS  C:\Users\Petro\AppData\Local\Temp\ccQIv3Iu.s 			page 28


 479:network.c     ****                 #endif
 480:network.c     ****                 
 481:network.c     ****                 if((unixTime[T2] == unixTime[T3]) || ((unixTime[T2] == (unixTime[T3])-1)))
 1051              		.loc 1 481 0
 1052 017e 374B     		ldr	r3, .L67+16
 1053 0180 5A68     		ldr	r2, [r3, #4]
 1054 0182 364B     		ldr	r3, .L67+16
 1055 0184 9B68     		ldr	r3, [r3, #8]
 1056 0186 9A42     		cmp	r2, r3
 1057 0188 06D0     		beq	.L61
 1058              		.loc 1 481 0 is_stmt 0 discriminator 1
 1059 018a 344B     		ldr	r3, .L67+16
 1060 018c 5A68     		ldr	r2, [r3, #4]
 1061 018e 334B     		ldr	r3, .L67+16
 1062 0190 9B68     		ldr	r3, [r3, #8]
 1063 0192 013B     		sub	r3, r3, #1
 1064 0194 9A42     		cmp	r2, r3
 1065 0196 0DD1     		bne	.L62
 1066              	.L61:
 482:network.c     ****                 {
 483:network.c     ****                     NTPsendTime(unixTime[T2], unixTime[T3], millisTime[T2], millisTime[T3], recvDat
 1067              		.loc 1 483 0 is_stmt 1
 1068 0198 304B     		ldr	r3, .L67+16
 1069 019a 5868     		ldr	r0, [r3, #4]
 1070 019c 2F4B     		ldr	r3, .L67+16
 1071 019e 9968     		ldr	r1, [r3, #8]
 1072 01a0 2F4B     		ldr	r3, .L67+20
 1073 01a2 5A88     		ldrh	r2, [r3, #2]
 1074 01a4 2E4B     		ldr	r3, .L67+20
 1075 01a6 9E88     		ldrh	r6, [r3, #4]
 1076 01a8 2B4B     		ldr	r3, .L67+12
 1077 01aa 1B88     		ldrh	r3, [r3]
 1078 01ac 0093     		str	r3, [sp]
 1079 01ae 331C     		mov	r3, r6
 1080 01b0 FFF7FEFF 		bl	NTPsendTime
 1081              	.L62:
 484:network.c     ****                 }
 485:network.c     ****                 
 486:network.c     ****                 #ifdef DEBUG_INFO
 487:network.c     **** //                sprintf(uartBuff,"uT2=%d,uT3=%d, mT2=%d,mT3=%d   ",unixTime[T2], unixTime[T3], mi
 488:network.c     **** //                SW_uartDebug_PutString(uartBuff);
 489:network.c     **** //                sprintf(uartBuff,"receive id>1 id=%d\n\r",recvDataNTP.Id);
 490:network.c     **** //                SW_uartDebug_PutString(uartBuff);
 491:network.c     ****                 #endif
 492:network.c     ****                 
 493:network.c     ****                 ntpFlagReadyForReceive = 1;
 1082              		.loc 1 493 0
 1083 01b4 264B     		ldr	r3, .L67+4
 1084 01b6 0122     		mov	r2, #1
 1085 01b8 1A70     		strb	r2, [r3]
 1086              	.L57:
 494:network.c     ****             }
 495:network.c     ****             delayReceivePacket = NTP_DELAY_RECEIVED_PACKET;
 1087              		.loc 1 495 0
 1088 01ba 0C23     		mov	r3, #12
 1089 01bc FB18     		add	r3, r7, r3
 1090 01be FA22     		mov	r2, #250
ARM GAS  C:\Users\Petro\AppData\Local\Temp\ccQIv3Iu.s 			page 29


 1091 01c0 5200     		lsl	r2, r2, #1
 1092 01c2 1A80     		strh	r2, [r3]
 496:network.c     ****             oldUnixTime = RTCGetUnixTime();
 1093              		.loc 1 496 0
 1094 01c4 FFF7FEFF 		bl	RTCGetUnixTime
 1095 01c8 021C     		mov	r2, r0
 1096 01ca 0B1C     		mov	r3, r1
 1097 01cc 131C     		mov	r3, r2
 1098 01ce BB60     		str	r3, [r7, #8]
 497:network.c     ****             delayReceivePacket += RTCgetRecentMs();
 1099              		.loc 1 497 0
 1100 01d0 FFF7FEFF 		bl	RTCgetRecentMs
 1101 01d4 031C     		mov	r3, r0
 1102 01d6 99B2     		uxth	r1, r3
 1103 01d8 0C23     		mov	r3, #12
 1104 01da FB18     		add	r3, r7, r3
 1105 01dc 0C22     		mov	r2, #12
 1106 01de BA18     		add	r2, r7, r2
 1107 01e0 1288     		ldrh	r2, [r2]
 1108 01e2 8A18     		add	r2, r1, r2
 1109 01e4 1A80     		strh	r2, [r3]
 1110              	.L55:
 498:network.c     ****         }
 499:network.c     ****         
 500:network.c     ****         if((oldUnixTime < RTCGetUnixTime()) && (delayReceivePacket >= 1000))
 1111              		.loc 1 500 0
 1112 01e6 BB68     		ldr	r3, [r7, #8]
 1113 01e8 1C1C     		mov	r4, r3
 1114 01ea 0023     		mov	r3, #0
 1115 01ec 1D1C     		mov	r5, r3
 1116 01ee FFF7FEFF 		bl	RTCGetUnixTime
 1117 01f2 021C     		mov	r2, r0
 1118 01f4 0B1C     		mov	r3, r1
 1119 01f6 AB42     		cmp	r3, r5
 1120 01f8 03D8     		bhi	.L66
 1121 01fa 14D1     		bne	.L54
 1122 01fc A242     		cmp	r2, r4
 1123 01fe 00D8     		bhi	.L66
 1124 0200 11E0     		b	.L54
 1125              	.L66:
 1126              		.loc 1 500 0 is_stmt 0 discriminator 1
 1127 0202 0C23     		mov	r3, #12
 1128 0204 FB18     		add	r3, r7, r3
 1129 0206 1B88     		ldrh	r3, [r3]
 1130 0208 164A     		ldr	r2, .L67+24
 1131 020a 9342     		cmp	r3, r2
 1132 020c 0BD9     		bls	.L54
 501:network.c     ****         {
 502:network.c     ****             delayReceivePacket -= 1000;
 1133              		.loc 1 502 0 is_stmt 1
 1134 020e 0C23     		mov	r3, #12
 1135 0210 FB18     		add	r3, r7, r3
 1136 0212 0C22     		mov	r2, #12
 1137 0214 BA18     		add	r2, r7, r2
 1138 0216 1288     		ldrh	r2, [r2]
 1139 0218 1349     		ldr	r1, .L67+28
 1140 021a 8C46     		mov	ip, r1
ARM GAS  C:\Users\Petro\AppData\Local\Temp\ccQIv3Iu.s 			page 30


 1141 021c 6244     		add	r2, r2, ip
 1142 021e 1A80     		strh	r2, [r3]
 503:network.c     ****             oldUnixTime++;
 1143              		.loc 1 503 0
 1144 0220 BB68     		ldr	r3, [r7, #8]
 1145 0222 0133     		add	r3, r3, #1
 1146 0224 BB60     		str	r3, [r7, #8]
 1147              	.L54:
 402:network.c     ****     {
 1148              		.loc 1 402 0
 1149 0226 FFF7FEFF 		bl	RTCgetRecentMs
 1150 022a 021C     		mov	r2, r0
 1151 022c 0C23     		mov	r3, #12
 1152 022e FB18     		add	r3, r7, r3
 1153 0230 1B88     		ldrh	r3, [r3]
 1154 0232 9A42     		cmp	r2, r3
 1155 0234 00D2     		bcs	.LCB964
 1156 0236 0CE7     		b	.L64	@long jump
 1157              	.LCB964:
 504:network.c     ****         }
 505:network.c     ****     }
 506:network.c     **** 
 507:network.c     ****     onNtpSync = 0;
 1158              		.loc 1 507 0
 1159 0238 064B     		ldr	r3, .L67+8
 1160 023a 0022     		mov	r2, #0
 1161 023c 1A70     		strb	r2, [r3]
 508:network.c     ****     
 509:network.c     ****     return result;
 1162              		.loc 1 509 0
 1163 023e 0E23     		mov	r3, #14
 1164 0240 FB18     		add	r3, r7, r3
 1165 0242 1B88     		ldrh	r3, [r3]
 510:network.c     **** }
 1166              		.loc 1 510 0
 1167 0244 181C     		mov	r0, r3
 1168 0246 BD46     		mov	sp, r7
 1169 0248 05B0     		add	sp, sp, #20
 1170              		@ sp needed
 1171 024a F0BD     		pop	{r4, r5, r6, r7, pc}
 1172              	.L68:
 1173              		.align	2
 1174              	.L67:
 1175 024c 00000000 		.word	ntpFlagEndReceivePacket
 1176 0250 00000000 		.word	ntpFlagReadyForReceive
 1177 0254 00000000 		.word	onNtpSync
 1178 0258 00000000 		.word	recvDataNTP
 1179 025c 00000000 		.word	unixTime
 1180 0260 00000000 		.word	millisTime
 1181 0264 E7030000 		.word	999
 1182 0268 18FCFFFF 		.word	-1000
 1183              		.cfi_endproc
 1184              	.LFE39:
 1185              		.size	NTPsync, .-NTPsync
 1186              		.section	.rodata
 1187 001a 0000     		.align	2
 1188              	.LC34:
ARM GAS  C:\Users\Petro\AppData\Local\Temp\ccQIv3Iu.s 			page 31


 1189 001c 25303858 		.ascii	"%08X%03X%08X%03X\000"
 1189      25303358 
 1189      25303858 
 1189      25303358 
 1189      00
 1190 002d 000000   		.section	.text.NTPsendTime,"ax",%progbits
 1191              		.align	2
 1192              		.global	NTPsendTime
 1193              		.code	16
 1194              		.thumb_func
 1195              		.type	NTPsendTime, %function
 1196              	NTPsendTime:
 1197              	.LFB40:
 511:network.c     **** 
 512:network.c     **** 
 513:network.c     **** 
 514:network.c     **** /*******************************************************************************
 515:network.c     **** * Function Name: NTPsendTime
 516:network.c     **** ********************************************************************************
 517:network.c     **** *
 518:network.c     **** * Summary:
 519:network.c     **** *   send time t2 and t3 to NTP protocol
 520:network.c     **** * Parametrs:
 521:network.c     **** *   unixTime2,unixTime3 - time in unix format
 522:network.c     **** *   millis2, millis3 - millis time
 523:network.c     **** *   ID - ID packet
 524:network.c     **** *
 525:network.c     **** *******************************************************************************/
 526:network.c     **** void NTPsendTime(uint32_t unixTime2,uint32_t unixTime3,uint16_t millis2,uint16_t millis3, uint16_t 
 527:network.c     **** {
 1198              		.loc 1 527 0
 1199              		.cfi_startproc
 1200 0000 B0B5     		push	{r4, r5, r7, lr}
 1201              		.cfi_def_cfa_offset 16
 1202              		.cfi_offset 4, -16
 1203              		.cfi_offset 5, -12
 1204              		.cfi_offset 7, -8
 1205              		.cfi_offset 14, -4
 1206 0002 A0B0     		sub	sp, sp, #128
 1207              		.cfi_def_cfa_offset 144
 1208 0004 02AF     		add	r7, sp, #8
 1209              		.cfi_def_cfa 7, 136
 1210 0006 F860     		str	r0, [r7, #12]
 1211 0008 B960     		str	r1, [r7, #8]
 1212 000a 191C     		mov	r1, r3
 1213 000c BB1D     		add	r3, r7, #6
 1214 000e 1A80     		strh	r2, [r3]
 1215 0010 3B1D     		add	r3, r7, #4
 1216 0012 0A1C     		add	r2, r1, #0
 1217 0014 1A80     		strh	r2, [r3]
 528:network.c     ****     char sendBuffer[DATA_BUFFER];
 529:network.c     ****     char sendData[DATA_BUFFER];
 530:network.c     ****     
 531:network.c     ****     /*pack data*/
 532:network.c     ****     sprintf(sendData,"%08X%03X%08X%03X", unixTime2, millis2, unixTime3, millis3); 
 1218              		.loc 1 532 0
 1219 0016 BB1D     		add	r3, r7, #6
ARM GAS  C:\Users\Petro\AppData\Local\Temp\ccQIv3Iu.s 			page 32


 1220 0018 1C88     		ldrh	r4, [r3]
 1221 001a 3B1D     		add	r3, r7, #4
 1222 001c 1B88     		ldrh	r3, [r3]
 1223 001e 1022     		mov	r2, #16
 1224 0020 B818     		add	r0, r7, r2
 1225 0022 1049     		ldr	r1, .L70
 1226 0024 FD68     		ldr	r5, [r7, #12]
 1227 0026 BA68     		ldr	r2, [r7, #8]
 1228 0028 0092     		str	r2, [sp]
 1229 002a 0193     		str	r3, [sp, #4]
 1230 002c 2A1C     		mov	r2, r5
 1231 002e 231C     		mov	r3, r4
 1232 0030 FFF7FEFF 		bl	sprintf
 533:network.c     ****     PackData(sendBuffer, (uint8_t *)sendData, ID);
 1233              		.loc 1 533 0
 1234 0034 4423     		mov	r3, #68
 1235 0036 F918     		add	r1, r7, r3
 1236 0038 1023     		mov	r3, #16
 1237 003a FA18     		add	r2, r7, r3
 1238 003c 8823     		mov	r3, #136
 1239 003e FB18     		add	r3, r7, r3
 1240 0040 1B88     		ldrh	r3, [r3]
 1241 0042 081C     		mov	r0, r1
 1242 0044 111C     		mov	r1, r2
 1243 0046 1A1C     		mov	r2, r3
 1244 0048 FFF7FEFF 		bl	PackData
 534:network.c     ****     UART_XB_UartPutString(sendBuffer);
 1245              		.loc 1 534 0
 1246 004c 4423     		mov	r3, #68
 1247 004e FB18     		add	r3, r7, r3
 1248 0050 181C     		mov	r0, r3
 1249 0052 FFF7FEFF 		bl	UART_XB_UartPutString
 535:network.c     ****     UART_XB_UartPutChar('0');
 1250              		.loc 1 535 0
 1251 0056 3020     		mov	r0, #48
 1252 0058 FFF7FEFF 		bl	UART_XB_SpiUartWriteTxData
 536:network.c     ****     #ifdef DEBUG_INFO
 537:network.c     **** //    SW_uartDebug_PutString("send time ");
 538:network.c     **** //    SW_uartDebug_PutString(sendBuffer);
 539:network.c     **** //    SW_uartDebug_PutString("\n\r");
 540:network.c     ****     #endif
 541:network.c     **** }
 1253              		.loc 1 541 0
 1254 005c BD46     		mov	sp, r7
 1255 005e 1EB0     		add	sp, sp, #120
 1256              		@ sp needed
 1257 0060 B0BD     		pop	{r4, r5, r7, pc}
 1258              	.L71:
 1259 0062 C046     		.align	2
 1260              	.L70:
 1261 0064 1C000000 		.word	.LC34
 1262              		.cfi_endproc
 1263              	.LFE40:
 1264              		.size	NTPsendTime, .-NTPsendTime
 1265              		.text
 1266              	.Letext0:
 1267              		.file 2 "c:\\program files (x86)\\cypress\\psoc creator\\4.0\\psoc creator\\import\\gnu\\arm\\4.9.
ARM GAS  C:\Users\Petro\AppData\Local\Temp\ccQIv3Iu.s 			page 33


 1268              		.file 3 "c:\\program files (x86)\\cypress\\psoc creator\\4.0\\psoc creator\\import\\gnu\\arm\\4.9.
 1269              		.file 4 "Generated_Source\\PSoC4/cytypes.h"
 1270              		.file 5 "lib_Network/svt.h"
 1271              		.file 6 "lib_Network/ntp.h"