ARM GAS  C:\Users\Petro\AppData\Local\Temp\ccLCvfje.s 			page 1


   1              		.cpu cortex-m0
   2              		.fpu softvfp
   3              		.eabi_attribute 20, 1
   4              		.eabi_attribute 21, 1
   5              		.eabi_attribute 23, 3
   6              		.eabi_attribute 24, 1
   7              		.eabi_attribute 25, 1
   8              		.eabi_attribute 26, 1
   9              		.eabi_attribute 30, 6
  10              		.eabi_attribute 34, 0
  11              		.eabi_attribute 18, 4
  12              		.code	16
  13              		.file	"main.c"
  14              		.text
  15              	.Ltext0:
  16              		.cfi_sections	.debug_frame
  17              		.comm	currentState,1,1
  18              		.bss
  19              		.align	2
  20              	result:
  21 0000 00000000 		.space	4
  22              		.section	.text.main,"ax",%progbits
  23              		.align	2
  24              		.global	main
  25              		.code	16
  26              		.thumb_func
  27              		.type	main, %function
  28              	main:
  29              	.LFB63:
  30              		.file 1 "main.c"
   1:main.c        **** #include "appGlobal.h"
   2:main.c        **** 
   3:main.c        **** int main()
   4:main.c        **** {
  31              		.loc 1 4 0
  32              		.cfi_startproc
  33 0000 80B5     		push	{r7, lr}
  34              		.cfi_def_cfa_offset 8
  35              		.cfi_offset 7, -8
  36              		.cfi_offset 14, -4
  37 0002 00AF     		add	r7, sp, #0
  38              		.cfi_def_cfa_register 7
   5:main.c        ****     SystemInit();
  39              		.loc 1 5 0
  40 0004 FFF7FEFF 		bl	SystemInit
   6:main.c        ****     currentState = TIME_SYNC;
  41              		.loc 1 6 0
  42 0008 284B     		ldr	r3, .L14
  43 000a 0022     		mov	r2, #0
  44 000c 1A70     		strb	r2, [r3]
  45              	.L13:
   7:main.c        **** 
   8:main.c        ****     for(;;)
   9:main.c        ****     {
  10:main.c        ****         switch (currentState)
  46              		.loc 1 10 0
  47 000e 274B     		ldr	r3, .L14
ARM GAS  C:\Users\Petro\AppData\Local\Temp\ccLCvfje.s 			page 2


  48 0010 1B78     		ldrb	r3, [r3]
  49 0012 012B     		cmp	r3, #1
  50 0014 16D0     		beq	.L3
  51 0016 02DC     		bgt	.L4
  52 0018 002B     		cmp	r3, #0
  53 001a 05D0     		beq	.L5
  54 001c 42E0     		b	.L2
  55              	.L4:
  56 001e 022B     		cmp	r3, #2
  57 0020 26D0     		beq	.L6
  58 0022 032B     		cmp	r3, #3
  59 0024 35D0     		beq	.L7
  60 0026 3DE0     		b	.L2
  61              	.L5:
  11:main.c        ****         {
  12:main.c        ****             case TIME_SYNC:
  13:main.c        ****             {
  14:main.c        ****                 result = TimeSynchronize();
  62              		.loc 1 14 0
  63 0028 FFF7FEFF 		bl	TimeSynchronize
  64 002c 021C     		mov	r2, r0
  65 002e 204B     		ldr	r3, .L14+4
  66 0030 1A60     		str	r2, [r3]
  15:main.c        ****                 if(result == TIME_SYNC_OK)
  67              		.loc 1 15 0
  68 0032 1F4B     		ldr	r3, .L14+4
  69 0034 1B68     		ldr	r3, [r3]
  70 0036 002B     		cmp	r3, #0
  71 0038 03D1     		bne	.L8
  16:main.c        ****                 {
  17:main.c        ****                     currentState = GET_FIN_STATUS;
  72              		.loc 1 17 0
  73 003a 1C4B     		ldr	r3, .L14
  74 003c 0122     		mov	r2, #1
  75 003e 1A70     		strb	r2, [r3]
  18:main.c        ****                 }
  19:main.c        ****                 break;
  76              		.loc 1 19 0
  77 0040 30E0     		b	.L2
  78              	.L8:
  79 0042 2FE0     		b	.L2
  80              	.L3:
  20:main.c        ****             }
  21:main.c        ****             case GET_FIN_STATUS:
  22:main.c        ****             {
  23:main.c        ****                 result = GetFinishStatus();
  81              		.loc 1 23 0
  82 0044 FFF7FEFF 		bl	GetFinishStatus
  83 0048 021C     		mov	r2, r0
  84 004a 194B     		ldr	r3, .L14+4
  85 004c 1A60     		str	r2, [r3]
  24:main.c        **** 
  25:main.c        ****                 if(result == NO_ERROR)
  86              		.loc 1 25 0
  87 004e 184B     		ldr	r3, .L14+4
  88 0050 1B68     		ldr	r3, [r3]
  89 0052 012B     		cmp	r3, #1
ARM GAS  C:\Users\Petro\AppData\Local\Temp\ccLCvfje.s 			page 3


  90 0054 03D1     		bne	.L9
  26:main.c        ****                 {
  27:main.c        ****                     currentState = CHECK_GATE;                   
  91              		.loc 1 27 0
  92 0056 154B     		ldr	r3, .L14
  93 0058 0222     		mov	r2, #2
  94 005a 1A70     		strb	r2, [r3]
  95 005c 07E0     		b	.L10
  96              	.L9:
  28:main.c        ****                 }
  29:main.c        ****                 else if(result == REBOOT)  
  97              		.loc 1 29 0
  98 005e 144B     		ldr	r3, .L14+4
  99 0060 1B68     		ldr	r3, [r3]
 100 0062 FF2B     		cmp	r3, #255
 101 0064 03D1     		bne	.L10
  30:main.c        ****                 {
  31:main.c        ****                     currentState = TIME_SYNC;
 102              		.loc 1 31 0
 103 0066 114B     		ldr	r3, .L14
 104 0068 0022     		mov	r2, #0
 105 006a 1A70     		strb	r2, [r3]
  32:main.c        ****                 }
  33:main.c        ****                 break;
 106              		.loc 1 33 0
 107 006c 1AE0     		b	.L2
 108              	.L10:
 109 006e 19E0     		b	.L2
 110              	.L6:
  34:main.c        ****             }
  35:main.c        ****             case CHECK_GATE:
  36:main.c        ****             {
  37:main.c        ****                 result = CheckGate();
 111              		.loc 1 37 0
 112 0070 FFF7FEFF 		bl	CheckGate
 113 0074 021C     		mov	r2, r0
 114 0076 0E4B     		ldr	r3, .L14+4
 115 0078 1A60     		str	r2, [r3]
  38:main.c        ****                 if(result == GATE_OPEN)
 116              		.loc 1 38 0
 117 007a 0D4B     		ldr	r3, .L14+4
 118 007c 1B68     		ldr	r3, [r3]
 119 007e 012B     		cmp	r3, #1
 120 0080 03D1     		bne	.L11
  39:main.c        ****                 {
  40:main.c        ****                     currentState = SAVE_RESULT;
 121              		.loc 1 40 0
 122 0082 0A4B     		ldr	r3, .L14
 123 0084 0322     		mov	r2, #3
 124 0086 1A70     		strb	r2, [r3]
  41:main.c        ****                 }
  42:main.c        ****                 else
  43:main.c        ****                 {
  44:main.c        ****                     currentState = GET_FIN_STATUS;
  45:main.c        ****                 }
  46:main.c        ****                 break;
 125              		.loc 1 46 0
ARM GAS  C:\Users\Petro\AppData\Local\Temp\ccLCvfje.s 			page 4


 126 0088 0CE0     		b	.L2
 127              	.L11:
  44:main.c        ****                 }
 128              		.loc 1 44 0
 129 008a 084B     		ldr	r3, .L14
 130 008c 0122     		mov	r2, #1
 131 008e 1A70     		strb	r2, [r3]
 132              		.loc 1 46 0
 133 0090 08E0     		b	.L2
 134              	.L7:
  47:main.c        ****             }
  48:main.c        ****             case SAVE_RESULT:
  49:main.c        ****             {
  50:main.c        ****                 result = SaveResult();
 135              		.loc 1 50 0
 136 0092 FFF7FEFF 		bl	SaveResult
 137 0096 021C     		mov	r2, r0
 138 0098 054B     		ldr	r3, .L14+4
 139 009a 1A60     		str	r2, [r3]
  51:main.c        ****                 currentState = GET_FIN_STATUS;
 140              		.loc 1 51 0
 141 009c 034B     		ldr	r3, .L14
 142 009e 0122     		mov	r2, #1
 143 00a0 1A70     		strb	r2, [r3]
  52:main.c        ****     
  53:main.c        ****                 break;
 144              		.loc 1 53 0
 145 00a2 C046     		mov	r8, r8
 146              	.L2:
  54:main.c        ****             }           
  55:main.c        ****         }
  56:main.c        ****         //CyDelay(TIMEOUT_STATE);
  57:main.c        ****         TaskCheck();
 147              		.loc 1 57 0
 148 00a4 FFF7FEFF 		bl	TaskCheck
  58:main.c        ****     }
 149              		.loc 1 58 0
 150 00a8 B1E7     		b	.L13
 151              	.L15:
 152 00aa C046     		.align	2
 153              	.L14:
 154 00ac 00000000 		.word	currentState
 155 00b0 00000000 		.word	result
 156              		.cfi_endproc
 157              	.LFE63:
 158              		.size	main, .-main
 159              		.section	.rodata
 160              		.align	2
 161              	.LC2:
 162 0000 53797374 		.ascii	"System init...\000"
 162      656D2069 
 162      6E69742E 
 162      2E2E00
 163              		.section	.text.SystemInit,"ax",%progbits
 164              		.align	2
 165              		.global	SystemInit
 166              		.code	16
ARM GAS  C:\Users\Petro\AppData\Local\Temp\ccLCvfje.s 			page 5


 167              		.thumb_func
 168              		.type	SystemInit, %function
 169              	SystemInit:
 170              	.LFB64:
  59:main.c        **** }
  60:main.c        **** 
  61:main.c        **** void  SystemInit(void)
  62:main.c        **** {   
 171              		.loc 1 62 0
 172              		.cfi_startproc
 173 0000 80B5     		push	{r7, lr}
 174              		.cfi_def_cfa_offset 8
 175              		.cfi_offset 7, -8
 176              		.cfi_offset 14, -4
 177 0002 00AF     		add	r7, sp, #0
 178              		.cfi_def_cfa_register 7
  63:main.c        ****     SetRebootFlag();
 179              		.loc 1 63 0
 180 0004 FFF7FEFF 		bl	SetRebootFlag
  64:main.c        ****     LedInit();
 181              		.loc 1 64 0
 182 0008 FFF7FEFF 		bl	LedInit
  65:main.c        ****     SetLedsState(LED_ENABLE, LED_DISABLE);
 183              		.loc 1 65 0
 184 000c 0120     		mov	r0, #1
 185 000e 0021     		mov	r1, #0
 186 0010 FFF7FEFF 		bl	SetLedsState
  66:main.c        ****     
  67:main.c        ****     DisplayStart();
 187              		.loc 1 67 0
 188 0014 FFF7FEFF 		bl	DisplayStart
  68:main.c        ****     Display("System init...");
 189              		.loc 1 68 0
 190 0018 124B     		ldr	r3, .L17
 191 001a 181C     		mov	r0, r3
 192 001c FFF7FEFF 		bl	Display
  69:main.c        ****     DisplaBacklightOn();
 193              		.loc 1 69 0
 194 0020 FFF7FEFF 		bl	DisplaBacklightOn
  70:main.c        ****     
  71:main.c        ****     RTC_WDT_Init(); 
 195              		.loc 1 71 0
 196 0024 FFF7FEFF 		bl	RTC_WDT_Init
  72:main.c        ****     InitNetwork();
 197              		.loc 1 72 0
 198 0028 FFF7FEFF 		bl	InitNetwork
  73:main.c        ****     GateInit();
 199              		.loc 1 73 0
 200 002c FFF7FEFF 		bl	GateInit
  74:main.c        ****     BattADC_Init();
 201              		.loc 1 74 0
 202 0030 FFF7FEFF 		bl	BattADC_Init
  75:main.c        ****     
  76:main.c        ****     TaskTimerInit();    
 203              		.loc 1 76 0
 204 0034 FFF7FEFF 		bl	TaskTimerInit
  77:main.c        ****     SetTaskTimer(ACTION1, ACTION1_TIMEOUT); //network
ARM GAS  C:\Users\Petro\AppData\Local\Temp\ccLCvfje.s 			page 6


 205              		.loc 1 77 0
 206 0038 FA23     		mov	r3, #250
 207 003a 5B00     		lsl	r3, r3, #1
 208 003c 0020     		mov	r0, #0
 209 003e 191C     		mov	r1, r3
 210 0040 FFF7FEFF 		bl	SetTaskTimer
  78:main.c        ****     SetTaskTimer(ACTION2, ACTION2_TIMEOUT); //display real time
 211              		.loc 1 78 0
 212 0044 FA23     		mov	r3, #250
 213 0046 5B00     		lsl	r3, r3, #1
 214 0048 0120     		mov	r0, #1
 215 004a 191C     		mov	r1, r3
 216 004c FFF7FEFF 		bl	SetTaskTimer
  79:main.c        ****     SetTaskTimer(ACTION3, ACTION3_TIMEOUT); //display indicator
 217              		.loc 1 79 0
 218 0050 FA23     		mov	r3, #250
 219 0052 5B00     		lsl	r3, r3, #1
 220 0054 0220     		mov	r0, #2
 221 0056 191C     		mov	r1, r3
 222 0058 FFF7FEFF 		bl	SetTaskTimer
  80:main.c        ****     
  81:main.c        ****     /* Enable global interrupts. */ 
  82:main.c        ****     CyGlobalIntEnable; 
 223              		.loc 1 82 0
 224              	@ 82 "main.c" 1
 225 005c 62B6     		CPSIE   i
 226              	@ 0 "" 2
  83:main.c        ****     
  84:main.c        **** }
 227              		.loc 1 84 0
 228              		.code	16
 229 005e BD46     		mov	sp, r7
 230              		@ sp needed
 231 0060 80BD     		pop	{r7, pc}
 232              	.L18:
 233 0062 C046     		.align	2
 234              	.L17:
 235 0064 00000000 		.word	.LC2
 236              		.cfi_endproc
 237              	.LFE64:
 238              		.size	SystemInit, .-SystemInit
 239              		.section	.rodata
 240 000f 00       		.align	2
 241              	.LC4:
 242 0010 436F6E6E 		.ascii	"Connect...\000"
 242      6563742E 
 242      2E2E00
 243 001b 00       		.align	2
 244              	.LC6:
 245 001c 53796E63 		.ascii	"Sync time...\000"
 245      2074696D 
 245      652E2E2E 
 245      00
 246 0029 000000   		.align	2
 247              	.LC8:
 248 002c 20205379 		.ascii	"  Sync ok\000"
 248      6E63206F 
ARM GAS  C:\Users\Petro\AppData\Local\Temp\ccLCvfje.s 			page 7


 248      6B00
 249 0036 0000     		.align	2
 250              	.LC10:
 251 0038 53796E63 		.ascii	"Sync error\000"
 251      20657272 
 251      6F7200
 252              		.section	.text.TimeSynchronize,"ax",%progbits
 253              		.align	2
 254              		.global	TimeSynchronize
 255              		.code	16
 256              		.thumb_func
 257              		.type	TimeSynchronize, %function
 258              	TimeSynchronize:
 259              	.LFB65:
  85:main.c        **** 
  86:main.c        **** uint32_t TimeSynchronize(void)
  87:main.c        **** {
 260              		.loc 1 87 0
 261              		.cfi_startproc
 262 0000 80B5     		push	{r7, lr}
 263              		.cfi_def_cfa_offset 8
 264              		.cfi_offset 7, -8
 265              		.cfi_offset 14, -4
 266 0002 82B0     		sub	sp, sp, #8
 267              		.cfi_def_cfa_offset 16
 268 0004 00AF     		add	r7, sp, #0
 269              		.cfi_def_cfa_register 7
  88:main.c        ****     uint32_t result;
  89:main.c        ****     
  90:main.c        ****     SetLedsState(LED_ENABLE, LED_DISABLE);
 270              		.loc 1 90 0
 271 0006 0120     		mov	r0, #1
 272 0008 0021     		mov	r1, #0
 273 000a FFF7FEFF 		bl	SetLedsState
  91:main.c        ****     
  92:main.c        ****     /*network connect*/
  93:main.c        ****     if(NetworkStatus() == NETWORK_DISCONN)
 274              		.loc 1 93 0
 275 000e FFF7FEFF 		bl	NetworkStatus
 276 0012 031E     		sub	r3, r0, #0
 277 0014 09D1     		bne	.L20
  94:main.c        ****     {
  95:main.c        ****         Display("Connect...");
 278              		.loc 1 95 0
 279 0016 194B     		ldr	r3, .L24
 280 0018 181C     		mov	r0, r3
 281 001a FFF7FEFF 		bl	Display
  96:main.c        ****         Delay(TIMEOUT_STATE);
 282              		.loc 1 96 0
 283 001e FA23     		mov	r3, #250
 284 0020 5B00     		lsl	r3, r3, #1
 285 0022 181C     		mov	r0, r3
 286 0024 FFF7FEFF 		bl	Delay
 287 0028 22E0     		b	.L21
 288              	.L20:
  97:main.c        ****     }
  98:main.c        ****     else
ARM GAS  C:\Users\Petro\AppData\Local\Temp\ccLCvfje.s 			page 8


  99:main.c        ****     {
 100:main.c        ****         /*time sync*/
 101:main.c        ****         Display("Sync time...");
 289              		.loc 1 101 0
 290 002a 154B     		ldr	r3, .L24+4
 291 002c 181C     		mov	r0, r3
 292 002e FFF7FEFF 		bl	Display
 102:main.c        ****         
 103:main.c        ****         if(NTPsync() == TIME_SYNC_OK)
 293              		.loc 1 103 0
 294 0032 FFF7FEFF 		bl	NTPsync
 295 0036 031E     		sub	r3, r0, #0
 296 0038 0DD1     		bne	.L22
 104:main.c        ****         {
 105:main.c        ****             Display("  Sync ok");
 297              		.loc 1 105 0
 298 003a 124B     		ldr	r3, .L24+8
 299 003c 181C     		mov	r0, r3
 300 003e FFF7FEFF 		bl	Display
 106:main.c        ****             ClearRebootFlag();
 301              		.loc 1 106 0
 302 0042 FFF7FEFF 		bl	ClearRebootFlag
 107:main.c        ****             Delay(TIMEOUT_USER_READ_INFO);
 303              		.loc 1 107 0
 304 0046 FA23     		mov	r3, #250
 305 0048 5B00     		lsl	r3, r3, #1
 306 004a 181C     		mov	r0, r3
 307 004c FFF7FEFF 		bl	Delay
 108:main.c        ****             
 109:main.c        ****             result = TIME_SYNC_OK;
 308              		.loc 1 109 0
 309 0050 0023     		mov	r3, #0
 310 0052 7B60     		str	r3, [r7, #4]
 311 0054 0CE0     		b	.L21
 312              	.L22:
 110:main.c        ****         }
 111:main.c        ****         else
 112:main.c        ****         {
 113:main.c        ****             Display("Sync error");
 313              		.loc 1 113 0
 314 0056 0C4B     		ldr	r3, .L24+12
 315 0058 181C     		mov	r0, r3
 316 005a FFF7FEFF 		bl	Display
 114:main.c        ****             SetRebootFlag();
 317              		.loc 1 114 0
 318 005e FFF7FEFF 		bl	SetRebootFlag
 115:main.c        ****             Delay(TIMEOUT_USER_READ_INFO);
 319              		.loc 1 115 0
 320 0062 FA23     		mov	r3, #250
 321 0064 5B00     		lsl	r3, r3, #1
 322 0066 181C     		mov	r0, r3
 323 0068 FFF7FEFF 		bl	Delay
 116:main.c        ****       
 117:main.c        ****             result = TIME_SYNC_ERR;
 324              		.loc 1 117 0
 325 006c 0123     		mov	r3, #1
 326 006e 7B60     		str	r3, [r7, #4]
ARM GAS  C:\Users\Petro\AppData\Local\Temp\ccLCvfje.s 			page 9


 327              	.L21:
 118:main.c        ****         }
 119:main.c        ****     }
 120:main.c        ****     
 121:main.c        ****     return result;
 328              		.loc 1 121 0
 329 0070 7B68     		ldr	r3, [r7, #4]
 122:main.c        **** }
 330              		.loc 1 122 0
 331 0072 181C     		mov	r0, r3
 332 0074 BD46     		mov	sp, r7
 333 0076 02B0     		add	sp, sp, #8
 334              		@ sp needed
 335 0078 80BD     		pop	{r7, pc}
 336              	.L25:
 337 007a C046     		.align	2
 338              	.L24:
 339 007c 10000000 		.word	.LC4
 340 0080 1C000000 		.word	.LC6
 341 0084 2C000000 		.word	.LC8
 342 0088 38000000 		.word	.LC10
 343              		.cfi_endproc
 344              	.LFE65:
 345              		.size	TimeSynchronize, .-TimeSynchronize
 346              		.section	.rodata
 347 0043 00       		.align	2
 348              	.LC12:
 349 0044 204E6F20 		.ascii	" No ready\000"
 349      72656164 
 349      7900
 350              		.section	.text.GetFinishStatus,"ax",%progbits
 351              		.align	2
 352              		.global	GetFinishStatus
 353              		.code	16
 354              		.thumb_func
 355              		.type	GetFinishStatus, %function
 356              	GetFinishStatus:
 357              	.LFB66:
 123:main.c        **** 
 124:main.c        **** uint32_t GetFinishStatus(void)
 125:main.c        **** {
 358              		.loc 1 125 0
 359              		.cfi_startproc
 360 0000 80B5     		push	{r7, lr}
 361              		.cfi_def_cfa_offset 8
 362              		.cfi_offset 7, -8
 363              		.cfi_offset 14, -4
 364 0002 82B0     		sub	sp, sp, #8
 365              		.cfi_def_cfa_offset 16
 366 0004 00AF     		add	r7, sp, #0
 367              		.cfi_def_cfa_register 7
 126:main.c        ****     uint32_t result;
 127:main.c        ****     
 128:main.c        ****     if (NetworkStatus() == NETWORK_DISCONN || FinWriteInDB() == NO_WRITE || FinReady() == NO_READY)
 368              		.loc 1 128 0
 369 0006 FFF7FEFF 		bl	NetworkStatus
 370 000a 031E     		sub	r3, r0, #0
ARM GAS  C:\Users\Petro\AppData\Local\Temp\ccLCvfje.s 			page 10


 371 000c 07D0     		beq	.L27
 372              		.loc 1 128 0 is_stmt 0 discriminator 1
 373 000e FFF7FEFF 		bl	FinWriteInDB
 374 0012 031E     		sub	r3, r0, #0
 375 0014 03D0     		beq	.L27
 376              		.loc 1 128 0 discriminator 2
 377 0016 FFF7FEFF 		bl	FinReady
 378 001a 031E     		sub	r3, r0, #0
 379 001c 11D1     		bne	.L28
 380              	.L27:
 129:main.c        ****     {
 130:main.c        ****         //LedRedBlink(FREQ_ERR_BLINK);
 131:main.c        ****         SetLedsState(LED_ENABLE, LED_DISABLE);
 381              		.loc 1 131 0 is_stmt 1
 382 001e 0120     		mov	r0, #1
 383 0020 0021     		mov	r1, #0
 384 0022 FFF7FEFF 		bl	SetLedsState
 132:main.c        ****         Display(" No ready");
 385              		.loc 1 132 0
 386 0026 0F4B     		ldr	r3, .L32
 387 0028 181C     		mov	r0, r3
 388 002a FFF7FEFF 		bl	Display
 133:main.c        ****         DisAllowNextSkier();
 389              		.loc 1 133 0
 390 002e FFF7FEFF 		bl	DisAllowNextSkier
 134:main.c        ****         Delay(TIMEOUT_USER_READ_INFO);
 391              		.loc 1 134 0
 392 0032 FA23     		mov	r3, #250
 393 0034 5B00     		lsl	r3, r3, #1
 394 0036 181C     		mov	r0, r3
 395 0038 FFF7FEFF 		bl	Delay
 135:main.c        ****         result = ERROR;
 396              		.loc 1 135 0
 397 003c 0023     		mov	r3, #0
 398 003e 7B60     		str	r3, [r7, #4]
 399 0040 01E0     		b	.L29
 400              	.L28:
 136:main.c        ****     }
 137:main.c        ****     else
 138:main.c        ****     {
 139:main.c        ****         result = NO_ERROR;
 401              		.loc 1 139 0
 402 0042 0123     		mov	r3, #1
 403 0044 7B60     		str	r3, [r7, #4]
 404              	.L29:
 140:main.c        ****     }
 141:main.c        ****     
 142:main.c        ****     if(IsRebootFinishFlag() == REBOOT)
 405              		.loc 1 142 0
 406 0046 FFF7FEFF 		bl	IsRebootFinishFlag
 407 004a 031E     		sub	r3, r0, #0
 408 004c FF2B     		cmp	r3, #255
 409 004e 01D1     		bne	.L30
 143:main.c        ****     {
 144:main.c        ****         result = REBOOT;    
 410              		.loc 1 144 0
 411 0050 FF23     		mov	r3, #255
ARM GAS  C:\Users\Petro\AppData\Local\Temp\ccLCvfje.s 			page 11


 412 0052 7B60     		str	r3, [r7, #4]
 413              	.L30:
 145:main.c        ****     }
 146:main.c        ****     
 147:main.c        ****     TestMode();
 414              		.loc 1 147 0
 415 0054 FFF7FEFF 		bl	TestMode
 148:main.c        ****     
 149:main.c        ****     return result;
 416              		.loc 1 149 0
 417 0058 7B68     		ldr	r3, [r7, #4]
 150:main.c        ****     
 151:main.c        **** }
 418              		.loc 1 151 0
 419 005a 181C     		mov	r0, r3
 420 005c BD46     		mov	sp, r7
 421 005e 02B0     		add	sp, sp, #8
 422              		@ sp needed
 423 0060 80BD     		pop	{r7, pc}
 424              	.L33:
 425 0062 C046     		.align	2
 426              	.L32:
 427 0064 44000000 		.word	.LC12
 428              		.cfi_endproc
 429              	.LFE66:
 430              		.size	GetFinishStatus, .-GetFinishStatus
 431              		.section	.rodata
 432 004e 0000     		.align	2
 433              	.LC14:
 434 0050 536B6965 		.ascii	"Skier Started\000"
 434      72205374 
 434      61727465 
 434      6400
 435 005e 0000     		.align	2
 436              	.LC16:
 437 0060 53746172 		.ascii	"Start ready\000"
 437      74207265 
 437      61647900 
 438              		.section	.text.CheckGate,"ax",%progbits
 439              		.align	2
 440              		.global	CheckGate
 441              		.code	16
 442              		.thumb_func
 443              		.type	CheckGate, %function
 444              	CheckGate:
 445              	.LFB67:
 152:main.c        **** 
 153:main.c        **** uint32_t CheckGate(void)
 154:main.c        **** {
 446              		.loc 1 154 0
 447              		.cfi_startproc
 448 0000 80B5     		push	{r7, lr}
 449              		.cfi_def_cfa_offset 8
 450              		.cfi_offset 7, -8
 451              		.cfi_offset 14, -4
 452 0002 82B0     		sub	sp, sp, #8
 453              		.cfi_def_cfa_offset 16
ARM GAS  C:\Users\Petro\AppData\Local\Temp\ccLCvfje.s 			page 12


 454 0004 00AF     		add	r7, sp, #0
 455              		.cfi_def_cfa_register 7
 155:main.c        ****     uint32_t result;
 156:main.c        ****     
 157:main.c        ****     result = GateIsOpen();
 456              		.loc 1 157 0
 457 0006 FFF7FEFF 		bl	GateIsOpen
 458 000a 031C     		mov	r3, r0
 459 000c 7B60     		str	r3, [r7, #4]
 158:main.c        ****     
 159:main.c        ****     if(result == GATE_OPEN)
 460              		.loc 1 159 0
 461 000e 7B68     		ldr	r3, [r7, #4]
 462 0010 012B     		cmp	r3, #1
 463 0012 0FD1     		bne	.L35
 160:main.c        ****     {
 161:main.c        ****         DisAllowNextSkier();
 464              		.loc 1 161 0
 465 0014 FFF7FEFF 		bl	DisAllowNextSkier
 162:main.c        ****         Display("Skier Started");
 466              		.loc 1 162 0
 467 0018 0E4B     		ldr	r3, .L38
 468 001a 181C     		mov	r0, r3
 469 001c FFF7FEFF 		bl	Display
 163:main.c        ****         SetLedsState(LED_ENABLE, LED_DISABLE);
 470              		.loc 1 163 0
 471 0020 0120     		mov	r0, #1
 472 0022 0021     		mov	r1, #0
 473 0024 FFF7FEFF 		bl	SetLedsState
 164:main.c        ****         Delay(TIMEOUT_USER_READ_INFO);
 474              		.loc 1 164 0
 475 0028 FA23     		mov	r3, #250
 476 002a 5B00     		lsl	r3, r3, #1
 477 002c 181C     		mov	r0, r3
 478 002e FFF7FEFF 		bl	Delay
 479 0032 09E0     		b	.L36
 480              	.L35:
 165:main.c        ****     }
 166:main.c        ****     else
 167:main.c        ****     {
 168:main.c        ****         Display("Start ready");
 481              		.loc 1 168 0
 482 0034 084B     		ldr	r3, .L38+4
 483 0036 181C     		mov	r0, r3
 484 0038 FFF7FEFF 		bl	Display
 169:main.c        ****         SetLedsState(LED_DISABLE, LED_ENABLE);
 485              		.loc 1 169 0
 486 003c 0020     		mov	r0, #0
 487 003e 0121     		mov	r1, #1
 488 0040 FFF7FEFF 		bl	SetLedsState
 170:main.c        ****         AllowNextSkier();
 489              		.loc 1 170 0
 490 0044 FFF7FEFF 		bl	AllowNextSkier
 491              	.L36:
 171:main.c        ****     }
 172:main.c        **** 
 173:main.c        ****     return result;
ARM GAS  C:\Users\Petro\AppData\Local\Temp\ccLCvfje.s 			page 13


 492              		.loc 1 173 0
 493 0048 7B68     		ldr	r3, [r7, #4]
 174:main.c        ****     
 175:main.c        **** }
 494              		.loc 1 175 0
 495 004a 181C     		mov	r0, r3
 496 004c BD46     		mov	sp, r7
 497 004e 02B0     		add	sp, sp, #8
 498              		@ sp needed
 499 0050 80BD     		pop	{r7, pc}
 500              	.L39:
 501 0052 C046     		.align	2
 502              	.L38:
 503 0054 50000000 		.word	.LC14
 504 0058 60000000 		.word	.LC16
 505              		.cfi_endproc
 506              	.LFE67:
 507              		.size	CheckGate, .-CheckGate
 508              		.section	.rodata
 509              		.align	2
 510              	.LC18:
 511 006c 53617665 		.ascii	"Save result\000"
 511      20726573 
 511      756C7400 
 512              		.align	2
 513              	.LC20:
 514 0078 4E657874 		.ascii	"Next skier\000"
 514      20736B69 
 514      657200
 515 0083 00       		.section	.text.SaveResult,"ax",%progbits
 516              		.align	2
 517              		.global	SaveResult
 518              		.code	16
 519              		.thumb_func
 520              		.type	SaveResult, %function
 521              	SaveResult:
 522              	.LFB68:
 176:main.c        **** 
 177:main.c        **** uint32_t SaveResult(void)
 178:main.c        **** {
 523              		.loc 1 178 0
 524              		.cfi_startproc
 525 0000 90B5     		push	{r4, r7, lr}
 526              		.cfi_def_cfa_offset 12
 527              		.cfi_offset 4, -12
 528              		.cfi_offset 7, -8
 529              		.cfi_offset 14, -4
 530 0002 87B0     		sub	sp, sp, #28
 531              		.cfi_def_cfa_offset 40
 532 0004 00AF     		add	r7, sp, #0
 533              		.cfi_def_cfa_register 7
 179:main.c        ****     uint32_t result;
 180:main.c        ****     uint64_t startUnixTime;
 181:main.c        ****     uint32_t startRecentMs;
 182:main.c        ****     
 183:main.c        ****     //LedRedBlink(FREQ_INIT_BLINK);
 184:main.c        ****     SetLedsState(LED_ENABLE, LED_DISABLE);
ARM GAS  C:\Users\Petro\AppData\Local\Temp\ccLCvfje.s 			page 14


 534              		.loc 1 184 0
 535 0006 0120     		mov	r0, #1
 536 0008 0021     		mov	r1, #0
 537 000a FFF7FEFF 		bl	SetLedsState
 185:main.c        ****     
 186:main.c        ****     Display("Save result");
 538              		.loc 1 186 0
 539 000e 134B     		ldr	r3, .L42
 540 0010 181C     		mov	r0, r3
 541 0012 FFF7FEFF 		bl	Display
 187:main.c        ****     
 188:main.c        ****     GetStartTime(&startUnixTime, &startRecentMs);
 542              		.loc 1 188 0
 543 0016 0823     		mov	r3, #8
 544 0018 FA18     		add	r2, r7, r3
 545 001a 3B1D     		add	r3, r7, #4
 546 001c 101C     		mov	r0, r2
 547 001e 191C     		mov	r1, r3
 548 0020 FFF7FEFF 		bl	GetStartTime
 189:main.c        ****     SendSkierStart(startUnixTime, startRecentMs);
 549              		.loc 1 189 0
 550 0024 BB68     		ldr	r3, [r7, #8]
 551 0026 FC68     		ldr	r4, [r7, #12]
 552 0028 7A68     		ldr	r2, [r7, #4]
 553 002a 181C     		mov	r0, r3
 554 002c 211C     		mov	r1, r4
 555 002e FFF7FEFF 		bl	SendSkierStart
 190:main.c        ****     Delay(TIMEOUT_USER_READ_INFO);
 556              		.loc 1 190 0
 557 0032 FA23     		mov	r3, #250
 558 0034 5B00     		lsl	r3, r3, #1
 559 0036 181C     		mov	r0, r3
 560 0038 FFF7FEFF 		bl	Delay
 191:main.c        ****     
 192:main.c        ****     Display("Next skier");
 561              		.loc 1 192 0
 562 003c 084B     		ldr	r3, .L42+4
 563 003e 181C     		mov	r0, r3
 564 0040 FFF7FEFF 		bl	Display
 193:main.c        ****     Delay(TIMEOUT_NEXT_SKIER);
 565              		.loc 1 193 0
 566 0044 074B     		ldr	r3, .L42+8
 567 0046 181C     		mov	r0, r3
 568 0048 FFF7FEFF 		bl	Delay
 194:main.c        ****     
 195:main.c        ****     result = NO_ERROR;
 569              		.loc 1 195 0
 570 004c 0123     		mov	r3, #1
 571 004e 7B61     		str	r3, [r7, #20]
 196:main.c        ****     
 197:main.c        ****     return result;
 572              		.loc 1 197 0
 573 0050 7B69     		ldr	r3, [r7, #20]
 198:main.c        ****     
 199:main.c        **** }
 574              		.loc 1 199 0
 575 0052 181C     		mov	r0, r3
ARM GAS  C:\Users\Petro\AppData\Local\Temp\ccLCvfje.s 			page 15


 576 0054 BD46     		mov	sp, r7
 577 0056 07B0     		add	sp, sp, #28
 578              		@ sp needed
 579 0058 90BD     		pop	{r4, r7, pc}
 580              	.L43:
 581 005a C046     		.align	2
 582              	.L42:
 583 005c 6C000000 		.word	.LC18
 584 0060 78000000 		.word	.LC20
 585 0064 B80B0000 		.word	3000
 586              		.cfi_endproc
 587              	.LFE68:
 588              		.size	SaveResult, .-SaveResult
 589              		.section	.text.Delay,"ax",%progbits
 590              		.align	2
 591              		.global	Delay
 592              		.code	16
 593              		.thumb_func
 594              		.type	Delay, %function
 595              	Delay:
 596              	.LFB69:
 200:main.c        **** 
 201:main.c        **** void Delay(uint32_t delayMs)
 202:main.c        **** {
 597              		.loc 1 202 0
 598              		.cfi_startproc
 599 0000 80B5     		push	{r7, lr}
 600              		.cfi_def_cfa_offset 8
 601              		.cfi_offset 7, -8
 602              		.cfi_offset 14, -4
 603 0002 82B0     		sub	sp, sp, #8
 604              		.cfi_def_cfa_offset 16
 605 0004 00AF     		add	r7, sp, #0
 606              		.cfi_def_cfa_register 7
 607 0006 7860     		str	r0, [r7, #4]
 203:main.c        ****     while(delayMs --)
 608              		.loc 1 203 0
 609 0008 04E0     		b	.L45
 610              	.L46:
 204:main.c        ****     {
 205:main.c        ****         CyDelay(1);
 611              		.loc 1 205 0
 612 000a 0120     		mov	r0, #1
 613 000c FFF7FEFF 		bl	CyDelay
 206:main.c        ****         TaskCheck();
 614              		.loc 1 206 0
 615 0010 FFF7FEFF 		bl	TaskCheck
 616              	.L45:
 203:main.c        ****     while(delayMs --)
 617              		.loc 1 203 0
 618 0014 7B68     		ldr	r3, [r7, #4]
 619 0016 5A1E     		sub	r2, r3, #1
 620 0018 7A60     		str	r2, [r7, #4]
 621 001a 002B     		cmp	r3, #0
 622 001c F5D1     		bne	.L46
 207:main.c        ****     }
 208:main.c        **** }
ARM GAS  C:\Users\Petro\AppData\Local\Temp\ccLCvfje.s 			page 16


 623              		.loc 1 208 0
 624 001e BD46     		mov	sp, r7
 625 0020 02B0     		add	sp, sp, #8
 626              		@ sp needed
 627 0022 80BD     		pop	{r7, pc}
 628              		.cfi_endproc
 629              	.LFE69:
 630              		.size	Delay, .-Delay
 631              		.text
 632              	.Letext0:
 633              		.file 2 "c:\\program files (x86)\\cypress\\psoc creator\\4.0\\psoc creator\\import\\gnu\\arm\\4.9.
 634              		.file 3 "c:\\program files (x86)\\cypress\\psoc creator\\4.0\\psoc creator\\import\\gnu\\arm\\4.9.
 635              		.file 4 "lib_TaskTimer\\taskAutomat.h"
 636              		.file 5 "appGlobal.h"