ARM GAS  C:\Users\Petro\AppData\Local\Temp\ccLwzTNt.s 			page 1


   1              		.cpu cortex-m0
   2              		.fpu softvfp
   3              		.eabi_attribute 20, 1
   4              		.eabi_attribute 21, 1
   5              		.eabi_attribute 23, 3
   6              		.eabi_attribute 24, 1
   7              		.eabi_attribute 25, 1
   8              		.eabi_attribute 26, 1
   9              		.eabi_attribute 30, 4
  10              		.eabi_attribute 34, 0
  11              		.eabi_attribute 18, 4
  12              		.code	16
  13              		.file	"database.c"
  14              		.text
  15              	.Ltext0:
  16              		.cfi_sections	.debug_frame
  17              		.section	.text.DataBaseStart,"ax",%progbits
  18              		.align	1
  19              		.global	DataBaseStart
  20              		.code	16
  21              		.thumb_func
  22              		.type	DataBaseStart, %function
  23              	DataBaseStart:
  24              	.LFB2:
  25              		.file 1 "lib_DB\\database.c"
   1:lib_DB/database.c **** 
   2:lib_DB/database.c **** #include "lib_DB\database.h"
   3:lib_DB/database.c **** 
   4:lib_DB/database.c **** #define BUFFER_SIZE         MAX_SKIERS_ON_WAY + 4u
   5:lib_DB/database.c **** #define MAX_SKIERS_ON_DB    20u
   6:lib_DB/database.c **** 
   7:lib_DB/database.c **** struct elementBuff
   8:lib_DB/database.c **** {
   9:lib_DB/database.c ****     uint64_t unixStartSkier;
  10:lib_DB/database.c ****     uint16_t millsStartSkier;
  11:lib_DB/database.c ****     struct elementBuff* nextSki;
  12:lib_DB/database.c **** } bufferSkiersOnWay[BUFFER_SIZE];
  13:lib_DB/database.c **** 
  14:lib_DB/database.c **** typedef struct
  15:lib_DB/database.c **** {
  16:lib_DB/database.c ****     uint16_t    size;
  17:lib_DB/database.c ****     uint16_t    firstElement;                                
  18:lib_DB/database.c ****     uint16_t    lastElement; 
  19:lib_DB/database.c ****     
  20:lib_DB/database.c ****     uint16_t totalSize;
  21:lib_DB/database.c ****     /*buffer*/
  22:lib_DB/database.c ****     skierDB_El buffer[MAX_FIFO_SIZE]; 
  23:lib_DB/database.c ****     /*last output element*/
  24:lib_DB/database.c ****     skierDB_El last;
  25:lib_DB/database.c **** }fifoTimeSkier;
  26:lib_DB/database.c **** 
  27:lib_DB/database.c **** skierDB_El skierDB[MAX_SKIERS_ON_DB];
  28:lib_DB/database.c **** skierDB_El bufferFifo[MAX_SKIERS_ON_BUF];
  29:lib_DB/database.c **** 
  30:lib_DB/database.c **** uint32_t currentSizeBuff;
  31:lib_DB/database.c **** struct elementBuff *currentElementStart;
  32:lib_DB/database.c **** struct elementBuff *currentElementFinish;
ARM GAS  C:\Users\Petro\AppData\Local\Temp\ccLwzTNt.s 			page 2


  33:lib_DB/database.c **** 
  34:lib_DB/database.c **** uint16_t skiersStarted;
  35:lib_DB/database.c **** uint16_t skiersFinished;
  36:lib_DB/database.c **** 
  37:lib_DB/database.c **** fifoTimeSkier fifo;
  38:lib_DB/database.c **** 
  39:lib_DB/database.c **** 
  40:lib_DB/database.c **** uint32_t DataBaseStart(void)
  41:lib_DB/database.c **** {
  26              		.loc 1 41 0
  27              		.cfi_startproc
  28 0000 08B5     		push	{r3, lr}
  29              		.cfi_def_cfa_offset 8
  30              		.cfi_offset 3, -8
  31              		.cfi_offset 14, -4
  42:lib_DB/database.c ****     uint8_t result; 
  43:lib_DB/database.c ****     
  44:lib_DB/database.c ****     result = LogStart();
  32              		.loc 1 44 0
  33 0002 FFF7FEFF 		bl	LogStart
  34              	.LVL0:
  45:lib_DB/database.c ****     if(result == FR_OK)
  35              		.loc 1 45 0
  36 0006 C0B2     		uxtb	r0, r0
  37 0008 4342     		neg	r3, r0
  38 000a 5841     		adc	r0, r0, r3
  39              	.LVL1:
  46:lib_DB/database.c ****     {
  47:lib_DB/database.c ****         result = DB_NO_ERROR;
  48:lib_DB/database.c ****     }else
  49:lib_DB/database.c ****     {
  50:lib_DB/database.c ****         result = DB_ERROR;
  51:lib_DB/database.c ****     }
  52:lib_DB/database.c ****     return result;
  53:lib_DB/database.c **** }
  40              		.loc 1 53 0
  41              		@ sp needed
  42 000c 08BD     		pop	{r3, pc}
  43              		.cfi_endproc
  44              	.LFE2:
  45              		.size	DataBaseStart, .-DataBaseStart
  46              		.section	.text.InitBuff,"ax",%progbits
  47              		.align	1
  48              		.global	InitBuff
  49              		.code	16
  50              		.thumb_func
  51              		.type	InitBuff, %function
  52              	InitBuff:
  53              	.LFB3:
  54:lib_DB/database.c **** 
  55:lib_DB/database.c **** void InitBuff()
  56:lib_DB/database.c **** {
  54              		.loc 1 56 0
  55              		.cfi_startproc
  57:lib_DB/database.c ****     uint8_t i;
  58:lib_DB/database.c ****     
  59:lib_DB/database.c ****     /*init fifo*/
ARM GAS  C:\Users\Petro\AppData\Local\Temp\ccLwzTNt.s 			page 3


  60:lib_DB/database.c ****     fifo.totalSize = MAX_FIFO_SIZE;
  56              		.loc 1 60 0
  57 0000 0C22     		mov	r2, #12
  58 0002 0B4B     		ldr	r3, .L3
  61:lib_DB/database.c ****     
  62:lib_DB/database.c ****     for( i = 0; i< BUFFER_SIZE - 1; i++)
  63:lib_DB/database.c ****     {
  64:lib_DB/database.c ****         bufferSkiersOnWay[i].nextSki = &bufferSkiersOnWay[i+1];
  65:lib_DB/database.c ****     }
  66:lib_DB/database.c ****     bufferSkiersOnWay[BUFFER_SIZE - 1].nextSki = &bufferSkiersOnWay[0];
  67:lib_DB/database.c ****     currentElementStart = &bufferSkiersOnWay[0];
  68:lib_DB/database.c ****     currentElementFinish = &bufferSkiersOnWay[0];
  69:lib_DB/database.c **** }
  59              		.loc 1 69 0
  60              		@ sp needed
  60:lib_DB/database.c ****     
  61              		.loc 1 60 0
  62 0004 DA80     		strh	r2, [r3, #6]
  63              	.LVL2:
  64:lib_DB/database.c ****     }
  64              		.loc 1 64 0
  65 0006 0B4B     		ldr	r3, .L3+4
  66 0008 0B4A     		ldr	r2, .L3+8
  66:lib_DB/database.c ****     currentElementStart = &bufferSkiersOnWay[0];
  67              		.loc 1 66 0
  68 000a DB67     		str	r3, [r3, #124]
  64:lib_DB/database.c ****     }
  69              		.loc 1 64 0
  70 000c DA60     		str	r2, [r3, #12]
  71              	.LVL3:
  72 000e 0B4A     		ldr	r2, .L3+12
  73 0010 DA61     		str	r2, [r3, #28]
  74              	.LVL4:
  75 0012 0B4A     		ldr	r2, .L3+16
  76 0014 DA62     		str	r2, [r3, #44]
  77              	.LVL5:
  78 0016 0B4A     		ldr	r2, .L3+20
  79 0018 DA63     		str	r2, [r3, #60]
  80              	.LVL6:
  81 001a 0B4A     		ldr	r2, .L3+24
  82 001c DA64     		str	r2, [r3, #76]
  83              	.LVL7:
  84 001e 0B4A     		ldr	r2, .L3+28
  85 0020 DA65     		str	r2, [r3, #92]
  86              	.LVL8:
  87 0022 0B4A     		ldr	r2, .L3+32
  88 0024 DA66     		str	r2, [r3, #108]
  89              	.LVL9:
  67:lib_DB/database.c ****     currentElementFinish = &bufferSkiersOnWay[0];
  90              		.loc 1 67 0
  91 0026 0B4A     		ldr	r2, .L3+36
  92 0028 1360     		str	r3, [r2]
  68:lib_DB/database.c **** }
  93              		.loc 1 68 0
  94 002a 0B4A     		ldr	r2, .L3+40
  95 002c 1360     		str	r3, [r2]
  96              		.loc 1 69 0
ARM GAS  C:\Users\Petro\AppData\Local\Temp\ccLwzTNt.s 			page 4


  97 002e 7047     		bx	lr
  98              	.L4:
  99              		.align	2
 100              	.L3:
 101 0030 00000000 		.word	fifo
 102 0034 00000000 		.word	bufferSkiersOnWay
 103 0038 10000000 		.word	bufferSkiersOnWay+16
 104 003c 20000000 		.word	bufferSkiersOnWay+32
 105 0040 30000000 		.word	bufferSkiersOnWay+48
 106 0044 40000000 		.word	bufferSkiersOnWay+64
 107 0048 50000000 		.word	bufferSkiersOnWay+80
 108 004c 60000000 		.word	bufferSkiersOnWay+96
 109 0050 70000000 		.word	bufferSkiersOnWay+112
 110 0054 00000000 		.word	currentElementStart
 111 0058 00000000 		.word	currentElementFinish
 112              		.cfi_endproc
 113              	.LFE3:
 114              		.size	InitBuff, .-InitBuff
 115              		.section	.text.putSkiOnWay,"ax",%progbits
 116              		.align	1
 117              		.global	putSkiOnWay
 118              		.code	16
 119              		.thumb_func
 120              		.type	putSkiOnWay, %function
 121              	putSkiOnWay:
 122              	.LFB4:
  70:lib_DB/database.c **** 
  71:lib_DB/database.c **** void putSkiOnWay(uint64_t unixTime, uint16_t mills)
  72:lib_DB/database.c **** {
 123              		.loc 1 72 0
 124              		.cfi_startproc
 125              	.LVL10:
 126 0000 30B5     		push	{r4, r5, lr}
 127              		.cfi_def_cfa_offset 12
 128              		.cfi_offset 4, -12
 129              		.cfi_offset 5, -8
 130              		.cfi_offset 14, -4
 131              		.loc 1 72 0
 132 0002 0D1C     		mov	r5, r1
 133 0004 041C     		mov	r4, r0
  73:lib_DB/database.c ****     currentElementFinish->millsStartSkier = mills;
 134              		.loc 1 73 0
 135 0006 0649     		ldr	r1, .L6
  74:lib_DB/database.c ****     currentElementFinish->unixStartSkier = unixTime;
  75:lib_DB/database.c ****     currentElementFinish = currentElementFinish->nextSki;
  76:lib_DB/database.c ****     currentSizeBuff++;
  77:lib_DB/database.c **** }
 136              		.loc 1 77 0
 137              		@ sp needed
  73:lib_DB/database.c ****     currentElementFinish->millsStartSkier = mills;
 138              		.loc 1 73 0
 139 0008 0B68     		ldr	r3, [r1]
  74:lib_DB/database.c ****     currentElementFinish->unixStartSkier = unixTime;
 140              		.loc 1 74 0
 141 000a 1C60     		str	r4, [r3]
 142 000c 5D60     		str	r5, [r3, #4]
  73:lib_DB/database.c ****     currentElementFinish->millsStartSkier = mills;
ARM GAS  C:\Users\Petro\AppData\Local\Temp\ccLwzTNt.s 			page 5


 143              		.loc 1 73 0
 144 000e 1A81     		strh	r2, [r3, #8]
  75:lib_DB/database.c ****     currentSizeBuff++;
 145              		.loc 1 75 0
 146 0010 DB68     		ldr	r3, [r3, #12]
  76:lib_DB/database.c **** }
 147              		.loc 1 76 0
 148 0012 044A     		ldr	r2, .L6+4
 149              	.LVL11:
  75:lib_DB/database.c ****     currentSizeBuff++;
 150              		.loc 1 75 0
 151 0014 0B60     		str	r3, [r1]
 152              	.LVL12:
  76:lib_DB/database.c **** }
 153              		.loc 1 76 0
 154 0016 1368     		ldr	r3, [r2]
 155 0018 0133     		add	r3, r3, #1
 156 001a 1360     		str	r3, [r2]
 157              		.loc 1 77 0
 158 001c 30BD     		pop	{r4, r5, pc}
 159              	.L7:
 160 001e C046     		.align	2
 161              	.L6:
 162 0020 00000000 		.word	currentElementFinish
 163 0024 00000000 		.word	currentSizeBuff
 164              		.cfi_endproc
 165              	.LFE4:
 166              		.size	putSkiOnWay, .-putSkiOnWay
 167              		.section	.text.getSkiFromWay,"ax",%progbits
 168              		.align	1
 169              		.global	getSkiFromWay
 170              		.code	16
 171              		.thumb_func
 172              		.type	getSkiFromWay, %function
 173              	getSkiFromWay:
 174              	.LFB5:
  78:lib_DB/database.c **** 
  79:lib_DB/database.c **** void getSkiFromWay(uint64_t *unixTime, uint16_t *mills)
  80:lib_DB/database.c **** {
 175              		.loc 1 80 0
 176              		.cfi_startproc
 177              	.LVL13:
 178 0000 30B5     		push	{r4, r5, lr}
 179              		.cfi_def_cfa_offset 12
 180              		.cfi_offset 4, -12
 181              		.cfi_offset 5, -8
 182              		.cfi_offset 14, -4
  81:lib_DB/database.c ****     *mills = currentElementStart->millsStartSkier;
 183              		.loc 1 81 0
 184 0002 074A     		ldr	r2, .L9
  82:lib_DB/database.c ****     *unixTime = currentElementStart->unixStartSkier;
  83:lib_DB/database.c ****     currentElementStart = currentElementStart->nextSki;
  84:lib_DB/database.c ****     currentSizeBuff--;
  85:lib_DB/database.c **** }
 185              		.loc 1 85 0
 186              		@ sp needed
  81:lib_DB/database.c ****     *mills = currentElementStart->millsStartSkier;
ARM GAS  C:\Users\Petro\AppData\Local\Temp\ccLwzTNt.s 			page 6


 187              		.loc 1 81 0
 188 0004 1368     		ldr	r3, [r2]
 189 0006 1C89     		ldrh	r4, [r3, #8]
 190 0008 0C80     		strh	r4, [r1]
  82:lib_DB/database.c ****     *unixTime = currentElementStart->unixStartSkier;
 191              		.loc 1 82 0
 192 000a 1C68     		ldr	r4, [r3]
 193 000c 5D68     		ldr	r5, [r3, #4]
  83:lib_DB/database.c ****     currentSizeBuff--;
 194              		.loc 1 83 0
 195 000e DB68     		ldr	r3, [r3, #12]
  82:lib_DB/database.c ****     *unixTime = currentElementStart->unixStartSkier;
 196              		.loc 1 82 0
 197 0010 0460     		str	r4, [r0]
 198 0012 4560     		str	r5, [r0, #4]
  83:lib_DB/database.c ****     currentSizeBuff--;
 199              		.loc 1 83 0
 200 0014 1360     		str	r3, [r2]
  84:lib_DB/database.c **** }
 201              		.loc 1 84 0
 202 0016 034A     		ldr	r2, .L9+4
 203 0018 1368     		ldr	r3, [r2]
 204 001a 013B     		sub	r3, r3, #1
 205 001c 1360     		str	r3, [r2]
 206              		.loc 1 85 0
 207 001e 30BD     		pop	{r4, r5, pc}
 208              	.L10:
 209              		.align	2
 210              	.L9:
 211 0020 00000000 		.word	currentElementStart
 212 0024 00000000 		.word	currentSizeBuff
 213              		.cfi_endproc
 214              	.LFE5:
 215              		.size	getSkiFromWay, .-getSkiFromWay
 216              		.section	.text.WriteStartTime,"ax",%progbits
 217              		.align	1
 218              		.global	WriteStartTime
 219              		.code	16
 220              		.thumb_func
 221              		.type	WriteStartTime, %function
 222              	WriteStartTime:
 223              	.LFB6:
  86:lib_DB/database.c **** 
  87:lib_DB/database.c **** 
  88:lib_DB/database.c **** void WriteStartTime(uint64_t unixTime, uint16_t mills)
  89:lib_DB/database.c **** {
 224              		.loc 1 89 0
 225              		.cfi_startproc
 226              	.LVL14:
 227 0000 08B5     		push	{r3, lr}
 228              		.cfi_def_cfa_offset 8
 229              		.cfi_offset 3, -8
 230              		.cfi_offset 14, -4
  90:lib_DB/database.c ****     putSkiOnWay(unixTime, mills);
 231              		.loc 1 90 0
 232 0002 FFF7FEFF 		bl	putSkiOnWay
 233              	.LVL15:
ARM GAS  C:\Users\Petro\AppData\Local\Temp\ccLwzTNt.s 			page 7


  91:lib_DB/database.c **** }
 234              		.loc 1 91 0
 235              		@ sp needed
 236 0006 08BD     		pop	{r3, pc}
 237              		.cfi_endproc
 238              	.LFE6:
 239              		.size	WriteStartTime, .-WriteStartTime
 240              		.section	.text.SkierOnWay,"ax",%progbits
 241              		.align	1
 242              		.global	SkierOnWay
 243              		.code	16
 244              		.thumb_func
 245              		.type	SkierOnWay, %function
 246              	SkierOnWay:
 247              	.LFB8:
  92:lib_DB/database.c **** 
  93:lib_DB/database.c **** 
  94:lib_DB/database.c **** void WriteFinishTime(uint64_t unixTime, uint16_t mills)
  95:lib_DB/database.c **** {   
  96:lib_DB/database.c ****     if (skiersFinished == MAX_SKIERS_ON_DB)
  97:lib_DB/database.c ****     {
  98:lib_DB/database.c ****         skiersFinished = 0;
  99:lib_DB/database.c ****     }
 100:lib_DB/database.c ****     getSkiFromWay(&skierDB[skiersFinished].unixStartSkier, &skierDB[skiersFinished].millsStartSkier
 101:lib_DB/database.c ****     skierDB[skiersFinished].millsFinishSkier = mills;
 102:lib_DB/database.c ****     skierDB[skiersFinished].unixFinishSkier = unixTime;
 103:lib_DB/database.c ****     TimeOnWay(skiersFinished);
 104:lib_DB/database.c ****     skiersFinished++;
 105:lib_DB/database.c **** }
 106:lib_DB/database.c **** 
 107:lib_DB/database.c **** uint32_t SkierOnWay()
 108:lib_DB/database.c **** {
 248              		.loc 1 108 0
 249              		.cfi_startproc
 109:lib_DB/database.c ****     return currentSizeBuff;
 250              		.loc 1 109 0
 251 0000 014B     		ldr	r3, .L13
 110:lib_DB/database.c **** }
 252              		.loc 1 110 0
 253              		@ sp needed
 109:lib_DB/database.c ****     return currentSizeBuff;
 254              		.loc 1 109 0
 255 0002 1868     		ldr	r0, [r3]
 256              		.loc 1 110 0
 257 0004 7047     		bx	lr
 258              	.L14:
 259 0006 C046     		.align	2
 260              	.L13:
 261 0008 00000000 		.word	currentSizeBuff
 262              		.cfi_endproc
 263              	.LFE8:
 264              		.size	SkierOnWay, .-SkierOnWay
 265              		.section	.text.TimeOnWay,"ax",%progbits
 266              		.align	1
 267              		.global	TimeOnWay
 268              		.code	16
 269              		.thumb_func
ARM GAS  C:\Users\Petro\AppData\Local\Temp\ccLwzTNt.s 			page 8


 270              		.type	TimeOnWay, %function
 271              	TimeOnWay:
 272              	.LFB9:
 111:lib_DB/database.c **** 
 112:lib_DB/database.c **** uint32_t TimeOnWay(uint32_t Number)
 113:lib_DB/database.c **** {
 273              		.loc 1 113 0
 274              		.cfi_startproc
 275              	.LVL16:
 114:lib_DB/database.c ****     skierDB[Number].secondsWay =  skierDB[Number].unixFinishSkier - skierDB[Number].unixStartSkier;
 276              		.loc 1 114 0
 277 0000 3023     		mov	r3, #48
 278 0002 5843     		mul	r0, r3
 279              	.LVL17:
 280 0004 0F4B     		ldr	r3, .L18
 113:lib_DB/database.c ****     skierDB[Number].secondsWay =  skierDB[Number].unixFinishSkier - skierDB[Number].unixStartSkier;
 281              		.loc 1 113 0
 282 0006 30B5     		push	{r4, r5, lr}
 283              		.cfi_def_cfa_offset 12
 284              		.cfi_offset 4, -12
 285              		.cfi_offset 5, -8
 286              		.cfi_offset 14, -4
 287              		.loc 1 114 0
 288 0008 1818     		add	r0, r3, r0
 289 000a 0468     		ldr	r4, [r0]
 290 000c 4568     		ldr	r5, [r0, #4]
 291 000e 0269     		ldr	r2, [r0, #16]
 292 0010 4369     		ldr	r3, [r0, #20]
 115:lib_DB/database.c ****     skierDB[Number].millsWay =  skierDB[Number].millsFinishSkier - skierDB[Number].millsStartSkier;
 293              		.loc 1 115 0
 294 0012 018B     		ldrh	r1, [r0, #24]
 114:lib_DB/database.c ****     skierDB[Number].secondsWay =  skierDB[Number].unixFinishSkier - skierDB[Number].unixStartSkier;
 295              		.loc 1 114 0
 296 0014 121B     		sub	r2, r2, r4
 297 0016 AB41     		sbc	r3, r3, r5
 298              		.loc 1 115 0
 299 0018 0489     		ldrh	r4, [r0, #8]
 114:lib_DB/database.c ****     skierDB[Number].secondsWay =  skierDB[Number].unixFinishSkier - skierDB[Number].unixStartSkier;
 300              		.loc 1 114 0
 301 001a 0262     		str	r2, [r0, #32]
 302 001c 4362     		str	r3, [r0, #36]
 303              		.loc 1 115 0
 304 001e 091B     		sub	r1, r1, r4
 116:lib_DB/database.c ****     if (skierDB[Number].millsWay > 1000u)
 305              		.loc 1 116 0
 306 0020 FA24     		mov	r4, #250
 115:lib_DB/database.c ****     skierDB[Number].millsWay =  skierDB[Number].millsFinishSkier - skierDB[Number].millsStartSkier;
 307              		.loc 1 115 0
 308 0022 89B2     		uxth	r1, r1
 309 0024 0185     		strh	r1, [r0, #40]
 310              		.loc 1 116 0
 311 0026 A400     		lsl	r4, r4, #2
 312 0028 A142     		cmp	r1, r4
 313 002a 08D9     		bls	.L16
 117:lib_DB/database.c ****     {
 118:lib_DB/database.c ****         skierDB[Number].secondsWay--;
 314              		.loc 1 118 0
ARM GAS  C:\Users\Petro\AppData\Local\Temp\ccLwzTNt.s 			page 9


 315 002c 0124     		mov	r4, #1
 316 002e 6442     		neg	r4, r4
 317 0030 E517     		asr	r5, r4, #31
 318 0032 1219     		add	r2, r2, r4
 319 0034 6B41     		adc	r3, r3, r5
 320 0036 0262     		str	r2, [r0, #32]
 321 0038 4362     		str	r3, [r0, #36]
 119:lib_DB/database.c ****         skierDB[Number].millsWay = 0 - skierDB[Number].millsWay;
 322              		.loc 1 119 0
 323 003a 4942     		neg	r1, r1
 324 003c 0185     		strh	r1, [r0, #40]
 325              	.L16:
 120:lib_DB/database.c ****     }
 121:lib_DB/database.c ****     return 1u;
 122:lib_DB/database.c **** }
 326              		.loc 1 122 0
 327 003e 0120     		mov	r0, #1
 328              		@ sp needed
 329 0040 30BD     		pop	{r4, r5, pc}
 330              	.L19:
 331 0042 C046     		.align	2
 332              	.L18:
 333 0044 00000000 		.word	skierDB
 334              		.cfi_endproc
 335              	.LFE9:
 336              		.size	TimeOnWay, .-TimeOnWay
 337              		.section	.text.WriteFinishTime,"ax",%progbits
 338              		.align	1
 339              		.global	WriteFinishTime
 340              		.code	16
 341              		.thumb_func
 342              		.type	WriteFinishTime, %function
 343              	WriteFinishTime:
 344              	.LFB7:
  95:lib_DB/database.c ****     if (skiersFinished == MAX_SKIERS_ON_DB)
 345              		.loc 1 95 0
 346              		.cfi_startproc
 347              	.LVL18:
 348 0000 F7B5     		push	{r0, r1, r2, r4, r5, r6, r7, lr}
 349              		.cfi_def_cfa_offset 32
 350              		.cfi_offset 0, -32
 351              		.cfi_offset 1, -28
 352              		.cfi_offset 2, -24
 353              		.cfi_offset 4, -20
 354              		.cfi_offset 5, -16
 355              		.cfi_offset 6, -12
 356              		.cfi_offset 7, -8
 357              		.cfi_offset 14, -4
  96:lib_DB/database.c ****     {
 358              		.loc 1 96 0
 359 0002 104C     		ldr	r4, .L22
  95:lib_DB/database.c ****     if (skiersFinished == MAX_SKIERS_ON_DB)
 360              		.loc 1 95 0
 361 0004 061C     		mov	r6, r0
  96:lib_DB/database.c ****     {
 362              		.loc 1 96 0
 363 0006 2388     		ldrh	r3, [r4]
ARM GAS  C:\Users\Petro\AppData\Local\Temp\ccLwzTNt.s 			page 10


  95:lib_DB/database.c ****     if (skiersFinished == MAX_SKIERS_ON_DB)
 364              		.loc 1 95 0
 365 0008 0F1C     		mov	r7, r1
 366 000a 0192     		str	r2, [sp, #4]
  96:lib_DB/database.c ****     {
 367              		.loc 1 96 0
 368 000c 142B     		cmp	r3, #20
 369 000e 01D1     		bne	.L21
  98:lib_DB/database.c ****     }
 370              		.loc 1 98 0
 371 0010 0023     		mov	r3, #0
 372 0012 2380     		strh	r3, [r4]
 373              	.L21:
 100:lib_DB/database.c ****     skierDB[skiersFinished].millsFinishSkier = mills;
 374              		.loc 1 100 0
 375 0014 3023     		mov	r3, #48
 376 0016 2188     		ldrh	r1, [r4]
 377 0018 0B4D     		ldr	r5, .L22+4
 378 001a 5943     		mul	r1, r3
 379 001c 4819     		add	r0, r1, r5
 380              	.LVL19:
 381 001e 0831     		add	r1, r1, #8
 382 0020 4919     		add	r1, r1, r5
 383 0022 FFF7FEFF 		bl	getSkiFromWay
 384              	.LVL20:
 101:lib_DB/database.c ****     skierDB[skiersFinished].unixFinishSkier = unixTime;
 385              		.loc 1 101 0
 386 0026 3023     		mov	r3, #48
 387 0028 2088     		ldrh	r0, [r4]
 105:lib_DB/database.c **** 
 388              		.loc 1 105 0
 389              		@ sp needed
 101:lib_DB/database.c ****     skierDB[skiersFinished].unixFinishSkier = unixTime;
 390              		.loc 1 101 0
 391 002a 4343     		mul	r3, r0
 392 002c ED18     		add	r5, r5, r3
 393 002e 6B46     		mov	r3, sp
 394 0030 9B88     		ldrh	r3, [r3, #4]
 102:lib_DB/database.c ****     TimeOnWay(skiersFinished);
 395              		.loc 1 102 0
 396 0032 2E61     		str	r6, [r5, #16]
 397 0034 6F61     		str	r7, [r5, #20]
 101:lib_DB/database.c ****     skierDB[skiersFinished].unixFinishSkier = unixTime;
 398              		.loc 1 101 0
 399 0036 2B83     		strh	r3, [r5, #24]
 103:lib_DB/database.c ****     skiersFinished++;
 400              		.loc 1 103 0
 401 0038 FFF7FEFF 		bl	TimeOnWay
 402              	.LVL21:
 104:lib_DB/database.c **** }
 403              		.loc 1 104 0
 404 003c 2388     		ldrh	r3, [r4]
 405 003e 0133     		add	r3, r3, #1
 406 0040 2380     		strh	r3, [r4]
 105:lib_DB/database.c **** 
 407              		.loc 1 105 0
 408 0042 F7BD     		pop	{r0, r1, r2, r4, r5, r6, r7, pc}
ARM GAS  C:\Users\Petro\AppData\Local\Temp\ccLwzTNt.s 			page 11


 409              	.L23:
 410              		.align	2
 411              	.L22:
 412 0044 00000000 		.word	skiersFinished
 413 0048 00000000 		.word	skierDB
 414              		.cfi_endproc
 415              	.LFE7:
 416              		.size	WriteFinishTime, .-WriteFinishTime
 417              		.section	.text.LastSecTimeOnWay,"ax",%progbits
 418              		.align	1
 419              		.global	LastSecTimeOnWay
 420              		.code	16
 421              		.thumb_func
 422              		.type	LastSecTimeOnWay, %function
 423              	LastSecTimeOnWay:
 424              	.LFB10:
 123:lib_DB/database.c **** 
 124:lib_DB/database.c **** uint32_t LastSecTimeOnWay()
 125:lib_DB/database.c **** {
 425              		.loc 1 125 0
 426              		.cfi_startproc
 126:lib_DB/database.c ****     uint32_t tmpData;
 127:lib_DB/database.c ****     if (skiersFinished == 0)
 427              		.loc 1 127 0
 428 0000 074B     		ldr	r3, .L27
 429 0002 0849     		ldr	r1, .L27+4
 430 0004 1B88     		ldrh	r3, [r3]
 431 0006 002B     		cmp	r3, #0
 432 0008 04D1     		bne	.L25
 128:lib_DB/database.c ****     {
 129:lib_DB/database.c ****         tmpData = skierDB[MAX_SKIERS_ON_DB - 1].secondsWay;
 433              		.loc 1 129 0
 434 000a EC23     		mov	r3, #236
 435 000c 9B00     		lsl	r3, r3, #2
 436 000e CB18     		add	r3, r1, r3
 437 0010 1868     		ldr	r0, [r3]
 438              	.LVL22:
 439 0012 04E0     		b	.L26
 440              	.LVL23:
 441              	.L25:
 130:lib_DB/database.c ****     }
 131:lib_DB/database.c ****     else
 132:lib_DB/database.c ****     {
 133:lib_DB/database.c ****         tmpData = skierDB[skiersFinished - 1].secondsWay;
 442              		.loc 1 133 0
 443 0014 3022     		mov	r2, #48
 444 0016 013B     		sub	r3, r3, #1
 445 0018 5343     		mul	r3, r2
 446 001a CB18     		add	r3, r1, r3
 447 001c 186A     		ldr	r0, [r3, #32]
 448              	.LVL24:
 449              	.L26:
 134:lib_DB/database.c ****     }
 135:lib_DB/database.c **** 
 136:lib_DB/database.c ****     return tmpData;
 137:lib_DB/database.c **** }
 450              		.loc 1 137 0
ARM GAS  C:\Users\Petro\AppData\Local\Temp\ccLwzTNt.s 			page 12


 451              		@ sp needed
 452 001e 7047     		bx	lr
 453              	.L28:
 454              		.align	2
 455              	.L27:
 456 0020 00000000 		.word	skiersFinished
 457 0024 00000000 		.word	skierDB
 458              		.cfi_endproc
 459              	.LFE10:
 460              		.size	LastSecTimeOnWay, .-LastSecTimeOnWay
 461              		.section	.text.LastMillsTimeOnWay,"ax",%progbits
 462              		.align	1
 463              		.global	LastMillsTimeOnWay
 464              		.code	16
 465              		.thumb_func
 466              		.type	LastMillsTimeOnWay, %function
 467              	LastMillsTimeOnWay:
 468              	.LFB11:
 138:lib_DB/database.c **** 
 139:lib_DB/database.c **** uint32_t LastMillsTimeOnWay()
 140:lib_DB/database.c **** {
 469              		.loc 1 140 0
 470              		.cfi_startproc
 141:lib_DB/database.c ****     uint32_t tmpData;
 142:lib_DB/database.c ****     if (skiersFinished == 0)
 471              		.loc 1 142 0
 472 0000 074B     		ldr	r3, .L32
 473 0002 0849     		ldr	r1, .L32+4
 474 0004 1A88     		ldrh	r2, [r3]
 475 0006 002A     		cmp	r2, #0
 476 0008 03D1     		bne	.L30
 143:lib_DB/database.c ****     {
 144:lib_DB/database.c ****         tmpData = skierDB[MAX_SKIERS_ON_DB - 1].millsWay;
 477              		.loc 1 144 0
 478 000a EE23     		mov	r3, #238
 479 000c 9B00     		lsl	r3, r3, #2
 480 000e C85A     		ldrh	r0, [r1, r3]
 481              	.LVL25:
 482 0010 04E0     		b	.L31
 483              	.LVL26:
 484              	.L30:
 145:lib_DB/database.c ****     }
 146:lib_DB/database.c ****     else
 147:lib_DB/database.c ****     {
 148:lib_DB/database.c ****         tmpData = skierDB[skiersFinished-1].millsWay;
 485              		.loc 1 148 0
 486 0012 531E     		sub	r3, r2, #1
 487 0014 3022     		mov	r2, #48
 488 0016 5343     		mul	r3, r2
 489 0018 CB18     		add	r3, r1, r3
 490 001a 188D     		ldrh	r0, [r3, #40]
 491              	.LVL27:
 492              	.L31:
 149:lib_DB/database.c ****     }
 150:lib_DB/database.c ****     return tmpData;
 151:lib_DB/database.c **** }
 493              		.loc 1 151 0
ARM GAS  C:\Users\Petro\AppData\Local\Temp\ccLwzTNt.s 			page 13


 494              		@ sp needed
 495 001c 7047     		bx	lr
 496              	.L33:
 497 001e C046     		.align	2
 498              	.L32:
 499 0020 00000000 		.word	skiersFinished
 500 0024 00000000 		.word	skierDB
 501              		.cfi_endproc
 502              	.LFE11:
 503              		.size	LastMillsTimeOnWay, .-LastMillsTimeOnWay
 504              		.section	.text.FifoGetSize,"ax",%progbits
 505              		.align	1
 506              		.global	FifoGetSize
 507              		.code	16
 508              		.thumb_func
 509              		.type	FifoGetSize, %function
 510              	FifoGetSize:
 511              	.LFB12:
 152:lib_DB/database.c **** 
 153:lib_DB/database.c **** 
 154:lib_DB/database.c **** /*FIFO*/
 155:lib_DB/database.c **** uint16_t FifoGetSize(void)
 156:lib_DB/database.c **** {
 512              		.loc 1 156 0
 513              		.cfi_startproc
 157:lib_DB/database.c ****     return fifo.size;
 514              		.loc 1 157 0
 515 0000 014B     		ldr	r3, .L35
 158:lib_DB/database.c **** }
 516              		.loc 1 158 0
 517              		@ sp needed
 157:lib_DB/database.c ****     return fifo.size;
 518              		.loc 1 157 0
 519 0002 1888     		ldrh	r0, [r3]
 520              		.loc 1 158 0
 521 0004 7047     		bx	lr
 522              	.L36:
 523 0006 C046     		.align	2
 524              	.L35:
 525 0008 00000000 		.word	fifo
 526              		.cfi_endproc
 527              	.LFE12:
 528              		.size	FifoGetSize, .-FifoGetSize
 529              		.section	.text.FifoPush,"ax",%progbits
 530              		.align	1
 531              		.global	FifoPush
 532              		.code	16
 533              		.thumb_func
 534              		.type	FifoPush, %function
 535              	FifoPush:
 536              	.LFB13:
 159:lib_DB/database.c **** 
 160:lib_DB/database.c **** void FifoPush(skierDB_El data)
 161:lib_DB/database.c **** {
 537              		.loc 1 161 0
 538              		.cfi_startproc
 539 0000 84B0     		sub	sp, sp, #16
ARM GAS  C:\Users\Petro\AppData\Local\Temp\ccLwzTNt.s 			page 14


 540              		.cfi_def_cfa_offset 16
 541 0002 70B5     		push	{r4, r5, r6, lr}
 542              		.cfi_def_cfa_offset 32
 543              		.cfi_offset 4, -32
 544              		.cfi_offset 5, -28
 545              		.cfi_offset 6, -24
 546              		.cfi_offset 14, -20
 162:lib_DB/database.c ****     if (fifo.size<fifo.totalSize)           
 547              		.loc 1 162 0
 548 0004 0E4C     		ldr	r4, .L41
 161:lib_DB/database.c ****     if (fifo.size<fifo.totalSize)           
 549              		.loc 1 161 0
 550 0006 0793     		str	r3, [sp, #28]
 551 0008 0490     		str	r0, [sp, #16]
 552 000a 0591     		str	r1, [sp, #20]
 553 000c 0692     		str	r2, [sp, #24]
 554              		.loc 1 162 0
 555 000e 2388     		ldrh	r3, [r4]
 556 0010 E688     		ldrh	r6, [r4, #6]
 557 0012 B342     		cmp	r3, r6
 558 0014 10D2     		bcs	.L37
 163:lib_DB/database.c ****     {                                                  
 164:lib_DB/database.c ****         ++fifo.size;                               
 165:lib_DB/database.c ****                                                        
 166:lib_DB/database.c ****         fifo.buffer[fifo.lastElement++] = data;  
 559              		.loc 1 166 0
 560 0016 3022     		mov	r2, #48
 561 0018 A088     		ldrh	r0, [r4, #4]
 164:lib_DB/database.c ****                                                        
 562              		.loc 1 164 0
 563 001a 0133     		add	r3, r3, #1
 564              		.loc 1 166 0
 565 001c 451C     		add	r5, r0, #1
 566 001e 5043     		mul	r0, r2
 567 0020 2018     		add	r0, r4, r0
 568 0022 ADB2     		uxth	r5, r5
 569 0024 0830     		add	r0, r0, #8
 570 0026 04A9     		add	r1, sp, #16
 164:lib_DB/database.c ****                                                        
 571              		.loc 1 164 0
 572 0028 2380     		strh	r3, [r4]
 573              		.loc 1 166 0
 574 002a A580     		strh	r5, [r4, #4]
 575 002c FFF7FEFF 		bl	memcpy
 576              	.LVL28:
 167:lib_DB/database.c ****                                                        
 168:lib_DB/database.c ****         if (fifo.lastElement == fifo.totalSize) 
 577              		.loc 1 168 0
 578 0030 B542     		cmp	r5, r6
 579 0032 01D1     		bne	.L37
 169:lib_DB/database.c ****             fifo.lastElement = 0;
 580              		.loc 1 169 0
 581 0034 0023     		mov	r3, #0
 582 0036 A380     		strh	r3, [r4, #4]
 583              	.L37:
 170:lib_DB/database.c ****     }  
 171:lib_DB/database.c **** }
ARM GAS  C:\Users\Petro\AppData\Local\Temp\ccLwzTNt.s 			page 15


 584              		.loc 1 171 0
 585              		@ sp needed
 586 0038 70BC     		pop	{r4, r5, r6}
 587 003a 08BC     		pop	{r3}
 588 003c 04B0     		add	sp, sp, #16
 589 003e 1847     		bx	r3
 590              	.L42:
 591              		.align	2
 592              	.L41:
 593 0040 00000000 		.word	fifo
 594              		.cfi_endproc
 595              	.LFE13:
 596              		.size	FifoPush, .-FifoPush
 597              		.section	.text.FifoGet,"ax",%progbits
 598              		.align	1
 599              		.global	FifoGet
 600              		.code	16
 601              		.thumb_func
 602              		.type	FifoGet, %function
 603              	FifoGet:
 604              	.LFB14:
 172:lib_DB/database.c **** 
 173:lib_DB/database.c **** void FifoGet(skierDB_El *data)                    
 174:lib_DB/database.c **** {                                                   
 605              		.loc 1 174 0
 606              		.cfi_startproc
 607              	.LVL29:
 608 0000 70B5     		push	{r4, r5, r6, lr}
 609              		.cfi_def_cfa_offset 16
 610              		.cfi_offset 4, -16
 611              		.cfi_offset 5, -12
 612              		.cfi_offset 6, -8
 613              		.cfi_offset 14, -4
 175:lib_DB/database.c ****     if (fifo.size != 0)                             
 614              		.loc 1 175 0
 615 0002 0B4C     		ldr	r4, .L49
 616 0004 2588     		ldrh	r5, [r4]
 617 0006 002D     		cmp	r5, #0
 618 0008 10D0     		beq	.L43
 176:lib_DB/database.c ****     {                                                           
 177:lib_DB/database.c ****         *data = fifo.buffer[fifo.firstElement++];
 619              		.loc 1 177 0
 620 000a 3022     		mov	r2, #48
 621 000c 6188     		ldrh	r1, [r4, #2]
 622 000e 4E1C     		add	r6, r1, #1
 623 0010 5143     		mul	r1, r2
 624 0012 6118     		add	r1, r4, r1
 625 0014 B6B2     		uxth	r6, r6
 626 0016 0831     		add	r1, r1, #8
 627 0018 6680     		strh	r6, [r4, #2]
 628 001a FFF7FEFF 		bl	memcpy
 629              	.LVL30:
 178:lib_DB/database.c ****                                                         
 179:lib_DB/database.c ****         if (fifo.firstElement == fifo.totalSize) 
 630              		.loc 1 179 0
 631 001e E388     		ldrh	r3, [r4, #6]
 632 0020 B342     		cmp	r3, r6
ARM GAS  C:\Users\Petro\AppData\Local\Temp\ccLwzTNt.s 			page 16


 633 0022 01D1     		bne	.L45
 180:lib_DB/database.c ****             fifo.firstElement = 0;  
 634              		.loc 1 180 0
 635 0024 0023     		mov	r3, #0
 636 0026 6380     		strh	r3, [r4, #2]
 637              	.L45:
 181:lib_DB/database.c ****         
 182:lib_DB/database.c ****         --fifo.size;                               
 638              		.loc 1 182 0
 639 0028 013D     		sub	r5, r5, #1
 640 002a 2580     		strh	r5, [r4]
 641              	.L43:
 183:lib_DB/database.c ****     }                                                  
 184:lib_DB/database.c **** }
 642              		.loc 1 184 0
 643              		@ sp needed
 644 002c 70BD     		pop	{r4, r5, r6, pc}
 645              	.L50:
 646 002e C046     		.align	2
 647              	.L49:
 648 0030 00000000 		.word	fifo
 649              		.cfi_endproc
 650              	.LFE14:
 651              		.size	FifoGet, .-FifoGet
 652              		.section	.text.FifoPushLast,"ax",%progbits
 653              		.align	1
 654              		.global	FifoPushLast
 655              		.code	16
 656              		.thumb_func
 657              		.type	FifoPushLast, %function
 658              	FifoPushLast:
 659              	.LFB15:
 185:lib_DB/database.c **** 
 186:lib_DB/database.c **** void FifoPushLast(skierDB_El data)
 187:lib_DB/database.c **** {
 660              		.loc 1 187 0
 661              		.cfi_startproc
 662 0000 84B0     		sub	sp, sp, #16
 663              		.cfi_def_cfa_offset 16
 664 0002 08B5     		push	{r3, lr}
 665              		.cfi_def_cfa_offset 24
 666              		.cfi_offset 3, -24
 667              		.cfi_offset 14, -20
 668              		.loc 1 187 0
 669 0004 0593     		str	r3, [sp, #20]
 188:lib_DB/database.c ****     fifo.last = data;
 670              		.loc 1 188 0
 671 0006 9223     		mov	r3, #146
 187:lib_DB/database.c ****     fifo.last = data;
 672              		.loc 1 187 0
 673 0008 0290     		str	r0, [sp, #8]
 674              		.loc 1 188 0
 675 000a 0648     		ldr	r0, .L52
 676 000c 9B00     		lsl	r3, r3, #2
 187:lib_DB/database.c ****     fifo.last = data;
 677              		.loc 1 187 0
 678 000e 0391     		str	r1, [sp, #12]
ARM GAS  C:\Users\Petro\AppData\Local\Temp\ccLwzTNt.s 			page 17


 679 0010 0492     		str	r2, [sp, #16]
 680              		.loc 1 188 0
 681 0012 C018     		add	r0, r0, r3
 682 0014 02A9     		add	r1, sp, #8
 683 0016 3022     		mov	r2, #48
 684 0018 FFF7FEFF 		bl	memcpy
 685              	.LVL31:
 189:lib_DB/database.c **** }
 686              		.loc 1 189 0
 687              		@ sp needed
 688 001c 08BC     		pop	{r3}
 689 001e 08BC     		pop	{r3}
 690 0020 04B0     		add	sp, sp, #16
 691 0022 1847     		bx	r3
 692              	.L53:
 693              		.align	2
 694              	.L52:
 695 0024 00000000 		.word	fifo
 696              		.cfi_endproc
 697              	.LFE15:
 698              		.size	FifoPushLast, .-FifoPushLast
 699              		.section	.text.FifoGetLast,"ax",%progbits
 700              		.align	1
 701              		.global	FifoGetLast
 702              		.code	16
 703              		.thumb_func
 704              		.type	FifoGetLast, %function
 705              	FifoGetLast:
 706              	.LFB16:
 190:lib_DB/database.c **** 
 191:lib_DB/database.c **** skierDB_El FifoGetLast(void)
 192:lib_DB/database.c **** {
 707              		.loc 1 192 0
 708              		.cfi_startproc
 709              	.LVL32:
 193:lib_DB/database.c ****     return fifo.last;
 710              		.loc 1 193 0
 711 0000 9223     		mov	r3, #146
 192:lib_DB/database.c ****     return fifo.last;
 712              		.loc 1 192 0
 713 0002 10B5     		push	{r4, lr}
 714              		.cfi_def_cfa_offset 8
 715              		.cfi_offset 4, -8
 716              		.cfi_offset 14, -4
 192:lib_DB/database.c ****     return fifo.last;
 717              		.loc 1 192 0
 718 0004 041C     		mov	r4, r0
 719              		.loc 1 193 0
 720 0006 0449     		ldr	r1, .L55
 721 0008 9B00     		lsl	r3, r3, #2
 722 000a C918     		add	r1, r1, r3
 723 000c 3022     		mov	r2, #48
 724 000e FFF7FEFF 		bl	memcpy
 725              	.LVL33:
 194:lib_DB/database.c **** }
 726              		.loc 1 194 0
 727              		@ sp needed
ARM GAS  C:\Users\Petro\AppData\Local\Temp\ccLwzTNt.s 			page 18


 728 0012 201C     		mov	r0, r4
 729              	.LVL34:
 730 0014 10BD     		pop	{r4, pc}
 731              	.L56:
 732 0016 C046     		.align	2
 733              	.L55:
 734 0018 00000000 		.word	fifo
 735              		.cfi_endproc
 736              	.LFE16:
 737              		.size	FifoGetLast, .-FifoGetLast
 738              		.section	.text.FifoPushLastFinished,"ax",%progbits
 739              		.align	1
 740              		.global	FifoPushLastFinished
 741              		.code	16
 742              		.thumb_func
 743              		.type	FifoPushLastFinished, %function
 744              	FifoPushLastFinished:
 745              	.LFB17:
 195:lib_DB/database.c **** 
 196:lib_DB/database.c **** void FifoPushLastFinished()
 197:lib_DB/database.c **** {
 746              		.loc 1 197 0
 747              		.cfi_startproc
 748 0000 70B5     		push	{r4, r5, r6, lr}
 749              		.cfi_def_cfa_offset 16
 750              		.cfi_offset 4, -16
 751              		.cfi_offset 5, -12
 752              		.cfi_offset 6, -8
 753              		.cfi_offset 14, -4
 198:lib_DB/database.c ****     if (skiersFinished == 0)
 754              		.loc 1 198 0
 755 0002 124B     		ldr	r3, .L61
 197:lib_DB/database.c ****     if (skiersFinished == 0)
 756              		.loc 1 197 0
 757 0004 88B0     		sub	sp, sp, #32
 758              		.cfi_def_cfa_offset 48
 759              		.loc 1 198 0
 760 0006 1E88     		ldrh	r6, [r3]
 761 0008 114C     		ldr	r4, .L61+4
 762 000a 002E     		cmp	r6, #0
 763 000c 0CD1     		bne	.L58
 199:lib_DB/database.c ****     {
 200:lib_DB/database.c ****         FifoPush(skierDB[MAX_SKIERS_ON_DB - 1]);
 764              		.loc 1 200 0
 765 000e E423     		mov	r3, #228
 766 0010 9B00     		lsl	r3, r3, #2
 767 0012 E518     		add	r5, r4, r3
 768 0014 1033     		add	r3, r3, #16
 769 0016 E118     		add	r1, r4, r3
 770 0018 6846     		mov	r0, sp
 771 001a 2022     		mov	r2, #32
 772 001c FFF7FEFF 		bl	memcpy
 773              	.LVL35:
 774 0020 E423     		mov	r3, #228
 775 0022 9B00     		lsl	r3, r3, #2
 776 0024 E058     		ldr	r0, [r4, r3]
 777 0026 0AE0     		b	.L60
ARM GAS  C:\Users\Petro\AppData\Local\Temp\ccLwzTNt.s 			page 19


 778              	.L58:
 201:lib_DB/database.c ****     }
 202:lib_DB/database.c ****     else
 203:lib_DB/database.c ****     {
 204:lib_DB/database.c ****         FifoPush(skierDB[skiersFinished-1]);    
 779              		.loc 1 204 0
 780 0028 3023     		mov	r3, #48
 781 002a 013E     		sub	r6, r6, #1
 782 002c 5E43     		mul	r6, r3
 783 002e A519     		add	r5, r4, r6
 784 0030 291C     		mov	r1, r5
 785 0032 6846     		mov	r0, sp
 786 0034 1031     		add	r1, r1, #16
 787 0036 2022     		mov	r2, #32
 788 0038 FFF7FEFF 		bl	memcpy
 789              	.LVL36:
 790 003c A059     		ldr	r0, [r4, r6]
 791              	.L60:
 792 003e 0435     		add	r5, r5, #4
 793 0040 0ECD     		ldmia	r5!, {r1, r2, r3}
 794 0042 FFF7FEFF 		bl	FifoPush
 795              	.LVL37:
 205:lib_DB/database.c ****     }
 206:lib_DB/database.c **** }
 796              		.loc 1 206 0
 797 0046 08B0     		add	sp, sp, #32
 798              		@ sp needed
 799 0048 70BD     		pop	{r4, r5, r6, pc}
 800              	.L62:
 801 004a C046     		.align	2
 802              	.L61:
 803 004c 00000000 		.word	skiersFinished
 804 0050 00000000 		.word	skierDB
 805              		.cfi_endproc
 806              	.LFE17:
 807              		.size	FifoPushLastFinished, .-FifoPushLastFinished
 808              		.comm	fifo,632,8
 809              		.comm	skiersFinished,2,2
 810              		.comm	skiersStarted,2,2
 811              		.comm	currentElementFinish,4,4
 812              		.comm	currentElementStart,4,4
 813              		.comm	currentSizeBuff,4,4
 814              		.comm	bufferFifo,384,8
 815              		.comm	skierDB,960,8
 816              		.comm	bufferSkiersOnWay,128,8
 817              		.text
 818              	.Letext0:
 819              		.file 2 "c:\\program files (x86)\\cypress\\psoc creator\\4.0\\psoc creator\\import\\gnu\\arm\\4.9.
 820              		.file 3 "c:\\program files (x86)\\cypress\\psoc creator\\4.0\\psoc creator\\import\\gnu\\arm\\4.9.
 821              		.file 4 "./lib_DB\\database.h"
 822              		.file 5 "./lib_Fat\\ff.h"
 823              		.file 6 "./lib_DB\\logResult.h"