ARM GAS  C:\Users\Petro\AppData\Local\Temp\cczDLTQQ.s 			page 1


   1              		.cpu cortex-m0
   2              		.fpu softvfp
   3              		.eabi_attribute 20, 1
   4              		.eabi_attribute 21, 1
   5              		.eabi_attribute 23, 3
   6              		.eabi_attribute 24, 1
   7              		.eabi_attribute 25, 1
   8              		.eabi_attribute 26, 1
   9              		.eabi_attribute 30, 6
  10              		.eabi_attribute 34, 0
  11              		.eabi_attribute 18, 4
  12              		.code	16
  13              		.file	"main.c"
  14              		.text
  15              	.Ltext0:
  16              		.cfi_sections	.debug_frame
  17              		.comm	currentState,1,1
  18              		.bss
  19              		.align	2
  20              	result:
  21 0000 00000000 		.space	4
  22              		.section	.text.main,"ax",%progbits
  23              		.align	2
  24              		.global	main
  25              		.code	16
  26              		.thumb_func
  27              		.type	main, %function
  28              	main:
  29              	.LFB63:
  30              		.file 1 "main.c"
   1:main.c        **** 
   2:main.c        **** #include "appGlobal.h"
   3:main.c        **** 
   4:main.c        **** 
   5:main.c        **** int main()
   6:main.c        **** {      
  31              		.loc 1 6 0
  32              		.cfi_startproc
  33 0000 80B5     		push	{r7, lr}
  34              		.cfi_def_cfa_offset 8
  35              		.cfi_offset 7, -8
  36              		.cfi_offset 14, -4
  37 0002 00AF     		add	r7, sp, #0
  38              		.cfi_def_cfa_register 7
   7:main.c        ****     while(SystemInit() == ERROR);
  39              		.loc 1 7 0
  40 0004 C046     		mov	r8, r8
  41              	.L2:
  42              		.loc 1 7 0 is_stmt 0 discriminator 1
  43 0006 FFF7FEFF 		bl	SystemInit
  44 000a 031E     		sub	r3, r0, #0
  45 000c FBD0     		beq	.L2
   8:main.c        ****     BLE_start();
  46              		.loc 1 8 0 is_stmt 1
  47 000e FFF7FEFF 		bl	BLE_start
   9:main.c        ****     currentState = TIME_SYNC;
  48              		.loc 1 9 0
ARM GAS  C:\Users\Petro\AppData\Local\Temp\cczDLTQQ.s 			page 2


  49 0012 284B     		ldr	r3, .L15
  50 0014 0022     		mov	r2, #0
  51 0016 1A70     		strb	r2, [r3]
  52              	.L14:
  10:main.c        ****     
  11:main.c        ****     for(;;)
  12:main.c        ****     {
  13:main.c        ****         switch (currentState)
  53              		.loc 1 13 0
  54 0018 264B     		ldr	r3, .L15
  55 001a 1B78     		ldrb	r3, [r3]
  56 001c 012B     		cmp	r3, #1
  57 001e 16D0     		beq	.L4
  58 0020 02DC     		bgt	.L5
  59 0022 002B     		cmp	r3, #0
  60 0024 05D0     		beq	.L6
  61 0026 3FE0     		b	.L3
  62              	.L5:
  63 0028 022B     		cmp	r3, #2
  64 002a 26D0     		beq	.L7
  65 002c 032B     		cmp	r3, #3
  66 002e 35D0     		beq	.L8
  67 0030 3AE0     		b	.L3
  68              	.L6:
  14:main.c        ****         {
  15:main.c        ****             case TIME_SYNC:
  16:main.c        ****             {
  17:main.c        ****                 result = TimeSynchronize();
  69              		.loc 1 17 0
  70 0032 FFF7FEFF 		bl	TimeSynchronize
  71 0036 021C     		mov	r2, r0
  72 0038 1F4B     		ldr	r3, .L15+4
  73 003a 1A60     		str	r2, [r3]
  18:main.c        ****                 if(result == TIME_SYNC_OK)
  74              		.loc 1 18 0
  75 003c 1E4B     		ldr	r3, .L15+4
  76 003e 1B68     		ldr	r3, [r3]
  77 0040 002B     		cmp	r3, #0
  78 0042 03D1     		bne	.L9
  19:main.c        ****                 {
  20:main.c        ****                     currentState = READY;
  79              		.loc 1 20 0
  80 0044 1B4B     		ldr	r3, .L15
  81 0046 0122     		mov	r2, #1
  82 0048 1A70     		strb	r2, [r3]
  21:main.c        ****                 }
  22:main.c        ****                 break;
  83              		.loc 1 22 0
  84 004a 2DE0     		b	.L3
  85              	.L9:
  86 004c 2CE0     		b	.L3
  87              	.L4:
  23:main.c        ****             }
  24:main.c        ****             case READY:
  25:main.c        ****             {
  26:main.c        ****                 result = CheckReady();
  88              		.loc 1 26 0
ARM GAS  C:\Users\Petro\AppData\Local\Temp\cczDLTQQ.s 			page 3


  89 004e FFF7FEFF 		bl	CheckReady
  90 0052 021C     		mov	r2, r0
  91 0054 184B     		ldr	r3, .L15+4
  92 0056 1A60     		str	r2, [r3]
  27:main.c        ****                 if(result == NO_ERROR)
  93              		.loc 1 27 0
  94 0058 174B     		ldr	r3, .L15+4
  95 005a 1B68     		ldr	r3, [r3]
  96 005c 012B     		cmp	r3, #1
  97 005e 03D1     		bne	.L10
  28:main.c        ****                 {
  29:main.c        ****                     currentState = CHECK_GATE;
  98              		.loc 1 29 0
  99 0060 144B     		ldr	r3, .L15
 100 0062 0222     		mov	r2, #2
 101 0064 1A70     		strb	r2, [r3]
 102 0066 07E0     		b	.L11
 103              	.L10:
  30:main.c        ****                 }
  31:main.c        ****                 else if(result == REBOOT)  
 104              		.loc 1 31 0
 105 0068 134B     		ldr	r3, .L15+4
 106 006a 1B68     		ldr	r3, [r3]
 107 006c FF2B     		cmp	r3, #255
 108 006e 03D1     		bne	.L11
  32:main.c        ****                 {
  33:main.c        ****                     currentState = TIME_SYNC;
 109              		.loc 1 33 0
 110 0070 104B     		ldr	r3, .L15
 111 0072 0022     		mov	r2, #0
 112 0074 1A70     		strb	r2, [r3]
  34:main.c        ****                 }
  35:main.c        ****                 break;
 113              		.loc 1 35 0
 114 0076 17E0     		b	.L3
 115              	.L11:
 116 0078 16E0     		b	.L3
 117              	.L7:
  36:main.c        ****             }
  37:main.c        ****             case CHECK_GATE:
  38:main.c        ****             {
  39:main.c        ****                 result = CheckGate();
 118              		.loc 1 39 0
 119 007a FFF7FEFF 		bl	CheckGate
 120 007e 021C     		mov	r2, r0
 121 0080 0D4B     		ldr	r3, .L15+4
 122 0082 1A60     		str	r2, [r3]
  40:main.c        ****                 if(result == GATE_OPEN)
 123              		.loc 1 40 0
 124 0084 0C4B     		ldr	r3, .L15+4
 125 0086 1B68     		ldr	r3, [r3]
 126 0088 012B     		cmp	r3, #1
 127 008a 03D1     		bne	.L12
  41:main.c        ****                 {
  42:main.c        ****                     currentState = SAVE_RESULT;
 128              		.loc 1 42 0
 129 008c 094B     		ldr	r3, .L15
ARM GAS  C:\Users\Petro\AppData\Local\Temp\cczDLTQQ.s 			page 4


 130 008e 0322     		mov	r2, #3
 131 0090 1A70     		strb	r2, [r3]
  43:main.c        ****                 }
  44:main.c        ****                 else
  45:main.c        ****                 {
  46:main.c        ****                     currentState = READY;
  47:main.c        ****                 }
  48:main.c        ****                 break;
 132              		.loc 1 48 0
 133 0092 09E0     		b	.L3
 134              	.L12:
  46:main.c        ****                 }
 135              		.loc 1 46 0
 136 0094 074B     		ldr	r3, .L15
 137 0096 0122     		mov	r2, #1
 138 0098 1A70     		strb	r2, [r3]
 139              		.loc 1 48 0
 140 009a 05E0     		b	.L3
 141              	.L8:
  49:main.c        ****             }
  50:main.c        ****             case SAVE_RESULT:
  51:main.c        ****             {
  52:main.c        ****                 SaveResult();
 142              		.loc 1 52 0
 143 009c FFF7FEFF 		bl	SaveResult
  53:main.c        ****                 currentState = READY;
 144              		.loc 1 53 0
 145 00a0 044B     		ldr	r3, .L15
 146 00a2 0122     		mov	r2, #1
 147 00a4 1A70     		strb	r2, [r3]
  54:main.c        ****                 break;
 148              		.loc 1 54 0
 149 00a6 C046     		mov	r8, r8
 150              	.L3:
  55:main.c        ****             }            
  56:main.c        ****         }
  57:main.c        ****         MyDelay(TIMEOUT_DELAY);
 151              		.loc 1 57 0
 152 00a8 FA23     		mov	r3, #250
 153 00aa 5B00     		lsl	r3, r3, #1
 154 00ac 181C     		mov	r0, r3
 155 00ae FFF7FEFF 		bl	MyDelay
  58:main.c        ****     }
 156              		.loc 1 58 0
 157 00b2 B1E7     		b	.L14
 158              	.L16:
 159              		.align	2
 160              	.L15:
 161 00b4 00000000 		.word	currentState
 162 00b8 00000000 		.word	result
 163              		.cfi_endproc
 164              	.LFE63:
 165              		.size	main, .-main
 166              		.section	.rodata
 167              		.align	2
 168              	.LC2:
 169 0000 53797374 		.ascii	"System init...\000"
ARM GAS  C:\Users\Petro\AppData\Local\Temp\cczDLTQQ.s 			page 5


 169      656D2069 
 169      6E69742E 
 169      2E2E00
 170 000f 00       		.align	2
 171              	.LC4:
 172 0010 506C6561 		.ascii	"Please insert SD\000"
 172      73652069 
 172      6E736572 
 172      74205344 
 172      00
 173 0021 000000   		.align	2
 174              	.LC6:
 175 0024 4572726F 		.ascii	"Error sync time\000"
 175      72207379 
 175      6E632074 
 175      696D6500 
 176              		.section	.text.SystemInit,"ax",%progbits
 177              		.align	2
 178              		.global	SystemInit
 179              		.code	16
 180              		.thumb_func
 181              		.type	SystemInit, %function
 182              	SystemInit:
 183              	.LFB64:
  59:main.c        **** }
  60:main.c        **** 
  61:main.c        **** 
  62:main.c        **** uint32_t SystemInit(void)
  63:main.c        **** {
 184              		.loc 1 63 0
 185              		.cfi_startproc
 186 0000 90B5     		push	{r4, r7, lr}
 187              		.cfi_def_cfa_offset 12
 188              		.cfi_offset 4, -12
 189              		.cfi_offset 7, -8
 190              		.cfi_offset 14, -4
 191 0002 85B0     		sub	sp, sp, #20
 192              		.cfi_def_cfa_offset 32
 193 0004 00AF     		add	r7, sp, #0
 194              		.cfi_def_cfa_register 7
  64:main.c        ****     uint32_t result;
  65:main.c        ****     uint64_t unixTime;
  66:main.c        ****         
  67:main.c        ****     SetRebootFlag();
 195              		.loc 1 67 0
 196 0006 FFF7FEFF 		bl	SetRebootFlag
  68:main.c        ****     LedInit();   
 197              		.loc 1 68 0
 198 000a FFF7FEFF 		bl	LedInit
  69:main.c        ****     DisplayStart();   
 199              		.loc 1 69 0
 200 000e FFF7FEFF 		bl	DisplayStart
  70:main.c        ****     RTC_WDT_Init(); 
 201              		.loc 1 70 0
 202 0012 FFF7FEFF 		bl	RTC_WDT_Init
  71:main.c        ****     InitNetwork();
 203              		.loc 1 71 0
ARM GAS  C:\Users\Petro\AppData\Local\Temp\cczDLTQQ.s 			page 6


 204 0016 FFF7FEFF 		bl	InitNetwork
  72:main.c        ****     GateInit();
 205              		.loc 1 72 0
 206 001a FFF7FEFF 		bl	GateInit
  73:main.c        ****     InitBuff();
 207              		.loc 1 73 0
 208 001e FFF7FEFF 		bl	InitBuff
  74:main.c        **** 
  75:main.c        ****     /* Enable global interrupts */
  76:main.c        ****     CyGlobalIntEnable;
 209              		.loc 1 76 0
 210              	@ 76 "main.c" 1
 211 0022 62B6     		CPSIE   i
 212              	@ 0 "" 2
  77:main.c        ****    
  78:main.c        ****     /*sync real time*/
  79:main.c        ****     unixTime = DS1307_GetUnixTime();
 213              		.loc 1 79 0
 214              		.code	16
 215 0024 FFF7FEFF 		bl	DS1307_GetUnixTime
 216 0028 031C     		mov	r3, r0
 217 002a 0C1C     		mov	r4, r1
 218 002c 3B60     		str	r3, [r7]
 219 002e 7C60     		str	r4, [r7, #4]
  80:main.c        ****     
  81:main.c        ****     if(unixTime > 0)
 220              		.loc 1 81 0
 221 0030 3B68     		ldr	r3, [r7]
 222 0032 7A68     		ldr	r2, [r7, #4]
 223 0034 1343     		orr	r3, r2
 224 0036 1DD0     		beq	.L18
  82:main.c        ****     {      
  83:main.c        ****         RTC_SetUnixTime(unixTime);
 225              		.loc 1 83 0
 226 0038 3B68     		ldr	r3, [r7]
 227 003a 7C68     		ldr	r4, [r7, #4]
 228 003c 181C     		mov	r0, r3
 229 003e 211C     		mov	r1, r4
 230 0040 FFF7FEFF 		bl	RTC_SetUnixTime
  84:main.c        ****         result = DataBaseStart();
 231              		.loc 1 84 0
 232 0044 FFF7FEFF 		bl	DataBaseStart
 233 0048 031C     		mov	r3, r0
 234 004a FB60     		str	r3, [r7, #12]
  85:main.c        ****         
  86:main.c        ****         if(result == DB_NO_ERROR)
 235              		.loc 1 86 0
 236 004c FB68     		ldr	r3, [r7, #12]
 237 004e 012B     		cmp	r3, #1
 238 0050 06D1     		bne	.L20
  87:main.c        ****         {
  88:main.c        ****             Display("System init...");
 239              		.loc 1 88 0
 240 0052 0F4B     		ldr	r3, .L24
 241 0054 181C     		mov	r0, r3
 242 0056 FFF7FEFF 		bl	Display
  89:main.c        ****             result = NO_ERROR;
ARM GAS  C:\Users\Petro\AppData\Local\Temp\cczDLTQQ.s 			page 7


 243              		.loc 1 89 0
 244 005a 0123     		mov	r3, #1
 245 005c FB60     		str	r3, [r7, #12]
 246 005e 12E0     		b	.L22
 247              	.L20:
  90:main.c        ****         }
  91:main.c        ****         else
  92:main.c        ****         {
  93:main.c        ****             Display("Please insert SD");
 248              		.loc 1 93 0
 249 0060 0C4B     		ldr	r3, .L24+4
 250 0062 181C     		mov	r0, r3
 251 0064 FFF7FEFF 		bl	Display
  94:main.c        ****             result = ERROR;
 252              		.loc 1 94 0
 253 0068 0023     		mov	r3, #0
 254 006a FB60     		str	r3, [r7, #12]
  95:main.c        ****             SendFinStatus(FIN_NO_READY);
 255              		.loc 1 95 0
 256 006c 0020     		mov	r0, #0
 257 006e FFF7FEFF 		bl	SendFinStatus
 258 0072 08E0     		b	.L22
 259              	.L18:
  96:main.c        ****         }
  97:main.c        ****     }
  98:main.c        ****     else
  99:main.c        ****     {
 100:main.c        ****         Display("Error sync time");
 260              		.loc 1 100 0
 261 0074 084B     		ldr	r3, .L24+8
 262 0076 181C     		mov	r0, r3
 263 0078 FFF7FEFF 		bl	Display
 101:main.c        ****         result = ERROR;
 264              		.loc 1 101 0
 265 007c 0023     		mov	r3, #0
 266 007e FB60     		str	r3, [r7, #12]
 102:main.c        ****         SendFinStatus(FIN_NO_READY);
 267              		.loc 1 102 0
 268 0080 0020     		mov	r0, #0
 269 0082 FFF7FEFF 		bl	SendFinStatus
 270              	.L22:
 103:main.c        ****     }
 104:main.c        ****     
 105:main.c        ****     return result;    
 271              		.loc 1 105 0
 272 0086 FB68     		ldr	r3, [r7, #12]
 106:main.c        **** }
 273              		.loc 1 106 0
 274 0088 181C     		mov	r0, r3
 275 008a BD46     		mov	sp, r7
 276 008c 05B0     		add	sp, sp, #20
 277              		@ sp needed
 278 008e 90BD     		pop	{r4, r7, pc}
 279              	.L25:
 280              		.align	2
 281              	.L24:
 282 0090 00000000 		.word	.LC2
ARM GAS  C:\Users\Petro\AppData\Local\Temp\cczDLTQQ.s 			page 8


 283 0094 10000000 		.word	.LC4
 284 0098 24000000 		.word	.LC6
 285              		.cfi_endproc
 286              	.LFE64:
 287              		.size	SystemInit, .-SystemInit
 288              		.section	.rodata
 289              		.align	2
 290              	.LC8:
 291 0034 4E657477 		.ascii	"Network conn...\000"
 291      6F726B20 
 291      636F6E6E 
 291      2E2E2E00 
 292              		.align	2
 293              	.LC10:
 294 0044 53796E63 		.ascii	"Sync time...\000"
 294      2074696D 
 294      652E2E2E 
 294      00
 295 0051 000000   		.align	2
 296              	.LC12:
 297 0054 53796E63 		.ascii	"Sync ok\000"
 297      206F6B00 
 298              		.align	2
 299              	.LC14:
 300 005c 53796E63 		.ascii	"Sync time error\000"
 300      2074696D 
 300      65206572 
 300      726F7200 
 301              		.section	.text.TimeSynchronize,"ax",%progbits
 302              		.align	2
 303              		.global	TimeSynchronize
 304              		.code	16
 305              		.thumb_func
 306              		.type	TimeSynchronize, %function
 307              	TimeSynchronize:
 308              	.LFB65:
 107:main.c        **** 
 108:main.c        **** uint32_t TimeSynchronize(void)
 109:main.c        **** {
 309              		.loc 1 109 0
 310              		.cfi_startproc
 311 0000 80B5     		push	{r7, lr}
 312              		.cfi_def_cfa_offset 8
 313              		.cfi_offset 7, -8
 314              		.cfi_offset 14, -4
 315 0002 82B0     		sub	sp, sp, #8
 316              		.cfi_def_cfa_offset 16
 317 0004 00AF     		add	r7, sp, #0
 318              		.cfi_def_cfa_register 7
 110:main.c        ****     uint32_t result;
 111:main.c        ****     
 112:main.c        ****     LedBlink(FREQ_INIT_BLINK);
 319              		.loc 1 112 0
 320 0006 0A20     		mov	r0, #10
 321 0008 FFF7FEFF 		bl	LedBlink
 113:main.c        ****     
 114:main.c        ****     /* network connect */
ARM GAS  C:\Users\Petro\AppData\Local\Temp\cczDLTQQ.s 			page 9


 115:main.c        ****     if(NetworkStatus() == NETWORK_DISCONNECT)
 322              		.loc 1 115 0
 323 000c FFF7FEFF 		bl	NetworkStatus
 324 0010 031E     		sub	r3, r0, #0
 325 0012 09D1     		bne	.L27
 116:main.c        ****     {
 117:main.c        ****         Display("Network conn...");
 326              		.loc 1 117 0
 327 0014 1B4B     		ldr	r3, .L31
 328 0016 181C     		mov	r0, r3
 329 0018 FFF7FEFF 		bl	Display
 118:main.c        ****         MyDelay(TIMEOUT_DELAY);
 330              		.loc 1 118 0
 331 001c FA23     		mov	r3, #250
 332 001e 5B00     		lsl	r3, r3, #1
 333 0020 181C     		mov	r0, r3
 334 0022 FFF7FEFF 		bl	MyDelay
 335 0026 28E0     		b	.L28
 336              	.L27:
 119:main.c        ****     }
 120:main.c        ****     else
 121:main.c        ****     {  
 122:main.c        ****         /* time sync */
 123:main.c        ****         Display("Sync time...");
 337              		.loc 1 123 0
 338 0028 174B     		ldr	r3, .L31+4
 339 002a 181C     		mov	r0, r3
 340 002c FFF7FEFF 		bl	Display
 124:main.c        ****         if(NTPsync() == TIME_SYNC_OK)
 341              		.loc 1 124 0
 342 0030 FFF7FEFF 		bl	NTPsync
 343 0034 031E     		sub	r3, r0, #0
 344 0036 10D1     		bne	.L29
 125:main.c        ****         {
 126:main.c        ****             Display("Sync ok");
 345              		.loc 1 126 0
 346 0038 144B     		ldr	r3, .L31+8
 347 003a 181C     		mov	r0, r3
 348 003c FFF7FEFF 		bl	Display
 127:main.c        ****             ClearRebootFlag();
 349              		.loc 1 127 0
 350 0040 FFF7FEFF 		bl	ClearRebootFlag
 128:main.c        ****             BLE_sendSystemStatus(STATUS_OK);
 351              		.loc 1 128 0
 352 0044 0020     		mov	r0, #0
 353 0046 FFF7FEFF 		bl	BLE_sendSystemStatus
 129:main.c        ****             MyDelay(4 * TIMEOUT_USER_READ_INFO);
 354              		.loc 1 129 0
 355 004a FA23     		mov	r3, #250
 356 004c DB00     		lsl	r3, r3, #3
 357 004e 181C     		mov	r0, r3
 358 0050 FFF7FEFF 		bl	MyDelay
 130:main.c        ****             
 131:main.c        ****             result = TIME_SYNC_OK;
 359              		.loc 1 131 0
 360 0054 0023     		mov	r3, #0
 361 0056 7B60     		str	r3, [r7, #4]
ARM GAS  C:\Users\Petro\AppData\Local\Temp\cczDLTQQ.s 			page 10


 362 0058 0FE0     		b	.L28
 363              	.L29:
 132:main.c        ****         }
 133:main.c        ****         else
 134:main.c        ****         {
 135:main.c        ****             Display("Sync time error");
 364              		.loc 1 135 0
 365 005a 0D4B     		ldr	r3, .L31+12
 366 005c 181C     		mov	r0, r3
 367 005e FFF7FEFF 		bl	Display
 136:main.c        ****             SetRebootFlag();
 368              		.loc 1 136 0
 369 0062 FFF7FEFF 		bl	SetRebootFlag
 137:main.c        ****             BLE_sendSystemStatus(STATUS_ERROR);
 370              		.loc 1 137 0
 371 0066 0120     		mov	r0, #1
 372 0068 FFF7FEFF 		bl	BLE_sendSystemStatus
 138:main.c        ****             MyDelay(4 * TIMEOUT_USER_READ_INFO);
 373              		.loc 1 138 0
 374 006c FA23     		mov	r3, #250
 375 006e DB00     		lsl	r3, r3, #3
 376 0070 181C     		mov	r0, r3
 377 0072 FFF7FEFF 		bl	MyDelay
 139:main.c        ****             
 140:main.c        ****             result = TIME_SYNC_ERR;
 378              		.loc 1 140 0
 379 0076 0123     		mov	r3, #1
 380 0078 7B60     		str	r3, [r7, #4]
 381              	.L28:
 141:main.c        ****         }
 142:main.c        ****     }
 143:main.c        ****     
 144:main.c        ****     return result;
 382              		.loc 1 144 0
 383 007a 7B68     		ldr	r3, [r7, #4]
 145:main.c        **** }
 384              		.loc 1 145 0
 385 007c 181C     		mov	r0, r3
 386 007e BD46     		mov	sp, r7
 387 0080 02B0     		add	sp, sp, #8
 388              		@ sp needed
 389 0082 80BD     		pop	{r7, pc}
 390              	.L32:
 391              		.align	2
 392              	.L31:
 393 0084 34000000 		.word	.LC8
 394 0088 44000000 		.word	.LC10
 395 008c 54000000 		.word	.LC12
 396 0090 5C000000 		.word	.LC14
 397              		.cfi_endproc
 398              	.LFE65:
 399              		.size	TimeSynchronize, .-TimeSynchronize
 400              		.section	.rodata
 401              		.align	2
 402              	.LC16:
 403 006c 4572726F 		.ascii	"Error SD Card!\000"
 403      72205344 
ARM GAS  C:\Users\Petro\AppData\Local\Temp\cczDLTQQ.s 			page 11


 403      20436172 
 403      642100
 404 007b 00       		.align	2
 405              	.LC18:
 406 007c 4D617820 		.ascii	"Max skier on way\000"
 406      736B6965 
 406      72206F6E 
 406      20776179 
 406      00
 407 008d 000000   		.align	2
 408              	.LC20:
 409 0090 46696E69 		.ascii	"Finish Ready\000"
 409      73682052 
 409      65616479 
 409      00
 410              		.section	.text.CheckReady,"ax",%progbits
 411              		.align	2
 412              		.global	CheckReady
 413              		.code	16
 414              		.thumb_func
 415              		.type	CheckReady, %function
 416              	CheckReady:
 417              	.LFB66:
 146:main.c        **** 
 147:main.c        **** 
 148:main.c        **** uint32_t CheckReady(void)
 149:main.c        **** {
 418              		.loc 1 149 0
 419              		.cfi_startproc
 420 0000 80B5     		push	{r7, lr}
 421              		.cfi_def_cfa_offset 8
 422              		.cfi_offset 7, -8
 423              		.cfi_offset 14, -4
 424 0002 82B0     		sub	sp, sp, #8
 425              		.cfi_def_cfa_offset 16
 426 0004 00AF     		add	r7, sp, #0
 427              		.cfi_def_cfa_register 7
 150:main.c        ****     uint32_t result;   
 151:main.c        ****  
 152:main.c        ****     /*sise FIFO*/
 153:main.c        ****     if ((FifoGetSize() >= MAX_SKIERS_ON_BUF/*main_db_buffer) */)&& (FifoGetSize() <= MAX_FIFO_SIZE)
 428              		.loc 1 153 0
 429 0006 FFF7FEFF 		bl	FifoGetSize
 430 000a 031E     		sub	r3, r0, #0
 431 000c 072B     		cmp	r3, #7
 432 000e 15D9     		bls	.L34
 433              		.loc 1 153 0 is_stmt 0 discriminator 1
 434 0010 FFF7FEFF 		bl	FifoGetSize
 435 0014 031E     		sub	r3, r0, #0
 436 0016 0C2B     		cmp	r3, #12
 437 0018 10D8     		bhi	.L34
 154:main.c        ****     {
 155:main.c        ****         /*skier finish successful*/
 156:main.c        ****         Display("Error SD Card!");
 438              		.loc 1 156 0 is_stmt 1
 439 001a 304B     		ldr	r3, .L44
 440 001c 181C     		mov	r0, r3
ARM GAS  C:\Users\Petro\AppData\Local\Temp\cczDLTQQ.s 			page 12


 441 001e FFF7FEFF 		bl	Display
 157:main.c        ****         SendFinStatus(FIN_NO_READY); 
 442              		.loc 1 157 0
 443 0022 0020     		mov	r0, #0
 444 0024 FFF7FEFF 		bl	SendFinStatus
 158:main.c        ****         
 159:main.c        ****         if (SkierOnWay() != 0)
 445              		.loc 1 159 0
 446 0028 FFF7FEFF 		bl	SkierOnWay
 447 002c 031E     		sub	r3, r0, #0
 448 002e 02D0     		beq	.L35
 160:main.c        ****         {
 161:main.c        ****             /*if skiers on way*/
 162:main.c        ****             result = NO_ERROR;
 449              		.loc 1 162 0
 450 0030 0123     		mov	r3, #1
 451 0032 7B60     		str	r3, [r7, #4]
 159:main.c        ****         {
 452              		.loc 1 159 0
 453 0034 3FE0     		b	.L37
 454              	.L35:
 163:main.c        ****         }
 164:main.c        ****         else
 165:main.c        ****         {
 166:main.c        ****             /*if not skiers on way*/
 167:main.c        ****             result = ERROR;
 455              		.loc 1 167 0
 456 0036 0023     		mov	r3, #0
 457 0038 7B60     		str	r3, [r7, #4]
 159:main.c        ****         {
 458              		.loc 1 159 0
 459 003a 3CE0     		b	.L37
 460              	.L34:
 168:main.c        ****         }        
 169:main.c        ****     }
 170:main.c        ****     else if(FifoGetSize() > MAX_FIFO_SIZE)
 461              		.loc 1 170 0
 462 003c FFF7FEFF 		bl	FifoGetSize
 463 0040 031E     		sub	r3, r0, #0
 464 0042 0C2B     		cmp	r3, #12
 465 0044 09D9     		bls	.L38
 171:main.c        ****     {
 172:main.c        ****         /*skier finish no successful*/
 173:main.c        ****         Display("Error SD Card!");
 466              		.loc 1 173 0
 467 0046 254B     		ldr	r3, .L44
 468 0048 181C     		mov	r0, r3
 469 004a FFF7FEFF 		bl	Display
 174:main.c        ****         SendFinStatus(FIN_NO_READY); 
 470              		.loc 1 174 0
 471 004e 0020     		mov	r0, #0
 472 0050 FFF7FEFF 		bl	SendFinStatus
 175:main.c        ****         
 176:main.c        ****         result = ERROR;                
 473              		.loc 1 176 0
 474 0054 0023     		mov	r3, #0
 475 0056 7B60     		str	r3, [r7, #4]
ARM GAS  C:\Users\Petro\AppData\Local\Temp\cczDLTQQ.s 			page 13


 476 0058 2DE0     		b	.L37
 477              	.L38:
 177:main.c        ****     }
 178:main.c        ****     else if(SkierOnWay() >= MAX_SKIERS_ON_WAY/*MAX_COUNT, TRACK_OVERFLOW*/)
 478              		.loc 1 178 0
 479 005a FFF7FEFF 		bl	SkierOnWay
 480 005e 031E     		sub	r3, r0, #0
 481 0060 032B     		cmp	r3, #3
 482 0062 0ED9     		bls	.L39
 179:main.c        ****     {
 180:main.c        ****         /*max skier on way*/
 181:main.c        ****      
 182:main.c        ****         Display("Max skier on way");
 483              		.loc 1 182 0
 484 0064 1E4B     		ldr	r3, .L44+4
 485 0066 181C     		mov	r0, r3
 486 0068 FFF7FEFF 		bl	Display
 183:main.c        ****         SendFinStatus(FIN_NO_READY);
 487              		.loc 1 183 0
 488 006c 0020     		mov	r0, #0
 489 006e FFF7FEFF 		bl	SendFinStatus
 184:main.c        ****         MyDelay(TIMEOUT_USER_READ_INFO);
 490              		.loc 1 184 0
 491 0072 FA23     		mov	r3, #250
 492 0074 5B00     		lsl	r3, r3, #1
 493 0076 181C     		mov	r0, r3
 494 0078 FFF7FEFF 		bl	MyDelay
 185:main.c        ****         
 186:main.c        ****         result = NO_ERROR;      
 495              		.loc 1 186 0
 496 007c 0123     		mov	r3, #1
 497 007e 7B60     		str	r3, [r7, #4]
 498 0080 19E0     		b	.L37
 499              	.L39:
 187:main.c        ****     }
 188:main.c        ****     else if(SkierOnWay() == 0)
 500              		.loc 1 188 0
 501 0082 FFF7FEFF 		bl	SkierOnWay
 502 0086 031E     		sub	r3, r0, #0
 503 0088 0CD1     		bne	.L40
 189:main.c        ****     {
 190:main.c        ****         Display("Finish Ready");
 504              		.loc 1 190 0
 505 008a 164B     		ldr	r3, .L44+8
 506 008c 181C     		mov	r0, r3
 507 008e FFF7FEFF 		bl	Display
 191:main.c        ****         SendFinStatus(FIN_READY);
 508              		.loc 1 191 0
 509 0092 0120     		mov	r0, #1
 510 0094 FFF7FEFF 		bl	SendFinStatus
 192:main.c        ****         SetLedState(LED_DISABLE);        
 511              		.loc 1 192 0
 512 0098 0020     		mov	r0, #0
 513 009a FFF7FEFF 		bl	SetLedState
 193:main.c        ****         
 194:main.c        ****         result = ERROR;      
 514              		.loc 1 194 0
ARM GAS  C:\Users\Petro\AppData\Local\Temp\cczDLTQQ.s 			page 14


 515 009e 0023     		mov	r3, #0
 516 00a0 7B60     		str	r3, [r7, #4]
 517 00a2 08E0     		b	.L37
 518              	.L40:
 195:main.c        ****     }
 196:main.c        ****     else
 197:main.c        ****     {
 198:main.c        ****         /*finish ready*/
 199:main.c        ****         SendFinStatus(FIN_READY);
 519              		.loc 1 199 0
 520 00a4 0120     		mov	r0, #1
 521 00a6 FFF7FEFF 		bl	SendFinStatus
 200:main.c        ****         Display("Finish Ready");
 522              		.loc 1 200 0
 523 00aa 0E4B     		ldr	r3, .L44+8
 524 00ac 181C     		mov	r0, r3
 525 00ae FFF7FEFF 		bl	Display
 201:main.c        ****         
 202:main.c        ****         result = NO_ERROR;
 526              		.loc 1 202 0
 527 00b2 0123     		mov	r3, #1
 528 00b4 7B60     		str	r3, [r7, #4]
 529              	.L37:
 203:main.c        ****     }
 204:main.c        ****     
 205:main.c        ****     //if(ReadRebootStartFlag() == REBOOT/*IS*/)
 206:main.c        ****     if(IsRebootStartFlag() == REBOOT)
 530              		.loc 1 206 0
 531 00b6 FFF7FEFF 		bl	IsRebootStartFlag
 532 00ba 031E     		sub	r3, r0, #0
 533 00bc FF2B     		cmp	r3, #255
 534 00be 01D1     		bne	.L41
 207:main.c        ****     {
 208:main.c        ****         result = REBOOT;
 535              		.loc 1 208 0
 536 00c0 FF23     		mov	r3, #255
 537 00c2 7B60     		str	r3, [r7, #4]
 538              	.L41:
 209:main.c        ****     }
 210:main.c        ****     
 211:main.c        ****     /*if  admin , read skier time from SD card and send bluetooth*/
 212:main.c        ****     if(BLE_getFlagAdminOnly() != 0)
 539              		.loc 1 212 0
 540 00c4 FFF7FEFF 		bl	BLE_getFlagAdminOnly
 541 00c8 031E     		sub	r3, r0, #0
 542 00ca 01D0     		beq	.L42
 213:main.c        ****     {
 214:main.c        ****         ReadSkierResultAndSendBLE();
 543              		.loc 1 214 0
 544 00cc FFF7FEFF 		bl	ReadSkierResultAndSendBLE
 545              	.L42:
 215:main.c        ****     }
 216:main.c        ****            
 217:main.c        ****     return result;
 546              		.loc 1 217 0
 547 00d0 7B68     		ldr	r3, [r7, #4]
 218:main.c        **** }
ARM GAS  C:\Users\Petro\AppData\Local\Temp\cczDLTQQ.s 			page 15


 548              		.loc 1 218 0
 549 00d2 181C     		mov	r0, r3
 550 00d4 BD46     		mov	sp, r7
 551 00d6 02B0     		add	sp, sp, #8
 552              		@ sp needed
 553 00d8 80BD     		pop	{r7, pc}
 554              	.L45:
 555 00da C046     		.align	2
 556              	.L44:
 557 00dc 6C000000 		.word	.LC16
 558 00e0 7C000000 		.word	.LC18
 559 00e4 90000000 		.word	.LC20
 560              		.cfi_endproc
 561              	.LFE66:
 562              		.size	CheckReady, .-CheckReady
 563              		.section	.rodata
 564 009d 000000   		.align	2
 565              	.LC22:
 566 00a0 536B6965 		.ascii	"Skier Finished\000"
 566      72204669 
 566      6E697368 
 566      656400
 567              		.section	.text.CheckGate,"ax",%progbits
 568              		.align	2
 569              		.global	CheckGate
 570              		.code	16
 571              		.thumb_func
 572              		.type	CheckGate, %function
 573              	CheckGate:
 574              	.LFB67:
 219:main.c        **** 
 220:main.c        **** uint32_t CheckGate(void)
 221:main.c        **** {
 575              		.loc 1 221 0
 576              		.cfi_startproc
 577 0000 80B5     		push	{r7, lr}
 578              		.cfi_def_cfa_offset 8
 579              		.cfi_offset 7, -8
 580              		.cfi_offset 14, -4
 581 0002 82B0     		sub	sp, sp, #8
 582              		.cfi_def_cfa_offset 16
 583 0004 00AF     		add	r7, sp, #0
 584              		.cfi_def_cfa_register 7
 222:main.c        ****     uint32_t result;
 223:main.c        ****     
 224:main.c        ****     SetLedState(LED_ENABLE);
 585              		.loc 1 224 0
 586 0006 0120     		mov	r0, #1
 587 0008 FFF7FEFF 		bl	SetLedState
 225:main.c        ****     result = GateIsOpen();/*IsGateOpen(), CheckGateStatus()*/
 588              		.loc 1 225 0
 589 000c FFF7FEFF 		bl	GateIsOpen
 590 0010 031C     		mov	r3, r0
 591 0012 7B60     		str	r3, [r7, #4]
 226:main.c        ****     
 227:main.c        ****     if(result == GATE_OPEN)
 592              		.loc 1 227 0
ARM GAS  C:\Users\Petro\AppData\Local\Temp\cczDLTQQ.s 			page 16


 593 0014 7B68     		ldr	r3, [r7, #4]
 594 0016 012B     		cmp	r3, #1
 595 0018 09D1     		bne	.L47
 228:main.c        ****     {
 229:main.c        ****         Display("Skier Finished");
 596              		.loc 1 229 0
 597 001a 084B     		ldr	r3, .L50
 598 001c 181C     		mov	r0, r3
 599 001e FFF7FEFF 		bl	Display
 230:main.c        ****         MyDelay(TIMEOUT_USER_READ_INFO);
 600              		.loc 1 230 0
 601 0022 FA23     		mov	r3, #250
 602 0024 5B00     		lsl	r3, r3, #1
 603 0026 181C     		mov	r0, r3
 604 0028 FFF7FEFF 		bl	MyDelay
 605 002c 01E0     		b	.L48
 606              	.L47:
 231:main.c        ****     }
 232:main.c        ****     else
 233:main.c        ****     {
 234:main.c        ****         AllowNextSkier();
 607              		.loc 1 234 0
 608 002e FFF7FEFF 		bl	AllowNextSkier
 609              	.L48:
 235:main.c        ****     }
 236:main.c        ****     
 237:main.c        ****     return result;  
 610              		.loc 1 237 0
 611 0032 7B68     		ldr	r3, [r7, #4]
 238:main.c        **** }
 612              		.loc 1 238 0
 613 0034 181C     		mov	r0, r3
 614 0036 BD46     		mov	sp, r7
 615 0038 02B0     		add	sp, sp, #8
 616              		@ sp needed
 617 003a 80BD     		pop	{r7, pc}
 618              	.L51:
 619              		.align	2
 620              	.L50:
 621 003c A0000000 		.word	.LC22
 622              		.cfi_endproc
 623              	.LFE67:
 624              		.size	CheckGate, .-CheckGate
 625              		.section	.rodata
 626 00af 00       		.align	2
 627              	.LC24:
 628 00b0 53617665 		.ascii	"Save data\000"
 628      20646174 
 628      6100
 629 00ba 0000     		.section	.text.SaveResult,"ax",%progbits
 630              		.align	2
 631              		.global	SaveResult
 632              		.code	16
 633              		.thumb_func
 634              		.type	SaveResult, %function
 635              	SaveResult:
 636              	.LFB68:
ARM GAS  C:\Users\Petro\AppData\Local\Temp\cczDLTQQ.s 			page 17


 239:main.c        **** 
 240:main.c        **** void SaveResult(void)
 241:main.c        **** {
 637              		.loc 1 241 0
 638              		.cfi_startproc
 639 0000 90B5     		push	{r4, r7, lr}
 640              		.cfi_def_cfa_offset 12
 641              		.cfi_offset 4, -12
 642              		.cfi_offset 7, -8
 643              		.cfi_offset 14, -4
 644 0002 85B0     		sub	sp, sp, #20
 645              		.cfi_def_cfa_offset 32
 646 0004 00AF     		add	r7, sp, #0
 647              		.cfi_def_cfa_register 7
 242:main.c        ****     uint64_t finUnixTime;
 243:main.c        ****     uint32_t finRecentMs;
 244:main.c        ****     
 245:main.c        ****     SendFinStatus(FIN_READY);
 648              		.loc 1 245 0
 649 0006 0120     		mov	r0, #1
 650 0008 FFF7FEFF 		bl	SendFinStatus
 246:main.c        ****     LedBlink(FREQ_INIT_BLINK);
 651              		.loc 1 246 0
 652 000c 0A20     		mov	r0, #10
 653 000e FFF7FEFF 		bl	LedBlink
 247:main.c        ****     Display("Save data");
 654              		.loc 1 247 0
 655 0012 164B     		ldr	r3, .L53
 656 0014 181C     		mov	r0, r3
 657 0016 FFF7FEFF 		bl	Display
 248:main.c        ****     MyDelay(TIMEOUT_USER_READ_INFO);
 658              		.loc 1 248 0
 659 001a FA23     		mov	r3, #250
 660 001c 5B00     		lsl	r3, r3, #1
 661 001e 181C     		mov	r0, r3
 662 0020 FFF7FEFF 		bl	MyDelay
 249:main.c        ****     
 250:main.c        ****     /*write time in fifo*/
 251:main.c        ****     GetFinTime(&finUnixTime, &finRecentMs);
 663              		.loc 1 251 0
 664 0024 0823     		mov	r3, #8
 665 0026 FA18     		add	r2, r7, r3
 666 0028 3B1D     		add	r3, r7, #4
 667 002a 101C     		mov	r0, r2
 668 002c 191C     		mov	r1, r3
 669 002e FFF7FEFF 		bl	GetFinTime
 252:main.c        ****     WriteFinishTime(finUnixTime,finRecentMs);
 670              		.loc 1 252 0
 671 0032 BB68     		ldr	r3, [r7, #8]
 672 0034 FC68     		ldr	r4, [r7, #12]
 673 0036 7A68     		ldr	r2, [r7, #4]
 674 0038 92B2     		uxth	r2, r2
 675 003a 181C     		mov	r0, r3
 676 003c 211C     		mov	r1, r4
 677 003e FFF7FEFF 		bl	WriteFinishTime
 253:main.c        ****     
 254:main.c        ****     FifoPushLastFinished();
ARM GAS  C:\Users\Petro\AppData\Local\Temp\cczDLTQQ.s 			page 18


 678              		.loc 1 254 0
 679 0042 FFF7FEFF 		bl	FifoPushLastFinished
 255:main.c        ****     
 256:main.c        ****     /*print time result last skier finished*/
 257:main.c        ****     DisplayLastSkierTime(LastSecTimeOnWay(),LastMillsTimeOnWay());/*LastTimeOnWaySecs(), LastTimeOn
 680              		.loc 1 257 0
 681 0046 FFF7FEFF 		bl	LastSecTimeOnWay
 682 004a 041C     		mov	r4, r0
 683 004c FFF7FEFF 		bl	LastMillsTimeOnWay
 684 0050 031C     		mov	r3, r0
 685 0052 9BB2     		uxth	r3, r3
 686 0054 201C     		mov	r0, r4
 687 0056 191C     		mov	r1, r3
 688 0058 FFF7FEFF 		bl	DisplayLastSkierTime
 258:main.c        ****     MyDelay(2*TIMEOUT_USER_READ_INFO);
 689              		.loc 1 258 0
 690 005c FA23     		mov	r3, #250
 691 005e 9B00     		lsl	r3, r3, #2
 692 0060 181C     		mov	r0, r3
 693 0062 FFF7FEFF 		bl	MyDelay
 259:main.c        **** }
 694              		.loc 1 259 0
 695 0066 BD46     		mov	sp, r7
 696 0068 05B0     		add	sp, sp, #20
 697              		@ sp needed
 698 006a 90BD     		pop	{r4, r7, pc}
 699              	.L54:
 700              		.align	2
 701              	.L53:
 702 006c B0000000 		.word	.LC24
 703              		.cfi_endproc
 704              	.LFE68:
 705              		.size	SaveResult, .-SaveResult
 706              		.text
 707              	.Letext0:
 708              		.file 2 "c:\\program files (x86)\\cypress\\psoc creator\\4.0\\psoc creator\\import\\gnu\\arm\\4.9.
 709              		.file 3 "c:\\program files (x86)\\cypress\\psoc creator\\4.0\\psoc creator\\import\\gnu\\arm\\4.9.
 710              		.file 4 "Generated_Source\\PSoC4/ble_Stack.h"
 711              		.file 5 "lib_BLE\\bluetooth.h"
 712              		.file 6 "appGlobal.h"