ARM GAS  C:\Users\Petro\AppData\Local\Temp\cc7wT3EA.s 			page 1


   1              		.cpu cortex-m0
   2              		.fpu softvfp
   3              		.eabi_attribute 20, 1
   4              		.eabi_attribute 21, 1
   5              		.eabi_attribute 23, 3
   6              		.eabi_attribute 24, 1
   7              		.eabi_attribute 25, 1
   8              		.eabi_attribute 26, 1
   9              		.eabi_attribute 30, 6
  10              		.eabi_attribute 34, 0
  11              		.eabi_attribute 18, 4
  12              		.code	16
  13              		.file	"network.c"
  14              		.text
  15              	.Ltext0:
  16              		.cfi_sections	.debug_frame
  17              		.comm	outData,24,8
  18              		.comm	inData,24,8
  19              		.comm	rebootFlag,1,1
  20              		.comm	numAttemps,4,4
  21              		.comm	noConnect,4,4
  22              		.comm	networkStatus,4,4
  23              		.comm	unixTime,16,4
  24              		.comm	millisTime,8,4
  25              		.section	.text.InitNetwork,"ax",%progbits
  26              		.align	2
  27              		.global	InitNetwork
  28              		.code	16
  29              		.thumb_func
  30              		.type	InitNetwork, %function
  31              	InitNetwork:
  32              	.LFB63:
  33              		.file 1 "network.c"
   1:network.c     **** 
   2:network.c     **** #include "lib_Network/network.h"
   3:network.c     **** #include <lib_BLE/bluetooth.h>
   4:network.c     **** #include <UART_XB.h>
   5:network.c     **** #include <UART_XB_SPI_UART.h>
   6:network.c     **** 
   7:network.c     **** #ifdef DEBUG_INFO
   8:network.c     ****     #include <SW_UART_DEBUG.h>
   9:network.c     **** #endif
  10:network.c     **** #ifdef DEBUG_TIME
  11:network.c     ****     #include <debug.h>
  12:network.c     **** #endif
  13:network.c     **** #ifdef DEBUG_NTP
  14:network.c     ****     #include <debugntp.h>
  15:network.c     **** #endif
  16:network.c     **** #ifdef DEBUGNTP
  17:network.c     ****     #include <pinDebugNtp.h>
  18:network.c     **** #endif
  19:network.c     **** 
  20:network.c     **** #include "lib_Network/svt.h"
  21:network.c     **** #include "lib_DB/database.h"
  22:network.c     **** #include "lib_RTC/RTC_WDT.h"
  23:network.c     **** #include "lib_Network/ntp.h"
  24:network.c     **** #include "lib_Display/display.h"
ARM GAS  C:\Users\Petro\AppData\Local\Temp\cc7wT3EA.s 			page 2


  25:network.c     **** 
  26:network.c     **** 
  27:network.c     **** /*size buffer*/
  28:network.c     **** #define DATA_BUFFER   50
  29:network.c     ****  
  30:network.c     **** #define ADRESS_READY        8
  31:network.c     **** #define ADRESS_REBOOT       9
  32:network.c     **** #define ADRESS_COUNT_SK     10
  33:network.c     **** 
  34:network.c     **** #define NETWORK_TIMEOUT     50
  35:network.c     **** 
  36:network.c     **** /*for NTP protocol*/
  37:network.c     **** #define NUM_TRY_SYNC        14
  38:network.c     **** #define NUM_CONNECT_ATTEMPS 50
  39:network.c     **** #define NUM_TRU_SEND_PACKET 6
  40:network.c     ****     
  41:network.c     **** /*segment time for NTP*/
  42:network.c     **** #define T1                  0
  43:network.c     **** #define T2                  1
  44:network.c     **** #define T3                  2
  45:network.c     **** #define T4                  3
  46:network.c     **** 
  47:network.c     **** typedef struct
  48:network.c     **** {
  49:network.c     ****     /*data to transmit*/
  50:network.c     ****     uint8_t IDpacket;    
  51:network.c     ****     uint8_t ready;          /*flag readu finish*/
  52:network.c     ****     uint8_t reboot;         /*flag finish reboot*/
  53:network.c     ****     uint8_t countSkiers;
  54:network.c     ****     
  55:network.c     ****     uint64_t tmpTime;
  56:network.c     ****     uint16_t tmpMsTime;
  57:network.c     ****     uint8_t writeStatus;    /*flag transmitt data*/
  58:network.c     **** }FinishData;
  59:network.c     **** 
  60:network.c     **** typedef struct
  61:network.c     **** {
  62:network.c     ****     /*data to receive*/
  63:network.c     ****     uint8_t IDpacket;
  64:network.c     ****     uint64_t unixStartTime;
  65:network.c     ****     uint16_t startMsTime;
  66:network.c     ****     uint8_t newSkier;
  67:network.c     ****     uint8_t reboot;     /*reboot=1, no reboot=0*/
  68:network.c     ****     
  69:network.c     ****     uint8_t readStatus;     /*flag successful read data in start*/
  70:network.c     **** }StartData;
  71:network.c     **** 
  72:network.c     **** FinishData outData ;
  73:network.c     **** StartData inData;
  74:network.c     **** uint8_t rebootFlag ;
  75:network.c     **** 
  76:network.c     **** uint32_t numAttemps,noConnect, networkStatus;
  77:network.c     **** uint32_t unixTime[4];
  78:network.c     **** uint16_t millisTime[4];
  79:network.c     **** 
  80:network.c     **** 
  81:network.c     **** uint32_t SendRealTimeToStart(void);
ARM GAS  C:\Users\Petro\AppData\Local\Temp\cc7wT3EA.s 			page 3


  82:network.c     **** void NTPsendTime(uint32_t unixTime1,uint16_t millis1, uint16_t ID);
  83:network.c     **** uint32_t NTPreceiveTime(uint32_t *unixTime2,uint16_t *millis2, uint32_t *unixTime3, uint16_t *milli
  84:network.c     **** uint32_t NTPsetTimeToStart(uint32_t unixTime4,uint16_t millis4,  uint16_t ID);
  85:network.c     **** void NTPcalculateTime(uint32_t unixTime[], uint16_t msTime[], int32_t *sumTime, int32_t *sumMs);
  86:network.c     **** 
  87:network.c     **** 
  88:network.c     **** 
  89:network.c     **** /*******************************************************************************
  90:network.c     **** * Function Name: InitNetwork
  91:network.c     **** ********************************************************************************
  92:network.c     **** *
  93:network.c     **** * Summary:
  94:network.c     **** *   initialization UART for XBee module
  95:network.c     **** *
  96:network.c     **** *******************************************************************************/
  97:network.c     **** void InitNetwork(void)
  98:network.c     **** {
  34              		.loc 1 98 0
  35              		.cfi_startproc
  36 0000 80B5     		push	{r7, lr}
  37              		.cfi_def_cfa_offset 8
  38              		.cfi_offset 7, -8
  39              		.cfi_offset 14, -4
  40 0002 00AF     		add	r7, sp, #0
  41              		.cfi_def_cfa_register 7
  99:network.c     ****     UART_XB_Start();
  42              		.loc 1 99 0
  43 0004 FFF7FEFF 		bl	UART_XB_Start
 100:network.c     ****     #ifdef DEBUG_INFO
 101:network.c     ****     SW_UART_DEBUG_Start();     
 102:network.c     ****     SW_UART_DEBUG_PutString("HElLO, IM READY(fin)\n\r");
 103:network.c     ****     #endif
 104:network.c     ****     
 105:network.c     ****     inData.readStatus = READ_OK;
  44              		.loc 1 105 0
  45 0008 064B     		ldr	r3, .L2
  46 000a 0122     		mov	r2, #1
  47 000c 1A75     		strb	r2, [r3, #20]
 106:network.c     ****     outData.writeStatus = NO_WRITE;
  48              		.loc 1 106 0
  49 000e 064B     		ldr	r3, .L2+4
  50 0010 0022     		mov	r2, #0
  51 0012 9A74     		strb	r2, [r3, #18]
 107:network.c     ****     UART_XB_SpiUartClearRxBuffer();
  52              		.loc 1 107 0
  53 0014 FFF7FEFF 		bl	UART_XB_SpiUartClearRxBuffer
 108:network.c     ****     
 109:network.c     ****     rebootFlag = REBOOT;
  54              		.loc 1 109 0
  55 0018 044B     		ldr	r3, .L2+8
  56 001a FF22     		mov	r2, #255
  57 001c 1A70     		strb	r2, [r3]
 110:network.c     **** }
  58              		.loc 1 110 0
  59 001e BD46     		mov	sp, r7
  60              		@ sp needed
  61 0020 80BD     		pop	{r7, pc}
ARM GAS  C:\Users\Petro\AppData\Local\Temp\cc7wT3EA.s 			page 4


  62              	.L3:
  63 0022 C046     		.align	2
  64              	.L2:
  65 0024 00000000 		.word	inData
  66 0028 00000000 		.word	outData
  67 002c 00000000 		.word	rebootFlag
  68              		.cfi_endproc
  69              	.LFE63:
  70              		.size	InitNetwork, .-InitNetwork
  71              		.section	.rodata
  72              		.align	2
  73              	.LC5:
  74 0000 25303258 		.ascii	"%02X:%016X%02X%02X%02X%02X\000"
  74      3A253031 
  74      36582530 
  74      32582530 
  74      32582530 
  75              		.section	.text.SendData,"ax",%progbits
  76              		.align	2
  77              		.global	SendData
  78              		.code	16
  79              		.thumb_func
  80              		.type	SendData, %function
  81              	SendData:
  82              	.LFB64:
 111:network.c     **** 
 112:network.c     **** /*******************************************************************************
 113:network.c     **** * Function Name: SendData
 114:network.c     **** ********************************************************************************
 115:network.c     **** *
 116:network.c     **** * Summary:
 117:network.c     **** *   send data to start from struct "outData"
 118:network.c     **** *
 119:network.c     **** *******************************************************************************/
 120:network.c     **** void SendData(void)
 121:network.c     **** {   
  83              		.loc 1 121 0
  84              		.cfi_startproc
  85 0000 90B5     		push	{r4, r7, lr}
  86              		.cfi_def_cfa_offset 12
  87              		.cfi_offset 4, -12
  88              		.cfi_offset 7, -8
  89              		.cfi_offset 14, -4
  90 0002 9FB0     		sub	sp, sp, #124
  91              		.cfi_def_cfa_offset 136
  92 0004 04AF     		add	r7, sp, #16
  93              		.cfi_def_cfa 7, 120
 122:network.c     ****     if( outData.writeStatus == NO_WRITE || inData.readStatus == READ_OK)
  94              		.loc 1 122 0
  95 0006 214B     		ldr	r3, .L7
  96 0008 9B7C     		ldrb	r3, [r3, #18]
  97 000a 002B     		cmp	r3, #0
  98 000c 03D0     		beq	.L5
  99              		.loc 1 122 0 is_stmt 0 discriminator 1
 100 000e 204B     		ldr	r3, .L7+4
 101 0010 1B7D     		ldrb	r3, [r3, #20]
 102 0012 012B     		cmp	r3, #1
ARM GAS  C:\Users\Petro\AppData\Local\Temp\cc7wT3EA.s 			page 5


 103 0014 36D1     		bne	.L4
 104              	.L5:
 105              	.LBB2:
 123:network.c     ****     {
 124:network.c     ****         char sendBuffer[DATA_BUFFER];
 125:network.c     ****         char sendData[DATA_BUFFER];
 126:network.c     ****         
 127:network.c     ****         outData.countSkiers = SkierOnWay();
 106              		.loc 1 127 0 is_stmt 1
 107 0016 FFF7FEFF 		bl	SkierOnWay
 108 001a 031C     		mov	r3, r0
 109 001c DAB2     		uxtb	r2, r3
 110 001e 1B4B     		ldr	r3, .L7
 111 0020 DA70     		strb	r2, [r3, #3]
 128:network.c     ****         
 129:network.c     ****         /*pack data*/
 130:network.c     ****         sprintf(sendData,"%02X:%016X%02X%02X%02X%02X", 0u, 0u, outData.ready, outData.reboot, \
 112              		.loc 1 130 0
 113 0022 1A4B     		ldr	r3, .L7
 114 0024 5B78     		ldrb	r3, [r3, #1]
 115 0026 1C1C     		mov	r4, r3
 116 0028 184B     		ldr	r3, .L7
 117 002a 9B78     		ldrb	r3, [r3, #2]
 118 002c 181C     		mov	r0, r3
 131:network.c     ****             outData.countSkiers, 0u);    
 119              		.loc 1 131 0
 120 002e 174B     		ldr	r3, .L7
 121 0030 DB78     		ldrb	r3, [r3, #3]
 130:network.c     ****             outData.countSkiers, 0u);    
 122              		.loc 1 130 0
 123 0032 3422     		mov	r2, #52
 124 0034 B918     		add	r1, r7, r2
 125 0036 174A     		ldr	r2, .L7+8
 126 0038 0094     		str	r4, [sp]
 127 003a 0190     		str	r0, [sp, #4]
 128 003c 0293     		str	r3, [sp, #8]
 129 003e 0023     		mov	r3, #0
 130 0040 0393     		str	r3, [sp, #12]
 131 0042 081C     		mov	r0, r1
 132 0044 111C     		mov	r1, r2
 133 0046 0022     		mov	r2, #0
 134 0048 0023     		mov	r3, #0
 135 004a FFF7FEFF 		bl	sprintf
 132:network.c     ****         PackData(sendBuffer, (uint8_t *)sendData, outData.IDpacket);
 136              		.loc 1 132 0
 137 004e 0F4B     		ldr	r3, .L7
 138 0050 1B78     		ldrb	r3, [r3]
 139 0052 9BB2     		uxth	r3, r3
 140 0054 391C     		mov	r1, r7
 141 0056 3422     		mov	r2, #52
 142 0058 BA18     		add	r2, r7, r2
 143 005a 081C     		mov	r0, r1
 144 005c 111C     		mov	r1, r2
 145 005e 1A1C     		mov	r2, r3
 146 0060 FFF7FEFF 		bl	PackData
 133:network.c     ****         UART_XB_UartPutString(sendBuffer);
 147              		.loc 1 133 0
ARM GAS  C:\Users\Petro\AppData\Local\Temp\cc7wT3EA.s 			page 6


 148 0064 3B1C     		mov	r3, r7
 149 0066 181C     		mov	r0, r3
 150 0068 FFF7FEFF 		bl	UART_XB_UartPutString
 134:network.c     ****         
 135:network.c     ****         
 136:network.c     ****         /*flag transmit data*/
 137:network.c     ****         outData.writeStatus = WRITE_OK;
 151              		.loc 1 137 0
 152 006c 074B     		ldr	r3, .L7
 153 006e 0122     		mov	r2, #1
 154 0070 9A74     		strb	r2, [r3, #18]
 138:network.c     ****         inData.readStatus = NO_READ;
 155              		.loc 1 138 0
 156 0072 074B     		ldr	r3, .L7+4
 157 0074 0022     		mov	r2, #0
 158 0076 1A75     		strb	r2, [r3, #20]
 139:network.c     ****         
 140:network.c     ****         /*set timeout*/
 141:network.c     ****         noConnect = 0; 
 159              		.loc 1 141 0
 160 0078 074B     		ldr	r3, .L7+12
 161 007a 0022     		mov	r2, #0
 162 007c 1A60     		str	r2, [r3]
 142:network.c     ****         
 143:network.c     ****         CyDelay(50);
 163              		.loc 1 143 0
 164 007e 3220     		mov	r0, #50
 165 0080 FFF7FEFF 		bl	CyDelay
 166              	.L4:
 167              	.LBE2:
 144:network.c     ****     }
 145:network.c     **** }
 168              		.loc 1 145 0
 169 0084 BD46     		mov	sp, r7
 170 0086 1BB0     		add	sp, sp, #108
 171              		@ sp needed
 172 0088 90BD     		pop	{r4, r7, pc}
 173              	.L8:
 174 008a C046     		.align	2
 175              	.L7:
 176 008c 00000000 		.word	outData
 177 0090 00000000 		.word	inData
 178 0094 00000000 		.word	.LC5
 179 0098 00000000 		.word	noConnect
 180              		.cfi_endproc
 181              	.LFE64:
 182              		.size	SendData, .-SendData
 183              		.section	.text.ReceiveData,"ax",%progbits
 184              		.align	2
 185              		.global	ReceiveData
 186              		.code	16
 187              		.thumb_func
 188              		.type	ReceiveData, %function
 189              	ReceiveData:
 190              	.LFB65:
 146:network.c     **** 
 147:network.c     **** /*******************************************************************************
ARM GAS  C:\Users\Petro\AppData\Local\Temp\cc7wT3EA.s 			page 7


 148:network.c     **** * Function Name: ReceiveData
 149:network.c     **** ********************************************************************************
 150:network.c     **** *
 151:network.c     **** * Summary:
 152:network.c     **** *   receive data from start in struct "inData"
 153:network.c     **** * Return:
 154:network.c     **** *   NETWORK_CONNECT or NETWORK_DISCONNECT
 155:network.c     **** *
 156:network.c     **** *******************************************************************************/
 157:network.c     **** uint32_t  ReceiveData(void)
 158:network.c     **** {   
 191              		.loc 1 158 0
 192              		.cfi_startproc
 193 0000 F0B5     		push	{r4, r5, r6, r7, lr}
 194              		.cfi_def_cfa_offset 20
 195              		.cfi_offset 4, -20
 196              		.cfi_offset 5, -16
 197              		.cfi_offset 6, -12
 198              		.cfi_offset 7, -8
 199              		.cfi_offset 14, -4
 200 0002 4746     		mov	r7, r8
 201 0004 80B4     		push	{r7}
 202              		.cfi_def_cfa_offset 24
 203              		.cfi_offset 8, -24
 204 0006 8CB0     		sub	sp, sp, #48
 205              		.cfi_def_cfa_offset 72
 206 0008 02AF     		add	r7, sp, #8
 207              		.cfi_def_cfa 7, 64
 159:network.c     ****     if(inData.readStatus == NO_READ && outData.writeStatus == WRITE_OK)
 208              		.loc 1 159 0
 209 000a 644B     		ldr	r3, .L20
 210 000c 1B7D     		ldrb	r3, [r3, #20]
 211 000e 002B     		cmp	r3, #0
 212 0010 00D0     		beq	.LCB153
 213 0012 BCE0     		b	.L10	@long jump
 214              	.LCB153:
 215              		.loc 1 159 0 is_stmt 0 discriminator 1
 216 0014 624B     		ldr	r3, .L20+4
 217 0016 9B7C     		ldrb	r3, [r3, #18]
 218 0018 012B     		cmp	r3, #1
 219 001a 00D0     		beq	.LCB157
 220 001c B7E0     		b	.L10	@long jump
 221              	.LCB157:
 222              	.LBB3:
 160:network.c     ****     {
 161:network.c     ****         uint32_t result = 0;
 223              		.loc 1 161 0 is_stmt 1
 224 001e 0023     		mov	r3, #0
 225 0020 7B62     		str	r3, [r7, #36]
 162:network.c     ****         int i;
 163:network.c     ****         uint8_t byte;
 164:network.c     ****         struct Resp recvData;
 165:network.c     ****           
 166:network.c     ****         while((UART_XB_SpiUartGetRxBufferSize() > 0) && ((byte=UART_XB_UartGetChar()) != 0))
 226              		.loc 1 166 0
 227 0022 90E0     		b	.L11
 228              	.L17:
ARM GAS  C:\Users\Petro\AppData\Local\Temp\cc7wT3EA.s 			page 8


 167:network.c     ****         { 
 168:network.c     ****             result = UnpackData(&recvData, (uint8_t)(byte & 0xFF));
 229              		.loc 1 168 0
 230 0024 3A1C     		mov	r2, r7
 231 0026 2323     		mov	r3, #35
 232 0028 FB18     		add	r3, r7, r3
 233 002a 1B78     		ldrb	r3, [r3]
 234 002c 101C     		mov	r0, r2
 235 002e 191C     		mov	r1, r3
 236 0030 FFF7FEFF 		bl	UnpackData
 237 0034 031C     		mov	r3, r0
 238 0036 7B62     		str	r3, [r7, #36]
 169:network.c     ****             CyDelay(2);
 239              		.loc 1 169 0
 240 0038 0220     		mov	r0, #2
 241 003a FFF7FEFF 		bl	CyDelay
 170:network.c     ****             
 171:network.c     ****             
 172:network.c     ****             if(recvData.EndPacket == 1)
 242              		.loc 1 172 0
 243 003e 3B1C     		mov	r3, r7
 244 0040 1B7E     		ldrb	r3, [r3, #24]
 245 0042 012B     		cmp	r3, #1
 246 0044 00D0     		beq	.LCB179
 247 0046 7EE0     		b	.L11	@long jump
 248              	.LCB179:
 173:network.c     ****             {
 174:network.c     ****                 inData.IDpacket = recvData.Seq;
 249              		.loc 1 174 0
 250 0048 3B1C     		mov	r3, r7
 251 004a 1B88     		ldrh	r3, [r3]
 252 004c DAB2     		uxtb	r2, r3
 253 004e 534B     		ldr	r3, .L20
 254 0050 1A70     		strb	r2, [r3]
 175:network.c     ****                 
 176:network.c     ****                 /*id packet ok*/
 177:network.c     ****                 if(outData.IDpacket == inData.IDpacket)
 255              		.loc 1 177 0
 256 0052 534B     		ldr	r3, .L20+4
 257 0054 1A78     		ldrb	r2, [r3]
 258 0056 514B     		ldr	r3, .L20
 259 0058 1B78     		ldrb	r3, [r3]
 260 005a 9A42     		cmp	r2, r3
 261 005c 51D1     		bne	.L12
 178:network.c     ****                 {
 179:network.c     ****                     inData.readStatus = READ_OK;
 262              		.loc 1 179 0
 263 005e 4F4B     		ldr	r3, .L20
 264 0060 0122     		mov	r2, #1
 265 0062 1A75     		strb	r2, [r3, #20]
 180:network.c     ****                     outData.writeStatus = NO_WRITE;
 266              		.loc 1 180 0
 267 0064 4E4B     		ldr	r3, .L20+4
 268 0066 0022     		mov	r2, #0
 269 0068 9A74     		strb	r2, [r3, #18]
 181:network.c     ****                     
 182:network.c     ****                     /*connect network*/
ARM GAS  C:\Users\Petro\AppData\Local\Temp\cc7wT3EA.s 			page 9


 183:network.c     ****                     networkStatus = NETWORK_CONNECT;
 270              		.loc 1 183 0
 271 006a 4E4B     		ldr	r3, .L20+8
 272 006c 0122     		mov	r2, #1
 273 006e 1A60     		str	r2, [r3]
 184:network.c     ****                     noConnect = 0;
 274              		.loc 1 184 0
 275 0070 4D4B     		ldr	r3, .L20+12
 276 0072 0022     		mov	r2, #0
 277 0074 1A60     		str	r2, [r3]
 185:network.c     ****                     
 186:network.c     ****                     /*write data*/
 187:network.c     ****                     inData.newSkier = (recvData.Data3 & 0xFF00) >> 8;
 278              		.loc 1 187 0
 279 0076 3B1C     		mov	r3, r7
 280 0078 5B8A     		ldrh	r3, [r3, #18]
 281 007a 1B0A     		lsr	r3, r3, #8
 282 007c 9BB2     		uxth	r3, r3
 283 007e DAB2     		uxtb	r2, r3
 284 0080 464B     		ldr	r3, .L20
 285 0082 9A74     		strb	r2, [r3, #18]
 188:network.c     ****                     inData.unixStartTime = recvData.Data1;
 286              		.loc 1 188 0
 287 0084 3B1C     		mov	r3, r7
 288 0086 DC68     		ldr	r4, [r3, #12]
 289 0088 9B68     		ldr	r3, [r3, #8]
 290 008a 444A     		ldr	r2, .L20
 291 008c 9360     		str	r3, [r2, #8]
 292 008e D460     		str	r4, [r2, #12]
 189:network.c     ****                     inData.startMsTime = recvData.Data2;
 293              		.loc 1 189 0
 294 0090 3B1C     		mov	r3, r7
 295 0092 1A8A     		ldrh	r2, [r3, #16]
 296 0094 414B     		ldr	r3, .L20
 297 0096 1A82     		strh	r2, [r3, #16]
 190:network.c     ****                     inData.reboot = (recvData.Data3 & 0x00FF);
 298              		.loc 1 190 0
 299 0098 3B1C     		mov	r3, r7
 300 009a 5B8A     		ldrh	r3, [r3, #18]
 301 009c DAB2     		uxtb	r2, r3
 302 009e 3F4B     		ldr	r3, .L20
 303 00a0 DA74     		strb	r2, [r3, #19]
 191:network.c     ****                     
 192:network.c     ****                     /*if new skier on track*/
 193:network.c     ****                     if(inData.newSkier == NEW_SKIER_IN_TARCK )
 304              		.loc 1 193 0
 305 00a2 3E4B     		ldr	r3, .L20
 306 00a4 9B7C     		ldrb	r3, [r3, #18]
 307 00a6 012B     		cmp	r3, #1
 308 00a8 21D1     		bne	.L13
 194:network.c     ****                     {
 195:network.c     ****                         WriteStartTime(inData.unixStartTime, inData.startMsTime);
 309              		.loc 1 195 0
 310 00aa 3C4B     		ldr	r3, .L20
 311 00ac DC68     		ldr	r4, [r3, #12]
 312 00ae 9B68     		ldr	r3, [r3, #8]
 313 00b0 3A4A     		ldr	r2, .L20
ARM GAS  C:\Users\Petro\AppData\Local\Temp\cc7wT3EA.s 			page 10


 314 00b2 128A     		ldrh	r2, [r2, #16]
 315 00b4 181C     		mov	r0, r3
 316 00b6 211C     		mov	r1, r4
 317 00b8 FFF7FEFF 		bl	WriteStartTime
 196:network.c     ****                         BLE_sendOneSkierTimeStart(inData.unixStartTime, inData.startMsTime,GetIDski
 318              		.loc 1 196 0
 319 00bc 374B     		ldr	r3, .L20
 320 00be 9C68     		ldr	r4, [r3, #8]
 321 00c0 DD68     		ldr	r5, [r3, #12]
 322 00c2 364B     		ldr	r3, .L20
 323 00c4 1B8A     		ldrh	r3, [r3, #16]
 324 00c6 9846     		mov	r8, r3
 325 00c8 FFF7FEFF 		bl	GetIDskierStarted
 326 00cc 031C     		mov	r3, r0
 327 00ce DEB2     		uxtb	r6, r3
 328 00d0 FFF7FEFF 		bl	SkierOnWay
 329 00d4 031C     		mov	r3, r0
 330 00d6 DBB2     		uxtb	r3, r3
 331 00d8 0093     		str	r3, [sp]
 332 00da 0423     		mov	r3, #4
 333 00dc 0193     		str	r3, [sp, #4]
 334 00de 201C     		mov	r0, r4
 335 00e0 291C     		mov	r1, r5
 336 00e2 4246     		mov	r2, r8
 337 00e4 331C     		mov	r3, r6
 338 00e6 FFF7FEFF 		bl	BLE_sendOneSkierTimeStart
 197:network.c     ****                         IncrementID();
 339              		.loc 1 197 0
 340 00ea FFF7FEFF 		bl	IncrementID
 341              	.L13:
 198:network.c     ****                     }
 199:network.c     ****                     
 200:network.c     ****                     /*next packet*/
 201:network.c     ****                     outData.IDpacket++;
 342              		.loc 1 201 0
 343 00ee 2C4B     		ldr	r3, .L20+4
 344 00f0 1B78     		ldrb	r3, [r3]
 345 00f2 0133     		add	r3, r3, #1
 346 00f4 DAB2     		uxtb	r2, r3
 347 00f6 2A4B     		ldr	r3, .L20+4
 348 00f8 1A70     		strb	r2, [r3]
 202:network.c     ****                     CyDelay(50);
 349              		.loc 1 202 0
 350 00fa 3220     		mov	r0, #50
 351 00fc FFF7FEFF 		bl	CyDelay
 352 0100 1FE0     		b	.L14
 353              	.L12:
 203:network.c     ****                 }  
 204:network.c     ****                 /* if prev packet late*/
 205:network.c     ****                 else if(outData.IDpacket == (inData.IDpacket + 1))
 354              		.loc 1 205 0
 355 0102 274B     		ldr	r3, .L20+4
 356 0104 1B78     		ldrb	r3, [r3]
 357 0106 1A1C     		mov	r2, r3
 358 0108 244B     		ldr	r3, .L20
 359 010a 1B78     		ldrb	r3, [r3]
 360 010c 0133     		add	r3, r3, #1
ARM GAS  C:\Users\Petro\AppData\Local\Temp\cc7wT3EA.s 			page 11


 361 010e 9A42     		cmp	r2, r3
 362 0110 17D1     		bne	.L14
 206:network.c     ****                 {
 207:network.c     ****                     inData.newSkier = recvData.Data3;
 363              		.loc 1 207 0
 364 0112 3B1C     		mov	r3, r7
 365 0114 5B8A     		ldrh	r3, [r3, #18]
 366 0116 DAB2     		uxtb	r2, r3
 367 0118 204B     		ldr	r3, .L20
 368 011a 9A74     		strb	r2, [r3, #18]
 208:network.c     ****                     inData.unixStartTime = recvData.Data1;
 369              		.loc 1 208 0
 370 011c 3B1C     		mov	r3, r7
 371 011e DC68     		ldr	r4, [r3, #12]
 372 0120 9B68     		ldr	r3, [r3, #8]
 373 0122 1E4A     		ldr	r2, .L20
 374 0124 9360     		str	r3, [r2, #8]
 375 0126 D460     		str	r4, [r2, #12]
 209:network.c     ****                     inData.startMsTime = recvData.Data2;
 376              		.loc 1 209 0
 377 0128 3B1C     		mov	r3, r7
 378 012a 1A8A     		ldrh	r2, [r3, #16]
 379 012c 1B4B     		ldr	r3, .L20
 380 012e 1A82     		strh	r2, [r3, #16]
 210:network.c     ****                     
 211:network.c     ****                     networkStatus = NETWORK_CONNECT;
 381              		.loc 1 211 0
 382 0130 1C4B     		ldr	r3, .L20+8
 383 0132 0122     		mov	r2, #1
 384 0134 1A60     		str	r2, [r3]
 212:network.c     ****                     noConnect = 0;
 385              		.loc 1 212 0
 386 0136 1C4B     		ldr	r3, .L20+12
 387 0138 0022     		mov	r2, #0
 388 013a 1A60     		str	r2, [r3]
 213:network.c     ****                     CyDelay(50);
 389              		.loc 1 213 0
 390 013c 3220     		mov	r0, #50
 391 013e FFF7FEFF 		bl	CyDelay
 392              	.L14:
 214:network.c     ****                 }
 215:network.c     ****                 return  NETWORK_CONNECT;  
 393              		.loc 1 215 0
 394 0142 0123     		mov	r3, #1
 395 0144 24E0     		b	.L19
 396              	.L11:
 166:network.c     ****         { 
 397              		.loc 1 166 0
 398 0146 FFF7FEFF 		bl	UART_XB_SpiUartGetRxBufferSize
 399 014a 031E     		sub	r3, r0, #0
 400 014c 0BD0     		beq	.L16
 166:network.c     ****         { 
 401              		.loc 1 166 0 is_stmt 0 discriminator 1
 402 014e FFF7FEFF 		bl	UART_XB_UartGetChar
 403 0152 021C     		mov	r2, r0
 404 0154 2323     		mov	r3, #35
 405 0156 FB18     		add	r3, r7, r3
ARM GAS  C:\Users\Petro\AppData\Local\Temp\cc7wT3EA.s 			page 12


 406 0158 1A70     		strb	r2, [r3]
 407 015a 2323     		mov	r3, #35
 408 015c FB18     		add	r3, r7, r3
 409 015e 1B78     		ldrb	r3, [r3]
 410 0160 002B     		cmp	r3, #0
 411 0162 00D0     		beq	.LCB317
 412 0164 5EE7     		b	.L17	@long jump
 413              	.LCB317:
 414              	.L16:
 216:network.c     ****             }
 217:network.c     ****         }
 218:network.c     ****         
 219:network.c     ****         noConnect++;
 415              		.loc 1 219 0 is_stmt 1
 416 0166 104B     		ldr	r3, .L20+12
 417 0168 1B68     		ldr	r3, [r3]
 418 016a 5A1C     		add	r2, r3, #1
 419 016c 0E4B     		ldr	r3, .L20+12
 420 016e 1A60     		str	r2, [r3]
 220:network.c     ****         if(noConnect >= NETWORK_TIMEOUT)
 421              		.loc 1 220 0
 422 0170 0D4B     		ldr	r3, .L20+12
 423 0172 1B68     		ldr	r3, [r3]
 424 0174 312B     		cmp	r3, #49
 425 0176 08D9     		bls	.L18
 221:network.c     ****         {
 222:network.c     ****             outData.writeStatus = NO_WRITE;
 426              		.loc 1 222 0
 427 0178 094B     		ldr	r3, .L20+4
 428 017a 0022     		mov	r2, #0
 429 017c 9A74     		strb	r2, [r3, #18]
 223:network.c     ****             inData.readStatus = NO_READ;
 430              		.loc 1 223 0
 431 017e 074B     		ldr	r3, .L20
 432 0180 0022     		mov	r2, #0
 433 0182 1A75     		strb	r2, [r3, #20]
 224:network.c     ****             networkStatus = NETWORK_DISCONNECT;
 434              		.loc 1 224 0
 435 0184 074B     		ldr	r3, .L20+8
 436 0186 0022     		mov	r2, #0
 437 0188 1A60     		str	r2, [r3]
 438              	.L18:
 225:network.c     ****         }
 226:network.c     ****         
 227:network.c     ****         return  NETWORK_DISCONNECT;
 439              		.loc 1 227 0
 440 018a 0023     		mov	r3, #0
 441 018c 00E0     		b	.L19
 442              	.L10:
 443              	.LBE3:
 228:network.c     ****     }
 229:network.c     ****     return 0;
 444              		.loc 1 229 0
 445 018e 0023     		mov	r3, #0
 446              	.L19:
 230:network.c     **** }
 447              		.loc 1 230 0 discriminator 1
ARM GAS  C:\Users\Petro\AppData\Local\Temp\cc7wT3EA.s 			page 13


 448 0190 181C     		mov	r0, r3
 449 0192 BD46     		mov	sp, r7
 450 0194 0AB0     		add	sp, sp, #40
 451              		@ sp needed
 452 0196 04BC     		pop	{r2}
 453 0198 9046     		mov	r8, r2
 454 019a F0BD     		pop	{r4, r5, r6, r7, pc}
 455              	.L21:
 456              		.align	2
 457              	.L20:
 458 019c 00000000 		.word	inData
 459 01a0 00000000 		.word	outData
 460 01a4 00000000 		.word	networkStatus
 461 01a8 00000000 		.word	noConnect
 462              		.cfi_endproc
 463              	.LFE65:
 464              		.size	ReceiveData, .-ReceiveData
 465              		.section	.text.SendFinStatus,"ax",%progbits
 466              		.align	2
 467              		.global	SendFinStatus
 468              		.code	16
 469              		.thumb_func
 470              		.type	SendFinStatus, %function
 471              	SendFinStatus:
 472              	.LFB66:
 231:network.c     **** 
 232:network.c     **** 
 233:network.c     **** /*******************************************************************************
 234:network.c     **** * Function Name: SendFinStatus
 235:network.c     **** ********************************************************************************
 236:network.c     **** *
 237:network.c     **** * Summary:
 238:network.c     **** *   set fin status
 239:network.c     **** * Parametrs:
 240:network.c     **** *   FIN_READY or FIN_NO_READY
 241:network.c     **** *
 242:network.c     **** *******************************************************************************/
 243:network.c     **** void SendFinStatus(uint32_t status)
 244:network.c     **** {
 473              		.loc 1 244 0
 474              		.cfi_startproc
 475 0000 80B5     		push	{r7, lr}
 476              		.cfi_def_cfa_offset 8
 477              		.cfi_offset 7, -8
 478              		.cfi_offset 14, -4
 479 0002 82B0     		sub	sp, sp, #8
 480              		.cfi_def_cfa_offset 16
 481 0004 00AF     		add	r7, sp, #0
 482              		.cfi_def_cfa_register 7
 483 0006 7860     		str	r0, [r7, #4]
 245:network.c     ****     outData.ready = status;
 484              		.loc 1 245 0
 485 0008 7B68     		ldr	r3, [r7, #4]
 486 000a DAB2     		uxtb	r2, r3
 487 000c 024B     		ldr	r3, .L23
 488 000e 5A70     		strb	r2, [r3, #1]
 246:network.c     **** }
ARM GAS  C:\Users\Petro\AppData\Local\Temp\cc7wT3EA.s 			page 14


 489              		.loc 1 246 0
 490 0010 BD46     		mov	sp, r7
 491 0012 02B0     		add	sp, sp, #8
 492              		@ sp needed
 493 0014 80BD     		pop	{r7, pc}
 494              	.L24:
 495 0016 C046     		.align	2
 496              	.L23:
 497 0018 00000000 		.word	outData
 498              		.cfi_endproc
 499              	.LFE66:
 500              		.size	SendFinStatus, .-SendFinStatus
 501              		.section	.text.NetworkStatus,"ax",%progbits
 502              		.align	2
 503              		.global	NetworkStatus
 504              		.code	16
 505              		.thumb_func
 506              		.type	NetworkStatus, %function
 507              	NetworkStatus:
 508              	.LFB67:
 247:network.c     **** 
 248:network.c     **** /*******************************************************************************
 249:network.c     **** * Function Name: NetworkStatus
 250:network.c     **** ********************************************************************************
 251:network.c     **** *
 252:network.c     **** * Summary:
 253:network.c     **** *   read network status
 254:network.c     **** * Return:
 255:network.c     **** *   NETWORK_CONNECT or NETWORK_DISCONNECT
 256:network.c     **** *
 257:network.c     **** *******************************************************************************/
 258:network.c     **** uint32_t NetworkStatus(void)
 259:network.c     **** {
 509              		.loc 1 259 0
 510              		.cfi_startproc
 511 0000 80B5     		push	{r7, lr}
 512              		.cfi_def_cfa_offset 8
 513              		.cfi_offset 7, -8
 514              		.cfi_offset 14, -4
 515 0002 00AF     		add	r7, sp, #0
 516              		.cfi_def_cfa_register 7
 260:network.c     ****     return networkStatus;
 517              		.loc 1 260 0
 518 0004 024B     		ldr	r3, .L27
 519 0006 1B68     		ldr	r3, [r3]
 261:network.c     **** }
 520              		.loc 1 261 0
 521 0008 181C     		mov	r0, r3
 522 000a BD46     		mov	sp, r7
 523              		@ sp needed
 524 000c 80BD     		pop	{r7, pc}
 525              	.L28:
 526 000e C046     		.align	2
 527              	.L27:
 528 0010 00000000 		.word	networkStatus
 529              		.cfi_endproc
 530              	.LFE67:
ARM GAS  C:\Users\Petro\AppData\Local\Temp\cc7wT3EA.s 			page 15


 531              		.size	NetworkStatus, .-NetworkStatus
 532              		.section	.text.IsRebootStartFlag,"ax",%progbits
 533              		.align	2
 534              		.global	IsRebootStartFlag
 535              		.code	16
 536              		.thumb_func
 537              		.type	IsRebootStartFlag, %function
 538              	IsRebootStartFlag:
 539              	.LFB68:
 262:network.c     **** 
 263:network.c     **** /*******************************************************************************
 264:network.c     **** * Function Name: ReadRebootStartFlag
 265:network.c     **** ********************************************************************************
 266:network.c     **** *
 267:network.c     **** * Summary:
 268:network.c     **** *   read reboot flag from start
 269:network.c     **** * Return:
 270:network.c     **** *   REBOOT or NO_REBOOT
 271:network.c     **** *
 272:network.c     **** *******************************************************************************/
 273:network.c     **** uint32_t IsRebootStartFlag(void)
 274:network.c     **** {
 540              		.loc 1 274 0
 541              		.cfi_startproc
 542 0000 80B5     		push	{r7, lr}
 543              		.cfi_def_cfa_offset 8
 544              		.cfi_offset 7, -8
 545              		.cfi_offset 14, -4
 546 0002 82B0     		sub	sp, sp, #8
 547              		.cfi_def_cfa_offset 16
 548 0004 00AF     		add	r7, sp, #0
 549              		.cfi_def_cfa_register 7
 275:network.c     ****     uint32_t result;
 276:network.c     ****     
 277:network.c     ****     if((inData.reboot == 1 && outData.reboot == 0) || (rebootFlag == REBOOT))
 550              		.loc 1 277 0
 551 0006 0F4B     		ldr	r3, .L35
 552 0008 DB7C     		ldrb	r3, [r3, #19]
 553 000a 012B     		cmp	r3, #1
 554 000c 03D1     		bne	.L30
 555              		.loc 1 277 0 is_stmt 0 discriminator 1
 556 000e 0E4B     		ldr	r3, .L35+4
 557 0010 9B78     		ldrb	r3, [r3, #2]
 558 0012 002B     		cmp	r3, #0
 559 0014 03D0     		beq	.L31
 560              	.L30:
 561              		.loc 1 277 0 discriminator 3
 562 0016 0D4B     		ldr	r3, .L35+8
 563 0018 1B78     		ldrb	r3, [r3]
 564 001a FF2B     		cmp	r3, #255
 565 001c 05D1     		bne	.L32
 566              	.L31:
 278:network.c     ****     {
 279:network.c     ****         result = REBOOT;
 567              		.loc 1 279 0 is_stmt 1
 568 001e FF23     		mov	r3, #255
 569 0020 7B60     		str	r3, [r7, #4]
ARM GAS  C:\Users\Petro\AppData\Local\Temp\cc7wT3EA.s 			page 16


 280:network.c     ****         inData.reboot = 0;
 570              		.loc 1 280 0
 571 0022 084B     		ldr	r3, .L35
 572 0024 0022     		mov	r2, #0
 573 0026 DA74     		strb	r2, [r3, #19]
 574 0028 07E0     		b	.L33
 575              	.L32:
 281:network.c     ****     }
 282:network.c     ****     else 
 283:network.c     ****     {
 284:network.c     ****         outData.reboot = 0;
 576              		.loc 1 284 0
 577 002a 074B     		ldr	r3, .L35+4
 578 002c 0022     		mov	r2, #0
 579 002e 9A70     		strb	r2, [r3, #2]
 285:network.c     ****         inData.reboot = 0;
 580              		.loc 1 285 0
 581 0030 044B     		ldr	r3, .L35
 582 0032 0022     		mov	r2, #0
 583 0034 DA74     		strb	r2, [r3, #19]
 286:network.c     ****         result = NO_REBOOT;
 584              		.loc 1 286 0
 585 0036 FE23     		mov	r3, #254
 586 0038 7B60     		str	r3, [r7, #4]
 587              	.L33:
 287:network.c     ****     }
 288:network.c     ****     return result;
 588              		.loc 1 288 0
 589 003a 7B68     		ldr	r3, [r7, #4]
 289:network.c     **** }
 590              		.loc 1 289 0
 591 003c 181C     		mov	r0, r3
 592 003e BD46     		mov	sp, r7
 593 0040 02B0     		add	sp, sp, #8
 594              		@ sp needed
 595 0042 80BD     		pop	{r7, pc}
 596              	.L36:
 597              		.align	2
 598              	.L35:
 599 0044 00000000 		.word	inData
 600 0048 00000000 		.word	outData
 601 004c 00000000 		.word	rebootFlag
 602              		.cfi_endproc
 603              	.LFE68:
 604              		.size	IsRebootStartFlag, .-IsRebootStartFlag
 605              		.section	.text.ClearRebootFlag,"ax",%progbits
 606              		.align	2
 607              		.global	ClearRebootFlag
 608              		.code	16
 609              		.thumb_func
 610              		.type	ClearRebootFlag, %function
 611              	ClearRebootFlag:
 612              	.LFB69:
 290:network.c     **** 
 291:network.c     **** void ClearRebootFlag(void)
 292:network.c     **** {
 613              		.loc 1 292 0
ARM GAS  C:\Users\Petro\AppData\Local\Temp\cc7wT3EA.s 			page 17


 614              		.cfi_startproc
 615 0000 80B5     		push	{r7, lr}
 616              		.cfi_def_cfa_offset 8
 617              		.cfi_offset 7, -8
 618              		.cfi_offset 14, -4
 619 0002 00AF     		add	r7, sp, #0
 620              		.cfi_def_cfa_register 7
 293:network.c     ****     outData.reboot = 0;
 621              		.loc 1 293 0
 622 0004 054B     		ldr	r3, .L38
 623 0006 0022     		mov	r2, #0
 624 0008 9A70     		strb	r2, [r3, #2]
 294:network.c     ****     inData.reboot = 0;
 625              		.loc 1 294 0
 626 000a 054B     		ldr	r3, .L38+4
 627 000c 0022     		mov	r2, #0
 628 000e DA74     		strb	r2, [r3, #19]
 295:network.c     ****     rebootFlag = NO_REBOOT;
 629              		.loc 1 295 0
 630 0010 044B     		ldr	r3, .L38+8
 631 0012 FE22     		mov	r2, #254
 632 0014 1A70     		strb	r2, [r3]
 296:network.c     **** }
 633              		.loc 1 296 0
 634 0016 BD46     		mov	sp, r7
 635              		@ sp needed
 636 0018 80BD     		pop	{r7, pc}
 637              	.L39:
 638 001a C046     		.align	2
 639              	.L38:
 640 001c 00000000 		.word	outData
 641 0020 00000000 		.word	inData
 642 0024 00000000 		.word	rebootFlag
 643              		.cfi_endproc
 644              	.LFE69:
 645              		.size	ClearRebootFlag, .-ClearRebootFlag
 646              		.section	.text.SetRebootFlag,"ax",%progbits
 647              		.align	2
 648              		.global	SetRebootFlag
 649              		.code	16
 650              		.thumb_func
 651              		.type	SetRebootFlag, %function
 652              	SetRebootFlag:
 653              	.LFB70:
 297:network.c     **** 
 298:network.c     **** /*******************************************************************************
 299:network.c     **** * Function Name: WriteRebootFlag
 300:network.c     **** ********************************************************************************
 301:network.c     **** *
 302:network.c     **** * Summary:
 303:network.c     **** *   write reboot flag to start
 304:network.c     **** *
 305:network.c     **** *******************************************************************************/
 306:network.c     **** void SetRebootFlag(void)
 307:network.c     **** {
 654              		.loc 1 307 0
 655              		.cfi_startproc
ARM GAS  C:\Users\Petro\AppData\Local\Temp\cc7wT3EA.s 			page 18


 656 0000 80B5     		push	{r7, lr}
 657              		.cfi_def_cfa_offset 8
 658              		.cfi_offset 7, -8
 659              		.cfi_offset 14, -4
 660 0002 00AF     		add	r7, sp, #0
 661              		.cfi_def_cfa_register 7
 308:network.c     ****     outData.reboot = 1;
 662              		.loc 1 308 0
 663 0004 054B     		ldr	r3, .L41
 664 0006 0122     		mov	r2, #1
 665 0008 9A70     		strb	r2, [r3, #2]
 309:network.c     ****     inData.reboot = 0;
 666              		.loc 1 309 0
 667 000a 054B     		ldr	r3, .L41+4
 668 000c 0022     		mov	r2, #0
 669 000e DA74     		strb	r2, [r3, #19]
 310:network.c     ****     rebootFlag = REBOOT;
 670              		.loc 1 310 0
 671 0010 044B     		ldr	r3, .L41+8
 672 0012 FF22     		mov	r2, #255
 673 0014 1A70     		strb	r2, [r3]
 311:network.c     **** }
 674              		.loc 1 311 0
 675 0016 BD46     		mov	sp, r7
 676              		@ sp needed
 677 0018 80BD     		pop	{r7, pc}
 678              	.L42:
 679 001a C046     		.align	2
 680              	.L41:
 681 001c 00000000 		.word	outData
 682 0020 00000000 		.word	inData
 683 0024 00000000 		.word	rebootFlag
 684              		.cfi_endproc
 685              	.LFE70:
 686              		.size	SetRebootFlag, .-SetRebootFlag
 687              		.section	.text.NTPsync,"ax",%progbits
 688              		.align	2
 689              		.global	NTPsync
 690              		.code	16
 691              		.thumb_func
 692              		.type	NTPsync, %function
 693              	NTPsync:
 694              	.LFB71:
 312:network.c     **** 
 313:network.c     **** 
 314:network.c     **** /*******************************************************************************
 315:network.c     **** * Function Name: NTPsync
 316:network.c     **** ********************************************************************************
 317:network.c     **** *
 318:network.c     **** * Summary:
 319:network.c     **** *   NTP time synchronization protocol on
 320:network.c     **** * Return:
 321:network.c     **** *   TIME_SYNC_OK or TIME_SYNC_ERR
 322:network.c     **** *
 323:network.c     **** *******************************************************************************/
 324:network.c     **** uint32_t NTPsync(void)
 325:network.c     **** {
ARM GAS  C:\Users\Petro\AppData\Local\Temp\cc7wT3EA.s 			page 19


 695              		.loc 1 325 0
 696              		.cfi_startproc
 697 0000 90B5     		push	{r4, r7, lr}
 698              		.cfi_def_cfa_offset 12
 699              		.cfi_offset 4, -12
 700              		.cfi_offset 7, -8
 701              		.cfi_offset 14, -4
 702 0002 91B0     		sub	sp, sp, #68
 703              		.cfi_def_cfa_offset 80
 704 0004 02AF     		add	r7, sp, #8
 705              		.cfi_def_cfa 7, 72
 326:network.c     ****     uint16_t result;
 327:network.c     ****     uint32_t resultReceive; 
 328:network.c     ****     int i;
 329:network.c     ****     uint16_t IDpacket;
 330:network.c     ****     uint16_t IDreceivePacket;
 331:network.c     ****     uint32_t unixTime[4];
 332:network.c     ****     uint16_t millisTime[4];
 333:network.c     ****     int32_t sumTime;
 334:network.c     ****     int32_t sumMillis;   
 335:network.c     ****     uint32_t numAttempsReseive;
 336:network.c     ****     uint32_t numTruReceive;
 337:network.c     ****     
 338:network.c     ****     #ifdef DEBUG_INFO
 339:network.c     ****         char uartBuff[100];
 340:network.c     ****     #endif  
 341:network.c     ****     
 342:network.c     ****     IDpacket = 1;
 706              		.loc 1 342 0
 707 0006 2A23     		mov	r3, #42
 708 0008 FB18     		add	r3, r7, r3
 709 000a 0122     		mov	r2, #1
 710 000c 1A80     		strh	r2, [r3]
 343:network.c     ****     IDreceivePacket = 0;
 711              		.loc 1 343 0
 712 000e 2223     		mov	r3, #34
 713 0010 FB18     		add	r3, r7, r3
 714 0012 0022     		mov	r2, #0
 715 0014 1A80     		strh	r2, [r3]
 344:network.c     ****     numAttempsReseive = 0;
 716              		.loc 1 344 0
 717 0016 0023     		mov	r3, #0
 718 0018 7B62     		str	r3, [r7, #36]
 345:network.c     ****     result = TIME_SYNC_ERR;
 719              		.loc 1 345 0
 720 001a 3623     		mov	r3, #54
 721 001c FB18     		add	r3, r7, r3
 722 001e 0122     		mov	r2, #1
 723 0020 1A80     		strh	r2, [r3]
 346:network.c     ****     
 347:network.c     ****     #ifdef DEBUG_INFO
 348:network.c     ****         SW_UART_DEBUG_PutString("start ntp sync\n\r");
 349:network.c     ****     #endif  
 350:network.c     ****     /*sync milisecond and second*/
 351:network.c     ****     for(i=1; i < NUM_TRY_SYNC; )
 724              		.loc 1 351 0
 725 0022 0123     		mov	r3, #1
ARM GAS  C:\Users\Petro\AppData\Local\Temp\cc7wT3EA.s 			page 20


 726 0024 FB62     		str	r3, [r7, #44]
 727 0026 C4E0     		b	.L44
 728              	.L53:
 352:network.c     ****     {
 353:network.c     ****         /*send time T1*/
 354:network.c     ****         unixTime[T1] = RTCGetUnixTime();
 729              		.loc 1 354 0
 730 0028 FFF7FEFF 		bl	RTCGetUnixTime
 731 002c 031C     		mov	r3, r0
 732 002e 0C1C     		mov	r4, r1
 733 0030 1A1C     		mov	r2, r3
 734 0032 1023     		mov	r3, #16
 735 0034 FB18     		add	r3, r7, r3
 736 0036 1A60     		str	r2, [r3]
 355:network.c     ****         millisTime[T1] = RTCgetRecentMs();
 737              		.loc 1 355 0
 738 0038 FFF7FEFF 		bl	RTCgetRecentMs
 739 003c 031C     		mov	r3, r0
 740 003e 9AB2     		uxth	r2, r3
 741 0040 0823     		mov	r3, #8
 742 0042 FB18     		add	r3, r7, r3
 743 0044 1A80     		strh	r2, [r3]
 356:network.c     ****         
 357:network.c     ****         #ifdef DEBUGNTP
 358:network.c     ****             pinDebugNtp_Write(1);
 359:network.c     ****             pinDebugNtp_Write(0);
 360:network.c     ****         #endif
 361:network.c     ****         
 362:network.c     ****         NTPsendTime(unixTime[T1], millisTime[T1], IDpacket);
 744              		.loc 1 362 0
 745 0046 1023     		mov	r3, #16
 746 0048 FB18     		add	r3, r7, r3
 747 004a 1968     		ldr	r1, [r3]
 748 004c 0823     		mov	r3, #8
 749 004e FB18     		add	r3, r7, r3
 750 0050 1A88     		ldrh	r2, [r3]
 751 0052 2A23     		mov	r3, #42
 752 0054 FB18     		add	r3, r7, r3
 753 0056 1B88     		ldrh	r3, [r3]
 754 0058 081C     		mov	r0, r1
 755 005a 111C     		mov	r1, r2
 756 005c 1A1C     		mov	r2, r3
 757 005e FFF7FEFF 		bl	NTPsendTime
 363:network.c     ****         
 364:network.c     ****         /*reseive data*/
 365:network.c     ****         resultReceive = NO_READ;
 758              		.loc 1 365 0
 759 0062 0023     		mov	r3, #0
 760 0064 3B63     		str	r3, [r7, #48]
 366:network.c     ****         numAttempsReseive = 0;
 761              		.loc 1 366 0
 762 0066 0023     		mov	r3, #0
 763 0068 7B62     		str	r3, [r7, #36]
 367:network.c     ****         while((resultReceive == NO_READ) && (numAttempsReseive < NUM_CONNECT_ATTEMPS*4))
 764              		.loc 1 367 0
 765 006a 8EE0     		b	.L45
 766              	.L52:
ARM GAS  C:\Users\Petro\AppData\Local\Temp\cc7wT3EA.s 			page 21


 368:network.c     ****         {
 369:network.c     ****             /*receive time from start*/
 370:network.c     ****             resultReceive = NTPreceiveTime(&unixTime[T2],&millisTime[T2], &unixTime[T3], &millisTim
 767              		.loc 1 370 0
 768 006c 1023     		mov	r3, #16
 769 006e FB18     		add	r3, r7, r3
 770 0070 181D     		add	r0, r3, #4
 771 0072 0823     		mov	r3, #8
 772 0074 FB18     		add	r3, r7, r3
 773 0076 991C     		add	r1, r3, #2
 774 0078 1023     		mov	r3, #16
 775 007a FB18     		add	r3, r7, r3
 776 007c 0833     		add	r3, r3, #8
 777 007e 1A1C     		mov	r2, r3
 778 0080 0823     		mov	r3, #8
 779 0082 FB18     		add	r3, r7, r3
 780 0084 1C1D     		add	r4, r3, #4
 781 0086 2223     		mov	r3, #34
 782 0088 FB18     		add	r3, r7, r3
 783 008a 0093     		str	r3, [sp]
 784 008c 231C     		mov	r3, r4
 785 008e FFF7FEFF 		bl	NTPreceiveTime
 786 0092 031C     		mov	r3, r0
 787 0094 3B63     		str	r3, [r7, #48]
 371:network.c     ****                     
 372:network.c     ****             if((resultReceive == READ_OK) && (IDreceivePacket == IDpacket))
 788              		.loc 1 372 0
 789 0096 3B6B     		ldr	r3, [r7, #48]
 790 0098 012B     		cmp	r3, #1
 791 009a 62D1     		bne	.L46
 792              		.loc 1 372 0 is_stmt 0 discriminator 1
 793 009c 2223     		mov	r3, #34
 794 009e FB18     		add	r3, r7, r3
 795 00a0 1B88     		ldrh	r3, [r3]
 796 00a2 2A22     		mov	r2, #42
 797 00a4 BA18     		add	r2, r7, r2
 798 00a6 1288     		ldrh	r2, [r2]
 799 00a8 9A42     		cmp	r2, r3
 800 00aa 5AD1     		bne	.L46
 373:network.c     ****             {
 374:network.c     ****                 /*delivery timing*/
 375:network.c     ****                 unixTime[T4] = RTCGetUnixTime();
 801              		.loc 1 375 0 is_stmt 1
 802 00ac FFF7FEFF 		bl	RTCGetUnixTime
 803 00b0 031C     		mov	r3, r0
 804 00b2 0C1C     		mov	r4, r1
 805 00b4 1A1C     		mov	r2, r3
 806 00b6 1023     		mov	r3, #16
 807 00b8 FB18     		add	r3, r7, r3
 808 00ba DA60     		str	r2, [r3, #12]
 376:network.c     ****                 millisTime[T4] = RTCgetRecentMs();
 809              		.loc 1 376 0
 810 00bc FFF7FEFF 		bl	RTCgetRecentMs
 811 00c0 031C     		mov	r3, r0
 812 00c2 9AB2     		uxth	r2, r3
 813 00c4 0823     		mov	r3, #8
 814 00c6 FB18     		add	r3, r7, r3
ARM GAS  C:\Users\Petro\AppData\Local\Temp\cc7wT3EA.s 			page 22


 815 00c8 DA80     		strh	r2, [r3, #6]
 377:network.c     ****                 
 378:network.c     ****                 #ifdef DEBUGNTP
 379:network.c     ****                     pinDebugNtp_Write(1);
 380:network.c     ****                     pinDebugNtp_Write(0);
 381:network.c     ****                     pinDebugNtp_Write(1);
 382:network.c     ****                     pinDebugNtp_Write(0);
 383:network.c     ****                 #endif
 384:network.c     ****                 
 385:network.c     ****                 /*Packaging data lasts 2 ms, so add it to the read time
 386:network.c     ****                 send data lasts 43ms*/
 387:network.c     ****                 millisTime[T4] -= 45;
 816              		.loc 1 387 0
 817 00ca 0823     		mov	r3, #8
 818 00cc FB18     		add	r3, r7, r3
 819 00ce DB88     		ldrh	r3, [r3, #6]
 820 00d0 2D3B     		sub	r3, r3, #45
 821 00d2 9AB2     		uxth	r2, r3
 822 00d4 0823     		mov	r3, #8
 823 00d6 FB18     		add	r3, r7, r3
 824 00d8 DA80     		strh	r2, [r3, #6]
 388:network.c     ****                 if(millisTime[T4] < 0)
 389:network.c     ****                 {
 390:network.c     ****                     unixTime[T4]--;
 391:network.c     ****                     millisTime[T4] += 1000;
 392:network.c     ****                 }
 393:network.c     ****                 
 394:network.c     ****                 NTPcalculateTime(unixTime, millisTime,&sumTime, &sumMillis);
 825              		.loc 1 394 0
 826 00da 1023     		mov	r3, #16
 827 00dc F818     		add	r0, r7, r3
 828 00de 0823     		mov	r3, #8
 829 00e0 F918     		add	r1, r7, r3
 830 00e2 3A1D     		add	r2, r7, #4
 831 00e4 3B1C     		mov	r3, r7
 832 00e6 FFF7FEFF 		bl	NTPcalculateTime
 395:network.c     ****                 CyDelay(1000); 
 833              		.loc 1 395 0
 834 00ea FA23     		mov	r3, #250
 835 00ec 9B00     		lsl	r3, r3, #2
 836 00ee 181C     		mov	r0, r3
 837 00f0 FFF7FEFF 		bl	CyDelay
 396:network.c     ****                 #ifdef DEBUG_INFO 
 397:network.c     ****                     SW_UART_DEBUG_PutString("calculate time\n\r");
 398:network.c     ****                 #endif  
 399:network.c     ****                 
 400:network.c     ****                 /* send delivery time */
 401:network.c     ****                 IDpacket = 0;
 838              		.loc 1 401 0
 839 00f4 2A23     		mov	r3, #42
 840 00f6 FB18     		add	r3, r7, r3
 841 00f8 0022     		mov	r2, #0
 842 00fa 1A80     		strh	r2, [r3]
 402:network.c     ****                 result = NTPsetTimeToStart(sumTime, sumMillis, IDpacket);
 843              		.loc 1 402 0
 844 00fc 7B68     		ldr	r3, [r7, #4]
 845 00fe 191C     		mov	r1, r3
ARM GAS  C:\Users\Petro\AppData\Local\Temp\cc7wT3EA.s 			page 23


 846 0100 3B68     		ldr	r3, [r7]
 847 0102 9AB2     		uxth	r2, r3
 848 0104 2A23     		mov	r3, #42
 849 0106 FB18     		add	r3, r7, r3
 850 0108 1B88     		ldrh	r3, [r3]
 851 010a 081C     		mov	r0, r1
 852 010c 111C     		mov	r1, r2
 853 010e 1A1C     		mov	r2, r3
 854 0110 FFF7FEFF 		bl	NTPsetTimeToStart
 855 0114 021C     		mov	r2, r0
 856 0116 3623     		mov	r3, #54
 857 0118 FB18     		add	r3, r7, r3
 858 011a 1A80     		strh	r2, [r3]
 403:network.c     ****                 
 404:network.c     ****                 if(result == WRITE_OK)
 859              		.loc 1 404 0
 860 011c 3623     		mov	r3, #54
 861 011e FB18     		add	r3, r7, r3
 862 0120 1B88     		ldrh	r3, [r3]
 863 0122 012B     		cmp	r3, #1
 864 0124 14D1     		bne	.L47
 405:network.c     ****                 {
 406:network.c     ****                     /*display loading sync time*/
 407:network.c     ****                     for(i=0;i<13;i++)
 865              		.loc 1 407 0
 866 0126 0023     		mov	r3, #0
 867 0128 FB62     		str	r3, [r7, #44]
 868 012a 09E0     		b	.L48
 869              	.L49:
 408:network.c     ****                     {
 409:network.c     ****                         DisplayLoading(i);
 870              		.loc 1 409 0 discriminator 3
 871 012c FB6A     		ldr	r3, [r7, #44]
 872 012e 181C     		mov	r0, r3
 873 0130 FFF7FEFF 		bl	DisplayLoading
 410:network.c     ****                         CyDelay(100);
 874              		.loc 1 410 0 discriminator 3
 875 0134 6420     		mov	r0, #100
 876 0136 FFF7FEFF 		bl	CyDelay
 407:network.c     ****                     {
 877              		.loc 1 407 0 discriminator 3
 878 013a FB6A     		ldr	r3, [r7, #44]
 879 013c 0133     		add	r3, r3, #1
 880 013e FB62     		str	r3, [r7, #44]
 881              	.L48:
 407:network.c     ****                     {
 882              		.loc 1 407 0 is_stmt 0 discriminator 1
 883 0140 FB6A     		ldr	r3, [r7, #44]
 884 0142 0C2B     		cmp	r3, #12
 885 0144 F2DD     		ble	.L49
 411:network.c     ****                     }
 412:network.c     ****                     result = TIME_SYNC_OK;
 886              		.loc 1 412 0 is_stmt 1
 887 0146 3623     		mov	r3, #54
 888 0148 FB18     		add	r3, r7, r3
 889 014a 0022     		mov	r2, #0
 890 014c 1A80     		strh	r2, [r3]
ARM GAS  C:\Users\Petro\AppData\Local\Temp\cc7wT3EA.s 			page 24


 891 014e 03E0     		b	.L50
 892              	.L47:
 413:network.c     ****                 }
 414:network.c     ****                 else
 415:network.c     ****                 {
 416:network.c     ****                     result = TIME_SYNC_ERR;
 893              		.loc 1 416 0
 894 0150 3623     		mov	r3, #54
 895 0152 FB18     		add	r3, r7, r3
 896 0154 0122     		mov	r2, #1
 897 0156 1A80     		strh	r2, [r3]
 898              	.L50:
 417:network.c     ****                 }
 418:network.c     ****                                             
 419:network.c     ****                 i = NUM_TRY_SYNC; 
 899              		.loc 1 419 0
 900 0158 0E23     		mov	r3, #14
 901 015a FB62     		str	r3, [r7, #44]
 420:network.c     ****                 resultReceive = READ_OK;
 902              		.loc 1 420 0
 903 015c 0123     		mov	r3, #1
 904 015e 3B63     		str	r3, [r7, #48]
 905 0160 13E0     		b	.L45
 906              	.L46:
 421:network.c     ****             }
 422:network.c     ****             else
 423:network.c     ****             {
 424:network.c     ****                 numAttempsReseive++;
 907              		.loc 1 424 0
 908 0162 7B6A     		ldr	r3, [r7, #36]
 909 0164 0133     		add	r3, r3, #1
 910 0166 7B62     		str	r3, [r7, #36]
 425:network.c     ****                 resultReceive = NO_READ;
 911              		.loc 1 425 0
 912 0168 0023     		mov	r3, #0
 913 016a 3B63     		str	r3, [r7, #48]
 426:network.c     ****                 CyDelay(10);
 914              		.loc 1 426 0
 915 016c 0A20     		mov	r0, #10
 916 016e FFF7FEFF 		bl	CyDelay
 917 0172 3623     		mov	r3, #54
 918 0174 FB18     		add	r3, r7, r3
 919 0176 3622     		mov	r2, #54
 920 0178 BA18     		add	r2, r7, r2
 921 017a 1288     		ldrh	r2, [r2]
 922 017c 1A80     		strh	r2, [r3]
 923 017e 2A23     		mov	r3, #42
 924 0180 FB18     		add	r3, r7, r3
 925 0182 2A22     		mov	r2, #42
 926 0184 BA18     		add	r2, r7, r2
 927 0186 1288     		ldrh	r2, [r2]
 928 0188 1A80     		strh	r2, [r3]
 929              	.L45:
 367:network.c     ****         {
 930              		.loc 1 367 0
 931 018a 3B6B     		ldr	r3, [r7, #48]
 932 018c 002B     		cmp	r3, #0
ARM GAS  C:\Users\Petro\AppData\Local\Temp\cc7wT3EA.s 			page 25


 933 018e 03D1     		bne	.L51
 367:network.c     ****         {
 934              		.loc 1 367 0 is_stmt 0 discriminator 1
 935 0190 7B6A     		ldr	r3, [r7, #36]
 936 0192 C72B     		cmp	r3, #199
 937 0194 00D8     		bhi	.LCB790
 938 0196 69E7     		b	.L52	@long jump
 939              	.LCB790:
 940              	.L51:
 427:network.c     ****             }
 428:network.c     ****         }
 429:network.c     ****         
 430:network.c     ****         CyDelay(100);
 941              		.loc 1 430 0 is_stmt 1
 942 0198 6420     		mov	r0, #100
 943 019a FFF7FEFF 		bl	CyDelay
 431:network.c     ****         
 432:network.c     ****         IDpacket++;
 944              		.loc 1 432 0
 945 019e 2A23     		mov	r3, #42
 946 01a0 FB18     		add	r3, r7, r3
 947 01a2 1A88     		ldrh	r2, [r3]
 948 01a4 2A23     		mov	r3, #42
 949 01a6 FB18     		add	r3, r7, r3
 950 01a8 0132     		add	r2, r2, #1
 951 01aa 1A80     		strh	r2, [r3]
 433:network.c     ****         i++;  
 952              		.loc 1 433 0
 953 01ac FB6A     		ldr	r3, [r7, #44]
 954 01ae 0133     		add	r3, r3, #1
 955 01b0 FB62     		str	r3, [r7, #44]
 956              	.L44:
 351:network.c     ****     {
 957              		.loc 1 351 0 discriminator 1
 958 01b2 FB6A     		ldr	r3, [r7, #44]
 959 01b4 0D2B     		cmp	r3, #13
 960 01b6 00DC     		bgt	.LCB808
 961 01b8 36E7     		b	.L53	@long jump
 962              	.LCB808:
 434:network.c     ****     }
 435:network.c     **** 
 436:network.c     ****     return result;
 963              		.loc 1 436 0
 964 01ba 3623     		mov	r3, #54
 965 01bc FB18     		add	r3, r7, r3
 966 01be 1B88     		ldrh	r3, [r3]
 437:network.c     **** }
 967              		.loc 1 437 0
 968 01c0 181C     		mov	r0, r3
 969 01c2 BD46     		mov	sp, r7
 970 01c4 0FB0     		add	sp, sp, #60
 971              		@ sp needed
 972 01c6 90BD     		pop	{r4, r7, pc}
 973              		.cfi_endproc
 974              	.LFE71:
 975              		.size	NTPsync, .-NTPsync
 976              		.section	.rodata
ARM GAS  C:\Users\Petro\AppData\Local\Temp\cc7wT3EA.s 			page 26


 977 001b 00       		.align	2
 978              	.LC23:
 979 001c 25303858 		.ascii	"%08X%03X\000"
 979      25303358 
 979      00
 980 0025 000000   		.section	.text.NTPsendTime,"ax",%progbits
 981              		.align	2
 982              		.global	NTPsendTime
 983              		.code	16
 984              		.thumb_func
 985              		.type	NTPsendTime, %function
 986              	NTPsendTime:
 987              	.LFB72:
 438:network.c     **** 
 439:network.c     **** 
 440:network.c     **** /*******************************************************************************
 441:network.c     **** * Function Name: NTPsendTime
 442:network.c     **** ********************************************************************************
 443:network.c     **** *
 444:network.c     **** * Summary:
 445:network.c     **** *   send time to NTP protocol
 446:network.c     **** * Parametrs:
 447:network.c     **** *   unixTime - time in unix format
 448:network.c     **** *   millis - millis time
 449:network.c     **** *   ID - ID packet
 450:network.c     **** *
 451:network.c     **** *******************************************************************************/
 452:network.c     **** void NTPsendTime(uint32_t unixTime,uint16_t millis, uint16_t ID)
 453:network.c     **** {
 988              		.loc 1 453 0
 989              		.cfi_startproc
 990 0000 80B5     		push	{r7, lr}
 991              		.cfi_def_cfa_offset 8
 992              		.cfi_offset 7, -8
 993              		.cfi_offset 14, -4
 994 0002 9CB0     		sub	sp, sp, #112
 995              		.cfi_def_cfa_offset 120
 996 0004 00AF     		add	r7, sp, #0
 997              		.cfi_def_cfa_register 7
 998 0006 7860     		str	r0, [r7, #4]
 999 0008 081C     		mov	r0, r1
 1000 000a 111C     		mov	r1, r2
 1001 000c BB1C     		add	r3, r7, #2
 1002 000e 021C     		add	r2, r0, #0
 1003 0010 1A80     		strh	r2, [r3]
 1004 0012 3B1C     		mov	r3, r7
 1005 0014 0A1C     		add	r2, r1, #0
 1006 0016 1A80     		strh	r2, [r3]
 454:network.c     ****     char sendBuffer[DATA_BUFFER];
 455:network.c     ****     char sendData[DATA_BUFFER];
 456:network.c     ****     
 457:network.c     ****     /*Packaging data lasts 1 ms, so add it to the read time
 458:network.c     ****     send data lasts 32ms*/
 459:network.c     ****     millis += (1+31);
 1007              		.loc 1 459 0
 1008 0018 BB1C     		add	r3, r7, #2
 1009 001a BA1C     		add	r2, r7, #2
ARM GAS  C:\Users\Petro\AppData\Local\Temp\cc7wT3EA.s 			page 27


 1010 001c 1288     		ldrh	r2, [r2]
 1011 001e 2032     		add	r2, r2, #32
 1012 0020 1A80     		strh	r2, [r3]
 460:network.c     ****     if(millis >= 1000)
 1013              		.loc 1 460 0
 1014 0022 BB1C     		add	r3, r7, #2
 1015 0024 1B88     		ldrh	r3, [r3]
 1016 0026 144A     		ldr	r2, .L57
 1017 0028 9342     		cmp	r3, r2
 1018 002a 09D9     		bls	.L56
 461:network.c     ****     {
 462:network.c     ****         millis -= 1000;
 1019              		.loc 1 462 0
 1020 002c BB1C     		add	r3, r7, #2
 1021 002e BA1C     		add	r2, r7, #2
 1022 0030 1288     		ldrh	r2, [r2]
 1023 0032 1249     		ldr	r1, .L57+4
 1024 0034 8C46     		mov	ip, r1
 1025 0036 6244     		add	r2, r2, ip
 1026 0038 1A80     		strh	r2, [r3]
 463:network.c     ****         unixTime++;
 1027              		.loc 1 463 0
 1028 003a 7B68     		ldr	r3, [r7, #4]
 1029 003c 0133     		add	r3, r3, #1
 1030 003e 7B60     		str	r3, [r7, #4]
 1031              	.L56:
 464:network.c     ****     }
 465:network.c     ****     
 466:network.c     ****     /*pack data*/
 467:network.c     ****     sprintf(sendData,"%08X%03X", unixTime,millis); 
 1032              		.loc 1 467 0
 1033 0040 BB1C     		add	r3, r7, #2
 1034 0042 1B88     		ldrh	r3, [r3]
 1035 0044 0822     		mov	r2, #8
 1036 0046 B818     		add	r0, r7, r2
 1037 0048 0D49     		ldr	r1, .L57+8
 1038 004a 7A68     		ldr	r2, [r7, #4]
 1039 004c FFF7FEFF 		bl	sprintf
 468:network.c     ****     PackData(sendBuffer, (uint8_t *)sendData, ID);
 1040              		.loc 1 468 0
 1041 0050 3C23     		mov	r3, #60
 1042 0052 F918     		add	r1, r7, r3
 1043 0054 0823     		mov	r3, #8
 1044 0056 FA18     		add	r2, r7, r3
 1045 0058 3B1C     		mov	r3, r7
 1046 005a 1B88     		ldrh	r3, [r3]
 1047 005c 081C     		mov	r0, r1
 1048 005e 111C     		mov	r1, r2
 1049 0060 1A1C     		mov	r2, r3
 1050 0062 FFF7FEFF 		bl	PackData
 469:network.c     ****     UART_XB_UartPutString(sendBuffer);
 1051              		.loc 1 469 0
 1052 0066 3C23     		mov	r3, #60
 1053 0068 FB18     		add	r3, r7, r3
 1054 006a 181C     		mov	r0, r3
 1055 006c FFF7FEFF 		bl	UART_XB_UartPutString
 470:network.c     ****     #ifdef DEBUGNTP
ARM GAS  C:\Users\Petro\AppData\Local\Temp\cc7wT3EA.s 			page 28


 471:network.c     ****         pinDebugNtp_Write(1);
 472:network.c     ****         pinDebugNtp_Write(0);
 473:network.c     ****     #endif
 474:network.c     ****     
 475:network.c     ****     #ifdef DEBUG_INFO 
 476:network.c     ****         SW_UART_DEBUG_PutString(sendBuffer);
 477:network.c     ****         SW_UART_DEBUG_PutString("\n\r");
 478:network.c     ****     #endif  
 479:network.c     **** }
 1056              		.loc 1 479 0
 1057 0070 BD46     		mov	sp, r7
 1058 0072 1CB0     		add	sp, sp, #112
 1059              		@ sp needed
 1060 0074 80BD     		pop	{r7, pc}
 1061              	.L58:
 1062 0076 C046     		.align	2
 1063              	.L57:
 1064 0078 E7030000 		.word	999
 1065 007c 18FCFFFF 		.word	-1000
 1066 0080 1C000000 		.word	.LC23
 1067              		.cfi_endproc
 1068              	.LFE72:
 1069              		.size	NTPsendTime, .-NTPsendTime
 1070              		.section	.text.NTPreceiveTime,"ax",%progbits
 1071              		.align	2
 1072              		.global	NTPreceiveTime
 1073              		.code	16
 1074              		.thumb_func
 1075              		.type	NTPreceiveTime, %function
 1076              	NTPreceiveTime:
 1077              	.LFB73:
 480:network.c     **** 
 481:network.c     **** /*******************************************************************************
 482:network.c     **** * Function Name: NTPreceiveTime
 483:network.c     **** ********************************************************************************
 484:network.c     **** *
 485:network.c     **** * Summary:
 486:network.c     **** *   receive time to NTP protocol
 487:network.c     **** * Parametrs:
 488:network.c     **** *   *unixTime2,unixTime3 - time in unix format
 489:network.c     **** *   *millisTime2,millisTime3 - millis time
 490:network.c     **** *   *IDreceive - ID packet
 491:network.c     **** * Return:
 492:network.c     **** *   READ_OK or NO_READ
 493:network.c     **** *
 494:network.c     **** *******************************************************************************/
 495:network.c     **** uint32_t NTPreceiveTime(uint32_t *unixTime2, uint16_t *millisTime2, uint32_t *unixTime3, uint16_t *
 496:network.c     **** {
 1078              		.loc 1 496 0
 1079              		.cfi_startproc
 1080 0000 80B5     		push	{r7, lr}
 1081              		.cfi_def_cfa_offset 8
 1082              		.cfi_offset 7, -8
 1083              		.cfi_offset 14, -4
 1084 0002 8CB0     		sub	sp, sp, #48
 1085              		.cfi_def_cfa_offset 56
 1086 0004 00AF     		add	r7, sp, #0
ARM GAS  C:\Users\Petro\AppData\Local\Temp\cc7wT3EA.s 			page 29


 1087              		.cfi_def_cfa_register 7
 1088 0006 F860     		str	r0, [r7, #12]
 1089 0008 B960     		str	r1, [r7, #8]
 1090 000a 7A60     		str	r2, [r7, #4]
 1091 000c 3B60     		str	r3, [r7]
 497:network.c     ****     uint8_t byte;
 498:network.c     ****     uint32_t result;
 499:network.c     ****     
 500:network.c     ****     result = READ_OK;   
 1092              		.loc 1 500 0
 1093 000e 0123     		mov	r3, #1
 1094 0010 FB62     		str	r3, [r7, #44]
 501:network.c     ****     NtpResp recvDataNTP;
 502:network.c     ****     while((UART_XB_SpiUartGetRxBufferSize() > 0) && ((byte = UART_XB_UartGetChar()) != 0))
 1095              		.loc 1 502 0
 1096 0012 2FE0     		b	.L60
 1097              	.L64:
 503:network.c     ****     {
 504:network.c     ****         result = NtpUnpackData(&recvDataNTP, (uint8_t)(byte & 0xFF));
 1098              		.loc 1 504 0
 1099 0014 1023     		mov	r3, #16
 1100 0016 FA18     		add	r2, r7, r3
 1101 0018 2B23     		mov	r3, #43
 1102 001a FB18     		add	r3, r7, r3
 1103 001c 1B78     		ldrb	r3, [r3]
 1104 001e 101C     		mov	r0, r2
 1105 0020 191C     		mov	r1, r3
 1106 0022 FFF7FEFF 		bl	NtpUnpackData
 1107 0026 031C     		mov	r3, r0
 1108 0028 FB62     		str	r3, [r7, #44]
 505:network.c     ****         CyDelay(1);
 1109              		.loc 1 505 0
 1110 002a 0120     		mov	r0, #1
 1111 002c FFF7FEFF 		bl	CyDelay
 506:network.c     ****         #ifdef DEBUG_INFO
 507:network.c     ****             //SW_UART_DEBUG_PutChar(byte);
 508:network.c     ****         #endif
 509:network.c     ****             
 510:network.c     ****         if(recvDataNTP.EndPacket == 1)
 1112              		.loc 1 510 0
 1113 0030 1023     		mov	r3, #16
 1114 0032 FB18     		add	r3, r7, r3
 1115 0034 1B7D     		ldrb	r3, [r3, #20]
 1116 0036 012B     		cmp	r3, #1
 1117 0038 1AD1     		bne	.L61
 511:network.c     ****         {
 512:network.c     ****             /*save unix time*/
 513:network.c     ****             *IDreceive = recvDataNTP.Id;
 1118              		.loc 1 513 0
 1119 003a 1023     		mov	r3, #16
 1120 003c FB18     		add	r3, r7, r3
 1121 003e 1A88     		ldrh	r2, [r3]
 1122 0040 BB6B     		ldr	r3, [r7, #56]
 1123 0042 1A80     		strh	r2, [r3]
 514:network.c     ****             *unixTime2 = recvDataNTP.Data1;
 1124              		.loc 1 514 0
 1125 0044 1023     		mov	r3, #16
ARM GAS  C:\Users\Petro\AppData\Local\Temp\cc7wT3EA.s 			page 30


 1126 0046 FB18     		add	r3, r7, r3
 1127 0048 5A68     		ldr	r2, [r3, #4]
 1128 004a FB68     		ldr	r3, [r7, #12]
 1129 004c 1A60     		str	r2, [r3]
 515:network.c     ****             *millisTime2 = recvDataNTP.DataMs1;
 1130              		.loc 1 515 0
 1131 004e 1023     		mov	r3, #16
 1132 0050 FB18     		add	r3, r7, r3
 1133 0052 1A89     		ldrh	r2, [r3, #8]
 1134 0054 BB68     		ldr	r3, [r7, #8]
 1135 0056 1A80     		strh	r2, [r3]
 516:network.c     ****             *unixTime3 = recvDataNTP.Data2;
 1136              		.loc 1 516 0
 1137 0058 1023     		mov	r3, #16
 1138 005a FB18     		add	r3, r7, r3
 1139 005c DA68     		ldr	r2, [r3, #12]
 1140 005e 7B68     		ldr	r3, [r7, #4]
 1141 0060 1A60     		str	r2, [r3]
 517:network.c     ****             *millisTime3 = recvDataNTP.DataMs2;
 1142              		.loc 1 517 0
 1143 0062 1023     		mov	r3, #16
 1144 0064 FB18     		add	r3, r7, r3
 1145 0066 5A89     		ldrh	r2, [r3, #10]
 1146 0068 3B68     		ldr	r3, [r7]
 1147 006a 1A80     		strh	r2, [r3]
 518:network.c     **** 
 519:network.c     ****             #ifdef DEBUG_INFO
 520:network.c     ****                 char uartBuff[100];
 521:network.c     ****                 sprintf(uartBuff,"id receive=%u\n\r",recvDataNTP.Id);
 522:network.c     ****                 SW_UART_DEBUG_PutString(uartBuff);
 523:network.c     ****             #endif
 524:network.c     ****         
 525:network.c     ****             return READ_OK;
 1148              		.loc 1 525 0
 1149 006c 0123     		mov	r3, #1
 1150 006e 13E0     		b	.L65
 1151              	.L61:
 526:network.c     ****         }
 527:network.c     ****         result = NO_READ;
 1152              		.loc 1 527 0
 1153 0070 0023     		mov	r3, #0
 1154 0072 FB62     		str	r3, [r7, #44]
 1155              	.L60:
 502:network.c     ****     {
 1156              		.loc 1 502 0
 1157 0074 FFF7FEFF 		bl	UART_XB_SpiUartGetRxBufferSize
 1158 0078 031E     		sub	r3, r0, #0
 1159 007a 0AD0     		beq	.L63
 502:network.c     ****     {
 1160              		.loc 1 502 0 is_stmt 0 discriminator 1
 1161 007c FFF7FEFF 		bl	UART_XB_UartGetChar
 1162 0080 021C     		mov	r2, r0
 1163 0082 2B23     		mov	r3, #43
 1164 0084 FB18     		add	r3, r7, r3
 1165 0086 1A70     		strb	r2, [r3]
 1166 0088 2B23     		mov	r3, #43
 1167 008a FB18     		add	r3, r7, r3
ARM GAS  C:\Users\Petro\AppData\Local\Temp\cc7wT3EA.s 			page 31


 1168 008c 1B78     		ldrb	r3, [r3]
 1169 008e 002B     		cmp	r3, #0
 1170 0090 C0D1     		bne	.L64
 1171              	.L63:
 528:network.c     ****     }
 529:network.c     ****     result = NO_READ;
 1172              		.loc 1 529 0 is_stmt 1
 1173 0092 0023     		mov	r3, #0
 1174 0094 FB62     		str	r3, [r7, #44]
 530:network.c     ****     
 531:network.c     ****     return result;
 1175              		.loc 1 531 0
 1176 0096 FB6A     		ldr	r3, [r7, #44]
 1177              	.L65:
 532:network.c     **** }
 1178              		.loc 1 532 0 discriminator 1
 1179 0098 181C     		mov	r0, r3
 1180 009a BD46     		mov	sp, r7
 1181 009c 0CB0     		add	sp, sp, #48
 1182              		@ sp needed
 1183 009e 80BD     		pop	{r7, pc}
 1184              		.cfi_endproc
 1185              	.LFE73:
 1186              		.size	NTPreceiveTime, .-NTPreceiveTime
 1187              		.section	.text.NTPsetTimeToStart,"ax",%progbits
 1188              		.align	2
 1189              		.global	NTPsetTimeToStart
 1190              		.code	16
 1191              		.thumb_func
 1192              		.type	NTPsetTimeToStart, %function
 1193              	NTPsetTimeToStart:
 1194              	.LFB74:
 533:network.c     **** 
 534:network.c     **** /*******************************************************************************
 535:network.c     **** * Function Name: NTPsetTimeToStart
 536:network.c     **** ********************************************************************************
 537:network.c     **** *
 538:network.c     **** * Summary:
 539:network.c     **** *   sending start time based on the time of delivery
 540:network.c     **** * Parametrs:
 541:network.c     **** *   unixTime4 - time in unix format
 542:network.c     **** *   millisTime4 - millis time
 543:network.c     **** *   ID - ID packet
 544:network.c     **** *
 545:network.c     **** *******************************************************************************/
 546:network.c     **** uint32_t NTPsetTimeToStart(uint32_t unixTime4, uint16_t millisTime4, uint16_t ID)
 547:network.c     **** {
 1195              		.loc 1 547 0
 1196              		.cfi_startproc
 1197 0000 90B5     		push	{r4, r7, lr}
 1198              		.cfi_def_cfa_offset 12
 1199              		.cfi_offset 4, -12
 1200              		.cfi_offset 7, -8
 1201              		.cfi_offset 14, -4
 1202 0002 89B0     		sub	sp, sp, #36
 1203              		.cfi_def_cfa_offset 48
 1204 0004 02AF     		add	r7, sp, #8
ARM GAS  C:\Users\Petro\AppData\Local\Temp\cc7wT3EA.s 			page 32


 1205              		.cfi_def_cfa 7, 40
 1206 0006 7860     		str	r0, [r7, #4]
 1207 0008 081C     		mov	r0, r1
 1208 000a 111C     		mov	r1, r2
 1209 000c BB1C     		add	r3, r7, #2
 1210 000e 021C     		add	r2, r0, #0
 1211 0010 1A80     		strh	r2, [r3]
 1212 0012 3B1C     		mov	r3, r7
 1213 0014 0A1C     		add	r2, r1, #0
 1214 0016 1A80     		strh	r2, [r3]
 548:network.c     ****     
 549:network.c     ****     uint32_t resultReceive;
 550:network.c     ****     uint16_t IDreceivePacket;
 551:network.c     ****     uint32_t result;
 552:network.c     ****     
 553:network.c     ****     noConnect = 0;
 1215              		.loc 1 553 0
 1216 0018 224B     		ldr	r3, .L72
 1217 001a 0022     		mov	r2, #0
 1218 001c 1A60     		str	r2, [r3]
 554:network.c     ****     result = NO_WRITE;
 1219              		.loc 1 554 0
 1220 001e 0023     		mov	r3, #0
 1221 0020 7B61     		str	r3, [r7, #20]
 555:network.c     ****     
 556:network.c     ****     while((result == NO_WRITE) && (noConnect < 10))
 1222              		.loc 1 556 0
 1223 0022 33E0     		b	.L67
 1224              	.L70:
 557:network.c     ****     {      
 558:network.c     ****         NTPsendTime(unixTime4, millisTime4,ID); 
 1225              		.loc 1 558 0
 1226 0024 7968     		ldr	r1, [r7, #4]
 1227 0026 BB1C     		add	r3, r7, #2
 1228 0028 1A88     		ldrh	r2, [r3]
 1229 002a 3B1C     		mov	r3, r7
 1230 002c 1B88     		ldrh	r3, [r3]
 1231 002e 081C     		mov	r0, r1
 1232 0030 111C     		mov	r1, r2
 1233 0032 1A1C     		mov	r2, r3
 1234 0034 FFF7FEFF 		bl	NTPsendTime
 559:network.c     ****         
 560:network.c     ****         CyDelay(500);
 1235              		.loc 1 560 0
 1236 0038 FA23     		mov	r3, #250
 1237 003a 5B00     		lsl	r3, r3, #1
 1238 003c 181C     		mov	r0, r3
 1239 003e FFF7FEFF 		bl	CyDelay
 561:network.c     ****         resultReceive = NTPreceiveTime(&unixTime[T2], &millisTime[T2], &unixTime[T3], &millisTime[T
 1240              		.loc 1 561 0
 1241 0042 1948     		ldr	r0, .L72+4
 1242 0044 1949     		ldr	r1, .L72+8
 1243 0046 1A4A     		ldr	r2, .L72+12
 1244 0048 1A4C     		ldr	r4, .L72+16
 1245 004a 0E23     		mov	r3, #14
 1246 004c FB18     		add	r3, r7, r3
 1247 004e 0093     		str	r3, [sp]
ARM GAS  C:\Users\Petro\AppData\Local\Temp\cc7wT3EA.s 			page 33


 1248 0050 231C     		mov	r3, r4
 1249 0052 FFF7FEFF 		bl	NTPreceiveTime
 1250 0056 031C     		mov	r3, r0
 1251 0058 3B61     		str	r3, [r7, #16]
 562:network.c     ****         if((resultReceive == READ_OK) && (IDreceivePacket == ID))
 1252              		.loc 1 562 0
 1253 005a 3B69     		ldr	r3, [r7, #16]
 1254 005c 012B     		cmp	r3, #1
 1255 005e 09D1     		bne	.L68
 1256              		.loc 1 562 0 is_stmt 0 discriminator 1
 1257 0060 0E23     		mov	r3, #14
 1258 0062 FB18     		add	r3, r7, r3
 1259 0064 1B88     		ldrh	r3, [r3]
 1260 0066 3A1C     		mov	r2, r7
 1261 0068 1288     		ldrh	r2, [r2]
 1262 006a 9A42     		cmp	r2, r3
 1263 006c 02D1     		bne	.L68
 563:network.c     ****         {
 564:network.c     ****             result = WRITE_OK;
 1264              		.loc 1 564 0 is_stmt 1
 1265 006e 0123     		mov	r3, #1
 1266 0070 7B61     		str	r3, [r7, #20]
 1267 0072 0BE0     		b	.L67
 1268              	.L68:
 565:network.c     ****             #ifdef DEBUG_INFO 
 566:network.c     ****                 SW_UART_DEBUG_PutString("send delivery time ok\n\r");
 567:network.c     ****             #endif 
 568:network.c     ****         }
 569:network.c     ****         else
 570:network.c     ****         {
 571:network.c     ****             result = NO_WRITE;
 1269              		.loc 1 571 0
 1270 0074 0023     		mov	r3, #0
 1271 0076 7B61     		str	r3, [r7, #20]
 572:network.c     ****             noConnect++;
 1272              		.loc 1 572 0
 1273 0078 0A4B     		ldr	r3, .L72
 1274 007a 1B68     		ldr	r3, [r3]
 1275 007c 5A1C     		add	r2, r3, #1
 1276 007e 094B     		ldr	r3, .L72
 1277 0080 1A60     		str	r2, [r3]
 573:network.c     ****             CyDelay(500);
 1278              		.loc 1 573 0
 1279 0082 FA23     		mov	r3, #250
 1280 0084 5B00     		lsl	r3, r3, #1
 1281 0086 181C     		mov	r0, r3
 1282 0088 FFF7FEFF 		bl	CyDelay
 1283              	.L67:
 556:network.c     ****     {      
 1284              		.loc 1 556 0
 1285 008c 7B69     		ldr	r3, [r7, #20]
 1286 008e 002B     		cmp	r3, #0
 1287 0090 03D1     		bne	.L69
 556:network.c     ****     {      
 1288              		.loc 1 556 0 is_stmt 0 discriminator 1
 1289 0092 044B     		ldr	r3, .L72
 1290 0094 1B68     		ldr	r3, [r3]
ARM GAS  C:\Users\Petro\AppData\Local\Temp\cc7wT3EA.s 			page 34


 1291 0096 092B     		cmp	r3, #9
 1292 0098 C4D9     		bls	.L70
 1293              	.L69:
 574:network.c     ****             
 575:network.c     ****             #ifdef DEBUG_INFO 
 576:network.c     ****                 char uartBuff[100];
 577:network.c     ****                 sprintf(uartBuff,"noConnect=%u",noConnect);
 578:network.c     ****                 SW_UART_DEBUG_PutString(uartBuff);
 579:network.c     ****             #endif             
 580:network.c     ****         }
 581:network.c     ****     }
 582:network.c     ****     
 583:network.c     ****     return result;
 1294              		.loc 1 583 0 is_stmt 1
 1295 009a 7B69     		ldr	r3, [r7, #20]
 584:network.c     **** }
 1296              		.loc 1 584 0
 1297 009c 181C     		mov	r0, r3
 1298 009e BD46     		mov	sp, r7
 1299 00a0 07B0     		add	sp, sp, #28
 1300              		@ sp needed
 1301 00a2 90BD     		pop	{r4, r7, pc}
 1302              	.L73:
 1303              		.align	2
 1304              	.L72:
 1305 00a4 00000000 		.word	noConnect
 1306 00a8 04000000 		.word	unixTime+4
 1307 00ac 02000000 		.word	millisTime+2
 1308 00b0 08000000 		.word	unixTime+8
 1309 00b4 04000000 		.word	millisTime+4
 1310              		.cfi_endproc
 1311              	.LFE74:
 1312              		.size	NTPsetTimeToStart, .-NTPsetTimeToStart
 1313              		.section	.text.NTPcalculateTime,"ax",%progbits
 1314              		.align	2
 1315              		.global	NTPcalculateTime
 1316              		.code	16
 1317              		.thumb_func
 1318              		.type	NTPcalculateTime, %function
 1319              	NTPcalculateTime:
 1320              	.LFB75:
 585:network.c     **** 
 586:network.c     **** void NTPcalculateTime(uint32_t unixTime[], uint16_t msTime[], int32_t *sumTime, int32_t *sumMs)
 587:network.c     **** {
 1321              		.loc 1 587 0
 1322              		.cfi_startproc
 1323 0000 80B5     		push	{r7, lr}
 1324              		.cfi_def_cfa_offset 8
 1325              		.cfi_offset 7, -8
 1326              		.cfi_offset 14, -4
 1327 0002 8AB0     		sub	sp, sp, #40
 1328              		.cfi_def_cfa_offset 48
 1329 0004 00AF     		add	r7, sp, #0
 1330              		.cfi_def_cfa_register 7
 1331 0006 F860     		str	r0, [r7, #12]
 1332 0008 B960     		str	r1, [r7, #8]
 1333 000a 7A60     		str	r2, [r7, #4]
ARM GAS  C:\Users\Petro\AppData\Local\Temp\cc7wT3EA.s 			page 35


 1334 000c 3B60     		str	r3, [r7]
 588:network.c     ****     /*calculate ms time*/
 589:network.c     ****     int32_t tmpMsMaster;
 590:network.c     ****     int32_t tmpTimeMaster;    
 591:network.c     ****     int32_t tmpMsSlave;
 592:network.c     ****     int32_t tmpTimeSlave;
 593:network.c     ****     int32_t tmpDiffTime;
 594:network.c     ****     int32_t tmpDiffMs;
 595:network.c     ****     
 596:network.c     ****     tmpTimeMaster = unixTime[T4] - unixTime[T1];
 1335              		.loc 1 596 0
 1336 000e FB68     		ldr	r3, [r7, #12]
 1337 0010 0C33     		add	r3, r3, #12
 1338 0012 1A68     		ldr	r2, [r3]
 1339 0014 FB68     		ldr	r3, [r7, #12]
 1340 0016 1B68     		ldr	r3, [r3]
 1341 0018 D31A     		sub	r3, r2, r3
 1342 001a 3B62     		str	r3, [r7, #32]
 597:network.c     ****     tmpMsMaster = (msTime[T4] - msTime[T1]);
 1343              		.loc 1 597 0
 1344 001c BB68     		ldr	r3, [r7, #8]
 1345 001e 0633     		add	r3, r3, #6
 1346 0020 1B88     		ldrh	r3, [r3]
 1347 0022 1A1C     		mov	r2, r3
 1348 0024 BB68     		ldr	r3, [r7, #8]
 1349 0026 1B88     		ldrh	r3, [r3]
 1350 0028 D31A     		sub	r3, r2, r3
 1351 002a 7B62     		str	r3, [r7, #36]
 598:network.c     ****     if(tmpMsMaster < 0)
 1352              		.loc 1 598 0
 1353 002c 7B6A     		ldr	r3, [r7, #36]
 1354 002e 002B     		cmp	r3, #0
 1355 0030 08DA     		bge	.L75
 599:network.c     ****     {
 600:network.c     ****         tmpMsMaster += 1000;
 1356              		.loc 1 600 0
 1357 0032 7B6A     		ldr	r3, [r7, #36]
 1358 0034 FA22     		mov	r2, #250
 1359 0036 9200     		lsl	r2, r2, #2
 1360 0038 9446     		mov	ip, r2
 1361 003a 6344     		add	r3, r3, ip
 1362 003c 7B62     		str	r3, [r7, #36]
 601:network.c     ****         tmpTimeMaster--;
 1363              		.loc 1 601 0
 1364 003e 3B6A     		ldr	r3, [r7, #32]
 1365 0040 013B     		sub	r3, r3, #1
 1366 0042 3B62     		str	r3, [r7, #32]
 1367              	.L75:
 602:network.c     ****     }
 603:network.c     ****     
 604:network.c     ****     tmpTimeSlave = unixTime[T3] - unixTime[T2];
 1368              		.loc 1 604 0
 1369 0044 FB68     		ldr	r3, [r7, #12]
 1370 0046 0833     		add	r3, r3, #8
 1371 0048 1A68     		ldr	r2, [r3]
 1372 004a FB68     		ldr	r3, [r7, #12]
 1373 004c 0433     		add	r3, r3, #4
ARM GAS  C:\Users\Petro\AppData\Local\Temp\cc7wT3EA.s 			page 36


 1374 004e 1B68     		ldr	r3, [r3]
 1375 0050 D31A     		sub	r3, r2, r3
 1376 0052 BB61     		str	r3, [r7, #24]
 605:network.c     ****     tmpMsSlave = msTime[T3] - msTime[T2];
 1377              		.loc 1 605 0
 1378 0054 BB68     		ldr	r3, [r7, #8]
 1379 0056 0433     		add	r3, r3, #4
 1380 0058 1B88     		ldrh	r3, [r3]
 1381 005a 1A1C     		mov	r2, r3
 1382 005c BB68     		ldr	r3, [r7, #8]
 1383 005e 0233     		add	r3, r3, #2
 1384 0060 1B88     		ldrh	r3, [r3]
 1385 0062 D31A     		sub	r3, r2, r3
 1386 0064 FB61     		str	r3, [r7, #28]
 606:network.c     ****     if(tmpMsSlave < 0)
 1387              		.loc 1 606 0
 1388 0066 FB69     		ldr	r3, [r7, #28]
 1389 0068 002B     		cmp	r3, #0
 1390 006a 08DA     		bge	.L76
 607:network.c     ****     {
 608:network.c     ****         tmpMsSlave += 1000;
 1391              		.loc 1 608 0
 1392 006c FB69     		ldr	r3, [r7, #28]
 1393 006e FA22     		mov	r2, #250
 1394 0070 9200     		lsl	r2, r2, #2
 1395 0072 9446     		mov	ip, r2
 1396 0074 6344     		add	r3, r3, ip
 1397 0076 FB61     		str	r3, [r7, #28]
 609:network.c     ****         tmpTimeSlave--;
 1398              		.loc 1 609 0
 1399 0078 BB69     		ldr	r3, [r7, #24]
 1400 007a 013B     		sub	r3, r3, #1
 1401 007c BB61     		str	r3, [r7, #24]
 1402              	.L76:
 610:network.c     ****     }
 611:network.c     ****     
 612:network.c     ****     tmpDiffTime = tmpTimeMaster - tmpTimeSlave;
 1403              		.loc 1 612 0
 1404 007e 3A6A     		ldr	r2, [r7, #32]
 1405 0080 BB69     		ldr	r3, [r7, #24]
 1406 0082 D31A     		sub	r3, r2, r3
 1407 0084 3B61     		str	r3, [r7, #16]
 613:network.c     ****     tmpDiffMs = tmpMsMaster - tmpMsSlave;
 1408              		.loc 1 613 0
 1409 0086 7A6A     		ldr	r2, [r7, #36]
 1410 0088 FB69     		ldr	r3, [r7, #28]
 1411 008a D31A     		sub	r3, r2, r3
 1412 008c 7B61     		str	r3, [r7, #20]
 614:network.c     ****     
 615:network.c     ****     tmpDiffMs /= 2;
 1413              		.loc 1 615 0
 1414 008e 7B69     		ldr	r3, [r7, #20]
 1415 0090 002B     		cmp	r3, #0
 1416 0092 00DA     		bge	.L77
 1417 0094 0133     		add	r3, r3, #1
 1418              	.L77:
 1419 0096 5B10     		asr	r3, r3, #1
ARM GAS  C:\Users\Petro\AppData\Local\Temp\cc7wT3EA.s 			page 37


 1420 0098 7B61     		str	r3, [r7, #20]
 616:network.c     ****     if(tmpDiffTime%2 == 1)
 1421              		.loc 1 616 0
 1422 009a 3B69     		ldr	r3, [r7, #16]
 1423 009c 0E4A     		ldr	r2, .L81
 1424 009e 1340     		and	r3, r2
 1425 00a0 04D5     		bpl	.L78
 1426 00a2 013B     		sub	r3, r3, #1
 1427 00a4 0222     		mov	r2, #2
 1428 00a6 5242     		neg	r2, r2
 1429 00a8 1343     		orr	r3, r2
 1430 00aa 0133     		add	r3, r3, #1
 1431              	.L78:
 1432 00ac 012B     		cmp	r3, #1
 1433 00ae 03D1     		bne	.L79
 617:network.c     ****     {
 618:network.c     ****         tmpDiffMs += 500;
 1434              		.loc 1 618 0
 1435 00b0 7B69     		ldr	r3, [r7, #20]
 1436 00b2 F533     		add	r3, r3, #245
 1437 00b4 FF33     		add	r3, r3, #255
 1438 00b6 7B61     		str	r3, [r7, #20]
 1439              	.L79:
 619:network.c     ****     }
 620:network.c     ****     tmpDiffTime /= 2;
 1440              		.loc 1 620 0
 1441 00b8 3B69     		ldr	r3, [r7, #16]
 1442 00ba 002B     		cmp	r3, #0
 1443 00bc 00DA     		bge	.L80
 1444 00be 0133     		add	r3, r3, #1
 1445              	.L80:
 1446 00c0 5B10     		asr	r3, r3, #1
 1447 00c2 3B61     		str	r3, [r7, #16]
 621:network.c     ****     
 622:network.c     ****     *sumTime = tmpDiffTime;
 1448              		.loc 1 622 0
 1449 00c4 7B68     		ldr	r3, [r7, #4]
 1450 00c6 3A69     		ldr	r2, [r7, #16]
 1451 00c8 1A60     		str	r2, [r3]
 623:network.c     ****     *sumMs = tmpDiffMs;   
 1452              		.loc 1 623 0
 1453 00ca 3B68     		ldr	r3, [r7]
 1454 00cc 7A69     		ldr	r2, [r7, #20]
 1455 00ce 1A60     		str	r2, [r3]
 624:network.c     **** }
 1456              		.loc 1 624 0
 1457 00d0 BD46     		mov	sp, r7
 1458 00d2 0AB0     		add	sp, sp, #40
 1459              		@ sp needed
 1460 00d4 80BD     		pop	{r7, pc}
 1461              	.L82:
 1462 00d6 C046     		.align	2
 1463              	.L81:
 1464 00d8 01000080 		.word	-2147483647
 1465              		.cfi_endproc
 1466              	.LFE75:
 1467              		.size	NTPcalculateTime, .-NTPcalculateTime
ARM GAS  C:\Users\Petro\AppData\Local\Temp\cc7wT3EA.s 			page 38


 1468              		.text
 1469              	.Letext0:
 1470              		.file 2 "c:\\program files (x86)\\cypress\\psoc creator\\4.0\\psoc creator\\import\\gnu\\arm\\4.9.
 1471              		.file 3 "c:\\program files (x86)\\cypress\\psoc creator\\4.0\\psoc creator\\import\\gnu\\arm\\4.9.
 1472              		.file 4 "lib_Network/svt.h"
 1473              		.file 5 "lib_Network/ntp.h"
 1474              		.file 6 "Generated_Source\\PSoC4/ble_Stack.h"
 1475              		.section	.debug_info,"",%progbits
 1476              	.Ldebug_info0:
 1477 0000 D1080000 		.4byte	0x8d1
 1478 0004 0400     		.2byte	0x4
 1479 0006 00000000 		.4byte	.Ldebug_abbrev0
 1480 000a 04       		.byte	0x4
 1481 000b 01       		.uleb128 0x1
 1482 000c 5D0A0000 		.4byte	.LASF151
 1483 0010 01       		.byte	0x1
 1484 0011 DA030000 		.4byte	.LASF152
 1485 0015 7D070000 		.4byte	.LASF153
 1486 0019 00000000 		.4byte	.Ldebug_ranges0+0
 1487 001d 00000000 		.4byte	0
 1488 0021 00000000 		.4byte	.Ldebug_line0
 1489 0025 02       		.uleb128 0x2
 1490 0026 01       		.byte	0x1
 1491 0027 06       		.byte	0x6
 1492 0028 F2000000 		.4byte	.LASF0
 1493 002c 03       		.uleb128 0x3
 1494 002d FE000000 		.4byte	.LASF3
 1495 0031 02       		.byte	0x2
 1496 0032 1D       		.byte	0x1d
 1497 0033 37000000 		.4byte	0x37
 1498 0037 02       		.uleb128 0x2
 1499 0038 01       		.byte	0x1
 1500 0039 08       		.byte	0x8
 1501 003a 58070000 		.4byte	.LASF1
 1502 003e 02       		.uleb128 0x2
 1503 003f 02       		.byte	0x2
 1504 0040 05       		.byte	0x5
 1505 0041 E7070000 		.4byte	.LASF2
 1506 0045 03       		.uleb128 0x3
 1507 0046 F8080000 		.4byte	.LASF4
 1508 004a 02       		.byte	0x2
 1509 004b 2B       		.byte	0x2b
 1510 004c 50000000 		.4byte	0x50
 1511 0050 02       		.uleb128 0x2
 1512 0051 02       		.byte	0x2
 1513 0052 07       		.byte	0x7
 1514 0053 A1090000 		.4byte	.LASF5
 1515 0057 03       		.uleb128 0x3
 1516 0058 1B090000 		.4byte	.LASF6
 1517 005c 02       		.byte	0x2
 1518 005d 3F       		.byte	0x3f
 1519 005e 62000000 		.4byte	0x62
 1520 0062 02       		.uleb128 0x2
 1521 0063 04       		.byte	0x4
 1522 0064 05       		.byte	0x5
 1523 0065 38010000 		.4byte	.LASF7
 1524 0069 03       		.uleb128 0x3
ARM GAS  C:\Users\Petro\AppData\Local\Temp\cc7wT3EA.s 			page 39


 1525 006a 47030000 		.4byte	.LASF8
 1526 006e 02       		.byte	0x2
 1527 006f 41       		.byte	0x41
 1528 0070 74000000 		.4byte	0x74
 1529 0074 02       		.uleb128 0x2
 1530 0075 04       		.byte	0x4
 1531 0076 07       		.byte	0x7
 1532 0077 34040000 		.4byte	.LASF9
 1533 007b 02       		.uleb128 0x2
 1534 007c 08       		.byte	0x8
 1535 007d 05       		.byte	0x5
 1536 007e 22020000 		.4byte	.LASF10
 1537 0082 03       		.uleb128 0x3
 1538 0083 0F070000 		.4byte	.LASF11
 1539 0087 02       		.byte	0x2
 1540 0088 5B       		.byte	0x5b
 1541 0089 8D000000 		.4byte	0x8d
 1542 008d 02       		.uleb128 0x2
 1543 008e 08       		.byte	0x8
 1544 008f 07       		.byte	0x7
 1545 0090 41010000 		.4byte	.LASF12
 1546 0094 04       		.uleb128 0x4
 1547 0095 04       		.byte	0x4
 1548 0096 05       		.byte	0x5
 1549 0097 696E7400 		.ascii	"int\000"
 1550 009b 02       		.uleb128 0x2
 1551 009c 04       		.byte	0x4
 1552 009d 07       		.byte	0x7
 1553 009e CD030000 		.4byte	.LASF13
 1554 00a2 03       		.uleb128 0x3
 1555 00a3 4D0A0000 		.4byte	.LASF14
 1556 00a7 03       		.byte	0x3
 1557 00a8 15       		.byte	0x15
 1558 00a9 2C000000 		.4byte	0x2c
 1559 00ad 03       		.uleb128 0x3
 1560 00ae 47050000 		.4byte	.LASF15
 1561 00b2 03       		.byte	0x3
 1562 00b3 21       		.byte	0x21
 1563 00b4 45000000 		.4byte	0x45
 1564 00b8 03       		.uleb128 0x3
 1565 00b9 50070000 		.4byte	.LASF16
 1566 00bd 03       		.byte	0x3
 1567 00be 2C       		.byte	0x2c
 1568 00bf 57000000 		.4byte	0x57
 1569 00c3 03       		.uleb128 0x3
 1570 00c4 89080000 		.4byte	.LASF17
 1571 00c8 03       		.byte	0x3
 1572 00c9 2D       		.byte	0x2d
 1573 00ca 69000000 		.4byte	0x69
 1574 00ce 03       		.uleb128 0x3
 1575 00cf E9000000 		.4byte	.LASF18
 1576 00d3 03       		.byte	0x3
 1577 00d4 39       		.byte	0x39
 1578 00d5 82000000 		.4byte	0x82
 1579 00d9 02       		.uleb128 0x2
 1580 00da 04       		.byte	0x4
 1581 00db 04       		.byte	0x4
ARM GAS  C:\Users\Petro\AppData\Local\Temp\cc7wT3EA.s 			page 40


 1582 00dc 41070000 		.4byte	.LASF19
 1583 00e0 02       		.uleb128 0x2
 1584 00e1 08       		.byte	0x8
 1585 00e2 04       		.byte	0x4
 1586 00e3 14030000 		.4byte	.LASF20
 1587 00e7 02       		.uleb128 0x2
 1588 00e8 01       		.byte	0x1
 1589 00e9 08       		.byte	0x8
 1590 00ea AE080000 		.4byte	.LASF21
 1591 00ee 02       		.uleb128 0x2
 1592 00ef 04       		.byte	0x4
 1593 00f0 07       		.byte	0x7
 1594 00f1 3A060000 		.4byte	.LASF22
 1595 00f5 05       		.uleb128 0x5
 1596 00f6 01       		.byte	0x1
 1597 00f7 06       		.byte	0x6
 1598 00f8 A4       		.byte	0xa4
 1599 00f9 7A020000 		.4byte	0x27a
 1600 00fd 06       		.uleb128 0x6
 1601 00fe 98020000 		.4byte	.LASF23
 1602 0102 00       		.sleb128 0
 1603 0103 06       		.uleb128 0x6
 1604 0104 36020000 		.4byte	.LASF24
 1605 0108 01       		.sleb128 1
 1606 0109 06       		.uleb128 0x6
 1607 010a 26010000 		.4byte	.LASF25
 1608 010e 02       		.sleb128 2
 1609 010f 06       		.uleb128 0x6
 1610 0110 88090000 		.4byte	.LASF26
 1611 0114 03       		.sleb128 3
 1612 0115 06       		.uleb128 0x6
 1613 0116 58010000 		.4byte	.LASF27
 1614 011a 04       		.sleb128 4
 1615 011b 06       		.uleb128 0x6
 1616 011c 23000000 		.4byte	.LASF28
 1617 0120 05       		.sleb128 5
 1618 0121 06       		.uleb128 0x6
 1619 0122 C9050000 		.4byte	.LASF29
 1620 0126 20       		.sleb128 32
 1621 0127 06       		.uleb128 0x6
 1622 0128 68020000 		.4byte	.LASF30
 1623 012c 21       		.sleb128 33
 1624 012d 06       		.uleb128 0x6
 1625 012e F8040000 		.4byte	.LASF31
 1626 0132 22       		.sleb128 34
 1627 0133 06       		.uleb128 0x6
 1628 0134 57050000 		.4byte	.LASF32
 1629 0138 23       		.sleb128 35
 1630 0139 06       		.uleb128 0x6
 1631 013a 98060000 		.4byte	.LASF33
 1632 013e 24       		.sleb128 36
 1633 013f 06       		.uleb128 0x6
 1634 0140 43060000 		.4byte	.LASF34
 1635 0144 25       		.sleb128 37
 1636 0145 06       		.uleb128 0x6
 1637 0146 C5090000 		.4byte	.LASF35
 1638 014a 26       		.sleb128 38
ARM GAS  C:\Users\Petro\AppData\Local\Temp\cc7wT3EA.s 			page 41


 1639 014b 06       		.uleb128 0x6
 1640 014c 1C050000 		.4byte	.LASF36
 1641 0150 27       		.sleb128 39
 1642 0151 06       		.uleb128 0x6
 1643 0152 C4080000 		.4byte	.LASF37
 1644 0156 28       		.sleb128 40
 1645 0157 06       		.uleb128 0x6
 1646 0158 D8010000 		.4byte	.LASF38
 1647 015c 29       		.sleb128 41
 1648 015d 06       		.uleb128 0x6
 1649 015e 93000000 		.4byte	.LASF39
 1650 0162 2A       		.sleb128 42
 1651 0163 06       		.uleb128 0x6
 1652 0164 49020000 		.4byte	.LASF40
 1653 0168 2B       		.sleb128 43
 1654 0169 06       		.uleb128 0x6
 1655 016a 120B0000 		.4byte	.LASF41
 1656 016e 2C       		.sleb128 44
 1657 016f 06       		.uleb128 0x6
 1658 0170 6F080000 		.4byte	.LASF42
 1659 0174 C000     		.sleb128 64
 1660 0176 06       		.uleb128 0x6
 1661 0177 7D050000 		.4byte	.LASF43
 1662 017b C100     		.sleb128 65
 1663 017d 06       		.uleb128 0x6
 1664 017e B60B0000 		.4byte	.LASF44
 1665 0182 C200     		.sleb128 66
 1666 0184 06       		.uleb128 0x6
 1667 0185 FB090000 		.4byte	.LASF45
 1668 0189 C300     		.sleb128 67
 1669 018b 06       		.uleb128 0x6
 1670 018c 60040000 		.4byte	.LASF46
 1671 0190 C400     		.sleb128 68
 1672 0192 06       		.uleb128 0x6
 1673 0193 1A070000 		.4byte	.LASF47
 1674 0197 C500     		.sleb128 69
 1675 0199 06       		.uleb128 0x6
 1676 019a 19060000 		.4byte	.LASF48
 1677 019e C600     		.sleb128 70
 1678 01a0 06       		.uleb128 0x6
 1679 01a1 08010000 		.4byte	.LASF49
 1680 01a5 C700     		.sleb128 71
 1681 01a7 06       		.uleb128 0x6
 1682 01a8 EB0A0000 		.4byte	.LASF50
 1683 01ac C800     		.sleb128 72
 1684 01ae 06       		.uleb128 0x6
 1685 01af 7F020000 		.4byte	.LASF51
 1686 01b3 C900     		.sleb128 73
 1687 01b5 06       		.uleb128 0x6
 1688 01b6 48090000 		.4byte	.LASF52
 1689 01ba CA00     		.sleb128 74
 1690 01bc 06       		.uleb128 0x6
 1691 01bd 0A040000 		.4byte	.LASF53
 1692 01c1 CB00     		.sleb128 75
 1693 01c3 06       		.uleb128 0x6
 1694 01c4 46040000 		.4byte	.LASF54
 1695 01c8 CC00     		.sleb128 76
ARM GAS  C:\Users\Petro\AppData\Local\Temp\cc7wT3EA.s 			page 42


 1696 01ca 06       		.uleb128 0x6
 1697 01cb 5D060000 		.4byte	.LASF55
 1698 01cf CD00     		.sleb128 77
 1699 01d1 06       		.uleb128 0x6
 1700 01d2 AF020000 		.4byte	.LASF56
 1701 01d6 CE00     		.sleb128 78
 1702 01d8 06       		.uleb128 0x6
 1703 01d9 2F080000 		.4byte	.LASF57
 1704 01dd CF00     		.sleb128 79
 1705 01df 06       		.uleb128 0x6
 1706 01e0 CE040000 		.4byte	.LASF58
 1707 01e4 D000     		.sleb128 80
 1708 01e6 06       		.uleb128 0x6
 1709 01e7 F5020000 		.4byte	.LASF59
 1710 01eb D100     		.sleb128 81
 1711 01ed 06       		.uleb128 0x6
 1712 01ee C2060000 		.4byte	.LASF60
 1713 01f2 D200     		.sleb128 82
 1714 01f4 06       		.uleb128 0x6
 1715 01f5 FD070000 		.4byte	.LASF61
 1716 01f9 D300     		.sleb128 83
 1717 01fb 06       		.uleb128 0x6
 1718 01fc 4E080000 		.4byte	.LASF62
 1719 0200 D400     		.sleb128 84
 1720 0202 06       		.uleb128 0x6
 1721 0203 7E040000 		.4byte	.LASF63
 1722 0207 D500     		.sleb128 85
 1723 0209 06       		.uleb128 0x6
 1724 020a AB030000 		.4byte	.LASF64
 1725 020e D600     		.sleb128 86
 1726 0210 06       		.uleb128 0x6
 1727 0211 6A000000 		.4byte	.LASF65
 1728 0215 D700     		.sleb128 87
 1729 0217 06       		.uleb128 0x6
 1730 0218 A7010000 		.4byte	.LASF66
 1731 021c F000     		.sleb128 112
 1732 021e 06       		.uleb128 0x6
 1733 021f 7C0B0000 		.4byte	.LASF67
 1734 0223 F100     		.sleb128 113
 1735 0225 06       		.uleb128 0x6
 1736 0226 A3050000 		.4byte	.LASF68
 1737 022a F200     		.sleb128 114
 1738 022c 06       		.uleb128 0x6
 1739 022d FB050000 		.4byte	.LASF69
 1740 0231 F300     		.sleb128 115
 1741 0233 06       		.uleb128 0x6
 1742 0234 F1060000 		.4byte	.LASF70
 1743 0238 F400     		.sleb128 116
 1744 023a 06       		.uleb128 0x6
 1745 023b 3E0B0000 		.4byte	.LASF71
 1746 023f F500     		.sleb128 117
 1747 0241 06       		.uleb128 0x6
 1748 0242 C8000000 		.4byte	.LASF72
 1749 0246 F600     		.sleb128 118
 1750 0248 06       		.uleb128 0x6
 1751 0249 3F000000 		.4byte	.LASF73
 1752 024d F700     		.sleb128 119
ARM GAS  C:\Users\Petro\AppData\Local\Temp\cc7wT3EA.s 			page 43


 1753 024f 06       		.uleb128 0x6
 1754 0250 00000000 		.4byte	.LASF74
 1755 0254 F800     		.sleb128 120
 1756 0256 06       		.uleb128 0x6
 1757 0257 25090000 		.4byte	.LASF75
 1758 025b F900     		.sleb128 121
 1759 025d 06       		.uleb128 0x6
 1760 025e 78030000 		.4byte	.LASF76
 1761 0262 FA00     		.sleb128 122
 1762 0264 06       		.uleb128 0x6
 1763 0265 6D010000 		.4byte	.LASF77
 1764 0269 FA01     		.sleb128 250
 1765 026b 06       		.uleb128 0x6
 1766 026c E4030000 		.4byte	.LASF78
 1767 0270 FB01     		.sleb128 251
 1768 0272 06       		.uleb128 0x6
 1769 0273 39030000 		.4byte	.LASF79
 1770 0277 FF01     		.sleb128 255
 1771 0279 00       		.byte	0
 1772 027a 07       		.uleb128 0x7
 1773 027b 93060000 		.4byte	.LASF154
 1774 027f 20       		.byte	0x20
 1775 0280 04       		.byte	0x4
 1776 0281 08       		.byte	0x8
 1777 0282 DB020000 		.4byte	0x2db
 1778 0286 08       		.uleb128 0x8
 1779 0287 53657100 		.ascii	"Seq\000"
 1780 028b 04       		.byte	0x4
 1781 028c 0A       		.byte	0xa
 1782 028d AD000000 		.4byte	0xad
 1783 0291 00       		.byte	0
 1784 0292 09       		.uleb128 0x9
 1785 0293 22030000 		.4byte	.LASF80
 1786 0297 04       		.byte	0x4
 1787 0298 0B       		.byte	0xb
 1788 0299 94000000 		.4byte	0x94
 1789 029d 04       		.byte	0x4
 1790 029e 09       		.uleb128 0x9
 1791 029f 1E080000 		.4byte	.LASF81
 1792 02a3 04       		.byte	0x4
 1793 02a4 0C       		.byte	0xc
 1794 02a5 CE000000 		.4byte	0xce
 1795 02a9 08       		.byte	0x8
 1796 02aa 09       		.uleb128 0x9
 1797 02ab C2040000 		.4byte	.LASF82
 1798 02af 04       		.byte	0x4
 1799 02b0 0D       		.byte	0xd
 1800 02b1 AD000000 		.4byte	0xad
 1801 02b5 10       		.byte	0x10
 1802 02b6 09       		.uleb128 0x9
 1803 02b7 C8040000 		.4byte	.LASF83
 1804 02bb 04       		.byte	0x4
 1805 02bc 0E       		.byte	0xe
 1806 02bd AD000000 		.4byte	0xad
 1807 02c1 12       		.byte	0x12
 1808 02c2 09       		.uleb128 0x9
 1809 02c3 47070000 		.4byte	.LASF84
ARM GAS  C:\Users\Petro\AppData\Local\Temp\cc7wT3EA.s 			page 44


 1810 02c7 04       		.byte	0x4
 1811 02c8 0F       		.byte	0xf
 1812 02c9 C3000000 		.4byte	0xc3
 1813 02cd 14       		.byte	0x14
 1814 02ce 09       		.uleb128 0x9
 1815 02cf DC0B0000 		.4byte	.LASF85
 1816 02d3 04       		.byte	0x4
 1817 02d4 10       		.byte	0x10
 1818 02d5 A2000000 		.4byte	0xa2
 1819 02d9 18       		.byte	0x18
 1820 02da 00       		.byte	0
 1821 02db 0A       		.uleb128 0xa
 1822 02dc 18       		.byte	0x18
 1823 02dd 05       		.byte	0x5
 1824 02de 18       		.byte	0x18
 1825 02df 37030000 		.4byte	0x337
 1826 02e3 08       		.uleb128 0x8
 1827 02e4 496400   		.ascii	"Id\000"
 1828 02e7 05       		.byte	0x5
 1829 02e8 1A       		.byte	0x1a
 1830 02e9 AD000000 		.4byte	0xad
 1831 02ed 00       		.byte	0
 1832 02ee 09       		.uleb128 0x9
 1833 02ef 1E080000 		.4byte	.LASF81
 1834 02f3 05       		.byte	0x5
 1835 02f4 1B       		.byte	0x1b
 1836 02f5 C3000000 		.4byte	0xc3
 1837 02f9 04       		.byte	0x4
 1838 02fa 09       		.uleb128 0x9
 1839 02fb A6080000 		.4byte	.LASF86
 1840 02ff 05       		.byte	0x5
 1841 0300 1C       		.byte	0x1c
 1842 0301 AD000000 		.4byte	0xad
 1843 0305 08       		.byte	0x8
 1844 0306 09       		.uleb128 0x9
 1845 0307 360B0000 		.4byte	.LASF87
 1846 030b 05       		.byte	0x5
 1847 030c 1D       		.byte	0x1d
 1848 030d AD000000 		.4byte	0xad
 1849 0311 0A       		.byte	0xa
 1850 0312 09       		.uleb128 0x9
 1851 0313 C2040000 		.4byte	.LASF82
 1852 0317 05       		.byte	0x5
 1853 0318 1E       		.byte	0x1e
 1854 0319 C3000000 		.4byte	0xc3
 1855 031d 0C       		.byte	0xc
 1856 031e 09       		.uleb128 0x9
 1857 031f 47070000 		.4byte	.LASF84
 1858 0323 05       		.byte	0x5
 1859 0324 1F       		.byte	0x1f
 1860 0325 C3000000 		.4byte	0xc3
 1861 0329 10       		.byte	0x10
 1862 032a 09       		.uleb128 0x9
 1863 032b DC0B0000 		.4byte	.LASF85
 1864 032f 05       		.byte	0x5
 1865 0330 20       		.byte	0x20
 1866 0331 A2000000 		.4byte	0xa2
ARM GAS  C:\Users\Petro\AppData\Local\Temp\cc7wT3EA.s 			page 45


 1867 0335 14       		.byte	0x14
 1868 0336 00       		.byte	0
 1869 0337 03       		.uleb128 0x3
 1870 0338 680B0000 		.4byte	.LASF88
 1871 033c 05       		.byte	0x5
 1872 033d 21       		.byte	0x21
 1873 033e DB020000 		.4byte	0x2db
 1874 0342 0A       		.uleb128 0xa
 1875 0343 18       		.byte	0x18
 1876 0344 01       		.byte	0x1
 1877 0345 2F       		.byte	0x2f
 1878 0346 9F030000 		.4byte	0x39f
 1879 034a 09       		.uleb128 0x9
 1880 034b 5F0B0000 		.4byte	.LASF89
 1881 034f 01       		.byte	0x1
 1882 0350 32       		.byte	0x32
 1883 0351 A2000000 		.4byte	0xa2
 1884 0355 00       		.byte	0
 1885 0356 09       		.uleb128 0x9
 1886 0357 30020000 		.4byte	.LASF90
 1887 035b 01       		.byte	0x1
 1888 035c 33       		.byte	0x33
 1889 035d A2000000 		.4byte	0xa2
 1890 0361 01       		.byte	0x1
 1891 0362 09       		.uleb128 0x9
 1892 0363 03040000 		.4byte	.LASF91
 1893 0367 01       		.byte	0x1
 1894 0368 34       		.byte	0x34
 1895 0369 A2000000 		.4byte	0xa2
 1896 036d 02       		.byte	0x2
 1897 036e 09       		.uleb128 0x9
 1898 036f 6C030000 		.4byte	.LASF92
 1899 0373 01       		.byte	0x1
 1900 0374 35       		.byte	0x35
 1901 0375 A2000000 		.4byte	0xa2
 1902 0379 03       		.byte	0x3
 1903 037a 09       		.uleb128 0x9
 1904 037b 550A0000 		.4byte	.LASF93
 1905 037f 01       		.byte	0x1
 1906 0380 37       		.byte	0x37
 1907 0381 CE000000 		.4byte	0xce
 1908 0385 08       		.byte	0x8
 1909 0386 09       		.uleb128 0x9
 1910 0387 BF050000 		.4byte	.LASF94
 1911 038b 01       		.byte	0x1
 1912 038c 38       		.byte	0x38
 1913 038d AD000000 		.4byte	0xad
 1914 0391 10       		.byte	0x10
 1915 0392 09       		.uleb128 0x9
 1916 0393 F1070000 		.4byte	.LASF95
 1917 0397 01       		.byte	0x1
 1918 0398 39       		.byte	0x39
 1919 0399 A2000000 		.4byte	0xa2
 1920 039d 12       		.byte	0x12
 1921 039e 00       		.byte	0
 1922 039f 03       		.uleb128 0x3
 1923 03a0 CD010000 		.4byte	.LASF96
ARM GAS  C:\Users\Petro\AppData\Local\Temp\cc7wT3EA.s 			page 46


 1924 03a4 01       		.byte	0x1
 1925 03a5 3A       		.byte	0x3a
 1926 03a6 42030000 		.4byte	0x342
 1927 03aa 0A       		.uleb128 0xa
 1928 03ab 18       		.byte	0x18
 1929 03ac 01       		.byte	0x1
 1930 03ad 3C       		.byte	0x3c
 1931 03ae FB030000 		.4byte	0x3fb
 1932 03b2 09       		.uleb128 0x9
 1933 03b3 5F0B0000 		.4byte	.LASF89
 1934 03b7 01       		.byte	0x1
 1935 03b8 3F       		.byte	0x3f
 1936 03b9 A2000000 		.4byte	0xa2
 1937 03bd 00       		.byte	0
 1938 03be 09       		.uleb128 0x9
 1939 03bf E3060000 		.4byte	.LASF97
 1940 03c3 01       		.byte	0x1
 1941 03c4 40       		.byte	0x40
 1942 03c5 CE000000 		.4byte	0xce
 1943 03c9 08       		.byte	0x8
 1944 03ca 09       		.uleb128 0x9
 1945 03cb 3B050000 		.4byte	.LASF98
 1946 03cf 01       		.byte	0x1
 1947 03d0 41       		.byte	0x41
 1948 03d1 AD000000 		.4byte	0xad
 1949 03d5 10       		.byte	0x10
 1950 03d6 09       		.uleb128 0x9
 1951 03d7 F5010000 		.4byte	.LASF99
 1952 03db 01       		.byte	0x1
 1953 03dc 42       		.byte	0x42
 1954 03dd A2000000 		.4byte	0xa2
 1955 03e1 12       		.byte	0x12
 1956 03e2 09       		.uleb128 0x9
 1957 03e3 03040000 		.4byte	.LASF91
 1958 03e7 01       		.byte	0x1
 1959 03e8 43       		.byte	0x43
 1960 03e9 A2000000 		.4byte	0xa2
 1961 03ed 13       		.byte	0x13
 1962 03ee 09       		.uleb128 0x9
 1963 03ef ED040000 		.4byte	.LASF100
 1964 03f3 01       		.byte	0x1
 1965 03f4 45       		.byte	0x45
 1966 03f5 A2000000 		.4byte	0xa2
 1967 03f9 14       		.byte	0x14
 1968 03fa 00       		.byte	0
 1969 03fb 03       		.uleb128 0x3
 1970 03fc 62030000 		.4byte	.LASF101
 1971 0400 01       		.byte	0x1
 1972 0401 46       		.byte	0x46
 1973 0402 AA030000 		.4byte	0x3aa
 1974 0406 0B       		.uleb128 0xb
 1975 0407 87060000 		.4byte	.LASF111
 1976 040b 01       		.byte	0x1
 1977 040c 61       		.byte	0x61
 1978 040d 00000000 		.4byte	.LFB63
 1979 0411 30000000 		.4byte	.LFE63-.LFB63
 1980 0415 01       		.uleb128 0x1
ARM GAS  C:\Users\Petro\AppData\Local\Temp\cc7wT3EA.s 			page 47


 1981 0416 9C       		.byte	0x9c
 1982 0417 0C       		.uleb128 0xc
 1983 0418 9D080000 		.4byte	.LASF107
 1984 041c 01       		.byte	0x1
 1985 041d 78       		.byte	0x78
 1986 041e 00000000 		.4byte	.LFB64
 1987 0422 9C000000 		.4byte	.LFE64-.LFB64
 1988 0426 01       		.uleb128 0x1
 1989 0427 9C       		.byte	0x9c
 1990 0428 55040000 		.4byte	0x455
 1991 042c 0D       		.uleb128 0xd
 1992 042d 16000000 		.4byte	.LBB2
 1993 0431 6E000000 		.4byte	.LBE2-.LBB2
 1994 0435 0E       		.uleb128 0xe
 1995 0436 24080000 		.4byte	.LASF102
 1996 043a 01       		.byte	0x1
 1997 043b 7C       		.byte	0x7c
 1998 043c 55040000 		.4byte	0x455
 1999 0440 03       		.uleb128 0x3
 2000 0441 91       		.byte	0x91
 2001 0442 887F     		.sleb128 -120
 2002 0444 0E       		.uleb128 0xe
 2003 0445 52030000 		.4byte	.LASF103
 2004 0449 01       		.byte	0x1
 2005 044a 7D       		.byte	0x7d
 2006 044b 55040000 		.4byte	0x455
 2007 044f 03       		.uleb128 0x3
 2008 0450 91       		.byte	0x91
 2009 0451 BC7F     		.sleb128 -68
 2010 0453 00       		.byte	0
 2011 0454 00       		.byte	0
 2012 0455 0F       		.uleb128 0xf
 2013 0456 E7000000 		.4byte	0xe7
 2014 045a 65040000 		.4byte	0x465
 2015 045e 10       		.uleb128 0x10
 2016 045f EE000000 		.4byte	0xee
 2017 0463 31       		.byte	0x31
 2018 0464 00       		.byte	0
 2019 0465 11       		.uleb128 0x11
 2020 0466 BC000000 		.4byte	.LASF109
 2021 046a 01       		.byte	0x1
 2022 046b 9D       		.byte	0x9d
 2023 046c C3000000 		.4byte	0xc3
 2024 0470 00000000 		.4byte	.LFB65
 2025 0474 AC010000 		.4byte	.LFE65-.LFB65
 2026 0478 01       		.uleb128 0x1
 2027 0479 9C       		.byte	0x9c
 2028 047a BC040000 		.4byte	0x4bc
 2029 047e 0D       		.uleb128 0xd
 2030 047f 1E000000 		.4byte	.LBB3
 2031 0483 70010000 		.4byte	.LBE3-.LBB3
 2032 0487 0E       		.uleb128 0xe
 2033 0488 AF0B0000 		.4byte	.LASF104
 2034 048c 01       		.byte	0x1
 2035 048d A1       		.byte	0xa1
 2036 048e C3000000 		.4byte	0xc3
 2037 0492 02       		.uleb128 0x2
ARM GAS  C:\Users\Petro\AppData\Local\Temp\cc7wT3EA.s 			page 48


 2038 0493 91       		.byte	0x91
 2039 0494 64       		.sleb128 -28
 2040 0495 12       		.uleb128 0x12
 2041 0496 6900     		.ascii	"i\000"
 2042 0498 01       		.byte	0x1
 2043 0499 A2       		.byte	0xa2
 2044 049a 94000000 		.4byte	0x94
 2045 049e 0E       		.uleb128 0xe
 2046 049f 34030000 		.4byte	.LASF105
 2047 04a3 01       		.byte	0x1
 2048 04a4 A3       		.byte	0xa3
 2049 04a5 A2000000 		.4byte	0xa2
 2050 04a9 02       		.uleb128 0x2
 2051 04aa 91       		.byte	0x91
 2052 04ab 63       		.sleb128 -29
 2053 04ac 0E       		.uleb128 0xe
 2054 04ad 74070000 		.4byte	.LASF106
 2055 04b1 01       		.byte	0x1
 2056 04b2 A4       		.byte	0xa4
 2057 04b3 7A020000 		.4byte	0x27a
 2058 04b7 02       		.uleb128 0x2
 2059 04b8 91       		.byte	0x91
 2060 04b9 40       		.sleb128 -64
 2061 04ba 00       		.byte	0
 2062 04bb 00       		.byte	0
 2063 04bc 13       		.uleb128 0x13
 2064 04bd ED050000 		.4byte	.LASF108
 2065 04c1 01       		.byte	0x1
 2066 04c2 F3       		.byte	0xf3
 2067 04c3 00000000 		.4byte	.LFB66
 2068 04c7 1C000000 		.4byte	.LFE66-.LFB66
 2069 04cb 01       		.uleb128 0x1
 2070 04cc 9C       		.byte	0x9c
 2071 04cd E0040000 		.4byte	0x4e0
 2072 04d1 14       		.uleb128 0x14
 2073 04d2 190A0000 		.4byte	.LASF124
 2074 04d6 01       		.byte	0x1
 2075 04d7 F3       		.byte	0xf3
 2076 04d8 C3000000 		.4byte	0xc3
 2077 04dc 02       		.uleb128 0x2
 2078 04dd 91       		.byte	0x91
 2079 04de 74       		.sleb128 -12
 2080 04df 00       		.byte	0
 2081 04e0 15       		.uleb128 0x15
 2082 04e1 B4060000 		.4byte	.LASF155
 2083 04e5 01       		.byte	0x1
 2084 04e6 0201     		.2byte	0x102
 2085 04e8 C3000000 		.4byte	0xc3
 2086 04ec 00000000 		.4byte	.LFB67
 2087 04f0 14000000 		.4byte	.LFE67-.LFB67
 2088 04f4 01       		.uleb128 0x1
 2089 04f5 9C       		.byte	0x9c
 2090 04f6 16       		.uleb128 0x16
 2091 04f7 76090000 		.4byte	.LASF110
 2092 04fb 01       		.byte	0x1
 2093 04fc 1101     		.2byte	0x111
 2094 04fe C3000000 		.4byte	0xc3
ARM GAS  C:\Users\Petro\AppData\Local\Temp\cc7wT3EA.s 			page 49


 2095 0502 00000000 		.4byte	.LFB68
 2096 0506 50000000 		.4byte	.LFE68-.LFB68
 2097 050a 01       		.uleb128 0x1
 2098 050b 9C       		.byte	0x9c
 2099 050c 20050000 		.4byte	0x520
 2100 0510 17       		.uleb128 0x17
 2101 0511 AF0B0000 		.4byte	.LASF104
 2102 0515 01       		.byte	0x1
 2103 0516 1301     		.2byte	0x113
 2104 0518 C3000000 		.4byte	0xc3
 2105 051c 02       		.uleb128 0x2
 2106 051d 91       		.byte	0x91
 2107 051e 74       		.sleb128 -12
 2108 051f 00       		.byte	0
 2109 0520 18       		.uleb128 0x18
 2110 0521 77060000 		.4byte	.LASF112
 2111 0525 01       		.byte	0x1
 2112 0526 2301     		.2byte	0x123
 2113 0528 00000000 		.4byte	.LFB69
 2114 052c 28000000 		.4byte	.LFE69-.LFB69
 2115 0530 01       		.uleb128 0x1
 2116 0531 9C       		.byte	0x9c
 2117 0532 18       		.uleb128 0x18
 2118 0533 ED090000 		.4byte	.LASF113
 2119 0537 01       		.byte	0x1
 2120 0538 3201     		.2byte	0x132
 2121 053a 00000000 		.4byte	.LFB70
 2122 053e 28000000 		.4byte	.LFE70-.LFB70
 2123 0542 01       		.uleb128 0x1
 2124 0543 9C       		.byte	0x9c
 2125 0544 19       		.uleb128 0x19
 2126 0545 D40B0000 		.4byte	.LASF114
 2127 0549 01       		.byte	0x1
 2128 054a 4401     		.2byte	0x144
 2129 054c C3000000 		.4byte	0xc3
 2130 0550 00000000 		.4byte	.LFB71
 2131 0554 C8010000 		.4byte	.LFE71-.LFB71
 2132 0558 01       		.uleb128 0x1
 2133 0559 9C       		.byte	0x9c
 2134 055a 01060000 		.4byte	0x601
 2135 055e 17       		.uleb128 0x17
 2136 055f AF0B0000 		.4byte	.LASF104
 2137 0563 01       		.byte	0x1
 2138 0564 4601     		.2byte	0x146
 2139 0566 AD000000 		.4byte	0xad
 2140 056a 02       		.uleb128 0x2
 2141 056b 91       		.byte	0x91
 2142 056c 6E       		.sleb128 -18
 2143 056d 17       		.uleb128 0x17
 2144 056e B4040000 		.4byte	.LASF115
 2145 0572 01       		.byte	0x1
 2146 0573 4701     		.2byte	0x147
 2147 0575 C3000000 		.4byte	0xc3
 2148 0579 02       		.uleb128 0x2
 2149 057a 91       		.byte	0x91
 2150 057b 68       		.sleb128 -24
 2151 057c 1A       		.uleb128 0x1a
ARM GAS  C:\Users\Petro\AppData\Local\Temp\cc7wT3EA.s 			page 50


 2152 057d 6900     		.ascii	"i\000"
 2153 057f 01       		.byte	0x1
 2154 0580 4801     		.2byte	0x148
 2155 0582 94000000 		.4byte	0x94
 2156 0586 02       		.uleb128 0x2
 2157 0587 91       		.byte	0x91
 2158 0588 64       		.sleb128 -28
 2159 0589 17       		.uleb128 0x17
 2160 058a 5F0B0000 		.4byte	.LASF89
 2161 058e 01       		.byte	0x1
 2162 058f 4901     		.2byte	0x149
 2163 0591 AD000000 		.4byte	0xad
 2164 0595 02       		.uleb128 0x2
 2165 0596 91       		.byte	0x91
 2166 0597 62       		.sleb128 -30
 2167 0598 17       		.uleb128 0x17
 2168 0599 3D0A0000 		.4byte	.LASF116
 2169 059d 01       		.byte	0x1
 2170 059e 4A01     		.2byte	0x14a
 2171 05a0 AD000000 		.4byte	0xad
 2172 05a4 02       		.uleb128 0x2
 2173 05a5 91       		.byte	0x91
 2174 05a6 5A       		.sleb128 -38
 2175 05a7 17       		.uleb128 0x17
 2176 05a8 B4090000 		.4byte	.LASF117
 2177 05ac 01       		.byte	0x1
 2178 05ad 4B01     		.2byte	0x14b
 2179 05af 01060000 		.4byte	0x601
 2180 05b3 02       		.uleb128 0x2
 2181 05b4 91       		.byte	0x91
 2182 05b5 48       		.sleb128 -56
 2183 05b6 17       		.uleb128 0x17
 2184 05b7 320A0000 		.4byte	.LASF118
 2185 05bb 01       		.byte	0x1
 2186 05bc 4C01     		.2byte	0x14c
 2187 05be 11060000 		.4byte	0x611
 2188 05c2 02       		.uleb128 0x2
 2189 05c3 91       		.byte	0x91
 2190 05c4 40       		.sleb128 -64
 2191 05c5 17       		.uleb128 0x17
 2192 05c6 AC040000 		.4byte	.LASF119
 2193 05ca 01       		.byte	0x1
 2194 05cb 4D01     		.2byte	0x14d
 2195 05cd B8000000 		.4byte	0xb8
 2196 05d1 03       		.uleb128 0x3
 2197 05d2 91       		.byte	0x91
 2198 05d3 BC7F     		.sleb128 -68
 2199 05d5 17       		.uleb128 0x17
 2200 05d6 A2040000 		.4byte	.LASF120
 2201 05da 01       		.byte	0x1
 2202 05db 4E01     		.2byte	0x14e
 2203 05dd B8000000 		.4byte	0xb8
 2204 05e1 03       		.uleb128 0x3
 2205 05e2 91       		.byte	0x91
 2206 05e3 B87F     		.sleb128 -72
 2207 05e5 17       		.uleb128 0x17
 2208 05e6 200A0000 		.4byte	.LASF121
ARM GAS  C:\Users\Petro\AppData\Local\Temp\cc7wT3EA.s 			page 51


 2209 05ea 01       		.byte	0x1
 2210 05eb 4F01     		.2byte	0x14f
 2211 05ed C3000000 		.4byte	0xc3
 2212 05f1 02       		.uleb128 0x2
 2213 05f2 91       		.byte	0x91
 2214 05f3 5C       		.sleb128 -36
 2215 05f4 1B       		.uleb128 0x1b
 2216 05f5 99010000 		.4byte	.LASF122
 2217 05f9 01       		.byte	0x1
 2218 05fa 5001     		.2byte	0x150
 2219 05fc C3000000 		.4byte	0xc3
 2220 0600 00       		.byte	0
 2221 0601 0F       		.uleb128 0xf
 2222 0602 C3000000 		.4byte	0xc3
 2223 0606 11060000 		.4byte	0x611
 2224 060a 10       		.uleb128 0x10
 2225 060b EE000000 		.4byte	0xee
 2226 060f 03       		.byte	0x3
 2227 0610 00       		.byte	0
 2228 0611 0F       		.uleb128 0xf
 2229 0612 AD000000 		.4byte	0xad
 2230 0616 21060000 		.4byte	0x621
 2231 061a 10       		.uleb128 0x10
 2232 061b EE000000 		.4byte	0xee
 2233 061f 03       		.byte	0x3
 2234 0620 00       		.byte	0
 2235 0621 1C       		.uleb128 0x1c
 2236 0622 5E000000 		.4byte	.LASF123
 2237 0626 01       		.byte	0x1
 2238 0627 C401     		.2byte	0x1c4
 2239 0629 00000000 		.4byte	.LFB72
 2240 062d 84000000 		.4byte	.LFE72-.LFB72
 2241 0631 01       		.uleb128 0x1
 2242 0632 9C       		.byte	0x9c
 2243 0633 86060000 		.4byte	0x686
 2244 0637 1D       		.uleb128 0x1d
 2245 0638 B4090000 		.4byte	.LASF117
 2246 063c 01       		.byte	0x1
 2247 063d C401     		.2byte	0x1c4
 2248 063f C3000000 		.4byte	0xc3
 2249 0643 03       		.uleb128 0x3
 2250 0644 91       		.byte	0x91
 2251 0645 8C7F     		.sleb128 -116
 2252 0647 1D       		.uleb128 0x1d
 2253 0648 5B030000 		.4byte	.LASF125
 2254 064c 01       		.byte	0x1
 2255 064d C401     		.2byte	0x1c4
 2256 064f AD000000 		.4byte	0xad
 2257 0653 03       		.uleb128 0x3
 2258 0654 91       		.byte	0x91
 2259 0655 8A7F     		.sleb128 -118
 2260 0657 1E       		.uleb128 0x1e
 2261 0658 494400   		.ascii	"ID\000"
 2262 065b 01       		.byte	0x1
 2263 065c C401     		.2byte	0x1c4
 2264 065e AD000000 		.4byte	0xad
 2265 0662 03       		.uleb128 0x3
ARM GAS  C:\Users\Petro\AppData\Local\Temp\cc7wT3EA.s 			page 52


 2266 0663 91       		.byte	0x91
 2267 0664 887F     		.sleb128 -120
 2268 0666 17       		.uleb128 0x17
 2269 0667 24080000 		.4byte	.LASF102
 2270 066b 01       		.byte	0x1
 2271 066c C601     		.2byte	0x1c6
 2272 066e 55040000 		.4byte	0x455
 2273 0672 02       		.uleb128 0x2
 2274 0673 91       		.byte	0x91
 2275 0674 44       		.sleb128 -60
 2276 0675 17       		.uleb128 0x17
 2277 0676 52030000 		.4byte	.LASF103
 2278 067a 01       		.byte	0x1
 2279 067b C701     		.2byte	0x1c7
 2280 067d 55040000 		.4byte	0x455
 2281 0681 03       		.uleb128 0x3
 2282 0682 91       		.byte	0x91
 2283 0683 907F     		.sleb128 -112
 2284 0685 00       		.byte	0
 2285 0686 19       		.uleb128 0x19
 2286 0687 9C030000 		.4byte	.LASF126
 2287 068b 01       		.byte	0x1
 2288 068c EF01     		.2byte	0x1ef
 2289 068e C3000000 		.4byte	0xc3
 2290 0692 00000000 		.4byte	.LFB73
 2291 0696 A0000000 		.4byte	.LFE73-.LFB73
 2292 069a 01       		.uleb128 0x1
 2293 069b 9C       		.byte	0x9c
 2294 069c 19070000 		.4byte	0x719
 2295 06a0 1D       		.uleb128 0x1d
 2296 06a1 D7020000 		.4byte	.LASF127
 2297 06a5 01       		.byte	0x1
 2298 06a6 EF01     		.2byte	0x1ef
 2299 06a8 19070000 		.4byte	0x719
 2300 06ac 02       		.uleb128 0x2
 2301 06ad 91       		.byte	0x91
 2302 06ae 54       		.sleb128 -44
 2303 06af 1D       		.uleb128 0x1d
 2304 06b0 FE010000 		.4byte	.LASF128
 2305 06b4 01       		.byte	0x1
 2306 06b5 EF01     		.2byte	0x1ef
 2307 06b7 1F070000 		.4byte	0x71f
 2308 06bb 02       		.uleb128 0x2
 2309 06bc 91       		.byte	0x91
 2310 06bd 50       		.sleb128 -48
 2311 06be 1D       		.uleb128 0x1d
 2312 06bf E1020000 		.4byte	.LASF129
 2313 06c3 01       		.byte	0x1
 2314 06c4 EF01     		.2byte	0x1ef
 2315 06c6 19070000 		.4byte	0x719
 2316 06ca 02       		.uleb128 0x2
 2317 06cb 91       		.byte	0x91
 2318 06cc 4C       		.sleb128 -52
 2319 06cd 1D       		.uleb128 0x1d
 2320 06ce 0A020000 		.4byte	.LASF130
 2321 06d2 01       		.byte	0x1
 2322 06d3 EF01     		.2byte	0x1ef
ARM GAS  C:\Users\Petro\AppData\Local\Temp\cc7wT3EA.s 			page 53


 2323 06d5 1F070000 		.4byte	0x71f
 2324 06d9 02       		.uleb128 0x2
 2325 06da 91       		.byte	0x91
 2326 06db 48       		.sleb128 -56
 2327 06dc 1D       		.uleb128 0x1d
 2328 06dd 2A030000 		.4byte	.LASF131
 2329 06e1 01       		.byte	0x1
 2330 06e2 EF01     		.2byte	0x1ef
 2331 06e4 1F070000 		.4byte	0x71f
 2332 06e8 02       		.uleb128 0x2
 2333 06e9 91       		.byte	0x91
 2334 06ea 00       		.sleb128 0
 2335 06eb 17       		.uleb128 0x17
 2336 06ec 34030000 		.4byte	.LASF105
 2337 06f0 01       		.byte	0x1
 2338 06f1 F101     		.2byte	0x1f1
 2339 06f3 A2000000 		.4byte	0xa2
 2340 06f7 02       		.uleb128 0x2
 2341 06f8 91       		.byte	0x91
 2342 06f9 73       		.sleb128 -13
 2343 06fa 17       		.uleb128 0x17
 2344 06fb AF0B0000 		.4byte	.LASF104
 2345 06ff 01       		.byte	0x1
 2346 0700 F201     		.2byte	0x1f2
 2347 0702 C3000000 		.4byte	0xc3
 2348 0706 02       		.uleb128 0x2
 2349 0707 91       		.byte	0x91
 2350 0708 74       		.sleb128 -12
 2351 0709 17       		.uleb128 0x17
 2352 070a 700B0000 		.4byte	.LASF132
 2353 070e 01       		.byte	0x1
 2354 070f F501     		.2byte	0x1f5
 2355 0711 37030000 		.4byte	0x337
 2356 0715 02       		.uleb128 0x2
 2357 0716 91       		.byte	0x91
 2358 0717 58       		.sleb128 -40
 2359 0718 00       		.byte	0
 2360 0719 1F       		.uleb128 0x1f
 2361 071a 04       		.byte	0x4
 2362 071b C3000000 		.4byte	0xc3
 2363 071f 1F       		.uleb128 0x1f
 2364 0720 04       		.byte	0x4
 2365 0721 AD000000 		.4byte	0xad
 2366 0725 19       		.uleb128 0x19
 2367 0726 E6080000 		.4byte	.LASF133
 2368 072a 01       		.byte	0x1
 2369 072b 2202     		.2byte	0x222
 2370 072d C3000000 		.4byte	0xc3
 2371 0731 00000000 		.4byte	.LFB74
 2372 0735 B8000000 		.4byte	.LFE74-.LFB74
 2373 0739 01       		.uleb128 0x1
 2374 073a 9C       		.byte	0x9c
 2375 073b 99070000 		.4byte	0x799
 2376 073f 1D       		.uleb128 0x1d
 2377 0740 EB020000 		.4byte	.LASF134
 2378 0744 01       		.byte	0x1
 2379 0745 2202     		.2byte	0x222
ARM GAS  C:\Users\Petro\AppData\Local\Temp\cc7wT3EA.s 			page 54


 2380 0747 C3000000 		.4byte	0xc3
 2381 074b 02       		.uleb128 0x2
 2382 074c 91       		.byte	0x91
 2383 074d 5C       		.sleb128 -36
 2384 074e 1D       		.uleb128 0x1d
 2385 074f 16020000 		.4byte	.LASF135
 2386 0753 01       		.byte	0x1
 2387 0754 2202     		.2byte	0x222
 2388 0756 AD000000 		.4byte	0xad
 2389 075a 02       		.uleb128 0x2
 2390 075b 91       		.byte	0x91
 2391 075c 5A       		.sleb128 -38
 2392 075d 1E       		.uleb128 0x1e
 2393 075e 494400   		.ascii	"ID\000"
 2394 0761 01       		.byte	0x1
 2395 0762 2202     		.2byte	0x222
 2396 0764 AD000000 		.4byte	0xad
 2397 0768 02       		.uleb128 0x2
 2398 0769 91       		.byte	0x91
 2399 076a 58       		.sleb128 -40
 2400 076b 17       		.uleb128 0x17
 2401 076c B4040000 		.4byte	.LASF115
 2402 0770 01       		.byte	0x1
 2403 0771 2502     		.2byte	0x225
 2404 0773 C3000000 		.4byte	0xc3
 2405 0777 02       		.uleb128 0x2
 2406 0778 91       		.byte	0x91
 2407 0779 68       		.sleb128 -24
 2408 077a 17       		.uleb128 0x17
 2409 077b 3D0A0000 		.4byte	.LASF116
 2410 077f 01       		.byte	0x1
 2411 0780 2602     		.2byte	0x226
 2412 0782 AD000000 		.4byte	0xad
 2413 0786 02       		.uleb128 0x2
 2414 0787 91       		.byte	0x91
 2415 0788 66       		.sleb128 -26
 2416 0789 17       		.uleb128 0x17
 2417 078a AF0B0000 		.4byte	.LASF104
 2418 078e 01       		.byte	0x1
 2419 078f 2702     		.2byte	0x227
 2420 0791 C3000000 		.4byte	0xc3
 2421 0795 02       		.uleb128 0x2
 2422 0796 91       		.byte	0x91
 2423 0797 6C       		.sleb128 -20
 2424 0798 00       		.byte	0
 2425 0799 20       		.uleb128 0x20
 2426 079a B3080000 		.4byte	.LASF136
 2427 079e 01       		.byte	0x1
 2428 079f 4A02     		.2byte	0x24a
 2429 07a1 00000000 		.4byte	.LFB75
 2430 07a5 DC000000 		.4byte	.LFE75-.LFB75
 2431 07a9 01       		.uleb128 0x1
 2432 07aa 9C       		.byte	0x9c
 2433 07ab 46080000 		.4byte	0x846
 2434 07af 1D       		.uleb128 0x1d
 2435 07b0 B4090000 		.4byte	.LASF117
 2436 07b4 01       		.byte	0x1
ARM GAS  C:\Users\Petro\AppData\Local\Temp\cc7wT3EA.s 			page 55


 2437 07b5 4A02     		.2byte	0x24a
 2438 07b7 19070000 		.4byte	0x719
 2439 07bb 02       		.uleb128 0x2
 2440 07bc 91       		.byte	0x91
 2441 07bd 5C       		.sleb128 -36
 2442 07be 1D       		.uleb128 0x1d
 2443 07bf 1B030000 		.4byte	.LASF137
 2444 07c3 01       		.byte	0x1
 2445 07c4 4A02     		.2byte	0x24a
 2446 07c6 1F070000 		.4byte	0x71f
 2447 07ca 02       		.uleb128 0x2
 2448 07cb 91       		.byte	0x91
 2449 07cc 58       		.sleb128 -40
 2450 07cd 1D       		.uleb128 0x1d
 2451 07ce AC040000 		.4byte	.LASF119
 2452 07d2 01       		.byte	0x1
 2453 07d3 4A02     		.2byte	0x24a
 2454 07d5 46080000 		.4byte	0x846
 2455 07d9 02       		.uleb128 0x2
 2456 07da 91       		.byte	0x91
 2457 07db 54       		.sleb128 -44
 2458 07dc 1D       		.uleb128 0x1d
 2459 07dd 70090000 		.4byte	.LASF138
 2460 07e1 01       		.byte	0x1
 2461 07e2 4A02     		.2byte	0x24a
 2462 07e4 46080000 		.4byte	0x846
 2463 07e8 02       		.uleb128 0x2
 2464 07e9 91       		.byte	0x91
 2465 07ea 50       		.sleb128 -48
 2466 07eb 17       		.uleb128 0x17
 2467 07ec 03090000 		.4byte	.LASF139
 2468 07f0 01       		.byte	0x1
 2469 07f1 4D02     		.2byte	0x24d
 2470 07f3 B8000000 		.4byte	0xb8
 2471 07f7 02       		.uleb128 0x2
 2472 07f8 91       		.byte	0x91
 2473 07f9 74       		.sleb128 -12
 2474 07fa 17       		.uleb128 0x17
 2475 07fb 66070000 		.4byte	.LASF140
 2476 07ff 01       		.byte	0x1
 2477 0800 4E02     		.2byte	0x24e
 2478 0802 B8000000 		.4byte	0xb8
 2479 0806 02       		.uleb128 0x2
 2480 0807 91       		.byte	0x91
 2481 0808 70       		.sleb128 -16
 2482 0809 17       		.uleb128 0x17
 2483 080a 92080000 		.4byte	.LASF141
 2484 080e 01       		.byte	0x1
 2485 080f 4F02     		.2byte	0x24f
 2486 0811 B8000000 		.4byte	0xb8
 2487 0815 02       		.uleb128 0x2
 2488 0816 91       		.byte	0x91
 2489 0817 6C       		.sleb128 -20
 2490 0818 17       		.uleb128 0x17
 2491 0819 A20B0000 		.4byte	.LASF142
 2492 081d 01       		.byte	0x1
 2493 081e 5002     		.2byte	0x250
ARM GAS  C:\Users\Petro\AppData\Local\Temp\cc7wT3EA.s 			page 56


 2494 0820 B8000000 		.4byte	0xb8
 2495 0824 02       		.uleb128 0x2
 2496 0825 91       		.byte	0x91
 2497 0826 68       		.sleb128 -24
 2498 0827 17       		.uleb128 0x17
 2499 0828 0F090000 		.4byte	.LASF143
 2500 082c 01       		.byte	0x1
 2501 082d 5102     		.2byte	0x251
 2502 082f B8000000 		.4byte	0xb8
 2503 0833 02       		.uleb128 0x2
 2504 0834 91       		.byte	0x91
 2505 0835 60       		.sleb128 -32
 2506 0836 17       		.uleb128 0x17
 2507 0837 CD020000 		.4byte	.LASF144
 2508 083b 01       		.byte	0x1
 2509 083c 5202     		.2byte	0x252
 2510 083e B8000000 		.4byte	0xb8
 2511 0842 02       		.uleb128 0x2
 2512 0843 91       		.byte	0x91
 2513 0844 64       		.sleb128 -28
 2514 0845 00       		.byte	0
 2515 0846 1F       		.uleb128 0x1f
 2516 0847 04       		.byte	0x4
 2517 0848 B8000000 		.4byte	0xb8
 2518 084c 21       		.uleb128 0x21
 2519 084d BD090000 		.4byte	.LASF145
 2520 0851 01       		.byte	0x1
 2521 0852 48       		.byte	0x48
 2522 0853 9F030000 		.4byte	0x39f
 2523 0857 05       		.uleb128 0x5
 2524 0858 03       		.byte	0x3
 2525 0859 00000000 		.4byte	outData
 2526 085d 21       		.uleb128 0x21
 2527 085e 50050000 		.4byte	.LASF146
 2528 0862 01       		.byte	0x1
 2529 0863 49       		.byte	0x49
 2530 0864 FB030000 		.4byte	0x3fb
 2531 0868 05       		.uleb128 0x5
 2532 0869 03       		.byte	0x3
 2533 086a 00000000 		.4byte	inData
 2534 086e 21       		.uleb128 0x21
 2535 086f 98050000 		.4byte	.LASF147
 2536 0873 01       		.byte	0x1
 2537 0874 4A       		.byte	0x4a
 2538 0875 A2000000 		.4byte	0xa2
 2539 0879 05       		.uleb128 0x5
 2540 087a 03       		.byte	0x3
 2541 087b 00000000 		.4byte	rebootFlag
 2542 087f 21       		.uleb128 0x21
 2543 0880 29040000 		.4byte	.LASF148
 2544 0884 01       		.byte	0x1
 2545 0885 4C       		.byte	0x4c
 2546 0886 C3000000 		.4byte	0xc3
 2547 088a 05       		.uleb128 0x5
 2548 088b 03       		.byte	0x3
 2549 088c 00000000 		.4byte	numAttemps
 2550 0890 21       		.uleb128 0x21
ARM GAS  C:\Users\Petro\AppData\Local\Temp\cc7wT3EA.s 			page 57


 2551 0891 66090000 		.4byte	.LASF149
 2552 0895 01       		.byte	0x1
 2553 0896 4C       		.byte	0x4c
 2554 0897 C3000000 		.4byte	0xc3
 2555 089b 05       		.uleb128 0x5
 2556 089c 03       		.byte	0x3
 2557 089d 00000000 		.4byte	noConnect
 2558 08a1 21       		.uleb128 0x21
 2559 08a2 8B010000 		.4byte	.LASF150
 2560 08a6 01       		.byte	0x1
 2561 08a7 4C       		.byte	0x4c
 2562 08a8 C3000000 		.4byte	0xc3
 2563 08ac 05       		.uleb128 0x5
 2564 08ad 03       		.byte	0x3
 2565 08ae 00000000 		.4byte	networkStatus
 2566 08b2 21       		.uleb128 0x21
 2567 08b3 B4090000 		.4byte	.LASF117
 2568 08b7 01       		.byte	0x1
 2569 08b8 4D       		.byte	0x4d
 2570 08b9 01060000 		.4byte	0x601
 2571 08bd 05       		.uleb128 0x5
 2572 08be 03       		.byte	0x3
 2573 08bf 00000000 		.4byte	unixTime
 2574 08c3 21       		.uleb128 0x21
 2575 08c4 320A0000 		.4byte	.LASF118
 2576 08c8 01       		.byte	0x1
 2577 08c9 4E       		.byte	0x4e
 2578 08ca 11060000 		.4byte	0x611
 2579 08ce 05       		.uleb128 0x5
 2580 08cf 03       		.byte	0x3
 2581 08d0 00000000 		.4byte	millisTime
 2582 08d4 00       		.byte	0
 2583              		.section	.debug_abbrev,"",%progbits
 2584              	.Ldebug_abbrev0:
 2585 0000 01       		.uleb128 0x1
 2586 0001 11       		.uleb128 0x11
 2587 0002 01       		.byte	0x1
 2588 0003 25       		.uleb128 0x25
 2589 0004 0E       		.uleb128 0xe
 2590 0005 13       		.uleb128 0x13
 2591 0006 0B       		.uleb128 0xb
 2592 0007 03       		.uleb128 0x3
 2593 0008 0E       		.uleb128 0xe
 2594 0009 1B       		.uleb128 0x1b
 2595 000a 0E       		.uleb128 0xe
 2596 000b 55       		.uleb128 0x55
 2597 000c 17       		.uleb128 0x17
 2598 000d 11       		.uleb128 0x11
 2599 000e 01       		.uleb128 0x1
 2600 000f 10       		.uleb128 0x10
 2601 0010 17       		.uleb128 0x17
 2602 0011 00       		.byte	0
 2603 0012 00       		.byte	0
 2604 0013 02       		.uleb128 0x2
 2605 0014 24       		.uleb128 0x24
 2606 0015 00       		.byte	0
 2607 0016 0B       		.uleb128 0xb
ARM GAS  C:\Users\Petro\AppData\Local\Temp\cc7wT3EA.s 			page 58


 2608 0017 0B       		.uleb128 0xb
 2609 0018 3E       		.uleb128 0x3e
 2610 0019 0B       		.uleb128 0xb
 2611 001a 03       		.uleb128 0x3
 2612 001b 0E       		.uleb128 0xe
 2613 001c 00       		.byte	0
 2614 001d 00       		.byte	0
 2615 001e 03       		.uleb128 0x3
 2616 001f 16       		.uleb128 0x16
 2617 0020 00       		.byte	0
 2618 0021 03       		.uleb128 0x3
 2619 0022 0E       		.uleb128 0xe
 2620 0023 3A       		.uleb128 0x3a
 2621 0024 0B       		.uleb128 0xb
 2622 0025 3B       		.uleb128 0x3b
 2623 0026 0B       		.uleb128 0xb
 2624 0027 49       		.uleb128 0x49
 2625 0028 13       		.uleb128 0x13
 2626 0029 00       		.byte	0
 2627 002a 00       		.byte	0
 2628 002b 04       		.uleb128 0x4
 2629 002c 24       		.uleb128 0x24
 2630 002d 00       		.byte	0
 2631 002e 0B       		.uleb128 0xb
 2632 002f 0B       		.uleb128 0xb
 2633 0030 3E       		.uleb128 0x3e
 2634 0031 0B       		.uleb128 0xb
 2635 0032 03       		.uleb128 0x3
 2636 0033 08       		.uleb128 0x8
 2637 0034 00       		.byte	0
 2638 0035 00       		.byte	0
 2639 0036 05       		.uleb128 0x5
 2640 0037 04       		.uleb128 0x4
 2641 0038 01       		.byte	0x1
 2642 0039 0B       		.uleb128 0xb
 2643 003a 0B       		.uleb128 0xb
 2644 003b 3A       		.uleb128 0x3a
 2645 003c 0B       		.uleb128 0xb
 2646 003d 3B       		.uleb128 0x3b
 2647 003e 0B       		.uleb128 0xb
 2648 003f 01       		.uleb128 0x1
 2649 0040 13       		.uleb128 0x13
 2650 0041 00       		.byte	0
 2651 0042 00       		.byte	0
 2652 0043 06       		.uleb128 0x6
 2653 0044 28       		.uleb128 0x28
 2654 0045 00       		.byte	0
 2655 0046 03       		.uleb128 0x3
 2656 0047 0E       		.uleb128 0xe
 2657 0048 1C       		.uleb128 0x1c
 2658 0049 0D       		.uleb128 0xd
 2659 004a 00       		.byte	0
 2660 004b 00       		.byte	0
 2661 004c 07       		.uleb128 0x7
 2662 004d 13       		.uleb128 0x13
 2663 004e 01       		.byte	0x1
 2664 004f 03       		.uleb128 0x3
ARM GAS  C:\Users\Petro\AppData\Local\Temp\cc7wT3EA.s 			page 59


 2665 0050 0E       		.uleb128 0xe
 2666 0051 0B       		.uleb128 0xb
 2667 0052 0B       		.uleb128 0xb
 2668 0053 3A       		.uleb128 0x3a
 2669 0054 0B       		.uleb128 0xb
 2670 0055 3B       		.uleb128 0x3b
 2671 0056 0B       		.uleb128 0xb
 2672 0057 01       		.uleb128 0x1
 2673 0058 13       		.uleb128 0x13
 2674 0059 00       		.byte	0
 2675 005a 00       		.byte	0
 2676 005b 08       		.uleb128 0x8
 2677 005c 0D       		.uleb128 0xd
 2678 005d 00       		.byte	0
 2679 005e 03       		.uleb128 0x3
 2680 005f 08       		.uleb128 0x8
 2681 0060 3A       		.uleb128 0x3a
 2682 0061 0B       		.uleb128 0xb
 2683 0062 3B       		.uleb128 0x3b
 2684 0063 0B       		.uleb128 0xb
 2685 0064 49       		.uleb128 0x49
 2686 0065 13       		.uleb128 0x13
 2687 0066 38       		.uleb128 0x38
 2688 0067 0B       		.uleb128 0xb
 2689 0068 00       		.byte	0
 2690 0069 00       		.byte	0
 2691 006a 09       		.uleb128 0x9
 2692 006b 0D       		.uleb128 0xd
 2693 006c 00       		.byte	0
 2694 006d 03       		.uleb128 0x3
 2695 006e 0E       		.uleb128 0xe
 2696 006f 3A       		.uleb128 0x3a
 2697 0070 0B       		.uleb128 0xb
 2698 0071 3B       		.uleb128 0x3b
 2699 0072 0B       		.uleb128 0xb
 2700 0073 49       		.uleb128 0x49
 2701 0074 13       		.uleb128 0x13
 2702 0075 38       		.uleb128 0x38
 2703 0076 0B       		.uleb128 0xb
 2704 0077 00       		.byte	0
 2705 0078 00       		.byte	0
 2706 0079 0A       		.uleb128 0xa
 2707 007a 13       		.uleb128 0x13
 2708 007b 01       		.byte	0x1
 2709 007c 0B       		.uleb128 0xb
 2710 007d 0B       		.uleb128 0xb
 2711 007e 3A       		.uleb128 0x3a
 2712 007f 0B       		.uleb128 0xb
 2713 0080 3B       		.uleb128 0x3b
 2714 0081 0B       		.uleb128 0xb
 2715 0082 01       		.uleb128 0x1
 2716 0083 13       		.uleb128 0x13
 2717 0084 00       		.byte	0
 2718 0085 00       		.byte	0
 2719 0086 0B       		.uleb128 0xb
 2720 0087 2E       		.uleb128 0x2e
 2721 0088 00       		.byte	0
ARM GAS  C:\Users\Petro\AppData\Local\Temp\cc7wT3EA.s 			page 60


 2722 0089 3F       		.uleb128 0x3f
 2723 008a 19       		.uleb128 0x19
 2724 008b 03       		.uleb128 0x3
 2725 008c 0E       		.uleb128 0xe
 2726 008d 3A       		.uleb128 0x3a
 2727 008e 0B       		.uleb128 0xb
 2728 008f 3B       		.uleb128 0x3b
 2729 0090 0B       		.uleb128 0xb
 2730 0091 27       		.uleb128 0x27
 2731 0092 19       		.uleb128 0x19
 2732 0093 11       		.uleb128 0x11
 2733 0094 01       		.uleb128 0x1
 2734 0095 12       		.uleb128 0x12
 2735 0096 06       		.uleb128 0x6
 2736 0097 40       		.uleb128 0x40
 2737 0098 18       		.uleb128 0x18
 2738 0099 9642     		.uleb128 0x2116
 2739 009b 19       		.uleb128 0x19
 2740 009c 00       		.byte	0
 2741 009d 00       		.byte	0
 2742 009e 0C       		.uleb128 0xc
 2743 009f 2E       		.uleb128 0x2e
 2744 00a0 01       		.byte	0x1
 2745 00a1 3F       		.uleb128 0x3f
 2746 00a2 19       		.uleb128 0x19
 2747 00a3 03       		.uleb128 0x3
 2748 00a4 0E       		.uleb128 0xe
 2749 00a5 3A       		.uleb128 0x3a
 2750 00a6 0B       		.uleb128 0xb
 2751 00a7 3B       		.uleb128 0x3b
 2752 00a8 0B       		.uleb128 0xb
 2753 00a9 27       		.uleb128 0x27
 2754 00aa 19       		.uleb128 0x19
 2755 00ab 11       		.uleb128 0x11
 2756 00ac 01       		.uleb128 0x1
 2757 00ad 12       		.uleb128 0x12
 2758 00ae 06       		.uleb128 0x6
 2759 00af 40       		.uleb128 0x40
 2760 00b0 18       		.uleb128 0x18
 2761 00b1 9642     		.uleb128 0x2116
 2762 00b3 19       		.uleb128 0x19
 2763 00b4 01       		.uleb128 0x1
 2764 00b5 13       		.uleb128 0x13
 2765 00b6 00       		.byte	0
 2766 00b7 00       		.byte	0
 2767 00b8 0D       		.uleb128 0xd
 2768 00b9 0B       		.uleb128 0xb
 2769 00ba 01       		.byte	0x1
 2770 00bb 11       		.uleb128 0x11
 2771 00bc 01       		.uleb128 0x1
 2772 00bd 12       		.uleb128 0x12
 2773 00be 06       		.uleb128 0x6
 2774 00bf 00       		.byte	0
 2775 00c0 00       		.byte	0
 2776 00c1 0E       		.uleb128 0xe
 2777 00c2 34       		.uleb128 0x34
 2778 00c3 00       		.byte	0
ARM GAS  C:\Users\Petro\AppData\Local\Temp\cc7wT3EA.s 			page 61


 2779 00c4 03       		.uleb128 0x3
 2780 00c5 0E       		.uleb128 0xe
 2781 00c6 3A       		.uleb128 0x3a
 2782 00c7 0B       		.uleb128 0xb
 2783 00c8 3B       		.uleb128 0x3b
 2784 00c9 0B       		.uleb128 0xb
 2785 00ca 49       		.uleb128 0x49
 2786 00cb 13       		.uleb128 0x13
 2787 00cc 02       		.uleb128 0x2
 2788 00cd 18       		.uleb128 0x18
 2789 00ce 00       		.byte	0
 2790 00cf 00       		.byte	0
 2791 00d0 0F       		.uleb128 0xf
 2792 00d1 01       		.uleb128 0x1
 2793 00d2 01       		.byte	0x1
 2794 00d3 49       		.uleb128 0x49
 2795 00d4 13       		.uleb128 0x13
 2796 00d5 01       		.uleb128 0x1
 2797 00d6 13       		.uleb128 0x13
 2798 00d7 00       		.byte	0
 2799 00d8 00       		.byte	0
 2800 00d9 10       		.uleb128 0x10
 2801 00da 21       		.uleb128 0x21
 2802 00db 00       		.byte	0
 2803 00dc 49       		.uleb128 0x49
 2804 00dd 13       		.uleb128 0x13
 2805 00de 2F       		.uleb128 0x2f
 2806 00df 0B       		.uleb128 0xb
 2807 00e0 00       		.byte	0
 2808 00e1 00       		.byte	0
 2809 00e2 11       		.uleb128 0x11
 2810 00e3 2E       		.uleb128 0x2e
 2811 00e4 01       		.byte	0x1
 2812 00e5 3F       		.uleb128 0x3f
 2813 00e6 19       		.uleb128 0x19
 2814 00e7 03       		.uleb128 0x3
 2815 00e8 0E       		.uleb128 0xe
 2816 00e9 3A       		.uleb128 0x3a
 2817 00ea 0B       		.uleb128 0xb
 2818 00eb 3B       		.uleb128 0x3b
 2819 00ec 0B       		.uleb128 0xb
 2820 00ed 27       		.uleb128 0x27
 2821 00ee 19       		.uleb128 0x19
 2822 00ef 49       		.uleb128 0x49
 2823 00f0 13       		.uleb128 0x13
 2824 00f1 11       		.uleb128 0x11
 2825 00f2 01       		.uleb128 0x1
 2826 00f3 12       		.uleb128 0x12
 2827 00f4 06       		.uleb128 0x6
 2828 00f5 40       		.uleb128 0x40
 2829 00f6 18       		.uleb128 0x18
 2830 00f7 9642     		.uleb128 0x2116
 2831 00f9 19       		.uleb128 0x19
 2832 00fa 01       		.uleb128 0x1
 2833 00fb 13       		.uleb128 0x13
 2834 00fc 00       		.byte	0
 2835 00fd 00       		.byte	0
ARM GAS  C:\Users\Petro\AppData\Local\Temp\cc7wT3EA.s 			page 62


 2836 00fe 12       		.uleb128 0x12
 2837 00ff 34       		.uleb128 0x34
 2838 0100 00       		.byte	0
 2839 0101 03       		.uleb128 0x3
 2840 0102 08       		.uleb128 0x8
 2841 0103 3A       		.uleb128 0x3a
 2842 0104 0B       		.uleb128 0xb
 2843 0105 3B       		.uleb128 0x3b
 2844 0106 0B       		.uleb128 0xb
 2845 0107 49       		.uleb128 0x49
 2846 0108 13       		.uleb128 0x13
 2847 0109 00       		.byte	0
 2848 010a 00       		.byte	0
 2849 010b 13       		.uleb128 0x13
 2850 010c 2E       		.uleb128 0x2e
 2851 010d 01       		.byte	0x1
 2852 010e 3F       		.uleb128 0x3f
 2853 010f 19       		.uleb128 0x19
 2854 0110 03       		.uleb128 0x3
 2855 0111 0E       		.uleb128 0xe
 2856 0112 3A       		.uleb128 0x3a
 2857 0113 0B       		.uleb128 0xb
 2858 0114 3B       		.uleb128 0x3b
 2859 0115 0B       		.uleb128 0xb
 2860 0116 27       		.uleb128 0x27
 2861 0117 19       		.uleb128 0x19
 2862 0118 11       		.uleb128 0x11
 2863 0119 01       		.uleb128 0x1
 2864 011a 12       		.uleb128 0x12
 2865 011b 06       		.uleb128 0x6
 2866 011c 40       		.uleb128 0x40
 2867 011d 18       		.uleb128 0x18
 2868 011e 9742     		.uleb128 0x2117
 2869 0120 19       		.uleb128 0x19
 2870 0121 01       		.uleb128 0x1
 2871 0122 13       		.uleb128 0x13
 2872 0123 00       		.byte	0
 2873 0124 00       		.byte	0
 2874 0125 14       		.uleb128 0x14
 2875 0126 05       		.uleb128 0x5
 2876 0127 00       		.byte	0
 2877 0128 03       		.uleb128 0x3
 2878 0129 0E       		.uleb128 0xe
 2879 012a 3A       		.uleb128 0x3a
 2880 012b 0B       		.uleb128 0xb
 2881 012c 3B       		.uleb128 0x3b
 2882 012d 0B       		.uleb128 0xb
 2883 012e 49       		.uleb128 0x49
 2884 012f 13       		.uleb128 0x13
 2885 0130 02       		.uleb128 0x2
 2886 0131 18       		.uleb128 0x18
 2887 0132 00       		.byte	0
 2888 0133 00       		.byte	0
 2889 0134 15       		.uleb128 0x15
 2890 0135 2E       		.uleb128 0x2e
 2891 0136 00       		.byte	0
 2892 0137 3F       		.uleb128 0x3f
ARM GAS  C:\Users\Petro\AppData\Local\Temp\cc7wT3EA.s 			page 63


 2893 0138 19       		.uleb128 0x19
 2894 0139 03       		.uleb128 0x3
 2895 013a 0E       		.uleb128 0xe
 2896 013b 3A       		.uleb128 0x3a
 2897 013c 0B       		.uleb128 0xb
 2898 013d 3B       		.uleb128 0x3b
 2899 013e 05       		.uleb128 0x5
 2900 013f 27       		.uleb128 0x27
 2901 0140 19       		.uleb128 0x19
 2902 0141 49       		.uleb128 0x49
 2903 0142 13       		.uleb128 0x13
 2904 0143 11       		.uleb128 0x11
 2905 0144 01       		.uleb128 0x1
 2906 0145 12       		.uleb128 0x12
 2907 0146 06       		.uleb128 0x6
 2908 0147 40       		.uleb128 0x40
 2909 0148 18       		.uleb128 0x18
 2910 0149 9742     		.uleb128 0x2117
 2911 014b 19       		.uleb128 0x19
 2912 014c 00       		.byte	0
 2913 014d 00       		.byte	0
 2914 014e 16       		.uleb128 0x16
 2915 014f 2E       		.uleb128 0x2e
 2916 0150 01       		.byte	0x1
 2917 0151 3F       		.uleb128 0x3f
 2918 0152 19       		.uleb128 0x19
 2919 0153 03       		.uleb128 0x3
 2920 0154 0E       		.uleb128 0xe
 2921 0155 3A       		.uleb128 0x3a
 2922 0156 0B       		.uleb128 0xb
 2923 0157 3B       		.uleb128 0x3b
 2924 0158 05       		.uleb128 0x5
 2925 0159 27       		.uleb128 0x27
 2926 015a 19       		.uleb128 0x19
 2927 015b 49       		.uleb128 0x49
 2928 015c 13       		.uleb128 0x13
 2929 015d 11       		.uleb128 0x11
 2930 015e 01       		.uleb128 0x1
 2931 015f 12       		.uleb128 0x12
 2932 0160 06       		.uleb128 0x6
 2933 0161 40       		.uleb128 0x40
 2934 0162 18       		.uleb128 0x18
 2935 0163 9742     		.uleb128 0x2117
 2936 0165 19       		.uleb128 0x19
 2937 0166 01       		.uleb128 0x1
 2938 0167 13       		.uleb128 0x13
 2939 0168 00       		.byte	0
 2940 0169 00       		.byte	0
 2941 016a 17       		.uleb128 0x17
 2942 016b 34       		.uleb128 0x34
 2943 016c 00       		.byte	0
 2944 016d 03       		.uleb128 0x3
 2945 016e 0E       		.uleb128 0xe
 2946 016f 3A       		.uleb128 0x3a
 2947 0170 0B       		.uleb128 0xb
 2948 0171 3B       		.uleb128 0x3b
 2949 0172 05       		.uleb128 0x5
ARM GAS  C:\Users\Petro\AppData\Local\Temp\cc7wT3EA.s 			page 64


 2950 0173 49       		.uleb128 0x49
 2951 0174 13       		.uleb128 0x13
 2952 0175 02       		.uleb128 0x2
 2953 0176 18       		.uleb128 0x18
 2954 0177 00       		.byte	0
 2955 0178 00       		.byte	0
 2956 0179 18       		.uleb128 0x18
 2957 017a 2E       		.uleb128 0x2e
 2958 017b 00       		.byte	0
 2959 017c 3F       		.uleb128 0x3f
 2960 017d 19       		.uleb128 0x19
 2961 017e 03       		.uleb128 0x3
 2962 017f 0E       		.uleb128 0xe
 2963 0180 3A       		.uleb128 0x3a
 2964 0181 0B       		.uleb128 0xb
 2965 0182 3B       		.uleb128 0x3b
 2966 0183 05       		.uleb128 0x5
 2967 0184 27       		.uleb128 0x27
 2968 0185 19       		.uleb128 0x19
 2969 0186 11       		.uleb128 0x11
 2970 0187 01       		.uleb128 0x1
 2971 0188 12       		.uleb128 0x12
 2972 0189 06       		.uleb128 0x6
 2973 018a 40       		.uleb128 0x40
 2974 018b 18       		.uleb128 0x18
 2975 018c 9742     		.uleb128 0x2117
 2976 018e 19       		.uleb128 0x19
 2977 018f 00       		.byte	0
 2978 0190 00       		.byte	0
 2979 0191 19       		.uleb128 0x19
 2980 0192 2E       		.uleb128 0x2e
 2981 0193 01       		.byte	0x1
 2982 0194 3F       		.uleb128 0x3f
 2983 0195 19       		.uleb128 0x19
 2984 0196 03       		.uleb128 0x3
 2985 0197 0E       		.uleb128 0xe
 2986 0198 3A       		.uleb128 0x3a
 2987 0199 0B       		.uleb128 0xb
 2988 019a 3B       		.uleb128 0x3b
 2989 019b 05       		.uleb128 0x5
 2990 019c 27       		.uleb128 0x27
 2991 019d 19       		.uleb128 0x19
 2992 019e 49       		.uleb128 0x49
 2993 019f 13       		.uleb128 0x13
 2994 01a0 11       		.uleb128 0x11
 2995 01a1 01       		.uleb128 0x1
 2996 01a2 12       		.uleb128 0x12
 2997 01a3 06       		.uleb128 0x6
 2998 01a4 40       		.uleb128 0x40
 2999 01a5 18       		.uleb128 0x18
 3000 01a6 9642     		.uleb128 0x2116
 3001 01a8 19       		.uleb128 0x19
 3002 01a9 01       		.uleb128 0x1
 3003 01aa 13       		.uleb128 0x13
 3004 01ab 00       		.byte	0
 3005 01ac 00       		.byte	0
 3006 01ad 1A       		.uleb128 0x1a
ARM GAS  C:\Users\Petro\AppData\Local\Temp\cc7wT3EA.s 			page 65


 3007 01ae 34       		.uleb128 0x34
 3008 01af 00       		.byte	0
 3009 01b0 03       		.uleb128 0x3
 3010 01b1 08       		.uleb128 0x8
 3011 01b2 3A       		.uleb128 0x3a
 3012 01b3 0B       		.uleb128 0xb
 3013 01b4 3B       		.uleb128 0x3b
 3014 01b5 05       		.uleb128 0x5
 3015 01b6 49       		.uleb128 0x49
 3016 01b7 13       		.uleb128 0x13
 3017 01b8 02       		.uleb128 0x2
 3018 01b9 18       		.uleb128 0x18
 3019 01ba 00       		.byte	0
 3020 01bb 00       		.byte	0
 3021 01bc 1B       		.uleb128 0x1b
 3022 01bd 34       		.uleb128 0x34
 3023 01be 00       		.byte	0
 3024 01bf 03       		.uleb128 0x3
 3025 01c0 0E       		.uleb128 0xe
 3026 01c1 3A       		.uleb128 0x3a
 3027 01c2 0B       		.uleb128 0xb
 3028 01c3 3B       		.uleb128 0x3b
 3029 01c4 05       		.uleb128 0x5
 3030 01c5 49       		.uleb128 0x49
 3031 01c6 13       		.uleb128 0x13
 3032 01c7 00       		.byte	0
 3033 01c8 00       		.byte	0
 3034 01c9 1C       		.uleb128 0x1c
 3035 01ca 2E       		.uleb128 0x2e
 3036 01cb 01       		.byte	0x1
 3037 01cc 3F       		.uleb128 0x3f
 3038 01cd 19       		.uleb128 0x19
 3039 01ce 03       		.uleb128 0x3
 3040 01cf 0E       		.uleb128 0xe
 3041 01d0 3A       		.uleb128 0x3a
 3042 01d1 0B       		.uleb128 0xb
 3043 01d2 3B       		.uleb128 0x3b
 3044 01d3 05       		.uleb128 0x5
 3045 01d4 27       		.uleb128 0x27
 3046 01d5 19       		.uleb128 0x19
 3047 01d6 11       		.uleb128 0x11
 3048 01d7 01       		.uleb128 0x1
 3049 01d8 12       		.uleb128 0x12
 3050 01d9 06       		.uleb128 0x6
 3051 01da 40       		.uleb128 0x40
 3052 01db 18       		.uleb128 0x18
 3053 01dc 9642     		.uleb128 0x2116
 3054 01de 19       		.uleb128 0x19
 3055 01df 01       		.uleb128 0x1
 3056 01e0 13       		.uleb128 0x13
 3057 01e1 00       		.byte	0
 3058 01e2 00       		.byte	0
 3059 01e3 1D       		.uleb128 0x1d
 3060 01e4 05       		.uleb128 0x5
 3061 01e5 00       		.byte	0
 3062 01e6 03       		.uleb128 0x3
 3063 01e7 0E       		.uleb128 0xe
ARM GAS  C:\Users\Petro\AppData\Local\Temp\cc7wT3EA.s 			page 66


 3064 01e8 3A       		.uleb128 0x3a
 3065 01e9 0B       		.uleb128 0xb
 3066 01ea 3B       		.uleb128 0x3b
 3067 01eb 05       		.uleb128 0x5
 3068 01ec 49       		.uleb128 0x49
 3069 01ed 13       		.uleb128 0x13
 3070 01ee 02       		.uleb128 0x2
 3071 01ef 18       		.uleb128 0x18
 3072 01f0 00       		.byte	0
 3073 01f1 00       		.byte	0
 3074 01f2 1E       		.uleb128 0x1e
 3075 01f3 05       		.uleb128 0x5
 3076 01f4 00       		.byte	0
 3077 01f5 03       		.uleb128 0x3
 3078 01f6 08       		.uleb128 0x8
 3079 01f7 3A       		.uleb128 0x3a
 3080 01f8 0B       		.uleb128 0xb
 3081 01f9 3B       		.uleb128 0x3b
 3082 01fa 05       		.uleb128 0x5
 3083 01fb 49       		.uleb128 0x49
 3084 01fc 13       		.uleb128 0x13
 3085 01fd 02       		.uleb128 0x2
 3086 01fe 18       		.uleb128 0x18
 3087 01ff 00       		.byte	0
 3088 0200 00       		.byte	0
 3089 0201 1F       		.uleb128 0x1f
 3090 0202 0F       		.uleb128 0xf
 3091 0203 00       		.byte	0
 3092 0204 0B       		.uleb128 0xb
 3093 0205 0B       		.uleb128 0xb
 3094 0206 49       		.uleb128 0x49
 3095 0207 13       		.uleb128 0x13
 3096 0208 00       		.byte	0
 3097 0209 00       		.byte	0
 3098 020a 20       		.uleb128 0x20
 3099 020b 2E       		.uleb128 0x2e
 3100 020c 01       		.byte	0x1
 3101 020d 3F       		.uleb128 0x3f
 3102 020e 19       		.uleb128 0x19
 3103 020f 03       		.uleb128 0x3
 3104 0210 0E       		.uleb128 0xe
 3105 0211 3A       		.uleb128 0x3a
 3106 0212 0B       		.uleb128 0xb
 3107 0213 3B       		.uleb128 0x3b
 3108 0214 05       		.uleb128 0x5
 3109 0215 27       		.uleb128 0x27
 3110 0216 19       		.uleb128 0x19
 3111 0217 11       		.uleb128 0x11
 3112 0218 01       		.uleb128 0x1
 3113 0219 12       		.uleb128 0x12
 3114 021a 06       		.uleb128 0x6
 3115 021b 40       		.uleb128 0x40
 3116 021c 18       		.uleb128 0x18
 3117 021d 9742     		.uleb128 0x2117
 3118 021f 19       		.uleb128 0x19
 3119 0220 01       		.uleb128 0x1
 3120 0221 13       		.uleb128 0x13
ARM GAS  C:\Users\Petro\AppData\Local\Temp\cc7wT3EA.s 			page 67


 3121 0222 00       		.byte	0
 3122 0223 00       		.byte	0
 3123 0224 21       		.uleb128 0x21
 3124 0225 34       		.uleb128 0x34
 3125 0226 00       		.byte	0
 3126 0227 03       		.uleb128 0x3
 3127 0228 0E       		.uleb128 0xe
 3128 0229 3A       		.uleb128 0x3a
 3129 022a 0B       		.uleb128 0xb
 3130 022b 3B       		.uleb128 0x3b
 3131 022c 0B       		.uleb128 0xb
 3132 022d 49       		.uleb128 0x49
 3133 022e 13       		.uleb128 0x13
 3134 022f 3F       		.uleb128 0x3f
 3135 0230 19       		.uleb128 0x19
 3136 0231 02       		.uleb128 0x2
 3137 0232 18       		.uleb128 0x18
 3138 0233 00       		.byte	0
 3139 0234 00       		.byte	0
 3140 0235 00       		.byte	0
 3141              		.section	.debug_aranges,"",%progbits
 3142 0000 7C000000 		.4byte	0x7c
 3143 0004 0200     		.2byte	0x2
 3144 0006 00000000 		.4byte	.Ldebug_info0
 3145 000a 04       		.byte	0x4
 3146 000b 00       		.byte	0
 3147 000c 0000     		.2byte	0
 3148 000e 0000     		.2byte	0
 3149 0010 00000000 		.4byte	.LFB63
 3150 0014 30000000 		.4byte	.LFE63-.LFB63
 3151 0018 00000000 		.4byte	.LFB64
 3152 001c 9C000000 		.4byte	.LFE64-.LFB64
 3153 0020 00000000 		.4byte	.LFB65
 3154 0024 AC010000 		.4byte	.LFE65-.LFB65
 3155 0028 00000000 		.4byte	.LFB66
 3156 002c 1C000000 		.4byte	.LFE66-.LFB66
 3157 0030 00000000 		.4byte	.LFB67
 3158 0034 14000000 		.4byte	.LFE67-.LFB67
 3159 0038 00000000 		.4byte	.LFB68
 3160 003c 50000000 		.4byte	.LFE68-.LFB68
 3161 0040 00000000 		.4byte	.LFB69
 3162 0044 28000000 		.4byte	.LFE69-.LFB69
 3163 0048 00000000 		.4byte	.LFB70
 3164 004c 28000000 		.4byte	.LFE70-.LFB70
 3165 0050 00000000 		.4byte	.LFB71
 3166 0054 C8010000 		.4byte	.LFE71-.LFB71
 3167 0058 00000000 		.4byte	.LFB72
 3168 005c 84000000 		.4byte	.LFE72-.LFB72
 3169 0060 00000000 		.4byte	.LFB73
 3170 0064 A0000000 		.4byte	.LFE73-.LFB73
 3171 0068 00000000 		.4byte	.LFB74
 3172 006c B8000000 		.4byte	.LFE74-.LFB74
 3173 0070 00000000 		.4byte	.LFB75
 3174 0074 DC000000 		.4byte	.LFE75-.LFB75
 3175 0078 00000000 		.4byte	0
 3176 007c 00000000 		.4byte	0
 3177              		.section	.debug_ranges,"",%progbits
ARM GAS  C:\Users\Petro\AppData\Local\Temp\cc7wT3EA.s 			page 68


 3178              	.Ldebug_ranges0:
 3179 0000 00000000 		.4byte	.LFB63
 3180 0004 30000000 		.4byte	.LFE63
 3181 0008 00000000 		.4byte	.LFB64
 3182 000c 9C000000 		.4byte	.LFE64
 3183 0010 00000000 		.4byte	.LFB65
 3184 0014 AC010000 		.4byte	.LFE65
 3185 0018 00000000 		.4byte	.LFB66
 3186 001c 1C000000 		.4byte	.LFE66
 3187 0020 00000000 		.4byte	.LFB67
 3188 0024 14000000 		.4byte	.LFE67
 3189 0028 00000000 		.4byte	.LFB68
 3190 002c 50000000 		.4byte	.LFE68
 3191 0030 00000000 		.4byte	.LFB69
 3192 0034 28000000 		.4byte	.LFE69
 3193 0038 00000000 		.4byte	.LFB70
 3194 003c 28000000 		.4byte	.LFE70
 3195 0040 00000000 		.4byte	.LFB71
 3196 0044 C8010000 		.4byte	.LFE71
 3197 0048 00000000 		.4byte	.LFB72
 3198 004c 84000000 		.4byte	.LFE72
 3199 0050 00000000 		.4byte	.LFB73
 3200 0054 A0000000 		.4byte	.LFE73
 3201 0058 00000000 		.4byte	.LFB74
 3202 005c B8000000 		.4byte	.LFE74
 3203 0060 00000000 		.4byte	.LFB75
 3204 0064 DC000000 		.4byte	.LFE75
 3205 0068 00000000 		.4byte	0
 3206 006c 00000000 		.4byte	0
 3207              		.section	.debug_line,"",%progbits
 3208              	.Ldebug_line0:
 3209 0000 62030000 		.section	.debug_str,"MS",%progbits,1
 3209      02005C01 
 3209      00000201 
 3209      FB0E0D00 
 3209      01010101 
 3210              	.LASF74:
 3211 0000 4359424C 		.ascii	"CYBLE_EVT_L2CAP_CBFC_RX_CREDIT_IND\000"
 3211      455F4556 
 3211      545F4C32 
 3211      4341505F 
 3211      43424643 
 3212              	.LASF28:
 3213 0023 4359424C 		.ascii	"CYBLE_EVT_STACK_BUSY_STATUS\000"
 3213      455F4556 
 3213      545F5354 
 3213      41434B5F 
 3213      42555359 
 3214              	.LASF73:
 3215 003f 4359424C 		.ascii	"CYBLE_EVT_L2CAP_CBFC_DATA_READ\000"
 3215      455F4556 
 3215      545F4C32 
 3215      4341505F 
 3215      43424643 
 3216              	.LASF123:
 3217 005e 4E545073 		.ascii	"NTPsendTime\000"
 3217      656E6454 
ARM GAS  C:\Users\Petro\AppData\Local\Temp\cc7wT3EA.s 			page 69


 3217      696D6500 
 3218              	.LASF65:
 3219 006a 4359424C 		.ascii	"CYBLE_EVT_GATTS_READ_CHAR_VAL_ACCESS_REQ\000"
 3219      455F4556 
 3219      545F4741 
 3219      5454535F 
 3219      52454144 
 3220              	.LASF39:
 3221 0093 4359424C 		.ascii	"CYBLE_EVT_GAP_CONNECTION_UPDATE_COMPLETE\000"
 3221      455F4556 
 3221      545F4741 
 3221      505F434F 
 3221      4E4E4543 
 3222              	.LASF109:
 3223 00bc 52656365 		.ascii	"ReceiveData\000"
 3223      69766544 
 3223      61746100 
 3224              	.LASF72:
 3225 00c8 4359424C 		.ascii	"CYBLE_EVT_L2CAP_CBFC_DISCONN_CNF\000"
 3225      455F4556 
 3225      545F4C32 
 3225      4341505F 
 3225      43424643 
 3226              	.LASF18:
 3227 00e9 75696E74 		.ascii	"uint64_t\000"
 3227      36345F74 
 3227      00
 3228              	.LASF0:
 3229 00f2 7369676E 		.ascii	"signed char\000"
 3229      65642063 
 3229      68617200 
 3230              	.LASF3:
 3231 00fe 5F5F7569 		.ascii	"__uint8_t\000"
 3231      6E74385F 
 3231      7400
 3232              	.LASF49:
 3233 0108 4359424C 		.ascii	"CYBLE_EVT_GATTC_FIND_INFO_RSP\000"
 3233      455F4556 
 3233      545F4741 
 3233      5454435F 
 3233      46494E44 
 3234              	.LASF25:
 3235 0126 4359424C 		.ascii	"CYBLE_EVT_TIMEOUT\000"
 3235      455F4556 
 3235      545F5449 
 3235      4D454F55 
 3235      5400
 3236              	.LASF7:
 3237 0138 6C6F6E67 		.ascii	"long int\000"
 3237      20696E74 
 3237      00
 3238              	.LASF12:
 3239 0141 6C6F6E67 		.ascii	"long long unsigned int\000"
 3239      206C6F6E 
 3239      6720756E 
 3239      7369676E 
 3239      65642069 
ARM GAS  C:\Users\Petro\AppData\Local\Temp\cc7wT3EA.s 			page 70


 3240              	.LASF27:
 3241 0158 4359424C 		.ascii	"CYBLE_EVT_HCI_STATUS\000"
 3241      455F4556 
 3241      545F4843 
 3241      495F5354 
 3241      41545553 
 3242              	.LASF77:
 3243 016d 4359424C 		.ascii	"CYBLE_EVT_PENDING_FLASH_WRITE\000"
 3243      455F4556 
 3243      545F5045 
 3243      4E44494E 
 3243      475F464C 
 3244              	.LASF150:
 3245 018b 6E657477 		.ascii	"networkStatus\000"
 3245      6F726B53 
 3245      74617475 
 3245      7300
 3246              	.LASF122:
 3247 0199 6E756D54 		.ascii	"numTruReceive\000"
 3247      72755265 
 3247      63656976 
 3247      6500
 3248              	.LASF66:
 3249 01a7 4359424C 		.ascii	"CYBLE_EVT_L2CAP_CONN_PARAM_UPDATE_REQ\000"
 3249      455F4556 
 3249      545F4C32 
 3249      4341505F 
 3249      434F4E4E 
 3250              	.LASF96:
 3251 01cd 46696E69 		.ascii	"FinishData\000"
 3251      73684461 
 3251      746100
 3252              	.LASF38:
 3253 01d8 4359424C 		.ascii	"CYBLE_EVT_GAP_ENCRYPT_CHANGE\000"
 3253      455F4556 
 3253      545F4741 
 3253      505F454E 
 3253      43525950 
 3254              	.LASF99:
 3255 01f5 6E657753 		.ascii	"newSkier\000"
 3255      6B696572 
 3255      00
 3256              	.LASF128:
 3257 01fe 6D696C6C 		.ascii	"millisTime2\000"
 3257      69735469 
 3257      6D653200 
 3258              	.LASF130:
 3259 020a 6D696C6C 		.ascii	"millisTime3\000"
 3259      69735469 
 3259      6D653300 
 3260              	.LASF135:
 3261 0216 6D696C6C 		.ascii	"millisTime4\000"
 3261      69735469 
 3261      6D653400 
 3262              	.LASF10:
 3263 0222 6C6F6E67 		.ascii	"long long int\000"
 3263      206C6F6E 
ARM GAS  C:\Users\Petro\AppData\Local\Temp\cc7wT3EA.s 			page 71


 3263      6720696E 
 3263      7400
 3264              	.LASF90:
 3265 0230 72656164 		.ascii	"ready\000"
 3265      7900
 3266              	.LASF24:
 3267 0236 4359424C 		.ascii	"CYBLE_EVT_STACK_ON\000"
 3267      455F4556 
 3267      545F5354 
 3267      41434B5F 
 3267      4F4E00
 3268              	.LASF40:
 3269 0249 4359424C 		.ascii	"CYBLE_EVT_GAPC_SCAN_START_STOP\000"
 3269      455F4556 
 3269      545F4741 
 3269      50435F53 
 3269      43414E5F 
 3270              	.LASF30:
 3271 0268 4359424C 		.ascii	"CYBLE_EVT_GAP_AUTH_REQ\000"
 3271      455F4556 
 3271      545F4741 
 3271      505F4155 
 3271      54485F52 
 3272              	.LASF51:
 3273 027f 4359424C 		.ascii	"CYBLE_EVT_GATTC_READ_RSP\000"
 3273      455F4556 
 3273      545F4741 
 3273      5454435F 
 3273      52454144 
 3274              	.LASF23:
 3275 0298 4359424C 		.ascii	"CYBLE_EVT_HOST_INVALID\000"
 3275      455F4556 
 3275      545F484F 
 3275      53545F49 
 3275      4E56414C 
 3276              	.LASF56:
 3277 02af 4359424C 		.ascii	"CYBLE_EVT_GATTS_WRITE_CMD_REQ\000"
 3277      455F4556 
 3277      545F4741 
 3277      5454535F 
 3277      57524954 
 3278              	.LASF144:
 3279 02cd 746D7044 		.ascii	"tmpDiffMs\000"
 3279      6966664D 
 3279      7300
 3280              	.LASF127:
 3281 02d7 756E6978 		.ascii	"unixTime2\000"
 3281      54696D65 
 3281      3200
 3282              	.LASF129:
 3283 02e1 756E6978 		.ascii	"unixTime3\000"
 3283      54696D65 
 3283      3300
 3284              	.LASF134:
 3285 02eb 756E6978 		.ascii	"unixTime4\000"
 3285      54696D65 
 3285      3400
ARM GAS  C:\Users\Petro\AppData\Local\Temp\cc7wT3EA.s 			page 72


 3286              	.LASF59:
 3287 02f5 4359424C 		.ascii	"CYBLE_EVT_GATTC_EXEC_WRITE_RSP\000"
 3287      455F4556 
 3287      545F4741 
 3287      5454435F 
 3287      45584543 
 3288              	.LASF20:
 3289 0314 646F7562 		.ascii	"double\000"
 3289      6C6500
 3290              	.LASF137:
 3291 031b 6D735469 		.ascii	"msTime\000"
 3291      6D6500
 3292              	.LASF80:
 3293 0322 436F6D6D 		.ascii	"Command\000"
 3293      616E6400 
 3294              	.LASF131:
 3295 032a 49447265 		.ascii	"IDreceive\000"
 3295      63656976 
 3295      6500
 3296              	.LASF105:
 3297 0334 62797465 		.ascii	"byte\000"
 3297      00
 3298              	.LASF79:
 3299 0339 4359424C 		.ascii	"CYBLE_EVT_MAX\000"
 3299      455F4556 
 3299      545F4D41 
 3299      5800
 3300              	.LASF8:
 3301 0347 5F5F7569 		.ascii	"__uint32_t\000"
 3301      6E743332 
 3301      5F7400
 3302              	.LASF103:
 3303 0352 73656E64 		.ascii	"sendData\000"
 3303      44617461 
 3303      00
 3304              	.LASF125:
 3305 035b 6D696C6C 		.ascii	"millis\000"
 3305      697300
 3306              	.LASF101:
 3307 0362 53746172 		.ascii	"StartData\000"
 3307      74446174 
 3307      6100
 3308              	.LASF92:
 3309 036c 636F756E 		.ascii	"countSkiers\000"
 3309      74536B69 
 3309      65727300 
 3310              	.LASF76:
 3311 0378 4359424C 		.ascii	"CYBLE_EVT_L2CAP_CBFC_DATA_WRITE_IND\000"
 3311      455F4556 
 3311      545F4C32 
 3311      4341505F 
 3311      43424643 
 3312              	.LASF126:
 3313 039c 4E545072 		.ascii	"NTPreceiveTime\000"
 3313      65636569 
 3313      76655469 
 3313      6D6500
ARM GAS  C:\Users\Petro\AppData\Local\Temp\cc7wT3EA.s 			page 73


 3314              	.LASF64:
 3315 03ab 4359424C 		.ascii	"CYBLE_EVT_GATTC_STOP_CMD_COMPLETE\000"
 3315      455F4556 
 3315      545F4741 
 3315      5454435F 
 3315      53544F50 
 3316              	.LASF13:
 3317 03cd 756E7369 		.ascii	"unsigned int\000"
 3317      676E6564 
 3317      20696E74 
 3317      00
 3318              	.LASF152:
 3319 03da 6E657477 		.ascii	"network.c\000"
 3319      6F726B2E 
 3319      6300
 3320              	.LASF78:
 3321 03e4 4359424C 		.ascii	"CYBLE_EVT_LE_PING_AUTH_TIMEOUT\000"
 3321      455F4556 
 3321      545F4C45 
 3321      5F50494E 
 3321      475F4155 
 3322              	.LASF91:
 3323 0403 7265626F 		.ascii	"reboot\000"
 3323      6F7400
 3324              	.LASF53:
 3325 040a 4359424C 		.ascii	"CYBLE_EVT_GATTC_READ_MULTI_RSP\000"
 3325      455F4556 
 3325      545F4741 
 3325      5454435F 
 3325      52454144 
 3326              	.LASF148:
 3327 0429 6E756D41 		.ascii	"numAttemps\000"
 3327      7474656D 
 3327      707300
 3328              	.LASF9:
 3329 0434 6C6F6E67 		.ascii	"long unsigned int\000"
 3329      20756E73 
 3329      69676E65 
 3329      6420696E 
 3329      7400
 3330              	.LASF54:
 3331 0446 4359424C 		.ascii	"CYBLE_EVT_GATTS_WRITE_REQ\000"
 3331      455F4556 
 3331      545F4741 
 3331      5454535F 
 3331      57524954 
 3332              	.LASF46:
 3333 0460 4359424C 		.ascii	"CYBLE_EVT_GATTC_XCHNG_MTU_RSP\000"
 3333      455F4556 
 3333      545F4741 
 3333      5454435F 
 3333      5843484E 
 3334              	.LASF63:
 3335 047e 4359424C 		.ascii	"CYBLE_EVT_GATTS_DATA_SIGNED_CMD_REQ\000"
 3335      455F4556 
 3335      545F4741 
 3335      5454535F 
ARM GAS  C:\Users\Petro\AppData\Local\Temp\cc7wT3EA.s 			page 74


 3335      44415441 
 3336              	.LASF120:
 3337 04a2 73756D4D 		.ascii	"sumMillis\000"
 3337      696C6C69 
 3337      7300
 3338              	.LASF119:
 3339 04ac 73756D54 		.ascii	"sumTime\000"
 3339      696D6500 
 3340              	.LASF115:
 3341 04b4 72657375 		.ascii	"resultReceive\000"
 3341      6C745265 
 3341      63656976 
 3341      6500
 3342              	.LASF82:
 3343 04c2 44617461 		.ascii	"Data2\000"
 3343      3200
 3344              	.LASF83:
 3345 04c8 44617461 		.ascii	"Data3\000"
 3345      3300
 3346              	.LASF58:
 3347 04ce 4359424C 		.ascii	"CYBLE_EVT_GATTS_EXEC_WRITE_REQ\000"
 3347      455F4556 
 3347      545F4741 
 3347      5454535F 
 3347      45584543 
 3348              	.LASF100:
 3349 04ed 72656164 		.ascii	"readStatus\000"
 3349      53746174 
 3349      757300
 3350              	.LASF31:
 3351 04f8 4359424C 		.ascii	"CYBLE_EVT_GAP_PASSKEY_ENTRY_REQUEST\000"
 3351      455F4556 
 3351      545F4741 
 3351      505F5041 
 3351      53534B45 
 3352              	.LASF36:
 3353 051c 4359424C 		.ascii	"CYBLE_EVT_GAP_DEVICE_CONNECTED\000"
 3353      455F4556 
 3353      545F4741 
 3353      505F4445 
 3353      56494345 
 3354              	.LASF98:
 3355 053b 73746172 		.ascii	"startMsTime\000"
 3355      744D7354 
 3355      696D6500 
 3356              	.LASF15:
 3357 0547 75696E74 		.ascii	"uint16_t\000"
 3357      31365F74 
 3357      00
 3358              	.LASF146:
 3359 0550 696E4461 		.ascii	"inData\000"
 3359      746100
 3360              	.LASF32:
 3361 0557 4359424C 		.ascii	"CYBLE_EVT_GAP_PASSKEY_DISPLAY_REQUEST\000"
 3361      455F4556 
 3361      545F4741 
 3361      505F5041 
ARM GAS  C:\Users\Petro\AppData\Local\Temp\cc7wT3EA.s 			page 75


 3361      53534B45 
 3362              	.LASF43:
 3363 057d 4359424C 		.ascii	"CYBLE_EVT_GATT_CONNECT_IND\000"
 3363      455F4556 
 3363      545F4741 
 3363      54545F43 
 3363      4F4E4E45 
 3364              	.LASF147:
 3365 0598 7265626F 		.ascii	"rebootFlag\000"
 3365      6F74466C 
 3365      616700
 3366              	.LASF68:
 3367 05a3 4359424C 		.ascii	"CYBLE_EVT_L2CAP_COMMAND_REJ\000"
 3367      455F4556 
 3367      545F4C32 
 3367      4341505F 
 3367      434F4D4D 
 3368              	.LASF94:
 3369 05bf 746D704D 		.ascii	"tmpMsTime\000"
 3369      7354696D 
 3369      6500
 3370              	.LASF29:
 3371 05c9 4359424C 		.ascii	"CYBLE_EVT_GAPC_SCAN_PROGRESS_RESULT\000"
 3371      455F4556 
 3371      545F4741 
 3371      50435F53 
 3371      43414E5F 
 3372              	.LASF108:
 3373 05ed 53656E64 		.ascii	"SendFinStatus\000"
 3373      46696E53 
 3373      74617475 
 3373      7300
 3374              	.LASF69:
 3375 05fb 4359424C 		.ascii	"CYBLE_EVT_L2CAP_CBFC_CONN_IND\000"
 3375      455F4556 
 3375      545F4C32 
 3375      4341505F 
 3375      43424643 
 3376              	.LASF48:
 3377 0619 4359424C 		.ascii	"CYBLE_EVT_GATTC_READ_BY_TYPE_RSP\000"
 3377      455F4556 
 3377      545F4741 
 3377      5454435F 
 3377      52454144 
 3378              	.LASF22:
 3379 063a 73697A65 		.ascii	"sizetype\000"
 3379      74797065 
 3379      00
 3380              	.LASF34:
 3381 0643 4359424C 		.ascii	"CYBLE_EVT_GAP_AUTH_FAILED\000"
 3381      455F4556 
 3381      545F4741 
 3381      505F4155 
 3381      54485F46 
 3382              	.LASF55:
 3383 065d 4359424C 		.ascii	"CYBLE_EVT_GATTC_WRITE_RSP\000"
 3383      455F4556 
ARM GAS  C:\Users\Petro\AppData\Local\Temp\cc7wT3EA.s 			page 76


 3383      545F4741 
 3383      5454435F 
 3383      57524954 
 3384              	.LASF112:
 3385 0677 436C6561 		.ascii	"ClearRebootFlag\000"
 3385      72526562 
 3385      6F6F7446 
 3385      6C616700 
 3386              	.LASF111:
 3387 0687 496E6974 		.ascii	"InitNetwork\000"
 3387      4E657477 
 3387      6F726B00 
 3388              	.LASF154:
 3389 0693 52657370 		.ascii	"Resp\000"
 3389      00
 3390              	.LASF33:
 3391 0698 4359424C 		.ascii	"CYBLE_EVT_GAP_AUTH_COMPLETE\000"
 3391      455F4556 
 3391      545F4741 
 3391      505F4155 
 3391      54485F43 
 3392              	.LASF155:
 3393 06b4 4E657477 		.ascii	"NetworkStatus\000"
 3393      6F726B53 
 3393      74617475 
 3393      7300
 3394              	.LASF60:
 3395 06c2 4359424C 		.ascii	"CYBLE_EVT_GATTC_HANDLE_VALUE_NTF\000"
 3395      455F4556 
 3395      545F4741 
 3395      5454435F 
 3395      48414E44 
 3396              	.LASF97:
 3397 06e3 756E6978 		.ascii	"unixStartTime\000"
 3397      53746172 
 3397      7454696D 
 3397      6500
 3398              	.LASF70:
 3399 06f1 4359424C 		.ascii	"CYBLE_EVT_L2CAP_CBFC_CONN_CNF\000"
 3399      455F4556 
 3399      545F4C32 
 3399      4341505F 
 3399      43424643 
 3400              	.LASF11:
 3401 070f 5F5F7569 		.ascii	"__uint64_t\000"
 3401      6E743634 
 3401      5F7400
 3402              	.LASF47:
 3403 071a 4359424C 		.ascii	"CYBLE_EVT_GATTC_READ_BY_GROUP_TYPE_RSP\000"
 3403      455F4556 
 3403      545F4741 
 3403      5454435F 
 3403      52454144 
 3404              	.LASF19:
 3405 0741 666C6F61 		.ascii	"float\000"
 3405      7400
 3406              	.LASF84:
ARM GAS  C:\Users\Petro\AppData\Local\Temp\cc7wT3EA.s 			page 77


 3407 0747 43686563 		.ascii	"CheckSum\000"
 3407      6B53756D 
 3407      00
 3408              	.LASF16:
 3409 0750 696E7433 		.ascii	"int32_t\000"
 3409      325F7400 
 3410              	.LASF1:
 3411 0758 756E7369 		.ascii	"unsigned char\000"
 3411      676E6564 
 3411      20636861 
 3411      7200
 3412              	.LASF140:
 3413 0766 746D7054 		.ascii	"tmpTimeMaster\000"
 3413      696D654D 
 3413      61737465 
 3413      7200
 3414              	.LASF106:
 3415 0774 72656376 		.ascii	"recvData\000"
 3415      44617461 
 3415      00
 3416              	.LASF153:
 3417 077d 443A5C43 		.ascii	"D:\\Cypress\\system-start-finish\\vesion 2\\fw\\fin"
 3417      79707265 
 3417      73735C73 
 3417      79737465 
 3417      6D2D7374 
 3418 07ab 6973685C 		.ascii	"ish\\sandbox\\v7_debug_ntp\\Finish(state machine)\\"
 3418      73616E64 
 3418      626F785C 
 3418      76375F64 
 3418      65627567 
 3419 07da 66696E5F 		.ascii	"fin_v0.cydsn\000"
 3419      76302E63 
 3419      7964736E 
 3419      00
 3420              	.LASF2:
 3421 07e7 73686F72 		.ascii	"short int\000"
 3421      7420696E 
 3421      7400
 3422              	.LASF95:
 3423 07f1 77726974 		.ascii	"writeStatus\000"
 3423      65537461 
 3423      74757300 
 3424              	.LASF61:
 3425 07fd 4359424C 		.ascii	"CYBLE_EVT_GATTC_HANDLE_VALUE_IND\000"
 3425      455F4556 
 3425      545F4741 
 3425      5454435F 
 3425      48414E44 
 3426              	.LASF81:
 3427 081e 44617461 		.ascii	"Data1\000"
 3427      3100
 3428              	.LASF102:
 3429 0824 73656E64 		.ascii	"sendBuffer\000"
 3429      42756666 
 3429      657200
 3430              	.LASF57:
ARM GAS  C:\Users\Petro\AppData\Local\Temp\cc7wT3EA.s 			page 78


 3431 082f 4359424C 		.ascii	"CYBLE_EVT_GATTS_PREP_WRITE_REQ\000"
 3431      455F4556 
 3431      545F4741 
 3431      5454535F 
 3431      50524550 
 3432              	.LASF62:
 3433 084e 4359424C 		.ascii	"CYBLE_EVT_GATTS_HANDLE_VALUE_CNF\000"
 3433      455F4556 
 3433      545F4741 
 3433      5454535F 
 3433      48414E44 
 3434              	.LASF42:
 3435 086f 4359424C 		.ascii	"CYBLE_EVT_GATTC_ERROR_RSP\000"
 3435      455F4556 
 3435      545F4741 
 3435      5454435F 
 3435      4552524F 
 3436              	.LASF17:
 3437 0889 75696E74 		.ascii	"uint32_t\000"
 3437      33325F74 
 3437      00
 3438              	.LASF141:
 3439 0892 746D704D 		.ascii	"tmpMsSlave\000"
 3439      73536C61 
 3439      766500
 3440              	.LASF107:
 3441 089d 53656E64 		.ascii	"SendData\000"
 3441      44617461 
 3441      00
 3442              	.LASF86:
 3443 08a6 44617461 		.ascii	"DataMs1\000"
 3443      4D733100 
 3444              	.LASF21:
 3445 08ae 63686172 		.ascii	"char\000"
 3445      00
 3446              	.LASF136:
 3447 08b3 4E545063 		.ascii	"NTPcalculateTime\000"
 3447      616C6375 
 3447      6C617465 
 3447      54696D65 
 3447      00
 3448              	.LASF37:
 3449 08c4 4359424C 		.ascii	"CYBLE_EVT_GAP_DEVICE_DISCONNECTED\000"
 3449      455F4556 
 3449      545F4741 
 3449      505F4445 
 3449      56494345 
 3450              	.LASF133:
 3451 08e6 4E545073 		.ascii	"NTPsetTimeToStart\000"
 3451      65745469 
 3451      6D65546F 
 3451      53746172 
 3451      7400
 3452              	.LASF4:
 3453 08f8 5F5F7569 		.ascii	"__uint16_t\000"
 3453      6E743136 
 3453      5F7400
ARM GAS  C:\Users\Petro\AppData\Local\Temp\cc7wT3EA.s 			page 79


 3454              	.LASF139:
 3455 0903 746D704D 		.ascii	"tmpMsMaster\000"
 3455      734D6173 
 3455      74657200 
 3456              	.LASF143:
 3457 090f 746D7044 		.ascii	"tmpDiffTime\000"
 3457      69666654 
 3457      696D6500 
 3458              	.LASF6:
 3459 091b 5F5F696E 		.ascii	"__int32_t\000"
 3459      7433325F 
 3459      7400
 3460              	.LASF75:
 3461 0925 4359424C 		.ascii	"CYBLE_EVT_L2CAP_CBFC_TX_CREDIT_IND\000"
 3461      455F4556 
 3461      545F4C32 
 3461      4341505F 
 3461      43424643 
 3462              	.LASF52:
 3463 0948 4359424C 		.ascii	"CYBLE_EVT_GATTC_READ_BLOB_RSP\000"
 3463      455F4556 
 3463      545F4741 
 3463      5454435F 
 3463      52454144 
 3464              	.LASF149:
 3465 0966 6E6F436F 		.ascii	"noConnect\000"
 3465      6E6E6563 
 3465      7400
 3466              	.LASF138:
 3467 0970 73756D4D 		.ascii	"sumMs\000"
 3467      7300
 3468              	.LASF110:
 3469 0976 49735265 		.ascii	"IsRebootStartFlag\000"
 3469      626F6F74 
 3469      53746172 
 3469      74466C61 
 3469      6700
 3470              	.LASF26:
 3471 0988 4359424C 		.ascii	"CYBLE_EVT_HARDWARE_ERROR\000"
 3471      455F4556 
 3471      545F4841 
 3471      52445741 
 3471      52455F45 
 3472              	.LASF5:
 3473 09a1 73686F72 		.ascii	"short unsigned int\000"
 3473      7420756E 
 3473      7369676E 
 3473      65642069 
 3473      6E7400
 3474              	.LASF117:
 3475 09b4 756E6978 		.ascii	"unixTime\000"
 3475      54696D65 
 3475      00
 3476              	.LASF145:
 3477 09bd 6F757444 		.ascii	"outData\000"
 3477      61746100 
 3478              	.LASF35:
ARM GAS  C:\Users\Petro\AppData\Local\Temp\cc7wT3EA.s 			page 80


 3479 09c5 4359424C 		.ascii	"CYBLE_EVT_GAPP_ADVERTISEMENT_START_STOP\000"
 3479      455F4556 
 3479      545F4741 
 3479      50505F41 
 3479      44564552 
 3480              	.LASF113:
 3481 09ed 53657452 		.ascii	"SetRebootFlag\000"
 3481      65626F6F 
 3481      74466C61 
 3481      6700
 3482              	.LASF45:
 3483 09fb 4359424C 		.ascii	"CYBLE_EVT_GATTS_XCNHG_MTU_REQ\000"
 3483      455F4556 
 3483      545F4741 
 3483      5454535F 
 3483      58434E48 
 3484              	.LASF124:
 3485 0a19 73746174 		.ascii	"status\000"
 3485      757300
 3486              	.LASF121:
 3487 0a20 6E756D41 		.ascii	"numAttempsReseive\000"
 3487      7474656D 
 3487      70735265 
 3487      73656976 
 3487      6500
 3488              	.LASF118:
 3489 0a32 6D696C6C 		.ascii	"millisTime\000"
 3489      69735469 
 3489      6D6500
 3490              	.LASF116:
 3491 0a3d 49447265 		.ascii	"IDreceivePacket\000"
 3491      63656976 
 3491      65506163 
 3491      6B657400 
 3492              	.LASF14:
 3493 0a4d 75696E74 		.ascii	"uint8_t\000"
 3493      385F7400 
 3494              	.LASF93:
 3495 0a55 746D7054 		.ascii	"tmpTime\000"
 3495      696D6500 
 3496              	.LASF151:
 3497 0a5d 474E5520 		.ascii	"GNU C 4.9.3 20150303 (release) [ARM/embedded-4_9-br"
 3497      4320342E 
 3497      392E3320 
 3497      32303135 
 3497      30333033 
 3498 0a90 616E6368 		.ascii	"anch revision 221220] -mcpu=cortex-m0 -mthumb -g -O"
 3498      20726576 
 3498      6973696F 
 3498      6E203232 
 3498      31323230 
 3499 0ac3 30202D66 		.ascii	"0 -ffunction-sections -ffat-lto-objects\000"
 3499      66756E63 
 3499      74696F6E 
 3499      2D736563 
 3499      74696F6E 
 3500              	.LASF50:
ARM GAS  C:\Users\Petro\AppData\Local\Temp\cc7wT3EA.s 			page 81


 3501 0aeb 4359424C 		.ascii	"CYBLE_EVT_GATTC_FIND_BY_TYPE_VALUE_RSP\000"
 3501      455F4556 
 3501      545F4741 
 3501      5454435F 
 3501      46494E44 
 3502              	.LASF41:
 3503 0b12 4359424C 		.ascii	"CYBLE_EVT_GAP_KEYINFO_EXCHNGE_CMPLT\000"
 3503      455F4556 
 3503      545F4741 
 3503      505F4B45 
 3503      59494E46 
 3504              	.LASF87:
 3505 0b36 44617461 		.ascii	"DataMs2\000"
 3505      4D733200 
 3506              	.LASF71:
 3507 0b3e 4359424C 		.ascii	"CYBLE_EVT_L2CAP_CBFC_DISCONN_IND\000"
 3507      455F4556 
 3507      545F4C32 
 3507      4341505F 
 3507      43424643 
 3508              	.LASF89:
 3509 0b5f 49447061 		.ascii	"IDpacket\000"
 3509      636B6574 
 3509      00
 3510              	.LASF88:
 3511 0b68 4E747052 		.ascii	"NtpResp\000"
 3511      65737000 
 3512              	.LASF132:
 3513 0b70 72656376 		.ascii	"recvDataNTP\000"
 3513      44617461 
 3513      4E545000 
 3514              	.LASF67:
 3515 0b7c 4359424C 		.ascii	"CYBLE_EVT_L2CAP_CONN_PARAM_UPDATE_RSP\000"
 3515      455F4556 
 3515      545F4C32 
 3515      4341505F 
 3515      434F4E4E 
 3516              	.LASF142:
 3517 0ba2 746D7054 		.ascii	"tmpTimeSlave\000"
 3517      696D6553 
 3517      6C617665 
 3517      00
 3518              	.LASF104:
 3519 0baf 72657375 		.ascii	"result\000"
 3519      6C7400
 3520              	.LASF44:
 3521 0bb6 4359424C 		.ascii	"CYBLE_EVT_GATT_DISCONNECT_IND\000"
 3521      455F4556 
 3521      545F4741 
 3521      54545F44 
 3521      4953434F 
 3522              	.LASF114:
 3523 0bd4 4E545073 		.ascii	"NTPsync\000"
 3523      796E6300 
 3524              	.LASF85:
 3525 0bdc 456E6450 		.ascii	"EndPacket\000"
 3525      61636B65 
ARM GAS  C:\Users\Petro\AppData\Local\Temp\cc7wT3EA.s 			page 82


 3525      7400
 3526              		.ident	"GCC: (GNU Tools for ARM Embedded Processors) 4.9.3 20150303 (release) [ARM/embedded-4_9-br
