ARM GAS  C:\Users\Petro\AppData\Local\Temp\cc5IgTu7.s 			page 1


   1              		.cpu cortex-m0
   2              		.fpu softvfp
   3              		.eabi_attribute 20, 1
   4              		.eabi_attribute 21, 1
   5              		.eabi_attribute 23, 3
   6              		.eabi_attribute 24, 1
   7              		.eabi_attribute 25, 1
   8              		.eabi_attribute 26, 1
   9              		.eabi_attribute 30, 1
  10              		.eabi_attribute 34, 0
  11              		.eabi_attribute 18, 4
  12              		.code	16
  13              		.file	"pff.c"
  14              		.text
  15              	.Ltext0:
  16              		.cfi_sections	.debug_frame
  17              		.section	.text.mem_set,"ax",%progbits
  18              		.align	2
  19              		.code	16
  20              		.thumb_func
  21              		.type	mem_set, %function
  22              	mem_set:
  23              	.LFB0:
  24              		.file 1 ".\\pff.c"
   1:.\pff.c       **** /*----------------------------------------------------------------------------/
   2:.\pff.c       **** /  Petit FatFs - FAT file system module  R0.03                (C)ChaN, 2014
   3:.\pff.c       **** /-----------------------------------------------------------------------------/
   4:.\pff.c       **** / Petit FatFs module is a generic FAT file system module for small embedded
   5:.\pff.c       **** / systems. This is a free software that opened for education, research and
   6:.\pff.c       **** / commercial developments under license policy of following trems.
   7:.\pff.c       **** /
   8:.\pff.c       **** /  Copyright (C) 2014, ChaN, all right reserved.
   9:.\pff.c       **** /
  10:.\pff.c       **** / * The Petit FatFs module is a free software and there is NO WARRANTY.
  11:.\pff.c       **** / * No restriction on use. You can use, modify and redistribute it for
  12:.\pff.c       **** /   personal, non-profit or commercial products UNDER YOUR RESPONSIBILITY.
  13:.\pff.c       **** / * Redistributions of source code must retain the above copyright notice.
  14:.\pff.c       **** /
  15:.\pff.c       **** /-----------------------------------------------------------------------------/
  16:.\pff.c       **** / Jun 15,'09  R0.01a  First release.
  17:.\pff.c       **** /
  18:.\pff.c       **** / Dec 14,'09  R0.02   Added multiple code page support.
  19:.\pff.c       **** /                     Added write funciton.
  20:.\pff.c       **** /                     Changed stream read mode interface.
  21:.\pff.c       **** / Dec 07,'10  R0.02a  Added some configuration options.
  22:.\pff.c       **** /                     Fixed fails to open objects with DBCS character.
  23:.\pff.c       **** 
  24:.\pff.c       **** / Jun 10,'14  R0.03   Separated out configuration options to pffconf.h.
  25:.\pff.c       **** /                     Added _USE_LCC option.
  26:.\pff.c       **** /                     Added _FS_FAT16 option.
  27:.\pff.c       **** /----------------------------------------------------------------------------*/
  28:.\pff.c       **** 
  29:.\pff.c       **** #include "pff.h"		/* Petit FatFs configurations and declarations */
  30:.\pff.c       **** #include "diskio.h"		/* Declarations of low level disk I/O functions */
  31:.\pff.c       **** 
  32:.\pff.c       **** 
  33:.\pff.c       **** 
ARM GAS  C:\Users\Petro\AppData\Local\Temp\cc5IgTu7.s 			page 2


  34:.\pff.c       **** /*--------------------------------------------------------------------------
  35:.\pff.c       **** 
  36:.\pff.c       ****    Module Private Definitions
  37:.\pff.c       **** 
  38:.\pff.c       **** ---------------------------------------------------------------------------*/
  39:.\pff.c       **** 
  40:.\pff.c       **** 
  41:.\pff.c       **** #if _PFATFS != 4004	/* Revision ID */
  42:.\pff.c       **** #error Wrong include file (pff.h).
  43:.\pff.c       **** #endif
  44:.\pff.c       **** 
  45:.\pff.c       **** #if _FS_FAT32
  46:.\pff.c       **** #if !_FS_FAT16 && !_FS_FAT12
  47:.\pff.c       **** #define _FS_32ONLY 1
  48:.\pff.c       **** #else
  49:.\pff.c       **** #define _FS_32ONLY 0
  50:.\pff.c       **** #endif
  51:.\pff.c       **** #else
  52:.\pff.c       **** #if !_FS_FAT16 && !_FS_FAT12
  53:.\pff.c       **** #error Wrong _FS_FATxx setting.
  54:.\pff.c       **** #endif
  55:.\pff.c       **** #define _FS_32ONLY 0
  56:.\pff.c       **** #endif
  57:.\pff.c       **** 
  58:.\pff.c       **** #define ABORT(err)	{fs->flag = 0; return err;}
  59:.\pff.c       **** 
  60:.\pff.c       **** 
  61:.\pff.c       **** 
  62:.\pff.c       **** /*--------------------------------------------------------*/
  63:.\pff.c       **** /* DBCS code ranges and SBCS extend char conversion table */
  64:.\pff.c       **** /*--------------------------------------------------------*/
  65:.\pff.c       **** 
  66:.\pff.c       **** #if _CODE_PAGE == 932	/* Japanese Shift-JIS */
  67:.\pff.c       **** #define _DF1S	0x81	/* DBC 1st byte range 1 start */
  68:.\pff.c       **** #define _DF1E	0x9F	/* DBC 1st byte range 1 end */
  69:.\pff.c       **** #define _DF2S	0xE0	/* DBC 1st byte range 2 start */
  70:.\pff.c       **** #define _DF2E	0xFC	/* DBC 1st byte range 2 end */
  71:.\pff.c       **** #define _DS1S	0x40	/* DBC 2nd byte range 1 start */
  72:.\pff.c       **** #define _DS1E	0x7E	/* DBC 2nd byte range 1 end */
  73:.\pff.c       **** #define _DS2S	0x80	/* DBC 2nd byte range 2 start */
  74:.\pff.c       **** #define _DS2E	0xFC	/* DBC 2nd byte range 2 end */
  75:.\pff.c       **** 
  76:.\pff.c       **** #elif _CODE_PAGE == 936	/* Simplified Chinese GBK */
  77:.\pff.c       **** #define _DF1S	0x81
  78:.\pff.c       **** #define _DF1E	0xFE
  79:.\pff.c       **** #define _DS1S	0x40
  80:.\pff.c       **** #define _DS1E	0x7E
  81:.\pff.c       **** #define _DS2S	0x80
  82:.\pff.c       **** #define _DS2E	0xFE
  83:.\pff.c       **** 
  84:.\pff.c       **** #elif _CODE_PAGE == 949	/* Korean */
  85:.\pff.c       **** #define _DF1S	0x81
  86:.\pff.c       **** #define _DF1E	0xFE
  87:.\pff.c       **** #define _DS1S	0x41
  88:.\pff.c       **** #define _DS1E	0x5A
  89:.\pff.c       **** #define _DS2S	0x61
  90:.\pff.c       **** #define _DS2E	0x7A
ARM GAS  C:\Users\Petro\AppData\Local\Temp\cc5IgTu7.s 			page 3


  91:.\pff.c       **** #define _DS3S	0x81
  92:.\pff.c       **** #define _DS3E	0xFE
  93:.\pff.c       **** 
  94:.\pff.c       **** #elif _CODE_PAGE == 950	/* Traditional Chinese Big5 */
  95:.\pff.c       **** #define _DF1S	0x81
  96:.\pff.c       **** #define _DF1E	0xFE
  97:.\pff.c       **** #define _DS1S	0x40
  98:.\pff.c       **** #define _DS1E	0x7E
  99:.\pff.c       **** #define _DS2S	0xA1
 100:.\pff.c       **** #define _DS2E	0xFE
 101:.\pff.c       **** 
 102:.\pff.c       **** #elif _CODE_PAGE == 437	/* U.S. (OEM) */
 103:.\pff.c       **** #define _EXCVT {0x80,0x9A,0x90,0x41,0x8E,0x41,0x8F,0x80,0x45,0x45,0x45,0x49,0x49,0x49,0x8E,0x8F,0x9
 104:.\pff.c       **** 				0x41,0x49,0x4F,0x55,0xA5,0xA5,0xA6,0xA7,0xA8,0xA9,0xAA,0xAB,0xAC,0x21,0xAE,0xAF,0xB0,0xB1,0xB2,
 105:.\pff.c       **** 				0xC0,0xC1,0xC2,0xC3,0xC4,0xC5,0xC6,0xC7,0xC8,0xC9,0xCA,0xCB,0xCC,0xCD,0xCE,0xCF,0xD0,0xD1,0xD2,
 106:.\pff.c       **** 				0xE0,0xE1,0xE2,0xE3,0xE4,0xE5,0xE6,0xE7,0xE8,0xE9,0xEA,0xEB,0xEC,0xED,0xEE,0xEF,0xF0,0xF1,0xF2,
 107:.\pff.c       **** 
 108:.\pff.c       **** #elif _CODE_PAGE == 720	/* Arabic (OEM) */
 109:.\pff.c       **** #define _EXCVT {0x80,0x81,0x45,0x41,0x84,0x41,0x86,0x43,0x45,0x45,0x45,0x49,0x49,0x8D,0x8E,0x8F,0x9
 110:.\pff.c       **** 				0xA0,0xA1,0xA2,0xA3,0xA4,0xA5,0xA6,0xA7,0xA8,0xA9,0xAA,0xAB,0xAC,0xAD,0xAE,0xAF,0xB0,0xB1,0xB2,
 111:.\pff.c       **** 				0xC0,0xC1,0xC2,0xC3,0xC4,0xC5,0xC6,0xC7,0xC8,0xC9,0xCA,0xCB,0xCC,0xCD,0xCE,0xCF,0xD0,0xD1,0xD2,
 112:.\pff.c       **** 				0xE0,0xE1,0xE2,0xE3,0xE4,0xE5,0xE6,0xE7,0xE8,0xE9,0xEA,0xEB,0xEC,0xED,0xEE,0xEF,0xF0,0xF1,0xF2,
 113:.\pff.c       **** 
 114:.\pff.c       **** #elif _CODE_PAGE == 737	/* Greek (OEM) */
 115:.\pff.c       **** #define _EXCVT {0x80,0x81,0x82,0x83,0x84,0x85,0x86,0x87,0x88,0x89,0x8A,0x8B,0x8C,0x8D,0x8E,0x8F,0x9
 116:.\pff.c       **** 				0x88,0x89,0x8A,0x8B,0x8C,0x8D,0x8E,0x8F,0x90,0x91,0xAA,0x92,0x93,0x94,0x95,0x96,0xB0,0xB1,0xB2,
 117:.\pff.c       **** 				0xC0,0xC1,0xC2,0xC3,0xC4,0xC5,0xC6,0xC7,0xC8,0xC9,0xCA,0xCB,0xCC,0xCD,0xCE,0xCF,0xD0,0xD1,0xD2,
 118:.\pff.c       **** 				0x97,0xEA,0xEB,0xEC,0xE4,0xED,0xEE,0xE7,0xE8,0xF1,0xEA,0xEB,0xEC,0xED,0xEE,0xEF,0xF0,0xF1,0xF2,
 119:.\pff.c       **** 
 120:.\pff.c       **** #elif _CODE_PAGE == 775	/* Baltic (OEM) */
 121:.\pff.c       **** #define _EXCVT {0x80,0x9A,0x91,0xA0,0x8E,0x95,0x8F,0x80,0xAD,0xED,0x8A,0x8A,0xA1,0x8D,0x8E,0x8F,0x9
 122:.\pff.c       **** 				0xA0,0xA1,0xE0,0xA3,0xA3,0xA5,0xA6,0xA7,0xA8,0xA9,0xAA,0xAB,0xAC,0xAD,0xAE,0xAF,0xB0,0xB1,0xB2,
 123:.\pff.c       **** 				0xC0,0xC1,0xC2,0xC3,0xC4,0xC5,0xC6,0xC7,0xC8,0xC9,0xCA,0xCB,0xCC,0xCD,0xCE,0xCF,0xB5,0xB6,0xB7,
 124:.\pff.c       **** 				0xE0,0xE1,0xE2,0xE3,0xE5,0xE5,0xE6,0xE3,0xE8,0xE8,0xEA,0xEA,0xEE,0xED,0xEE,0xEF,0xF0,0xF1,0xF2,
 125:.\pff.c       **** 
 126:.\pff.c       **** #elif _CODE_PAGE == 850	/* Multilingual Latin 1 (OEM) */
 127:.\pff.c       **** #define _EXCVT {0x80,0x9A,0x90,0xB6,0x8E,0xB7,0x8F,0x80,0xD2,0xD3,0xD4,0xD8,0xD7,0xDE,0x8E,0x8F,0x9
 128:.\pff.c       **** 				0xB5,0xD6,0xE0,0xE9,0xA5,0xA5,0xA6,0xA7,0xA8,0xA9,0xAA,0xAB,0xAC,0x21,0xAE,0xAF,0xB0,0xB1,0xB2,
 129:.\pff.c       **** 				0xC0,0xC1,0xC2,0xC3,0xC4,0xC5,0xC7,0xC7,0xC8,0xC9,0xCA,0xCB,0xCC,0xCD,0xCE,0xCF,0xD0,0xD1,0xD2,
 130:.\pff.c       **** 				0xE0,0xE1,0xE2,0xE3,0xE5,0xE5,0xE6,0xE7,0xE7,0xE9,0xEA,0xEB,0xED,0xED,0xEE,0xEF,0xF0,0xF1,0xF2,
 131:.\pff.c       **** 
 132:.\pff.c       **** #elif _CODE_PAGE == 852	/* Latin 2 (OEM) */
 133:.\pff.c       **** #define _EXCVT {0x80,0x9A,0x90,0xB6,0x8E,0xDE,0x8F,0x80,0x9D,0xD3,0x8A,0x8A,0xD7,0x8D,0x8E,0x8F,0x9
 134:.\pff.c       **** 				0xB5,0xD6,0xE0,0xE9,0xA4,0xA4,0xA6,0xA6,0xA8,0xA8,0xAA,0x8D,0xAC,0xB8,0xAE,0xAF,0xB0,0xB1,0xB2,
 135:.\pff.c       **** 				0xC0,0xC1,0xC2,0xC3,0xC4,0xC5,0xC6,0xC6,0xC8,0xC9,0xCA,0xCB,0xCC,0xCD,0xCE,0xCF,0xD1,0xD1,0xD2,
 136:.\pff.c       **** 				0xE0,0xE1,0xE2,0xE3,0xE3,0xD5,0xE6,0xE6,0xE8,0xE9,0xE8,0xEB,0xED,0xED,0xDD,0xEF,0xF0,0xF1,0xF2,
 137:.\pff.c       **** 
 138:.\pff.c       **** #elif _CODE_PAGE == 855	/* Cyrillic (OEM) */
 139:.\pff.c       **** #define _EXCVT {0x81,0x81,0x83,0x83,0x85,0x85,0x87,0x87,0x89,0x89,0x8B,0x8B,0x8D,0x8D,0x8F,0x8F,0x9
 140:.\pff.c       **** 				0xA1,0xA1,0xA3,0xA3,0xA5,0xA5,0xA7,0xA7,0xA9,0xA9,0xAB,0xAB,0xAD,0xAD,0xAE,0xAF,0xB0,0xB1,0xB2,
 141:.\pff.c       **** 				0xC0,0xC1,0xC2,0xC3,0xC4,0xC5,0xC7,0xC7,0xC8,0xC9,0xCA,0xCB,0xCC,0xCD,0xCE,0xCF,0xD1,0xD1,0xD3,
 142:.\pff.c       **** 				0xE0,0xE2,0xE2,0xE4,0xE4,0xE6,0xE6,0xE8,0xE8,0xEA,0xEA,0xEC,0xEC,0xEE,0xEE,0xEF,0xF0,0xF2,0xF2,
 143:.\pff.c       **** 
 144:.\pff.c       **** #elif _CODE_PAGE == 857	/* Turkish (OEM) */
 145:.\pff.c       **** #define _EXCVT {0x80,0x9A,0x90,0xB6,0x8E,0xB7,0x8F,0x80,0xD2,0xD3,0xD4,0xD8,0xD7,0x98,0x8E,0x8F,0x9
 146:.\pff.c       **** 				0xB5,0xD6,0xE0,0xE9,0xA5,0xA5,0xA6,0xA6,0xA8,0xA9,0xAA,0xAB,0xAC,0x21,0xAE,0xAF,0xB0,0xB1,0xB2,
 147:.\pff.c       **** 				0xC0,0xC1,0xC2,0xC3,0xC4,0xC5,0xC7,0xC7,0xC8,0xC9,0xCA,0xCB,0xCC,0xCD,0xCE,0xCF,0xD0,0xD1,0xD2,
ARM GAS  C:\Users\Petro\AppData\Local\Temp\cc5IgTu7.s 			page 4


 148:.\pff.c       **** 				0xE0,0xE1,0xE2,0xE3,0xE5,0xE5,0xE6,0xE7,0xE8,0xE9,0xEA,0xEB,0xDE,0x59,0xEE,0xEF,0xF0,0xF1,0xF2,
 149:.\pff.c       **** 
 150:.\pff.c       **** #elif _CODE_PAGE == 858	/* Multilingual Latin 1 + Euro (OEM) */
 151:.\pff.c       **** #define _EXCVT {0x80,0x9A,0x90,0xB6,0x8E,0xB7,0x8F,0x80,0xD2,0xD3,0xD4,0xD8,0xD7,0xDE,0x8E,0x8F,0x9
 152:.\pff.c       **** 				0xB5,0xD6,0xE0,0xE9,0xA5,0xA5,0xA6,0xA7,0xA8,0xA9,0xAA,0xAB,0xAC,0x21,0xAE,0xAF,0xB0,0xB1,0xB2,
 153:.\pff.c       **** 				0xC0,0xC1,0xC2,0xC3,0xC4,0xC5,0xC7,0xC7,0xC8,0xC9,0xCA,0xCB,0xCC,0xCD,0xCE,0xCF,0xD1,0xD1,0xD2,
 154:.\pff.c       **** 				0xE0,0xE1,0xE2,0xE3,0xE5,0xE5,0xE6,0xE7,0xE7,0xE9,0xEA,0xEB,0xED,0xED,0xEE,0xEF,0xF0,0xF1,0xF2,
 155:.\pff.c       **** 
 156:.\pff.c       **** #elif _CODE_PAGE == 862	/* Hebrew (OEM) */
 157:.\pff.c       **** #define _EXCVT {0x80,0x81,0x82,0x83,0x84,0x85,0x86,0x87,0x88,0x89,0x8A,0x8B,0x8C,0x8D,0x8E,0x8F,0x9
 158:.\pff.c       **** 				0x41,0x49,0x4F,0x55,0xA5,0xA5,0xA6,0xA7,0xA8,0xA9,0xAA,0xAB,0xAC,0x21,0xAE,0xAF,0xB0,0xB1,0xB2,
 159:.\pff.c       **** 				0xC0,0xC1,0xC2,0xC3,0xC4,0xC5,0xC6,0xC7,0xC8,0xC9,0xCA,0xCB,0xCC,0xCD,0xCE,0xCF,0xD0,0xD1,0xD2,
 160:.\pff.c       **** 				0xE0,0xE1,0xE2,0xE3,0xE4,0xE5,0xE6,0xE7,0xE8,0xE9,0xEA,0xEB,0xEC,0xED,0xEE,0xEF,0xF0,0xF1,0xF2,
 161:.\pff.c       **** 
 162:.\pff.c       **** #elif _CODE_PAGE == 866	/* Russian (OEM) */
 163:.\pff.c       **** #define _EXCVT {0x80,0x81,0x82,0x83,0x84,0x85,0x86,0x87,0x88,0x89,0x8A,0x8B,0x8C,0x8D,0x8E,0x8F,0x9
 164:.\pff.c       **** 				0x80,0x81,0x82,0x83,0x84,0x85,0x86,0x87,0x88,0x89,0x8A,0x8B,0x8C,0x8D,0x8E,0x8F,0xB0,0xB1,0xB2,
 165:.\pff.c       **** 				0xC0,0xC1,0xC2,0xC3,0xC4,0xC5,0xC6,0xC7,0xC8,0xC9,0xCA,0xCB,0xCC,0xCD,0xCE,0xCF,0xD0,0xD1,0xD2,
 166:.\pff.c       **** 				0x90,0x91,0x92,0x93,0x9d,0x95,0x96,0x97,0x98,0x99,0x9A,0x9B,0x9C,0x9D,0x9E,0x9F,0xF0,0xF0,0xF2,
 167:.\pff.c       **** 
 168:.\pff.c       **** #elif _CODE_PAGE == 874	/* Thai (OEM, Windows) */
 169:.\pff.c       **** #define _EXCVT {0x80,0x81,0x82,0x83,0x84,0x85,0x86,0x87,0x88,0x89,0x8A,0x8B,0x8C,0x8D,0x8E,0x8F,0x9
 170:.\pff.c       **** 				0xA0,0xA1,0xA2,0xA3,0xA4,0xA5,0xA6,0xA7,0xA8,0xA9,0xAA,0xAB,0xAC,0xAD,0xAE,0xAF,0xB0,0xB1,0xB2,
 171:.\pff.c       **** 				0xC0,0xC1,0xC2,0xC3,0xC4,0xC5,0xC6,0xC7,0xC8,0xC9,0xCA,0xCB,0xCC,0xCD,0xCE,0xCF,0xD0,0xD1,0xD2,
 172:.\pff.c       **** 				0xE0,0xE1,0xE2,0xE3,0xE4,0xE5,0xE6,0xE7,0xE8,0xE9,0xEA,0xEB,0xEC,0xED,0xEE,0xEF,0xF0,0xF1,0xF2,
 173:.\pff.c       **** 
 174:.\pff.c       **** #elif _CODE_PAGE == 1250 /* Central Europe (Windows) */
 175:.\pff.c       **** #define _EXCVT {0x80,0x81,0x82,0x83,0x84,0x85,0x86,0x87,0x88,0x89,0x8A,0x8B,0x8C,0x8D,0x8E,0x8F,0x9
 176:.\pff.c       **** 				0xA0,0xA1,0xA2,0xA3,0xA4,0xA5,0xA6,0xA7,0xA8,0xA9,0xAA,0xAB,0xAC,0xAD,0xAE,0xAF,0xB0,0xB1,0xB2,
 177:.\pff.c       **** 				0xC0,0xC1,0xC2,0xC3,0xC4,0xC5,0xC6,0xC7,0xC8,0xC9,0xCA,0xCB,0xCC,0xCD,0xCE,0xCF,0xD0,0xD1,0xD2,
 178:.\pff.c       **** 				0xC0,0xC1,0xC2,0xC3,0xC4,0xC5,0xC6,0xC7,0xC8,0xC9,0xCA,0xCB,0xCC,0xCD,0xCE,0xCF,0xD0,0xD1,0xD2,
 179:.\pff.c       **** 
 180:.\pff.c       **** #elif _CODE_PAGE == 1251 /* Cyrillic (Windows) */
 181:.\pff.c       **** #define _EXCVT {0x80,0x81,0x82,0x82,0x84,0x85,0x86,0x87,0x88,0x89,0x8A,0x8B,0x8C,0x8D,0x8E,0x8F,0x8
 182:.\pff.c       **** 				0xA0,0xA2,0xA2,0xA3,0xA4,0xA5,0xA6,0xA7,0xA8,0xA9,0xAA,0xAB,0xAC,0xAD,0xAE,0xAF,0xB0,0xB1,0xB2,
 183:.\pff.c       **** 				0xC0,0xC1,0xC2,0xC3,0xC4,0xC5,0xC6,0xC7,0xC8,0xC9,0xCA,0xCB,0xCC,0xCD,0xCE,0xCF,0xD0,0xD1,0xD2,
 184:.\pff.c       **** 				0xC0,0xC1,0xC2,0xC3,0xC4,0xC5,0xC6,0xC7,0xC8,0xC9,0xCA,0xCB,0xCC,0xCD,0xCE,0xCF,0xD0,0xD1,0xD2,
 185:.\pff.c       **** 
 186:.\pff.c       **** #elif _CODE_PAGE == 1252 /* Latin 1 (Windows) */
 187:.\pff.c       **** #define _EXCVT {0x80,0x81,0x82,0x83,0x84,0x85,0x86,0x87,0x88,0x89,0x8A,0x8B,0x8C,0x8D,0x8E,0x8F,0x9
 188:.\pff.c       **** 				0xA0,0x21,0xA2,0xA3,0xA4,0xA5,0xA6,0xA7,0xA8,0xA9,0xAA,0xAB,0xAC,0xAD,0xAE,0xAF,0xB0,0xB1,0xB2,
 189:.\pff.c       **** 				0xC0,0xC1,0xC2,0xC3,0xC4,0xC5,0xC6,0xC7,0xC8,0xC9,0xCA,0xCB,0xCC,0xCD,0xCE,0xCF,0xD0,0xD1,0xD2,
 190:.\pff.c       **** 				0xC0,0xC1,0xC2,0xC3,0xC4,0xC5,0xC6,0xC7,0xC8,0xC9,0xCA,0xCB,0xCC,0xCD,0xCE,0xCF,0xD0,0xD1,0xD2,
 191:.\pff.c       **** 
 192:.\pff.c       **** #elif _CODE_PAGE == 1253 /* Greek (Windows) */
 193:.\pff.c       **** #define _EXCVT {0x80,0x81,0x82,0x83,0x84,0x85,0x86,0x87,0x88,0x89,0x8A,0x8B,0x8C,0x8D,0x8E,0x8F,0x9
 194:.\pff.c       **** 				0xA0,0xA1,0xA2,0xA3,0xA4,0xA5,0xA6,0xA7,0xA8,0xA9,0xAA,0xAB,0xAC,0xAD,0xAE,0xAF,0xB0,0xB1,0xB2,
 195:.\pff.c       **** 				0xC0,0xC1,0xC2,0xC3,0xC4,0xC5,0xC6,0xC7,0xC8,0xC9,0xCA,0xCB,0xCC,0xCD,0xCE,0xCF,0xD0,0xD1,0xD2,
 196:.\pff.c       **** 				0xE0,0xC1,0xC2,0xC3,0xC4,0xC5,0xC6,0xC7,0xC8,0xC9,0xCA,0xCB,0xCC,0xCD,0xCE,0xCF,0xD0,0xD1,0xF2,
 197:.\pff.c       **** 
 198:.\pff.c       **** #elif _CODE_PAGE == 1254 /* Turkish (Windows) */
 199:.\pff.c       **** #define _EXCVT {0x80,0x81,0x82,0x83,0x84,0x85,0x86,0x87,0x88,0x89,0x8A,0x8B,0x8C,0x8D,0x8E,0x8F,0x9
 200:.\pff.c       **** 				0xA0,0x21,0xA2,0xA3,0xA4,0xA5,0xA6,0xA7,0xA8,0xA9,0xAA,0xAB,0xAC,0xAD,0xAE,0xAF,0xB0,0xB1,0xB2,
 201:.\pff.c       **** 				0xC0,0xC1,0xC2,0xC3,0xC4,0xC5,0xC6,0xC7,0xC8,0xC9,0xCA,0xCB,0xCC,0xCD,0xCE,0xCF,0xD0,0xD1,0xD2,
 202:.\pff.c       **** 				0xC0,0xC1,0xC2,0xC3,0xC4,0xC5,0xC6,0xC7,0xC8,0xC9,0xCA,0xCB,0xCC,0xCD,0xCE,0xCF,0xD0,0xD1,0xD2,
 203:.\pff.c       **** 
 204:.\pff.c       **** #elif _CODE_PAGE == 1255 /* Hebrew (Windows) */
ARM GAS  C:\Users\Petro\AppData\Local\Temp\cc5IgTu7.s 			page 5


 205:.\pff.c       **** #define _EXCVT {0x80,0x81,0x82,0x83,0x84,0x85,0x86,0x87,0x88,0x89,0x8A,0x8B,0x8C,0x8D,0x8E,0x8F,0x9
 206:.\pff.c       **** 				0xA0,0x21,0xA2,0xA3,0xA4,0xA5,0xA6,0xA7,0xA8,0xA9,0xAA,0xAB,0xAC,0xAD,0xAE,0xAF,0xB0,0xB1,0xB2,
 207:.\pff.c       **** 				0xC0,0xC1,0xC2,0xC3,0xC4,0xC5,0xC6,0xC7,0xC8,0xC9,0xCA,0xCB,0xCC,0xCD,0xCE,0xCF,0xD0,0xD1,0xD2,
 208:.\pff.c       **** 				0xE0,0xE1,0xE2,0xE3,0xE4,0xE5,0xE6,0xE7,0xE8,0xE9,0xEA,0xEB,0xEC,0xED,0xEE,0xEF,0xF0,0xF1,0xF2,
 209:.\pff.c       **** 
 210:.\pff.c       **** #elif _CODE_PAGE == 1256 /* Arabic (Windows) */
 211:.\pff.c       **** #define _EXCVT {0x80,0x81,0x82,0x83,0x84,0x85,0x86,0x87,0x88,0x89,0x8A,0x8B,0x8C,0x8D,0x8E,0x8F,0x9
 212:.\pff.c       **** 				0xA0,0xA1,0xA2,0xA3,0xA4,0xA5,0xA6,0xA7,0xA8,0xA9,0xAA,0xAB,0xAC,0xAD,0xAE,0xAF,0xB0,0xB1,0xB2,
 213:.\pff.c       **** 				0xC0,0xC1,0xC2,0xC3,0xC4,0xC5,0xC6,0xC7,0xC8,0xC9,0xCA,0xCB,0xCC,0xCD,0xCE,0xCF,0xD0,0xD1,0xD2,
 214:.\pff.c       **** 				0x41,0xE1,0x41,0xE3,0xE4,0xE5,0xE6,0x43,0x45,0x45,0x45,0x45,0xEC,0xED,0x49,0x49,0xF0,0xF1,0xF2,
 215:.\pff.c       **** 
 216:.\pff.c       **** #elif _CODE_PAGE == 1257 /* Baltic (Windows) */
 217:.\pff.c       **** #define _EXCVT {0x80,0x81,0x82,0x83,0x84,0x85,0x86,0x87,0x88,0x89,0x8A,0x8B,0x8C,0x8D,0x8E,0x8F,0x9
 218:.\pff.c       **** 				0xA0,0xA1,0xA2,0xA3,0xA4,0xA5,0xA6,0xA7,0xA8,0xA9,0xAA,0xAB,0xAC,0xAD,0xAE,0xAF,0xB0,0xB1,0xB2,
 219:.\pff.c       **** 				0xC0,0xC1,0xC2,0xC3,0xC4,0xC5,0xC6,0xC7,0xC8,0xC9,0xCA,0xCB,0xCC,0xCD,0xCE,0xCF,0xD0,0xD1,0xD2,
 220:.\pff.c       **** 				0xC0,0xC1,0xC2,0xC3,0xC4,0xC5,0xC6,0xC7,0xC8,0xC9,0xCA,0xCB,0xCC,0xCD,0xCE,0xCF,0xD0,0xD1,0xD2,
 221:.\pff.c       **** 
 222:.\pff.c       **** #elif _CODE_PAGE == 1258 /* Vietnam (OEM, Windows) */
 223:.\pff.c       **** #define _EXCVT {0x80,0x81,0x82,0x83,0x84,0x85,0x86,0x87,0x88,0x89,0x8A,0x8B,0x8C,0x8D,0x8E,0x8F,0x9
 224:.\pff.c       **** 				0xA0,0x21,0xA2,0xA3,0xA4,0xA5,0xA6,0xA7,0xA8,0xA9,0xAA,0xAB,0xAC,0xAD,0xAE,0xAF,0xB0,0xB1,0xB2,
 225:.\pff.c       **** 				0xC0,0xC1,0xC2,0xC3,0xC4,0xC5,0xC6,0xC7,0xC8,0xC9,0xCA,0xCB,0xCC,0xCD,0xCE,0xCF,0xD0,0xD1,0xD2,
 226:.\pff.c       **** 				0xC0,0xC1,0xC2,0xC3,0xC4,0xC5,0xC6,0xC7,0xC8,0xC9,0xCA,0xCB,0xEC,0xCD,0xCE,0xCF,0xD0,0xD1,0xF2,
 227:.\pff.c       **** 
 228:.\pff.c       **** #else
 229:.\pff.c       **** #error Unknown code page.
 230:.\pff.c       **** 
 231:.\pff.c       **** #endif
 232:.\pff.c       **** 
 233:.\pff.c       **** 
 234:.\pff.c       **** 
 235:.\pff.c       **** /* Character code support macros */
 236:.\pff.c       **** 
 237:.\pff.c       **** #define IsUpper(c)	(((c)>='A')&&((c)<='Z'))
 238:.\pff.c       **** #define IsLower(c)	(((c)>='a')&&((c)<='z'))
 239:.\pff.c       **** 
 240:.\pff.c       **** #ifndef _EXCVT	/* DBCS configuration */
 241:.\pff.c       **** 
 242:.\pff.c       **** #ifdef _DF2S	/* Two 1st byte areas */
 243:.\pff.c       **** #define IsDBCS1(c)	(((BYTE)(c) >= _DF1S && (BYTE)(c) <= _DF1E) || ((BYTE)(c) >= _DF2S && (BYTE)(c) 
 244:.\pff.c       **** #else			/* One 1st byte area */
 245:.\pff.c       **** #define IsDBCS1(c)	((BYTE)(c) >= _DF1S && (BYTE)(c) <= _DF1E)
 246:.\pff.c       **** #endif
 247:.\pff.c       **** 
 248:.\pff.c       **** #ifdef _DS3S	/* Three 2nd byte areas */
 249:.\pff.c       **** #define IsDBCS2(c)	(((BYTE)(c) >= _DS1S && (BYTE)(c) <= _DS1E) || ((BYTE)(c) >= _DS2S && (BYTE)(c) 
 250:.\pff.c       **** #else			/* Two 2nd byte areas */
 251:.\pff.c       **** #define IsDBCS2(c)	(((BYTE)(c) >= _DS1S && (BYTE)(c) <= _DS1E) || ((BYTE)(c) >= _DS2S && (BYTE)(c) 
 252:.\pff.c       **** #endif
 253:.\pff.c       **** 
 254:.\pff.c       **** #else			/* SBCS configuration */
 255:.\pff.c       **** 
 256:.\pff.c       **** #define IsDBCS1(c)	0
 257:.\pff.c       **** #define IsDBCS2(c)	0
 258:.\pff.c       **** 
 259:.\pff.c       **** #endif /* _EXCVT */
 260:.\pff.c       **** 
 261:.\pff.c       **** 
ARM GAS  C:\Users\Petro\AppData\Local\Temp\cc5IgTu7.s 			page 6


 262:.\pff.c       **** /* FatFs refers the members in the FAT structures with byte offset instead
 263:.\pff.c       **** / of structure member because there are incompatibility of the packing option
 264:.\pff.c       **** / between various compilers. */
 265:.\pff.c       **** 
 266:.\pff.c       **** #define BS_jmpBoot			0
 267:.\pff.c       **** #define BS_OEMName			3
 268:.\pff.c       **** #define BPB_BytsPerSec		11
 269:.\pff.c       **** #define BPB_SecPerClus		13
 270:.\pff.c       **** #define BPB_RsvdSecCnt		14
 271:.\pff.c       **** #define BPB_NumFATs			16
 272:.\pff.c       **** #define BPB_RootEntCnt		17
 273:.\pff.c       **** #define BPB_TotSec16		19
 274:.\pff.c       **** #define BPB_Media			21
 275:.\pff.c       **** #define BPB_FATSz16			22
 276:.\pff.c       **** #define BPB_SecPerTrk		24
 277:.\pff.c       **** #define BPB_NumHeads		26
 278:.\pff.c       **** #define BPB_HiddSec			28
 279:.\pff.c       **** #define BPB_TotSec32		32
 280:.\pff.c       **** #define BS_55AA				510
 281:.\pff.c       **** 
 282:.\pff.c       **** #define BS_DrvNum			36
 283:.\pff.c       **** #define BS_BootSig			38
 284:.\pff.c       **** #define BS_VolID			39
 285:.\pff.c       **** #define BS_VolLab			43
 286:.\pff.c       **** #define BS_FilSysType		54
 287:.\pff.c       **** 
 288:.\pff.c       **** #define BPB_FATSz32			36
 289:.\pff.c       **** #define BPB_ExtFlags		40
 290:.\pff.c       **** #define BPB_FSVer			42
 291:.\pff.c       **** #define BPB_RootClus		44
 292:.\pff.c       **** #define BPB_FSInfo			48
 293:.\pff.c       **** #define BPB_BkBootSec		50
 294:.\pff.c       **** #define BS_DrvNum32			64
 295:.\pff.c       **** #define BS_BootSig32		66
 296:.\pff.c       **** #define BS_VolID32			67
 297:.\pff.c       **** #define BS_VolLab32			71
 298:.\pff.c       **** #define BS_FilSysType32		82
 299:.\pff.c       **** 
 300:.\pff.c       **** #define MBR_Table			446
 301:.\pff.c       **** 
 302:.\pff.c       **** #define	DIR_Name			0
 303:.\pff.c       **** #define	DIR_Attr			11
 304:.\pff.c       **** #define	DIR_NTres			12
 305:.\pff.c       **** #define	DIR_CrtTime			14
 306:.\pff.c       **** #define	DIR_CrtDate			16
 307:.\pff.c       **** #define	DIR_FstClusHI		20
 308:.\pff.c       **** #define	DIR_WrtTime			22
 309:.\pff.c       **** #define	DIR_WrtDate			24
 310:.\pff.c       **** #define	DIR_FstClusLO		26
 311:.\pff.c       **** #define	DIR_FileSize		28
 312:.\pff.c       **** 
 313:.\pff.c       **** 
 314:.\pff.c       **** 
 315:.\pff.c       **** /*--------------------------------------------------------------------------
 316:.\pff.c       **** 
 317:.\pff.c       ****    Private Functions
 318:.\pff.c       **** 
ARM GAS  C:\Users\Petro\AppData\Local\Temp\cc5IgTu7.s 			page 7


 319:.\pff.c       **** ---------------------------------------------------------------------------*/
 320:.\pff.c       **** 
 321:.\pff.c       **** 
 322:.\pff.c       **** static
 323:.\pff.c       **** FATFS *FatFs;	/* Pointer to the file system object (logical drive) */
 324:.\pff.c       **** 
 325:.\pff.c       **** 
 326:.\pff.c       **** /* Fill memory */
 327:.\pff.c       **** static
 328:.\pff.c       **** void mem_set (void* dst, int val, int cnt) {
  25              		.loc 1 328 0
  26              		.cfi_startproc
  27              	.LVL0:
 329:.\pff.c       **** 	char *d = (char*)dst;
 330:.\pff.c       **** 	while (cnt--) *d++ = (char)val;
  28              		.loc 1 330 0
  29 0000 02E0     		b	.L2
  30              	.LVL1:
  31              	.L3:
  32              		.loc 1 330 0 is_stmt 0 discriminator 2
  33 0002 0170     		strb	r1, [r0]
  34 0004 1A1C     		mov	r2, r3
  35 0006 0130     		add	r0, r0, #1
  36              	.LVL2:
  37              	.L2:
  38              		.loc 1 330 0 discriminator 1
  39 0008 531E     		sub	r3, r2, #1
  40              	.LVL3:
  41 000a 002A     		cmp	r2, #0
  42 000c F9D1     		bne	.L3
 331:.\pff.c       **** }
  43              		.loc 1 331 0 is_stmt 1
  44              		@ sp needed
  45 000e 7047     		bx	lr
  46              		.cfi_endproc
  47              	.LFE0:
  48              		.size	mem_set, .-mem_set
  49              		.section	.text.mem_cmp,"ax",%progbits
  50              		.align	2
  51              		.code	16
  52              		.thumb_func
  53              		.type	mem_cmp, %function
  54              	mem_cmp:
  55              	.LFB1:
 332:.\pff.c       **** 
 333:.\pff.c       **** /* Compare memory to memory */
 334:.\pff.c       **** static
 335:.\pff.c       **** int mem_cmp (const void* dst, const void* src, int cnt) {
  56              		.loc 1 335 0
  57              		.cfi_startproc
  58              	.LVL4:
  59 0000 70B5     		push	{r4, r5, r6, lr}
  60              		.cfi_def_cfa_offset 16
  61              		.cfi_offset 4, -16
  62              		.cfi_offset 5, -12
  63              		.cfi_offset 6, -8
  64              		.cfi_offset 14, -4
ARM GAS  C:\Users\Petro\AppData\Local\Temp\cc5IgTu7.s 			page 8


  65 0002 031C     		mov	r3, r0
  66              	.LVL5:
 336:.\pff.c       **** 	const char *d = (const char *)dst, *s = (const char *)src;
 337:.\pff.c       **** 	int r = 0;
  67              		.loc 1 337 0
  68 0004 0020     		mov	r0, #0
  69              	.LVL6:
 338:.\pff.c       **** 	while (cnt-- && (r = *d++ - *s++) == 0) ;
  70              		.loc 1 338 0
  71 0006 01E0     		b	.L6
  72              	.LVL7:
  73              	.L7:
  74 0008 291C     		mov	r1, r5
  75 000a 331C     		mov	r3, r6
  76              	.LVL8:
  77              	.L6:
  78              		.loc 1 338 0 is_stmt 0 discriminator 2
  79 000c 541E     		sub	r4, r2, #1
  80              	.LVL9:
  81 000e 002A     		cmp	r2, #0
  82 0010 07D0     		beq	.L5
  83              		.loc 1 338 0 discriminator 1
  84 0012 5E1C     		add	r6, r3, #1
  85              	.LVL10:
  86 0014 1B78     		ldrb	r3, [r3]
  87 0016 4D1C     		add	r5, r1, #1
  88              	.LVL11:
  89 0018 0878     		ldrb	r0, [r1]
  90              	.LVL12:
  91 001a 181A     		sub	r0, r3, r0
  92              	.LVL13:
  93 001c 221C     		mov	r2, r4
  94 001e 0028     		cmp	r0, #0
  95 0020 F2D0     		beq	.L7
  96              	.LVL14:
  97              	.L5:
 339:.\pff.c       **** 	return r;
 340:.\pff.c       **** }
  98              		.loc 1 340 0 is_stmt 1
  99              		@ sp needed
 100              	.LVL15:
 101 0022 70BD     		pop	{r4, r5, r6, pc}
 102              		.cfi_endproc
 103              	.LFE1:
 104              		.size	mem_cmp, .-mem_cmp
 105              		.section	.text.clust2sect,"ax",%progbits
 106              		.align	2
 107              		.code	16
 108              		.thumb_func
 109              		.type	clust2sect, %function
 110              	clust2sect:
 111              	.LFB3:
 341:.\pff.c       **** 
 342:.\pff.c       **** 
 343:.\pff.c       **** 
 344:.\pff.c       **** /*-----------------------------------------------------------------------*/
 345:.\pff.c       **** /* FAT access - Read value of a FAT entry                                */
ARM GAS  C:\Users\Petro\AppData\Local\Temp\cc5IgTu7.s 			page 9


 346:.\pff.c       **** /*-----------------------------------------------------------------------*/
 347:.\pff.c       **** 
 348:.\pff.c       **** static
 349:.\pff.c       **** CLUST get_fat (	/* 1:IO error, Else:Cluster status */
 350:.\pff.c       **** 	CLUST clst	/* Cluster# to get the link information */
 351:.\pff.c       **** )
 352:.\pff.c       **** {
 353:.\pff.c       **** 	BYTE buf[4];
 354:.\pff.c       **** 	FATFS *fs = FatFs;
 355:.\pff.c       **** 
 356:.\pff.c       **** 	if (clst < 2 || clst >= fs->n_fatent)	/* Range check */
 357:.\pff.c       **** 		return 1;
 358:.\pff.c       **** 
 359:.\pff.c       **** 	switch (fs->fs_type) {
 360:.\pff.c       **** #if _FS_FAT12
 361:.\pff.c       **** 	case FS_FAT12 : {
 362:.\pff.c       **** 		UINT wc, bc, ofs;
 363:.\pff.c       **** 
 364:.\pff.c       **** 		bc = (UINT)clst; bc += bc / 2;
 365:.\pff.c       **** 		ofs = bc % 512; bc /= 512;
 366:.\pff.c       **** 		if (ofs != 511) {
 367:.\pff.c       **** 			if (disk_readp(buf, fs->fatbase + bc, ofs, 2)) break;
 368:.\pff.c       **** 		} else {
 369:.\pff.c       **** 			if (disk_readp(buf, fs->fatbase + bc, 511, 1)) break;
 370:.\pff.c       **** 			if (disk_readp(buf+1, fs->fatbase + bc + 1, 0, 1)) break;
 371:.\pff.c       **** 		}
 372:.\pff.c       **** 		wc = LD_WORD(buf);
 373:.\pff.c       **** 		return (clst & 1) ? (wc >> 4) : (wc & 0xFFF);
 374:.\pff.c       **** 	}
 375:.\pff.c       **** #endif
 376:.\pff.c       **** #if _FS_FAT16
 377:.\pff.c       **** 	case FS_FAT16 :
 378:.\pff.c       **** 		if (disk_readp(buf, fs->fatbase + clst / 256, ((UINT)clst % 256) * 2, 2)) break;
 379:.\pff.c       **** 		return LD_WORD(buf);
 380:.\pff.c       **** #endif
 381:.\pff.c       **** #if _FS_FAT32
 382:.\pff.c       **** 	case FS_FAT32 :
 383:.\pff.c       **** 		if (disk_readp(buf, fs->fatbase + clst / 128, ((UINT)clst % 128) * 4, 4)) break;
 384:.\pff.c       **** 		return LD_DWORD(buf) & 0x0FFFFFFF;
 385:.\pff.c       **** #endif
 386:.\pff.c       **** 	}
 387:.\pff.c       **** 
 388:.\pff.c       **** 	return 1;	/* An error occured at the disk I/O layer */
 389:.\pff.c       **** }
 390:.\pff.c       **** 
 391:.\pff.c       **** 
 392:.\pff.c       **** 
 393:.\pff.c       **** 
 394:.\pff.c       **** /*-----------------------------------------------------------------------*/
 395:.\pff.c       **** /* Get sector# from cluster# / Get cluster field from directory entry    */
 396:.\pff.c       **** /*-----------------------------------------------------------------------*/
 397:.\pff.c       **** 
 398:.\pff.c       **** static
 399:.\pff.c       **** DWORD clust2sect (	/* !=0: Sector number, 0: Failed - invalid cluster# */
 400:.\pff.c       **** 	CLUST clst		/* Cluster# to be converted */
 401:.\pff.c       **** )
 402:.\pff.c       **** {
ARM GAS  C:\Users\Petro\AppData\Local\Temp\cc5IgTu7.s 			page 10


 112              		.loc 1 402 0
 113              		.cfi_startproc
 114              	.LVL16:
 403:.\pff.c       **** 	FATFS *fs = FatFs;
 115              		.loc 1 403 0
 116 0000 064B     		ldr	r3, .L11
 117 0002 1A68     		ldr	r2, [r3]
 118              	.LVL17:
 404:.\pff.c       **** 
 405:.\pff.c       **** 
 406:.\pff.c       **** 	clst -= 2;
 119              		.loc 1 406 0
 120 0004 0238     		sub	r0, r0, #2
 121              	.LVL18:
 407:.\pff.c       **** 	if (clst >= (fs->n_fatent - 2)) return 0;		/* Invalid cluster# */
 122              		.loc 1 407 0
 123 0006 9368     		ldr	r3, [r2, #8]
 124 0008 023B     		sub	r3, r3, #2
 125 000a 8342     		cmp	r3, r0
 126 000c 04D9     		bls	.L10
 408:.\pff.c       **** 	return (DWORD)clst * fs->csize + fs->database;
 127              		.loc 1 408 0
 128 000e 9378     		ldrb	r3, [r2, #2]
 129 0010 5843     		mul	r0, r3
 130              	.LVL19:
 131 0012 5369     		ldr	r3, [r2, #20]
 132 0014 C018     		add	r0, r0, r3
 133 0016 00E0     		b	.L9
 134              	.LVL20:
 135              	.L10:
 407:.\pff.c       **** 	if (clst >= (fs->n_fatent - 2)) return 0;		/* Invalid cluster# */
 136              		.loc 1 407 0
 137 0018 0020     		mov	r0, #0
 138              	.LVL21:
 139              	.L9:
 409:.\pff.c       **** }
 140              		.loc 1 409 0
 141              		@ sp needed
 142 001a 7047     		bx	lr
 143              	.L12:
 144              		.align	2
 145              	.L11:
 146 001c 00000000 		.word	.LANCHOR0
 147              		.cfi_endproc
 148              	.LFE3:
 149              		.size	clust2sect, .-clust2sect
 150              		.section	.text.get_clust,"ax",%progbits
 151              		.align	2
 152              		.code	16
 153              		.thumb_func
 154              		.type	get_clust, %function
 155              	get_clust:
 156              	.LFB4:
 410:.\pff.c       **** 
 411:.\pff.c       **** 
 412:.\pff.c       **** static
 413:.\pff.c       **** CLUST get_clust (
ARM GAS  C:\Users\Petro\AppData\Local\Temp\cc5IgTu7.s 			page 11


 414:.\pff.c       **** 	BYTE* dir		/* Pointer to directory entry */
 415:.\pff.c       **** )
 416:.\pff.c       **** {
 157              		.loc 1 416 0
 158              		.cfi_startproc
 159              	.LVL22:
 417:.\pff.c       **** 	FATFS *fs = FatFs;
 160              		.loc 1 417 0
 161 0000 054B     		ldr	r3, .L16
 162 0002 1B68     		ldr	r3, [r3]
 163              	.LVL23:
 418:.\pff.c       **** 	CLUST clst = 0;
 419:.\pff.c       **** 
 420:.\pff.c       **** 
 421:.\pff.c       **** 	if (_FS_32ONLY || (_FS_FAT32 && fs->fs_type == FS_FAT32)) {
 164              		.loc 1 421 0
 165 0004 1B78     		ldrb	r3, [r3]
 166              	.LVL24:
 167 0006 032B     		cmp	r3, #3
 168 0008 02D1     		bne	.L15
 422:.\pff.c       **** 		clst = LD_WORD(dir+DIR_FstClusHI);
 169              		.loc 1 422 0
 170 000a 838A     		ldrh	r3, [r0, #20]
 171              	.LVL25:
 423:.\pff.c       **** 		clst <<= 16;
 172              		.loc 1 423 0
 173 000c 1B04     		lsl	r3, r3, #16
 174              	.LVL26:
 175 000e 00E0     		b	.L14
 176              	.LVL27:
 177              	.L15:
 418:.\pff.c       **** 	CLUST clst = 0;
 178              		.loc 1 418 0
 179 0010 0023     		mov	r3, #0
 180              	.LVL28:
 181              	.L14:
 424:.\pff.c       **** 	}
 425:.\pff.c       **** 	clst |= LD_WORD(dir+DIR_FstClusLO);
 182              		.loc 1 425 0
 183 0012 408B     		ldrh	r0, [r0, #26]
 184              	.LVL29:
 185 0014 1843     		orr	r0, r3
 186              	.LVL30:
 426:.\pff.c       **** 
 427:.\pff.c       **** 	return clst;
 428:.\pff.c       **** }
 187              		.loc 1 428 0
 188              		@ sp needed
 189 0016 7047     		bx	lr
 190              	.L17:
 191              		.align	2
 192              	.L16:
 193 0018 00000000 		.word	.LANCHOR0
 194              		.cfi_endproc
 195              	.LFE4:
 196              		.size	get_clust, .-get_clust
 197              		.section	.text.dir_rewind,"ax",%progbits
ARM GAS  C:\Users\Petro\AppData\Local\Temp\cc5IgTu7.s 			page 12


 198              		.align	2
 199              		.code	16
 200              		.thumb_func
 201              		.type	dir_rewind, %function
 202              	dir_rewind:
 203              	.LFB5:
 429:.\pff.c       **** 
 430:.\pff.c       **** 
 431:.\pff.c       **** /*-----------------------------------------------------------------------*/
 432:.\pff.c       **** /* Directory handling - Rewind directory index                           */
 433:.\pff.c       **** /*-----------------------------------------------------------------------*/
 434:.\pff.c       **** 
 435:.\pff.c       **** static
 436:.\pff.c       **** FRESULT dir_rewind (
 437:.\pff.c       **** 	DIR *dj			/* Pointer to directory object */
 438:.\pff.c       **** )
 439:.\pff.c       **** {
 204              		.loc 1 439 0
 205              		.cfi_startproc
 206              	.LVL31:
 207 0000 10B5     		push	{r4, lr}
 208              		.cfi_def_cfa_offset 8
 209              		.cfi_offset 4, -8
 210              		.cfi_offset 14, -4
 440:.\pff.c       **** 	CLUST clst;
 441:.\pff.c       **** 	FATFS *fs = FatFs;
 211              		.loc 1 441 0
 212 0002 104B     		ldr	r3, .L25
 213 0004 1A68     		ldr	r2, [r3]
 214              	.LVL32:
 442:.\pff.c       **** 
 443:.\pff.c       **** 
 444:.\pff.c       **** 	dj->index = 0;
 215              		.loc 1 444 0
 216 0006 0023     		mov	r3, #0
 217 0008 0380     		strh	r3, [r0]
 445:.\pff.c       **** 	clst = dj->sclust;
 218              		.loc 1 445 0
 219 000a 8368     		ldr	r3, [r0, #8]
 220              	.LVL33:
 446:.\pff.c       **** 	if (clst == 1 || clst >= fs->n_fatent)	/* Check start cluster range */
 221              		.loc 1 446 0
 222 000c 012B     		cmp	r3, #1
 223 000e 14D0     		beq	.L23
 224              		.loc 1 446 0 is_stmt 0 discriminator 1
 225 0010 9168     		ldr	r1, [r2, #8]
 226 0012 9942     		cmp	r1, r3
 227 0014 13D9     		bls	.L24
 447:.\pff.c       **** 		return FR_DISK_ERR;
 448:.\pff.c       **** 	if (_FS_FAT32 && !clst && (_FS_32ONLY || fs->fs_type == FS_FAT32))	/* Replace cluster# 0 with root
 228              		.loc 1 448 0 is_stmt 1
 229 0016 002B     		cmp	r3, #0
 230 0018 03D1     		bne	.L20
 231              		.loc 1 448 0 is_stmt 0 discriminator 1
 232 001a 1178     		ldrb	r1, [r2]
 233 001c 0329     		cmp	r1, #3
 234 001e 00D1     		bne	.L20
ARM GAS  C:\Users\Petro\AppData\Local\Temp\cc5IgTu7.s 			page 13


 449:.\pff.c       **** 		clst = (CLUST)fs->dirbase;
 235              		.loc 1 449 0 is_stmt 1
 236 0020 1369     		ldr	r3, [r2, #16]
 237              	.LVL34:
 238              	.L20:
 239 0022 041C     		mov	r4, r0
 450:.\pff.c       **** 	dj->clust = clst;						/* Current cluster */
 240              		.loc 1 450 0
 241 0024 C360     		str	r3, [r0, #12]
 451:.\pff.c       **** 	dj->sect = (_FS_32ONLY || clst) ? clust2sect(clst) : fs->dirbase;	/* Current sector */
 242              		.loc 1 451 0
 243 0026 002B     		cmp	r3, #0
 244 0028 03D0     		beq	.L21
 245              		.loc 1 451 0 is_stmt 0 discriminator 1
 246 002a 181C     		mov	r0, r3
 247              	.LVL35:
 248 002c FFF7FEFF 		bl	clust2sect
 249              	.LVL36:
 250 0030 00E0     		b	.L22
 251              	.LVL37:
 252              	.L21:
 253              		.loc 1 451 0 discriminator 2
 254 0032 1069     		ldr	r0, [r2, #16]
 255              	.LVL38:
 256              	.L22:
 257              		.loc 1 451 0 discriminator 4
 258 0034 2061     		str	r0, [r4, #16]
 452:.\pff.c       **** 
 453:.\pff.c       **** 	return FR_OK;	/* Seek succeeded */
 259              		.loc 1 453 0 is_stmt 1 discriminator 4
 260 0036 0020     		mov	r0, #0
 261 0038 02E0     		b	.L19
 262              	.LVL39:
 263              	.L23:
 447:.\pff.c       **** 	if (_FS_FAT32 && !clst && (_FS_32ONLY || fs->fs_type == FS_FAT32))	/* Replace cluster# 0 with root
 264              		.loc 1 447 0
 265 003a 0120     		mov	r0, #1
 266              	.LVL40:
 267 003c 00E0     		b	.L19
 268              	.LVL41:
 269              	.L24:
 270 003e 0120     		mov	r0, #1
 271              	.LVL42:
 272              	.L19:
 454:.\pff.c       **** }
 273              		.loc 1 454 0
 274              		@ sp needed
 275 0040 10BD     		pop	{r4, pc}
 276              	.L26:
 277 0042 C046     		.align	2
 278              	.L25:
 279 0044 00000000 		.word	.LANCHOR0
 280              		.cfi_endproc
 281              	.LFE5:
 282              		.size	dir_rewind, .-dir_rewind
 283              		.section	.text.create_name,"ax",%progbits
 284              		.align	2
ARM GAS  C:\Users\Petro\AppData\Local\Temp\cc5IgTu7.s 			page 14


 285              		.code	16
 286              		.thumb_func
 287              		.type	create_name, %function
 288              	create_name:
 289              	.LFB9:
 455:.\pff.c       **** 
 456:.\pff.c       **** 
 457:.\pff.c       **** 
 458:.\pff.c       **** 
 459:.\pff.c       **** /*-----------------------------------------------------------------------*/
 460:.\pff.c       **** /* Directory handling - Move directory index next                        */
 461:.\pff.c       **** /*-----------------------------------------------------------------------*/
 462:.\pff.c       **** 
 463:.\pff.c       **** static
 464:.\pff.c       **** FRESULT dir_next (	/* FR_OK:Succeeded, FR_NO_FILE:End of table */
 465:.\pff.c       **** 	DIR *dj			/* Pointer to directory object */
 466:.\pff.c       **** )
 467:.\pff.c       **** {
 468:.\pff.c       **** 	CLUST clst;
 469:.\pff.c       **** 	WORD i;
 470:.\pff.c       **** 	FATFS *fs = FatFs;
 471:.\pff.c       **** 
 472:.\pff.c       **** 
 473:.\pff.c       **** 	i = dj->index + 1;
 474:.\pff.c       **** 	if (!i || !dj->sect)	/* Report EOT when index has reached 65535 */
 475:.\pff.c       **** 		return FR_NO_FILE;
 476:.\pff.c       **** 
 477:.\pff.c       **** 	if (!(i % 16)) {		/* Sector changed? */
 478:.\pff.c       **** 		dj->sect++;			/* Next sector */
 479:.\pff.c       **** 
 480:.\pff.c       **** 		if (dj->clust == 0) {	/* Static table */
 481:.\pff.c       **** 			if (i >= fs->n_rootdir)	/* Report EOT when end of table */
 482:.\pff.c       **** 				return FR_NO_FILE;
 483:.\pff.c       **** 		}
 484:.\pff.c       **** 		else {					/* Dynamic table */
 485:.\pff.c       **** 			if (((i / 16) & (fs->csize - 1)) == 0) {	/* Cluster changed? */
 486:.\pff.c       **** 				clst = get_fat(dj->clust);		/* Get next cluster */
 487:.\pff.c       **** 				if (clst <= 1) return FR_DISK_ERR;
 488:.\pff.c       **** 				if (clst >= fs->n_fatent)		/* When it reached end of dynamic table */
 489:.\pff.c       **** 					return FR_NO_FILE;			/* Report EOT */
 490:.\pff.c       **** 				dj->clust = clst;				/* Initialize data for new cluster */
 491:.\pff.c       **** 				dj->sect = clust2sect(clst);
 492:.\pff.c       **** 			}
 493:.\pff.c       **** 		}
 494:.\pff.c       **** 	}
 495:.\pff.c       **** 
 496:.\pff.c       **** 	dj->index = i;
 497:.\pff.c       **** 
 498:.\pff.c       **** 	return FR_OK;
 499:.\pff.c       **** }
 500:.\pff.c       **** 
 501:.\pff.c       **** 
 502:.\pff.c       **** 
 503:.\pff.c       **** 
 504:.\pff.c       **** /*-----------------------------------------------------------------------*/
 505:.\pff.c       **** /* Directory handling - Find an object in the directory                  */
 506:.\pff.c       **** /*-----------------------------------------------------------------------*/
ARM GAS  C:\Users\Petro\AppData\Local\Temp\cc5IgTu7.s 			page 15


 507:.\pff.c       **** 
 508:.\pff.c       **** static
 509:.\pff.c       **** FRESULT dir_find (
 510:.\pff.c       **** 	DIR *dj,		/* Pointer to the directory object linked to the file name */
 511:.\pff.c       **** 	BYTE *dir		/* 32-byte working buffer */
 512:.\pff.c       **** )
 513:.\pff.c       **** {
 514:.\pff.c       **** 	FRESULT res;
 515:.\pff.c       **** 	BYTE c;
 516:.\pff.c       **** 
 517:.\pff.c       **** 
 518:.\pff.c       **** 	res = dir_rewind(dj);			/* Rewind directory object */
 519:.\pff.c       **** 	if (res != FR_OK) return res;
 520:.\pff.c       **** 
 521:.\pff.c       **** 	do {
 522:.\pff.c       **** 		res = disk_readp(dir, dj->sect, (dj->index % 16) * 32, 32)	/* Read an entry */
 523:.\pff.c       **** 			? FR_DISK_ERR : FR_OK;
 524:.\pff.c       **** 		if (res != FR_OK) break;
 525:.\pff.c       **** 		c = dir[DIR_Name];	/* First character */
 526:.\pff.c       **** 		if (c == 0) { res = FR_NO_FILE; break; }	/* Reached to end of table */
 527:.\pff.c       **** 		if (!(dir[DIR_Attr] & AM_VOL) && !mem_cmp(dir, dj->fn, 11)) /* Is it a valid entry? */
 528:.\pff.c       **** 			break;
 529:.\pff.c       **** 		res = dir_next(dj);					/* Next entry */
 530:.\pff.c       **** 	} while (res == FR_OK);
 531:.\pff.c       **** 
 532:.\pff.c       **** 	return res;
 533:.\pff.c       **** }
 534:.\pff.c       **** 
 535:.\pff.c       **** 
 536:.\pff.c       **** 
 537:.\pff.c       **** 
 538:.\pff.c       **** /*-----------------------------------------------------------------------*/
 539:.\pff.c       **** /* Read an object from the directory                                     */
 540:.\pff.c       **** /*-----------------------------------------------------------------------*/
 541:.\pff.c       **** #if _USE_DIR
 542:.\pff.c       **** static
 543:.\pff.c       **** FRESULT dir_read (
 544:.\pff.c       **** 	DIR *dj,		/* Pointer to the directory object to store read object name */
 545:.\pff.c       **** 	BYTE *dir		/* 32-byte working buffer */
 546:.\pff.c       **** )
 547:.\pff.c       **** {
 548:.\pff.c       **** 	FRESULT res;
 549:.\pff.c       **** 	BYTE a, c;
 550:.\pff.c       **** 
 551:.\pff.c       **** 
 552:.\pff.c       **** 	res = FR_NO_FILE;
 553:.\pff.c       **** 	while (dj->sect) {
 554:.\pff.c       **** 		res = disk_readp(dir, dj->sect, (dj->index % 16) * 32, 32)	/* Read an entry */
 555:.\pff.c       **** 			? FR_DISK_ERR : FR_OK;
 556:.\pff.c       **** 		if (res != FR_OK) break;
 557:.\pff.c       **** 		c = dir[DIR_Name];
 558:.\pff.c       **** 		if (c == 0) { res = FR_NO_FILE; break; }	/* Reached to end of table */
 559:.\pff.c       **** 		a = dir[DIR_Attr] & AM_MASK;
 560:.\pff.c       **** 		if (c != 0xE5 && c != '.' && !(a & AM_VOL))	/* Is it a valid entry? */
 561:.\pff.c       **** 			break;
 562:.\pff.c       **** 		res = dir_next(dj);			/* Next entry */
 563:.\pff.c       **** 		if (res != FR_OK) break;
ARM GAS  C:\Users\Petro\AppData\Local\Temp\cc5IgTu7.s 			page 16


 564:.\pff.c       **** 	}
 565:.\pff.c       **** 
 566:.\pff.c       **** 	if (res != FR_OK) dj->sect = 0;
 567:.\pff.c       **** 
 568:.\pff.c       **** 	return res;
 569:.\pff.c       **** }
 570:.\pff.c       **** #endif
 571:.\pff.c       **** 
 572:.\pff.c       **** 
 573:.\pff.c       **** 
 574:.\pff.c       **** /*-----------------------------------------------------------------------*/
 575:.\pff.c       **** /* Pick a segment and create the object name in directory form           */
 576:.\pff.c       **** /*-----------------------------------------------------------------------*/
 577:.\pff.c       **** 
 578:.\pff.c       **** 
 579:.\pff.c       **** static
 580:.\pff.c       **** FRESULT create_name (
 581:.\pff.c       **** 	DIR *dj,			/* Pointer to the directory object */
 582:.\pff.c       **** 	const char **path	/* Pointer to pointer to the segment in the path string */
 583:.\pff.c       **** )
 584:.\pff.c       **** {
 290              		.loc 1 584 0
 291              		.cfi_startproc
 292              	.LVL43:
 293 0000 F8B5     		push	{r3, r4, r5, r6, r7, lr}
 294              		.cfi_def_cfa_offset 24
 295              		.cfi_offset 3, -24
 296              		.cfi_offset 4, -20
 297              		.cfi_offset 5, -16
 298              		.cfi_offset 6, -12
 299              		.cfi_offset 7, -8
 300              		.cfi_offset 14, -4
 301 0002 0D1C     		mov	r5, r1
 585:.\pff.c       **** 	BYTE c, ni, si, i, *sfn;
 586:.\pff.c       **** 	const char *p;
 587:.\pff.c       **** #if _USE_LCC
 588:.\pff.c       **** #ifdef _EXCVT
 589:.\pff.c       **** 	static const BYTE cvt[] = _EXCVT;
 590:.\pff.c       **** #endif
 591:.\pff.c       **** #endif
 592:.\pff.c       **** 
 593:.\pff.c       **** 	/* Create file name in directory form */
 594:.\pff.c       **** 	sfn = dj->fn;
 302              		.loc 1 594 0
 303 0004 4468     		ldr	r4, [r0, #4]
 304              	.LVL44:
 595:.\pff.c       **** 	mem_set(sfn, ' ', 11);
 305              		.loc 1 595 0
 306 0006 201C     		mov	r0, r4
 307              	.LVL45:
 308 0008 2021     		mov	r1, #32
 309              	.LVL46:
 310 000a 0B22     		mov	r2, #11
 311 000c FFF7FEFF 		bl	mem_set
 312              	.LVL47:
 596:.\pff.c       **** 	si = i = 0; ni = 8;
 597:.\pff.c       **** 	p = *path;
ARM GAS  C:\Users\Petro\AppData\Local\Temp\cc5IgTu7.s 			page 17


 313              		.loc 1 597 0
 314 0010 2F68     		ldr	r7, [r5]
 315              	.LVL48:
 596:.\pff.c       **** 	si = i = 0; ni = 8;
 316              		.loc 1 596 0
 317 0012 0020     		mov	r0, #0
 318 0014 0021     		mov	r1, #0
 319 0016 0826     		mov	r6, #8
 320 0018 00E0     		b	.L28
 321              	.LVL49:
 322              	.L32:
 323 001a 111C     		mov	r1, r2
 324              	.LVL50:
 325              	.L28:
 598:.\pff.c       **** 	for (;;) {
 599:.\pff.c       **** 		c = p[si++];
 326              		.loc 1 599 0
 327 001c 4B1C     		add	r3, r1, #1
 328 001e DAB2     		uxtb	r2, r3
 329              	.LVL51:
 330 0020 7B5C     		ldrb	r3, [r7, r1]
 331              	.LVL52:
 600:.\pff.c       **** 		if (c <= ' ' || c == '/') break;	/* Break on end of segment */
 332              		.loc 1 600 0
 333 0022 202B     		cmp	r3, #32
 334 0024 10D9     		bls	.L29
 335              		.loc 1 600 0 is_stmt 0 discriminator 1
 336 0026 2F2B     		cmp	r3, #47
 337 0028 0ED0     		beq	.L29
 601:.\pff.c       **** 		if (c == '.' || i >= ni) {
 338              		.loc 1 601 0 is_stmt 1
 339 002a 2E2B     		cmp	r3, #46
 340 002c 01D0     		beq	.L30
 341              		.loc 1 601 0 is_stmt 0 discriminator 1
 342 002e B042     		cmp	r0, r6
 343 0030 06D3     		bcc	.L31
 344              	.L30:
 602:.\pff.c       **** 			if (ni != 8 || c != '.') break;
 345              		.loc 1 602 0 is_stmt 1
 346 0032 082E     		cmp	r6, #8
 347 0034 08D1     		bne	.L29
 348              		.loc 1 602 0 is_stmt 0 discriminator 1
 349 0036 2E2B     		cmp	r3, #46
 350 0038 06D1     		bne	.L29
 603:.\pff.c       **** 			i = 8; ni = 11;
 351              		.loc 1 603 0 is_stmt 1
 352 003a 0820     		mov	r0, #8
 353              	.LVL53:
 354 003c 0336     		add	r6, r6, #3
 355              	.LVL54:
 356 003e ECE7     		b	.L32
 357              	.LVL55:
 358              	.L31:
 604:.\pff.c       **** 			continue;
 605:.\pff.c       **** 		}
 606:.\pff.c       **** #if _USE_LCC
 607:.\pff.c       **** #ifdef _EXCVT
ARM GAS  C:\Users\Petro\AppData\Local\Temp\cc5IgTu7.s 			page 18


 608:.\pff.c       **** 		if (c >= 0x80)					/* To upper extended char (SBCS) */
 609:.\pff.c       **** 			c = cvt[c - 0x80];
 610:.\pff.c       **** #endif
 611:.\pff.c       **** 		if (IsDBCS1(c) && i < ni - 1) {	/* DBC 1st byte? */
 612:.\pff.c       **** 			BYTE d = p[si++];			/* Get 2nd byte */
 613:.\pff.c       **** 			sfn[i++] = c;
 614:.\pff.c       **** 			sfn[i++] = d;
 615:.\pff.c       **** 		} else
 616:.\pff.c       **** #endif
 617:.\pff.c       **** 		{						/* Single byte code */
 618:.\pff.c       **** 			if (_USE_LCC && IsLower(c)) c -= 0x20;	/* toupper */
 619:.\pff.c       **** 			sfn[i++] = c;
 359              		.loc 1 619 0
 360 0040 411C     		add	r1, r0, #1
 361              	.LVL56:
 362 0042 2354     		strb	r3, [r4, r0]
 363 0044 C8B2     		uxtb	r0, r1
 364 0046 E8E7     		b	.L32
 365              	.LVL57:
 366              	.L29:
 620:.\pff.c       **** 		}
 621:.\pff.c       **** 	}
 622:.\pff.c       **** 	*path = &p[si];						/* Rerurn pointer to the next segment */
 367              		.loc 1 622 0
 368 0048 BA18     		add	r2, r7, r2
 369              	.LVL58:
 370 004a 2A60     		str	r2, [r5]
 623:.\pff.c       **** 
 624:.\pff.c       **** 	sfn[11] = (c <= ' ') ? 1 : 0;		/* Set last segment flag if end of path */
 371              		.loc 1 624 0
 372 004c 0022     		mov	r2, #0
 373 004e 2021     		mov	r1, #32
 374              	.LVL59:
 375 0050 9942     		cmp	r1, r3
 376 0052 5241     		adc	r2, r2, r2
 377 0054 E272     		strb	r2, [r4, #11]
 625:.\pff.c       **** 
 626:.\pff.c       **** 	return FR_OK;
 627:.\pff.c       **** }
 378              		.loc 1 627 0
 379 0056 0020     		mov	r0, #0
 380              	.LVL60:
 381              		@ sp needed
 382              	.LVL61:
 383              	.LVL62:
 384              	.LVL63:
 385              	.LVL64:
 386 0058 F8BD     		pop	{r3, r4, r5, r6, r7, pc}
 387              		.cfi_endproc
 388              	.LFE9:
 389              		.size	create_name, .-create_name
 390 005a C046     		.section	.text.get_fileinfo,"ax",%progbits
 391              		.align	2
 392              		.code	16
 393              		.thumb_func
 394              		.type	get_fileinfo, %function
 395              	get_fileinfo:
ARM GAS  C:\Users\Petro\AppData\Local\Temp\cc5IgTu7.s 			page 19


 396              	.LFB10:
 628:.\pff.c       **** 
 629:.\pff.c       **** 
 630:.\pff.c       **** 
 631:.\pff.c       **** 
 632:.\pff.c       **** /*-----------------------------------------------------------------------*/
 633:.\pff.c       **** /* Get file information from directory entry                             */
 634:.\pff.c       **** /*-----------------------------------------------------------------------*/
 635:.\pff.c       **** #if _USE_DIR
 636:.\pff.c       **** static
 637:.\pff.c       **** void get_fileinfo (		/* No return code */
 638:.\pff.c       **** 	DIR *dj,			/* Pointer to the directory object */
 639:.\pff.c       **** 	BYTE *dir,			/* 32-byte working buffer */
 640:.\pff.c       **** 	FILINFO *fno	 	/* Pointer to store the file information */
 641:.\pff.c       **** )
 642:.\pff.c       **** {
 397              		.loc 1 642 0
 398              		.cfi_startproc
 399              	.LVL65:
 400 0000 10B5     		push	{r4, lr}
 401              		.cfi_def_cfa_offset 8
 402              		.cfi_offset 4, -8
 403              		.cfi_offset 14, -4
 643:.\pff.c       **** 	BYTE i, c;
 644:.\pff.c       **** 	char *p;
 645:.\pff.c       **** 
 646:.\pff.c       **** 
 647:.\pff.c       **** 	p = fno->fname;
 404              		.loc 1 647 0
 405 0002 141C     		mov	r4, r2
 406 0004 0934     		add	r4, r4, #9
 407              	.LVL66:
 648:.\pff.c       **** 	if (dj->sect) {
 408              		.loc 1 648 0
 409 0006 0369     		ldr	r3, [r0, #16]
 410 0008 002B     		cmp	r3, #0
 411 000a 0BD1     		bne	.L42
 412 000c 26E0     		b	.L35
 413              	.LVL67:
 414              	.L38:
 649:.\pff.c       **** 		for (i = 0; i < 8; i++) {	/* Copy file name body */
 650:.\pff.c       **** 			c = dir[i];
 415              		.loc 1 650 0
 416 000e C85C     		ldrb	r0, [r1, r3]
 417              	.LVL68:
 651:.\pff.c       **** 			if (c == ' ') break;
 418              		.loc 1 651 0
 419 0010 2028     		cmp	r0, #32
 420 0012 0AD0     		beq	.L36
 652:.\pff.c       **** 			if (c == 0x05) c = 0xE5;
 421              		.loc 1 652 0
 422 0014 0528     		cmp	r0, #5
 423 0016 00D1     		bne	.L37
 424 0018 E030     		add	r0, r0, #224
 425              	.LVL69:
 426              	.L37:
 653:.\pff.c       **** 			*p++ = c;
ARM GAS  C:\Users\Petro\AppData\Local\Temp\cc5IgTu7.s 			page 20


 427              		.loc 1 653 0 discriminator 2
 428 001a 2070     		strb	r0, [r4]
 649:.\pff.c       **** 			c = dir[i];
 429              		.loc 1 649 0 discriminator 2
 430 001c 0133     		add	r3, r3, #1
 431              	.LVL70:
 432 001e DBB2     		uxtb	r3, r3
 433              	.LVL71:
 434              		.loc 1 653 0 discriminator 2
 435 0020 0134     		add	r4, r4, #1
 436              	.LVL72:
 437 0022 00E0     		b	.L34
 438              	.LVL73:
 439              	.L42:
 440 0024 0023     		mov	r3, #0
 441              	.LVL74:
 442              	.L34:
 649:.\pff.c       **** 			c = dir[i];
 443              		.loc 1 649 0 discriminator 1
 444 0026 072B     		cmp	r3, #7
 445 0028 F1D9     		bls	.L38
 446              	.L36:
 654:.\pff.c       **** 		}
 655:.\pff.c       **** 		if (dir[8] != ' ') {		/* Copy file name extension */
 447              		.loc 1 655 0
 448 002a 0B7A     		ldrb	r3, [r1, #8]
 449              	.LVL75:
 450 002c 202B     		cmp	r3, #32
 451 002e 0DD0     		beq	.L39
 452              	.LVL76:
 656:.\pff.c       **** 			*p++ = '.';
 453              		.loc 1 656 0
 454 0030 2E23     		mov	r3, #46
 455 0032 2370     		strb	r3, [r4]
 456              	.LVL77:
 457 0034 0134     		add	r4, r4, #1
 458              	.LVL78:
 657:.\pff.c       **** 			for (i = 8; i < 11; i++) {
 459              		.loc 1 657 0
 460 0036 263B     		sub	r3, r3, #38
 461 0038 06E0     		b	.L40
 462              	.LVL79:
 463              	.L41:
 658:.\pff.c       **** 				c = dir[i];
 464              		.loc 1 658 0
 465 003a C85C     		ldrb	r0, [r1, r3]
 466              	.LVL80:
 659:.\pff.c       **** 				if (c == ' ') break;
 467              		.loc 1 659 0
 468 003c 2028     		cmp	r0, #32
 469 003e 05D0     		beq	.L39
 470              	.LVL81:
 660:.\pff.c       **** 				*p++ = c;
 471              		.loc 1 660 0 discriminator 2
 472 0040 2070     		strb	r0, [r4]
 657:.\pff.c       **** 				c = dir[i];
 473              		.loc 1 657 0 discriminator 2
ARM GAS  C:\Users\Petro\AppData\Local\Temp\cc5IgTu7.s 			page 21


 474 0042 0133     		add	r3, r3, #1
 475              	.LVL82:
 476 0044 DBB2     		uxtb	r3, r3
 477              	.LVL83:
 478              		.loc 1 660 0 discriminator 2
 479 0046 0134     		add	r4, r4, #1
 480              	.LVL84:
 481              	.L40:
 657:.\pff.c       **** 				c = dir[i];
 482              		.loc 1 657 0 discriminator 1
 483 0048 0A2B     		cmp	r3, #10
 484 004a F6D9     		bls	.L41
 485              	.LVL85:
 486              	.L39:
 661:.\pff.c       **** 			}
 662:.\pff.c       **** 		}
 663:.\pff.c       **** 		fno->fattrib = dir[DIR_Attr];				/* Attribute */
 487              		.loc 1 663 0
 488 004c CB7A     		ldrb	r3, [r1, #11]
 489 004e 1372     		strb	r3, [r2, #8]
 664:.\pff.c       **** 		fno->fsize = LD_DWORD(dir+DIR_FileSize);	/* Size */
 490              		.loc 1 664 0
 491 0050 CB69     		ldr	r3, [r1, #28]
 492 0052 1360     		str	r3, [r2]
 665:.\pff.c       **** 		fno->fdate = LD_WORD(dir+DIR_WrtDate);		/* Date */
 493              		.loc 1 665 0
 494 0054 0B8B     		ldrh	r3, [r1, #24]
 495 0056 9380     		strh	r3, [r2, #4]
 666:.\pff.c       **** 		fno->ftime = LD_WORD(dir+DIR_WrtTime);		/* Time */
 496              		.loc 1 666 0
 497 0058 CB8A     		ldrh	r3, [r1, #22]
 498 005a D380     		strh	r3, [r2, #6]
 499              	.L35:
 667:.\pff.c       **** 	}
 668:.\pff.c       **** 	*p = 0;
 500              		.loc 1 668 0
 501 005c 0023     		mov	r3, #0
 502 005e 2370     		strb	r3, [r4]
 669:.\pff.c       **** }
 503              		.loc 1 669 0
 504              		@ sp needed
 505              	.LVL86:
 506 0060 10BD     		pop	{r4, pc}
 507              		.cfi_endproc
 508              	.LFE10:
 509              		.size	get_fileinfo, .-get_fileinfo
 510 0062 C046     		.section	.text.check_fs,"ax",%progbits
 511              		.align	2
 512              		.code	16
 513              		.thumb_func
 514              		.type	check_fs, %function
 515              	check_fs:
 516              	.LFB12:
 670:.\pff.c       **** #endif /* _USE_DIR */
 671:.\pff.c       **** 
 672:.\pff.c       **** 
 673:.\pff.c       **** 
ARM GAS  C:\Users\Petro\AppData\Local\Temp\cc5IgTu7.s 			page 22


 674:.\pff.c       **** /*-----------------------------------------------------------------------*/
 675:.\pff.c       **** /* Follow a file path                                                    */
 676:.\pff.c       **** /*-----------------------------------------------------------------------*/
 677:.\pff.c       **** 
 678:.\pff.c       **** static
 679:.\pff.c       **** FRESULT follow_path (	/* FR_OK(0): successful, !=0: error code */
 680:.\pff.c       **** 	DIR *dj,			/* Directory object to return last directory and found object */
 681:.\pff.c       **** 	BYTE *dir,			/* 32-byte working buffer */
 682:.\pff.c       **** 	const char *path	/* Full-path string to find a file or directory */
 683:.\pff.c       **** )
 684:.\pff.c       **** {
 685:.\pff.c       **** 	FRESULT res;
 686:.\pff.c       **** 
 687:.\pff.c       **** 
 688:.\pff.c       **** 	while (*path == ' ') path++;		/* Strip leading spaces */
 689:.\pff.c       **** 	if (*path == '/') path++;			/* Strip heading separator if exist */
 690:.\pff.c       **** 	dj->sclust = 0;						/* Set start directory (always root dir) */
 691:.\pff.c       **** 
 692:.\pff.c       **** 	if ((BYTE)*path < ' ') {			/* Null path means the root directory */
 693:.\pff.c       **** 		res = dir_rewind(dj);
 694:.\pff.c       **** 		dir[0] = 0;
 695:.\pff.c       **** 
 696:.\pff.c       **** 	} else {							/* Follow path */
 697:.\pff.c       **** 		for (;;) {
 698:.\pff.c       **** 			res = create_name(dj, &path);	/* Get a segment */
 699:.\pff.c       **** 			if (res != FR_OK) break;
 700:.\pff.c       **** 			res = dir_find(dj, dir);		/* Find it */
 701:.\pff.c       **** 			if (res != FR_OK) break;		/* Could not find the object */
 702:.\pff.c       **** 			if (dj->fn[11]) break;			/* Last segment match. Function completed. */
 703:.\pff.c       **** 			if (!(dir[DIR_Attr] & AM_DIR)) { /* Cannot follow path because it is a file */
 704:.\pff.c       **** 				res = FR_NO_FILE; break;
 705:.\pff.c       **** 			}
 706:.\pff.c       **** 			dj->sclust = get_clust(dir);	/* Follow next */
 707:.\pff.c       **** 		}
 708:.\pff.c       **** 	}
 709:.\pff.c       **** 
 710:.\pff.c       **** 	return res;
 711:.\pff.c       **** }
 712:.\pff.c       **** 
 713:.\pff.c       **** 
 714:.\pff.c       **** 
 715:.\pff.c       **** 
 716:.\pff.c       **** /*-----------------------------------------------------------------------*/
 717:.\pff.c       **** /* Check a sector if it is an FAT boot record                            */
 718:.\pff.c       **** /*-----------------------------------------------------------------------*/
 719:.\pff.c       **** 
 720:.\pff.c       **** static
 721:.\pff.c       **** BYTE check_fs (	/* 0:The FAT boot record, 1:Valid boot record but not an FAT, 2:Not a boot record, 
 722:.\pff.c       **** 	BYTE *buf,	/* Working buffer */
 723:.\pff.c       **** 	DWORD sect	/* Sector# (lba) to check if it is an FAT boot record or not */
 724:.\pff.c       **** )
 725:.\pff.c       **** {
 517              		.loc 1 725 0
 518              		.cfi_startproc
 519              	.LVL87:
 520 0000 38B5     		push	{r3, r4, r5, lr}
 521              		.cfi_def_cfa_offset 16
ARM GAS  C:\Users\Petro\AppData\Local\Temp\cc5IgTu7.s 			page 23


 522              		.cfi_offset 3, -16
 523              		.cfi_offset 4, -12
 524              		.cfi_offset 5, -8
 525              		.cfi_offset 14, -4
 526 0002 041C     		mov	r4, r0
 527 0004 0D1C     		mov	r5, r1
 726:.\pff.c       **** 	if (disk_readp(buf, sect, 510, 2))		/* Read the boot record */
 528              		.loc 1 726 0
 529 0006 FF22     		mov	r2, #255
 530 0008 5200     		lsl	r2, r2, #1
 531 000a 0223     		mov	r3, #2
 532 000c FFF7FEFF 		bl	disk_readp
 533              	.LVL88:
 534 0010 0028     		cmp	r0, #0
 535 0012 1DD1     		bne	.L47
 727:.\pff.c       **** 		return 3;
 728:.\pff.c       **** 	if (LD_WORD(buf) != 0xAA55)				/* Check record signature */
 536              		.loc 1 728 0
 537 0014 2288     		ldrh	r2, [r4]
 538 0016 134B     		ldr	r3, .L52
 539 0018 9A42     		cmp	r2, r3
 540 001a 1BD1     		bne	.L48
 729:.\pff.c       **** 		return 2;
 730:.\pff.c       **** 
 731:.\pff.c       **** 	if (!_FS_32ONLY && !disk_readp(buf, sect, BS_FilSysType, 2) && LD_WORD(buf) == 0x4146)	/* Check FA
 541              		.loc 1 731 0
 542 001c 201C     		mov	r0, r4
 543 001e 291C     		mov	r1, r5
 544 0020 3622     		mov	r2, #54
 545 0022 0223     		mov	r3, #2
 546 0024 FFF7FEFF 		bl	disk_readp
 547              	.LVL89:
 548 0028 0028     		cmp	r0, #0
 549 002a 03D1     		bne	.L46
 550              		.loc 1 731 0 is_stmt 0 discriminator 1
 551 002c 2288     		ldrh	r2, [r4]
 552 002e 0E4B     		ldr	r3, .L52+4
 553 0030 9A42     		cmp	r2, r3
 554 0032 11D0     		beq	.L49
 555              	.L46:
 732:.\pff.c       **** 		return 0;
 733:.\pff.c       **** 	if (_FS_FAT32 && !disk_readp(buf, sect, BS_FilSysType32, 2) && LD_WORD(buf) == 0x4146)	/* Check FA
 556              		.loc 1 733 0 is_stmt 1
 557 0034 201C     		mov	r0, r4
 558 0036 291C     		mov	r1, r5
 559 0038 5222     		mov	r2, #82
 560 003a 0223     		mov	r3, #2
 561 003c FFF7FEFF 		bl	disk_readp
 562              	.LVL90:
 563 0040 0028     		cmp	r0, #0
 564 0042 0BD1     		bne	.L50
 565              		.loc 1 733 0 is_stmt 0 discriminator 1
 566 0044 2288     		ldrh	r2, [r4]
 567 0046 084B     		ldr	r3, .L52+4
 568 0048 9A42     		cmp	r2, r3
 569 004a 09D0     		beq	.L51
 734:.\pff.c       **** 		return 0;
ARM GAS  C:\Users\Petro\AppData\Local\Temp\cc5IgTu7.s 			page 24


 735:.\pff.c       **** 	return 1;
 570              		.loc 1 735 0 is_stmt 1
 571 004c 0130     		add	r0, r0, #1
 572 004e 08E0     		b	.L45
 573              	.L47:
 727:.\pff.c       **** 	if (LD_WORD(buf) != 0xAA55)				/* Check record signature */
 574              		.loc 1 727 0
 575 0050 0320     		mov	r0, #3
 576 0052 06E0     		b	.L45
 577              	.L48:
 729:.\pff.c       **** 
 578              		.loc 1 729 0
 579 0054 0220     		mov	r0, #2
 580 0056 04E0     		b	.L45
 581              	.L49:
 732:.\pff.c       **** 	if (_FS_FAT32 && !disk_readp(buf, sect, BS_FilSysType32, 2) && LD_WORD(buf) == 0x4146)	/* Check FA
 582              		.loc 1 732 0
 583 0058 0020     		mov	r0, #0
 584 005a 02E0     		b	.L45
 585              	.L50:
 586              		.loc 1 735 0
 587 005c 0120     		mov	r0, #1
 588 005e 00E0     		b	.L45
 589              	.L51:
 734:.\pff.c       **** 	return 1;
 590              		.loc 1 734 0
 591 0060 0020     		mov	r0, #0
 592              	.L45:
 736:.\pff.c       **** }
 593              		.loc 1 736 0
 594              		@ sp needed
 595              	.LVL91:
 596              	.LVL92:
 597 0062 38BD     		pop	{r3, r4, r5, pc}
 598              	.L53:
 599              		.align	2
 600              	.L52:
 601 0064 55AA0000 		.word	43605
 602 0068 46410000 		.word	16710
 603              		.cfi_endproc
 604              	.LFE12:
 605              		.size	check_fs, .-check_fs
 606              		.section	.text.get_fat,"ax",%progbits
 607              		.align	2
 608              		.code	16
 609              		.thumb_func
 610              		.type	get_fat, %function
 611              	get_fat:
 612              	.LFB2:
 352:.\pff.c       **** 	BYTE buf[4];
 613              		.loc 1 352 0
 614              		.cfi_startproc
 615              	.LVL93:
 616 0000 70B5     		push	{r4, r5, r6, lr}
 617              		.cfi_def_cfa_offset 16
 618              		.cfi_offset 4, -16
 619              		.cfi_offset 5, -12
ARM GAS  C:\Users\Petro\AppData\Local\Temp\cc5IgTu7.s 			page 25


 620              		.cfi_offset 6, -8
 621              		.cfi_offset 14, -4
 622 0002 82B0     		sub	sp, sp, #8
 623              		.cfi_def_cfa_offset 24
 354:.\pff.c       **** 
 624              		.loc 1 354 0
 625 0004 364B     		ldr	r3, .L72
 626 0006 1D68     		ldr	r5, [r3]
 627              	.LVL94:
 356:.\pff.c       **** 		return 1;
 628              		.loc 1 356 0
 629 0008 0128     		cmp	r0, #1
 630 000a 58D9     		bls	.L63
 356:.\pff.c       **** 		return 1;
 631              		.loc 1 356 0 is_stmt 0 discriminator 1
 632 000c AB68     		ldr	r3, [r5, #8]
 633 000e 8342     		cmp	r3, r0
 634 0010 57D9     		bls	.L64
 635 0012 041C     		mov	r4, r0
 359:.\pff.c       **** #if _FS_FAT12
 636              		.loc 1 359 0 is_stmt 1
 637 0014 2B78     		ldrb	r3, [r5]
 638 0016 022B     		cmp	r3, #2
 639 0018 32D0     		beq	.L56
 640 001a 032B     		cmp	r3, #3
 641 001c 3FD0     		beq	.L57
 642 001e 012B     		cmp	r3, #1
 643 0020 51D1     		bne	.L71
 644              	.LVL95:
 645              	.LBB2:
 364:.\pff.c       **** 		ofs = bc % 512; bc /= 512;
 646              		.loc 1 364 0
 647 0022 4108     		lsr	r1, r0, #1
 648 0024 4118     		add	r1, r0, r1
 649              	.LVL96:
 365:.\pff.c       **** 		if (ofs != 511) {
 650              		.loc 1 365 0
 651 0026 CA05     		lsl	r2, r1, #23
 652 0028 D20D     		lsr	r2, r2, #23
 653              	.LVL97:
 654 002a 4E0A     		lsr	r6, r1, #9
 655              	.LVL98:
 366:.\pff.c       **** 			if (disk_readp(buf, fs->fatbase + bc, ofs, 2)) break;
 656              		.loc 1 366 0
 657 002c 2D4B     		ldr	r3, .L72+4
 658 002e 9A42     		cmp	r2, r3
 659 0030 09D0     		beq	.L59
 367:.\pff.c       **** 		} else {
 660              		.loc 1 367 0
 661 0032 E968     		ldr	r1, [r5, #12]
 662 0034 8919     		add	r1, r1, r6
 663 0036 01A8     		add	r0, sp, #4
 664              	.LVL99:
 665 0038 FE3B     		sub	r3, r3, #254
 666 003a FF3B     		sub	r3, r3, #255
 667 003c FFF7FEFF 		bl	disk_readp
 668              	.LVL100:
ARM GAS  C:\Users\Petro\AppData\Local\Temp\cc5IgTu7.s 			page 26


 669 0040 0028     		cmp	r0, #0
 670 0042 14D0     		beq	.L60
 671              	.LBE2:
 672 0044 41E0     		b	.L66
 673              	.LVL101:
 674              	.L59:
 675              	.LBB3:
 369:.\pff.c       **** 			if (disk_readp(buf+1, fs->fatbase + bc + 1, 0, 1)) break;
 676              		.loc 1 369 0
 677 0046 EB68     		ldr	r3, [r5, #12]
 678 0048 9919     		add	r1, r3, r6
 679 004a 01A8     		add	r0, sp, #4
 680              	.LVL102:
 681 004c 254A     		ldr	r2, .L72+4
 682              	.LVL103:
 683 004e 0123     		mov	r3, #1
 684 0050 FFF7FEFF 		bl	disk_readp
 685              	.LVL104:
 686 0054 0028     		cmp	r0, #0
 687 0056 3AD1     		bne	.L67
 370:.\pff.c       **** 		}
 688              		.loc 1 370 0
 689 0058 E968     		ldr	r1, [r5, #12]
 690 005a 8919     		add	r1, r1, r6
 691 005c 0131     		add	r1, r1, #1
 692 005e 6B46     		mov	r3, sp
 693 0060 581D     		add	r0, r3, #5
 694 0062 0022     		mov	r2, #0
 695 0064 0123     		mov	r3, #1
 696 0066 FFF7FEFF 		bl	disk_readp
 697              	.LVL105:
 698 006a 0028     		cmp	r0, #0
 699 006c 31D1     		bne	.L68
 700              	.L60:
 372:.\pff.c       **** 		return (clst & 1) ? (wc >> 4) : (wc & 0xFFF);
 701              		.loc 1 372 0
 702 006e 01AB     		add	r3, sp, #4
 703 0070 1888     		ldrh	r0, [r3]
 704              	.LVL106:
 373:.\pff.c       **** 	}
 705              		.loc 1 373 0
 706 0072 E307     		lsl	r3, r4, #31
 707 0074 01D5     		bpl	.L61
 373:.\pff.c       **** 	}
 708              		.loc 1 373 0 is_stmt 0 discriminator 1
 709 0076 0009     		lsr	r0, r0, #4
 710              	.LVL107:
 711 0078 30E0     		b	.L55
 712              	.LVL108:
 713              	.L61:
 373:.\pff.c       **** 	}
 714              		.loc 1 373 0 discriminator 2
 715 007a 0005     		lsl	r0, r0, #20
 716              	.LVL109:
 717 007c 000D     		lsr	r0, r0, #20
 718 007e 2DE0     		b	.L55
 719              	.LVL110:
ARM GAS  C:\Users\Petro\AppData\Local\Temp\cc5IgTu7.s 			page 27


 720              	.L56:
 721              	.LBE3:
 378:.\pff.c       **** 		return LD_WORD(buf);
 722              		.loc 1 378 0 is_stmt 1
 723 0080 E968     		ldr	r1, [r5, #12]
 724 0082 030A     		lsr	r3, r0, #8
 725 0084 FF20     		mov	r0, #255
 726              	.LVL111:
 727 0086 2040     		and	r0, r4
 728 0088 C918     		add	r1, r1, r3
 729 008a 4200     		lsl	r2, r0, #1
 730 008c 01A8     		add	r0, sp, #4
 731 008e 0223     		mov	r3, #2
 732 0090 FFF7FEFF 		bl	disk_readp
 733              	.LVL112:
 734 0094 0028     		cmp	r0, #0
 735 0096 1ED1     		bne	.L69
 379:.\pff.c       **** #endif
 736              		.loc 1 379 0
 737 0098 01AB     		add	r3, sp, #4
 738 009a 1888     		ldrh	r0, [r3]
 739 009c 1EE0     		b	.L55
 740              	.LVL113:
 741              	.L57:
 383:.\pff.c       **** 		return LD_DWORD(buf) & 0x0FFFFFFF;
 742              		.loc 1 383 0
 743 009e E968     		ldr	r1, [r5, #12]
 744 00a0 C309     		lsr	r3, r0, #7
 745 00a2 7F20     		mov	r0, #127
 746              	.LVL114:
 747 00a4 2040     		and	r0, r4
 748 00a6 C918     		add	r1, r1, r3
 749 00a8 8200     		lsl	r2, r0, #2
 750 00aa 01A8     		add	r0, sp, #4
 751 00ac 0423     		mov	r3, #4
 752 00ae FFF7FEFF 		bl	disk_readp
 753              	.LVL115:
 754 00b2 0028     		cmp	r0, #0
 755 00b4 11D1     		bne	.L70
 384:.\pff.c       **** #endif
 756              		.loc 1 384 0
 757 00b6 019B     		ldr	r3, [sp, #4]
 758 00b8 1801     		lsl	r0, r3, #4
 759 00ba 0009     		lsr	r0, r0, #4
 760 00bc 0EE0     		b	.L55
 761              	.LVL116:
 762              	.L63:
 357:.\pff.c       **** 
 763              		.loc 1 357 0
 764 00be 0120     		mov	r0, #1
 765              	.LVL117:
 766 00c0 0CE0     		b	.L55
 767              	.LVL118:
 768              	.L64:
 769 00c2 0120     		mov	r0, #1
 770              	.LVL119:
 771 00c4 0AE0     		b	.L55
ARM GAS  C:\Users\Petro\AppData\Local\Temp\cc5IgTu7.s 			page 28


 772              	.LVL120:
 773              	.L71:
 388:.\pff.c       **** }
 774              		.loc 1 388 0
 775 00c6 0120     		mov	r0, #1
 776              	.LVL121:
 777 00c8 08E0     		b	.L55
 778              	.LVL122:
 779              	.L66:
 780 00ca 0120     		mov	r0, #1
 781 00cc 06E0     		b	.L55
 782              	.L67:
 783 00ce 0120     		mov	r0, #1
 784 00d0 04E0     		b	.L55
 785              	.L68:
 786 00d2 0120     		mov	r0, #1
 787 00d4 02E0     		b	.L55
 788              	.LVL123:
 789              	.L69:
 790 00d6 0120     		mov	r0, #1
 791 00d8 00E0     		b	.L55
 792              	.L70:
 793 00da 0120     		mov	r0, #1
 794              	.LVL124:
 795              	.L55:
 389:.\pff.c       **** 
 796              		.loc 1 389 0
 797 00dc 02B0     		add	sp, sp, #8
 798              		@ sp needed
 799              	.LVL125:
 800 00de 70BD     		pop	{r4, r5, r6, pc}
 801              	.L73:
 802              		.align	2
 803              	.L72:
 804 00e0 00000000 		.word	.LANCHOR0
 805 00e4 FF010000 		.word	511
 806              		.cfi_endproc
 807              	.LFE2:
 808              		.size	get_fat, .-get_fat
 809              		.section	.text.dir_next,"ax",%progbits
 810              		.align	2
 811              		.code	16
 812              		.thumb_func
 813              		.type	dir_next, %function
 814              	dir_next:
 815              	.LFB6:
 467:.\pff.c       **** 	CLUST clst;
 816              		.loc 1 467 0
 817              		.cfi_startproc
 818              	.LVL126:
 819 0000 70B5     		push	{r4, r5, r6, lr}
 820              		.cfi_def_cfa_offset 16
 821              		.cfi_offset 4, -16
 822              		.cfi_offset 5, -12
 823              		.cfi_offset 6, -8
 824              		.cfi_offset 14, -4
 470:.\pff.c       **** 
ARM GAS  C:\Users\Petro\AppData\Local\Temp\cc5IgTu7.s 			page 29


 825              		.loc 1 470 0
 826 0002 194B     		ldr	r3, .L83
 827 0004 1E68     		ldr	r6, [r3]
 828              	.LVL127:
 473:.\pff.c       **** 	if (!i || !dj->sect)	/* Report EOT when index has reached 65535 */
 829              		.loc 1 473 0
 830 0006 0488     		ldrh	r4, [r0]
 831 0008 0134     		add	r4, r4, #1
 832 000a A4B2     		uxth	r4, r4
 833              	.LVL128:
 474:.\pff.c       **** 		return FR_NO_FILE;
 834              		.loc 1 474 0
 835 000c 002C     		cmp	r4, #0
 836 000e 21D0     		beq	.L78
 474:.\pff.c       **** 		return FR_NO_FILE;
 837              		.loc 1 474 0 is_stmt 0 discriminator 1
 838 0010 0369     		ldr	r3, [r0, #16]
 839 0012 002B     		cmp	r3, #0
 840 0014 20D0     		beq	.L79
 841 0016 051C     		mov	r5, r0
 477:.\pff.c       **** 		dj->sect++;			/* Next sector */
 842              		.loc 1 477 0 is_stmt 1
 843 0018 2207     		lsl	r2, r4, #28
 844 001a 18D1     		bne	.L76
 478:.\pff.c       **** 
 845              		.loc 1 478 0
 846 001c 0133     		add	r3, r3, #1
 847 001e 0361     		str	r3, [r0, #16]
 480:.\pff.c       **** 			if (i >= fs->n_rootdir)	/* Report EOT when end of table */
 848              		.loc 1 480 0
 849 0020 C068     		ldr	r0, [r0, #12]
 850              	.LVL129:
 851 0022 0028     		cmp	r0, #0
 852 0024 03D1     		bne	.L77
 481:.\pff.c       **** 				return FR_NO_FILE;
 853              		.loc 1 481 0
 854 0026 B388     		ldrh	r3, [r6, #4]
 855 0028 A342     		cmp	r3, r4
 856 002a 17D9     		bls	.L80
 857 002c 0FE0     		b	.L76
 858              	.L77:
 485:.\pff.c       **** 				clst = get_fat(dj->clust);		/* Get next cluster */
 859              		.loc 1 485 0
 860 002e 2309     		lsr	r3, r4, #4
 861 0030 B278     		ldrb	r2, [r6, #2]
 862 0032 013A     		sub	r2, r2, #1
 863 0034 1A42     		tst	r2, r3
 864 0036 0AD1     		bne	.L76
 486:.\pff.c       **** 				if (clst <= 1) return FR_DISK_ERR;
 865              		.loc 1 486 0
 866 0038 FFF7FEFF 		bl	get_fat
 867              	.LVL130:
 487:.\pff.c       **** 				if (clst >= fs->n_fatent)		/* When it reached end of dynamic table */
 868              		.loc 1 487 0
 869 003c 0128     		cmp	r0, #1
 870 003e 0FD9     		bls	.L81
 488:.\pff.c       **** 					return FR_NO_FILE;			/* Report EOT */
ARM GAS  C:\Users\Petro\AppData\Local\Temp\cc5IgTu7.s 			page 30


 871              		.loc 1 488 0
 872 0040 B368     		ldr	r3, [r6, #8]
 873 0042 8342     		cmp	r3, r0
 874 0044 0ED9     		bls	.L82
 490:.\pff.c       **** 				dj->sect = clust2sect(clst);
 875              		.loc 1 490 0
 876 0046 E860     		str	r0, [r5, #12]
 491:.\pff.c       **** 			}
 877              		.loc 1 491 0
 878 0048 FFF7FEFF 		bl	clust2sect
 879              	.LVL131:
 880 004c 2861     		str	r0, [r5, #16]
 881              	.L76:
 496:.\pff.c       **** 
 882              		.loc 1 496 0
 883 004e 2C80     		strh	r4, [r5]
 498:.\pff.c       **** }
 884              		.loc 1 498 0
 885 0050 0020     		mov	r0, #0
 886 0052 08E0     		b	.L75
 887              	.LVL132:
 888              	.L78:
 475:.\pff.c       **** 
 889              		.loc 1 475 0
 890 0054 0320     		mov	r0, #3
 891              	.LVL133:
 892 0056 06E0     		b	.L75
 893              	.LVL134:
 894              	.L79:
 895 0058 0320     		mov	r0, #3
 896              	.LVL135:
 897 005a 04E0     		b	.L75
 898              	.LVL136:
 899              	.L80:
 482:.\pff.c       **** 		}
 900              		.loc 1 482 0
 901 005c 0320     		mov	r0, #3
 902 005e 02E0     		b	.L75
 903              	.LVL137:
 904              	.L81:
 487:.\pff.c       **** 				if (clst >= fs->n_fatent)		/* When it reached end of dynamic table */
 905              		.loc 1 487 0
 906 0060 0120     		mov	r0, #1
 907              	.LVL138:
 908 0062 00E0     		b	.L75
 909              	.LVL139:
 910              	.L82:
 489:.\pff.c       **** 				dj->clust = clst;				/* Initialize data for new cluster */
 911              		.loc 1 489 0
 912 0064 0320     		mov	r0, #3
 913              	.LVL140:
 914              	.L75:
 499:.\pff.c       **** 
 915              		.loc 1 499 0
 916              		@ sp needed
 917              	.LVL141:
 918              	.LVL142:
ARM GAS  C:\Users\Petro\AppData\Local\Temp\cc5IgTu7.s 			page 31


 919 0066 70BD     		pop	{r4, r5, r6, pc}
 920              	.L84:
 921              		.align	2
 922              	.L83:
 923 0068 00000000 		.word	.LANCHOR0
 924              		.cfi_endproc
 925              	.LFE6:
 926              		.size	dir_next, .-dir_next
 927              		.section	.text.dir_find,"ax",%progbits
 928              		.align	2
 929              		.code	16
 930              		.thumb_func
 931              		.type	dir_find, %function
 932              	dir_find:
 933              	.LFB7:
 513:.\pff.c       **** 	FRESULT res;
 934              		.loc 1 513 0
 935              		.cfi_startproc
 936              	.LVL143:
 937 0000 70B5     		push	{r4, r5, r6, lr}
 938              		.cfi_def_cfa_offset 16
 939              		.cfi_offset 4, -16
 940              		.cfi_offset 5, -12
 941              		.cfi_offset 6, -8
 942              		.cfi_offset 14, -4
 943 0002 051C     		mov	r5, r0
 944 0004 0E1C     		mov	r6, r1
 518:.\pff.c       **** 	if (res != FR_OK) return res;
 945              		.loc 1 518 0
 946 0006 FFF7FEFF 		bl	dir_rewind
 947              	.LVL144:
 519:.\pff.c       **** 
 948              		.loc 1 519 0
 949 000a 0028     		cmp	r0, #0
 950 000c 22D1     		bne	.L86
 951              	.LVL145:
 952              	.L89:
 522:.\pff.c       **** 			? FR_DISK_ERR : FR_OK;
 953              		.loc 1 522 0
 954 000e 2B88     		ldrh	r3, [r5]
 955 0010 0F22     		mov	r2, #15
 956 0012 1A40     		and	r2, r3
 957 0014 5201     		lsl	r2, r2, #5
 958 0016 301C     		mov	r0, r6
 959 0018 2969     		ldr	r1, [r5, #16]
 960 001a 2023     		mov	r3, #32
 961 001c FFF7FEFF 		bl	disk_readp
 962              	.LVL146:
 523:.\pff.c       **** 		if (res != FR_OK) break;
 963              		.loc 1 523 0
 964 0020 441E     		sub	r4, r0, #1
 965 0022 A041     		sbc	r0, r0, r4
 966 0024 C4B2     		uxtb	r4, r0
 967              	.LVL147:
 524:.\pff.c       **** 		c = dir[DIR_Name];	/* First character */
 968              		.loc 1 524 0
 969 0026 002C     		cmp	r4, #0
ARM GAS  C:\Users\Petro\AppData\Local\Temp\cc5IgTu7.s 			page 32


 970 0028 13D1     		bne	.L87
 525:.\pff.c       **** 		if (c == 0) { res = FR_NO_FILE; break; }	/* Reached to end of table */
 971              		.loc 1 525 0
 972 002a 3378     		ldrb	r3, [r6]
 973              	.LVL148:
 526:.\pff.c       **** 		if (!(dir[DIR_Attr] & AM_VOL) && !mem_cmp(dir, dj->fn, 11)) /* Is it a valid entry? */
 974              		.loc 1 526 0
 975 002c 002B     		cmp	r3, #0
 976 002e 0FD0     		beq	.L91
 527:.\pff.c       **** 			break;
 977              		.loc 1 527 0
 978 0030 F37A     		ldrb	r3, [r6, #11]
 979              	.LVL149:
 980 0032 1B07     		lsl	r3, r3, #28
 981 0034 06D4     		bmi	.L88
 527:.\pff.c       **** 			break;
 982              		.loc 1 527 0 is_stmt 0 discriminator 1
 983 0036 301C     		mov	r0, r6
 984 0038 6968     		ldr	r1, [r5, #4]
 985 003a 0B22     		mov	r2, #11
 986 003c FFF7FEFF 		bl	mem_cmp
 987              	.LVL150:
 988 0040 0028     		cmp	r0, #0
 989 0042 06D0     		beq	.L87
 990              	.L88:
 529:.\pff.c       **** 	} while (res == FR_OK);
 991              		.loc 1 529 0 is_stmt 1
 992 0044 281C     		mov	r0, r5
 993 0046 FFF7FEFF 		bl	dir_next
 994              	.LVL151:
 995 004a 041E     		sub	r4, r0, #0
 996              	.LVL152:
 530:.\pff.c       **** 
 997              		.loc 1 530 0
 998 004c DFD0     		beq	.L89
 999 004e 00E0     		b	.L87
 1000              	.LVL153:
 1001              	.L91:
 526:.\pff.c       **** 		if (!(dir[DIR_Attr] & AM_VOL) && !mem_cmp(dir, dj->fn, 11)) /* Is it a valid entry? */
 1002              		.loc 1 526 0
 1003 0050 0324     		mov	r4, #3
 1004              	.LVL154:
 1005              	.L87:
 532:.\pff.c       **** }
 1006              		.loc 1 532 0
 1007 0052 201C     		mov	r0, r4
 1008              	.LVL155:
 1009              	.L86:
 533:.\pff.c       **** 
 1010              		.loc 1 533 0
 1011              		@ sp needed
 1012              	.LVL156:
 1013              	.LVL157:
 1014 0054 70BD     		pop	{r4, r5, r6, pc}
 1015              		.cfi_endproc
 1016              	.LFE7:
 1017              		.size	dir_find, .-dir_find
ARM GAS  C:\Users\Petro\AppData\Local\Temp\cc5IgTu7.s 			page 33


 1018 0056 C046     		.section	.text.follow_path,"ax",%progbits
 1019              		.align	2
 1020              		.code	16
 1021              		.thumb_func
 1022              		.type	follow_path, %function
 1023              	follow_path:
 1024              	.LFB11:
 684:.\pff.c       **** 	FRESULT res;
 1025              		.loc 1 684 0
 1026              		.cfi_startproc
 1027              	.LVL158:
 1028 0000 30B5     		push	{r4, r5, lr}
 1029              		.cfi_def_cfa_offset 12
 1030              		.cfi_offset 4, -12
 1031              		.cfi_offset 5, -8
 1032              		.cfi_offset 14, -4
 1033 0002 83B0     		sub	sp, sp, #12
 1034              		.cfi_def_cfa_offset 24
 1035 0004 051C     		mov	r5, r0
 1036 0006 0C1C     		mov	r4, r1
 1037 0008 0192     		str	r2, [sp, #4]
 688:.\pff.c       **** 	if (*path == '/') path++;			/* Strip heading separator if exist */
 1038              		.loc 1 688 0
 1039 000a 01E0     		b	.L93
 1040              	.LVL159:
 1041              	.L94:
 688:.\pff.c       **** 	if (*path == '/') path++;			/* Strip heading separator if exist */
 1042              		.loc 1 688 0 is_stmt 0 discriminator 2
 1043 000c 0133     		add	r3, r3, #1
 1044 000e 0193     		str	r3, [sp, #4]
 1045              	.L93:
 688:.\pff.c       **** 	if (*path == '/') path++;			/* Strip heading separator if exist */
 1046              		.loc 1 688 0 discriminator 1
 1047 0010 019B     		ldr	r3, [sp, #4]
 1048 0012 1A78     		ldrb	r2, [r3]
 1049 0014 202A     		cmp	r2, #32
 1050 0016 F9D0     		beq	.L94
 689:.\pff.c       **** 	dj->sclust = 0;						/* Set start directory (always root dir) */
 1051              		.loc 1 689 0 is_stmt 1
 1052 0018 2F2A     		cmp	r2, #47
 1053 001a 01D1     		bne	.L95
 689:.\pff.c       **** 	dj->sclust = 0;						/* Set start directory (always root dir) */
 1054              		.loc 1 689 0 is_stmt 0 discriminator 1
 1055 001c 0133     		add	r3, r3, #1
 1056 001e 0193     		str	r3, [sp, #4]
 1057              	.L95:
 690:.\pff.c       **** 
 1058              		.loc 1 690 0 is_stmt 1
 1059 0020 0023     		mov	r3, #0
 1060 0022 AB60     		str	r3, [r5, #8]
 692:.\pff.c       **** 		res = dir_rewind(dj);
 1061              		.loc 1 692 0
 1062 0024 019B     		ldr	r3, [sp, #4]
 1063 0026 1B78     		ldrb	r3, [r3]
 1064 0028 1F2B     		cmp	r3, #31
 1065 002a 05D8     		bhi	.L96
 693:.\pff.c       **** 		dir[0] = 0;
ARM GAS  C:\Users\Petro\AppData\Local\Temp\cc5IgTu7.s 			page 34


 1066              		.loc 1 693 0
 1067 002c 281C     		mov	r0, r5
 1068              	.LVL160:
 1069 002e FFF7FEFF 		bl	dir_rewind
 1070              	.LVL161:
 694:.\pff.c       **** 
 1071              		.loc 1 694 0
 1072 0032 0023     		mov	r3, #0
 1073 0034 2370     		strb	r3, [r4]
 1074 0036 18E0     		b	.L97
 1075              	.LVL162:
 1076              	.L96:
 698:.\pff.c       **** 			if (res != FR_OK) break;
 1077              		.loc 1 698 0
 1078 0038 281C     		mov	r0, r5
 1079 003a 01A9     		add	r1, sp, #4
 1080 003c FFF7FEFF 		bl	create_name
 1081              	.LVL163:
 699:.\pff.c       **** 			res = dir_find(dj, dir);		/* Find it */
 1082              		.loc 1 699 0
 1083 0040 0028     		cmp	r0, #0
 1084 0042 12D1     		bne	.L97
 700:.\pff.c       **** 			if (res != FR_OK) break;		/* Could not find the object */
 1085              		.loc 1 700 0
 1086 0044 281C     		mov	r0, r5
 1087              	.LVL164:
 1088 0046 211C     		mov	r1, r4
 1089 0048 FFF7FEFF 		bl	dir_find
 1090              	.LVL165:
 701:.\pff.c       **** 			if (dj->fn[11]) break;			/* Last segment match. Function completed. */
 1091              		.loc 1 701 0
 1092 004c 0028     		cmp	r0, #0
 1093 004e 0CD1     		bne	.L97
 702:.\pff.c       **** 			if (!(dir[DIR_Attr] & AM_DIR)) { /* Cannot follow path because it is a file */
 1094              		.loc 1 702 0
 1095 0050 6B68     		ldr	r3, [r5, #4]
 1096 0052 DB7A     		ldrb	r3, [r3, #11]
 1097 0054 002B     		cmp	r3, #0
 1098 0056 08D1     		bne	.L97
 703:.\pff.c       **** 				res = FR_NO_FILE; break;
 1099              		.loc 1 703 0
 1100 0058 E37A     		ldrb	r3, [r4, #11]
 1101 005a DB06     		lsl	r3, r3, #27
 1102 005c 04D5     		bpl	.L98
 706:.\pff.c       **** 		}
 1103              		.loc 1 706 0
 1104 005e 201C     		mov	r0, r4
 1105              	.LVL166:
 1106 0060 FFF7FEFF 		bl	get_clust
 1107              	.LVL167:
 1108 0064 A860     		str	r0, [r5, #8]
 707:.\pff.c       **** 	}
 1109              		.loc 1 707 0
 1110 0066 E7E7     		b	.L96
 1111              	.LVL168:
 1112              	.L98:
 704:.\pff.c       **** 			}
ARM GAS  C:\Users\Petro\AppData\Local\Temp\cc5IgTu7.s 			page 35


 1113              		.loc 1 704 0
 1114 0068 0320     		mov	r0, #3
 1115              	.LVL169:
 1116              	.L97:
 711:.\pff.c       **** 
 1117              		.loc 1 711 0
 1118 006a 03B0     		add	sp, sp, #12
 1119              		@ sp needed
 1120              	.LVL170:
 1121              	.LVL171:
 1122 006c 30BD     		pop	{r4, r5, pc}
 1123              		.cfi_endproc
 1124              	.LFE11:
 1125              		.size	follow_path, .-follow_path
 1126 006e C046     		.section	.text.dir_read,"ax",%progbits
 1127              		.align	2
 1128              		.code	16
 1129              		.thumb_func
 1130              		.type	dir_read, %function
 1131              	dir_read:
 1132              	.LFB8:
 547:.\pff.c       **** 	FRESULT res;
 1133              		.loc 1 547 0
 1134              		.cfi_startproc
 1135              	.LVL172:
 1136 0000 38B5     		push	{r3, r4, r5, lr}
 1137              		.cfi_def_cfa_offset 16
 1138              		.cfi_offset 3, -16
 1139              		.cfi_offset 4, -12
 1140              		.cfi_offset 5, -8
 1141              		.cfi_offset 14, -4
 1142 0002 041C     		mov	r4, r0
 1143 0004 0D1C     		mov	r5, r1
 1144              	.LVL173:
 552:.\pff.c       **** 	while (dj->sect) {
 1145              		.loc 1 552 0
 1146 0006 0320     		mov	r0, #3
 1147              	.LVL174:
 553:.\pff.c       **** 		res = disk_readp(dir, dj->sect, (dj->index % 16) * 32, 32)	/* Read an entry */
 1148              		.loc 1 553 0
 1149 0008 1BE0     		b	.L100
 1150              	.LVL175:
 1151              	.L103:
 554:.\pff.c       **** 			? FR_DISK_ERR : FR_OK;
 1152              		.loc 1 554 0
 1153 000a 2388     		ldrh	r3, [r4]
 1154 000c 0F22     		mov	r2, #15
 1155 000e 1A40     		and	r2, r3
 1156 0010 5201     		lsl	r2, r2, #5
 1157 0012 281C     		mov	r0, r5
 1158              	.LVL176:
 1159 0014 2023     		mov	r3, #32
 1160 0016 FFF7FEFF 		bl	disk_readp
 1161              	.LVL177:
 555:.\pff.c       **** 		if (res != FR_OK) break;
 1162              		.loc 1 555 0
 1163 001a 431E     		sub	r3, r0, #1
ARM GAS  C:\Users\Petro\AppData\Local\Temp\cc5IgTu7.s 			page 36


 1164 001c 9841     		sbc	r0, r0, r3
 1165 001e C0B2     		uxtb	r0, r0
 1166              	.LVL178:
 556:.\pff.c       **** 		c = dir[DIR_Name];
 1167              		.loc 1 556 0
 1168 0020 0028     		cmp	r0, #0
 1169 0022 13D1     		bne	.L101
 557:.\pff.c       **** 		if (c == 0) { res = FR_NO_FILE; break; }	/* Reached to end of table */
 1170              		.loc 1 557 0
 1171 0024 2B78     		ldrb	r3, [r5]
 1172              	.LVL179:
 558:.\pff.c       **** 		a = dir[DIR_Attr] & AM_MASK;
 1173              		.loc 1 558 0
 1174 0026 002B     		cmp	r3, #0
 1175 0028 0FD0     		beq	.L105
 559:.\pff.c       **** 		if (c != 0xE5 && c != '.' && !(a & AM_VOL))	/* Is it a valid entry? */
 1176              		.loc 1 559 0
 1177 002a EA7A     		ldrb	r2, [r5, #11]
 1178              	.LVL180:
 560:.\pff.c       **** 			break;
 1179              		.loc 1 560 0
 1180 002c E52B     		cmp	r3, #229
 1181 002e 03D0     		beq	.L102
 560:.\pff.c       **** 			break;
 1182              		.loc 1 560 0 is_stmt 0 discriminator 1
 1183 0030 2E2B     		cmp	r3, #46
 1184 0032 01D0     		beq	.L102
 560:.\pff.c       **** 			break;
 1185              		.loc 1 560 0 discriminator 2
 1186 0034 1307     		lsl	r3, r2, #28
 1187 0036 09D5     		bpl	.L101
 1188              	.LVL181:
 1189              	.L102:
 562:.\pff.c       **** 		if (res != FR_OK) break;
 1190              		.loc 1 562 0 is_stmt 1
 1191 0038 201C     		mov	r0, r4
 1192              	.LVL182:
 1193 003a FFF7FEFF 		bl	dir_next
 1194              	.LVL183:
 563:.\pff.c       **** 	}
 1195              		.loc 1 563 0
 1196 003e 0028     		cmp	r0, #0
 1197 0040 04D1     		bne	.L101
 1198              	.LVL184:
 1199              	.L100:
 553:.\pff.c       **** 		res = disk_readp(dir, dj->sect, (dj->index % 16) * 32, 32)	/* Read an entry */
 1200              		.loc 1 553 0
 1201 0042 2169     		ldr	r1, [r4, #16]
 1202 0044 0029     		cmp	r1, #0
 1203 0046 E0D1     		bne	.L103
 1204 0048 00E0     		b	.L101
 1205              	.LVL185:
 1206              	.L105:
 558:.\pff.c       **** 		a = dir[DIR_Attr] & AM_MASK;
 1207              		.loc 1 558 0
 1208 004a 0320     		mov	r0, #3
 1209              	.LVL186:
ARM GAS  C:\Users\Petro\AppData\Local\Temp\cc5IgTu7.s 			page 37


 1210              	.L101:
 566:.\pff.c       **** 
 1211              		.loc 1 566 0
 1212 004c 0028     		cmp	r0, #0
 1213 004e 01D0     		beq	.L104
 566:.\pff.c       **** 
 1214              		.loc 1 566 0 is_stmt 0 discriminator 1
 1215 0050 0023     		mov	r3, #0
 1216 0052 2361     		str	r3, [r4, #16]
 1217              	.L104:
 569:.\pff.c       **** #endif
 1218              		.loc 1 569 0 is_stmt 1
 1219              		@ sp needed
 1220              	.LVL187:
 1221              	.LVL188:
 1222 0054 38BD     		pop	{r3, r4, r5, pc}
 1223              		.cfi_endproc
 1224              	.LFE8:
 1225              		.size	dir_read, .-dir_read
 1226              		.global	__aeabi_uidiv
 1227 0056 C046     		.section	.text.pf_mount,"ax",%progbits
 1228              		.align	2
 1229              		.global	pf_mount
 1230              		.code	16
 1231              		.thumb_func
 1232              		.type	pf_mount, %function
 1233              	pf_mount:
 1234              	.LFB13:
 737:.\pff.c       **** 
 738:.\pff.c       **** 
 739:.\pff.c       **** 
 740:.\pff.c       **** 
 741:.\pff.c       **** /*--------------------------------------------------------------------------
 742:.\pff.c       **** 
 743:.\pff.c       ****    Public Functions
 744:.\pff.c       **** 
 745:.\pff.c       **** --------------------------------------------------------------------------*/
 746:.\pff.c       **** 
 747:.\pff.c       **** 
 748:.\pff.c       **** 
 749:.\pff.c       **** /*-----------------------------------------------------------------------*/
 750:.\pff.c       **** /* Mount/Unmount a Locical Drive                                         */
 751:.\pff.c       **** /*-----------------------------------------------------------------------*/
 752:.\pff.c       **** 
 753:.\pff.c       **** FRESULT pf_mount (
 754:.\pff.c       **** 	FATFS *fs		/* Pointer to new file system object */
 755:.\pff.c       **** )
 756:.\pff.c       **** {
 1235              		.loc 1 756 0
 1236              		.cfi_startproc
 1237              	.LVL189:
 1238 0000 F0B5     		push	{r4, r5, r6, r7, lr}
 1239              		.cfi_def_cfa_offset 20
 1240              		.cfi_offset 4, -20
 1241              		.cfi_offset 5, -16
 1242              		.cfi_offset 6, -12
 1243              		.cfi_offset 7, -8
ARM GAS  C:\Users\Petro\AppData\Local\Temp\cc5IgTu7.s 			page 38


 1244              		.cfi_offset 14, -4
 1245 0002 4746     		mov	r7, r8
 1246 0004 80B4     		push	{r7}
 1247              		.cfi_def_cfa_offset 24
 1248              		.cfi_offset 8, -24
 1249 0006 8AB0     		sub	sp, sp, #40
 1250              		.cfi_def_cfa_offset 64
 1251 0008 041C     		mov	r4, r0
 757:.\pff.c       **** 	BYTE fmt, buf[36];
 758:.\pff.c       **** 	DWORD bsect, fsize, tsect, mclst;
 759:.\pff.c       **** 
 760:.\pff.c       **** 
 761:.\pff.c       **** 	FatFs = 0;
 1252              		.loc 1 761 0
 1253 000a 0022     		mov	r2, #0
 1254 000c 5A4B     		ldr	r3, .L127
 1255 000e 1A60     		str	r2, [r3]
 762:.\pff.c       **** 
 763:.\pff.c       **** 	if (disk_initialize() & STA_NOINIT)	/* Check if the drive is ready or not */
 1256              		.loc 1 763 0
 1257 0010 FFF7FEFF 		bl	disk_initialize
 1258              	.LVL190:
 1259 0014 C307     		lsl	r3, r0, #31
 1260 0016 00D5     		bpl	.LCB1371
 1261 0018 A0E0     		b	.L116	@long jump
 1262              	.LCB1371:
 1263              	.LVL191:
 764:.\pff.c       **** 		return FR_NOT_READY;
 765:.\pff.c       **** 
 766:.\pff.c       **** 	/* Search FAT partition on the drive */
 767:.\pff.c       **** 	bsect = 0;
 768:.\pff.c       **** 	fmt = check_fs(buf, bsect);			/* Check sector 0 as an SFD format */
 1264              		.loc 1 768 0
 1265 001a 01A8     		add	r0, sp, #4
 1266 001c 0021     		mov	r1, #0
 1267 001e FFF7FEFF 		bl	check_fs
 1268              	.LVL192:
 1269 0022 051E     		sub	r5, r0, #0
 1270              	.LVL193:
 769:.\pff.c       **** 	if (fmt == 1) {						/* Not an FAT boot record, it may be FDISK format */
 1271              		.loc 1 769 0
 1272 0024 012D     		cmp	r5, #1
 1273 0026 13D1     		bne	.L117
 770:.\pff.c       **** 		/* Check a partition listed in top of the partition table */
 771:.\pff.c       **** 		if (disk_readp(buf, bsect, MBR_Table, 16)) {	/* 1st partition entry */
 1274              		.loc 1 771 0
 1275 0028 01A8     		add	r0, sp, #4
 1276              	.LVL194:
 1277 002a 0021     		mov	r1, #0
 1278 002c DF22     		mov	r2, #223
 1279 002e 5200     		lsl	r2, r2, #1
 1280 0030 1023     		mov	r3, #16
 1281 0032 FFF7FEFF 		bl	disk_readp
 1282              	.LVL195:
 1283 0036 0028     		cmp	r0, #0
 1284 0038 0CD1     		bne	.L118
 772:.\pff.c       **** 			fmt = 3;
ARM GAS  C:\Users\Petro\AppData\Local\Temp\cc5IgTu7.s 			page 39


 773:.\pff.c       **** 		} else {
 774:.\pff.c       **** 			if (buf[4]) {					/* Is the partition existing? */
 1285              		.loc 1 774 0
 1286 003a 01AB     		add	r3, sp, #4
 1287 003c 1B79     		ldrb	r3, [r3, #4]
 1288 003e 002B     		cmp	r3, #0
 1289 0040 0BD0     		beq	.L119
 775:.\pff.c       **** 				bsect = LD_DWORD(&buf[8]);	/* Partition offset in LBA */
 1290              		.loc 1 775 0
 1291 0042 039E     		ldr	r6, [sp, #12]
 1292              	.LVL196:
 776:.\pff.c       **** 				fmt = check_fs(buf, bsect);	/* Check the partition */
 1293              		.loc 1 776 0
 1294 0044 01A8     		add	r0, sp, #4
 1295 0046 311C     		mov	r1, r6
 1296 0048 FFF7FEFF 		bl	check_fs
 1297              	.LVL197:
 1298 004c 051C     		mov	r5, r0
 1299              	.LVL198:
 1300 004e 05E0     		b	.L108
 1301              	.LVL199:
 1302              	.L117:
 767:.\pff.c       **** 	fmt = check_fs(buf, bsect);			/* Check sector 0 as an SFD format */
 1303              		.loc 1 767 0
 1304 0050 0026     		mov	r6, #0
 1305 0052 03E0     		b	.L108
 1306              	.LVL200:
 1307              	.L118:
 1308 0054 0026     		mov	r6, #0
 772:.\pff.c       **** 		} else {
 1309              		.loc 1 772 0
 1310 0056 0325     		mov	r5, #3
 1311              	.LVL201:
 1312 0058 00E0     		b	.L108
 1313              	.LVL202:
 1314              	.L119:
 767:.\pff.c       **** 	fmt = check_fs(buf, bsect);			/* Check sector 0 as an SFD format */
 1315              		.loc 1 767 0
 1316 005a 0026     		mov	r6, #0
 1317              	.LVL203:
 1318              	.L108:
 777:.\pff.c       **** 			}
 778:.\pff.c       **** 		}
 779:.\pff.c       **** 	}
 780:.\pff.c       **** 	if (fmt == 3) return FR_DISK_ERR;
 1319              		.loc 1 780 0
 1320 005c 032D     		cmp	r5, #3
 1321 005e 00D1     		bne	.LCB1432
 1322 0060 7EE0     		b	.L120	@long jump
 1323              	.LCB1432:
 781:.\pff.c       **** 	if (fmt) return FR_NO_FILESYSTEM;	/* No valid FAT patition is found */
 1324              		.loc 1 781 0
 1325 0062 002D     		cmp	r5, #0
 1326 0064 00D0     		beq	.LCB1434
 1327 0066 7DE0     		b	.L121	@long jump
 1328              	.LCB1434:
 782:.\pff.c       **** 
ARM GAS  C:\Users\Petro\AppData\Local\Temp\cc5IgTu7.s 			page 40


 783:.\pff.c       **** 	/* Initialize the file system object */
 784:.\pff.c       **** 	if (disk_readp(buf, bsect, 13, sizeof (buf))) return FR_DISK_ERR;
 1329              		.loc 1 784 0
 1330 0068 01A8     		add	r0, sp, #4
 1331 006a 311C     		mov	r1, r6
 1332 006c 0D22     		mov	r2, #13
 1333 006e 2423     		mov	r3, #36
 1334 0070 FFF7FEFF 		bl	disk_readp
 1335              	.LVL204:
 1336 0074 0028     		cmp	r0, #0
 1337 0076 77D1     		bne	.L122
 785:.\pff.c       **** 
 786:.\pff.c       **** 	fsize = LD_WORD(buf+BPB_FATSz16-13);				/* Number of sectors per FAT */
 1338              		.loc 1 786 0
 1339 0078 0D22     		mov	r2, #13
 1340 007a 6A44     		add	r2, r2, sp
 1341 007c 1378     		ldrb	r3, [r2]
 1342 007e 5778     		ldrb	r7, [r2, #1]
 1343 0080 3F02     		lsl	r7, r7, #8
 1344 0082 1F43     		orr	r7, r3
 1345              	.LVL205:
 787:.\pff.c       **** 	if (!fsize) fsize = LD_DWORD(buf+BPB_FATSz32-13);
 1346              		.loc 1 787 0
 1347 0084 0DD1     		bne	.L109
 1348              		.loc 1 787 0 is_stmt 0 discriminator 1
 1349 0086 1B30     		add	r0, r0, #27
 1350 0088 6844     		add	r0, r0, sp
 1351 008a 0178     		ldrb	r1, [r0]
 1352 008c 4378     		ldrb	r3, [r0, #1]
 1353 008e 1B02     		lsl	r3, r3, #8
 1354 0090 0B43     		orr	r3, r1
 1355 0092 1A1C     		mov	r2, r3
 1356 0094 8778     		ldrb	r7, [r0, #2]
 1357              	.LVL206:
 1358 0096 3F04     		lsl	r7, r7, #16
 1359 0098 3B1C     		mov	r3, r7
 1360 009a 1343     		orr	r3, r2
 1361 009c C778     		ldrb	r7, [r0, #3]
 1362 009e 3F06     		lsl	r7, r7, #24
 1363 00a0 1F43     		orr	r7, r3
 1364              	.LVL207:
 1365              	.L109:
 788:.\pff.c       **** 
 789:.\pff.c       **** 	fsize *= buf[BPB_NumFATs-13];						/* Number of sectors in FAT area */
 1366              		.loc 1 789 0 is_stmt 1
 1367 00a2 01AB     		add	r3, sp, #4
 1368 00a4 DA78     		ldrb	r2, [r3, #3]
 1369 00a6 5743     		mul	r7, r2
 1370              	.LVL208:
 790:.\pff.c       **** 	fs->fatbase = bsect + LD_WORD(buf+BPB_RsvdSecCnt-13); /* FAT start sector (lba) */
 1371              		.loc 1 790 0
 1372 00a8 6A46     		mov	r2, sp
 1373 00aa 5179     		ldrb	r1, [r2, #5]
 1374 00ac 0532     		add	r2, r2, #5
 1375 00ae 5278     		ldrb	r2, [r2, #1]
 1376 00b0 1202     		lsl	r2, r2, #8
 1377 00b2 0A43     		orr	r2, r1
ARM GAS  C:\Users\Petro\AppData\Local\Temp\cc5IgTu7.s 			page 41


 1378 00b4 9619     		add	r6, r2, r6
 1379              	.LVL209:
 1380 00b6 E660     		str	r6, [r4, #12]
 791:.\pff.c       **** 	fs->csize = buf[BPB_SecPerClus-13];					/* Number of sectors per cluster */
 1381              		.loc 1 791 0
 1382 00b8 1978     		ldrb	r1, [r3]
 1383 00ba A170     		strb	r1, [r4, #2]
 792:.\pff.c       **** 	fs->n_rootdir = LD_WORD(buf+BPB_RootEntCnt-13);		/* Nmuber of root directory entries */
 1384              		.loc 1 792 0
 1385 00bc 9A88     		ldrh	r2, [r3, #4]
 1386 00be 9446     		mov	ip, r2
 1387 00c0 A280     		strh	r2, [r4, #4]
 793:.\pff.c       **** 	tsect = LD_WORD(buf+BPB_TotSec16-13);				/* Number of sectors on the file system */
 1388              		.loc 1 793 0
 1389 00c2 DB88     		ldrh	r3, [r3, #6]
 1390              	.LVL210:
 794:.\pff.c       **** 	if (!tsect) tsect = LD_DWORD(buf+BPB_TotSec32-13);
 1391              		.loc 1 794 0
 1392 00c4 002B     		cmp	r3, #0
 1393 00c6 0BD1     		bne	.L110
 1394              		.loc 1 794 0 is_stmt 0 discriminator 1
 1395 00c8 1733     		add	r3, r3, #23
 1396              	.LVL211:
 1397 00ca 6B44     		add	r3, r3, sp
 1398              	.LVL212:
 1399 00cc 1878     		ldrb	r0, [r3]
 1400 00ce 5A78     		ldrb	r2, [r3, #1]
 1401 00d0 1202     		lsl	r2, r2, #8
 1402 00d2 1043     		orr	r0, r2
 1403 00d4 9A78     		ldrb	r2, [r3, #2]
 1404 00d6 1204     		lsl	r2, r2, #16
 1405 00d8 0243     		orr	r2, r0
 1406 00da DB78     		ldrb	r3, [r3, #3]
 1407 00dc 1B06     		lsl	r3, r3, #24
 1408 00de 1343     		orr	r3, r2
 1409              	.LVL213:
 1410              	.L110:
 795:.\pff.c       **** 	mclst = (tsect						/* Last cluster# + 1 */
 796:.\pff.c       **** 		- LD_WORD(buf+BPB_RsvdSecCnt-13) - fsize - fs->n_rootdir / 16
 1411              		.loc 1 796 0 is_stmt 1
 1412 00e0 6A46     		mov	r2, sp
 1413 00e2 5079     		ldrb	r0, [r2, #5]
 1414 00e4 0532     		add	r2, r2, #5
 1415 00e6 5278     		ldrb	r2, [r2, #1]
 1416 00e8 1202     		lsl	r2, r2, #8
 1417 00ea 1043     		orr	r0, r2
 1418 00ec 181A     		sub	r0, r3, r0
 1419 00ee C01B     		sub	r0, r0, r7
 1420 00f0 6346     		mov	r3, ip
 1421              	.LVL214:
 1422 00f2 1B09     		lsr	r3, r3, #4
 1423 00f4 9846     		mov	r8, r3
 1424 00f6 C01A     		sub	r0, r0, r3
 797:.\pff.c       **** 		) / fs->csize + 2;
 1425              		.loc 1 797 0
 1426 00f8 FFF7FEFF 		bl	__aeabi_uidiv
 1427              	.LVL215:
ARM GAS  C:\Users\Petro\AppData\Local\Temp\cc5IgTu7.s 			page 42


 795:.\pff.c       **** 	mclst = (tsect						/* Last cluster# + 1 */
 1428              		.loc 1 795 0
 1429 00fc 831C     		add	r3, r0, #2
 1430              	.LVL216:
 798:.\pff.c       **** 	fs->n_fatent = (CLUST)mclst;
 1431              		.loc 1 798 0
 1432 00fe A360     		str	r3, [r4, #8]
 1433              	.LVL217:
 799:.\pff.c       **** 
 800:.\pff.c       **** 	fmt = 0;							/* Determine the FAT sub type */
 801:.\pff.c       **** 	if (_FS_FAT12 && mclst < 0xFF7)
 1434              		.loc 1 801 0
 1435 0100 1E4A     		ldr	r2, .L127+4
 1436 0102 9342     		cmp	r3, r2
 1437 0104 00D8     		bhi	.L111
 802:.\pff.c       **** 		fmt = FS_FAT12;
 1438              		.loc 1 802 0
 1439 0106 0125     		mov	r5, #1
 1440              	.L111:
 1441              	.LVL218:
 803:.\pff.c       **** 	if (_FS_FAT16 && mclst >= 0xFF8 && mclst < 0xFFF7)
 1442              		.loc 1 803 0
 1443 0108 1D4A     		ldr	r2, .L127+8
 1444 010a 9446     		mov	ip, r2
 1445 010c 6044     		add	r0, r0, ip
 1446 010e 1D4A     		ldr	r2, .L127+12
 1447 0110 9042     		cmp	r0, r2
 1448 0112 00D8     		bhi	.L112
 804:.\pff.c       **** 		fmt = FS_FAT16;
 1449              		.loc 1 804 0
 1450 0114 0225     		mov	r5, #2
 1451              	.LVL219:
 1452              	.L112:
 805:.\pff.c       **** 	if (_FS_FAT32 && mclst >= 0xFFF7)
 1453              		.loc 1 805 0
 1454 0116 1C4A     		ldr	r2, .L127+16
 1455 0118 9342     		cmp	r3, r2
 1456 011a 00D9     		bls	.L113
 806:.\pff.c       **** 		fmt = FS_FAT32;
 1457              		.loc 1 806 0
 1458 011c 0325     		mov	r5, #3
 1459              	.LVL220:
 1460              	.L113:
 807:.\pff.c       **** 	if (!fmt) return FR_NO_FILESYSTEM;
 1461              		.loc 1 807 0
 1462 011e 002D     		cmp	r5, #0
 1463 0120 24D0     		beq	.L126
 808:.\pff.c       **** 	fs->fs_type = fmt;
 1464              		.loc 1 808 0
 1465 0122 2570     		strb	r5, [r4]
 809:.\pff.c       **** 
 810:.\pff.c       **** 	if (_FS_32ONLY || (_FS_FAT32 && fmt == FS_FAT32))
 1466              		.loc 1 810 0
 1467 0124 032D     		cmp	r5, #3
 1468 0126 0ED1     		bne	.L114
 811:.\pff.c       **** 		fs->dirbase = LD_DWORD(buf+(BPB_RootClus-13));	/* Root directory start cluster */
 1469              		.loc 1 811 0
ARM GAS  C:\Users\Petro\AppData\Local\Temp\cc5IgTu7.s 			page 43


 1470 0128 2320     		mov	r0, #35
 1471 012a 6844     		add	r0, r0, sp
 1472 012c 0378     		ldrb	r3, [r0]
 1473              	.LVL221:
 1474 012e 4278     		ldrb	r2, [r0, #1]
 1475 0130 1202     		lsl	r2, r2, #8
 1476 0132 1A43     		orr	r2, r3
 1477 0134 8378     		ldrb	r3, [r0, #2]
 1478 0136 1B04     		lsl	r3, r3, #16
 1479 0138 1343     		orr	r3, r2
 1480 013a 1A1C     		mov	r2, r3
 1481 013c C378     		ldrb	r3, [r0, #3]
 1482 013e 1B06     		lsl	r3, r3, #24
 1483 0140 1343     		orr	r3, r2
 1484 0142 2361     		str	r3, [r4, #16]
 1485 0144 01E0     		b	.L115
 1486              	.LVL222:
 1487              	.L114:
 812:.\pff.c       **** 	else
 813:.\pff.c       **** 		fs->dirbase = fs->fatbase + fsize;				/* Root directory start sector (lba) */
 1488              		.loc 1 813 0
 1489 0146 BB19     		add	r3, r7, r6
 1490              	.LVL223:
 1491 0148 2361     		str	r3, [r4, #16]
 1492              	.L115:
 814:.\pff.c       **** 	fs->database = fs->fatbase + fsize + fs->n_rootdir / 16;	/* Data start sector (lba) */
 1493              		.loc 1 814 0
 1494 014a BE19     		add	r6, r7, r6
 1495 014c 4644     		add	r6, r6, r8
 1496 014e 6661     		str	r6, [r4, #20]
 815:.\pff.c       **** 
 816:.\pff.c       **** 	fs->flag = 0;
 1497              		.loc 1 816 0
 1498 0150 0023     		mov	r3, #0
 1499 0152 6370     		strb	r3, [r4, #1]
 817:.\pff.c       **** 	FatFs = fs;
 1500              		.loc 1 817 0
 1501 0154 084B     		ldr	r3, .L127
 1502 0156 1C60     		str	r4, [r3]
 818:.\pff.c       **** 
 819:.\pff.c       **** 	return FR_OK;
 1503              		.loc 1 819 0
 1504 0158 0020     		mov	r0, #0
 1505 015a 08E0     		b	.L107
 1506              	.LVL224:
 1507              	.L116:
 764:.\pff.c       **** 
 1508              		.loc 1 764 0
 1509 015c 0220     		mov	r0, #2
 1510 015e 06E0     		b	.L107
 1511              	.LVL225:
 1512              	.L120:
 780:.\pff.c       **** 	if (fmt) return FR_NO_FILESYSTEM;	/* No valid FAT patition is found */
 1513              		.loc 1 780 0
 1514 0160 0120     		mov	r0, #1
 1515 0162 04E0     		b	.L107
 1516              	.L121:
ARM GAS  C:\Users\Petro\AppData\Local\Temp\cc5IgTu7.s 			page 44


 781:.\pff.c       **** 
 1517              		.loc 1 781 0
 1518 0164 0620     		mov	r0, #6
 1519 0166 02E0     		b	.L107
 1520              	.L122:
 784:.\pff.c       **** 
 1521              		.loc 1 784 0
 1522 0168 0120     		mov	r0, #1
 1523 016a 00E0     		b	.L107
 1524              	.LVL226:
 1525              	.L126:
 807:.\pff.c       **** 	fs->fs_type = fmt;
 1526              		.loc 1 807 0
 1527 016c 0620     		mov	r0, #6
 1528              	.LVL227:
 1529              	.L107:
 820:.\pff.c       **** }
 1530              		.loc 1 820 0
 1531 016e 0AB0     		add	sp, sp, #40
 1532              		@ sp needed
 1533              	.LVL228:
 1534 0170 04BC     		pop	{r2}
 1535 0172 9046     		mov	r8, r2
 1536 0174 F0BD     		pop	{r4, r5, r6, r7, pc}
 1537              	.L128:
 1538 0176 C046     		.align	2
 1539              	.L127:
 1540 0178 00000000 		.word	.LANCHOR0
 1541 017c F60F0000 		.word	4086
 1542 0180 0AF0FFFF 		.word	-4086
 1543 0184 FEEF0000 		.word	61438
 1544 0188 F6FF0000 		.word	65526
 1545              		.cfi_endproc
 1546              	.LFE13:
 1547              		.size	pf_mount, .-pf_mount
 1548              		.section	.text.pf_open,"ax",%progbits
 1549              		.align	2
 1550              		.global	pf_open
 1551              		.code	16
 1552              		.thumb_func
 1553              		.type	pf_open, %function
 1554              	pf_open:
 1555              	.LFB14:
 821:.\pff.c       **** 
 822:.\pff.c       **** 
 823:.\pff.c       **** 
 824:.\pff.c       **** 
 825:.\pff.c       **** /*-----------------------------------------------------------------------*/
 826:.\pff.c       **** /* Open or Create a File                                                 */
 827:.\pff.c       **** /*-----------------------------------------------------------------------*/
 828:.\pff.c       **** 
 829:.\pff.c       **** FRESULT pf_open (
 830:.\pff.c       **** 	const char *path	/* Pointer to the file name */
 831:.\pff.c       **** )
 832:.\pff.c       **** {
 1556              		.loc 1 832 0
 1557              		.cfi_startproc
ARM GAS  C:\Users\Petro\AppData\Local\Temp\cc5IgTu7.s 			page 45


 1558              	.LVL229:
 1559 0000 10B5     		push	{r4, lr}
 1560              		.cfi_def_cfa_offset 8
 1561              		.cfi_offset 4, -8
 1562              		.cfi_offset 14, -4
 1563 0002 90B0     		sub	sp, sp, #64
 1564              		.cfi_def_cfa_offset 72
 833:.\pff.c       **** 	FRESULT res;
 834:.\pff.c       **** 	DIR dj;
 835:.\pff.c       **** 	BYTE sp[12], dir[32];
 836:.\pff.c       **** 	FATFS *fs = FatFs;
 1565              		.loc 1 836 0
 1566 0004 144B     		ldr	r3, .L135
 1567 0006 1C68     		ldr	r4, [r3]
 1568              	.LVL230:
 837:.\pff.c       **** 
 838:.\pff.c       **** 
 839:.\pff.c       **** 	if (!fs) return FR_NOT_ENABLED;		/* Check file system */
 1569              		.loc 1 839 0
 1570 0008 002C     		cmp	r4, #0
 1571 000a 1ED0     		beq	.L131
 1572 000c 021C     		mov	r2, r0
 840:.\pff.c       **** 
 841:.\pff.c       **** 	fs->flag = 0;
 1573              		.loc 1 841 0
 1574 000e 0023     		mov	r3, #0
 1575 0010 6370     		strb	r3, [r4, #1]
 842:.\pff.c       **** 	dj.fn = sp;
 1576              		.loc 1 842 0
 1577 0012 08AB     		add	r3, sp, #32
 1578 0014 0C93     		str	r3, [sp, #48]
 843:.\pff.c       **** 	res = follow_path(&dj, dir, path);	/* Follow the file path */
 1579              		.loc 1 843 0
 1580 0016 0BA8     		add	r0, sp, #44
 1581              	.LVL231:
 1582 0018 6946     		mov	r1, sp
 1583 001a FFF7FEFF 		bl	follow_path
 1584              	.LVL232:
 844:.\pff.c       **** 	if (res != FR_OK) return res;		/* Follow failed */
 1585              		.loc 1 844 0
 1586 001e 0028     		cmp	r0, #0
 1587 0020 18D1     		bne	.L130
 845:.\pff.c       **** 	if (!dir[0] || (dir[DIR_Attr] & AM_DIR))	/* It is a directory */
 1588              		.loc 1 845 0
 1589 0022 6B46     		mov	r3, sp
 1590 0024 1B78     		ldrb	r3, [r3]
 1591 0026 002B     		cmp	r3, #0
 1592 0028 11D0     		beq	.L133
 1593              		.loc 1 845 0 is_stmt 0 discriminator 1
 1594 002a 6B46     		mov	r3, sp
 1595 002c DB7A     		ldrb	r3, [r3, #11]
 1596 002e DB06     		lsl	r3, r3, #27
 1597 0030 0FD4     		bmi	.L134
 846:.\pff.c       **** 		return FR_NO_FILE;
 847:.\pff.c       **** 
 848:.\pff.c       **** 	fs->org_clust = get_clust(dir);		/* File start cluster */
 1598              		.loc 1 848 0 is_stmt 1
ARM GAS  C:\Users\Petro\AppData\Local\Temp\cc5IgTu7.s 			page 46


 1599 0032 6846     		mov	r0, sp
 1600              	.LVL233:
 1601 0034 FFF7FEFF 		bl	get_clust
 1602              	.LVL234:
 1603 0038 2062     		str	r0, [r4, #32]
 849:.\pff.c       **** 	fs->fsize = LD_DWORD(dir+DIR_FileSize);	/* File size */
 1604              		.loc 1 849 0
 1605 003a 079B     		ldr	r3, [sp, #28]
 1606 003c E361     		str	r3, [r4, #28]
 850:.\pff.c       **** 	fs->fptr = 0;						/* File pointer */
 1607              		.loc 1 850 0
 1608 003e 0023     		mov	r3, #0
 1609 0040 A361     		str	r3, [r4, #24]
 851:.\pff.c       **** 	fs->flag = FA_OPENED;
 1610              		.loc 1 851 0
 1611 0042 0133     		add	r3, r3, #1
 1612 0044 6370     		strb	r3, [r4, #1]
 852:.\pff.c       **** 
 853:.\pff.c       **** 	return FR_OK;
 1613              		.loc 1 853 0
 1614 0046 0020     		mov	r0, #0
 1615 0048 04E0     		b	.L130
 1616              	.LVL235:
 1617              	.L131:
 839:.\pff.c       **** 
 1618              		.loc 1 839 0
 1619 004a 0520     		mov	r0, #5
 1620              	.LVL236:
 1621 004c 02E0     		b	.L130
 1622              	.LVL237:
 1623              	.L133:
 846:.\pff.c       **** 
 1624              		.loc 1 846 0
 1625 004e 0320     		mov	r0, #3
 1626              	.LVL238:
 1627 0050 00E0     		b	.L130
 1628              	.LVL239:
 1629              	.L134:
 1630 0052 0320     		mov	r0, #3
 1631              	.LVL240:
 1632              	.L130:
 854:.\pff.c       **** }
 1633              		.loc 1 854 0
 1634 0054 10B0     		add	sp, sp, #64
 1635              		@ sp needed
 1636              	.LVL241:
 1637 0056 10BD     		pop	{r4, pc}
 1638              	.L136:
 1639              		.align	2
 1640              	.L135:
 1641 0058 00000000 		.word	.LANCHOR0
 1642              		.cfi_endproc
 1643              	.LFE14:
 1644              		.size	pf_open, .-pf_open
 1645              		.section	.text.pf_read,"ax",%progbits
 1646              		.align	2
 1647              		.global	pf_read
ARM GAS  C:\Users\Petro\AppData\Local\Temp\cc5IgTu7.s 			page 47


 1648              		.code	16
 1649              		.thumb_func
 1650              		.type	pf_read, %function
 1651              	pf_read:
 1652              	.LFB15:
 855:.\pff.c       **** 
 856:.\pff.c       **** 
 857:.\pff.c       **** 
 858:.\pff.c       **** 
 859:.\pff.c       **** /*-----------------------------------------------------------------------*/
 860:.\pff.c       **** /* Read File                                                             */
 861:.\pff.c       **** /*-----------------------------------------------------------------------*/
 862:.\pff.c       **** #if _USE_READ
 863:.\pff.c       **** 
 864:.\pff.c       **** FRESULT pf_read (
 865:.\pff.c       **** 	void* buff,		/* Pointer to the read buffer (NULL:Forward data to the stream)*/
 866:.\pff.c       **** 	UINT btr,		/* Number of bytes to read */
 867:.\pff.c       **** 	UINT* br		/* Pointer to number of bytes read */
 868:.\pff.c       **** )
 869:.\pff.c       **** {
 1653              		.loc 1 869 0
 1654              		.cfi_startproc
 1655              	.LVL242:
 1656 0000 F8B5     		push	{r3, r4, r5, r6, r7, lr}
 1657              		.cfi_def_cfa_offset 24
 1658              		.cfi_offset 3, -24
 1659              		.cfi_offset 4, -20
 1660              		.cfi_offset 5, -16
 1661              		.cfi_offset 6, -12
 1662              		.cfi_offset 7, -8
 1663              		.cfi_offset 14, -4
 1664 0002 4F46     		mov	r7, r9
 1665 0004 4646     		mov	r6, r8
 1666 0006 C0B4     		push	{r6, r7}
 1667              		.cfi_def_cfa_offset 32
 1668              		.cfi_offset 8, -32
 1669              		.cfi_offset 9, -28
 1670              	.LVL243:
 870:.\pff.c       **** 	DRESULT dr;
 871:.\pff.c       **** 	CLUST clst;
 872:.\pff.c       **** 	DWORD sect, remain;
 873:.\pff.c       **** 	UINT rcnt;
 874:.\pff.c       **** 	BYTE cs, *rbuff = buff;
 875:.\pff.c       **** 	FATFS *fs = FatFs;
 1671              		.loc 1 875 0
 1672 0008 314B     		ldr	r3, .L155
 1673 000a 1D68     		ldr	r5, [r3]
 1674              	.LVL244:
 876:.\pff.c       **** 
 877:.\pff.c       **** 
 878:.\pff.c       **** 	*br = 0;
 1675              		.loc 1 878 0
 1676 000c 0023     		mov	r3, #0
 1677 000e 1360     		str	r3, [r2]
 879:.\pff.c       **** 	if (!fs) return FR_NOT_ENABLED;		/* Check file system */
 1678              		.loc 1 879 0
 1679 0010 002D     		cmp	r5, #0
ARM GAS  C:\Users\Petro\AppData\Local\Temp\cc5IgTu7.s 			page 48


 1680 0012 56D0     		beq	.L151
 880:.\pff.c       **** 	if (!(fs->flag & FA_OPENED))		/* Check if opened */
 1681              		.loc 1 880 0
 1682 0014 6B78     		ldrb	r3, [r5, #1]
 1683 0016 DB07     		lsl	r3, r3, #31
 1684 0018 55D5     		bpl	.L152
 881:.\pff.c       **** 		return FR_NOT_OPENED;
 882:.\pff.c       **** 
 883:.\pff.c       **** 	remain = fs->fsize - fs->fptr;
 1685              		.loc 1 883 0
 1686 001a EB69     		ldr	r3, [r5, #28]
 1687 001c AC69     		ldr	r4, [r5, #24]
 1688 001e 1E1B     		sub	r6, r3, r4
 1689              	.LVL245:
 884:.\pff.c       **** 	if (btr > remain) btr = (UINT)remain;			/* Truncate btr by remaining bytes */
 1690              		.loc 1 884 0
 1691 0020 B142     		cmp	r1, r6
 1692 0022 00D8     		bhi	.L139
 1693 0024 0E1C     		mov	r6, r1
 1694              	.LVL246:
 1695              	.L139:
 1696 0026 9046     		mov	r8, r2
 1697 0028 8146     		mov	r9, r0
 885:.\pff.c       **** 
 886:.\pff.c       **** 	while (btr)	{									/* Repeat until all data transferred */
 887:.\pff.c       **** 		if ((fs->fptr % 512) == 0) {				/* On the sector boundary? */
 888:.\pff.c       **** 			cs = (BYTE)(fs->fptr / 512 & (fs->csize - 1));	/* Sector offset in the cluster */
 889:.\pff.c       **** 			if (!cs) {								/* On the cluster boundary? */
 890:.\pff.c       **** 				if (fs->fptr == 0)					/* On the top of the file? */
 891:.\pff.c       **** 					clst = fs->org_clust;
 892:.\pff.c       **** 				else
 893:.\pff.c       **** 					clst = get_fat(fs->curr_clust);
 894:.\pff.c       **** 				if (clst <= 1) ABORT(FR_DISK_ERR);
 895:.\pff.c       **** 				fs->curr_clust = clst;				/* Update current cluster */
 896:.\pff.c       **** 			}
 897:.\pff.c       **** 			sect = clust2sect(fs->curr_clust);		/* Get current sector */
 898:.\pff.c       **** 			if (!sect) ABORT(FR_DISK_ERR);
 899:.\pff.c       **** 			fs->dsect = sect + cs;
 900:.\pff.c       **** 		}
 901:.\pff.c       **** 		rcnt = 512 - (UINT)fs->fptr % 512;			/* Get partial sector data from sector buffer */
 902:.\pff.c       **** 		if (rcnt > btr) rcnt = btr;
 903:.\pff.c       **** 		dr = disk_readp(!buff ? 0 : rbuff, fs->dsect, (UINT)fs->fptr % 512, rcnt);
 1698              		.loc 1 903 0
 1699 002a 071C     		mov	r7, r0
 1700 002c 45E0     		b	.L140
 1701              	.LVL247:
 1702              	.L150:
 887:.\pff.c       **** 			cs = (BYTE)(fs->fptr / 512 & (fs->csize - 1));	/* Sector offset in the cluster */
 1703              		.loc 1 887 0
 1704 002e AA69     		ldr	r2, [r5, #24]
 1705 0030 D305     		lsl	r3, r2, #23
 1706 0032 1ED1     		bne	.L141
 888:.\pff.c       **** 			if (!cs) {								/* On the cluster boundary? */
 1707              		.loc 1 888 0
 1708 0034 540A     		lsr	r4, r2, #9
 1709 0036 AB78     		ldrb	r3, [r5, #2]
 1710 0038 013B     		sub	r3, r3, #1
ARM GAS  C:\Users\Petro\AppData\Local\Temp\cc5IgTu7.s 			page 49


 1711 003a DBB2     		uxtb	r3, r3
 1712 003c 1C40     		and	r4, r3
 1713              	.LVL248:
 889:.\pff.c       **** 				if (fs->fptr == 0)					/* On the top of the file? */
 1714              		.loc 1 889 0
 1715 003e 0DD1     		bne	.L142
 890:.\pff.c       **** 					clst = fs->org_clust;
 1716              		.loc 1 890 0
 1717 0040 002A     		cmp	r2, #0
 1718 0042 01D1     		bne	.L143
 891:.\pff.c       **** 				else
 1719              		.loc 1 891 0
 1720 0044 286A     		ldr	r0, [r5, #32]
 1721              	.LVL249:
 1722 0046 02E0     		b	.L144
 1723              	.LVL250:
 1724              	.L143:
 893:.\pff.c       **** 				if (clst <= 1) ABORT(FR_DISK_ERR);
 1725              		.loc 1 893 0
 1726 0048 686A     		ldr	r0, [r5, #36]
 1727 004a FFF7FEFF 		bl	get_fat
 1728              	.LVL251:
 1729              	.L144:
 894:.\pff.c       **** 				fs->curr_clust = clst;				/* Update current cluster */
 1730              		.loc 1 894 0
 1731 004e 0128     		cmp	r0, #1
 1732 0050 03D8     		bhi	.L145
 894:.\pff.c       **** 				fs->curr_clust = clst;				/* Update current cluster */
 1733              		.loc 1 894 0 is_stmt 0 discriminator 1
 1734 0052 0023     		mov	r3, #0
 1735 0054 6B70     		strb	r3, [r5, #1]
 1736 0056 0120     		mov	r0, #1
 1737              	.LVL252:
 1738 0058 36E0     		b	.L138
 1739              	.LVL253:
 1740              	.L145:
 895:.\pff.c       **** 			}
 1741              		.loc 1 895 0 is_stmt 1
 1742 005a 6862     		str	r0, [r5, #36]
 1743              	.LVL254:
 1744              	.L142:
 897:.\pff.c       **** 			if (!sect) ABORT(FR_DISK_ERR);
 1745              		.loc 1 897 0
 1746 005c 686A     		ldr	r0, [r5, #36]
 1747 005e FFF7FEFF 		bl	clust2sect
 1748              	.LVL255:
 898:.\pff.c       **** 			fs->dsect = sect + cs;
 1749              		.loc 1 898 0
 1750 0062 0028     		cmp	r0, #0
 1751 0064 03D1     		bne	.L146
 898:.\pff.c       **** 			fs->dsect = sect + cs;
 1752              		.loc 1 898 0 is_stmt 0 discriminator 1
 1753 0066 0023     		mov	r3, #0
 1754 0068 6B70     		strb	r3, [r5, #1]
 1755 006a 0130     		add	r0, r0, #1
 1756              	.LVL256:
 1757 006c 2CE0     		b	.L138
ARM GAS  C:\Users\Petro\AppData\Local\Temp\cc5IgTu7.s 			page 50


 1758              	.LVL257:
 1759              	.L146:
 899:.\pff.c       **** 		}
 1760              		.loc 1 899 0 is_stmt 1
 1761 006e 2018     		add	r0, r4, r0
 1762              	.LVL258:
 1763 0070 A862     		str	r0, [r5, #40]
 1764              	.LVL259:
 1765              	.L141:
 901:.\pff.c       **** 		if (rcnt > btr) rcnt = btr;
 1766              		.loc 1 901 0
 1767 0072 AB69     		ldr	r3, [r5, #24]
 1768 0074 DA05     		lsl	r2, r3, #23
 1769 0076 D20D     		lsr	r2, r2, #23
 1770 0078 8024     		mov	r4, #128
 1771 007a A400     		lsl	r4, r4, #2
 1772 007c A41A     		sub	r4, r4, r2
 1773              	.LVL260:
 902:.\pff.c       **** 		dr = disk_readp(!buff ? 0 : rbuff, fs->dsect, (UINT)fs->fptr % 512, rcnt);
 1774              		.loc 1 902 0
 1775 007e B442     		cmp	r4, r6
 1776 0080 00D9     		bls	.L147
 1777 0082 341C     		mov	r4, r6
 1778              	.LVL261:
 1779              	.L147:
 1780              		.loc 1 903 0
 1781 0084 4B46     		mov	r3, r9
 1782 0086 002B     		cmp	r3, #0
 1783 0088 01D1     		bne	.L154
 1784              	.LVL262:
 1785 008a 0020     		mov	r0, #0
 1786 008c 00E0     		b	.L148
 1787              	.L154:
 1788 008e 381C     		mov	r0, r7
 1789              	.L148:
 1790              		.loc 1 903 0 is_stmt 0 discriminator 4
 1791 0090 A96A     		ldr	r1, [r5, #40]
 1792 0092 231C     		mov	r3, r4
 1793              	.LVL263:
 1794 0094 FFF7FEFF 		bl	disk_readp
 1795              	.LVL264:
 904:.\pff.c       **** 		if (dr) ABORT(FR_DISK_ERR);
 1796              		.loc 1 904 0 is_stmt 1 discriminator 4
 1797 0098 0028     		cmp	r0, #0
 1798 009a 03D0     		beq	.L149
 1799              		.loc 1 904 0 is_stmt 0 discriminator 1
 1800 009c 0023     		mov	r3, #0
 1801 009e 6B70     		strb	r3, [r5, #1]
 1802 00a0 0120     		mov	r0, #1
 1803              	.LVL265:
 1804 00a2 11E0     		b	.L138
 1805              	.LVL266:
 1806              	.L149:
 905:.\pff.c       **** 		fs->fptr += rcnt; rbuff += rcnt;			/* Update pointers and counters */
 1807              		.loc 1 905 0 is_stmt 1
 1808 00a4 AB69     		ldr	r3, [r5, #24]
 1809 00a6 1B19     		add	r3, r3, r4
ARM GAS  C:\Users\Petro\AppData\Local\Temp\cc5IgTu7.s 			page 51


 1810 00a8 AB61     		str	r3, [r5, #24]
 1811 00aa 3F19     		add	r7, r7, r4
 1812              	.LVL267:
 906:.\pff.c       **** 		btr -= rcnt; *br += rcnt;
 1813              		.loc 1 906 0
 1814 00ac 361B     		sub	r6, r6, r4
 1815              	.LVL268:
 1816 00ae 4346     		mov	r3, r8
 1817 00b0 1B68     		ldr	r3, [r3]
 1818 00b2 9C46     		mov	ip, r3
 1819 00b4 6444     		add	r4, r4, ip
 1820              	.LVL269:
 1821 00b6 4346     		mov	r3, r8
 1822 00b8 1C60     		str	r4, [r3]
 1823              	.LVL270:
 1824              	.L140:
 886:.\pff.c       **** 		if ((fs->fptr % 512) == 0) {				/* On the sector boundary? */
 1825              		.loc 1 886 0
 1826 00ba 002E     		cmp	r6, #0
 1827 00bc B7D1     		bne	.L150
 907:.\pff.c       **** 	}
 908:.\pff.c       **** 
 909:.\pff.c       **** 	return FR_OK;
 1828              		.loc 1 909 0
 1829 00be 0020     		mov	r0, #0
 1830 00c0 02E0     		b	.L138
 1831              	.LVL271:
 1832              	.L151:
 879:.\pff.c       **** 	if (!(fs->flag & FA_OPENED))		/* Check if opened */
 1833              		.loc 1 879 0
 1834 00c2 0520     		mov	r0, #5
 1835              	.LVL272:
 1836 00c4 00E0     		b	.L138
 1837              	.LVL273:
 1838              	.L152:
 881:.\pff.c       **** 
 1839              		.loc 1 881 0
 1840 00c6 0420     		mov	r0, #4
 1841              	.LVL274:
 1842              	.L138:
 910:.\pff.c       **** }
 1843              		.loc 1 910 0
 1844              		@ sp needed
 1845              	.LVL275:
 1846 00c8 0CBC     		pop	{r2, r3}
 1847 00ca 9046     		mov	r8, r2
 1848 00cc 9946     		mov	r9, r3
 1849 00ce F8BD     		pop	{r3, r4, r5, r6, r7, pc}
 1850              	.L156:
 1851              		.align	2
 1852              	.L155:
 1853 00d0 00000000 		.word	.LANCHOR0
 1854              		.cfi_endproc
 1855              	.LFE15:
 1856              		.size	pf_read, .-pf_read
 1857              		.section	.text.pf_write,"ax",%progbits
 1858              		.align	2
ARM GAS  C:\Users\Petro\AppData\Local\Temp\cc5IgTu7.s 			page 52


 1859              		.global	pf_write
 1860              		.code	16
 1861              		.thumb_func
 1862              		.type	pf_write, %function
 1863              	pf_write:
 1864              	.LFB16:
 911:.\pff.c       **** #endif
 912:.\pff.c       **** 
 913:.\pff.c       **** 
 914:.\pff.c       **** 
 915:.\pff.c       **** /*-----------------------------------------------------------------------*/
 916:.\pff.c       **** /* Write File                                                            */
 917:.\pff.c       **** /*-----------------------------------------------------------------------*/
 918:.\pff.c       **** #if _USE_WRITE
 919:.\pff.c       **** 
 920:.\pff.c       **** FRESULT pf_write (
 921:.\pff.c       **** 	const void* buff,	/* Pointer to the data to be written */
 922:.\pff.c       **** 	UINT btw,			/* Number of bytes to write (0:Finalize the current write operation) */
 923:.\pff.c       **** 	UINT* bw			/* Pointer to number of bytes written */
 924:.\pff.c       **** )
 925:.\pff.c       **** {
 1865              		.loc 1 925 0
 1866              		.cfi_startproc
 1867              	.LVL276:
 1868 0000 F0B5     		push	{r4, r5, r6, r7, lr}
 1869              		.cfi_def_cfa_offset 20
 1870              		.cfi_offset 4, -20
 1871              		.cfi_offset 5, -16
 1872              		.cfi_offset 6, -12
 1873              		.cfi_offset 7, -8
 1874              		.cfi_offset 14, -4
 1875 0002 4746     		mov	r7, r8
 1876 0004 80B4     		push	{r7}
 1877              		.cfi_def_cfa_offset 24
 1878              		.cfi_offset 8, -24
 1879 0006 071C     		mov	r7, r0
 1880 0008 9046     		mov	r8, r2
 1881              	.LVL277:
 926:.\pff.c       **** 	CLUST clst;
 927:.\pff.c       **** 	DWORD sect, remain;
 928:.\pff.c       **** 	const BYTE *p = buff;
 929:.\pff.c       **** 	BYTE cs;
 930:.\pff.c       **** 	UINT wcnt;
 931:.\pff.c       **** 	FATFS *fs = FatFs;
 1882              		.loc 1 931 0
 1883 000a 494B     		ldr	r3, .L179
 1884 000c 1D68     		ldr	r5, [r3]
 1885              	.LVL278:
 932:.\pff.c       **** 
 933:.\pff.c       **** 
 934:.\pff.c       **** 	*bw = 0;
 1886              		.loc 1 934 0
 1887 000e 0023     		mov	r3, #0
 1888 0010 1360     		str	r3, [r2]
 935:.\pff.c       **** 	if (!fs) return FR_NOT_ENABLED;		/* Check file system */
 1889              		.loc 1 935 0
 1890 0012 002D     		cmp	r5, #0
ARM GAS  C:\Users\Petro\AppData\Local\Temp\cc5IgTu7.s 			page 53


 1891 0014 00D1     		bne	.LCB2067
 1892 0016 85E0     		b	.L176	@long jump
 1893              	.LCB2067:
 936:.\pff.c       **** 	if (!(fs->flag & FA_OPENED))		/* Check if opened */
 1894              		.loc 1 936 0
 1895 0018 6B78     		ldrb	r3, [r5, #1]
 1896 001a DA07     		lsl	r2, r3, #31
 1897 001c 00D4     		bmi	.LCB2073
 1898 001e 83E0     		b	.L177	@long jump
 1899              	.LCB2073:
 1900              	.LVL279:
 937:.\pff.c       **** 		return FR_NOT_OPENED;
 938:.\pff.c       **** 
 939:.\pff.c       **** 	if (!btw) {		/* Finalize request */
 1901              		.loc 1 939 0
 1902 0020 0029     		cmp	r1, #0
 1903 0022 10D1     		bne	.L159
 940:.\pff.c       **** 		if ((fs->flag & FA__WIP) && disk_writep(0, 0)) ABORT(FR_DISK_ERR);
 1904              		.loc 1 940 0
 1905 0024 5B06     		lsl	r3, r3, #25
 1906 0026 08D5     		bpl	.L160
 1907              		.loc 1 940 0 is_stmt 0 discriminator 1
 1908 0028 0020     		mov	r0, #0
 1909              	.LVL280:
 1910 002a FFF7FEFF 		bl	disk_writep
 1911              	.LVL281:
 1912 002e 0028     		cmp	r0, #0
 1913 0030 03D0     		beq	.L160
 1914              		.loc 1 940 0 discriminator 2
 1915 0032 0023     		mov	r3, #0
 1916 0034 6B70     		strb	r3, [r5, #1]
 1917 0036 0120     		mov	r0, #1
 1918 0038 77E0     		b	.L158
 1919              	.L160:
 941:.\pff.c       **** 		fs->flag &= ~FA__WIP;
 1920              		.loc 1 941 0 is_stmt 1
 1921 003a 6B78     		ldrb	r3, [r5, #1]
 1922 003c 4022     		mov	r2, #64
 1923 003e 9343     		bic	r3, r2
 1924 0040 6B70     		strb	r3, [r5, #1]
 942:.\pff.c       **** 		return FR_OK;
 1925              		.loc 1 942 0
 1926 0042 0020     		mov	r0, #0
 1927 0044 71E0     		b	.L158
 1928              	.LVL282:
 1929              	.L159:
 943:.\pff.c       **** 	} else {		/* Write data request */
 944:.\pff.c       **** 		if (!(fs->flag & FA__WIP))		/* Round-down fptr to the sector boundary */
 1930              		.loc 1 944 0
 1931 0046 5B06     		lsl	r3, r3, #25
 1932 0048 03D4     		bmi	.L161
 945:.\pff.c       **** 			fs->fptr &= 0xFFFFFE00;
 1933              		.loc 1 945 0
 1934 004a AB69     		ldr	r3, [r5, #24]
 1935 004c 5B0A     		lsr	r3, r3, #9
 1936 004e 5B02     		lsl	r3, r3, #9
 1937 0050 AB61     		str	r3, [r5, #24]
ARM GAS  C:\Users\Petro\AppData\Local\Temp\cc5IgTu7.s 			page 54


 1938              	.L161:
 946:.\pff.c       **** 	}
 947:.\pff.c       **** 	remain = fs->fsize - fs->fptr;
 1939              		.loc 1 947 0
 1940 0052 EB69     		ldr	r3, [r5, #28]
 1941 0054 AA69     		ldr	r2, [r5, #24]
 1942 0056 9E1A     		sub	r6, r3, r2
 1943              	.LVL283:
 948:.\pff.c       **** 	if (btw > remain) btw = (UINT)remain;			/* Truncate btw by remaining bytes */
 1944              		.loc 1 948 0
 1945 0058 B142     		cmp	r1, r6
 1946 005a 5FD8     		bhi	.L163
 1947 005c 0E1C     		mov	r6, r1
 1948              	.LVL284:
 1949 005e 5DE0     		b	.L163
 1950              	.LVL285:
 1951              	.L175:
 949:.\pff.c       **** 
 950:.\pff.c       **** 	while (btw)	{									/* Repeat until all data transferred */
 951:.\pff.c       **** 		if ((UINT)fs->fptr % 512 == 0) {			/* On the sector boundary? */
 1952              		.loc 1 951 0
 1953 0060 AA69     		ldr	r2, [r5, #24]
 1954 0062 D305     		lsl	r3, r2, #23
 1955 0064 2BD1     		bne	.L164
 952:.\pff.c       **** 			cs = (BYTE)(fs->fptr / 512 & (fs->csize - 1));	/* Sector offset in the cluster */
 1956              		.loc 1 952 0
 1957 0066 540A     		lsr	r4, r2, #9
 1958 0068 AB78     		ldrb	r3, [r5, #2]
 1959 006a 013B     		sub	r3, r3, #1
 1960 006c DBB2     		uxtb	r3, r3
 1961 006e 1C40     		and	r4, r3
 1962              	.LVL286:
 953:.\pff.c       **** 			if (!cs) {								/* On the cluster boundary? */
 1963              		.loc 1 953 0
 1964 0070 0DD1     		bne	.L165
 954:.\pff.c       **** 				if (fs->fptr == 0)					/* On the top of the file? */
 1965              		.loc 1 954 0
 1966 0072 002A     		cmp	r2, #0
 1967 0074 01D1     		bne	.L166
 955:.\pff.c       **** 					clst = fs->org_clust;
 1968              		.loc 1 955 0
 1969 0076 286A     		ldr	r0, [r5, #32]
 1970              	.LVL287:
 1971 0078 02E0     		b	.L167
 1972              	.LVL288:
 1973              	.L166:
 956:.\pff.c       **** 				else
 957:.\pff.c       **** 					clst = get_fat(fs->curr_clust);
 1974              		.loc 1 957 0
 1975 007a 686A     		ldr	r0, [r5, #36]
 1976 007c FFF7FEFF 		bl	get_fat
 1977              	.LVL289:
 1978              	.L167:
 958:.\pff.c       **** 				if (clst <= 1) ABORT(FR_DISK_ERR);
 1979              		.loc 1 958 0
 1980 0080 0128     		cmp	r0, #1
 1981 0082 03D8     		bhi	.L168
ARM GAS  C:\Users\Petro\AppData\Local\Temp\cc5IgTu7.s 			page 55


 1982              		.loc 1 958 0 is_stmt 0 discriminator 1
 1983 0084 0023     		mov	r3, #0
 1984 0086 6B70     		strb	r3, [r5, #1]
 1985 0088 0120     		mov	r0, #1
 1986              	.LVL290:
 1987 008a 4EE0     		b	.L158
 1988              	.LVL291:
 1989              	.L168:
 959:.\pff.c       **** 				fs->curr_clust = clst;				/* Update current cluster */
 1990              		.loc 1 959 0 is_stmt 1
 1991 008c 6862     		str	r0, [r5, #36]
 1992              	.LVL292:
 1993              	.L165:
 960:.\pff.c       **** 			}
 961:.\pff.c       **** 			sect = clust2sect(fs->curr_clust);		/* Get current sector */
 1994              		.loc 1 961 0
 1995 008e 686A     		ldr	r0, [r5, #36]
 1996 0090 FFF7FEFF 		bl	clust2sect
 1997              	.LVL293:
 962:.\pff.c       **** 			if (!sect) ABORT(FR_DISK_ERR);
 1998              		.loc 1 962 0
 1999 0094 0028     		cmp	r0, #0
 2000 0096 03D1     		bne	.L169
 2001              		.loc 1 962 0 is_stmt 0 discriminator 1
 2002 0098 0023     		mov	r3, #0
 2003 009a 6B70     		strb	r3, [r5, #1]
 2004 009c 0130     		add	r0, r0, #1
 2005              	.LVL294:
 2006 009e 44E0     		b	.L158
 2007              	.LVL295:
 2008              	.L169:
 963:.\pff.c       **** 			fs->dsect = sect + cs;
 2009              		.loc 1 963 0 is_stmt 1
 2010 00a0 2118     		add	r1, r4, r0
 2011 00a2 A962     		str	r1, [r5, #40]
 964:.\pff.c       **** 			if (disk_writep(0, fs->dsect)) ABORT(FR_DISK_ERR);	/* Initiate a sector write operation */
 2012              		.loc 1 964 0
 2013 00a4 0020     		mov	r0, #0
 2014              	.LVL296:
 2015 00a6 FFF7FEFF 		bl	disk_writep
 2016              	.LVL297:
 2017 00aa 0028     		cmp	r0, #0
 2018 00ac 03D0     		beq	.L170
 2019              		.loc 1 964 0 is_stmt 0 discriminator 1
 2020 00ae 0023     		mov	r3, #0
 2021 00b0 6B70     		strb	r3, [r5, #1]
 2022 00b2 0120     		mov	r0, #1
 2023 00b4 39E0     		b	.L158
 2024              	.L170:
 965:.\pff.c       **** 			fs->flag |= FA__WIP;
 2025              		.loc 1 965 0 is_stmt 1
 2026 00b6 6A78     		ldrb	r2, [r5, #1]
 2027 00b8 4023     		mov	r3, #64
 2028 00ba 1343     		orr	r3, r2
 2029 00bc 6B70     		strb	r3, [r5, #1]
 2030              	.LVL298:
 2031              	.L164:
ARM GAS  C:\Users\Petro\AppData\Local\Temp\cc5IgTu7.s 			page 56


 966:.\pff.c       **** 		}
 967:.\pff.c       **** 		wcnt = 512 - (UINT)fs->fptr % 512;			/* Number of bytes to write to the sector */
 2032              		.loc 1 967 0
 2033 00be AB69     		ldr	r3, [r5, #24]
 2034 00c0 DC05     		lsl	r4, r3, #23
 2035 00c2 E40D     		lsr	r4, r4, #23
 2036 00c4 8023     		mov	r3, #128
 2037 00c6 9B00     		lsl	r3, r3, #2
 2038 00c8 1C1B     		sub	r4, r3, r4
 2039              	.LVL299:
 968:.\pff.c       **** 		if (wcnt > btw) wcnt = btw;
 2040              		.loc 1 968 0
 2041 00ca B442     		cmp	r4, r6
 2042 00cc 00D9     		bls	.L171
 2043 00ce 341C     		mov	r4, r6
 2044              	.LVL300:
 2045              	.L171:
 969:.\pff.c       **** 		if (disk_writep(p, wcnt)) ABORT(FR_DISK_ERR);	/* Send data to the sector */
 2046              		.loc 1 969 0
 2047 00d0 381C     		mov	r0, r7
 2048 00d2 211C     		mov	r1, r4
 2049 00d4 FFF7FEFF 		bl	disk_writep
 2050              	.LVL301:
 2051 00d8 0028     		cmp	r0, #0
 2052 00da 03D0     		beq	.L172
 2053              		.loc 1 969 0 is_stmt 0 discriminator 1
 2054 00dc 0023     		mov	r3, #0
 2055 00de 6B70     		strb	r3, [r5, #1]
 2056 00e0 0120     		mov	r0, #1
 2057 00e2 22E0     		b	.L158
 2058              	.L172:
 970:.\pff.c       **** 		fs->fptr += wcnt; p += wcnt;				/* Update pointers and counters */
 2059              		.loc 1 970 0 is_stmt 1
 2060 00e4 AB69     		ldr	r3, [r5, #24]
 2061 00e6 1B19     		add	r3, r3, r4
 2062 00e8 AB61     		str	r3, [r5, #24]
 2063 00ea 3F19     		add	r7, r7, r4
 2064              	.LVL302:
 971:.\pff.c       **** 		btw -= wcnt; *bw += wcnt;
 2065              		.loc 1 971 0
 2066 00ec 361B     		sub	r6, r6, r4
 2067              	.LVL303:
 2068 00ee 4346     		mov	r3, r8
 2069 00f0 1B68     		ldr	r3, [r3]
 2070 00f2 9C46     		mov	ip, r3
 2071 00f4 6444     		add	r4, r4, ip
 2072              	.LVL304:
 2073 00f6 4346     		mov	r3, r8
 2074 00f8 1C60     		str	r4, [r3]
 972:.\pff.c       **** 		if ((UINT)fs->fptr % 512 == 0) {
 2075              		.loc 1 972 0
 2076 00fa AB69     		ldr	r3, [r5, #24]
 2077 00fc DB05     		lsl	r3, r3, #23
 2078 00fe 0DD1     		bne	.L163
 973:.\pff.c       **** 			if (disk_writep(0, 0)) ABORT(FR_DISK_ERR);	/* Finalize the currtent secter write operation */
 2079              		.loc 1 973 0
 2080 0100 0020     		mov	r0, #0
ARM GAS  C:\Users\Petro\AppData\Local\Temp\cc5IgTu7.s 			page 57


 2081 0102 0021     		mov	r1, #0
 2082 0104 FFF7FEFF 		bl	disk_writep
 2083              	.LVL305:
 2084 0108 0028     		cmp	r0, #0
 2085 010a 03D0     		beq	.L174
 2086              		.loc 1 973 0 is_stmt 0 discriminator 1
 2087 010c 0023     		mov	r3, #0
 2088 010e 6B70     		strb	r3, [r5, #1]
 2089 0110 0120     		mov	r0, #1
 2090 0112 0AE0     		b	.L158
 2091              	.L174:
 974:.\pff.c       **** 			fs->flag &= ~FA__WIP;
 2092              		.loc 1 974 0 is_stmt 1
 2093 0114 6B78     		ldrb	r3, [r5, #1]
 2094 0116 4022     		mov	r2, #64
 2095 0118 9343     		bic	r3, r2
 2096 011a 6B70     		strb	r3, [r5, #1]
 2097              	.LVL306:
 2098              	.L163:
 950:.\pff.c       **** 		if ((UINT)fs->fptr % 512 == 0) {			/* On the sector boundary? */
 2099              		.loc 1 950 0
 2100 011c 002E     		cmp	r6, #0
 2101 011e 9FD1     		bne	.L175
 975:.\pff.c       **** 		}
 976:.\pff.c       **** 	}
 977:.\pff.c       **** 
 978:.\pff.c       **** 	return FR_OK;
 2102              		.loc 1 978 0
 2103 0120 0020     		mov	r0, #0
 2104 0122 02E0     		b	.L158
 2105              	.LVL307:
 2106              	.L176:
 935:.\pff.c       **** 	if (!(fs->flag & FA_OPENED))		/* Check if opened */
 2107              		.loc 1 935 0
 2108 0124 0520     		mov	r0, #5
 2109              	.LVL308:
 2110 0126 00E0     		b	.L158
 2111              	.LVL309:
 2112              	.L177:
 937:.\pff.c       **** 
 2113              		.loc 1 937 0
 2114 0128 0420     		mov	r0, #4
 2115              	.LVL310:
 2116              	.L158:
 979:.\pff.c       **** }
 2117              		.loc 1 979 0
 2118              		@ sp needed
 2119              	.LVL311:
 2120              	.LVL312:
 2121              	.LVL313:
 2122 012a 04BC     		pop	{r2}
 2123 012c 9046     		mov	r8, r2
 2124 012e F0BD     		pop	{r4, r5, r6, r7, pc}
 2125              	.L180:
 2126              		.align	2
 2127              	.L179:
 2128 0130 00000000 		.word	.LANCHOR0
ARM GAS  C:\Users\Petro\AppData\Local\Temp\cc5IgTu7.s 			page 58


 2129              		.cfi_endproc
 2130              	.LFE16:
 2131              		.size	pf_write, .-pf_write
 2132              		.section	.text.pf_lseek,"ax",%progbits
 2133              		.align	2
 2134              		.global	pf_lseek
 2135              		.code	16
 2136              		.thumb_func
 2137              		.type	pf_lseek, %function
 2138              	pf_lseek:
 2139              	.LFB17:
 980:.\pff.c       **** #endif
 981:.\pff.c       **** 
 982:.\pff.c       **** 
 983:.\pff.c       **** 
 984:.\pff.c       **** /*-----------------------------------------------------------------------*/
 985:.\pff.c       **** /* Seek File R/W Pointer                                                 */
 986:.\pff.c       **** /*-----------------------------------------------------------------------*/
 987:.\pff.c       **** #if _USE_LSEEK
 988:.\pff.c       **** 
 989:.\pff.c       **** FRESULT pf_lseek (
 990:.\pff.c       **** 	DWORD ofs		/* File pointer from top of file */
 991:.\pff.c       **** )
 992:.\pff.c       **** {
 2140              		.loc 1 992 0
 2141              		.cfi_startproc
 2142              	.LVL314:
 2143 0000 F0B5     		push	{r4, r5, r6, r7, lr}
 2144              		.cfi_def_cfa_offset 20
 2145              		.cfi_offset 4, -20
 2146              		.cfi_offset 5, -16
 2147              		.cfi_offset 6, -12
 2148              		.cfi_offset 7, -8
 2149              		.cfi_offset 14, -4
 2150 0002 4746     		mov	r7, r8
 2151 0004 80B4     		push	{r7}
 2152              		.cfi_def_cfa_offset 24
 2153              		.cfi_offset 8, -24
 993:.\pff.c       **** 	CLUST clst;
 994:.\pff.c       **** 	DWORD bcs, sect, ifptr;
 995:.\pff.c       **** 	FATFS *fs = FatFs;
 2154              		.loc 1 995 0
 2155 0006 2B4B     		ldr	r3, .L194
 2156 0008 1C68     		ldr	r4, [r3]
 2157              	.LVL315:
 996:.\pff.c       **** 
 997:.\pff.c       **** 
 998:.\pff.c       **** 	if (!fs) return FR_NOT_ENABLED;		/* Check file system */
 2158              		.loc 1 998 0
 2159 000a 002C     		cmp	r4, #0
 2160 000c 4AD0     		beq	.L191
 999:.\pff.c       **** 	if (!(fs->flag & FA_OPENED))		/* Check if opened */
 2161              		.loc 1 999 0
 2162 000e 6378     		ldrb	r3, [r4, #1]
 2163 0010 DB07     		lsl	r3, r3, #31
 2164 0012 49D5     		bpl	.L192
1000:.\pff.c       **** 			return FR_NOT_OPENED;
ARM GAS  C:\Users\Petro\AppData\Local\Temp\cc5IgTu7.s 			page 59


1001:.\pff.c       **** 
1002:.\pff.c       **** 	if (ofs > fs->fsize) ofs = fs->fsize;	/* Clip offset with the file size */
 2165              		.loc 1 1002 0
 2166 0014 E569     		ldr	r5, [r4, #28]
 2167 0016 8542     		cmp	r5, r0
 2168 0018 00D3     		bcc	.L183
 2169 001a 051C     		mov	r5, r0
 2170              	.L183:
 2171              	.LVL316:
1003:.\pff.c       **** 	ifptr = fs->fptr;
 2172              		.loc 1 1003 0
 2173 001c A769     		ldr	r7, [r4, #24]
 2174              	.LVL317:
1004:.\pff.c       **** 	fs->fptr = 0;
 2175              		.loc 1 1004 0
 2176 001e 0023     		mov	r3, #0
 2177 0020 A361     		str	r3, [r4, #24]
1005:.\pff.c       **** 	if (ofs > 0) {
 2178              		.loc 1 1005 0
 2179 0022 002D     		cmp	r5, #0
 2180 0024 42D0     		beq	.L193
1006:.\pff.c       **** 		bcs = (DWORD)fs->csize * 512;	/* Cluster size (byte) */
 2181              		.loc 1 1006 0
 2182 0026 A678     		ldrb	r6, [r4, #2]
 2183 0028 7602     		lsl	r6, r6, #9
 2184              	.LVL318:
1007:.\pff.c       **** 		if (ifptr > 0 &&
 2185              		.loc 1 1007 0
 2186 002a 002F     		cmp	r7, #0
 2187 002c 11D0     		beq	.L184
1008:.\pff.c       **** 			(ofs - 1) / bcs >= (ifptr - 1) / bcs) {	/* When seek to same or following cluster, */
 2188              		.loc 1 1008 0 discriminator 1
 2189 002e 681E     		sub	r0, r5, #1
 2190 0030 311C     		mov	r1, r6
 2191 0032 FFF7FEFF 		bl	__aeabi_uidiv
 2192              	.LVL319:
 2193 0036 8046     		mov	r8, r0
 2194 0038 013F     		sub	r7, r7, #1
 2195              	.LVL320:
 2196 003a 381C     		mov	r0, r7
 2197 003c 311C     		mov	r1, r6
 2198 003e FFF7FEFF 		bl	__aeabi_uidiv
 2199              	.LVL321:
1007:.\pff.c       **** 		if (ifptr > 0 &&
 2200              		.loc 1 1007 0 discriminator 1
 2201 0042 8045     		cmp	r8, r0
 2202 0044 05D3     		bcc	.L184
1009:.\pff.c       **** 			fs->fptr = (ifptr - 1) & ~(bcs - 1);	/* start from the current cluster */
 2203              		.loc 1 1009 0
 2204 0046 7342     		neg	r3, r6
 2205 0048 1F40     		and	r7, r3
 2206              	.LVL322:
 2207 004a A761     		str	r7, [r4, #24]
1010:.\pff.c       **** 			ofs -= fs->fptr;
 2208              		.loc 1 1010 0
 2209 004c ED1B     		sub	r5, r5, r7
 2210              	.LVL323:
ARM GAS  C:\Users\Petro\AppData\Local\Temp\cc5IgTu7.s 			page 60


1011:.\pff.c       **** 			clst = fs->curr_clust;
 2211              		.loc 1 1011 0
 2212 004e 606A     		ldr	r0, [r4, #36]
 2213              	.LVL324:
 2214 0050 12E0     		b	.L185
 2215              	.LVL325:
 2216              	.L184:
1012:.\pff.c       **** 		} else {							/* When seek to back cluster, */
1013:.\pff.c       **** 			clst = fs->org_clust;			/* start from the first cluster */
 2217              		.loc 1 1013 0
 2218 0052 206A     		ldr	r0, [r4, #32]
 2219              	.LVL326:
1014:.\pff.c       **** 			fs->curr_clust = clst;
 2220              		.loc 1 1014 0
 2221 0054 6062     		str	r0, [r4, #36]
 2222 0056 0FE0     		b	.L185
 2223              	.L189:
1015:.\pff.c       **** 		}
1016:.\pff.c       **** 		while (ofs > bcs) {				/* Cluster following loop */
1017:.\pff.c       **** 			clst = get_fat(clst);		/* Follow cluster chain */
 2224              		.loc 1 1017 0
 2225 0058 FFF7FEFF 		bl	get_fat
 2226              	.LVL327:
1018:.\pff.c       **** 			if (clst <= 1 || clst >= fs->n_fatent) ABORT(FR_DISK_ERR);
 2227              		.loc 1 1018 0
 2228 005c 0128     		cmp	r0, #1
 2229 005e 02D9     		bls	.L187
 2230              		.loc 1 1018 0 is_stmt 0 discriminator 2
 2231 0060 A368     		ldr	r3, [r4, #8]
 2232 0062 8342     		cmp	r3, r0
 2233 0064 03D8     		bhi	.L188
 2234              	.L187:
 2235              		.loc 1 1018 0 discriminator 3
 2236 0066 0023     		mov	r3, #0
 2237 0068 6370     		strb	r3, [r4, #1]
 2238 006a 0120     		mov	r0, #1
 2239              	.LVL328:
 2240 006c 1FE0     		b	.L182
 2241              	.LVL329:
 2242              	.L188:
1019:.\pff.c       **** 			fs->curr_clust = clst;
 2243              		.loc 1 1019 0 is_stmt 1
 2244 006e 6062     		str	r0, [r4, #36]
1020:.\pff.c       **** 			fs->fptr += bcs;
 2245              		.loc 1 1020 0
 2246 0070 A369     		ldr	r3, [r4, #24]
 2247 0072 9B19     		add	r3, r3, r6
 2248 0074 A361     		str	r3, [r4, #24]
1021:.\pff.c       **** 			ofs -= bcs;
 2249              		.loc 1 1021 0
 2250 0076 AD1B     		sub	r5, r5, r6
 2251              	.LVL330:
 2252              	.L185:
1016:.\pff.c       **** 			clst = get_fat(clst);		/* Follow cluster chain */
 2253              		.loc 1 1016 0
 2254 0078 B542     		cmp	r5, r6
 2255 007a EDD8     		bhi	.L189
ARM GAS  C:\Users\Petro\AppData\Local\Temp\cc5IgTu7.s 			page 61


1022:.\pff.c       **** 		}
1023:.\pff.c       **** 		fs->fptr += ofs;
 2256              		.loc 1 1023 0
 2257 007c A369     		ldr	r3, [r4, #24]
 2258 007e 9C46     		mov	ip, r3
 2259 0080 6544     		add	r5, r5, ip
 2260              	.LVL331:
 2261 0082 A561     		str	r5, [r4, #24]
1024:.\pff.c       **** 		sect = clust2sect(clst);		/* Current sector */
 2262              		.loc 1 1024 0
 2263 0084 FFF7FEFF 		bl	clust2sect
 2264              	.LVL332:
1025:.\pff.c       **** 		if (!sect) ABORT(FR_DISK_ERR);
 2265              		.loc 1 1025 0
 2266 0088 0028     		cmp	r0, #0
 2267 008a 03D1     		bne	.L190
 2268              		.loc 1 1025 0 is_stmt 0 discriminator 1
 2269 008c 0023     		mov	r3, #0
 2270 008e 6370     		strb	r3, [r4, #1]
 2271 0090 0130     		add	r0, r0, #1
 2272              	.LVL333:
 2273 0092 0CE0     		b	.L182
 2274              	.LVL334:
 2275              	.L190:
1026:.\pff.c       **** 		fs->dsect = sect + (fs->fptr / 512 & (fs->csize - 1));
 2276              		.loc 1 1026 0 is_stmt 1
 2277 0094 6D0A     		lsr	r5, r5, #9
 2278 0096 A378     		ldrb	r3, [r4, #2]
 2279 0098 013B     		sub	r3, r3, #1
 2280 009a 1D40     		and	r5, r3
 2281 009c 2D18     		add	r5, r5, r0
 2282 009e A562     		str	r5, [r4, #40]
1027:.\pff.c       **** 	}
1028:.\pff.c       **** 
1029:.\pff.c       **** 	return FR_OK;
 2283              		.loc 1 1029 0
 2284 00a0 0020     		mov	r0, #0
 2285              	.LVL335:
 2286 00a2 04E0     		b	.L182
 2287              	.LVL336:
 2288              	.L191:
 998:.\pff.c       **** 	if (!(fs->flag & FA_OPENED))		/* Check if opened */
 2289              		.loc 1 998 0
 2290 00a4 0520     		mov	r0, #5
 2291              	.LVL337:
 2292 00a6 02E0     		b	.L182
 2293              	.LVL338:
 2294              	.L192:
1000:.\pff.c       **** 
 2295              		.loc 1 1000 0
 2296 00a8 0420     		mov	r0, #4
 2297              	.LVL339:
 2298 00aa 00E0     		b	.L182
 2299              	.LVL340:
 2300              	.L193:
 2301              		.loc 1 1029 0
 2302 00ac 0020     		mov	r0, #0
ARM GAS  C:\Users\Petro\AppData\Local\Temp\cc5IgTu7.s 			page 62


 2303              	.LVL341:
 2304              	.L182:
1030:.\pff.c       **** }
 2305              		.loc 1 1030 0
 2306              		@ sp needed
 2307              	.LVL342:
 2308 00ae 04BC     		pop	{r2}
 2309 00b0 9046     		mov	r8, r2
 2310 00b2 F0BD     		pop	{r4, r5, r6, r7, pc}
 2311              	.L195:
 2312              		.align	2
 2313              	.L194:
 2314 00b4 00000000 		.word	.LANCHOR0
 2315              		.cfi_endproc
 2316              	.LFE17:
 2317              		.size	pf_lseek, .-pf_lseek
 2318              		.section	.text.pf_opendir,"ax",%progbits
 2319              		.align	2
 2320              		.global	pf_opendir
 2321              		.code	16
 2322              		.thumb_func
 2323              		.type	pf_opendir, %function
 2324              	pf_opendir:
 2325              	.LFB18:
1031:.\pff.c       **** #endif
1032:.\pff.c       **** 
1033:.\pff.c       **** 
1034:.\pff.c       **** 
1035:.\pff.c       **** /*-----------------------------------------------------------------------*/
1036:.\pff.c       **** /* Create a Directroy Object                                             */
1037:.\pff.c       **** /*-----------------------------------------------------------------------*/
1038:.\pff.c       **** #if _USE_DIR
1039:.\pff.c       **** 
1040:.\pff.c       **** FRESULT pf_opendir (
1041:.\pff.c       **** 	DIR *dj,			/* Pointer to directory object to create */
1042:.\pff.c       **** 	const char *path	/* Pointer to the directory path */
1043:.\pff.c       **** )
1044:.\pff.c       **** {
 2326              		.loc 1 1044 0
 2327              		.cfi_startproc
 2328              	.LVL343:
 2329 0000 30B5     		push	{r4, r5, lr}
 2330              		.cfi_def_cfa_offset 12
 2331              		.cfi_offset 4, -12
 2332              		.cfi_offset 5, -8
 2333              		.cfi_offset 14, -4
 2334 0002 8DB0     		sub	sp, sp, #52
 2335              		.cfi_def_cfa_offset 64
1045:.\pff.c       **** 	FRESULT res;
1046:.\pff.c       **** 	BYTE sp[12], dir[32];
1047:.\pff.c       **** 	FATFS *fs = FatFs;
 2336              		.loc 1 1047 0
 2337 0004 124B     		ldr	r3, .L201
 2338 0006 1B68     		ldr	r3, [r3]
 2339              	.LVL344:
1048:.\pff.c       **** 
1049:.\pff.c       **** 
ARM GAS  C:\Users\Petro\AppData\Local\Temp\cc5IgTu7.s 			page 63


1050:.\pff.c       **** 	if (!fs) {				/* Check file system */
 2340              		.loc 1 1050 0
 2341 0008 002B     		cmp	r3, #0
 2342 000a 1DD0     		beq	.L199
 2343 000c 0A1C     		mov	r2, r1
 2344 000e 051C     		mov	r5, r0
1051:.\pff.c       **** 		res = FR_NOT_ENABLED;
1052:.\pff.c       **** 	} else {
1053:.\pff.c       **** 		dj->fn = sp;
 2345              		.loc 1 1053 0
 2346 0010 09AB     		add	r3, sp, #36
 2347              	.LVL345:
 2348 0012 4360     		str	r3, [r0, #4]
1054:.\pff.c       **** 		res = follow_path(dj, dir, path);		/* Follow the path to the directory */
 2349              		.loc 1 1054 0
 2350 0014 01A9     		add	r1, sp, #4
 2351              	.LVL346:
 2352 0016 FFF7FEFF 		bl	follow_path
 2353              	.LVL347:
 2354 001a 041E     		sub	r4, r0, #0
 2355              	.LVL348:
1055:.\pff.c       **** 		if (res == FR_OK) {						/* Follow completed */
 2356              		.loc 1 1055 0
 2357 001c 15D1     		bne	.L197
1056:.\pff.c       **** 			if (dir[0]) {						/* It is not the root dir */
 2358              		.loc 1 1056 0
 2359 001e 01AB     		add	r3, sp, #4
 2360 0020 1B78     		ldrb	r3, [r3]
 2361 0022 002B     		cmp	r3, #0
 2362 0024 09D0     		beq	.L198
1057:.\pff.c       **** 				if (dir[DIR_Attr] & AM_DIR)		/* The object is a directory */
 2363              		.loc 1 1057 0
 2364 0026 01AB     		add	r3, sp, #4
 2365 0028 DB7A     		ldrb	r3, [r3, #11]
 2366 002a DB06     		lsl	r3, r3, #27
 2367 002c 04D5     		bpl	.L200
1058:.\pff.c       **** 					dj->sclust = get_clust(dir);
 2368              		.loc 1 1058 0
 2369 002e 01A8     		add	r0, sp, #4
 2370              	.LVL349:
 2371 0030 FFF7FEFF 		bl	get_clust
 2372              	.LVL350:
 2373 0034 A860     		str	r0, [r5, #8]
 2374 0036 00E0     		b	.L198
 2375              	.LVL351:
 2376              	.L200:
1059:.\pff.c       **** 				else							/* The object is not a directory */
1060:.\pff.c       **** 					res = FR_NO_FILE;
 2377              		.loc 1 1060 0
 2378 0038 0324     		mov	r4, #3
 2379              	.LVL352:
 2380              	.L198:
1061:.\pff.c       **** 			}
1062:.\pff.c       **** 			if (res == FR_OK)
 2381              		.loc 1 1062 0
 2382 003a 002C     		cmp	r4, #0
 2383 003c 05D1     		bne	.L197
ARM GAS  C:\Users\Petro\AppData\Local\Temp\cc5IgTu7.s 			page 64


1063:.\pff.c       **** 				res = dir_rewind(dj);			/* Rewind dir */
 2384              		.loc 1 1063 0
 2385 003e 281C     		mov	r0, r5
 2386 0040 FFF7FEFF 		bl	dir_rewind
 2387              	.LVL353:
 2388 0044 041C     		mov	r4, r0
 2389              	.LVL354:
 2390 0046 00E0     		b	.L197
 2391              	.LVL355:
 2392              	.L199:
1051:.\pff.c       **** 	} else {
 2393              		.loc 1 1051 0
 2394 0048 0524     		mov	r4, #5
 2395              	.LVL356:
 2396              	.L197:
1064:.\pff.c       **** 		}
1065:.\pff.c       **** 	}
1066:.\pff.c       **** 
1067:.\pff.c       **** 	return res;
1068:.\pff.c       **** }
 2397              		.loc 1 1068 0
 2398 004a 201C     		mov	r0, r4
 2399 004c 0DB0     		add	sp, sp, #52
 2400              		@ sp needed
 2401              	.LVL357:
 2402 004e 30BD     		pop	{r4, r5, pc}
 2403              	.L202:
 2404              		.align	2
 2405              	.L201:
 2406 0050 00000000 		.word	.LANCHOR0
 2407              		.cfi_endproc
 2408              	.LFE18:
 2409              		.size	pf_opendir, .-pf_opendir
 2410              		.section	.text.pf_readdir,"ax",%progbits
 2411              		.align	2
 2412              		.global	pf_readdir
 2413              		.code	16
 2414              		.thumb_func
 2415              		.type	pf_readdir, %function
 2416              	pf_readdir:
 2417              	.LFB19:
1069:.\pff.c       **** 
1070:.\pff.c       **** 
1071:.\pff.c       **** 
1072:.\pff.c       **** 
1073:.\pff.c       **** /*-----------------------------------------------------------------------*/
1074:.\pff.c       **** /* Read Directory Entry in Sequense                                      */
1075:.\pff.c       **** /*-----------------------------------------------------------------------*/
1076:.\pff.c       **** 
1077:.\pff.c       **** FRESULT pf_readdir (
1078:.\pff.c       **** 	DIR *dj,			/* Pointer to the open directory object */
1079:.\pff.c       **** 	FILINFO *fno		/* Pointer to file information to return */
1080:.\pff.c       **** )
1081:.\pff.c       **** {
 2418              		.loc 1 1081 0
 2419              		.cfi_startproc
 2420              	.LVL358:
ARM GAS  C:\Users\Petro\AppData\Local\Temp\cc5IgTu7.s 			page 65


 2421 0000 70B5     		push	{r4, r5, r6, lr}
 2422              		.cfi_def_cfa_offset 16
 2423              		.cfi_offset 4, -16
 2424              		.cfi_offset 5, -12
 2425              		.cfi_offset 6, -8
 2426              		.cfi_offset 14, -4
 2427 0002 8CB0     		sub	sp, sp, #48
 2428              		.cfi_def_cfa_offset 64
1082:.\pff.c       **** 	FRESULT res;
1083:.\pff.c       **** 	BYTE sp[12], dir[32];
1084:.\pff.c       **** 	FATFS *fs = FatFs;
 2429              		.loc 1 1084 0
 2430 0004 134B     		ldr	r3, .L209
 2431 0006 1B68     		ldr	r3, [r3]
 2432              	.LVL359:
1085:.\pff.c       **** 
1086:.\pff.c       **** 
1087:.\pff.c       **** 	if (!fs) {				/* Check file system */
 2433              		.loc 1 1087 0
 2434 0008 002B     		cmp	r3, #0
 2435 000a 1ED0     		beq	.L207
 2436 000c 0E1C     		mov	r6, r1
 2437 000e 051C     		mov	r5, r0
1088:.\pff.c       **** 		res = FR_NOT_ENABLED;
1089:.\pff.c       **** 	} else {
1090:.\pff.c       **** 		dj->fn = sp;
 2438              		.loc 1 1090 0
 2439 0010 09AB     		add	r3, sp, #36
 2440              	.LVL360:
 2441 0012 4360     		str	r3, [r0, #4]
1091:.\pff.c       **** 		if (!fno) {
 2442              		.loc 1 1091 0
 2443 0014 0029     		cmp	r1, #0
 2444 0016 03D1     		bne	.L205
1092:.\pff.c       **** 			res = dir_rewind(dj);
 2445              		.loc 1 1092 0
 2446 0018 FFF7FEFF 		bl	dir_rewind
 2447              	.LVL361:
 2448 001c 041C     		mov	r4, r0
 2449              	.LVL362:
 2450 001e 15E0     		b	.L204
 2451              	.LVL363:
 2452              	.L205:
1093:.\pff.c       **** 		} else {
1094:.\pff.c       **** 			res = dir_read(dj, dir);	/* Get current directory item */
 2453              		.loc 1 1094 0
 2454 0020 01A9     		add	r1, sp, #4
 2455              	.LVL364:
 2456 0022 FFF7FEFF 		bl	dir_read
 2457              	.LVL365:
 2458 0026 041E     		sub	r4, r0, #0
 2459              	.LVL366:
1095:.\pff.c       **** 			if (res == FR_NO_FILE) res = FR_OK;
 2460              		.loc 1 1095 0
 2461 0028 032C     		cmp	r4, #3
 2462 002a 00D1     		bne	.L206
 2463 002c 0024     		mov	r4, #0
ARM GAS  C:\Users\Petro\AppData\Local\Temp\cc5IgTu7.s 			page 66


 2464              	.L206:
 2465              	.LVL367:
1096:.\pff.c       **** 			if (res == FR_OK) {				/* A valid entry is found */
 2466              		.loc 1 1096 0
 2467 002e 002C     		cmp	r4, #0
 2468 0030 0CD1     		bne	.L204
1097:.\pff.c       **** 				get_fileinfo(dj, dir, fno);	/* Get the object information */
 2469              		.loc 1 1097 0
 2470 0032 281C     		mov	r0, r5
 2471 0034 01A9     		add	r1, sp, #4
 2472 0036 321C     		mov	r2, r6
 2473 0038 FFF7FEFF 		bl	get_fileinfo
 2474              	.LVL368:
1098:.\pff.c       **** 				res = dir_next(dj);			/* Increment read index for next */
 2475              		.loc 1 1098 0
 2476 003c 281C     		mov	r0, r5
 2477 003e FFF7FEFF 		bl	dir_next
 2478              	.LVL369:
1099:.\pff.c       **** 				if (res == FR_NO_FILE) res = FR_OK;
 2479              		.loc 1 1099 0
 2480 0042 0328     		cmp	r0, #3
 2481 0044 02D0     		beq	.L204
1098:.\pff.c       **** 				res = dir_next(dj);			/* Increment read index for next */
 2482              		.loc 1 1098 0
 2483 0046 041C     		mov	r4, r0
 2484 0048 00E0     		b	.L204
 2485              	.LVL370:
 2486              	.L207:
1088:.\pff.c       **** 	} else {
 2487              		.loc 1 1088 0
 2488 004a 0524     		mov	r4, #5
 2489              	.LVL371:
 2490              	.L204:
1100:.\pff.c       **** 			}
1101:.\pff.c       **** 		}
1102:.\pff.c       **** 	}
1103:.\pff.c       **** 
1104:.\pff.c       **** 	return res;
1105:.\pff.c       **** }
 2491              		.loc 1 1105 0
 2492 004c 201C     		mov	r0, r4
 2493 004e 0CB0     		add	sp, sp, #48
 2494              		@ sp needed
 2495              	.LVL372:
 2496 0050 70BD     		pop	{r4, r5, r6, pc}
 2497              	.L210:
 2498 0052 C046     		.align	2
 2499              	.L209:
 2500 0054 00000000 		.word	.LANCHOR0
 2501              		.cfi_endproc
 2502              	.LFE19:
 2503              		.size	pf_readdir, .-pf_readdir
 2504              		.bss
 2505              		.align	2
 2506              		.set	.LANCHOR0,. + 0
 2507              		.type	FatFs, %object
 2508              		.size	FatFs, 4
ARM GAS  C:\Users\Petro\AppData\Local\Temp\cc5IgTu7.s 			page 67


 2509              	FatFs:
 2510 0000 00000000 		.space	4
 2511              		.text
 2512              	.Letext0:
 2513              		.file 2 ".\\integer.h"
 2514              		.file 3 ".\\pff.h"
 2515              		.file 4 ".\\diskio.h"
 2516              		.section	.debug_info,"",%progbits
 2517              	.Ldebug_info0:
 2518 0000 FD0F0000 		.4byte	0xffd
 2519 0004 0400     		.2byte	0x4
 2520 0006 00000000 		.4byte	.Ldebug_abbrev0
 2521 000a 04       		.byte	0x4
 2522 000b 01       		.uleb128 0x1
 2523 000c 39010000 		.4byte	.LASF82
 2524 0010 01       		.byte	0x1
 2525 0011 95030000 		.4byte	.LASF83
 2526 0015 B8020000 		.4byte	.LASF84
 2527 0019 18000000 		.4byte	.Ldebug_ranges0+0x18
 2528 001d 00000000 		.4byte	0
 2529 0021 00000000 		.4byte	.Ldebug_line0
 2530 0025 02       		.uleb128 0x2
 2531 0026 87000000 		.4byte	.LASF2
 2532 002a 02       		.byte	0x2
 2533 002b 10       		.byte	0x10
 2534 002c 30000000 		.4byte	0x30
 2535 0030 03       		.uleb128 0x3
 2536 0031 01       		.byte	0x1
 2537 0032 08       		.byte	0x8
 2538 0033 E1010000 		.4byte	.LASF0
 2539 0037 03       		.uleb128 0x3
 2540 0038 02       		.byte	0x2
 2541 0039 05       		.byte	0x5
 2542 003a 4A000000 		.4byte	.LASF1
 2543 003e 02       		.uleb128 0x2
 2544 003f AC000000 		.4byte	.LASF3
 2545 0043 02       		.byte	0x2
 2546 0044 14       		.byte	0x14
 2547 0045 49000000 		.4byte	0x49
 2548 0049 03       		.uleb128 0x3
 2549 004a 02       		.byte	0x2
 2550 004b 07       		.byte	0x7
 2551 004c 66020000 		.4byte	.LASF4
 2552 0050 04       		.uleb128 0x4
 2553 0051 04       		.byte	0x4
 2554 0052 05       		.byte	0x5
 2555 0053 696E7400 		.ascii	"int\000"
 2556 0057 02       		.uleb128 0x2
 2557 0058 28010000 		.4byte	.LASF5
 2558 005c 02       		.byte	0x2
 2559 005d 19       		.byte	0x19
 2560 005e 62000000 		.4byte	0x62
 2561 0062 03       		.uleb128 0x3
 2562 0063 04       		.byte	0x4
 2563 0064 07       		.byte	0x7
 2564 0065 09020000 		.4byte	.LASF6
 2565 0069 03       		.uleb128 0x3
ARM GAS  C:\Users\Petro\AppData\Local\Temp\cc5IgTu7.s 			page 68


 2566 006a 04       		.byte	0x4
 2567 006b 05       		.byte	0x5
 2568 006c FA000000 		.4byte	.LASF7
 2569 0070 02       		.uleb128 0x2
 2570 0071 C7010000 		.4byte	.LASF8
 2571 0075 02       		.byte	0x2
 2572 0076 1D       		.byte	0x1d
 2573 0077 7B000000 		.4byte	0x7b
 2574 007b 03       		.uleb128 0x3
 2575 007c 04       		.byte	0x4
 2576 007d 07       		.byte	0x7
 2577 007e 1F030000 		.4byte	.LASF9
 2578 0082 05       		.uleb128 0x5
 2579 0083 2C       		.byte	0x2c
 2580 0084 03       		.byte	0x3
 2581 0085 28       		.byte	0x28
 2582 0086 33010000 		.4byte	0x133
 2583 008a 06       		.uleb128 0x6
 2584 008b 17030000 		.4byte	.LASF10
 2585 008f 03       		.byte	0x3
 2586 0090 29       		.byte	0x29
 2587 0091 25000000 		.4byte	0x25
 2588 0095 00       		.byte	0
 2589 0096 06       		.uleb128 0x6
 2590 0097 80030000 		.4byte	.LASF11
 2591 009b 03       		.byte	0x3
 2592 009c 2A       		.byte	0x2a
 2593 009d 25000000 		.4byte	0x25
 2594 00a1 01       		.byte	0x1
 2595 00a2 06       		.uleb128 0x6
 2596 00a3 09010000 		.4byte	.LASF12
 2597 00a7 03       		.byte	0x3
 2598 00a8 2B       		.byte	0x2b
 2599 00a9 25000000 		.4byte	0x25
 2600 00ad 02       		.byte	0x2
 2601 00ae 06       		.uleb128 0x6
 2602 00af F5000000 		.4byte	.LASF13
 2603 00b3 03       		.byte	0x3
 2604 00b4 2C       		.byte	0x2c
 2605 00b5 25000000 		.4byte	0x25
 2606 00b9 03       		.byte	0x3
 2607 00ba 06       		.uleb128 0x6
 2608 00bb 91000000 		.4byte	.LASF14
 2609 00bf 03       		.byte	0x3
 2610 00c0 2D       		.byte	0x2d
 2611 00c1 3E000000 		.4byte	0x3e
 2612 00c5 04       		.byte	0x4
 2613 00c6 06       		.uleb128 0x6
 2614 00c7 2F000000 		.4byte	.LASF15
 2615 00cb 03       		.byte	0x3
 2616 00cc 2E       		.byte	0x2e
 2617 00cd 70000000 		.4byte	0x70
 2618 00d1 08       		.byte	0x8
 2619 00d2 06       		.uleb128 0x6
 2620 00d3 8A020000 		.4byte	.LASF16
 2621 00d7 03       		.byte	0x3
 2622 00d8 2F       		.byte	0x2f
ARM GAS  C:\Users\Petro\AppData\Local\Temp\cc5IgTu7.s 			page 69


 2623 00d9 70000000 		.4byte	0x70
 2624 00dd 0C       		.byte	0xc
 2625 00de 06       		.uleb128 0x6
 2626 00df 43030000 		.4byte	.LASF17
 2627 00e3 03       		.byte	0x3
 2628 00e4 30       		.byte	0x30
 2629 00e5 70000000 		.4byte	0x70
 2630 00e9 10       		.byte	0x10
 2631 00ea 06       		.uleb128 0x6
 2632 00eb 7E000000 		.4byte	.LASF18
 2633 00ef 03       		.byte	0x3
 2634 00f0 31       		.byte	0x31
 2635 00f1 70000000 		.4byte	0x70
 2636 00f5 14       		.byte	0x14
 2637 00f6 06       		.uleb128 0x6
 2638 00f7 29020000 		.4byte	.LASF19
 2639 00fb 03       		.byte	0x3
 2640 00fc 32       		.byte	0x32
 2641 00fd 70000000 		.4byte	0x70
 2642 0101 18       		.byte	0x18
 2643 0102 06       		.uleb128 0x6
 2644 0103 33010000 		.4byte	.LASF20
 2645 0107 03       		.byte	0x3
 2646 0108 33       		.byte	0x33
 2647 0109 70000000 		.4byte	0x70
 2648 010d 1C       		.byte	0x1c
 2649 010e 06       		.uleb128 0x6
 2650 010f E2000000 		.4byte	.LASF21
 2651 0113 03       		.byte	0x3
 2652 0114 34       		.byte	0x34
 2653 0115 70000000 		.4byte	0x70
 2654 0119 20       		.byte	0x20
 2655 011a 06       		.uleb128 0x6
 2656 011b 75030000 		.4byte	.LASF22
 2657 011f 03       		.byte	0x3
 2658 0120 35       		.byte	0x35
 2659 0121 70000000 		.4byte	0x70
 2660 0125 24       		.byte	0x24
 2661 0126 06       		.uleb128 0x6
 2662 0127 6A000000 		.4byte	.LASF23
 2663 012b 03       		.byte	0x3
 2664 012c 36       		.byte	0x36
 2665 012d 70000000 		.4byte	0x70
 2666 0131 28       		.byte	0x28
 2667 0132 00       		.byte	0
 2668 0133 02       		.uleb128 0x2
 2669 0134 00000000 		.4byte	.LASF24
 2670 0138 03       		.byte	0x3
 2671 0139 37       		.byte	0x37
 2672 013a 82000000 		.4byte	0x82
 2673 013e 05       		.uleb128 0x5
 2674 013f 14       		.byte	0x14
 2675 0140 03       		.byte	0x3
 2676 0141 3D       		.byte	0x3d
 2677 0142 82010000 		.4byte	0x182
 2678 0146 06       		.uleb128 0x6
 2679 0147 B1000000 		.4byte	.LASF25
ARM GAS  C:\Users\Petro\AppData\Local\Temp\cc5IgTu7.s 			page 70


 2680 014b 03       		.byte	0x3
 2681 014c 3E       		.byte	0x3e
 2682 014d 3E000000 		.4byte	0x3e
 2683 0151 00       		.byte	0
 2684 0152 07       		.uleb128 0x7
 2685 0153 666E00   		.ascii	"fn\000"
 2686 0156 03       		.byte	0x3
 2687 0157 3F       		.byte	0x3f
 2688 0158 82010000 		.4byte	0x182
 2689 015c 04       		.byte	0x4
 2690 015d 06       		.uleb128 0x6
 2691 015e 60030000 		.4byte	.LASF26
 2692 0162 03       		.byte	0x3
 2693 0163 40       		.byte	0x40
 2694 0164 70000000 		.4byte	0x70
 2695 0168 08       		.byte	0x8
 2696 0169 06       		.uleb128 0x6
 2697 016a 03010000 		.4byte	.LASF27
 2698 016e 03       		.byte	0x3
 2699 016f 41       		.byte	0x41
 2700 0170 70000000 		.4byte	0x70
 2701 0174 0C       		.byte	0xc
 2702 0175 06       		.uleb128 0x6
 2703 0176 8C000000 		.4byte	.LASF28
 2704 017a 03       		.byte	0x3
 2705 017b 42       		.byte	0x42
 2706 017c 70000000 		.4byte	0x70
 2707 0180 10       		.byte	0x10
 2708 0181 00       		.byte	0
 2709 0182 08       		.uleb128 0x8
 2710 0183 04       		.byte	0x4
 2711 0184 25000000 		.4byte	0x25
 2712 0188 09       		.uleb128 0x9
 2713 0189 44495200 		.ascii	"DIR\000"
 2714 018d 03       		.byte	0x3
 2715 018e 43       		.byte	0x43
 2716 018f 3E010000 		.4byte	0x13e
 2717 0193 05       		.uleb128 0x5
 2718 0194 18       		.byte	0x18
 2719 0195 03       		.byte	0x3
 2720 0196 49       		.byte	0x49
 2721 0197 D8010000 		.4byte	0x1d8
 2722 019b 06       		.uleb128 0x6
 2723 019c 33010000 		.4byte	.LASF20
 2724 01a0 03       		.byte	0x3
 2725 01a1 4A       		.byte	0x4a
 2726 01a2 70000000 		.4byte	0x70
 2727 01a6 00       		.byte	0
 2728 01a7 06       		.uleb128 0x6
 2729 01a8 67030000 		.4byte	.LASF29
 2730 01ac 03       		.byte	0x3
 2731 01ad 4B       		.byte	0x4b
 2732 01ae 3E000000 		.4byte	0x3e
 2733 01b2 04       		.byte	0x4
 2734 01b3 06       		.uleb128 0x6
 2735 01b4 9B000000 		.4byte	.LASF30
 2736 01b8 03       		.byte	0x3
ARM GAS  C:\Users\Petro\AppData\Local\Temp\cc5IgTu7.s 			page 71


 2737 01b9 4C       		.byte	0x4c
 2738 01ba 3E000000 		.4byte	0x3e
 2739 01be 06       		.byte	0x6
 2740 01bf 06       		.uleb128 0x6
 2741 01c0 9C020000 		.4byte	.LASF31
 2742 01c4 03       		.byte	0x3
 2743 01c5 4D       		.byte	0x4d
 2744 01c6 25000000 		.4byte	0x25
 2745 01ca 08       		.byte	0x8
 2746 01cb 06       		.uleb128 0x6
 2747 01cc 3D020000 		.4byte	.LASF32
 2748 01d0 03       		.byte	0x3
 2749 01d1 4E       		.byte	0x4e
 2750 01d2 D8010000 		.4byte	0x1d8
 2751 01d6 09       		.byte	0x9
 2752 01d7 00       		.byte	0
 2753 01d8 0A       		.uleb128 0xa
 2754 01d9 EF010000 		.4byte	0x1ef
 2755 01dd E8010000 		.4byte	0x1e8
 2756 01e1 0B       		.uleb128 0xb
 2757 01e2 E8010000 		.4byte	0x1e8
 2758 01e6 0C       		.byte	0xc
 2759 01e7 00       		.byte	0
 2760 01e8 03       		.uleb128 0x3
 2761 01e9 04       		.byte	0x4
 2762 01ea 07       		.byte	0x7
 2763 01eb 0F010000 		.4byte	.LASF33
 2764 01ef 03       		.uleb128 0x3
 2765 01f0 01       		.byte	0x1
 2766 01f1 08       		.byte	0x8
 2767 01f2 85020000 		.4byte	.LASF34
 2768 01f6 02       		.uleb128 0x2
 2769 01f7 27000000 		.4byte	.LASF35
 2770 01fb 03       		.byte	0x3
 2771 01fc 4F       		.byte	0x4f
 2772 01fd 93010000 		.4byte	0x193
 2773 0201 0C       		.uleb128 0xc
 2774 0202 01       		.byte	0x1
 2775 0203 03       		.byte	0x3
 2776 0204 55       		.byte	0x55
 2777 0205 34020000 		.4byte	0x234
 2778 0209 0D       		.uleb128 0xd
 2779 020a B7000000 		.4byte	.LASF36
 2780 020e 00       		.sleb128 0
 2781 020f 0D       		.uleb128 0xd
 2782 0210 CB000000 		.4byte	.LASF37
 2783 0214 01       		.sleb128 1
 2784 0215 0D       		.uleb128 0xd
 2785 0216 0A030000 		.4byte	.LASF38
 2786 021a 02       		.sleb128 2
 2787 021b 0D       		.uleb128 0xd
 2788 021c 1E020000 		.4byte	.LASF39
 2789 0220 03       		.sleb128 3
 2790 0221 0D       		.uleb128 0xd
 2791 0222 5C000000 		.4byte	.LASF40
 2792 0226 04       		.sleb128 4
 2793 0227 0D       		.uleb128 0xd
ARM GAS  C:\Users\Petro\AppData\Local\Temp\cc5IgTu7.s 			page 72


 2794 0228 4C020000 		.4byte	.LASF41
 2795 022c 05       		.sleb128 5
 2796 022d 0D       		.uleb128 0xd
 2797 022e 0C000000 		.4byte	.LASF42
 2798 0232 06       		.sleb128 6
 2799 0233 00       		.byte	0
 2800 0234 02       		.uleb128 0x2
 2801 0235 01020000 		.4byte	.LASF43
 2802 0239 03       		.byte	0x3
 2803 023a 5D       		.byte	0x5d
 2804 023b 01020000 		.4byte	0x201
 2805 023f 02       		.uleb128 0x2
 2806 0240 85030000 		.4byte	.LASF44
 2807 0244 04       		.byte	0x4
 2808 0245 10       		.byte	0x10
 2809 0246 25000000 		.4byte	0x25
 2810 024a 0C       		.uleb128 0xc
 2811 024b 01       		.byte	0x1
 2812 024c 04       		.byte	0x4
 2813 024d 14       		.byte	0x14
 2814 024e 6B020000 		.4byte	0x26b
 2815 0252 0D       		.uleb128 0xd
 2816 0253 43000000 		.4byte	.LASF45
 2817 0257 00       		.sleb128 0
 2818 0258 0D       		.uleb128 0xd
 2819 0259 1D000000 		.4byte	.LASF46
 2820 025d 01       		.sleb128 1
 2821 025e 0D       		.uleb128 0xd
 2822 025f A4020000 		.4byte	.LASF47
 2823 0263 02       		.sleb128 2
 2824 0264 0D       		.uleb128 0xd
 2825 0265 9D030000 		.4byte	.LASF48
 2826 0269 03       		.sleb128 3
 2827 026a 00       		.byte	0
 2828 026b 02       		.uleb128 0x2
 2829 026c 58030000 		.4byte	.LASF49
 2830 0270 04       		.byte	0x4
 2831 0271 19       		.byte	0x19
 2832 0272 4A020000 		.4byte	0x24a
 2833 0276 0E       		.uleb128 0xe
 2834 0277 8D030000 		.4byte	.LASF57
 2835 027b 01       		.byte	0x1
 2836 027c 4801     		.2byte	0x148
 2837 027e 00000000 		.4byte	.LFB0
 2838 0282 10000000 		.4byte	.LFE0-.LFB0
 2839 0286 01       		.uleb128 0x1
 2840 0287 9C       		.byte	0x9c
 2841 0288 C9020000 		.4byte	0x2c9
 2842 028c 0F       		.uleb128 0xf
 2843 028d 64737400 		.ascii	"dst\000"
 2844 0291 01       		.byte	0x1
 2845 0292 4801     		.2byte	0x148
 2846 0294 C9020000 		.4byte	0x2c9
 2847 0298 00000000 		.4byte	.LLST0
 2848 029c 10       		.uleb128 0x10
 2849 029d 76616C00 		.ascii	"val\000"
 2850 02a1 01       		.byte	0x1
ARM GAS  C:\Users\Petro\AppData\Local\Temp\cc5IgTu7.s 			page 73


 2851 02a2 4801     		.2byte	0x148
 2852 02a4 50000000 		.4byte	0x50
 2853 02a8 01       		.uleb128 0x1
 2854 02a9 51       		.byte	0x51
 2855 02aa 0F       		.uleb128 0xf
 2856 02ab 636E7400 		.ascii	"cnt\000"
 2857 02af 01       		.byte	0x1
 2858 02b0 4801     		.2byte	0x148
 2859 02b2 50000000 		.4byte	0x50
 2860 02b6 21000000 		.4byte	.LLST1
 2861 02ba 11       		.uleb128 0x11
 2862 02bb 6400     		.ascii	"d\000"
 2863 02bd 01       		.byte	0x1
 2864 02be 4901     		.2byte	0x149
 2865 02c0 CB020000 		.4byte	0x2cb
 2866 02c4 55000000 		.4byte	.LLST2
 2867 02c8 00       		.byte	0
 2868 02c9 12       		.uleb128 0x12
 2869 02ca 04       		.byte	0x4
 2870 02cb 08       		.uleb128 0x8
 2871 02cc 04       		.byte	0x4
 2872 02cd EF010000 		.4byte	0x1ef
 2873 02d1 13       		.uleb128 0x13
 2874 02d2 6D030000 		.4byte	.LASF50
 2875 02d6 01       		.byte	0x1
 2876 02d7 4F01     		.2byte	0x14f
 2877 02d9 50000000 		.4byte	0x50
 2878 02dd 00000000 		.4byte	.LFB1
 2879 02e1 24000000 		.4byte	.LFE1-.LFB1
 2880 02e5 01       		.uleb128 0x1
 2881 02e6 9C       		.byte	0x9c
 2882 02e7 46030000 		.4byte	0x346
 2883 02eb 0F       		.uleb128 0xf
 2884 02ec 64737400 		.ascii	"dst\000"
 2885 02f0 01       		.byte	0x1
 2886 02f1 4F01     		.2byte	0x14f
 2887 02f3 46030000 		.4byte	0x346
 2888 02f7 80000000 		.4byte	.LLST3
 2889 02fb 0F       		.uleb128 0xf
 2890 02fc 73726300 		.ascii	"src\000"
 2891 0300 01       		.byte	0x1
 2892 0301 4F01     		.2byte	0x14f
 2893 0303 46030000 		.4byte	0x346
 2894 0307 AC000000 		.4byte	.LLST4
 2895 030b 0F       		.uleb128 0xf
 2896 030c 636E7400 		.ascii	"cnt\000"
 2897 0310 01       		.byte	0x1
 2898 0311 4F01     		.2byte	0x14f
 2899 0313 50000000 		.4byte	0x50
 2900 0317 CD000000 		.4byte	.LLST5
 2901 031b 11       		.uleb128 0x11
 2902 031c 6400     		.ascii	"d\000"
 2903 031e 01       		.byte	0x1
 2904 031f 5001     		.2byte	0x150
 2905 0321 4D030000 		.4byte	0x34d
 2906 0325 EB000000 		.4byte	.LLST6
 2907 0329 11       		.uleb128 0x11
ARM GAS  C:\Users\Petro\AppData\Local\Temp\cc5IgTu7.s 			page 74


 2908 032a 7300     		.ascii	"s\000"
 2909 032c 01       		.byte	0x1
 2910 032d 5001     		.2byte	0x150
 2911 032f 4D030000 		.4byte	0x34d
 2912 0333 2A010000 		.4byte	.LLST7
 2913 0337 11       		.uleb128 0x11
 2914 0338 7200     		.ascii	"r\000"
 2915 033a 01       		.byte	0x1
 2916 033b 5101     		.2byte	0x151
 2917 033d 50000000 		.4byte	0x50
 2918 0341 5E010000 		.4byte	.LLST8
 2919 0345 00       		.byte	0
 2920 0346 08       		.uleb128 0x8
 2921 0347 04       		.byte	0x4
 2922 0348 4C030000 		.4byte	0x34c
 2923 034c 14       		.uleb128 0x14
 2924 034d 08       		.uleb128 0x8
 2925 034e 04       		.byte	0x4
 2926 034f 53030000 		.4byte	0x353
 2927 0353 15       		.uleb128 0x15
 2928 0354 EF010000 		.4byte	0x1ef
 2929 0358 13       		.uleb128 0x13
 2930 0359 A1000000 		.4byte	.LASF51
 2931 035d 01       		.byte	0x1
 2932 035e 8F01     		.2byte	0x18f
 2933 0360 70000000 		.4byte	0x70
 2934 0364 00000000 		.4byte	.LFB3
 2935 0368 20000000 		.4byte	.LFE3-.LFB3
 2936 036c 01       		.uleb128 0x1
 2937 036d 9C       		.byte	0x9c
 2938 036e 90030000 		.4byte	0x390
 2939 0372 16       		.uleb128 0x16
 2940 0373 C7030000 		.4byte	.LASF52
 2941 0377 01       		.byte	0x1
 2942 0378 9001     		.2byte	0x190
 2943 037a 70000000 		.4byte	0x70
 2944 037e 88010000 		.4byte	.LLST9
 2945 0382 17       		.uleb128 0x17
 2946 0383 667300   		.ascii	"fs\000"
 2947 0386 01       		.byte	0x1
 2948 0387 9301     		.2byte	0x193
 2949 0389 90030000 		.4byte	0x390
 2950 038d 01       		.uleb128 0x1
 2951 038e 52       		.byte	0x52
 2952 038f 00       		.byte	0
 2953 0390 08       		.uleb128 0x8
 2954 0391 04       		.byte	0x4
 2955 0392 33010000 		.4byte	0x133
 2956 0396 13       		.uleb128 0x13
 2957 0397 92020000 		.4byte	.LASF53
 2958 039b 01       		.byte	0x1
 2959 039c 9D01     		.2byte	0x19d
 2960 039e 70000000 		.4byte	0x70
 2961 03a2 00000000 		.4byte	.LFB4
 2962 03a6 1C000000 		.4byte	.LFE4-.LFB4
 2963 03aa 01       		.uleb128 0x1
 2964 03ab 9C       		.byte	0x9c
ARM GAS  C:\Users\Petro\AppData\Local\Temp\cc5IgTu7.s 			page 75


 2965 03ac E0030000 		.4byte	0x3e0
 2966 03b0 0F       		.uleb128 0xf
 2967 03b1 64697200 		.ascii	"dir\000"
 2968 03b5 01       		.byte	0x1
 2969 03b6 9E01     		.2byte	0x19e
 2970 03b8 82010000 		.4byte	0x182
 2971 03bc D1010000 		.4byte	.LLST10
 2972 03c0 11       		.uleb128 0x11
 2973 03c1 667300   		.ascii	"fs\000"
 2974 03c4 01       		.byte	0x1
 2975 03c5 A101     		.2byte	0x1a1
 2976 03c7 90030000 		.4byte	0x390
 2977 03cb F2010000 		.4byte	.LLST11
 2978 03cf 18       		.uleb128 0x18
 2979 03d0 C7030000 		.4byte	.LASF52
 2980 03d4 01       		.byte	0x1
 2981 03d5 A201     		.2byte	0x1a2
 2982 03d7 70000000 		.4byte	0x70
 2983 03db 14020000 		.4byte	.LLST12
 2984 03df 00       		.byte	0
 2985 03e0 13       		.uleb128 0x13
 2986 03e1 CD010000 		.4byte	.LASF54
 2987 03e5 01       		.byte	0x1
 2988 03e6 B401     		.2byte	0x1b4
 2989 03e8 34020000 		.4byte	0x234
 2990 03ec 00000000 		.4byte	.LFB5
 2991 03f0 48000000 		.4byte	.LFE5-.LFB5
 2992 03f4 01       		.uleb128 0x1
 2993 03f5 9C       		.byte	0x9c
 2994 03f6 32040000 		.4byte	0x432
 2995 03fa 0F       		.uleb128 0xf
 2996 03fb 646A00   		.ascii	"dj\000"
 2997 03fe 01       		.byte	0x1
 2998 03ff B501     		.2byte	0x1b5
 2999 0401 32040000 		.4byte	0x432
 3000 0405 55020000 		.4byte	.LLST13
 3001 0409 18       		.uleb128 0x18
 3002 040a C7030000 		.4byte	.LASF52
 3003 040e 01       		.byte	0x1
 3004 040f B801     		.2byte	0x1b8
 3005 0411 70000000 		.4byte	0x70
 3006 0415 BB020000 		.4byte	.LLST14
 3007 0419 11       		.uleb128 0x11
 3008 041a 667300   		.ascii	"fs\000"
 3009 041d 01       		.byte	0x1
 3010 041e B901     		.2byte	0x1b9
 3011 0420 90030000 		.4byte	0x390
 3012 0424 E4020000 		.4byte	.LLST15
 3013 0428 19       		.uleb128 0x19
 3014 0429 30000000 		.4byte	.LVL36
 3015 042d 58030000 		.4byte	0x358
 3016 0431 00       		.byte	0
 3017 0432 08       		.uleb128 0x8
 3018 0433 04       		.byte	0x4
 3019 0434 88010000 		.4byte	0x188
 3020 0438 13       		.uleb128 0x13
 3021 0439 F5010000 		.4byte	.LASF55
ARM GAS  C:\Users\Petro\AppData\Local\Temp\cc5IgTu7.s 			page 76


 3022 043d 01       		.byte	0x1
 3023 043e 4402     		.2byte	0x244
 3024 0440 34020000 		.4byte	0x234
 3025 0444 00000000 		.4byte	.LFB9
 3026 0448 5A000000 		.4byte	.LFE9-.LFB9
 3027 044c 01       		.uleb128 0x1
 3028 044d 9C       		.byte	0x9c
 3029 044e E5040000 		.4byte	0x4e5
 3030 0452 0F       		.uleb128 0xf
 3031 0453 646A00   		.ascii	"dj\000"
 3032 0456 01       		.byte	0x1
 3033 0457 4502     		.2byte	0x245
 3034 0459 32040000 		.4byte	0x432
 3035 045d 0D030000 		.4byte	.LLST16
 3036 0461 16       		.uleb128 0x16
 3037 0462 C6000000 		.4byte	.LASF56
 3038 0466 01       		.byte	0x1
 3039 0467 4602     		.2byte	0x246
 3040 0469 E5040000 		.4byte	0x4e5
 3041 046d 2E030000 		.4byte	.LLST17
 3042 0471 11       		.uleb128 0x11
 3043 0472 6300     		.ascii	"c\000"
 3044 0474 01       		.byte	0x1
 3045 0475 4902     		.2byte	0x249
 3046 0477 25000000 		.4byte	0x25
 3047 047b 5A030000 		.4byte	.LLST18
 3048 047f 11       		.uleb128 0x11
 3049 0480 6E6900   		.ascii	"ni\000"
 3050 0483 01       		.byte	0x1
 3051 0484 4902     		.2byte	0x249
 3052 0486 25000000 		.4byte	0x25
 3053 048a 78030000 		.4byte	.LLST19
 3054 048e 11       		.uleb128 0x11
 3055 048f 736900   		.ascii	"si\000"
 3056 0492 01       		.byte	0x1
 3057 0493 4902     		.2byte	0x249
 3058 0495 25000000 		.4byte	0x25
 3059 0499 A2030000 		.4byte	.LLST20
 3060 049d 11       		.uleb128 0x11
 3061 049e 6900     		.ascii	"i\000"
 3062 04a0 01       		.byte	0x1
 3063 04a1 4902     		.2byte	0x249
 3064 04a3 25000000 		.4byte	0x25
 3065 04a7 E4030000 		.4byte	.LLST21
 3066 04ab 11       		.uleb128 0x11
 3067 04ac 73666E00 		.ascii	"sfn\000"
 3068 04b0 01       		.byte	0x1
 3069 04b1 4902     		.2byte	0x249
 3070 04b3 82010000 		.4byte	0x182
 3071 04b7 24040000 		.4byte	.LLST22
 3072 04bb 11       		.uleb128 0x11
 3073 04bc 7000     		.ascii	"p\000"
 3074 04be 01       		.byte	0x1
 3075 04bf 4A02     		.2byte	0x24a
 3076 04c1 4D030000 		.4byte	0x34d
 3077 04c5 37040000 		.4byte	.LLST23
 3078 04c9 1A       		.uleb128 0x1a
ARM GAS  C:\Users\Petro\AppData\Local\Temp\cc5IgTu7.s 			page 77


 3079 04ca 10000000 		.4byte	.LVL47
 3080 04ce 76020000 		.4byte	0x276
 3081 04d2 1B       		.uleb128 0x1b
 3082 04d3 01       		.uleb128 0x1
 3083 04d4 52       		.byte	0x52
 3084 04d5 01       		.uleb128 0x1
 3085 04d6 3B       		.byte	0x3b
 3086 04d7 1B       		.uleb128 0x1b
 3087 04d8 01       		.uleb128 0x1
 3088 04d9 51       		.byte	0x51
 3089 04da 02       		.uleb128 0x2
 3090 04db 08       		.byte	0x8
 3091 04dc 20       		.byte	0x20
 3092 04dd 1B       		.uleb128 0x1b
 3093 04de 01       		.uleb128 0x1
 3094 04df 50       		.byte	0x50
 3095 04e0 02       		.uleb128 0x2
 3096 04e1 74       		.byte	0x74
 3097 04e2 00       		.sleb128 0
 3098 04e3 00       		.byte	0
 3099 04e4 00       		.byte	0
 3100 04e5 08       		.uleb128 0x8
 3101 04e6 04       		.byte	0x4
 3102 04e7 4D030000 		.4byte	0x34d
 3103 04eb 0E       		.uleb128 0xe
 3104 04ec 4B030000 		.4byte	.LASF58
 3105 04f0 01       		.byte	0x1
 3106 04f1 7D02     		.2byte	0x27d
 3107 04f3 00000000 		.4byte	.LFB10
 3108 04f7 62000000 		.4byte	.LFE10-.LFB10
 3109 04fb 01       		.uleb128 0x1
 3110 04fc 9C       		.byte	0x9c
 3111 04fd 57050000 		.4byte	0x557
 3112 0501 0F       		.uleb128 0xf
 3113 0502 646A00   		.ascii	"dj\000"
 3114 0505 01       		.byte	0x1
 3115 0506 7E02     		.2byte	0x27e
 3116 0508 32040000 		.4byte	0x432
 3117 050c 4A040000 		.4byte	.LLST24
 3118 0510 10       		.uleb128 0x10
 3119 0511 64697200 		.ascii	"dir\000"
 3120 0515 01       		.byte	0x1
 3121 0516 7F02     		.2byte	0x27f
 3122 0518 82010000 		.4byte	0x182
 3123 051c 01       		.uleb128 0x1
 3124 051d 51       		.byte	0x51
 3125 051e 10       		.uleb128 0x10
 3126 051f 666E6F00 		.ascii	"fno\000"
 3127 0523 01       		.byte	0x1
 3128 0524 8002     		.2byte	0x280
 3129 0526 57050000 		.4byte	0x557
 3130 052a 01       		.uleb128 0x1
 3131 052b 52       		.byte	0x52
 3132 052c 11       		.uleb128 0x11
 3133 052d 6900     		.ascii	"i\000"
 3134 052f 01       		.byte	0x1
 3135 0530 8302     		.2byte	0x283
ARM GAS  C:\Users\Petro\AppData\Local\Temp\cc5IgTu7.s 			page 78


 3136 0532 25000000 		.4byte	0x25
 3137 0536 84040000 		.4byte	.LLST25
 3138 053a 11       		.uleb128 0x11
 3139 053b 6300     		.ascii	"c\000"
 3140 053d 01       		.byte	0x1
 3141 053e 8302     		.2byte	0x283
 3142 0540 25000000 		.4byte	0x25
 3143 0544 CF040000 		.4byte	.LLST26
 3144 0548 11       		.uleb128 0x11
 3145 0549 7000     		.ascii	"p\000"
 3146 054b 01       		.byte	0x1
 3147 054c 8402     		.2byte	0x284
 3148 054e CB020000 		.4byte	0x2cb
 3149 0552 ED040000 		.4byte	.LLST27
 3150 0556 00       		.byte	0
 3151 0557 08       		.uleb128 0x8
 3152 0558 04       		.byte	0x4
 3153 0559 F6010000 		.4byte	0x1f6
 3154 055d 13       		.uleb128 0x13
 3155 055e 2E020000 		.4byte	.LASF59
 3156 0562 01       		.byte	0x1
 3157 0563 D102     		.2byte	0x2d1
 3158 0565 25000000 		.4byte	0x25
 3159 0569 00000000 		.4byte	.LFB12
 3160 056d 6C000000 		.4byte	.LFE12-.LFB12
 3161 0571 01       		.uleb128 0x1
 3162 0572 9C       		.byte	0x9c
 3163 0573 04060000 		.4byte	0x604
 3164 0577 0F       		.uleb128 0xf
 3165 0578 62756600 		.ascii	"buf\000"
 3166 057c 01       		.byte	0x1
 3167 057d D202     		.2byte	0x2d2
 3168 057f 82010000 		.4byte	0x182
 3169 0583 48050000 		.4byte	.LLST28
 3170 0587 16       		.uleb128 0x16
 3171 0588 8C000000 		.4byte	.LASF28
 3172 058c 01       		.byte	0x1
 3173 058d D302     		.2byte	0x2d3
 3174 058f 70000000 		.4byte	0x70
 3175 0593 74050000 		.4byte	.LLST29
 3176 0597 1C       		.uleb128 0x1c
 3177 0598 10000000 		.4byte	.LVL88
 3178 059c BB0F0000 		.4byte	0xfbb
 3179 05a0 BD050000 		.4byte	0x5bd
 3180 05a4 1B       		.uleb128 0x1b
 3181 05a5 01       		.uleb128 0x1
 3182 05a6 53       		.byte	0x53
 3183 05a7 01       		.uleb128 0x1
 3184 05a8 32       		.byte	0x32
 3185 05a9 1B       		.uleb128 0x1b
 3186 05aa 01       		.uleb128 0x1
 3187 05ab 52       		.byte	0x52
 3188 05ac 03       		.uleb128 0x3
 3189 05ad 0A       		.byte	0xa
 3190 05ae FE01     		.2byte	0x1fe
 3191 05b0 1B       		.uleb128 0x1b
 3192 05b1 01       		.uleb128 0x1
ARM GAS  C:\Users\Petro\AppData\Local\Temp\cc5IgTu7.s 			page 79


 3193 05b2 51       		.byte	0x51
 3194 05b3 02       		.uleb128 0x2
 3195 05b4 75       		.byte	0x75
 3196 05b5 00       		.sleb128 0
 3197 05b6 1B       		.uleb128 0x1b
 3198 05b7 01       		.uleb128 0x1
 3199 05b8 50       		.byte	0x50
 3200 05b9 02       		.uleb128 0x2
 3201 05ba 74       		.byte	0x74
 3202 05bb 00       		.sleb128 0
 3203 05bc 00       		.byte	0
 3204 05bd 1C       		.uleb128 0x1c
 3205 05be 28000000 		.4byte	.LVL89
 3206 05c2 BB0F0000 		.4byte	0xfbb
 3207 05c6 E2050000 		.4byte	0x5e2
 3208 05ca 1B       		.uleb128 0x1b
 3209 05cb 01       		.uleb128 0x1
 3210 05cc 53       		.byte	0x53
 3211 05cd 01       		.uleb128 0x1
 3212 05ce 32       		.byte	0x32
 3213 05cf 1B       		.uleb128 0x1b
 3214 05d0 01       		.uleb128 0x1
 3215 05d1 52       		.byte	0x52
 3216 05d2 02       		.uleb128 0x2
 3217 05d3 08       		.byte	0x8
 3218 05d4 36       		.byte	0x36
 3219 05d5 1B       		.uleb128 0x1b
 3220 05d6 01       		.uleb128 0x1
 3221 05d7 51       		.byte	0x51
 3222 05d8 02       		.uleb128 0x2
 3223 05d9 75       		.byte	0x75
 3224 05da 00       		.sleb128 0
 3225 05db 1B       		.uleb128 0x1b
 3226 05dc 01       		.uleb128 0x1
 3227 05dd 50       		.byte	0x50
 3228 05de 02       		.uleb128 0x2
 3229 05df 74       		.byte	0x74
 3230 05e0 00       		.sleb128 0
 3231 05e1 00       		.byte	0
 3232 05e2 1A       		.uleb128 0x1a
 3233 05e3 40000000 		.4byte	.LVL90
 3234 05e7 BB0F0000 		.4byte	0xfbb
 3235 05eb 1B       		.uleb128 0x1b
 3236 05ec 01       		.uleb128 0x1
 3237 05ed 53       		.byte	0x53
 3238 05ee 01       		.uleb128 0x1
 3239 05ef 32       		.byte	0x32
 3240 05f0 1B       		.uleb128 0x1b
 3241 05f1 01       		.uleb128 0x1
 3242 05f2 52       		.byte	0x52
 3243 05f3 02       		.uleb128 0x2
 3244 05f4 08       		.byte	0x8
 3245 05f5 52       		.byte	0x52
 3246 05f6 1B       		.uleb128 0x1b
 3247 05f7 01       		.uleb128 0x1
 3248 05f8 51       		.byte	0x51
 3249 05f9 02       		.uleb128 0x2
ARM GAS  C:\Users\Petro\AppData\Local\Temp\cc5IgTu7.s 			page 80


 3250 05fa 75       		.byte	0x75
 3251 05fb 00       		.sleb128 0
 3252 05fc 1B       		.uleb128 0x1b
 3253 05fd 01       		.uleb128 0x1
 3254 05fe 50       		.byte	0x50
 3255 05ff 02       		.uleb128 0x2
 3256 0600 74       		.byte	0x74
 3257 0601 00       		.sleb128 0
 3258 0602 00       		.byte	0
 3259 0603 00       		.byte	0
 3260 0604 13       		.uleb128 0x13
 3261 0605 16020000 		.4byte	.LASF60
 3262 0609 01       		.byte	0x1
 3263 060a 5D01     		.2byte	0x15d
 3264 060c 70000000 		.4byte	0x70
 3265 0610 00000000 		.4byte	.LFB2
 3266 0614 E8000000 		.4byte	.LFE2-.LFB2
 3267 0618 01       		.uleb128 0x1
 3268 0619 9C       		.byte	0x9c
 3269 061a 2B070000 		.4byte	0x72b
 3270 061e 16       		.uleb128 0x16
 3271 061f C7030000 		.4byte	.LASF52
 3272 0623 01       		.byte	0x1
 3273 0624 5E01     		.2byte	0x15e
 3274 0626 70000000 		.4byte	0x70
 3275 062a A0050000 		.4byte	.LLST30
 3276 062e 17       		.uleb128 0x17
 3277 062f 62756600 		.ascii	"buf\000"
 3278 0633 01       		.byte	0x1
 3279 0634 6101     		.2byte	0x161
 3280 0636 2B070000 		.4byte	0x72b
 3281 063a 02       		.uleb128 0x2
 3282 063b 91       		.byte	0x91
 3283 063c 6C       		.sleb128 -20
 3284 063d 11       		.uleb128 0x11
 3285 063e 667300   		.ascii	"fs\000"
 3286 0641 01       		.byte	0x1
 3287 0642 6201     		.2byte	0x162
 3288 0644 90030000 		.4byte	0x390
 3289 0648 56060000 		.4byte	.LLST31
 3290 064c 1D       		.uleb128 0x1d
 3291 064d 00000000 		.4byte	.Ldebug_ranges0+0
 3292 0651 E6060000 		.4byte	0x6e6
 3293 0655 11       		.uleb128 0x11
 3294 0656 776300   		.ascii	"wc\000"
 3295 0659 01       		.byte	0x1
 3296 065a 6A01     		.2byte	0x16a
 3297 065c 57000000 		.4byte	0x57
 3298 0660 69060000 		.4byte	.LLST32
 3299 0664 11       		.uleb128 0x11
 3300 0665 626300   		.ascii	"bc\000"
 3301 0668 01       		.byte	0x1
 3302 0669 6A01     		.2byte	0x16a
 3303 066b 57000000 		.4byte	0x57
 3304 066f AD060000 		.4byte	.LLST33
 3305 0673 11       		.uleb128 0x11
 3306 0674 6F667300 		.ascii	"ofs\000"
ARM GAS  C:\Users\Petro\AppData\Local\Temp\cc5IgTu7.s 			page 81


 3307 0678 01       		.byte	0x1
 3308 0679 6A01     		.2byte	0x16a
 3309 067b 57000000 		.4byte	0x57
 3310 067f E1060000 		.4byte	.LLST34
 3311 0683 1C       		.uleb128 0x1c
 3312 0684 40000000 		.4byte	.LVL100
 3313 0688 BB0F0000 		.4byte	0xfbb
 3314 068c AB060000 		.4byte	0x6ab
 3315 0690 1B       		.uleb128 0x1b
 3316 0691 01       		.uleb128 0x1
 3317 0692 53       		.byte	0x53
 3318 0693 01       		.uleb128 0x1
 3319 0694 32       		.byte	0x32
 3320 0695 1B       		.uleb128 0x1b
 3321 0696 01       		.uleb128 0x1
 3322 0697 52       		.byte	0x52
 3323 0698 0B       		.uleb128 0xb
 3324 0699 74       		.byte	0x74
 3325 069a 00       		.sleb128 0
 3326 069b 31       		.byte	0x31
 3327 069c 25       		.byte	0x25
 3328 069d 74       		.byte	0x74
 3329 069e 00       		.sleb128 0
 3330 069f 22       		.byte	0x22
 3331 06a0 47       		.byte	0x47
 3332 06a1 24       		.byte	0x24
 3333 06a2 47       		.byte	0x47
 3334 06a3 25       		.byte	0x25
 3335 06a4 1B       		.uleb128 0x1b
 3336 06a5 01       		.uleb128 0x1
 3337 06a6 50       		.byte	0x50
 3338 06a7 02       		.uleb128 0x2
 3339 06a8 91       		.byte	0x91
 3340 06a9 6C       		.sleb128 -20
 3341 06aa 00       		.byte	0
 3342 06ab 1C       		.uleb128 0x1c
 3343 06ac 54000000 		.4byte	.LVL104
 3344 06b0 BB0F0000 		.4byte	0xfbb
 3345 06b4 CB060000 		.4byte	0x6cb
 3346 06b8 1B       		.uleb128 0x1b
 3347 06b9 01       		.uleb128 0x1
 3348 06ba 53       		.byte	0x53
 3349 06bb 01       		.uleb128 0x1
 3350 06bc 31       		.byte	0x31
 3351 06bd 1B       		.uleb128 0x1b
 3352 06be 01       		.uleb128 0x1
 3353 06bf 52       		.byte	0x52
 3354 06c0 03       		.uleb128 0x3
 3355 06c1 0A       		.byte	0xa
 3356 06c2 FF01     		.2byte	0x1ff
 3357 06c4 1B       		.uleb128 0x1b
 3358 06c5 01       		.uleb128 0x1
 3359 06c6 50       		.byte	0x50
 3360 06c7 02       		.uleb128 0x2
 3361 06c8 91       		.byte	0x91
 3362 06c9 6C       		.sleb128 -20
 3363 06ca 00       		.byte	0
ARM GAS  C:\Users\Petro\AppData\Local\Temp\cc5IgTu7.s 			page 82


 3364 06cb 1A       		.uleb128 0x1a
 3365 06cc 6A000000 		.4byte	.LVL105
 3366 06d0 BB0F0000 		.4byte	0xfbb
 3367 06d4 1B       		.uleb128 0x1b
 3368 06d5 01       		.uleb128 0x1
 3369 06d6 53       		.byte	0x53
 3370 06d7 01       		.uleb128 0x1
 3371 06d8 31       		.byte	0x31
 3372 06d9 1B       		.uleb128 0x1b
 3373 06da 01       		.uleb128 0x1
 3374 06db 52       		.byte	0x52
 3375 06dc 01       		.uleb128 0x1
 3376 06dd 30       		.byte	0x30
 3377 06de 1B       		.uleb128 0x1b
 3378 06df 01       		.uleb128 0x1
 3379 06e0 50       		.byte	0x50
 3380 06e1 02       		.uleb128 0x2
 3381 06e2 7D       		.byte	0x7d
 3382 06e3 05       		.sleb128 5
 3383 06e4 00       		.byte	0
 3384 06e5 00       		.byte	0
 3385 06e6 1C       		.uleb128 0x1c
 3386 06e7 94000000 		.4byte	.LVL112
 3387 06eb BB0F0000 		.4byte	0xfbb
 3388 06ef 0A070000 		.4byte	0x70a
 3389 06f3 1B       		.uleb128 0x1b
 3390 06f4 01       		.uleb128 0x1
 3391 06f5 53       		.byte	0x53
 3392 06f6 01       		.uleb128 0x1
 3393 06f7 32       		.byte	0x32
 3394 06f8 1B       		.uleb128 0x1b
 3395 06f9 01       		.uleb128 0x1
 3396 06fa 52       		.byte	0x52
 3397 06fb 07       		.uleb128 0x7
 3398 06fc 74       		.byte	0x74
 3399 06fd 00       		.sleb128 0
 3400 06fe 08       		.byte	0x8
 3401 06ff FF       		.byte	0xff
 3402 0700 1A       		.byte	0x1a
 3403 0701 31       		.byte	0x31
 3404 0702 24       		.byte	0x24
 3405 0703 1B       		.uleb128 0x1b
 3406 0704 01       		.uleb128 0x1
 3407 0705 50       		.byte	0x50
 3408 0706 02       		.uleb128 0x2
 3409 0707 91       		.byte	0x91
 3410 0708 6C       		.sleb128 -20
 3411 0709 00       		.byte	0
 3412 070a 1A       		.uleb128 0x1a
 3413 070b B2000000 		.4byte	.LVL115
 3414 070f BB0F0000 		.4byte	0xfbb
 3415 0713 1B       		.uleb128 0x1b
 3416 0714 01       		.uleb128 0x1
 3417 0715 53       		.byte	0x53
 3418 0716 01       		.uleb128 0x1
 3419 0717 34       		.byte	0x34
 3420 0718 1B       		.uleb128 0x1b
ARM GAS  C:\Users\Petro\AppData\Local\Temp\cc5IgTu7.s 			page 83


 3421 0719 01       		.uleb128 0x1
 3422 071a 52       		.byte	0x52
 3423 071b 07       		.uleb128 0x7
 3424 071c 74       		.byte	0x74
 3425 071d 00       		.sleb128 0
 3426 071e 08       		.byte	0x8
 3427 071f 7F       		.byte	0x7f
 3428 0720 1A       		.byte	0x1a
 3429 0721 32       		.byte	0x32
 3430 0722 24       		.byte	0x24
 3431 0723 1B       		.uleb128 0x1b
 3432 0724 01       		.uleb128 0x1
 3433 0725 50       		.byte	0x50
 3434 0726 02       		.uleb128 0x2
 3435 0727 91       		.byte	0x91
 3436 0728 6C       		.sleb128 -20
 3437 0729 00       		.byte	0
 3438 072a 00       		.byte	0
 3439 072b 0A       		.uleb128 0xa
 3440 072c 25000000 		.4byte	0x25
 3441 0730 3B070000 		.4byte	0x73b
 3442 0734 0B       		.uleb128 0xb
 3443 0735 E8010000 		.4byte	0x1e8
 3444 0739 03       		.byte	0x3
 3445 073a 00       		.byte	0
 3446 073b 13       		.uleb128 0x13
 3447 073c D8010000 		.4byte	.LASF61
 3448 0740 01       		.byte	0x1
 3449 0741 D001     		.2byte	0x1d0
 3450 0743 34020000 		.4byte	0x234
 3451 0747 00000000 		.4byte	.LFB6
 3452 074b 6C000000 		.4byte	.LFE6-.LFB6
 3453 074f 01       		.uleb128 0x1
 3454 0750 9C       		.byte	0x9c
 3455 0751 A4070000 		.4byte	0x7a4
 3456 0755 0F       		.uleb128 0xf
 3457 0756 646A00   		.ascii	"dj\000"
 3458 0759 01       		.byte	0x1
 3459 075a D101     		.2byte	0x1d1
 3460 075c 32040000 		.4byte	0x432
 3461 0760 41070000 		.4byte	.LLST35
 3462 0764 18       		.uleb128 0x18
 3463 0765 C7030000 		.4byte	.LASF52
 3464 0769 01       		.byte	0x1
 3465 076a D401     		.2byte	0x1d4
 3466 076c 70000000 		.4byte	0x70
 3467 0770 AA070000 		.4byte	.LLST36
 3468 0774 11       		.uleb128 0x11
 3469 0775 6900     		.ascii	"i\000"
 3470 0777 01       		.byte	0x1
 3471 0778 D501     		.2byte	0x1d5
 3472 077a 3E000000 		.4byte	0x3e
 3473 077e D3070000 		.4byte	.LLST37
 3474 0782 11       		.uleb128 0x11
 3475 0783 667300   		.ascii	"fs\000"
 3476 0786 01       		.byte	0x1
 3477 0787 D601     		.2byte	0x1d6
ARM GAS  C:\Users\Petro\AppData\Local\Temp\cc5IgTu7.s 			page 84


 3478 0789 90030000 		.4byte	0x390
 3479 078d E6070000 		.4byte	.LLST38
 3480 0791 19       		.uleb128 0x19
 3481 0792 3C000000 		.4byte	.LVL130
 3482 0796 04060000 		.4byte	0x604
 3483 079a 19       		.uleb128 0x19
 3484 079b 4C000000 		.4byte	.LVL131
 3485 079f 58030000 		.4byte	0x358
 3486 07a3 00       		.byte	0
 3487 07a4 13       		.uleb128 0x13
 3488 07a5 43020000 		.4byte	.LASF62
 3489 07a9 01       		.byte	0x1
 3490 07aa FD01     		.2byte	0x1fd
 3491 07ac 34020000 		.4byte	0x234
 3492 07b0 00000000 		.4byte	.LFB7
 3493 07b4 56000000 		.4byte	.LFE7-.LFB7
 3494 07b8 01       		.uleb128 0x1
 3495 07b9 9C       		.byte	0x9c
 3496 07ba 53080000 		.4byte	0x853
 3497 07be 0F       		.uleb128 0xf
 3498 07bf 646A00   		.ascii	"dj\000"
 3499 07c2 01       		.byte	0x1
 3500 07c3 FE01     		.2byte	0x1fe
 3501 07c5 32040000 		.4byte	0x432
 3502 07c9 F9070000 		.4byte	.LLST39
 3503 07cd 0F       		.uleb128 0xf
 3504 07ce 64697200 		.ascii	"dir\000"
 3505 07d2 01       		.byte	0x1
 3506 07d3 FF01     		.2byte	0x1ff
 3507 07d5 82010000 		.4byte	0x182
 3508 07d9 25080000 		.4byte	.LLST40
 3509 07dd 11       		.uleb128 0x11
 3510 07de 72657300 		.ascii	"res\000"
 3511 07e2 01       		.byte	0x1
 3512 07e3 0202     		.2byte	0x202
 3513 07e5 34020000 		.4byte	0x234
 3514 07e9 51080000 		.4byte	.LLST41
 3515 07ed 11       		.uleb128 0x11
 3516 07ee 6300     		.ascii	"c\000"
 3517 07f0 01       		.byte	0x1
 3518 07f1 0302     		.2byte	0x203
 3519 07f3 25000000 		.4byte	0x25
 3520 07f7 85080000 		.4byte	.LLST42
 3521 07fb 1C       		.uleb128 0x1c
 3522 07fc 0A000000 		.4byte	.LVL144
 3523 0800 E0030000 		.4byte	0x3e0
 3524 0804 0F080000 		.4byte	0x80f
 3525 0808 1B       		.uleb128 0x1b
 3526 0809 01       		.uleb128 0x1
 3527 080a 50       		.byte	0x50
 3528 080b 02       		.uleb128 0x2
 3529 080c 75       		.byte	0x75
 3530 080d 00       		.sleb128 0
 3531 080e 00       		.byte	0
 3532 080f 1C       		.uleb128 0x1c
 3533 0810 20000000 		.4byte	.LVL146
 3534 0814 BB0F0000 		.4byte	0xfbb
ARM GAS  C:\Users\Petro\AppData\Local\Temp\cc5IgTu7.s 			page 85


 3535 0818 29080000 		.4byte	0x829
 3536 081c 1B       		.uleb128 0x1b
 3537 081d 01       		.uleb128 0x1
 3538 081e 53       		.byte	0x53
 3539 081f 02       		.uleb128 0x2
 3540 0820 08       		.byte	0x8
 3541 0821 20       		.byte	0x20
 3542 0822 1B       		.uleb128 0x1b
 3543 0823 01       		.uleb128 0x1
 3544 0824 50       		.byte	0x50
 3545 0825 02       		.uleb128 0x2
 3546 0826 76       		.byte	0x76
 3547 0827 00       		.sleb128 0
 3548 0828 00       		.byte	0
 3549 0829 1C       		.uleb128 0x1c
 3550 082a 40000000 		.4byte	.LVL150
 3551 082e D1020000 		.4byte	0x2d1
 3552 0832 42080000 		.4byte	0x842
 3553 0836 1B       		.uleb128 0x1b
 3554 0837 01       		.uleb128 0x1
 3555 0838 52       		.byte	0x52
 3556 0839 01       		.uleb128 0x1
 3557 083a 3B       		.byte	0x3b
 3558 083b 1B       		.uleb128 0x1b
 3559 083c 01       		.uleb128 0x1
 3560 083d 50       		.byte	0x50
 3561 083e 02       		.uleb128 0x2
 3562 083f 76       		.byte	0x76
 3563 0840 00       		.sleb128 0
 3564 0841 00       		.byte	0
 3565 0842 1A       		.uleb128 0x1a
 3566 0843 4A000000 		.4byte	.LVL151
 3567 0847 3B070000 		.4byte	0x73b
 3568 084b 1B       		.uleb128 0x1b
 3569 084c 01       		.uleb128 0x1
 3570 084d 50       		.byte	0x50
 3571 084e 02       		.uleb128 0x2
 3572 084f 75       		.byte	0x75
 3573 0850 00       		.sleb128 0
 3574 0851 00       		.byte	0
 3575 0852 00       		.byte	0
 3576 0853 13       		.uleb128 0x13
 3577 0854 37030000 		.4byte	.LASF63
 3578 0858 01       		.byte	0x1
 3579 0859 A702     		.2byte	0x2a7
 3580 085b 34020000 		.4byte	0x234
 3581 085f 00000000 		.4byte	.LFB11
 3582 0863 6E000000 		.4byte	.LFE11-.LFB11
 3583 0867 01       		.uleb128 0x1
 3584 0868 9C       		.byte	0x9c
 3585 0869 05090000 		.4byte	0x905
 3586 086d 0F       		.uleb128 0xf
 3587 086e 646A00   		.ascii	"dj\000"
 3588 0871 01       		.byte	0x1
 3589 0872 A802     		.2byte	0x2a8
 3590 0874 32040000 		.4byte	0x432
 3591 0878 AF080000 		.4byte	.LLST43
ARM GAS  C:\Users\Petro\AppData\Local\Temp\cc5IgTu7.s 			page 86


 3592 087c 0F       		.uleb128 0xf
 3593 087d 64697200 		.ascii	"dir\000"
 3594 0881 01       		.byte	0x1
 3595 0882 A902     		.2byte	0x2a9
 3596 0884 82010000 		.4byte	0x182
 3597 0888 DB080000 		.4byte	.LLST44
 3598 088c 16       		.uleb128 0x16
 3599 088d C6000000 		.4byte	.LASF56
 3600 0891 01       		.byte	0x1
 3601 0892 AA02     		.2byte	0x2aa
 3602 0894 4D030000 		.4byte	0x34d
 3603 0898 07090000 		.4byte	.LLST45
 3604 089c 11       		.uleb128 0x11
 3605 089d 72657300 		.ascii	"res\000"
 3606 08a1 01       		.byte	0x1
 3607 08a2 AD02     		.2byte	0x2ad
 3608 08a4 34020000 		.4byte	0x234
 3609 08a8 28090000 		.4byte	.LLST46
 3610 08ac 1C       		.uleb128 0x1c
 3611 08ad 32000000 		.4byte	.LVL161
 3612 08b1 E0030000 		.4byte	0x3e0
 3613 08b5 C0080000 		.4byte	0x8c0
 3614 08b9 1B       		.uleb128 0x1b
 3615 08ba 01       		.uleb128 0x1
 3616 08bb 50       		.byte	0x50
 3617 08bc 02       		.uleb128 0x2
 3618 08bd 75       		.byte	0x75
 3619 08be 00       		.sleb128 0
 3620 08bf 00       		.byte	0
 3621 08c0 1C       		.uleb128 0x1c
 3622 08c1 40000000 		.4byte	.LVL163
 3623 08c5 38040000 		.4byte	0x438
 3624 08c9 DA080000 		.4byte	0x8da
 3625 08cd 1B       		.uleb128 0x1b
 3626 08ce 01       		.uleb128 0x1
 3627 08cf 51       		.byte	0x51
 3628 08d0 02       		.uleb128 0x2
 3629 08d1 91       		.byte	0x91
 3630 08d2 6C       		.sleb128 -20
 3631 08d3 1B       		.uleb128 0x1b
 3632 08d4 01       		.uleb128 0x1
 3633 08d5 50       		.byte	0x50
 3634 08d6 02       		.uleb128 0x2
 3635 08d7 75       		.byte	0x75
 3636 08d8 00       		.sleb128 0
 3637 08d9 00       		.byte	0
 3638 08da 1C       		.uleb128 0x1c
 3639 08db 4C000000 		.4byte	.LVL165
 3640 08df A4070000 		.4byte	0x7a4
 3641 08e3 F4080000 		.4byte	0x8f4
 3642 08e7 1B       		.uleb128 0x1b
 3643 08e8 01       		.uleb128 0x1
 3644 08e9 51       		.byte	0x51
 3645 08ea 02       		.uleb128 0x2
 3646 08eb 74       		.byte	0x74
 3647 08ec 00       		.sleb128 0
 3648 08ed 1B       		.uleb128 0x1b
ARM GAS  C:\Users\Petro\AppData\Local\Temp\cc5IgTu7.s 			page 87


 3649 08ee 01       		.uleb128 0x1
 3650 08ef 50       		.byte	0x50
 3651 08f0 02       		.uleb128 0x2
 3652 08f1 75       		.byte	0x75
 3653 08f2 00       		.sleb128 0
 3654 08f3 00       		.byte	0
 3655 08f4 1A       		.uleb128 0x1a
 3656 08f5 64000000 		.4byte	.LVL167
 3657 08f9 96030000 		.4byte	0x396
 3658 08fd 1B       		.uleb128 0x1b
 3659 08fe 01       		.uleb128 0x1
 3660 08ff 50       		.byte	0x50
 3661 0900 02       		.uleb128 0x2
 3662 0901 74       		.byte	0x74
 3663 0902 00       		.sleb128 0
 3664 0903 00       		.byte	0
 3665 0904 00       		.byte	0
 3666 0905 13       		.uleb128 0x13
 3667 0906 AF020000 		.4byte	.LASF64
 3668 090a 01       		.byte	0x1
 3669 090b 1F02     		.2byte	0x21f
 3670 090d 34020000 		.4byte	0x234
 3671 0911 00000000 		.4byte	.LFB8
 3672 0915 56000000 		.4byte	.LFE8-.LFB8
 3673 0919 01       		.uleb128 0x1
 3674 091a 9C       		.byte	0x9c
 3675 091b 95090000 		.4byte	0x995
 3676 091f 0F       		.uleb128 0xf
 3677 0920 646A00   		.ascii	"dj\000"
 3678 0923 01       		.byte	0x1
 3679 0924 2002     		.2byte	0x220
 3680 0926 32040000 		.4byte	0x432
 3681 092a 5C090000 		.4byte	.LLST47
 3682 092e 0F       		.uleb128 0xf
 3683 092f 64697200 		.ascii	"dir\000"
 3684 0933 01       		.byte	0x1
 3685 0934 2102     		.2byte	0x221
 3686 0936 82010000 		.4byte	0x182
 3687 093a 88090000 		.4byte	.LLST48
 3688 093e 11       		.uleb128 0x11
 3689 093f 72657300 		.ascii	"res\000"
 3690 0943 01       		.byte	0x1
 3691 0944 2402     		.2byte	0x224
 3692 0946 34020000 		.4byte	0x234
 3693 094a B4090000 		.4byte	.LLST49
 3694 094e 11       		.uleb128 0x11
 3695 094f 6100     		.ascii	"a\000"
 3696 0951 01       		.byte	0x1
 3697 0952 2502     		.2byte	0x225
 3698 0954 25000000 		.4byte	0x25
 3699 0958 E9090000 		.4byte	.LLST50
 3700 095c 11       		.uleb128 0x11
 3701 095d 6300     		.ascii	"c\000"
 3702 095f 01       		.byte	0x1
 3703 0960 2502     		.2byte	0x225
 3704 0962 25000000 		.4byte	0x25
 3705 0966 010A0000 		.4byte	.LLST51
ARM GAS  C:\Users\Petro\AppData\Local\Temp\cc5IgTu7.s 			page 88


 3706 096a 1C       		.uleb128 0x1c
 3707 096b 1A000000 		.4byte	.LVL177
 3708 096f BB0F0000 		.4byte	0xfbb
 3709 0973 84090000 		.4byte	0x984
 3710 0977 1B       		.uleb128 0x1b
 3711 0978 01       		.uleb128 0x1
 3712 0979 53       		.byte	0x53
 3713 097a 02       		.uleb128 0x2
 3714 097b 08       		.byte	0x8
 3715 097c 20       		.byte	0x20
 3716 097d 1B       		.uleb128 0x1b
 3717 097e 01       		.uleb128 0x1
 3718 097f 50       		.byte	0x50
 3719 0980 02       		.uleb128 0x2
 3720 0981 75       		.byte	0x75
 3721 0982 00       		.sleb128 0
 3722 0983 00       		.byte	0
 3723 0984 1A       		.uleb128 0x1a
 3724 0985 3E000000 		.4byte	.LVL183
 3725 0989 3B070000 		.4byte	0x73b
 3726 098d 1B       		.uleb128 0x1b
 3727 098e 01       		.uleb128 0x1
 3728 098f 50       		.byte	0x50
 3729 0990 02       		.uleb128 0x2
 3730 0991 74       		.byte	0x74
 3731 0992 00       		.sleb128 0
 3732 0993 00       		.byte	0
 3733 0994 00       		.byte	0
 3734 0995 1E       		.uleb128 0x1e
 3735 0996 70000000 		.4byte	.LASF68
 3736 099a 01       		.byte	0x1
 3737 099b F102     		.2byte	0x2f1
 3738 099d 34020000 		.4byte	0x234
 3739 09a1 00000000 		.4byte	.LFB13
 3740 09a5 8C010000 		.4byte	.LFE13-.LFB13
 3741 09a9 01       		.uleb128 0x1
 3742 09aa 9C       		.byte	0x9c
 3743 09ab A00A0000 		.4byte	0xaa0
 3744 09af 0F       		.uleb128 0xf
 3745 09b0 667300   		.ascii	"fs\000"
 3746 09b3 01       		.byte	0x1
 3747 09b4 F202     		.2byte	0x2f2
 3748 09b6 90030000 		.4byte	0x390
 3749 09ba 2B0A0000 		.4byte	.LLST52
 3750 09be 11       		.uleb128 0x11
 3751 09bf 666D7400 		.ascii	"fmt\000"
 3752 09c3 01       		.byte	0x1
 3753 09c4 F502     		.2byte	0x2f5
 3754 09c6 25000000 		.4byte	0x25
 3755 09ca 570A0000 		.4byte	.LLST53
 3756 09ce 17       		.uleb128 0x17
 3757 09cf 62756600 		.ascii	"buf\000"
 3758 09d3 01       		.byte	0x1
 3759 09d4 F502     		.2byte	0x2f5
 3760 09d6 A00A0000 		.4byte	0xaa0
 3761 09da 02       		.uleb128 0x2
 3762 09db 91       		.byte	0x91
ARM GAS  C:\Users\Petro\AppData\Local\Temp\cc5IgTu7.s 			page 89


 3763 09dc 44       		.sleb128 -60
 3764 09dd 18       		.uleb128 0x18
 3765 09de 2D010000 		.4byte	.LASF65
 3766 09e2 01       		.byte	0x1
 3767 09e3 F602     		.2byte	0x2f6
 3768 09e5 70000000 		.4byte	0x70
 3769 09e9 B80A0000 		.4byte	.LLST54
 3770 09ed 18       		.uleb128 0x18
 3771 09ee 33010000 		.4byte	.LASF20
 3772 09f2 01       		.byte	0x1
 3773 09f3 F602     		.2byte	0x2f6
 3774 09f5 70000000 		.4byte	0x70
 3775 09f9 F90A0000 		.4byte	.LLST55
 3776 09fd 18       		.uleb128 0x18
 3777 09fe EF010000 		.4byte	.LASF66
 3778 0a02 01       		.byte	0x1
 3779 0a03 F602     		.2byte	0x2f6
 3780 0a05 70000000 		.4byte	0x70
 3781 0a09 3E0B0000 		.4byte	.LLST56
 3782 0a0d 18       		.uleb128 0x18
 3783 0a0e 37020000 		.4byte	.LASF67
 3784 0a12 01       		.byte	0x1
 3785 0a13 F602     		.2byte	0x2f6
 3786 0a15 70000000 		.4byte	0x70
 3787 0a19 7C0B0000 		.4byte	.LLST57
 3788 0a1d 19       		.uleb128 0x19
 3789 0a1e 14000000 		.4byte	.LVL190
 3790 0a22 DF0F0000 		.4byte	0xfdf
 3791 0a26 1C       		.uleb128 0x1c
 3792 0a27 22000000 		.4byte	.LVL192
 3793 0a2b 5D050000 		.4byte	0x55d
 3794 0a2f 3F0A0000 		.4byte	0xa3f
 3795 0a33 1B       		.uleb128 0x1b
 3796 0a34 01       		.uleb128 0x1
 3797 0a35 51       		.byte	0x51
 3798 0a36 01       		.uleb128 0x1
 3799 0a37 30       		.byte	0x30
 3800 0a38 1B       		.uleb128 0x1b
 3801 0a39 01       		.uleb128 0x1
 3802 0a3a 50       		.byte	0x50
 3803 0a3b 02       		.uleb128 0x2
 3804 0a3c 91       		.byte	0x91
 3805 0a3d 44       		.sleb128 -60
 3806 0a3e 00       		.byte	0
 3807 0a3f 1C       		.uleb128 0x1c
 3808 0a40 36000000 		.4byte	.LVL195
 3809 0a44 BB0F0000 		.4byte	0xfbb
 3810 0a48 640A0000 		.4byte	0xa64
 3811 0a4c 1B       		.uleb128 0x1b
 3812 0a4d 01       		.uleb128 0x1
 3813 0a4e 53       		.byte	0x53
 3814 0a4f 01       		.uleb128 0x1
 3815 0a50 40       		.byte	0x40
 3816 0a51 1B       		.uleb128 0x1b
 3817 0a52 01       		.uleb128 0x1
 3818 0a53 52       		.byte	0x52
 3819 0a54 03       		.uleb128 0x3
ARM GAS  C:\Users\Petro\AppData\Local\Temp\cc5IgTu7.s 			page 90


 3820 0a55 0A       		.byte	0xa
 3821 0a56 BE01     		.2byte	0x1be
 3822 0a58 1B       		.uleb128 0x1b
 3823 0a59 01       		.uleb128 0x1
 3824 0a5a 51       		.byte	0x51
 3825 0a5b 01       		.uleb128 0x1
 3826 0a5c 30       		.byte	0x30
 3827 0a5d 1B       		.uleb128 0x1b
 3828 0a5e 01       		.uleb128 0x1
 3829 0a5f 50       		.byte	0x50
 3830 0a60 02       		.uleb128 0x2
 3831 0a61 91       		.byte	0x91
 3832 0a62 44       		.sleb128 -60
 3833 0a63 00       		.byte	0
 3834 0a64 1C       		.uleb128 0x1c
 3835 0a65 4C000000 		.4byte	.LVL197
 3836 0a69 5D050000 		.4byte	0x55d
 3837 0a6d 7E0A0000 		.4byte	0xa7e
 3838 0a71 1B       		.uleb128 0x1b
 3839 0a72 01       		.uleb128 0x1
 3840 0a73 51       		.byte	0x51
 3841 0a74 02       		.uleb128 0x2
 3842 0a75 76       		.byte	0x76
 3843 0a76 00       		.sleb128 0
 3844 0a77 1B       		.uleb128 0x1b
 3845 0a78 01       		.uleb128 0x1
 3846 0a79 50       		.byte	0x50
 3847 0a7a 02       		.uleb128 0x2
 3848 0a7b 91       		.byte	0x91
 3849 0a7c 44       		.sleb128 -60
 3850 0a7d 00       		.byte	0
 3851 0a7e 1A       		.uleb128 0x1a
 3852 0a7f 74000000 		.4byte	.LVL204
 3853 0a83 BB0F0000 		.4byte	0xfbb
 3854 0a87 1B       		.uleb128 0x1b
 3855 0a88 01       		.uleb128 0x1
 3856 0a89 53       		.byte	0x53
 3857 0a8a 02       		.uleb128 0x2
 3858 0a8b 08       		.byte	0x8
 3859 0a8c 24       		.byte	0x24
 3860 0a8d 1B       		.uleb128 0x1b
 3861 0a8e 01       		.uleb128 0x1
 3862 0a8f 52       		.byte	0x52
 3863 0a90 01       		.uleb128 0x1
 3864 0a91 3D       		.byte	0x3d
 3865 0a92 1B       		.uleb128 0x1b
 3866 0a93 01       		.uleb128 0x1
 3867 0a94 51       		.byte	0x51
 3868 0a95 02       		.uleb128 0x2
 3869 0a96 76       		.byte	0x76
 3870 0a97 00       		.sleb128 0
 3871 0a98 1B       		.uleb128 0x1b
 3872 0a99 01       		.uleb128 0x1
 3873 0a9a 50       		.byte	0x50
 3874 0a9b 02       		.uleb128 0x2
 3875 0a9c 91       		.byte	0x91
 3876 0a9d 44       		.sleb128 -60
ARM GAS  C:\Users\Petro\AppData\Local\Temp\cc5IgTu7.s 			page 91


 3877 0a9e 00       		.byte	0
 3878 0a9f 00       		.byte	0
 3879 0aa0 0A       		.uleb128 0xa
 3880 0aa1 25000000 		.4byte	0x25
 3881 0aa5 B00A0000 		.4byte	0xab0
 3882 0aa9 0B       		.uleb128 0xb
 3883 0aaa E8010000 		.4byte	0x1e8
 3884 0aae 23       		.byte	0x23
 3885 0aaf 00       		.byte	0
 3886 0ab0 1F       		.uleb128 0x1f
 3887 0ab1 54000000 		.4byte	.LASF69
 3888 0ab5 01       		.byte	0x1
 3889 0ab6 3D03     		.2byte	0x33d
 3890 0ab8 34020000 		.4byte	0x234
 3891 0abc 00000000 		.4byte	.LFB14
 3892 0ac0 5C000000 		.4byte	.LFE14-.LFB14
 3893 0ac4 01       		.uleb128 0x1
 3894 0ac5 9C       		.byte	0x9c
 3895 0ac6 570B0000 		.4byte	0xb57
 3896 0aca 16       		.uleb128 0x16
 3897 0acb C6000000 		.4byte	.LASF56
 3898 0acf 01       		.byte	0x1
 3899 0ad0 3E03     		.2byte	0x33e
 3900 0ad2 4D030000 		.4byte	0x34d
 3901 0ad6 BD0B0000 		.4byte	.LLST58
 3902 0ada 11       		.uleb128 0x11
 3903 0adb 72657300 		.ascii	"res\000"
 3904 0adf 01       		.byte	0x1
 3905 0ae0 4103     		.2byte	0x341
 3906 0ae2 34020000 		.4byte	0x234
 3907 0ae6 020C0000 		.4byte	.LLST59
 3908 0aea 17       		.uleb128 0x17
 3909 0aeb 646A00   		.ascii	"dj\000"
 3910 0aee 01       		.byte	0x1
 3911 0aef 4203     		.2byte	0x342
 3912 0af1 88010000 		.4byte	0x188
 3913 0af5 02       		.uleb128 0x2
 3914 0af6 91       		.byte	0x91
 3915 0af7 64       		.sleb128 -28
 3916 0af8 17       		.uleb128 0x17
 3917 0af9 737000   		.ascii	"sp\000"
 3918 0afc 01       		.byte	0x1
 3919 0afd 4303     		.2byte	0x343
 3920 0aff 570B0000 		.4byte	0xb57
 3921 0b03 02       		.uleb128 0x2
 3922 0b04 91       		.byte	0x91
 3923 0b05 58       		.sleb128 -40
 3924 0b06 17       		.uleb128 0x17
 3925 0b07 64697200 		.ascii	"dir\000"
 3926 0b0b 01       		.byte	0x1
 3927 0b0c 4303     		.2byte	0x343
 3928 0b0e 670B0000 		.4byte	0xb67
 3929 0b12 03       		.uleb128 0x3
 3930 0b13 91       		.byte	0x91
 3931 0b14 B87F     		.sleb128 -72
 3932 0b16 11       		.uleb128 0x11
 3933 0b17 667300   		.ascii	"fs\000"
ARM GAS  C:\Users\Petro\AppData\Local\Temp\cc5IgTu7.s 			page 92


 3934 0b1a 01       		.byte	0x1
 3935 0b1b 4403     		.2byte	0x344
 3936 0b1d 90030000 		.4byte	0x390
 3937 0b21 2B0C0000 		.4byte	.LLST60
 3938 0b25 1C       		.uleb128 0x1c
 3939 0b26 1E000000 		.4byte	.LVL232
 3940 0b2a 53080000 		.4byte	0x853
 3941 0b2e 460B0000 		.4byte	0xb46
 3942 0b32 1B       		.uleb128 0x1b
 3943 0b33 01       		.uleb128 0x1
 3944 0b34 52       		.byte	0x52
 3945 0b35 03       		.uleb128 0x3
 3946 0b36 F3       		.byte	0xf3
 3947 0b37 01       		.uleb128 0x1
 3948 0b38 50       		.byte	0x50
 3949 0b39 1B       		.uleb128 0x1b
 3950 0b3a 01       		.uleb128 0x1
 3951 0b3b 51       		.byte	0x51
 3952 0b3c 02       		.uleb128 0x2
 3953 0b3d 7D       		.byte	0x7d
 3954 0b3e 00       		.sleb128 0
 3955 0b3f 1B       		.uleb128 0x1b
 3956 0b40 01       		.uleb128 0x1
 3957 0b41 50       		.byte	0x50
 3958 0b42 02       		.uleb128 0x2
 3959 0b43 91       		.byte	0x91
 3960 0b44 64       		.sleb128 -28
 3961 0b45 00       		.byte	0
 3962 0b46 1A       		.uleb128 0x1a
 3963 0b47 38000000 		.4byte	.LVL234
 3964 0b4b 96030000 		.4byte	0x396
 3965 0b4f 1B       		.uleb128 0x1b
 3966 0b50 01       		.uleb128 0x1
 3967 0b51 50       		.byte	0x50
 3968 0b52 02       		.uleb128 0x2
 3969 0b53 7D       		.byte	0x7d
 3970 0b54 00       		.sleb128 0
 3971 0b55 00       		.byte	0
 3972 0b56 00       		.byte	0
 3973 0b57 0A       		.uleb128 0xa
 3974 0b58 25000000 		.4byte	0x25
 3975 0b5c 670B0000 		.4byte	0xb67
 3976 0b60 0B       		.uleb128 0xb
 3977 0b61 E8010000 		.4byte	0x1e8
 3978 0b65 0B       		.byte	0xb
 3979 0b66 00       		.byte	0
 3980 0b67 0A       		.uleb128 0xa
 3981 0b68 25000000 		.4byte	0x25
 3982 0b6c 770B0000 		.4byte	0xb77
 3983 0b70 0B       		.uleb128 0xb
 3984 0b71 E8010000 		.4byte	0x1e8
 3985 0b75 1F       		.byte	0x1f
 3986 0b76 00       		.byte	0
 3987 0b77 1F       		.uleb128 0x1f
 3988 0b78 A8030000 		.4byte	.LASF70
 3989 0b7c 01       		.byte	0x1
 3990 0b7d 6003     		.2byte	0x360
ARM GAS  C:\Users\Petro\AppData\Local\Temp\cc5IgTu7.s 			page 93


 3991 0b7f 34020000 		.4byte	0x234
 3992 0b83 00000000 		.4byte	.LFB15
 3993 0b87 D4000000 		.4byte	.LFE15-.LFB15
 3994 0b8b 01       		.uleb128 0x1
 3995 0b8c 9C       		.byte	0x9c
 3996 0b8d 600C0000 		.4byte	0xc60
 3997 0b91 16       		.uleb128 0x16
 3998 0b92 79000000 		.4byte	.LASF71
 3999 0b96 01       		.byte	0x1
 4000 0b97 6103     		.2byte	0x361
 4001 0b99 C9020000 		.4byte	0x2c9
 4002 0b9d 3E0C0000 		.4byte	.LLST61
 4003 0ba1 0F       		.uleb128 0xf
 4004 0ba2 62747200 		.ascii	"btr\000"
 4005 0ba6 01       		.byte	0x1
 4006 0ba7 6203     		.2byte	0x362
 4007 0ba9 57000000 		.4byte	0x57
 4008 0bad A40C0000 		.4byte	.LLST62
 4009 0bb1 0F       		.uleb128 0xf
 4010 0bb2 627200   		.ascii	"br\000"
 4011 0bb5 01       		.byte	0x1
 4012 0bb6 6303     		.2byte	0x363
 4013 0bb8 600C0000 		.4byte	0xc60
 4014 0bbc CD0C0000 		.4byte	.LLST63
 4015 0bc0 11       		.uleb128 0x11
 4016 0bc1 647200   		.ascii	"dr\000"
 4017 0bc4 01       		.byte	0x1
 4018 0bc5 6603     		.2byte	0x366
 4019 0bc7 6B020000 		.4byte	0x26b
 4020 0bcb 040D0000 		.4byte	.LLST64
 4021 0bcf 18       		.uleb128 0x18
 4022 0bd0 C7030000 		.4byte	.LASF52
 4023 0bd4 01       		.byte	0x1
 4024 0bd5 6703     		.2byte	0x367
 4025 0bd7 70000000 		.4byte	0x70
 4026 0bdb 220D0000 		.4byte	.LLST65
 4027 0bdf 18       		.uleb128 0x18
 4028 0be0 8C000000 		.4byte	.LASF28
 4029 0be4 01       		.byte	0x1
 4030 0be5 6803     		.2byte	0x368
 4031 0be7 70000000 		.4byte	0x70
 4032 0beb 4B0D0000 		.4byte	.LLST66
 4033 0bef 18       		.uleb128 0x18
 4034 0bf0 7E020000 		.4byte	.LASF72
 4035 0bf4 01       		.byte	0x1
 4036 0bf5 6803     		.2byte	0x368
 4037 0bf7 70000000 		.4byte	0x70
 4038 0bfb 760D0000 		.4byte	.LLST67
 4039 0bff 18       		.uleb128 0x18
 4040 0c00 3E000000 		.4byte	.LASF73
 4041 0c04 01       		.byte	0x1
 4042 0c05 6903     		.2byte	0x369
 4043 0c07 57000000 		.4byte	0x57
 4044 0c0b 990D0000 		.4byte	.LLST68
 4045 0c0f 11       		.uleb128 0x11
 4046 0c10 637300   		.ascii	"cs\000"
 4047 0c13 01       		.byte	0x1
ARM GAS  C:\Users\Petro\AppData\Local\Temp\cc5IgTu7.s 			page 94


 4048 0c14 6A03     		.2byte	0x36a
 4049 0c16 25000000 		.4byte	0x25
 4050 0c1a AC0D0000 		.4byte	.LLST69
 4051 0c1e 18       		.uleb128 0x18
 4052 0c1f 38000000 		.4byte	.LASF74
 4053 0c23 01       		.byte	0x1
 4054 0c24 6A03     		.2byte	0x36a
 4055 0c26 82010000 		.4byte	0x182
 4056 0c2a BF0D0000 		.4byte	.LLST70
 4057 0c2e 11       		.uleb128 0x11
 4058 0c2f 667300   		.ascii	"fs\000"
 4059 0c32 01       		.byte	0x1
 4060 0c33 6B03     		.2byte	0x36b
 4061 0c35 90030000 		.4byte	0x390
 4062 0c39 010E0000 		.4byte	.LLST71
 4063 0c3d 19       		.uleb128 0x19
 4064 0c3e 4E000000 		.4byte	.LVL251
 4065 0c42 04060000 		.4byte	0x604
 4066 0c46 19       		.uleb128 0x19
 4067 0c47 62000000 		.4byte	.LVL255
 4068 0c4b 58030000 		.4byte	0x358
 4069 0c4f 1A       		.uleb128 0x1a
 4070 0c50 98000000 		.4byte	.LVL264
 4071 0c54 BB0F0000 		.4byte	0xfbb
 4072 0c58 1B       		.uleb128 0x1b
 4073 0c59 01       		.uleb128 0x1
 4074 0c5a 53       		.byte	0x53
 4075 0c5b 02       		.uleb128 0x2
 4076 0c5c 74       		.byte	0x74
 4077 0c5d 00       		.sleb128 0
 4078 0c5e 00       		.byte	0
 4079 0c5f 00       		.byte	0
 4080 0c60 08       		.uleb128 0x8
 4081 0c61 04       		.byte	0x4
 4082 0c62 57000000 		.4byte	0x57
 4083 0c66 1F       		.uleb128 0x1f
 4084 0c67 EC000000 		.4byte	.LASF75
 4085 0c6b 01       		.byte	0x1
 4086 0c6c 9803     		.2byte	0x398
 4087 0c6e 34020000 		.4byte	0x234
 4088 0c72 00000000 		.4byte	.LFB16
 4089 0c76 34010000 		.4byte	.LFE16-.LFB16
 4090 0c7a 01       		.uleb128 0x1
 4091 0c7b 9C       		.byte	0x9c
 4092 0c7c 890D0000 		.4byte	0xd89
 4093 0c80 16       		.uleb128 0x16
 4094 0c81 79000000 		.4byte	.LASF71
 4095 0c85 01       		.byte	0x1
 4096 0c86 9903     		.2byte	0x399
 4097 0c88 46030000 		.4byte	0x346
 4098 0c8c 140E0000 		.4byte	.LLST72
 4099 0c90 0F       		.uleb128 0xf
 4100 0c91 62747700 		.ascii	"btw\000"
 4101 0c95 01       		.byte	0x1
 4102 0c96 9A03     		.2byte	0x39a
 4103 0c98 57000000 		.4byte	0x57
 4104 0c9c 7A0E0000 		.4byte	.LLST73
ARM GAS  C:\Users\Petro\AppData\Local\Temp\cc5IgTu7.s 			page 95


 4105 0ca0 0F       		.uleb128 0xf
 4106 0ca1 627700   		.ascii	"bw\000"
 4107 0ca4 01       		.byte	0x1
 4108 0ca5 9B03     		.2byte	0x39b
 4109 0ca7 600C0000 		.4byte	0xc60
 4110 0cab BC0E0000 		.4byte	.LLST74
 4111 0caf 18       		.uleb128 0x18
 4112 0cb0 C7030000 		.4byte	.LASF52
 4113 0cb4 01       		.byte	0x1
 4114 0cb5 9E03     		.2byte	0x39e
 4115 0cb7 70000000 		.4byte	0x70
 4116 0cbb FE0E0000 		.4byte	.LLST75
 4117 0cbf 18       		.uleb128 0x18
 4118 0cc0 8C000000 		.4byte	.LASF28
 4119 0cc4 01       		.byte	0x1
 4120 0cc5 9F03     		.2byte	0x39f
 4121 0cc7 70000000 		.4byte	0x70
 4122 0ccb 270F0000 		.4byte	.LLST76
 4123 0ccf 18       		.uleb128 0x18
 4124 0cd0 7E020000 		.4byte	.LASF72
 4125 0cd4 01       		.byte	0x1
 4126 0cd5 9F03     		.2byte	0x39f
 4127 0cd7 70000000 		.4byte	0x70
 4128 0cdb 520F0000 		.4byte	.LLST77
 4129 0cdf 11       		.uleb128 0x11
 4130 0ce0 7000     		.ascii	"p\000"
 4131 0ce2 01       		.byte	0x1
 4132 0ce3 A003     		.2byte	0x3a0
 4133 0ce5 890D0000 		.4byte	0xd89
 4134 0ce9 750F0000 		.4byte	.LLST78
 4135 0ced 11       		.uleb128 0x11
 4136 0cee 637300   		.ascii	"cs\000"
 4137 0cf1 01       		.byte	0x1
 4138 0cf2 A103     		.2byte	0x3a1
 4139 0cf4 25000000 		.4byte	0x25
 4140 0cf8 D50F0000 		.4byte	.LLST79
 4141 0cfc 18       		.uleb128 0x18
 4142 0cfd 79020000 		.4byte	.LASF76
 4143 0d01 01       		.byte	0x1
 4144 0d02 A203     		.2byte	0x3a2
 4145 0d04 57000000 		.4byte	0x57
 4146 0d08 E80F0000 		.4byte	.LLST80
 4147 0d0c 11       		.uleb128 0x11
 4148 0d0d 667300   		.ascii	"fs\000"
 4149 0d10 01       		.byte	0x1
 4150 0d11 A303     		.2byte	0x3a3
 4151 0d13 90030000 		.4byte	0x390
 4152 0d17 FB0F0000 		.4byte	.LLST81
 4153 0d1b 1C       		.uleb128 0x1c
 4154 0d1c 2E000000 		.4byte	.LVL281
 4155 0d20 EA0F0000 		.4byte	0xfea
 4156 0d24 350D0000 		.4byte	0xd35
 4157 0d28 1B       		.uleb128 0x1b
 4158 0d29 01       		.uleb128 0x1
 4159 0d2a 51       		.byte	0x51
 4160 0d2b 03       		.uleb128 0x3
 4161 0d2c F3       		.byte	0xf3
ARM GAS  C:\Users\Petro\AppData\Local\Temp\cc5IgTu7.s 			page 96


 4162 0d2d 01       		.uleb128 0x1
 4163 0d2e 51       		.byte	0x51
 4164 0d2f 1B       		.uleb128 0x1b
 4165 0d30 01       		.uleb128 0x1
 4166 0d31 50       		.byte	0x50
 4167 0d32 01       		.uleb128 0x1
 4168 0d33 30       		.byte	0x30
 4169 0d34 00       		.byte	0
 4170 0d35 19       		.uleb128 0x19
 4171 0d36 80000000 		.4byte	.LVL289
 4172 0d3a 04060000 		.4byte	0x604
 4173 0d3e 19       		.uleb128 0x19
 4174 0d3f 94000000 		.4byte	.LVL293
 4175 0d43 58030000 		.4byte	0x358
 4176 0d47 1C       		.uleb128 0x1c
 4177 0d48 AA000000 		.4byte	.LVL297
 4178 0d4c EA0F0000 		.4byte	0xfea
 4179 0d50 5A0D0000 		.4byte	0xd5a
 4180 0d54 1B       		.uleb128 0x1b
 4181 0d55 01       		.uleb128 0x1
 4182 0d56 50       		.byte	0x50
 4183 0d57 01       		.uleb128 0x1
 4184 0d58 30       		.byte	0x30
 4185 0d59 00       		.byte	0
 4186 0d5a 1C       		.uleb128 0x1c
 4187 0d5b D8000000 		.4byte	.LVL301
 4188 0d5f EA0F0000 		.4byte	0xfea
 4189 0d63 740D0000 		.4byte	0xd74
 4190 0d67 1B       		.uleb128 0x1b
 4191 0d68 01       		.uleb128 0x1
 4192 0d69 51       		.byte	0x51
 4193 0d6a 02       		.uleb128 0x2
 4194 0d6b 74       		.byte	0x74
 4195 0d6c 00       		.sleb128 0
 4196 0d6d 1B       		.uleb128 0x1b
 4197 0d6e 01       		.uleb128 0x1
 4198 0d6f 50       		.byte	0x50
 4199 0d70 02       		.uleb128 0x2
 4200 0d71 77       		.byte	0x77
 4201 0d72 00       		.sleb128 0
 4202 0d73 00       		.byte	0
 4203 0d74 1A       		.uleb128 0x1a
 4204 0d75 08010000 		.4byte	.LVL305
 4205 0d79 EA0F0000 		.4byte	0xfea
 4206 0d7d 1B       		.uleb128 0x1b
 4207 0d7e 01       		.uleb128 0x1
 4208 0d7f 51       		.byte	0x51
 4209 0d80 01       		.uleb128 0x1
 4210 0d81 30       		.byte	0x30
 4211 0d82 1B       		.uleb128 0x1b
 4212 0d83 01       		.uleb128 0x1
 4213 0d84 50       		.byte	0x50
 4214 0d85 01       		.uleb128 0x1
 4215 0d86 30       		.byte	0x30
 4216 0d87 00       		.byte	0
 4217 0d88 00       		.byte	0
 4218 0d89 08       		.uleb128 0x8
ARM GAS  C:\Users\Petro\AppData\Local\Temp\cc5IgTu7.s 			page 97


 4219 0d8a 04       		.byte	0x4
 4220 0d8b 8F0D0000 		.4byte	0xd8f
 4221 0d8f 15       		.uleb128 0x15
 4222 0d90 25000000 		.4byte	0x25
 4223 0d94 1E       		.uleb128 0x1e
 4224 0d95 BD000000 		.4byte	.LASF77
 4225 0d99 01       		.byte	0x1
 4226 0d9a DD03     		.2byte	0x3dd
 4227 0d9c 34020000 		.4byte	0x234
 4228 0da0 00000000 		.4byte	.LFB17
 4229 0da4 B8000000 		.4byte	.LFE17-.LFB17
 4230 0da8 01       		.uleb128 0x1
 4231 0da9 9C       		.byte	0x9c
 4232 0daa 200E0000 		.4byte	0xe20
 4233 0dae 0F       		.uleb128 0xf
 4234 0daf 6F667300 		.ascii	"ofs\000"
 4235 0db3 01       		.byte	0x1
 4236 0db4 DE03     		.2byte	0x3de
 4237 0db6 70000000 		.4byte	0x70
 4238 0dba 0E100000 		.4byte	.LLST82
 4239 0dbe 18       		.uleb128 0x18
 4240 0dbf C7030000 		.4byte	.LASF52
 4241 0dc3 01       		.byte	0x1
 4242 0dc4 E103     		.2byte	0x3e1
 4243 0dc6 70000000 		.4byte	0x70
 4244 0dca 69100000 		.4byte	.LLST83
 4245 0dce 11       		.uleb128 0x11
 4246 0dcf 62637300 		.ascii	"bcs\000"
 4247 0dd3 01       		.byte	0x1
 4248 0dd4 E203     		.2byte	0x3e2
 4249 0dd6 70000000 		.4byte	0x70
 4250 0dda 9D100000 		.4byte	.LLST84
 4251 0dde 18       		.uleb128 0x18
 4252 0ddf 8C000000 		.4byte	.LASF28
 4253 0de3 01       		.byte	0x1
 4254 0de4 E203     		.2byte	0x3e2
 4255 0de6 70000000 		.4byte	0x70
 4256 0dea B0100000 		.4byte	.LLST85
 4257 0dee 18       		.uleb128 0x18
 4258 0def 31030000 		.4byte	.LASF78
 4259 0df3 01       		.byte	0x1
 4260 0df4 E203     		.2byte	0x3e2
 4261 0df6 70000000 		.4byte	0x70
 4262 0dfa DB100000 		.4byte	.LLST86
 4263 0dfe 11       		.uleb128 0x11
 4264 0dff 667300   		.ascii	"fs\000"
 4265 0e02 01       		.byte	0x1
 4266 0e03 E303     		.2byte	0x3e3
 4267 0e05 90030000 		.4byte	0x390
 4268 0e09 06110000 		.4byte	.LLST87
 4269 0e0d 19       		.uleb128 0x19
 4270 0e0e 5C000000 		.4byte	.LVL327
 4271 0e12 04060000 		.4byte	0x604
 4272 0e16 19       		.uleb128 0x19
 4273 0e17 88000000 		.4byte	.LVL332
 4274 0e1b 58030000 		.4byte	0x358
 4275 0e1f 00       		.byte	0
ARM GAS  C:\Users\Petro\AppData\Local\Temp\cc5IgTu7.s 			page 98


 4276 0e20 1F       		.uleb128 0x1f
 4277 0e21 D7000000 		.4byte	.LASF79
 4278 0e25 01       		.byte	0x1
 4279 0e26 1004     		.2byte	0x410
 4280 0e28 34020000 		.4byte	0x234
 4281 0e2c 00000000 		.4byte	.LFB18
 4282 0e30 54000000 		.4byte	.LFE18-.LFB18
 4283 0e34 01       		.uleb128 0x1
 4284 0e35 9C       		.byte	0x9c
 4285 0e36 DB0E0000 		.4byte	0xedb
 4286 0e3a 0F       		.uleb128 0xf
 4287 0e3b 646A00   		.ascii	"dj\000"
 4288 0e3e 01       		.byte	0x1
 4289 0e3f 1104     		.2byte	0x411
 4290 0e41 32040000 		.4byte	0x432
 4291 0e45 19110000 		.4byte	.LLST88
 4292 0e49 16       		.uleb128 0x16
 4293 0e4a C6000000 		.4byte	.LASF56
 4294 0e4e 01       		.byte	0x1
 4295 0e4f 1204     		.2byte	0x412
 4296 0e51 4D030000 		.4byte	0x34d
 4297 0e55 50110000 		.4byte	.LLST89
 4298 0e59 11       		.uleb128 0x11
 4299 0e5a 72657300 		.ascii	"res\000"
 4300 0e5e 01       		.byte	0x1
 4301 0e5f 1504     		.2byte	0x415
 4302 0e61 34020000 		.4byte	0x234
 4303 0e65 95110000 		.4byte	.LLST90
 4304 0e69 17       		.uleb128 0x17
 4305 0e6a 737000   		.ascii	"sp\000"
 4306 0e6d 01       		.byte	0x1
 4307 0e6e 1604     		.2byte	0x416
 4308 0e70 570B0000 		.4byte	0xb57
 4309 0e74 02       		.uleb128 0x2
 4310 0e75 91       		.byte	0x91
 4311 0e76 64       		.sleb128 -28
 4312 0e77 17       		.uleb128 0x17
 4313 0e78 64697200 		.ascii	"dir\000"
 4314 0e7c 01       		.byte	0x1
 4315 0e7d 1604     		.2byte	0x416
 4316 0e7f 670B0000 		.4byte	0xb67
 4317 0e83 02       		.uleb128 0x2
 4318 0e84 91       		.byte	0x91
 4319 0e85 44       		.sleb128 -60
 4320 0e86 11       		.uleb128 0x11
 4321 0e87 667300   		.ascii	"fs\000"
 4322 0e8a 01       		.byte	0x1
 4323 0e8b 1704     		.2byte	0x417
 4324 0e8d 90030000 		.4byte	0x390
 4325 0e91 DF110000 		.4byte	.LLST91
 4326 0e95 1C       		.uleb128 0x1c
 4327 0e96 1A000000 		.4byte	.LVL347
 4328 0e9a 53080000 		.4byte	0x853
 4329 0e9e B60E0000 		.4byte	0xeb6
 4330 0ea2 1B       		.uleb128 0x1b
 4331 0ea3 01       		.uleb128 0x1
 4332 0ea4 52       		.byte	0x52
ARM GAS  C:\Users\Petro\AppData\Local\Temp\cc5IgTu7.s 			page 99


 4333 0ea5 03       		.uleb128 0x3
 4334 0ea6 F3       		.byte	0xf3
 4335 0ea7 01       		.uleb128 0x1
 4336 0ea8 51       		.byte	0x51
 4337 0ea9 1B       		.uleb128 0x1b
 4338 0eaa 01       		.uleb128 0x1
 4339 0eab 51       		.byte	0x51
 4340 0eac 02       		.uleb128 0x2
 4341 0ead 91       		.byte	0x91
 4342 0eae 44       		.sleb128 -60
 4343 0eaf 1B       		.uleb128 0x1b
 4344 0eb0 01       		.uleb128 0x1
 4345 0eb1 50       		.byte	0x50
 4346 0eb2 02       		.uleb128 0x2
 4347 0eb3 75       		.byte	0x75
 4348 0eb4 00       		.sleb128 0
 4349 0eb5 00       		.byte	0
 4350 0eb6 1C       		.uleb128 0x1c
 4351 0eb7 34000000 		.4byte	.LVL350
 4352 0ebb 96030000 		.4byte	0x396
 4353 0ebf CA0E0000 		.4byte	0xeca
 4354 0ec3 1B       		.uleb128 0x1b
 4355 0ec4 01       		.uleb128 0x1
 4356 0ec5 50       		.byte	0x50
 4357 0ec6 02       		.uleb128 0x2
 4358 0ec7 91       		.byte	0x91
 4359 0ec8 44       		.sleb128 -60
 4360 0ec9 00       		.byte	0
 4361 0eca 1A       		.uleb128 0x1a
 4362 0ecb 44000000 		.4byte	.LVL353
 4363 0ecf E0030000 		.4byte	0x3e0
 4364 0ed3 1B       		.uleb128 0x1b
 4365 0ed4 01       		.uleb128 0x1
 4366 0ed5 50       		.byte	0x50
 4367 0ed6 02       		.uleb128 0x2
 4368 0ed7 75       		.byte	0x75
 4369 0ed8 00       		.sleb128 0
 4370 0ed9 00       		.byte	0
 4371 0eda 00       		.byte	0
 4372 0edb 1F       		.uleb128 0x1f
 4373 0edc BC030000 		.4byte	.LASF80
 4374 0ee0 01       		.byte	0x1
 4375 0ee1 3504     		.2byte	0x435
 4376 0ee3 34020000 		.4byte	0x234
 4377 0ee7 00000000 		.4byte	.LFB19
 4378 0eeb 58000000 		.4byte	.LFE19-.LFB19
 4379 0eef 01       		.uleb128 0x1
 4380 0ef0 9C       		.byte	0x9c
 4381 0ef1 A90F0000 		.4byte	0xfa9
 4382 0ef5 0F       		.uleb128 0xf
 4383 0ef6 646A00   		.ascii	"dj\000"
 4384 0ef9 01       		.byte	0x1
 4385 0efa 3604     		.2byte	0x436
 4386 0efc 32040000 		.4byte	0x432
 4387 0f00 0C120000 		.4byte	.LLST92
 4388 0f04 0F       		.uleb128 0xf
 4389 0f05 666E6F00 		.ascii	"fno\000"
ARM GAS  C:\Users\Petro\AppData\Local\Temp\cc5IgTu7.s 			page 100


 4390 0f09 01       		.byte	0x1
 4391 0f0a 3704     		.2byte	0x437
 4392 0f0c 57050000 		.4byte	0x557
 4393 0f10 59120000 		.4byte	.LLST93
 4394 0f14 11       		.uleb128 0x11
 4395 0f15 72657300 		.ascii	"res\000"
 4396 0f19 01       		.byte	0x1
 4397 0f1a 3A04     		.2byte	0x43a
 4398 0f1c 34020000 		.4byte	0x234
 4399 0f20 A6120000 		.4byte	.LLST94
 4400 0f24 17       		.uleb128 0x17
 4401 0f25 737000   		.ascii	"sp\000"
 4402 0f28 01       		.byte	0x1
 4403 0f29 3B04     		.2byte	0x43b
 4404 0f2b 570B0000 		.4byte	0xb57
 4405 0f2f 02       		.uleb128 0x2
 4406 0f30 91       		.byte	0x91
 4407 0f31 64       		.sleb128 -28
 4408 0f32 17       		.uleb128 0x17
 4409 0f33 64697200 		.ascii	"dir\000"
 4410 0f37 01       		.byte	0x1
 4411 0f38 3B04     		.2byte	0x43b
 4412 0f3a 670B0000 		.4byte	0xb67
 4413 0f3e 02       		.uleb128 0x2
 4414 0f3f 91       		.byte	0x91
 4415 0f40 44       		.sleb128 -60
 4416 0f41 11       		.uleb128 0x11
 4417 0f42 667300   		.ascii	"fs\000"
 4418 0f45 01       		.byte	0x1
 4419 0f46 3C04     		.2byte	0x43c
 4420 0f48 90030000 		.4byte	0x390
 4421 0f4c E5120000 		.4byte	.LLST95
 4422 0f50 1C       		.uleb128 0x1c
 4423 0f51 1C000000 		.4byte	.LVL361
 4424 0f55 E0030000 		.4byte	0x3e0
 4425 0f59 640F0000 		.4byte	0xf64
 4426 0f5d 1B       		.uleb128 0x1b
 4427 0f5e 01       		.uleb128 0x1
 4428 0f5f 50       		.byte	0x50
 4429 0f60 02       		.uleb128 0x2
 4430 0f61 75       		.byte	0x75
 4431 0f62 00       		.sleb128 0
 4432 0f63 00       		.byte	0
 4433 0f64 1C       		.uleb128 0x1c
 4434 0f65 26000000 		.4byte	.LVL365
 4435 0f69 05090000 		.4byte	0x905
 4436 0f6d 780F0000 		.4byte	0xf78
 4437 0f71 1B       		.uleb128 0x1b
 4438 0f72 01       		.uleb128 0x1
 4439 0f73 51       		.byte	0x51
 4440 0f74 02       		.uleb128 0x2
 4441 0f75 91       		.byte	0x91
 4442 0f76 44       		.sleb128 -60
 4443 0f77 00       		.byte	0
 4444 0f78 1C       		.uleb128 0x1c
 4445 0f79 3C000000 		.4byte	.LVL368
 4446 0f7d EB040000 		.4byte	0x4eb
ARM GAS  C:\Users\Petro\AppData\Local\Temp\cc5IgTu7.s 			page 101


 4447 0f81 980F0000 		.4byte	0xf98
 4448 0f85 1B       		.uleb128 0x1b
 4449 0f86 01       		.uleb128 0x1
 4450 0f87 52       		.byte	0x52
 4451 0f88 02       		.uleb128 0x2
 4452 0f89 76       		.byte	0x76
 4453 0f8a 00       		.sleb128 0
 4454 0f8b 1B       		.uleb128 0x1b
 4455 0f8c 01       		.uleb128 0x1
 4456 0f8d 51       		.byte	0x51
 4457 0f8e 02       		.uleb128 0x2
 4458 0f8f 91       		.byte	0x91
 4459 0f90 44       		.sleb128 -60
 4460 0f91 1B       		.uleb128 0x1b
 4461 0f92 01       		.uleb128 0x1
 4462 0f93 50       		.byte	0x50
 4463 0f94 02       		.uleb128 0x2
 4464 0f95 75       		.byte	0x75
 4465 0f96 00       		.sleb128 0
 4466 0f97 00       		.byte	0
 4467 0f98 1A       		.uleb128 0x1a
 4468 0f99 42000000 		.4byte	.LVL369
 4469 0f9d 3B070000 		.4byte	0x73b
 4470 0fa1 1B       		.uleb128 0x1b
 4471 0fa2 01       		.uleb128 0x1
 4472 0fa3 50       		.byte	0x50
 4473 0fa4 02       		.uleb128 0x2
 4474 0fa5 75       		.byte	0x75
 4475 0fa6 00       		.sleb128 0
 4476 0fa7 00       		.byte	0
 4477 0fa8 00       		.byte	0
 4478 0fa9 20       		.uleb128 0x20
 4479 0faa 06000000 		.4byte	.LASF81
 4480 0fae 01       		.byte	0x1
 4481 0faf 4301     		.2byte	0x143
 4482 0fb1 90030000 		.4byte	0x390
 4483 0fb5 05       		.uleb128 0x5
 4484 0fb6 03       		.byte	0x3
 4485 0fb7 00000000 		.4byte	FatFs
 4486 0fbb 21       		.uleb128 0x21
 4487 0fbc 5B020000 		.4byte	.LASF85
 4488 0fc0 04       		.byte	0x4
 4489 0fc1 20       		.byte	0x20
 4490 0fc2 6B020000 		.4byte	0x26b
 4491 0fc6 DF0F0000 		.4byte	0xfdf
 4492 0fca 22       		.uleb128 0x22
 4493 0fcb 82010000 		.4byte	0x182
 4494 0fcf 22       		.uleb128 0x22
 4495 0fd0 70000000 		.4byte	0x70
 4496 0fd4 22       		.uleb128 0x22
 4497 0fd5 57000000 		.4byte	0x57
 4498 0fd9 22       		.uleb128 0x22
 4499 0fda 57000000 		.4byte	0x57
 4500 0fde 00       		.byte	0
 4501 0fdf 23       		.uleb128 0x23
 4502 0fe0 18010000 		.4byte	.LASF86
 4503 0fe4 04       		.byte	0x4
ARM GAS  C:\Users\Petro\AppData\Local\Temp\cc5IgTu7.s 			page 102


 4504 0fe5 1F       		.byte	0x1f
 4505 0fe6 3F020000 		.4byte	0x23f
 4506 0fea 24       		.uleb128 0x24
 4507 0feb B0030000 		.4byte	.LASF87
 4508 0fef 04       		.byte	0x4
 4509 0ff0 21       		.byte	0x21
 4510 0ff1 6B020000 		.4byte	0x26b
 4511 0ff5 22       		.uleb128 0x22
 4512 0ff6 890D0000 		.4byte	0xd89
 4513 0ffa 22       		.uleb128 0x22
 4514 0ffb 70000000 		.4byte	0x70
 4515 0fff 00       		.byte	0
 4516 1000 00       		.byte	0
 4517              		.section	.debug_abbrev,"",%progbits
 4518              	.Ldebug_abbrev0:
 4519 0000 01       		.uleb128 0x1
 4520 0001 11       		.uleb128 0x11
 4521 0002 01       		.byte	0x1
 4522 0003 25       		.uleb128 0x25
 4523 0004 0E       		.uleb128 0xe
 4524 0005 13       		.uleb128 0x13
 4525 0006 0B       		.uleb128 0xb
 4526 0007 03       		.uleb128 0x3
 4527 0008 0E       		.uleb128 0xe
 4528 0009 1B       		.uleb128 0x1b
 4529 000a 0E       		.uleb128 0xe
 4530 000b 55       		.uleb128 0x55
 4531 000c 17       		.uleb128 0x17
 4532 000d 11       		.uleb128 0x11
 4533 000e 01       		.uleb128 0x1
 4534 000f 10       		.uleb128 0x10
 4535 0010 17       		.uleb128 0x17
 4536 0011 00       		.byte	0
 4537 0012 00       		.byte	0
 4538 0013 02       		.uleb128 0x2
 4539 0014 16       		.uleb128 0x16
 4540 0015 00       		.byte	0
 4541 0016 03       		.uleb128 0x3
 4542 0017 0E       		.uleb128 0xe
 4543 0018 3A       		.uleb128 0x3a
 4544 0019 0B       		.uleb128 0xb
 4545 001a 3B       		.uleb128 0x3b
 4546 001b 0B       		.uleb128 0xb
 4547 001c 49       		.uleb128 0x49
 4548 001d 13       		.uleb128 0x13
 4549 001e 00       		.byte	0
 4550 001f 00       		.byte	0
 4551 0020 03       		.uleb128 0x3
 4552 0021 24       		.uleb128 0x24
 4553 0022 00       		.byte	0
 4554 0023 0B       		.uleb128 0xb
 4555 0024 0B       		.uleb128 0xb
 4556 0025 3E       		.uleb128 0x3e
 4557 0026 0B       		.uleb128 0xb
 4558 0027 03       		.uleb128 0x3
 4559 0028 0E       		.uleb128 0xe
 4560 0029 00       		.byte	0
ARM GAS  C:\Users\Petro\AppData\Local\Temp\cc5IgTu7.s 			page 103


 4561 002a 00       		.byte	0
 4562 002b 04       		.uleb128 0x4
 4563 002c 24       		.uleb128 0x24
 4564 002d 00       		.byte	0
 4565 002e 0B       		.uleb128 0xb
 4566 002f 0B       		.uleb128 0xb
 4567 0030 3E       		.uleb128 0x3e
 4568 0031 0B       		.uleb128 0xb
 4569 0032 03       		.uleb128 0x3
 4570 0033 08       		.uleb128 0x8
 4571 0034 00       		.byte	0
 4572 0035 00       		.byte	0
 4573 0036 05       		.uleb128 0x5
 4574 0037 13       		.uleb128 0x13
 4575 0038 01       		.byte	0x1
 4576 0039 0B       		.uleb128 0xb
 4577 003a 0B       		.uleb128 0xb
 4578 003b 3A       		.uleb128 0x3a
 4579 003c 0B       		.uleb128 0xb
 4580 003d 3B       		.uleb128 0x3b
 4581 003e 0B       		.uleb128 0xb
 4582 003f 01       		.uleb128 0x1
 4583 0040 13       		.uleb128 0x13
 4584 0041 00       		.byte	0
 4585 0042 00       		.byte	0
 4586 0043 06       		.uleb128 0x6
 4587 0044 0D       		.uleb128 0xd
 4588 0045 00       		.byte	0
 4589 0046 03       		.uleb128 0x3
 4590 0047 0E       		.uleb128 0xe
 4591 0048 3A       		.uleb128 0x3a
 4592 0049 0B       		.uleb128 0xb
 4593 004a 3B       		.uleb128 0x3b
 4594 004b 0B       		.uleb128 0xb
 4595 004c 49       		.uleb128 0x49
 4596 004d 13       		.uleb128 0x13
 4597 004e 38       		.uleb128 0x38
 4598 004f 0B       		.uleb128 0xb
 4599 0050 00       		.byte	0
 4600 0051 00       		.byte	0
 4601 0052 07       		.uleb128 0x7
 4602 0053 0D       		.uleb128 0xd
 4603 0054 00       		.byte	0
 4604 0055 03       		.uleb128 0x3
 4605 0056 08       		.uleb128 0x8
 4606 0057 3A       		.uleb128 0x3a
 4607 0058 0B       		.uleb128 0xb
 4608 0059 3B       		.uleb128 0x3b
 4609 005a 0B       		.uleb128 0xb
 4610 005b 49       		.uleb128 0x49
 4611 005c 13       		.uleb128 0x13
 4612 005d 38       		.uleb128 0x38
 4613 005e 0B       		.uleb128 0xb
 4614 005f 00       		.byte	0
 4615 0060 00       		.byte	0
 4616 0061 08       		.uleb128 0x8
 4617 0062 0F       		.uleb128 0xf
ARM GAS  C:\Users\Petro\AppData\Local\Temp\cc5IgTu7.s 			page 104


 4618 0063 00       		.byte	0
 4619 0064 0B       		.uleb128 0xb
 4620 0065 0B       		.uleb128 0xb
 4621 0066 49       		.uleb128 0x49
 4622 0067 13       		.uleb128 0x13
 4623 0068 00       		.byte	0
 4624 0069 00       		.byte	0
 4625 006a 09       		.uleb128 0x9
 4626 006b 16       		.uleb128 0x16
 4627 006c 00       		.byte	0
 4628 006d 03       		.uleb128 0x3
 4629 006e 08       		.uleb128 0x8
 4630 006f 3A       		.uleb128 0x3a
 4631 0070 0B       		.uleb128 0xb
 4632 0071 3B       		.uleb128 0x3b
 4633 0072 0B       		.uleb128 0xb
 4634 0073 49       		.uleb128 0x49
 4635 0074 13       		.uleb128 0x13
 4636 0075 00       		.byte	0
 4637 0076 00       		.byte	0
 4638 0077 0A       		.uleb128 0xa
 4639 0078 01       		.uleb128 0x1
 4640 0079 01       		.byte	0x1
 4641 007a 49       		.uleb128 0x49
 4642 007b 13       		.uleb128 0x13
 4643 007c 01       		.uleb128 0x1
 4644 007d 13       		.uleb128 0x13
 4645 007e 00       		.byte	0
 4646 007f 00       		.byte	0
 4647 0080 0B       		.uleb128 0xb
 4648 0081 21       		.uleb128 0x21
 4649 0082 00       		.byte	0
 4650 0083 49       		.uleb128 0x49
 4651 0084 13       		.uleb128 0x13
 4652 0085 2F       		.uleb128 0x2f
 4653 0086 0B       		.uleb128 0xb
 4654 0087 00       		.byte	0
 4655 0088 00       		.byte	0
 4656 0089 0C       		.uleb128 0xc
 4657 008a 04       		.uleb128 0x4
 4658 008b 01       		.byte	0x1
 4659 008c 0B       		.uleb128 0xb
 4660 008d 0B       		.uleb128 0xb
 4661 008e 3A       		.uleb128 0x3a
 4662 008f 0B       		.uleb128 0xb
 4663 0090 3B       		.uleb128 0x3b
 4664 0091 0B       		.uleb128 0xb
 4665 0092 01       		.uleb128 0x1
 4666 0093 13       		.uleb128 0x13
 4667 0094 00       		.byte	0
 4668 0095 00       		.byte	0
 4669 0096 0D       		.uleb128 0xd
 4670 0097 28       		.uleb128 0x28
 4671 0098 00       		.byte	0
 4672 0099 03       		.uleb128 0x3
 4673 009a 0E       		.uleb128 0xe
 4674 009b 1C       		.uleb128 0x1c
ARM GAS  C:\Users\Petro\AppData\Local\Temp\cc5IgTu7.s 			page 105


 4675 009c 0D       		.uleb128 0xd
 4676 009d 00       		.byte	0
 4677 009e 00       		.byte	0
 4678 009f 0E       		.uleb128 0xe
 4679 00a0 2E       		.uleb128 0x2e
 4680 00a1 01       		.byte	0x1
 4681 00a2 03       		.uleb128 0x3
 4682 00a3 0E       		.uleb128 0xe
 4683 00a4 3A       		.uleb128 0x3a
 4684 00a5 0B       		.uleb128 0xb
 4685 00a6 3B       		.uleb128 0x3b
 4686 00a7 05       		.uleb128 0x5
 4687 00a8 27       		.uleb128 0x27
 4688 00a9 19       		.uleb128 0x19
 4689 00aa 11       		.uleb128 0x11
 4690 00ab 01       		.uleb128 0x1
 4691 00ac 12       		.uleb128 0x12
 4692 00ad 06       		.uleb128 0x6
 4693 00ae 40       		.uleb128 0x40
 4694 00af 18       		.uleb128 0x18
 4695 00b0 9742     		.uleb128 0x2117
 4696 00b2 19       		.uleb128 0x19
 4697 00b3 01       		.uleb128 0x1
 4698 00b4 13       		.uleb128 0x13
 4699 00b5 00       		.byte	0
 4700 00b6 00       		.byte	0
 4701 00b7 0F       		.uleb128 0xf
 4702 00b8 05       		.uleb128 0x5
 4703 00b9 00       		.byte	0
 4704 00ba 03       		.uleb128 0x3
 4705 00bb 08       		.uleb128 0x8
 4706 00bc 3A       		.uleb128 0x3a
 4707 00bd 0B       		.uleb128 0xb
 4708 00be 3B       		.uleb128 0x3b
 4709 00bf 05       		.uleb128 0x5
 4710 00c0 49       		.uleb128 0x49
 4711 00c1 13       		.uleb128 0x13
 4712 00c2 02       		.uleb128 0x2
 4713 00c3 17       		.uleb128 0x17
 4714 00c4 00       		.byte	0
 4715 00c5 00       		.byte	0
 4716 00c6 10       		.uleb128 0x10
 4717 00c7 05       		.uleb128 0x5
 4718 00c8 00       		.byte	0
 4719 00c9 03       		.uleb128 0x3
 4720 00ca 08       		.uleb128 0x8
 4721 00cb 3A       		.uleb128 0x3a
 4722 00cc 0B       		.uleb128 0xb
 4723 00cd 3B       		.uleb128 0x3b
 4724 00ce 05       		.uleb128 0x5
 4725 00cf 49       		.uleb128 0x49
 4726 00d0 13       		.uleb128 0x13
 4727 00d1 02       		.uleb128 0x2
 4728 00d2 18       		.uleb128 0x18
 4729 00d3 00       		.byte	0
 4730 00d4 00       		.byte	0
 4731 00d5 11       		.uleb128 0x11
ARM GAS  C:\Users\Petro\AppData\Local\Temp\cc5IgTu7.s 			page 106


 4732 00d6 34       		.uleb128 0x34
 4733 00d7 00       		.byte	0
 4734 00d8 03       		.uleb128 0x3
 4735 00d9 08       		.uleb128 0x8
 4736 00da 3A       		.uleb128 0x3a
 4737 00db 0B       		.uleb128 0xb
 4738 00dc 3B       		.uleb128 0x3b
 4739 00dd 05       		.uleb128 0x5
 4740 00de 49       		.uleb128 0x49
 4741 00df 13       		.uleb128 0x13
 4742 00e0 02       		.uleb128 0x2
 4743 00e1 17       		.uleb128 0x17
 4744 00e2 00       		.byte	0
 4745 00e3 00       		.byte	0
 4746 00e4 12       		.uleb128 0x12
 4747 00e5 0F       		.uleb128 0xf
 4748 00e6 00       		.byte	0
 4749 00e7 0B       		.uleb128 0xb
 4750 00e8 0B       		.uleb128 0xb
 4751 00e9 00       		.byte	0
 4752 00ea 00       		.byte	0
 4753 00eb 13       		.uleb128 0x13
 4754 00ec 2E       		.uleb128 0x2e
 4755 00ed 01       		.byte	0x1
 4756 00ee 03       		.uleb128 0x3
 4757 00ef 0E       		.uleb128 0xe
 4758 00f0 3A       		.uleb128 0x3a
 4759 00f1 0B       		.uleb128 0xb
 4760 00f2 3B       		.uleb128 0x3b
 4761 00f3 05       		.uleb128 0x5
 4762 00f4 27       		.uleb128 0x27
 4763 00f5 19       		.uleb128 0x19
 4764 00f6 49       		.uleb128 0x49
 4765 00f7 13       		.uleb128 0x13
 4766 00f8 11       		.uleb128 0x11
 4767 00f9 01       		.uleb128 0x1
 4768 00fa 12       		.uleb128 0x12
 4769 00fb 06       		.uleb128 0x6
 4770 00fc 40       		.uleb128 0x40
 4771 00fd 18       		.uleb128 0x18
 4772 00fe 9742     		.uleb128 0x2117
 4773 0100 19       		.uleb128 0x19
 4774 0101 01       		.uleb128 0x1
 4775 0102 13       		.uleb128 0x13
 4776 0103 00       		.byte	0
 4777 0104 00       		.byte	0
 4778 0105 14       		.uleb128 0x14
 4779 0106 26       		.uleb128 0x26
 4780 0107 00       		.byte	0
 4781 0108 00       		.byte	0
 4782 0109 00       		.byte	0
 4783 010a 15       		.uleb128 0x15
 4784 010b 26       		.uleb128 0x26
 4785 010c 00       		.byte	0
 4786 010d 49       		.uleb128 0x49
 4787 010e 13       		.uleb128 0x13
 4788 010f 00       		.byte	0
ARM GAS  C:\Users\Petro\AppData\Local\Temp\cc5IgTu7.s 			page 107


 4789 0110 00       		.byte	0
 4790 0111 16       		.uleb128 0x16
 4791 0112 05       		.uleb128 0x5
 4792 0113 00       		.byte	0
 4793 0114 03       		.uleb128 0x3
 4794 0115 0E       		.uleb128 0xe
 4795 0116 3A       		.uleb128 0x3a
 4796 0117 0B       		.uleb128 0xb
 4797 0118 3B       		.uleb128 0x3b
 4798 0119 05       		.uleb128 0x5
 4799 011a 49       		.uleb128 0x49
 4800 011b 13       		.uleb128 0x13
 4801 011c 02       		.uleb128 0x2
 4802 011d 17       		.uleb128 0x17
 4803 011e 00       		.byte	0
 4804 011f 00       		.byte	0
 4805 0120 17       		.uleb128 0x17
 4806 0121 34       		.uleb128 0x34
 4807 0122 00       		.byte	0
 4808 0123 03       		.uleb128 0x3
 4809 0124 08       		.uleb128 0x8
 4810 0125 3A       		.uleb128 0x3a
 4811 0126 0B       		.uleb128 0xb
 4812 0127 3B       		.uleb128 0x3b
 4813 0128 05       		.uleb128 0x5
 4814 0129 49       		.uleb128 0x49
 4815 012a 13       		.uleb128 0x13
 4816 012b 02       		.uleb128 0x2
 4817 012c 18       		.uleb128 0x18
 4818 012d 00       		.byte	0
 4819 012e 00       		.byte	0
 4820 012f 18       		.uleb128 0x18
 4821 0130 34       		.uleb128 0x34
 4822 0131 00       		.byte	0
 4823 0132 03       		.uleb128 0x3
 4824 0133 0E       		.uleb128 0xe
 4825 0134 3A       		.uleb128 0x3a
 4826 0135 0B       		.uleb128 0xb
 4827 0136 3B       		.uleb128 0x3b
 4828 0137 05       		.uleb128 0x5
 4829 0138 49       		.uleb128 0x49
 4830 0139 13       		.uleb128 0x13
 4831 013a 02       		.uleb128 0x2
 4832 013b 17       		.uleb128 0x17
 4833 013c 00       		.byte	0
 4834 013d 00       		.byte	0
 4835 013e 19       		.uleb128 0x19
 4836 013f 898201   		.uleb128 0x4109
 4837 0142 00       		.byte	0
 4838 0143 11       		.uleb128 0x11
 4839 0144 01       		.uleb128 0x1
 4840 0145 31       		.uleb128 0x31
 4841 0146 13       		.uleb128 0x13
 4842 0147 00       		.byte	0
 4843 0148 00       		.byte	0
 4844 0149 1A       		.uleb128 0x1a
 4845 014a 898201   		.uleb128 0x4109
ARM GAS  C:\Users\Petro\AppData\Local\Temp\cc5IgTu7.s 			page 108


 4846 014d 01       		.byte	0x1
 4847 014e 11       		.uleb128 0x11
 4848 014f 01       		.uleb128 0x1
 4849 0150 31       		.uleb128 0x31
 4850 0151 13       		.uleb128 0x13
 4851 0152 00       		.byte	0
 4852 0153 00       		.byte	0
 4853 0154 1B       		.uleb128 0x1b
 4854 0155 8A8201   		.uleb128 0x410a
 4855 0158 00       		.byte	0
 4856 0159 02       		.uleb128 0x2
 4857 015a 18       		.uleb128 0x18
 4858 015b 9142     		.uleb128 0x2111
 4859 015d 18       		.uleb128 0x18
 4860 015e 00       		.byte	0
 4861 015f 00       		.byte	0
 4862 0160 1C       		.uleb128 0x1c
 4863 0161 898201   		.uleb128 0x4109
 4864 0164 01       		.byte	0x1
 4865 0165 11       		.uleb128 0x11
 4866 0166 01       		.uleb128 0x1
 4867 0167 31       		.uleb128 0x31
 4868 0168 13       		.uleb128 0x13
 4869 0169 01       		.uleb128 0x1
 4870 016a 13       		.uleb128 0x13
 4871 016b 00       		.byte	0
 4872 016c 00       		.byte	0
 4873 016d 1D       		.uleb128 0x1d
 4874 016e 0B       		.uleb128 0xb
 4875 016f 01       		.byte	0x1
 4876 0170 55       		.uleb128 0x55
 4877 0171 17       		.uleb128 0x17
 4878 0172 01       		.uleb128 0x1
 4879 0173 13       		.uleb128 0x13
 4880 0174 00       		.byte	0
 4881 0175 00       		.byte	0
 4882 0176 1E       		.uleb128 0x1e
 4883 0177 2E       		.uleb128 0x2e
 4884 0178 01       		.byte	0x1
 4885 0179 3F       		.uleb128 0x3f
 4886 017a 19       		.uleb128 0x19
 4887 017b 03       		.uleb128 0x3
 4888 017c 0E       		.uleb128 0xe
 4889 017d 3A       		.uleb128 0x3a
 4890 017e 0B       		.uleb128 0xb
 4891 017f 3B       		.uleb128 0x3b
 4892 0180 05       		.uleb128 0x5
 4893 0181 27       		.uleb128 0x27
 4894 0182 19       		.uleb128 0x19
 4895 0183 49       		.uleb128 0x49
 4896 0184 13       		.uleb128 0x13
 4897 0185 11       		.uleb128 0x11
 4898 0186 01       		.uleb128 0x1
 4899 0187 12       		.uleb128 0x12
 4900 0188 06       		.uleb128 0x6
 4901 0189 40       		.uleb128 0x40
 4902 018a 18       		.uleb128 0x18
ARM GAS  C:\Users\Petro\AppData\Local\Temp\cc5IgTu7.s 			page 109


 4903 018b 9642     		.uleb128 0x2116
 4904 018d 19       		.uleb128 0x19
 4905 018e 01       		.uleb128 0x1
 4906 018f 13       		.uleb128 0x13
 4907 0190 00       		.byte	0
 4908 0191 00       		.byte	0
 4909 0192 1F       		.uleb128 0x1f
 4910 0193 2E       		.uleb128 0x2e
 4911 0194 01       		.byte	0x1
 4912 0195 3F       		.uleb128 0x3f
 4913 0196 19       		.uleb128 0x19
 4914 0197 03       		.uleb128 0x3
 4915 0198 0E       		.uleb128 0xe
 4916 0199 3A       		.uleb128 0x3a
 4917 019a 0B       		.uleb128 0xb
 4918 019b 3B       		.uleb128 0x3b
 4919 019c 05       		.uleb128 0x5
 4920 019d 27       		.uleb128 0x27
 4921 019e 19       		.uleb128 0x19
 4922 019f 49       		.uleb128 0x49
 4923 01a0 13       		.uleb128 0x13
 4924 01a1 11       		.uleb128 0x11
 4925 01a2 01       		.uleb128 0x1
 4926 01a3 12       		.uleb128 0x12
 4927 01a4 06       		.uleb128 0x6
 4928 01a5 40       		.uleb128 0x40
 4929 01a6 18       		.uleb128 0x18
 4930 01a7 9742     		.uleb128 0x2117
 4931 01a9 19       		.uleb128 0x19
 4932 01aa 01       		.uleb128 0x1
 4933 01ab 13       		.uleb128 0x13
 4934 01ac 00       		.byte	0
 4935 01ad 00       		.byte	0
 4936 01ae 20       		.uleb128 0x20
 4937 01af 34       		.uleb128 0x34
 4938 01b0 00       		.byte	0
 4939 01b1 03       		.uleb128 0x3
 4940 01b2 0E       		.uleb128 0xe
 4941 01b3 3A       		.uleb128 0x3a
 4942 01b4 0B       		.uleb128 0xb
 4943 01b5 3B       		.uleb128 0x3b
 4944 01b6 05       		.uleb128 0x5
 4945 01b7 49       		.uleb128 0x49
 4946 01b8 13       		.uleb128 0x13
 4947 01b9 02       		.uleb128 0x2
 4948 01ba 18       		.uleb128 0x18
 4949 01bb 00       		.byte	0
 4950 01bc 00       		.byte	0
 4951 01bd 21       		.uleb128 0x21
 4952 01be 2E       		.uleb128 0x2e
 4953 01bf 01       		.byte	0x1
 4954 01c0 3F       		.uleb128 0x3f
 4955 01c1 19       		.uleb128 0x19
 4956 01c2 03       		.uleb128 0x3
 4957 01c3 0E       		.uleb128 0xe
 4958 01c4 3A       		.uleb128 0x3a
 4959 01c5 0B       		.uleb128 0xb
ARM GAS  C:\Users\Petro\AppData\Local\Temp\cc5IgTu7.s 			page 110


 4960 01c6 3B       		.uleb128 0x3b
 4961 01c7 0B       		.uleb128 0xb
 4962 01c8 27       		.uleb128 0x27
 4963 01c9 19       		.uleb128 0x19
 4964 01ca 49       		.uleb128 0x49
 4965 01cb 13       		.uleb128 0x13
 4966 01cc 3C       		.uleb128 0x3c
 4967 01cd 19       		.uleb128 0x19
 4968 01ce 01       		.uleb128 0x1
 4969 01cf 13       		.uleb128 0x13
 4970 01d0 00       		.byte	0
 4971 01d1 00       		.byte	0
 4972 01d2 22       		.uleb128 0x22
 4973 01d3 05       		.uleb128 0x5
 4974 01d4 00       		.byte	0
 4975 01d5 49       		.uleb128 0x49
 4976 01d6 13       		.uleb128 0x13
 4977 01d7 00       		.byte	0
 4978 01d8 00       		.byte	0
 4979 01d9 23       		.uleb128 0x23
 4980 01da 2E       		.uleb128 0x2e
 4981 01db 00       		.byte	0
 4982 01dc 3F       		.uleb128 0x3f
 4983 01dd 19       		.uleb128 0x19
 4984 01de 03       		.uleb128 0x3
 4985 01df 0E       		.uleb128 0xe
 4986 01e0 3A       		.uleb128 0x3a
 4987 01e1 0B       		.uleb128 0xb
 4988 01e2 3B       		.uleb128 0x3b
 4989 01e3 0B       		.uleb128 0xb
 4990 01e4 27       		.uleb128 0x27
 4991 01e5 19       		.uleb128 0x19
 4992 01e6 49       		.uleb128 0x49
 4993 01e7 13       		.uleb128 0x13
 4994 01e8 3C       		.uleb128 0x3c
 4995 01e9 19       		.uleb128 0x19
 4996 01ea 00       		.byte	0
 4997 01eb 00       		.byte	0
 4998 01ec 24       		.uleb128 0x24
 4999 01ed 2E       		.uleb128 0x2e
 5000 01ee 01       		.byte	0x1
 5001 01ef 3F       		.uleb128 0x3f
 5002 01f0 19       		.uleb128 0x19
 5003 01f1 03       		.uleb128 0x3
 5004 01f2 0E       		.uleb128 0xe
 5005 01f3 3A       		.uleb128 0x3a
 5006 01f4 0B       		.uleb128 0xb
 5007 01f5 3B       		.uleb128 0x3b
 5008 01f6 0B       		.uleb128 0xb
 5009 01f7 27       		.uleb128 0x27
 5010 01f8 19       		.uleb128 0x19
 5011 01f9 49       		.uleb128 0x49
 5012 01fa 13       		.uleb128 0x13
 5013 01fb 3C       		.uleb128 0x3c
 5014 01fc 19       		.uleb128 0x19
 5015 01fd 00       		.byte	0
 5016 01fe 00       		.byte	0
ARM GAS  C:\Users\Petro\AppData\Local\Temp\cc5IgTu7.s 			page 111


 5017 01ff 00       		.byte	0
 5018              		.section	.debug_loc,"",%progbits
 5019              	.Ldebug_loc0:
 5020              	.LLST0:
 5021 0000 00000000 		.4byte	.LVL0
 5022 0004 02000000 		.4byte	.LVL1
 5023 0008 0100     		.2byte	0x1
 5024 000a 50       		.byte	0x50
 5025 000b 02000000 		.4byte	.LVL1
 5026 000f 10000000 		.4byte	.LFE0
 5027 0013 0400     		.2byte	0x4
 5028 0015 F3       		.byte	0xf3
 5029 0016 01       		.uleb128 0x1
 5030 0017 50       		.byte	0x50
 5031 0018 9F       		.byte	0x9f
 5032 0019 00000000 		.4byte	0
 5033 001d 00000000 		.4byte	0
 5034              	.LLST1:
 5035 0021 00000000 		.4byte	.LVL0
 5036 0025 02000000 		.4byte	.LVL1
 5037 0029 0100     		.2byte	0x1
 5038 002b 52       		.byte	0x52
 5039 002c 02000000 		.4byte	.LVL1
 5040 0030 08000000 		.4byte	.LVL2
 5041 0034 0100     		.2byte	0x1
 5042 0036 53       		.byte	0x53
 5043 0037 08000000 		.4byte	.LVL2
 5044 003b 0A000000 		.4byte	.LVL3
 5045 003f 0100     		.2byte	0x1
 5046 0041 52       		.byte	0x52
 5047 0042 0A000000 		.4byte	.LVL3
 5048 0046 10000000 		.4byte	.LFE0
 5049 004a 0100     		.2byte	0x1
 5050 004c 53       		.byte	0x53
 5051 004d 00000000 		.4byte	0
 5052 0051 00000000 		.4byte	0
 5053              	.LLST2:
 5054 0055 00000000 		.4byte	.LVL0
 5055 0059 02000000 		.4byte	.LVL1
 5056 005d 0100     		.2byte	0x1
 5057 005f 50       		.byte	0x50
 5058 0060 02000000 		.4byte	.LVL1
 5059 0064 08000000 		.4byte	.LVL2
 5060 0068 0300     		.2byte	0x3
 5061 006a 70       		.byte	0x70
 5062 006b 01       		.sleb128 1
 5063 006c 9F       		.byte	0x9f
 5064 006d 08000000 		.4byte	.LVL2
 5065 0071 10000000 		.4byte	.LFE0
 5066 0075 0100     		.2byte	0x1
 5067 0077 50       		.byte	0x50
 5068 0078 00000000 		.4byte	0
 5069 007c 00000000 		.4byte	0
 5070              	.LLST3:
 5071 0080 00000000 		.4byte	.LVL4
 5072 0084 06000000 		.4byte	.LVL6
 5073 0088 0100     		.2byte	0x1
ARM GAS  C:\Users\Petro\AppData\Local\Temp\cc5IgTu7.s 			page 112


 5074 008a 50       		.byte	0x50
 5075 008b 06000000 		.4byte	.LVL6
 5076 008f 08000000 		.4byte	.LVL7
 5077 0093 0100     		.2byte	0x1
 5078 0095 53       		.byte	0x53
 5079 0096 08000000 		.4byte	.LVL7
 5080 009a 24000000 		.4byte	.LFE1
 5081 009e 0400     		.2byte	0x4
 5082 00a0 F3       		.byte	0xf3
 5083 00a1 01       		.uleb128 0x1
 5084 00a2 50       		.byte	0x50
 5085 00a3 9F       		.byte	0x9f
 5086 00a4 00000000 		.4byte	0
 5087 00a8 00000000 		.4byte	0
 5088              	.LLST4:
 5089 00ac 00000000 		.4byte	.LVL4
 5090 00b0 08000000 		.4byte	.LVL7
 5091 00b4 0100     		.2byte	0x1
 5092 00b6 51       		.byte	0x51
 5093 00b7 08000000 		.4byte	.LVL7
 5094 00bb 24000000 		.4byte	.LFE1
 5095 00bf 0400     		.2byte	0x4
 5096 00c1 F3       		.byte	0xf3
 5097 00c2 01       		.uleb128 0x1
 5098 00c3 51       		.byte	0x51
 5099 00c4 9F       		.byte	0x9f
 5100 00c5 00000000 		.4byte	0
 5101 00c9 00000000 		.4byte	0
 5102              	.LLST5:
 5103 00cd 00000000 		.4byte	.LVL4
 5104 00d1 0E000000 		.4byte	.LVL9
 5105 00d5 0100     		.2byte	0x1
 5106 00d7 52       		.byte	0x52
 5107 00d8 0E000000 		.4byte	.LVL9
 5108 00dc 22000000 		.4byte	.LVL15
 5109 00e0 0100     		.2byte	0x1
 5110 00e2 54       		.byte	0x54
 5111 00e3 00000000 		.4byte	0
 5112 00e7 00000000 		.4byte	0
 5113              	.LLST6:
 5114 00eb 04000000 		.4byte	.LVL5
 5115 00ef 06000000 		.4byte	.LVL6
 5116 00f3 0100     		.2byte	0x1
 5117 00f5 50       		.byte	0x50
 5118 00f6 06000000 		.4byte	.LVL6
 5119 00fa 08000000 		.4byte	.LVL7
 5120 00fe 0100     		.2byte	0x1
 5121 0100 53       		.byte	0x53
 5122 0101 08000000 		.4byte	.LVL7
 5123 0105 0C000000 		.4byte	.LVL8
 5124 0109 0100     		.2byte	0x1
 5125 010b 56       		.byte	0x56
 5126 010c 0C000000 		.4byte	.LVL8
 5127 0110 14000000 		.4byte	.LVL10
 5128 0114 0100     		.2byte	0x1
 5129 0116 53       		.byte	0x53
 5130 0117 14000000 		.4byte	.LVL10
ARM GAS  C:\Users\Petro\AppData\Local\Temp\cc5IgTu7.s 			page 113


 5131 011b 22000000 		.4byte	.LVL14
 5132 011f 0100     		.2byte	0x1
 5133 0121 56       		.byte	0x56
 5134 0122 00000000 		.4byte	0
 5135 0126 00000000 		.4byte	0
 5136              	.LLST7:
 5137 012a 04000000 		.4byte	.LVL5
 5138 012e 08000000 		.4byte	.LVL7
 5139 0132 0100     		.2byte	0x1
 5140 0134 51       		.byte	0x51
 5141 0135 08000000 		.4byte	.LVL7
 5142 0139 0C000000 		.4byte	.LVL8
 5143 013d 0100     		.2byte	0x1
 5144 013f 55       		.byte	0x55
 5145 0140 0C000000 		.4byte	.LVL8
 5146 0144 18000000 		.4byte	.LVL11
 5147 0148 0100     		.2byte	0x1
 5148 014a 51       		.byte	0x51
 5149 014b 18000000 		.4byte	.LVL11
 5150 014f 22000000 		.4byte	.LVL14
 5151 0153 0100     		.2byte	0x1
 5152 0155 55       		.byte	0x55
 5153 0156 00000000 		.4byte	0
 5154 015a 00000000 		.4byte	0
 5155              	.LLST8:
 5156 015e 04000000 		.4byte	.LVL5
 5157 0162 08000000 		.4byte	.LVL7
 5158 0166 0200     		.2byte	0x2
 5159 0168 30       		.byte	0x30
 5160 0169 9F       		.byte	0x9f
 5161 016a 08000000 		.4byte	.LVL7
 5162 016e 1A000000 		.4byte	.LVL12
 5163 0172 0100     		.2byte	0x1
 5164 0174 50       		.byte	0x50
 5165 0175 1C000000 		.4byte	.LVL13
 5166 0179 24000000 		.4byte	.LFE1
 5167 017d 0100     		.2byte	0x1
 5168 017f 50       		.byte	0x50
 5169 0180 00000000 		.4byte	0
 5170 0184 00000000 		.4byte	0
 5171              	.LLST9:
 5172 0188 00000000 		.4byte	.LVL16
 5173 018c 06000000 		.4byte	.LVL18
 5174 0190 0100     		.2byte	0x1
 5175 0192 50       		.byte	0x50
 5176 0193 06000000 		.4byte	.LVL18
 5177 0197 12000000 		.4byte	.LVL19
 5178 019b 0100     		.2byte	0x1
 5179 019d 50       		.byte	0x50
 5180 019e 12000000 		.4byte	.LVL19
 5181 01a2 18000000 		.4byte	.LVL20
 5182 01a6 0600     		.2byte	0x6
 5183 01a8 F3       		.byte	0xf3
 5184 01a9 01       		.uleb128 0x1
 5185 01aa 50       		.byte	0x50
 5186 01ab 32       		.byte	0x32
 5187 01ac 1C       		.byte	0x1c
ARM GAS  C:\Users\Petro\AppData\Local\Temp\cc5IgTu7.s 			page 114


 5188 01ad 9F       		.byte	0x9f
 5189 01ae 18000000 		.4byte	.LVL20
 5190 01b2 1A000000 		.4byte	.LVL21
 5191 01b6 0100     		.2byte	0x1
 5192 01b8 50       		.byte	0x50
 5193 01b9 1A000000 		.4byte	.LVL21
 5194 01bd 20000000 		.4byte	.LFE3
 5195 01c1 0600     		.2byte	0x6
 5196 01c3 F3       		.byte	0xf3
 5197 01c4 01       		.uleb128 0x1
 5198 01c5 50       		.byte	0x50
 5199 01c6 32       		.byte	0x32
 5200 01c7 1C       		.byte	0x1c
 5201 01c8 9F       		.byte	0x9f
 5202 01c9 00000000 		.4byte	0
 5203 01cd 00000000 		.4byte	0
 5204              	.LLST10:
 5205 01d1 00000000 		.4byte	.LVL22
 5206 01d5 14000000 		.4byte	.LVL29
 5207 01d9 0100     		.2byte	0x1
 5208 01db 50       		.byte	0x50
 5209 01dc 14000000 		.4byte	.LVL29
 5210 01e0 1C000000 		.4byte	.LFE4
 5211 01e4 0400     		.2byte	0x4
 5212 01e6 F3       		.byte	0xf3
 5213 01e7 01       		.uleb128 0x1
 5214 01e8 50       		.byte	0x50
 5215 01e9 9F       		.byte	0x9f
 5216 01ea 00000000 		.4byte	0
 5217 01ee 00000000 		.4byte	0
 5218              	.LLST11:
 5219 01f2 04000000 		.4byte	.LVL23
 5220 01f6 06000000 		.4byte	.LVL24
 5221 01fa 0100     		.2byte	0x1
 5222 01fc 53       		.byte	0x53
 5223 01fd 06000000 		.4byte	.LVL24
 5224 0201 1C000000 		.4byte	.LFE4
 5225 0205 0500     		.2byte	0x5
 5226 0207 03       		.byte	0x3
 5227 0208 00000000 		.4byte	FatFs
 5228 020c 00000000 		.4byte	0
 5229 0210 00000000 		.4byte	0
 5230              	.LLST12:
 5231 0214 04000000 		.4byte	.LVL23
 5232 0218 0C000000 		.4byte	.LVL25
 5233 021c 0200     		.2byte	0x2
 5234 021e 30       		.byte	0x30
 5235 021f 9F       		.byte	0x9f
 5236 0220 0C000000 		.4byte	.LVL25
 5237 0224 10000000 		.4byte	.LVL27
 5238 0228 0100     		.2byte	0x1
 5239 022a 53       		.byte	0x53
 5240 022b 10000000 		.4byte	.LVL27
 5241 022f 12000000 		.4byte	.LVL28
 5242 0233 0200     		.2byte	0x2
 5243 0235 30       		.byte	0x30
 5244 0236 9F       		.byte	0x9f
ARM GAS  C:\Users\Petro\AppData\Local\Temp\cc5IgTu7.s 			page 115


 5245 0237 12000000 		.4byte	.LVL28
 5246 023b 16000000 		.4byte	.LVL30
 5247 023f 0100     		.2byte	0x1
 5248 0241 53       		.byte	0x53
 5249 0242 16000000 		.4byte	.LVL30
 5250 0246 1C000000 		.4byte	.LFE4
 5251 024a 0100     		.2byte	0x1
 5252 024c 50       		.byte	0x50
 5253 024d 00000000 		.4byte	0
 5254 0251 00000000 		.4byte	0
 5255              	.LLST13:
 5256 0255 00000000 		.4byte	.LVL31
 5257 0259 2C000000 		.4byte	.LVL35
 5258 025d 0100     		.2byte	0x1
 5259 025f 50       		.byte	0x50
 5260 0260 2C000000 		.4byte	.LVL35
 5261 0264 32000000 		.4byte	.LVL37
 5262 0268 0100     		.2byte	0x1
 5263 026a 54       		.byte	0x54
 5264 026b 32000000 		.4byte	.LVL37
 5265 026f 34000000 		.4byte	.LVL38
 5266 0273 0100     		.2byte	0x1
 5267 0275 50       		.byte	0x50
 5268 0276 34000000 		.4byte	.LVL38
 5269 027a 3A000000 		.4byte	.LVL39
 5270 027e 0100     		.2byte	0x1
 5271 0280 54       		.byte	0x54
 5272 0281 3A000000 		.4byte	.LVL39
 5273 0285 3C000000 		.4byte	.LVL40
 5274 0289 0100     		.2byte	0x1
 5275 028b 50       		.byte	0x50
 5276 028c 3C000000 		.4byte	.LVL40
 5277 0290 3E000000 		.4byte	.LVL41
 5278 0294 0400     		.2byte	0x4
 5279 0296 F3       		.byte	0xf3
 5280 0297 01       		.uleb128 0x1
 5281 0298 50       		.byte	0x50
 5282 0299 9F       		.byte	0x9f
 5283 029a 3E000000 		.4byte	.LVL41
 5284 029e 40000000 		.4byte	.LVL42
 5285 02a2 0100     		.2byte	0x1
 5286 02a4 50       		.byte	0x50
 5287 02a5 40000000 		.4byte	.LVL42
 5288 02a9 48000000 		.4byte	.LFE5
 5289 02ad 0400     		.2byte	0x4
 5290 02af F3       		.byte	0xf3
 5291 02b0 01       		.uleb128 0x1
 5292 02b1 50       		.byte	0x50
 5293 02b2 9F       		.byte	0x9f
 5294 02b3 00000000 		.4byte	0
 5295 02b7 00000000 		.4byte	0
 5296              	.LLST14:
 5297 02bb 0C000000 		.4byte	.LVL33
 5298 02bf 2F000000 		.4byte	.LVL36-1
 5299 02c3 0100     		.2byte	0x1
 5300 02c5 53       		.byte	0x53
 5301 02c6 32000000 		.4byte	.LVL37
ARM GAS  C:\Users\Petro\AppData\Local\Temp\cc5IgTu7.s 			page 116


 5302 02ca 34000000 		.4byte	.LVL38
 5303 02ce 0100     		.2byte	0x1
 5304 02d0 53       		.byte	0x53
 5305 02d1 3A000000 		.4byte	.LVL39
 5306 02d5 40000000 		.4byte	.LVL42
 5307 02d9 0100     		.2byte	0x1
 5308 02db 53       		.byte	0x53
 5309 02dc 00000000 		.4byte	0
 5310 02e0 00000000 		.4byte	0
 5311              	.LLST15:
 5312 02e4 06000000 		.4byte	.LVL32
 5313 02e8 2F000000 		.4byte	.LVL36-1
 5314 02ec 0100     		.2byte	0x1
 5315 02ee 52       		.byte	0x52
 5316 02ef 32000000 		.4byte	.LVL37
 5317 02f3 34000000 		.4byte	.LVL38
 5318 02f7 0100     		.2byte	0x1
 5319 02f9 52       		.byte	0x52
 5320 02fa 3A000000 		.4byte	.LVL39
 5321 02fe 40000000 		.4byte	.LVL42
 5322 0302 0100     		.2byte	0x1
 5323 0304 52       		.byte	0x52
 5324 0305 00000000 		.4byte	0
 5325 0309 00000000 		.4byte	0
 5326              	.LLST16:
 5327 030d 00000000 		.4byte	.LVL43
 5328 0311 08000000 		.4byte	.LVL45
 5329 0315 0100     		.2byte	0x1
 5330 0317 50       		.byte	0x50
 5331 0318 08000000 		.4byte	.LVL45
 5332 031c 5A000000 		.4byte	.LFE9
 5333 0320 0400     		.2byte	0x4
 5334 0322 F3       		.byte	0xf3
 5335 0323 01       		.uleb128 0x1
 5336 0324 50       		.byte	0x50
 5337 0325 9F       		.byte	0x9f
 5338 0326 00000000 		.4byte	0
 5339 032a 00000000 		.4byte	0
 5340              	.LLST17:
 5341 032e 00000000 		.4byte	.LVL43
 5342 0332 0A000000 		.4byte	.LVL46
 5343 0336 0100     		.2byte	0x1
 5344 0338 51       		.byte	0x51
 5345 0339 0A000000 		.4byte	.LVL46
 5346 033d 58000000 		.4byte	.LVL62
 5347 0341 0100     		.2byte	0x1
 5348 0343 55       		.byte	0x55
 5349 0344 58000000 		.4byte	.LVL62
 5350 0348 5A000000 		.4byte	.LFE9
 5351 034c 0400     		.2byte	0x4
 5352 034e F3       		.byte	0xf3
 5353 034f 01       		.uleb128 0x1
 5354 0350 51       		.byte	0x51
 5355 0351 9F       		.byte	0x9f
 5356 0352 00000000 		.4byte	0
 5357 0356 00000000 		.4byte	0
 5358              	.LLST18:
ARM GAS  C:\Users\Petro\AppData\Local\Temp\cc5IgTu7.s 			page 117


 5359 035a 1A000000 		.4byte	.LVL49
 5360 035e 1C000000 		.4byte	.LVL50
 5361 0362 0100     		.2byte	0x1
 5362 0364 53       		.byte	0x53
 5363 0365 22000000 		.4byte	.LVL52
 5364 0369 5A000000 		.4byte	.LFE9
 5365 036d 0100     		.2byte	0x1
 5366 036f 53       		.byte	0x53
 5367 0370 00000000 		.4byte	0
 5368 0374 00000000 		.4byte	0
 5369              	.LLST19:
 5370 0378 10000000 		.4byte	.LVL47
 5371 037c 1A000000 		.4byte	.LVL49
 5372 0380 0200     		.2byte	0x2
 5373 0382 38       		.byte	0x38
 5374 0383 9F       		.byte	0x9f
 5375 0384 1C000000 		.4byte	.LVL50
 5376 0388 3E000000 		.4byte	.LVL54
 5377 038c 0100     		.2byte	0x1
 5378 038e 56       		.byte	0x56
 5379 038f 40000000 		.4byte	.LVL55
 5380 0393 58000000 		.4byte	.LVL63
 5381 0397 0100     		.2byte	0x1
 5382 0399 56       		.byte	0x56
 5383 039a 00000000 		.4byte	0
 5384 039e 00000000 		.4byte	0
 5385              	.LLST20:
 5386 03a2 10000000 		.4byte	.LVL47
 5387 03a6 1A000000 		.4byte	.LVL49
 5388 03aa 0200     		.2byte	0x2
 5389 03ac 30       		.byte	0x30
 5390 03ad 9F       		.byte	0x9f
 5391 03ae 1A000000 		.4byte	.LVL49
 5392 03b2 1C000000 		.4byte	.LVL50
 5393 03b6 0100     		.2byte	0x1
 5394 03b8 52       		.byte	0x52
 5395 03b9 1C000000 		.4byte	.LVL50
 5396 03bd 20000000 		.4byte	.LVL51
 5397 03c1 0100     		.2byte	0x1
 5398 03c3 51       		.byte	0x51
 5399 03c4 20000000 		.4byte	.LVL51
 5400 03c8 4A000000 		.4byte	.LVL58
 5401 03cc 0100     		.2byte	0x1
 5402 03ce 52       		.byte	0x52
 5403 03cf 4A000000 		.4byte	.LVL58
 5404 03d3 50000000 		.4byte	.LVL59
 5405 03d7 0300     		.2byte	0x3
 5406 03d9 71       		.byte	0x71
 5407 03da 01       		.sleb128 1
 5408 03db 9F       		.byte	0x9f
 5409 03dc 00000000 		.4byte	0
 5410 03e0 00000000 		.4byte	0
 5411              	.LLST21:
 5412 03e4 10000000 		.4byte	.LVL47
 5413 03e8 1A000000 		.4byte	.LVL49
 5414 03ec 0200     		.2byte	0x2
 5415 03ee 30       		.byte	0x30
ARM GAS  C:\Users\Petro\AppData\Local\Temp\cc5IgTu7.s 			page 118


 5416 03ef 9F       		.byte	0x9f
 5417 03f0 1C000000 		.4byte	.LVL50
 5418 03f4 3C000000 		.4byte	.LVL53
 5419 03f8 0100     		.2byte	0x1
 5420 03fa 50       		.byte	0x50
 5421 03fb 40000000 		.4byte	.LVL55
 5422 03ff 42000000 		.4byte	.LVL56
 5423 0403 0100     		.2byte	0x1
 5424 0405 50       		.byte	0x50
 5425 0406 42000000 		.4byte	.LVL56
 5426 040a 48000000 		.4byte	.LVL57
 5427 040e 0100     		.2byte	0x1
 5428 0410 51       		.byte	0x51
 5429 0411 48000000 		.4byte	.LVL57
 5430 0415 58000000 		.4byte	.LVL60
 5431 0419 0100     		.2byte	0x1
 5432 041b 50       		.byte	0x50
 5433 041c 00000000 		.4byte	0
 5434 0420 00000000 		.4byte	0
 5435              	.LLST22:
 5436 0424 06000000 		.4byte	.LVL44
 5437 0428 58000000 		.4byte	.LVL61
 5438 042c 0100     		.2byte	0x1
 5439 042e 54       		.byte	0x54
 5440 042f 00000000 		.4byte	0
 5441 0433 00000000 		.4byte	0
 5442              	.LLST23:
 5443 0437 12000000 		.4byte	.LVL48
 5444 043b 58000000 		.4byte	.LVL64
 5445 043f 0100     		.2byte	0x1
 5446 0441 57       		.byte	0x57
 5447 0442 00000000 		.4byte	0
 5448 0446 00000000 		.4byte	0
 5449              	.LLST24:
 5450 044a 00000000 		.4byte	.LVL65
 5451 044e 0E000000 		.4byte	.LVL67
 5452 0452 0100     		.2byte	0x1
 5453 0454 50       		.byte	0x50
 5454 0455 0E000000 		.4byte	.LVL67
 5455 0459 24000000 		.4byte	.LVL73
 5456 045d 0400     		.2byte	0x4
 5457 045f F3       		.byte	0xf3
 5458 0460 01       		.uleb128 0x1
 5459 0461 50       		.byte	0x50
 5460 0462 9F       		.byte	0x9f
 5461 0463 24000000 		.4byte	.LVL73
 5462 0467 26000000 		.4byte	.LVL74
 5463 046b 0100     		.2byte	0x1
 5464 046d 50       		.byte	0x50
 5465 046e 26000000 		.4byte	.LVL74
 5466 0472 62000000 		.4byte	.LFE10
 5467 0476 0400     		.2byte	0x4
 5468 0478 F3       		.byte	0xf3
 5469 0479 01       		.uleb128 0x1
 5470 047a 50       		.byte	0x50
 5471 047b 9F       		.byte	0x9f
 5472 047c 00000000 		.4byte	0
ARM GAS  C:\Users\Petro\AppData\Local\Temp\cc5IgTu7.s 			page 119


 5473 0480 00000000 		.4byte	0
 5474              	.LLST25:
 5475 0484 0E000000 		.4byte	.LVL67
 5476 0488 1E000000 		.4byte	.LVL70
 5477 048c 0100     		.2byte	0x1
 5478 048e 53       		.byte	0x53
 5479 048f 20000000 		.4byte	.LVL71
 5480 0493 24000000 		.4byte	.LVL73
 5481 0497 0100     		.2byte	0x1
 5482 0499 53       		.byte	0x53
 5483 049a 26000000 		.4byte	.LVL74
 5484 049e 2C000000 		.4byte	.LVL75
 5485 04a2 0100     		.2byte	0x1
 5486 04a4 53       		.byte	0x53
 5487 04a5 34000000 		.4byte	.LVL77
 5488 04a9 3A000000 		.4byte	.LVL79
 5489 04ad 0200     		.2byte	0x2
 5490 04af 38       		.byte	0x38
 5491 04b0 9F       		.byte	0x9f
 5492 04b1 3A000000 		.4byte	.LVL79
 5493 04b5 44000000 		.4byte	.LVL82
 5494 04b9 0100     		.2byte	0x1
 5495 04bb 53       		.byte	0x53
 5496 04bc 46000000 		.4byte	.LVL83
 5497 04c0 4C000000 		.4byte	.LVL85
 5498 04c4 0100     		.2byte	0x1
 5499 04c6 53       		.byte	0x53
 5500 04c7 00000000 		.4byte	0
 5501 04cb 00000000 		.4byte	0
 5502              	.LLST26:
 5503 04cf 10000000 		.4byte	.LVL68
 5504 04d3 24000000 		.4byte	.LVL73
 5505 04d7 0100     		.2byte	0x1
 5506 04d9 50       		.byte	0x50
 5507 04da 3C000000 		.4byte	.LVL80
 5508 04de 48000000 		.4byte	.LVL84
 5509 04e2 0100     		.2byte	0x1
 5510 04e4 50       		.byte	0x50
 5511 04e5 00000000 		.4byte	0
 5512 04e9 00000000 		.4byte	0
 5513              	.LLST27:
 5514 04ed 06000000 		.4byte	.LVL66
 5515 04f1 1A000000 		.4byte	.LVL69
 5516 04f5 0100     		.2byte	0x1
 5517 04f7 54       		.byte	0x54
 5518 04f8 1A000000 		.4byte	.LVL69
 5519 04fc 22000000 		.4byte	.LVL72
 5520 0500 0300     		.2byte	0x3
 5521 0502 74       		.byte	0x74
 5522 0503 01       		.sleb128 1
 5523 0504 9F       		.byte	0x9f
 5524 0505 22000000 		.4byte	.LVL72
 5525 0509 30000000 		.4byte	.LVL76
 5526 050d 0100     		.2byte	0x1
 5527 050f 54       		.byte	0x54
 5528 0510 30000000 		.4byte	.LVL76
 5529 0514 36000000 		.4byte	.LVL78
ARM GAS  C:\Users\Petro\AppData\Local\Temp\cc5IgTu7.s 			page 120


 5530 0518 0300     		.2byte	0x3
 5531 051a 74       		.byte	0x74
 5532 051b 01       		.sleb128 1
 5533 051c 9F       		.byte	0x9f
 5534 051d 36000000 		.4byte	.LVL78
 5535 0521 40000000 		.4byte	.LVL81
 5536 0525 0100     		.2byte	0x1
 5537 0527 54       		.byte	0x54
 5538 0528 40000000 		.4byte	.LVL81
 5539 052c 48000000 		.4byte	.LVL84
 5540 0530 0300     		.2byte	0x3
 5541 0532 74       		.byte	0x74
 5542 0533 01       		.sleb128 1
 5543 0534 9F       		.byte	0x9f
 5544 0535 48000000 		.4byte	.LVL84
 5545 0539 60000000 		.4byte	.LVL86
 5546 053d 0100     		.2byte	0x1
 5547 053f 54       		.byte	0x54
 5548 0540 00000000 		.4byte	0
 5549 0544 00000000 		.4byte	0
 5550              	.LLST28:
 5551 0548 00000000 		.4byte	.LVL87
 5552 054c 0F000000 		.4byte	.LVL88-1
 5553 0550 0100     		.2byte	0x1
 5554 0552 50       		.byte	0x50
 5555 0553 0F000000 		.4byte	.LVL88-1
 5556 0557 62000000 		.4byte	.LVL91
 5557 055b 0100     		.2byte	0x1
 5558 055d 54       		.byte	0x54
 5559 055e 62000000 		.4byte	.LVL91
 5560 0562 6C000000 		.4byte	.LFE12
 5561 0566 0400     		.2byte	0x4
 5562 0568 F3       		.byte	0xf3
 5563 0569 01       		.uleb128 0x1
 5564 056a 50       		.byte	0x50
 5565 056b 9F       		.byte	0x9f
 5566 056c 00000000 		.4byte	0
 5567 0570 00000000 		.4byte	0
 5568              	.LLST29:
 5569 0574 00000000 		.4byte	.LVL87
 5570 0578 0F000000 		.4byte	.LVL88-1
 5571 057c 0100     		.2byte	0x1
 5572 057e 51       		.byte	0x51
 5573 057f 0F000000 		.4byte	.LVL88-1
 5574 0583 62000000 		.4byte	.LVL92
 5575 0587 0100     		.2byte	0x1
 5576 0589 55       		.byte	0x55
 5577 058a 62000000 		.4byte	.LVL92
 5578 058e 6C000000 		.4byte	.LFE12
 5579 0592 0400     		.2byte	0x4
 5580 0594 F3       		.byte	0xf3
 5581 0595 01       		.uleb128 0x1
 5582 0596 51       		.byte	0x51
 5583 0597 9F       		.byte	0x9f
 5584 0598 00000000 		.4byte	0
 5585 059c 00000000 		.4byte	0
 5586              	.LLST30:
ARM GAS  C:\Users\Petro\AppData\Local\Temp\cc5IgTu7.s 			page 121


 5587 05a0 00000000 		.4byte	.LVL93
 5588 05a4 38000000 		.4byte	.LVL99
 5589 05a8 0100     		.2byte	0x1
 5590 05aa 50       		.byte	0x50
 5591 05ab 38000000 		.4byte	.LVL99
 5592 05af 46000000 		.4byte	.LVL101
 5593 05b3 0100     		.2byte	0x1
 5594 05b5 54       		.byte	0x54
 5595 05b6 46000000 		.4byte	.LVL101
 5596 05ba 4C000000 		.4byte	.LVL102
 5597 05be 0100     		.2byte	0x1
 5598 05c0 50       		.byte	0x50
 5599 05c1 4C000000 		.4byte	.LVL102
 5600 05c5 80000000 		.4byte	.LVL110
 5601 05c9 0100     		.2byte	0x1
 5602 05cb 54       		.byte	0x54
 5603 05cc 80000000 		.4byte	.LVL110
 5604 05d0 86000000 		.4byte	.LVL111
 5605 05d4 0100     		.2byte	0x1
 5606 05d6 50       		.byte	0x50
 5607 05d7 86000000 		.4byte	.LVL111
 5608 05db 9E000000 		.4byte	.LVL113
 5609 05df 0100     		.2byte	0x1
 5610 05e1 54       		.byte	0x54
 5611 05e2 9E000000 		.4byte	.LVL113
 5612 05e6 A4000000 		.4byte	.LVL114
 5613 05ea 0100     		.2byte	0x1
 5614 05ec 50       		.byte	0x50
 5615 05ed A4000000 		.4byte	.LVL114
 5616 05f1 BE000000 		.4byte	.LVL116
 5617 05f5 0100     		.2byte	0x1
 5618 05f7 54       		.byte	0x54
 5619 05f8 BE000000 		.4byte	.LVL116
 5620 05fc C0000000 		.4byte	.LVL117
 5621 0600 0100     		.2byte	0x1
 5622 0602 50       		.byte	0x50
 5623 0603 C0000000 		.4byte	.LVL117
 5624 0607 C2000000 		.4byte	.LVL118
 5625 060b 0400     		.2byte	0x4
 5626 060d F3       		.byte	0xf3
 5627 060e 01       		.uleb128 0x1
 5628 060f 50       		.byte	0x50
 5629 0610 9F       		.byte	0x9f
 5630 0611 C2000000 		.4byte	.LVL118
 5631 0615 C4000000 		.4byte	.LVL119
 5632 0619 0100     		.2byte	0x1
 5633 061b 50       		.byte	0x50
 5634 061c C4000000 		.4byte	.LVL119
 5635 0620 C6000000 		.4byte	.LVL120
 5636 0624 0400     		.2byte	0x4
 5637 0626 F3       		.byte	0xf3
 5638 0627 01       		.uleb128 0x1
 5639 0628 50       		.byte	0x50
 5640 0629 9F       		.byte	0x9f
 5641 062a C6000000 		.4byte	.LVL120
 5642 062e C8000000 		.4byte	.LVL121
 5643 0632 0100     		.2byte	0x1
ARM GAS  C:\Users\Petro\AppData\Local\Temp\cc5IgTu7.s 			page 122


 5644 0634 50       		.byte	0x50
 5645 0635 C8000000 		.4byte	.LVL121
 5646 0639 DC000000 		.4byte	.LVL124
 5647 063d 0100     		.2byte	0x1
 5648 063f 54       		.byte	0x54
 5649 0640 DC000000 		.4byte	.LVL124
 5650 0644 E8000000 		.4byte	.LFE2
 5651 0648 0400     		.2byte	0x4
 5652 064a F3       		.byte	0xf3
 5653 064b 01       		.uleb128 0x1
 5654 064c 50       		.byte	0x50
 5655 064d 9F       		.byte	0x9f
 5656 064e 00000000 		.4byte	0
 5657 0652 00000000 		.4byte	0
 5658              	.LLST31:
 5659 0656 08000000 		.4byte	.LVL94
 5660 065a DE000000 		.4byte	.LVL125
 5661 065e 0100     		.2byte	0x1
 5662 0660 55       		.byte	0x55
 5663 0661 00000000 		.4byte	0
 5664 0665 00000000 		.4byte	0
 5665              	.LLST32:
 5666 0669 72000000 		.4byte	.LVL106
 5667 066d 78000000 		.4byte	.LVL107
 5668 0671 0100     		.2byte	0x1
 5669 0673 50       		.byte	0x50
 5670 0674 78000000 		.4byte	.LVL107
 5671 0678 7A000000 		.4byte	.LVL108
 5672 067c 0900     		.2byte	0x9
 5673 067e 91       		.byte	0x91
 5674 067f 6C       		.sleb128 -20
 5675 0680 94       		.byte	0x94
 5676 0681 02       		.byte	0x2
 5677 0682 0A       		.byte	0xa
 5678 0683 FFFF     		.2byte	0xffff
 5679 0685 1A       		.byte	0x1a
 5680 0686 9F       		.byte	0x9f
 5681 0687 7A000000 		.4byte	.LVL108
 5682 068b 7C000000 		.4byte	.LVL109
 5683 068f 0100     		.2byte	0x1
 5684 0691 50       		.byte	0x50
 5685 0692 7C000000 		.4byte	.LVL109
 5686 0696 80000000 		.4byte	.LVL110
 5687 069a 0900     		.2byte	0x9
 5688 069c 91       		.byte	0x91
 5689 069d 6C       		.sleb128 -20
 5690 069e 94       		.byte	0x94
 5691 069f 02       		.byte	0x2
 5692 06a0 0A       		.byte	0xa
 5693 06a1 FFFF     		.2byte	0xffff
 5694 06a3 1A       		.byte	0x1a
 5695 06a4 9F       		.byte	0x9f
 5696 06a5 00000000 		.4byte	0
 5697 06a9 00000000 		.4byte	0
 5698              	.LLST33:
 5699 06ad 22000000 		.4byte	.LVL95
 5700 06b1 26000000 		.4byte	.LVL96
ARM GAS  C:\Users\Petro\AppData\Local\Temp\cc5IgTu7.s 			page 123


 5701 06b5 0100     		.2byte	0x1
 5702 06b7 50       		.byte	0x50
 5703 06b8 26000000 		.4byte	.LVL96
 5704 06bc 2C000000 		.4byte	.LVL98
 5705 06c0 0100     		.2byte	0x1
 5706 06c2 51       		.byte	0x51
 5707 06c3 2C000000 		.4byte	.LVL98
 5708 06c7 80000000 		.4byte	.LVL110
 5709 06cb 0100     		.2byte	0x1
 5710 06cd 56       		.byte	0x56
 5711 06ce CA000000 		.4byte	.LVL122
 5712 06d2 D6000000 		.4byte	.LVL123
 5713 06d6 0100     		.2byte	0x1
 5714 06d8 56       		.byte	0x56
 5715 06d9 00000000 		.4byte	0
 5716 06dd 00000000 		.4byte	0
 5717              	.LLST34:
 5718 06e1 2A000000 		.4byte	.LVL97
 5719 06e5 3F000000 		.4byte	.LVL100-1
 5720 06e9 0100     		.2byte	0x1
 5721 06eb 52       		.byte	0x52
 5722 06ec 3F000000 		.4byte	.LVL100-1
 5723 06f0 46000000 		.4byte	.LVL101
 5724 06f4 0C00     		.2byte	0xc
 5725 06f6 74       		.byte	0x74
 5726 06f7 00       		.sleb128 0
 5727 06f8 31       		.byte	0x31
 5728 06f9 25       		.byte	0x25
 5729 06fa 74       		.byte	0x74
 5730 06fb 00       		.sleb128 0
 5731 06fc 22       		.byte	0x22
 5732 06fd 47       		.byte	0x47
 5733 06fe 24       		.byte	0x24
 5734 06ff 47       		.byte	0x47
 5735 0700 25       		.byte	0x25
 5736 0701 9F       		.byte	0x9f
 5737 0702 46000000 		.4byte	.LVL101
 5738 0706 4E000000 		.4byte	.LVL103
 5739 070a 0100     		.2byte	0x1
 5740 070c 52       		.byte	0x52
 5741 070d 4E000000 		.4byte	.LVL103
 5742 0711 80000000 		.4byte	.LVL110
 5743 0715 0C00     		.2byte	0xc
 5744 0717 74       		.byte	0x74
 5745 0718 00       		.sleb128 0
 5746 0719 31       		.byte	0x31
 5747 071a 25       		.byte	0x25
 5748 071b 74       		.byte	0x74
 5749 071c 00       		.sleb128 0
 5750 071d 22       		.byte	0x22
 5751 071e 47       		.byte	0x47
 5752 071f 24       		.byte	0x24
 5753 0720 47       		.byte	0x47
 5754 0721 25       		.byte	0x25
 5755 0722 9F       		.byte	0x9f
 5756 0723 CA000000 		.4byte	.LVL122
 5757 0727 D6000000 		.4byte	.LVL123
ARM GAS  C:\Users\Petro\AppData\Local\Temp\cc5IgTu7.s 			page 124


 5758 072b 0C00     		.2byte	0xc
 5759 072d 74       		.byte	0x74
 5760 072e 00       		.sleb128 0
 5761 072f 31       		.byte	0x31
 5762 0730 25       		.byte	0x25
 5763 0731 74       		.byte	0x74
 5764 0732 00       		.sleb128 0
 5765 0733 22       		.byte	0x22
 5766 0734 47       		.byte	0x47
 5767 0735 24       		.byte	0x24
 5768 0736 47       		.byte	0x47
 5769 0737 25       		.byte	0x25
 5770 0738 9F       		.byte	0x9f
 5771 0739 00000000 		.4byte	0
 5772 073d 00000000 		.4byte	0
 5773              	.LLST35:
 5774 0741 00000000 		.4byte	.LVL126
 5775 0745 22000000 		.4byte	.LVL129
 5776 0749 0100     		.2byte	0x1
 5777 074b 50       		.byte	0x50
 5778 074c 22000000 		.4byte	.LVL129
 5779 0750 54000000 		.4byte	.LVL132
 5780 0754 0100     		.2byte	0x1
 5781 0756 55       		.byte	0x55
 5782 0757 54000000 		.4byte	.LVL132
 5783 075b 56000000 		.4byte	.LVL133
 5784 075f 0100     		.2byte	0x1
 5785 0761 50       		.byte	0x50
 5786 0762 56000000 		.4byte	.LVL133
 5787 0766 58000000 		.4byte	.LVL134
 5788 076a 0400     		.2byte	0x4
 5789 076c F3       		.byte	0xf3
 5790 076d 01       		.uleb128 0x1
 5791 076e 50       		.byte	0x50
 5792 076f 9F       		.byte	0x9f
 5793 0770 58000000 		.4byte	.LVL134
 5794 0774 5A000000 		.4byte	.LVL135
 5795 0778 0100     		.2byte	0x1
 5796 077a 50       		.byte	0x50
 5797 077b 5A000000 		.4byte	.LVL135
 5798 077f 5C000000 		.4byte	.LVL136
 5799 0783 0400     		.2byte	0x4
 5800 0785 F3       		.byte	0xf3
 5801 0786 01       		.uleb128 0x1
 5802 0787 50       		.byte	0x50
 5803 0788 9F       		.byte	0x9f
 5804 0789 5C000000 		.4byte	.LVL136
 5805 078d 66000000 		.4byte	.LVL140
 5806 0791 0100     		.2byte	0x1
 5807 0793 55       		.byte	0x55
 5808 0794 66000000 		.4byte	.LVL140
 5809 0798 6C000000 		.4byte	.LFE6
 5810 079c 0400     		.2byte	0x4
 5811 079e F3       		.byte	0xf3
 5812 079f 01       		.uleb128 0x1
 5813 07a0 50       		.byte	0x50
 5814 07a1 9F       		.byte	0x9f
ARM GAS  C:\Users\Petro\AppData\Local\Temp\cc5IgTu7.s 			page 125


 5815 07a2 00000000 		.4byte	0
 5816 07a6 00000000 		.4byte	0
 5817              	.LLST36:
 5818 07aa 3C000000 		.4byte	.LVL130
 5819 07ae 4B000000 		.4byte	.LVL131-1
 5820 07b2 0100     		.2byte	0x1
 5821 07b4 50       		.byte	0x50
 5822 07b5 60000000 		.4byte	.LVL137
 5823 07b9 62000000 		.4byte	.LVL138
 5824 07bd 0100     		.2byte	0x1
 5825 07bf 50       		.byte	0x50
 5826 07c0 64000000 		.4byte	.LVL139
 5827 07c4 66000000 		.4byte	.LVL140
 5828 07c8 0100     		.2byte	0x1
 5829 07ca 50       		.byte	0x50
 5830 07cb 00000000 		.4byte	0
 5831 07cf 00000000 		.4byte	0
 5832              	.LLST37:
 5833 07d3 0C000000 		.4byte	.LVL128
 5834 07d7 66000000 		.4byte	.LVL141
 5835 07db 0100     		.2byte	0x1
 5836 07dd 54       		.byte	0x54
 5837 07de 00000000 		.4byte	0
 5838 07e2 00000000 		.4byte	0
 5839              	.LLST38:
 5840 07e6 06000000 		.4byte	.LVL127
 5841 07ea 66000000 		.4byte	.LVL142
 5842 07ee 0100     		.2byte	0x1
 5843 07f0 56       		.byte	0x56
 5844 07f1 00000000 		.4byte	0
 5845 07f5 00000000 		.4byte	0
 5846              	.LLST39:
 5847 07f9 00000000 		.4byte	.LVL143
 5848 07fd 09000000 		.4byte	.LVL144-1
 5849 0801 0100     		.2byte	0x1
 5850 0803 50       		.byte	0x50
 5851 0804 09000000 		.4byte	.LVL144-1
 5852 0808 54000000 		.4byte	.LVL156
 5853 080c 0100     		.2byte	0x1
 5854 080e 55       		.byte	0x55
 5855 080f 54000000 		.4byte	.LVL156
 5856 0813 56000000 		.4byte	.LFE7
 5857 0817 0400     		.2byte	0x4
 5858 0819 F3       		.byte	0xf3
 5859 081a 01       		.uleb128 0x1
 5860 081b 50       		.byte	0x50
 5861 081c 9F       		.byte	0x9f
 5862 081d 00000000 		.4byte	0
 5863 0821 00000000 		.4byte	0
 5864              	.LLST40:
 5865 0825 00000000 		.4byte	.LVL143
 5866 0829 09000000 		.4byte	.LVL144-1
 5867 082d 0100     		.2byte	0x1
 5868 082f 51       		.byte	0x51
 5869 0830 09000000 		.4byte	.LVL144-1
 5870 0834 54000000 		.4byte	.LVL157
 5871 0838 0100     		.2byte	0x1
ARM GAS  C:\Users\Petro\AppData\Local\Temp\cc5IgTu7.s 			page 126


 5872 083a 56       		.byte	0x56
 5873 083b 54000000 		.4byte	.LVL157
 5874 083f 56000000 		.4byte	.LFE7
 5875 0843 0400     		.2byte	0x4
 5876 0845 F3       		.byte	0xf3
 5877 0846 01       		.uleb128 0x1
 5878 0847 51       		.byte	0x51
 5879 0848 9F       		.byte	0x9f
 5880 0849 00000000 		.4byte	0
 5881 084d 00000000 		.4byte	0
 5882              	.LLST41:
 5883 0851 0A000000 		.4byte	.LVL144
 5884 0855 0E000000 		.4byte	.LVL145
 5885 0859 0100     		.2byte	0x1
 5886 085b 50       		.byte	0x50
 5887 085c 26000000 		.4byte	.LVL147
 5888 0860 4C000000 		.4byte	.LVL152
 5889 0864 0100     		.2byte	0x1
 5890 0866 54       		.byte	0x54
 5891 0867 4C000000 		.4byte	.LVL152
 5892 086b 50000000 		.4byte	.LVL153
 5893 086f 0100     		.2byte	0x1
 5894 0871 50       		.byte	0x50
 5895 0872 50000000 		.4byte	.LVL153
 5896 0876 54000000 		.4byte	.LVL155
 5897 087a 0100     		.2byte	0x1
 5898 087c 54       		.byte	0x54
 5899 087d 00000000 		.4byte	0
 5900 0881 00000000 		.4byte	0
 5901              	.LLST42:
 5902 0885 2C000000 		.4byte	.LVL148
 5903 0889 32000000 		.4byte	.LVL149
 5904 088d 0100     		.2byte	0x1
 5905 088f 53       		.byte	0x53
 5906 0890 32000000 		.4byte	.LVL149
 5907 0894 3F000000 		.4byte	.LVL150-1
 5908 0898 0200     		.2byte	0x2
 5909 089a 76       		.byte	0x76
 5910 089b 00       		.sleb128 0
 5911 089c 50000000 		.4byte	.LVL153
 5912 08a0 52000000 		.4byte	.LVL154
 5913 08a4 0100     		.2byte	0x1
 5914 08a6 53       		.byte	0x53
 5915 08a7 00000000 		.4byte	0
 5916 08ab 00000000 		.4byte	0
 5917              	.LLST43:
 5918 08af 00000000 		.4byte	.LVL158
 5919 08b3 2E000000 		.4byte	.LVL160
 5920 08b7 0100     		.2byte	0x1
 5921 08b9 50       		.byte	0x50
 5922 08ba 2E000000 		.4byte	.LVL160
 5923 08be 6C000000 		.4byte	.LVL171
 5924 08c2 0100     		.2byte	0x1
 5925 08c4 55       		.byte	0x55
 5926 08c5 6C000000 		.4byte	.LVL171
 5927 08c9 6E000000 		.4byte	.LFE11
 5928 08cd 0400     		.2byte	0x4
ARM GAS  C:\Users\Petro\AppData\Local\Temp\cc5IgTu7.s 			page 127


 5929 08cf F3       		.byte	0xf3
 5930 08d0 01       		.uleb128 0x1
 5931 08d1 50       		.byte	0x50
 5932 08d2 9F       		.byte	0x9f
 5933 08d3 00000000 		.4byte	0
 5934 08d7 00000000 		.4byte	0
 5935              	.LLST44:
 5936 08db 00000000 		.4byte	.LVL158
 5937 08df 31000000 		.4byte	.LVL161-1
 5938 08e3 0100     		.2byte	0x1
 5939 08e5 51       		.byte	0x51
 5940 08e6 31000000 		.4byte	.LVL161-1
 5941 08ea 6C000000 		.4byte	.LVL170
 5942 08ee 0100     		.2byte	0x1
 5943 08f0 54       		.byte	0x54
 5944 08f1 6C000000 		.4byte	.LVL170
 5945 08f5 6E000000 		.4byte	.LFE11
 5946 08f9 0400     		.2byte	0x4
 5947 08fb F3       		.byte	0xf3
 5948 08fc 01       		.uleb128 0x1
 5949 08fd 51       		.byte	0x51
 5950 08fe 9F       		.byte	0x9f
 5951 08ff 00000000 		.4byte	0
 5952 0903 00000000 		.4byte	0
 5953              	.LLST45:
 5954 0907 00000000 		.4byte	.LVL158
 5955 090b 0C000000 		.4byte	.LVL159
 5956 090f 0100     		.2byte	0x1
 5957 0911 52       		.byte	0x52
 5958 0912 0C000000 		.4byte	.LVL159
 5959 0916 6E000000 		.4byte	.LFE11
 5960 091a 0400     		.2byte	0x4
 5961 091c F3       		.byte	0xf3
 5962 091d 01       		.uleb128 0x1
 5963 091e 52       		.byte	0x52
 5964 091f 9F       		.byte	0x9f
 5965 0920 00000000 		.4byte	0
 5966 0924 00000000 		.4byte	0
 5967              	.LLST46:
 5968 0928 32000000 		.4byte	.LVL161
 5969 092c 38000000 		.4byte	.LVL162
 5970 0930 0100     		.2byte	0x1
 5971 0932 50       		.byte	0x50
 5972 0933 40000000 		.4byte	.LVL163
 5973 0937 46000000 		.4byte	.LVL164
 5974 093b 0100     		.2byte	0x1
 5975 093d 50       		.byte	0x50
 5976 093e 4C000000 		.4byte	.LVL165
 5977 0942 60000000 		.4byte	.LVL166
 5978 0946 0100     		.2byte	0x1
 5979 0948 50       		.byte	0x50
 5980 0949 68000000 		.4byte	.LVL168
 5981 094d 6E000000 		.4byte	.LFE11
 5982 0951 0100     		.2byte	0x1
 5983 0953 50       		.byte	0x50
 5984 0954 00000000 		.4byte	0
 5985 0958 00000000 		.4byte	0
ARM GAS  C:\Users\Petro\AppData\Local\Temp\cc5IgTu7.s 			page 128


 5986              	.LLST47:
 5987 095c 00000000 		.4byte	.LVL172
 5988 0960 08000000 		.4byte	.LVL174
 5989 0964 0100     		.2byte	0x1
 5990 0966 50       		.byte	0x50
 5991 0967 08000000 		.4byte	.LVL174
 5992 096b 54000000 		.4byte	.LVL187
 5993 096f 0100     		.2byte	0x1
 5994 0971 54       		.byte	0x54
 5995 0972 54000000 		.4byte	.LVL187
 5996 0976 56000000 		.4byte	.LFE8
 5997 097a 0400     		.2byte	0x4
 5998 097c F3       		.byte	0xf3
 5999 097d 01       		.uleb128 0x1
 6000 097e 50       		.byte	0x50
 6001 097f 9F       		.byte	0x9f
 6002 0980 00000000 		.4byte	0
 6003 0984 00000000 		.4byte	0
 6004              	.LLST48:
 6005 0988 00000000 		.4byte	.LVL172
 6006 098c 0A000000 		.4byte	.LVL175
 6007 0990 0100     		.2byte	0x1
 6008 0992 51       		.byte	0x51
 6009 0993 0A000000 		.4byte	.LVL175
 6010 0997 54000000 		.4byte	.LVL188
 6011 099b 0100     		.2byte	0x1
 6012 099d 55       		.byte	0x55
 6013 099e 54000000 		.4byte	.LVL188
 6014 09a2 56000000 		.4byte	.LFE8
 6015 09a6 0400     		.2byte	0x4
 6016 09a8 F3       		.byte	0xf3
 6017 09a9 01       		.uleb128 0x1
 6018 09aa 51       		.byte	0x51
 6019 09ab 9F       		.byte	0x9f
 6020 09ac 00000000 		.4byte	0
 6021 09b0 00000000 		.4byte	0
 6022              	.LLST49:
 6023 09b4 06000000 		.4byte	.LVL173
 6024 09b8 0A000000 		.4byte	.LVL175
 6025 09bc 0200     		.2byte	0x2
 6026 09be 33       		.byte	0x33
 6027 09bf 9F       		.byte	0x9f
 6028 09c0 0A000000 		.4byte	.LVL175
 6029 09c4 14000000 		.4byte	.LVL176
 6030 09c8 0100     		.2byte	0x1
 6031 09ca 50       		.byte	0x50
 6032 09cb 20000000 		.4byte	.LVL178
 6033 09cf 3A000000 		.4byte	.LVL182
 6034 09d3 0100     		.2byte	0x1
 6035 09d5 50       		.byte	0x50
 6036 09d6 3E000000 		.4byte	.LVL183
 6037 09da 56000000 		.4byte	.LFE8
 6038 09de 0100     		.2byte	0x1
 6039 09e0 50       		.byte	0x50
 6040 09e1 00000000 		.4byte	0
 6041 09e5 00000000 		.4byte	0
 6042              	.LLST50:
ARM GAS  C:\Users\Petro\AppData\Local\Temp\cc5IgTu7.s 			page 129


 6043 09e9 2C000000 		.4byte	.LVL180
 6044 09ed 3D000000 		.4byte	.LVL183-1
 6045 09f1 0600     		.2byte	0x6
 6046 09f3 72       		.byte	0x72
 6047 09f4 00       		.sleb128 0
 6048 09f5 08       		.byte	0x8
 6049 09f6 3F       		.byte	0x3f
 6050 09f7 1A       		.byte	0x1a
 6051 09f8 9F       		.byte	0x9f
 6052 09f9 00000000 		.4byte	0
 6053 09fd 00000000 		.4byte	0
 6054              	.LLST51:
 6055 0a01 26000000 		.4byte	.LVL179
 6056 0a05 38000000 		.4byte	.LVL181
 6057 0a09 0100     		.2byte	0x1
 6058 0a0b 53       		.byte	0x53
 6059 0a0c 38000000 		.4byte	.LVL181
 6060 0a10 3D000000 		.4byte	.LVL183-1
 6061 0a14 0200     		.2byte	0x2
 6062 0a16 75       		.byte	0x75
 6063 0a17 00       		.sleb128 0
 6064 0a18 4A000000 		.4byte	.LVL185
 6065 0a1c 4C000000 		.4byte	.LVL186
 6066 0a20 0100     		.2byte	0x1
 6067 0a22 53       		.byte	0x53
 6068 0a23 00000000 		.4byte	0
 6069 0a27 00000000 		.4byte	0
 6070              	.LLST52:
 6071 0a2b 00000000 		.4byte	.LVL189
 6072 0a2f 13000000 		.4byte	.LVL190-1
 6073 0a33 0100     		.2byte	0x1
 6074 0a35 50       		.byte	0x50
 6075 0a36 13000000 		.4byte	.LVL190-1
 6076 0a3a 70010000 		.4byte	.LVL228
 6077 0a3e 0100     		.2byte	0x1
 6078 0a40 54       		.byte	0x54
 6079 0a41 70010000 		.4byte	.LVL228
 6080 0a45 8C010000 		.4byte	.LFE13
 6081 0a49 0400     		.2byte	0x4
 6082 0a4b F3       		.byte	0xf3
 6083 0a4c 01       		.uleb128 0x1
 6084 0a4d 50       		.byte	0x50
 6085 0a4e 9F       		.byte	0x9f
 6086 0a4f 00000000 		.4byte	0
 6087 0a53 00000000 		.4byte	0
 6088              	.LLST53:
 6089 0a57 24000000 		.4byte	.LVL193
 6090 0a5b 2A000000 		.4byte	.LVL194
 6091 0a5f 0100     		.2byte	0x1
 6092 0a61 50       		.byte	0x50
 6093 0a62 2A000000 		.4byte	.LVL194
 6094 0a66 4E000000 		.4byte	.LVL198
 6095 0a6a 0100     		.2byte	0x1
 6096 0a6c 55       		.byte	0x55
 6097 0a6d 4E000000 		.4byte	.LVL198
 6098 0a71 54000000 		.4byte	.LVL200
 6099 0a75 0100     		.2byte	0x1
ARM GAS  C:\Users\Petro\AppData\Local\Temp\cc5IgTu7.s 			page 130


 6100 0a77 50       		.byte	0x50
 6101 0a78 54000000 		.4byte	.LVL200
 6102 0a7c 58000000 		.4byte	.LVL201
 6103 0a80 0100     		.2byte	0x1
 6104 0a82 55       		.byte	0x55
 6105 0a83 5A000000 		.4byte	.LVL202
 6106 0a87 00010000 		.4byte	.LVL217
 6107 0a8b 0100     		.2byte	0x1
 6108 0a8d 55       		.byte	0x55
 6109 0a8e 00010000 		.4byte	.LVL217
 6110 0a92 08010000 		.4byte	.LVL218
 6111 0a96 0200     		.2byte	0x2
 6112 0a98 30       		.byte	0x30
 6113 0a99 9F       		.byte	0x9f
 6114 0a9a 08010000 		.4byte	.LVL218
 6115 0a9e 5C010000 		.4byte	.LVL224
 6116 0aa2 0100     		.2byte	0x1
 6117 0aa4 55       		.byte	0x55
 6118 0aa5 60010000 		.4byte	.LVL225
 6119 0aa9 6E010000 		.4byte	.LVL227
 6120 0aad 0100     		.2byte	0x1
 6121 0aaf 55       		.byte	0x55
 6122 0ab0 00000000 		.4byte	0
 6123 0ab4 00000000 		.4byte	0
 6124              	.LLST54:
 6125 0ab8 1A000000 		.4byte	.LVL191
 6126 0abc 44000000 		.4byte	.LVL196
 6127 0ac0 0200     		.2byte	0x2
 6128 0ac2 30       		.byte	0x30
 6129 0ac3 9F       		.byte	0x9f
 6130 0ac4 44000000 		.4byte	.LVL196
 6131 0ac8 50000000 		.4byte	.LVL199
 6132 0acc 0100     		.2byte	0x1
 6133 0ace 56       		.byte	0x56
 6134 0acf 50000000 		.4byte	.LVL199
 6135 0ad3 5C000000 		.4byte	.LVL203
 6136 0ad7 0200     		.2byte	0x2
 6137 0ad9 30       		.byte	0x30
 6138 0ada 9F       		.byte	0x9f
 6139 0adb 5C000000 		.4byte	.LVL203
 6140 0adf B6000000 		.4byte	.LVL209
 6141 0ae3 0100     		.2byte	0x1
 6142 0ae5 56       		.byte	0x56
 6143 0ae6 60010000 		.4byte	.LVL225
 6144 0aea 6C010000 		.4byte	.LVL226
 6145 0aee 0100     		.2byte	0x1
 6146 0af0 56       		.byte	0x56
 6147 0af1 00000000 		.4byte	0
 6148 0af5 00000000 		.4byte	0
 6149              	.LLST55:
 6150 0af9 84000000 		.4byte	.LVL205
 6151 0afd 96000000 		.4byte	.LVL206
 6152 0b01 0100     		.2byte	0x1
 6153 0b03 57       		.byte	0x57
 6154 0b04 96000000 		.4byte	.LVL206
 6155 0b08 A2000000 		.4byte	.LVL207
 6156 0b0c 1200     		.2byte	0x12
ARM GAS  C:\Users\Petro\AppData\Local\Temp\cc5IgTu7.s 			page 131


 6157 0b0e 91       		.byte	0x91
 6158 0b0f 4E       		.sleb128 -50
 6159 0b10 94       		.byte	0x94
 6160 0b11 01       		.byte	0x1
 6161 0b12 08       		.byte	0x8
 6162 0b13 FF       		.byte	0xff
 6163 0b14 1A       		.byte	0x1a
 6164 0b15 38       		.byte	0x38
 6165 0b16 24       		.byte	0x24
 6166 0b17 91       		.byte	0x91
 6167 0b18 4D       		.sleb128 -51
 6168 0b19 94       		.byte	0x94
 6169 0b1a 01       		.byte	0x1
 6170 0b1b 08       		.byte	0x8
 6171 0b1c FF       		.byte	0xff
 6172 0b1d 1A       		.byte	0x1a
 6173 0b1e 21       		.byte	0x21
 6174 0b1f 9F       		.byte	0x9f
 6175 0b20 A2000000 		.4byte	.LVL207
 6176 0b24 5C010000 		.4byte	.LVL224
 6177 0b28 0100     		.2byte	0x1
 6178 0b2a 57       		.byte	0x57
 6179 0b2b 6C010000 		.4byte	.LVL226
 6180 0b2f 6E010000 		.4byte	.LVL227
 6181 0b33 0100     		.2byte	0x1
 6182 0b35 57       		.byte	0x57
 6183 0b36 00000000 		.4byte	0
 6184 0b3a 00000000 		.4byte	0
 6185              	.LLST56:
 6186 0b3e C4000000 		.4byte	.LVL210
 6187 0b42 CA000000 		.4byte	.LVL211
 6188 0b46 0100     		.2byte	0x1
 6189 0b48 53       		.byte	0x53
 6190 0b49 CA000000 		.4byte	.LVL211
 6191 0b4d CC000000 		.4byte	.LVL212
 6192 0b51 0300     		.2byte	0x3
 6193 0b53 73       		.byte	0x73
 6194 0b54 69       		.sleb128 -23
 6195 0b55 9F       		.byte	0x9f
 6196 0b56 CC000000 		.4byte	.LVL212
 6197 0b5a E0000000 		.4byte	.LVL213
 6198 0b5e 0900     		.2byte	0x9
 6199 0b60 91       		.byte	0x91
 6200 0b61 4A       		.sleb128 -54
 6201 0b62 94       		.byte	0x94
 6202 0b63 02       		.byte	0x2
 6203 0b64 0A       		.byte	0xa
 6204 0b65 FFFF     		.2byte	0xffff
 6205 0b67 1A       		.byte	0x1a
 6206 0b68 9F       		.byte	0x9f
 6207 0b69 E0000000 		.4byte	.LVL213
 6208 0b6d F2000000 		.4byte	.LVL214
 6209 0b71 0100     		.2byte	0x1
 6210 0b73 53       		.byte	0x53
 6211 0b74 00000000 		.4byte	0
 6212 0b78 00000000 		.4byte	0
 6213              	.LLST57:
ARM GAS  C:\Users\Petro\AppData\Local\Temp\cc5IgTu7.s 			page 132


 6214 0b7c FE000000 		.4byte	.LVL216
 6215 0b80 2E010000 		.4byte	.LVL221
 6216 0b84 0100     		.2byte	0x1
 6217 0b86 53       		.byte	0x53
 6218 0b87 2E010000 		.4byte	.LVL221
 6219 0b8b 46010000 		.4byte	.LVL222
 6220 0b8f 0200     		.2byte	0x2
 6221 0b91 74       		.byte	0x74
 6222 0b92 08       		.sleb128 8
 6223 0b93 46010000 		.4byte	.LVL222
 6224 0b97 48010000 		.4byte	.LVL223
 6225 0b9b 0100     		.2byte	0x1
 6226 0b9d 53       		.byte	0x53
 6227 0b9e 48010000 		.4byte	.LVL223
 6228 0ba2 5C010000 		.4byte	.LVL224
 6229 0ba6 0200     		.2byte	0x2
 6230 0ba8 74       		.byte	0x74
 6231 0ba9 08       		.sleb128 8
 6232 0baa 6C010000 		.4byte	.LVL226
 6233 0bae 6E010000 		.4byte	.LVL227
 6234 0bb2 0100     		.2byte	0x1
 6235 0bb4 53       		.byte	0x53
 6236 0bb5 00000000 		.4byte	0
 6237 0bb9 00000000 		.4byte	0
 6238              	.LLST58:
 6239 0bbd 00000000 		.4byte	.LVL229
 6240 0bc1 18000000 		.4byte	.LVL231
 6241 0bc5 0100     		.2byte	0x1
 6242 0bc7 50       		.byte	0x50
 6243 0bc8 18000000 		.4byte	.LVL231
 6244 0bcc 1D000000 		.4byte	.LVL232-1
 6245 0bd0 0100     		.2byte	0x1
 6246 0bd2 52       		.byte	0x52
 6247 0bd3 1D000000 		.4byte	.LVL232-1
 6248 0bd7 4A000000 		.4byte	.LVL235
 6249 0bdb 0400     		.2byte	0x4
 6250 0bdd F3       		.byte	0xf3
 6251 0bde 01       		.uleb128 0x1
 6252 0bdf 50       		.byte	0x50
 6253 0be0 9F       		.byte	0x9f
 6254 0be1 4A000000 		.4byte	.LVL235
 6255 0be5 4C000000 		.4byte	.LVL236
 6256 0be9 0100     		.2byte	0x1
 6257 0beb 50       		.byte	0x50
 6258 0bec 4C000000 		.4byte	.LVL236
 6259 0bf0 5C000000 		.4byte	.LFE14
 6260 0bf4 0400     		.2byte	0x4
 6261 0bf6 F3       		.byte	0xf3
 6262 0bf7 01       		.uleb128 0x1
 6263 0bf8 50       		.byte	0x50
 6264 0bf9 9F       		.byte	0x9f
 6265 0bfa 00000000 		.4byte	0
 6266 0bfe 00000000 		.4byte	0
 6267              	.LLST59:
 6268 0c02 1E000000 		.4byte	.LVL232
 6269 0c06 34000000 		.4byte	.LVL233
 6270 0c0a 0100     		.2byte	0x1
ARM GAS  C:\Users\Petro\AppData\Local\Temp\cc5IgTu7.s 			page 133


 6271 0c0c 50       		.byte	0x50
 6272 0c0d 4E000000 		.4byte	.LVL237
 6273 0c11 50000000 		.4byte	.LVL238
 6274 0c15 0100     		.2byte	0x1
 6275 0c17 50       		.byte	0x50
 6276 0c18 52000000 		.4byte	.LVL239
 6277 0c1c 54000000 		.4byte	.LVL240
 6278 0c20 0100     		.2byte	0x1
 6279 0c22 50       		.byte	0x50
 6280 0c23 00000000 		.4byte	0
 6281 0c27 00000000 		.4byte	0
 6282              	.LLST60:
 6283 0c2b 08000000 		.4byte	.LVL230
 6284 0c2f 56000000 		.4byte	.LVL241
 6285 0c33 0100     		.2byte	0x1
 6286 0c35 54       		.byte	0x54
 6287 0c36 00000000 		.4byte	0
 6288 0c3a 00000000 		.4byte	0
 6289              	.LLST61:
 6290 0c3e 00000000 		.4byte	.LVL242
 6291 0c42 2E000000 		.4byte	.LVL247
 6292 0c46 0100     		.2byte	0x1
 6293 0c48 50       		.byte	0x50
 6294 0c49 2E000000 		.4byte	.LVL247
 6295 0c4d 8A000000 		.4byte	.LVL262
 6296 0c51 0100     		.2byte	0x1
 6297 0c53 59       		.byte	0x59
 6298 0c54 8A000000 		.4byte	.LVL262
 6299 0c58 94000000 		.4byte	.LVL263
 6300 0c5c 0100     		.2byte	0x1
 6301 0c5e 53       		.byte	0x53
 6302 0c5f 94000000 		.4byte	.LVL263
 6303 0c63 C2000000 		.4byte	.LVL271
 6304 0c67 0100     		.2byte	0x1
 6305 0c69 59       		.byte	0x59
 6306 0c6a C2000000 		.4byte	.LVL271
 6307 0c6e C4000000 		.4byte	.LVL272
 6308 0c72 0100     		.2byte	0x1
 6309 0c74 50       		.byte	0x50
 6310 0c75 C4000000 		.4byte	.LVL272
 6311 0c79 C6000000 		.4byte	.LVL273
 6312 0c7d 0400     		.2byte	0x4
 6313 0c7f F3       		.byte	0xf3
 6314 0c80 01       		.uleb128 0x1
 6315 0c81 50       		.byte	0x50
 6316 0c82 9F       		.byte	0x9f
 6317 0c83 C6000000 		.4byte	.LVL273
 6318 0c87 C8000000 		.4byte	.LVL274
 6319 0c8b 0100     		.2byte	0x1
 6320 0c8d 50       		.byte	0x50
 6321 0c8e C8000000 		.4byte	.LVL274
 6322 0c92 D4000000 		.4byte	.LFE15
 6323 0c96 0400     		.2byte	0x4
 6324 0c98 F3       		.byte	0xf3
 6325 0c99 01       		.uleb128 0x1
 6326 0c9a 50       		.byte	0x50
 6327 0c9b 9F       		.byte	0x9f
ARM GAS  C:\Users\Petro\AppData\Local\Temp\cc5IgTu7.s 			page 134


 6328 0c9c 00000000 		.4byte	0
 6329 0ca0 00000000 		.4byte	0
 6330              	.LLST62:
 6331 0ca4 00000000 		.4byte	.LVL242
 6332 0ca8 2E000000 		.4byte	.LVL247
 6333 0cac 0100     		.2byte	0x1
 6334 0cae 51       		.byte	0x51
 6335 0caf 2E000000 		.4byte	.LVL247
 6336 0cb3 C2000000 		.4byte	.LVL271
 6337 0cb7 0100     		.2byte	0x1
 6338 0cb9 56       		.byte	0x56
 6339 0cba C2000000 		.4byte	.LVL271
 6340 0cbe C8000000 		.4byte	.LVL274
 6341 0cc2 0100     		.2byte	0x1
 6342 0cc4 51       		.byte	0x51
 6343 0cc5 00000000 		.4byte	0
 6344 0cc9 00000000 		.4byte	0
 6345              	.LLST63:
 6346 0ccd 00000000 		.4byte	.LVL242
 6347 0cd1 2E000000 		.4byte	.LVL247
 6348 0cd5 0100     		.2byte	0x1
 6349 0cd7 52       		.byte	0x52
 6350 0cd8 2E000000 		.4byte	.LVL247
 6351 0cdc C2000000 		.4byte	.LVL271
 6352 0ce0 0100     		.2byte	0x1
 6353 0ce2 58       		.byte	0x58
 6354 0ce3 C2000000 		.4byte	.LVL271
 6355 0ce7 C8000000 		.4byte	.LVL274
 6356 0ceb 0100     		.2byte	0x1
 6357 0ced 52       		.byte	0x52
 6358 0cee C8000000 		.4byte	.LVL274
 6359 0cf2 D4000000 		.4byte	.LFE15
 6360 0cf6 0400     		.2byte	0x4
 6361 0cf8 F3       		.byte	0xf3
 6362 0cf9 01       		.uleb128 0x1
 6363 0cfa 52       		.byte	0x52
 6364 0cfb 9F       		.byte	0x9f
 6365 0cfc 00000000 		.4byte	0
 6366 0d00 00000000 		.4byte	0
 6367              	.LLST64:
 6368 0d04 98000000 		.4byte	.LVL264
 6369 0d08 A2000000 		.4byte	.LVL265
 6370 0d0c 0100     		.2byte	0x1
 6371 0d0e 50       		.byte	0x50
 6372 0d0f A4000000 		.4byte	.LVL266
 6373 0d13 BA000000 		.4byte	.LVL270
 6374 0d17 0100     		.2byte	0x1
 6375 0d19 50       		.byte	0x50
 6376 0d1a 00000000 		.4byte	0
 6377 0d1e 00000000 		.4byte	0
 6378              	.LLST65:
 6379 0d22 46000000 		.4byte	.LVL249
 6380 0d26 48000000 		.4byte	.LVL250
 6381 0d2a 0100     		.2byte	0x1
 6382 0d2c 50       		.byte	0x50
 6383 0d2d 4E000000 		.4byte	.LVL251
 6384 0d31 58000000 		.4byte	.LVL252
ARM GAS  C:\Users\Petro\AppData\Local\Temp\cc5IgTu7.s 			page 135


 6385 0d35 0100     		.2byte	0x1
 6386 0d37 50       		.byte	0x50
 6387 0d38 5A000000 		.4byte	.LVL253
 6388 0d3c 5C000000 		.4byte	.LVL254
 6389 0d40 0100     		.2byte	0x1
 6390 0d42 50       		.byte	0x50
 6391 0d43 00000000 		.4byte	0
 6392 0d47 00000000 		.4byte	0
 6393              	.LLST66:
 6394 0d4b 62000000 		.4byte	.LVL255
 6395 0d4f 6C000000 		.4byte	.LVL256
 6396 0d53 0100     		.2byte	0x1
 6397 0d55 50       		.byte	0x50
 6398 0d56 6C000000 		.4byte	.LVL256
 6399 0d5a 6E000000 		.4byte	.LVL257
 6400 0d5e 0300     		.2byte	0x3
 6401 0d60 70       		.byte	0x70
 6402 0d61 7F       		.sleb128 -1
 6403 0d62 9F       		.byte	0x9f
 6404 0d63 6E000000 		.4byte	.LVL257
 6405 0d67 70000000 		.4byte	.LVL258
 6406 0d6b 0100     		.2byte	0x1
 6407 0d6d 50       		.byte	0x50
 6408 0d6e 00000000 		.4byte	0
 6409 0d72 00000000 		.4byte	0
 6410              	.LLST67:
 6411 0d76 20000000 		.4byte	.LVL245
 6412 0d7a 26000000 		.4byte	.LVL246
 6413 0d7e 0100     		.2byte	0x1
 6414 0d80 56       		.byte	0x56
 6415 0d81 26000000 		.4byte	.LVL246
 6416 0d85 2E000000 		.4byte	.LVL247
 6417 0d89 0600     		.2byte	0x6
 6418 0d8b 73       		.byte	0x73
 6419 0d8c 00       		.sleb128 0
 6420 0d8d 74       		.byte	0x74
 6421 0d8e 00       		.sleb128 0
 6422 0d8f 1C       		.byte	0x1c
 6423 0d90 9F       		.byte	0x9f
 6424 0d91 00000000 		.4byte	0
 6425 0d95 00000000 		.4byte	0
 6426              	.LLST68:
 6427 0d99 7E000000 		.4byte	.LVL260
 6428 0d9d B6000000 		.4byte	.LVL269
 6429 0da1 0100     		.2byte	0x1
 6430 0da3 54       		.byte	0x54
 6431 0da4 00000000 		.4byte	0
 6432 0da8 00000000 		.4byte	0
 6433              	.LLST69:
 6434 0dac 3E000000 		.4byte	.LVL248
 6435 0db0 72000000 		.4byte	.LVL259
 6436 0db4 0100     		.2byte	0x1
 6437 0db6 54       		.byte	0x54
 6438 0db7 00000000 		.4byte	0
 6439 0dbb 00000000 		.4byte	0
 6440              	.LLST70:
 6441 0dbf 08000000 		.4byte	.LVL243
ARM GAS  C:\Users\Petro\AppData\Local\Temp\cc5IgTu7.s 			page 136


 6442 0dc3 2E000000 		.4byte	.LVL247
 6443 0dc7 0100     		.2byte	0x1
 6444 0dc9 50       		.byte	0x50
 6445 0dca 2E000000 		.4byte	.LVL247
 6446 0dce C2000000 		.4byte	.LVL271
 6447 0dd2 0100     		.2byte	0x1
 6448 0dd4 57       		.byte	0x57
 6449 0dd5 C2000000 		.4byte	.LVL271
 6450 0dd9 C4000000 		.4byte	.LVL272
 6451 0ddd 0100     		.2byte	0x1
 6452 0ddf 50       		.byte	0x50
 6453 0de0 C4000000 		.4byte	.LVL272
 6454 0de4 C6000000 		.4byte	.LVL273
 6455 0de8 0400     		.2byte	0x4
 6456 0dea F3       		.byte	0xf3
 6457 0deb 01       		.uleb128 0x1
 6458 0dec 50       		.byte	0x50
 6459 0ded 9F       		.byte	0x9f
 6460 0dee C6000000 		.4byte	.LVL273
 6461 0df2 C8000000 		.4byte	.LVL274
 6462 0df6 0100     		.2byte	0x1
 6463 0df8 50       		.byte	0x50
 6464 0df9 00000000 		.4byte	0
 6465 0dfd 00000000 		.4byte	0
 6466              	.LLST71:
 6467 0e01 0C000000 		.4byte	.LVL244
 6468 0e05 C8000000 		.4byte	.LVL275
 6469 0e09 0100     		.2byte	0x1
 6470 0e0b 55       		.byte	0x55
 6471 0e0c 00000000 		.4byte	0
 6472 0e10 00000000 		.4byte	0
 6473              	.LLST72:
 6474 0e14 00000000 		.4byte	.LVL276
 6475 0e18 2A000000 		.4byte	.LVL280
 6476 0e1c 0100     		.2byte	0x1
 6477 0e1e 50       		.byte	0x50
 6478 0e1f 2A000000 		.4byte	.LVL280
 6479 0e23 46000000 		.4byte	.LVL282
 6480 0e27 0100     		.2byte	0x1
 6481 0e29 57       		.byte	0x57
 6482 0e2a 46000000 		.4byte	.LVL282
 6483 0e2e 60000000 		.4byte	.LVL285
 6484 0e32 0100     		.2byte	0x1
 6485 0e34 50       		.byte	0x50
 6486 0e35 60000000 		.4byte	.LVL285
 6487 0e39 24010000 		.4byte	.LVL307
 6488 0e3d 0400     		.2byte	0x4
 6489 0e3f F3       		.byte	0xf3
 6490 0e40 01       		.uleb128 0x1
 6491 0e41 50       		.byte	0x50
 6492 0e42 9F       		.byte	0x9f
 6493 0e43 24010000 		.4byte	.LVL307
 6494 0e47 26010000 		.4byte	.LVL308
 6495 0e4b 0100     		.2byte	0x1
 6496 0e4d 50       		.byte	0x50
 6497 0e4e 26010000 		.4byte	.LVL308
 6498 0e52 28010000 		.4byte	.LVL309
ARM GAS  C:\Users\Petro\AppData\Local\Temp\cc5IgTu7.s 			page 137


 6499 0e56 0100     		.2byte	0x1
 6500 0e58 57       		.byte	0x57
 6501 0e59 28010000 		.4byte	.LVL309
 6502 0e5d 2A010000 		.4byte	.LVL310
 6503 0e61 0100     		.2byte	0x1
 6504 0e63 50       		.byte	0x50
 6505 0e64 2A010000 		.4byte	.LVL310
 6506 0e68 34010000 		.4byte	.LFE16
 6507 0e6c 0400     		.2byte	0x4
 6508 0e6e F3       		.byte	0xf3
 6509 0e6f 01       		.uleb128 0x1
 6510 0e70 50       		.byte	0x50
 6511 0e71 9F       		.byte	0x9f
 6512 0e72 00000000 		.4byte	0
 6513 0e76 00000000 		.4byte	0
 6514              	.LLST73:
 6515 0e7a 00000000 		.4byte	.LVL276
 6516 0e7e 2D000000 		.4byte	.LVL281-1
 6517 0e82 0100     		.2byte	0x1
 6518 0e84 51       		.byte	0x51
 6519 0e85 2D000000 		.4byte	.LVL281-1
 6520 0e89 46000000 		.4byte	.LVL282
 6521 0e8d 0400     		.2byte	0x4
 6522 0e8f F3       		.byte	0xf3
 6523 0e90 01       		.uleb128 0x1
 6524 0e91 51       		.byte	0x51
 6525 0e92 9F       		.byte	0x9f
 6526 0e93 46000000 		.4byte	.LVL282
 6527 0e97 60000000 		.4byte	.LVL285
 6528 0e9b 0100     		.2byte	0x1
 6529 0e9d 51       		.byte	0x51
 6530 0e9e 60000000 		.4byte	.LVL285
 6531 0ea2 24010000 		.4byte	.LVL307
 6532 0ea6 0100     		.2byte	0x1
 6533 0ea8 56       		.byte	0x56
 6534 0ea9 24010000 		.4byte	.LVL307
 6535 0ead 2A010000 		.4byte	.LVL310
 6536 0eb1 0100     		.2byte	0x1
 6537 0eb3 51       		.byte	0x51
 6538 0eb4 00000000 		.4byte	0
 6539 0eb8 00000000 		.4byte	0
 6540              	.LLST74:
 6541 0ebc 00000000 		.4byte	.LVL276
 6542 0ec0 20000000 		.4byte	.LVL279
 6543 0ec4 0100     		.2byte	0x1
 6544 0ec6 52       		.byte	0x52
 6545 0ec7 20000000 		.4byte	.LVL279
 6546 0ecb 24010000 		.4byte	.LVL307
 6547 0ecf 0100     		.2byte	0x1
 6548 0ed1 58       		.byte	0x58
 6549 0ed2 24010000 		.4byte	.LVL307
 6550 0ed6 28010000 		.4byte	.LVL309
 6551 0eda 0100     		.2byte	0x1
 6552 0edc 52       		.byte	0x52
 6553 0edd 28010000 		.4byte	.LVL309
 6554 0ee1 2A010000 		.4byte	.LVL313
 6555 0ee5 0100     		.2byte	0x1
ARM GAS  C:\Users\Petro\AppData\Local\Temp\cc5IgTu7.s 			page 138


 6556 0ee7 58       		.byte	0x58
 6557 0ee8 2A010000 		.4byte	.LVL313
 6558 0eec 34010000 		.4byte	.LFE16
 6559 0ef0 0400     		.2byte	0x4
 6560 0ef2 F3       		.byte	0xf3
 6561 0ef3 01       		.uleb128 0x1
 6562 0ef4 52       		.byte	0x52
 6563 0ef5 9F       		.byte	0x9f
 6564 0ef6 00000000 		.4byte	0
 6565 0efa 00000000 		.4byte	0
 6566              	.LLST75:
 6567 0efe 78000000 		.4byte	.LVL287
 6568 0f02 7A000000 		.4byte	.LVL288
 6569 0f06 0100     		.2byte	0x1
 6570 0f08 50       		.byte	0x50
 6571 0f09 80000000 		.4byte	.LVL289
 6572 0f0d 8A000000 		.4byte	.LVL290
 6573 0f11 0100     		.2byte	0x1
 6574 0f13 50       		.byte	0x50
 6575 0f14 8C000000 		.4byte	.LVL291
 6576 0f18 8E000000 		.4byte	.LVL292
 6577 0f1c 0100     		.2byte	0x1
 6578 0f1e 50       		.byte	0x50
 6579 0f1f 00000000 		.4byte	0
 6580 0f23 00000000 		.4byte	0
 6581              	.LLST76:
 6582 0f27 94000000 		.4byte	.LVL293
 6583 0f2b 9E000000 		.4byte	.LVL294
 6584 0f2f 0100     		.2byte	0x1
 6585 0f31 50       		.byte	0x50
 6586 0f32 9E000000 		.4byte	.LVL294
 6587 0f36 A0000000 		.4byte	.LVL295
 6588 0f3a 0300     		.2byte	0x3
 6589 0f3c 70       		.byte	0x70
 6590 0f3d 7F       		.sleb128 -1
 6591 0f3e 9F       		.byte	0x9f
 6592 0f3f A0000000 		.4byte	.LVL295
 6593 0f43 A6000000 		.4byte	.LVL296
 6594 0f47 0100     		.2byte	0x1
 6595 0f49 50       		.byte	0x50
 6596 0f4a 00000000 		.4byte	0
 6597 0f4e 00000000 		.4byte	0
 6598              	.LLST77:
 6599 0f52 58000000 		.4byte	.LVL283
 6600 0f56 5E000000 		.4byte	.LVL284
 6601 0f5a 0100     		.2byte	0x1
 6602 0f5c 56       		.byte	0x56
 6603 0f5d 5E000000 		.4byte	.LVL284
 6604 0f61 60000000 		.4byte	.LVL285
 6605 0f65 0600     		.2byte	0x6
 6606 0f67 73       		.byte	0x73
 6607 0f68 00       		.sleb128 0
 6608 0f69 72       		.byte	0x72
 6609 0f6a 00       		.sleb128 0
 6610 0f6b 1C       		.byte	0x1c
 6611 0f6c 9F       		.byte	0x9f
 6612 0f6d 00000000 		.4byte	0
ARM GAS  C:\Users\Petro\AppData\Local\Temp\cc5IgTu7.s 			page 139


 6613 0f71 00000000 		.4byte	0
 6614              	.LLST78:
 6615 0f75 0A000000 		.4byte	.LVL277
 6616 0f79 2A000000 		.4byte	.LVL280
 6617 0f7d 0100     		.2byte	0x1
 6618 0f7f 50       		.byte	0x50
 6619 0f80 2A000000 		.4byte	.LVL280
 6620 0f84 46000000 		.4byte	.LVL282
 6621 0f88 0100     		.2byte	0x1
 6622 0f8a 57       		.byte	0x57
 6623 0f8b 46000000 		.4byte	.LVL282
 6624 0f8f 60000000 		.4byte	.LVL285
 6625 0f93 0100     		.2byte	0x1
 6626 0f95 50       		.byte	0x50
 6627 0f96 60000000 		.4byte	.LVL285
 6628 0f9a 24010000 		.4byte	.LVL307
 6629 0f9e 0100     		.2byte	0x1
 6630 0fa0 57       		.byte	0x57
 6631 0fa1 24010000 		.4byte	.LVL307
 6632 0fa5 26010000 		.4byte	.LVL308
 6633 0fa9 0100     		.2byte	0x1
 6634 0fab 50       		.byte	0x50
 6635 0fac 26010000 		.4byte	.LVL308
 6636 0fb0 28010000 		.4byte	.LVL309
 6637 0fb4 0100     		.2byte	0x1
 6638 0fb6 57       		.byte	0x57
 6639 0fb7 28010000 		.4byte	.LVL309
 6640 0fbb 2A010000 		.4byte	.LVL310
 6641 0fbf 0100     		.2byte	0x1
 6642 0fc1 50       		.byte	0x50
 6643 0fc2 2A010000 		.4byte	.LVL310
 6644 0fc6 2A010000 		.4byte	.LVL312
 6645 0fca 0100     		.2byte	0x1
 6646 0fcc 57       		.byte	0x57
 6647 0fcd 00000000 		.4byte	0
 6648 0fd1 00000000 		.4byte	0
 6649              	.LLST79:
 6650 0fd5 70000000 		.4byte	.LVL286
 6651 0fd9 BE000000 		.4byte	.LVL298
 6652 0fdd 0100     		.2byte	0x1
 6653 0fdf 54       		.byte	0x54
 6654 0fe0 00000000 		.4byte	0
 6655 0fe4 00000000 		.4byte	0
 6656              	.LLST80:
 6657 0fe8 CA000000 		.4byte	.LVL299
 6658 0fec F6000000 		.4byte	.LVL304
 6659 0ff0 0100     		.2byte	0x1
 6660 0ff2 54       		.byte	0x54
 6661 0ff3 00000000 		.4byte	0
 6662 0ff7 00000000 		.4byte	0
 6663              	.LLST81:
 6664 0ffb 0E000000 		.4byte	.LVL278
 6665 0fff 2A010000 		.4byte	.LVL311
 6666 1003 0100     		.2byte	0x1
 6667 1005 55       		.byte	0x55
 6668 1006 00000000 		.4byte	0
 6669 100a 00000000 		.4byte	0
ARM GAS  C:\Users\Petro\AppData\Local\Temp\cc5IgTu7.s 			page 140


 6670              	.LLST82:
 6671 100e 00000000 		.4byte	.LVL314
 6672 1012 1C000000 		.4byte	.LVL316
 6673 1016 0100     		.2byte	0x1
 6674 1018 50       		.byte	0x50
 6675 1019 1C000000 		.4byte	.LVL316
 6676 101d 82000000 		.4byte	.LVL331
 6677 1021 0100     		.2byte	0x1
 6678 1023 55       		.byte	0x55
 6679 1024 A4000000 		.4byte	.LVL336
 6680 1028 A6000000 		.4byte	.LVL337
 6681 102c 0100     		.2byte	0x1
 6682 102e 50       		.byte	0x50
 6683 102f A6000000 		.4byte	.LVL337
 6684 1033 A8000000 		.4byte	.LVL338
 6685 1037 0400     		.2byte	0x4
 6686 1039 F3       		.byte	0xf3
 6687 103a 01       		.uleb128 0x1
 6688 103b 50       		.byte	0x50
 6689 103c 9F       		.byte	0x9f
 6690 103d A8000000 		.4byte	.LVL338
 6691 1041 AA000000 		.4byte	.LVL339
 6692 1045 0100     		.2byte	0x1
 6693 1047 50       		.byte	0x50
 6694 1048 AA000000 		.4byte	.LVL339
 6695 104c AC000000 		.4byte	.LVL340
 6696 1050 0400     		.2byte	0x4
 6697 1052 F3       		.byte	0xf3
 6698 1053 01       		.uleb128 0x1
 6699 1054 50       		.byte	0x50
 6700 1055 9F       		.byte	0x9f
 6701 1056 AC000000 		.4byte	.LVL340
 6702 105a AE000000 		.4byte	.LVL341
 6703 105e 0100     		.2byte	0x1
 6704 1060 55       		.byte	0x55
 6705 1061 00000000 		.4byte	0
 6706 1065 00000000 		.4byte	0
 6707              	.LLST83:
 6708 1069 50000000 		.4byte	.LVL324
 6709 106d 52000000 		.4byte	.LVL325
 6710 1071 0100     		.2byte	0x1
 6711 1073 50       		.byte	0x50
 6712 1074 54000000 		.4byte	.LVL326
 6713 1078 5B000000 		.4byte	.LVL327-1
 6714 107c 0100     		.2byte	0x1
 6715 107e 50       		.byte	0x50
 6716 107f 5C000000 		.4byte	.LVL327
 6717 1083 6C000000 		.4byte	.LVL328
 6718 1087 0100     		.2byte	0x1
 6719 1089 50       		.byte	0x50
 6720 108a 6E000000 		.4byte	.LVL329
 6721 108e 87000000 		.4byte	.LVL332-1
 6722 1092 0100     		.2byte	0x1
 6723 1094 50       		.byte	0x50
 6724 1095 00000000 		.4byte	0
 6725 1099 00000000 		.4byte	0
 6726              	.LLST84:
ARM GAS  C:\Users\Petro\AppData\Local\Temp\cc5IgTu7.s 			page 141


 6727 109d 2A000000 		.4byte	.LVL318
 6728 10a1 A4000000 		.4byte	.LVL336
 6729 10a5 0100     		.2byte	0x1
 6730 10a7 56       		.byte	0x56
 6731 10a8 00000000 		.4byte	0
 6732 10ac 00000000 		.4byte	0
 6733              	.LLST85:
 6734 10b0 88000000 		.4byte	.LVL332
 6735 10b4 92000000 		.4byte	.LVL333
 6736 10b8 0100     		.2byte	0x1
 6737 10ba 50       		.byte	0x50
 6738 10bb 92000000 		.4byte	.LVL333
 6739 10bf 94000000 		.4byte	.LVL334
 6740 10c3 0300     		.2byte	0x3
 6741 10c5 70       		.byte	0x70
 6742 10c6 7F       		.sleb128 -1
 6743 10c7 9F       		.byte	0x9f
 6744 10c8 94000000 		.4byte	.LVL334
 6745 10cc A2000000 		.4byte	.LVL335
 6746 10d0 0100     		.2byte	0x1
 6747 10d2 50       		.byte	0x50
 6748 10d3 00000000 		.4byte	0
 6749 10d7 00000000 		.4byte	0
 6750              	.LLST86:
 6751 10db 1E000000 		.4byte	.LVL317
 6752 10df 3A000000 		.4byte	.LVL320
 6753 10e3 0100     		.2byte	0x1
 6754 10e5 57       		.byte	0x57
 6755 10e6 3A000000 		.4byte	.LVL320
 6756 10ea 4A000000 		.4byte	.LVL322
 6757 10ee 0300     		.2byte	0x3
 6758 10f0 77       		.byte	0x77
 6759 10f1 01       		.sleb128 1
 6760 10f2 9F       		.byte	0x9f
 6761 10f3 AC000000 		.4byte	.LVL340
 6762 10f7 AE000000 		.4byte	.LVL341
 6763 10fb 0100     		.2byte	0x1
 6764 10fd 57       		.byte	0x57
 6765 10fe 00000000 		.4byte	0
 6766 1102 00000000 		.4byte	0
 6767              	.LLST87:
 6768 1106 0A000000 		.4byte	.LVL315
 6769 110a AE000000 		.4byte	.LVL342
 6770 110e 0100     		.2byte	0x1
 6771 1110 54       		.byte	0x54
 6772 1111 00000000 		.4byte	0
 6773 1115 00000000 		.4byte	0
 6774              	.LLST88:
 6775 1119 00000000 		.4byte	.LVL343
 6776 111d 19000000 		.4byte	.LVL347-1
 6777 1121 0100     		.2byte	0x1
 6778 1123 50       		.byte	0x50
 6779 1124 19000000 		.4byte	.LVL347-1
 6780 1128 48000000 		.4byte	.LVL355
 6781 112c 0100     		.2byte	0x1
 6782 112e 55       		.byte	0x55
 6783 112f 48000000 		.4byte	.LVL355
ARM GAS  C:\Users\Petro\AppData\Local\Temp\cc5IgTu7.s 			page 142


 6784 1133 4A000000 		.4byte	.LVL356
 6785 1137 0100     		.2byte	0x1
 6786 1139 50       		.byte	0x50
 6787 113a 4A000000 		.4byte	.LVL356
 6788 113e 54000000 		.4byte	.LFE18
 6789 1142 0400     		.2byte	0x4
 6790 1144 F3       		.byte	0xf3
 6791 1145 01       		.uleb128 0x1
 6792 1146 50       		.byte	0x50
 6793 1147 9F       		.byte	0x9f
 6794 1148 00000000 		.4byte	0
 6795 114c 00000000 		.4byte	0
 6796              	.LLST89:
 6797 1150 00000000 		.4byte	.LVL343
 6798 1154 16000000 		.4byte	.LVL346
 6799 1158 0100     		.2byte	0x1
 6800 115a 51       		.byte	0x51
 6801 115b 16000000 		.4byte	.LVL346
 6802 115f 19000000 		.4byte	.LVL347-1
 6803 1163 0100     		.2byte	0x1
 6804 1165 52       		.byte	0x52
 6805 1166 19000000 		.4byte	.LVL347-1
 6806 116a 48000000 		.4byte	.LVL355
 6807 116e 0400     		.2byte	0x4
 6808 1170 F3       		.byte	0xf3
 6809 1171 01       		.uleb128 0x1
 6810 1172 51       		.byte	0x51
 6811 1173 9F       		.byte	0x9f
 6812 1174 48000000 		.4byte	.LVL355
 6813 1178 4A000000 		.4byte	.LVL356
 6814 117c 0100     		.2byte	0x1
 6815 117e 51       		.byte	0x51
 6816 117f 4A000000 		.4byte	.LVL356
 6817 1183 54000000 		.4byte	.LFE18
 6818 1187 0400     		.2byte	0x4
 6819 1189 F3       		.byte	0xf3
 6820 118a 01       		.uleb128 0x1
 6821 118b 51       		.byte	0x51
 6822 118c 9F       		.byte	0x9f
 6823 118d 00000000 		.4byte	0
 6824 1191 00000000 		.4byte	0
 6825              	.LLST90:
 6826 1195 1C000000 		.4byte	.LVL348
 6827 1199 30000000 		.4byte	.LVL349
 6828 119d 0100     		.2byte	0x1
 6829 119f 50       		.byte	0x50
 6830 11a0 30000000 		.4byte	.LVL349
 6831 11a4 38000000 		.4byte	.LVL351
 6832 11a8 0100     		.2byte	0x1
 6833 11aa 54       		.byte	0x54
 6834 11ab 38000000 		.4byte	.LVL351
 6835 11af 3A000000 		.4byte	.LVL352
 6836 11b3 0100     		.2byte	0x1
 6837 11b5 50       		.byte	0x50
 6838 11b6 3A000000 		.4byte	.LVL352
 6839 11ba 46000000 		.4byte	.LVL354
 6840 11be 0100     		.2byte	0x1
ARM GAS  C:\Users\Petro\AppData\Local\Temp\cc5IgTu7.s 			page 143


 6841 11c0 54       		.byte	0x54
 6842 11c1 46000000 		.4byte	.LVL354
 6843 11c5 48000000 		.4byte	.LVL355
 6844 11c9 0100     		.2byte	0x1
 6845 11cb 50       		.byte	0x50
 6846 11cc 4A000000 		.4byte	.LVL356
 6847 11d0 4E000000 		.4byte	.LVL357
 6848 11d4 0100     		.2byte	0x1
 6849 11d6 54       		.byte	0x54
 6850 11d7 00000000 		.4byte	0
 6851 11db 00000000 		.4byte	0
 6852              	.LLST91:
 6853 11df 08000000 		.4byte	.LVL344
 6854 11e3 12000000 		.4byte	.LVL345
 6855 11e7 0100     		.2byte	0x1
 6856 11e9 53       		.byte	0x53
 6857 11ea 12000000 		.4byte	.LVL345
 6858 11ee 19000000 		.4byte	.LVL347-1
 6859 11f2 0500     		.2byte	0x5
 6860 11f4 03       		.byte	0x3
 6861 11f5 00000000 		.4byte	FatFs
 6862 11f9 48000000 		.4byte	.LVL355
 6863 11fd 4A000000 		.4byte	.LVL356
 6864 1201 0100     		.2byte	0x1
 6865 1203 53       		.byte	0x53
 6866 1204 00000000 		.4byte	0
 6867 1208 00000000 		.4byte	0
 6868              	.LLST92:
 6869 120c 00000000 		.4byte	.LVL358
 6870 1210 1B000000 		.4byte	.LVL361-1
 6871 1214 0100     		.2byte	0x1
 6872 1216 50       		.byte	0x50
 6873 1217 1B000000 		.4byte	.LVL361-1
 6874 121b 20000000 		.4byte	.LVL363
 6875 121f 0100     		.2byte	0x1
 6876 1221 55       		.byte	0x55
 6877 1222 20000000 		.4byte	.LVL363
 6878 1226 25000000 		.4byte	.LVL365-1
 6879 122a 0100     		.2byte	0x1
 6880 122c 50       		.byte	0x50
 6881 122d 25000000 		.4byte	.LVL365-1
 6882 1231 4A000000 		.4byte	.LVL370
 6883 1235 0100     		.2byte	0x1
 6884 1237 55       		.byte	0x55
 6885 1238 4A000000 		.4byte	.LVL370
 6886 123c 4C000000 		.4byte	.LVL371
 6887 1240 0100     		.2byte	0x1
 6888 1242 50       		.byte	0x50
 6889 1243 4C000000 		.4byte	.LVL371
 6890 1247 58000000 		.4byte	.LFE19
 6891 124b 0400     		.2byte	0x4
 6892 124d F3       		.byte	0xf3
 6893 124e 01       		.uleb128 0x1
 6894 124f 50       		.byte	0x50
 6895 1250 9F       		.byte	0x9f
 6896 1251 00000000 		.4byte	0
 6897 1255 00000000 		.4byte	0
ARM GAS  C:\Users\Petro\AppData\Local\Temp\cc5IgTu7.s 			page 144


 6898              	.LLST93:
 6899 1259 00000000 		.4byte	.LVL358
 6900 125d 1B000000 		.4byte	.LVL361-1
 6901 1261 0100     		.2byte	0x1
 6902 1263 51       		.byte	0x51
 6903 1264 1B000000 		.4byte	.LVL361-1
 6904 1268 20000000 		.4byte	.LVL363
 6905 126c 0100     		.2byte	0x1
 6906 126e 56       		.byte	0x56
 6907 126f 20000000 		.4byte	.LVL363
 6908 1273 22000000 		.4byte	.LVL364
 6909 1277 0100     		.2byte	0x1
 6910 1279 51       		.byte	0x51
 6911 127a 22000000 		.4byte	.LVL364
 6912 127e 4A000000 		.4byte	.LVL370
 6913 1282 0100     		.2byte	0x1
 6914 1284 56       		.byte	0x56
 6915 1285 4A000000 		.4byte	.LVL370
 6916 1289 4C000000 		.4byte	.LVL371
 6917 128d 0100     		.2byte	0x1
 6918 128f 51       		.byte	0x51
 6919 1290 4C000000 		.4byte	.LVL371
 6920 1294 58000000 		.4byte	.LFE19
 6921 1298 0400     		.2byte	0x4
 6922 129a F3       		.byte	0xf3
 6923 129b 01       		.uleb128 0x1
 6924 129c 51       		.byte	0x51
 6925 129d 9F       		.byte	0x9f
 6926 129e 00000000 		.4byte	0
 6927 12a2 00000000 		.4byte	0
 6928              	.LLST94:
 6929 12a6 1E000000 		.4byte	.LVL362
 6930 12aa 20000000 		.4byte	.LVL363
 6931 12ae 0100     		.2byte	0x1
 6932 12b0 50       		.byte	0x50
 6933 12b1 28000000 		.4byte	.LVL366
 6934 12b5 2E000000 		.4byte	.LVL367
 6935 12b9 0100     		.2byte	0x1
 6936 12bb 50       		.byte	0x50
 6937 12bc 2E000000 		.4byte	.LVL367
 6938 12c0 42000000 		.4byte	.LVL369
 6939 12c4 0100     		.2byte	0x1
 6940 12c6 54       		.byte	0x54
 6941 12c7 42000000 		.4byte	.LVL369
 6942 12cb 4A000000 		.4byte	.LVL370
 6943 12cf 0100     		.2byte	0x1
 6944 12d1 50       		.byte	0x50
 6945 12d2 4C000000 		.4byte	.LVL371
 6946 12d6 50000000 		.4byte	.LVL372
 6947 12da 0100     		.2byte	0x1
 6948 12dc 54       		.byte	0x54
 6949 12dd 00000000 		.4byte	0
 6950 12e1 00000000 		.4byte	0
 6951              	.LLST95:
 6952 12e5 08000000 		.4byte	.LVL359
 6953 12e9 12000000 		.4byte	.LVL360
 6954 12ed 0100     		.2byte	0x1
ARM GAS  C:\Users\Petro\AppData\Local\Temp\cc5IgTu7.s 			page 145


 6955 12ef 53       		.byte	0x53
 6956 12f0 12000000 		.4byte	.LVL360
 6957 12f4 1B000000 		.4byte	.LVL361-1
 6958 12f8 0500     		.2byte	0x5
 6959 12fa 03       		.byte	0x3
 6960 12fb 00000000 		.4byte	FatFs
 6961 12ff 20000000 		.4byte	.LVL363
 6962 1303 25000000 		.4byte	.LVL365-1
 6963 1307 0500     		.2byte	0x5
 6964 1309 03       		.byte	0x3
 6965 130a 00000000 		.4byte	FatFs
 6966 130e 4A000000 		.4byte	.LVL370
 6967 1312 4C000000 		.4byte	.LVL371
 6968 1316 0100     		.2byte	0x1
 6969 1318 53       		.byte	0x53
 6970 1319 00000000 		.4byte	0
 6971 131d 00000000 		.4byte	0
 6972              		.section	.debug_aranges,"",%progbits
 6973 0000 B4000000 		.4byte	0xb4
 6974 0004 0200     		.2byte	0x2
 6975 0006 00000000 		.4byte	.Ldebug_info0
 6976 000a 04       		.byte	0x4
 6977 000b 00       		.byte	0
 6978 000c 0000     		.2byte	0
 6979 000e 0000     		.2byte	0
 6980 0010 00000000 		.4byte	.LFB0
 6981 0014 10000000 		.4byte	.LFE0-.LFB0
 6982 0018 00000000 		.4byte	.LFB1
 6983 001c 24000000 		.4byte	.LFE1-.LFB1
 6984 0020 00000000 		.4byte	.LFB3
 6985 0024 20000000 		.4byte	.LFE3-.LFB3
 6986 0028 00000000 		.4byte	.LFB4
 6987 002c 1C000000 		.4byte	.LFE4-.LFB4
 6988 0030 00000000 		.4byte	.LFB5
 6989 0034 48000000 		.4byte	.LFE5-.LFB5
 6990 0038 00000000 		.4byte	.LFB9
 6991 003c 5A000000 		.4byte	.LFE9-.LFB9
 6992 0040 00000000 		.4byte	.LFB10
 6993 0044 62000000 		.4byte	.LFE10-.LFB10
 6994 0048 00000000 		.4byte	.LFB12
 6995 004c 6C000000 		.4byte	.LFE12-.LFB12
 6996 0050 00000000 		.4byte	.LFB2
 6997 0054 E8000000 		.4byte	.LFE2-.LFB2
 6998 0058 00000000 		.4byte	.LFB6
 6999 005c 6C000000 		.4byte	.LFE6-.LFB6
 7000 0060 00000000 		.4byte	.LFB7
 7001 0064 56000000 		.4byte	.LFE7-.LFB7
 7002 0068 00000000 		.4byte	.LFB11
 7003 006c 6E000000 		.4byte	.LFE11-.LFB11
 7004 0070 00000000 		.4byte	.LFB8
 7005 0074 56000000 		.4byte	.LFE8-.LFB8
 7006 0078 00000000 		.4byte	.LFB13
 7007 007c 8C010000 		.4byte	.LFE13-.LFB13
 7008 0080 00000000 		.4byte	.LFB14
 7009 0084 5C000000 		.4byte	.LFE14-.LFB14
 7010 0088 00000000 		.4byte	.LFB15
 7011 008c D4000000 		.4byte	.LFE15-.LFB15
ARM GAS  C:\Users\Petro\AppData\Local\Temp\cc5IgTu7.s 			page 146


 7012 0090 00000000 		.4byte	.LFB16
 7013 0094 34010000 		.4byte	.LFE16-.LFB16
 7014 0098 00000000 		.4byte	.LFB17
 7015 009c B8000000 		.4byte	.LFE17-.LFB17
 7016 00a0 00000000 		.4byte	.LFB18
 7017 00a4 54000000 		.4byte	.LFE18-.LFB18
 7018 00a8 00000000 		.4byte	.LFB19
 7019 00ac 58000000 		.4byte	.LFE19-.LFB19
 7020 00b0 00000000 		.4byte	0
 7021 00b4 00000000 		.4byte	0
 7022              		.section	.debug_ranges,"",%progbits
 7023              	.Ldebug_ranges0:
 7024 0000 22000000 		.4byte	.LBB2
 7025 0004 44000000 		.4byte	.LBE2
 7026 0008 46000000 		.4byte	.LBB3
 7027 000c 80000000 		.4byte	.LBE3
 7028 0010 00000000 		.4byte	0
 7029 0014 00000000 		.4byte	0
 7030 0018 00000000 		.4byte	.LFB0
 7031 001c 10000000 		.4byte	.LFE0
 7032 0020 00000000 		.4byte	.LFB1
 7033 0024 24000000 		.4byte	.LFE1
 7034 0028 00000000 		.4byte	.LFB3
 7035 002c 20000000 		.4byte	.LFE3
 7036 0030 00000000 		.4byte	.LFB4
 7037 0034 1C000000 		.4byte	.LFE4
 7038 0038 00000000 		.4byte	.LFB5
 7039 003c 48000000 		.4byte	.LFE5
 7040 0040 00000000 		.4byte	.LFB9
 7041 0044 5A000000 		.4byte	.LFE9
 7042 0048 00000000 		.4byte	.LFB10
 7043 004c 62000000 		.4byte	.LFE10
 7044 0050 00000000 		.4byte	.LFB12
 7045 0054 6C000000 		.4byte	.LFE12
 7046 0058 00000000 		.4byte	.LFB2
 7047 005c E8000000 		.4byte	.LFE2
 7048 0060 00000000 		.4byte	.LFB6
 7049 0064 6C000000 		.4byte	.LFE6
 7050 0068 00000000 		.4byte	.LFB7
 7051 006c 56000000 		.4byte	.LFE7
 7052 0070 00000000 		.4byte	.LFB11
 7053 0074 6E000000 		.4byte	.LFE11
 7054 0078 00000000 		.4byte	.LFB8
 7055 007c 56000000 		.4byte	.LFE8
 7056 0080 00000000 		.4byte	.LFB13
 7057 0084 8C010000 		.4byte	.LFE13
 7058 0088 00000000 		.4byte	.LFB14
 7059 008c 5C000000 		.4byte	.LFE14
 7060 0090 00000000 		.4byte	.LFB15
 7061 0094 D4000000 		.4byte	.LFE15
 7062 0098 00000000 		.4byte	.LFB16
 7063 009c 34010000 		.4byte	.LFE16
 7064 00a0 00000000 		.4byte	.LFB17
 7065 00a4 B8000000 		.4byte	.LFE17
 7066 00a8 00000000 		.4byte	.LFB18
 7067 00ac 54000000 		.4byte	.LFE18
 7068 00b0 00000000 		.4byte	.LFB19
ARM GAS  C:\Users\Petro\AppData\Local\Temp\cc5IgTu7.s 			page 147


 7069 00b4 58000000 		.4byte	.LFE19
 7070 00b8 00000000 		.4byte	0
 7071 00bc 00000000 		.4byte	0
 7072              		.section	.debug_line,"",%progbits
 7073              	.Ldebug_line0:
 7074 0000 6A040000 		.section	.debug_str,"MS",%progbits,1
 7074      02004600 
 7074      00000201 
 7074      FB0E0D00 
 7074      01010101 
 7075              	.LASF24:
 7076 0000 46415446 		.ascii	"FATFS\000"
 7076      5300
 7077              	.LASF81:
 7078 0006 46617446 		.ascii	"FatFs\000"
 7078      7300
 7079              	.LASF42:
 7080 000c 46525F4E 		.ascii	"FR_NO_FILESYSTEM\000"
 7080      4F5F4649 
 7080      4C455359 
 7080      5354454D 
 7080      00
 7081              	.LASF46:
 7082 001d 5245535F 		.ascii	"RES_ERROR\000"
 7082      4552524F 
 7082      5200
 7083              	.LASF35:
 7084 0027 46494C49 		.ascii	"FILINFO\000"
 7084      4E464F00 
 7085              	.LASF15:
 7086 002f 6E5F6661 		.ascii	"n_fatent\000"
 7086      74656E74 
 7086      00
 7087              	.LASF74:
 7088 0038 72627566 		.ascii	"rbuff\000"
 7088      6600
 7089              	.LASF73:
 7090 003e 72636E74 		.ascii	"rcnt\000"
 7090      00
 7091              	.LASF45:
 7092 0043 5245535F 		.ascii	"RES_OK\000"
 7092      4F4B00
 7093              	.LASF1:
 7094 004a 73686F72 		.ascii	"short int\000"
 7094      7420696E 
 7094      7400
 7095              	.LASF69:
 7096 0054 70665F6F 		.ascii	"pf_open\000"
 7096      70656E00 
 7097              	.LASF40:
 7098 005c 46525F4E 		.ascii	"FR_NOT_OPENED\000"
 7098      4F545F4F 
 7098      50454E45 
 7098      4400
 7099              	.LASF23:
 7100 006a 64736563 		.ascii	"dsect\000"
 7100      7400
ARM GAS  C:\Users\Petro\AppData\Local\Temp\cc5IgTu7.s 			page 148


 7101              	.LASF68:
 7102 0070 70665F6D 		.ascii	"pf_mount\000"
 7102      6F756E74 
 7102      00
 7103              	.LASF71:
 7104 0079 62756666 		.ascii	"buff\000"
 7104      00
 7105              	.LASF18:
 7106 007e 64617461 		.ascii	"database\000"
 7106      62617365 
 7106      00
 7107              	.LASF2:
 7108 0087 42595445 		.ascii	"BYTE\000"
 7108      00
 7109              	.LASF28:
 7110 008c 73656374 		.ascii	"sect\000"
 7110      00
 7111              	.LASF14:
 7112 0091 6E5F726F 		.ascii	"n_rootdir\000"
 7112      6F746469 
 7112      7200
 7113              	.LASF30:
 7114 009b 6674696D 		.ascii	"ftime\000"
 7114      6500
 7115              	.LASF51:
 7116 00a1 636C7573 		.ascii	"clust2sect\000"
 7116      74327365 
 7116      637400
 7117              	.LASF3:
 7118 00ac 574F5244 		.ascii	"WORD\000"
 7118      00
 7119              	.LASF25:
 7120 00b1 696E6465 		.ascii	"index\000"
 7120      7800
 7121              	.LASF36:
 7122 00b7 46525F4F 		.ascii	"FR_OK\000"
 7122      4B00
 7123              	.LASF77:
 7124 00bd 70665F6C 		.ascii	"pf_lseek\000"
 7124      7365656B 
 7124      00
 7125              	.LASF56:
 7126 00c6 70617468 		.ascii	"path\000"
 7126      00
 7127              	.LASF37:
 7128 00cb 46525F44 		.ascii	"FR_DISK_ERR\000"
 7128      49534B5F 
 7128      45525200 
 7129              	.LASF79:
 7130 00d7 70665F6F 		.ascii	"pf_opendir\000"
 7130      70656E64 
 7130      697200
 7131              	.LASF21:
 7132 00e2 6F72675F 		.ascii	"org_clust\000"
 7132      636C7573 
 7132      7400
 7133              	.LASF75:
ARM GAS  C:\Users\Petro\AppData\Local\Temp\cc5IgTu7.s 			page 149


 7134 00ec 70665F77 		.ascii	"pf_write\000"
 7134      72697465 
 7134      00
 7135              	.LASF13:
 7136 00f5 70616431 		.ascii	"pad1\000"
 7136      00
 7137              	.LASF7:
 7138 00fa 6C6F6E67 		.ascii	"long int\000"
 7138      20696E74 
 7138      00
 7139              	.LASF27:
 7140 0103 636C7573 		.ascii	"clust\000"
 7140      7400
 7141              	.LASF12:
 7142 0109 6373697A 		.ascii	"csize\000"
 7142      6500
 7143              	.LASF33:
 7144 010f 73697A65 		.ascii	"sizetype\000"
 7144      74797065 
 7144      00
 7145              	.LASF86:
 7146 0118 6469736B 		.ascii	"disk_initialize\000"
 7146      5F696E69 
 7146      7469616C 
 7146      697A6500 
 7147              	.LASF5:
 7148 0128 55494E54 		.ascii	"UINT\000"
 7148      00
 7149              	.LASF65:
 7150 012d 62736563 		.ascii	"bsect\000"
 7150      7400
 7151              	.LASF20:
 7152 0133 6673697A 		.ascii	"fsize\000"
 7152      6500
 7153              	.LASF82:
 7154 0139 474E5520 		.ascii	"GNU C 4.9.3 20150303 (release) [ARM/embedded-4_9-br"
 7154      4320342E 
 7154      392E3320 
 7154      32303135 
 7154      30333033 
 7155 016c 616E6368 		.ascii	"anch revision 221220] -mcpu=cortex-m0 -mthumb -g -O"
 7155      20726576 
 7155      6973696F 
 7155      6E203232 
 7155      31323230 
 7156 019f 67202D66 		.ascii	"g -ffunction-sections -ffat-lto-objects\000"
 7156      66756E63 
 7156      74696F6E 
 7156      2D736563 
 7156      74696F6E 
 7157              	.LASF8:
 7158 01c7 44574F52 		.ascii	"DWORD\000"
 7158      4400
 7159              	.LASF54:
 7160 01cd 6469725F 		.ascii	"dir_rewind\000"
 7160      72657769 
 7160      6E6400
ARM GAS  C:\Users\Petro\AppData\Local\Temp\cc5IgTu7.s 			page 150


 7161              	.LASF61:
 7162 01d8 6469725F 		.ascii	"dir_next\000"
 7162      6E657874 
 7162      00
 7163              	.LASF0:
 7164 01e1 756E7369 		.ascii	"unsigned char\000"
 7164      676E6564 
 7164      20636861 
 7164      7200
 7165              	.LASF66:
 7166 01ef 74736563 		.ascii	"tsect\000"
 7166      7400
 7167              	.LASF55:
 7168 01f5 63726561 		.ascii	"create_name\000"
 7168      74655F6E 
 7168      616D6500 
 7169              	.LASF43:
 7170 0201 46524553 		.ascii	"FRESULT\000"
 7170      554C5400 
 7171              	.LASF6:
 7172 0209 756E7369 		.ascii	"unsigned int\000"
 7172      676E6564 
 7172      20696E74 
 7172      00
 7173              	.LASF60:
 7174 0216 6765745F 		.ascii	"get_fat\000"
 7174      66617400 
 7175              	.LASF39:
 7176 021e 46525F4E 		.ascii	"FR_NO_FILE\000"
 7176      4F5F4649 
 7176      4C4500
 7177              	.LASF19:
 7178 0229 66707472 		.ascii	"fptr\000"
 7178      00
 7179              	.LASF59:
 7180 022e 63686563 		.ascii	"check_fs\000"
 7180      6B5F6673 
 7180      00
 7181              	.LASF67:
 7182 0237 6D636C73 		.ascii	"mclst\000"
 7182      7400
 7183              	.LASF32:
 7184 023d 666E616D 		.ascii	"fname\000"
 7184      6500
 7185              	.LASF62:
 7186 0243 6469725F 		.ascii	"dir_find\000"
 7186      66696E64 
 7186      00
 7187              	.LASF41:
 7188 024c 46525F4E 		.ascii	"FR_NOT_ENABLED\000"
 7188      4F545F45 
 7188      4E41424C 
 7188      454400
 7189              	.LASF85:
 7190 025b 6469736B 		.ascii	"disk_readp\000"
 7190      5F726561 
 7190      647000
ARM GAS  C:\Users\Petro\AppData\Local\Temp\cc5IgTu7.s 			page 151


 7191              	.LASF4:
 7192 0266 73686F72 		.ascii	"short unsigned int\000"
 7192      7420756E 
 7192      7369676E 
 7192      65642069 
 7192      6E7400
 7193              	.LASF76:
 7194 0279 77636E74 		.ascii	"wcnt\000"
 7194      00
 7195              	.LASF72:
 7196 027e 72656D61 		.ascii	"remain\000"
 7196      696E00
 7197              	.LASF34:
 7198 0285 63686172 		.ascii	"char\000"
 7198      00
 7199              	.LASF16:
 7200 028a 66617462 		.ascii	"fatbase\000"
 7200      61736500 
 7201              	.LASF53:
 7202 0292 6765745F 		.ascii	"get_clust\000"
 7202      636C7573 
 7202      7400
 7203              	.LASF31:
 7204 029c 66617474 		.ascii	"fattrib\000"
 7204      72696200 
 7205              	.LASF47:
 7206 02a4 5245535F 		.ascii	"RES_NOTRDY\000"
 7206      4E4F5452 
 7206      445900
 7207              	.LASF64:
 7208 02af 6469725F 		.ascii	"dir_read\000"
 7208      72656164 
 7208      00
 7209              	.LASF84:
 7210 02b8 443A5C43 		.ascii	"D:\\Cypress\\system-start-finish\\vesion 2\\fw\\fin"
 7210      79707265 
 7210      73735C73 
 7210      79737465 
 7210      6D2D7374 
 7211 02e6 6973685C 		.ascii	"ish\\sandbox\\v2\\Workspace01\\sd.cydsn\000"
 7211      73616E64 
 7211      626F785C 
 7211      76325C57 
 7211      6F726B73 
 7212              	.LASF38:
 7213 030a 46525F4E 		.ascii	"FR_NOT_READY\000"
 7213      4F545F52 
 7213      45414459 
 7213      00
 7214              	.LASF10:
 7215 0317 66735F74 		.ascii	"fs_type\000"
 7215      79706500 
 7216              	.LASF9:
 7217 031f 6C6F6E67 		.ascii	"long unsigned int\000"
 7217      20756E73 
 7217      69676E65 
 7217      6420696E 
ARM GAS  C:\Users\Petro\AppData\Local\Temp\cc5IgTu7.s 			page 152


 7217      7400
 7218              	.LASF78:
 7219 0331 69667074 		.ascii	"ifptr\000"
 7219      7200
 7220              	.LASF63:
 7221 0337 666F6C6C 		.ascii	"follow_path\000"
 7221      6F775F70 
 7221      61746800 
 7222              	.LASF17:
 7223 0343 64697262 		.ascii	"dirbase\000"
 7223      61736500 
 7224              	.LASF58:
 7225 034b 6765745F 		.ascii	"get_fileinfo\000"
 7225      66696C65 
 7225      696E666F 
 7225      00
 7226              	.LASF49:
 7227 0358 44524553 		.ascii	"DRESULT\000"
 7227      554C5400 
 7228              	.LASF26:
 7229 0360 73636C75 		.ascii	"sclust\000"
 7229      737400
 7230              	.LASF29:
 7231 0367 66646174 		.ascii	"fdate\000"
 7231      6500
 7232              	.LASF50:
 7233 036d 6D656D5F 		.ascii	"mem_cmp\000"
 7233      636D7000 
 7234              	.LASF22:
 7235 0375 63757272 		.ascii	"curr_clust\000"
 7235      5F636C75 
 7235      737400
 7236              	.LASF11:
 7237 0380 666C6167 		.ascii	"flag\000"
 7237      00
 7238              	.LASF44:
 7239 0385 44535441 		.ascii	"DSTATUS\000"
 7239      54555300 
 7240              	.LASF57:
 7241 038d 6D656D5F 		.ascii	"mem_set\000"
 7241      73657400 
 7242              	.LASF83:
 7243 0395 2E5C7066 		.ascii	".\\pff.c\000"
 7243      662E6300 
 7244              	.LASF48:
 7245 039d 5245535F 		.ascii	"RES_PARERR\000"
 7245      50415245 
 7245      525200
 7246              	.LASF70:
 7247 03a8 70665F72 		.ascii	"pf_read\000"
 7247      65616400 
 7248              	.LASF87:
 7249 03b0 6469736B 		.ascii	"disk_writep\000"
 7249      5F777269 
 7249      74657000 
 7250              	.LASF80:
 7251 03bc 70665F72 		.ascii	"pf_readdir\000"
ARM GAS  C:\Users\Petro\AppData\Local\Temp\cc5IgTu7.s 			page 153


 7251      65616464 
 7251      697200
 7252              	.LASF52:
 7253 03c7 636C7374 		.ascii	"clst\000"
 7253      00
 7254              		.ident	"GCC: (GNU Tools for ARM Embedded Processors) 4.9.3 20150303 (release) [ARM/embedded-4_9-br
