ARM GAS  C:\Users\Petro\AppData\Local\Temp\cc5IgTu7.s 			page 1


   1              		.cpu cortex-m0
   2              		.fpu softvfp
   3              		.eabi_attribute 20, 1
   4              		.eabi_attribute 21, 1
   5              		.eabi_attribute 23, 3
   6              		.eabi_attribute 24, 1
   7              		.eabi_attribute 25, 1
   8              		.eabi_attribute 26, 1
   9              		.eabi_attribute 30, 1
  10              		.eabi_attribute 34, 0
  11              		.eabi_attribute 18, 4
  12              		.code	16
  13              		.file	"pff.c"
  14              		.text
  15              	.Ltext0:
  16              		.cfi_sections	.debug_frame
  17              		.section	.text.mem_set,"ax",%progbits
  18              		.align	2
  19              		.code	16
  20              		.thumb_func
  21              		.type	mem_set, %function
  22              	mem_set:
  23              	.LFB0:
  24              		.file 1 ".\\pff.c"
   1:.\pff.c       **** /*----------------------------------------------------------------------------/
   2:.\pff.c       **** /  Petit FatFs - FAT file system module  R0.03                (C)ChaN, 2014
   3:.\pff.c       **** /-----------------------------------------------------------------------------/
   4:.\pff.c       **** / Petit FatFs module is a generic FAT file system module for small embedded
   5:.\pff.c       **** / systems. This is a free software that opened for education, research and
   6:.\pff.c       **** / commercial developments under license policy of following trems.
   7:.\pff.c       **** /
   8:.\pff.c       **** /  Copyright (C) 2014, ChaN, all right reserved.
   9:.\pff.c       **** /
  10:.\pff.c       **** / * The Petit FatFs module is a free software and there is NO WARRANTY.
  11:.\pff.c       **** / * No restriction on use. You can use, modify and redistribute it for
  12:.\pff.c       **** /   personal, non-profit or commercial products UNDER YOUR RESPONSIBILITY.
  13:.\pff.c       **** / * Redistributions of source code must retain the above copyright notice.
  14:.\pff.c       **** /
  15:.\pff.c       **** /-----------------------------------------------------------------------------/
  16:.\pff.c       **** / Jun 15,'09  R0.01a  First release.
  17:.\pff.c       **** /
  18:.\pff.c       **** / Dec 14,'09  R0.02   Added multiple code page support.
  19:.\pff.c       **** /                     Added write funciton.
  20:.\pff.c       **** /                     Changed stream read mode interface.
  21:.\pff.c       **** / Dec 07,'10  R0.02a  Added some configuration options.
  22:.\pff.c       **** /                     Fixed fails to open objects with DBCS character.
  23:.\pff.c       **** 
  24:.\pff.c       **** / Jun 10,'14  R0.03   Separated out configuration options to pffconf.h.
  25:.\pff.c       **** /                     Added _USE_LCC option.
  26:.\pff.c       **** /                     Added _FS_FAT16 option.
  27:.\pff.c       **** /----------------------------------------------------------------------------*/
  28:.\pff.c       **** 
  29:.\pff.c       **** #include "pff.h"		/* Petit FatFs configurations and declarations */
  30:.\pff.c       **** #include "diskio.h"		/* Declarations of low level disk I/O functions */
  31:.\pff.c       **** 
  32:.\pff.c       **** 
  33:.\pff.c       **** 
ARM GAS  C:\Users\Petro\AppData\Local\Temp\cc5IgTu7.s 			page 2


  34:.\pff.c       **** /*--------------------------------------------------------------------------
  35:.\pff.c       **** 
  36:.\pff.c       ****    Module Private Definitions
  37:.\pff.c       **** 
  38:.\pff.c       **** ---------------------------------------------------------------------------*/
  39:.\pff.c       **** 
  40:.\pff.c       **** 
  41:.\pff.c       **** #if _PFATFS != 4004	/* Revision ID */
  42:.\pff.c       **** #error Wrong include file (pff.h).
  43:.\pff.c       **** #endif
  44:.\pff.c       **** 
  45:.\pff.c       **** #if _FS_FAT32
  46:.\pff.c       **** #if !_FS_FAT16 && !_FS_FAT12
  47:.\pff.c       **** #define _FS_32ONLY 1
  48:.\pff.c       **** #else
  49:.\pff.c       **** #define _FS_32ONLY 0
  50:.\pff.c       **** #endif
  51:.\pff.c       **** #else
  52:.\pff.c       **** #if !_FS_FAT16 && !_FS_FAT12
  53:.\pff.c       **** #error Wrong _FS_FATxx setting.
  54:.\pff.c       **** #endif
  55:.\pff.c       **** #define _FS_32ONLY 0
  56:.\pff.c       **** #endif
  57:.\pff.c       **** 
  58:.\pff.c       **** #define ABORT(err)	{fs->flag = 0; return err;}
  59:.\pff.c       **** 
  60:.\pff.c       **** 
  61:.\pff.c       **** 
  62:.\pff.c       **** /*--------------------------------------------------------*/
  63:.\pff.c       **** /* DBCS code ranges and SBCS extend char conversion table */
  64:.\pff.c       **** /*--------------------------------------------------------*/
  65:.\pff.c       **** 
  66:.\pff.c       **** #if _CODE_PAGE == 932	/* Japanese Shift-JIS */
  67:.\pff.c       **** #define _DF1S	0x81	/* DBC 1st byte range 1 start */
  68:.\pff.c       **** #define _DF1E	0x9F	/* DBC 1st byte range 1 end */
  69:.\pff.c       **** #define _DF2S	0xE0	/* DBC 1st byte range 2 start */
  70:.\pff.c       **** #define _DF2E	0xFC	/* DBC 1st byte range 2 end */
  71:.\pff.c       **** #define _DS1S	0x40	/* DBC 2nd byte range 1 start */
  72:.\pff.c       **** #define _DS1E	0x7E	/* DBC 2nd byte range 1 end */
  73:.\pff.c       **** #define _DS2S	0x80	/* DBC 2nd byte range 2 start */
  74:.\pff.c       **** #define _DS2E	0xFC	/* DBC 2nd byte range 2 end */
  75:.\pff.c       **** 
  76:.\pff.c       **** #elif _CODE_PAGE == 936	/* Simplified Chinese GBK */
  77:.\pff.c       **** #define _DF1S	0x81
  78:.\pff.c       **** #define _DF1E	0xFE
  79:.\pff.c       **** #define _DS1S	0x40
  80:.\pff.c       **** #define _DS1E	0x7E
  81:.\pff.c       **** #define _DS2S	0x80
  82:.\pff.c       **** #define _DS2E	0xFE
  83:.\pff.c       **** 
  84:.\pff.c       **** #elif _CODE_PAGE == 949	/* Korean */
  85:.\pff.c       **** #define _DF1S	0x81
  86:.\pff.c       **** #define _DF1E	0xFE
  87:.\pff.c       **** #define _DS1S	0x41
  88:.\pff.c       **** #define _DS1E	0x5A
  89:.\pff.c       **** #define _DS2S	0x61
  90:.\pff.c       **** #define _DS2E	0x7A
ARM GAS  C:\Users\Petro\AppData\Local\Temp\cc5IgTu7.s 			page 3


  91:.\pff.c       **** #define _DS3S	0x81
  92:.\pff.c       **** #define _DS3E	0xFE
  93:.\pff.c       **** 
  94:.\pff.c       **** #elif _CODE_PAGE == 950	/* Traditional Chinese Big5 */
  95:.\pff.c       **** #define _DF1S	0x81
  96:.\pff.c       **** #define _DF1E	0xFE
  97:.\pff.c       **** #define _DS1S	0x40
  98:.\pff.c       **** #define _DS1E	0x7E
  99:.\pff.c       **** #define _DS2S	0xA1
 100:.\pff.c       **** #define _DS2E	0xFE
 101:.\pff.c       **** 
 102:.\pff.c       **** #elif _CODE_PAGE == 437	/* U.S. (OEM) */
 103:.\pff.c       **** #define _EXCVT {0x80,0x9A,0x90,0x41,0x8E,0x41,0x8F,0x80,0x45,0x45,0x45,0x49,0x49,0x49,0x8E,0x8F,0x9
 104:.\pff.c       **** 				0x41,0x49,0x4F,0x55,0xA5,0xA5,0xA6,0xA7,0xA8,0xA9,0xAA,0xAB,0xAC,0x21,0xAE,0xAF,0xB0,0xB1,0xB2,
 105:.\pff.c       **** 				0xC0,0xC1,0xC2,0xC3,0xC4,0xC5,0xC6,0xC7,0xC8,0xC9,0xCA,0xCB,0xCC,0xCD,0xCE,0xCF,0xD0,0xD1,0xD2,
 106:.\pff.c       **** 				0xE0,0xE1,0xE2,0xE3,0xE4,0xE5,0xE6,0xE7,0xE8,0xE9,0xEA,0xEB,0xEC,0xED,0xEE,0xEF,0xF0,0xF1,0xF2,
 107:.\pff.c       **** 
 108:.\pff.c       **** #elif _CODE_PAGE == 720	/* Arabic (OEM) */
 109:.\pff.c       **** #define _EXCVT {0x80,0x81,0x45,0x41,0x84,0x41,0x86,0x43,0x45,0x45,0x45,0x49,0x49,0x8D,0x8E,0x8F,0x9
 110:.\pff.c       **** 				0xA0,0xA1,0xA2,0xA3,0xA4,0xA5,0xA6,0xA7,0xA8,0xA9,0xAA,0xAB,0xAC,0xAD,0xAE,0xAF,0xB0,0xB1,0xB2,
 111:.\pff.c       **** 				0xC0,0xC1,0xC2,0xC3,0xC4,0xC5,0xC6,0xC7,0xC8,0xC9,0xCA,0xCB,0xCC,0xCD,0xCE,0xCF,0xD0,0xD1,0xD2,
 112:.\pff.c       **** 				0xE0,0xE1,0xE2,0xE3,0xE4,0xE5,0xE6,0xE7,0xE8,0xE9,0xEA,0xEB,0xEC,0xED,0xEE,0xEF,0xF0,0xF1,0xF2,
 113:.\pff.c       **** 
 114:.\pff.c       **** #elif _CODE_PAGE == 737	/* Greek (OEM) */
 115:.\pff.c       **** #define _EXCVT {0x80,0x81,0x82,0x83,0x84,0x85,0x86,0x87,0x88,0x89,0x8A,0x8B,0x8C,0x8D,0x8E,0x8F,0x9
 116:.\pff.c       **** 				0x88,0x89,0x8A,0x8B,0x8C,0x8D,0x8E,0x8F,0x90,0x91,0xAA,0x92,0x93,0x94,0x95,0x96,0xB0,0xB1,0xB2,
 117:.\pff.c       **** 				0xC0,0xC1,0xC2,0xC3,0xC4,0xC5,0xC6,0xC7,0xC8,0xC9,0xCA,0xCB,0xCC,0xCD,0xCE,0xCF,0xD0,0xD1,0xD2,
 118:.\pff.c       **** 				0x97,0xEA,0xEB,0xEC,0xE4,0xED,0xEE,0xE7,0xE8,0xF1,0xEA,0xEB,0xEC,0xED,0xEE,0xEF,0xF0,0xF1,0xF2,
 119:.\pff.c       **** 
 120:.\pff.c       **** #elif _CODE_PAGE == 775	/* Baltic (OEM) */
 121:.\pff.c       **** #define _EXCVT {0x80,0x9A,0x91,0xA0,0x8E,0x95,0x8F,0x80,0xAD,0xED,0x8A,0x8A,0xA1,0x8D,0x8E,0x8F,0x9
 122:.\pff.c       **** 				0xA0,0xA1,0xE0,0xA3,0xA3,0xA5,0xA6,0xA7,0xA8,0xA9,0xAA,0xAB,0xAC,0xAD,0xAE,0xAF,0xB0,0xB1,0xB2,
 123:.\pff.c       **** 				0xC0,0xC1,0xC2,0xC3,0xC4,0xC5,0xC6,0xC7,0xC8,0xC9,0xCA,0xCB,0xCC,0xCD,0xCE,0xCF,0xB5,0xB6,0xB7,
 124:.\pff.c       **** 				0xE0,0xE1,0xE2,0xE3,0xE5,0xE5,0xE6,0xE3,0xE8,0xE8,0xEA,0xEA,0xEE,0xED,0xEE,0xEF,0xF0,0xF1,0xF2,
 125:.\pff.c       **** 
 126:.\pff.c       **** #elif _CODE_PAGE == 850	/* Multilingual Latin 1 (OEM) */
 127:.\pff.c       **** #define _EXCVT {0x80,0x9A,0x90,0xB6,0x8E,0xB7,0x8F,0x80,0xD2,0xD3,0xD4,0xD8,0xD7,0xDE,0x8E,0x8F,0x9
 128:.\pff.c       **** 				0xB5,0xD6,0xE0,0xE9,0xA5,0xA5,0xA6,0xA7,0xA8,0xA9,0xAA,0xAB,0xAC,0x21,0xAE,0xAF,0xB0,0xB1,0xB2,
 129:.\pff.c       **** 				0xC0,0xC1,0xC2,0xC3,0xC4,0xC5,0xC7,0xC7,0xC8,0xC9,0xCA,0xCB,0xCC,0xCD,0xCE,0xCF,0xD0,0xD1,0xD2,
 130:.\pff.c       **** 				0xE0,0xE1,0xE2,0xE3,0xE5,0xE5,0xE6,0xE7,0xE7,0xE9,0xEA,0xEB,0xED,0xED,0xEE,0xEF,0xF0,0xF1,0xF2,
 131:.\pff.c       **** 
 132:.\pff.c       **** #elif _CODE_PAGE == 852	/* Latin 2 (OEM) */
 133:.\pff.c       **** #define _EXCVT {0x80,0x9A,0x90,0xB6,0x8E,0xDE,0x8F,0x80,0x9D,0xD3,0x8A,0x8A,0xD7,0x8D,0x8E,0x8F,0x9
 134:.\pff.c       **** 				0xB5,0xD6,0xE0,0xE9,0xA4,0xA4,0xA6,0xA6,0xA8,0xA8,0xAA,0x8D,0xAC,0xB8,0xAE,0xAF,0xB0,0xB1,0xB2,
 135:.\pff.c       **** 				0xC0,0xC1,0xC2,0xC3,0xC4,0xC5,0xC6,0xC6,0xC8,0xC9,0xCA,0xCB,0xCC,0xCD,0xCE,0xCF,0xD1,0xD1,0xD2,
 136:.\pff.c       **** 				0xE0,0xE1,0xE2,0xE3,0xE3,0xD5,0xE6,0xE6,0xE8,0xE9,0xE8,0xEB,0xED,0xED,0xDD,0xEF,0xF0,0xF1,0xF2,
 137:.\pff.c       **** 
 138:.\pff.c       **** #elif _CODE_PAGE == 855	/* Cyrillic (OEM) */
 139:.\pff.c       **** #define _EXCVT {0x81,0x81,0x83,0x83,0x85,0x85,0x87,0x87,0x89,0x89,0x8B,0x8B,0x8D,0x8D,0x8F,0x8F,0x9
 140:.\pff.c       **** 				0xA1,0xA1,0xA3,0xA3,0xA5,0xA5,0xA7,0xA7,0xA9,0xA9,0xAB,0xAB,0xAD,0xAD,0xAE,0xAF,0xB0,0xB1,0xB2,
 141:.\pff.c       **** 				0xC0,0xC1,0xC2,0xC3,0xC4,0xC5,0xC7,0xC7,0xC8,0xC9,0xCA,0xCB,0xCC,0xCD,0xCE,0xCF,0xD1,0xD1,0xD3,
 142:.\pff.c       **** 				0xE0,0xE2,0xE2,0xE4,0xE4,0xE6,0xE6,0xE8,0xE8,0xEA,0xEA,0xEC,0xEC,0xEE,0xEE,0xEF,0xF0,0xF2,0xF2,
 143:.\pff.c       **** 
 144:.\pff.c       **** #elif _CODE_PAGE == 857	/* Turkish (OEM) */
 145:.\pff.c       **** #define _EXCVT {0x80,0x9A,0x90,0xB6,0x8E,0xB7,0x8F,0x80,0xD2,0xD3,0xD4,0xD8,0xD7,0x98,0x8E,0x8F,0x9
 146:.\pff.c       **** 				0xB5,0xD6,0xE0,0xE9,0xA5,0xA5,0xA6,0xA6,0xA8,0xA9,0xAA,0xAB,0xAC,0x21,0xAE,0xAF,0xB0,0xB1,0xB2,
 147:.\pff.c       **** 				0xC0,0xC1,0xC2,0xC3,0xC4,0xC5,0xC7,0xC7,0xC8,0xC9,0xCA,0xCB,0xCC,0xCD,0xCE,0xCF,0xD0,0xD1,0xD2,
ARM GAS  C:\Users\Petro\AppData\Local\Temp\cc5IgTu7.s 			page 4


 148:.\pff.c       **** 				0xE0,0xE1,0xE2,0xE3,0xE5,0xE5,0xE6,0xE7,0xE8,0xE9,0xEA,0xEB,0xDE,0x59,0xEE,0xEF,0xF0,0xF1,0xF2,
 149:.\pff.c       **** 
 150:.\pff.c       **** #elif _CODE_PAGE == 858	/* Multilingual Latin 1 + Euro (OEM) */
 151:.\pff.c       **** #define _EXCVT {0x80,0x9A,0x90,0xB6,0x8E,0xB7,0x8F,0x80,0xD2,0xD3,0xD4,0xD8,0xD7,0xDE,0x8E,0x8F,0x9
 152:.\pff.c       **** 				0xB5,0xD6,0xE0,0xE9,0xA5,0xA5,0xA6,0xA7,0xA8,0xA9,0xAA,0xAB,0xAC,0x21,0xAE,0xAF,0xB0,0xB1,0xB2,
 153:.\pff.c       **** 				0xC0,0xC1,0xC2,0xC3,0xC4,0xC5,0xC7,0xC7,0xC8,0xC9,0xCA,0xCB,0xCC,0xCD,0xCE,0xCF,0xD1,0xD1,0xD2,
 154:.\pff.c       **** 				0xE0,0xE1,0xE2,0xE3,0xE5,0xE5,0xE6,0xE7,0xE7,0xE9,0xEA,0xEB,0xED,0xED,0xEE,0xEF,0xF0,0xF1,0xF2,
 155:.\pff.c       **** 
 156:.\pff.c       **** #elif _CODE_PAGE == 862	/* Hebrew (OEM) */
 157:.\pff.c       **** #define _EXCVT {0x80,0x81,0x82,0x83,0x84,0x85,0x86,0x87,0x88,0x89,0x8A,0x8B,0x8C,0x8D,0x8E,0x8F,0x9
 158:.\pff.c       **** 				0x41,0x49,0x4F,0x55,0xA5,0xA5,0xA6,0xA7,0xA8,0xA9,0xAA,0xAB,0xAC,0x21,0xAE,0xAF,0xB0,0xB1,0xB2,
 159:.\pff.c       **** 				0xC0,0xC1,0xC2,0xC3,0xC4,0xC5,0xC6,0xC7,0xC8,0xC9,0xCA,0xCB,0xCC,0xCD,0xCE,0xCF,0xD0,0xD1,0xD2,
 160:.\pff.c       **** 				0xE0,0xE1,0xE2,0xE3,0xE4,0xE5,0xE6,0xE7,0xE8,0xE9,0xEA,0xEB,0xEC,0xED,0xEE,0xEF,0xF0,0xF1,0xF2,
 161:.\pff.c       **** 
 162:.\pff.c       **** #elif _CODE_PAGE == 866	/* Russian (OEM) */
 163:.\pff.c       **** #define _EXCVT {0x80,0x81,0x82,0x83,0x84,0x85,0x86,0x87,0x88,0x89,0x8A,0x8B,0x8C,0x8D,0x8E,0x8F,0x9
 164:.\pff.c       **** 				0x80,0x81,0x82,0x83,0x84,0x85,0x86,0x87,0x88,0x89,0x8A,0x8B,0x8C,0x8D,0x8E,0x8F,0xB0,0xB1,0xB2,
 165:.\pff.c       **** 				0xC0,0xC1,0xC2,0xC3,0xC4,0xC5,0xC6,0xC7,0xC8,0xC9,0xCA,0xCB,0xCC,0xCD,0xCE,0xCF,0xD0,0xD1,0xD2,
 166:.\pff.c       **** 				0x90,0x91,0x92,0x93,0x9d,0x95,0x96,0x97,0x98,0x99,0x9A,0x9B,0x9C,0x9D,0x9E,0x9F,0xF0,0xF0,0xF2,
 167:.\pff.c       **** 
 168:.\pff.c       **** #elif _CODE_PAGE == 874	/* Thai (OEM, Windows) */
 169:.\pff.c       **** #define _EXCVT {0x80,0x81,0x82,0x83,0x84,0x85,0x86,0x87,0x88,0x89,0x8A,0x8B,0x8C,0x8D,0x8E,0x8F,0x9
 170:.\pff.c       **** 				0xA0,0xA1,0xA2,0xA3,0xA4,0xA5,0xA6,0xA7,0xA8,0xA9,0xAA,0xAB,0xAC,0xAD,0xAE,0xAF,0xB0,0xB1,0xB2,
 171:.\pff.c       **** 				0xC0,0xC1,0xC2,0xC3,0xC4,0xC5,0xC6,0xC7,0xC8,0xC9,0xCA,0xCB,0xCC,0xCD,0xCE,0xCF,0xD0,0xD1,0xD2,
 172:.\pff.c       **** 				0xE0,0xE1,0xE2,0xE3,0xE4,0xE5,0xE6,0xE7,0xE8,0xE9,0xEA,0xEB,0xEC,0xED,0xEE,0xEF,0xF0,0xF1,0xF2,
 173:.\pff.c       **** 
 174:.\pff.c       **** #elif _CODE_PAGE == 1250 /* Central Europe (Windows) */
 175:.\pff.c       **** #define _EXCVT {0x80,0x81,0x82,0x83,0x84,0x85,0x86,0x87,0x88,0x89,0x8A,0x8B,0x8C,0x8D,0x8E,0x8F,0x9
 176:.\pff.c       **** 				0xA0,0xA1,0xA2,0xA3,0xA4,0xA5,0xA6,0xA7,0xA8,0xA9,0xAA,0xAB,0xAC,0xAD,0xAE,0xAF,0xB0,0xB1,0xB2,
 177:.\pff.c       **** 				0xC0,0xC1,0xC2,0xC3,0xC4,0xC5,0xC6,0xC7,0xC8,0xC9,0xCA,0xCB,0xCC,0xCD,0xCE,0xCF,0xD0,0xD1,0xD2,
 178:.\pff.c       **** 				0xC0,0xC1,0xC2,0xC3,0xC4,0xC5,0xC6,0xC7,0xC8,0xC9,0xCA,0xCB,0xCC,0xCD,0xCE,0xCF,0xD0,0xD1,0xD2,
 179:.\pff.c       **** 
 180:.\pff.c       **** #elif _CODE_PAGE == 1251 /* Cyrillic (Windows) */
 181:.\pff.c       **** #define _EXCVT {0x80,0x81,0x82,0x82,0x84,0x85,0x86,0x87,0x88,0x89,0x8A,0x8B,0x8C,0x8D,0x8E,0x8F,0x8
 182:.\pff.c       **** 				0xA0,0xA2,0xA2,0xA3,0xA4,0xA5,0xA6,0xA7,0xA8,0xA9,0xAA,0xAB,0xAC,0xAD,0xAE,0xAF,0xB0,0xB1,0xB2,
 183:.\pff.c       **** 				0xC0,0xC1,0xC2,0xC3,0xC4,0xC5,0xC6,0xC7,0xC8,0xC9,0xCA,0xCB,0xCC,0xCD,0xCE,0xCF,0xD0,0xD1,0xD2,
 184:.\pff.c       **** 				0xC0,0xC1,0xC2,0xC3,0xC4,0xC5,0xC6,0xC7,0xC8,0xC9,0xCA,0xCB,0xCC,0xCD,0xCE,0xCF,0xD0,0xD1,0xD2,
 185:.\pff.c       **** 
 186:.\pff.c       **** #elif _CODE_PAGE == 1252 /* Latin 1 (Windows) */
 187:.\pff.c       **** #define _EXCVT {0x80,0x81,0x82,0x83,0x84,0x85,0x86,0x87,0x88,0x89,0x8A,0x8B,0x8C,0x8D,0x8E,0x8F,0x9
 188:.\pff.c       **** 				0xA0,0x21,0xA2,0xA3,0xA4,0xA5,0xA6,0xA7,0xA8,0xA9,0xAA,0xAB,0xAC,0xAD,0xAE,0xAF,0xB0,0xB1,0xB2,
 189:.\pff.c       **** 				0xC0,0xC1,0xC2,0xC3,0xC4,0xC5,0xC6,0xC7,0xC8,0xC9,0xCA,0xCB,0xCC,0xCD,0xCE,0xCF,0xD0,0xD1,0xD2,
 190:.\pff.c       **** 				0xC0,0xC1,0xC2,0xC3,0xC4,0xC5,0xC6,0xC7,0xC8,0xC9,0xCA,0xCB,0xCC,0xCD,0xCE,0xCF,0xD0,0xD1,0xD2,
 191:.\pff.c       **** 
 192:.\pff.c       **** #elif _CODE_PAGE == 1253 /* Greek (Windows) */
 193:.\pff.c       **** #define _EXCVT {0x80,0x81,0x82,0x83,0x84,0x85,0x86,0x87,0x88,0x89,0x8A,0x8B,0x8C,0x8D,0x8E,0x8F,0x9
 194:.\pff.c       **** 				0xA0,0xA1,0xA2,0xA3,0xA4,0xA5,0xA6,0xA7,0xA8,0xA9,0xAA,0xAB,0xAC,0xAD,0xAE,0xAF,0xB0,0xB1,0xB2,
 195:.\pff.c       **** 				0xC0,0xC1,0xC2,0xC3,0xC4,0xC5,0xC6,0xC7,0xC8,0xC9,0xCA,0xCB,0xCC,0xCD,0xCE,0xCF,0xD0,0xD1,0xD2,
 196:.\pff.c       **** 				0xE0,0xC1,0xC2,0xC3,0xC4,0xC5,0xC6,0xC7,0xC8,0xC9,0xCA,0xCB,0xCC,0xCD,0xCE,0xCF,0xD0,0xD1,0xF2,
 197:.\pff.c       **** 
 198:.\pff.c       **** #elif _CODE_PAGE == 1254 /* Turkish (Windows) */
 199:.\pff.c       **** #define _EXCVT {0x80,0x81,0x82,0x83,0x84,0x85,0x86,0x87,0x88,0x89,0x8A,0x8B,0x8C,0x8D,0x8E,0x8F,0x9
 200:.\pff.c       **** 				0xA0,0x21,0xA2,0xA3,0xA4,0xA5,0xA6,0xA7,0xA8,0xA9,0xAA,0xAB,0xAC,0xAD,0xAE,0xAF,0xB0,0xB1,0xB2,
 201:.\pff.c       **** 				0xC0,0xC1,0xC2,0xC3,0xC4,0xC5,0xC6,0xC7,0xC8,0xC9,0xCA,0xCB,0xCC,0xCD,0xCE,0xCF,0xD0,0xD1,0xD2,
 202:.\pff.c       **** 				0xC0,0xC1,0xC2,0xC3,0xC4,0xC5,0xC6,0xC7,0xC8,0xC9,0xCA,0xCB,0xCC,0xCD,0xCE,0xCF,0xD0,0xD1,0xD2,
 203:.\pff.c       **** 
 204:.\pff.c       **** #elif _CODE_PAGE == 1255 /* Hebrew (Windows) */
ARM GAS  C:\Users\Petro\AppData\Local\Temp\cc5IgTu7.s 			page 5


 205:.\pff.c       **** #define _EXCVT {0x80,0x81,0x82,0x83,0x84,0x85,0x86,0x87,0x88,0x89,0x8A,0x8B,0x8C,0x8D,0x8E,0x8F,0x9
 206:.\pff.c       **** 				0xA0,0x21,0xA2,0xA3,0xA4,0xA5,0xA6,0xA7,0xA8,0xA9,0xAA,0xAB,0xAC,0xAD,0xAE,0xAF,0xB0,0xB1,0xB2,
 207:.\pff.c       **** 				0xC0,0xC1,0xC2,0xC3,0xC4,0xC5,0xC6,0xC7,0xC8,0xC9,0xCA,0xCB,0xCC,0xCD,0xCE,0xCF,0xD0,0xD1,0xD2,
 208:.\pff.c       **** 				0xE0,0xE1,0xE2,0xE3,0xE4,0xE5,0xE6,0xE7,0xE8,0xE9,0xEA,0xEB,0xEC,0xED,0xEE,0xEF,0xF0,0xF1,0xF2,
 209:.\pff.c       **** 
 210:.\pff.c       **** #elif _CODE_PAGE == 1256 /* Arabic (Windows) */
 211:.\pff.c       **** #define _EXCVT {0x80,0x81,0x82,0x83,0x84,0x85,0x86,0x87,0x88,0x89,0x8A,0x8B,0x8C,0x8D,0x8E,0x8F,0x9
 212:.\pff.c       **** 				0xA0,0xA1,0xA2,0xA3,0xA4,0xA5,0xA6,0xA7,0xA8,0xA9,0xAA,0xAB,0xAC,0xAD,0xAE,0xAF,0xB0,0xB1,0xB2,
 213:.\pff.c       **** 				0xC0,0xC1,0xC2,0xC3,0xC4,0xC5,0xC6,0xC7,0xC8,0xC9,0xCA,0xCB,0xCC,0xCD,0xCE,0xCF,0xD0,0xD1,0xD2,
 214:.\pff.c       **** 				0x41,0xE1,0x41,0xE3,0xE4,0xE5,0xE6,0x43,0x45,0x45,0x45,0x45,0xEC,0xED,0x49,0x49,0xF0,0xF1,0xF2,
 215:.\pff.c       **** 
 216:.\pff.c       **** #elif _CODE_PAGE == 1257 /* Baltic (Windows) */
 217:.\pff.c       **** #define _EXCVT {0x80,0x81,0x82,0x83,0x84,0x85,0x86,0x87,0x88,0x89,0x8A,0x8B,0x8C,0x8D,0x8E,0x8F,0x9
 218:.\pff.c       **** 				0xA0,0xA1,0xA2,0xA3,0xA4,0xA5,0xA6,0xA7,0xA8,0xA9,0xAA,0xAB,0xAC,0xAD,0xAE,0xAF,0xB0,0xB1,0xB2,
 219:.\pff.c       **** 				0xC0,0xC1,0xC2,0xC3,0xC4,0xC5,0xC6,0xC7,0xC8,0xC9,0xCA,0xCB,0xCC,0xCD,0xCE,0xCF,0xD0,0xD1,0xD2,
 220:.\pff.c       **** 				0xC0,0xC1,0xC2,0xC3,0xC4,0xC5,0xC6,0xC7,0xC8,0xC9,0xCA,0xCB,0xCC,0xCD,0xCE,0xCF,0xD0,0xD1,0xD2,
 221:.\pff.c       **** 
 222:.\pff.c       **** #elif _CODE_PAGE == 1258 /* Vietnam (OEM, Windows) */
 223:.\pff.c       **** #define _EXCVT {0x80,0x81,0x82,0x83,0x84,0x85,0x86,0x87,0x88,0x89,0x8A,0x8B,0x8C,0x8D,0x8E,0x8F,0x9
 224:.\pff.c       **** 				0xA0,0x21,0xA2,0xA3,0xA4,0xA5,0xA6,0xA7,0xA8,0xA9,0xAA,0xAB,0xAC,0xAD,0xAE,0xAF,0xB0,0xB1,0xB2,
 225:.\pff.c       **** 				0xC0,0xC1,0xC2,0xC3,0xC4,0xC5,0xC6,0xC7,0xC8,0xC9,0xCA,0xCB,0xCC,0xCD,0xCE,0xCF,0xD0,0xD1,0xD2,
 226:.\pff.c       **** 				0xC0,0xC1,0xC2,0xC3,0xC4,0xC5,0xC6,0xC7,0xC8,0xC9,0xCA,0xCB,0xEC,0xCD,0xCE,0xCF,0xD0,0xD1,0xF2,
 227:.\pff.c       **** 
 228:.\pff.c       **** #else
 229:.\pff.c       **** #error Unknown code page.
 230:.\pff.c       **** 
 231:.\pff.c       **** #endif
 232:.\pff.c       **** 
 233:.\pff.c       **** 
 234:.\pff.c       **** 
 235:.\pff.c       **** /* Character code support macros */
 236:.\pff.c       **** 
 237:.\pff.c       **** #define IsUpper(c)	(((c)>='A')&&((c)<='Z'))
 238:.\pff.c       **** #define IsLower(c)	(((c)>='a')&&((c)<='z'))
 239:.\pff.c       **** 
 240:.\pff.c       **** #ifndef _EXCVT	/* DBCS configuration */
 241:.\pff.c       **** 
 242:.\pff.c       **** #ifdef _DF2S	/* Two 1st byte areas */
 243:.\pff.c       **** #define IsDBCS1(c)	(((BYTE)(c) >= _DF1S && (BYTE)(c) <= _DF1E) || ((BYTE)(c) >= _DF2S && (BYTE)(c) 
 244:.\pff.c       **** #else			/* One 1st byte area */
 245:.\pff.c       **** #define IsDBCS1(c)	((BYTE)(c) >= _DF1S && (BYTE)(c) <= _DF1E)
 246:.\pff.c       **** #endif
 247:.\pff.c       **** 
 248:.\pff.c       **** #ifdef _DS3S	/* Three 2nd byte areas */
 249:.\pff.c       **** #define IsDBCS2(c)	(((BYTE)(c) >= _DS1S && (BYTE)(c) <= _DS1E) || ((BYTE)(c) >= _DS2S && (BYTE)(c) 
 250:.\pff.c       **** #else			/* Two 2nd byte areas */
 251:.\pff.c       **** #define IsDBCS2(c)	(((BYTE)(c) >= _DS1S && (BYTE)(c) <= _DS1E) || ((BYTE)(c) >= _DS2S && (BYTE)(c) 
 252:.\pff.c       **** #endif
 253:.\pff.c       **** 
 254:.\pff.c       **** #else			/* SBCS configuration */
 255:.\pff.c       **** 
 256:.\pff.c       **** #define IsDBCS1(c)	0
 257:.\pff.c       **** #define IsDBCS2(c)	0
 258:.\pff.c       **** 
 259:.\pff.c       **** #endif /* _EXCVT */
 260:.\pff.c       **** 
 261:.\pff.c       **** 
ARM GAS  C:\Users\Petro\AppData\Local\Temp\cc5IgTu7.s 			page 6


 262:.\pff.c       **** /* FatFs refers the members in the FAT structures with byte offset instead
 263:.\pff.c       **** / of structure member because there are incompatibility of the packing option
 264:.\pff.c       **** / between various compilers. */
 265:.\pff.c       **** 
 266:.\pff.c       **** #define BS_jmpBoot			0
 267:.\pff.c       **** #define BS_OEMName			3
 268:.\pff.c       **** #define BPB_BytsPerSec		11
 269:.\pff.c       **** #define BPB_SecPerClus		13
 270:.\pff.c       **** #define BPB_RsvdSecCnt		14
 271:.\pff.c       **** #define BPB_NumFATs			16
 272:.\pff.c       **** #define BPB_RootEntCnt		17
 273:.\pff.c       **** #define BPB_TotSec16		19
 274:.\pff.c       **** #define BPB_Media			21
 275:.\pff.c       **** #define BPB_FATSz16			22
 276:.\pff.c       **** #define BPB_SecPerTrk		24
 277:.\pff.c       **** #define BPB_NumHeads		26
 278:.\pff.c       **** #define BPB_HiddSec			28
 279:.\pff.c       **** #define BPB_TotSec32		32
 280:.\pff.c       **** #define BS_55AA				510
 281:.\pff.c       **** 
 282:.\pff.c       **** #define BS_DrvNum			36
 283:.\pff.c       **** #define BS_BootSig			38
 284:.\pff.c       **** #define BS_VolID			39
 285:.\pff.c       **** #define BS_VolLab			43
 286:.\pff.c       **** #define BS_FilSysType		54
 287:.\pff.c       **** 
 288:.\pff.c       **** #define BPB_FATSz32			36
 289:.\pff.c       **** #define BPB_ExtFlags		40
 290:.\pff.c       **** #define BPB_FSVer			42
 291:.\pff.c       **** #define BPB_RootClus		44
 292:.\pff.c       **** #define BPB_FSInfo			48
 293:.\pff.c       **** #define BPB_BkBootSec		50
 294:.\pff.c       **** #define BS_DrvNum32			64
 295:.\pff.c       **** #define BS_BootSig32		66
 296:.\pff.c       **** #define BS_VolID32			67
 297:.\pff.c       **** #define BS_VolLab32			71
 298:.\pff.c       **** #define BS_FilSysType32		82
 299:.\pff.c       **** 
 300:.\pff.c       **** #define MBR_Table			446
 301:.\pff.c       **** 
 302:.\pff.c       **** #define	DIR_Name			0
 303:.\pff.c       **** #define	DIR_Attr			11
 304:.\pff.c       **** #define	DIR_NTres			12
 305:.\pff.c       **** #define	DIR_CrtTime			14
 306:.\pff.c       **** #define	DIR_CrtDate			16
 307:.\pff.c       **** #define	DIR_FstClusHI		20
 308:.\pff.c       **** #define	DIR_WrtTime			22
 309:.\pff.c       **** #define	DIR_WrtDate			24
 310:.\pff.c       **** #define	DIR_FstClusLO		26
 311:.\pff.c       **** #define	DIR_FileSize		28
 312:.\pff.c       **** 
 313:.\pff.c       **** 
 314:.\pff.c       **** 
 315:.\pff.c       **** /*--------------------------------------------------------------------------
 316:.\pff.c       **** 
 317:.\pff.c       ****    Private Functions
 318:.\pff.c       **** 
ARM GAS  C:\Users\Petro\AppData\Local\Temp\cc5IgTu7.s 			page 7


 319:.\pff.c       **** ---------------------------------------------------------------------------*/
 320:.\pff.c       **** 
 321:.\pff.c       **** 
 322:.\pff.c       **** static
 323:.\pff.c       **** FATFS *FatFs;	/* Pointer to the file system object (logical drive) */
 324:.\pff.c       **** 
 325:.\pff.c       **** 
 326:.\pff.c       **** /* Fill memory */
 327:.\pff.c       **** static
 328:.\pff.c       **** void mem_set (void* dst, int val, int cnt) {
  25              		.loc 1 328 0
  26              		.cfi_startproc
  27              	.LVL0:
 329:.\pff.c       **** 	char *d = (char*)dst;
 330:.\pff.c       **** 	while (cnt--) *d++ = (char)val;
  28              		.loc 1 330 0
  29 0000 02E0     		b	.L2
  30              	.LVL1:
  31              	.L3:
  32              		.loc 1 330 0 is_stmt 0 discriminator 2
  33 0002 0170     		strb	r1, [r0]
  34 0004 1A1C     		mov	r2, r3
  35 0006 0130     		add	r0, r0, #1
  36              	.LVL2:
  37              	.L2:
  38              		.loc 1 330 0 discriminator 1
  39 0008 531E     		sub	r3, r2, #1
  40              	.LVL3:
  41 000a 002A     		cmp	r2, #0
  42 000c F9D1     		bne	.L3
 331:.\pff.c       **** }
  43              		.loc 1 331 0 is_stmt 1
  44              		@ sp needed
  45 000e 7047     		bx	lr
  46              		.cfi_endproc
  47              	.LFE0:
  48              		.size	mem_set, .-mem_set
  49              		.section	.text.mem_cmp,"ax",%progbits
  50              		.align	2
  51              		.code	16
  52              		.thumb_func
  53              		.type	mem_cmp, %function
  54              	mem_cmp:
  55              	.LFB1:
 332:.\pff.c       **** 
 333:.\pff.c       **** /* Compare memory to memory */
 334:.\pff.c       **** static
 335:.\pff.c       **** int mem_cmp (const void* dst, const void* src, int cnt) {
  56              		.loc 1 335 0
  57              		.cfi_startproc
  58              	.LVL4:
  59 0000 70B5     		push	{r4, r5, r6, lr}
  60              		.cfi_def_cfa_offset 16
  61              		.cfi_offset 4, -16
  62              		.cfi_offset 5, -12
  63              		.cfi_offset 6, -8
  64              		.cfi_offset 14, -4
ARM GAS  C:\Users\Petro\AppData\Local\Temp\cc5IgTu7.s 			page 8


  65 0002 031C     		mov	r3, r0
  66              	.LVL5:
 336:.\pff.c       **** 	const char *d = (const char *)dst, *s = (const char *)src;
 337:.\pff.c       **** 	int r = 0;
  67              		.loc 1 337 0
  68 0004 0020     		mov	r0, #0
  69              	.LVL6:
 338:.\pff.c       **** 	while (cnt-- && (r = *d++ - *s++) == 0) ;
  70              		.loc 1 338 0
  71 0006 01E0     		b	.L6
  72              	.LVL7:
  73              	.L7:
  74 0008 291C     		mov	r1, r5
  75 000a 331C     		mov	r3, r6
  76              	.LVL8:
  77              	.L6:
  78              		.loc 1 338 0 is_stmt 0 discriminator 2
  79 000c 541E     		sub	r4, r2, #1
  80              	.LVL9:
  81 000e 002A     		cmp	r2, #0
  82 0010 07D0     		beq	.L5
  83              		.loc 1 338 0 discriminator 1
  84 0012 5E1C     		add	r6, r3, #1
  85              	.LVL10:
  86 0014 1B78     		ldrb	r3, [r3]
  87 0016 4D1C     		add	r5, r1, #1
  88              	.LVL11:
  89 0018 0878     		ldrb	r0, [r1]
  90              	.LVL12:
  91 001a 181A     		sub	r0, r3, r0
  92              	.LVL13:
  93 001c 221C     		mov	r2, r4
  94 001e 0028     		cmp	r0, #0
  95 0020 F2D0     		beq	.L7
  96              	.LVL14:
  97              	.L5:
 339:.\pff.c       **** 	return r;
 340:.\pff.c       **** }
  98              		.loc 1 340 0 is_stmt 1
  99              		@ sp needed
 100              	.LVL15:
 101 0022 70BD     		pop	{r4, r5, r6, pc}
 102              		.cfi_endproc
 103              	.LFE1:
 104              		.size	mem_cmp, .-mem_cmp
 105              		.section	.text.clust2sect,"ax",%progbits
 106              		.align	2
 107              		.code	16
 108              		.thumb_func
 109              		.type	clust2sect, %function
 110              	clust2sect:
 111              	.LFB3:
 341:.\pff.c       **** 
 342:.\pff.c       **** 
 343:.\pff.c       **** 
 344:.\pff.c       **** /*-----------------------------------------------------------------------*/
 345:.\pff.c       **** /* FAT access - Read value of a FAT entry                                */
ARM GAS  C:\Users\Petro\AppData\Local\Temp\cc5IgTu7.s 			page 9


 346:.\pff.c       **** /*-----------------------------------------------------------------------*/
 347:.\pff.c       **** 
 348:.\pff.c       **** static
 349:.\pff.c       **** CLUST get_fat (	/* 1:IO error, Else:Cluster status */
 350:.\pff.c       **** 	CLUST clst	/* Cluster# to get the link information */
 351:.\pff.c       **** )
 352:.\pff.c       **** {
 353:.\pff.c       **** 	BYTE buf[4];
 354:.\pff.c       **** 	FATFS *fs = FatFs;
 355:.\pff.c       **** 
 356:.\pff.c       **** 	if (clst < 2 || clst >= fs->n_fatent)	/* Range check */
 357:.\pff.c       **** 		return 1;
 358:.\pff.c       **** 
 359:.\pff.c       **** 	switch (fs->fs_type) {
 360:.\pff.c       **** #if _FS_FAT12
 361:.\pff.c       **** 	case FS_FAT12 : {
 362:.\pff.c       **** 		UINT wc, bc, ofs;
 363:.\pff.c       **** 
 364:.\pff.c       **** 		bc = (UINT)clst; bc += bc / 2;
 365:.\pff.c       **** 		ofs = bc % 512; bc /= 512;
 366:.\pff.c       **** 		if (ofs != 511) {
 367:.\pff.c       **** 			if (disk_readp(buf, fs->fatbase + bc, ofs, 2)) break;
 368:.\pff.c       **** 		} else {
 369:.\pff.c       **** 			if (disk_readp(buf, fs->fatbase + bc, 511, 1)) break;
 370:.\pff.c       **** 			if (disk_readp(buf+1, fs->fatbase + bc + 1, 0, 1)) break;
 371:.\pff.c       **** 		}
 372:.\pff.c       **** 		wc = LD_WORD(buf);
 373:.\pff.c       **** 		return (clst & 1) ? (wc >> 4) : (wc & 0xFFF);
 374:.\pff.c       **** 	}
 375:.\pff.c       **** #endif
 376:.\pff.c       **** #if _FS_FAT16
 377:.\pff.c       **** 	case FS_FAT16 :
 378:.\pff.c       **** 		if (disk_readp(buf, fs->fatbase + clst / 256, ((UINT)clst % 256) * 2, 2)) break;
 379:.\pff.c       **** 		return LD_WORD(buf);
 380:.\pff.c       **** #endif
 381:.\pff.c       **** #if _FS_FAT32
 382:.\pff.c       **** 	case FS_FAT32 :
 383:.\pff.c       **** 		if (disk_readp(buf, fs->fatbase + clst / 128, ((UINT)clst % 128) * 4, 4)) break;
 384:.\pff.c       **** 		return LD_DWORD(buf) & 0x0FFFFFFF;
 385:.\pff.c       **** #endif
 386:.\pff.c       **** 	}
 387:.\pff.c       **** 
 388:.\pff.c       **** 	return 1;	/* An error occured at the disk I/O layer */
 389:.\pff.c       **** }
 390:.\pff.c       **** 
 391:.\pff.c       **** 
 392:.\pff.c       **** 
 393:.\pff.c       **** 
 394:.\pff.c       **** /*-----------------------------------------------------------------------*/
 395:.\pff.c       **** /* Get sector# from cluster# / Get cluster field from directory entry    */
 396:.\pff.c       **** /*-----------------------------------------------------------------------*/
 397:.\pff.c       **** 
 398:.\pff.c       **** static
 399:.\pff.c       **** DWORD clust2sect (	/* !=0: Sector number, 0: Failed - invalid cluster# */
 400:.\pff.c       **** 	CLUST clst		/* Cluster# to be converted */
 401:.\pff.c       **** )
 402:.\pff.c       **** {
ARM GAS  C:\Users\Petro\AppData\Local\Temp\cc5IgTu7.s 			page 10


 112              		.loc 1 402 0
 113              		.cfi_startproc
 114              	.LVL16:
 403:.\pff.c       **** 	FATFS *fs = FatFs;
 115              		.loc 1 403 0
 116 0000 064B     		ldr	r3, .L11
 117 0002 1A68     		ldr	r2, [r3]
 118              	.LVL17:
 404:.\pff.c       **** 
 405:.\pff.c       **** 
 406:.\pff.c       **** 	clst -= 2;
 119              		.loc 1 406 0
 120 0004 0238     		sub	r0, r0, #2
 121              	.LVL18:
 407:.\pff.c       **** 	if (clst >= (fs->n_fatent - 2)) return 0;		/* Invalid cluster# */
 122              		.loc 1 407 0
 123 0006 9368     		ldr	r3, [r2, #8]
 124 0008 023B     		sub	r3, r3, #2
 125 000a 8342     		cmp	r3, r0
 126 000c 04D9     		bls	.L10
 408:.\pff.c       **** 	return (DWORD)clst * fs->csize + fs->database;
 127              		.loc 1 408 0
 128 000e 9378     		ldrb	r3, [r2, #2]
 129 0010 5843     		mul	r0, r3
 130              	.LVL19:
 131 0012 5369     		ldr	r3, [r2, #20]
 132 0014 C018     		add	r0, r0, r3
 133 0016 00E0     		b	.L9
 134              	.LVL20:
 135              	.L10:
 407:.\pff.c       **** 	if (clst >= (fs->n_fatent - 2)) return 0;		/* Invalid cluster# */
 136              		.loc 1 407 0
 137 0018 0020     		mov	r0, #0
 138              	.LVL21:
 139              	.L9:
 409:.\pff.c       **** }
 140              		.loc 1 409 0
 141              		@ sp needed
 142 001a 7047     		bx	lr
 143              	.L12:
 144              		.align	2
 145              	.L11:
 146 001c 00000000 		.word	.LANCHOR0
 147              		.cfi_endproc
 148              	.LFE3:
 149              		.size	clust2sect, .-clust2sect
 150              		.section	.text.get_clust,"ax",%progbits
 151              		.align	2
 152              		.code	16
 153              		.thumb_func
 154              		.type	get_clust, %function
 155              	get_clust:
 156              	.LFB4:
 410:.\pff.c       **** 
 411:.\pff.c       **** 
 412:.\pff.c       **** static
 413:.\pff.c       **** CLUST get_clust (
ARM GAS  C:\Users\Petro\AppData\Local\Temp\cc5IgTu7.s 			page 11


 414:.\pff.c       **** 	BYTE* dir		/* Pointer to directory entry */
 415:.\pff.c       **** )
 416:.\pff.c       **** {
 157              		.loc 1 416 0
 158              		.cfi_startproc
 159              	.LVL22:
 417:.\pff.c       **** 	FATFS *fs = FatFs;
 160              		.loc 1 417 0
 161 0000 054B     		ldr	r3, .L16
 162 0002 1B68     		ldr	r3, [r3]
 163              	.LVL23:
 418:.\pff.c       **** 	CLUST clst = 0;
 419:.\pff.c       **** 
 420:.\pff.c       **** 
 421:.\pff.c       **** 	if (_FS_32ONLY || (_FS_FAT32 && fs->fs_type == FS_FAT32)) {
 164              		.loc 1 421 0
 165 0004 1B78     		ldrb	r3, [r3]
 166              	.LVL24:
 167 0006 032B     		cmp	r3, #3
 168 0008 02D1     		bne	.L15
 422:.\pff.c       **** 		clst = LD_WORD(dir+DIR_FstClusHI);
 169              		.loc 1 422 0
 170 000a 838A     		ldrh	r3, [r0, #20]
 171              	.LVL25:
 423:.\pff.c       **** 		clst <<= 16;
 172              		.loc 1 423 0
 173 000c 1B04     		lsl	r3, r3, #16
 174              	.LVL26:
 175 000e 00E0     		b	.L14
 176              	.LVL27:
 177              	.L15:
 418:.\pff.c       **** 	CLUST clst = 0;
 178              		.loc 1 418 0
 179 0010 0023     		mov	r3, #0
 180              	.LVL28:
 181              	.L14:
 424:.\pff.c       **** 	}
 425:.\pff.c       **** 	clst |= LD_WORD(dir+DIR_FstClusLO);
 182              		.loc 1 425 0
 183 0012 408B     		ldrh	r0, [r0, #26]
 184              	.LVL29:
 185 0014 1843     		orr	r0, r3
 186              	.LVL30:
 426:.\pff.c       **** 
 427:.\pff.c       **** 	return clst;
 428:.\pff.c       **** }
 187              		.loc 1 428 0
 188              		@ sp needed
 189 0016 7047     		bx	lr
 190              	.L17:
 191              		.align	2
 192              	.L16:
 193 0018 00000000 		.word	.LANCHOR0
 194              		.cfi_endproc
 195              	.LFE4:
 196              		.size	get_clust, .-get_clust
 197              		.section	.text.dir_rewind,"ax",%progbits
ARM GAS  C:\Users\Petro\AppData\Local\Temp\cc5IgTu7.s 			page 12


 198              		.align	2
 199              		.code	16
 200              		.thumb_func
 201              		.type	dir_rewind, %function
 202              	dir_rewind:
 203              	.LFB5:
 429:.\pff.c       **** 
 430:.\pff.c       **** 
 431:.\pff.c       **** /*-----------------------------------------------------------------------*/
 432:.\pff.c       **** /* Directory handling - Rewind directory index                           */
 433:.\pff.c       **** /*-----------------------------------------------------------------------*/
 434:.\pff.c       **** 
 435:.\pff.c       **** static
 436:.\pff.c       **** FRESULT dir_rewind (
 437:.\pff.c       **** 	DIR *dj			/* Pointer to directory object */
 438:.\pff.c       **** )
 439:.\pff.c       **** {
 204              		.loc 1 439 0
 205              		.cfi_startproc
 206              	.LVL31:
 207 0000 10B5     		push	{r4, lr}
 208              		.cfi_def_cfa_offset 8
 209              		.cfi_offset 4, -8
 210              		.cfi_offset 14, -4
 440:.\pff.c       **** 	CLUST clst;
 441:.\pff.c       **** 	FATFS *fs = FatFs;
 211              		.loc 1 441 0
 212 0002 104B     		ldr	r3, .L25
 213 0004 1A68     		ldr	r2, [r3]
 214              	.LVL32:
 442:.\pff.c       **** 
 443:.\pff.c       **** 
 444:.\pff.c       **** 	dj->index = 0;
 215              		.loc 1 444 0
 216 0006 0023     		mov	r3, #0
 217 0008 0380     		strh	r3, [r0]
 445:.\pff.c       **** 	clst = dj->sclust;
 218              		.loc 1 445 0
 219 000a 8368     		ldr	r3, [r0, #8]
 220              	.LVL33:
 446:.\pff.c       **** 	if (clst == 1 || clst >= fs->n_fatent)	/* Check start cluster range */
 221              		.loc 1 446 0
 222 000c 012B     		cmp	r3, #1
 223 000e 14D0     		beq	.L23
 224              		.loc 1 446 0 is_stmt 0 discriminator 1
 225 0010 9168     		ldr	r1, [r2, #8]
 226 0012 9942     		cmp	r1, r3
 227 0014 13D9     		bls	.L24
 447:.\pff.c       **** 		return FR_DISK_ERR;
 448:.\pff.c       **** 	if (_FS_FAT32 && !clst && (_FS_32ONLY || fs->fs_type == FS_FAT32))	/* Replace cluster# 0 with root
 228              		.loc 1 448 0 is_stmt 1
 229 0016 002B     		cmp	r3, #0
 230 0018 03D1     		bne	.L20
 231              		.loc 1 448 0 is_stmt 0 discriminator 1
 232 001a 1178     		ldrb	r1, [r2]
 233 001c 0329     		cmp	r1, #3
 234 001e 00D1     		bne	.L20
ARM GAS  C:\Users\Petro\AppData\Local\Temp\cc5IgTu7.s 			page 13


 449:.\pff.c       **** 		clst = (CLUST)fs->dirbase;
 235              		.loc 1 449 0 is_stmt 1
 236 0020 1369     		ldr	r3, [r2, #16]
 237              	.LVL34:
 238              	.L20:
 239 0022 041C     		mov	r4, r0
 450:.\pff.c       **** 	dj->clust = clst;						/* Current cluster */
 240              		.loc 1 450 0
 241 0024 C360     		str	r3, [r0, #12]
 451:.\pff.c       **** 	dj->sect = (_FS_32ONLY || clst) ? clust2sect(clst) : fs->dirbase;	/* Current sector */
 242              		.loc 1 451 0
 243 0026 002B     		cmp	r3, #0
 244 0028 03D0     		beq	.L21
 245              		.loc 1 451 0 is_stmt 0 discriminator 1
 246 002a 181C     		mov	r0, r3
 247              	.LVL35:
 248 002c FFF7FEFF 		bl	clust2sect
 249              	.LVL36:
 250 0030 00E0     		b	.L22
 251              	.LVL37:
 252              	.L21:
 253              		.loc 1 451 0 discriminator 2
 254 0032 1069     		ldr	r0, [r2, #16]
 255              	.LVL38:
 256              	.L22:
 257              		.loc 1 451 0 discriminator 4
 258 0034 2061     		str	r0, [r4, #16]
 452:.\pff.c       **** 
 453:.\pff.c       **** 	return FR_OK;	/* Seek succeeded */
 259              		.loc 1 453 0 is_stmt 1 discriminator 4
 260 0036 0020     		mov	r0, #0
 261 0038 02E0     		b	.L19
 262              	.LVL39:
 263              	.L23:
 447:.\pff.c       **** 	if (_FS_FAT32 && !clst && (_FS_32ONLY || fs->fs_type == FS_FAT32))	/* Replace cluster# 0 with root
 264              		.loc 1 447 0
 265 003a 0120     		mov	r0, #1
 266              	.LVL40:
 267 003c 00E0     		b	.L19
 268              	.LVL41:
 269              	.L24:
 270 003e 0120     		mov	r0, #1
 271              	.LVL42:
 272              	.L19:
 454:.\pff.c       **** }
 273              		.loc 1 454 0
 274              		@ sp needed
 275 0040 10BD     		pop	{r4, pc}
 276              	.L26:
 277 0042 C046     		.align	2
 278              	.L25:
 279 0044 00000000 		.word	.LANCHOR0
 280              		.cfi_endproc
 281              	.LFE5:
 282              		.size	dir_rewind, .-dir_rewind
 283              		.section	.text.create_name,"ax",%progbits
 284              		.align	2
ARM GAS  C:\Users\Petro\AppData\Local\Temp\cc5IgTu7.s 			page 14


 285              		.code	16
 286              		.thumb_func
 287              		.type	create_name, %function
 288              	create_name:
 289              	.LFB9:
 455:.\pff.c       **** 
 456:.\pff.c       **** 
 457:.\pff.c       **** 
 458:.\pff.c       **** 
 459:.\pff.c       **** /*-----------------------------------------------------------------------*/
 460:.\pff.c       **** /* Directory handling - Move directory index next                        */
 461:.\pff.c       **** /*-----------------------------------------------------------------------*/
 462:.\pff.c       **** 
 463:.\pff.c       **** static
 464:.\pff.c       **** FRESULT dir_next (	/* FR_OK:Succeeded, FR_NO_FILE:End of table */
 465:.\pff.c       **** 	DIR *dj			/* Pointer to directory object */
 466:.\pff.c       **** )
 467:.\pff.c       **** {
 468:.\pff.c       **** 	CLUST clst;
 469:.\pff.c       **** 	WORD i;
 470:.\pff.c       **** 	FATFS *fs = FatFs;
 471:.\pff.c       **** 
 472:.\pff.c       **** 
 473:.\pff.c       **** 	i = dj->index + 1;
 474:.\pff.c       **** 	if (!i || !dj->sect)	/* Report EOT when index has reached 65535 */
 475:.\pff.c       **** 		return FR_NO_FILE;
 476:.\pff.c       **** 
 477:.\pff.c       **** 	if (!(i % 16)) {		/* Sector changed? */
 478:.\pff.c       **** 		dj->sect++;			/* Next sector */
 479:.\pff.c       **** 
 480:.\pff.c       **** 		if (dj->clust == 0) {	/* Static table */
 481:.\pff.c       **** 			if (i >= fs->n_rootdir)	/* Report EOT when end of table */
 482:.\pff.c       **** 				return FR_NO_FILE;
 483:.\pff.c       **** 		}
 484:.\pff.c       **** 		else {					/* Dynamic table */
 485:.\pff.c       **** 			if (((i / 16) & (fs->csize - 1)) == 0) {	/* Cluster changed? */
 486:.\pff.c       **** 				clst = get_fat(dj->clust);		/* Get next cluster */
 487:.\pff.c       **** 				if (clst <= 1) return FR_DISK_ERR;
 488:.\pff.c       **** 				if (clst >= fs->n_fatent)		/* When it reached end of dynamic table */
 489:.\pff.c       **** 					return FR_NO_FILE;			/* Report EOT */
 490:.\pff.c       **** 				dj->clust = clst;				/* Initialize data for new cluster */
 491:.\pff.c       **** 				dj->sect = clust2sect(clst);
 492:.\pff.c       **** 			}
 493:.\pff.c       **** 		}
 494:.\pff.c       **** 	}
 495:.\pff.c       **** 
 496:.\pff.c       **** 	dj->index = i;
 497:.\pff.c       **** 
 498:.\pff.c       **** 	return FR_OK;
 499:.\pff.c       **** }
 500:.\pff.c       **** 
 501:.\pff.c       **** 
 502:.\pff.c       **** 
 503:.\pff.c       **** 
 504:.\pff.c       **** /*-----------------------------------------------------------------------*/
 505:.\pff.c       **** /* Directory handling - Find an object in the directory                  */
 506:.\pff.c       **** /*-----------------------------------------------------------------------*/
ARM GAS  C:\Users\Petro\AppData\Local\Temp\cc5IgTu7.s 			page 15


 507:.\pff.c       **** 
 508:.\pff.c       **** static
 509:.\pff.c       **** FRESULT dir_find (
 510:.\pff.c       **** 	DIR *dj,		/* Pointer to the directory object linked to the file name */
 511:.\pff.c       **** 	BYTE *dir		/* 32-byte working buffer */
 512:.\pff.c       **** )
 513:.\pff.c       **** {
 514:.\pff.c       **** 	FRESULT res;
 515:.\pff.c       **** 	BYTE c;
 516:.\pff.c       **** 
 517:.\pff.c       **** 
 518:.\pff.c       **** 	res = dir_rewind(dj);			/* Rewind directory object */
 519:.\pff.c       **** 	if (res != FR_OK) return res;
 520:.\pff.c       **** 
 521:.\pff.c       **** 	do {
 522:.\pff.c       **** 		res = disk_readp(dir, dj->sect, (dj->index % 16) * 32, 32)	/* Read an entry */
 523:.\pff.c       **** 			? FR_DISK_ERR : FR_OK;
 524:.\pff.c       **** 		if (res != FR_OK) break;
 525:.\pff.c       **** 		c = dir[DIR_Name];	/* First character */
 526:.\pff.c       **** 		if (c == 0) { res = FR_NO_FILE; break; }	/* Reached to end of table */
 527:.\pff.c       **** 		if (!(dir[DIR_Attr] & AM_VOL) && !mem_cmp(dir, dj->fn, 11)) /* Is it a valid entry? */
 528:.\pff.c       **** 			break;
 529:.\pff.c       **** 		res = dir_next(dj);					/* Next entry */
 530:.\pff.c       **** 	} while (res == FR_OK);
 531:.\pff.c       **** 
 532:.\pff.c       **** 	return res;
 533:.\pff.c       **** }
 534:.\pff.c       **** 
 535:.\pff.c       **** 
 536:.\pff.c       **** 
 537:.\pff.c       **** 
 538:.\pff.c       **** /*-----------------------------------------------------------------------*/
 539:.\pff.c       **** /* Read an object from the directory                                     */
 540:.\pff.c       **** /*-----------------------------------------------------------------------*/
 541:.\pff.c       **** #if _USE_DIR
 542:.\pff.c       **** static
 543:.\pff.c       **** FRESULT dir_read (
 544:.\pff.c       **** 	DIR *dj,		/* Pointer to the directory object to store read object name */
 545:.\pff.c       **** 	BYTE *dir		/* 32-byte working buffer */
 546:.\pff.c       **** )
 547:.\pff.c       **** {
 548:.\pff.c       **** 	FRESULT res;
 549:.\pff.c       **** 	BYTE a, c;
 550:.\pff.c       **** 
 551:.\pff.c       **** 
 552:.\pff.c       **** 	res = FR_NO_FILE;
 553:.\pff.c       **** 	while (dj->sect) {
 554:.\pff.c       **** 		res = disk_readp(dir, dj->sect, (dj->index % 16) * 32, 32)	/* Read an entry */
 555:.\pff.c       **** 			? FR_DISK_ERR : FR_OK;
 556:.\pff.c       **** 		if (res != FR_OK) break;
 557:.\pff.c       **** 		c = dir[DIR_Name];
 558:.\pff.c       **** 		if (c == 0) { res = FR_NO_FILE; break; }	/* Reached to end of table */
 559:.\pff.c       **** 		a = dir[DIR_Attr] & AM_MASK;
 560:.\pff.c       **** 		if (c != 0xE5 && c != '.' && !(a & AM_VOL))	/* Is it a valid entry? */
 561:.\pff.c       **** 			break;
 562:.\pff.c       **** 		res = dir_next(dj);			/* Next entry */
 563:.\pff.c       **** 		if (res != FR_OK) break;
ARM GAS  C:\Users\Petro\AppData\Local\Temp\cc5IgTu7.s 			page 16


 564:.\pff.c       **** 	}
 565:.\pff.c       **** 
 566:.\pff.c       **** 	if (res != FR_OK) dj->sect = 0;
 567:.\pff.c       **** 
 568:.\pff.c       **** 	return res;
 569:.\pff.c       **** }
 570:.\pff.c       **** #endif
 571:.\pff.c       **** 
 572:.\pff.c       **** 
 573:.\pff.c       **** 
 574:.\pff.c       **** /*-----------------------------------------------------------------------*/
 575:.\pff.c       **** /* Pick a segment and create the object name in directory form           */
 576:.\pff.c       **** /*-----------------------------------------------------------------------*/
 577:.\pff.c       **** 
 578:.\pff.c       **** 
 579:.\pff.c       **** static
 580:.\pff.c       **** FRESULT create_name (
 581:.\pff.c       **** 	DIR *dj,			/* Pointer to the directory object */
 582:.\pff.c       **** 	const char **path	/* Pointer to pointer to the segment in the path string */
 583:.\pff.c       **** )
 584:.\pff.c       **** {
 290              		.loc 1 584 0
 291              		.cfi_startproc
 292              	.LVL43:
 293 0000 F8B5     		push	{r3, r4, r5, r6, r7, lr}
 294              		.cfi_def_cfa_offset 24
 295              		.cfi_offset 3, -24
 296              		.cfi_offset 4, -20
 297              		.cfi_offset 5, -16
 298              		.cfi_offset 6, -12
 299              		.cfi_offset 7, -8
 300              		.cfi_offset 14, -4
 301 0002 0D1C     		mov	r5, r1
 585:.\pff.c       **** 	BYTE c, ni, si, i, *sfn;
 586:.\pff.c       **** 	const char *p;
 587:.\pff.c       **** #if _USE_LCC
 588:.\pff.c       **** #ifdef _EXCVT
 589:.\pff.c       **** 	static const BYTE cvt[] = _EXCVT;
 590:.\pff.c       **** #endif
 591:.\pff.c       **** #endif
 592:.\pff.c       **** 
 593:.\pff.c       **** 	/* Create file name in directory form */
 594:.\pff.c       **** 	sfn = dj->fn;
 302              		.loc 1 594 0
 303 0004 4468     		ldr	r4, [r0, #4]
 304              	.LVL44:
 595:.\pff.c       **** 	mem_set(sfn, ' ', 11);
 305              		.loc 1 595 0
 306 0006 201C     		mov	r0, r4
 307              	.LVL45:
 308 0008 2021     		mov	r1, #32
 309              	.LVL46:
 310 000a 0B22     		mov	r2, #11
 311 000c FFF7FEFF 		bl	mem_set
 312              	.LVL47:
 596:.\pff.c       **** 	si = i = 0; ni = 8;
 597:.\pff.c       **** 	p = *path;
ARM GAS  C:\Users\Petro\AppData\Local\Temp\cc5IgTu7.s 			page 17


 313              		.loc 1 597 0
 314 0010 2F68     		ldr	r7, [r5]
 315              	.LVL48:
 596:.\pff.c       **** 	si = i = 0; ni = 8;
 316              		.loc 1 596 0
 317 0012 0020     		mov	r0, #0
 318 0014 0021     		mov	r1, #0
 319 0016 0826     		mov	r6, #8
 320 0018 00E0     		b	.L28
 321              	.LVL49:
 322              	.L32:
 323 001a 111C     		mov	r1, r2
 324              	.LVL50:
 325              	.L28:
 598:.\pff.c       **** 	for (;;) {
 599:.\pff.c       **** 		c = p[si++];
 326              		.loc 1 599 0
 327 001c 4B1C     		add	r3, r1, #1
 328 001e DAB2     		uxtb	r2, r3
 329              	.LVL51:
 330 0020 7B5C     		ldrb	r3, [r7, r1]
 331              	.LVL52:
 600:.\pff.c       **** 		if (c <= ' ' || c == '/') break;	/* Break on end of segment */
 332              		.loc 1 600 0
 333 0022 202B     		cmp	r3, #32
 334 0024 10D9     		bls	.L29
 335              		.loc 1 600 0 is_stmt 0 discriminator 1
 336 0026 2F2B     		cmp	r3, #47
 337 0028 0ED0     		beq	.L29
 601:.\pff.c       **** 		if (c == '.' || i >= ni) {
 338              		.loc 1 601 0 is_stmt 1
 339 002a 2E2B     		cmp	r3, #46
 340 002c 01D0     		beq	.L30
 341              		.loc 1 601 0 is_stmt 0 discriminator 1
 342 002e B042     		cmp	r0, r6
 343 0030 06D3     		bcc	.L31
 344              	.L30:
 602:.\pff.c       **** 			if (ni != 8 || c != '.') break;
 345              		.loc 1 602 0 is_stmt 1
 346 0032 082E     		cmp	r6, #8
 347 0034 08D1     		bne	.L29
 348              		.loc 1 602 0 is_stmt 0 discriminator 1
 349 0036 2E2B     		cmp	r3, #46
 350 0038 06D1     		bne	.L29
 603:.\pff.c       **** 			i = 8; ni = 11;
 351              		.loc 1 603 0 is_stmt 1
 352 003a 0820     		mov	r0, #8
 353              	.LVL53:
 354 003c 0336     		add	r6, r6, #3
 355              	.LVL54:
 356 003e ECE7     		b	.L32
 357              	.LVL55:
 358              	.L31:
 604:.\pff.c       **** 			continue;
 605:.\pff.c       **** 		}
 606:.\pff.c       **** #if _USE_LCC
 607:.\pff.c       **** #ifdef _EXCVT
ARM GAS  C:\Users\Petro\AppData\Local\Temp\cc5IgTu7.s 			page 18


 608:.\pff.c       **** 		if (c >= 0x80)					/* To upper extended char (SBCS) */
 609:.\pff.c       **** 			c = cvt[c - 0x80];
 610:.\pff.c       **** #endif
 611:.\pff.c       **** 		if (IsDBCS1(c) && i < ni - 1) {	/* DBC 1st byte? */
 612:.\pff.c       **** 			BYTE d = p[si++];			/* Get 2nd byte */
 613:.\pff.c       **** 			sfn[i++] = c;
 614:.\pff.c       **** 			sfn[i++] = d;
 615:.\pff.c       **** 		} else
 616:.\pff.c       **** #endif
 617:.\pff.c       **** 		{						/* Single byte code */
 618:.\pff.c       **** 			if (_USE_LCC && IsLower(c)) c -= 0x20;	/* toupper */
 619:.\pff.c       **** 			sfn[i++] = c;
 359              		.loc 1 619 0
 360 0040 411C     		add	r1, r0, #1
 361              	.LVL56:
 362 0042 2354     		strb	r3, [r4, r0]
 363 0044 C8B2     		uxtb	r0, r1
 364 0046 E8E7     		b	.L32
 365              	.LVL57:
 366              	.L29:
 620:.\pff.c       **** 		}
 621:.\pff.c       **** 	}
 622:.\pff.c       **** 	*path = &p[si];						/* Rerurn pointer to the next segment */
 367              		.loc 1 622 0
 368 0048 BA18     		add	r2, r7, r2
 369              	.LVL58:
 370 004a 2A60     		str	r2, [r5]
 623:.\pff.c       **** 
 624:.\pff.c       **** 	sfn[11] = (c <= ' ') ? 1 : 0;		/* Set last segment flag if end of path */
 371              		.loc 1 624 0
 372 004c 0022     		mov	r2, #0
 373 004e 2021     		mov	r1, #32
 374              	.LVL59:
 375 0050 9942     		cmp	r1, r3
 376 0052 5241     		adc	r2, r2, r2
 377 0054 E272     		strb	r2, [r4, #11]
 625:.\pff.c       **** 
 626:.\pff.c       **** 	return FR_OK;
 627:.\pff.c       **** }
 378              		.loc 1 627 0
 379 0056 0020     		mov	r0, #0
 380              	.LVL60:
 381              		@ sp needed
 382              	.LVL61:
 383              	.LVL62:
 384              	.LVL63:
 385              	.LVL64:
 386 0058 F8BD     		pop	{r3, r4, r5, r6, r7, pc}
 387              		.cfi_endproc
 388              	.LFE9:
 389              		.size	create_name, .-create_name
 390 005a C046     		.section	.text.get_fileinfo,"ax",%progbits
 391              		.align	2
 392              		.code	16
 393              		.thumb_func
 394              		.type	get_fileinfo, %function
 395              	get_fileinfo:
ARM GAS  C:\Users\Petro\AppData\Local\Temp\cc5IgTu7.s 			page 19


 396              	.LFB10:
 628:.\pff.c       **** 
 629:.\pff.c       **** 
 630:.\pff.c       **** 
 631:.\pff.c       **** 
 632:.\pff.c       **** /*-----------------------------------------------------------------------*/
 633:.\pff.c       **** /* Get file information from directory entry                             */
 634:.\pff.c       **** /*-----------------------------------------------------------------------*/
 635:.\pff.c       **** #if _USE_DIR
 636:.\pff.c       **** static
 637:.\pff.c       **** void get_fileinfo (		/* No return code */
 638:.\pff.c       **** 	DIR *dj,			/* Pointer to the directory object */
 639:.\pff.c       **** 	BYTE *dir,			/* 32-byte working buffer */
 640:.\pff.c       **** 	FILINFO *fno	 	/* Pointer to store the file information */
 641:.\pff.c       **** )
 642:.\pff.c       **** {
 397              		.loc 1 642 0
 398              		.cfi_startproc
 399              	.LVL65:
 400 0000 10B5     		push	{r4, lr}
 401              		.cfi_def_cfa_offset 8
 402              		.cfi_offset 4, -8
 403              		.cfi_offset 14, -4
 643:.\pff.c       **** 	BYTE i, c;
 644:.\pff.c       **** 	char *p;
 645:.\pff.c       **** 
 646:.\pff.c       **** 
 647:.\pff.c       **** 	p = fno->fname;
 404              		.loc 1 647 0
 405 0002 141C     		mov	r4, r2
 406 0004 0934     		add	r4, r4, #9
 407              	.LVL66:
 648:.\pff.c       **** 	if (dj->sect) {
 408              		.loc 1 648 0
 409 0006 0369     		ldr	r3, [r0, #16]
 410 0008 002B     		cmp	r3, #0
 411 000a 0BD1     		bne	.L42
 412 000c 26E0     		b	.L35
 413              	.LVL67:
 414              	.L38:
 649:.\pff.c       **** 		for (i = 0; i < 8; i++) {	/* Copy file name body */
 650:.\pff.c       **** 			c = dir[i];
 415              		.loc 1 650 0
 416 000e C85C     		ldrb	r0, [r1, r3]
 417              	.LVL68:
 651:.\pff.c       **** 			if (c == ' ') break;
 418              		.loc 1 651 0
 419 0010 2028     		cmp	r0, #32
 420 0012 0AD0     		beq	.L36
 652:.\pff.c       **** 			if (c == 0x05) c = 0xE5;
 421              		.loc 1 652 0
 422 0014 0528     		cmp	r0, #5
 423 0016 00D1     		bne	.L37
 424 0018 E030     		add	r0, r0, #224
 425              	.LVL69:
 426              	.L37:
 653:.\pff.c       **** 			*p++ = c;
ARM GAS  C:\Users\Petro\AppData\Local\Temp\cc5IgTu7.s 			page 20


 427              		.loc 1 653 0 discriminator 2
 428 001a 2070     		strb	r0, [r4]
 649:.\pff.c       **** 			c = dir[i];
 429              		.loc 1 649 0 discriminator 2
 430 001c 0133     		add	r3, r3, #1
 431              	.LVL70:
 432 001e DBB2     		uxtb	r3, r3
 433              	.LVL71:
 434              		.loc 1 653 0 discriminator 2
 435 0020 0134     		add	r4, r4, #1
 436              	.LVL72:
 437 0022 00E0     		b	.L34
 438              	.LVL73:
 439              	.L42:
 440 0024 0023     		mov	r3, #0
 441              	.LVL74:
 442              	.L34:
 649:.\pff.c       **** 			c = dir[i];
 443              		.loc 1 649 0 discriminator 1
 444 0026 072B     		cmp	r3, #7
 445 0028 F1D9     		bls	.L38
 446              	.L36:
 654:.\pff.c       **** 		}
 655:.\pff.c       **** 		if (dir[8] != ' ') {		/* Copy file name extension */
 447              		.loc 1 655 0
 448 002a 0B7A     		ldrb	r3, [r1, #8]
 449              	.LVL75:
 450 002c 202B     		cmp	r3, #32
 451 002e 0DD0     		beq	.L39
 452              	.LVL76:
 656:.\pff.c       **** 			*p++ = '.';
 453              		.loc 1 656 0
 454 0030 2E23     		mov	r3, #46
 455 0032 2370     		strb	r3, [r4]
 456              	.LVL77:
 457 0034 0134     		add	r4, r4, #1
 458              	.LVL78:
 657:.\pff.c       **** 			for (i = 8; i < 11; i++) {
 459              		.loc 1 657 0
 460 0036 263B     		sub	r3, r3, #38
 461 0038 06E0     		b	.L40
 462              	.LVL79:
 463              	.L41:
 658:.\pff.c       **** 				c = dir[i];
 464              		.loc 1 658 0
 465 003a C85C     		ldrb	r0, [r1, r3]
 466              	.LVL80:
 659:.\pff.c       **** 				if (c == ' ') break;
 467              		.loc 1 659 0
 468 003c 2028     		cmp	r0, #32
 469 003e 05D0     		beq	.L39
 470              	.LVL81:
 660:.\pff.c       **** 				*p++ = c;
 471              		.loc 1 660 0 discriminator 2
 472 0040 2070     		strb	r0, [r4]
 657:.\pff.c       **** 				c = dir[i];
 473              		.loc 1 657 0 discriminator 2
ARM GAS  C:\Users\Petro\AppData\Local\Temp\cc5IgTu7.s 			page 21


 474 0042 0133     		add	r3, r3, #1
 475              	.LVL82:
 476 0044 DBB2     		uxtb	r3, r3
 477              	.LVL83:
 478              		.loc 1 660 0 discriminator 2
 479 0046 0134     		add	r4, r4, #1
 480              	.LVL84:
 481              	.L40:
 657:.\pff.c       **** 				c = dir[i];
 482              		.loc 1 657 0 discriminator 1
 483 0048 0A2B     		cmp	r3, #10
 484 004a F6D9     		bls	.L41
 485              	.LVL85:
 486              	.L39:
 661:.\pff.c       **** 			}
 662:.\pff.c       **** 		}
 663:.\pff.c       **** 		fno->fattrib = dir[DIR_Attr];				/* Attribute */
 487              		.loc 1 663 0
 488 004c CB7A     		ldrb	r3, [r1, #11]
 489 004e 1372     		strb	r3, [r2, #8]
 664:.\pff.c       **** 		fno->fsize = LD_DWORD(dir+DIR_FileSize);	/* Size */
 490              		.loc 1 664 0
 491 0050 CB69     		ldr	r3, [r1, #28]
 492 0052 1360     		str	r3, [r2]
 665:.\pff.c       **** 		fno->fdate = LD_WORD(dir+DIR_WrtDate);		/* Date */
 493              		.loc 1 665 0
 494 0054 0B8B     		ldrh	r3, [r1, #24]
 495 0056 9380     		strh	r3, [r2, #4]
 666:.\pff.c       **** 		fno->ftime = LD_WORD(dir+DIR_WrtTime);		/* Time */
 496              		.loc 1 666 0
 497 0058 CB8A     		ldrh	r3, [r1, #22]
 498 005a D380     		strh	r3, [r2, #6]
 499              	.L35:
 667:.\pff.c       **** 	}
 668:.\pff.c       **** 	*p = 0;
 500              		.loc 1 668 0
 501 005c 0023     		mov	r3, #0
 502 005e 2370     		strb	r3, [r4]
 669:.\pff.c       **** }
 503              		.loc 1 669 0
 504              		@ sp needed
 505              	.LVL86:
 506 0060 10BD     		pop	{r4, pc}
 507              		.cfi_endproc
 508              	.LFE10:
 509              		.size	get_fileinfo, .-get_fileinfo
 510 0062 C046     		.section	.text.check_fs,"ax",%progbits
 511              		.align	2
 512              		.code	16
 513              		.thumb_func
 514              		.type	check_fs, %function
 515              	check_fs:
 516              	.LFB12:
 670:.\pff.c       **** #endif /* _USE_DIR */
 671:.\pff.c       **** 
 672:.\pff.c       **** 
 673:.\pff.c       **** 
ARM GAS  C:\Users\Petro\AppData\Local\Temp\cc5IgTu7.s 			page 22


 674:.\pff.c       **** /*-----------------------------------------------------------------------*/
 675:.\pff.c       **** /* Follow a file path                                                    */
 676:.\pff.c       **** /*-----------------------------------------------------------------------*/
 677:.\pff.c       **** 
 678:.\pff.c       **** static
 679:.\pff.c       **** FRESULT follow_path (	/* FR_OK(0): successful, !=0: error code */
 680:.\pff.c       **** 	DIR *dj,			/* Directory object to return last directory and found object */
 681:.\pff.c       **** 	BYTE *dir,			/* 32-byte working buffer */
 682:.\pff.c       **** 	const char *path	/* Full-path string to find a file or directory */
 683:.\pff.c       **** )
 684:.\pff.c       **** {
 685:.\pff.c       **** 	FRESULT res;
 686:.\pff.c       **** 
 687:.\pff.c       **** 
 688:.\pff.c       **** 	while (*path == ' ') path++;		/* Strip leading spaces */
 689:.\pff.c       **** 	if (*path == '/') path++;			/* Strip heading separator if exist */
 690:.\pff.c       **** 	dj->sclust = 0;						/* Set start directory (always root dir) */
 691:.\pff.c       **** 
 692:.\pff.c       **** 	if ((BYTE)*path < ' ') {			/* Null path means the root directory */
 693:.\pff.c       **** 		res = dir_rewind(dj);
 694:.\pff.c       **** 		dir[0] = 0;
 695:.\pff.c       **** 
 696:.\pff.c       **** 	} else {							/* Follow path */
 697:.\pff.c       **** 		for (;;) {
 698:.\pff.c       **** 			res = create_name(dj, &path);	/* Get a segment */
 699:.\pff.c       **** 			if (res != FR_OK) break;
 700:.\pff.c       **** 			res = dir_find(dj, dir);		/* Find it */
 701:.\pff.c       **** 			if (res != FR_OK) break;		/* Could not find the object */
 702:.\pff.c       **** 			if (dj->fn[11]) break;			/* Last segment match. Function completed. */
 703:.\pff.c       **** 			if (!(dir[DIR_Attr] & AM_DIR)) { /* Cannot follow path because it is a file */
 704:.\pff.c       **** 				res = FR_NO_FILE; break;
 705:.\pff.c       **** 			}
 706:.\pff.c       **** 			dj->sclust = get_clust(dir);	/* Follow next */
 707:.\pff.c       **** 		}
 708:.\pff.c       **** 	}
 709:.\pff.c       **** 
 710:.\pff.c       **** 	return res;
 711:.\pff.c       **** }
 712:.\pff.c       **** 
 713:.\pff.c       **** 
 714:.\pff.c       **** 
 715:.\pff.c       **** 
 716:.\pff.c       **** /*-----------------------------------------------------------------------*/
 717:.\pff.c       **** /* Check a sector if it is an FAT boot record                            */
 718:.\pff.c       **** /*-----------------------------------------------------------------------*/
 719:.\pff.c       **** 
 720:.\pff.c       **** static
 721:.\pff.c       **** BYTE check_fs (	/* 0:The FAT boot record, 1:Valid boot record but not an FAT, 2:Not a boot record, 
 722:.\pff.c       **** 	BYTE *buf,	/* Working buffer */
 723:.\pff.c       **** 	DWORD sect	/* Sector# (lba) to check if it is an FAT boot record or not */
 724:.\pff.c       **** )
 725:.\pff.c       **** {
 517              		.loc 1 725 0
 518              		.cfi_startproc
 519              	.LVL87:
 520 0000 38B5     		push	{r3, r4, r5, lr}
 521              		.cfi_def_cfa_offset 16
ARM GAS  C:\Users\Petro\AppData\Local\Temp\cc5IgTu7.s 			page 23


 522              		.cfi_offset 3, -16
 523              		.cfi_offset 4, -12
 524              		.cfi_offset 5, -8
 525              		.cfi_offset 14, -4
 526 0002 041C     		mov	r4, r0
 527 0004 0D1C     		mov	r5, r1
 726:.\pff.c       **** 	if (disk_readp(buf, sect, 510, 2))		/* Read the boot record */
 528              		.loc 1 726 0
 529 0006 FF22     		mov	r2, #255
 530 0008 5200     		lsl	r2, r2, #1
 531 000a 0223     		mov	r3, #2
 532 000c FFF7FEFF 		bl	disk_readp
 533              	.LVL88:
 534 0010 0028     		cmp	r0, #0
 535 0012 1DD1     		bne	.L47
 727:.\pff.c       **** 		return 3;
 728:.\pff.c       **** 	if (LD_WORD(buf) != 0xAA55)				/* Check record signature */
 536              		.loc 1 728 0
 537 0014 2288     		ldrh	r2, [r4]
 538 0016 134B     		ldr	r3, .L52
 539 0018 9A42     		cmp	r2, r3
 540 001a 1BD1     		bne	.L48
 729:.\pff.c       **** 		return 2;
 730:.\pff.c       **** 
 731:.\pff.c       **** 	if (!_FS_32ONLY && !disk_readp(buf, sect, BS_FilSysType, 2) && LD_WORD(buf) == 0x4146)	/* Check FA
 541              		.loc 1 731 0
 542 001c 201C     		mov	r0, r4
 543 001e 291C     		mov	r1, r5
 544 0020 3622     		mov	r2, #54
 545 0022 0223     		mov	r3, #2
 546 0024 FFF7FEFF 		bl	disk_readp
 547              	.LVL89:
 548 0028 0028     		cmp	r0, #0
 549 002a 03D1     		bne	.L46
 550              		.loc 1 731 0 is_stmt 0 discriminator 1
 551 002c 2288     		ldrh	r2, [r4]
 552 002e 0E4B     		ldr	r3, .L52+4
 553 0030 9A42     		cmp	r2, r3
 554 0032 11D0     		beq	.L49
 555              	.L46:
 732:.\pff.c       **** 		return 0;
 733:.\pff.c       **** 	if (_FS_FAT32 && !disk_readp(buf, sect, BS_FilSysType32, 2) && LD_WORD(buf) == 0x4146)	/* Check FA
 556              		.loc 1 733 0 is_stmt 1
 557 0034 201C     		mov	r0, r4
 558 0036 291C     		mov	r1, r5
 559 0038 5222     		mov	r2, #82
 560 003a 0223     		mov	r3, #2
 561 003c FFF7FEFF 		bl	disk_readp
 562              	.LVL90:
 563 0040 0028     		cmp	r0, #0
 564 0042 0BD1     		bne	.L50
 565              		.loc 1 733 0 is_stmt 0 discriminator 1
 566 0044 2288     		ldrh	r2, [r4]
 567 0046 084B     		ldr	r3, .L52+4
 568 0048 9A42     		cmp	r2, r3
 569 004a 09D0     		beq	.L51
 734:.\pff.c       **** 		return 0;
ARM GAS  C:\Users\Petro\AppData\Local\Temp\cc5IgTu7.s 			page 24


 735:.\pff.c       **** 	return 1;
 570              		.loc 1 735 0 is_stmt 1
 571 004c 0130     		add	r0, r0, #1
 572 004e 08E0     		b	.L45
 573              	.L47:
 727:.\pff.c       **** 	if (LD_WORD(buf) != 0xAA55)				/* Check record signature */
 574              		.loc 1 727 0
 575 0050 0320     		mov	r0, #3
 576 0052 06E0     		b	.L45
 577              	.L48:
 729:.\pff.c       **** 
 578              		.loc 1 729 0
 579 0054 0220     		mov	r0, #2
 580 0056 04E0     		b	.L45
 581              	.L49:
 732:.\pff.c       **** 	if (_FS_FAT32 && !disk_readp(buf, sect, BS_FilSysType32, 2) && LD_WORD(buf) == 0x4146)	/* Check FA
 582              		.loc 1 732 0
 583 0058 0020     		mov	r0, #0
 584 005a 02E0     		b	.L45
 585              	.L50:
 586              		.loc 1 735 0
 587 005c 0120     		mov	r0, #1
 588 005e 00E0     		b	.L45
 589              	.L51:
 734:.\pff.c       **** 	return 1;
 590              		.loc 1 734 0
 591 0060 0020     		mov	r0, #0
 592              	.L45:
 736:.\pff.c       **** }
 593              		.loc 1 736 0
 594              		@ sp needed
 595              	.LVL91:
 596              	.LVL92:
 597 0062 38BD     		pop	{r3, r4, r5, pc}
 598              	.L53:
 599              		.align	2
 600              	.L52:
 601 0064 55AA0000 		.word	43605
 602 0068 46410000 		.word	16710
 603              		.cfi_endproc
 604              	.LFE12:
 605              		.size	check_fs, .-check_fs
 606              		.section	.text.get_fat,"ax",%progbits
 607              		.align	2
 608              		.code	16
 609              		.thumb_func
 610              		.type	get_fat, %function
 611              	get_fat:
 612              	.LFB2:
 352:.\pff.c       **** 	BYTE buf[4];
 613              		.loc 1 352 0
 614              		.cfi_startproc
 615              	.LVL93:
 616 0000 70B5     		push	{r4, r5, r6, lr}
 617              		.cfi_def_cfa_offset 16
 618              		.cfi_offset 4, -16
 619              		.cfi_offset 5, -12
ARM GAS  C:\Users\Petro\AppData\Local\Temp\cc5IgTu7.s 			page 25


 620              		.cfi_offset 6, -8
 621              		.cfi_offset 14, -4
 622 0002 82B0     		sub	sp, sp, #8
 623              		.cfi_def_cfa_offset 24
 354:.\pff.c       **** 
 624              		.loc 1 354 0
 625 0004 364B     		ldr	r3, .L72
 626 0006 1D68     		ldr	r5, [r3]
 627              	.LVL94:
 356:.\pff.c       **** 		return 1;
 628              		.loc 1 356 0
 629 0008 0128     		cmp	r0, #1
 630 000a 58D9     		bls	.L63
 356:.\pff.c       **** 		return 1;
 631              		.loc 1 356 0 is_stmt 0 discriminator 1
 632 000c AB68     		ldr	r3, [r5, #8]
 633 000e 8342     		cmp	r3, r0
 634 0010 57D9     		bls	.L64
 635 0012 041C     		mov	r4, r0
 359:.\pff.c       **** #if _FS_FAT12
 636              		.loc 1 359 0 is_stmt 1
 637 0014 2B78     		ldrb	r3, [r5]
 638 0016 022B     		cmp	r3, #2
 639 0018 32D0     		beq	.L56
 640 001a 032B     		cmp	r3, #3
 641 001c 3FD0     		beq	.L57
 642 001e 012B     		cmp	r3, #1
 643 0020 51D1     		bne	.L71
 644              	.LVL95:
 645              	.LBB2:
 364:.\pff.c       **** 		ofs = bc % 512; bc /= 512;
 646              		.loc 1 364 0
 647 0022 4108     		lsr	r1, r0, #1
 648 0024 4118     		add	r1, r0, r1
 649              	.LVL96:
 365:.\pff.c       **** 		if (ofs != 511) {
 650              		.loc 1 365 0
 651 0026 CA05     		lsl	r2, r1, #23
 652 0028 D20D     		lsr	r2, r2, #23
 653              	.LVL97:
 654 002a 4E0A     		lsr	r6, r1, #9
 655              	.LVL98:
 366:.\pff.c       **** 			if (disk_readp(buf, fs->fatbase + bc, ofs, 2)) break;
 656              		.loc 1 366 0
 657 002c 2D4B     		ldr	r3, .L72+4
 658 002e 9A42     		cmp	r2, r3
 659 0030 09D0     		beq	.L59
 367:.\pff.c       **** 		} else {
 660              		.loc 1 367 0
 661 0032 E968     		ldr	r1, [r5, #12]
 662 0034 8919     		add	r1, r1, r6
 663 0036 01A8     		add	r0, sp, #4
 664              	.LVL99:
 665 0038 FE3B     		sub	r3, r3, #254
 666 003a FF3B     		sub	r3, r3, #255
 667 003c FFF7FEFF 		bl	disk_readp
 668              	.LVL100:
ARM GAS  C:\Users\Petro\AppData\Local\Temp\cc5IgTu7.s 			page 26


 669 0040 0028     		cmp	r0, #0
 670 0042 14D0     		beq	.L60
 671              	.LBE2:
 672 0044 41E0     		b	.L66
 673              	.LVL101:
 674              	.L59:
 675              	.LBB3:
 369:.\pff.c       **** 			if (disk_readp(buf+1, fs->fatbase + bc + 1, 0, 1)) break;
 676              		.loc 1 369 0
 677 0046 EB68     		ldr	r3, [r5, #12]
 678 0048 9919     		add	r1, r3, r6
 679 004a 01A8     		add	r0, sp, #4
 680              	.LVL102:
 681 004c 254A     		ldr	r2, .L72+4
 682              	.LVL103:
 683 004e 0123     		mov	r3, #1
 684 0050 FFF7FEFF 		bl	disk_readp
 685              	.LVL104:
 686 0054 0028     		cmp	r0, #0
 687 0056 3AD1     		bne	.L67
 370:.\pff.c       **** 		}
 688              		.loc 1 370 0
 689 0058 E968     		ldr	r1, [r5, #12]
 690 005a 8919     		add	r1, r1, r6
 691 005c 0131     		add	r1, r1, #1
 692 005e 6B46     		mov	r3, sp
 693 0060 581D     		add	r0, r3, #5
 694 0062 0022     		mov	r2, #0
 695 0064 0123     		mov	r3, #1
 696 0066 FFF7FEFF 		bl	disk_readp
 697              	.LVL105:
 698 006a 0028     		cmp	r0, #0
 699 006c 31D1     		bne	.L68
 700              	.L60:
 372:.\pff.c       **** 		return (clst & 1) ? (wc >> 4) : (wc & 0xFFF);
 701              		.loc 1 372 0
 702 006e 01AB     		add	r3, sp, #4
 703 0070 1888     		ldrh	r0, [r3]
 704              	.LVL106:
 373:.\pff.c       **** 	}
 705              		.loc 1 373 0
 706 0072 E307     		lsl	r3, r4, #31
 707 0074 01D5     		bpl	.L61
 373:.\pff.c       **** 	}
 708              		.loc 1 373 0 is_stmt 0 discriminator 1
 709 0076 0009     		lsr	r0, r0, #4
 710              	.LVL107:
 711 0078 30E0     		b	.L55
 712              	.LVL108:
 713              	.L61:
 373:.\pff.c       **** 	}
 714              		.loc 1 373 0 discriminator 2
 715 007a 0005     		lsl	r0, r0, #20
 716              	.LVL109:
 717 007c 000D     		lsr	r0, r0, #20
 718 007e 2DE0     		b	.L55
 719              	.LVL110:
ARM GAS  C:\Users\Petro\AppData\Local\Temp\cc5IgTu7.s 			page 27


 720              	.L56:
 721              	.LBE3:
 378:.\pff.c       **** 		return LD_WORD(buf);
 722              		.loc 1 378 0 is_stmt 1
 723 0080 E968     		ldr	r1, [r5, #12]
 724 0082 030A     		lsr	r3, r0, #8
 725 0084 FF20     		mov	r0, #255
 726              	.LVL111:
 727 0086 2040     		and	r0, r4
 728 0088 C918     		add	r1, r1, r3
 729 008a 4200     		lsl	r2, r0, #1
 730 008c 01A8     		add	r0, sp, #4
 731 008e 0223     		mov	r3, #2
 732 0090 FFF7FEFF 		bl	disk_readp
 733              	.LVL112:
 734 0094 0028     		cmp	r0, #0
 735 0096 1ED1     		bne	.L69
 379:.\pff.c       **** #endif
 736              		.loc 1 379 0
 737 0098 01AB     		add	r3, sp, #4
 738 009a 1888     		ldrh	r0, [r3]
 739 009c 1EE0     		b	.L55
 740              	.LVL113:
 741              	.L57:
 383:.\pff.c       **** 		return LD_DWORD(buf) & 0x0FFFFFFF;
 742              		.loc 1 383 0
 743 009e E968     		ldr	r1, [r5, #12]
 744 00a0 C309     		lsr	r3, r0, #7
 745 00a2 7F20     		mov	r0, #127
 746              	.LVL114:
 747 00a4 2040     		and	r0, r4
 748 00a6 C918     		add	r1, r1, r3
 749 00a8 8200     		lsl	r2, r0, #2
 750 00aa 01A8     		add	r0, sp, #4
 751 00ac 0423     		mov	r3, #4
 752 00ae FFF7FEFF 		bl	disk_readp
 753              	.LVL115:
 754 00b2 0028     		cmp	r0, #0
 755 00b4 11D1     		bne	.L70
 384:.\pff.c       **** #endif
 756              		.loc 1 384 0
 757 00b6 019B     		ldr	r3, [sp, #4]
 758 00b8 1801     		lsl	r0, r3, #4
 759 00ba 0009     		lsr	r0, r0, #4
 760 00bc 0EE0     		b	.L55
 761              	.LVL116:
 762              	.L63:
 357:.\pff.c       **** 
 763              		.loc 1 357 0
 764 00be 0120     		mov	r0, #1
 765              	.LVL117:
 766 00c0 0CE0     		b	.L55
 767              	.LVL118:
 768              	.L64:
 769 00c2 0120     		mov	r0, #1
 770              	.LVL119:
 771 00c4 0AE0     		b	.L55
ARM GAS  C:\Users\Petro\AppData\Local\Temp\cc5IgTu7.s 			page 28


 772              	.LVL120:
 773              	.L71:
 388:.\pff.c       **** }
 774              		.loc 1 388 0
 775 00c6 0120     		mov	r0, #1
 776              	.LVL121:
 777 00c8 08E0     		b	.L55
 778              	.LVL122:
 779              	.L66:
 780 00ca 0120     		mov	r0, #1
 781 00cc 06E0     		b	.L55
 782              	.L67:
 783 00ce 0120     		mov	r0, #1
 784 00d0 04E0     		b	.L55
 785              	.L68:
 786 00d2 0120     		mov	r0, #1
 787 00d4 02E0     		b	.L55
 788              	.LVL123:
 789              	.L69:
 790 00d6 0120     		mov	r0, #1
 791 00d8 00E0     		b	.L55
 792              	.L70:
 793 00da 0120     		mov	r0, #1
 794              	.LVL124:
 795              	.L55:
 389:.\pff.c       **** 
 796              		.loc 1 389 0
 797 00dc 02B0     		add	sp, sp, #8
 798              		@ sp needed
 799              	.LVL125:
 800 00de 70BD     		pop	{r4, r5, r6, pc}
 801              	.L73:
 802              		.align	2
 803              	.L72:
 804 00e0 00000000 		.word	.LANCHOR0
 805 00e4 FF010000 		.word	511
 806              		.cfi_endproc
 807              	.LFE2:
 808              		.size	get_fat, .-get_fat
 809              		.section	.text.dir_next,"ax",%progbits
 810              		.align	2
 811              		.code	16
 812              		.thumb_func
 813              		.type	dir_next, %function
 814              	dir_next:
 815              	.LFB6:
 467:.\pff.c       **** 	CLUST clst;
 816              		.loc 1 467 0
 817              		.cfi_startproc
 818              	.LVL126:
 819 0000 70B5     		push	{r4, r5, r6, lr}
 820              		.cfi_def_cfa_offset 16
 821              		.cfi_offset 4, -16
 822              		.cfi_offset 5, -12
 823              		.cfi_offset 6, -8
 824              		.cfi_offset 14, -4
 470:.\pff.c       **** 
ARM GAS  C:\Users\Petro\AppData\Local\Temp\cc5IgTu7.s 			page 29


 825              		.loc 1 470 0
 826 0002 194B     		ldr	r3, .L83
 827 0004 1E68     		ldr	r6, [r3]
 828              	.LVL127:
 473:.\pff.c       **** 	if (!i || !dj->sect)	/* Report EOT when index has reached 65535 */
 829              		.loc 1 473 0
 830 0006 0488     		ldrh	r4, [r0]
 831 0008 0134     		add	r4, r4, #1
 832 000a A4B2     		uxth	r4, r4
 833              	.LVL128:
 474:.\pff.c       **** 		return FR_NO_FILE;
 834              		.loc 1 474 0
 835 000c 002C     		cmp	r4, #0
 836 000e 21D0     		beq	.L78
 474:.\pff.c       **** 		return FR_NO_FILE;
 837              		.loc 1 474 0 is_stmt 0 discriminator 1
 838 0010 0369     		ldr	r3, [r0, #16]
 839 0012 002B     		cmp	r3, #0
 840 0014 20D0     		beq	.L79
 841 0016 051C     		mov	r5, r0
 477:.\pff.c       **** 		dj->sect++;			/* Next sector */
 842              		.loc 1 477 0 is_stmt 1
 843 0018 2207     		lsl	r2, r4, #28
 844 001a 18D1     		bne	.L76
 478:.\pff.c       **** 
 845              		.loc 1 478 0
 846 001c 0133     		add	r3, r3, #1
 847 001e 0361     		str	r3, [r0, #16]
 480:.\pff.c       **** 			if (i >= fs->n_rootdir)	/* Report EOT when end of table */
 848              		.loc 1 480 0
 849 0020 C068     		ldr	r0, [r0, #12]
 850              	.LVL129:
 851 0022 0028     		cmp	r0, #0
 852 0024 03D1     		bne	.L77
 481:.\pff.c       **** 				return FR_NO_FILE;
 853              		.loc 1 481 0
 854 0026 B388     		ldrh	r3, [r6, #4]
 855 0028 A342     		cmp	r3, r4
 856 002a 17D9     		bls	.L80
 857 002c 0FE0     		b	.L76
 858              	.L77:
 485:.\pff.c       **** 				clst = get_fat(dj->clust);		/* Get next cluster */
 859              		.loc 1 485 0
 860 002e 2309     		lsr	r3, r4, #4
 861 0030 B278     		ldrb	r2, [r6, #2]
 862 0032 013A     		sub	r2, r2, #1
 863 0034 1A42     		tst	r2, r3
 864 0036 0AD1     		bne	.L76
 486:.\pff.c       **** 				if (clst <= 1) return FR_DISK_ERR;
 865              		.loc 1 486 0
 866 0038 FFF7FEFF 		bl	get_fat
 867              	.LVL130:
 487:.\pff.c       **** 				if (clst >= fs->n_fatent)		/* When it reached end of dynamic table */
 868              		.loc 1 487 0
 869 003c 0128     		cmp	r0, #1
 870 003e 0FD9     		bls	.L81
 488:.\pff.c       **** 					return FR_NO_FILE;			/* Report EOT */
ARM GAS  C:\Users\Petro\AppData\Local\Temp\cc5IgTu7.s 			page 30


 871              		.loc 1 488 0
 872 0040 B368     		ldr	r3, [r6, #8]
 873 0042 8342     		cmp	r3, r0
 874 0044 0ED9     		bls	.L82
 490:.\pff.c       **** 				dj->sect = clust2sect(clst);
 875              		.loc 1 490 0
 876 0046 E860     		str	r0, [r5, #12]
 491:.\pff.c       **** 			}
 877              		.loc 1 491 0
 878 0048 FFF7FEFF 		bl	clust2sect
 879              	.LVL131:
 880 004c 2861     		str	r0, [r5, #16]
 881              	.L76:
 496:.\pff.c       **** 
 882              		.loc 1 496 0
 883 004e 2C80     		strh	r4, [r5]
 498:.\pff.c       **** }
 884              		.loc 1 498 0
 885 0050 0020     		mov	r0, #0
 886 0052 08E0     		b	.L75
 887              	.LVL132:
 888              	.L78:
 475:.\pff.c       **** 
 889              		.loc 1 475 0
 890 0054 0320     		mov	r0, #3
 891              	.LVL133:
 892 0056 06E0     		b	.L75
 893              	.LVL134:
 894              	.L79:
 895 0058 0320     		mov	r0, #3
 896              	.LVL135:
 897 005a 04E0     		b	.L75
 898              	.LVL136:
 899              	.L80:
 482:.\pff.c       **** 		}
 900              		.loc 1 482 0
 901 005c 0320     		mov	r0, #3
 902 005e 02E0     		b	.L75
 903              	.LVL137:
 904              	.L81:
 487:.\pff.c       **** 				if (clst >= fs->n_fatent)		/* When it reached end of dynamic table */
 905              		.loc 1 487 0
 906 0060 0120     		mov	r0, #1
 907              	.LVL138:
 908 0062 00E0     		b	.L75
 909              	.LVL139:
 910              	.L82:
 489:.\pff.c       **** 				dj->clust = clst;				/* Initialize data for new cluster */
 911              		.loc 1 489 0
 912 0064 0320     		mov	r0, #3
 913              	.LVL140:
 914              	.L75:
 499:.\pff.c       **** 
 915              		.loc 1 499 0
 916              		@ sp needed
 917              	.LVL141:
 918              	.LVL142:
ARM GAS  C:\Users\Petro\AppData\Local\Temp\cc5IgTu7.s 			page 31


 919 0066 70BD     		pop	{r4, r5, r6, pc}
 920              	.L84:
 921              		.align	2
 922              	.L83:
 923 0068 00000000 		.word	.LANCHOR0
 924              		.cfi_endproc
 925              	.LFE6:
 926              		.size	dir_next, .-dir_next
 927              		.section	.text.dir_find,"ax",%progbits
 928              		.align	2
 929              		.code	16
 930              		.thumb_func
 931              		.type	dir_find, %function
 932              	dir_find:
 933              	.LFB7:
 513:.\pff.c       **** 	FRESULT res;
 934              		.loc 1 513 0
 935              		.cfi_startproc
 936              	.LVL143:
 937 0000 70B5     		push	{r4, r5, r6, lr}
 938              		.cfi_def_cfa_offset 16
 939              		.cfi_offset 4, -16
 940              		.cfi_offset 5, -12
 941              		.cfi_offset 6, -8
 942              		.cfi_offset 14, -4
 943 0002 051C     		mov	r5, r0
 944 0004 0E1C     		mov	r6, r1
 518:.\pff.c       **** 	if (res != FR_OK) return res;
 945              		.loc 1 518 0
 946 0006 FFF7FEFF 		bl	dir_rewind
 947              	.LVL144:
 519:.\pff.c       **** 
 948              		.loc 1 519 0
 949 000a 0028     		cmp	r0, #0
 950 000c 22D1     		bne	.L86
 951              	.LVL145:
 952              	.L89:
 522:.\pff.c       **** 			? FR_DISK_ERR : FR_OK;
 953              		.loc 1 522 0
 954 000e 2B88     		ldrh	r3, [r5]
 955 0010 0F22     		mov	r2, #15
 956 0012 1A40     		and	r2, r3
 957 0014 5201     		lsl	r2, r2, #5
 958 0016 301C     		mov	r0, r6
 959 0018 2969     		ldr	r1, [r5, #16]
 960 001a 2023     		mov	r3, #32
 961 001c FFF7FEFF 		bl	disk_readp
 962              	.LVL146:
 523:.\pff.c       **** 		if (res != FR_OK) break;
 963              		.loc 1 523 0
 964 0020 441E     		sub	r4, r0, #1
 965 0022 A041     		sbc	r0, r0, r4
 966 0024 C4B2     		uxtb	r4, r0
 967              	.LVL147:
 524:.\pff.c       **** 		c = dir[DIR_Name];	/* First character */
 968              		.loc 1 524 0
 969 0026 002C     		cmp	r4, #0
ARM GAS  C:\Users\Petro\AppData\Local\Temp\cc5IgTu7.s 			page 32


 970 0028 13D1     		bne	.L87
 525:.\pff.c       **** 		if (c == 0) { res = FR_NO_FILE; break; }	/* Reached to end of table */
 971              		.loc 1 525 0
 972 002a 3378     		ldrb	r3, [r6]
 973              	.LVL148:
 526:.\pff.c       **** 		if (!(dir[DIR_Attr] & AM_VOL) && !mem_cmp(dir, dj->fn, 11)) /* Is it a valid entry? */
 974              		.loc 1 526 0
 975 002c 002B     		cmp	r3, #0
 976 002e 0FD0     		beq	.L91
 527:.\pff.c       **** 			break;
 977              		.loc 1 527 0
 978 0030 F37A     		ldrb	r3, [r6, #11]
 979              	.LVL149:
 980 0032 1B07     		lsl	r3, r3, #28
 981 0034 06D4     		bmi	.L88
 527:.\pff.c       **** 			break;
 982              		.loc 1 527 0 is_stmt 0 discriminator 1
 983 0036 301C     		mov	r0, r6
 984 0038 6968     		ldr	r1, [r5, #4]
 985 003a 0B22     		mov	r2, #11
 986 003c FFF7FEFF 		bl	mem_cmp
 987              	.LVL150:
 988 0040 0028     		cmp	r0, #0
 989 0042 06D0     		beq	.L87
 990              	.L88:
 529:.\pff.c       **** 	} while (res == FR_OK);
 991              		.loc 1 529 0 is_stmt 1
 992 0044 281C     		mov	r0, r5
 993 0046 FFF7FEFF 		bl	dir_next
 994              	.LVL151:
 995 004a 041E     		sub	r4, r0, #0
 996              	.LVL152:
 530:.\pff.c       **** 
 997              		.loc 1 530 0
 998 004c DFD0     		beq	.L89
 999 004e 00E0     		b	.L87
 1000              	.LVL153:
 1001              	.L91:
 526:.\pff.c       **** 		if (!(dir[DIR_Attr] & AM_VOL) && !mem_cmp(dir, dj->fn, 11)) /* Is it a valid entry? */
 1002              		.loc 1 526 0
 1003 0050 0324     		mov	r4, #3
 1004              	.LVL154:
 1005              	.L87:
 532:.\pff.c       **** }
 1006              		.loc 1 532 0
 1007 0052 201C     		mov	r0, r4
 1008              	.LVL155:
 1009              	.L86:
 533:.\pff.c       **** 
 1010              		.loc 1 533 0
 1011              		@ sp needed
 1012              	.LVL156:
 1013              	.LVL157:
 1014 0054 70BD     		pop	{r4, r5, r6, pc}
 1015              		.cfi_endproc
 1016              	.LFE7:
 1017              		.size	dir_find, .-dir_find
ARM GAS  C:\Users\Petro\AppData\Local\Temp\cc5IgTu7.s 			page 33


 1018 0056 C046     		.section	.text.follow_path,"ax",%progbits
 1019              		.align	2
 1020              		.code	16
 1021              		.thumb_func
 1022              		.type	follow_path, %function
 1023              	follow_path:
 1024              	.LFB11:
 684:.\pff.c       **** 	FRESULT res;
 1025              		.loc 1 684 0
 1026              		.cfi_startproc
 1027              	.LVL158:
 1028 0000 30B5     		push	{r4, r5, lr}
 1029              		.cfi_def_cfa_offset 12
 1030              		.cfi_offset 4, -12
 1031              		.cfi_offset 5, -8
 1032              		.cfi_offset 14, -4
 1033 0002 83B0     		sub	sp, sp, #12
 1034              		.cfi_def_cfa_offset 24
 1035 0004 051C     		mov	r5, r0
 1036 0006 0C1C     		mov	r4, r1
 1037 0008 0192     		str	r2, [sp, #4]
 688:.\pff.c       **** 	if (*path == '/') path++;			/* Strip heading separator if exist */
 1038              		.loc 1 688 0
 1039 000a 01E0     		b	.L93
 1040              	.LVL159:
 1041              	.L94:
 688:.\pff.c       **** 	if (*path == '/') path++;			/* Strip heading separator if exist */
 1042              		.loc 1 688 0 is_stmt 0 discriminator 2
 1043 000c 0133     		add	r3, r3, #1
 1044 000e 0193     		str	r3, [sp, #4]
 1045              	.L93:
 688:.\pff.c       **** 	if (*path == '/') path++;			/* Strip heading separator if exist */
 1046              		.loc 1 688 0 discriminator 1
 1047 0010 019B     		ldr	r3, [sp, #4]
 1048 0012 1A78     		ldrb	r2, [r3]
 1049 0014 202A     		cmp	r2, #32
 1050 0016 F9D0     		beq	.L94
 689:.\pff.c       **** 	dj->sclust = 0;						/* Set start directory (always root dir) */
 1051              		.loc 1 689 0 is_stmt 1
 1052 0018 2F2A     		cmp	r2, #47
 1053 001a 01D1     		bne	.L95
 689:.\pff.c       **** 	dj->sclust = 0;						/* Set start directory (always root dir) */
 1054              		.loc 1 689 0 is_stmt 0 discriminator 1
 1055 001c 0133     		add	r3, r3, #1
 1056 001e 0193     		str	r3, [sp, #4]
 1057              	.L95:
 690:.\pff.c       **** 
 1058              		.loc 1 690 0 is_stmt 1
 1059 0020 0023     		mov	r3, #0
 1060 0022 AB60     		str	r3, [r5, #8]
 692:.\pff.c       **** 		res = dir_rewind(dj);
 1061              		.loc 1 692 0
 1062 0024 019B     		ldr	r3, [sp, #4]
 1063 0026 1B78     		ldrb	r3, [r3]
 1064 0028 1F2B     		cmp	r3, #31
 1065 002a 05D8     		bhi	.L96
 693:.\pff.c       **** 		dir[0] = 0;
ARM GAS  C:\Users\Petro\AppData\Local\Temp\cc5IgTu7.s 			page 34


 1066              		.loc 1 693 0
 1067 002c 281C     		mov	r0, r5
 1068              	.LVL160:
 1069 002e FFF7FEFF 		bl	dir_rewind
 1070              	.LVL161:
 694:.\pff.c       **** 
 1071              		.loc 1 694 0
 1072 0032 0023     		mov	r3, #0
 1073 0034 2370     		strb	r3, [r4]
 1074 0036 18E0     		b	.L97
 1075              	.LVL162:
 1076              	.L96:
 698:.\pff.c       **** 			if (res != FR_OK) break;
 1077              		.loc 1 698 0
 1078 0038 281C     		mov	r0, r5
 1079 003a 01A9     		add	r1, sp, #4
 1080 003c FFF7FEFF 		bl	create_name
 1081              	.LVL163:
 699:.\pff.c       **** 			res = dir_find(dj, dir);		/* Find it */
 1082              		.loc 1 699 0
 1083 0040 0028     		cmp	r0, #0
 1084 0042 12D1     		bne	.L97
 700:.\pff.c       **** 			if (res != FR_OK) break;		/* Could not find the object */
 1085              		.loc 1 700 0
 1086 0044 281C     		mov	r0, r5
 1087              	.LVL164:
 1088 0046 211C     		mov	r1, r4
 1089 0048 FFF7FEFF 		bl	dir_find
 1090              	.LVL165:
 701:.\pff.c       **** 			if (dj->fn[11]) break;			/* Last segment match. Function completed. */
 1091              		.loc 1 701 0
 1092 004c 0028     		cmp	r0, #0
 1093 004e 0CD1     		bne	.L97
 702:.\pff.c       **** 			if (!(dir[DIR_Attr] & AM_DIR)) { /* Cannot follow path because it is a file */
 1094              		.loc 1 702 0
 1095 0050 6B68     		ldr	r3, [r5, #4]
 1096 0052 DB7A     		ldrb	r3, [r3, #11]
 1097 0054 002B     		cmp	r3, #0
 1098 0056 08D1     		bne	.L97
 703:.\pff.c       **** 				res = FR_NO_FILE; break;
 1099              		.loc 1 703 0
 1100 0058 E37A     		ldrb	r3, [r4, #11]
 1101 005a DB06     		lsl	r3, r3, #27
 1102 005c 04D5     		bpl	.L98
 706:.\pff.c       **** 		}
 1103              		.loc 1 706 0
 1104 005e 201C     		mov	r0, r4
 1105              	.LVL166:
 1106 0060 FFF7FEFF 		bl	get_clust
 1107              	.LVL167:
 1108 0064 A860     		str	r0, [r5, #8]
 707:.\pff.c       **** 	}
 1109              		.loc 1 707 0
 1110 0066 E7E7     		b	.L96
 1111              	.LVL168:
 1112              	.L98:
 704:.\pff.c       **** 			}
ARM GAS  C:\Users\Petro\AppData\Local\Temp\cc5IgTu7.s 			page 35


 1113              		.loc 1 704 0
 1114 0068 0320     		mov	r0, #3
 1115              	.LVL169:
 1116              	.L97:
 711:.\pff.c       **** 
 1117              		.loc 1 711 0
 1118 006a 03B0     		add	sp, sp, #12
 1119              		@ sp needed
 1120              	.LVL170:
 1121              	.LVL171:
 1122 006c 30BD     		pop	{r4, r5, pc}
 1123              		.cfi_endproc
 1124              	.LFE11:
 1125              		.size	follow_path, .-follow_path
 1126 006e C046     		.section	.text.dir_read,"ax",%progbits
 1127              		.align	2
 1128              		.code	16
 1129              		.thumb_func
 1130              		.type	dir_read, %function
 1131              	dir_read:
 1132              	.LFB8:
 547:.\pff.c       **** 	FRESULT res;
 1133              		.loc 1 547 0
 1134              		.cfi_startproc
 1135              	.LVL172:
 1136 0000 38B5     		push	{r3, r4, r5, lr}
 1137              		.cfi_def_cfa_offset 16
 1138              		.cfi_offset 3, -16
 1139              		.cfi_offset 4, -12
 1140              		.cfi_offset 5, -8
 1141              		.cfi_offset 14, -4
 1142 0002 041C     		mov	r4, r0
 1143 0004 0D1C     		mov	r5, r1
 1144              	.LVL173:
 552:.\pff.c       **** 	while (dj->sect) {
 1145              		.loc 1 552 0
 1146 0006 0320     		mov	r0, #3
 1147              	.LVL174:
 553:.\pff.c       **** 		res = disk_readp(dir, dj->sect, (dj->index % 16) * 32, 32)	/* Read an entry */
 1148              		.loc 1 553 0
 1149 0008 1BE0     		b	.L100
 1150              	.LVL175:
 1151              	.L103:
 554:.\pff.c       **** 			? FR_DISK_ERR : FR_OK;
 1152              		.loc 1 554 0
 1153 000a 2388     		ldrh	r3, [r4]
 1154 000c 0F22     		mov	r2, #15
 1155 000e 1A40     		and	r2, r3
 1156 0010 5201     		lsl	r2, r2, #5
 1157 0012 281C     		mov	r0, r5
 1158              	.LVL176:
 1159 0014 2023     		mov	r3, #32
 1160 0016 FFF7FEFF 		bl	disk_readp
 1161              	.LVL177:
 555:.\pff.c       **** 		if (res != FR_OK) break;
 1162              		.loc 1 555 0
 1163 001a 431E     		sub	r3, r0, #1
ARM GAS  C:\Users\Petro\AppData\Local\Temp\cc5IgTu7.s 			page 36


 1164 001c 9841     		sbc	r0, r0, r3
 1165 001e C0B2     		uxtb	r0, r0
 1166              	.LVL178:
 556:.\pff.c       **** 		c = dir[DIR_Name];
 1167              		.loc 1 556 0
 1168 0020 0028     		cmp	r0, #0
 1169 0022 13D1     		bne	.L101
 557:.\pff.c       **** 		if (c == 0) { res = FR_NO_FILE; break; }	/* Reached to end of table */
 1170              		.loc 1 557 0
 1171 0024 2B78     		ldrb	r3, [r5]
 1172              	.LVL179:
 558:.\pff.c       **** 		a = dir[DIR_Attr] & AM_MASK;
 1173              		.loc 1 558 0
 1174 0026 002B     		cmp	r3, #0
 1175 0028 0FD0     		beq	.L105
 559:.\pff.c       **** 		if (c != 0xE5 && c != '.' && !(a & AM_VOL))	/* Is it a valid entry? */
 1176              		.loc 1 559 0
 1177 002a EA7A     		ldrb	r2, [r5, #11]
 1178              	.LVL180:
 560:.\pff.c       **** 			break;
 1179              		.loc 1 560 0
 1180 002c E52B     		cmp	r3, #229
 1181 002e 03D0     		beq	.L102
 560:.\pff.c       **** 			break;
 1182              		.loc 1 560 0 is_stmt 0 discriminator 1
 1183 0030 2E2B     		cmp	r3, #46
 1184 0032 01D0     		beq	.L102
 560:.\pff.c       **** 			break;
 1185              		.loc 1 560 0 discriminator 2
 1186 0034 1307     		lsl	r3, r2, #28
 1187 0036 09D5     		bpl	.L101
 1188              	.LVL181:
 1189              	.L102:
 562:.\pff.c       **** 		if (res != FR_OK) break;
 1190              		.loc 1 562 0 is_stmt 1
 1191 0038 201C     		mov	r0, r4
 1192              	.LVL182:
 1193 003a FFF7FEFF 		bl	dir_next
 1194              	.LVL183:
 563:.\pff.c       **** 	}
 1195              		.loc 1 563 0
 1196 003e 0028     		cmp	r0, #0
 1197 0040 04D1     		bne	.L101
 1198              	.LVL184:
 1199              	.L100:
 553:.\pff.c       **** 		res = disk_readp(dir, dj->sect, (dj->index % 16) * 32, 32)	/* Read an entry */
 1200              		.loc 1 553 0
 1201 0042 2169     		ldr	r1, [r4, #16]
 1202 0044 0029     		cmp	r1, #0
 1203 0046 E0D1     		bne	.L103
 1204 0048 00E0     		b	.L101
 1205              	.LVL185:
 1206              	.L105:
 558:.\pff.c       **** 		a = dir[DIR_Attr] & AM_MASK;
 1207              		.loc 1 558 0
 1208 004a 0320     		mov	r0, #3
 1209              	.LVL186:
ARM GAS  C:\Users\Petro\AppData\Local\Temp\cc5IgTu7.s 			page 37


 1210              	.L101:
 566:.\pff.c       **** 
 1211              		.loc 1 566 0
 1212 004c 0028     		cmp	r0, #0
 1213 004e 01D0     		beq	.L104
 566:.\pff.c       **** 
 1214              		.loc 1 566 0 is_stmt 0 discriminator 1
 1215 0050 0023     		mov	r3, #0
 1216 0052 2361     		str	r3, [r4, #16]
 1217              	.L104:
 569:.\pff.c       **** #endif
 1218              		.loc 1 569 0 is_stmt 1
 1219              		@ sp needed
 1220              	.LVL187:
 1221              	.LVL188:
 1222 0054 38BD     		pop	{r3, r4, r5, pc}
 1223              		.cfi_endproc
 1224              	.LFE8:
 1225              		.size	dir_read, .-dir_read
 1226              		.global	__aeabi_uidiv
 1227 0056 C046     		.section	.text.pf_mount,"ax",%progbits
 1228              		.align	2
 1229              		.global	pf_mount
 1230              		.code	16
 1231              		.thumb_func
 1232              		.type	pf_mount, %function
 1233              	pf_mount:
 1234              	.LFB13:
 737:.\pff.c       **** 
 738:.\pff.c       **** 
 739:.\pff.c       **** 
 740:.\pff.c       **** 
 741:.\pff.c       **** /*--------------------------------------------------------------------------
 742:.\pff.c       **** 
 743:.\pff.c       ****    Public Functions
 744:.\pff.c       **** 
 745:.\pff.c       **** --------------------------------------------------------------------------*/
 746:.\pff.c       **** 
 747:.\pff.c       **** 
 748:.\pff.c       **** 
 749:.\pff.c       **** /*-----------------------------------------------------------------------*/
 750:.\pff.c       **** /* Mount/Unmount a Locical Drive                                         */
 751:.\pff.c       **** /*-----------------------------------------------------------------------*/
 752:.\pff.c       **** 
 753:.\pff.c       **** FRESULT pf_mount (
 754:.\pff.c       **** 	FATFS *fs		/* Pointer to new file system object */
 755:.\pff.c       **** )
 756:.\pff.c       **** {
 1235              		.loc 1 756 0
 1236              		.cfi_startproc
 1237              	.LVL189:
 1238 0000 F0B5     		push	{r4, r5, r6, r7, lr}
 1239              		.cfi_def_cfa_offset 20
 1240              		.cfi_offset 4, -20
 1241              		.cfi_offset 5, -16
 1242              		.cfi_offset 6, -12
 1243              		.cfi_offset 7, -8
ARM GAS  C:\Users\Petro\AppData\Local\Temp\cc5IgTu7.s 			page 38


 1244              		.cfi_offset 14, -4
 1245 0002 4746     		mov	r7, r8
 1246 0004 80B4     		push	{r7}
 1247              		.cfi_def_cfa_offset 24
 1248              		.cfi_offset 8, -24
 1249 0006 8AB0     		sub	sp, sp, #40
 1250              		.cfi_def_cfa_offset 64
 1251 0008 041C     		mov	r4, r0
 757:.\pff.c       **** 	BYTE fmt, buf[36];
 758:.\pff.c       **** 	DWORD bsect, fsize, tsect, mclst;
 759:.\pff.c       **** 
 760:.\pff.c       **** 
 761:.\pff.c       **** 	FatFs = 0;
 1252              		.loc 1 761 0
 1253 000a 0022     		mov	r2, #0
 1254 000c 5A4B     		ldr	r3, .L127
 1255 000e 1A60     		str	r2, [r3]
 762:.\pff.c       **** 
 763:.\pff.c       **** 	if (disk_initialize() & STA_NOINIT)	/* Check if the drive is ready or not */
 1256              		.loc 1 763 0
 1257 0010 FFF7FEFF 		bl	disk_initialize
 1258              	.LVL190:
 1259 0014 C307     		lsl	r3, r0, #31
 1260 0016 00D5     		bpl	.LCB1371
 1261 0018 A0E0     		b	.L116	@long jump
 1262              	.LCB1371:
 1263              	.LVL191:
 764:.\pff.c       **** 		return FR_NOT_READY;
 765:.\pff.c       **** 
 766:.\pff.c       **** 	/* Search FAT partition on the drive */
 767:.\pff.c       **** 	bsect = 0;
 768:.\pff.c       **** 	fmt = check_fs(buf, bsect);			/* Check sector 0 as an SFD format */
 1264              		.loc 1 768 0
 1265 001a 01A8     		add	r0, sp, #4
 1266 001c 0021     		mov	r1, #0
 1267 001e FFF7FEFF 		bl	check_fs
 1268              	.LVL192:
 1269 0022 051E     		sub	r5, r0, #0
 1270              	.LVL193:
 769:.\pff.c       **** 	if (fmt == 1) {						/* Not an FAT boot record, it may be FDISK format */
 1271              		.loc 1 769 0
 1272 0024 012D     		cmp	r5, #1
 1273 0026 13D1     		bne	.L117
 770:.\pff.c       **** 		/* Check a partition listed in top of the partition table */
 771:.\pff.c       **** 		if (disk_readp(buf, bsect, MBR_Table, 16)) {	/* 1st partition entry */
 1274              		.loc 1 771 0
 1275 0028 01A8     		add	r0, sp, #4
 1276              	.LVL194:
 1277 002a 0021     		mov	r1, #0
 1278 002c DF22     		mov	r2, #223
 1279 002e 5200     		lsl	r2, r2, #1
 1280 0030 1023     		mov	r3, #16
 1281 0032 FFF7FEFF 		bl	disk_readp
 1282              	.LVL195:
 1283 0036 0028     		cmp	r0, #0
 1284 0038 0CD1     		bne	.L118
 772:.\pff.c       **** 			fmt = 3;
ARM GAS  C:\Users\Petro\AppData\Local\Temp\cc5IgTu7.s 			page 39


 773:.\pff.c       **** 		} else {
 774:.\pff.c       **** 			if (buf[4]) {					/* Is the partition existing? */
 1285              		.loc 1 774 0
 1286 003a 01AB     		add	r3, sp, #4
 1287 003c 1B79     		ldrb	r3, [r3, #4]
 1288 003e 002B     		cmp	r3, #0
 1289 0040 0BD0     		beq	.L119
 775:.\pff.c       **** 				bsect = LD_DWORD(&buf[8]);	/* Partition offset in LBA */
 1290              		.loc 1 775 0
 1291 0042 039E     		ldr	r6, [sp, #12]
 1292              	.LVL196:
 776:.\pff.c       **** 				fmt = check_fs(buf, bsect);	/* Check the partition */
 1293              		.loc 1 776 0
 1294 0044 01A8     		add	r0, sp, #4
 1295 0046 311C     		mov	r1, r6
 1296 0048 FFF7FEFF 		bl	check_fs
 1297              	.LVL197:
 1298 004c 051C     		mov	r5, r0
 1299              	.LVL198:
 1300 004e 05E0     		b	.L108
 1301              	.LVL199:
 1302              	.L117:
 767:.\pff.c       **** 	fmt = check_fs(buf, bsect);			/* Check sector 0 as an SFD format */
 1303              		.loc 1 767 0
 1304 0050 0026     		mov	r6, #0
 1305 0052 03E0     		b	.L108
 1306              	.LVL200:
 1307              	.L118:
 1308 0054 0026     		mov	r6, #0
 772:.\pff.c       **** 		} else {
 1309              		.loc 1 772 0
 1310 0056 0325     		mov	r5, #3
 1311              	.LVL201:
 1312 0058 00E0     		b	.L108
 1313              	.LVL202:
 1314              	.L119:
 767:.\pff.c       **** 	fmt = check_fs(buf, bsect);			/* Check sector 0 as an SFD format */
 1315              		.loc 1 767 0
 1316 005a 0026     		mov	r6, #0
 1317              	.LVL203:
 1318              	.L108:
 777:.\pff.c       **** 			}
 778:.\pff.c       **** 		}
 779:.\pff.c       **** 	}
 780:.\pff.c       **** 	if (fmt == 3) return FR_DISK_ERR;
 1319              		.loc 1 780 0
 1320 005c 032D     		cmp	r5, #3
 1321 005e 00D1     		bne	.LCB1432
 1322 0060 7EE0     		b	.L120	@long jump
 1323              	.LCB1432:
 781:.\pff.c       **** 	if (fmt) return FR_NO_FILESYSTEM;	/* No valid FAT patition is found */
 1324              		.loc 1 781 0
 1325 0062 002D     		cmp	r5, #0
 1326 0064 00D0     		beq	.LCB1434
 1327 0066 7DE0     		b	.L121	@long jump
 1328              	.LCB1434:
 782:.\pff.c       **** 
ARM GAS  C:\Users\Petro\AppData\Local\Temp\cc5IgTu7.s 			page 40


 783:.\pff.c       **** 	/* Initialize the file system object */
 784:.\pff.c       **** 	if (disk_readp(buf, bsect, 13, sizeof (buf))) return FR_DISK_ERR;
 1329              		.loc 1 784 0
 1330 0068 01A8     		add	r0, sp, #4
 1331 006a 311C     		mov	r1, r6
 1332 006c 0D22     		mov	r2, #13
 1333 006e 2423     		mov	r3, #36
 1334 0070 FFF7FEFF 		bl	disk_readp
 1335              	.LVL204:
 1336 0074 0028     		cmp	r0, #0
 1337 0076 77D1     		bne	.L122
 785:.\pff.c       **** 
 786:.\pff.c       **** 	fsize = LD_WORD(buf+BPB_FATSz16-13);				/* Number of sectors per FAT */
 1338              		.loc 1 786 0
 1339 0078 0D22     		mov	r2, #13
 1340 007a 6A44     		add	r2, r2, sp
 1341 007c 1378     		ldrb	r3, [r2]
 1342 007e 5778     		ldrb	r7, [r2, #1]
 1343 0080 3F02     		lsl	r7, r7, #8
 1344 0082 1F43     		orr	r7, r3
 1345              	.LVL205:
 787:.\pff.c       **** 	if (!fsize) fsize = LD_DWORD(buf+BPB_FATSz32-13);
 1346              		.loc 1 787 0
 1347 0084 0DD1     		bne	.L109
 1348              		.loc 1 787 0 is_stmt 0 discriminator 1
 1349 0086 1B30     		add	r0, r0, #27
 1350 0088 6844     		add	r0, r0, sp
 1351 008a 0178     		ldrb	r1, [r0]
 1352 008c 4378     		ldrb	r3, [r0, #1]
 1353 008e 1B02     		lsl	r3, r3, #8
 1354 0090 0B43     		orr	r3, r1
 1355 0092 1A1C     		mov	r2, r3
 1356 0094 8778     		ldrb	r7, [r0, #2]
 1357              	.LVL206:
 1358 0096 3F04     		lsl	r7, r7, #16
 1359 0098 3B1C     		mov	r3, r7
 1360 009a 1343     		orr	r3, r2
 1361 009c C778     		ldrb	r7, [r0, #3]
 1362 009e 3F06     		lsl	r7, r7, #24
 1363 00a0 1F43     		orr	r7, r3
 1364              	.LVL207:
 1365              	.L109:
 788:.\pff.c       **** 
 789:.\pff.c       **** 	fsize *= buf[BPB_NumFATs-13];						/* Number of sectors in FAT area */
 1366              		.loc 1 789 0 is_stmt 1
 1367 00a2 01AB     		add	r3, sp, #4
 1368 00a4 DA78     		ldrb	r2, [r3, #3]
 1369 00a6 5743     		mul	r7, r2
 1370              	.LVL208:
 790:.\pff.c       **** 	fs->fatbase = bsect + LD_WORD(buf+BPB_RsvdSecCnt-13); /* FAT start sector (lba) */
 1371              		.loc 1 790 0
 1372 00a8 6A46     		mov	r2, sp
 1373 00aa 5179     		ldrb	r1, [r2, #5]
 1374 00ac 0532     		add	r2, r2, #5
 1375 00ae 5278     		ldrb	r2, [r2, #1]
 1376 00b0 1202     		lsl	r2, r2, #8
 1377 00b2 0A43     		orr	r2, r1
ARM GAS  C:\Users\Petro\AppData\Local\Temp\cc5IgTu7.s 			page 41


 1378 00b4 9619     		add	r6, r2, r6
 1379              	.LVL209:
 1380 00b6 E660     		str	r6, [r4, #12]
 791:.\pff.c       **** 	fs->csize = buf[BPB_SecPerClus-13];					/* Number of sectors per cluster */
 1381              		.loc 1 791 0
 1382 00b8 1978     		ldrb	r1, [r3]
 1383 00ba A170     		strb	r1, [r4, #2]
 792:.\pff.c       **** 	fs->n_rootdir = LD_WORD(buf+BPB_RootEntCnt-13);		/* Nmuber of root directory entries */
 1384              		.loc 1 792 0
 1385 00bc 9A88     		ldrh	r2, [r3, #4]
 1386 00be 9446     		mov	ip, r2
 1387 00c0 A280     		strh	r2, [r4, #4]
 793:.\pff.c       **** 	tsect = LD_WORD(buf+BPB_TotSec16-13);				/* Number of sectors on the file system */
 1388              		.loc 1 793 0
 1389 00c2 DB88     		ldrh	r3, [r3, #6]
 1390              	.LVL210:
 794:.\pff.c       **** 	if (!tsect) tsect = LD_DWORD(buf+BPB_TotSec32-13);
 1391              		.loc 1 794 0
 1392 00c4 002B     		cmp	r3, #0
 1393 00c6 0BD1     		bne	.L110
 1394              		.loc 1 794 0 is_stmt 0 discriminator 1
 1395 00c8 1733     		add	r3, r3, #23
 1396              	.LVL211:
 1397 00ca 6B44     		add	r3, r3, sp
 1398              	.LVL212:
 1399 00cc 1878     		ldrb	r0, [r3]
 1400 00ce 5A78     		ldrb	r2, [r3, #1]
 1401 00d0 1202     		lsl	r2, r2, #8
 1402 00d2 1043     		orr	r0, r2
 1403 00d4 9A78     		ldrb	r2, [r3, #2]
 1404 00d6 1204     		lsl	r2, r2, #16
 1405 00d8 0243     		orr	r2, r0
 1406 00da DB78     		ldrb	r3, [r3, #3]
 1407 00dc 1B06     		lsl	r3, r3, #24
 1408 00de 1343     		orr	r3, r2
 1409              	.LVL213:
 1410              	.L110:
 795:.\pff.c       **** 	mclst = (tsect						/* Last cluster# + 1 */
 796:.\pff.c       **** 		- LD_WORD(buf+BPB_RsvdSecCnt-13) - fsize - fs->n_rootdir / 16
 1411              		.loc 1 796 0 is_stmt 1
 1412 00e0 6A46     		mov	r2, sp
 1413 00e2 5079     		ldrb	r0, [r2, #5]
 1414 00e4 0532     		add	r2, r2, #5
 1415 00e6 5278     		ldrb	r2, [r2, #1]
 1416 00e8 1202     		lsl	r2, r2, #8
 1417 00ea 1043     		orr	r0, r2
 1418 00ec 181A     		sub	r0, r3, r0
 1419 00ee C01B     		sub	r0, r0, r7
 1420 00f0 6346     		mov	r3, ip
 1421              	.LVL214:
 1422 00f2 1B09     		lsr	r3, r3, #4
 1423 00f4 9846     		mov	r8, r3
 1424 00f6 C01A     		sub	r0, r0, r3
 797:.\pff.c       **** 		) / fs->csize + 2;
 1425              		.loc 1 797 0
 1426 00f8 FFF7FEFF 		bl	__aeabi_uidiv
 1427              	.LVL215:
ARM GAS  C:\Users\Petro\AppData\Local\Temp\cc5IgTu7.s 			page 42


 795:.\pff.c       **** 	mclst = (tsect						/* Last cluster# + 1 */
 1428              		.loc 1 795 0
 1429 00fc 831C     		add	r3, r0, #2
 1430              	.LVL216:
 798:.\pff.c       **** 	fs->n_fatent = (CLUST)mclst;
 1431              		.loc 1 798 0
 1432 00fe A360     		str	r3, [r4, #8]
 1433              	.LVL217:
 799:.\pff.c       **** 
 800:.\pff.c       **** 	fmt = 0;							/* Determine the FAT sub type */
 801:.\pff.c       **** 	if (_FS_FAT12 && mclst < 0xFF7)
 1434              		.loc 1 801 0
 1435 0100 1E4A     		ldr	r2, .L127+4
 1436 0102 9342     		cmp	r3, r2
 1437 0104 00D8     		bhi	.L111
 802:.\pff.c       **** 		fmt = FS_FAT12;
 1438              		.loc 1 802 0
 1439 0106 0125     		mov	r5, #1
 1440              	.L111:
 1441              	.LVL218:
 803:.\pff.c       **** 	if (_FS_FAT16 && mclst >= 0xFF8 && mclst < 0xFFF7)
 1442              		.loc 1 803 0
 1443 0108 1D4A     		ldr	r2, .L127+8
 1444 010a 9446     		mov	ip, r2
 1445 010c 6044     		add	r0, r0, ip
 1446 010e 1D4A     		ldr	r2, .L127+12
 1447 0110 9042     		cmp	r0, r2
 1448 0112 00D8     		bhi	.L112
 804:.\pff.c       **** 		fmt = FS_FAT16;
 1449              		.loc 1 804 0
 1450 0114 0225     		mov	r5, #2
 1451              	.LVL219:
 1452              	.L112:
 805:.\pff.c       **** 	if (_FS_FAT32 && mclst >= 0xFFF7)
 1453              		.loc 1 805 0
 1454 0116 1C4A     		ldr	r2, .L127+16
 1455 0118 9342     		cmp	r3, r2
 1456 011a 00D9     		bls	.L113
 806:.\pff.c       **** 		fmt = FS_FAT32;
 1457              		.loc 1 806 0
 1458 011c 0325     		mov	r5, #3
 1459              	.LVL220:
 1460              	.L113:
 807:.\pff.c       **** 	if (!fmt) return FR_NO_FILESYSTEM;
 1461              		.loc 1 807 0
 1462 011e 002D     		cmp	r5, #0
 1463 0120 24D0     		beq	.L126
 808:.\pff.c       **** 	fs->fs_type = fmt;
 1464              		.loc 1 808 0
 1465 0122 2570     		strb	r5, [r4]
 809:.\pff.c       **** 
 810:.\pff.c       **** 	if (_FS_32ONLY || (_FS_FAT32 && fmt == FS_FAT32))
 1466              		.loc 1 810 0
 1467 0124 032D     		cmp	r5, #3
 1468 0126 0ED1     		bne	.L114
 811:.\pff.c       **** 		fs->dirbase = LD_DWORD(buf+(BPB_RootClus-13));	/* Root directory start cluster */
 1469              		.loc 1 811 0
ARM GAS  C:\Users\Petro\AppData\Local\Temp\cc5IgTu7.s 			page 43


 1470 0128 2320     		mov	r0, #35
 1471 012a 6844     		add	r0, r0, sp
 1472 012c 0378     		ldrb	r3, [r0]
 1473              	.LVL221:
 1474 012e 4278     		ldrb	r2, [r0, #1]
 1475 0130 1202     		lsl	r2, r2, #8
 1476 0132 1A43     		orr	r2, r3
 1477 0134 8378     		ldrb	r3, [r0, #2]
 1478 0136 1B04     		lsl	r3, r3, #16
 1479 0138 1343     		orr	r3, r2
 1480 013a 1A1C     		mov	r2, r3
 1481 013c C378     		ldrb	r3, [r0, #3]
 1482 013e 1B06     		lsl	r3, r3, #24
 1483 0140 1343     		orr	r3, r2
 1484 0142 2361     		str	r3, [r4, #16]
 1485 0144 01E0     		b	.L115
 1486              	.LVL222:
 1487              	.L114:
 812:.\pff.c       **** 	else
 813:.\pff.c       **** 		fs->dirbase = fs->fatbase + fsize;				/* Root directory start sector (lba) */
 1488              		.loc 1 813 0
 1489 0146 BB19     		add	r3, r7, r6
 1490              	.LVL223:
 1491 0148 2361     		str	r3, [r4, #16]
 1492              	.L115:
 814:.\pff.c       **** 	fs->database = fs->fatbase + fsize + fs->n_rootdir / 16;	/* Data start sector (lba) */
 1493              		.loc 1 814 0
 1494 014a BE19     		add	r6, r7, r6
 1495 014c 4644     		add	r6, r6, r8
 1496 014e 6661     		str	r6, [r4, #20]
 815:.\pff.c       **** 
 816:.\pff.c       **** 	fs->flag = 0;
 1497              		.loc 1 816 0
 1498 0150 0023     		mov	r3, #0
 1499 0152 6370     		strb	r3, [r4, #1]
 817:.\pff.c       **** 	FatFs = fs;
 1500              		.loc 1 817 0
 1501 0154 084B     		ldr	r3, .L127
 1502 0156 1C60     		str	r4, [r3]
 818:.\pff.c       **** 
 819:.\pff.c       **** 	return FR_OK;
 1503              		.loc 1 819 0
 1504 0158 0020     		mov	r0, #0
 1505 015a 08E0     		b	.L107
 1506              	.LVL224:
 1507              	.L116:
 764:.\pff.c       **** 
 1508              		.loc 1 764 0
 1509 015c 0220     		mov	r0, #2
 1510 015e 06E0     		b	.L107
 1511              	.LVL225:
 1512              	.L120:
 780:.\pff.c       **** 	if (fmt) return FR_NO_FILESYSTEM;	/* No valid FAT patition is found */
 1513              		.loc 1 780 0
 1514 0160 0120     		mov	r0, #1
 1515 0162 04E0     		b	.L107
 1516              	.L121:
ARM GAS  C:\Users\Petro\AppData\Local\Temp\cc5IgTu7.s 			page 44


 781:.\pff.c       **** 
 1517              		.loc 1 781 0
 1518 0164 0620     		mov	r0, #6
 1519 0166 02E0     		b	.L107
 1520              	.L122:
 784:.\pff.c       **** 
 1521              		.loc 1 784 0
 1522 0168 0120     		mov	r0, #1
 1523 016a 00E0     		b	.L107
 1524              	.LVL226:
 1525              	.L126:
 807:.\pff.c       **** 	fs->fs_type = fmt;
 1526              		.loc 1 807 0
 1527 016c 0620     		mov	r0, #6
 1528              	.LVL227:
 1529              	.L107:
 820:.\pff.c       **** }
 1530              		.loc 1 820 0
 1531 016e 0AB0     		add	sp, sp, #40
 1532              		@ sp needed
 1533              	.LVL228:
 1534 0170 04BC     		pop	{r2}
 1535 0172 9046     		mov	r8, r2
 1536 0174 F0BD     		pop	{r4, r5, r6, r7, pc}
 1537              	.L128:
 1538 0176 C046     		.align	2
 1539              	.L127:
 1540 0178 00000000 		.word	.LANCHOR0
 1541 017c F60F0000 		.word	4086
 1542 0180 0AF0FFFF 		.word	-4086
 1543 0184 FEEF0000 		.word	61438
 1544 0188 F6FF0000 		.word	65526
 1545              		.cfi_endproc
 1546              	.LFE13:
 1547              		.size	pf_mount, .-pf_mount
 1548              		.section	.text.pf_open,"ax",%progbits
 1549              		.align	2
 1550              		.global	pf_open
 1551              		.code	16
 1552              		.thumb_func
 1553              		.type	pf_open, %function
 1554              	pf_open:
 1555              	.LFB14:
 821:.\pff.c       **** 
 822:.\pff.c       **** 
 823:.\pff.c       **** 
 824:.\pff.c       **** 
 825:.\pff.c       **** /*-----------------------------------------------------------------------*/
 826:.\pff.c       **** /* Open or Create a File                                                 */
 827:.\pff.c       **** /*-----------------------------------------------------------------------*/
 828:.\pff.c       **** 
 829:.\pff.c       **** FRESULT pf_open (
 830:.\pff.c       **** 	const char *path	/* Pointer to the file name */
 831:.\pff.c       **** )
 832:.\pff.c       **** {
 1556              		.loc 1 832 0
 1557              		.cfi_startproc
ARM GAS  C:\Users\Petro\AppData\Local\Temp\cc5IgTu7.s 			page 45


 1558              	.LVL229:
 1559 0000 10B5     		push	{r4, lr}
 1560              		.cfi_def_cfa_offset 8
 1561              		.cfi_offset 4, -8
 1562              		.cfi_offset 14, -4
 1563 0002 90B0     		sub	sp, sp, #64
 1564              		.cfi_def_cfa_offset 72
 833:.\pff.c       **** 	FRESULT res;
 834:.\pff.c       **** 	DIR dj;
 835:.\pff.c       **** 	BYTE sp[12], dir[32];
 836:.\pff.c       **** 	FATFS *fs = FatFs;
 1565              		.loc 1 836 0
 1566 0004 144B     		ldr	r3, .L135
 1567 0006 1C68     		ldr	r4, [r3]
 1568              	.LVL230:
 837:.\pff.c       **** 
 838:.\pff.c       **** 
 839:.\pff.c       **** 	if (!fs) return FR_NOT_ENABLED;		/* Check file system */
 1569              		.loc 1 839 0
 1570 0008 002C     		cmp	r4, #0
 1571 000a 1ED0     		beq	.L131
 1572 000c 021C     		mov	r2, r0
 840:.\pff.c       **** 
 841:.\pff.c       **** 	fs->flag = 0;
 1573              		.loc 1 841 0
 1574 000e 0023     		mov	r3, #0
 1575 0010 6370     		strb	r3, [r4, #1]
 842:.\pff.c       **** 	dj.fn = sp;
 1576              		.loc 1 842 0
 1577 0012 08AB     		add	r3, sp, #32
 1578 0014 0C93     		str	r3, [sp, #48]
 843:.\pff.c       **** 	res = follow_path(&dj, dir, path);	/* Follow the file path */
 1579              		.loc 1 843 0
 1580 0016 0BA8     		add	r0, sp, #44
 1581              	.LVL231:
 1582 0018 6946     		mov	r1, sp
 1583 001a FFF7FEFF 		bl	follow_path
 1584              	.LVL232:
 844:.\pff.c       **** 	if (res != FR_OK) return res;		/* Follow failed */
 1585              		.loc 1 844 0
 1586 001e 0028     		cmp	r0, #0
 1587 0020 18D1     		bne	.L130
 845:.\pff.c       **** 	if (!dir[0] || (dir[DIR_Attr] & AM_DIR))	/* It is a directory */
 1588              		.loc 1 845 0
 1589 0022 6B46     		mov	r3, sp
 1590 0024 1B78     		ldrb	r3, [r3]
 1591 0026 002B     		cmp	r3, #0
 1592 0028 11D0     		beq	.L133
 1593              		.loc 1 845 0 is_stmt 0 discriminator 1
 1594 002a 6B46     		mov	r3, sp
 1595 002c DB7A     		ldrb	r3, [r3, #11]
 1596 002e DB06     		lsl	r3, r3, #27
 1597 0030 0FD4     		bmi	.L134
 846:.\pff.c       **** 		return FR_NO_FILE;
 847:.\pff.c       **** 
 848:.\pff.c       **** 	fs->org_clust = get_clust(dir);		/* File start cluster */
 1598              		.loc 1 848 0 is_stmt 1
ARM GAS  C:\Users\Petro\AppData\Local\Temp\cc5IgTu7.s 			page 46


 1599 0032 6846     		mov	r0, sp
 1600              	.LVL233:
 1601 0034 FFF7FEFF 		bl	get_clust
 1602              	.LVL234:
 1603 0038 2062     		str	r0, [r4, #32]
 849:.\pff.c       **** 	fs->fsize = LD_DWORD(dir+DIR_FileSize);	/* File size */
 1604              		.loc 1 849 0
 1605 003a 079B     		ldr	r3, [sp, #28]
 1606 003c E361     		str	r3, [r4, #28]
 850:.\pff.c       **** 	fs->fptr = 0;						/* File pointer */
 1607              		.loc 1 850 0
 1608 003e 0023     		mov	r3, #0
 1609 0040 A361     		str	r3, [r4, #24]
 851:.\pff.c       **** 	fs->flag = FA_OPENED;
 1610              		.loc 1 851 0
 1611 0042 0133     		add	r3, r3, #1
 1612 0044 6370     		strb	r3, [r4, #1]
 852:.\pff.c       **** 
 853:.\pff.c       **** 	return FR_OK;
 1613              		.loc 1 853 0
 1614 0046 0020     		mov	r0, #0
 1615 0048 04E0     		b	.L130
 1616              	.LVL235:
 1617              	.L131:
 839:.\pff.c       **** 
 1618              		.loc 1 839 0
 1619 004a 0520     		mov	r0, #5
 1620              	.LVL236:
 1621 004c 02E0     		b	.L130
 1622              	.LVL237:
 1623              	.L133:
 846:.\pff.c       **** 
 1624              		.loc 1 846 0
 1625 004e 0320     		mov	r0, #3
 1626              	.LVL238:
 1627 0050 00E0     		b	.L130
 1628              	.LVL239:
 1629              	.L134:
 1630 0052 0320     		mov	r0, #3
 1631              	.LVL240:
 1632              	.L130:
 854:.\pff.c       **** }
 1633              		.loc 1 854 0
 1634 0054 10B0     		add	sp, sp, #64
 1635              		@ sp needed
 1636              	.LVL241:
 1637 0056 10BD     		pop	{r4, pc}
 1638              	.L136:
 1639              		.align	2
 1640              	.L135:
 1641 0058 00000000 		.word	.LANCHOR0
 1642              		.cfi_endproc
 1643              	.LFE14:
 1644              		.size	pf_open, .-pf_open
 1645              		.section	.text.pf_read,"ax",%progbits
 1646              		.align	2
 1647              		.global	pf_read
ARM GAS  C:\Users\Petro\AppData\Local\Temp\cc5IgTu7.s 			page 47


 1648              		.code	16
 1649              		.thumb_func
 1650              		.type	pf_read, %function
 1651              	pf_read:
 1652              	.LFB15:
 855:.\pff.c       **** 
 856:.\pff.c       **** 
 857:.\pff.c       **** 
 858:.\pff.c       **** 
 859:.\pff.c       **** /*-----------------------------------------------------------------------*/
 860:.\pff.c       **** /* Read File                                                             */
 861:.\pff.c       **** /*-----------------------------------------------------------------------*/
 862:.\pff.c       **** #if _USE_READ
 863:.\pff.c       **** 
 864:.\pff.c       **** FRESULT pf_read (
 865:.\pff.c       **** 	void* buff,		/* Pointer to the read buffer (NULL:Forward data to the stream)*/
 866:.\pff.c       **** 	UINT btr,		/* Number of bytes to read */
 867:.\pff.c       **** 	UINT* br		/* Pointer to number of bytes read */
 868:.\pff.c       **** )
 869:.\pff.c       **** {
 1653              		.loc 1 869 0
 1654              		.cfi_startproc
 1655              	.LVL242:
 1656 0000 F8B5     		push	{r3, r4, r5, r6, r7, lr}
 1657              		.cfi_def_cfa_offset 24
 1658              		.cfi_offset 3, -24
 1659              		.cfi_offset 4, -20
 1660              		.cfi_offset 5, -16
 1661              		.cfi_offset 6, -12
 1662              		.cfi_offset 7, -8
 1663              		.cfi_offset 14, -4
 1664 0002 4F46     		mov	r7, r9
 1665 0004 4646     		mov	r6, r8
 1666 0006 C0B4     		push	{r6, r7}
 1667              		.cfi_def_cfa_offset 32
 1668              		.cfi_offset 8, -32
 1669              		.cfi_offset 9, -28
 1670              	.LVL243:
 870:.\pff.c       **** 	DRESULT dr;
 871:.\pff.c       **** 	CLUST clst;
 872:.\pff.c       **** 	DWORD sect, remain;
 873:.\pff.c       **** 	UINT rcnt;
 874:.\pff.c       **** 	BYTE cs, *rbuff = buff;
 875:.\pff.c       **** 	FATFS *fs = FatFs;
 1671              		.loc 1 875 0
 1672 0008 314B     		ldr	r3, .L155
 1673 000a 1D68     		ldr	r5, [r3]
 1674              	.LVL244:
 876:.\pff.c       **** 
 877:.\pff.c       **** 
 878:.\pff.c       **** 	*br = 0;
 1675              		.loc 1 878 0
 1676 000c 0023     		mov	r3, #0
 1677 000e 1360     		str	r3, [r2]
 879:.\pff.c       **** 	if (!fs) return FR_NOT_ENABLED;		/* Check file system */
 1678              		.loc 1 879 0
 1679 0010 002D     		cmp	r5, #0
ARM GAS  C:\Users\Petro\AppData\Local\Temp\cc5IgTu7.s 			page 48


 1680 0012 56D0     		beq	.L151
 880:.\pff.c       **** 	if (!(fs->flag & FA_OPENED))		/* Check if opened */
 1681              		.loc 1 880 0
 1682 0014 6B78     		ldrb	r3, [r5, #1]
 1683 0016 DB07     		lsl	r3, r3, #31
 1684 0018 55D5     		bpl	.L152
 881:.\pff.c       **** 		return FR_NOT_OPENED;
 882:.\pff.c       **** 
 883:.\pff.c       **** 	remain = fs->fsize - fs->fptr;
 1685              		.loc 1 883 0
 1686 001a EB69     		ldr	r3, [r5, #28]
 1687 001c AC69     		ldr	r4, [r5, #24]
 1688 001e 1E1B     		sub	r6, r3, r4
 1689              	.LVL245:
 884:.\pff.c       **** 	if (btr > remain) btr = (UINT)remain;			/* Truncate btr by remaining bytes */
 1690              		.loc 1 884 0
 1691 0020 B142     		cmp	r1, r6
 1692 0022 00D8     		bhi	.L139
 1693 0024 0E1C     		mov	r6, r1
 1694              	.LVL246:
 1695              	.L139:
 1696 0026 9046     		mov	r8, r2
 1697 0028 8146     		mov	r9, r0
 885:.\pff.c       **** 
 886:.\pff.c       **** 	while (btr)	{									/* Repeat until all data transferred */
 887:.\pff.c       **** 		if ((fs->fptr % 512) == 0) {				/* On the sector boundary? */
 888:.\pff.c       **** 			cs = (BYTE)(fs->fptr / 512 & (fs->csize - 1));	/* Sector offset in the cluster */
 889:.\pff.c       **** 			if (!cs) {								/* On the cluster boundary? */
 890:.\pff.c       **** 				if (fs->fptr == 0)					/* On the top of the file? */
 891:.\pff.c       **** 					clst = fs->org_clust;
 892:.\pff.c       **** 				else
 893:.\pff.c       **** 					clst = get_fat(fs->curr_clust);
 894:.\pff.c       **** 				if (clst <= 1) ABORT(FR_DISK_ERR);
 895:.\pff.c       **** 				fs->curr_clust = clst;				/* Update current cluster */
 896:.\pff.c       **** 			}
 897:.\pff.c       **** 			sect = clust2sect(fs->curr_clust);		/* Get current sector */
 898:.\pff.c       **** 			if (!sect) ABORT(FR_DISK_ERR);
 899:.\pff.c       **** 			fs->dsect = sect + cs;
 900:.\pff.c       **** 		}
 901:.\pff.c       **** 		rcnt = 512 - (UINT)fs->fptr % 512;			/* Get partial sector data from sector buffer */
 902:.\pff.c       **** 		if (rcnt > btr) rcnt = btr;
 903:.\pff.c       **** 		dr = disk_readp(!buff ? 0 : rbuff, fs->dsect, (UINT)fs->fptr % 512, rcnt);
 1698              		.loc 1 903 0
 1699 002a 071C     		mov	r7, r0
 1700 002c 45E0     		b	.L140
 1701              	.LVL247:
 1702              	.L150:
 887:.\pff.c       **** 			cs = (BYTE)(fs->fptr / 512 & (fs->csize - 1));	/* Sector offset in the cluster */
 1703              		.loc 1 887 0
 1704 002e AA69     		ldr	r2, [r5, #24]
 1705 0030 D305     		lsl	r3, r2, #23
 1706 0032 1ED1     		bne	.L141
 888:.\pff.c       **** 			if (!cs) {								/* On the cluster boundary? */
 1707              		.loc 1 888 0
 1708 0034 540A     		lsr	r4, r2, #9
 1709 0036 AB78     		ldrb	r3, [r5, #2]
 1710 0038 013B     		sub	r3, r3, #1
ARM GAS  C:\Users\Petro\AppData\Local\Temp\cc5IgTu7.s 			page 49


 1711 003a DBB2     		uxtb	r3, r3
 1712 003c 1C40     		and	r4, r3
 1713              	.LVL248:
 889:.\pff.c       **** 				if (fs->fptr == 0)					/* On the top of the file? */
 1714              		.loc 1 889 0
 1715 003e 0DD1     		bne	.L142
 890:.\pff.c       **** 					clst = fs->org_clust;
 1716              		.loc 1 890 0
 1717 0040 002A     		cmp	r2, #0
 1718 0042 01D1     		bne	.L143
 891:.\pff.c       **** 				else
 1719              		.loc 1 891 0
 1720 0044 286A     		ldr	r0, [r5, #32]
 1721              	.LVL249:
 1722 0046 02E0     		b	.L144
 1723              	.LVL250:
 1724              	.L143:
 893:.\pff.c       **** 				if (clst <= 1) ABORT(FR_DISK_ERR);
 1725              		.loc 1 893 0
 1726 0048 686A     		ldr	r0, [r5, #36]
 1727 004a FFF7FEFF 		bl	get_fat
 1728              	.LVL251:
 1729              	.L144:
 894:.\pff.c       **** 				fs->curr_clust = clst;				/* Update current cluster */
 1730              		.loc 1 894 0
 1731 004e 0128     		cmp	r0, #1
 1732 0050 03D8     		bhi	.L145
 894:.\pff.c       **** 				fs->curr_clust = clst;				/* Update current cluster */
 1733              		.loc 1 894 0 is_stmt 0 discriminator 1
 1734 0052 0023     		mov	r3, #0
 1735 0054 6B70     		strb	r3, [r5, #1]
 1736 0056 0120     		mov	r0, #1
 1737              	.LVL252:
 1738 0058 36E0     		b	.L138
 1739              	.LVL253:
 1740              	.L145:
 895:.\pff.c       **** 			}
 1741              		.loc 1 895 0 is_stmt 1
 1742 005a 6862     		str	r0, [r5, #36]
 1743              	.LVL254:
 1744              	.L142:
 897:.\pff.c       **** 			if (!sect) ABORT(FR_DISK_ERR);
 1745              		.loc 1 897 0
 1746 005c 686A     		ldr	r0, [r5, #36]
 1747 005e FFF7FEFF 		bl	clust2sect
 1748              	.LVL255:
 898:.\pff.c       **** 			fs->dsect = sect + cs;
 1749              		.loc 1 898 0
 1750 0062 0028     		cmp	r0, #0
 1751 0064 03D1     		bne	.L146
 898:.\pff.c       **** 			fs->dsect = sect + cs;
 1752              		.loc 1 898 0 is_stmt 0 discriminator 1
 1753 0066 0023     		mov	r3, #0
 1754 0068 6B70     		strb	r3, [r5, #1]
 1755 006a 0130     		add	r0, r0, #1
 1756              	.LVL256:
 1757 006c 2CE0     		b	.L138
ARM GAS  C:\Users\Petro\AppData\Local\Temp\cc5IgTu7.s 			page 50


 1758              	.LVL257:
 1759              	.L146:
 899:.\pff.c       **** 		}
 1760              		.loc 1 899 0 is_stmt 1
 1761 006e 2018     		add	r0, r4, r0
 1762              	.LVL258:
 1763 0070 A862     		str	r0, [r5, #40]
 1764              	.LVL259:
 1765              	.L141:
 901:.\pff.c       **** 		if (rcnt > btr) rcnt = btr;
 1766              		.loc 1 901 0
 1767 0072 AB69     		ldr	r3, [r5, #24]
 1768 0074 DA05     		lsl	r2, r3, #23
 1769 0076 D20D     		lsr	r2, r2, #23
 1770 0078 8024     		mov	r4, #128
 1771 007a A400     		lsl	r4, r4, #2
 1772 007c A41A     		sub	r4, r4, r2
 1773              	.LVL260:
 902:.\pff.c       **** 		dr = disk_readp(!buff ? 0 : rbuff, fs->dsect, (UINT)fs->fptr % 512, rcnt);
 1774              		.loc 1 902 0
 1775 007e B442     		cmp	r4, r6
 1776 0080 00D9     		bls	.L147
 1777 0082 341C     		mov	r4, r6
 1778              	.LVL261:
 1779              	.L147:
 1780              		.loc 1 903 0
 1781 0084 4B46     		mov	r3, r9
 1782 0086 002B     		cmp	r3, #0
 1783 0088 01D1     		bne	.L154
 1784              	.LVL262:
 1785 008a 0020     		mov	r0, #0
 1786 008c 00E0     		b	.L148
 1787              	.L154:
 1788 008e 381C     		mov	r0, r7
 1789              	.L148:
 1790              		.loc 1 903 0 is_stmt 0 discriminator 4
 1791 0090 A96A     		ldr	r1, [r5, #40]
 1792 0092 231C     		mov	r3, r4
 1793              	.LVL263:
 1794 0094 FFF7FEFF 		bl	disk_readp
 1795              	.LVL264:
 904:.\pff.c       **** 		if (dr) ABORT(FR_DISK_ERR);
 1796              		.loc 1 904 0 is_stmt 1 discriminator 4
 1797 0098 0028     		cmp	r0, #0
 1798 009a 03D0     		beq	.L149
 1799              		.loc 1 904 0 is_stmt 0 discriminator 1
 1800 009c 0023     		mov	r3, #0
 1801 009e 6B70     		strb	r3, [r5, #1]
 1802 00a0 0120     		mov	r0, #1
 1803              	.LVL265:
 1804 00a2 11E0     		b	.L138
 1805              	.LVL266:
 1806              	.L149:
 905:.\pff.c       **** 		fs->fptr += rcnt; rbuff += rcnt;			/* Update pointers and counters */
 1807              		.loc 1 905 0 is_stmt 1
 1808 00a4 AB69     		ldr	r3, [r5, #24]
 1809 00a6 1B19     		add	r3, r3, r4
ARM GAS  C:\Users\Petro\AppData\Local\Temp\cc5IgTu7.s 			page 51


 1810 00a8 AB61     		str	r3, [r5, #24]
 1811 00aa 3F19     		add	r7, r7, r4
 1812              	.LVL267:
 906:.\pff.c       **** 		btr -= rcnt; *br += rcnt;
 1813              		.loc 1 906 0
 1814 00ac 361B     		sub	r6, r6, r4
 1815              	.LVL268:
 1816 00ae 4346     		mov	r3, r8
 1817 00b0 1B68     		ldr	r3, [r3]
 1818 00b2 9C46     		mov	ip, r3
 1819 00b4 6444     		add	r4, r4, ip
 1820              	.LVL269:
 1821 00b6 4346     		mov	r3, r8
 1822 00b8 1C60     		str	r4, [r3]
 1823              	.LVL270:
 1824              	.L140:
 886:.\pff.c       **** 		if ((fs->fptr % 512) == 0) {				/* On the sector boundary? */
 1825              		.loc 1 886 0
 1826 00ba 002E     		cmp	r6, #0
 1827 00bc B7D1     		bne	.L150
 907:.\pff.c       **** 	}
 908:.\pff.c       **** 
 909:.\pff.c       **** 	return FR_OK;
 1828              		.loc 1 909 0
 1829 00be 0020     		mov	r0, #0
 1830 00c0 02E0     		b	.L138
 1831              	.LVL271:
 1832              	.L151:
 879:.\pff.c       **** 	if (!(fs->flag & FA_OPENED))		/* Check if opened */
 1833              		.loc 1 879 0
 1834 00c2 0520     		mov	r0, #5
 1835              	.LVL272:
 1836 00c4 00E0     		b	.L138
 1837              	.LVL273:
 1838              	.L152:
 881:.\pff.c       **** 
 1839              		.loc 1 881 0
 1840 00c6 0420     		mov	r0, #4
 1841              	.LVL274:
 1842              	.L138:
 910:.\pff.c       **** }
 1843              		.loc 1 910 0
 1844              		@ sp needed
 1845              	.LVL275:
 1846 00c8 0CBC     		pop	{r2, r3}
 1847 00ca 9046     		mov	r8, r2
 1848 00cc 9946     		mov	r9, r3
 1849 00ce F8BD     		pop	{r3, r4, r5, r6, r7, pc}
 1850              	.L156:
 1851              		.align	2
 1852              	.L155:
 1853 00d0 00000000 		.word	.LANCHOR0
 1854              		.cfi_endproc
 1855              	.LFE15:
 1856              		.size	pf_read, .-pf_read
 1857              		.section	.text.pf_write,"ax",%progbits
 1858              		.align	2
ARM GAS  C:\Users\Petro\AppData\Local\Temp\cc5IgTu7.s 			page 52


 1859              		.global	pf_write
 1860              		.code	16
 1861              		.thumb_func
 1862              		.type	pf_write, %function
 1863              	pf_write:
 1864              	.LFB16:
 911:.\pff.c       **** #endif
 912:.\pff.c       **** 
 913:.\pff.c       **** 
 914:.\pff.c       **** 
 915:.\pff.c       **** /*-----------------------------------------------------------------------*/
 916:.\pff.c       **** /* Write File                                                            */
 917:.\pff.c       **** /*-----------------------------------------------------------------------*/
 918:.\pff.c       **** #if _USE_WRITE
 919:.\pff.c       **** 
 920:.\pff.c       **** FRESULT pf_write (
 921:.\pff.c       **** 	const void* buff,	/* Pointer to the data to be written */
 922:.\pff.c       **** 	UINT btw,			/* Number of bytes to write (0:Finalize the current write operation) */
 923:.\pff.c       **** 	UINT* bw			/* Pointer to number of bytes written */
 924:.\pff.c       **** )
 925:.\pff.c       **** {
 1865              		.loc 1 925 0
 1866              		.cfi_startproc
 1867              	.LVL276:
 1868 0000 F0B5     		push	{r4, r5, r6, r7, lr}
 1869              		.cfi_def_cfa_offset 20
 1870              		.cfi_offset 4, -20
 1871              		.cfi_offset 5, -16
 1872              		.cfi_offset 6, -12
 1873              		.cfi_offset 7, -8
 1874              		.cfi_offset 14, -4
 1875 0002 4746     		mov	r7, r8
 1876 0004 80B4     		push	{r7}
 1877              		.cfi_def_cfa_offset 24
 1878              		.cfi_offset 8, -24
 1879 0006 071C     		mov	r7, r0
 1880 0008 9046     		mov	r8, r2
 1881              	.LVL277:
 926:.\pff.c       **** 	CLUST clst;
 927:.\pff.c       **** 	DWORD sect, remain;
 928:.\pff.c       **** 	const BYTE *p = buff;
 929:.\pff.c       **** 	BYTE cs;
 930:.\pff.c       **** 	UINT wcnt;
 931:.\pff.c       **** 	FATFS *fs = FatFs;
 1882              		.loc 1 931 0
 1883 000a 494B     		ldr	r3, .L179
 1884 000c 1D68     		ldr	r5, [r3]
 1885              	.LVL278:
 932:.\pff.c       **** 
 933:.\pff.c       **** 
 934:.\pff.c       **** 	*bw = 0;
 1886              		.loc 1 934 0
 1887 000e 0023     		mov	r3, #0
 1888 0010 1360     		str	r3, [r2]
 935:.\pff.c       **** 	if (!fs) return FR_NOT_ENABLED;		/* Check file system */
 1889              		.loc 1 935 0
 1890 0012 002D     		cmp	r5, #0
ARM GAS  C:\Users\Petro\AppData\Local\Temp\cc5IgTu7.s 			page 53


 1891 0014 00D1     		bne	.LCB2067
 1892 0016 85E0     		b	.L176	@long jump
 1893              	.LCB2067:
 936:.\pff.c       **** 	if (!(fs->flag & FA_OPENED))		/* Check if opened */
 1894              		.loc 1 936 0
 1895 0018 6B78     		ldrb	r3, [r5, #1]
 1896 001a DA07     		lsl	r2, r3, #31
 1897 001c 00D4     		bmi	.LCB2073
 1898 001e 83E0     		b	.L177	@long jump
 1899              	.LCB2073:
 1900              	.LVL279:
 937:.\pff.c       **** 		return FR_NOT_OPENED;
 938:.\pff.c       **** 
 939:.\pff.c       **** 	if (!btw) {		/* Finalize request */
 1901              		.loc 1 939 0
 1902 0020 0029     		cmp	r1, #0
 1903 0022 10D1     		bne	.L159
 940:.\pff.c       **** 		if ((fs->flag & FA__WIP) && disk_writep(0, 0)) ABORT(FR_DISK_ERR);
 1904              		.loc 1 940 0
 1905 0024 5B06     		lsl	r3, r3, #25
 1906 0026 08D5     		bpl	.L160
 1907              		.loc 1 940 0 is_stmt 0 discriminator 1
 1908 0028 0020     		mov	r0, #0
 1909              	.LVL280:
 1910 002a FFF7FEFF 		bl	disk_writep
 1911              	.LVL281:
 1912 002e 0028     		cmp	r0, #0
 1913 0030 03D0     		beq	.L160
 1914              		.loc 1 940 0 discriminator 2
 1915 0032 0023     		mov	r3, #0
 1916 0034 6B70     		strb	r3, [r5, #1]
 1917 0036 0120     		mov	r0, #1
 1918 0038 77E0     		b	.L158
 1919              	.L160:
 941:.\pff.c       **** 		fs->flag &= ~FA__WIP;
 1920              		.loc 1 941 0 is_stmt 1
 1921 003a 6B78     		ldrb	r3, [r5, #1]
 1922 003c 4022     		mov	r2, #64
 1923 003e 9343     		bic	r3, r2
 1924 0040 6B70     		strb	r3, [r5, #1]
 942:.\pff.c       **** 		return FR_OK;
 1925              		.loc 1 942 0
 1926 0042 0020     		mov	r0, #0
 1927 0044 71E0     		b	.L158
 1928              	.LVL282:
 1929              	.L159:
 943:.\pff.c       **** 	} else {		/* Write data request */
 944:.\pff.c       **** 		if (!(fs->flag & FA__WIP))		/* Round-down fptr to the sector boundary */
 1930              		.loc 1 944 0
 1931 0046 5B06     		lsl	r3, r3, #25
 1932 0048 03D4     		bmi	.L161
 945:.\pff.c       **** 			fs->fptr &= 0xFFFFFE00;
 1933              		.loc 1 945 0
 1934 004a AB69     		ldr	r3, [r5, #24]
 1935 004c 5B0A     		lsr	r3, r3, #9
 1936 004e 5B02     		lsl	r3, r3, #9
 1937 0050 AB61     		str	r3, [r5, #24]
ARM GAS  C:\Users\Petro\AppData\Local\Temp\cc5IgTu7.s 			page 54


 1938              	.L161:
 946:.\pff.c       **** 	}
 947:.\pff.c       **** 	remain = fs->fsize - fs->fptr;
 1939              		.loc 1 947 0
 1940 0052 EB69     		ldr	r3, [r5, #28]
 1941 0054 AA69     		ldr	r2, [r5, #24]
 1942 0056 9E1A     		sub	r6, r3, r2
 1943              	.LVL283:
 948:.\pff.c       **** 	if (btw > remain) btw = (UINT)remain;			/* Truncate btw by remaining bytes */
 1944              		.loc 1 948 0
 1945 0058 B142     		cmp	r1, r6
 1946 005a 5FD8     		bhi	.L163
 1947 005c 0E1C     		mov	r6, r1
 1948              	.LVL284:
 1949 005e 5DE0     		b	.L163
 1950              	.LVL285:
 1951              	.L175:
 949:.\pff.c       **** 
 950:.\pff.c       **** 	while (btw)	{									/* Repeat until all data transferred */
 951:.\pff.c       **** 		if ((UINT)fs->fptr % 512 == 0) {			/* On the sector boundary? */
 1952              		.loc 1 951 0
 1953 0060 AA69     		ldr	r2, [r5, #24]
 1954 0062 D305     		lsl	r3, r2, #23
 1955 0064 2BD1     		bne	.L164
 952:.\pff.c       **** 			cs = (BYTE)(fs->fptr / 512 & (fs->csize - 1));	/* Sector offset in the cluster */
 1956              		.loc 1 952 0
 1957 0066 540A     		lsr	r4, r2, #9
 1958 0068 AB78     		ldrb	r3, [r5, #2]
 1959 006a 013B     		sub	r3, r3, #1
 1960 006c DBB2     		uxtb	r3, r3
 1961 006e 1C40     		and	r4, r3
 1962              	.LVL286:
 953:.\pff.c       **** 			if (!cs) {								/* On the cluster boundary? */
 1963              		.loc 1 953 0
 1964 0070 0DD1     		bne	.L165
 954:.\pff.c       **** 				if (fs->fptr == 0)					/* On the top of the file? */
 1965              		.loc 1 954 0
 1966 0072 002A     		cmp	r2, #0
 1967 0074 01D1     		bne	.L166
 955:.\pff.c       **** 					clst = fs->org_clust;
 1968              		.loc 1 955 0
 1969 0076 286A     		ldr	r0, [r5, #32]
 1970              	.LVL287:
 1971 0078 02E0     		b	.L167
 1972              	.LVL288:
 1973              	.L166:
 956:.\pff.c       **** 				else
 957:.\pff.c       **** 					clst = get_fat(fs->curr_clust);
 1974              		.loc 1 957 0
 1975 007a 686A     		ldr	r0, [r5, #36]
 1976 007c FFF7FEFF 		bl	get_fat
 1977              	.LVL289:
 1978              	.L167:
 958:.\pff.c       **** 				if (clst <= 1) ABORT(FR_DISK_ERR);
 1979              		.loc 1 958 0
 1980 0080 0128     		cmp	r0, #1
 1981 0082 03D8     		bhi	.L168
ARM GAS  C:\Users\Petro\AppData\Local\Temp\cc5IgTu7.s 			page 55


 1982              		.loc 1 958 0 is_stmt 0 discriminator 1
 1983 0084 0023     		mov	r3, #0
 1984 0086 6B70     		strb	r3, [r5, #1]
 1985 0088 0120     		mov	r0, #1
 1986              	.LVL290:
 1987 008a 4EE0     		b	.L158
 1988              	.LVL291:
 1989              	.L168:
 959:.\pff.c       **** 				fs->curr_clust = clst;				/* Update current cluster */
 1990              		.loc 1 959 0 is_stmt 1
 1991 008c 6862     		str	r0, [r5, #36]
 1992              	.LVL292:
 1993              	.L165:
 960:.\pff.c       **** 			}
 961:.\pff.c       **** 			sect = clust2sect(fs->curr_clust);		/* Get current sector */
 1994              		.loc 1 961 0
 1995 008e 686A     		ldr	r0, [r5, #36]
 1996 0090 FFF7FEFF 		bl	clust2sect
 1997              	.LVL293:
 962:.\pff.c       **** 			if (!sect) ABORT(FR_DISK_ERR);
 1998              		.loc 1 962 0
 1999 0094 0028     		cmp	r0, #0
 2000 0096 03D1     		bne	.L169
 2001              		.loc 1 962 0 is_stmt 0 discriminator 1
 2002 0098 0023     		mov	r3, #0
 2003 009a 6B70     		strb	r3, [r5, #1]
 2004 009c 0130     		add	r0, r0, #1
 2005              	.LVL294:
 2006 009e 44E0     		b	.L158
 2007              	.LVL295:
 2008              	.L169:
 963:.\pff.c       **** 			fs->dsect = sect + cs;
 2009              		.loc 1 963 0 is_stmt 1
 2010 00a0 2118     		add	r1, r4, r0
 2011 00a2 A962     		str	r1, [r5, #40]
 964:.\pff.c       **** 			if (disk_writep(0, fs->dsect)) ABORT(FR_DISK_ERR);	/* Initiate a sector write operation */
 2012              		.loc 1 964 0
 2013 00a4 0020     		mov	r0, #0
 2014              	.LVL296:
 2015 00a6 FFF7FEFF 		bl	disk_writep
 2016              	.LVL297:
 2017 00aa 0028     		cmp	r0, #0
 2018 00ac 03D0     		beq	.L170
 2019              		.loc 1 964 0 is_stmt 0 discriminator 1
 2020 00ae 0023     		mov	r3, #0
 2021 00b0 6B70     		strb	r3, [r5, #1]
 2022 00b2 0120     		mov	r0, #1
 2023 00b4 39E0     		b	.L158
 2024              	.L170:
 965:.\pff.c       **** 			fs->flag |= FA__WIP;
 2025              		.loc 1 965 0 is_stmt 1
 2026 00b6 6A78     		ldrb	r2, [r5, #1]
 2027 00b8 4023     		mov	r3, #64
 2028 00ba 1343     		orr	r3, r2
 2029 00bc 6B70     		strb	r3, [r5, #1]
 2030              	.LVL298:
 2031              	.L164:
ARM GAS  C:\Users\Petro\AppData\Local\Temp\cc5IgTu7.s 			page 56


 966:.\pff.c       **** 		}
 967:.\pff.c       **** 		wcnt = 512 - (UINT)fs->fptr % 512;			/* Number of bytes to write to the sector */
 2032              		.loc 1 967 0
 2033 00be AB69     		ldr	r3, [r5, #24]
 2034 00c0 DC05     		lsl	r4, r3, #23
 2035 00c2 E40D     		lsr	r4, r4, #23
 2036 00c4 8023     		mov	r3, #128
 2037 00c6 9B00     		lsl	r3, r3, #2
 2038 00c8 1C1B     		sub	r4, r3, r4
 2039              	.LVL299:
 968:.\pff.c       **** 		if (wcnt > btw) wcnt = btw;
 2040              		.loc 1 968 0
 2041 00ca B442     		cmp	r4, r6
 2042 00cc 00D9     		bls	.L171
 2043 00ce 341C     		mov	r4, r6
 2044              	.LVL300:
 2045              	.L171:
 969:.\pff.c       **** 		if (disk_writep(p, wcnt)) ABORT(FR_DISK_ERR);	/* Send data to the sector */
 2046              		.loc 1 969 0
 2047 00d0 381C     		mov	r0, r7
 2048 00d2 211C     		mov	r1, r4
 2049 00d4 FFF7FEFF 		bl	disk_writep
 2050              	.LVL301:
 2051 00d8 0028     		cmp	r0, #0
 2052 00da 03D0     		beq	.L172
 2053              		.loc 1 969 0 is_stmt 0 discriminator 1
 2054 00dc 0023     		mov	r3, #0
 2055 00de 6B70     		strb	r3, [r5, #1]
 2056 00e0 0120     		mov	r0, #1
 2057 00e2 22E0     		b	.L158
 2058              	.L172:
 970:.\pff.c       **** 		fs->fptr += wcnt; p += wcnt;				/* Update pointers and counters */
 2059              		.loc 1 970 0 is_stmt 1
 2060 00e4 AB69     		ldr	r3, [r5, #24]
 2061 00e6 1B19     		add	r3, r3, r4
 2062 00e8 AB61     		str	r3, [r5, #24]
 2063 00ea 3F19     		add	r7, r7, r4
 2064              	.LVL302:
 971:.\pff.c       **** 		btw -= wcnt; *bw += wcnt;
 2065              		.loc 1 971 0
 2066 00ec 361B     		sub	r6, r6, r4
 2067              	.LVL303:
 2068 00ee 4346     		mov	r3, r8
 2069 00f0 1B68     		ldr	r3, [r3]
 2070 00f2 9C46     		mov	ip, r3
 2071 00f4 6444     		add	r4, r4, ip
 2072              	.LVL304:
 2073 00f6 4346     		mov	r3, r8
 2074 00f8 1C60     		str	r4, [r3]
 972:.\pff.c       **** 		if ((UINT)fs->fptr % 512 == 0) {
 2075              		.loc 1 972 0
 2076 00fa AB69     		ldr	r3, [r5, #24]
 2077 00fc DB05     		lsl	r3, r3, #23
 2078 00fe 0DD1     		bne	.L163
 973:.\pff.c       **** 			if (disk_writep(0, 0)) ABORT(FR_DISK_ERR);	/* Finalize the currtent secter write operation */
 2079              		.loc 1 973 0
 2080 0100 0020     		mov	r0, #0
ARM GAS  C:\Users\Petro\AppData\Local\Temp\cc5IgTu7.s 			page 57


 2081 0102 0021     		mov	r1, #0
 2082 0104 FFF7FEFF 		bl	disk_writep
 2083              	.LVL305:
 2084 0108 0028     		cmp	r0, #0
 2085 010a 03D0     		beq	.L174
 2086              		.loc 1 973 0 is_stmt 0 discriminator 1
 2087 010c 0023     		mov	r3, #0
 2088 010e 6B70     		strb	r3, [r5, #1]
 2089 0110 0120     		mov	r0, #1
 2090 0112 0AE0     		b	.L158
 2091              	.L174:
 974:.\pff.c       **** 			fs->flag &= ~FA__WIP;
 2092              		.loc 1 974 0 is_stmt 1
 2093 0114 6B78     		ldrb	r3, [r5, #1]
 2094 0116 4022     		mov	r2, #64
 2095 0118 9343     		bic	r3, r2
 2096 011a 6B70     		strb	r3, [r5, #1]
 2097              	.LVL306:
 2098              	.L163:
 950:.\pff.c       **** 		if ((UINT)fs->fptr % 512 == 0) {			/* On the sector boundary? */
 2099              		.loc 1 950 0
 2100 011c 002E     		cmp	r6, #0
 2101 011e 9FD1     		bne	.L175
 975:.\pff.c       **** 		}
 976:.\pff.c       **** 	}
 977:.\pff.c       **** 
 978:.\pff.c       **** 	return FR_OK;
 2102              		.loc 1 978 0
 2103 0120 0020     		mov	r0, #0
 2104 0122 02E0     		b	.L158
 2105              	.LVL307:
 2106              	.L176:
 935:.\pff.c       **** 	if (!(fs->flag & FA_OPENED))		/* Check if opened */
 2107              		.loc 1 935 0
 2108 0124 0520     		mov	r0, #5
 2109              	.LVL308:
 2110 0126 00E0     		b	.L158
 2111              	.LVL309:
 2112              	.L177:
 937:.\pff.c       **** 
 2113              		.loc 1 937 0
 2114 0128 0420     		mov	r0, #4
 2115              	.LVL310:
 2116              	.L158:
 979:.\pff.c       **** }
 2117              		.loc 1 979 0
 2118              		@ sp needed
 2119              	.LVL311:
 2120              	.LVL312:
 2121              	.LVL313:
 2122 012a 04BC     		pop	{r2}
 2123 012c 9046     		mov	r8, r2
 2124 012e F0BD     		pop	{r4, r5, r6, r7, pc}
 2125              	.L180:
 2126              		.align	2
 2127              	.L179:
 2128 0130 00000000 		.word	.LANCHOR0
ARM GAS  C:\Users\Petro\AppData\Local\Temp\cc5IgTu7.s 			page 58


 2129              		.cfi_endproc
 2130              	.LFE16:
 2131              		.size	pf_write, .-pf_write
 2132              		.section	.text.pf_lseek,"ax",%progbits
 2133              		.align	2
 2134              		.global	pf_lseek
 2135              		.code	16
 2136              		.thumb_func
 2137              		.type	pf_lseek, %function
 2138              	pf_lseek:
 2139              	.LFB17:
 980:.\pff.c       **** #endif
 981:.\pff.c       **** 
 982:.\pff.c       **** 
 983:.\pff.c       **** 
 984:.\pff.c       **** /*-----------------------------------------------------------------------*/
 985:.\pff.c       **** /* Seek File R/W Pointer                                                 */
 986:.\pff.c       **** /*-----------------------------------------------------------------------*/
 987:.\pff.c       **** #if _USE_LSEEK
 988:.\pff.c       **** 
 989:.\pff.c       **** FRESULT pf_lseek (
 990:.\pff.c       **** 	DWORD ofs		/* File pointer from top of file */
 991:.\pff.c       **** )
 992:.\pff.c       **** {
 2140              		.loc 1 992 0
 2141              		.cfi_startproc
 2142              	.LVL314:
 2143 0000 F0B5     		push	{r4, r5, r6, r7, lr}
 2144              		.cfi_def_cfa_offset 20
 2145              		.cfi_offset 4, -20
 2146              		.cfi_offset 5, -16
 2147              		.cfi_offset 6, -12
 2148              		.cfi_offset 7, -8
 2149              		.cfi_offset 14, -4
 2150 0002 4746     		mov	r7, r8
 2151 0004 80B4     		push	{r7}
 2152              		.cfi_def_cfa_offset 24
 2153              		.cfi_offset 8, -24
 993:.\pff.c       **** 	CLUST clst;
 994:.\pff.c       **** 	DWORD bcs, sect, ifptr;
 995:.\pff.c       **** 	FATFS *fs = FatFs;
 2154              		.loc 1 995 0
 2155 0006 2B4B     		ldr	r3, .L194
 2156 0008 1C68     		ldr	r4, [r3]
 2157              	.LVL315:
 996:.\pff.c       **** 
 997:.\pff.c       **** 
 998:.\pff.c       **** 	if (!fs) return FR_NOT_ENABLED;		/* Check file system */
 2158              		.loc 1 998 0
 2159 000a 002C     		cmp	r4, #0
 2160 000c 4AD0     		beq	.L191
 999:.\pff.c       **** 	if (!(fs->flag & FA_OPENED))		/* Check if opened */
 2161              		.loc 1 999 0
 2162 000e 6378     		ldrb	r3, [r4, #1]
 2163 0010 DB07     		lsl	r3, r3, #31
 2164 0012 49D5     		bpl	.L192
1000:.\pff.c       **** 			return FR_NOT_OPENED;
ARM GAS  C:\Users\Petro\AppData\Local\Temp\cc5IgTu7.s 			page 59


1001:.\pff.c       **** 
1002:.\pff.c       **** 	if (ofs > fs->fsize) ofs = fs->fsize;	/* Clip offset with the file size */
 2165              		.loc 1 1002 0
 2166 0014 E569     		ldr	r5, [r4, #28]
 2167 0016 8542     		cmp	r5, r0
 2168 0018 00D3     		bcc	.L183
 2169 001a 051C     		mov	r5, r0
 2170              	.L183:
 2171              	.LVL316:
1003:.\pff.c       **** 	ifptr = fs->fptr;
 2172              		.loc 1 1003 0
 2173 001c A769     		ldr	r7, [r4, #24]
 2174              	.LVL317:
1004:.\pff.c       **** 	fs->fptr = 0;
 2175              		.loc 1 1004 0
 2176 001e 0023     		mov	r3, #0
 2177 0020 A361     		str	r3, [r4, #24]
1005:.\pff.c       **** 	if (ofs > 0) {
 2178              		.loc 1 1005 0
 2179 0022 002D     		cmp	r5, #0
 2180 0024 42D0     		beq	.L193
1006:.\pff.c       **** 		bcs = (DWORD)fs->csize * 512;	/* Cluster size (byte) */
 2181              		.loc 1 1006 0
 2182 0026 A678     		ldrb	r6, [r4, #2]
 2183 0028 7602     		lsl	r6, r6, #9
 2184              	.LVL318:
1007:.\pff.c       **** 		if (ifptr > 0 &&
 2185              		.loc 1 1007 0
 2186 002a 002F     		cmp	r7, #0
 2187 002c 11D0     		beq	.L184
1008:.\pff.c       **** 			(ofs - 1) / bcs >= (ifptr - 1) / bcs) {	/* When seek to same or following cluster, */
 2188              		.loc 1 1008 0 discriminator 1
 2189 002e 681E     		sub	r0, r5, #1
 2190 0030 311C     		mov	r1, r6
 2191 0032 FFF7FEFF 		bl	__aeabi_uidiv
 2192              	.LVL319:
 2193 0036 8046     		mov	r8, r0
 2194 0038 013F     		sub	r7, r7, #1
 2195              	.LVL320:
 2196 003a 381C     		mov	r0, r7
 2197 003c 311C     		mov	r1, r6
 2198 003e FFF7FEFF 		bl	__aeabi_uidiv
 2199              	.LVL321:
1007:.\pff.c       **** 		if (ifptr > 0 &&
 2200              		.loc 1 1007 0 discriminator 1
 2201 0042 8045     		cmp	r8, r0
 2202 0044 05D3     		bcc	.L184
1009:.\pff.c       **** 			fs->fptr = (ifptr - 1) & ~(bcs - 1);	/* start from the current cluster */
 2203              		.loc 1 1009 0
 2204 0046 7342     		neg	r3, r6
 2205 0048 1F40     		and	r7, r3
 2206              	.LVL322:
 2207 004a A761     		str	r7, [r4, #24]
1010:.\pff.c       **** 			ofs -= fs->fptr;
 2208              		.loc 1 1010 0
 2209 004c ED1B     		sub	r5, r5, r7
 2210              	.LVL323:
ARM GAS  C:\Users\Petro\AppData\Local\Temp\cc5IgTu7.s 			page 60


1011:.\pff.c       **** 			clst = fs->curr_clust;
 2211              		.loc 1 1011 0
 2212 004e 606A     		ldr	r0, [r4, #36]
 2213              	.LVL324:
 2214 0050 12E0     		b	.L185
 2215              	.LVL325:
 2216              	.L184:
1012:.\pff.c       **** 		} else {							/* When seek to back cluster, */
1013:.\pff.c       **** 			clst = fs->org_clust;			/* start from the first cluster */
 2217              		.loc 1 1013 0
 2218 0052 206A     		ldr	r0, [r4, #32]
 2219              	.LVL326:
1014:.\pff.c       **** 			fs->curr_clust = clst;
 2220              		.loc 1 1014 0
 2221 0054 6062     		str	r0, [r4, #36]
 2222 0056 0FE0     		b	.L185
 2223              	.L189:
1015:.\pff.c       **** 		}
1016:.\pff.c       **** 		while (ofs > bcs) {				/* Cluster following loop */
1017:.\pff.c       **** 			clst = get_fat(clst);		/* Follow cluster chain */
 2224              		.loc 1 1017 0
 2225 0058 FFF7FEFF 		bl	get_fat
 2226              	.LVL327:
1018:.\pff.c       **** 			if (clst <= 1 || clst >= fs->n_fatent) ABORT(FR_DISK_ERR);
 2227              		.loc 1 1018 0
 2228 005c 0128     		cmp	r0, #1
 2229 005e 02D9     		bls	.L187
 2230              		.loc 1 1018 0 is_stmt 0 discriminator 2
 2231 0060 A368     		ldr	r3, [r4, #8]
 2232 0062 8342     		cmp	r3, r0
 2233 0064 03D8     		bhi	.L188
 2234              	.L187:
 2235              		.loc 1 1018 0 discriminator 3
 2236 0066 0023     		mov	r3, #0
 2237 0068 6370     		strb	r3, [r4, #1]
 2238 006a 0120     		mov	r0, #1
 2239              	.LVL328:
 2240 006c 1FE0     		b	.L182
 2241              	.LVL329:
 2242              	.L188:
1019:.\pff.c       **** 			fs->curr_clust = clst;
 2243              		.loc 1 1019 0 is_stmt 1
 2244 006e 6062     		str	r0, [r4, #36]
1020:.\pff.c       **** 			fs->fptr += bcs;
 2245              		.loc 1 1020 0
 2246 0070 A369     		ldr	r3, [r4, #24]
 2247 0072 9B19     		add	r3, r3, r6
 2248 0074 A361     		str	r3, [r4, #24]
1021:.\pff.c       **** 			ofs -= bcs;
 2249              		.loc 1 1021 0
 2250 0076 AD1B     		sub	r5, r5, r6
 2251              	.LVL330:
 2252              	.L185:
1016:.\pff.c       **** 			clst = get_fat(clst);		/* Follow cluster chain */
 2253              		.loc 1 1016 0
 2254 0078 B542     		cmp	r5, r6
 2255 007a EDD8     		bhi	.L189
ARM GAS  C:\Users\Petro\AppData\Local\Temp\cc5IgTu7.s 			page 61


1022:.\pff.c       **** 		}
1023:.\pff.c       **** 		fs->fptr += ofs;
 2256              		.loc 1 1023 0
 2257 007c A369     		ldr	r3, [r4, #24]
 2258 007e 9C46     		mov	ip, r3
 2259 0080 6544     		add	r5, r5, ip
 2260              	.LVL331:
 2261 0082 A561     		str	r5, [r4, #24]
1024:.\pff.c       **** 		sect = clust2sect(clst);		/* Current sector */
 2262              		.loc 1 1024 0
 2263 0084 FFF7FEFF 		bl	clust2sect
 2264              	.LVL332:
1025:.\pff.c       **** 		if (!sect) ABORT(FR_DISK_ERR);
 2265              		.loc 1 1025 0
 2266 0088 0028     		cmp	r0, #0
 2267 008a 03D1     		bne	.L190
 2268              		.loc 1 1025 0 is_stmt 0 discriminator 1
 2269 008c 0023     		mov	r3, #0
 2270 008e 6370     		strb	r3, [r4, #1]
 2271 0090 0130     		add	r0, r0, #1
 2272              	.LVL333:
 2273 0092 0CE0     		b	.L182
 2274              	.LVL334:
 2275              	.L190:
1026:.\pff.c       **** 		fs->dsect = sect + (fs->fptr / 512 & (fs->csize - 1));
 2276              		.loc 1 1026 0 is_stmt 1
 2277 0094 6D0A     		lsr	r5, r5, #9
 2278 0096 A378     		ldrb	r3, [r4, #2]
 2279 0098 013B     		sub	r3, r3, #1
 2280 009a 1D40     		and	r5, r3
 2281 009c 2D18     		add	r5, r5, r0
 2282 009e A562     		str	r5, [r4, #40]
1027:.\pff.c       **** 	}
1028:.\pff.c       **** 
1029:.\pff.c       **** 	return FR_OK;
 2283              		.loc 1 1029 0
 2284 00a0 0020     		mov	r0, #0
 2285              	.LVL335:
 2286 00a2 04E0     		b	.L182
 2287              	.LVL336:
 2288              	.L191:
 998:.\pff.c       **** 	if (!(fs->flag & FA_OPENED))		/* Check if opened */
 2289              		.loc 1 998 0
 2290 00a4 0520     		mov	r0, #5
 2291              	.LVL337:
 2292 00a6 02E0     		b	.L182
 2293              	.LVL338:
 2294              	.L192:
1000:.\pff.c       **** 
 2295              		.loc 1 1000 0
 2296 00a8 0420     		mov	r0, #4
 2297              	.LVL339:
 2298 00aa 00E0     		b	.L182
 2299              	.LVL340:
 2300              	.L193:
 2301              		.loc 1 1029 0
 2302 00ac 0020     		mov	r0, #0
ARM GAS  C:\Users\Petro\AppData\Local\Temp\cc5IgTu7.s 			page 62


 2303              	.LVL341:
 2304              	.L182:
1030:.\pff.c       **** }
 2305              		.loc 1 1030 0
 2306              		@ sp needed
 2307              	.LVL342:
 2308 00ae 04BC     		pop	{r2}
 2309 00b0 9046     		mov	r8, r2
 2310 00b2 F0BD     		pop	{r4, r5, r6, r7, pc}
 2311              	.L195:
 2312              		.align	2
 2313              	.L194:
 2314 00b4 00000000 		.word	.LANCHOR0
 2315              		.cfi_endproc
 2316              	.LFE17:
 2317              		.size	pf_lseek, .-pf_lseek
 2318              		.section	.text.pf_opendir,"ax",%progbits
 2319              		.align	2
 2320              		.global	pf_opendir
 2321              		.code	16
 2322              		.thumb_func
 2323              		.type	pf_opendir, %function
 2324              	pf_opendir:
 2325              	.LFB18:
1031:.\pff.c       **** #endif
1032:.\pff.c       **** 
1033:.\pff.c       **** 
1034:.\pff.c       **** 
1035:.\pff.c       **** /*-----------------------------------------------------------------------*/
1036:.\pff.c       **** /* Create a Directroy Object                                             */
1037:.\pff.c       **** /*-----------------------------------------------------------------------*/
1038:.\pff.c       **** #if _USE_DIR
1039:.\pff.c       **** 
1040:.\pff.c       **** FRESULT pf_opendir (
1041:.\pff.c       **** 	DIR *dj,			/* Pointer to directory object to create */
1042:.\pff.c       **** 	const char *path	/* Pointer to the directory path */
1043:.\pff.c       **** )
1044:.\pff.c       **** {
 2326              		.loc 1 1044 0
 2327              		.cfi_startproc
 2328              	.LVL343:
 2329 0000 30B5     		push	{r4, r5, lr}
 2330              		.cfi_def_cfa_offset 12
 2331              		.cfi_offset 4, -12
 2332              		.cfi_offset 5, -8
 2333              		.cfi_offset 14, -4
 2334 0002 8DB0     		sub	sp, sp, #52
 2335              		.cfi_def_cfa_offset 64
1045:.\pff.c       **** 	FRESULT res;
1046:.\pff.c       **** 	BYTE sp[12], dir[32];
1047:.\pff.c       **** 	FATFS *fs = FatFs;
 2336              		.loc 1 1047 0
 2337 0004 124B     		ldr	r3, .L201
 2338 0006 1B68     		ldr	r3, [r3]
 2339              	.LVL344:
1048:.\pff.c       **** 
1049:.\pff.c       **** 
ARM GAS  C:\Users\Petro\AppData\Local\Temp\cc5IgTu7.s 			page 63


1050:.\pff.c       **** 	if (!fs) {				/* Check file system */
 2340              		.loc 1 1050 0
 2341 0008 002B     		cmp	r3, #0
 2342 000a 1DD0     		beq	.L199
 2343 000c 0A1C     		mov	r2, r1
 2344 000e 051C     		mov	r5, r0
1051:.\pff.c       **** 		res = FR_NOT_ENABLED;
1052:.\pff.c       **** 	} else {
1053:.\pff.c       **** 		dj->fn = sp;
 2345              		.loc 1 1053 0
 2346 0010 09AB     		add	r3, sp, #36
 2347              	.LVL345:
 2348 0012 4360     		str	r3, [r0, #4]
1054:.\pff.c       **** 		res = follow_path(dj, dir, path);		/* Follow the path to the directory */
 2349              		.loc 1 1054 0
 2350 0014 01A9     		add	r1, sp, #4
 2351              	.LVL346:
 2352 0016 FFF7FEFF 		bl	follow_path
 2353              	.LVL347:
 2354 001a 041E     		sub	r4, r0, #0
 2355              	.LVL348:
1055:.\pff.c       **** 		if (res == FR_OK) {						/* Follow completed */
 2356              		.loc 1 1055 0
 2357 001c 15D1     		bne	.L197
1056:.\pff.c       **** 			if (dir[0]) {						/* It is not the root dir */
 2358              		.loc 1 1056 0
 2359 001e 01AB     		add	r3, sp, #4
 2360 0020 1B78     		ldrb	r3, [r3]
 2361 0022 002B     		cmp	r3, #0
 2362 0024 09D0     		beq	.L198
1057:.\pff.c       **** 				if (dir[DIR_Attr] & AM_DIR)		/* The object is a directory */
 2363              		.loc 1 1057 0
 2364 0026 01AB     		add	r3, sp, #4
 2365 0028 DB7A     		ldrb	r3, [r3, #11]
 2366 002a DB06     		lsl	r3, r3, #27
 2367 002c 04D5     		bpl	.L200
1058:.\pff.c       **** 					dj->sclust = get_clust(dir);
 2368              		.loc 1 1058 0
 2369 002e 01A8     		add	r0, sp, #4
 2370              	.LVL349:
 2371 0030 FFF7FEFF 		bl	get_clust
 2372              	.LVL350:
 2373 0034 A860     		str	r0, [r5, #8]
 2374 0036 00E0     		b	.L198
 2375              	.LVL351:
 2376              	.L200:
1059:.\pff.c       **** 				else							/* The object is not a directory */
1060:.\pff.c       **** 					res = FR_NO_FILE;
 2377              		.loc 1 1060 0
 2378 0038 0324     		mov	r4, #3
 2379              	.LVL352:
 2380              	.L198:
1061:.\pff.c       **** 			}
1062:.\pff.c       **** 			if (res == FR_OK)
 2381              		.loc 1 1062 0
 2382 003a 002C     		cmp	r4, #0
 2383 003c 05D1     		bne	.L197
ARM GAS  C:\Users\Petro\AppData\Local\Temp\cc5IgTu7.s 			page 64


1063:.\pff.c       **** 				res = dir_rewind(dj);			/* Rewind dir */
 2384              		.loc 1 1063 0
 2385 003e 281C     		mov	r0, r5
 2386 0040 FFF7FEFF 		bl	dir_rewind
 2387              	.LVL353:
 2388 0044 041C     		mov	r4, r0
 2389              	.LVL354:
 2390 0046 00E0     		b	.L197
 2391              	.LVL355:
 2392              	.L199:
1051:.\pff.c       **** 	} else {
 2393              		.loc 1 1051 0
 2394 0048 0524     		mov	r4, #5
 2395              	.LVL356:
 2396              	.L197:
1064:.\pff.c       **** 		}
1065:.\pff.c       **** 	}
1066:.\pff.c       **** 
1067:.\pff.c       **** 	return res;
1068:.\pff.c       **** }
 2397              		.loc 1 1068 0
 2398 004a 201C     		mov	r0, r4
 2399 004c 0DB0     		add	sp, sp, #52
 2400              		@ sp needed
 2401              	.LVL357:
 2402 004e 30BD     		pop	{r4, r5, pc}
 2403              	.L202:
 2404              		.align	2
 2405              	.L201:
 2406 0050 00000000 		.word	.LANCHOR0
 2407              		.cfi_endproc
 2408              	.LFE18:
 2409              		.size	pf_opendir, .-pf_opendir
 2410              		.section	.text.pf_readdir,"ax",%progbits
 2411              		.align	2
 2412              		.global	pf_readdir
 2413              		.code	16
 2414              		.thumb_func
 2415              		.type	pf_readdir, %function
 2416              	pf_readdir:
 2417              	.LFB19:
1069:.\pff.c       **** 
1070:.\pff.c       **** 
1071:.\pff.c       **** 
1072:.\pff.c       **** 
1073:.\pff.c       **** /*-----------------------------------------------------------------------*/
1074:.\pff.c       **** /* Read Directory Entry in Sequense                                      */
1075:.\pff.c       **** /*-----------------------------------------------------------------------*/
1076:.\pff.c       **** 
1077:.\pff.c       **** FRESULT pf_readdir (
1078:.\pff.c       **** 	DIR *dj,			/* Pointer to the open directory object */
1079:.\pff.c       **** 	FILINFO *fno		/* Pointer to file information to return */
1080:.\pff.c       **** )
1081:.\pff.c       **** {
 2418              		.loc 1 1081 0
 2419              		.cfi_startproc
 2420              	.LVL358:
ARM GAS  C:\Users\Petro\AppData\Local\Temp\cc5IgTu7.s 			page 65


 2421 0000 70B5     		push	{r4, r5, r6, lr}
 2422              		.cfi_def_cfa_offset 16
 2423              		.cfi_offset 4, -16
 2424              		.cfi_offset 5, -12
 2425              		.cfi_offset 6, -8
 2426              		.cfi_offset 14, -4
 2427 0002 8CB0     		sub	sp, sp, #48
 2428              		.cfi_def_cfa_offset 64
1082:.\pff.c       **** 	FRESULT res;
1083:.\pff.c       **** 	BYTE sp[12], dir[32];
1084:.\pff.c       **** 	FATFS *fs = FatFs;
 2429              		.loc 1 1084 0
 2430 0004 134B     		ldr	r3, .L209
 2431 0006 1B68     		ldr	r3, [r3]
 2432              	.LVL359:
1085:.\pff.c       **** 
1086:.\pff.c       **** 
1087:.\pff.c       **** 	if (!fs) {				/* Check file system */
 2433              		.loc 1 1087 0
 2434 0008 002B     		cmp	r3, #0
 2435 000a 1ED0     		beq	.L207
 2436 000c 0E1C     		mov	r6, r1
 2437 000e 051C     		mov	r5, r0
1088:.\pff.c       **** 		res = FR_NOT_ENABLED;
1089:.\pff.c       **** 	} else {
1090:.\pff.c       **** 		dj->fn = sp;
 2438              		.loc 1 1090 0
 2439 0010 09AB     		add	r3, sp, #36
 2440              	.LVL360:
 2441 0012 4360     		str	r3, [r0, #4]
1091:.\pff.c       **** 		if (!fno) {
 2442              		.loc 1 1091 0
 2443 0014 0029     		cmp	r1, #0
 2444 0016 03D1     		bne	.L205
1092:.\pff.c       **** 			res = dir_rewind(dj);
 2445              		.loc 1 1092 0
 2446 0018 FFF7FEFF 		bl	dir_rewind
 2447              	.LVL361:
 2448 001c 041C     		mov	r4, r0
 2449              	.LVL362:
 2450 001e 15E0     		b	.L204
 2451              	.LVL363:
 2452              	.L205:
1093:.\pff.c       **** 		} else {
1094:.\pff.c       **** 			res = dir_read(dj, dir);	/* Get current directory item */
 2453              		.loc 1 1094 0
 2454 0020 01A9     		add	r1, sp, #4
 2455              	.LVL364:
 2456 0022 FFF7FEFF 		bl	dir_read
 2457              	.LVL365:
 2458 0026 041E     		sub	r4, r0, #0
 2459              	.LVL366:
1095:.\pff.c       **** 			if (res == FR_NO_FILE) res = FR_OK;
 2460              		.loc 1 1095 0
 2461 0028 032C     		cmp	r4, #3
 2462 002a 00D1     		bne	.L206
 2463 002c 0024     		mov	r4, #0
ARM GAS  C:\Users\Petro\AppData\Local\Temp\cc5IgTu7.s 			page 66


 2464              	.L206:
 2465              	.LVL367:
1096:.\pff.c       **** 			if (res == FR_OK) {				/* A valid entry is found */
 2466              		.loc 1 1096 0
 2467 002e 002C     		cmp	r4, #0
 2468 0030 0CD1     		bne	.L204
1097:.\pff.c       **** 				get_fileinfo(dj, dir, fno);	/* Get the object information */
 2469              		.loc 1 1097 0
 2470 0032 281C     		mov	r0, r5
 2471 0034 01A9     		add	r1, sp, #4
 2472 0036 321C     		mov	r2, r6
 2473 0038 FFF7FEFF 		bl	get_fileinfo
 2474              	.LVL368:
1098:.\pff.c       **** 				res = dir_next(dj);			/* Increment read index for next */
 2475              		.loc 1 1098 0
 2476 003c 281C     		mov	r0, r5
 2477 003e FFF7FEFF 		bl	dir_next
 2478              	.LVL369:
1099:.\pff.c       **** 				if (res == FR_NO_FILE) res = FR_OK;
 2479              		.loc 1 1099 0
 2480 0042 0328     		cmp	r0, #3
 2481 0044 02D0     		beq	.L204
1098:.\pff.c       **** 				res = dir_next(dj);			/* Increment read index for next */
 2482              		.loc 1 1098 0
 2483 0046 041C     		mov	r4, r0
 2484 0048 00E0     		b	.L204
 2485              	.LVL370:
 2486              	.L207:
1088:.\pff.c       **** 	} else {
 2487              		.loc 1 1088 0
 2488 004a 0524     		mov	r4, #5
 2489              	.LVL371:
 2490              	.L204:
1100:.\pff.c       **** 			}
1101:.\pff.c       **** 		}
1102:.\pff.c       **** 	}
1103:.\pff.c       **** 
1104:.\pff.c       **** 	return res;
1105:.\pff.c       **** }
 2491              		.loc 1 1105 0
 2492 004c 201C     		mov	r0, r4
 2493 004e 0CB0     		add	sp, sp, #48
 2494              		@ sp needed
 2495              	.LVL372:
 2496 0050 70BD     		pop	{r4, r5, r6, pc}
 2497              	.L210:
 2498 0052 C046     		.align	2
 2499              	.L209:
 2500 0054 00000000 		.word	.LANCHOR0
 2501              		.cfi_endproc
 2502              	.LFE19:
 2503              		.size	pf_readdir, .-pf_readdir
 2504              		.bss
 2505              		.align	2
 2506              		.set	.LANCHOR0,. + 0
 2507              		.type	FatFs, %object
 2508              		.size	FatFs, 4
ARM GAS  C:\Users\Petro\AppData\Local\Temp\cc5IgTu7.s 			page 67


 2509              	FatFs:
 2510 0000 00000000 		.space	4
 2511              		.text
 2512              	.Letext0:
 2513              		.file 2 ".\\integer.h"
 2514              		.file 3 ".\\pff.h"
 2515              		.file 4 ".\\diskio.h"