ARM GAS  C:\Users\Petro\AppData\Local\Temp\ccgdBNqr.s 			page 1


   1              		.cpu cortex-m0
   2              		.fpu softvfp
   3              		.eabi_attribute 20, 1
   4              		.eabi_attribute 21, 1
   5              		.eabi_attribute 23, 3
   6              		.eabi_attribute 24, 1
   7              		.eabi_attribute 25, 1
   8              		.eabi_attribute 26, 1
   9              		.eabi_attribute 30, 1
  10              		.eabi_attribute 34, 0
  11              		.eabi_attribute 18, 4
  12              		.code	16
  13              		.file	"HW_SPI.c"
  14              		.text
  15              	.Ltext0:
  16              		.cfi_sections	.debug_frame
  17              		.section	.text.SPI_Init,"ax",%progbits
  18              		.align	2
  19              		.global	SPI_Init
  20              		.code	16
  21              		.thumb_func
  22              		.type	SPI_Init, %function
  23              	SPI_Init:
  24              	.LFB2:
  25              		.file 1 ".\\HW_SPI.c"
   1:.\HW_SPI.c    **** /* ========================================
   2:.\HW_SPI.c    ****  *
   3:.\HW_SPI.c    ****  * Copyright YOUR COMPANY, THE YEAR
   4:.\HW_SPI.c    ****  * All Rights Reserved
   5:.\HW_SPI.c    ****  * UNPUBLISHED, LICENSED SOFTWARE.
   6:.\HW_SPI.c    ****  *
   7:.\HW_SPI.c    ****  * CONFIDENTIAL AND PROPRIETARY INFORMATION
   8:.\HW_SPI.c    ****  * WHICH IS THE PROPERTY OF your company.
   9:.\HW_SPI.c    ****  *
  10:.\HW_SPI.c    ****  * ========================================
  11:.\HW_SPI.c    **** */
  12:.\HW_SPI.c    **** 
  13:.\HW_SPI.c    **** #include "HW_SPI.h"
  14:.\HW_SPI.c    **** 
  15:.\HW_SPI.c    **** void SPI_Init(void)
  16:.\HW_SPI.c    **** {
  26              		.loc 1 16 0
  27              		.cfi_startproc
  28 0000 08B5     		push	{r3, lr}
  29              		.cfi_def_cfa_offset 8
  30              		.cfi_offset 3, -8
  31              		.cfi_offset 14, -4
  17:.\HW_SPI.c    ****     CS_SPI_Write(1u);
  32              		.loc 1 17 0
  33 0002 0120     		mov	r0, #1
  34 0004 FFF7FEFF 		bl	CS_SPI_Write
  35              	.LVL0:
  18:.\HW_SPI.c    ****     CLK_SPI_Write(0u);
  36              		.loc 1 18 0
  37 0008 0020     		mov	r0, #0
  38 000a FFF7FEFF 		bl	CLK_SPI_Write
  39              	.LVL1:
ARM GAS  C:\Users\Petro\AppData\Local\Temp\ccgdBNqr.s 			page 2


  19:.\HW_SPI.c    ****     MOSI_SPI_Write(0u);
  40              		.loc 1 19 0
  41 000e 0020     		mov	r0, #0
  42 0010 FFF7FEFF 		bl	MOSI_SPI_Write
  43              	.LVL2:
  20:.\HW_SPI.c    **** }
  44              		.loc 1 20 0
  45              		@ sp needed
  46 0014 08BD     		pop	{r3, pc}
  47              		.cfi_endproc
  48              	.LFE2:
  49              		.size	SPI_Init, .-SPI_Init
  50 0016 C046     		.section	.text.ChipSelect,"ax",%progbits
  51              		.align	2
  52              		.global	ChipSelect
  53              		.code	16
  54              		.thumb_func
  55              		.type	ChipSelect, %function
  56              	ChipSelect:
  57              	.LFB3:
  21:.\HW_SPI.c    **** 
  22:.\HW_SPI.c    **** void ChipSelect()
  23:.\HW_SPI.c    **** {
  58              		.loc 1 23 0
  59              		.cfi_startproc
  60 0000 08B5     		push	{r3, lr}
  61              		.cfi_def_cfa_offset 8
  62              		.cfi_offset 3, -8
  63              		.cfi_offset 14, -4
  24:.\HW_SPI.c    ****     CS_SPI_Write(0u);
  64              		.loc 1 24 0
  65 0002 0020     		mov	r0, #0
  66 0004 FFF7FEFF 		bl	CS_SPI_Write
  67              	.LVL3:
  25:.\HW_SPI.c    **** }
  68              		.loc 1 25 0
  69              		@ sp needed
  70 0008 08BD     		pop	{r3, pc}
  71              		.cfi_endproc
  72              	.LFE3:
  73              		.size	ChipSelect, .-ChipSelect
  74 000a C046     		.section	.text.ChipDeselect,"ax",%progbits
  75              		.align	2
  76              		.global	ChipDeselect
  77              		.code	16
  78              		.thumb_func
  79              		.type	ChipDeselect, %function
  80              	ChipDeselect:
  81              	.LFB4:
  26:.\HW_SPI.c    **** 
  27:.\HW_SPI.c    **** void ChipDeselect()
  28:.\HW_SPI.c    **** {
  82              		.loc 1 28 0
  83              		.cfi_startproc
  84 0000 08B5     		push	{r3, lr}
  85              		.cfi_def_cfa_offset 8
  86              		.cfi_offset 3, -8
ARM GAS  C:\Users\Petro\AppData\Local\Temp\ccgdBNqr.s 			page 3


  87              		.cfi_offset 14, -4
  29:.\HW_SPI.c    ****     CS_SPI_Write(1u);
  88              		.loc 1 29 0
  89 0002 0120     		mov	r0, #1
  90 0004 FFF7FEFF 		bl	CS_SPI_Write
  91              	.LVL4:
  30:.\HW_SPI.c    **** }
  92              		.loc 1 30 0
  93              		@ sp needed
  94 0008 08BD     		pop	{r3, pc}
  95              		.cfi_endproc
  96              	.LFE4:
  97              		.size	ChipDeselect, .-ChipDeselect
  98 000a C046     		.section	.text.SPI_SendByte,"ax",%progbits
  99              		.align	2
 100              		.global	SPI_SendByte
 101              		.code	16
 102              		.thumb_func
 103              		.type	SPI_SendByte, %function
 104              	SPI_SendByte:
 105              	.LFB5:
  31:.\HW_SPI.c    **** 
  32:.\HW_SPI.c    **** 
  33:.\HW_SPI.c    **** void SPI_SendByte(uint8_t byte)
  34:.\HW_SPI.c    **** {
 106              		.loc 1 34 0
 107              		.cfi_startproc
 108              	.LVL5:
 109 0000 38B5     		push	{r3, r4, r5, lr}
 110              		.cfi_def_cfa_offset 16
 111              		.cfi_offset 3, -16
 112              		.cfi_offset 4, -12
 113              		.cfi_offset 5, -8
 114              		.cfi_offset 14, -4
 115 0002 051C     		mov	r5, r0
 116              	.LVL6:
  35:.\HW_SPI.c    ****     uint8_t countBites;
  36:.\HW_SPI.c    ****     for (countBites = 8; countBites > 0; countBites--)
 117              		.loc 1 36 0
 118 0004 0824     		mov	r4, #8
 119 0006 19E0     		b	.L5
 120              	.LVL7:
 121              	.L8:
  37:.\HW_SPI.c    ****     {
  38:.\HW_SPI.c    ****     
  39:.\HW_SPI.c    ****         if (byte & 0x80)
 122              		.loc 1 39 0
 123 0008 6BB2     		sxtb	r3, r5
 124 000a 002B     		cmp	r3, #0
 125 000c 03DA     		bge	.L6
  40:.\HW_SPI.c    ****         {
  41:.\HW_SPI.c    ****             MOSI_SPI_Write(1u);
 126              		.loc 1 41 0
 127 000e 0120     		mov	r0, #1
 128 0010 FFF7FEFF 		bl	MOSI_SPI_Write
 129              	.LVL8:
 130 0014 02E0     		b	.L7
ARM GAS  C:\Users\Petro\AppData\Local\Temp\ccgdBNqr.s 			page 4


 131              	.L6:
  42:.\HW_SPI.c    ****         }
  43:.\HW_SPI.c    ****         else
  44:.\HW_SPI.c    ****         {
  45:.\HW_SPI.c    ****             MOSI_SPI_Write(0u);
 132              		.loc 1 45 0
 133 0016 0020     		mov	r0, #0
 134 0018 FFF7FEFF 		bl	MOSI_SPI_Write
 135              	.LVL9:
 136              	.L7:
  46:.\HW_SPI.c    ****         }
  47:.\HW_SPI.c    ****         CyDelayCycles(10);        
 137              		.loc 1 47 0 discriminator 2
 138 001c 0A20     		mov	r0, #10
 139 001e FFF7FEFF 		bl	CyDelayCycles
 140              	.LVL10:
  48:.\HW_SPI.c    ****         CLK_SPI_Write(1u);
 141              		.loc 1 48 0 discriminator 2
 142 0022 0120     		mov	r0, #1
 143 0024 FFF7FEFF 		bl	CLK_SPI_Write
 144              	.LVL11:
  49:.\HW_SPI.c    ****         
  50:.\HW_SPI.c    ****         CyDelayCycles(20);
 145              		.loc 1 50 0 discriminator 2
 146 0028 1420     		mov	r0, #20
 147 002a FFF7FEFF 		bl	CyDelayCycles
 148              	.LVL12:
  51:.\HW_SPI.c    ****         
  52:.\HW_SPI.c    ****         CLK_SPI_Write(0u);
 149              		.loc 1 52 0 discriminator 2
 150 002e 0020     		mov	r0, #0
 151 0030 FFF7FEFF 		bl	CLK_SPI_Write
 152              	.LVL13:
  53:.\HW_SPI.c    ****         byte <<=  1;
 153              		.loc 1 53 0 discriminator 2
 154 0034 6D00     		lsl	r5, r5, #1
 155              	.LVL14:
 156 0036 EDB2     		uxtb	r5, r5
 157              	.LVL15:
  36:.\HW_SPI.c    ****     {
 158              		.loc 1 36 0 discriminator 2
 159 0038 013C     		sub	r4, r4, #1
 160              	.LVL16:
 161 003a E4B2     		uxtb	r4, r4
 162              	.LVL17:
 163              	.L5:
  36:.\HW_SPI.c    ****     {
 164              		.loc 1 36 0 is_stmt 0 discriminator 1
 165 003c 002C     		cmp	r4, #0
 166 003e E3D1     		bne	.L8
  54:.\HW_SPI.c    ****     }
  55:.\HW_SPI.c    ****     
  56:.\HW_SPI.c    ****     MOSI_SPI_Write(0u);    
 167              		.loc 1 56 0 is_stmt 1
 168 0040 0020     		mov	r0, #0
 169 0042 FFF7FEFF 		bl	MOSI_SPI_Write
 170              	.LVL18:
ARM GAS  C:\Users\Petro\AppData\Local\Temp\ccgdBNqr.s 			page 5


  57:.\HW_SPI.c    **** }
 171              		.loc 1 57 0
 172              		@ sp needed
 173              	.LVL19:
 174              	.LVL20:
 175 0046 38BD     		pop	{r3, r4, r5, pc}
 176              		.cfi_endproc
 177              	.LFE5:
 178              		.size	SPI_SendByte, .-SPI_SendByte
 179              		.section	.text.SPI_SendBuff,"ax",%progbits
 180              		.align	2
 181              		.global	SPI_SendBuff
 182              		.code	16
 183              		.thumb_func
 184              		.type	SPI_SendBuff, %function
 185              	SPI_SendBuff:
 186              	.LFB6:
  58:.\HW_SPI.c    **** 
  59:.\HW_SPI.c    **** void SPI_SendBuff(uint8_t* buff, uint8_t cnt)
  60:.\HW_SPI.c    **** {
 187              		.loc 1 60 0
 188              		.cfi_startproc
 189              	.LVL21:
 190 0000 70B5     		push	{r4, r5, r6, lr}
 191              		.cfi_def_cfa_offset 16
 192              		.cfi_offset 4, -16
 193              		.cfi_offset 5, -12
 194              		.cfi_offset 6, -8
 195              		.cfi_offset 14, -4
 196 0002 061C     		mov	r6, r0
 197 0004 0D1C     		mov	r5, r1
 198              	.LVL22:
  61:.\HW_SPI.c    ****     uint8_t tmpData;
  62:.\HW_SPI.c    ****     for (tmpData = 0; tmpData < cnt; tmpData ++)
 199              		.loc 1 62 0
 200 0006 0024     		mov	r4, #0
 201 0008 04E0     		b	.L10
 202              	.LVL23:
 203              	.L11:
  63:.\HW_SPI.c    ****     {
  64:.\HW_SPI.c    ****         SPI_SendByte(buff[tmpData]);
 204              		.loc 1 64 0 discriminator 3
 205 000a 305D     		ldrb	r0, [r6, r4]
 206 000c FFF7FEFF 		bl	SPI_SendByte
 207              	.LVL24:
  62:.\HW_SPI.c    ****     {
 208              		.loc 1 62 0 discriminator 3
 209 0010 0134     		add	r4, r4, #1
 210              	.LVL25:
 211 0012 E4B2     		uxtb	r4, r4
 212              	.LVL26:
 213              	.L10:
  62:.\HW_SPI.c    ****     {
 214              		.loc 1 62 0 is_stmt 0 discriminator 1
 215 0014 AC42     		cmp	r4, r5
 216 0016 F8D3     		bcc	.L11
  65:.\HW_SPI.c    ****     }
ARM GAS  C:\Users\Petro\AppData\Local\Temp\ccgdBNqr.s 			page 6


  66:.\HW_SPI.c    **** }
 217              		.loc 1 66 0 is_stmt 1
 218              		@ sp needed
 219              	.LVL27:
 220              	.LVL28:
 221 0018 70BD     		pop	{r4, r5, r6, pc}
 222              		.cfi_endproc
 223              	.LFE6:
 224              		.size	SPI_SendBuff, .-SPI_SendBuff
 225 001a C046     		.section	.text.SPI_RecvByte,"ax",%progbits
 226              		.align	2
 227              		.global	SPI_RecvByte
 228              		.code	16
 229              		.thumb_func
 230              		.type	SPI_RecvByte, %function
 231              	SPI_RecvByte:
 232              	.LFB7:
  67:.\HW_SPI.c    **** 
  68:.\HW_SPI.c    **** 
  69:.\HW_SPI.c    **** uint8_t SPI_RecvByte(void)
  70:.\HW_SPI.c    **** {
 233              		.loc 1 70 0
 234              		.cfi_startproc
 235 0000 38B5     		push	{r3, r4, r5, lr}
 236              		.cfi_def_cfa_offset 16
 237              		.cfi_offset 3, -16
 238              		.cfi_offset 4, -12
 239              		.cfi_offset 5, -8
 240              		.cfi_offset 14, -4
 241              	.LVL29:
  71:.\HW_SPI.c    ****     uint32_t countBites;
  72:.\HW_SPI.c    ****     uint32_t tmpBuff = 0, tmpPin;
 242              		.loc 1 72 0
 243 0002 0024     		mov	r4, #0
  73:.\HW_SPI.c    ****     for (countBites = 8; countBites > 0; countBites--)
 244              		.loc 1 73 0
 245 0004 0825     		mov	r5, #8
 246 0006 13E0     		b	.L13
 247              	.LVL30:
 248              	.L15:
  74:.\HW_SPI.c    ****     {
  75:.\HW_SPI.c    ****         MOSI_SPI_Write(1u);
 249              		.loc 1 75 0
 250 0008 0120     		mov	r0, #1
 251 000a FFF7FEFF 		bl	MOSI_SPI_Write
 252              	.LVL31:
  76:.\HW_SPI.c    ****         CLK_SPI_Write(1u);
 253              		.loc 1 76 0
 254 000e 0120     		mov	r0, #1
 255 0010 FFF7FEFF 		bl	CLK_SPI_Write
 256              	.LVL32:
  77:.\HW_SPI.c    ****         tmpPin = MISO_SPI_Read();
 257              		.loc 1 77 0
 258 0014 FFF7FEFF 		bl	MISO_SPI_Read
 259              	.LVL33:
  78:.\HW_SPI.c    ****         if (tmpPin == 1u)
 260              		.loc 1 78 0
ARM GAS  C:\Users\Petro\AppData\Local\Temp\ccgdBNqr.s 			page 7


 261 0018 0128     		cmp	r0, #1
 262 001a 01D1     		bne	.L14
  79:.\HW_SPI.c    ****         {
  80:.\HW_SPI.c    ****             tmpBuff |= 0x01;
 263              		.loc 1 80 0
 264 001c 0123     		mov	r3, #1
 265 001e 1C43     		orr	r4, r3
 266              	.LVL34:
 267              	.L14:
  81:.\HW_SPI.c    ****         }
  82:.\HW_SPI.c    **** 
  83:.\HW_SPI.c    ****         CLK_SPI_Write(0u);
 268              		.loc 1 83 0 discriminator 2
 269 0020 0020     		mov	r0, #0
 270              	.LVL35:
 271 0022 FFF7FEFF 		bl	CLK_SPI_Write
 272              	.LVL36:
  84:.\HW_SPI.c    ****         CyDelayCycles(15);
 273              		.loc 1 84 0 discriminator 2
 274 0026 0F20     		mov	r0, #15
 275 0028 FFF7FEFF 		bl	CyDelayCycles
 276              	.LVL37:
  85:.\HW_SPI.c    ****         
  86:.\HW_SPI.c    ****         tmpBuff <<= 1;
 277              		.loc 1 86 0 discriminator 2
 278 002c 6400     		lsl	r4, r4, #1
 279              	.LVL38:
  73:.\HW_SPI.c    ****     {
 280              		.loc 1 73 0 discriminator 2
 281 002e 013D     		sub	r5, r5, #1
 282              	.LVL39:
 283              	.L13:
  73:.\HW_SPI.c    ****     {
 284              		.loc 1 73 0 is_stmt 0 discriminator 1
 285 0030 002D     		cmp	r5, #0
 286 0032 E9D1     		bne	.L15
  87:.\HW_SPI.c    ****     }
  88:.\HW_SPI.c    ****     tmpBuff >>= 1;
 287              		.loc 1 88 0 is_stmt 1
 288 0034 6408     		lsr	r4, r4, #1
 289              	.LVL40:
  89:.\HW_SPI.c    ****     MOSI_SPI_Write(0u);
 290              		.loc 1 89 0
 291 0036 0020     		mov	r0, #0
 292 0038 FFF7FEFF 		bl	MOSI_SPI_Write
 293              	.LVL41:
  90:.\HW_SPI.c    ****     return (uint8_t)tmpBuff;
 294              		.loc 1 90 0
 295 003c E0B2     		uxtb	r0, r4
  91:.\HW_SPI.c    **** }
 296              		.loc 1 91 0
 297              		@ sp needed
 298              	.LVL42:
 299              	.LVL43:
 300 003e 38BD     		pop	{r3, r4, r5, pc}
 301              		.cfi_endproc
 302              	.LFE7:
ARM GAS  C:\Users\Petro\AppData\Local\Temp\ccgdBNqr.s 			page 8


 303              		.size	SPI_RecvByte, .-SPI_RecvByte
 304              		.section	.text.SPI_RecvBuff,"ax",%progbits
 305              		.align	2
 306              		.global	SPI_RecvBuff
 307              		.code	16
 308              		.thumb_func
 309              		.type	SPI_RecvBuff, %function
 310              	SPI_RecvBuff:
 311              	.LFB8:
  92:.\HW_SPI.c    **** 
  93:.\HW_SPI.c    **** void SPI_RecvBuff(uint8_t* buff, uint8_t cnt)
  94:.\HW_SPI.c    **** {
 312              		.loc 1 94 0
 313              		.cfi_startproc
 314              	.LVL44:
 315 0000 F8B5     		push	{r3, r4, r5, r6, r7, lr}
 316              		.cfi_def_cfa_offset 24
 317              		.cfi_offset 3, -24
 318              		.cfi_offset 4, -20
 319              		.cfi_offset 5, -16
 320              		.cfi_offset 6, -12
 321              		.cfi_offset 7, -8
 322              		.cfi_offset 14, -4
 323 0002 071C     		mov	r7, r0
 324 0004 0E1C     		mov	r6, r1
 325              	.LVL45:
  95:.\HW_SPI.c    ****     uint8_t tmpData;
  96:.\HW_SPI.c    ****     for (tmpData = 0; tmpData < cnt; tmpData ++)
 326              		.loc 1 96 0
 327 0006 0024     		mov	r4, #0
 328 0008 05E0     		b	.L17
 329              	.LVL46:
 330              	.L18:
  97:.\HW_SPI.c    ****     {
  98:.\HW_SPI.c    ****         buff[tmpData] = SPI_RecvByte(); 
 331              		.loc 1 98 0 discriminator 3
 332 000a 3D19     		add	r5, r7, r4
 333 000c FFF7FEFF 		bl	SPI_RecvByte
 334              	.LVL47:
 335 0010 2870     		strb	r0, [r5]
  96:.\HW_SPI.c    ****     {
 336              		.loc 1 96 0 discriminator 3
 337 0012 0134     		add	r4, r4, #1
 338              	.LVL48:
 339 0014 E4B2     		uxtb	r4, r4
 340              	.LVL49:
 341              	.L17:
  96:.\HW_SPI.c    ****     {
 342              		.loc 1 96 0 is_stmt 0 discriminator 1
 343 0016 B442     		cmp	r4, r6
 344 0018 F7D3     		bcc	.L18
  99:.\HW_SPI.c    ****     }
 100:.\HW_SPI.c    **** }
 345              		.loc 1 100 0 is_stmt 1
 346              		@ sp needed
 347              	.LVL50:
 348              	.LVL51:
ARM GAS  C:\Users\Petro\AppData\Local\Temp\ccgdBNqr.s 			page 9


 349 001a F8BD     		pop	{r3, r4, r5, r6, r7, pc}
 350              		.cfi_endproc
 351              	.LFE8:
 352              		.size	SPI_RecvBuff, .-SPI_RecvBuff
 353              		.text
 354              	.Letext0:
 355              		.file 2 "c:\\program files (x86)\\cypress\\psoc creator\\3.3\\psoc creator\\import\\gnu\\arm\\4.9.
 356              		.file 3 "c:\\program files (x86)\\cypress\\psoc creator\\3.3\\psoc creator\\import\\gnu\\arm\\4.9.
 357              		.file 4 "Generated_Source\\PSoC4/cytypes.h"
 358              		.file 5 "Generated_Source\\PSoC4/CS_SPI.h"
 359              		.file 6 "Generated_Source\\PSoC4/CLK_SPI.h"
 360              		.file 7 "Generated_Source\\PSoC4/MOSI_SPI.h"
 361              		.file 8 "Generated_Source\\PSoC4/CyLib.h"
 362              		.file 9 "Generated_Source\\PSoC4/MISO_SPI.h"