ARM GAS  C:\Users\Petro\AppData\Local\Temp\cc2P2A0w.s 			page 1


   1              		.cpu cortex-m0
   2              		.fpu softvfp
   3              		.eabi_attribute 20, 1
   4              		.eabi_attribute 21, 1
   5              		.eabi_attribute 23, 3
   6              		.eabi_attribute 24, 1
   7              		.eabi_attribute 25, 1
   8              		.eabi_attribute 26, 1
   9              		.eabi_attribute 30, 1
  10              		.eabi_attribute 34, 0
  11              		.eabi_attribute 18, 4
  12              		.code	16
  13              		.file	"mmc_avr_usart.c"
  14              		.text
  15              	.Ltext0:
  16              		.cfi_sections	.debug_frame
  17              		.section	.text.xchg_spi,"ax",%progbits
  18              		.align	2
  19              		.code	16
  20              		.thumb_func
  21              		.type	xchg_spi, %function
  22              	xchg_spi:
  23              	.LFB4:
  24              		.file 1 ".\\mmc_avr_usart.c"
   1:.\mmc_avr_usart.c **** /*-----------------------------------------------------------------------*/
   2:.\mmc_avr_usart.c **** /* MMCv3/SDv1/SDv2 Controls via AVR USART-SPI                            */
   3:.\mmc_avr_usart.c **** /*-----------------------------------------------------------------------*/
   4:.\mmc_avr_usart.c **** /*
   5:.\mmc_avr_usart.c **** /  Copyright (C) 2016, ChaN, all right reserved.
   6:.\mmc_avr_usart.c **** /
   7:.\mmc_avr_usart.c **** / * This software is a free software and there is NO WARRANTY.
   8:.\mmc_avr_usart.c **** / * No restriction on use. You can use, modify and redistribute it for
   9:.\mmc_avr_usart.c **** /   any purpose as you like UNDER YOUR RESPONSIBILITY.
  10:.\mmc_avr_usart.c **** / * Redistributions of source code must retain the above copyright notice.
  11:.\mmc_avr_usart.c **** /
  12:.\mmc_avr_usart.c **** /-------------------------------------------------------------------------*/
  13:.\mmc_avr_usart.c **** 
  14:.\mmc_avr_usart.c **** #include <CyLib.h>
  15:.\mmc_avr_usart.c **** #include "diskio.h"
  16:.\mmc_avr_usart.c **** #include "mmc_avr_usart.h"
  17:.\mmc_avr_usart.c **** #include "HW_SPI.h"
  18:.\mmc_avr_usart.c **** 
  19:.\mmc_avr_usart.c **** /* Port controls  (Platform dependent) */
  20:.\mmc_avr_usart.c **** #define CS_LOW()	ChipSelect()    	/* MMC_CS = low */
  21:.\mmc_avr_usart.c **** #define	CS_HIGH()	ChipDeselect()		/* MMC_CS = high */
  22:.\mmc_avr_usart.c **** #define MMC_CD		1               	/* Card detected.   yes:true, no:false, default:true */
  23:.\mmc_avr_usart.c **** #define MMC_WP		1           		/* Write protected. yes:true, no:false, default:false */
  24:.\mmc_avr_usart.c **** #define	FCLK_SLOW()	UBRR1L = 0	        /* Set slow clock (400kHz) */
  25:.\mmc_avr_usart.c **** #define	FCLK_FAST()	UBRR1L = 0			/* Set fast clock (F_CPU/2) */
  26:.\mmc_avr_usart.c **** 
  27:.\mmc_avr_usart.c **** 
  28:.\mmc_avr_usart.c **** /*--------------------------------------------------------------------------
  29:.\mmc_avr_usart.c **** 
  30:.\mmc_avr_usart.c ****    Module Private Functions
  31:.\mmc_avr_usart.c **** 
  32:.\mmc_avr_usart.c **** ---------------------------------------------------------------------------*/
  33:.\mmc_avr_usart.c **** 
ARM GAS  C:\Users\Petro\AppData\Local\Temp\cc2P2A0w.s 			page 2


  34:.\mmc_avr_usart.c **** /* Definitions for MMC/SDC command */
  35:.\mmc_avr_usart.c **** #define CMD0	(0)			/* GO_IDLE_STATE */
  36:.\mmc_avr_usart.c **** #define CMD1	(1)			/* SEND_OP_COND (MMC) */
  37:.\mmc_avr_usart.c **** #define	ACMD41	(0x80+41)	/* SEND_OP_COND (SDC) */
  38:.\mmc_avr_usart.c **** #define CMD8	(8)			/* SEND_IF_COND */
  39:.\mmc_avr_usart.c **** #define CMD9	(9)			/* SEND_CSD */
  40:.\mmc_avr_usart.c **** #define CMD10	(10)		/* SEND_CID */
  41:.\mmc_avr_usart.c **** #define CMD12	(12)		/* STOP_TRANSMISSION */
  42:.\mmc_avr_usart.c **** #define ACMD13	(0x80+13)	/* SD_STATUS (SDC) */
  43:.\mmc_avr_usart.c **** #define CMD16	(16)		/* SET_BLOCKLEN */
  44:.\mmc_avr_usart.c **** #define CMD17	(17)		/* READ_SINGLE_BLOCK */
  45:.\mmc_avr_usart.c **** #define CMD18	(18)		/* READ_MULTIPLE_BLOCK */
  46:.\mmc_avr_usart.c **** #define CMD23	(23)		/* SET_BLOCK_COUNT (MMC) */
  47:.\mmc_avr_usart.c **** #define	ACMD23	(0x80+23)	/* SET_WR_BLK_ERASE_COUNT (SDC) */
  48:.\mmc_avr_usart.c **** #define CMD24	(24)		/* WRITE_BLOCK */
  49:.\mmc_avr_usart.c **** #define CMD25	(25)		/* WRITE_MULTIPLE_BLOCK */
  50:.\mmc_avr_usart.c **** #define CMD32	(32)		/* ERASE_ER_BLK_START */
  51:.\mmc_avr_usart.c **** #define CMD33	(33)		/* ERASE_ER_BLK_END */
  52:.\mmc_avr_usart.c **** #define CMD38	(38)		/* ERASE */
  53:.\mmc_avr_usart.c **** #define	CMD48	(48)		/* READ_EXTR_SINGLE */
  54:.\mmc_avr_usart.c **** #define	CMD49	(49)		/* WRITE_EXTR_SINGLE */
  55:.\mmc_avr_usart.c **** #define CMD55	(55)		/* APP_CMD */
  56:.\mmc_avr_usart.c **** #define CMD58	(58)		/* READ_OCR */
  57:.\mmc_avr_usart.c **** 
  58:.\mmc_avr_usart.c **** 
  59:.\mmc_avr_usart.c **** static volatile
  60:.\mmc_avr_usart.c **** DSTATUS Stat = STA_NOINIT;	/* Disk status */
  61:.\mmc_avr_usart.c **** 
  62:.\mmc_avr_usart.c **** //static volatile
  63:.\mmc_avr_usart.c **** //BYTE Timer1, Timer2;	/* 100Hz decrement timer */
  64:.\mmc_avr_usart.c **** 
  65:.\mmc_avr_usart.c **** static
  66:.\mmc_avr_usart.c **** BYTE CardType;			/* Card type flags (b0:MMC, b1:SDv1, b2:SDv2, b3:Block addressing) */
  67:.\mmc_avr_usart.c **** 
  68:.\mmc_avr_usart.c **** 
  69:.\mmc_avr_usart.c **** 
  70:.\mmc_avr_usart.c **** /*-----------------------------------------------------------------------*/
  71:.\mmc_avr_usart.c **** /* Power Control  (Platform dependent)                                   */
  72:.\mmc_avr_usart.c **** /*-----------------------------------------------------------------------*/
  73:.\mmc_avr_usart.c **** /* When the target system does not support socket power control, there   */
  74:.\mmc_avr_usart.c **** /* is nothing to do in these functions and chk_power always returns 1.   */
  75:.\mmc_avr_usart.c **** 
  76:.\mmc_avr_usart.c **** static
  77:.\mmc_avr_usart.c **** void power_on (void)
  78:.\mmc_avr_usart.c **** {
  79:.\mmc_avr_usart.c **** 	/* Remove this block if no socket power control */
  80:.\mmc_avr_usart.c **** }
  81:.\mmc_avr_usart.c **** 
  82:.\mmc_avr_usart.c **** static
  83:.\mmc_avr_usart.c **** void power_off (void)
  84:.\mmc_avr_usart.c **** {	
  85:.\mmc_avr_usart.c ****     /* Remove this block if no socket power control */
  86:.\mmc_avr_usart.c **** }
  87:.\mmc_avr_usart.c **** 
  88:.\mmc_avr_usart.c **** 
  89:.\mmc_avr_usart.c **** 
  90:.\mmc_avr_usart.c **** /*-----------------------------------------------------------------------*/
ARM GAS  C:\Users\Petro\AppData\Local\Temp\cc2P2A0w.s 			page 3


  91:.\mmc_avr_usart.c **** /* Transmit/Receive data from/to MMC via SPI  (Platform dependent)       */
  92:.\mmc_avr_usart.c **** /*-----------------------------------------------------------------------*/
  93:.\mmc_avr_usart.c **** 
  94:.\mmc_avr_usart.c **** /* Exchange a byte */
  95:.\mmc_avr_usart.c **** static
  96:.\mmc_avr_usart.c **** BYTE xchg_spi (		/* Returns received data */
  97:.\mmc_avr_usart.c **** 	BYTE dat		/* Data to be sent */
  98:.\mmc_avr_usart.c **** )
  99:.\mmc_avr_usart.c **** {
  25              		.loc 1 99 0
  26              		.cfi_startproc
  27              	.LVL0:
  28 0000 10B5     		push	{r4, lr}
  29              		.cfi_def_cfa_offset 8
  30              		.cfi_offset 4, -8
  31              		.cfi_offset 14, -4
  32 0002 041C     		mov	r4, r0
 100:.\mmc_avr_usart.c **** 	//UDR1 = dat;
 101:.\mmc_avr_usart.c **** 	//loop_until_bit_is_set(UCSR1A, RXC1);
 102:.\mmc_avr_usart.c ****     SPI_SendByte(dat);
  33              		.loc 1 102 0
  34 0004 FFF7FEFF 		bl	SPI_SendByte
  35              	.LVL1:
 103:.\mmc_avr_usart.c **** 	return dat;
 104:.\mmc_avr_usart.c **** }
  36              		.loc 1 104 0
  37 0008 201C     		mov	r0, r4
  38              		@ sp needed
  39 000a 10BD     		pop	{r4, pc}
  40              		.cfi_endproc
  41              	.LFE4:
  42              		.size	xchg_spi, .-xchg_spi
  43              		.global	__aeabi_uidiv
  44              		.section	.text.wait_ready,"ax",%progbits
  45              		.align	2
  46              		.code	16
  47              		.thumb_func
  48              		.type	wait_ready, %function
  49              	wait_ready:
  50              	.LFB7:
 105:.\mmc_avr_usart.c **** 
 106:.\mmc_avr_usart.c **** 
 107:.\mmc_avr_usart.c **** /* Receive a data block fast */
 108:.\mmc_avr_usart.c **** static
 109:.\mmc_avr_usart.c **** void rcvr_spi_multi (
 110:.\mmc_avr_usart.c **** 	BYTE *p,	/* Data read buffer */
 111:.\mmc_avr_usart.c **** 	UINT cnt	/* Size of data block */
 112:.\mmc_avr_usart.c **** )
 113:.\mmc_avr_usart.c **** {
 114:.\mmc_avr_usart.c **** 	SPI_RecvBuff(p, cnt);
 115:.\mmc_avr_usart.c **** }
 116:.\mmc_avr_usart.c **** 
 117:.\mmc_avr_usart.c **** 
 118:.\mmc_avr_usart.c **** /* Send a data block fast */
 119:.\mmc_avr_usart.c **** static
 120:.\mmc_avr_usart.c **** void xmit_spi_multi (
 121:.\mmc_avr_usart.c **** 	const BYTE *p,	/* Data block to be sent */
ARM GAS  C:\Users\Petro\AppData\Local\Temp\cc2P2A0w.s 			page 4


 122:.\mmc_avr_usart.c **** 	UINT cnt		/* Size of data block */
 123:.\mmc_avr_usart.c **** )
 124:.\mmc_avr_usart.c **** {
 125:.\mmc_avr_usart.c **** 	SPI_SendBuff((uint8_t *) p, cnt);
 126:.\mmc_avr_usart.c **** }
 127:.\mmc_avr_usart.c **** 
 128:.\mmc_avr_usart.c **** 
 129:.\mmc_avr_usart.c **** 
 130:.\mmc_avr_usart.c **** /*-----------------------------------------------------------------------*/
 131:.\mmc_avr_usart.c **** /* Wait for card ready                                                   */
 132:.\mmc_avr_usart.c **** /*-----------------------------------------------------------------------*/
 133:.\mmc_avr_usart.c **** 
 134:.\mmc_avr_usart.c **** static
 135:.\mmc_avr_usart.c **** int wait_ready (	/* 1:Ready, 0:Timeout */
 136:.\mmc_avr_usart.c **** 	UINT wt			/* Timeout [ms] */
 137:.\mmc_avr_usart.c **** )
 138:.\mmc_avr_usart.c **** {
  51              		.loc 1 138 0
  52              		.cfi_startproc
  53              	.LVL2:
  54 0000 08B5     		push	{r3, lr}
  55              		.cfi_def_cfa_offset 8
  56              		.cfi_offset 3, -8
  57              		.cfi_offset 14, -4
 139:.\mmc_avr_usart.c **** 	BYTE d;
 140:.\mmc_avr_usart.c **** 
 141:.\mmc_avr_usart.c **** 
 142:.\mmc_avr_usart.c **** 	CyDelay( wt / 10);
  58              		.loc 1 142 0
  59 0002 0A21     		mov	r1, #10
  60 0004 FFF7FEFF 		bl	__aeabi_uidiv
  61              	.LVL3:
  62 0008 FFF7FEFF 		bl	CyDelay
  63              	.LVL4:
 143:.\mmc_avr_usart.c ****     
 144:.\mmc_avr_usart.c **** 	d = xchg_spi(0xFF);
  64              		.loc 1 144 0
  65 000c FF20     		mov	r0, #255
  66 000e FFF7FEFF 		bl	xchg_spi
  67              	.LVL5:
 145:.\mmc_avr_usart.c **** 
 146:.\mmc_avr_usart.c **** 	return (d == 0xFF) ? 1 : 0;
  68              		.loc 1 146 0
  69 0012 FF38     		sub	r0, r0, #255
  70              	.LVL6:
  71 0014 4342     		neg	r3, r0
  72 0016 5841     		adc	r0, r0, r3
  73 0018 C0B2     		uxtb	r0, r0
 147:.\mmc_avr_usart.c **** }
  74              		.loc 1 147 0
  75              		@ sp needed
  76 001a 08BD     		pop	{r3, pc}
  77              		.cfi_endproc
  78              	.LFE7:
  79              		.size	wait_ready, .-wait_ready
  80              		.section	.text.deselect,"ax",%progbits
  81              		.align	2
ARM GAS  C:\Users\Petro\AppData\Local\Temp\cc2P2A0w.s 			page 5


  82              		.code	16
  83              		.thumb_func
  84              		.type	deselect, %function
  85              	deselect:
  86              	.LFB8:
 148:.\mmc_avr_usart.c **** 
 149:.\mmc_avr_usart.c **** 
 150:.\mmc_avr_usart.c **** 
 151:.\mmc_avr_usart.c **** /*-----------------------------------------------------------------------*/
 152:.\mmc_avr_usart.c **** /* Deselect the card and release SPI bus                                 */
 153:.\mmc_avr_usart.c **** /*-----------------------------------------------------------------------*/
 154:.\mmc_avr_usart.c **** 
 155:.\mmc_avr_usart.c **** static
 156:.\mmc_avr_usart.c **** void deselect (void)
 157:.\mmc_avr_usart.c **** {
  87              		.loc 1 157 0
  88              		.cfi_startproc
  89 0000 08B5     		push	{r3, lr}
  90              		.cfi_def_cfa_offset 8
  91              		.cfi_offset 3, -8
  92              		.cfi_offset 14, -4
 158:.\mmc_avr_usart.c **** 	ChipDeselect();		/* Set CS# high */
  93              		.loc 1 158 0
  94 0002 FFF7FEFF 		bl	ChipDeselect
  95              	.LVL7:
 159:.\mmc_avr_usart.c **** 	xchg_spi(0xFF);	/* Dummy clock (force DO hi-z for multiple slave SPI) */
  96              		.loc 1 159 0
  97 0006 FF20     		mov	r0, #255
  98 0008 FFF7FEFF 		bl	xchg_spi
  99              	.LVL8:
 160:.\mmc_avr_usart.c **** }
 100              		.loc 1 160 0
 101              		@ sp needed
 102 000c 08BD     		pop	{r3, pc}
 103              		.cfi_endproc
 104              	.LFE8:
 105              		.size	deselect, .-deselect
 106 000e C046     		.section	.text.select,"ax",%progbits
 107              		.align	2
 108              		.code	16
 109              		.thumb_func
 110              		.type	select, %function
 111              	select:
 112              	.LFB9:
 161:.\mmc_avr_usart.c **** 
 162:.\mmc_avr_usart.c **** 
 163:.\mmc_avr_usart.c **** 
 164:.\mmc_avr_usart.c **** /*-----------------------------------------------------------------------*/
 165:.\mmc_avr_usart.c **** /* Select the card and wait for ready                                    */
 166:.\mmc_avr_usart.c **** /*-----------------------------------------------------------------------*/
 167:.\mmc_avr_usart.c **** 
 168:.\mmc_avr_usart.c **** static
 169:.\mmc_avr_usart.c **** int select (void)	/* 1:Successful, 0:Timeout */
 170:.\mmc_avr_usart.c **** {
 113              		.loc 1 170 0
 114              		.cfi_startproc
 115 0000 08B5     		push	{r3, lr}
ARM GAS  C:\Users\Petro\AppData\Local\Temp\cc2P2A0w.s 			page 6


 116              		.cfi_def_cfa_offset 8
 117              		.cfi_offset 3, -8
 118              		.cfi_offset 14, -4
 171:.\mmc_avr_usart.c **** 	ChipSelect();		/* Set CS# low */
 119              		.loc 1 171 0
 120 0002 FFF7FEFF 		bl	ChipSelect
 121              	.LVL9:
 172:.\mmc_avr_usart.c **** 	xchg_spi(0xFF);	    /* Dummy clock (force DO enabled) */
 122              		.loc 1 172 0
 123 0006 FF20     		mov	r0, #255
 124 0008 FFF7FEFF 		bl	xchg_spi
 125              	.LVL10:
 173:.\mmc_avr_usart.c **** 	if (wait_ready(500)) return 1;	/* Wait for card ready */
 126              		.loc 1 173 0
 127 000c FA20     		mov	r0, #250
 128 000e 4000     		lsl	r0, r0, #1
 129 0010 FFF7FEFF 		bl	wait_ready
 130              	.LVL11:
 131 0014 0028     		cmp	r0, #0
 132 0016 01D1     		bne	.L5
 174:.\mmc_avr_usart.c **** 
 175:.\mmc_avr_usart.c **** 	deselect();
 133              		.loc 1 175 0
 134 0018 FFF7FEFF 		bl	deselect
 135              	.LVL12:
 136              	.L5:
 176:.\mmc_avr_usart.c **** 	return 1;	/* Timeout */
 177:.\mmc_avr_usart.c **** }
 137              		.loc 1 177 0
 138 001c 0120     		mov	r0, #1
 139              		@ sp needed
 140 001e 08BD     		pop	{r3, pc}
 141              		.cfi_endproc
 142              	.LFE9:
 143              		.size	select, .-select
 144              		.section	.text.send_cmd,"ax",%progbits
 145              		.align	2
 146              		.code	16
 147              		.thumb_func
 148              		.type	send_cmd, %function
 149              	send_cmd:
 150              	.LFB12:
 178:.\mmc_avr_usart.c **** 
 179:.\mmc_avr_usart.c **** 
 180:.\mmc_avr_usart.c **** 
 181:.\mmc_avr_usart.c **** /*-----------------------------------------------------------------------*/
 182:.\mmc_avr_usart.c **** /* Receive a data packet from MMC                                        */
 183:.\mmc_avr_usart.c **** /*-----------------------------------------------------------------------*/
 184:.\mmc_avr_usart.c **** 
 185:.\mmc_avr_usart.c **** static
 186:.\mmc_avr_usart.c **** int rcvr_datablock (
 187:.\mmc_avr_usart.c **** 	BYTE *buff,			/* Data buffer to store received data */
 188:.\mmc_avr_usart.c **** 	UINT btr			/* Byte count (must be multiple of 4) */
 189:.\mmc_avr_usart.c **** )
 190:.\mmc_avr_usart.c **** {
 191:.\mmc_avr_usart.c **** 	BYTE token;
 192:.\mmc_avr_usart.c **** 
ARM GAS  C:\Users\Petro\AppData\Local\Temp\cc2P2A0w.s 			page 7


 193:.\mmc_avr_usart.c **** 
 194:.\mmc_avr_usart.c **** 	//Timer1 = 20;
 195:.\mmc_avr_usart.c ****     CyDelay(200);
 196:.\mmc_avr_usart.c **** 	//do {							/* Wait for data packet in timeout of 200ms */
 197:.\mmc_avr_usart.c **** 	    token = xchg_spi(0xFF);
 198:.\mmc_avr_usart.c **** 	//} while ((token == 0xFF) && Timer1);
 199:.\mmc_avr_usart.c ****     
 200:.\mmc_avr_usart.c **** 	if (token != 0xFE) return 0;	/* If not valid data token, retutn with error */
 201:.\mmc_avr_usart.c **** 
 202:.\mmc_avr_usart.c **** 	rcvr_spi_multi(buff, btr);		/* Receive the data block into buffer */
 203:.\mmc_avr_usart.c **** 	xchg_spi(0xFF);					/* Discard CRC */
 204:.\mmc_avr_usart.c **** 	xchg_spi(0xFF);
 205:.\mmc_avr_usart.c **** 
 206:.\mmc_avr_usart.c **** 	return 1;						/* Return with success */
 207:.\mmc_avr_usart.c **** }
 208:.\mmc_avr_usart.c **** 
 209:.\mmc_avr_usart.c **** 
 210:.\mmc_avr_usart.c **** 
 211:.\mmc_avr_usart.c **** /*-----------------------------------------------------------------------*/
 212:.\mmc_avr_usart.c **** /* Send a data packet to MMC                                             */
 213:.\mmc_avr_usart.c **** /*-----------------------------------------------------------------------*/
 214:.\mmc_avr_usart.c **** 
 215:.\mmc_avr_usart.c **** #if	_USE_WRITE
 216:.\mmc_avr_usart.c **** static
 217:.\mmc_avr_usart.c **** int xmit_datablock (
 218:.\mmc_avr_usart.c **** 	const BYTE *buff,	/* 512 byte data block to be transmitted */
 219:.\mmc_avr_usart.c **** 	BYTE token			/* Data/Stop token */
 220:.\mmc_avr_usart.c **** )
 221:.\mmc_avr_usart.c **** {
 222:.\mmc_avr_usart.c **** 	BYTE resp;
 223:.\mmc_avr_usart.c **** 
 224:.\mmc_avr_usart.c **** 	if (!wait_ready(500)) return 0;
 225:.\mmc_avr_usart.c **** 
 226:.\mmc_avr_usart.c **** 	xchg_spi(token);					/* Xmit data token */
 227:.\mmc_avr_usart.c **** 	if (token != 0xFD) {	/* Is data token */
 228:.\mmc_avr_usart.c **** 		xmit_spi_multi(buff, 512);		/* Xmit the data block to the MMC */
 229:.\mmc_avr_usart.c **** 		xchg_spi(0xFF);					/* CRC (Dummy) */
 230:.\mmc_avr_usart.c **** 		xchg_spi(0xFF);
 231:.\mmc_avr_usart.c **** 		resp = xchg_spi(0xFF);			/* Reveive data response */
 232:.\mmc_avr_usart.c **** 		if ((resp & 0x1F) != 0x05)		/* If not accepted, return with error */
 233:.\mmc_avr_usart.c **** 			return 0;
 234:.\mmc_avr_usart.c **** 	}
 235:.\mmc_avr_usart.c **** 
 236:.\mmc_avr_usart.c **** 	return 1;
 237:.\mmc_avr_usart.c **** }
 238:.\mmc_avr_usart.c **** #endif
 239:.\mmc_avr_usart.c **** 
 240:.\mmc_avr_usart.c **** 
 241:.\mmc_avr_usart.c **** 
 242:.\mmc_avr_usart.c **** /*-----------------------------------------------------------------------*/
 243:.\mmc_avr_usart.c **** /* Send a command packet to MMC                                          */
 244:.\mmc_avr_usart.c **** /*-----------------------------------------------------------------------*/
 245:.\mmc_avr_usart.c **** 
 246:.\mmc_avr_usart.c **** static
 247:.\mmc_avr_usart.c **** BYTE send_cmd (		/* Returns R1 resp (bit7==1:Send failed) */
 248:.\mmc_avr_usart.c **** 	BYTE cmd,		/* Command index */
 249:.\mmc_avr_usart.c **** 	DWORD arg		/* Argument */
ARM GAS  C:\Users\Petro\AppData\Local\Temp\cc2P2A0w.s 			page 8


 250:.\mmc_avr_usart.c **** )
 251:.\mmc_avr_usart.c **** {
 151              		.loc 1 251 0
 152              		.cfi_startproc
 153              	.LVL13:
 154 0000 38B5     		push	{r3, r4, r5, lr}
 155              		.cfi_def_cfa_offset 16
 156              		.cfi_offset 3, -16
 157              		.cfi_offset 4, -12
 158              		.cfi_offset 5, -8
 159              		.cfi_offset 14, -4
 160 0002 041C     		mov	r4, r0
 161 0004 0D1C     		mov	r5, r1
 252:.\mmc_avr_usart.c **** 	BYTE n, res;
 253:.\mmc_avr_usart.c **** 
 254:.\mmc_avr_usart.c **** 
 255:.\mmc_avr_usart.c **** 	if (cmd & 0x80) {	/* ACMD<n> is the command sequense of CMD55-CMD<n> */
 162              		.loc 1 255 0
 163 0006 43B2     		sxtb	r3, r0
 164 0008 002B     		cmp	r3, #0
 165 000a 07DA     		bge	.L7
 256:.\mmc_avr_usart.c **** 		cmd &= 0x7F;
 166              		.loc 1 256 0
 167 000c 7F23     		mov	r3, #127
 168 000e 1C40     		and	r4, r3
 169              	.LVL14:
 257:.\mmc_avr_usart.c **** 		res = send_cmd(CMD55, 0);
 170              		.loc 1 257 0
 171 0010 3720     		mov	r0, #55
 172 0012 0021     		mov	r1, #0
 173              	.LVL15:
 174 0014 FFF7F4FF 		bl	send_cmd
 175              	.LVL16:
 258:.\mmc_avr_usart.c **** 		if (res > 1) return res;
 176              		.loc 1 258 0
 177 0018 0128     		cmp	r0, #1
 178 001a 36D8     		bhi	.L8
 179              	.LVL17:
 180              	.L7:
 259:.\mmc_avr_usart.c **** 	}
 260:.\mmc_avr_usart.c **** 
 261:.\mmc_avr_usart.c **** 	/* Select the card and wait for ready except to stop multiple block read */
 262:.\mmc_avr_usart.c **** 	if (cmd != CMD12) {
 181              		.loc 1 262 0
 182 001c 0C2C     		cmp	r4, #12
 183 001e 05D0     		beq	.L9
 263:.\mmc_avr_usart.c **** 		deselect();
 184              		.loc 1 263 0
 185 0020 FFF7FEFF 		bl	deselect
 186              	.LVL18:
 264:.\mmc_avr_usart.c **** 		if (!select()) return 0xFF;
 187              		.loc 1 264 0
 188 0024 FFF7FEFF 		bl	select
 189              	.LVL19:
 190 0028 0028     		cmp	r0, #0
 191 002a 2DD0     		beq	.L16
 192              	.L9:
ARM GAS  C:\Users\Petro\AppData\Local\Temp\cc2P2A0w.s 			page 9


 265:.\mmc_avr_usart.c **** 	}
 266:.\mmc_avr_usart.c **** 
 267:.\mmc_avr_usart.c **** 	/* Send command packet */
 268:.\mmc_avr_usart.c **** 	xchg_spi(0x40 | cmd);				/* Start + Command index */
 193              		.loc 1 268 0
 194 002c 4020     		mov	r0, #64
 195 002e 2043     		orr	r0, r4
 196 0030 FFF7FEFF 		bl	xchg_spi
 197              	.LVL20:
 269:.\mmc_avr_usart.c **** 	xchg_spi((BYTE)(arg >> 24));		/* Argument[31..24] */
 198              		.loc 1 269 0
 199 0034 280E     		lsr	r0, r5, #24
 200 0036 FFF7FEFF 		bl	xchg_spi
 201              	.LVL21:
 270:.\mmc_avr_usart.c **** 	xchg_spi((BYTE)(arg >> 16));		/* Argument[23..16] */
 202              		.loc 1 270 0
 203 003a 280C     		lsr	r0, r5, #16
 204 003c C0B2     		uxtb	r0, r0
 205 003e FFF7FEFF 		bl	xchg_spi
 206              	.LVL22:
 271:.\mmc_avr_usart.c **** 	xchg_spi((BYTE)(arg >> 8));			/* Argument[15..8] */
 207              		.loc 1 271 0
 208 0042 280A     		lsr	r0, r5, #8
 209 0044 C0B2     		uxtb	r0, r0
 210 0046 FFF7FEFF 		bl	xchg_spi
 211              	.LVL23:
 272:.\mmc_avr_usart.c **** 	xchg_spi((BYTE)arg);				/* Argument[7..0] */
 212              		.loc 1 272 0
 213 004a E8B2     		uxtb	r0, r5
 214 004c FFF7FEFF 		bl	xchg_spi
 215              	.LVL24:
 273:.\mmc_avr_usart.c **** 	n = 0x01;							/* Dummy CRC + Stop */
 274:.\mmc_avr_usart.c **** 	if (cmd == CMD0) n = 0x95;			/* Valid CRC for CMD0(0) + Stop */
 216              		.loc 1 274 0
 217 0050 002C     		cmp	r4, #0
 218 0052 01D0     		beq	.L17
 273:.\mmc_avr_usart.c **** 	n = 0x01;							/* Dummy CRC + Stop */
 219              		.loc 1 273 0
 220 0054 0120     		mov	r0, #1
 221 0056 00E0     		b	.L10
 222              	.L17:
 223              		.loc 1 274 0
 224 0058 9520     		mov	r0, #149
 225              	.L10:
 226              	.LVL25:
 275:.\mmc_avr_usart.c **** 	if (cmd == CMD8) n = 0x87;			/* Valid CRC for CMD8(0x1AA) Stop */
 227              		.loc 1 275 0
 228 005a 082C     		cmp	r4, #8
 229 005c 00D1     		bne	.L11
 230 005e 8720     		mov	r0, #135
 231              	.LVL26:
 232              	.L11:
 276:.\mmc_avr_usart.c **** 	xchg_spi(n);
 233              		.loc 1 276 0
 234 0060 FFF7FEFF 		bl	xchg_spi
 235              	.LVL27:
 277:.\mmc_avr_usart.c **** 
ARM GAS  C:\Users\Petro\AppData\Local\Temp\cc2P2A0w.s 			page 10


 278:.\mmc_avr_usart.c **** 	/* Receive command response */
 279:.\mmc_avr_usart.c **** 	if (cmd == CMD12) xchg_spi(0xFF);		/* Skip a stuff byte when stop reading */
 236              		.loc 1 279 0
 237 0064 0C2C     		cmp	r4, #12
 238 0066 02D1     		bne	.L12
 239              		.loc 1 279 0 is_stmt 0 discriminator 1
 240 0068 FF20     		mov	r0, #255
 241 006a FFF7FEFF 		bl	xchg_spi
 242              	.LVL28:
 243              	.L12:
 275:.\mmc_avr_usart.c **** 	xchg_spi(n);
 244              		.loc 1 275 0 is_stmt 1 discriminator 2
 245 006e 0A24     		mov	r4, #10
 246              	.LVL29:
 247              	.L14:
 280:.\mmc_avr_usart.c **** 	n = 10;								/* Wait for a valid response in timeout of 10 attempts */
 281:.\mmc_avr_usart.c **** 	do
 282:.\mmc_avr_usart.c **** 		res = xchg_spi(0xFF);
 248              		.loc 1 282 0 discriminator 2
 249 0070 FF20     		mov	r0, #255
 250 0072 FFF7FEFF 		bl	xchg_spi
 251              	.LVL30:
 252 0076 031C     		mov	r3, r0
 253              	.LVL31:
 283:.\mmc_avr_usart.c **** 	while ((res & 0x80) && --n);
 254              		.loc 1 283 0 discriminator 2
 255 0078 0206     		lsl	r2, r0, #24
 256 007a 03D5     		bpl	.L13
 257              		.loc 1 283 0 is_stmt 0 discriminator 1
 258 007c 013C     		sub	r4, r4, #1
 259              	.LVL32:
 260 007e E4B2     		uxtb	r4, r4
 261              	.LVL33:
 262 0080 002C     		cmp	r4, #0
 263 0082 F5D1     		bne	.L14
 264              	.L13:
 284:.\mmc_avr_usart.c **** 
 285:.\mmc_avr_usart.c **** 	return res;			/* Return with the response value */
 265              		.loc 1 285 0 is_stmt 1
 266 0084 181C     		mov	r0, r3
 267              	.LVL34:
 268 0086 00E0     		b	.L8
 269              	.LVL35:
 270              	.L16:
 264:.\mmc_avr_usart.c **** 	}
 271              		.loc 1 264 0
 272 0088 FF20     		mov	r0, #255
 273              	.LVL36:
 274              	.L8:
 286:.\mmc_avr_usart.c **** }
 275              		.loc 1 286 0
 276              		@ sp needed
 277              	.LVL37:
 278 008a 38BD     		pop	{r3, r4, r5, pc}
 279              		.cfi_endproc
 280              	.LFE12:
 281              		.size	send_cmd, .-send_cmd
ARM GAS  C:\Users\Petro\AppData\Local\Temp\cc2P2A0w.s 			page 11


 282              		.section	.text.rcvr_spi_multi,"ax",%progbits
 283              		.align	2
 284              		.code	16
 285              		.thumb_func
 286              		.type	rcvr_spi_multi, %function
 287              	rcvr_spi_multi:
 288              	.LFB5:
 113:.\mmc_avr_usart.c **** 	SPI_RecvBuff(p, cnt);
 289              		.loc 1 113 0
 290              		.cfi_startproc
 291              	.LVL38:
 292 0000 08B5     		push	{r3, lr}
 293              		.cfi_def_cfa_offset 8
 294              		.cfi_offset 3, -8
 295              		.cfi_offset 14, -4
 114:.\mmc_avr_usart.c **** }
 296              		.loc 1 114 0
 297 0002 C9B2     		uxtb	r1, r1
 298              	.LVL39:
 299 0004 FFF7FEFF 		bl	SPI_RecvBuff
 300              	.LVL40:
 115:.\mmc_avr_usart.c **** 
 301              		.loc 1 115 0
 302              		@ sp needed
 303 0008 08BD     		pop	{r3, pc}
 304              		.cfi_endproc
 305              	.LFE5:
 306              		.size	rcvr_spi_multi, .-rcvr_spi_multi
 307              		.section	.text.rcvr_datablock,"ax",%progbits
 308              		.align	2
 309              		.code	16
 310              		.thumb_func
 311              		.type	rcvr_datablock, %function
 312              	rcvr_datablock:
 313              	.LFB10:
 190:.\mmc_avr_usart.c **** 	BYTE token;
 314              		.loc 1 190 0
 315              		.cfi_startproc
 316              	.LVL41:
 317 0000 38B5     		push	{r3, r4, r5, lr}
 318              		.cfi_def_cfa_offset 16
 319              		.cfi_offset 3, -16
 320              		.cfi_offset 4, -12
 321              		.cfi_offset 5, -8
 322              		.cfi_offset 14, -4
 323 0002 051C     		mov	r5, r0
 324 0004 0C1C     		mov	r4, r1
 195:.\mmc_avr_usart.c **** 	//do {							/* Wait for data packet in timeout of 200ms */
 325              		.loc 1 195 0
 326 0006 C820     		mov	r0, #200
 327              	.LVL42:
 328 0008 FFF7FEFF 		bl	CyDelay
 329              	.LVL43:
 197:.\mmc_avr_usart.c **** 	//} while ((token == 0xFF) && Timer1);
 330              		.loc 1 197 0
 331 000c FF20     		mov	r0, #255
 332 000e FFF7FEFF 		bl	xchg_spi
ARM GAS  C:\Users\Petro\AppData\Local\Temp\cc2P2A0w.s 			page 12


 333              	.LVL44:
 200:.\mmc_avr_usart.c **** 
 334              		.loc 1 200 0
 335 0012 FE28     		cmp	r0, #254
 336 0014 0BD1     		bne	.L22
 202:.\mmc_avr_usart.c **** 	xchg_spi(0xFF);					/* Discard CRC */
 337              		.loc 1 202 0
 338 0016 281C     		mov	r0, r5
 339              	.LVL45:
 340 0018 211C     		mov	r1, r4
 341 001a FFF7FEFF 		bl	rcvr_spi_multi
 342              	.LVL46:
 203:.\mmc_avr_usart.c **** 	xchg_spi(0xFF);
 343              		.loc 1 203 0
 344 001e FF20     		mov	r0, #255
 345 0020 FFF7FEFF 		bl	xchg_spi
 346              	.LVL47:
 204:.\mmc_avr_usart.c **** 
 347              		.loc 1 204 0
 348 0024 FF20     		mov	r0, #255
 349 0026 FFF7FEFF 		bl	xchg_spi
 350              	.LVL48:
 206:.\mmc_avr_usart.c **** }
 351              		.loc 1 206 0
 352 002a 0120     		mov	r0, #1
 353 002c 00E0     		b	.L21
 354              	.LVL49:
 355              	.L22:
 200:.\mmc_avr_usart.c **** 
 356              		.loc 1 200 0
 357 002e 0020     		mov	r0, #0
 358              	.LVL50:
 359              	.L21:
 207:.\mmc_avr_usart.c **** 
 360              		.loc 1 207 0
 361              		@ sp needed
 362              	.LVL51:
 363              	.LVL52:
 364 0030 38BD     		pop	{r3, r4, r5, pc}
 365              		.cfi_endproc
 366              	.LFE10:
 367              		.size	rcvr_datablock, .-rcvr_datablock
 368 0032 C046     		.section	.text.xmit_spi_multi,"ax",%progbits
 369              		.align	2
 370              		.code	16
 371              		.thumb_func
 372              		.type	xmit_spi_multi, %function
 373              	xmit_spi_multi:
 374              	.LFB6:
 124:.\mmc_avr_usart.c **** 	SPI_SendBuff((uint8_t *) p, cnt);
 375              		.loc 1 124 0
 376              		.cfi_startproc
 377              	.LVL53:
 378 0000 08B5     		push	{r3, lr}
 379              		.cfi_def_cfa_offset 8
 380              		.cfi_offset 3, -8
 381              		.cfi_offset 14, -4
ARM GAS  C:\Users\Petro\AppData\Local\Temp\cc2P2A0w.s 			page 13


 125:.\mmc_avr_usart.c **** }
 382              		.loc 1 125 0
 383 0002 C9B2     		uxtb	r1, r1
 384              	.LVL54:
 385 0004 FFF7FEFF 		bl	SPI_SendBuff
 386              	.LVL55:
 126:.\mmc_avr_usart.c **** 
 387              		.loc 1 126 0
 388              		@ sp needed
 389 0008 08BD     		pop	{r3, pc}
 390              		.cfi_endproc
 391              	.LFE6:
 392              		.size	xmit_spi_multi, .-xmit_spi_multi
 393              		.section	.text.xmit_datablock,"ax",%progbits
 394              		.align	2
 395              		.code	16
 396              		.thumb_func
 397              		.type	xmit_datablock, %function
 398              	xmit_datablock:
 399              	.LFB11:
 221:.\mmc_avr_usart.c **** 	BYTE resp;
 400              		.loc 1 221 0
 401              		.cfi_startproc
 402              	.LVL56:
 403 0000 38B5     		push	{r3, r4, r5, lr}
 404              		.cfi_def_cfa_offset 16
 405              		.cfi_offset 3, -16
 406              		.cfi_offset 4, -12
 407              		.cfi_offset 5, -8
 408              		.cfi_offset 14, -4
 409 0002 051C     		mov	r5, r0
 410 0004 0C1C     		mov	r4, r1
 224:.\mmc_avr_usart.c **** 
 411              		.loc 1 224 0
 412 0006 FA20     		mov	r0, #250
 413              	.LVL57:
 414 0008 4000     		lsl	r0, r0, #1
 415 000a FFF7FEFF 		bl	wait_ready
 416              	.LVL58:
 417 000e 0028     		cmp	r0, #0
 418 0010 1BD0     		beq	.L25
 226:.\mmc_avr_usart.c **** 	if (token != 0xFD) {	/* Is data token */
 419              		.loc 1 226 0
 420 0012 201C     		mov	r0, r4
 421 0014 FFF7FEFF 		bl	xchg_spi
 422              	.LVL59:
 227:.\mmc_avr_usart.c **** 		xmit_spi_multi(buff, 512);		/* Xmit the data block to the MMC */
 423              		.loc 1 227 0
 424 0018 FD2C     		cmp	r4, #253
 425 001a 13D0     		beq	.L26
 228:.\mmc_avr_usart.c **** 		xchg_spi(0xFF);					/* CRC (Dummy) */
 426              		.loc 1 228 0
 427 001c 281C     		mov	r0, r5
 428 001e 8021     		mov	r1, #128
 429 0020 8900     		lsl	r1, r1, #2
 430 0022 FFF7FEFF 		bl	xmit_spi_multi
 431              	.LVL60:
ARM GAS  C:\Users\Petro\AppData\Local\Temp\cc2P2A0w.s 			page 14


 229:.\mmc_avr_usart.c **** 		xchg_spi(0xFF);
 432              		.loc 1 229 0
 433 0026 FF20     		mov	r0, #255
 434 0028 FFF7FEFF 		bl	xchg_spi
 435              	.LVL61:
 230:.\mmc_avr_usart.c **** 		resp = xchg_spi(0xFF);			/* Reveive data response */
 436              		.loc 1 230 0
 437 002c FF20     		mov	r0, #255
 438 002e FFF7FEFF 		bl	xchg_spi
 439              	.LVL62:
 231:.\mmc_avr_usart.c **** 		if ((resp & 0x1F) != 0x05)		/* If not accepted, return with error */
 440              		.loc 1 231 0
 441 0032 FF20     		mov	r0, #255
 442 0034 FFF7FEFF 		bl	xchg_spi
 443              	.LVL63:
 232:.\mmc_avr_usart.c **** 			return 0;
 444              		.loc 1 232 0
 445 0038 1F23     		mov	r3, #31
 446 003a 1840     		and	r0, r3
 447              	.LVL64:
 448 003c 0528     		cmp	r0, #5
 449 003e 03D0     		beq	.L27
 233:.\mmc_avr_usart.c **** 	}
 450              		.loc 1 233 0
 451 0040 0020     		mov	r0, #0
 452 0042 02E0     		b	.L25
 453              	.L26:
 236:.\mmc_avr_usart.c **** }
 454              		.loc 1 236 0
 455 0044 0120     		mov	r0, #1
 456 0046 00E0     		b	.L25
 457              	.L27:
 458 0048 0120     		mov	r0, #1
 459              	.L25:
 237:.\mmc_avr_usart.c **** #endif
 460              		.loc 1 237 0
 461              		@ sp needed
 462              	.LVL65:
 463 004a 38BD     		pop	{r3, r4, r5, pc}
 464              		.cfi_endproc
 465              	.LFE11:
 466              		.size	xmit_datablock, .-xmit_datablock
 467              		.section	.text.mmc_disk_initialize,"ax",%progbits
 468              		.align	2
 469              		.global	mmc_disk_initialize
 470              		.code	16
 471              		.thumb_func
 472              		.type	mmc_disk_initialize, %function
 473              	mmc_disk_initialize:
 474              	.LFB13:
 287:.\mmc_avr_usart.c **** 
 288:.\mmc_avr_usart.c **** 
 289:.\mmc_avr_usart.c **** 
 290:.\mmc_avr_usart.c **** /*--------------------------------------------------------------------------
 291:.\mmc_avr_usart.c **** 
 292:.\mmc_avr_usart.c ****    Public Functions
 293:.\mmc_avr_usart.c **** 
ARM GAS  C:\Users\Petro\AppData\Local\Temp\cc2P2A0w.s 			page 15


 294:.\mmc_avr_usart.c **** ---------------------------------------------------------------------------*/
 295:.\mmc_avr_usart.c **** 
 296:.\mmc_avr_usart.c **** 
 297:.\mmc_avr_usart.c **** /*-----------------------------------------------------------------------*/
 298:.\mmc_avr_usart.c **** /* Initialize Disk Drive                                                 */
 299:.\mmc_avr_usart.c **** /*-----------------------------------------------------------------------*/
 300:.\mmc_avr_usart.c **** 
 301:.\mmc_avr_usart.c **** DSTATUS mmc_disk_initialize (void)
 302:.\mmc_avr_usart.c **** {
 475              		.loc 1 302 0
 476              		.cfi_startproc
 477 0000 30B5     		push	{r4, r5, lr}
 478              		.cfi_def_cfa_offset 12
 479              		.cfi_offset 4, -12
 480              		.cfi_offset 5, -8
 481              		.cfi_offset 14, -4
 482 0002 83B0     		sub	sp, sp, #12
 483              		.cfi_def_cfa_offset 24
 303:.\mmc_avr_usart.c **** 	BYTE n, cmd, ty, ocr[4];
 304:.\mmc_avr_usart.c **** 
 305:.\mmc_avr_usart.c **** 
 306:.\mmc_avr_usart.c **** 	power_off();						/* Turn off the socket power to reset the card */
 307:.\mmc_avr_usart.c **** 	CyDelay(100);               		/* Wait for 100ms */
 484              		.loc 1 307 0
 485 0004 6420     		mov	r0, #100
 486 0006 FFF7FEFF 		bl	CyDelay
 487              	.LVL66:
 308:.\mmc_avr_usart.c **** 	if (Stat & STA_NODISK) return Stat;	/* No card in the socket? */
 488              		.loc 1 308 0
 489 000a 454B     		ldr	r3, .L52
 490 000c 1B78     		ldrb	r3, [r3]
 491 000e 9B07     		lsl	r3, r3, #30
 492 0010 09D5     		bpl	.L43
 493              		.loc 1 308 0 is_stmt 0 discriminator 1
 494 0012 434B     		ldr	r3, .L52
 495 0014 1878     		ldrb	r0, [r3]
 496 0016 C0B2     		uxtb	r0, r0
 497 0018 80E0     		b	.L30
 498              	.LVL67:
 499              	.L31:
 309:.\mmc_avr_usart.c **** 
 310:.\mmc_avr_usart.c **** 	power_on();							/* Turn on the socket power */
 311:.\mmc_avr_usart.c **** 	//FCLK_SLOW();
 312:.\mmc_avr_usart.c **** 	for (n = 10; n; n--) xchg_spi(0xFF);	/* 80 dummy clocks */
 500              		.loc 1 312 0 is_stmt 1 discriminator 3
 501 001a FF20     		mov	r0, #255
 502 001c FFF7FEFF 		bl	xchg_spi
 503              	.LVL68:
 504 0020 013C     		sub	r4, r4, #1
 505              	.LVL69:
 506 0022 E4B2     		uxtb	r4, r4
 507              	.LVL70:
 508 0024 00E0     		b	.L29
 509              	.LVL71:
 510              	.L43:
 511 0026 0A24     		mov	r4, #10
 512              	.L29:
ARM GAS  C:\Users\Petro\AppData\Local\Temp\cc2P2A0w.s 			page 16


 513              	.LVL72:
 514              		.loc 1 312 0 is_stmt 0 discriminator 1
 515 0028 002C     		cmp	r4, #0
 516 002a F6D1     		bne	.L31
 517              	.LVL73:
 313:.\mmc_avr_usart.c **** 
 314:.\mmc_avr_usart.c **** 	ty = 0;
 315:.\mmc_avr_usart.c **** 	if (send_cmd(CMD0, 0) == 1) {			/* Put the card SPI mode */
 518              		.loc 1 315 0 is_stmt 1
 519 002c 0020     		mov	r0, #0
 520 002e 0021     		mov	r1, #0
 521 0030 FFF7FEFF 		bl	send_cmd
 522              	.LVL74:
 523 0034 0128     		cmp	r0, #1
 524 0036 5CD1     		bne	.L44
 316:.\mmc_avr_usart.c **** 		//Timer1 = 100;						/* Initialization timeout of 1000 msec */
 317:.\mmc_avr_usart.c **** 		if (send_cmd(CMD8, 0x1AA) == 1) {	/* Is the card SDv2? */
 525              		.loc 1 317 0
 526 0038 0730     		add	r0, r0, #7
 527 003a D521     		mov	r1, #213
 528 003c 4900     		lsl	r1, r1, #1
 529 003e FFF7FEFF 		bl	send_cmd
 530              	.LVL75:
 531 0042 0128     		cmp	r0, #1
 532 0044 39D1     		bne	.L51
 533 0046 07E0     		b	.L45
 534              	.LVL76:
 535              	.L35:
 318:.\mmc_avr_usart.c **** 			for (n = 0; n < 4; n++) ocr[n] = xchg_spi(0xFF);	/* Get trailing return value of R7 resp */
 536              		.loc 1 318 0 discriminator 3
 537 0048 FF20     		mov	r0, #255
 538 004a FFF7FEFF 		bl	xchg_spi
 539              	.LVL77:
 540 004e 01AB     		add	r3, sp, #4
 541 0050 5855     		strb	r0, [r3, r5]
 542 0052 0135     		add	r5, r5, #1
 543              	.LVL78:
 544 0054 EDB2     		uxtb	r5, r5
 545              	.LVL79:
 546 0056 00E0     		b	.L33
 547              	.LVL80:
 548              	.L45:
 549 0058 251C     		mov	r5, r4
 550              	.LVL81:
 551              	.L33:
 552              		.loc 1 318 0 is_stmt 0 discriminator 1
 553 005a 032D     		cmp	r5, #3
 554 005c F4D9     		bls	.L35
 319:.\mmc_avr_usart.c **** 			if (ocr[2] == 0x01 && ocr[3] == 0xAA) {				/* The card can work at vdd range of 2.7-3.6V */
 555              		.loc 1 319 0 is_stmt 1
 556 005e 01AB     		add	r3, sp, #4
 557 0060 9B78     		ldrb	r3, [r3, #2]
 558 0062 012B     		cmp	r3, #1
 559 0064 47D1     		bne	.L46
 560              		.loc 1 319 0 is_stmt 0 discriminator 1
 561 0066 01AB     		add	r3, sp, #4
 562 0068 DB78     		ldrb	r3, [r3, #3]
ARM GAS  C:\Users\Petro\AppData\Local\Temp\cc2P2A0w.s 			page 17


 563 006a AA2B     		cmp	r3, #170
 564 006c 45D1     		bne	.L47
 320:.\mmc_avr_usart.c **** 				CyDelay(100);
 565              		.loc 1 320 0 is_stmt 1
 566 006e 6420     		mov	r0, #100
 567 0070 FFF7FEFF 		bl	CyDelay
 568              	.LVL82:
 569              	.L36:
 321:.\mmc_avr_usart.c ****                 while (/*Timer1 &&*/ send_cmd(ACMD41, 1UL << 30));	/* Wait for leaving idle state (
 570              		.loc 1 321 0 discriminator 1
 571 0074 A920     		mov	r0, #169
 572 0076 8021     		mov	r1, #128
 573 0078 C905     		lsl	r1, r1, #23
 574 007a FFF7FEFF 		bl	send_cmd
 575              	.LVL83:
 576 007e 0028     		cmp	r0, #0
 577 0080 F8D1     		bne	.L36
 322:.\mmc_avr_usart.c **** 				CyDelay(100);
 578              		.loc 1 322 0
 579 0082 6430     		add	r0, r0, #100
 580 0084 FFF7FEFF 		bl	CyDelay
 581              	.LVL84:
 323:.\mmc_avr_usart.c ****                 if (/*Timer1 && */send_cmd(CMD58, 0) == 0) {		/* Check CCS bit in the OCR */
 582              		.loc 1 323 0
 583 0088 3A20     		mov	r0, #58
 584 008a 0021     		mov	r1, #0
 585 008c FFF7FEFF 		bl	send_cmd
 586              	.LVL85:
 587 0090 0028     		cmp	r0, #0
 588 0092 08D0     		beq	.L37
 314:.\mmc_avr_usart.c **** 	if (send_cmd(CMD0, 0) == 1) {			/* Put the card SPI mode */
 589              		.loc 1 314 0
 590 0094 0024     		mov	r4, #0
 591 0096 33E0     		b	.L32
 592              	.LVL86:
 593              	.L38:
 324:.\mmc_avr_usart.c **** 					for (n = 0; n < 4; n++) ocr[n] = xchg_spi(0xFF);
 594              		.loc 1 324 0 discriminator 3
 595 0098 FF20     		mov	r0, #255
 596 009a FFF7FEFF 		bl	xchg_spi
 597              	.LVL87:
 598 009e 01AB     		add	r3, sp, #4
 599 00a0 1855     		strb	r0, [r3, r4]
 600 00a2 0134     		add	r4, r4, #1
 601              	.LVL88:
 602 00a4 E4B2     		uxtb	r4, r4
 603              	.LVL89:
 604              	.L37:
 605              		.loc 1 324 0 is_stmt 0 discriminator 1
 606 00a6 032C     		cmp	r4, #3
 607 00a8 F6D9     		bls	.L38
 325:.\mmc_avr_usart.c **** 					ty = (ocr[0] & 0x40) ? CT_SD2 | CT_BLOCK : CT_SD2;	/* Check if the card is SDv2 */
 608              		.loc 1 325 0 is_stmt 1
 609 00aa 01AB     		add	r3, sp, #4
 610 00ac 1B78     		ldrb	r3, [r3]
 611 00ae 5B06     		lsl	r3, r3, #25
 612 00b0 01D5     		bpl	.L48
ARM GAS  C:\Users\Petro\AppData\Local\Temp\cc2P2A0w.s 			page 18


 613 00b2 0C24     		mov	r4, #12
 614              	.LVL90:
 615 00b4 24E0     		b	.L32
 616              	.LVL91:
 617              	.L48:
 618 00b6 0424     		mov	r4, #4
 619              	.LVL92:
 620 00b8 22E0     		b	.L32
 621              	.LVL93:
 622              	.L51:
 326:.\mmc_avr_usart.c **** 				}
 327:.\mmc_avr_usart.c **** 			}
 328:.\mmc_avr_usart.c **** 		} else {							/* SDv1 or MMCv3 */
 329:.\mmc_avr_usart.c **** 			if (send_cmd(ACMD41, 0) <= 1) 	{
 623              		.loc 1 329 0
 624 00ba A920     		mov	r0, #169
 625 00bc 0021     		mov	r1, #0
 626 00be FFF7FEFF 		bl	send_cmd
 627              	.LVL94:
 628 00c2 0128     		cmp	r0, #1
 629 00c4 02D8     		bhi	.L49
 330:.\mmc_avr_usart.c **** 				ty = CT_SD1; cmd = ACMD41;	/* SDv1 */
 630              		.loc 1 330 0
 631 00c6 0224     		mov	r4, #2
 632              	.LVL95:
 633 00c8 A925     		mov	r5, #169
 634 00ca 01E0     		b	.L40
 635              	.LVL96:
 636              	.L49:
 331:.\mmc_avr_usart.c **** 			} else {
 332:.\mmc_avr_usart.c **** 				ty = CT_MMC; cmd = CMD1;	/* MMCv3 */
 637              		.loc 1 332 0
 638 00cc 0124     		mov	r4, #1
 639              	.LVL97:
 640 00ce 0125     		mov	r5, #1
 641              	.L40:
 642              	.LVL98:
 333:.\mmc_avr_usart.c **** 			}
 334:.\mmc_avr_usart.c ****             CyDelay(100);
 643              		.loc 1 334 0
 644 00d0 6420     		mov	r0, #100
 645 00d2 FFF7FEFF 		bl	CyDelay
 646              	.LVL99:
 647              	.L41:
 335:.\mmc_avr_usart.c **** 			while (/*Timer1 &&*/ send_cmd(cmd, 0));			/* Wait for leaving idle state */
 648              		.loc 1 335 0 discriminator 1
 649 00d6 281C     		mov	r0, r5
 650 00d8 0021     		mov	r1, #0
 651 00da FFF7FEFF 		bl	send_cmd
 652              	.LVL100:
 653 00de 0028     		cmp	r0, #0
 654 00e0 F9D1     		bne	.L41
 336:.\mmc_avr_usart.c **** 			if (/*!Timer1 || */send_cmd(CMD16, 512) != 0)	/* Set R/W block length to 512 */
 655              		.loc 1 336 0
 656 00e2 1030     		add	r0, r0, #16
 657 00e4 8021     		mov	r1, #128
 658 00e6 8900     		lsl	r1, r1, #2
ARM GAS  C:\Users\Petro\AppData\Local\Temp\cc2P2A0w.s 			page 19


 659 00e8 FFF7FEFF 		bl	send_cmd
 660              	.LVL101:
 661 00ec 0028     		cmp	r0, #0
 662 00ee 06D1     		bne	.L50
 663 00f0 06E0     		b	.L32
 664              	.LVL102:
 665              	.L44:
 314:.\mmc_avr_usart.c **** 	if (send_cmd(CMD0, 0) == 1) {			/* Put the card SPI mode */
 666              		.loc 1 314 0
 667 00f2 0024     		mov	r4, #0
 668              	.LVL103:
 669 00f4 04E0     		b	.L32
 670              	.LVL104:
 671              	.L46:
 672 00f6 0024     		mov	r4, #0
 673 00f8 02E0     		b	.L32
 674              	.L47:
 675 00fa 0024     		mov	r4, #0
 676 00fc 00E0     		b	.L32
 677              	.LVL105:
 678              	.L50:
 337:.\mmc_avr_usart.c **** 				ty = 0;
 679              		.loc 1 337 0
 680 00fe 0024     		mov	r4, #0
 681              	.LVL106:
 682              	.L32:
 338:.\mmc_avr_usart.c **** 		}
 339:.\mmc_avr_usart.c **** 	}
 340:.\mmc_avr_usart.c **** 	CardType = ty;
 683              		.loc 1 340 0
 684 0100 084B     		ldr	r3, .L52+4
 685 0102 1C70     		strb	r4, [r3]
 341:.\mmc_avr_usart.c **** 	deselect();
 686              		.loc 1 341 0
 687 0104 FFF7FEFF 		bl	deselect
 688              	.LVL107:
 342:.\mmc_avr_usart.c **** 
 343:.\mmc_avr_usart.c **** 	if (ty) {			/* Initialization succeded */
 689              		.loc 1 343 0
 690 0108 002C     		cmp	r4, #0
 691 010a 04D0     		beq	.L42
 344:.\mmc_avr_usart.c **** 		Stat &= ~STA_NOINIT;		/* Clear STA_NOINIT */
 692              		.loc 1 344 0
 693 010c 044A     		ldr	r2, .L52
 694 010e 1378     		ldrb	r3, [r2]
 695 0110 0121     		mov	r1, #1
 696 0112 8B43     		bic	r3, r1
 697 0114 1370     		strb	r3, [r2]
 698              	.L42:
 345:.\mmc_avr_usart.c **** 		//FCLK_FAST();
 346:.\mmc_avr_usart.c **** 	} else {			/* Initialization failed */
 347:.\mmc_avr_usart.c **** 		power_off();
 348:.\mmc_avr_usart.c **** 	}
 349:.\mmc_avr_usart.c **** 
 350:.\mmc_avr_usart.c **** 	return Stat;
 699              		.loc 1 350 0
 700 0116 024B     		ldr	r3, .L52
ARM GAS  C:\Users\Petro\AppData\Local\Temp\cc2P2A0w.s 			page 20


 701 0118 1878     		ldrb	r0, [r3]
 702 011a C0B2     		uxtb	r0, r0
 703              	.LVL108:
 704              	.L30:
 351:.\mmc_avr_usart.c **** }
 705              		.loc 1 351 0
 706 011c 03B0     		add	sp, sp, #12
 707              		@ sp needed
 708 011e 30BD     		pop	{r4, r5, pc}
 709              	.L53:
 710              		.align	2
 711              	.L52:
 712 0120 00000000 		.word	.LANCHOR0
 713 0124 00000000 		.word	.LANCHOR1
 714              		.cfi_endproc
 715              	.LFE13:
 716              		.size	mmc_disk_initialize, .-mmc_disk_initialize
 717              		.section	.text.mmc_disk_status,"ax",%progbits
 718              		.align	2
 719              		.global	mmc_disk_status
 720              		.code	16
 721              		.thumb_func
 722              		.type	mmc_disk_status, %function
 723              	mmc_disk_status:
 724              	.LFB14:
 352:.\mmc_avr_usart.c **** 
 353:.\mmc_avr_usart.c **** 
 354:.\mmc_avr_usart.c **** 
 355:.\mmc_avr_usart.c **** /*-----------------------------------------------------------------------*/
 356:.\mmc_avr_usart.c **** /* Get Disk Status                                                       */
 357:.\mmc_avr_usart.c **** /*-----------------------------------------------------------------------*/
 358:.\mmc_avr_usart.c **** 
 359:.\mmc_avr_usart.c **** DSTATUS mmc_disk_status (void)
 360:.\mmc_avr_usart.c **** {
 725              		.loc 1 360 0
 726              		.cfi_startproc
 361:.\mmc_avr_usart.c **** 	return Stat;
 727              		.loc 1 361 0
 728 0000 014B     		ldr	r3, .L55
 729 0002 1878     		ldrb	r0, [r3]
 730 0004 C0B2     		uxtb	r0, r0
 362:.\mmc_avr_usart.c **** }
 731              		.loc 1 362 0
 732              		@ sp needed
 733 0006 7047     		bx	lr
 734              	.L56:
 735              		.align	2
 736              	.L55:
 737 0008 00000000 		.word	.LANCHOR0
 738              		.cfi_endproc
 739              	.LFE14:
 740              		.size	mmc_disk_status, .-mmc_disk_status
 741              		.section	.text.mmc_disk_read,"ax",%progbits
 742              		.align	2
 743              		.global	mmc_disk_read
 744              		.code	16
 745              		.thumb_func
ARM GAS  C:\Users\Petro\AppData\Local\Temp\cc2P2A0w.s 			page 21


 746              		.type	mmc_disk_read, %function
 747              	mmc_disk_read:
 748              	.LFB15:
 363:.\mmc_avr_usart.c **** 
 364:.\mmc_avr_usart.c **** 
 365:.\mmc_avr_usart.c **** 
 366:.\mmc_avr_usart.c **** /*-----------------------------------------------------------------------*/
 367:.\mmc_avr_usart.c **** /* Read Sector(s)                                                        */
 368:.\mmc_avr_usart.c **** /*-----------------------------------------------------------------------*/
 369:.\mmc_avr_usart.c **** 
 370:.\mmc_avr_usart.c **** DRESULT mmc_disk_read (
 371:.\mmc_avr_usart.c **** 	BYTE *buff,			/* Pointer to the data buffer to store read data */
 372:.\mmc_avr_usart.c **** 	DWORD sector,		/* Start sector number (LBA) */
 373:.\mmc_avr_usart.c **** 	UINT count			/* Sector count (1..128) */
 374:.\mmc_avr_usart.c **** )
 375:.\mmc_avr_usart.c **** {
 749              		.loc 1 375 0
 750              		.cfi_startproc
 751              	.LVL109:
 752 0000 70B5     		push	{r4, r5, r6, lr}
 753              		.cfi_def_cfa_offset 16
 754              		.cfi_offset 4, -16
 755              		.cfi_offset 5, -12
 756              		.cfi_offset 6, -8
 757              		.cfi_offset 14, -4
 758 0002 051C     		mov	r5, r0
 759 0004 141E     		sub	r4, r2, #0
 376:.\mmc_avr_usart.c **** 	BYTE cmd;
 377:.\mmc_avr_usart.c **** 
 378:.\mmc_avr_usart.c **** 
 379:.\mmc_avr_usart.c **** 	if (!count) return RES_PARERR;
 760              		.loc 1 379 0
 761 0006 2CD0     		beq	.L64
 380:.\mmc_avr_usart.c **** 	if (Stat & STA_NOINIT) return RES_NOTRDY;
 762              		.loc 1 380 0
 763 0008 184B     		ldr	r3, .L67
 764 000a 1B78     		ldrb	r3, [r3]
 765 000c DB07     		lsl	r3, r3, #31
 766 000e 2AD4     		bmi	.L65
 381:.\mmc_avr_usart.c **** 
 382:.\mmc_avr_usart.c **** 	if (!(CardType & CT_BLOCK)) sector *= 512;	/* Convert to byte address if needed */
 767              		.loc 1 382 0
 768 0010 174B     		ldr	r3, .L67+4
 769 0012 1B78     		ldrb	r3, [r3]
 770 0014 1B07     		lsl	r3, r3, #28
 771 0016 00D4     		bmi	.L59
 772              		.loc 1 382 0 is_stmt 0 discriminator 1
 773 0018 4902     		lsl	r1, r1, #9
 774              	.LVL110:
 775              	.L59:
 383:.\mmc_avr_usart.c **** 
 384:.\mmc_avr_usart.c **** 	cmd = count > 1 ? CMD18 : CMD17;			/*  READ_MULTIPLE_BLOCK : READ_SINGLE_BLOCK */
 776              		.loc 1 384 0 is_stmt 1
 777 001a 012C     		cmp	r4, #1
 778 001c 01D9     		bls	.L66
 779 001e 1226     		mov	r6, #18
 780 0020 00E0     		b	.L60
ARM GAS  C:\Users\Petro\AppData\Local\Temp\cc2P2A0w.s 			page 22


 781              	.L66:
 782 0022 1126     		mov	r6, #17
 783              	.L60:
 784              	.LVL111:
 385:.\mmc_avr_usart.c **** 	if (send_cmd(cmd, sector) == 0) {
 785              		.loc 1 385 0 discriminator 4
 786 0024 301C     		mov	r0, r6
 787              	.LVL112:
 788 0026 FFF7FEFF 		bl	send_cmd
 789              	.LVL113:
 790 002a 0028     		cmp	r0, #0
 791 002c 13D1     		bne	.L61
 792              	.L63:
 386:.\mmc_avr_usart.c **** 		do {
 387:.\mmc_avr_usart.c **** 			if (!rcvr_datablock(buff, 512)) break;
 793              		.loc 1 387 0
 794 002e 281C     		mov	r0, r5
 795 0030 8021     		mov	r1, #128
 796 0032 8900     		lsl	r1, r1, #2
 797 0034 FFF7FEFF 		bl	rcvr_datablock
 798              	.LVL114:
 799 0038 0028     		cmp	r0, #0
 800 003a 06D0     		beq	.L62
 388:.\mmc_avr_usart.c **** 			buff += 512;
 801              		.loc 1 388 0
 802 003c 8023     		mov	r3, #128
 803 003e 9B00     		lsl	r3, r3, #2
 804 0040 9C46     		mov	ip, r3
 805 0042 6544     		add	r5, r5, ip
 806              	.LVL115:
 389:.\mmc_avr_usart.c **** 		} while (--count);
 807              		.loc 1 389 0
 808 0044 013C     		sub	r4, r4, #1
 809              	.LVL116:
 810 0046 002C     		cmp	r4, #0
 811 0048 F1D1     		bne	.L63
 812              	.L62:
 390:.\mmc_avr_usart.c **** 		if (cmd == CMD18) send_cmd(CMD12, 0);	/* STOP_TRANSMISSION */
 813              		.loc 1 390 0
 814 004a 122E     		cmp	r6, #18
 815 004c 03D1     		bne	.L61
 816              		.loc 1 390 0 is_stmt 0 discriminator 1
 817 004e 0C20     		mov	r0, #12
 818 0050 0021     		mov	r1, #0
 819 0052 FFF7FEFF 		bl	send_cmd
 820              	.LVL117:
 821              	.L61:
 391:.\mmc_avr_usart.c **** 	}
 392:.\mmc_avr_usart.c **** 	deselect();
 822              		.loc 1 392 0 is_stmt 1
 823 0056 FFF7FEFF 		bl	deselect
 824              	.LVL118:
 393:.\mmc_avr_usart.c **** 
 394:.\mmc_avr_usart.c **** 	return count ? RES_ERROR : RES_OK;
 825              		.loc 1 394 0
 826 005a 601E     		sub	r0, r4, #1
 827 005c 8441     		sbc	r4, r4, r0
ARM GAS  C:\Users\Petro\AppData\Local\Temp\cc2P2A0w.s 			page 23


 828              	.LVL119:
 829 005e E0B2     		uxtb	r0, r4
 830 0060 02E0     		b	.L58
 831              	.LVL120:
 832              	.L64:
 379:.\mmc_avr_usart.c **** 	if (Stat & STA_NOINIT) return RES_NOTRDY;
 833              		.loc 1 379 0
 834 0062 0420     		mov	r0, #4
 835              	.LVL121:
 836 0064 00E0     		b	.L58
 837              	.LVL122:
 838              	.L65:
 380:.\mmc_avr_usart.c **** 
 839              		.loc 1 380 0
 840 0066 0320     		mov	r0, #3
 841              	.LVL123:
 842              	.L58:
 395:.\mmc_avr_usart.c **** }
 843              		.loc 1 395 0
 844              		@ sp needed
 845              	.LVL124:
 846 0068 70BD     		pop	{r4, r5, r6, pc}
 847              	.L68:
 848 006a C046     		.align	2
 849              	.L67:
 850 006c 00000000 		.word	.LANCHOR0
 851 0070 00000000 		.word	.LANCHOR1
 852              		.cfi_endproc
 853              	.LFE15:
 854              		.size	mmc_disk_read, .-mmc_disk_read
 855              		.section	.text.mmc_disk_write,"ax",%progbits
 856              		.align	2
 857              		.global	mmc_disk_write
 858              		.code	16
 859              		.thumb_func
 860              		.type	mmc_disk_write, %function
 861              	mmc_disk_write:
 862              	.LFB16:
 396:.\mmc_avr_usart.c **** 
 397:.\mmc_avr_usart.c **** 
 398:.\mmc_avr_usart.c **** 
 399:.\mmc_avr_usart.c **** /*-----------------------------------------------------------------------*/
 400:.\mmc_avr_usart.c **** /* Write Sector(s)                                                       */
 401:.\mmc_avr_usart.c **** /*-----------------------------------------------------------------------*/
 402:.\mmc_avr_usart.c **** 
 403:.\mmc_avr_usart.c **** #if _USE_WRITE
 404:.\mmc_avr_usart.c **** DRESULT mmc_disk_write (
 405:.\mmc_avr_usart.c **** 	const BYTE *buff,	/* Pointer to the data to be written */
 406:.\mmc_avr_usart.c **** 	DWORD sector,		/* Start sector number (LBA) */
 407:.\mmc_avr_usart.c **** 	UINT count			/* Sector count (1..128) */
 408:.\mmc_avr_usart.c **** )
 409:.\mmc_avr_usart.c **** {
 863              		.loc 1 409 0
 864              		.cfi_startproc
 865              	.LVL125:
 866 0000 70B5     		push	{r4, r5, r6, lr}
 867              		.cfi_def_cfa_offset 16
ARM GAS  C:\Users\Petro\AppData\Local\Temp\cc2P2A0w.s 			page 24


 868              		.cfi_offset 4, -16
 869              		.cfi_offset 5, -12
 870              		.cfi_offset 6, -8
 871              		.cfi_offset 14, -4
 872 0002 051C     		mov	r5, r0
 873 0004 0E1C     		mov	r6, r1
 874 0006 141E     		sub	r4, r2, #0
 410:.\mmc_avr_usart.c **** 	if (!count) return RES_PARERR;
 875              		.loc 1 410 0
 876 0008 45D0     		beq	.L77
 411:.\mmc_avr_usart.c **** 	if (Stat & STA_NOINIT) return RES_NOTRDY;
 877              		.loc 1 411 0
 878 000a 264B     		ldr	r3, .L82
 879 000c 1B78     		ldrb	r3, [r3]
 880 000e DB07     		lsl	r3, r3, #31
 881 0010 43D4     		bmi	.L78
 412:.\mmc_avr_usart.c **** 	if (Stat & STA_PROTECT) return RES_WRPRT;
 882              		.loc 1 412 0
 883 0012 244B     		ldr	r3, .L82
 884 0014 1B78     		ldrb	r3, [r3]
 885 0016 5B07     		lsl	r3, r3, #29
 886 0018 41D4     		bmi	.L79
 413:.\mmc_avr_usart.c **** 
 414:.\mmc_avr_usart.c **** 	if (!(CardType & CT_BLOCK)) sector *= 512;	/* Convert to byte address if needed */
 887              		.loc 1 414 0
 888 001a 234B     		ldr	r3, .L82+4
 889 001c 1B78     		ldrb	r3, [r3]
 890 001e 1A07     		lsl	r2, r3, #28
 891 0020 00D4     		bmi	.L71
 892              	.LVL126:
 893              		.loc 1 414 0 is_stmt 0 discriminator 1
 894 0022 4E02     		lsl	r6, r1, #9
 895              	.LVL127:
 896              	.L71:
 415:.\mmc_avr_usart.c **** 
 416:.\mmc_avr_usart.c **** 	if (count == 1) {	/* Single block write */
 897              		.loc 1 416 0 is_stmt 1
 898 0024 012C     		cmp	r4, #1
 899 0026 0CD1     		bne	.L72
 417:.\mmc_avr_usart.c **** 		if ((send_cmd(CMD24, sector) == 0)	/* WRITE_BLOCK */
 900              		.loc 1 417 0
 901 0028 1820     		mov	r0, #24
 902              	.LVL128:
 903 002a 311C     		mov	r1, r6
 904 002c FFF7FEFF 		bl	send_cmd
 905              	.LVL129:
 906 0030 0028     		cmp	r0, #0
 907 0032 2AD1     		bne	.L73
 418:.\mmc_avr_usart.c **** 			&& xmit_datablock(buff, 0xFE))
 908              		.loc 1 418 0
 909 0034 281C     		mov	r0, r5
 910 0036 FE21     		mov	r1, #254
 911 0038 FFF7FEFF 		bl	xmit_datablock
 912              	.LVL130:
 913 003c 0028     		cmp	r0, #0
 914 003e 21D1     		bne	.L80
 915 0040 23E0     		b	.L73
ARM GAS  C:\Users\Petro\AppData\Local\Temp\cc2P2A0w.s 			page 25


 916              	.LVL131:
 917              	.L72:
 419:.\mmc_avr_usart.c **** 			count = 0;
 420:.\mmc_avr_usart.c **** 	}
 421:.\mmc_avr_usart.c **** 	else {				/* Multiple block write */
 422:.\mmc_avr_usart.c **** 		if (CardType & CT_SDC) send_cmd(ACMD23, count);
 918              		.loc 1 422 0
 919 0042 0622     		mov	r2, #6
 920 0044 1A42     		tst	r2, r3
 921 0046 03D0     		beq	.L74
 922              		.loc 1 422 0 is_stmt 0 discriminator 1
 923 0048 9720     		mov	r0, #151
 924              	.LVL132:
 925 004a 211C     		mov	r1, r4
 926 004c FFF7FEFF 		bl	send_cmd
 927              	.LVL133:
 928              	.L74:
 423:.\mmc_avr_usart.c **** 		if (send_cmd(CMD25, sector) == 0) {	/* WRITE_MULTIPLE_BLOCK */
 929              		.loc 1 423 0 is_stmt 1
 930 0050 1920     		mov	r0, #25
 931 0052 311C     		mov	r1, r6
 932 0054 FFF7FEFF 		bl	send_cmd
 933              	.LVL134:
 934 0058 0028     		cmp	r0, #0
 935 005a 16D1     		bne	.L73
 936              	.L76:
 424:.\mmc_avr_usart.c **** 			do {
 425:.\mmc_avr_usart.c **** 				if (!xmit_datablock(buff, 0xFC)) break;
 937              		.loc 1 425 0
 938 005c 281C     		mov	r0, r5
 939 005e FC21     		mov	r1, #252
 940 0060 FFF7FEFF 		bl	xmit_datablock
 941              	.LVL135:
 942 0064 0028     		cmp	r0, #0
 943 0066 06D0     		beq	.L75
 426:.\mmc_avr_usart.c **** 				buff += 512;
 944              		.loc 1 426 0
 945 0068 8023     		mov	r3, #128
 946 006a 9B00     		lsl	r3, r3, #2
 947 006c 9C46     		mov	ip, r3
 948 006e 6544     		add	r5, r5, ip
 949              	.LVL136:
 427:.\mmc_avr_usart.c **** 			} while (--count);
 950              		.loc 1 427 0
 951 0070 013C     		sub	r4, r4, #1
 952              	.LVL137:
 953 0072 002C     		cmp	r4, #0
 954 0074 F2D1     		bne	.L76
 955              	.L75:
 428:.\mmc_avr_usart.c **** 			if (!xmit_datablock(0, 0xFD))	/* STOP_TRAN token */
 956              		.loc 1 428 0
 957 0076 0020     		mov	r0, #0
 958 0078 FD21     		mov	r1, #253
 959 007a FFF7FEFF 		bl	xmit_datablock
 960              	.LVL138:
 961 007e 0028     		cmp	r0, #0
 962 0080 02D0     		beq	.L81
ARM GAS  C:\Users\Petro\AppData\Local\Temp\cc2P2A0w.s 			page 26


 963 0082 02E0     		b	.L73
 964              	.L80:
 419:.\mmc_avr_usart.c **** 	}
 965              		.loc 1 419 0
 966 0084 0024     		mov	r4, #0
 967              	.LVL139:
 968 0086 00E0     		b	.L73
 969              	.LVL140:
 970              	.L81:
 429:.\mmc_avr_usart.c **** 				count = 1;
 971              		.loc 1 429 0
 972 0088 0124     		mov	r4, #1
 973              	.LVL141:
 974              	.L73:
 430:.\mmc_avr_usart.c **** 		}
 431:.\mmc_avr_usart.c **** 	}
 432:.\mmc_avr_usart.c **** 	deselect();
 975              		.loc 1 432 0
 976 008a FFF7FEFF 		bl	deselect
 977              	.LVL142:
 433:.\mmc_avr_usart.c **** 
 434:.\mmc_avr_usart.c **** 	return count ? RES_ERROR : RES_OK;
 978              		.loc 1 434 0
 979 008e 601E     		sub	r0, r4, #1
 980 0090 8441     		sbc	r4, r4, r0
 981              	.LVL143:
 982 0092 E0B2     		uxtb	r0, r4
 983 0094 04E0     		b	.L70
 984              	.LVL144:
 985              	.L77:
 410:.\mmc_avr_usart.c **** 	if (Stat & STA_NOINIT) return RES_NOTRDY;
 986              		.loc 1 410 0
 987 0096 0420     		mov	r0, #4
 988              	.LVL145:
 989 0098 02E0     		b	.L70
 990              	.LVL146:
 991              	.L78:
 411:.\mmc_avr_usart.c **** 	if (Stat & STA_PROTECT) return RES_WRPRT;
 992              		.loc 1 411 0
 993 009a 0320     		mov	r0, #3
 994              	.LVL147:
 995 009c 00E0     		b	.L70
 996              	.LVL148:
 997              	.L79:
 412:.\mmc_avr_usart.c **** 
 998              		.loc 1 412 0
 999 009e 0220     		mov	r0, #2
 1000              	.LVL149:
 1001              	.L70:
 435:.\mmc_avr_usart.c **** }
 1002              		.loc 1 435 0
 1003              		@ sp needed
 1004              	.LVL150:
 1005              	.LVL151:
 1006 00a0 70BD     		pop	{r4, r5, r6, pc}
 1007              	.L83:
 1008 00a2 C046     		.align	2
ARM GAS  C:\Users\Petro\AppData\Local\Temp\cc2P2A0w.s 			page 27


 1009              	.L82:
 1010 00a4 00000000 		.word	.LANCHOR0
 1011 00a8 00000000 		.word	.LANCHOR1
 1012              		.cfi_endproc
 1013              	.LFE16:
 1014              		.size	mmc_disk_write, .-mmc_disk_write
 1015              		.section	.text.mmc_disk_ioctl,"ax",%progbits
 1016              		.align	2
 1017              		.global	mmc_disk_ioctl
 1018              		.code	16
 1019              		.thumb_func
 1020              		.type	mmc_disk_ioctl, %function
 1021              	mmc_disk_ioctl:
 1022              	.LFB17:
 436:.\mmc_avr_usart.c **** #endif
 437:.\mmc_avr_usart.c **** 
 438:.\mmc_avr_usart.c **** 
 439:.\mmc_avr_usart.c **** /*-----------------------------------------------------------------------*/
 440:.\mmc_avr_usart.c **** /* Miscellaneous Functions                                               */
 441:.\mmc_avr_usart.c **** /*-----------------------------------------------------------------------*/
 442:.\mmc_avr_usart.c **** 
 443:.\mmc_avr_usart.c **** #if _USE_IOCTL
 444:.\mmc_avr_usart.c **** DRESULT mmc_disk_ioctl (
 445:.\mmc_avr_usart.c **** 	BYTE cmd,		/* Control code */
 446:.\mmc_avr_usart.c **** 	void *buff		/* Buffer to send/receive control data */
 447:.\mmc_avr_usart.c **** )
 448:.\mmc_avr_usart.c **** {
 1023              		.loc 1 448 0
 1024              		.cfi_startproc
 1025              	.LVL152:
 1026 0000 F0B5     		push	{r4, r5, r6, r7, lr}
 1027              		.cfi_def_cfa_offset 20
 1028              		.cfi_offset 4, -20
 1029              		.cfi_offset 5, -16
 1030              		.cfi_offset 6, -12
 1031              		.cfi_offset 7, -8
 1032              		.cfi_offset 14, -4
 1033 0002 85B0     		sub	sp, sp, #20
 1034              		.cfi_def_cfa_offset 40
 1035 0004 0C1C     		mov	r4, r1
 1036              	.LVL153:
 449:.\mmc_avr_usart.c **** 	DRESULT res;
 450:.\mmc_avr_usart.c **** 	BYTE n, csd[16], *ptr = buff;
 451:.\mmc_avr_usart.c **** 	DWORD csize;
 452:.\mmc_avr_usart.c **** #if _USE_ISDIO
 453:.\mmc_avr_usart.c **** 	SDIO_CTRL *sdi;
 454:.\mmc_avr_usart.c **** 	BYTE rc, *bp;
 455:.\mmc_avr_usart.c **** 	UINT dc;
 456:.\mmc_avr_usart.c **** #endif
 457:.\mmc_avr_usart.c **** 
 458:.\mmc_avr_usart.c **** 	if (Stat & STA_NOINIT) return RES_NOTRDY;
 1037              		.loc 1 458 0
 1038 0006 CA4B     		ldr	r3, .L150
 1039 0008 1B78     		ldrb	r3, [r3]
 1040 000a DB07     		lsl	r3, r3, #31
 1041 000c 00D5     		bpl	.LCB1065
 1042 000e CAE1     		b	.L129	@long jump
ARM GAS  C:\Users\Petro\AppData\Local\Temp\cc2P2A0w.s 			page 28


 1043              	.LCB1065:
 1044              	.LVL154:
 459:.\mmc_avr_usart.c **** 
 460:.\mmc_avr_usart.c **** 	res = RES_ERROR;
 461:.\mmc_avr_usart.c **** 	switch (cmd) {
 1045              		.loc 1 461 0
 1046 0010 3928     		cmp	r0, #57
 1047 0012 00D9     		bls	.LCB1068
 1048 0014 C4E1     		b	.L130	@long jump
 1049              	.LCB1068:
 1050 0016 8000     		lsl	r0, r0, #2
 1051              	.LVL155:
 1052 0018 C64B     		ldr	r3, .L150+4
 1053 001a 1B58     		ldr	r3, [r3, r0]
 1054 001c 9F46     		mov	pc, r3
 1055              		.section	.rodata
 1056              		.align	2
 1057              	.L88:
 1058 0000 1E000000 		.word	.L87
 1059 0004 32000000 		.word	.L89
 1060 0008 A0030000 		.word	.L130
 1061 000c BE000000 		.word	.L90
 1062 0010 A0030000 		.word	.L130
 1063 0014 A0030000 		.word	.L130
 1064 0018 A0030000 		.word	.L130
 1065 001c 38020000 		.word	.L91
 1066 0020 A0030000 		.word	.L130
 1067 0024 A0030000 		.word	.L130
 1068 0028 A0030000 		.word	.L130
 1069 002c A0030000 		.word	.L130
 1070 0030 A0030000 		.word	.L130
 1071 0034 A0030000 		.word	.L130
 1072 0038 A0030000 		.word	.L130
 1073 003c A0030000 		.word	.L130
 1074 0040 A0030000 		.word	.L130
 1075 0044 A0030000 		.word	.L130
 1076 0048 A0030000 		.word	.L130
 1077 004c A0030000 		.word	.L130
 1078 0050 A0030000 		.word	.L130
 1079 0054 A0030000 		.word	.L130
 1080 0058 A0030000 		.word	.L130
 1081 005c A0030000 		.word	.L130
 1082 0060 A0030000 		.word	.L130
 1083 0064 A0030000 		.word	.L130
 1084 0068 A0030000 		.word	.L130
 1085 006c A0030000 		.word	.L130
 1086 0070 A0030000 		.word	.L130
 1087 0074 A0030000 		.word	.L130
 1088 0078 A0030000 		.word	.L130
 1089 007c A0030000 		.word	.L130
 1090 0080 A0030000 		.word	.L130
 1091 0084 A0030000 		.word	.L130
 1092 0088 A0030000 		.word	.L130
 1093 008c A0030000 		.word	.L130
 1094 0090 A0030000 		.word	.L130
 1095 0094 A0030000 		.word	.L130
 1096 0098 A0030000 		.word	.L130
ARM GAS  C:\Users\Petro\AppData\Local\Temp\cc2P2A0w.s 			page 29


 1097 009c A0030000 		.word	.L130
 1098 00a0 A0030000 		.word	.L130
 1099 00a4 A0030000 		.word	.L130
 1100 00a8 A0030000 		.word	.L130
 1101 00ac A0030000 		.word	.L130
 1102 00b0 A0030000 		.word	.L130
 1103 00b4 A0030000 		.word	.L130
 1104 00b8 A0030000 		.word	.L130
 1105 00bc A0030000 		.word	.L130
 1106 00c0 A0030000 		.word	.L130
 1107 00c4 A0030000 		.word	.L130
 1108 00c8 80010000 		.word	.L92
 1109 00cc 8A010000 		.word	.L93
 1110 00d0 B2010000 		.word	.L94
 1111 00d4 DA010000 		.word	.L95
 1112 00d8 0A020000 		.word	.L96
 1113 00dc 46020000 		.word	.L97
 1114 00e0 B8020000 		.word	.L98
 1115 00e4 40030000 		.word	.L99
 1116              		.section	.text.mmc_disk_ioctl
 1117              	.L87:
 462:.\mmc_avr_usart.c **** 	case CTRL_SYNC :		/* Make sure that no pending write process. Do not remove this or written sector
 463:.\mmc_avr_usart.c **** 		if (select()) res = RES_OK;
 1118              		.loc 1 463 0
 1119 001e FFF7FEFF 		bl	select
 1120              	.LVL156:
 1121 0022 0028     		cmp	r0, #0
 1122 0024 01D1     		bne	.L131
 460:.\mmc_avr_usart.c **** 	switch (cmd) {
 1123              		.loc 1 460 0
 1124 0026 0124     		mov	r4, #1
 1125              	.LVL157:
 1126 0028 00E0     		b	.L100
 1127              	.LVL158:
 1128              	.L131:
 1129              		.loc 1 463 0
 1130 002a 0024     		mov	r4, #0
 1131              	.LVL159:
 1132              	.L100:
 464:.\mmc_avr_usart.c **** 		deselect();
 1133              		.loc 1 464 0
 1134 002c FFF7FEFF 		bl	deselect
 1135              	.LVL160:
 465:.\mmc_avr_usart.c **** 		break;
 1136              		.loc 1 465 0
 1137 0030 B7E1     		b	.L86
 1138              	.LVL161:
 1139              	.L89:
 466:.\mmc_avr_usart.c **** 
 467:.\mmc_avr_usart.c **** 	case GET_SECTOR_COUNT :	/* Get number of sectors on the disk (DWORD) */
 468:.\mmc_avr_usart.c **** 		if ((send_cmd(CMD9, 0) == 0) && rcvr_datablock(csd, 16)) {
 1140              		.loc 1 468 0
 1141 0032 0920     		mov	r0, #9
 1142 0034 0021     		mov	r1, #0
 1143              	.LVL162:
 1144 0036 FFF7FEFF 		bl	send_cmd
 1145              	.LVL163:
ARM GAS  C:\Users\Petro\AppData\Local\Temp\cc2P2A0w.s 			page 30


 1146 003a 0028     		cmp	r0, #0
 1147 003c 39D1     		bne	.L132
 1148              		.loc 1 468 0 is_stmt 0 discriminator 1
 1149 003e 6846     		mov	r0, sp
 1150 0040 1021     		mov	r1, #16
 1151 0042 FFF7FEFF 		bl	rcvr_datablock
 1152              	.LVL164:
 1153 0046 0028     		cmp	r0, #0
 1154 0048 35D0     		beq	.L133
 469:.\mmc_avr_usart.c **** 			if ((csd[0] >> 6) == 1) {	/* SDC ver 2.00 */
 1155              		.loc 1 469 0 is_stmt 1
 1156 004a 6B46     		mov	r3, sp
 1157 004c 1B78     		ldrb	r3, [r3]
 1158 004e 9B09     		lsr	r3, r3, #6
 1159 0050 012B     		cmp	r3, #1
 1160 0052 0FD1     		bne	.L102
 470:.\mmc_avr_usart.c **** 				csize = csd[9] + ((WORD)csd[8] << 8) + ((DWORD)(csd[7] & 63) << 16) + 1;
 1161              		.loc 1 470 0
 1162 0054 6B46     		mov	r3, sp
 1163 0056 5A7A     		ldrb	r2, [r3, #9]
 1164 0058 197A     		ldrb	r1, [r3, #8]
 1165 005a 0B02     		lsl	r3, r1, #8
 1166 005c D118     		add	r1, r2, r3
 1167 005e 6B46     		mov	r3, sp
 1168 0060 DA79     		ldrb	r2, [r3, #7]
 1169 0062 3F23     		mov	r3, #63
 1170 0064 1340     		and	r3, r2
 1171 0066 1B04     		lsl	r3, r3, #16
 1172 0068 CB18     		add	r3, r1, r3
 1173 006a 0133     		add	r3, r3, #1
 1174              	.LVL165:
 471:.\mmc_avr_usart.c **** 				*(DWORD*)buff = csize << 10;
 1175              		.loc 1 471 0
 1176 006c 9B02     		lsl	r3, r3, #10
 1177              	.LVL166:
 1178 006e 2360     		str	r3, [r4]
 472:.\mmc_avr_usart.c **** 			} else {					/* SDC ver 1.XX or MMC*/
 473:.\mmc_avr_usart.c **** 				n = (csd[5] & 15) + ((csd[10] & 128) >> 7) + ((csd[9] & 3) << 1) + 2;
 474:.\mmc_avr_usart.c **** 				csize = (csd[8] >> 6) + ((WORD)csd[7] << 2) + ((WORD)(csd[6] & 3) << 10) + 1;
 475:.\mmc_avr_usart.c **** 				*(DWORD*)buff = csize << (n - 9);
 476:.\mmc_avr_usart.c **** 			}
 477:.\mmc_avr_usart.c **** 			res = RES_OK;
 1179              		.loc 1 477 0
 1180 0070 0024     		mov	r4, #0
 1181              	.LVL167:
 1182 0072 21E0     		b	.L101
 1183              	.LVL168:
 1184              	.L102:
 473:.\mmc_avr_usart.c **** 				csize = (csd[8] >> 6) + ((WORD)csd[7] << 2) + ((WORD)(csd[6] & 3) << 10) + 1;
 1185              		.loc 1 473 0
 1186 0074 6B46     		mov	r3, sp
 1187 0076 5A79     		ldrb	r2, [r3, #5]
 1188 0078 997A     		ldrb	r1, [r3, #10]
 1189 007a C809     		lsr	r0, r1, #7
 1190 007c 5B7A     		ldrb	r3, [r3, #9]
 1191 007e 0F21     		mov	r1, #15
 1192 0080 0A40     		and	r2, r1
ARM GAS  C:\Users\Petro\AppData\Local\Temp\cc2P2A0w.s 			page 31


 1193 0082 8118     		add	r1, r0, r2
 1194 0084 0322     		mov	r2, #3
 1195 0086 1340     		and	r3, r2
 1196 0088 5B00     		lsl	r3, r3, #1
 1197 008a CB18     		add	r3, r1, r3
 1198 008c 0233     		add	r3, r3, #2
 1199 008e DBB2     		uxtb	r3, r3
 1200              	.LVL169:
 474:.\mmc_avr_usart.c **** 				*(DWORD*)buff = csize << (n - 9);
 1201              		.loc 1 474 0
 1202 0090 6946     		mov	r1, sp
 1203 0092 087A     		ldrb	r0, [r1, #8]
 1204 0094 8009     		lsr	r0, r0, #6
 1205 0096 C979     		ldrb	r1, [r1, #7]
 1206 0098 8900     		lsl	r1, r1, #2
 1207 009a 4018     		add	r0, r0, r1
 1208 009c 6946     		mov	r1, sp
 1209 009e 8979     		ldrb	r1, [r1, #6]
 1210 00a0 0A40     		and	r2, r1
 1211 00a2 9202     		lsl	r2, r2, #10
 1212 00a4 8218     		add	r2, r0, r2
 1213 00a6 0132     		add	r2, r2, #1
 1214              	.LVL170:
 475:.\mmc_avr_usart.c **** 			}
 1215              		.loc 1 475 0
 1216 00a8 093B     		sub	r3, r3, #9
 1217              	.LVL171:
 1218 00aa 9A40     		lsl	r2, r2, r3
 1219              	.LVL172:
 1220 00ac 2260     		str	r2, [r4]
 1221              		.loc 1 477 0
 1222 00ae 0024     		mov	r4, #0
 1223              	.LVL173:
 1224 00b0 02E0     		b	.L101
 1225              	.LVL174:
 1226              	.L132:
 460:.\mmc_avr_usart.c **** 	switch (cmd) {
 1227              		.loc 1 460 0
 1228 00b2 0124     		mov	r4, #1
 1229              	.LVL175:
 1230 00b4 00E0     		b	.L101
 1231              	.LVL176:
 1232              	.L133:
 1233 00b6 0124     		mov	r4, #1
 1234              	.LVL177:
 1235              	.L101:
 478:.\mmc_avr_usart.c **** 		}
 479:.\mmc_avr_usart.c **** 		deselect();
 1236              		.loc 1 479 0
 1237 00b8 FFF7FEFF 		bl	deselect
 1238              	.LVL178:
 480:.\mmc_avr_usart.c **** 		break;
 1239              		.loc 1 480 0
 1240 00bc 71E1     		b	.L86
 1241              	.LVL179:
 1242              	.L90:
 481:.\mmc_avr_usart.c **** 
ARM GAS  C:\Users\Petro\AppData\Local\Temp\cc2P2A0w.s 			page 32


 482:.\mmc_avr_usart.c **** 	case GET_BLOCK_SIZE :	/* Get erase block size in unit of sector (DWORD) */
 483:.\mmc_avr_usart.c **** 		if (CardType & CT_SD2) {	/* SDv2? */
 1243              		.loc 1 483 0
 1244 00be 9E4B     		ldr	r3, .L150+8
 1245 00c0 1B78     		ldrb	r3, [r3]
 1246 00c2 5B07     		lsl	r3, r3, #29
 1247 00c4 21D5     		bpl	.L103
 484:.\mmc_avr_usart.c **** 			if (send_cmd(ACMD13, 0) == 0) {	/* Read SD status */
 1248              		.loc 1 484 0
 1249 00c6 8D20     		mov	r0, #141
 1250 00c8 0021     		mov	r1, #0
 1251              	.LVL180:
 1252 00ca FFF7FEFF 		bl	send_cmd
 1253              	.LVL181:
 1254 00ce 0028     		cmp	r0, #0
 1255 00d0 4ED1     		bne	.L134
 485:.\mmc_avr_usart.c **** 				xchg_spi(0xFF);
 1256              		.loc 1 485 0
 1257 00d2 FF30     		add	r0, r0, #255
 1258 00d4 FFF7FEFF 		bl	xchg_spi
 1259              	.LVL182:
 486:.\mmc_avr_usart.c **** 				if (rcvr_datablock(csd, 16)) {				/* Read partial block */
 1260              		.loc 1 486 0
 1261 00d8 6846     		mov	r0, sp
 1262 00da 1021     		mov	r1, #16
 1263 00dc FFF7FEFF 		bl	rcvr_datablock
 1264              	.LVL183:
 1265 00e0 0028     		cmp	r0, #0
 1266 00e2 07D1     		bne	.L135
 460:.\mmc_avr_usart.c **** 	switch (cmd) {
 1267              		.loc 1 460 0
 1268 00e4 0124     		mov	r4, #1
 1269              	.LVL184:
 1270 00e6 48E0     		b	.L104
 1271              	.LVL185:
 1272              	.L106:
 487:.\mmc_avr_usart.c **** 					for (n = 64 - 16; n; n--) xchg_spi(0xFF);	/* Purge trailing data */
 1273              		.loc 1 487 0 discriminator 3
 1274 00e8 FF20     		mov	r0, #255
 1275 00ea FFF7FEFF 		bl	xchg_spi
 1276              	.LVL186:
 1277 00ee 013D     		sub	r5, r5, #1
 1278              	.LVL187:
 1279 00f0 EDB2     		uxtb	r5, r5
 1280              	.LVL188:
 1281 00f2 00E0     		b	.L105
 1282              	.LVL189:
 1283              	.L135:
 1284 00f4 3025     		mov	r5, #48
 1285              	.L105:
 1286              	.LVL190:
 1287              		.loc 1 487 0 is_stmt 0 discriminator 1
 1288 00f6 002D     		cmp	r5, #0
 1289 00f8 F6D1     		bne	.L106
 488:.\mmc_avr_usart.c **** 					*(DWORD*)buff = 16UL << (csd[10] >> 4);
 1290              		.loc 1 488 0 is_stmt 1
 1291 00fa 6B46     		mov	r3, sp
ARM GAS  C:\Users\Petro\AppData\Local\Temp\cc2P2A0w.s 			page 33


 1292 00fc 9B7A     		ldrb	r3, [r3, #10]
 1293 00fe 1A09     		lsr	r2, r3, #4
 1294 0100 1023     		mov	r3, #16
 1295 0102 9340     		lsl	r3, r3, r2
 1296 0104 2360     		str	r3, [r4]
 1297              	.LVL191:
 489:.\mmc_avr_usart.c **** 					res = RES_OK;
 1298              		.loc 1 489 0
 1299 0106 0024     		mov	r4, #0
 1300              	.LVL192:
 1301 0108 37E0     		b	.L104
 1302              	.LVL193:
 1303              	.L103:
 490:.\mmc_avr_usart.c **** 				}
 491:.\mmc_avr_usart.c **** 			}
 492:.\mmc_avr_usart.c **** 		} else {					/* SDv1 or MMCv3 */
 493:.\mmc_avr_usart.c **** 			if ((send_cmd(CMD9, 0) == 0) && rcvr_datablock(csd, 16)) {	/* Read CSD */
 1304              		.loc 1 493 0
 1305 010a 0920     		mov	r0, #9
 1306 010c 0021     		mov	r1, #0
 1307              	.LVL194:
 1308 010e FFF7FEFF 		bl	send_cmd
 1309              	.LVL195:
 1310 0112 0028     		cmp	r0, #0
 1311 0114 2ED1     		bne	.L136
 1312              		.loc 1 493 0 is_stmt 0 discriminator 1
 1313 0116 6846     		mov	r0, sp
 1314 0118 1021     		mov	r1, #16
 1315 011a FFF7FEFF 		bl	rcvr_datablock
 1316              	.LVL196:
 1317 011e 0028     		cmp	r0, #0
 1318 0120 2AD0     		beq	.L137
 494:.\mmc_avr_usart.c **** 				if (CardType & CT_SD1) {	/* SDv1 */
 1319              		.loc 1 494 0 is_stmt 1
 1320 0122 854B     		ldr	r3, .L150+8
 1321 0124 1B78     		ldrb	r3, [r3]
 1322 0126 9B07     		lsl	r3, r3, #30
 1323 0128 11D5     		bpl	.L107
 495:.\mmc_avr_usart.c **** 					*(DWORD*)buff = (((csd[10] & 63) << 1) + ((WORD)(csd[11] & 128) >> 7) + 1) << ((csd[13] >> 6) 
 1324              		.loc 1 495 0
 1325 012a 6B46     		mov	r3, sp
 1326 012c 9A7A     		ldrb	r2, [r3, #10]
 1327 012e 3F23     		mov	r3, #63
 1328 0130 1A40     		and	r2, r3
 1329 0132 5200     		lsl	r2, r2, #1
 1330 0134 6B46     		mov	r3, sp
 1331 0136 DB7A     		ldrb	r3, [r3, #11]
 1332 0138 DB09     		lsr	r3, r3, #7
 1333 013a D318     		add	r3, r2, r3
 1334 013c 5A1C     		add	r2, r3, #1
 1335 013e 6B46     		mov	r3, sp
 1336 0140 5B7B     		ldrb	r3, [r3, #13]
 1337 0142 9B09     		lsr	r3, r3, #6
 1338 0144 013B     		sub	r3, r3, #1
 1339 0146 9A40     		lsl	r2, r2, r3
 1340 0148 2260     		str	r2, [r4]
 496:.\mmc_avr_usart.c **** 				} else {					/* MMCv3 */
ARM GAS  C:\Users\Petro\AppData\Local\Temp\cc2P2A0w.s 			page 34


 497:.\mmc_avr_usart.c **** 					*(DWORD*)buff = ((WORD)((csd[10] & 124) >> 2) + 1) * (((csd[11] & 3) << 3) + ((csd[11] & 224) 
 498:.\mmc_avr_usart.c **** 				}
 499:.\mmc_avr_usart.c **** 				res = RES_OK;
 1341              		.loc 1 499 0
 1342 014a 0024     		mov	r4, #0
 1343              	.LVL197:
 1344 014c 15E0     		b	.L104
 1345              	.LVL198:
 1346              	.L107:
 497:.\mmc_avr_usart.c **** 				}
 1347              		.loc 1 497 0
 1348 014e 6B46     		mov	r3, sp
 1349 0150 9B7A     		ldrb	r3, [r3, #10]
 1350 0152 5B06     		lsl	r3, r3, #25
 1351 0154 DB0E     		lsr	r3, r3, #27
 1352 0156 5A1C     		add	r2, r3, #1
 1353 0158 6B46     		mov	r3, sp
 1354 015a DB7A     		ldrb	r3, [r3, #11]
 1355 015c 0321     		mov	r1, #3
 1356 015e 1940     		and	r1, r3
 1357 0160 C900     		lsl	r1, r1, #3
 1358 0162 5B09     		lsr	r3, r3, #5
 1359 0164 CB18     		add	r3, r1, r3
 1360 0166 0133     		add	r3, r3, #1
 1361 0168 5343     		mul	r3, r2
 1362 016a 2360     		str	r3, [r4]
 1363              		.loc 1 499 0
 1364 016c 0024     		mov	r4, #0
 1365              	.LVL199:
 1366 016e 04E0     		b	.L104
 1367              	.LVL200:
 1368              	.L134:
 460:.\mmc_avr_usart.c **** 	switch (cmd) {
 1369              		.loc 1 460 0
 1370 0170 0124     		mov	r4, #1
 1371              	.LVL201:
 1372 0172 02E0     		b	.L104
 1373              	.LVL202:
 1374              	.L136:
 1375 0174 0124     		mov	r4, #1
 1376              	.LVL203:
 1377 0176 00E0     		b	.L104
 1378              	.LVL204:
 1379              	.L137:
 1380 0178 0124     		mov	r4, #1
 1381              	.LVL205:
 1382              	.L104:
 500:.\mmc_avr_usart.c **** 			}
 501:.\mmc_avr_usart.c **** 		}
 502:.\mmc_avr_usart.c **** 		deselect();
 1383              		.loc 1 502 0
 1384 017a FFF7FEFF 		bl	deselect
 1385              	.LVL206:
 503:.\mmc_avr_usart.c **** 		break;
 1386              		.loc 1 503 0
 1387 017e 10E1     		b	.L86
 1388              	.LVL207:
ARM GAS  C:\Users\Petro\AppData\Local\Temp\cc2P2A0w.s 			page 35


 1389              	.L92:
 504:.\mmc_avr_usart.c **** 
 505:.\mmc_avr_usart.c **** 	/* Following commands are never used by FatFs module */
 506:.\mmc_avr_usart.c **** 
 507:.\mmc_avr_usart.c **** 	case MMC_GET_TYPE :		/* Get card type flags (1 byte) */
 508:.\mmc_avr_usart.c **** 		*ptr = CardType;
 1390              		.loc 1 508 0
 1391 0180 6D4B     		ldr	r3, .L150+8
 1392 0182 1B78     		ldrb	r3, [r3]
 1393 0184 0B70     		strb	r3, [r1]
 1394              	.LVL208:
 509:.\mmc_avr_usart.c **** 		res = RES_OK;
 1395              		.loc 1 509 0
 1396 0186 0024     		mov	r4, #0
 510:.\mmc_avr_usart.c **** 		break;
 1397              		.loc 1 510 0
 1398 0188 0BE1     		b	.L86
 1399              	.LVL209:
 1400              	.L93:
 511:.\mmc_avr_usart.c **** 
 512:.\mmc_avr_usart.c **** 	case MMC_GET_CSD :		/* Receive CSD as a data block (16 bytes) */
 513:.\mmc_avr_usart.c **** 		if (send_cmd(CMD9, 0) == 0 && rcvr_datablock(ptr, 16))		/* READ_CSD */
 1401              		.loc 1 513 0
 1402 018a 0920     		mov	r0, #9
 1403 018c 0021     		mov	r1, #0
 1404              	.LVL210:
 1405 018e FFF7FEFF 		bl	send_cmd
 1406              	.LVL211:
 1407 0192 0028     		cmp	r0, #0
 1408 0194 07D1     		bne	.L138
 1409              		.loc 1 513 0 is_stmt 0 discriminator 1
 1410 0196 201C     		mov	r0, r4
 1411 0198 1021     		mov	r1, #16
 1412 019a FFF7FEFF 		bl	rcvr_datablock
 1413              	.LVL212:
 1414 019e 0028     		cmp	r0, #0
 1415 01a0 03D1     		bne	.L139
 460:.\mmc_avr_usart.c **** 	switch (cmd) {
 1416              		.loc 1 460 0 is_stmt 1
 1417 01a2 0124     		mov	r4, #1
 1418              	.LVL213:
 1419 01a4 02E0     		b	.L108
 1420              	.LVL214:
 1421              	.L138:
 1422 01a6 0124     		mov	r4, #1
 1423              	.LVL215:
 1424 01a8 00E0     		b	.L108
 1425              	.LVL216:
 1426              	.L139:
 514:.\mmc_avr_usart.c **** 			res = RES_OK;
 1427              		.loc 1 514 0
 1428 01aa 0024     		mov	r4, #0
 1429              	.LVL217:
 1430              	.L108:
 515:.\mmc_avr_usart.c **** 		deselect();
 1431              		.loc 1 515 0
 1432 01ac FFF7FEFF 		bl	deselect
ARM GAS  C:\Users\Petro\AppData\Local\Temp\cc2P2A0w.s 			page 36


 1433              	.LVL218:
 516:.\mmc_avr_usart.c **** 		break;
 1434              		.loc 1 516 0
 1435 01b0 F7E0     		b	.L86
 1436              	.LVL219:
 1437              	.L94:
 517:.\mmc_avr_usart.c **** 
 518:.\mmc_avr_usart.c **** 	case MMC_GET_CID :		/* Receive CID as a data block (16 bytes) */
 519:.\mmc_avr_usart.c **** 		if (send_cmd(CMD10, 0) == 0 && rcvr_datablock(ptr, 16))		/* READ_CID */
 1438              		.loc 1 519 0
 1439 01b2 0A20     		mov	r0, #10
 1440 01b4 0021     		mov	r1, #0
 1441              	.LVL220:
 1442 01b6 FFF7FEFF 		bl	send_cmd
 1443              	.LVL221:
 1444 01ba 0028     		cmp	r0, #0
 1445 01bc 07D1     		bne	.L140
 1446              		.loc 1 519 0 is_stmt 0 discriminator 1
 1447 01be 201C     		mov	r0, r4
 1448 01c0 1021     		mov	r1, #16
 1449 01c2 FFF7FEFF 		bl	rcvr_datablock
 1450              	.LVL222:
 1451 01c6 0028     		cmp	r0, #0
 1452 01c8 03D1     		bne	.L141
 460:.\mmc_avr_usart.c **** 	switch (cmd) {
 1453              		.loc 1 460 0 is_stmt 1
 1454 01ca 0124     		mov	r4, #1
 1455              	.LVL223:
 1456 01cc 02E0     		b	.L109
 1457              	.LVL224:
 1458              	.L140:
 1459 01ce 0124     		mov	r4, #1
 1460              	.LVL225:
 1461 01d0 00E0     		b	.L109
 1462              	.LVL226:
 1463              	.L141:
 520:.\mmc_avr_usart.c **** 			
 521:.\mmc_avr_usart.c **** 			res = RES_OK;
 1464              		.loc 1 521 0
 1465 01d2 0024     		mov	r4, #0
 1466              	.LVL227:
 1467              	.L109:
 522:.\mmc_avr_usart.c **** 		deselect();
 1468              		.loc 1 522 0
 1469 01d4 FFF7FEFF 		bl	deselect
 1470              	.LVL228:
 523:.\mmc_avr_usart.c **** 		break;
 1471              		.loc 1 523 0
 1472 01d8 E3E0     		b	.L86
 1473              	.LVL229:
 1474              	.L95:
 524:.\mmc_avr_usart.c **** 
 525:.\mmc_avr_usart.c **** 	case MMC_GET_OCR :		/* Receive OCR as an R3 resp (4 bytes) */
 526:.\mmc_avr_usart.c **** 		if (send_cmd(CMD58, 0) == 0) {	/* READ_OCR */
 1475              		.loc 1 526 0
 1476 01da 3A20     		mov	r0, #58
 1477 01dc 0021     		mov	r1, #0
ARM GAS  C:\Users\Petro\AppData\Local\Temp\cc2P2A0w.s 			page 37


 1478              	.LVL230:
 1479 01de FFF7FEFF 		bl	send_cmd
 1480              	.LVL231:
 1481 01e2 0028     		cmp	r0, #0
 1482 01e4 0AD0     		beq	.L142
 460:.\mmc_avr_usart.c **** 	switch (cmd) {
 1483              		.loc 1 460 0
 1484 01e6 0124     		mov	r4, #1
 1485              	.LVL232:
 1486 01e8 0CE0     		b	.L111
 1487              	.LVL233:
 1488              	.L112:
 527:.\mmc_avr_usart.c **** 			for (n = 4; n; n--) *ptr++ = xchg_spi(0xFF);
 1489              		.loc 1 527 0 discriminator 3
 1490 01ea 661C     		add	r6, r4, #1
 1491              	.LVL234:
 1492 01ec FF20     		mov	r0, #255
 1493 01ee FFF7FEFF 		bl	xchg_spi
 1494              	.LVL235:
 1495 01f2 2070     		strb	r0, [r4]
 1496 01f4 013D     		sub	r5, r5, #1
 1497              	.LVL236:
 1498 01f6 EDB2     		uxtb	r5, r5
 1499              	.LVL237:
 1500 01f8 341C     		mov	r4, r6
 1501 01fa 00E0     		b	.L110
 1502              	.LVL238:
 1503              	.L142:
 1504 01fc 0425     		mov	r5, #4
 1505              	.LVL239:
 1506              	.L110:
 1507              		.loc 1 527 0 is_stmt 0 discriminator 1
 1508 01fe 002D     		cmp	r5, #0
 1509 0200 F3D1     		bne	.L112
 528:.\mmc_avr_usart.c **** 			res = RES_OK;
 1510              		.loc 1 528 0 is_stmt 1
 1511 0202 0024     		mov	r4, #0
 1512              	.LVL240:
 1513              	.L111:
 529:.\mmc_avr_usart.c **** 		}
 530:.\mmc_avr_usart.c **** 		deselect();
 1514              		.loc 1 530 0
 1515 0204 FFF7FEFF 		bl	deselect
 1516              	.LVL241:
 531:.\mmc_avr_usart.c **** 		break;
 1517              		.loc 1 531 0
 1518 0208 CBE0     		b	.L86
 1519              	.LVL242:
 1520              	.L96:
 532:.\mmc_avr_usart.c **** 
 533:.\mmc_avr_usart.c **** 	case MMC_GET_SDSTAT :	/* Receive SD statsu as a data block (64 bytes) */
 534:.\mmc_avr_usart.c **** 		if (send_cmd(ACMD13, 0) == 0) {	/* SD_STATUS */
 1521              		.loc 1 534 0
 1522 020a 8D20     		mov	r0, #141
 1523 020c 0021     		mov	r1, #0
 1524              	.LVL243:
 1525 020e FFF7FEFF 		bl	send_cmd
ARM GAS  C:\Users\Petro\AppData\Local\Temp\cc2P2A0w.s 			page 38


 1526              	.LVL244:
 1527 0212 0028     		cmp	r0, #0
 1528 0214 0AD1     		bne	.L143
 535:.\mmc_avr_usart.c **** 			xchg_spi(0xFF);
 1529              		.loc 1 535 0
 1530 0216 FF30     		add	r0, r0, #255
 1531 0218 FFF7FEFF 		bl	xchg_spi
 1532              	.LVL245:
 536:.\mmc_avr_usart.c **** 			if (rcvr_datablock(ptr, 64)) res = RES_OK;
 1533              		.loc 1 536 0
 1534 021c 201C     		mov	r0, r4
 1535 021e 4021     		mov	r1, #64
 1536 0220 FFF7FEFF 		bl	rcvr_datablock
 1537              	.LVL246:
 1538 0224 0028     		cmp	r0, #0
 1539 0226 03D1     		bne	.L144
 460:.\mmc_avr_usart.c **** 	switch (cmd) {
 1540              		.loc 1 460 0
 1541 0228 0124     		mov	r4, #1
 1542              	.LVL247:
 1543 022a 02E0     		b	.L113
 1544              	.LVL248:
 1545              	.L143:
 1546 022c 0124     		mov	r4, #1
 1547              	.LVL249:
 1548 022e 00E0     		b	.L113
 1549              	.LVL250:
 1550              	.L144:
 1551              		.loc 1 536 0
 1552 0230 0024     		mov	r4, #0
 1553              	.LVL251:
 1554              	.L113:
 537:.\mmc_avr_usart.c **** 		}
 538:.\mmc_avr_usart.c **** 		deselect();
 1555              		.loc 1 538 0
 1556 0232 FFF7FEFF 		bl	deselect
 1557              	.LVL252:
 539:.\mmc_avr_usart.c **** 		break;
 1558              		.loc 1 539 0
 1559 0236 B4E0     		b	.L86
 1560              	.LVL253:
 1561              	.L91:
 540:.\mmc_avr_usart.c **** 
 541:.\mmc_avr_usart.c **** 	case CTRL_POWER_OFF :	/* Power off */
 542:.\mmc_avr_usart.c **** 		power_off();
 543:.\mmc_avr_usart.c **** 		Stat |= STA_NOINIT;
 1562              		.loc 1 543 0
 1563 0238 3D4A     		ldr	r2, .L150
 1564 023a 1178     		ldrb	r1, [r2]
 1565              	.LVL254:
 1566 023c 0123     		mov	r3, #1
 1567 023e 0B43     		orr	r3, r1
 1568 0240 1370     		strb	r3, [r2]
 1569              	.LVL255:
 544:.\mmc_avr_usart.c **** 		res = RES_OK;
 1570              		.loc 1 544 0
 1571 0242 0024     		mov	r4, #0
ARM GAS  C:\Users\Petro\AppData\Local\Temp\cc2P2A0w.s 			page 39


 1572              	.LVL256:
 545:.\mmc_avr_usart.c **** 		break;
 1573              		.loc 1 545 0
 1574 0244 ADE0     		b	.L86
 1575              	.LVL257:
 1576              	.L97:
 546:.\mmc_avr_usart.c **** #if _USE_ISDIO
 547:.\mmc_avr_usart.c **** 	case ISDIO_READ:
 548:.\mmc_avr_usart.c **** 		sdi = buff;
 549:.\mmc_avr_usart.c **** 		if (send_cmd(CMD48, 0x80000000 | (DWORD)sdi->func << 28 | (DWORD)sdi->addr << 9 | ((sdi->ndata - 
 1577              		.loc 1 549 0
 1578 0246 0978     		ldrb	r1, [r1]
 1579              	.LVL258:
 1580 0248 0907     		lsl	r1, r1, #28
 1581 024a 6368     		ldr	r3, [r4, #4]
 1582 024c 5B02     		lsl	r3, r3, #9
 1583 024e 1943     		orr	r1, r3
 1584 0250 6388     		ldrh	r3, [r4, #2]
 1585 0252 013B     		sub	r3, r3, #1
 1586 0254 DB05     		lsl	r3, r3, #23
 1587 0256 DB0D     		lsr	r3, r3, #23
 1588 0258 1943     		orr	r1, r3
 1589 025a 8023     		mov	r3, #128
 1590 025c 1B06     		lsl	r3, r3, #24
 1591 025e 1943     		orr	r1, r3
 1592 0260 3020     		mov	r0, #48
 1593 0262 FFF7FEFF 		bl	send_cmd
 1594              	.LVL259:
 1595 0266 0028     		cmp	r0, #0
 1596 0268 04D0     		beq	.L114
 460:.\mmc_avr_usart.c **** 	switch (cmd) {
 1597              		.loc 1 460 0
 1598 026a 0124     		mov	r4, #1
 1599              	.LVL260:
 1600 026c 21E0     		b	.L115
 1601              	.LVL261:
 1602              	.L116:
 550:.\mmc_avr_usart.c **** 			for (/*Timer1 = 100*/; (rc = xchg_spi(0xFF)) == 0xFF /*&& Timer1*/; ) CyDelay(100);;
 1603              		.loc 1 550 0 discriminator 2
 1604 026e 6420     		mov	r0, #100
 1605              	.LVL262:
 1606 0270 FFF7FEFF 		bl	CyDelay
 1607              	.LVL263:
 1608              	.L114:
 1609              		.loc 1 550 0 is_stmt 0 discriminator 1
 1610 0274 FF20     		mov	r0, #255
 1611 0276 FFF7FEFF 		bl	xchg_spi
 1612              	.LVL264:
 1613 027a FF28     		cmp	r0, #255
 1614 027c F7D0     		beq	.L116
 551:.\mmc_avr_usart.c **** 			if (rc == 0xFE) {
 1615              		.loc 1 551 0 is_stmt 1
 1616 027e FE28     		cmp	r0, #254
 1617 0280 16D1     		bne	.L145
 552:.\mmc_avr_usart.c **** 				for (bp = sdi->data, dc = sdi->ndata; dc; dc--) *bp++ = xchg_spi(0xFF);
 1618              		.loc 1 552 0
 1619 0282 A668     		ldr	r6, [r4, #8]
ARM GAS  C:\Users\Petro\AppData\Local\Temp\cc2P2A0w.s 			page 40


 1620              	.LVL265:
 1621 0284 6588     		ldrh	r5, [r4, #2]
 1622              	.LVL266:
 1623 0286 06E0     		b	.L117
 1624              	.LVL267:
 1625              	.L118:
 1626              		.loc 1 552 0 is_stmt 0 discriminator 3
 1627 0288 771C     		add	r7, r6, #1
 1628              	.LVL268:
 1629 028a FF20     		mov	r0, #255
 1630 028c FFF7FEFF 		bl	xchg_spi
 1631              	.LVL269:
 1632 0290 3070     		strb	r0, [r6]
 1633 0292 013D     		sub	r5, r5, #1
 1634              	.LVL270:
 1635 0294 3E1C     		mov	r6, r7
 1636              	.LVL271:
 1637              	.L117:
 1638              		.loc 1 552 0 discriminator 1
 1639 0296 002D     		cmp	r5, #0
 1640 0298 F6D1     		bne	.L118
 553:.\mmc_avr_usart.c **** 				for (dc = 514 - sdi->ndata; dc; dc--) xchg_spi(0xFF);
 1641              		.loc 1 553 0 is_stmt 1
 1642 029a 6488     		ldrh	r4, [r4, #2]
 1643              	.LVL272:
 1644 029c 274B     		ldr	r3, .L150+12
 1645 029e 1C1B     		sub	r4, r3, r4
 1646              	.LVL273:
 1647 02a0 03E0     		b	.L119
 1648              	.L120:
 1649              		.loc 1 553 0 is_stmt 0 discriminator 3
 1650 02a2 FF20     		mov	r0, #255
 1651 02a4 FFF7FEFF 		bl	xchg_spi
 1652              	.LVL274:
 1653 02a8 013C     		sub	r4, r4, #1
 1654              	.LVL275:
 1655              	.L119:
 1656              		.loc 1 553 0 discriminator 1
 1657 02aa 002C     		cmp	r4, #0
 1658 02ac F9D1     		bne	.L120
 1659 02ae 00E0     		b	.L115
 1660              	.LVL276:
 1661              	.L145:
 460:.\mmc_avr_usart.c **** 	switch (cmd) {
 1662              		.loc 1 460 0 is_stmt 1
 1663 02b0 0124     		mov	r4, #1
 1664              	.LVL277:
 1665              	.L115:
 554:.\mmc_avr_usart.c **** 				res = RES_OK;
 555:.\mmc_avr_usart.c **** 			}
 556:.\mmc_avr_usart.c **** 		}
 557:.\mmc_avr_usart.c **** 		deselect();
 1666              		.loc 1 557 0
 1667 02b2 FFF7FEFF 		bl	deselect
 1668              	.LVL278:
 558:.\mmc_avr_usart.c **** 		break;
 1669              		.loc 1 558 0
ARM GAS  C:\Users\Petro\AppData\Local\Temp\cc2P2A0w.s 			page 41


 1670 02b6 74E0     		b	.L86
 1671              	.LVL279:
 1672              	.L98:
 559:.\mmc_avr_usart.c **** 
 560:.\mmc_avr_usart.c **** 	case ISDIO_WRITE:
 561:.\mmc_avr_usart.c **** 		sdi = buff;
 562:.\mmc_avr_usart.c **** 		if (send_cmd(CMD49, 0x80000000 | (DWORD)sdi->func << 28 | (DWORD)sdi->addr << 9 | ((sdi->ndata - 
 1673              		.loc 1 562 0
 1674 02b8 0978     		ldrb	r1, [r1]
 1675              	.LVL280:
 1676 02ba 0907     		lsl	r1, r1, #28
 1677 02bc 6368     		ldr	r3, [r4, #4]
 1678 02be 5B02     		lsl	r3, r3, #9
 1679 02c0 1943     		orr	r1, r3
 1680 02c2 6388     		ldrh	r3, [r4, #2]
 1681 02c4 013B     		sub	r3, r3, #1
 1682 02c6 DB05     		lsl	r3, r3, #23
 1683 02c8 DB0D     		lsr	r3, r3, #23
 1684 02ca 1943     		orr	r1, r3
 1685 02cc 8023     		mov	r3, #128
 1686 02ce 1B06     		lsl	r3, r3, #24
 1687 02d0 1943     		orr	r1, r3
 1688 02d2 3120     		mov	r0, #49
 1689 02d4 FFF7FEFF 		bl	send_cmd
 1690              	.LVL281:
 1691 02d8 0028     		cmp	r0, #0
 1692 02da 23D1     		bne	.L146
 563:.\mmc_avr_usart.c **** 			xchg_spi(0xFF); xchg_spi(0xFE);
 1693              		.loc 1 563 0
 1694 02dc FF30     		add	r0, r0, #255
 1695 02de FFF7FEFF 		bl	xchg_spi
 1696              	.LVL282:
 1697 02e2 FE20     		mov	r0, #254
 1698 02e4 FFF7FEFF 		bl	xchg_spi
 1699              	.LVL283:
 564:.\mmc_avr_usart.c **** 			for (bp = sdi->data, dc = sdi->ndata; dc; dc--) xchg_spi(*bp++);
 1700              		.loc 1 564 0
 1701 02e8 A368     		ldr	r3, [r4, #8]
 1702              	.LVL284:
 1703 02ea 6588     		ldrh	r5, [r4, #2]
 1704              	.LVL285:
 1705 02ec 05E0     		b	.L122
 1706              	.L123:
 1707              		.loc 1 564 0 is_stmt 0 discriminator 3
 1708 02ee 5E1C     		add	r6, r3, #1
 1709              	.LVL286:
 1710 02f0 1878     		ldrb	r0, [r3]
 1711 02f2 FFF7FEFF 		bl	xchg_spi
 1712              	.LVL287:
 1713 02f6 013D     		sub	r5, r5, #1
 1714              	.LVL288:
 1715 02f8 331C     		mov	r3, r6
 1716              	.LVL289:
 1717              	.L122:
 1718              		.loc 1 564 0 discriminator 1
 1719 02fa 002D     		cmp	r5, #0
 1720 02fc F7D1     		bne	.L123
ARM GAS  C:\Users\Petro\AppData\Local\Temp\cc2P2A0w.s 			page 42


 565:.\mmc_avr_usart.c **** 			for (dc = 514 - sdi->ndata; dc; dc--) xchg_spi(0xFF);
 1721              		.loc 1 565 0 is_stmt 1
 1722 02fe 6488     		ldrh	r4, [r4, #2]
 1723              	.LVL290:
 1724 0300 0E4B     		ldr	r3, .L150+12
 1725              	.LVL291:
 1726 0302 1C1B     		sub	r4, r3, r4
 1727              	.LVL292:
 1728 0304 03E0     		b	.L124
 1729              	.L125:
 1730              		.loc 1 565 0 is_stmt 0 discriminator 3
 1731 0306 FF20     		mov	r0, #255
 1732 0308 FFF7FEFF 		bl	xchg_spi
 1733              	.LVL293:
 1734 030c 013C     		sub	r4, r4, #1
 1735              	.LVL294:
 1736              	.L124:
 1737              		.loc 1 565 0 discriminator 1
 1738 030e 002C     		cmp	r4, #0
 1739 0310 F9D1     		bne	.L125
 566:.\mmc_avr_usart.c **** 			if ((xchg_spi(0xFF) & 0x1F) == 0x05) res = RES_OK;
 1740              		.loc 1 566 0 is_stmt 1
 1741 0312 FF20     		mov	r0, #255
 1742 0314 FFF7FEFF 		bl	xchg_spi
 1743              	.LVL295:
 1744 0318 1F23     		mov	r3, #31
 1745 031a 1840     		and	r0, r3
 1746 031c 0528     		cmp	r0, #5
 1747 031e 03D0     		beq	.L147
 460:.\mmc_avr_usart.c **** 	switch (cmd) {
 1748              		.loc 1 460 0
 1749 0320 0134     		add	r4, r4, #1
 1750              	.LVL296:
 1751 0322 02E0     		b	.L121
 1752              	.LVL297:
 1753              	.L146:
 1754 0324 0124     		mov	r4, #1
 1755              	.LVL298:
 1756 0326 00E0     		b	.L121
 1757              	.LVL299:
 1758              	.L147:
 1759              		.loc 1 566 0
 1760 0328 0024     		mov	r4, #0
 1761              	.LVL300:
 1762              	.L121:
 567:.\mmc_avr_usart.c **** 		}
 568:.\mmc_avr_usart.c **** 		deselect();
 1763              		.loc 1 568 0
 1764 032a FFF7FEFF 		bl	deselect
 1765              	.LVL301:
 569:.\mmc_avr_usart.c **** 		break;
 1766              		.loc 1 569 0
 1767 032e 38E0     		b	.L86
 1768              	.L151:
 1769              		.align	2
 1770              	.L150:
 1771 0330 00000000 		.word	.LANCHOR0
ARM GAS  C:\Users\Petro\AppData\Local\Temp\cc2P2A0w.s 			page 43


 1772 0334 00000000 		.word	.L88
 1773 0338 00000000 		.word	.LANCHOR1
 1774 033c 02020000 		.word	514
 1775              	.LVL302:
 1776              	.L99:
 570:.\mmc_avr_usart.c **** 
 571:.\mmc_avr_usart.c **** 	case ISDIO_MRITE:
 572:.\mmc_avr_usart.c **** 		sdi = buff;
 573:.\mmc_avr_usart.c **** 		if (send_cmd(CMD49, 0x84000000 | (DWORD)sdi->func << 28 | (DWORD)sdi->addr << 9 | sdi->ndata >> 8
 1777              		.loc 1 573 0
 1778 0340 0978     		ldrb	r1, [r1]
 1779              	.LVL303:
 1780 0342 0907     		lsl	r1, r1, #28
 1781 0344 6368     		ldr	r3, [r4, #4]
 1782 0346 5B02     		lsl	r3, r3, #9
 1783 0348 1943     		orr	r1, r3
 1784 034a 6388     		ldrh	r3, [r4, #2]
 1785 034c 1B0A     		lsr	r3, r3, #8
 1786 034e 1943     		orr	r1, r3
 1787 0350 8423     		mov	r3, #132
 1788 0352 1B06     		lsl	r3, r3, #24
 1789 0354 1943     		orr	r1, r3
 1790 0356 3120     		mov	r0, #49
 1791 0358 FFF7FEFF 		bl	send_cmd
 1792              	.LVL304:
 1793 035c 0028     		cmp	r0, #0
 1794 035e 19D1     		bne	.L148
 574:.\mmc_avr_usart.c **** 			xchg_spi(0xFF); xchg_spi(0xFE);
 1795              		.loc 1 574 0
 1796 0360 FF30     		add	r0, r0, #255
 1797 0362 FFF7FEFF 		bl	xchg_spi
 1798              	.LVL305:
 1799 0366 FE20     		mov	r0, #254
 1800 0368 FFF7FEFF 		bl	xchg_spi
 1801              	.LVL306:
 575:.\mmc_avr_usart.c **** 			xchg_spi(sdi->ndata);
 1802              		.loc 1 575 0
 1803 036c A078     		ldrb	r0, [r4, #2]
 1804 036e FFF7FEFF 		bl	xchg_spi
 1805              	.LVL307:
 576:.\mmc_avr_usart.c **** 			for (dc = 513; dc; dc--) xchg_spi(0xFF);
 1806              		.loc 1 576 0
 1807 0372 0E4C     		ldr	r4, .L152
 1808              	.LVL308:
 1809 0374 03E0     		b	.L127
 1810              	.LVL309:
 1811              	.L128:
 1812              		.loc 1 576 0 is_stmt 0 discriminator 3
 1813 0376 FF20     		mov	r0, #255
 1814 0378 FFF7FEFF 		bl	xchg_spi
 1815              	.LVL310:
 1816 037c 013C     		sub	r4, r4, #1
 1817              	.LVL311:
 1818              	.L127:
 1819              		.loc 1 576 0 discriminator 1
 1820 037e 002C     		cmp	r4, #0
 1821 0380 F9D1     		bne	.L128
ARM GAS  C:\Users\Petro\AppData\Local\Temp\cc2P2A0w.s 			page 44


 577:.\mmc_avr_usart.c **** 			if ((xchg_spi(0xFF) & 0x1F) == 0x05) res = RES_OK;
 1822              		.loc 1 577 0 is_stmt 1
 1823 0382 FF20     		mov	r0, #255
 1824 0384 FFF7FEFF 		bl	xchg_spi
 1825              	.LVL312:
 1826 0388 1F23     		mov	r3, #31
 1827 038a 1840     		and	r0, r3
 1828 038c 0528     		cmp	r0, #5
 1829 038e 03D0     		beq	.L149
 460:.\mmc_avr_usart.c **** 	switch (cmd) {
 1830              		.loc 1 460 0
 1831 0390 0134     		add	r4, r4, #1
 1832              	.LVL313:
 1833 0392 02E0     		b	.L126
 1834              	.LVL314:
 1835              	.L148:
 1836 0394 0124     		mov	r4, #1
 1837              	.LVL315:
 1838 0396 00E0     		b	.L126
 1839              	.LVL316:
 1840              	.L149:
 1841              		.loc 1 577 0
 1842 0398 0024     		mov	r4, #0
 1843              	.LVL317:
 1844              	.L126:
 578:.\mmc_avr_usart.c **** 		}
 579:.\mmc_avr_usart.c **** 		deselect();
 1845              		.loc 1 579 0
 1846 039a FFF7FEFF 		bl	deselect
 1847              	.LVL318:
 580:.\mmc_avr_usart.c **** 		break;
 1848              		.loc 1 580 0
 1849 039e 00E0     		b	.L86
 1850              	.LVL319:
 1851              	.L130:
 581:.\mmc_avr_usart.c **** #endif
 582:.\mmc_avr_usart.c **** 	default:
 583:.\mmc_avr_usart.c **** 		res = RES_PARERR;
 1852              		.loc 1 583 0
 1853 03a0 0424     		mov	r4, #4
 1854              	.LVL320:
 1855              	.L86:
 584:.\mmc_avr_usart.c **** 	}
 585:.\mmc_avr_usart.c **** 
 586:.\mmc_avr_usart.c **** 	return res;
 1856              		.loc 1 586 0
 1857 03a2 201C     		mov	r0, r4
 1858 03a4 00E0     		b	.L85
 1859              	.LVL321:
 1860              	.L129:
 458:.\mmc_avr_usart.c **** 
 1861              		.loc 1 458 0
 1862 03a6 0320     		mov	r0, #3
 1863              	.LVL322:
 1864              	.L85:
 587:.\mmc_avr_usart.c **** }
 1865              		.loc 1 587 0
ARM GAS  C:\Users\Petro\AppData\Local\Temp\cc2P2A0w.s 			page 45


 1866 03a8 05B0     		add	sp, sp, #20
 1867              		@ sp needed
 1868 03aa F0BD     		pop	{r4, r5, r6, r7, pc}
 1869              	.L153:
 1870              		.align	2
 1871              	.L152:
 1872 03ac 01020000 		.word	513
 1873              		.cfi_endproc
 1874              	.LFE17:
 1875              		.size	mmc_disk_ioctl, .-mmc_disk_ioctl
 1876              		.section	.text.mmc_disk_timerproc,"ax",%progbits
 1877              		.align	2
 1878              		.global	mmc_disk_timerproc
 1879              		.code	16
 1880              		.thumb_func
 1881              		.type	mmc_disk_timerproc, %function
 1882              	mmc_disk_timerproc:
 1883              	.LFB18:
 588:.\mmc_avr_usart.c **** #endif
 589:.\mmc_avr_usart.c **** 
 590:.\mmc_avr_usart.c **** 
 591:.\mmc_avr_usart.c **** /*-----------------------------------------------------------------------*/
 592:.\mmc_avr_usart.c **** /* Device Timer Interrupt Procedure                                      */
 593:.\mmc_avr_usart.c **** /*-----------------------------------------------------------------------*/
 594:.\mmc_avr_usart.c **** /* This function must be called in period of 10ms                        */
 595:.\mmc_avr_usart.c **** 
 596:.\mmc_avr_usart.c **** void mmc_disk_timerproc (void)
 597:.\mmc_avr_usart.c **** {
 1884              		.loc 1 597 0
 1885              		.cfi_startproc
 1886 0000 08B5     		push	{r3, lr}
 1887              		.cfi_def_cfa_offset 8
 1888              		.cfi_offset 3, -8
 1889              		.cfi_offset 14, -4
 598:.\mmc_avr_usart.c ****     	BYTE n, s;
 599:.\mmc_avr_usart.c **** 
 600:.\mmc_avr_usart.c **** 
 601:.\mmc_avr_usart.c **** 	//n = Timer1;				/* 100Hz decrement timer */
 602:.\mmc_avr_usart.c **** 	//if (n) Timer1 = --n;
 603:.\mmc_avr_usart.c **** 	//n = Timer2;
 604:.\mmc_avr_usart.c **** 	//if (n) Timer2 = --n;
 605:.\mmc_avr_usart.c ****     CyDelay((UINT)n);
 1890              		.loc 1 605 0
 1891 0002 0020     		mov	r0, #0
 1892 0004 FFF7FEFF 		bl	CyDelay
 1893              	.LVL323:
 606:.\mmc_avr_usart.c **** 	s = Stat;
 1894              		.loc 1 606 0
 1895 0008 0349     		ldr	r1, .L155
 1896 000a 0B78     		ldrb	r3, [r1]
 1897              	.LVL324:
 607:.\mmc_avr_usart.c **** 
 608:.\mmc_avr_usart.c **** 	if (MMC_WP)				/* Write protected */
 609:.\mmc_avr_usart.c **** 		s |= STA_PROTECT;
 610:.\mmc_avr_usart.c **** 	else					/* Write enabled */
 611:.\mmc_avr_usart.c **** 		s &= ~STA_PROTECT;
 612:.\mmc_avr_usart.c **** 
ARM GAS  C:\Users\Petro\AppData\Local\Temp\cc2P2A0w.s 			page 46


 613:.\mmc_avr_usart.c **** 	if (MMC_CD)				/* Card inserted */
 614:.\mmc_avr_usart.c **** 		s &= ~STA_NODISK;
 1898              		.loc 1 614 0
 1899 000c 0222     		mov	r2, #2
 1900 000e 9343     		bic	r3, r2
 1901              	.LVL325:
 1902 0010 0232     		add	r2, r2, #2
 1903 0012 1343     		orr	r3, r2
 1904              	.LVL326:
 615:.\mmc_avr_usart.c **** 	else					/* Socket empty */
 616:.\mmc_avr_usart.c **** 		s |= (STA_NODISK | STA_NOINIT);
 617:.\mmc_avr_usart.c **** 
 618:.\mmc_avr_usart.c **** 	Stat = s;				/* Update MMC status */
 1905              		.loc 1 618 0
 1906 0014 0B70     		strb	r3, [r1]
 619:.\mmc_avr_usart.c **** }
 1907              		.loc 1 619 0
 1908              		@ sp needed
 1909 0016 08BD     		pop	{r3, pc}
 1910              	.L156:
 1911              		.align	2
 1912              	.L155:
 1913 0018 00000000 		.word	.LANCHOR0
 1914              		.cfi_endproc
 1915              	.LFE18:
 1916              		.size	mmc_disk_timerproc, .-mmc_disk_timerproc
 1917              		.data
 1918              		.set	.LANCHOR0,. + 0
 1919              		.type	Stat, %object
 1920              		.size	Stat, 1
 1921              	Stat:
 1922 0000 01       		.byte	1
 1923              		.bss
 1924              		.set	.LANCHOR1,. + 0
 1925              		.type	CardType, %object
 1926              		.size	CardType, 1
 1927              	CardType:
 1928 0000 00       		.space	1
 1929              		.text
 1930              	.Letext0:
 1931              		.file 2 "c:\\program files (x86)\\cypress\\psoc creator\\3.3\\psoc creator\\import\\gnu\\arm\\4.9.
 1932              		.file 3 "c:\\program files (x86)\\cypress\\psoc creator\\3.3\\psoc creator\\import\\gnu\\arm\\4.9.
 1933              		.file 4 "Generated_Source\\PSoC4/cytypes.h"
 1934              		.file 5 ".\\integer.h"
 1935              		.file 6 ".\\diskio.h"
 1936              		.file 7 ".\\HW_SPI.h"
 1937              		.file 8 "Generated_Source\\PSoC4/CyLib.h"