ARM GAS  C:\Users\Petro\AppData\Local\Temp\cc6Ef6mI.s 			page 1


   1              		.cpu cortex-m0
   2              		.fpu softvfp
   3              		.eabi_attribute 20, 1
   4              		.eabi_attribute 21, 1
   5              		.eabi_attribute 23, 3
   6              		.eabi_attribute 24, 1
   7              		.eabi_attribute 25, 1
   8              		.eabi_attribute 26, 1
   9              		.eabi_attribute 30, 4
  10              		.eabi_attribute 34, 0
  11              		.eabi_attribute 18, 4
  12              		.code	16
  13              		.file	"ADC.c"
  14              		.text
  15              	.Ltext0:
  16              		.cfi_sections	.debug_frame
  17              		.section	.text.ADC_Init,"ax",%progbits
  18              		.align	1
  19              		.global	ADC_Init
  20              		.code	16
  21              		.thumb_func
  22              		.type	ADC_Init, %function
  23              	ADC_Init:
  24              	.LFB3:
  25              		.file 1 "Generated_Source\\PSoC4\\ADC.c"
   1:Generated_Source\PSoC4/ADC.c **** /*******************************************************************************
   2:Generated_Source\PSoC4/ADC.c **** * File Name: ADC.c
   3:Generated_Source\PSoC4/ADC.c **** * Version 2.40
   4:Generated_Source\PSoC4/ADC.c **** *
   5:Generated_Source\PSoC4/ADC.c **** * Description:
   6:Generated_Source\PSoC4/ADC.c **** *  This file provides the source code to the API for the Sequencing Successive
   7:Generated_Source\PSoC4/ADC.c **** *  Approximation ADC Component Component.
   8:Generated_Source\PSoC4/ADC.c **** *
   9:Generated_Source\PSoC4/ADC.c **** * Note:
  10:Generated_Source\PSoC4/ADC.c **** *
  11:Generated_Source\PSoC4/ADC.c **** ********************************************************************************
  12:Generated_Source\PSoC4/ADC.c **** * Copyright 2008-2015, Cypress Semiconductor Corporation.  All rights reserved.
  13:Generated_Source\PSoC4/ADC.c **** * You may use this file only in accordance with the license, terms, conditions,
  14:Generated_Source\PSoC4/ADC.c **** * disclaimers, and limitations in the end user license agreement accompanying
  15:Generated_Source\PSoC4/ADC.c **** * the software package with which this file was provided.
  16:Generated_Source\PSoC4/ADC.c **** *******************************************************************************/
  17:Generated_Source\PSoC4/ADC.c **** 
  18:Generated_Source\PSoC4/ADC.c **** #include "ADC.h"
  19:Generated_Source\PSoC4/ADC.c **** 
  20:Generated_Source\PSoC4/ADC.c **** 
  21:Generated_Source\PSoC4/ADC.c **** /***************************************
  22:Generated_Source\PSoC4/ADC.c **** * Global data allocation
  23:Generated_Source\PSoC4/ADC.c **** ***************************************/
  24:Generated_Source\PSoC4/ADC.c **** uint8 ADC_initVar = 0u;
  25:Generated_Source\PSoC4/ADC.c **** volatile int16 ADC_offset[ADC_TOTAL_CHANNELS_NUM];
  26:Generated_Source\PSoC4/ADC.c **** volatile int32 ADC_countsPer10Volt[ADC_TOTAL_CHANNELS_NUM];   /* Gain compensation */
  27:Generated_Source\PSoC4/ADC.c **** 
  28:Generated_Source\PSoC4/ADC.c **** 
  29:Generated_Source\PSoC4/ADC.c **** /***************************************
  30:Generated_Source\PSoC4/ADC.c **** * Local data allocation
  31:Generated_Source\PSoC4/ADC.c **** ***************************************/
  32:Generated_Source\PSoC4/ADC.c **** /* Channels configuration generated by customiser */
ARM GAS  C:\Users\Petro\AppData\Local\Temp\cc6Ef6mI.s 			page 2


  33:Generated_Source\PSoC4/ADC.c **** static const uint32 CYCODE ADC_channelsConfig[] = { 0x00000000u };
  34:Generated_Source\PSoC4/ADC.c **** 
  35:Generated_Source\PSoC4/ADC.c **** 
  36:Generated_Source\PSoC4/ADC.c **** /*******************************************************************************
  37:Generated_Source\PSoC4/ADC.c **** * Function Name: ADC_Start
  38:Generated_Source\PSoC4/ADC.c **** ********************************************************************************
  39:Generated_Source\PSoC4/ADC.c **** *
  40:Generated_Source\PSoC4/ADC.c **** * Summary:
  41:Generated_Source\PSoC4/ADC.c **** *  Performs all required initialization for this component
  42:Generated_Source\PSoC4/ADC.c **** *  and enables the power. The power will be set to the appropriate
  43:Generated_Source\PSoC4/ADC.c **** *  power based on the clock frequency.
  44:Generated_Source\PSoC4/ADC.c **** *
  45:Generated_Source\PSoC4/ADC.c **** * Parameters:
  46:Generated_Source\PSoC4/ADC.c **** *  None.
  47:Generated_Source\PSoC4/ADC.c **** *
  48:Generated_Source\PSoC4/ADC.c **** * Return:
  49:Generated_Source\PSoC4/ADC.c **** *  None.
  50:Generated_Source\PSoC4/ADC.c **** *
  51:Generated_Source\PSoC4/ADC.c **** * Global variables:
  52:Generated_Source\PSoC4/ADC.c **** *  The ADC_initVar variable is used to indicate when/if initial
  53:Generated_Source\PSoC4/ADC.c **** *  configuration of this component has happened. The variable is initialized to
  54:Generated_Source\PSoC4/ADC.c **** *  zero and set to 1 the first time ADC_Start() is called. This allows for
  55:Generated_Source\PSoC4/ADC.c **** *  component Re-Start without re-initialization in all subsequent calls to the
  56:Generated_Source\PSoC4/ADC.c **** *  ADC_Start() routine.
  57:Generated_Source\PSoC4/ADC.c **** *  If re-initialization of the component is required the variable should be set
  58:Generated_Source\PSoC4/ADC.c **** *  to zero before call of ADC_Start() routine, or the user may call
  59:Generated_Source\PSoC4/ADC.c **** *  ADC_Init() and ADC_Enable() as done in the
  60:Generated_Source\PSoC4/ADC.c **** *  ADC_Start() routine.
  61:Generated_Source\PSoC4/ADC.c **** *
  62:Generated_Source\PSoC4/ADC.c **** *******************************************************************************/
  63:Generated_Source\PSoC4/ADC.c **** void ADC_Start(void)
  64:Generated_Source\PSoC4/ADC.c **** {
  65:Generated_Source\PSoC4/ADC.c ****     /* If not Initialized then initialize all required hardware and software */
  66:Generated_Source\PSoC4/ADC.c ****     if(ADC_initVar == 0u)
  67:Generated_Source\PSoC4/ADC.c ****     {
  68:Generated_Source\PSoC4/ADC.c ****         ADC_Init();
  69:Generated_Source\PSoC4/ADC.c ****         ADC_initVar = 1u;
  70:Generated_Source\PSoC4/ADC.c ****     }
  71:Generated_Source\PSoC4/ADC.c ****     ADC_Enable();
  72:Generated_Source\PSoC4/ADC.c **** }
  73:Generated_Source\PSoC4/ADC.c **** 
  74:Generated_Source\PSoC4/ADC.c **** 
  75:Generated_Source\PSoC4/ADC.c **** /*******************************************************************************
  76:Generated_Source\PSoC4/ADC.c **** * Function Name: ADC_Init
  77:Generated_Source\PSoC4/ADC.c **** ********************************************************************************
  78:Generated_Source\PSoC4/ADC.c **** *
  79:Generated_Source\PSoC4/ADC.c **** * Summary:
  80:Generated_Source\PSoC4/ADC.c **** *  Initialize component's parameters to the parameters set by user in the
  81:Generated_Source\PSoC4/ADC.c **** *  customizer of the component placed onto schematic. Usually called in
  82:Generated_Source\PSoC4/ADC.c **** *  ADC_Start().
  83:Generated_Source\PSoC4/ADC.c **** *
  84:Generated_Source\PSoC4/ADC.c **** * Parameters:
  85:Generated_Source\PSoC4/ADC.c **** *  None.
  86:Generated_Source\PSoC4/ADC.c **** *
  87:Generated_Source\PSoC4/ADC.c **** * Return:
  88:Generated_Source\PSoC4/ADC.c **** *  None.
  89:Generated_Source\PSoC4/ADC.c **** *
ARM GAS  C:\Users\Petro\AppData\Local\Temp\cc6Ef6mI.s 			page 3


  90:Generated_Source\PSoC4/ADC.c **** * Global variables:
  91:Generated_Source\PSoC4/ADC.c **** *  The ADC_offset variable is initialized.
  92:Generated_Source\PSoC4/ADC.c **** *
  93:Generated_Source\PSoC4/ADC.c **** *******************************************************************************/
  94:Generated_Source\PSoC4/ADC.c **** void ADC_Init(void)
  95:Generated_Source\PSoC4/ADC.c **** {
  26              		.loc 1 95 0
  27              		.cfi_startproc
  28 0000 08B5     		push	{r3, lr}
  29              		.cfi_def_cfa_offset 8
  30              		.cfi_offset 3, -8
  31              		.cfi_offset 14, -4
  96:Generated_Source\PSoC4/ADC.c ****     uint32 chNum;
  97:Generated_Source\PSoC4/ADC.c ****     uint32 tmpRegVal;
  98:Generated_Source\PSoC4/ADC.c ****     int32 counts;
  99:Generated_Source\PSoC4/ADC.c **** 
 100:Generated_Source\PSoC4/ADC.c ****     #if(ADC_TOTAL_CHANNELS_NUM > 1u)
 101:Generated_Source\PSoC4/ADC.c ****         static const uint8 CYCODE ADC_InputsPlacement[] =
 102:Generated_Source\PSoC4/ADC.c ****         {
 103:Generated_Source\PSoC4/ADC.c ****             (uint8)(ADC_cy_psoc4_sarmux_8__CH_0_PORT << 4u) |
 104:Generated_Source\PSoC4/ADC.c ****             (uint8)ADC_cy_psoc4_sarmux_8__CH_0_PIN
 105:Generated_Source\PSoC4/ADC.c ****             ,(uint8)(ADC_cy_psoc4_sarmux_8__CH_1_PORT << 4u) |
 106:Generated_Source\PSoC4/ADC.c ****              (uint8)ADC_cy_psoc4_sarmux_8__CH_1_PIN
 107:Generated_Source\PSoC4/ADC.c ****             #if(ADC_TOTAL_CHANNELS_NUM > 2u)
 108:Generated_Source\PSoC4/ADC.c ****                 ,(uint8)(ADC_cy_psoc4_sarmux_8__CH_2_PORT << 4u) |
 109:Generated_Source\PSoC4/ADC.c ****                  (uint8)ADC_cy_psoc4_sarmux_8__CH_2_PIN
 110:Generated_Source\PSoC4/ADC.c ****             #endif /* End ADC_TOTAL_CHANNELS_NUM > 2u */
 111:Generated_Source\PSoC4/ADC.c ****             #if(ADC_TOTAL_CHANNELS_NUM > 3u)
 112:Generated_Source\PSoC4/ADC.c ****                 ,(uint8)(ADC_cy_psoc4_sarmux_8__CH_3_PORT << 4u) |
 113:Generated_Source\PSoC4/ADC.c ****                  (uint8)ADC_cy_psoc4_sarmux_8__CH_3_PIN
 114:Generated_Source\PSoC4/ADC.c ****             #endif /* End ADC_TOTAL_CHANNELS_NUM > 3u */
 115:Generated_Source\PSoC4/ADC.c ****             #if(ADC_TOTAL_CHANNELS_NUM > 4u)
 116:Generated_Source\PSoC4/ADC.c ****                 ,(uint8)(ADC_cy_psoc4_sarmux_8__CH_4_PORT << 4u) |
 117:Generated_Source\PSoC4/ADC.c ****                  (uint8)ADC_cy_psoc4_sarmux_8__CH_4_PIN
 118:Generated_Source\PSoC4/ADC.c ****             #endif /* End ADC_TOTAL_CHANNELS_NUM > 4u */
 119:Generated_Source\PSoC4/ADC.c ****             #if(ADC_TOTAL_CHANNELS_NUM > 5u)
 120:Generated_Source\PSoC4/ADC.c ****                 ,(uint8)(ADC_cy_psoc4_sarmux_8__CH_5_PORT << 4u) |
 121:Generated_Source\PSoC4/ADC.c ****                  (uint8)ADC_cy_psoc4_sarmux_8__CH_5_PIN
 122:Generated_Source\PSoC4/ADC.c ****             #endif /* End ADC_TOTAL_CHANNELS_NUM > 5u */
 123:Generated_Source\PSoC4/ADC.c ****             #if(ADC_TOTAL_CHANNELS_NUM > 6u)
 124:Generated_Source\PSoC4/ADC.c ****                 ,(uint8)(ADC_cy_psoc4_sarmux_8__CH_6_PORT << 4u) |
 125:Generated_Source\PSoC4/ADC.c ****                  (uint8)ADC_cy_psoc4_sarmux_8__CH_6_PIN
 126:Generated_Source\PSoC4/ADC.c ****             #endif /* End ADC_TOTAL_CHANNELS_NUM > 6u */
 127:Generated_Source\PSoC4/ADC.c ****             #if(ADC_TOTAL_CHANNELS_NUM > 7u)
 128:Generated_Source\PSoC4/ADC.c ****                 ,(uint8)(ADC_cy_psoc4_sarmux_8__CH_7_PORT << 4u) |
 129:Generated_Source\PSoC4/ADC.c ****                  (uint8)ADC_cy_psoc4_sarmux_8__CH_7_PIN
 130:Generated_Source\PSoC4/ADC.c ****             #endif /* End ADC_TOTAL_CHANNELS_NUM > 7u */
 131:Generated_Source\PSoC4/ADC.c ****             #if(ADC_TOTAL_CHANNELS_NUM > 8u)
 132:Generated_Source\PSoC4/ADC.c ****                 ,(uint8)(ADC_cy_psoc4_sarmux_8__CH_8_PORT << 4u) |
 133:Generated_Source\PSoC4/ADC.c ****                  (uint8)ADC_cy_psoc4_sarmux_8__CH_8_PIN
 134:Generated_Source\PSoC4/ADC.c ****             #endif /* End ADC_TOTAL_CHANNELS_NUM > 8u */
 135:Generated_Source\PSoC4/ADC.c ****             #if(ADC_TOTAL_CHANNELS_NUM > 9u)
 136:Generated_Source\PSoC4/ADC.c ****                 ,(uint8)(ADC_cy_psoc4_sarmux_8__CH_9_PORT << 4u) |
 137:Generated_Source\PSoC4/ADC.c ****                  (uint8)ADC_cy_psoc4_sarmux_8__CH_9_PIN
 138:Generated_Source\PSoC4/ADC.c ****             #endif /* End ADC_TOTAL_CHANNELS_NUM > 9u */
 139:Generated_Source\PSoC4/ADC.c ****             #if(ADC_TOTAL_CHANNELS_NUM > 10u)
 140:Generated_Source\PSoC4/ADC.c ****                 ,(uint8)(ADC_cy_psoc4_sarmux_8__CH_10_PORT << 4u) |
ARM GAS  C:\Users\Petro\AppData\Local\Temp\cc6Ef6mI.s 			page 4


 141:Generated_Source\PSoC4/ADC.c ****                  (uint8)ADC_cy_psoc4_sarmux_8__CH_10_PIN
 142:Generated_Source\PSoC4/ADC.c ****             #endif /* End ADC_TOTAL_CHANNELS_NUM > 10u */
 143:Generated_Source\PSoC4/ADC.c ****             #if(ADC_TOTAL_CHANNELS_NUM > 11u)
 144:Generated_Source\PSoC4/ADC.c ****                 ,(uint8)(ADC_cy_psoc4_sarmux_8__CH_11_PORT << 4u) |
 145:Generated_Source\PSoC4/ADC.c ****                  (uint8)ADC_cy_psoc4_sarmux_8__CH_11_PIN
 146:Generated_Source\PSoC4/ADC.c ****             #endif /* End ADC_TOTAL_CHANNELS_NUM > 11u */
 147:Generated_Source\PSoC4/ADC.c ****             #if(ADC_TOTAL_CHANNELS_NUM > 12u)
 148:Generated_Source\PSoC4/ADC.c ****                 ,(uint8)(ADC_cy_psoc4_sarmux_8__CH_12_PORT << 4u) |
 149:Generated_Source\PSoC4/ADC.c ****                  (uint8)ADC_cy_psoc4_sarmux_8__CH_12_PIN
 150:Generated_Source\PSoC4/ADC.c ****             #endif /* End ADC_TOTAL_CHANNELS_NUM > 12u */
 151:Generated_Source\PSoC4/ADC.c ****             #if(ADC_TOTAL_CHANNELS_NUM > 13u)
 152:Generated_Source\PSoC4/ADC.c ****                 ,(uint8)(ADC_cy_psoc4_sarmux_8__CH_13_PORT << 4u) |
 153:Generated_Source\PSoC4/ADC.c ****                  (uint8)ADC_cy_psoc4_sarmux_8__CH_13_PIN
 154:Generated_Source\PSoC4/ADC.c ****             #endif /* End ADC_TOTAL_CHANNELS_NUM > 13u */
 155:Generated_Source\PSoC4/ADC.c ****             #if(ADC_TOTAL_CHANNELS_NUM > 14u)
 156:Generated_Source\PSoC4/ADC.c ****                 ,(uint8)(ADC_cy_psoc4_sarmux_8__CH_14_PORT << 4u) |
 157:Generated_Source\PSoC4/ADC.c ****                  (uint8)ADC_cy_psoc4_sarmux_8__CH_14_PIN
 158:Generated_Source\PSoC4/ADC.c ****             #endif /* End ADC_TOTAL_CHANNELS_NUM > 14u */
 159:Generated_Source\PSoC4/ADC.c ****             #if(ADC_TOTAL_CHANNELS_NUM > 15u)
 160:Generated_Source\PSoC4/ADC.c ****                 ,(uint8)(ADC_cy_psoc4_sarmux_8__CH_15_PORT << 4u) |
 161:Generated_Source\PSoC4/ADC.c ****                  (uint8)ADC_cy_psoc4_sarmux_8__CH_15_PIN
 162:Generated_Source\PSoC4/ADC.c ****             #endif /* End ADC_TOTAL_CHANNELS_NUM > 15u */
 163:Generated_Source\PSoC4/ADC.c ****             #if(ADC_TOTAL_CHANNELS_NUM > 16u)
 164:Generated_Source\PSoC4/ADC.c ****                 ,(uint8)(ADC_cy_psoc4_sarmux_8__CH_16_PORT << 4u) |
 165:Generated_Source\PSoC4/ADC.c ****                  (uint8)ADC_cy_psoc4_sarmux_8__CH_16_PIN
 166:Generated_Source\PSoC4/ADC.c ****             #endif /* End ADC_TOTAL_CHANNELS_NUM > 16u */
 167:Generated_Source\PSoC4/ADC.c ****         };
 168:Generated_Source\PSoC4/ADC.c ****     #endif /* End ADC_TOTAL_CHANNELS_NUM > 1u */
 169:Generated_Source\PSoC4/ADC.c **** 
 170:Generated_Source\PSoC4/ADC.c ****     #if(ADC_IRQ_REMOVE == 0u)
 171:Generated_Source\PSoC4/ADC.c ****         /* Start and set interrupt vector */
 172:Generated_Source\PSoC4/ADC.c ****         CyIntSetPriority(ADC_INTC_NUMBER, ADC_INTC_PRIOR_NUMBER);
  32              		.loc 1 172 0
  33 0002 0F20     		mov	r0, #15
  34 0004 0321     		mov	r1, #3
  35 0006 FFF7FEFF 		bl	CyIntSetPriority
  36              	.LVL0:
 173:Generated_Source\PSoC4/ADC.c ****         (void)CyIntSetVector(ADC_INTC_NUMBER, &ADC_ISR);
  37              		.loc 1 173 0
  38 000a 0F20     		mov	r0, #15
  39 000c 1D49     		ldr	r1, .L5
  40 000e FFF7FEFF 		bl	CyIntSetVector
  41              	.LVL1:
 174:Generated_Source\PSoC4/ADC.c ****     #endif   /* End ADC_IRQ_REMOVE */
 175:Generated_Source\PSoC4/ADC.c **** 
 176:Generated_Source\PSoC4/ADC.c ****     /* Init SAR and MUX registers */
 177:Generated_Source\PSoC4/ADC.c ****     ADC_SAR_CHAN_EN_REG = ADC_DEFAULT_EN_CHANNELS;
  42              		.loc 1 177 0
  43 0012 0122     		mov	r2, #1
  44 0014 1C4B     		ldr	r3, .L5+4
  45 0016 1A60     		str	r2, [r3]
 178:Generated_Source\PSoC4/ADC.c ****     ADC_SAR_CTRL_REG |= ADC_DEFAULT_CTRL_REG_CFG | 
 179:Generated_Source\PSoC4/ADC.c ****         /* Enable the SAR internal pump when global pump is enabled */
 180:Generated_Source\PSoC4/ADC.c ****         (((ADC_PUMP_CTRL_REG & ADC_PUMP_CTRL_ENABLED) != 0u) ? 
  46              		.loc 1 180 0
  47 0018 1C4B     		ldr	r3, .L5+8
  48 001a 1B68     		ldr	r3, [r3]
ARM GAS  C:\Users\Petro\AppData\Local\Temp\cc6Ef6mI.s 			page 5


 178:Generated_Source\PSoC4/ADC.c ****     ADC_SAR_CTRL_REG |= ADC_DEFAULT_CTRL_REG_CFG | 
  49              		.loc 1 178 0
  50 001c 002B     		cmp	r3, #0
  51 001e 01DB     		blt	.L3
  52 0020 1B49     		ldr	r1, .L5+12
  53 0022 00E0     		b	.L2
  54              	.L3:
  55 0024 1B49     		ldr	r1, .L5+16
  56              	.L2:
 178:Generated_Source\PSoC4/ADC.c ****     ADC_SAR_CTRL_REG |= ADC_DEFAULT_CTRL_REG_CFG | 
  57              		.loc 1 178 0 is_stmt 0 discriminator 4
  58 0026 1C4A     		ldr	r2, .L5+20
 181:Generated_Source\PSoC4/ADC.c ****         ADC_BOOSTPUMP_EN : 0u);
 182:Generated_Source\PSoC4/ADC.c ****     ADC_SAR_SAMPLE_CTRL_REG = ADC_DEFAULT_SAMPLE_CTRL_REG_CFG;
 183:Generated_Source\PSoC4/ADC.c ****     ADC_SAR_RANGE_THRES_REG = ADC_DEFAULT_RANGE_THRES_REG_CFG;
 184:Generated_Source\PSoC4/ADC.c ****     ADC_SAR_RANGE_COND_REG  = ADC_COMPARE_MODE;
 185:Generated_Source\PSoC4/ADC.c ****     ADC_SAR_SAMPLE_TIME01_REG = ADC_DEFAULT_SAMPLE_TIME01_REG_CFG;
 186:Generated_Source\PSoC4/ADC.c ****     ADC_SAR_SAMPLE_TIME23_REG = ADC_DEFAULT_SAMPLE_TIME23_REG_CFG;
 187:Generated_Source\PSoC4/ADC.c ****     
 188:Generated_Source\PSoC4/ADC.c ****     /* Connect Vm to VSSA when even one channel is single-ended or multiple channels configured */
 189:Generated_Source\PSoC4/ADC.c ****     #if(ADC_DEFAULT_MUX_SWITCH0 != 0u)
 190:Generated_Source\PSoC4/ADC.c ****         ADC_MUX_SWITCH0_REG |= ADC_DEFAULT_MUX_SWITCH0;
  59              		.loc 1 190 0 is_stmt 1 discriminator 4
  60 0028 8020     		mov	r0, #128
 178:Generated_Source\PSoC4/ADC.c ****     ADC_SAR_CTRL_REG |= ADC_DEFAULT_CTRL_REG_CFG | 
  61              		.loc 1 178 0 discriminator 4
  62 002a 1368     		ldr	r3, [r2]
  63              		.loc 1 190 0 discriminator 4
  64 002c 4002     		lsl	r0, r0, #9
 178:Generated_Source\PSoC4/ADC.c ****     ADC_SAR_CTRL_REG |= ADC_DEFAULT_CTRL_REG_CFG | 
  65              		.loc 1 178 0 discriminator 4
  66 002e 0B43     		orr	r3, r1
  67 0030 1360     		str	r3, [r2]
 182:Generated_Source\PSoC4/ADC.c ****     ADC_SAR_RANGE_THRES_REG = ADC_DEFAULT_RANGE_THRES_REG_CFG;
  68              		.loc 1 182 0 discriminator 4
  69 0032 1A4A     		ldr	r2, .L5+24
  70 0034 1A4B     		ldr	r3, .L5+28
 185:Generated_Source\PSoC4/ADC.c ****     ADC_SAR_SAMPLE_TIME23_REG = ADC_DEFAULT_SAMPLE_TIME23_REG_CFG;
  71              		.loc 1 185 0 discriminator 4
  72 0036 1B49     		ldr	r1, .L5+32
 182:Generated_Source\PSoC4/ADC.c ****     ADC_SAR_RANGE_THRES_REG = ADC_DEFAULT_RANGE_THRES_REG_CFG;
  73              		.loc 1 182 0 discriminator 4
  74 0038 1A60     		str	r2, [r3]
 183:Generated_Source\PSoC4/ADC.c ****     ADC_SAR_RANGE_COND_REG  = ADC_COMPARE_MODE;
  75              		.loc 1 183 0 discriminator 4
  76 003a 1B4A     		ldr	r2, .L5+36
  77 003c 1B4B     		ldr	r3, .L5+40
 191:Generated_Source\PSoC4/ADC.c ****         /* Set MUX_HW_CTRL_VSSA in MUX_SWITCH_HW_CTRL when multiple channels enabled */
 192:Generated_Source\PSoC4/ADC.c ****         #if(ADC_TOTAL_CHANNELS_NUM > 1u)
 193:Generated_Source\PSoC4/ADC.c ****             ADC_MUX_SWITCH_HW_CTRL_REG |= ADC_DEFAULT_MUX_SWITCH0;
 194:Generated_Source\PSoC4/ADC.c ****         #endif /* ADC_TOTAL_CHANNELS_NUM > 1u */
 195:Generated_Source\PSoC4/ADC.c ****     #endif /*ADC_CHANNELS_MODE !=0 */
 196:Generated_Source\PSoC4/ADC.c **** 
 197:Generated_Source\PSoC4/ADC.c ****     ADC_SAR_SATURATE_INTR_MASK_REG = 0u;
 198:Generated_Source\PSoC4/ADC.c ****     ADC_SAR_RANGE_INTR_MASK_REG = 0u;
 199:Generated_Source\PSoC4/ADC.c ****     ADC_SAR_INTR_MASK_REG = ADC_SAR_INTR_MASK;
 200:Generated_Source\PSoC4/ADC.c **** 
ARM GAS  C:\Users\Petro\AppData\Local\Temp\cc6Ef6mI.s 			page 6


 201:Generated_Source\PSoC4/ADC.c ****     #if(ADC_CY_SAR_IP_VER == ADC_CY_SAR_IP_VER0)
 202:Generated_Source\PSoC4/ADC.c ****         ADC_ANA_TRIM_REG = ADC_TRIM_COEF;
 203:Generated_Source\PSoC4/ADC.c ****     #endif /* (ADC_CY_SAR_IP_VER == ADC_CY_SAR_IP_VER0) */
 204:Generated_Source\PSoC4/ADC.c **** 
 205:Generated_Source\PSoC4/ADC.c ****     /* Read and modify default configuration based on characterization */
 206:Generated_Source\PSoC4/ADC.c ****     tmpRegVal = ADC_SAR_DFT_CTRL_REG;
 207:Generated_Source\PSoC4/ADC.c ****     tmpRegVal &= (uint32)~ADC_DCEN;
 208:Generated_Source\PSoC4/ADC.c ****     
 209:Generated_Source\PSoC4/ADC.c ****     #if(ADC_CY_SAR_IP_VER == ADC_CY_SAR_IP_VER0)
 210:Generated_Source\PSoC4/ADC.c ****         #if(ADC_NOMINAL_CLOCK_FREQ > (ADC_MAX_FREQUENCY / 2))
 211:Generated_Source\PSoC4/ADC.c ****             tmpRegVal |= ADC_SEL_CSEL_DFT_CHAR;
 212:Generated_Source\PSoC4/ADC.c ****         #else  /* clock speed < 9 Mhz */
 213:Generated_Source\PSoC4/ADC.c ****             tmpRegVal |= ADC_DLY_INC;
 214:Generated_Source\PSoC4/ADC.c ****         #endif /* clock speed > 9 Mhz */
 215:Generated_Source\PSoC4/ADC.c ****     #else
 216:Generated_Source\PSoC4/ADC.c ****         #if ((ADC_DEFAULT_VREF_SEL == ADC__INTERNAL1024) || \
 217:Generated_Source\PSoC4/ADC.c ****              (ADC_DEFAULT_VREF_SEL == ADC__INTERNALVREF))
 218:Generated_Source\PSoC4/ADC.c ****             tmpRegVal |= ADC_DLY_INC;
 219:Generated_Source\PSoC4/ADC.c ****         #else
 220:Generated_Source\PSoC4/ADC.c ****             tmpRegVal |= ADC_DCEN;
 221:Generated_Source\PSoC4/ADC.c ****             tmpRegVal &= (uint32)~ADC_DLY_INC;
 222:Generated_Source\PSoC4/ADC.c ****         #endif /* ((ADC_DEFAULT_VREF_SEL == ADC__INTERNAL1024) || \
 223:Generated_Source\PSoC4/ADC.c ****                    (ADC_DEFAULT_VREF_SEL == ADC__INTERNALVREF)) */
 224:Generated_Source\PSoC4/ADC.c ****     #endif /* (ADC_CY_SAR_IP_VER == ADC_CY_SAR_IP_VER0) */
 225:Generated_Source\PSoC4/ADC.c ****     
 226:Generated_Source\PSoC4/ADC.c ****     ADC_SAR_DFT_CTRL_REG = tmpRegVal;
 227:Generated_Source\PSoC4/ADC.c **** 
 228:Generated_Source\PSoC4/ADC.c ****     #if(ADC_MAX_RESOLUTION != ADC_RESOLUTION_12)
 229:Generated_Source\PSoC4/ADC.c ****         ADC_WOUNDING_REG = ADC_ALT_WOUNDING;
 230:Generated_Source\PSoC4/ADC.c ****     #endif /* ADC_MAX_RESOLUTION != ADC_RESOLUTION_12 */
 231:Generated_Source\PSoC4/ADC.c **** 
 232:Generated_Source\PSoC4/ADC.c ****     for(chNum = 0u; chNum < ADC_TOTAL_CHANNELS_NUM; chNum++)
 233:Generated_Source\PSoC4/ADC.c ****     {
 234:Generated_Source\PSoC4/ADC.c ****         tmpRegVal = (ADC_channelsConfig[chNum] & ADC_CHANNEL_CONFIG_MASK);
 235:Generated_Source\PSoC4/ADC.c ****         #if(ADC_TOTAL_CHANNELS_NUM > 1u)
 236:Generated_Source\PSoC4/ADC.c ****             tmpRegVal |= ADC_InputsPlacement[chNum];
 237:Generated_Source\PSoC4/ADC.c ****         #endif /* End ADC_TOTAL_CHANNELS_NUM > 1u */
 238:Generated_Source\PSoC4/ADC.c ****         
 239:Generated_Source\PSoC4/ADC.c ****         
 240:Generated_Source\PSoC4/ADC.c ****         /* When the part is limited to 10-bit then the SUB_RESOLUTION bit
 241:Generated_Source\PSoC4/ADC.c ****         *  will be ignored and the RESOLUTION bit selects between 10-bit
 242:Generated_Source\PSoC4/ADC.c ****         *  (0) and 8-bit (1) resolution.
 243:Generated_Source\PSoC4/ADC.c ****         */
 244:Generated_Source\PSoC4/ADC.c ****         #if((ADC_MAX_RESOLUTION != ADC_RESOLUTION_12) && \
 245:Generated_Source\PSoC4/ADC.c ****             (ADC_ALT_WOUNDING == ADC_WOUNDING_10BIT))
 246:Generated_Source\PSoC4/ADC.c ****             tmpRegVal &= (uint32)(~ADC_ALT_RESOLUTION_ON);
 247:Generated_Source\PSoC4/ADC.c ****         #endif /* ADC_MAX_RESOLUTION != ADC_RESOLUTION_12 */
 248:Generated_Source\PSoC4/ADC.c **** 
 249:Generated_Source\PSoC4/ADC.c ****         #if(ADC_INJ_CHANNEL_ENABLED)
 250:Generated_Source\PSoC4/ADC.c ****         if(chNum < ADC_SEQUENCED_CHANNELS_NUM)
 251:Generated_Source\PSoC4/ADC.c ****         #endif /* ADC_INJ_CHANNEL_ENABLED */
 252:Generated_Source\PSoC4/ADC.c ****         {
 253:Generated_Source\PSoC4/ADC.c ****             CY_SET_REG32((reg32 *)(ADC_SAR_CHAN_CONFIG_IND + (uint32)(chNum << 2)), tmpRegVal);
 254:Generated_Source\PSoC4/ADC.c **** 
 255:Generated_Source\PSoC4/ADC.c ****             if((ADC_channelsConfig[chNum] & ADC_IS_SATURATE_EN_MASK) != 0u)
 256:Generated_Source\PSoC4/ADC.c ****             {
 257:Generated_Source\PSoC4/ADC.c ****                 ADC_SAR_SATURATE_INTR_MASK_REG |= (uint16)((uint16)1 << chNum);
ARM GAS  C:\Users\Petro\AppData\Local\Temp\cc6Ef6mI.s 			page 7


 258:Generated_Source\PSoC4/ADC.c ****             }
 259:Generated_Source\PSoC4/ADC.c **** 
 260:Generated_Source\PSoC4/ADC.c ****             if((ADC_channelsConfig[chNum] & ADC_IS_RANGE_CTRL_EN_MASK) != 0u)
 261:Generated_Source\PSoC4/ADC.c ****             {
 262:Generated_Source\PSoC4/ADC.c ****                 ADC_SAR_RANGE_INTR_MASK_REG |= (uint16)((uint16)1 << chNum);
 263:Generated_Source\PSoC4/ADC.c ****             }
 264:Generated_Source\PSoC4/ADC.c ****         }
 265:Generated_Source\PSoC4/ADC.c ****         #if(ADC_INJ_CHANNEL_ENABLED)
 266:Generated_Source\PSoC4/ADC.c ****             else
 267:Generated_Source\PSoC4/ADC.c ****             {
 268:Generated_Source\PSoC4/ADC.c ****                 CY_SET_REG32(ADC_SAR_INJ_CHAN_CONFIG_PTR, tmpRegVal | ADC_INJ_TAILGATING);
 269:Generated_Source\PSoC4/ADC.c **** 
 270:Generated_Source\PSoC4/ADC.c ****                 if((ADC_channelsConfig[chNum] & ADC_IS_SATURATE_EN_MASK) != 0u)
 271:Generated_Source\PSoC4/ADC.c ****                 {
 272:Generated_Source\PSoC4/ADC.c ****                     ADC_SAR_INTR_MASK_REG |= ADC_INJ_SATURATE_MASK;
 273:Generated_Source\PSoC4/ADC.c ****                 }
 274:Generated_Source\PSoC4/ADC.c **** 
 275:Generated_Source\PSoC4/ADC.c ****                 if((ADC_channelsConfig[chNum] & ADC_IS_RANGE_CTRL_EN_MASK) != 0u)
 276:Generated_Source\PSoC4/ADC.c ****                 {
 277:Generated_Source\PSoC4/ADC.c ****                     ADC_SAR_INTR_MASK_REG |= ADC_INJ_RANGE_MASK;
 278:Generated_Source\PSoC4/ADC.c ****                 }
 279:Generated_Source\PSoC4/ADC.c ****             }
 280:Generated_Source\PSoC4/ADC.c ****         #endif /* ADC_INJ_CHANNEL_ENABLED */
 281:Generated_Source\PSoC4/ADC.c **** 
 282:Generated_Source\PSoC4/ADC.c ****         if((ADC_channelsConfig[chNum] & ADC_ALT_RESOLUTION_ON) != 0u)
 283:Generated_Source\PSoC4/ADC.c ****         {
 284:Generated_Source\PSoC4/ADC.c ****                counts = (int32)ADC_DEFAULT_MAX_WRK_ALT;
 285:Generated_Source\PSoC4/ADC.c ****         }
 286:Generated_Source\PSoC4/ADC.c ****         else
 287:Generated_Source\PSoC4/ADC.c ****         {
 288:Generated_Source\PSoC4/ADC.c ****                counts = (int32)ADC_SAR_WRK_MAX_12BIT;
 289:Generated_Source\PSoC4/ADC.c ****         }
 290:Generated_Source\PSoC4/ADC.c **** 
 291:Generated_Source\PSoC4/ADC.c ****         if((ADC_channelsConfig[chNum] & ADC_DIFFERENTIAL_EN) == 0u)
 292:Generated_Source\PSoC4/ADC.c ****         {
 293:Generated_Source\PSoC4/ADC.c ****             #if((ADC_DEFAULT_SE_RESULT_FORMAT_SEL == ADC__FSIGNED) && \
 294:Generated_Source\PSoC4/ADC.c ****                 (ADC_DEFAULT_NEG_INPUT_SEL == ADC__VREF))
 295:Generated_Source\PSoC4/ADC.c ****                 /* Set offset to the minus half scale to convert results to unsigned format */
 296:Generated_Source\PSoC4/ADC.c ****                 ADC_offset[chNum] = (int16)(counts / -2);
 297:Generated_Source\PSoC4/ADC.c ****             #else
 298:Generated_Source\PSoC4/ADC.c ****                 ADC_offset[chNum] = 0;
 299:Generated_Source\PSoC4/ADC.c ****             #endif /* end DEFAULT_SE_RESULT_FORMAT_SEL == ADC__FSIGNED */
 300:Generated_Source\PSoC4/ADC.c ****         }
 301:Generated_Source\PSoC4/ADC.c ****         else    /* Differential channel */
 302:Generated_Source\PSoC4/ADC.c ****         {
 303:Generated_Source\PSoC4/ADC.c ****             #if(ADC_DEFAULT_DIFF_RESULT_FORMAT_SEL == ADC__FUNSIGNED)
 304:Generated_Source\PSoC4/ADC.c ****                 /* Set offset to the half scale to convert results to signed format */
 305:Generated_Source\PSoC4/ADC.c ****                 ADC_offset[chNum] = (int16)(counts / 2);
 306:Generated_Source\PSoC4/ADC.c ****             #else
 307:Generated_Source\PSoC4/ADC.c ****                 ADC_offset[chNum] = 0;
 308:Generated_Source\PSoC4/ADC.c ****             #endif /* end ADC_DEFAULT_DIFF_RESULT_FORMAT_SEL == ADC__FUNSIGNED */
 309:Generated_Source\PSoC4/ADC.c ****         }
 310:Generated_Source\PSoC4/ADC.c ****         /* Calculate gain in counts per 10 volts with rounding */
 311:Generated_Source\PSoC4/ADC.c ****         ADC_countsPer10Volt[chNum] = (int16)(((counts * ADC_10MV_COUNTS) +
 312:Generated_Source\PSoC4/ADC.c ****                             ADC_DEFAULT_VREF_MV_VALUE) / (ADC_DEFAULT_VREF_MV_VALUE * 2));
 313:Generated_Source\PSoC4/ADC.c ****     }
 314:Generated_Source\PSoC4/ADC.c **** }
ARM GAS  C:\Users\Petro\AppData\Local\Temp\cc6Ef6mI.s 			page 8


  78              		.loc 1 314 0 discriminator 4
  79              		@ sp needed
 183:Generated_Source\PSoC4/ADC.c ****     ADC_SAR_RANGE_COND_REG  = ADC_COMPARE_MODE;
  80              		.loc 1 183 0 discriminator 4
  81 003e 1A60     		str	r2, [r3]
 184:Generated_Source\PSoC4/ADC.c ****     ADC_SAR_SAMPLE_TIME01_REG = ADC_DEFAULT_SAMPLE_TIME01_REG_CFG;
  82              		.loc 1 184 0 discriminator 4
  83 0040 0023     		mov	r3, #0
  84 0042 1B4A     		ldr	r2, .L5+44
  85 0044 1360     		str	r3, [r2]
 185:Generated_Source\PSoC4/ADC.c ****     ADC_SAR_SAMPLE_TIME23_REG = ADC_DEFAULT_SAMPLE_TIME23_REG_CFG;
  86              		.loc 1 185 0 discriminator 4
  87 0046 1B4A     		ldr	r2, .L5+48
  88 0048 0A60     		str	r2, [r1]
 186:Generated_Source\PSoC4/ADC.c ****     
  89              		.loc 1 186 0 discriminator 4
  90 004a 1B49     		ldr	r1, .L5+52
  91 004c 0A60     		str	r2, [r1]
 190:Generated_Source\PSoC4/ADC.c ****         /* Set MUX_HW_CTRL_VSSA in MUX_SWITCH_HW_CTRL when multiple channels enabled */
  92              		.loc 1 190 0 discriminator 4
  93 004e 1B49     		ldr	r1, .L5+56
  94 0050 0A68     		ldr	r2, [r1]
  95 0052 0243     		orr	r2, r0
  96 0054 0A60     		str	r2, [r1]
 199:Generated_Source\PSoC4/ADC.c **** 
  97              		.loc 1 199 0 discriminator 4
  98 0056 0121     		mov	r1, #1
 197:Generated_Source\PSoC4/ADC.c ****     ADC_SAR_RANGE_INTR_MASK_REG = 0u;
  99              		.loc 1 197 0 discriminator 4
 100 0058 194A     		ldr	r2, .L5+60
 101 005a 1360     		str	r3, [r2]
 198:Generated_Source\PSoC4/ADC.c ****     ADC_SAR_INTR_MASK_REG = ADC_SAR_INTR_MASK;
 102              		.loc 1 198 0 discriminator 4
 103 005c 194A     		ldr	r2, .L5+64
 104 005e 1360     		str	r3, [r2]
 199:Generated_Source\PSoC4/ADC.c **** 
 105              		.loc 1 199 0 discriminator 4
 106 0060 194A     		ldr	r2, .L5+68
 107 0062 1160     		str	r1, [r2]
 206:Generated_Source\PSoC4/ADC.c ****     tmpRegVal &= (uint32)~ADC_DCEN;
 108              		.loc 1 206 0 discriminator 4
 109 0064 1949     		ldr	r1, .L5+72
 221:Generated_Source\PSoC4/ADC.c ****         #endif /* ((ADC_DEFAULT_VREF_SEL == ADC__INTERNAL1024) || \
 110              		.loc 1 221 0 discriminator 4
 111 0066 1A4A     		ldr	r2, .L5+76
 206:Generated_Source\PSoC4/ADC.c ****     tmpRegVal &= (uint32)~ADC_DCEN;
 112              		.loc 1 206 0 discriminator 4
 113 0068 0868     		ldr	r0, [r1]
 114              	.LVL2:
 221:Generated_Source\PSoC4/ADC.c ****         #endif /* ((ADC_DEFAULT_VREF_SEL == ADC__INTERNAL1024) || \
 115              		.loc 1 221 0 discriminator 4
 116 006a 0240     		and	r2, r0
 117 006c 8020     		mov	r0, #128
 118              	.LVL3:
 119 006e 8005     		lsl	r0, r0, #22
 120 0070 0243     		orr	r2, r0
 121              	.LVL4:
ARM GAS  C:\Users\Petro\AppData\Local\Temp\cc6Ef6mI.s 			page 9


 226:Generated_Source\PSoC4/ADC.c **** 
 122              		.loc 1 226 0 discriminator 4
 123 0072 0A60     		str	r2, [r1]
 124              	.LVL5:
 253:Generated_Source\PSoC4/ADC.c **** 
 125              		.loc 1 253 0 discriminator 4
 126 0074 174A     		ldr	r2, .L5+80
 127 0076 1360     		str	r3, [r2]
 128              	.LVL6:
 298:Generated_Source\PSoC4/ADC.c ****             #endif /* end DEFAULT_SE_RESULT_FORMAT_SEL == ADC__FSIGNED */
 129              		.loc 1 298 0 discriminator 4
 130 0078 174A     		ldr	r2, .L5+84
 131 007a 1380     		strh	r3, [r2]
 311:Generated_Source\PSoC4/ADC.c ****                             ADC_DEFAULT_VREF_MV_VALUE) / (ADC_DEFAULT_VREF_MV_VALUE * 2));
 132              		.loc 1 311 0 discriminator 4
 133 007c 174A     		ldr	r2, .L5+88
 134 007e 184B     		ldr	r3, .L5+92
 135 0080 1A60     		str	r2, [r3]
 136              	.LVL7:
 137              		.loc 1 314 0 discriminator 4
 138 0082 08BD     		pop	{r3, pc}
 139              	.L6:
 140              		.align	2
 141              	.L5:
 142 0084 00000000 		.word	ADC_ISR
 143 0088 20003A40 		.word	1077542944
 144 008c 80033A40 		.word	1077543808
 145 0090 70020051 		.word	1358955120
 146 0094 70021051 		.word	1360003696
 147 0098 00003A40 		.word	1077542912
 148 009c 84000080 		.word	-2147483516
 149 00a0 04003A40 		.word	1077542916
 150 00a4 10003A40 		.word	1077542928
 151 00a8 0000FF07 		.word	134152192
 152 00ac 18003A40 		.word	1077542936
 153 00b0 1C003A40 		.word	1077542940
 154 00b4 04000400 		.word	262148
 155 00b8 14003A40 		.word	1077542932
 156 00bc 00033A40 		.word	1077543680
 157 00c0 28023A40 		.word	1077543464
 158 00c4 38023A40 		.word	1077543480
 159 00c8 18023A40 		.word	1077543448
 160 00cc 30003A40 		.word	1077542960
 161 00d0 FEFFFFDF 		.word	-536870914
 162 00d4 80003A40 		.word	1077543040
 163 00d8 00000000 		.word	ADC_offset
 164 00dc 3E180000 		.word	6206
 165 00e0 00000000 		.word	ADC_countsPer10Volt
 166              		.cfi_endproc
 167              	.LFE3:
 168              		.size	ADC_Init, .-ADC_Init
 169              		.section	.text.ADC_Enable,"ax",%progbits
 170              		.align	1
 171              		.global	ADC_Enable
 172              		.code	16
 173              		.thumb_func
 174              		.type	ADC_Enable, %function
ARM GAS  C:\Users\Petro\AppData\Local\Temp\cc6Ef6mI.s 			page 10


 175              	ADC_Enable:
 176              	.LFB4:
 315:Generated_Source\PSoC4/ADC.c **** 
 316:Generated_Source\PSoC4/ADC.c **** /*******************************************************************************
 317:Generated_Source\PSoC4/ADC.c **** * Function Name: ADC_SAR_1_Enable
 318:Generated_Source\PSoC4/ADC.c **** ********************************************************************************
 319:Generated_Source\PSoC4/ADC.c **** *
 320:Generated_Source\PSoC4/ADC.c **** * Summary:
 321:Generated_Source\PSoC4/ADC.c **** *  Enables the clock and analog power for SAR ADC.
 322:Generated_Source\PSoC4/ADC.c **** *
 323:Generated_Source\PSoC4/ADC.c **** * Parameters:
 324:Generated_Source\PSoC4/ADC.c **** *  None.
 325:Generated_Source\PSoC4/ADC.c **** *
 326:Generated_Source\PSoC4/ADC.c **** * Return:
 327:Generated_Source\PSoC4/ADC.c **** *  None.
 328:Generated_Source\PSoC4/ADC.c **** *
 329:Generated_Source\PSoC4/ADC.c **** *******************************************************************************/
 330:Generated_Source\PSoC4/ADC.c **** void ADC_Enable(void)
 331:Generated_Source\PSoC4/ADC.c **** {
 177              		.loc 1 331 0
 178              		.cfi_startproc
 179 0000 08B5     		push	{r3, lr}
 180              		.cfi_def_cfa_offset 8
 181              		.cfi_offset 3, -8
 182              		.cfi_offset 14, -4
 332:Generated_Source\PSoC4/ADC.c ****     if (0u == (ADC_SAR_CTRL_REG & ADC_ENABLE))
 183              		.loc 1 332 0
 184 0002 084B     		ldr	r3, .L10
 185 0004 1A68     		ldr	r2, [r3]
 186 0006 002A     		cmp	r2, #0
 187 0008 0BDB     		blt	.L7
 188              	.L9:
 189              	.LBB4:
 190              	.LBB5:
 333:Generated_Source\PSoC4/ADC.c ****     {
 334:Generated_Source\PSoC4/ADC.c ****         #if(ADC_CY_SAR_IP_VER != ADC_CY_SAR_IP_VER0)
 335:Generated_Source\PSoC4/ADC.c **** 
 336:Generated_Source\PSoC4/ADC.c ****             while (0u != (ADC_SAR_STATUS_REG & ADC_STATUS_BUSY))
 191              		.loc 1 336 0
 192 000a 074A     		ldr	r2, .L10+4
 193 000c 1268     		ldr	r2, [r2]
 194 000e 002A     		cmp	r2, #0
 195 0010 FBDB     		blt	.L9
 337:Generated_Source\PSoC4/ADC.c ****             {
 338:Generated_Source\PSoC4/ADC.c ****                 /* wait for SAR to go idle to avoid deadlock */
 339:Generated_Source\PSoC4/ADC.c ****             }
 340:Generated_Source\PSoC4/ADC.c ****         #endif /* (ADC_CY_SAR_IP_VER != ADC_CY_SAR_IP_VER0) */
 341:Generated_Source\PSoC4/ADC.c ****         
 342:Generated_Source\PSoC4/ADC.c ****         ADC_SAR_CTRL_REG |= ADC_ENABLE;
 196              		.loc 1 342 0
 197 0012 8021     		mov	r1, #128
 198 0014 1A68     		ldr	r2, [r3]
 199 0016 0906     		lsl	r1, r1, #24
 200 0018 0A43     		orr	r2, r1
 201 001a 1A60     		str	r2, [r3]
 343:Generated_Source\PSoC4/ADC.c ****         
 344:Generated_Source\PSoC4/ADC.c ****         /* The block is ready to use 10 us after the enable signal is set high. */
ARM GAS  C:\Users\Petro\AppData\Local\Temp\cc6Ef6mI.s 			page 11


 345:Generated_Source\PSoC4/ADC.c ****         CyDelayUs(ADC_10US_DELAY);         
 202              		.loc 1 345 0
 203 001c 0A20     		mov	r0, #10
 204 001e FFF7FEFF 		bl	CyDelayUs
 205              	.LVL8:
 206              	.L7:
 207              	.LBE5:
 208              	.LBE4:
 346:Generated_Source\PSoC4/ADC.c ****     }
 347:Generated_Source\PSoC4/ADC.c **** }
 209              		.loc 1 347 0
 210              		@ sp needed
 211 0022 08BD     		pop	{r3, pc}
 212              	.L11:
 213              		.align	2
 214              	.L10:
 215 0024 00003A40 		.word	1077542912
 216 0028 08023A40 		.word	1077543432
 217              		.cfi_endproc
 218              	.LFE4:
 219              		.size	ADC_Enable, .-ADC_Enable
 220              		.section	.text.ADC_Start,"ax",%progbits
 221              		.align	1
 222              		.global	ADC_Start
 223              		.code	16
 224              		.thumb_func
 225              		.type	ADC_Start, %function
 226              	ADC_Start:
 227              	.LFB2:
  64:Generated_Source\PSoC4/ADC.c ****     /* If not Initialized then initialize all required hardware and software */
 228              		.loc 1 64 0
 229              		.cfi_startproc
 230 0000 10B5     		push	{r4, lr}
 231              		.cfi_def_cfa_offset 8
 232              		.cfi_offset 4, -8
 233              		.cfi_offset 14, -4
  66:Generated_Source\PSoC4/ADC.c ****     {
 234              		.loc 1 66 0
 235 0002 054C     		ldr	r4, .L14
 236 0004 2378     		ldrb	r3, [r4]
 237 0006 002B     		cmp	r3, #0
 238 0008 03D1     		bne	.L13
  68:Generated_Source\PSoC4/ADC.c ****         ADC_initVar = 1u;
 239              		.loc 1 68 0
 240 000a FFF7FEFF 		bl	ADC_Init
 241              	.LVL9:
  69:Generated_Source\PSoC4/ADC.c ****     }
 242              		.loc 1 69 0
 243 000e 0123     		mov	r3, #1
 244 0010 2370     		strb	r3, [r4]
 245              	.L13:
  71:Generated_Source\PSoC4/ADC.c **** }
 246              		.loc 1 71 0
 247 0012 FFF7FEFF 		bl	ADC_Enable
 248              	.LVL10:
  72:Generated_Source\PSoC4/ADC.c **** 
 249              		.loc 1 72 0
ARM GAS  C:\Users\Petro\AppData\Local\Temp\cc6Ef6mI.s 			page 12


 250              		@ sp needed
 251 0016 10BD     		pop	{r4, pc}
 252              	.L15:
 253              		.align	2
 254              	.L14:
 255 0018 00000000 		.word	.LANCHOR0
 256              		.cfi_endproc
 257              	.LFE2:
 258              		.size	ADC_Start, .-ADC_Start
 259              		.section	.text.ADC_Stop,"ax",%progbits
 260              		.align	1
 261              		.global	ADC_Stop
 262              		.code	16
 263              		.thumb_func
 264              		.type	ADC_Stop, %function
 265              	ADC_Stop:
 266              	.LFB5:
 348:Generated_Source\PSoC4/ADC.c **** 
 349:Generated_Source\PSoC4/ADC.c **** 
 350:Generated_Source\PSoC4/ADC.c **** /*******************************************************************************
 351:Generated_Source\PSoC4/ADC.c **** * Function Name: ADC_Stop
 352:Generated_Source\PSoC4/ADC.c **** ********************************************************************************
 353:Generated_Source\PSoC4/ADC.c **** *
 354:Generated_Source\PSoC4/ADC.c **** * Summary:
 355:Generated_Source\PSoC4/ADC.c **** *  This function stops ADC conversions and puts the ADC into its lowest power
 356:Generated_Source\PSoC4/ADC.c **** *  mode.
 357:Generated_Source\PSoC4/ADC.c **** *
 358:Generated_Source\PSoC4/ADC.c **** * Parameters:
 359:Generated_Source\PSoC4/ADC.c **** *  None.
 360:Generated_Source\PSoC4/ADC.c **** *
 361:Generated_Source\PSoC4/ADC.c **** * Return:
 362:Generated_Source\PSoC4/ADC.c **** *  None.
 363:Generated_Source\PSoC4/ADC.c **** *
 364:Generated_Source\PSoC4/ADC.c **** *******************************************************************************/
 365:Generated_Source\PSoC4/ADC.c **** void ADC_Stop(void)
 366:Generated_Source\PSoC4/ADC.c **** {
 267              		.loc 1 366 0
 268              		.cfi_startproc
 367:Generated_Source\PSoC4/ADC.c ****     ADC_SAR_CTRL_REG &= (uint32)~ADC_ENABLE;
 269              		.loc 1 367 0
 270 0000 024A     		ldr	r2, .L17
 368:Generated_Source\PSoC4/ADC.c **** }
 271              		.loc 1 368 0
 272              		@ sp needed
 367:Generated_Source\PSoC4/ADC.c ****     ADC_SAR_CTRL_REG &= (uint32)~ADC_ENABLE;
 273              		.loc 1 367 0
 274 0002 1368     		ldr	r3, [r2]
 275 0004 5B00     		lsl	r3, r3, #1
 276 0006 5B08     		lsr	r3, r3, #1
 277 0008 1360     		str	r3, [r2]
 278              		.loc 1 368 0
 279 000a 7047     		bx	lr
 280              	.L18:
 281              		.align	2
 282              	.L17:
 283 000c 00003A40 		.word	1077542912
 284              		.cfi_endproc
ARM GAS  C:\Users\Petro\AppData\Local\Temp\cc6Ef6mI.s 			page 13


 285              	.LFE5:
 286              		.size	ADC_Stop, .-ADC_Stop
 287              		.section	.text.ADC_StartConvert,"ax",%progbits
 288              		.align	1
 289              		.global	ADC_StartConvert
 290              		.code	16
 291              		.thumb_func
 292              		.type	ADC_StartConvert, %function
 293              	ADC_StartConvert:
 294              	.LFB6:
 369:Generated_Source\PSoC4/ADC.c **** 
 370:Generated_Source\PSoC4/ADC.c **** 
 371:Generated_Source\PSoC4/ADC.c **** /*******************************************************************************
 372:Generated_Source\PSoC4/ADC.c **** * Function Name: ADC_StartConvert
 373:Generated_Source\PSoC4/ADC.c **** ********************************************************************************
 374:Generated_Source\PSoC4/ADC.c **** *
 375:Generated_Source\PSoC4/ADC.c **** * Summary:
 376:Generated_Source\PSoC4/ADC.c **** *  Description:
 377:Generated_Source\PSoC4/ADC.c **** *  For free running mode, this API starts the conversion process and it
 378:Generated_Source\PSoC4/ADC.c **** *  runs continuously.
 379:Generated_Source\PSoC4/ADC.c **** *
 380:Generated_Source\PSoC4/ADC.c **** *  In a triggered mode, this routine triggers every conversion by
 381:Generated_Source\PSoC4/ADC.c **** *  writing into the FW_TRIGGER bit in SAR_START_CTRL reg. In triggered mode,
 382:Generated_Source\PSoC4/ADC.c **** *  every conversion has to start by this API.
 383:Generated_Source\PSoC4/ADC.c **** *
 384:Generated_Source\PSoC4/ADC.c **** * Parameters:
 385:Generated_Source\PSoC4/ADC.c **** *  None.
 386:Generated_Source\PSoC4/ADC.c **** *
 387:Generated_Source\PSoC4/ADC.c **** * Return:
 388:Generated_Source\PSoC4/ADC.c **** *  None.
 389:Generated_Source\PSoC4/ADC.c **** *
 390:Generated_Source\PSoC4/ADC.c **** *******************************************************************************/
 391:Generated_Source\PSoC4/ADC.c **** void ADC_StartConvert(void)
 392:Generated_Source\PSoC4/ADC.c **** {
 295              		.loc 1 392 0
 296              		.cfi_startproc
 393:Generated_Source\PSoC4/ADC.c ****     #if(ADC_DEFAULT_SAMPLE_MODE_SEL == ADC__FREERUNNING)
 394:Generated_Source\PSoC4/ADC.c ****         ADC_SAR_SAMPLE_CTRL_REG |= ADC_CONTINUOUS_EN;
 297              		.loc 1 394 0
 298 0000 8021     		mov	r1, #128
 299 0002 034A     		ldr	r2, .L20
 300 0004 4902     		lsl	r1, r1, #9
 301 0006 1368     		ldr	r3, [r2]
 395:Generated_Source\PSoC4/ADC.c ****     #else /* Firmware trigger */
 396:Generated_Source\PSoC4/ADC.c ****         ADC_SAR_START_CTRL_REG = ADC_FW_TRIGGER;
 397:Generated_Source\PSoC4/ADC.c ****     #endif /* End ADC_DEFAULT_SAMPLE_MODE == ADC__FREERUNNING */
 398:Generated_Source\PSoC4/ADC.c **** 
 399:Generated_Source\PSoC4/ADC.c **** }
 302              		.loc 1 399 0
 303              		@ sp needed
 394:Generated_Source\PSoC4/ADC.c ****     #else /* Firmware trigger */
 304              		.loc 1 394 0
 305 0008 0B43     		orr	r3, r1
 306 000a 1360     		str	r3, [r2]
 307              		.loc 1 399 0
 308 000c 7047     		bx	lr
 309              	.L21:
ARM GAS  C:\Users\Petro\AppData\Local\Temp\cc6Ef6mI.s 			page 14


 310 000e C046     		.align	2
 311              	.L20:
 312 0010 04003A40 		.word	1077542916
 313              		.cfi_endproc
 314              	.LFE6:
 315              		.size	ADC_StartConvert, .-ADC_StartConvert
 316              		.section	.text.ADC_StopConvert,"ax",%progbits
 317              		.align	1
 318              		.global	ADC_StopConvert
 319              		.code	16
 320              		.thumb_func
 321              		.type	ADC_StopConvert, %function
 322              	ADC_StopConvert:
 323              	.LFB7:
 400:Generated_Source\PSoC4/ADC.c **** 
 401:Generated_Source\PSoC4/ADC.c **** 
 402:Generated_Source\PSoC4/ADC.c **** /*******************************************************************************
 403:Generated_Source\PSoC4/ADC.c **** * Function Name: ADC_StopConvert
 404:Generated_Source\PSoC4/ADC.c **** ********************************************************************************
 405:Generated_Source\PSoC4/ADC.c **** *
 406:Generated_Source\PSoC4/ADC.c **** * Summary:
 407:Generated_Source\PSoC4/ADC.c **** *  Forces the ADC to stop all conversions.
 408:Generated_Source\PSoC4/ADC.c **** *
 409:Generated_Source\PSoC4/ADC.c **** * Parameters:
 410:Generated_Source\PSoC4/ADC.c **** *  None.
 411:Generated_Source\PSoC4/ADC.c **** *
 412:Generated_Source\PSoC4/ADC.c **** * Return:
 413:Generated_Source\PSoC4/ADC.c **** *  None.
 414:Generated_Source\PSoC4/ADC.c **** *
 415:Generated_Source\PSoC4/ADC.c **** *******************************************************************************/
 416:Generated_Source\PSoC4/ADC.c **** void ADC_StopConvert(void)
 417:Generated_Source\PSoC4/ADC.c **** {
 324              		.loc 1 417 0
 325              		.cfi_startproc
 418:Generated_Source\PSoC4/ADC.c ****     #if(ADC_DEFAULT_SAMPLE_MODE_SEL == ADC__FREERUNNING)
 419:Generated_Source\PSoC4/ADC.c ****         ADC_SAR_SAMPLE_CTRL_REG &= (uint32)(~ADC_CONTINUOUS_EN);
 326              		.loc 1 419 0
 327 0000 024A     		ldr	r2, .L23
 328 0002 034B     		ldr	r3, .L23+4
 329 0004 1168     		ldr	r1, [r2]
 420:Generated_Source\PSoC4/ADC.c ****     #endif /* ADC_DEFAULT_SAMPLE_MODE == ADC__FREERUNNING */
 421:Generated_Source\PSoC4/ADC.c **** }
 330              		.loc 1 421 0
 331              		@ sp needed
 419:Generated_Source\PSoC4/ADC.c ****     #endif /* ADC_DEFAULT_SAMPLE_MODE == ADC__FREERUNNING */
 332              		.loc 1 419 0
 333 0006 0B40     		and	r3, r1
 334 0008 1360     		str	r3, [r2]
 335              		.loc 1 421 0
 336 000a 7047     		bx	lr
 337              	.L24:
 338              		.align	2
 339              	.L23:
 340 000c 04003A40 		.word	1077542916
 341 0010 FFFFFEFF 		.word	-65537
 342              		.cfi_endproc
 343              	.LFE7:
ARM GAS  C:\Users\Petro\AppData\Local\Temp\cc6Ef6mI.s 			page 15


 344              		.size	ADC_StopConvert, .-ADC_StopConvert
 345              		.section	.text.ADC_IsEndConversion,"ax",%progbits
 346              		.align	1
 347              		.global	ADC_IsEndConversion
 348              		.code	16
 349              		.thumb_func
 350              		.type	ADC_IsEndConversion, %function
 351              	ADC_IsEndConversion:
 352              	.LFB8:
 422:Generated_Source\PSoC4/ADC.c **** 
 423:Generated_Source\PSoC4/ADC.c **** 
 424:Generated_Source\PSoC4/ADC.c **** /*******************************************************************************
 425:Generated_Source\PSoC4/ADC.c **** * Function Name: ADC_IsEndConversion
 426:Generated_Source\PSoC4/ADC.c **** ********************************************************************************
 427:Generated_Source\PSoC4/ADC.c **** *
 428:Generated_Source\PSoC4/ADC.c **** * Summary:
 429:Generated_Source\PSoC4/ADC.c **** *  Description: Checks for ADC end of conversion for the case one
 430:Generated_Source\PSoC4/ADC.c **** *  channel and end of scan for the case of multiple channels. It acts
 431:Generated_Source\PSoC4/ADC.c **** *  as a software version of the EOC. This function provides the
 432:Generated_Source\PSoC4/ADC.c **** *  programmer with two options. In one mode this function
 433:Generated_Source\PSoC4/ADC.c **** *  immediately returns with the conversion status. In the other mode,
 434:Generated_Source\PSoC4/ADC.c **** *  the function does not return (blocking) until the conversion has
 435:Generated_Source\PSoC4/ADC.c **** *  completed.
 436:Generated_Source\PSoC4/ADC.c **** *
 437:Generated_Source\PSoC4/ADC.c **** * Parameters:
 438:Generated_Source\PSoC4/ADC.c **** *  ADC_RETURN_STATUS        -> Immediately returns conversion result status
 439:Generated_Source\PSoC4/ADC.c **** *  ADC_WAIT_FOR_RESULT      -> Does not return until ADC complete
 440:Generated_Source\PSoC4/ADC.c **** *  ADC_RETURN_STATUS_INJ    -> Immediately returns conversion result status
 441:Generated_Source\PSoC4/ADC.c **** *                              for injection channel
 442:Generated_Source\PSoC4/ADC.c **** *  ADC_WAIT_FOR_RESULT_INJ  -> Does not return until ADC completes injection
 443:Generated_Source\PSoC4/ADC.c **** *                              channel conversion
 444:Generated_Source\PSoC4/ADC.c **** *
 445:Generated_Source\PSoC4/ADC.c **** * Return:
 446:Generated_Source\PSoC4/ADC.c **** *  If a non-zero value is returned, the last conversion or scan has completed.
 447:Generated_Source\PSoC4/ADC.c **** *  If the returned value is zero, the ADC is still in the process of a scan.
 448:Generated_Source\PSoC4/ADC.c **** *
 449:Generated_Source\PSoC4/ADC.c **** *******************************************************************************/
 450:Generated_Source\PSoC4/ADC.c **** uint32 ADC_IsEndConversion(uint32 retMode)
 451:Generated_Source\PSoC4/ADC.c **** {
 353              		.loc 1 451 0
 354              		.cfi_startproc
 355              	.LVL11:
 356 0000 10B5     		push	{r4, lr}
 357              		.cfi_def_cfa_offset 8
 358              		.cfi_offset 4, -8
 359              		.cfi_offset 14, -4
 360              		.loc 1 451 0
 361 0002 041C     		mov	r4, r0
 452:Generated_Source\PSoC4/ADC.c ****     uint32 status = 0u;
 362              		.loc 1 452 0
 363 0004 0020     		mov	r0, #0
 364              	.LVL12:
 453:Generated_Source\PSoC4/ADC.c **** 
 454:Generated_Source\PSoC4/ADC.c ****     if((retMode & (ADC_RETURN_STATUS | ADC_WAIT_FOR_RESULT)) != 0u)
 365              		.loc 1 454 0
 366 0006 A307     		lsl	r3, r4, #30
 367 0008 0AD0     		beq	.L30
ARM GAS  C:\Users\Petro\AppData\Local\Temp\cc6Ef6mI.s 			page 16


 368              	.LVL13:
 369              	.L28:
 455:Generated_Source\PSoC4/ADC.c ****     {
 456:Generated_Source\PSoC4/ADC.c ****         do
 457:Generated_Source\PSoC4/ADC.c ****         {
 458:Generated_Source\PSoC4/ADC.c ****             status = ADC_SAR_INTR_REG & ADC_EOS_MASK;
 370              		.loc 1 458 0 discriminator 2
 371 000a 0122     		mov	r2, #1
 372 000c 0549     		ldr	r1, .L32
 373 000e 0B68     		ldr	r3, [r1]
 374 0010 1340     		and	r3, r2
 375 0012 181E     		sub	r0, r3, #0
 376              	.LVL14:
 459:Generated_Source\PSoC4/ADC.c ****         }while((status == 0u) && ((retMode & ADC_WAIT_FOR_RESULT) != 0u));
 377              		.loc 1 459 0 discriminator 2
 378 0014 02D1     		bne	.L27
 379              		.loc 1 459 0 is_stmt 0 discriminator 1
 380 0016 A307     		lsl	r3, r4, #30
 381 0018 F7D4     		bmi	.L28
 382 001a 01E0     		b	.L30
 383              	.L27:
 460:Generated_Source\PSoC4/ADC.c **** 
 461:Generated_Source\PSoC4/ADC.c ****         if(status != 0u)
 462:Generated_Source\PSoC4/ADC.c ****         {
 463:Generated_Source\PSoC4/ADC.c ****             /* Clear EOS bit */
 464:Generated_Source\PSoC4/ADC.c ****             ADC_SAR_INTR_REG = ADC_EOS_MASK;
 384              		.loc 1 464 0 is_stmt 1
 385 001c 101C     		mov	r0, r2
 386              	.LVL15:
 387 001e 0A60     		str	r2, [r1]
 388              	.LVL16:
 389              	.L30:
 465:Generated_Source\PSoC4/ADC.c ****         }
 466:Generated_Source\PSoC4/ADC.c ****     }
 467:Generated_Source\PSoC4/ADC.c **** 
 468:Generated_Source\PSoC4/ADC.c ****     #if(ADC_INJ_CHANNEL_ENABLED)
 469:Generated_Source\PSoC4/ADC.c ****         if((retMode & (ADC_RETURN_STATUS_INJ | ADC_WAIT_FOR_RESULT_INJ)) != 0u)
 470:Generated_Source\PSoC4/ADC.c ****         {
 471:Generated_Source\PSoC4/ADC.c ****             do
 472:Generated_Source\PSoC4/ADC.c ****             {
 473:Generated_Source\PSoC4/ADC.c ****                 status |= ADC_SAR_INTR_REG & ADC_INJ_EOC_MASK;
 474:Generated_Source\PSoC4/ADC.c ****             }while(((status & ADC_INJ_EOC_MASK) == 0u) &&
 475:Generated_Source\PSoC4/ADC.c ****                    ((retMode & ADC_WAIT_FOR_RESULT_INJ) != 0u));
 476:Generated_Source\PSoC4/ADC.c **** 
 477:Generated_Source\PSoC4/ADC.c ****             if((status & ADC_INJ_EOC_MASK) != 0u)
 478:Generated_Source\PSoC4/ADC.c ****             {
 479:Generated_Source\PSoC4/ADC.c ****                 /* Clear Injection EOS bit */
 480:Generated_Source\PSoC4/ADC.c ****                 ADC_SAR_INTR_REG = ADC_INJ_EOC_MASK;
 481:Generated_Source\PSoC4/ADC.c ****             }
 482:Generated_Source\PSoC4/ADC.c ****         }
 483:Generated_Source\PSoC4/ADC.c ****     #endif /* ADC_INJ_CHANNEL_ENABLED */
 484:Generated_Source\PSoC4/ADC.c **** 
 485:Generated_Source\PSoC4/ADC.c ****     return (status);
 486:Generated_Source\PSoC4/ADC.c **** }
 390              		.loc 1 486 0
 391              		@ sp needed
 392              	.LVL17:
ARM GAS  C:\Users\Petro\AppData\Local\Temp\cc6Ef6mI.s 			page 17


 393 0020 10BD     		pop	{r4, pc}
 394              	.L33:
 395 0022 C046     		.align	2
 396              	.L32:
 397 0024 10023A40 		.word	1077543440
 398              		.cfi_endproc
 399              	.LFE8:
 400              		.size	ADC_IsEndConversion, .-ADC_IsEndConversion
 401              		.section	.text.ADC_GetResult16,"ax",%progbits
 402              		.align	1
 403              		.global	ADC_GetResult16
 404              		.code	16
 405              		.thumb_func
 406              		.type	ADC_GetResult16, %function
 407              	ADC_GetResult16:
 408              	.LFB9:
 487:Generated_Source\PSoC4/ADC.c **** 
 488:Generated_Source\PSoC4/ADC.c **** 
 489:Generated_Source\PSoC4/ADC.c **** /*******************************************************************************
 490:Generated_Source\PSoC4/ADC.c **** * Function Name: ADC_GetResult16
 491:Generated_Source\PSoC4/ADC.c **** ********************************************************************************
 492:Generated_Source\PSoC4/ADC.c **** *
 493:Generated_Source\PSoC4/ADC.c **** * Summary:
 494:Generated_Source\PSoC4/ADC.c **** *  Gets the data available in the SAR DATA register.
 495:Generated_Source\PSoC4/ADC.c **** *
 496:Generated_Source\PSoC4/ADC.c **** * Parameters:
 497:Generated_Source\PSoC4/ADC.c **** *  chan: The ADC channel in which to return the result. The first channel
 498:Generated_Source\PSoC4/ADC.c **** *  is 0 and the injection channel if enabled is the number of valid channels.
 499:Generated_Source\PSoC4/ADC.c **** *
 500:Generated_Source\PSoC4/ADC.c **** * Return:
 501:Generated_Source\PSoC4/ADC.c **** *  Returns converted data as a signed 16-bit integer
 502:Generated_Source\PSoC4/ADC.c **** *
 503:Generated_Source\PSoC4/ADC.c **** *******************************************************************************/
 504:Generated_Source\PSoC4/ADC.c **** int16 ADC_GetResult16(uint32 chan)
 505:Generated_Source\PSoC4/ADC.c **** {
 409              		.loc 1 505 0
 410              		.cfi_startproc
 411              	.LVL18:
 412 0000 08B5     		push	{r3, lr}
 413              		.cfi_def_cfa_offset 8
 414              		.cfi_offset 3, -8
 415              		.cfi_offset 14, -4
 506:Generated_Source\PSoC4/ADC.c ****     uint32 result;
 507:Generated_Source\PSoC4/ADC.c **** 
 508:Generated_Source\PSoC4/ADC.c ****     /* Halt CPU in debug mode if channel is out of valid range */
 509:Generated_Source\PSoC4/ADC.c ****     CYASSERT(chan < ADC_TOTAL_CHANNELS_NUM);
 416              		.loc 1 509 0
 417 0002 0028     		cmp	r0, #0
 418 0004 04D0     		beq	.L35
 419              		.loc 1 509 0 is_stmt 0 discriminator 1
 420 0006 0020     		mov	r0, #0
 421              	.LVL19:
 422 0008 FFF7FEFF 		bl	CyHalt
 423              	.LVL20:
 510:Generated_Source\PSoC4/ADC.c **** 
 511:Generated_Source\PSoC4/ADC.c ****     if(chan < ADC_SEQUENCED_CHANNELS_NUM)
 512:Generated_Source\PSoC4/ADC.c ****     {
ARM GAS  C:\Users\Petro\AppData\Local\Temp\cc6Ef6mI.s 			page 18


 513:Generated_Source\PSoC4/ADC.c ****         result = CY_GET_REG32((reg32 *)(ADC_SAR_CHAN_RESULT_IND + (uint32)(chan << 2u))) &
 514:Generated_Source\PSoC4/ADC.c ****                 ADC_RESULT_MASK;
 515:Generated_Source\PSoC4/ADC.c ****     }
 516:Generated_Source\PSoC4/ADC.c ****     else
 517:Generated_Source\PSoC4/ADC.c ****     {
 518:Generated_Source\PSoC4/ADC.c ****         #if(ADC_INJ_CHANNEL_ENABLED)
 519:Generated_Source\PSoC4/ADC.c ****             result = ADC_SAR_INJ_RESULT_REG & ADC_RESULT_MASK;
 520:Generated_Source\PSoC4/ADC.c ****         #else
 521:Generated_Source\PSoC4/ADC.c ****             result = 0u;
 424              		.loc 1 521 0 is_stmt 1 discriminator 1
 425 000c 0020     		mov	r0, #0
 426 000e 02E0     		b	.L36
 427              	.LVL21:
 428              	.L35:
 513:Generated_Source\PSoC4/ADC.c ****                 ADC_RESULT_MASK;
 429              		.loc 1 513 0
 430 0010 024B     		ldr	r3, .L38
 431 0012 1868     		ldr	r0, [r3]
 432              	.LVL22:
 433 0014 80B2     		uxth	r0, r0
 434              	.LVL23:
 435              	.L36:
 522:Generated_Source\PSoC4/ADC.c ****         #endif /* ADC_INJ_CHANNEL_ENABLED */
 523:Generated_Source\PSoC4/ADC.c ****     }
 524:Generated_Source\PSoC4/ADC.c **** 
 525:Generated_Source\PSoC4/ADC.c ****     return ( (int16)result );
 436              		.loc 1 525 0
 437 0016 00B2     		sxth	r0, r0
 438              	.LVL24:
 526:Generated_Source\PSoC4/ADC.c **** }
 439              		.loc 1 526 0
 440              		@ sp needed
 441 0018 08BD     		pop	{r3, pc}
 442              	.L39:
 443 001a C046     		.align	2
 444              	.L38:
 445 001c 80013A40 		.word	1077543296
 446              		.cfi_endproc
 447              	.LFE9:
 448              		.size	ADC_GetResult16, .-ADC_GetResult16
 449              		.section	.text.ADC_SetChanMask,"ax",%progbits
 450              		.align	1
 451              		.global	ADC_SetChanMask
 452              		.code	16
 453              		.thumb_func
 454              		.type	ADC_SetChanMask, %function
 455              	ADC_SetChanMask:
 456              	.LFB10:
 527:Generated_Source\PSoC4/ADC.c **** 
 528:Generated_Source\PSoC4/ADC.c **** 
 529:Generated_Source\PSoC4/ADC.c **** /*******************************************************************************
 530:Generated_Source\PSoC4/ADC.c **** * Function Name: ADC_SetChanMask
 531:Generated_Source\PSoC4/ADC.c **** ********************************************************************************
 532:Generated_Source\PSoC4/ADC.c **** *
 533:Generated_Source\PSoC4/ADC.c **** * Summary:
 534:Generated_Source\PSoC4/ADC.c **** *  Sets the channel enable mask.
 535:Generated_Source\PSoC4/ADC.c **** *
ARM GAS  C:\Users\Petro\AppData\Local\Temp\cc6Ef6mI.s 			page 19


 536:Generated_Source\PSoC4/ADC.c **** * Parameters:
 537:Generated_Source\PSoC4/ADC.c **** *  mask: Sets which channels that will be
 538:Generated_Source\PSoC4/ADC.c **** *  scanned. Setting bits for channels that do not exist will have no
 539:Generated_Source\PSoC4/ADC.c **** *  effect. For example, if only 6 channels were enabled, setting a
 540:Generated_Source\PSoC4/ADC.c **** *  mask of 0x0103 would only enable the last two channels (0 and 1).
 541:Generated_Source\PSoC4/ADC.c **** *  This API will not enable the injection channel.
 542:Generated_Source\PSoC4/ADC.c **** *  Examples: If the component is setup to sequence through 8
 543:Generated_Source\PSoC4/ADC.c **** *  channels, a mask of 0x000F would enable channels 0, 1, 2, and 3.
 544:Generated_Source\PSoC4/ADC.c **** *
 545:Generated_Source\PSoC4/ADC.c **** * Return:
 546:Generated_Source\PSoC4/ADC.c **** *  None.
 547:Generated_Source\PSoC4/ADC.c **** *
 548:Generated_Source\PSoC4/ADC.c **** *******************************************************************************/
 549:Generated_Source\PSoC4/ADC.c **** void ADC_SetChanMask(uint32 mask)
 550:Generated_Source\PSoC4/ADC.c **** {
 457              		.loc 1 550 0
 458              		.cfi_startproc
 459              	.LVL25:
 551:Generated_Source\PSoC4/ADC.c ****     ADC_SAR_CHAN_EN_REG = mask & ADC_MAX_CHANNELS_EN_MASK;
 460              		.loc 1 551 0
 461 0000 0123     		mov	r3, #1
 462 0002 1840     		and	r0, r3
 463              	.LVL26:
 464 0004 014B     		ldr	r3, .L41
 552:Generated_Source\PSoC4/ADC.c **** }
 465              		.loc 1 552 0
 466              		@ sp needed
 551:Generated_Source\PSoC4/ADC.c ****     ADC_SAR_CHAN_EN_REG = mask & ADC_MAX_CHANNELS_EN_MASK;
 467              		.loc 1 551 0
 468 0006 1860     		str	r0, [r3]
 469              		.loc 1 552 0
 470 0008 7047     		bx	lr
 471              	.L42:
 472 000a C046     		.align	2
 473              	.L41:
 474 000c 20003A40 		.word	1077542944
 475              		.cfi_endproc
 476              	.LFE10:
 477              		.size	ADC_SetChanMask, .-ADC_SetChanMask
 478              		.section	.text.ADC_SetLowLimit,"ax",%progbits
 479              		.align	1
 480              		.global	ADC_SetLowLimit
 481              		.code	16
 482              		.thumb_func
 483              		.type	ADC_SetLowLimit, %function
 484              	ADC_SetLowLimit:
 485              	.LFB11:
 553:Generated_Source\PSoC4/ADC.c **** 
 554:Generated_Source\PSoC4/ADC.c **** #if(ADC_INJ_CHANNEL_ENABLED)
 555:Generated_Source\PSoC4/ADC.c **** 
 556:Generated_Source\PSoC4/ADC.c **** 
 557:Generated_Source\PSoC4/ADC.c ****     /*******************************************************************************
 558:Generated_Source\PSoC4/ADC.c ****     * Function Name: ADC_EnableInjection
 559:Generated_Source\PSoC4/ADC.c ****     ********************************************************************************
 560:Generated_Source\PSoC4/ADC.c ****     *
 561:Generated_Source\PSoC4/ADC.c ****     * Summary:
 562:Generated_Source\PSoC4/ADC.c ****     *  Enables the injection channel for the next scan only.
ARM GAS  C:\Users\Petro\AppData\Local\Temp\cc6Ef6mI.s 			page 20


 563:Generated_Source\PSoC4/ADC.c ****     *
 564:Generated_Source\PSoC4/ADC.c ****     * Parameters:
 565:Generated_Source\PSoC4/ADC.c ****     *  None.
 566:Generated_Source\PSoC4/ADC.c ****     *
 567:Generated_Source\PSoC4/ADC.c ****     * Return:
 568:Generated_Source\PSoC4/ADC.c ****     *  None.
 569:Generated_Source\PSoC4/ADC.c ****     *
 570:Generated_Source\PSoC4/ADC.c ****     *******************************************************************************/
 571:Generated_Source\PSoC4/ADC.c ****     void ADC_EnableInjection(void)
 572:Generated_Source\PSoC4/ADC.c ****     {
 573:Generated_Source\PSoC4/ADC.c ****         ADC_SAR_INJ_CHAN_CONFIG_REG |= ADC_INJ_CHAN_EN;
 574:Generated_Source\PSoC4/ADC.c ****     }
 575:Generated_Source\PSoC4/ADC.c **** 
 576:Generated_Source\PSoC4/ADC.c **** #endif /* ADC_INJ_CHANNEL_ENABLED */
 577:Generated_Source\PSoC4/ADC.c **** 
 578:Generated_Source\PSoC4/ADC.c **** 
 579:Generated_Source\PSoC4/ADC.c **** /*******************************************************************************
 580:Generated_Source\PSoC4/ADC.c **** * Function Name: ADC_SetLowLimit
 581:Generated_Source\PSoC4/ADC.c **** ********************************************************************************
 582:Generated_Source\PSoC4/ADC.c **** *
 583:Generated_Source\PSoC4/ADC.c **** * Summary:
 584:Generated_Source\PSoC4/ADC.c **** *  Sets the low limit parameter for a limit condition.
 585:Generated_Source\PSoC4/ADC.c **** *
 586:Generated_Source\PSoC4/ADC.c **** * Parameters:
 587:Generated_Source\PSoC4/ADC.c **** *  lowLimit: The low limit for a limit condition.
 588:Generated_Source\PSoC4/ADC.c **** *
 589:Generated_Source\PSoC4/ADC.c **** * Return:
 590:Generated_Source\PSoC4/ADC.c **** *  None.
 591:Generated_Source\PSoC4/ADC.c **** *
 592:Generated_Source\PSoC4/ADC.c **** *******************************************************************************/
 593:Generated_Source\PSoC4/ADC.c **** void ADC_SetLowLimit(uint32 lowLimit)
 594:Generated_Source\PSoC4/ADC.c **** {
 486              		.loc 1 594 0
 487              		.cfi_startproc
 488              	.LVL27:
 595:Generated_Source\PSoC4/ADC.c ****     ADC_SAR_RANGE_THRES_REG &= (uint32)(~ADC_RANGE_LOW_MASK);
 489              		.loc 1 595 0
 490 0000 044A     		ldr	r2, .L44
 596:Generated_Source\PSoC4/ADC.c ****     ADC_SAR_RANGE_THRES_REG |= lowLimit & ADC_RANGE_LOW_MASK;
 491              		.loc 1 596 0
 492 0002 80B2     		uxth	r0, r0
 493              	.LVL28:
 595:Generated_Source\PSoC4/ADC.c ****     ADC_SAR_RANGE_THRES_REG &= (uint32)(~ADC_RANGE_LOW_MASK);
 494              		.loc 1 595 0
 495 0004 1368     		ldr	r3, [r2]
 597:Generated_Source\PSoC4/ADC.c **** }
 496              		.loc 1 597 0
 497              		@ sp needed
 595:Generated_Source\PSoC4/ADC.c ****     ADC_SAR_RANGE_THRES_REG &= (uint32)(~ADC_RANGE_LOW_MASK);
 498              		.loc 1 595 0
 499 0006 1B0C     		lsr	r3, r3, #16
 500 0008 1B04     		lsl	r3, r3, #16
 501 000a 1360     		str	r3, [r2]
 596:Generated_Source\PSoC4/ADC.c ****     ADC_SAR_RANGE_THRES_REG |= lowLimit & ADC_RANGE_LOW_MASK;
 502              		.loc 1 596 0
 503 000c 1368     		ldr	r3, [r2]
 504 000e 1843     		orr	r0, r3
ARM GAS  C:\Users\Petro\AppData\Local\Temp\cc6Ef6mI.s 			page 21


 505 0010 1060     		str	r0, [r2]
 506              		.loc 1 597 0
 507 0012 7047     		bx	lr
 508              	.L45:
 509              		.align	2
 510              	.L44:
 511 0014 18003A40 		.word	1077542936
 512              		.cfi_endproc
 513              	.LFE11:
 514              		.size	ADC_SetLowLimit, .-ADC_SetLowLimit
 515              		.section	.text.ADC_SetHighLimit,"ax",%progbits
 516              		.align	1
 517              		.global	ADC_SetHighLimit
 518              		.code	16
 519              		.thumb_func
 520              		.type	ADC_SetHighLimit, %function
 521              	ADC_SetHighLimit:
 522              	.LFB12:
 598:Generated_Source\PSoC4/ADC.c **** 
 599:Generated_Source\PSoC4/ADC.c **** 
 600:Generated_Source\PSoC4/ADC.c **** /*******************************************************************************
 601:Generated_Source\PSoC4/ADC.c **** * Function Name: ADC_SetHighLimit
 602:Generated_Source\PSoC4/ADC.c **** ********************************************************************************
 603:Generated_Source\PSoC4/ADC.c **** *
 604:Generated_Source\PSoC4/ADC.c **** * Summary:
 605:Generated_Source\PSoC4/ADC.c **** *  Sets the low limit parameter for a limit condition.
 606:Generated_Source\PSoC4/ADC.c **** *
 607:Generated_Source\PSoC4/ADC.c **** * Parameters:
 608:Generated_Source\PSoC4/ADC.c **** *  highLimit: The high limit for a limit condition.
 609:Generated_Source\PSoC4/ADC.c **** *
 610:Generated_Source\PSoC4/ADC.c **** * Return:
 611:Generated_Source\PSoC4/ADC.c **** *  None.
 612:Generated_Source\PSoC4/ADC.c **** *
 613:Generated_Source\PSoC4/ADC.c **** *******************************************************************************/
 614:Generated_Source\PSoC4/ADC.c **** void ADC_SetHighLimit(uint32 highLimit)
 615:Generated_Source\PSoC4/ADC.c **** {
 523              		.loc 1 615 0
 524              		.cfi_startproc
 525              	.LVL29:
 616:Generated_Source\PSoC4/ADC.c ****     ADC_SAR_RANGE_THRES_REG &= (uint32)(~ADC_RANGE_HIGH_MASK);
 526              		.loc 1 616 0
 527 0000 044B     		ldr	r3, .L47
 617:Generated_Source\PSoC4/ADC.c ****     ADC_SAR_RANGE_THRES_REG |= (uint32)(highLimit << ADC_RANGE_HIGH_OFFSET);
 528              		.loc 1 617 0
 529 0002 0004     		lsl	r0, r0, #16
 530              	.LVL30:
 616:Generated_Source\PSoC4/ADC.c ****     ADC_SAR_RANGE_THRES_REG &= (uint32)(~ADC_RANGE_HIGH_MASK);
 531              		.loc 1 616 0
 532 0004 1A68     		ldr	r2, [r3]
 618:Generated_Source\PSoC4/ADC.c **** }
 533              		.loc 1 618 0
 534              		@ sp needed
 616:Generated_Source\PSoC4/ADC.c ****     ADC_SAR_RANGE_THRES_REG &= (uint32)(~ADC_RANGE_HIGH_MASK);
 535              		.loc 1 616 0
 536 0006 92B2     		uxth	r2, r2
 537 0008 1A60     		str	r2, [r3]
 617:Generated_Source\PSoC4/ADC.c ****     ADC_SAR_RANGE_THRES_REG |= (uint32)(highLimit << ADC_RANGE_HIGH_OFFSET);
ARM GAS  C:\Users\Petro\AppData\Local\Temp\cc6Ef6mI.s 			page 22


 538              		.loc 1 617 0
 539 000a 1A68     		ldr	r2, [r3]
 540 000c 1043     		orr	r0, r2
 541 000e 1860     		str	r0, [r3]
 542              		.loc 1 618 0
 543 0010 7047     		bx	lr
 544              	.L48:
 545 0012 C046     		.align	2
 546              	.L47:
 547 0014 18003A40 		.word	1077542936
 548              		.cfi_endproc
 549              	.LFE12:
 550              		.size	ADC_SetHighLimit, .-ADC_SetHighLimit
 551              		.section	.text.ADC_SetLimitMask,"ax",%progbits
 552              		.align	1
 553              		.global	ADC_SetLimitMask
 554              		.code	16
 555              		.thumb_func
 556              		.type	ADC_SetLimitMask, %function
 557              	ADC_SetLimitMask:
 558              	.LFB13:
 619:Generated_Source\PSoC4/ADC.c **** 
 620:Generated_Source\PSoC4/ADC.c **** 
 621:Generated_Source\PSoC4/ADC.c **** /*******************************************************************************
 622:Generated_Source\PSoC4/ADC.c **** * Function Name: ADC_SetLimitMask
 623:Generated_Source\PSoC4/ADC.c **** ********************************************************************************
 624:Generated_Source\PSoC4/ADC.c **** *
 625:Generated_Source\PSoC4/ADC.c **** * Summary:
 626:Generated_Source\PSoC4/ADC.c **** *  Sets the channel limit condition mask.
 627:Generated_Source\PSoC4/ADC.c **** *
 628:Generated_Source\PSoC4/ADC.c **** * Parameters:
 629:Generated_Source\PSoC4/ADC.c **** *  mask: Sets which channels that may cause a
 630:Generated_Source\PSoC4/ADC.c **** *  limit condition interrupt. Setting bits for channels that do not exist
 631:Generated_Source\PSoC4/ADC.c **** *  will have no effect. For example, if only 6 channels were enabled,
 632:Generated_Source\PSoC4/ADC.c **** *  setting a mask of 0x0103 would only enable the last two channels (0 and 1).
 633:Generated_Source\PSoC4/ADC.c **** *
 634:Generated_Source\PSoC4/ADC.c **** * Return:
 635:Generated_Source\PSoC4/ADC.c **** *  None.
 636:Generated_Source\PSoC4/ADC.c **** *
 637:Generated_Source\PSoC4/ADC.c **** *******************************************************************************/
 638:Generated_Source\PSoC4/ADC.c **** void ADC_SetLimitMask(uint32 mask)
 639:Generated_Source\PSoC4/ADC.c **** {
 559              		.loc 1 639 0
 560              		.cfi_startproc
 561              	.LVL31:
 640:Generated_Source\PSoC4/ADC.c ****     ADC_SAR_RANGE_INTR_MASK_REG = mask & ADC_MAX_CHANNELS_EN_MASK;
 562              		.loc 1 640 0
 563 0000 0123     		mov	r3, #1
 564 0002 1840     		and	r0, r3
 565              	.LVL32:
 566 0004 014B     		ldr	r3, .L50
 641:Generated_Source\PSoC4/ADC.c **** }
 567              		.loc 1 641 0
 568              		@ sp needed
 640:Generated_Source\PSoC4/ADC.c ****     ADC_SAR_RANGE_INTR_MASK_REG = mask & ADC_MAX_CHANNELS_EN_MASK;
 569              		.loc 1 640 0
 570 0006 1860     		str	r0, [r3]
ARM GAS  C:\Users\Petro\AppData\Local\Temp\cc6Ef6mI.s 			page 23


 571              		.loc 1 641 0
 572 0008 7047     		bx	lr
 573              	.L51:
 574 000a C046     		.align	2
 575              	.L50:
 576 000c 38023A40 		.word	1077543480
 577              		.cfi_endproc
 578              	.LFE13:
 579              		.size	ADC_SetLimitMask, .-ADC_SetLimitMask
 580              		.section	.text.ADC_SetSatMask,"ax",%progbits
 581              		.align	1
 582              		.global	ADC_SetSatMask
 583              		.code	16
 584              		.thumb_func
 585              		.type	ADC_SetSatMask, %function
 586              	ADC_SetSatMask:
 587              	.LFB14:
 642:Generated_Source\PSoC4/ADC.c **** 
 643:Generated_Source\PSoC4/ADC.c **** 
 644:Generated_Source\PSoC4/ADC.c **** /*******************************************************************************
 645:Generated_Source\PSoC4/ADC.c **** * Function Name: ADC_SetSatMask
 646:Generated_Source\PSoC4/ADC.c **** ********************************************************************************
 647:Generated_Source\PSoC4/ADC.c **** *
 648:Generated_Source\PSoC4/ADC.c **** * Summary:
 649:Generated_Source\PSoC4/ADC.c **** *  Sets the channel saturation event mask.
 650:Generated_Source\PSoC4/ADC.c **** *
 651:Generated_Source\PSoC4/ADC.c **** * Parameters:
 652:Generated_Source\PSoC4/ADC.c **** *  mask: Sets which channels that may cause a
 653:Generated_Source\PSoC4/ADC.c **** *  saturation event interrupt. Setting bits for channels that do not exist
 654:Generated_Source\PSoC4/ADC.c **** *  will have no effect. For example, if only 8 channels were enabled,
 655:Generated_Source\PSoC4/ADC.c **** *  setting a mask of 0x01C0 would only enable two channels (6 and 7).
 656:Generated_Source\PSoC4/ADC.c **** *
 657:Generated_Source\PSoC4/ADC.c **** * Return:
 658:Generated_Source\PSoC4/ADC.c **** *  None.
 659:Generated_Source\PSoC4/ADC.c **** *
 660:Generated_Source\PSoC4/ADC.c **** *******************************************************************************/
 661:Generated_Source\PSoC4/ADC.c **** void ADC_SetSatMask(uint32 mask)
 662:Generated_Source\PSoC4/ADC.c **** {
 588              		.loc 1 662 0
 589              		.cfi_startproc
 590              	.LVL33:
 663:Generated_Source\PSoC4/ADC.c ****     ADC_SAR_SATURATE_INTR_MASK_REG = mask & ADC_MAX_CHANNELS_EN_MASK;
 591              		.loc 1 663 0
 592 0000 0123     		mov	r3, #1
 593 0002 1840     		and	r0, r3
 594              	.LVL34:
 595 0004 014B     		ldr	r3, .L53
 664:Generated_Source\PSoC4/ADC.c **** }
 596              		.loc 1 664 0
 597              		@ sp needed
 663:Generated_Source\PSoC4/ADC.c ****     ADC_SAR_SATURATE_INTR_MASK_REG = mask & ADC_MAX_CHANNELS_EN_MASK;
 598              		.loc 1 663 0
 599 0006 1860     		str	r0, [r3]
 600              		.loc 1 664 0
 601 0008 7047     		bx	lr
 602              	.L54:
 603 000a C046     		.align	2
ARM GAS  C:\Users\Petro\AppData\Local\Temp\cc6Ef6mI.s 			page 24


 604              	.L53:
 605 000c 28023A40 		.word	1077543464
 606              		.cfi_endproc
 607              	.LFE14:
 608              		.size	ADC_SetSatMask, .-ADC_SetSatMask
 609              		.section	.text.ADC_SetOffset,"ax",%progbits
 610              		.align	1
 611              		.global	ADC_SetOffset
 612              		.code	16
 613              		.thumb_func
 614              		.type	ADC_SetOffset, %function
 615              	ADC_SetOffset:
 616              	.LFB15:
 665:Generated_Source\PSoC4/ADC.c **** 
 666:Generated_Source\PSoC4/ADC.c **** 
 667:Generated_Source\PSoC4/ADC.c **** /*******************************************************************************
 668:Generated_Source\PSoC4/ADC.c **** * Function Name: ADC_SetOffset
 669:Generated_Source\PSoC4/ADC.c **** ********************************************************************************
 670:Generated_Source\PSoC4/ADC.c **** *
 671:Generated_Source\PSoC4/ADC.c **** * Summary:
 672:Generated_Source\PSoC4/ADC.c **** *   Description: Sets the ADC offset which is used by the functions
 673:Generated_Source\PSoC4/ADC.c **** *   ADC_CountsTo_uVolts, ADC_CountsTo_mVolts and ADC_CountsTo_Volts
 674:Generated_Source\PSoC4/ADC.c **** *   to substract the offset from the given reading
 675:Generated_Source\PSoC4/ADC.c **** *   before calculating the voltage conversion.
 676:Generated_Source\PSoC4/ADC.c **** *
 677:Generated_Source\PSoC4/ADC.c **** * Parameters:
 678:Generated_Source\PSoC4/ADC.c **** *  chan: ADC channel number.
 679:Generated_Source\PSoC4/ADC.c **** *  offset: This value is a measured value when the
 680:Generated_Source\PSoC4/ADC.c **** *          inputs are shorted or connected to the same input voltage.
 681:Generated_Source\PSoC4/ADC.c **** *
 682:Generated_Source\PSoC4/ADC.c **** * Return:
 683:Generated_Source\PSoC4/ADC.c **** *  None.
 684:Generated_Source\PSoC4/ADC.c **** *
 685:Generated_Source\PSoC4/ADC.c **** * Global variables:
 686:Generated_Source\PSoC4/ADC.c **** *  ADC_Offset:  Modified to set the user provided offset.
 687:Generated_Source\PSoC4/ADC.c **** *
 688:Generated_Source\PSoC4/ADC.c **** *******************************************************************************/
 689:Generated_Source\PSoC4/ADC.c **** void ADC_SetOffset(uint32 chan, int16 offset)
 690:Generated_Source\PSoC4/ADC.c **** {
 617              		.loc 1 690 0
 618              		.cfi_startproc
 619              	.LVL35:
 620 0000 38B5     		push	{r3, r4, r5, lr}
 621              		.cfi_def_cfa_offset 16
 622              		.cfi_offset 3, -16
 623              		.cfi_offset 4, -12
 624              		.cfi_offset 5, -8
 625              		.cfi_offset 14, -4
 626              		.loc 1 690 0
 627 0002 041C     		mov	r4, r0
 628 0004 0D1C     		mov	r5, r1
 691:Generated_Source\PSoC4/ADC.c ****     /* Halt CPU in debug mode if channel is out of valid range */
 692:Generated_Source\PSoC4/ADC.c ****     CYASSERT(chan < ADC_TOTAL_CHANNELS_NUM);
 629              		.loc 1 692 0
 630 0006 0028     		cmp	r0, #0
 631 0008 02D0     		beq	.L56
 632              		.loc 1 692 0 is_stmt 0 discriminator 1
ARM GAS  C:\Users\Petro\AppData\Local\Temp\cc6Ef6mI.s 			page 25


 633 000a 0020     		mov	r0, #0
 634              	.LVL36:
 635 000c FFF7FEFF 		bl	CyHalt
 636              	.LVL37:
 637              	.L56:
 693:Generated_Source\PSoC4/ADC.c **** 
 694:Generated_Source\PSoC4/ADC.c ****     ADC_offset[chan] = offset;
 638              		.loc 1 694 0 is_stmt 1
 639 0010 014B     		ldr	r3, .L60
 640 0012 6400     		lsl	r4, r4, #1
 641              	.LVL38:
 642 0014 E552     		strh	r5, [r4, r3]
 695:Generated_Source\PSoC4/ADC.c **** }
 643              		.loc 1 695 0
 644              		@ sp needed
 645 0016 38BD     		pop	{r3, r4, r5, pc}
 646              	.L61:
 647              		.align	2
 648              	.L60:
 649 0018 00000000 		.word	ADC_offset
 650              		.cfi_endproc
 651              	.LFE15:
 652              		.size	ADC_SetOffset, .-ADC_SetOffset
 653              		.section	.text.ADC_SetGain,"ax",%progbits
 654              		.align	1
 655              		.global	ADC_SetGain
 656              		.code	16
 657              		.thumb_func
 658              		.type	ADC_SetGain, %function
 659              	ADC_SetGain:
 660              	.LFB16:
 696:Generated_Source\PSoC4/ADC.c **** 
 697:Generated_Source\PSoC4/ADC.c **** 
 698:Generated_Source\PSoC4/ADC.c **** /*******************************************************************************
 699:Generated_Source\PSoC4/ADC.c **** * Function Name: ADC_SetGain
 700:Generated_Source\PSoC4/ADC.c **** ********************************************************************************
 701:Generated_Source\PSoC4/ADC.c **** *
 702:Generated_Source\PSoC4/ADC.c **** * Summary:
 703:Generated_Source\PSoC4/ADC.c **** *  Description: Sets the ADC gain in counts per 10 volt for the voltage
 704:Generated_Source\PSoC4/ADC.c **** *  conversion functions below. This value is set by default by the
 705:Generated_Source\PSoC4/ADC.c **** *  reference and input range settings. It should only be used to further
 706:Generated_Source\PSoC4/ADC.c **** *  calibrate the ADC with a known input or if an external reference is
 707:Generated_Source\PSoC4/ADC.c **** *  used. Affects the ADC_CountsTo_uVolts, ADC_CountsTo_mVolts
 708:Generated_Source\PSoC4/ADC.c **** *  and ADC_CountsTo_Volts functions by supplying the correct
 709:Generated_Source\PSoC4/ADC.c **** *  conversion between ADC counts and voltage.
 710:Generated_Source\PSoC4/ADC.c **** *
 711:Generated_Source\PSoC4/ADC.c **** * Parameters:
 712:Generated_Source\PSoC4/ADC.c **** *  chan: ADC channel number.
 713:Generated_Source\PSoC4/ADC.c **** *  adcGain: ADC gain in counts per 10 volts.
 714:Generated_Source\PSoC4/ADC.c **** *
 715:Generated_Source\PSoC4/ADC.c **** * Return:
 716:Generated_Source\PSoC4/ADC.c **** *  None.
 717:Generated_Source\PSoC4/ADC.c **** *
 718:Generated_Source\PSoC4/ADC.c **** * Global variables:
 719:Generated_Source\PSoC4/ADC.c **** *  ADC_CountsPer10Volt:  modified to set the ADC gain in counts
 720:Generated_Source\PSoC4/ADC.c **** *   per 10 volt.
 721:Generated_Source\PSoC4/ADC.c **** *
ARM GAS  C:\Users\Petro\AppData\Local\Temp\cc6Ef6mI.s 			page 26


 722:Generated_Source\PSoC4/ADC.c **** *******************************************************************************/
 723:Generated_Source\PSoC4/ADC.c **** void ADC_SetGain(uint32 chan, int32 adcGain)
 724:Generated_Source\PSoC4/ADC.c **** {
 661              		.loc 1 724 0
 662              		.cfi_startproc
 663              	.LVL39:
 664 0000 38B5     		push	{r3, r4, r5, lr}
 665              		.cfi_def_cfa_offset 16
 666              		.cfi_offset 3, -16
 667              		.cfi_offset 4, -12
 668              		.cfi_offset 5, -8
 669              		.cfi_offset 14, -4
 670              		.loc 1 724 0
 671 0002 041C     		mov	r4, r0
 672 0004 0D1C     		mov	r5, r1
 725:Generated_Source\PSoC4/ADC.c ****     /* Halt CPU in debug mode if channel is out of valid range */
 726:Generated_Source\PSoC4/ADC.c ****     CYASSERT(chan < ADC_TOTAL_CHANNELS_NUM);
 673              		.loc 1 726 0
 674 0006 0028     		cmp	r0, #0
 675 0008 02D0     		beq	.L63
 676              		.loc 1 726 0 is_stmt 0 discriminator 1
 677 000a 0020     		mov	r0, #0
 678              	.LVL40:
 679 000c FFF7FEFF 		bl	CyHalt
 680              	.LVL41:
 681              	.L63:
 727:Generated_Source\PSoC4/ADC.c **** 
 728:Generated_Source\PSoC4/ADC.c ****     ADC_countsPer10Volt[chan] = adcGain;
 682              		.loc 1 728 0 is_stmt 1
 683 0010 014B     		ldr	r3, .L67
 684 0012 A400     		lsl	r4, r4, #2
 685              	.LVL42:
 686 0014 E550     		str	r5, [r4, r3]
 729:Generated_Source\PSoC4/ADC.c **** }
 687              		.loc 1 729 0
 688              		@ sp needed
 689              	.LVL43:
 690 0016 38BD     		pop	{r3, r4, r5, pc}
 691              	.L68:
 692              		.align	2
 693              	.L67:
 694 0018 00000000 		.word	ADC_countsPer10Volt
 695              		.cfi_endproc
 696              	.LFE16:
 697              		.size	ADC_SetGain, .-ADC_SetGain
 698              		.global	__aeabi_idiv
 699              		.section	.text.ADC_CountsTo_mVolts,"ax",%progbits
 700              		.align	1
 701              		.global	ADC_CountsTo_mVolts
 702              		.code	16
 703              		.thumb_func
 704              		.type	ADC_CountsTo_mVolts, %function
 705              	ADC_CountsTo_mVolts:
 706              	.LFB17:
 730:Generated_Source\PSoC4/ADC.c **** 
 731:Generated_Source\PSoC4/ADC.c **** 
 732:Generated_Source\PSoC4/ADC.c **** #if(ADC_DEFAULT_JUSTIFICATION_SEL == ADC__RIGHT)
ARM GAS  C:\Users\Petro\AppData\Local\Temp\cc6Ef6mI.s 			page 27


 733:Generated_Source\PSoC4/ADC.c **** 
 734:Generated_Source\PSoC4/ADC.c **** 
 735:Generated_Source\PSoC4/ADC.c ****     /*******************************************************************************
 736:Generated_Source\PSoC4/ADC.c ****     * Function Name: ADC_CountsTo_mVolts
 737:Generated_Source\PSoC4/ADC.c ****     ********************************************************************************
 738:Generated_Source\PSoC4/ADC.c ****     *
 739:Generated_Source\PSoC4/ADC.c ****     * Summary:
 740:Generated_Source\PSoC4/ADC.c ****     *  This function converts ADC counts to mVolts
 741:Generated_Source\PSoC4/ADC.c ****     *  This function is not available when left data format justification selected.
 742:Generated_Source\PSoC4/ADC.c ****     *
 743:Generated_Source\PSoC4/ADC.c ****     * Parameters:
 744:Generated_Source\PSoC4/ADC.c ****     *  chan: The ADC channel number.
 745:Generated_Source\PSoC4/ADC.c ****     *  adcCounts: Result from the ADC conversion
 746:Generated_Source\PSoC4/ADC.c ****     *
 747:Generated_Source\PSoC4/ADC.c ****     * Return:
 748:Generated_Source\PSoC4/ADC.c ****     *  Results in mVolts
 749:Generated_Source\PSoC4/ADC.c ****     *
 750:Generated_Source\PSoC4/ADC.c ****     * Global variables:
 751:Generated_Source\PSoC4/ADC.c ****     *  ADC_countsPer10Volt:  used to convert ADC counts to mVolts.
 752:Generated_Source\PSoC4/ADC.c ****     *  ADC_Offset:  Used as the offset while converting ADC counts
 753:Generated_Source\PSoC4/ADC.c ****     *   to mVolts.
 754:Generated_Source\PSoC4/ADC.c ****     *
 755:Generated_Source\PSoC4/ADC.c ****     *******************************************************************************/
 756:Generated_Source\PSoC4/ADC.c ****     int16 ADC_CountsTo_mVolts(uint32 chan, int16 adcCounts)
 757:Generated_Source\PSoC4/ADC.c ****     {
 707              		.loc 1 757 0
 708              		.cfi_startproc
 709              	.LVL44:
 710 0000 38B5     		push	{r3, r4, r5, lr}
 711              		.cfi_def_cfa_offset 16
 712              		.cfi_offset 3, -16
 713              		.cfi_offset 4, -12
 714              		.cfi_offset 5, -8
 715              		.cfi_offset 14, -4
 716              		.loc 1 757 0
 717 0002 041C     		mov	r4, r0
 718 0004 0D1C     		mov	r5, r1
 758:Generated_Source\PSoC4/ADC.c ****         int16 mVolts;
 759:Generated_Source\PSoC4/ADC.c **** 
 760:Generated_Source\PSoC4/ADC.c ****         /* Halt CPU in debug mode if channel is out of valid range */
 761:Generated_Source\PSoC4/ADC.c ****         CYASSERT(chan < ADC_TOTAL_CHANNELS_NUM);
 719              		.loc 1 761 0
 720 0006 0028     		cmp	r0, #0
 721 0008 02D0     		beq	.L70
 722              		.loc 1 761 0 is_stmt 0 discriminator 1
 723 000a 0020     		mov	r0, #0
 724              	.LVL45:
 725 000c FFF7FEFF 		bl	CyHalt
 726              	.LVL46:
 727              	.L70:
 762:Generated_Source\PSoC4/ADC.c **** 
 763:Generated_Source\PSoC4/ADC.c ****         /* Divide the adcCount when accumulate averaging mode selected */
 764:Generated_Source\PSoC4/ADC.c ****         #if(ADC_DEFAULT_AVG_MODE == ADC__ACCUMULATE)
 765:Generated_Source\PSoC4/ADC.c ****             if((ADC_channelsConfig[chan] & ADC_AVERAGING_EN) != 0u)
 766:Generated_Source\PSoC4/ADC.c ****             {
 767:Generated_Source\PSoC4/ADC.c ****                 adcCounts /= ADC_DEFAULT_AVG_SAMPLES_DIV;
 768:Generated_Source\PSoC4/ADC.c ****             }
ARM GAS  C:\Users\Petro\AppData\Local\Temp\cc6Ef6mI.s 			page 28


 769:Generated_Source\PSoC4/ADC.c ****         #endif /* ADC_DEFAULT_AVG_MODE == ADC__ACCUMULATE */
 770:Generated_Source\PSoC4/ADC.c **** 
 771:Generated_Source\PSoC4/ADC.c ****         /* Subtract ADC offset */
 772:Generated_Source\PSoC4/ADC.c ****         adcCounts -= ADC_offset[chan];
 728              		.loc 1 772 0 is_stmt 1
 729 0010 0C4B     		ldr	r3, .L76
 730 0012 6200     		lsl	r2, r4, #1
 731 0014 D15A     		ldrh	r1, [r2, r3]
 732 0016 A400     		lsl	r4, r4, #2
 733              	.LVL47:
 734 0018 691A     		sub	r1, r5, r1
 735 001a 0B4D     		ldr	r5, .L76+4
 773:Generated_Source\PSoC4/ADC.c **** 
 774:Generated_Source\PSoC4/ADC.c ****         mVolts = (int16)((((int32)adcCounts * ADC_10MV_COUNTS) + ( (adcCounts > 0) ?
 736              		.loc 1 774 0
 737 001c 0B48     		ldr	r0, .L76+8
 775:Generated_Source\PSoC4/ADC.c ****                  (ADC_countsPer10Volt[chan] / 2) : (-(ADC_countsPer10Volt[chan] / 2)) ))
 738              		.loc 1 775 0
 739 001e 2A59     		ldr	r2, [r5, r4]
 772:Generated_Source\PSoC4/ADC.c **** 
 740              		.loc 1 772 0
 741 0020 09B2     		sxth	r1, r1
 742              	.LVL48:
 774:Generated_Source\PSoC4/ADC.c ****                  (ADC_countsPer10Volt[chan] / 2) : (-(ADC_countsPer10Volt[chan] / 2)) ))
 743              		.loc 1 774 0
 744 0022 4843     		mul	r0, r1
 745              		.loc 1 775 0
 746 0024 D30F     		lsr	r3, r2, #31
 747 0026 0029     		cmp	r1, #0
 748 0028 02DD     		ble	.L71
 749              		.loc 1 775 0 is_stmt 0 discriminator 1
 750 002a 9B18     		add	r3, r3, r2
 751 002c 5B10     		asr	r3, r3, #1
 752 002e 02E0     		b	.L72
 753              	.L71:
 754              		.loc 1 775 0 discriminator 2
 755 0030 9A18     		add	r2, r3, r2
 756 0032 5210     		asr	r2, r2, #1
 757 0034 5342     		neg	r3, r2
 758              	.L72:
 776:Generated_Source\PSoC4/ADC.c ****                  / ADC_countsPer10Volt[chan]);
 759              		.loc 1 776 0 is_stmt 1
 760 0036 2959     		ldr	r1, [r5, r4]
 761              	.LVL49:
 774:Generated_Source\PSoC4/ADC.c ****                  (ADC_countsPer10Volt[chan] / 2) : (-(ADC_countsPer10Volt[chan] / 2)) ))
 762              		.loc 1 774 0
 763 0038 C018     		add	r0, r0, r3
 764              	.LVL50:
 765              		.loc 1 776 0
 766 003a FFF7FEFF 		bl	__aeabi_idiv
 767              	.LVL51:
 777:Generated_Source\PSoC4/ADC.c **** 
 778:Generated_Source\PSoC4/ADC.c ****         return( mVolts );
 779:Generated_Source\PSoC4/ADC.c ****     }
 768              		.loc 1 779 0
 769              		@ sp needed
 778:Generated_Source\PSoC4/ADC.c ****     }
ARM GAS  C:\Users\Petro\AppData\Local\Temp\cc6Ef6mI.s 			page 29


 770              		.loc 1 778 0
 771 003e 00B2     		sxth	r0, r0
 772              		.loc 1 779 0
 773 0040 38BD     		pop	{r3, r4, r5, pc}
 774              	.L77:
 775 0042 C046     		.align	2
 776              	.L76:
 777 0044 00000000 		.word	ADC_offset
 778 0048 00000000 		.word	ADC_countsPer10Volt
 779 004c 10270000 		.word	10000
 780              		.cfi_endproc
 781              	.LFE17:
 782              		.size	ADC_CountsTo_mVolts, .-ADC_CountsTo_mVolts
 783              		.global	__aeabi_lmul
 784              		.global	__aeabi_ldivmod
 785              		.section	.text.ADC_CountsTo_uVolts,"ax",%progbits
 786              		.align	1
 787              		.global	ADC_CountsTo_uVolts
 788              		.code	16
 789              		.thumb_func
 790              		.type	ADC_CountsTo_uVolts, %function
 791              	ADC_CountsTo_uVolts:
 792              	.LFB18:
 780:Generated_Source\PSoC4/ADC.c **** 
 781:Generated_Source\PSoC4/ADC.c **** 
 782:Generated_Source\PSoC4/ADC.c ****     /*******************************************************************************
 783:Generated_Source\PSoC4/ADC.c ****     * Function Name: ADC_CountsTo_uVolts
 784:Generated_Source\PSoC4/ADC.c ****     ********************************************************************************
 785:Generated_Source\PSoC4/ADC.c ****     *
 786:Generated_Source\PSoC4/ADC.c ****     * Summary:
 787:Generated_Source\PSoC4/ADC.c ****     *  This function converts ADC counts to micro Volts
 788:Generated_Source\PSoC4/ADC.c ****     *  This function is not available when left data format justification selected.
 789:Generated_Source\PSoC4/ADC.c ****     *
 790:Generated_Source\PSoC4/ADC.c ****     * Parameters:
 791:Generated_Source\PSoC4/ADC.c ****     *  chan: The ADC channel number.
 792:Generated_Source\PSoC4/ADC.c ****     *  adcCounts: Result from the ADC conversion
 793:Generated_Source\PSoC4/ADC.c ****     *
 794:Generated_Source\PSoC4/ADC.c ****     * Return:
 795:Generated_Source\PSoC4/ADC.c ****     *  Results in uVolts
 796:Generated_Source\PSoC4/ADC.c ****     *
 797:Generated_Source\PSoC4/ADC.c ****     * Global variables:
 798:Generated_Source\PSoC4/ADC.c ****     *  ADC_countsPer10Volt:  used to convert ADC counts to uVolts.
 799:Generated_Source\PSoC4/ADC.c ****     *  ADC_Offset:  Used as the offset while converting ADC counts
 800:Generated_Source\PSoC4/ADC.c ****     *   to mVolts.
 801:Generated_Source\PSoC4/ADC.c ****     *
 802:Generated_Source\PSoC4/ADC.c ****     * Theory:
 803:Generated_Source\PSoC4/ADC.c ****     *  Care must be taken to not exceed the maximum value for a 31 bit signed
 804:Generated_Source\PSoC4/ADC.c ****     *  number in the conversion to uVolts and at the same time not loose
 805:Generated_Source\PSoC4/ADC.c ****     *  resolution.
 806:Generated_Source\PSoC4/ADC.c ****     *  To convert adcCounts to microVolts it is required to be multiplied
 807:Generated_Source\PSoC4/ADC.c ****     *  on 10 million and later divide on gain in counts per 10V.
 808:Generated_Source\PSoC4/ADC.c ****     *
 809:Generated_Source\PSoC4/ADC.c ****     *******************************************************************************/
 810:Generated_Source\PSoC4/ADC.c ****     int32 ADC_CountsTo_uVolts(uint32 chan, int16 adcCounts)
 811:Generated_Source\PSoC4/ADC.c ****     {
 793              		.loc 1 811 0
 794              		.cfi_startproc
ARM GAS  C:\Users\Petro\AppData\Local\Temp\cc6Ef6mI.s 			page 30


 795              	.LVL52:
 796 0000 38B5     		push	{r3, r4, r5, lr}
 797              		.cfi_def_cfa_offset 16
 798              		.cfi_offset 3, -16
 799              		.cfi_offset 4, -12
 800              		.cfi_offset 5, -8
 801              		.cfi_offset 14, -4
 802              		.loc 1 811 0
 803 0002 051C     		mov	r5, r0
 804 0004 0C1C     		mov	r4, r1
 812:Generated_Source\PSoC4/ADC.c ****         int64 uVolts;
 813:Generated_Source\PSoC4/ADC.c **** 
 814:Generated_Source\PSoC4/ADC.c ****         /* Halt CPU in debug mode if channel is out of valid range */
 815:Generated_Source\PSoC4/ADC.c ****         CYASSERT(chan < ADC_TOTAL_CHANNELS_NUM);
 805              		.loc 1 815 0
 806 0006 0028     		cmp	r0, #0
 807 0008 02D0     		beq	.L79
 808              		.loc 1 815 0 is_stmt 0 discriminator 1
 809 000a 0020     		mov	r0, #0
 810              	.LVL53:
 811 000c FFF7FEFF 		bl	CyHalt
 812              	.LVL54:
 813              	.L79:
 816:Generated_Source\PSoC4/ADC.c **** 
 817:Generated_Source\PSoC4/ADC.c ****         /* Divide the adcCount when accumulate averaging mode selected */
 818:Generated_Source\PSoC4/ADC.c ****         #if(ADC_DEFAULT_AVG_MODE == ADC__ACCUMULATE)
 819:Generated_Source\PSoC4/ADC.c ****             if((ADC_channelsConfig[chan] & ADC_AVERAGING_EN) != 0u)
 820:Generated_Source\PSoC4/ADC.c ****             {
 821:Generated_Source\PSoC4/ADC.c ****                 adcCounts /= ADC_DEFAULT_AVG_SAMPLES_DIV;
 822:Generated_Source\PSoC4/ADC.c ****             }
 823:Generated_Source\PSoC4/ADC.c ****         #endif /* ADC_DEFAULT_AVG_MODE == ADC__ACCUMULATE */
 824:Generated_Source\PSoC4/ADC.c **** 
 825:Generated_Source\PSoC4/ADC.c ****         /* Subtract ADC offset */
 826:Generated_Source\PSoC4/ADC.c ****         adcCounts -= ADC_offset[chan];
 814              		.loc 1 826 0 is_stmt 1
 815 0010 084B     		ldr	r3, .L83
 816 0012 6A00     		lsl	r2, r5, #1
 817 0014 D05A     		ldrh	r0, [r2, r3]
 827:Generated_Source\PSoC4/ADC.c **** 
 828:Generated_Source\PSoC4/ADC.c ****         uVolts = ((int64)adcCounts * ADC_10UV_COUNTS) / ADC_countsPer10Volt[chan];
 818              		.loc 1 828 0
 819 0016 084B     		ldr	r3, .L83+4
 826:Generated_Source\PSoC4/ADC.c **** 
 820              		.loc 1 826 0
 821 0018 241A     		sub	r4, r4, r0
 822              	.LVL55:
 823              		.loc 1 828 0
 824 001a AD00     		lsl	r5, r5, #2
 825              	.LVL56:
 826 001c ED58     		ldr	r5, [r5, r3]
 827              	.LVL57:
 828 001e 20B2     		sxth	r0, r4
 829 0020 064A     		ldr	r2, .L83+8
 830 0022 0023     		mov	r3, #0
 831 0024 C117     		asr	r1, r0, #31
 832 0026 FFF7FEFF 		bl	__aeabi_lmul
 833              	.LVL58:
ARM GAS  C:\Users\Petro\AppData\Local\Temp\cc6Ef6mI.s 			page 31


 834 002a EB17     		asr	r3, r5, #31
 835 002c 2A1C     		mov	r2, r5
 836 002e FFF7FEFF 		bl	__aeabi_ldivmod
 837              	.LVL59:
 829:Generated_Source\PSoC4/ADC.c **** 
 830:Generated_Source\PSoC4/ADC.c ****         return( (int32)uVolts );
 831:Generated_Source\PSoC4/ADC.c ****     }
 838              		.loc 1 831 0
 839              		@ sp needed
 840              	.LVL60:
 841 0032 38BD     		pop	{r3, r4, r5, pc}
 842              	.L84:
 843              		.align	2
 844              	.L83:
 845 0034 00000000 		.word	ADC_offset
 846 0038 00000000 		.word	ADC_countsPer10Volt
 847 003c 80969800 		.word	10000000
 848              		.cfi_endproc
 849              	.LFE18:
 850              		.size	ADC_CountsTo_uVolts, .-ADC_CountsTo_uVolts
 851              		.global	__aeabi_i2f
 852              		.global	__aeabi_fmul
 853              		.global	__aeabi_fdiv
 854              		.section	.text.ADC_CountsTo_Volts,"ax",%progbits
 855              		.align	1
 856              		.global	ADC_CountsTo_Volts
 857              		.code	16
 858              		.thumb_func
 859              		.type	ADC_CountsTo_Volts, %function
 860              	ADC_CountsTo_Volts:
 861              	.LFB19:
 832:Generated_Source\PSoC4/ADC.c **** 
 833:Generated_Source\PSoC4/ADC.c **** 
 834:Generated_Source\PSoC4/ADC.c ****     /*******************************************************************************
 835:Generated_Source\PSoC4/ADC.c ****     * Function Name: ADC_CountsTo_Volts
 836:Generated_Source\PSoC4/ADC.c ****     ********************************************************************************
 837:Generated_Source\PSoC4/ADC.c ****     *
 838:Generated_Source\PSoC4/ADC.c ****     * Summary:
 839:Generated_Source\PSoC4/ADC.c ****     *  Converts the ADC output to Volts as a floating point number.
 840:Generated_Source\PSoC4/ADC.c ****     *  This function is not available when left data format justification selected.
 841:Generated_Source\PSoC4/ADC.c ****     *
 842:Generated_Source\PSoC4/ADC.c ****     * Parameters:
 843:Generated_Source\PSoC4/ADC.c ****     *  chan: The ADC channel number.
 844:Generated_Source\PSoC4/ADC.c ****     *  Result from the ADC conversion
 845:Generated_Source\PSoC4/ADC.c ****     *
 846:Generated_Source\PSoC4/ADC.c ****     * Return:
 847:Generated_Source\PSoC4/ADC.c ****     *  Results in Volts
 848:Generated_Source\PSoC4/ADC.c ****     *
 849:Generated_Source\PSoC4/ADC.c ****     * Global variables:
 850:Generated_Source\PSoC4/ADC.c ****     *  ADC_countsPer10Volt:  used to convert ADC counts to Volts.
 851:Generated_Source\PSoC4/ADC.c ****     *  ADC_Offset:  Used as the offset while converting ADC counts
 852:Generated_Source\PSoC4/ADC.c ****     *   to mVolts.
 853:Generated_Source\PSoC4/ADC.c ****     *
 854:Generated_Source\PSoC4/ADC.c ****     *******************************************************************************/
 855:Generated_Source\PSoC4/ADC.c ****     float32 ADC_CountsTo_Volts(uint32 chan, int16 adcCounts)
 856:Generated_Source\PSoC4/ADC.c ****     {
 862              		.loc 1 856 0
ARM GAS  C:\Users\Petro\AppData\Local\Temp\cc6Ef6mI.s 			page 32


 863              		.cfi_startproc
 864              	.LVL61:
 865 0000 38B5     		push	{r3, r4, r5, lr}
 866              		.cfi_def_cfa_offset 16
 867              		.cfi_offset 3, -16
 868              		.cfi_offset 4, -12
 869              		.cfi_offset 5, -8
 870              		.cfi_offset 14, -4
 871              		.loc 1 856 0
 872 0002 051C     		mov	r5, r0
 873 0004 0C1C     		mov	r4, r1
 857:Generated_Source\PSoC4/ADC.c ****         float32 volts;
 858:Generated_Source\PSoC4/ADC.c **** 
 859:Generated_Source\PSoC4/ADC.c ****         /* Halt CPU in debug mode if channel is out of valid range */
 860:Generated_Source\PSoC4/ADC.c ****         CYASSERT(chan < ADC_TOTAL_CHANNELS_NUM);
 874              		.loc 1 860 0
 875 0006 0028     		cmp	r0, #0
 876 0008 02D0     		beq	.L86
 877              		.loc 1 860 0 is_stmt 0 discriminator 1
 878 000a 0020     		mov	r0, #0
 879              	.LVL62:
 880 000c FFF7FEFF 		bl	CyHalt
 881              	.LVL63:
 882              	.L86:
 861:Generated_Source\PSoC4/ADC.c **** 
 862:Generated_Source\PSoC4/ADC.c ****         /* Divide the adcCount when accumulate averaging mode selected */
 863:Generated_Source\PSoC4/ADC.c ****         #if(ADC_DEFAULT_AVG_MODE == ADC__ACCUMULATE)
 864:Generated_Source\PSoC4/ADC.c ****             if((ADC_channelsConfig[chan] & ADC_AVERAGING_EN) != 0u)
 865:Generated_Source\PSoC4/ADC.c ****             {
 866:Generated_Source\PSoC4/ADC.c ****                 adcCounts /= ADC_DEFAULT_AVG_SAMPLES_DIV;
 867:Generated_Source\PSoC4/ADC.c ****             }
 868:Generated_Source\PSoC4/ADC.c ****         #endif /* ADC_DEFAULT_AVG_MODE == ADC__ACCUMULATE */
 869:Generated_Source\PSoC4/ADC.c **** 
 870:Generated_Source\PSoC4/ADC.c ****         /* Subtract ADC offset */
 871:Generated_Source\PSoC4/ADC.c ****         adcCounts -= ADC_offset[chan];
 883              		.loc 1 871 0 is_stmt 1
 884 0010 0A4B     		ldr	r3, .L90
 885 0012 6A00     		lsl	r2, r5, #1
 886 0014 D05A     		ldrh	r0, [r2, r3]
 872:Generated_Source\PSoC4/ADC.c **** 
 873:Generated_Source\PSoC4/ADC.c ****         volts = ((float32)adcCounts * ADC_10V_COUNTS) / (float32)ADC_countsPer10Volt[chan];
 887              		.loc 1 873 0
 888 0016 0A4B     		ldr	r3, .L90+4
 871:Generated_Source\PSoC4/ADC.c **** 
 889              		.loc 1 871 0
 890 0018 241A     		sub	r4, r4, r0
 891              	.LVL64:
 892              		.loc 1 873 0
 893 001a 20B2     		sxth	r0, r4
 894 001c AD00     		lsl	r5, r5, #2
 895              	.LVL65:
 896 001e ED58     		ldr	r5, [r5, r3]
 897              	.LVL66:
 898 0020 FFF7FEFF 		bl	__aeabi_i2f
 899              	.LVL67:
 900 0024 0749     		ldr	r1, .L90+8
 901 0026 FFF7FEFF 		bl	__aeabi_fmul
ARM GAS  C:\Users\Petro\AppData\Local\Temp\cc6Ef6mI.s 			page 33


 902              	.LVL68:
 903 002a 041C     		add	r4, r0, #0
 904              	.LVL69:
 905 002c 281C     		mov	r0, r5
 906 002e FFF7FEFF 		bl	__aeabi_i2f
 907              	.LVL70:
 908 0032 011C     		add	r1, r0, #0
 909 0034 201C     		add	r0, r4, #0
 910 0036 FFF7FEFF 		bl	__aeabi_fdiv
 911              	.LVL71:
 874:Generated_Source\PSoC4/ADC.c **** 
 875:Generated_Source\PSoC4/ADC.c ****         return( volts );
 876:Generated_Source\PSoC4/ADC.c ****     }
 912              		.loc 1 876 0
 913              		@ sp needed
 914 003a 38BD     		pop	{r3, r4, r5, pc}
 915              	.L91:
 916              		.align	2
 917              	.L90:
 918 003c 00000000 		.word	ADC_offset
 919 0040 00000000 		.word	ADC_countsPer10Volt
 920 0044 00002041 		.word	1092616192
 921              		.cfi_endproc
 922              	.LFE19:
 923              		.size	ADC_CountsTo_Volts, .-ADC_CountsTo_Volts
 924              		.comm	ADC_countsPer10Volt,4,4
 925              		.comm	ADC_offset,2,2
 926              		.global	ADC_initVar
 927              		.bss
 928              		.set	.LANCHOR0,. + 0
 929              		.type	ADC_initVar, %object
 930              		.size	ADC_initVar, 1
 931              	ADC_initVar:
 932 0000 00       		.space	1
 933              		.text
 934              	.Letext0:
 935              		.file 2 "Generated_Source\\PSoC4\\cytypes.h"
 936              		.file 3 "Generated_Source\\PSoC4\\CyLib.h"