ARM GAS  C:\Users\Petro\AppData\Local\Temp\ccDwqNKG.s 			page 1


   1              		.cpu cortex-m0
   2              		.fpu softvfp
   3              		.eabi_attribute 20, 1
   4              		.eabi_attribute 21, 1
   5              		.eabi_attribute 23, 3
   6              		.eabi_attribute 24, 1
   7              		.eabi_attribute 25, 1
   8              		.eabi_attribute 26, 1
   9              		.eabi_attribute 30, 4
  10              		.eabi_attribute 34, 0
  11              		.eabi_attribute 18, 4
  12              		.code	16
  13              		.file	"AppDelay.c"
  14              		.text
  15              	.Ltext0:
  16              		.cfi_sections	.debug_frame
  17              		.section	.text.AppDelay_Init,"ax",%progbits
  18              		.align	1
  19              		.global	AppDelay_Init
  20              		.code	16
  21              		.thumb_func
  22              		.type	AppDelay_Init, %function
  23              	AppDelay_Init:
  24              	.LFB2:
  25              		.file 1 "Generated_Source\\PSoC4\\AppDelay.c"
   1:Generated_Source\PSoC4/AppDelay.c **** /*******************************************************************************
   2:Generated_Source\PSoC4/AppDelay.c **** * File Name: AppDelay.c
   3:Generated_Source\PSoC4/AppDelay.c **** * Version 2.10
   4:Generated_Source\PSoC4/AppDelay.c **** *
   5:Generated_Source\PSoC4/AppDelay.c **** * Description:
   6:Generated_Source\PSoC4/AppDelay.c **** *  This file provides the source code to the API for the AppDelay
   7:Generated_Source\PSoC4/AppDelay.c **** *  component
   8:Generated_Source\PSoC4/AppDelay.c **** *
   9:Generated_Source\PSoC4/AppDelay.c **** * Note:
  10:Generated_Source\PSoC4/AppDelay.c **** *  None
  11:Generated_Source\PSoC4/AppDelay.c **** *
  12:Generated_Source\PSoC4/AppDelay.c **** ********************************************************************************
  13:Generated_Source\PSoC4/AppDelay.c **** * Copyright 2013-2015, Cypress Semiconductor Corporation.  All rights reserved.
  14:Generated_Source\PSoC4/AppDelay.c **** * You may use this file only in accordance with the license, terms, conditions,
  15:Generated_Source\PSoC4/AppDelay.c **** * disclaimers, and limitations in the end user license agreement accompanying
  16:Generated_Source\PSoC4/AppDelay.c **** * the software package with which this file was provided.
  17:Generated_Source\PSoC4/AppDelay.c **** *******************************************************************************/
  18:Generated_Source\PSoC4/AppDelay.c **** 
  19:Generated_Source\PSoC4/AppDelay.c **** #include "AppDelay.h"
  20:Generated_Source\PSoC4/AppDelay.c **** 
  21:Generated_Source\PSoC4/AppDelay.c **** uint8 AppDelay_initVar = 0u;
  22:Generated_Source\PSoC4/AppDelay.c **** 
  23:Generated_Source\PSoC4/AppDelay.c **** 
  24:Generated_Source\PSoC4/AppDelay.c **** /*******************************************************************************
  25:Generated_Source\PSoC4/AppDelay.c **** * Function Name: AppDelay_Init
  26:Generated_Source\PSoC4/AppDelay.c **** ********************************************************************************
  27:Generated_Source\PSoC4/AppDelay.c **** *
  28:Generated_Source\PSoC4/AppDelay.c **** * Summary:
  29:Generated_Source\PSoC4/AppDelay.c **** *  Initialize/Restore default AppDelay configuration.
  30:Generated_Source\PSoC4/AppDelay.c **** *
  31:Generated_Source\PSoC4/AppDelay.c **** * Parameters:
  32:Generated_Source\PSoC4/AppDelay.c **** *  None
ARM GAS  C:\Users\Petro\AppData\Local\Temp\ccDwqNKG.s 			page 2


  33:Generated_Source\PSoC4/AppDelay.c **** *
  34:Generated_Source\PSoC4/AppDelay.c **** * Return:
  35:Generated_Source\PSoC4/AppDelay.c **** *  None
  36:Generated_Source\PSoC4/AppDelay.c **** *
  37:Generated_Source\PSoC4/AppDelay.c **** *******************************************************************************/
  38:Generated_Source\PSoC4/AppDelay.c **** void AppDelay_Init(void)
  39:Generated_Source\PSoC4/AppDelay.c **** {
  26              		.loc 1 39 0
  27              		.cfi_startproc
  40:Generated_Source\PSoC4/AppDelay.c **** 
  41:Generated_Source\PSoC4/AppDelay.c ****     /* Set values from customizer to CTRL */
  42:Generated_Source\PSoC4/AppDelay.c ****     #if (AppDelay__QUAD == AppDelay_CONFIG)
  43:Generated_Source\PSoC4/AppDelay.c ****         AppDelay_CONTROL_REG = AppDelay_CTRL_QUAD_BASE_CONFIG;
  44:Generated_Source\PSoC4/AppDelay.c ****         
  45:Generated_Source\PSoC4/AppDelay.c ****         /* Set values from customizer to CTRL1 */
  46:Generated_Source\PSoC4/AppDelay.c ****         AppDelay_TRIG_CONTROL1_REG  = AppDelay_QUAD_SIGNALS_MODES;
  47:Generated_Source\PSoC4/AppDelay.c **** 
  48:Generated_Source\PSoC4/AppDelay.c ****         /* Set values from customizer to INTR */
  49:Generated_Source\PSoC4/AppDelay.c ****         AppDelay_SetInterruptMode(AppDelay_QUAD_INTERRUPT_MASK);
  50:Generated_Source\PSoC4/AppDelay.c ****         
  51:Generated_Source\PSoC4/AppDelay.c ****          /* Set other values */
  52:Generated_Source\PSoC4/AppDelay.c ****         AppDelay_SetCounterMode(AppDelay_COUNT_DOWN);
  53:Generated_Source\PSoC4/AppDelay.c ****         AppDelay_WritePeriod(AppDelay_QUAD_PERIOD_INIT_VALUE);
  54:Generated_Source\PSoC4/AppDelay.c ****         AppDelay_WriteCounter(AppDelay_QUAD_PERIOD_INIT_VALUE);
  55:Generated_Source\PSoC4/AppDelay.c ****     #endif  /* (AppDelay__QUAD == AppDelay_CONFIG) */
  56:Generated_Source\PSoC4/AppDelay.c **** 
  57:Generated_Source\PSoC4/AppDelay.c ****     #if (AppDelay__TIMER == AppDelay_CONFIG)
  58:Generated_Source\PSoC4/AppDelay.c ****         AppDelay_CONTROL_REG = AppDelay_CTRL_TIMER_BASE_CONFIG;
  28              		.loc 1 58 0
  29 0000 A022     		mov	r2, #160
  30 0002 084B     		ldr	r3, .L2
  31 0004 D202     		lsl	r2, r2, #11
  32 0006 1A60     		str	r2, [r3]
  59:Generated_Source\PSoC4/AppDelay.c ****         
  60:Generated_Source\PSoC4/AppDelay.c ****         /* Set values from customizer to CTRL1 */
  61:Generated_Source\PSoC4/AppDelay.c ****         AppDelay_TRIG_CONTROL1_REG  = AppDelay_TIMER_SIGNALS_MODES;
  33              		.loc 1 61 0
  34 0008 0C22     		mov	r2, #12
  35 000a 074B     		ldr	r3, .L2+4
  62:Generated_Source\PSoC4/AppDelay.c ****     
  63:Generated_Source\PSoC4/AppDelay.c ****         /* Set values from customizer to INTR */
  64:Generated_Source\PSoC4/AppDelay.c ****         AppDelay_SetInterruptMode(AppDelay_TC_INTERRUPT_MASK);
  65:Generated_Source\PSoC4/AppDelay.c ****         
  66:Generated_Source\PSoC4/AppDelay.c ****         /* Set other values from customizer */
  67:Generated_Source\PSoC4/AppDelay.c ****         AppDelay_WritePeriod(AppDelay_TC_PERIOD_VALUE );
  68:Generated_Source\PSoC4/AppDelay.c **** 
  69:Generated_Source\PSoC4/AppDelay.c ****         #if (AppDelay__COMPARE == AppDelay_TC_COMP_CAP_MODE)
  70:Generated_Source\PSoC4/AppDelay.c ****             AppDelay_WriteCompare(AppDelay_TC_COMPARE_VALUE);
  71:Generated_Source\PSoC4/AppDelay.c **** 
  72:Generated_Source\PSoC4/AppDelay.c ****             #if (1u == AppDelay_TC_COMPARE_SWAP)
  73:Generated_Source\PSoC4/AppDelay.c ****                 AppDelay_SetCompareSwap(1u);
  74:Generated_Source\PSoC4/AppDelay.c ****                 AppDelay_WriteCompareBuf(AppDelay_TC_COMPARE_BUF_VALUE);
  75:Generated_Source\PSoC4/AppDelay.c ****             #endif  /* (1u == AppDelay_TC_COMPARE_SWAP) */
  76:Generated_Source\PSoC4/AppDelay.c ****         #endif  /* (AppDelay__COMPARE == AppDelay_TC_COMP_CAP_MODE) */
  77:Generated_Source\PSoC4/AppDelay.c **** 
  78:Generated_Source\PSoC4/AppDelay.c ****         /* Initialize counter value */
  79:Generated_Source\PSoC4/AppDelay.c ****         #if (AppDelay_CY_TCPWM_V2 && AppDelay_TIMER_UPDOWN_CNT_USED && !AppDelay_CY_TCPWM_4000)
ARM GAS  C:\Users\Petro\AppData\Local\Temp\ccDwqNKG.s 			page 3


  80:Generated_Source\PSoC4/AppDelay.c ****             AppDelay_WriteCounter(1u);
  81:Generated_Source\PSoC4/AppDelay.c ****         #elif(AppDelay__COUNT_DOWN == AppDelay_TC_COUNTER_MODE)
  82:Generated_Source\PSoC4/AppDelay.c ****             AppDelay_WriteCounter(AppDelay_TC_PERIOD_VALUE);
  83:Generated_Source\PSoC4/AppDelay.c ****         #else
  84:Generated_Source\PSoC4/AppDelay.c ****             AppDelay_WriteCounter(0u);
  85:Generated_Source\PSoC4/AppDelay.c ****         #endif /* (AppDelay_CY_TCPWM_V2 && AppDelay_TIMER_UPDOWN_CNT_USED && !AppDelay_CY_TCPWM_400
  86:Generated_Source\PSoC4/AppDelay.c ****     #endif  /* (AppDelay__TIMER == AppDelay_CONFIG) */
  87:Generated_Source\PSoC4/AppDelay.c **** 
  88:Generated_Source\PSoC4/AppDelay.c ****     #if (AppDelay__PWM_SEL == AppDelay_CONFIG)
  89:Generated_Source\PSoC4/AppDelay.c ****         AppDelay_CONTROL_REG = AppDelay_CTRL_PWM_BASE_CONFIG;
  90:Generated_Source\PSoC4/AppDelay.c **** 
  91:Generated_Source\PSoC4/AppDelay.c ****         #if (AppDelay__PWM_PR == AppDelay_PWM_MODE)
  92:Generated_Source\PSoC4/AppDelay.c ****             AppDelay_CONTROL_REG |= AppDelay_CTRL_PWM_RUN_MODE;
  93:Generated_Source\PSoC4/AppDelay.c ****             AppDelay_WriteCounter(AppDelay_PWM_PR_INIT_VALUE);
  94:Generated_Source\PSoC4/AppDelay.c ****         #else
  95:Generated_Source\PSoC4/AppDelay.c ****             AppDelay_CONTROL_REG |= AppDelay_CTRL_PWM_ALIGN | AppDelay_CTRL_PWM_KILL_EVENT;
  96:Generated_Source\PSoC4/AppDelay.c ****             
  97:Generated_Source\PSoC4/AppDelay.c ****             /* Initialize counter value */
  98:Generated_Source\PSoC4/AppDelay.c ****             #if (AppDelay_CY_TCPWM_V2 && AppDelay_PWM_UPDOWN_CNT_USED && !AppDelay_CY_TCPWM_4000)
  99:Generated_Source\PSoC4/AppDelay.c ****                 AppDelay_WriteCounter(1u);
 100:Generated_Source\PSoC4/AppDelay.c ****             #elif (AppDelay__RIGHT == AppDelay_PWM_ALIGN)
 101:Generated_Source\PSoC4/AppDelay.c ****                 AppDelay_WriteCounter(AppDelay_PWM_PERIOD_VALUE);
 102:Generated_Source\PSoC4/AppDelay.c ****             #else 
 103:Generated_Source\PSoC4/AppDelay.c ****                 AppDelay_WriteCounter(0u);
 104:Generated_Source\PSoC4/AppDelay.c ****             #endif  /* (AppDelay_CY_TCPWM_V2 && AppDelay_PWM_UPDOWN_CNT_USED && !AppDelay_CY_TCPWM_
 105:Generated_Source\PSoC4/AppDelay.c ****         #endif  /* (AppDelay__PWM_PR == AppDelay_PWM_MODE) */
 106:Generated_Source\PSoC4/AppDelay.c **** 
 107:Generated_Source\PSoC4/AppDelay.c ****         #if (AppDelay__PWM_DT == AppDelay_PWM_MODE)
 108:Generated_Source\PSoC4/AppDelay.c ****             AppDelay_CONTROL_REG |= AppDelay_CTRL_PWM_DEAD_TIME_CYCLE;
 109:Generated_Source\PSoC4/AppDelay.c ****         #endif  /* (AppDelay__PWM_DT == AppDelay_PWM_MODE) */
 110:Generated_Source\PSoC4/AppDelay.c **** 
 111:Generated_Source\PSoC4/AppDelay.c ****         #if (AppDelay__PWM == AppDelay_PWM_MODE)
 112:Generated_Source\PSoC4/AppDelay.c ****             AppDelay_CONTROL_REG |= AppDelay_CTRL_PWM_PRESCALER;
 113:Generated_Source\PSoC4/AppDelay.c ****         #endif  /* (AppDelay__PWM == AppDelay_PWM_MODE) */
 114:Generated_Source\PSoC4/AppDelay.c **** 
 115:Generated_Source\PSoC4/AppDelay.c ****         /* Set values from customizer to CTRL1 */
 116:Generated_Source\PSoC4/AppDelay.c ****         AppDelay_TRIG_CONTROL1_REG  = AppDelay_PWM_SIGNALS_MODES;
 117:Generated_Source\PSoC4/AppDelay.c ****     
 118:Generated_Source\PSoC4/AppDelay.c ****         /* Set values from customizer to INTR */
 119:Generated_Source\PSoC4/AppDelay.c ****         AppDelay_SetInterruptMode(AppDelay_PWM_INTERRUPT_MASK);
 120:Generated_Source\PSoC4/AppDelay.c **** 
 121:Generated_Source\PSoC4/AppDelay.c ****         /* Set values from customizer to CTRL2 */
 122:Generated_Source\PSoC4/AppDelay.c ****         #if (AppDelay__PWM_PR == AppDelay_PWM_MODE)
 123:Generated_Source\PSoC4/AppDelay.c ****             AppDelay_TRIG_CONTROL2_REG =
 124:Generated_Source\PSoC4/AppDelay.c ****                     (AppDelay_CC_MATCH_NO_CHANGE    |
 125:Generated_Source\PSoC4/AppDelay.c ****                     AppDelay_OVERLOW_NO_CHANGE      |
 126:Generated_Source\PSoC4/AppDelay.c ****                     AppDelay_UNDERFLOW_NO_CHANGE);
 127:Generated_Source\PSoC4/AppDelay.c ****         #else
 128:Generated_Source\PSoC4/AppDelay.c ****             #if (AppDelay__LEFT == AppDelay_PWM_ALIGN)
 129:Generated_Source\PSoC4/AppDelay.c ****                 AppDelay_TRIG_CONTROL2_REG = AppDelay_PWM_MODE_LEFT;
 130:Generated_Source\PSoC4/AppDelay.c ****             #endif  /* ( AppDelay_PWM_LEFT == AppDelay_PWM_ALIGN) */
 131:Generated_Source\PSoC4/AppDelay.c **** 
 132:Generated_Source\PSoC4/AppDelay.c ****             #if (AppDelay__RIGHT == AppDelay_PWM_ALIGN)
 133:Generated_Source\PSoC4/AppDelay.c ****                 AppDelay_TRIG_CONTROL2_REG = AppDelay_PWM_MODE_RIGHT;
 134:Generated_Source\PSoC4/AppDelay.c ****             #endif  /* ( AppDelay_PWM_RIGHT == AppDelay_PWM_ALIGN) */
 135:Generated_Source\PSoC4/AppDelay.c **** 
 136:Generated_Source\PSoC4/AppDelay.c ****             #if (AppDelay__CENTER == AppDelay_PWM_ALIGN)
ARM GAS  C:\Users\Petro\AppData\Local\Temp\ccDwqNKG.s 			page 4


 137:Generated_Source\PSoC4/AppDelay.c ****                 AppDelay_TRIG_CONTROL2_REG = AppDelay_PWM_MODE_CENTER;
 138:Generated_Source\PSoC4/AppDelay.c ****             #endif  /* ( AppDelay_PWM_CENTER == AppDelay_PWM_ALIGN) */
 139:Generated_Source\PSoC4/AppDelay.c **** 
 140:Generated_Source\PSoC4/AppDelay.c ****             #if (AppDelay__ASYMMETRIC == AppDelay_PWM_ALIGN)
 141:Generated_Source\PSoC4/AppDelay.c ****                 AppDelay_TRIG_CONTROL2_REG = AppDelay_PWM_MODE_ASYM;
 142:Generated_Source\PSoC4/AppDelay.c ****             #endif  /* (AppDelay__ASYMMETRIC == AppDelay_PWM_ALIGN) */
 143:Generated_Source\PSoC4/AppDelay.c ****         #endif  /* (AppDelay__PWM_PR == AppDelay_PWM_MODE) */
 144:Generated_Source\PSoC4/AppDelay.c **** 
 145:Generated_Source\PSoC4/AppDelay.c ****         /* Set other values from customizer */
 146:Generated_Source\PSoC4/AppDelay.c ****         AppDelay_WritePeriod(AppDelay_PWM_PERIOD_VALUE );
 147:Generated_Source\PSoC4/AppDelay.c ****         AppDelay_WriteCompare(AppDelay_PWM_COMPARE_VALUE);
 148:Generated_Source\PSoC4/AppDelay.c **** 
 149:Generated_Source\PSoC4/AppDelay.c ****         #if (1u == AppDelay_PWM_COMPARE_SWAP)
 150:Generated_Source\PSoC4/AppDelay.c ****             AppDelay_SetCompareSwap(1u);
 151:Generated_Source\PSoC4/AppDelay.c ****             AppDelay_WriteCompareBuf(AppDelay_PWM_COMPARE_BUF_VALUE);
 152:Generated_Source\PSoC4/AppDelay.c ****         #endif  /* (1u == AppDelay_PWM_COMPARE_SWAP) */
 153:Generated_Source\PSoC4/AppDelay.c **** 
 154:Generated_Source\PSoC4/AppDelay.c ****         #if (1u == AppDelay_PWM_PERIOD_SWAP)
 155:Generated_Source\PSoC4/AppDelay.c ****             AppDelay_SetPeriodSwap(1u);
 156:Generated_Source\PSoC4/AppDelay.c ****             AppDelay_WritePeriodBuf(AppDelay_PWM_PERIOD_BUF_VALUE);
 157:Generated_Source\PSoC4/AppDelay.c ****         #endif  /* (1u == AppDelay_PWM_PERIOD_SWAP) */
 158:Generated_Source\PSoC4/AppDelay.c ****     #endif  /* (AppDelay__PWM_SEL == AppDelay_CONFIG) */
 159:Generated_Source\PSoC4/AppDelay.c ****     
 160:Generated_Source\PSoC4/AppDelay.c **** }
  36              		.loc 1 160 0
  37              		@ sp needed
  61:Generated_Source\PSoC4/AppDelay.c ****     
  38              		.loc 1 61 0
  39 000c 1A60     		str	r2, [r3]
  40              	.LVL0:
  41              	.LBB10:
  42              	.LBB11:
 161:Generated_Source\PSoC4/AppDelay.c **** 
 162:Generated_Source\PSoC4/AppDelay.c **** 
 163:Generated_Source\PSoC4/AppDelay.c **** /*******************************************************************************
 164:Generated_Source\PSoC4/AppDelay.c **** * Function Name: AppDelay_Enable
 165:Generated_Source\PSoC4/AppDelay.c **** ********************************************************************************
 166:Generated_Source\PSoC4/AppDelay.c **** *
 167:Generated_Source\PSoC4/AppDelay.c **** * Summary:
 168:Generated_Source\PSoC4/AppDelay.c **** *  Enables the AppDelay.
 169:Generated_Source\PSoC4/AppDelay.c **** *
 170:Generated_Source\PSoC4/AppDelay.c **** * Parameters:
 171:Generated_Source\PSoC4/AppDelay.c **** *  None
 172:Generated_Source\PSoC4/AppDelay.c **** *
 173:Generated_Source\PSoC4/AppDelay.c **** * Return:
 174:Generated_Source\PSoC4/AppDelay.c **** *  None
 175:Generated_Source\PSoC4/AppDelay.c **** *
 176:Generated_Source\PSoC4/AppDelay.c **** *******************************************************************************/
 177:Generated_Source\PSoC4/AppDelay.c **** void AppDelay_Enable(void)
 178:Generated_Source\PSoC4/AppDelay.c **** {
 179:Generated_Source\PSoC4/AppDelay.c ****     uint8 enableInterrupts;
 180:Generated_Source\PSoC4/AppDelay.c **** 
 181:Generated_Source\PSoC4/AppDelay.c ****     enableInterrupts = CyEnterCriticalSection();
 182:Generated_Source\PSoC4/AppDelay.c ****     AppDelay_BLOCK_CONTROL_REG |= AppDelay_MASK;
 183:Generated_Source\PSoC4/AppDelay.c ****     CyExitCriticalSection(enableInterrupts);
 184:Generated_Source\PSoC4/AppDelay.c **** 
 185:Generated_Source\PSoC4/AppDelay.c ****     /* Start Timer or PWM if start input is absent */
ARM GAS  C:\Users\Petro\AppData\Local\Temp\ccDwqNKG.s 			page 5


 186:Generated_Source\PSoC4/AppDelay.c ****     #if (AppDelay__PWM_SEL == AppDelay_CONFIG)
 187:Generated_Source\PSoC4/AppDelay.c ****         #if (0u == AppDelay_PWM_START_SIGNAL_PRESENT)
 188:Generated_Source\PSoC4/AppDelay.c ****             AppDelay_TriggerCommand(AppDelay_MASK, AppDelay_CMD_START);
 189:Generated_Source\PSoC4/AppDelay.c ****         #endif /* (0u == AppDelay_PWM_START_SIGNAL_PRESENT) */
 190:Generated_Source\PSoC4/AppDelay.c ****     #endif /* (AppDelay__PWM_SEL == AppDelay_CONFIG) */
 191:Generated_Source\PSoC4/AppDelay.c **** 
 192:Generated_Source\PSoC4/AppDelay.c ****     #if (AppDelay__TIMER == AppDelay_CONFIG)
 193:Generated_Source\PSoC4/AppDelay.c ****         #if (0u == AppDelay_TC_START_SIGNAL_PRESENT)
 194:Generated_Source\PSoC4/AppDelay.c ****             AppDelay_TriggerCommand(AppDelay_MASK, AppDelay_CMD_START);
 195:Generated_Source\PSoC4/AppDelay.c ****         #endif /* (0u == AppDelay_TC_START_SIGNAL_PRESENT) */
 196:Generated_Source\PSoC4/AppDelay.c ****     #endif /* (AppDelay__TIMER == AppDelay_CONFIG) */
 197:Generated_Source\PSoC4/AppDelay.c ****     
 198:Generated_Source\PSoC4/AppDelay.c ****     #if (AppDelay__QUAD == AppDelay_CONFIG)
 199:Generated_Source\PSoC4/AppDelay.c ****         #if (0u != AppDelay_QUAD_AUTO_START)
 200:Generated_Source\PSoC4/AppDelay.c ****             AppDelay_TriggerCommand(AppDelay_MASK, AppDelay_CMD_RELOAD);
 201:Generated_Source\PSoC4/AppDelay.c ****         #endif /* (0u != AppDelay_QUAD_AUTO_START) */
 202:Generated_Source\PSoC4/AppDelay.c ****     #endif  /* (AppDelay__QUAD == AppDelay_CONFIG) */
 203:Generated_Source\PSoC4/AppDelay.c **** }
 204:Generated_Source\PSoC4/AppDelay.c **** 
 205:Generated_Source\PSoC4/AppDelay.c **** 
 206:Generated_Source\PSoC4/AppDelay.c **** /*******************************************************************************
 207:Generated_Source\PSoC4/AppDelay.c **** * Function Name: AppDelay_Start
 208:Generated_Source\PSoC4/AppDelay.c **** ********************************************************************************
 209:Generated_Source\PSoC4/AppDelay.c **** *
 210:Generated_Source\PSoC4/AppDelay.c **** * Summary:
 211:Generated_Source\PSoC4/AppDelay.c **** *  Initializes the AppDelay with default customizer
 212:Generated_Source\PSoC4/AppDelay.c **** *  values when called the first time and enables the AppDelay.
 213:Generated_Source\PSoC4/AppDelay.c **** *  For subsequent calls the configuration is left unchanged and the component is
 214:Generated_Source\PSoC4/AppDelay.c **** *  just enabled.
 215:Generated_Source\PSoC4/AppDelay.c **** *
 216:Generated_Source\PSoC4/AppDelay.c **** * Parameters:
 217:Generated_Source\PSoC4/AppDelay.c **** *  None
 218:Generated_Source\PSoC4/AppDelay.c **** *
 219:Generated_Source\PSoC4/AppDelay.c **** * Return:
 220:Generated_Source\PSoC4/AppDelay.c **** *  None
 221:Generated_Source\PSoC4/AppDelay.c **** *
 222:Generated_Source\PSoC4/AppDelay.c **** * Global variables:
 223:Generated_Source\PSoC4/AppDelay.c **** *  AppDelay_initVar: global variable is used to indicate initial
 224:Generated_Source\PSoC4/AppDelay.c **** *  configuration of this component.  The variable is initialized to zero and set
 225:Generated_Source\PSoC4/AppDelay.c **** *  to 1 the first time AppDelay_Start() is called. This allows
 226:Generated_Source\PSoC4/AppDelay.c **** *  enabling/disabling a component without re-initialization in all subsequent
 227:Generated_Source\PSoC4/AppDelay.c **** *  calls to the AppDelay_Start() routine.
 228:Generated_Source\PSoC4/AppDelay.c **** *
 229:Generated_Source\PSoC4/AppDelay.c **** *******************************************************************************/
 230:Generated_Source\PSoC4/AppDelay.c **** void AppDelay_Start(void)
 231:Generated_Source\PSoC4/AppDelay.c **** {
 232:Generated_Source\PSoC4/AppDelay.c ****     if (0u == AppDelay_initVar)
 233:Generated_Source\PSoC4/AppDelay.c ****     {
 234:Generated_Source\PSoC4/AppDelay.c ****         AppDelay_Init();
 235:Generated_Source\PSoC4/AppDelay.c ****         AppDelay_initVar = 1u;
 236:Generated_Source\PSoC4/AppDelay.c ****     }
 237:Generated_Source\PSoC4/AppDelay.c **** 
 238:Generated_Source\PSoC4/AppDelay.c ****     AppDelay_Enable();
 239:Generated_Source\PSoC4/AppDelay.c **** }
 240:Generated_Source\PSoC4/AppDelay.c **** 
 241:Generated_Source\PSoC4/AppDelay.c **** 
 242:Generated_Source\PSoC4/AppDelay.c **** /*******************************************************************************
ARM GAS  C:\Users\Petro\AppData\Local\Temp\ccDwqNKG.s 			page 6


 243:Generated_Source\PSoC4/AppDelay.c **** * Function Name: AppDelay_Stop
 244:Generated_Source\PSoC4/AppDelay.c **** ********************************************************************************
 245:Generated_Source\PSoC4/AppDelay.c **** *
 246:Generated_Source\PSoC4/AppDelay.c **** * Summary:
 247:Generated_Source\PSoC4/AppDelay.c **** *  Disables the AppDelay.
 248:Generated_Source\PSoC4/AppDelay.c **** *
 249:Generated_Source\PSoC4/AppDelay.c **** * Parameters:
 250:Generated_Source\PSoC4/AppDelay.c **** *  None
 251:Generated_Source\PSoC4/AppDelay.c **** *
 252:Generated_Source\PSoC4/AppDelay.c **** * Return:
 253:Generated_Source\PSoC4/AppDelay.c **** *  None
 254:Generated_Source\PSoC4/AppDelay.c **** *
 255:Generated_Source\PSoC4/AppDelay.c **** *******************************************************************************/
 256:Generated_Source\PSoC4/AppDelay.c **** void AppDelay_Stop(void)
 257:Generated_Source\PSoC4/AppDelay.c **** {
 258:Generated_Source\PSoC4/AppDelay.c ****     uint8 enableInterrupts;
 259:Generated_Source\PSoC4/AppDelay.c **** 
 260:Generated_Source\PSoC4/AppDelay.c ****     enableInterrupts = CyEnterCriticalSection();
 261:Generated_Source\PSoC4/AppDelay.c **** 
 262:Generated_Source\PSoC4/AppDelay.c ****     AppDelay_BLOCK_CONTROL_REG &= (uint32)~AppDelay_MASK;
 263:Generated_Source\PSoC4/AppDelay.c **** 
 264:Generated_Source\PSoC4/AppDelay.c ****     CyExitCriticalSection(enableInterrupts);
 265:Generated_Source\PSoC4/AppDelay.c **** }
 266:Generated_Source\PSoC4/AppDelay.c **** 
 267:Generated_Source\PSoC4/AppDelay.c **** 
 268:Generated_Source\PSoC4/AppDelay.c **** /*******************************************************************************
 269:Generated_Source\PSoC4/AppDelay.c **** * Function Name: AppDelay_SetMode
 270:Generated_Source\PSoC4/AppDelay.c **** ********************************************************************************
 271:Generated_Source\PSoC4/AppDelay.c **** *
 272:Generated_Source\PSoC4/AppDelay.c **** * Summary:
 273:Generated_Source\PSoC4/AppDelay.c **** *  Sets the operation mode of the AppDelay. This function is used when
 274:Generated_Source\PSoC4/AppDelay.c **** *  configured as a generic AppDelay and the actual mode of operation is
 275:Generated_Source\PSoC4/AppDelay.c **** *  set at runtime. The mode must be set while the component is disabled.
 276:Generated_Source\PSoC4/AppDelay.c **** *
 277:Generated_Source\PSoC4/AppDelay.c **** * Parameters:
 278:Generated_Source\PSoC4/AppDelay.c **** *  mode: Mode for the AppDelay to operate in
 279:Generated_Source\PSoC4/AppDelay.c **** *   Values:
 280:Generated_Source\PSoC4/AppDelay.c **** *   - AppDelay_MODE_TIMER_COMPARE - Timer / Counter with
 281:Generated_Source\PSoC4/AppDelay.c **** *                                                 compare capability
 282:Generated_Source\PSoC4/AppDelay.c **** *         - AppDelay_MODE_TIMER_CAPTURE - Timer / Counter with
 283:Generated_Source\PSoC4/AppDelay.c **** *                                                 capture capability
 284:Generated_Source\PSoC4/AppDelay.c **** *         - AppDelay_MODE_QUAD - Quadrature decoder
 285:Generated_Source\PSoC4/AppDelay.c **** *         - AppDelay_MODE_PWM - PWM
 286:Generated_Source\PSoC4/AppDelay.c **** *         - AppDelay_MODE_PWM_DT - PWM with dead time
 287:Generated_Source\PSoC4/AppDelay.c **** *         - AppDelay_MODE_PWM_PR - PWM with pseudo random capability
 288:Generated_Source\PSoC4/AppDelay.c **** *
 289:Generated_Source\PSoC4/AppDelay.c **** * Return:
 290:Generated_Source\PSoC4/AppDelay.c **** *  None
 291:Generated_Source\PSoC4/AppDelay.c **** *
 292:Generated_Source\PSoC4/AppDelay.c **** *******************************************************************************/
 293:Generated_Source\PSoC4/AppDelay.c **** void AppDelay_SetMode(uint32 mode)
 294:Generated_Source\PSoC4/AppDelay.c **** {
 295:Generated_Source\PSoC4/AppDelay.c ****     uint8 enableInterrupts;
 296:Generated_Source\PSoC4/AppDelay.c **** 
 297:Generated_Source\PSoC4/AppDelay.c ****     enableInterrupts = CyEnterCriticalSection();
 298:Generated_Source\PSoC4/AppDelay.c **** 
 299:Generated_Source\PSoC4/AppDelay.c ****     AppDelay_CONTROL_REG &= (uint32)~AppDelay_MODE_MASK;
ARM GAS  C:\Users\Petro\AppData\Local\Temp\ccDwqNKG.s 			page 7


 300:Generated_Source\PSoC4/AppDelay.c ****     AppDelay_CONTROL_REG |= mode;
 301:Generated_Source\PSoC4/AppDelay.c **** 
 302:Generated_Source\PSoC4/AppDelay.c ****     CyExitCriticalSection(enableInterrupts);
 303:Generated_Source\PSoC4/AppDelay.c **** }
 304:Generated_Source\PSoC4/AppDelay.c **** 
 305:Generated_Source\PSoC4/AppDelay.c **** 
 306:Generated_Source\PSoC4/AppDelay.c **** /*******************************************************************************
 307:Generated_Source\PSoC4/AppDelay.c **** * Function Name: AppDelay_SetQDMode
 308:Generated_Source\PSoC4/AppDelay.c **** ********************************************************************************
 309:Generated_Source\PSoC4/AppDelay.c **** *
 310:Generated_Source\PSoC4/AppDelay.c **** * Summary:
 311:Generated_Source\PSoC4/AppDelay.c **** *  Sets the the Quadrature Decoder to one of the 3 supported modes.
 312:Generated_Source\PSoC4/AppDelay.c **** *  Its functionality is only applicable to Quadrature Decoder operation.
 313:Generated_Source\PSoC4/AppDelay.c **** *
 314:Generated_Source\PSoC4/AppDelay.c **** * Parameters:
 315:Generated_Source\PSoC4/AppDelay.c **** *  qdMode: Quadrature Decoder mode
 316:Generated_Source\PSoC4/AppDelay.c **** *   Values:
 317:Generated_Source\PSoC4/AppDelay.c **** *         - AppDelay_MODE_X1 - Counts on phi 1 rising
 318:Generated_Source\PSoC4/AppDelay.c **** *         - AppDelay_MODE_X2 - Counts on both edges of phi1 (2x faster)
 319:Generated_Source\PSoC4/AppDelay.c **** *         - AppDelay_MODE_X4 - Counts on both edges of phi1 and phi2
 320:Generated_Source\PSoC4/AppDelay.c **** *                                        (4x faster)
 321:Generated_Source\PSoC4/AppDelay.c **** *
 322:Generated_Source\PSoC4/AppDelay.c **** * Return:
 323:Generated_Source\PSoC4/AppDelay.c **** *  None
 324:Generated_Source\PSoC4/AppDelay.c **** *
 325:Generated_Source\PSoC4/AppDelay.c **** *******************************************************************************/
 326:Generated_Source\PSoC4/AppDelay.c **** void AppDelay_SetQDMode(uint32 qdMode)
 327:Generated_Source\PSoC4/AppDelay.c **** {
 328:Generated_Source\PSoC4/AppDelay.c ****     uint8 enableInterrupts;
 329:Generated_Source\PSoC4/AppDelay.c **** 
 330:Generated_Source\PSoC4/AppDelay.c ****     enableInterrupts = CyEnterCriticalSection();
 331:Generated_Source\PSoC4/AppDelay.c **** 
 332:Generated_Source\PSoC4/AppDelay.c ****     AppDelay_CONTROL_REG &= (uint32)~AppDelay_QUAD_MODE_MASK;
 333:Generated_Source\PSoC4/AppDelay.c ****     AppDelay_CONTROL_REG |= qdMode;
 334:Generated_Source\PSoC4/AppDelay.c **** 
 335:Generated_Source\PSoC4/AppDelay.c ****     CyExitCriticalSection(enableInterrupts);
 336:Generated_Source\PSoC4/AppDelay.c **** }
 337:Generated_Source\PSoC4/AppDelay.c **** 
 338:Generated_Source\PSoC4/AppDelay.c **** 
 339:Generated_Source\PSoC4/AppDelay.c **** /*******************************************************************************
 340:Generated_Source\PSoC4/AppDelay.c **** * Function Name: AppDelay_SetPrescaler
 341:Generated_Source\PSoC4/AppDelay.c **** ********************************************************************************
 342:Generated_Source\PSoC4/AppDelay.c **** *
 343:Generated_Source\PSoC4/AppDelay.c **** * Summary:
 344:Generated_Source\PSoC4/AppDelay.c **** *  Sets the prescaler value that is applied to the clock input.  Not applicable
 345:Generated_Source\PSoC4/AppDelay.c **** *  to a PWM with the dead time mode or Quadrature Decoder mode.
 346:Generated_Source\PSoC4/AppDelay.c **** *
 347:Generated_Source\PSoC4/AppDelay.c **** * Parameters:
 348:Generated_Source\PSoC4/AppDelay.c **** *  prescaler: Prescaler divider value
 349:Generated_Source\PSoC4/AppDelay.c **** *   Values:
 350:Generated_Source\PSoC4/AppDelay.c **** *         - AppDelay_PRESCALE_DIVBY1    - Divide by 1 (no prescaling)
 351:Generated_Source\PSoC4/AppDelay.c **** *         - AppDelay_PRESCALE_DIVBY2    - Divide by 2
 352:Generated_Source\PSoC4/AppDelay.c **** *         - AppDelay_PRESCALE_DIVBY4    - Divide by 4
 353:Generated_Source\PSoC4/AppDelay.c **** *         - AppDelay_PRESCALE_DIVBY8    - Divide by 8
 354:Generated_Source\PSoC4/AppDelay.c **** *         - AppDelay_PRESCALE_DIVBY16   - Divide by 16
 355:Generated_Source\PSoC4/AppDelay.c **** *         - AppDelay_PRESCALE_DIVBY32   - Divide by 32
 356:Generated_Source\PSoC4/AppDelay.c **** *         - AppDelay_PRESCALE_DIVBY64   - Divide by 64
ARM GAS  C:\Users\Petro\AppData\Local\Temp\ccDwqNKG.s 			page 8


 357:Generated_Source\PSoC4/AppDelay.c **** *         - AppDelay_PRESCALE_DIVBY128  - Divide by 128
 358:Generated_Source\PSoC4/AppDelay.c **** *
 359:Generated_Source\PSoC4/AppDelay.c **** * Return:
 360:Generated_Source\PSoC4/AppDelay.c **** *  None
 361:Generated_Source\PSoC4/AppDelay.c **** *
 362:Generated_Source\PSoC4/AppDelay.c **** *******************************************************************************/
 363:Generated_Source\PSoC4/AppDelay.c **** void AppDelay_SetPrescaler(uint32 prescaler)
 364:Generated_Source\PSoC4/AppDelay.c **** {
 365:Generated_Source\PSoC4/AppDelay.c ****     uint8 enableInterrupts;
 366:Generated_Source\PSoC4/AppDelay.c **** 
 367:Generated_Source\PSoC4/AppDelay.c ****     enableInterrupts = CyEnterCriticalSection();
 368:Generated_Source\PSoC4/AppDelay.c **** 
 369:Generated_Source\PSoC4/AppDelay.c ****     AppDelay_CONTROL_REG &= (uint32)~AppDelay_PRESCALER_MASK;
 370:Generated_Source\PSoC4/AppDelay.c ****     AppDelay_CONTROL_REG |= prescaler;
 371:Generated_Source\PSoC4/AppDelay.c **** 
 372:Generated_Source\PSoC4/AppDelay.c ****     CyExitCriticalSection(enableInterrupts);
 373:Generated_Source\PSoC4/AppDelay.c **** }
 374:Generated_Source\PSoC4/AppDelay.c **** 
 375:Generated_Source\PSoC4/AppDelay.c **** 
 376:Generated_Source\PSoC4/AppDelay.c **** /*******************************************************************************
 377:Generated_Source\PSoC4/AppDelay.c **** * Function Name: AppDelay_SetOneShot
 378:Generated_Source\PSoC4/AppDelay.c **** ********************************************************************************
 379:Generated_Source\PSoC4/AppDelay.c **** *
 380:Generated_Source\PSoC4/AppDelay.c **** * Summary:
 381:Generated_Source\PSoC4/AppDelay.c **** *  Writes the register that controls whether the AppDelay runs
 382:Generated_Source\PSoC4/AppDelay.c **** *  continuously or stops when terminal count is reached.  By default the
 383:Generated_Source\PSoC4/AppDelay.c **** *  AppDelay operates in the continuous mode.
 384:Generated_Source\PSoC4/AppDelay.c **** *
 385:Generated_Source\PSoC4/AppDelay.c **** * Parameters:
 386:Generated_Source\PSoC4/AppDelay.c **** *  oneShotEnable
 387:Generated_Source\PSoC4/AppDelay.c **** *   Values:
 388:Generated_Source\PSoC4/AppDelay.c **** *     - 0 - Continuous
 389:Generated_Source\PSoC4/AppDelay.c **** *     - 1 - Enable One Shot
 390:Generated_Source\PSoC4/AppDelay.c **** *
 391:Generated_Source\PSoC4/AppDelay.c **** * Return:
 392:Generated_Source\PSoC4/AppDelay.c **** *  None
 393:Generated_Source\PSoC4/AppDelay.c **** *
 394:Generated_Source\PSoC4/AppDelay.c **** *******************************************************************************/
 395:Generated_Source\PSoC4/AppDelay.c **** void AppDelay_SetOneShot(uint32 oneShotEnable)
 396:Generated_Source\PSoC4/AppDelay.c **** {
 397:Generated_Source\PSoC4/AppDelay.c ****     uint8 enableInterrupts;
 398:Generated_Source\PSoC4/AppDelay.c **** 
 399:Generated_Source\PSoC4/AppDelay.c ****     enableInterrupts = CyEnterCriticalSection();
 400:Generated_Source\PSoC4/AppDelay.c **** 
 401:Generated_Source\PSoC4/AppDelay.c ****     AppDelay_CONTROL_REG &= (uint32)~AppDelay_ONESHOT_MASK;
 402:Generated_Source\PSoC4/AppDelay.c ****     AppDelay_CONTROL_REG |= ((uint32)((oneShotEnable & AppDelay_1BIT_MASK) <<
 403:Generated_Source\PSoC4/AppDelay.c ****                                                                AppDelay_ONESHOT_SHIFT));
 404:Generated_Source\PSoC4/AppDelay.c **** 
 405:Generated_Source\PSoC4/AppDelay.c ****     CyExitCriticalSection(enableInterrupts);
 406:Generated_Source\PSoC4/AppDelay.c **** }
 407:Generated_Source\PSoC4/AppDelay.c **** 
 408:Generated_Source\PSoC4/AppDelay.c **** 
 409:Generated_Source\PSoC4/AppDelay.c **** /*******************************************************************************
 410:Generated_Source\PSoC4/AppDelay.c **** * Function Name: AppDelay_SetPWMMode
 411:Generated_Source\PSoC4/AppDelay.c **** ********************************************************************************
 412:Generated_Source\PSoC4/AppDelay.c **** *
 413:Generated_Source\PSoC4/AppDelay.c **** * Summary:
ARM GAS  C:\Users\Petro\AppData\Local\Temp\ccDwqNKG.s 			page 9


 414:Generated_Source\PSoC4/AppDelay.c **** *  Writes the control register that determines what mode of operation the PWM
 415:Generated_Source\PSoC4/AppDelay.c **** *  output lines are driven in.  There is a setting for what to do on a
 416:Generated_Source\PSoC4/AppDelay.c **** *  comparison match (CC_MATCH), on an overflow (OVERFLOW) and on an underflow
 417:Generated_Source\PSoC4/AppDelay.c **** *  (UNDERFLOW).  The value for each of the three must be ORed together to form
 418:Generated_Source\PSoC4/AppDelay.c **** *  the mode.
 419:Generated_Source\PSoC4/AppDelay.c **** *
 420:Generated_Source\PSoC4/AppDelay.c **** * Parameters:
 421:Generated_Source\PSoC4/AppDelay.c **** *  modeMask: A combination of three mode settings.  Mask must include a value
 422:Generated_Source\PSoC4/AppDelay.c **** *  for each of the three or use one of the preconfigured PWM settings.
 423:Generated_Source\PSoC4/AppDelay.c **** *   Values:
 424:Generated_Source\PSoC4/AppDelay.c **** *     - CC_MATCH_SET        - Set on comparison match
 425:Generated_Source\PSoC4/AppDelay.c **** *     - CC_MATCH_CLEAR      - Clear on comparison match
 426:Generated_Source\PSoC4/AppDelay.c **** *     - CC_MATCH_INVERT     - Invert on comparison match
 427:Generated_Source\PSoC4/AppDelay.c **** *     - CC_MATCH_NO_CHANGE  - No change on comparison match
 428:Generated_Source\PSoC4/AppDelay.c **** *     - OVERLOW_SET         - Set on overflow
 429:Generated_Source\PSoC4/AppDelay.c **** *     - OVERLOW_CLEAR       - Clear on  overflow
 430:Generated_Source\PSoC4/AppDelay.c **** *     - OVERLOW_INVERT      - Invert on overflow
 431:Generated_Source\PSoC4/AppDelay.c **** *     - OVERLOW_NO_CHANGE   - No change on overflow
 432:Generated_Source\PSoC4/AppDelay.c **** *     - UNDERFLOW_SET       - Set on underflow
 433:Generated_Source\PSoC4/AppDelay.c **** *     - UNDERFLOW_CLEAR     - Clear on underflow
 434:Generated_Source\PSoC4/AppDelay.c **** *     - UNDERFLOW_INVERT    - Invert on underflow
 435:Generated_Source\PSoC4/AppDelay.c **** *     - UNDERFLOW_NO_CHANGE - No change on underflow
 436:Generated_Source\PSoC4/AppDelay.c **** *     - PWM_MODE_LEFT       - Setting for left aligned PWM.  Should be combined
 437:Generated_Source\PSoC4/AppDelay.c **** *                             with up counting mode
 438:Generated_Source\PSoC4/AppDelay.c **** *     - PWM_MODE_RIGHT      - Setting for right aligned PWM.  Should be combined
 439:Generated_Source\PSoC4/AppDelay.c **** *                             with down counting mode
 440:Generated_Source\PSoC4/AppDelay.c **** *     - PWM_MODE_CENTER     - Setting for center aligned PWM.  Should be
 441:Generated_Source\PSoC4/AppDelay.c **** *                             combined with up/down 0 mode
 442:Generated_Source\PSoC4/AppDelay.c **** *     - PWM_MODE_ASYM       - Setting for asymmetric PWM.  Should be combined
 443:Generated_Source\PSoC4/AppDelay.c **** *                             with up/down 1 mode
 444:Generated_Source\PSoC4/AppDelay.c **** *
 445:Generated_Source\PSoC4/AppDelay.c **** * Return:
 446:Generated_Source\PSoC4/AppDelay.c **** *  None
 447:Generated_Source\PSoC4/AppDelay.c **** *
 448:Generated_Source\PSoC4/AppDelay.c **** *******************************************************************************/
 449:Generated_Source\PSoC4/AppDelay.c **** void AppDelay_SetPWMMode(uint32 modeMask)
 450:Generated_Source\PSoC4/AppDelay.c **** {
 451:Generated_Source\PSoC4/AppDelay.c ****     AppDelay_TRIG_CONTROL2_REG = (modeMask & AppDelay_6BIT_MASK);
 452:Generated_Source\PSoC4/AppDelay.c **** }
 453:Generated_Source\PSoC4/AppDelay.c **** 
 454:Generated_Source\PSoC4/AppDelay.c **** 
 455:Generated_Source\PSoC4/AppDelay.c **** 
 456:Generated_Source\PSoC4/AppDelay.c **** /*******************************************************************************
 457:Generated_Source\PSoC4/AppDelay.c **** * Function Name: AppDelay_SetPWMSyncKill
 458:Generated_Source\PSoC4/AppDelay.c **** ********************************************************************************
 459:Generated_Source\PSoC4/AppDelay.c **** *
 460:Generated_Source\PSoC4/AppDelay.c **** * Summary:
 461:Generated_Source\PSoC4/AppDelay.c **** *  Writes the register that controls whether the PWM kill signal (stop input)
 462:Generated_Source\PSoC4/AppDelay.c **** *  causes asynchronous or synchronous kill operation.  By default the kill
 463:Generated_Source\PSoC4/AppDelay.c **** *  operation is asynchronous.  This functionality is only applicable to the PWM
 464:Generated_Source\PSoC4/AppDelay.c **** *  and PWM with dead time modes.
 465:Generated_Source\PSoC4/AppDelay.c **** *
 466:Generated_Source\PSoC4/AppDelay.c **** *  For Synchronous mode the kill signal disables both the line and line_n
 467:Generated_Source\PSoC4/AppDelay.c **** *  signals until the next terminal count.
 468:Generated_Source\PSoC4/AppDelay.c **** *
 469:Generated_Source\PSoC4/AppDelay.c **** *  For Asynchronous mode the kill signal disables both the line and line_n
 470:Generated_Source\PSoC4/AppDelay.c **** *  signals when the kill signal is present.  This mode should only be used
ARM GAS  C:\Users\Petro\AppData\Local\Temp\ccDwqNKG.s 			page 10


 471:Generated_Source\PSoC4/AppDelay.c **** *  when the kill signal (stop input) is configured in the pass through mode
 472:Generated_Source\PSoC4/AppDelay.c **** *  (Level sensitive signal).
 473:Generated_Source\PSoC4/AppDelay.c **** 
 474:Generated_Source\PSoC4/AppDelay.c **** *
 475:Generated_Source\PSoC4/AppDelay.c **** * Parameters:
 476:Generated_Source\PSoC4/AppDelay.c **** *  syncKillEnable
 477:Generated_Source\PSoC4/AppDelay.c **** *   Values:
 478:Generated_Source\PSoC4/AppDelay.c **** *     - 0 - Asynchronous
 479:Generated_Source\PSoC4/AppDelay.c **** *     - 1 - Synchronous
 480:Generated_Source\PSoC4/AppDelay.c **** *
 481:Generated_Source\PSoC4/AppDelay.c **** * Return:
 482:Generated_Source\PSoC4/AppDelay.c **** *  None
 483:Generated_Source\PSoC4/AppDelay.c **** *
 484:Generated_Source\PSoC4/AppDelay.c **** *******************************************************************************/
 485:Generated_Source\PSoC4/AppDelay.c **** void AppDelay_SetPWMSyncKill(uint32 syncKillEnable)
 486:Generated_Source\PSoC4/AppDelay.c **** {
 487:Generated_Source\PSoC4/AppDelay.c ****     uint8 enableInterrupts;
 488:Generated_Source\PSoC4/AppDelay.c **** 
 489:Generated_Source\PSoC4/AppDelay.c ****     enableInterrupts = CyEnterCriticalSection();
 490:Generated_Source\PSoC4/AppDelay.c **** 
 491:Generated_Source\PSoC4/AppDelay.c ****     AppDelay_CONTROL_REG &= (uint32)~AppDelay_PWM_SYNC_KILL_MASK;
 492:Generated_Source\PSoC4/AppDelay.c ****     AppDelay_CONTROL_REG |= ((uint32)((syncKillEnable & AppDelay_1BIT_MASK)  <<
 493:Generated_Source\PSoC4/AppDelay.c ****                                                AppDelay_PWM_SYNC_KILL_SHIFT));
 494:Generated_Source\PSoC4/AppDelay.c **** 
 495:Generated_Source\PSoC4/AppDelay.c ****     CyExitCriticalSection(enableInterrupts);
 496:Generated_Source\PSoC4/AppDelay.c **** }
 497:Generated_Source\PSoC4/AppDelay.c **** 
 498:Generated_Source\PSoC4/AppDelay.c **** 
 499:Generated_Source\PSoC4/AppDelay.c **** /*******************************************************************************
 500:Generated_Source\PSoC4/AppDelay.c **** * Function Name: AppDelay_SetPWMStopOnKill
 501:Generated_Source\PSoC4/AppDelay.c **** ********************************************************************************
 502:Generated_Source\PSoC4/AppDelay.c **** *
 503:Generated_Source\PSoC4/AppDelay.c **** * Summary:
 504:Generated_Source\PSoC4/AppDelay.c **** *  Writes the register that controls whether the PWM kill signal (stop input)
 505:Generated_Source\PSoC4/AppDelay.c **** *  causes the PWM counter to stop.  By default the kill operation does not stop
 506:Generated_Source\PSoC4/AppDelay.c **** *  the counter.  This functionality is only applicable to the three PWM modes.
 507:Generated_Source\PSoC4/AppDelay.c **** *
 508:Generated_Source\PSoC4/AppDelay.c **** *
 509:Generated_Source\PSoC4/AppDelay.c **** * Parameters:
 510:Generated_Source\PSoC4/AppDelay.c **** *  stopOnKillEnable
 511:Generated_Source\PSoC4/AppDelay.c **** *   Values:
 512:Generated_Source\PSoC4/AppDelay.c **** *     - 0 - Don't stop
 513:Generated_Source\PSoC4/AppDelay.c **** *     - 1 - Stop
 514:Generated_Source\PSoC4/AppDelay.c **** *
 515:Generated_Source\PSoC4/AppDelay.c **** * Return:
 516:Generated_Source\PSoC4/AppDelay.c **** *  None
 517:Generated_Source\PSoC4/AppDelay.c **** *
 518:Generated_Source\PSoC4/AppDelay.c **** *******************************************************************************/
 519:Generated_Source\PSoC4/AppDelay.c **** void AppDelay_SetPWMStopOnKill(uint32 stopOnKillEnable)
 520:Generated_Source\PSoC4/AppDelay.c **** {
 521:Generated_Source\PSoC4/AppDelay.c ****     uint8 enableInterrupts;
 522:Generated_Source\PSoC4/AppDelay.c **** 
 523:Generated_Source\PSoC4/AppDelay.c ****     enableInterrupts = CyEnterCriticalSection();
 524:Generated_Source\PSoC4/AppDelay.c **** 
 525:Generated_Source\PSoC4/AppDelay.c ****     AppDelay_CONTROL_REG &= (uint32)~AppDelay_PWM_STOP_KILL_MASK;
 526:Generated_Source\PSoC4/AppDelay.c ****     AppDelay_CONTROL_REG |= ((uint32)((stopOnKillEnable & AppDelay_1BIT_MASK)  <<
 527:Generated_Source\PSoC4/AppDelay.c ****                                                          AppDelay_PWM_STOP_KILL_SHIFT));
ARM GAS  C:\Users\Petro\AppData\Local\Temp\ccDwqNKG.s 			page 11


 528:Generated_Source\PSoC4/AppDelay.c **** 
 529:Generated_Source\PSoC4/AppDelay.c ****     CyExitCriticalSection(enableInterrupts);
 530:Generated_Source\PSoC4/AppDelay.c **** }
 531:Generated_Source\PSoC4/AppDelay.c **** 
 532:Generated_Source\PSoC4/AppDelay.c **** 
 533:Generated_Source\PSoC4/AppDelay.c **** /*******************************************************************************
 534:Generated_Source\PSoC4/AppDelay.c **** * Function Name: AppDelay_SetPWMDeadTime
 535:Generated_Source\PSoC4/AppDelay.c **** ********************************************************************************
 536:Generated_Source\PSoC4/AppDelay.c **** *
 537:Generated_Source\PSoC4/AppDelay.c **** * Summary:
 538:Generated_Source\PSoC4/AppDelay.c **** *  Writes the dead time control value.  This value delays the rising edge of
 539:Generated_Source\PSoC4/AppDelay.c **** *  both the line and line_n signals the designated number of cycles resulting
 540:Generated_Source\PSoC4/AppDelay.c **** *  in both signals being inactive for that many cycles.  This functionality is
 541:Generated_Source\PSoC4/AppDelay.c **** *  only applicable to the PWM in the dead time mode.
 542:Generated_Source\PSoC4/AppDelay.c **** 
 543:Generated_Source\PSoC4/AppDelay.c **** *
 544:Generated_Source\PSoC4/AppDelay.c **** * Parameters:
 545:Generated_Source\PSoC4/AppDelay.c **** *  Dead time to insert
 546:Generated_Source\PSoC4/AppDelay.c **** *   Values: 0 to 255
 547:Generated_Source\PSoC4/AppDelay.c **** *
 548:Generated_Source\PSoC4/AppDelay.c **** * Return:
 549:Generated_Source\PSoC4/AppDelay.c **** *  None
 550:Generated_Source\PSoC4/AppDelay.c **** *
 551:Generated_Source\PSoC4/AppDelay.c **** *******************************************************************************/
 552:Generated_Source\PSoC4/AppDelay.c **** void AppDelay_SetPWMDeadTime(uint32 deadTime)
 553:Generated_Source\PSoC4/AppDelay.c **** {
 554:Generated_Source\PSoC4/AppDelay.c ****     uint8 enableInterrupts;
 555:Generated_Source\PSoC4/AppDelay.c **** 
 556:Generated_Source\PSoC4/AppDelay.c ****     enableInterrupts = CyEnterCriticalSection();
 557:Generated_Source\PSoC4/AppDelay.c **** 
 558:Generated_Source\PSoC4/AppDelay.c ****     AppDelay_CONTROL_REG &= (uint32)~AppDelay_PRESCALER_MASK;
 559:Generated_Source\PSoC4/AppDelay.c ****     AppDelay_CONTROL_REG |= ((uint32)((deadTime & AppDelay_8BIT_MASK) <<
 560:Generated_Source\PSoC4/AppDelay.c ****                                                           AppDelay_PRESCALER_SHIFT));
 561:Generated_Source\PSoC4/AppDelay.c **** 
 562:Generated_Source\PSoC4/AppDelay.c ****     CyExitCriticalSection(enableInterrupts);
 563:Generated_Source\PSoC4/AppDelay.c **** }
 564:Generated_Source\PSoC4/AppDelay.c **** 
 565:Generated_Source\PSoC4/AppDelay.c **** 
 566:Generated_Source\PSoC4/AppDelay.c **** /*******************************************************************************
 567:Generated_Source\PSoC4/AppDelay.c **** * Function Name: AppDelay_SetPWMInvert
 568:Generated_Source\PSoC4/AppDelay.c **** ********************************************************************************
 569:Generated_Source\PSoC4/AppDelay.c **** *
 570:Generated_Source\PSoC4/AppDelay.c **** * Summary:
 571:Generated_Source\PSoC4/AppDelay.c **** *  Writes the bits that control whether the line and line_n outputs are
 572:Generated_Source\PSoC4/AppDelay.c **** *  inverted from their normal output values.  This functionality is only
 573:Generated_Source\PSoC4/AppDelay.c **** *  applicable to the three PWM modes.
 574:Generated_Source\PSoC4/AppDelay.c **** *
 575:Generated_Source\PSoC4/AppDelay.c **** * Parameters:
 576:Generated_Source\PSoC4/AppDelay.c **** *  mask: Mask of outputs to invert.
 577:Generated_Source\PSoC4/AppDelay.c **** *   Values:
 578:Generated_Source\PSoC4/AppDelay.c **** *         - AppDelay_INVERT_LINE   - Inverts the line output
 579:Generated_Source\PSoC4/AppDelay.c **** *         - AppDelay_INVERT_LINE_N - Inverts the line_n output
 580:Generated_Source\PSoC4/AppDelay.c **** *
 581:Generated_Source\PSoC4/AppDelay.c **** * Return:
 582:Generated_Source\PSoC4/AppDelay.c **** *  None
 583:Generated_Source\PSoC4/AppDelay.c **** *
 584:Generated_Source\PSoC4/AppDelay.c **** *******************************************************************************/
ARM GAS  C:\Users\Petro\AppData\Local\Temp\ccDwqNKG.s 			page 12


 585:Generated_Source\PSoC4/AppDelay.c **** void AppDelay_SetPWMInvert(uint32 mask)
 586:Generated_Source\PSoC4/AppDelay.c **** {
 587:Generated_Source\PSoC4/AppDelay.c ****     uint8 enableInterrupts;
 588:Generated_Source\PSoC4/AppDelay.c **** 
 589:Generated_Source\PSoC4/AppDelay.c ****     enableInterrupts = CyEnterCriticalSection();
 590:Generated_Source\PSoC4/AppDelay.c **** 
 591:Generated_Source\PSoC4/AppDelay.c ****     AppDelay_CONTROL_REG &= (uint32)~AppDelay_INV_OUT_MASK;
 592:Generated_Source\PSoC4/AppDelay.c ****     AppDelay_CONTROL_REG |= mask;
 593:Generated_Source\PSoC4/AppDelay.c **** 
 594:Generated_Source\PSoC4/AppDelay.c ****     CyExitCriticalSection(enableInterrupts);
 595:Generated_Source\PSoC4/AppDelay.c **** }
 596:Generated_Source\PSoC4/AppDelay.c **** 
 597:Generated_Source\PSoC4/AppDelay.c **** 
 598:Generated_Source\PSoC4/AppDelay.c **** 
 599:Generated_Source\PSoC4/AppDelay.c **** /*******************************************************************************
 600:Generated_Source\PSoC4/AppDelay.c **** * Function Name: AppDelay_WriteCounter
 601:Generated_Source\PSoC4/AppDelay.c **** ********************************************************************************
 602:Generated_Source\PSoC4/AppDelay.c **** *
 603:Generated_Source\PSoC4/AppDelay.c **** * Summary:
 604:Generated_Source\PSoC4/AppDelay.c **** *  Writes a new 16bit counter value directly into the counter register, thus
 605:Generated_Source\PSoC4/AppDelay.c **** *  setting the counter (not the period) to the value written. It is not
 606:Generated_Source\PSoC4/AppDelay.c **** *  advised to write to this field when the counter is running.
 607:Generated_Source\PSoC4/AppDelay.c **** *
 608:Generated_Source\PSoC4/AppDelay.c **** * Parameters:
 609:Generated_Source\PSoC4/AppDelay.c **** *  count: value to write
 610:Generated_Source\PSoC4/AppDelay.c **** *
 611:Generated_Source\PSoC4/AppDelay.c **** * Return:
 612:Generated_Source\PSoC4/AppDelay.c **** *  None
 613:Generated_Source\PSoC4/AppDelay.c **** *
 614:Generated_Source\PSoC4/AppDelay.c **** *******************************************************************************/
 615:Generated_Source\PSoC4/AppDelay.c **** void AppDelay_WriteCounter(uint32 count)
 616:Generated_Source\PSoC4/AppDelay.c **** {
 617:Generated_Source\PSoC4/AppDelay.c ****     AppDelay_COUNTER_REG = (count & AppDelay_16BIT_MASK);
 618:Generated_Source\PSoC4/AppDelay.c **** }
 619:Generated_Source\PSoC4/AppDelay.c **** 
 620:Generated_Source\PSoC4/AppDelay.c **** 
 621:Generated_Source\PSoC4/AppDelay.c **** /*******************************************************************************
 622:Generated_Source\PSoC4/AppDelay.c **** * Function Name: AppDelay_ReadCounter
 623:Generated_Source\PSoC4/AppDelay.c **** ********************************************************************************
 624:Generated_Source\PSoC4/AppDelay.c **** *
 625:Generated_Source\PSoC4/AppDelay.c **** * Summary:
 626:Generated_Source\PSoC4/AppDelay.c **** *  Reads the current counter value.
 627:Generated_Source\PSoC4/AppDelay.c **** *
 628:Generated_Source\PSoC4/AppDelay.c **** * Parameters:
 629:Generated_Source\PSoC4/AppDelay.c **** *  None
 630:Generated_Source\PSoC4/AppDelay.c **** *
 631:Generated_Source\PSoC4/AppDelay.c **** * Return:
 632:Generated_Source\PSoC4/AppDelay.c **** *  Current counter value
 633:Generated_Source\PSoC4/AppDelay.c **** *
 634:Generated_Source\PSoC4/AppDelay.c **** *******************************************************************************/
 635:Generated_Source\PSoC4/AppDelay.c **** uint32 AppDelay_ReadCounter(void)
 636:Generated_Source\PSoC4/AppDelay.c **** {
 637:Generated_Source\PSoC4/AppDelay.c ****     return (AppDelay_COUNTER_REG & AppDelay_16BIT_MASK);
 638:Generated_Source\PSoC4/AppDelay.c **** }
 639:Generated_Source\PSoC4/AppDelay.c **** 
 640:Generated_Source\PSoC4/AppDelay.c **** 
 641:Generated_Source\PSoC4/AppDelay.c **** /*******************************************************************************
ARM GAS  C:\Users\Petro\AppData\Local\Temp\ccDwqNKG.s 			page 13


 642:Generated_Source\PSoC4/AppDelay.c **** * Function Name: AppDelay_SetCounterMode
 643:Generated_Source\PSoC4/AppDelay.c **** ********************************************************************************
 644:Generated_Source\PSoC4/AppDelay.c **** *
 645:Generated_Source\PSoC4/AppDelay.c **** * Summary:
 646:Generated_Source\PSoC4/AppDelay.c **** *  Sets the counter mode.  Applicable to all modes except Quadrature Decoder
 647:Generated_Source\PSoC4/AppDelay.c **** *  and the PWM with a pseudo random output.
 648:Generated_Source\PSoC4/AppDelay.c **** *
 649:Generated_Source\PSoC4/AppDelay.c **** * Parameters:
 650:Generated_Source\PSoC4/AppDelay.c **** *  counterMode: Enumerated counter type values
 651:Generated_Source\PSoC4/AppDelay.c **** *   Values:
 652:Generated_Source\PSoC4/AppDelay.c **** *     - AppDelay_COUNT_UP       - Counts up
 653:Generated_Source\PSoC4/AppDelay.c **** *     - AppDelay_COUNT_DOWN     - Counts down
 654:Generated_Source\PSoC4/AppDelay.c **** *     - AppDelay_COUNT_UPDOWN0  - Counts up and down. Terminal count
 655:Generated_Source\PSoC4/AppDelay.c **** *                                         generated when counter reaches 0
 656:Generated_Source\PSoC4/AppDelay.c **** *     - AppDelay_COUNT_UPDOWN1  - Counts up and down. Terminal count
 657:Generated_Source\PSoC4/AppDelay.c **** *                                         generated both when counter reaches 0
 658:Generated_Source\PSoC4/AppDelay.c **** *                                         and period
 659:Generated_Source\PSoC4/AppDelay.c **** *
 660:Generated_Source\PSoC4/AppDelay.c **** * Return:
 661:Generated_Source\PSoC4/AppDelay.c **** *  None
 662:Generated_Source\PSoC4/AppDelay.c **** *
 663:Generated_Source\PSoC4/AppDelay.c **** *******************************************************************************/
 664:Generated_Source\PSoC4/AppDelay.c **** void AppDelay_SetCounterMode(uint32 counterMode)
 665:Generated_Source\PSoC4/AppDelay.c **** {
 666:Generated_Source\PSoC4/AppDelay.c ****     uint8 enableInterrupts;
 667:Generated_Source\PSoC4/AppDelay.c **** 
 668:Generated_Source\PSoC4/AppDelay.c ****     enableInterrupts = CyEnterCriticalSection();
 669:Generated_Source\PSoC4/AppDelay.c **** 
 670:Generated_Source\PSoC4/AppDelay.c ****     AppDelay_CONTROL_REG &= (uint32)~AppDelay_UPDOWN_MASK;
 671:Generated_Source\PSoC4/AppDelay.c ****     AppDelay_CONTROL_REG |= counterMode;
 672:Generated_Source\PSoC4/AppDelay.c **** 
 673:Generated_Source\PSoC4/AppDelay.c ****     CyExitCriticalSection(enableInterrupts);
 674:Generated_Source\PSoC4/AppDelay.c **** }
 675:Generated_Source\PSoC4/AppDelay.c **** 
 676:Generated_Source\PSoC4/AppDelay.c **** 
 677:Generated_Source\PSoC4/AppDelay.c **** /*******************************************************************************
 678:Generated_Source\PSoC4/AppDelay.c **** * Function Name: AppDelay_WritePeriod
 679:Generated_Source\PSoC4/AppDelay.c **** ********************************************************************************
 680:Generated_Source\PSoC4/AppDelay.c **** *
 681:Generated_Source\PSoC4/AppDelay.c **** * Summary:
 682:Generated_Source\PSoC4/AppDelay.c **** *  Writes the 16 bit period register with the new period value.
 683:Generated_Source\PSoC4/AppDelay.c **** *  To cause the counter to count for N cycles this register should be written
 684:Generated_Source\PSoC4/AppDelay.c **** *  with N-1 (counts from 0 to period inclusive).
 685:Generated_Source\PSoC4/AppDelay.c **** *
 686:Generated_Source\PSoC4/AppDelay.c **** * Parameters:
 687:Generated_Source\PSoC4/AppDelay.c **** *  period: Period value
 688:Generated_Source\PSoC4/AppDelay.c **** *
 689:Generated_Source\PSoC4/AppDelay.c **** * Return:
 690:Generated_Source\PSoC4/AppDelay.c **** *  None
 691:Generated_Source\PSoC4/AppDelay.c **** *
 692:Generated_Source\PSoC4/AppDelay.c **** *******************************************************************************/
 693:Generated_Source\PSoC4/AppDelay.c **** void AppDelay_WritePeriod(uint32 period)
 694:Generated_Source\PSoC4/AppDelay.c **** {
 695:Generated_Source\PSoC4/AppDelay.c ****     AppDelay_PERIOD_REG = (period & AppDelay_16BIT_MASK);
 696:Generated_Source\PSoC4/AppDelay.c **** }
 697:Generated_Source\PSoC4/AppDelay.c **** 
 698:Generated_Source\PSoC4/AppDelay.c **** 
ARM GAS  C:\Users\Petro\AppData\Local\Temp\ccDwqNKG.s 			page 14


 699:Generated_Source\PSoC4/AppDelay.c **** /*******************************************************************************
 700:Generated_Source\PSoC4/AppDelay.c **** * Function Name: AppDelay_ReadPeriod
 701:Generated_Source\PSoC4/AppDelay.c **** ********************************************************************************
 702:Generated_Source\PSoC4/AppDelay.c **** *
 703:Generated_Source\PSoC4/AppDelay.c **** * Summary:
 704:Generated_Source\PSoC4/AppDelay.c **** *  Reads the 16 bit period register.
 705:Generated_Source\PSoC4/AppDelay.c **** *
 706:Generated_Source\PSoC4/AppDelay.c **** * Parameters:
 707:Generated_Source\PSoC4/AppDelay.c **** *  None
 708:Generated_Source\PSoC4/AppDelay.c **** *
 709:Generated_Source\PSoC4/AppDelay.c **** * Return:
 710:Generated_Source\PSoC4/AppDelay.c **** *  Period value
 711:Generated_Source\PSoC4/AppDelay.c **** *
 712:Generated_Source\PSoC4/AppDelay.c **** *******************************************************************************/
 713:Generated_Source\PSoC4/AppDelay.c **** uint32 AppDelay_ReadPeriod(void)
 714:Generated_Source\PSoC4/AppDelay.c **** {
 715:Generated_Source\PSoC4/AppDelay.c ****     return (AppDelay_PERIOD_REG & AppDelay_16BIT_MASK);
 716:Generated_Source\PSoC4/AppDelay.c **** }
 717:Generated_Source\PSoC4/AppDelay.c **** 
 718:Generated_Source\PSoC4/AppDelay.c **** 
 719:Generated_Source\PSoC4/AppDelay.c **** /*******************************************************************************
 720:Generated_Source\PSoC4/AppDelay.c **** * Function Name: AppDelay_SetCompareSwap
 721:Generated_Source\PSoC4/AppDelay.c **** ********************************************************************************
 722:Generated_Source\PSoC4/AppDelay.c **** *
 723:Generated_Source\PSoC4/AppDelay.c **** * Summary:
 724:Generated_Source\PSoC4/AppDelay.c **** *  Writes the register that controls whether the compare registers are
 725:Generated_Source\PSoC4/AppDelay.c **** *  swapped. When enabled in the Timer/Counter mode(without capture) the swap
 726:Generated_Source\PSoC4/AppDelay.c **** *  occurs at a TC event. In the PWM mode the swap occurs at the next TC event
 727:Generated_Source\PSoC4/AppDelay.c **** *  following a hardware switch event.
 728:Generated_Source\PSoC4/AppDelay.c **** *
 729:Generated_Source\PSoC4/AppDelay.c **** * Parameters:
 730:Generated_Source\PSoC4/AppDelay.c **** *  swapEnable
 731:Generated_Source\PSoC4/AppDelay.c **** *   Values:
 732:Generated_Source\PSoC4/AppDelay.c **** *     - 0 - Disable swap
 733:Generated_Source\PSoC4/AppDelay.c **** *     - 1 - Enable swap
 734:Generated_Source\PSoC4/AppDelay.c **** *
 735:Generated_Source\PSoC4/AppDelay.c **** * Return:
 736:Generated_Source\PSoC4/AppDelay.c **** *  None
 737:Generated_Source\PSoC4/AppDelay.c **** *
 738:Generated_Source\PSoC4/AppDelay.c **** *******************************************************************************/
 739:Generated_Source\PSoC4/AppDelay.c **** void AppDelay_SetCompareSwap(uint32 swapEnable)
 740:Generated_Source\PSoC4/AppDelay.c **** {
 741:Generated_Source\PSoC4/AppDelay.c ****     uint8 enableInterrupts;
 742:Generated_Source\PSoC4/AppDelay.c **** 
 743:Generated_Source\PSoC4/AppDelay.c ****     enableInterrupts = CyEnterCriticalSection();
 744:Generated_Source\PSoC4/AppDelay.c **** 
 745:Generated_Source\PSoC4/AppDelay.c ****     AppDelay_CONTROL_REG &= (uint32)~AppDelay_RELOAD_CC_MASK;
 746:Generated_Source\PSoC4/AppDelay.c ****     AppDelay_CONTROL_REG |= (swapEnable & AppDelay_1BIT_MASK);
 747:Generated_Source\PSoC4/AppDelay.c **** 
 748:Generated_Source\PSoC4/AppDelay.c ****     CyExitCriticalSection(enableInterrupts);
 749:Generated_Source\PSoC4/AppDelay.c **** }
 750:Generated_Source\PSoC4/AppDelay.c **** 
 751:Generated_Source\PSoC4/AppDelay.c **** 
 752:Generated_Source\PSoC4/AppDelay.c **** /*******************************************************************************
 753:Generated_Source\PSoC4/AppDelay.c **** * Function Name: AppDelay_WritePeriodBuf
 754:Generated_Source\PSoC4/AppDelay.c **** ********************************************************************************
 755:Generated_Source\PSoC4/AppDelay.c **** *
ARM GAS  C:\Users\Petro\AppData\Local\Temp\ccDwqNKG.s 			page 15


 756:Generated_Source\PSoC4/AppDelay.c **** * Summary:
 757:Generated_Source\PSoC4/AppDelay.c **** *  Writes the 16 bit period buf register with the new period value.
 758:Generated_Source\PSoC4/AppDelay.c **** *
 759:Generated_Source\PSoC4/AppDelay.c **** * Parameters:
 760:Generated_Source\PSoC4/AppDelay.c **** *  periodBuf: Period value
 761:Generated_Source\PSoC4/AppDelay.c **** *
 762:Generated_Source\PSoC4/AppDelay.c **** * Return:
 763:Generated_Source\PSoC4/AppDelay.c **** *  None
 764:Generated_Source\PSoC4/AppDelay.c **** *
 765:Generated_Source\PSoC4/AppDelay.c **** *******************************************************************************/
 766:Generated_Source\PSoC4/AppDelay.c **** void AppDelay_WritePeriodBuf(uint32 periodBuf)
 767:Generated_Source\PSoC4/AppDelay.c **** {
 768:Generated_Source\PSoC4/AppDelay.c ****     AppDelay_PERIOD_BUF_REG = (periodBuf & AppDelay_16BIT_MASK);
 769:Generated_Source\PSoC4/AppDelay.c **** }
 770:Generated_Source\PSoC4/AppDelay.c **** 
 771:Generated_Source\PSoC4/AppDelay.c **** 
 772:Generated_Source\PSoC4/AppDelay.c **** /*******************************************************************************
 773:Generated_Source\PSoC4/AppDelay.c **** * Function Name: AppDelay_ReadPeriodBuf
 774:Generated_Source\PSoC4/AppDelay.c **** ********************************************************************************
 775:Generated_Source\PSoC4/AppDelay.c **** *
 776:Generated_Source\PSoC4/AppDelay.c **** * Summary:
 777:Generated_Source\PSoC4/AppDelay.c **** *  Reads the 16 bit period buf register.
 778:Generated_Source\PSoC4/AppDelay.c **** *
 779:Generated_Source\PSoC4/AppDelay.c **** * Parameters:
 780:Generated_Source\PSoC4/AppDelay.c **** *  None
 781:Generated_Source\PSoC4/AppDelay.c **** *
 782:Generated_Source\PSoC4/AppDelay.c **** * Return:
 783:Generated_Source\PSoC4/AppDelay.c **** *  Period value
 784:Generated_Source\PSoC4/AppDelay.c **** *
 785:Generated_Source\PSoC4/AppDelay.c **** *******************************************************************************/
 786:Generated_Source\PSoC4/AppDelay.c **** uint32 AppDelay_ReadPeriodBuf(void)
 787:Generated_Source\PSoC4/AppDelay.c **** {
 788:Generated_Source\PSoC4/AppDelay.c ****     return (AppDelay_PERIOD_BUF_REG & AppDelay_16BIT_MASK);
 789:Generated_Source\PSoC4/AppDelay.c **** }
 790:Generated_Source\PSoC4/AppDelay.c **** 
 791:Generated_Source\PSoC4/AppDelay.c **** 
 792:Generated_Source\PSoC4/AppDelay.c **** /*******************************************************************************
 793:Generated_Source\PSoC4/AppDelay.c **** * Function Name: AppDelay_SetPeriodSwap
 794:Generated_Source\PSoC4/AppDelay.c **** ********************************************************************************
 795:Generated_Source\PSoC4/AppDelay.c **** *
 796:Generated_Source\PSoC4/AppDelay.c **** * Summary:
 797:Generated_Source\PSoC4/AppDelay.c **** *  Writes the register that controls whether the period registers are
 798:Generated_Source\PSoC4/AppDelay.c **** *  swapped. When enabled in Timer/Counter mode the swap occurs at a TC event.
 799:Generated_Source\PSoC4/AppDelay.c **** *  In the PWM mode the swap occurs at the next TC event following a hardware
 800:Generated_Source\PSoC4/AppDelay.c **** *  switch event.
 801:Generated_Source\PSoC4/AppDelay.c **** *
 802:Generated_Source\PSoC4/AppDelay.c **** * Parameters:
 803:Generated_Source\PSoC4/AppDelay.c **** *  swapEnable
 804:Generated_Source\PSoC4/AppDelay.c **** *   Values:
 805:Generated_Source\PSoC4/AppDelay.c **** *     - 0 - Disable swap
 806:Generated_Source\PSoC4/AppDelay.c **** *     - 1 - Enable swap
 807:Generated_Source\PSoC4/AppDelay.c **** *
 808:Generated_Source\PSoC4/AppDelay.c **** * Return:
 809:Generated_Source\PSoC4/AppDelay.c **** *  None
 810:Generated_Source\PSoC4/AppDelay.c **** *
 811:Generated_Source\PSoC4/AppDelay.c **** *******************************************************************************/
 812:Generated_Source\PSoC4/AppDelay.c **** void AppDelay_SetPeriodSwap(uint32 swapEnable)
ARM GAS  C:\Users\Petro\AppData\Local\Temp\ccDwqNKG.s 			page 16


 813:Generated_Source\PSoC4/AppDelay.c **** {
 814:Generated_Source\PSoC4/AppDelay.c ****     uint8 enableInterrupts;
 815:Generated_Source\PSoC4/AppDelay.c **** 
 816:Generated_Source\PSoC4/AppDelay.c ****     enableInterrupts = CyEnterCriticalSection();
 817:Generated_Source\PSoC4/AppDelay.c **** 
 818:Generated_Source\PSoC4/AppDelay.c ****     AppDelay_CONTROL_REG &= (uint32)~AppDelay_RELOAD_PERIOD_MASK;
 819:Generated_Source\PSoC4/AppDelay.c ****     AppDelay_CONTROL_REG |= ((uint32)((swapEnable & AppDelay_1BIT_MASK) <<
 820:Generated_Source\PSoC4/AppDelay.c ****                                                             AppDelay_RELOAD_PERIOD_SHIFT));
 821:Generated_Source\PSoC4/AppDelay.c **** 
 822:Generated_Source\PSoC4/AppDelay.c ****     CyExitCriticalSection(enableInterrupts);
 823:Generated_Source\PSoC4/AppDelay.c **** }
 824:Generated_Source\PSoC4/AppDelay.c **** 
 825:Generated_Source\PSoC4/AppDelay.c **** 
 826:Generated_Source\PSoC4/AppDelay.c **** /*******************************************************************************
 827:Generated_Source\PSoC4/AppDelay.c **** * Function Name: AppDelay_WriteCompare
 828:Generated_Source\PSoC4/AppDelay.c **** ********************************************************************************
 829:Generated_Source\PSoC4/AppDelay.c **** *
 830:Generated_Source\PSoC4/AppDelay.c **** * Summary:
 831:Generated_Source\PSoC4/AppDelay.c **** *  Writes the 16 bit compare register with the new compare value. Not
 832:Generated_Source\PSoC4/AppDelay.c **** *  applicable for Timer/Counter with Capture or in Quadrature Decoder modes.
 833:Generated_Source\PSoC4/AppDelay.c **** *
 834:Generated_Source\PSoC4/AppDelay.c **** * Parameters:
 835:Generated_Source\PSoC4/AppDelay.c **** *  compare: Compare value
 836:Generated_Source\PSoC4/AppDelay.c **** *
 837:Generated_Source\PSoC4/AppDelay.c **** * Return:
 838:Generated_Source\PSoC4/AppDelay.c **** *  None
 839:Generated_Source\PSoC4/AppDelay.c **** *
 840:Generated_Source\PSoC4/AppDelay.c **** * Note:
 841:Generated_Source\PSoC4/AppDelay.c **** *  It is not recommended to use the value equal to "0" or equal to 
 842:Generated_Source\PSoC4/AppDelay.c **** *  "period value" in Center or Asymmetric align PWM modes on the 
 843:Generated_Source\PSoC4/AppDelay.c **** *  PSoC 4100/PSoC 4200 devices.
 844:Generated_Source\PSoC4/AppDelay.c **** *  PSoC 4000 devices write the 16 bit compare register with the decremented 
 845:Generated_Source\PSoC4/AppDelay.c **** *  compare value in the Up counting mode (except 0x0u), and the incremented 
 846:Generated_Source\PSoC4/AppDelay.c **** *  compare value in the Down counting mode (except 0xFFFFu).
 847:Generated_Source\PSoC4/AppDelay.c **** *
 848:Generated_Source\PSoC4/AppDelay.c **** *******************************************************************************/
 849:Generated_Source\PSoC4/AppDelay.c **** void AppDelay_WriteCompare(uint32 compare)
 850:Generated_Source\PSoC4/AppDelay.c **** {
 851:Generated_Source\PSoC4/AppDelay.c ****     #if (AppDelay_CY_TCPWM_4000)
 852:Generated_Source\PSoC4/AppDelay.c ****         uint32 currentMode;
 853:Generated_Source\PSoC4/AppDelay.c ****     #endif /* (AppDelay_CY_TCPWM_4000) */
 854:Generated_Source\PSoC4/AppDelay.c **** 
 855:Generated_Source\PSoC4/AppDelay.c ****     #if (AppDelay_CY_TCPWM_4000)
 856:Generated_Source\PSoC4/AppDelay.c ****         currentMode = ((AppDelay_CONTROL_REG & AppDelay_UPDOWN_MASK) >> AppDelay_UPDOWN_SHIFT);
 857:Generated_Source\PSoC4/AppDelay.c **** 
 858:Generated_Source\PSoC4/AppDelay.c ****         if (((uint32)AppDelay__COUNT_DOWN == currentMode) && (0xFFFFu != compare))
 859:Generated_Source\PSoC4/AppDelay.c ****         {
 860:Generated_Source\PSoC4/AppDelay.c ****             compare++;
 861:Generated_Source\PSoC4/AppDelay.c ****         }
 862:Generated_Source\PSoC4/AppDelay.c ****         else if (((uint32)AppDelay__COUNT_UP == currentMode) && (0u != compare))
 863:Generated_Source\PSoC4/AppDelay.c ****         {
 864:Generated_Source\PSoC4/AppDelay.c ****             compare--;
 865:Generated_Source\PSoC4/AppDelay.c ****         }
 866:Generated_Source\PSoC4/AppDelay.c ****         else
 867:Generated_Source\PSoC4/AppDelay.c ****         {
 868:Generated_Source\PSoC4/AppDelay.c ****         }
 869:Generated_Source\PSoC4/AppDelay.c ****         
ARM GAS  C:\Users\Petro\AppData\Local\Temp\ccDwqNKG.s 			page 17


 870:Generated_Source\PSoC4/AppDelay.c ****     
 871:Generated_Source\PSoC4/AppDelay.c ****     #endif /* (AppDelay_CY_TCPWM_4000) */
 872:Generated_Source\PSoC4/AppDelay.c ****     
 873:Generated_Source\PSoC4/AppDelay.c ****     AppDelay_COMP_CAP_REG = (compare & AppDelay_16BIT_MASK);
 874:Generated_Source\PSoC4/AppDelay.c **** }
 875:Generated_Source\PSoC4/AppDelay.c **** 
 876:Generated_Source\PSoC4/AppDelay.c **** 
 877:Generated_Source\PSoC4/AppDelay.c **** /*******************************************************************************
 878:Generated_Source\PSoC4/AppDelay.c **** * Function Name: AppDelay_ReadCompare
 879:Generated_Source\PSoC4/AppDelay.c **** ********************************************************************************
 880:Generated_Source\PSoC4/AppDelay.c **** *
 881:Generated_Source\PSoC4/AppDelay.c **** * Summary:
 882:Generated_Source\PSoC4/AppDelay.c **** *  Reads the compare register. Not applicable for Timer/Counter with Capture
 883:Generated_Source\PSoC4/AppDelay.c **** *  or in Quadrature Decoder modes.
 884:Generated_Source\PSoC4/AppDelay.c **** *  PSoC 4000 devices read the incremented compare register value in the 
 885:Generated_Source\PSoC4/AppDelay.c **** *  Up counting mode (except 0xFFFFu), and the decremented value in the 
 886:Generated_Source\PSoC4/AppDelay.c **** *  Down counting mode (except 0x0u).
 887:Generated_Source\PSoC4/AppDelay.c **** *
 888:Generated_Source\PSoC4/AppDelay.c **** * Parameters:
 889:Generated_Source\PSoC4/AppDelay.c **** *  None
 890:Generated_Source\PSoC4/AppDelay.c **** *
 891:Generated_Source\PSoC4/AppDelay.c **** * Return:
 892:Generated_Source\PSoC4/AppDelay.c **** *  Compare value
 893:Generated_Source\PSoC4/AppDelay.c **** *
 894:Generated_Source\PSoC4/AppDelay.c **** * Note:
 895:Generated_Source\PSoC4/AppDelay.c **** *  PSoC 4000 devices read the incremented compare register value in the 
 896:Generated_Source\PSoC4/AppDelay.c **** *  Up counting mode (except 0xFFFFu), and the decremented value in the 
 897:Generated_Source\PSoC4/AppDelay.c **** *  Down counting mode (except 0x0u).
 898:Generated_Source\PSoC4/AppDelay.c **** *
 899:Generated_Source\PSoC4/AppDelay.c **** *******************************************************************************/
 900:Generated_Source\PSoC4/AppDelay.c **** uint32 AppDelay_ReadCompare(void)
 901:Generated_Source\PSoC4/AppDelay.c **** {
 902:Generated_Source\PSoC4/AppDelay.c ****     #if (AppDelay_CY_TCPWM_4000)
 903:Generated_Source\PSoC4/AppDelay.c ****         uint32 currentMode;
 904:Generated_Source\PSoC4/AppDelay.c ****         uint32 regVal;
 905:Generated_Source\PSoC4/AppDelay.c ****     #endif /* (AppDelay_CY_TCPWM_4000) */
 906:Generated_Source\PSoC4/AppDelay.c **** 
 907:Generated_Source\PSoC4/AppDelay.c ****     #if (AppDelay_CY_TCPWM_4000)
 908:Generated_Source\PSoC4/AppDelay.c ****         currentMode = ((AppDelay_CONTROL_REG & AppDelay_UPDOWN_MASK) >> AppDelay_UPDOWN_SHIFT);
 909:Generated_Source\PSoC4/AppDelay.c ****         
 910:Generated_Source\PSoC4/AppDelay.c ****         regVal = AppDelay_COMP_CAP_REG;
 911:Generated_Source\PSoC4/AppDelay.c ****         
 912:Generated_Source\PSoC4/AppDelay.c ****         if (((uint32)AppDelay__COUNT_DOWN == currentMode) && (0u != regVal))
 913:Generated_Source\PSoC4/AppDelay.c ****         {
 914:Generated_Source\PSoC4/AppDelay.c ****             regVal--;
 915:Generated_Source\PSoC4/AppDelay.c ****         }
 916:Generated_Source\PSoC4/AppDelay.c ****         else if (((uint32)AppDelay__COUNT_UP == currentMode) && (0xFFFFu != regVal))
 917:Generated_Source\PSoC4/AppDelay.c ****         {
 918:Generated_Source\PSoC4/AppDelay.c ****             regVal++;
 919:Generated_Source\PSoC4/AppDelay.c ****         }
 920:Generated_Source\PSoC4/AppDelay.c ****         else
 921:Generated_Source\PSoC4/AppDelay.c ****         {
 922:Generated_Source\PSoC4/AppDelay.c ****         }
 923:Generated_Source\PSoC4/AppDelay.c **** 
 924:Generated_Source\PSoC4/AppDelay.c ****         return (regVal & AppDelay_16BIT_MASK);
 925:Generated_Source\PSoC4/AppDelay.c ****     #else
 926:Generated_Source\PSoC4/AppDelay.c ****         return (AppDelay_COMP_CAP_REG & AppDelay_16BIT_MASK);
ARM GAS  C:\Users\Petro\AppData\Local\Temp\ccDwqNKG.s 			page 18


 927:Generated_Source\PSoC4/AppDelay.c ****     #endif /* (AppDelay_CY_TCPWM_4000) */
 928:Generated_Source\PSoC4/AppDelay.c **** }
 929:Generated_Source\PSoC4/AppDelay.c **** 
 930:Generated_Source\PSoC4/AppDelay.c **** 
 931:Generated_Source\PSoC4/AppDelay.c **** /*******************************************************************************
 932:Generated_Source\PSoC4/AppDelay.c **** * Function Name: AppDelay_WriteCompareBuf
 933:Generated_Source\PSoC4/AppDelay.c **** ********************************************************************************
 934:Generated_Source\PSoC4/AppDelay.c **** *
 935:Generated_Source\PSoC4/AppDelay.c **** * Summary:
 936:Generated_Source\PSoC4/AppDelay.c **** *  Writes the 16 bit compare buffer register with the new compare value. Not
 937:Generated_Source\PSoC4/AppDelay.c **** *  applicable for Timer/Counter with Capture or in Quadrature Decoder modes.
 938:Generated_Source\PSoC4/AppDelay.c **** *
 939:Generated_Source\PSoC4/AppDelay.c **** * Parameters:
 940:Generated_Source\PSoC4/AppDelay.c **** *  compareBuf: Compare value
 941:Generated_Source\PSoC4/AppDelay.c **** *
 942:Generated_Source\PSoC4/AppDelay.c **** * Return:
 943:Generated_Source\PSoC4/AppDelay.c **** *  None
 944:Generated_Source\PSoC4/AppDelay.c **** *
 945:Generated_Source\PSoC4/AppDelay.c **** * Note:
 946:Generated_Source\PSoC4/AppDelay.c **** *  It is not recommended to use the value equal to "0" or equal to 
 947:Generated_Source\PSoC4/AppDelay.c **** *  "period value" in Center or Asymmetric align PWM modes on the 
 948:Generated_Source\PSoC4/AppDelay.c **** *  PSoC 4100/PSoC 4200 devices.
 949:Generated_Source\PSoC4/AppDelay.c **** *  PSoC 4000 devices write the 16 bit compare register with the decremented 
 950:Generated_Source\PSoC4/AppDelay.c **** *  compare value in the Up counting mode (except 0x0u), and the incremented 
 951:Generated_Source\PSoC4/AppDelay.c **** *  compare value in the Down counting mode (except 0xFFFFu).
 952:Generated_Source\PSoC4/AppDelay.c **** *
 953:Generated_Source\PSoC4/AppDelay.c **** *******************************************************************************/
 954:Generated_Source\PSoC4/AppDelay.c **** void AppDelay_WriteCompareBuf(uint32 compareBuf)
 955:Generated_Source\PSoC4/AppDelay.c **** {
 956:Generated_Source\PSoC4/AppDelay.c ****     #if (AppDelay_CY_TCPWM_4000)
 957:Generated_Source\PSoC4/AppDelay.c ****         uint32 currentMode;
 958:Generated_Source\PSoC4/AppDelay.c ****     #endif /* (AppDelay_CY_TCPWM_4000) */
 959:Generated_Source\PSoC4/AppDelay.c **** 
 960:Generated_Source\PSoC4/AppDelay.c ****     #if (AppDelay_CY_TCPWM_4000)
 961:Generated_Source\PSoC4/AppDelay.c ****         currentMode = ((AppDelay_CONTROL_REG & AppDelay_UPDOWN_MASK) >> AppDelay_UPDOWN_SHIFT);
 962:Generated_Source\PSoC4/AppDelay.c **** 
 963:Generated_Source\PSoC4/AppDelay.c ****         if (((uint32)AppDelay__COUNT_DOWN == currentMode) && (0xFFFFu != compareBuf))
 964:Generated_Source\PSoC4/AppDelay.c ****         {
 965:Generated_Source\PSoC4/AppDelay.c ****             compareBuf++;
 966:Generated_Source\PSoC4/AppDelay.c ****         }
 967:Generated_Source\PSoC4/AppDelay.c ****         else if (((uint32)AppDelay__COUNT_UP == currentMode) && (0u != compareBuf))
 968:Generated_Source\PSoC4/AppDelay.c ****         {
 969:Generated_Source\PSoC4/AppDelay.c ****             compareBuf --;
 970:Generated_Source\PSoC4/AppDelay.c ****         }
 971:Generated_Source\PSoC4/AppDelay.c ****         else
 972:Generated_Source\PSoC4/AppDelay.c ****         {
 973:Generated_Source\PSoC4/AppDelay.c ****         }
 974:Generated_Source\PSoC4/AppDelay.c ****     #endif /* (AppDelay_CY_TCPWM_4000) */
 975:Generated_Source\PSoC4/AppDelay.c ****     
 976:Generated_Source\PSoC4/AppDelay.c ****     AppDelay_COMP_CAP_BUF_REG = (compareBuf & AppDelay_16BIT_MASK);
 977:Generated_Source\PSoC4/AppDelay.c **** }
 978:Generated_Source\PSoC4/AppDelay.c **** 
 979:Generated_Source\PSoC4/AppDelay.c **** 
 980:Generated_Source\PSoC4/AppDelay.c **** /*******************************************************************************
 981:Generated_Source\PSoC4/AppDelay.c **** * Function Name: AppDelay_ReadCompareBuf
 982:Generated_Source\PSoC4/AppDelay.c **** ********************************************************************************
 983:Generated_Source\PSoC4/AppDelay.c **** *
ARM GAS  C:\Users\Petro\AppData\Local\Temp\ccDwqNKG.s 			page 19


 984:Generated_Source\PSoC4/AppDelay.c **** * Summary:
 985:Generated_Source\PSoC4/AppDelay.c **** *  Reads the compare buffer register. Not applicable for Timer/Counter with
 986:Generated_Source\PSoC4/AppDelay.c **** *  Capture or in Quadrature Decoder modes.
 987:Generated_Source\PSoC4/AppDelay.c **** *
 988:Generated_Source\PSoC4/AppDelay.c **** * Parameters:
 989:Generated_Source\PSoC4/AppDelay.c **** *  None
 990:Generated_Source\PSoC4/AppDelay.c **** *
 991:Generated_Source\PSoC4/AppDelay.c **** * Return:
 992:Generated_Source\PSoC4/AppDelay.c **** *  Compare buffer value
 993:Generated_Source\PSoC4/AppDelay.c **** *
 994:Generated_Source\PSoC4/AppDelay.c **** * Note:
 995:Generated_Source\PSoC4/AppDelay.c **** *  PSoC 4000 devices read the incremented compare register value in the 
 996:Generated_Source\PSoC4/AppDelay.c **** *  Up counting mode (except 0xFFFFu), and the decremented value in the 
 997:Generated_Source\PSoC4/AppDelay.c **** *  Down counting mode (except 0x0u).
 998:Generated_Source\PSoC4/AppDelay.c **** *
 999:Generated_Source\PSoC4/AppDelay.c **** *******************************************************************************/
1000:Generated_Source\PSoC4/AppDelay.c **** uint32 AppDelay_ReadCompareBuf(void)
1001:Generated_Source\PSoC4/AppDelay.c **** {
1002:Generated_Source\PSoC4/AppDelay.c ****     #if (AppDelay_CY_TCPWM_4000)
1003:Generated_Source\PSoC4/AppDelay.c ****         uint32 currentMode;
1004:Generated_Source\PSoC4/AppDelay.c ****         uint32 regVal;
1005:Generated_Source\PSoC4/AppDelay.c ****     #endif /* (AppDelay_CY_TCPWM_4000) */
1006:Generated_Source\PSoC4/AppDelay.c **** 
1007:Generated_Source\PSoC4/AppDelay.c ****     #if (AppDelay_CY_TCPWM_4000)
1008:Generated_Source\PSoC4/AppDelay.c ****         currentMode = ((AppDelay_CONTROL_REG & AppDelay_UPDOWN_MASK) >> AppDelay_UPDOWN_SHIFT);
1009:Generated_Source\PSoC4/AppDelay.c **** 
1010:Generated_Source\PSoC4/AppDelay.c ****         regVal = AppDelay_COMP_CAP_BUF_REG;
1011:Generated_Source\PSoC4/AppDelay.c ****         
1012:Generated_Source\PSoC4/AppDelay.c ****         if (((uint32)AppDelay__COUNT_DOWN == currentMode) && (0u != regVal))
1013:Generated_Source\PSoC4/AppDelay.c ****         {
1014:Generated_Source\PSoC4/AppDelay.c ****             regVal--;
1015:Generated_Source\PSoC4/AppDelay.c ****         }
1016:Generated_Source\PSoC4/AppDelay.c ****         else if (((uint32)AppDelay__COUNT_UP == currentMode) && (0xFFFFu != regVal))
1017:Generated_Source\PSoC4/AppDelay.c ****         {
1018:Generated_Source\PSoC4/AppDelay.c ****             regVal++;
1019:Generated_Source\PSoC4/AppDelay.c ****         }
1020:Generated_Source\PSoC4/AppDelay.c ****         else
1021:Generated_Source\PSoC4/AppDelay.c ****         {
1022:Generated_Source\PSoC4/AppDelay.c ****         }
1023:Generated_Source\PSoC4/AppDelay.c **** 
1024:Generated_Source\PSoC4/AppDelay.c ****         return (regVal & AppDelay_16BIT_MASK);
1025:Generated_Source\PSoC4/AppDelay.c ****     #else
1026:Generated_Source\PSoC4/AppDelay.c ****         return (AppDelay_COMP_CAP_BUF_REG & AppDelay_16BIT_MASK);
1027:Generated_Source\PSoC4/AppDelay.c ****     #endif /* (AppDelay_CY_TCPWM_4000) */
1028:Generated_Source\PSoC4/AppDelay.c **** }
1029:Generated_Source\PSoC4/AppDelay.c **** 
1030:Generated_Source\PSoC4/AppDelay.c **** 
1031:Generated_Source\PSoC4/AppDelay.c **** /*******************************************************************************
1032:Generated_Source\PSoC4/AppDelay.c **** * Function Name: AppDelay_ReadCapture
1033:Generated_Source\PSoC4/AppDelay.c **** ********************************************************************************
1034:Generated_Source\PSoC4/AppDelay.c **** *
1035:Generated_Source\PSoC4/AppDelay.c **** * Summary:
1036:Generated_Source\PSoC4/AppDelay.c **** *  Reads the captured counter value. This API is applicable only for
1037:Generated_Source\PSoC4/AppDelay.c **** *  Timer/Counter with the capture mode and Quadrature Decoder modes.
1038:Generated_Source\PSoC4/AppDelay.c **** *
1039:Generated_Source\PSoC4/AppDelay.c **** * Parameters:
1040:Generated_Source\PSoC4/AppDelay.c **** *  None
ARM GAS  C:\Users\Petro\AppData\Local\Temp\ccDwqNKG.s 			page 20


1041:Generated_Source\PSoC4/AppDelay.c **** *
1042:Generated_Source\PSoC4/AppDelay.c **** * Return:
1043:Generated_Source\PSoC4/AppDelay.c **** *  Capture value
1044:Generated_Source\PSoC4/AppDelay.c **** *
1045:Generated_Source\PSoC4/AppDelay.c **** *******************************************************************************/
1046:Generated_Source\PSoC4/AppDelay.c **** uint32 AppDelay_ReadCapture(void)
1047:Generated_Source\PSoC4/AppDelay.c **** {
1048:Generated_Source\PSoC4/AppDelay.c ****     return (AppDelay_COMP_CAP_REG & AppDelay_16BIT_MASK);
1049:Generated_Source\PSoC4/AppDelay.c **** }
1050:Generated_Source\PSoC4/AppDelay.c **** 
1051:Generated_Source\PSoC4/AppDelay.c **** 
1052:Generated_Source\PSoC4/AppDelay.c **** /*******************************************************************************
1053:Generated_Source\PSoC4/AppDelay.c **** * Function Name: AppDelay_ReadCaptureBuf
1054:Generated_Source\PSoC4/AppDelay.c **** ********************************************************************************
1055:Generated_Source\PSoC4/AppDelay.c **** *
1056:Generated_Source\PSoC4/AppDelay.c **** * Summary:
1057:Generated_Source\PSoC4/AppDelay.c **** *  Reads the capture buffer register. This API is applicable only for
1058:Generated_Source\PSoC4/AppDelay.c **** *  Timer/Counter with the capture mode and Quadrature Decoder modes.
1059:Generated_Source\PSoC4/AppDelay.c **** *
1060:Generated_Source\PSoC4/AppDelay.c **** * Parameters:
1061:Generated_Source\PSoC4/AppDelay.c **** *  None
1062:Generated_Source\PSoC4/AppDelay.c **** *
1063:Generated_Source\PSoC4/AppDelay.c **** * Return:
1064:Generated_Source\PSoC4/AppDelay.c **** *  Capture buffer value
1065:Generated_Source\PSoC4/AppDelay.c **** *
1066:Generated_Source\PSoC4/AppDelay.c **** *******************************************************************************/
1067:Generated_Source\PSoC4/AppDelay.c **** uint32 AppDelay_ReadCaptureBuf(void)
1068:Generated_Source\PSoC4/AppDelay.c **** {
1069:Generated_Source\PSoC4/AppDelay.c ****     return (AppDelay_COMP_CAP_BUF_REG & AppDelay_16BIT_MASK);
1070:Generated_Source\PSoC4/AppDelay.c **** }
1071:Generated_Source\PSoC4/AppDelay.c **** 
1072:Generated_Source\PSoC4/AppDelay.c **** 
1073:Generated_Source\PSoC4/AppDelay.c **** /*******************************************************************************
1074:Generated_Source\PSoC4/AppDelay.c **** * Function Name: AppDelay_SetCaptureMode
1075:Generated_Source\PSoC4/AppDelay.c **** ********************************************************************************
1076:Generated_Source\PSoC4/AppDelay.c **** *
1077:Generated_Source\PSoC4/AppDelay.c **** * Summary:
1078:Generated_Source\PSoC4/AppDelay.c **** *  Sets the capture trigger mode. For PWM mode this is the switch input.
1079:Generated_Source\PSoC4/AppDelay.c **** *  This input is not applicable to the Timer/Counter without Capture and
1080:Generated_Source\PSoC4/AppDelay.c **** *  Quadrature Decoder modes.
1081:Generated_Source\PSoC4/AppDelay.c **** *
1082:Generated_Source\PSoC4/AppDelay.c **** * Parameters:
1083:Generated_Source\PSoC4/AppDelay.c **** *  triggerMode: Enumerated trigger mode value
1084:Generated_Source\PSoC4/AppDelay.c **** *   Values:
1085:Generated_Source\PSoC4/AppDelay.c **** *     - AppDelay_TRIG_LEVEL     - Level
1086:Generated_Source\PSoC4/AppDelay.c **** *     - AppDelay_TRIG_RISING    - Rising edge
1087:Generated_Source\PSoC4/AppDelay.c **** *     - AppDelay_TRIG_FALLING   - Falling edge
1088:Generated_Source\PSoC4/AppDelay.c **** *     - AppDelay_TRIG_BOTH      - Both rising and falling edge
1089:Generated_Source\PSoC4/AppDelay.c **** *
1090:Generated_Source\PSoC4/AppDelay.c **** * Return:
1091:Generated_Source\PSoC4/AppDelay.c **** *  None
1092:Generated_Source\PSoC4/AppDelay.c **** *
1093:Generated_Source\PSoC4/AppDelay.c **** *******************************************************************************/
1094:Generated_Source\PSoC4/AppDelay.c **** void AppDelay_SetCaptureMode(uint32 triggerMode)
1095:Generated_Source\PSoC4/AppDelay.c **** {
1096:Generated_Source\PSoC4/AppDelay.c ****     uint8 enableInterrupts;
1097:Generated_Source\PSoC4/AppDelay.c **** 
ARM GAS  C:\Users\Petro\AppData\Local\Temp\ccDwqNKG.s 			page 21


1098:Generated_Source\PSoC4/AppDelay.c ****     enableInterrupts = CyEnterCriticalSection();
1099:Generated_Source\PSoC4/AppDelay.c **** 
1100:Generated_Source\PSoC4/AppDelay.c ****     AppDelay_TRIG_CONTROL1_REG &= (uint32)~AppDelay_CAPTURE_MASK;
1101:Generated_Source\PSoC4/AppDelay.c ****     AppDelay_TRIG_CONTROL1_REG |= triggerMode;
1102:Generated_Source\PSoC4/AppDelay.c **** 
1103:Generated_Source\PSoC4/AppDelay.c ****     CyExitCriticalSection(enableInterrupts);
1104:Generated_Source\PSoC4/AppDelay.c **** }
1105:Generated_Source\PSoC4/AppDelay.c **** 
1106:Generated_Source\PSoC4/AppDelay.c **** 
1107:Generated_Source\PSoC4/AppDelay.c **** /*******************************************************************************
1108:Generated_Source\PSoC4/AppDelay.c **** * Function Name: AppDelay_SetReloadMode
1109:Generated_Source\PSoC4/AppDelay.c **** ********************************************************************************
1110:Generated_Source\PSoC4/AppDelay.c **** *
1111:Generated_Source\PSoC4/AppDelay.c **** * Summary:
1112:Generated_Source\PSoC4/AppDelay.c **** *  Sets the reload trigger mode. For Quadrature Decoder mode this is the index
1113:Generated_Source\PSoC4/AppDelay.c **** *  input.
1114:Generated_Source\PSoC4/AppDelay.c **** *
1115:Generated_Source\PSoC4/AppDelay.c **** * Parameters:
1116:Generated_Source\PSoC4/AppDelay.c **** *  triggerMode: Enumerated trigger mode value
1117:Generated_Source\PSoC4/AppDelay.c **** *   Values:
1118:Generated_Source\PSoC4/AppDelay.c **** *     - AppDelay_TRIG_LEVEL     - Level
1119:Generated_Source\PSoC4/AppDelay.c **** *     - AppDelay_TRIG_RISING    - Rising edge
1120:Generated_Source\PSoC4/AppDelay.c **** *     - AppDelay_TRIG_FALLING   - Falling edge
1121:Generated_Source\PSoC4/AppDelay.c **** *     - AppDelay_TRIG_BOTH      - Both rising and falling edge
1122:Generated_Source\PSoC4/AppDelay.c **** *
1123:Generated_Source\PSoC4/AppDelay.c **** * Return:
1124:Generated_Source\PSoC4/AppDelay.c **** *  None
1125:Generated_Source\PSoC4/AppDelay.c **** *
1126:Generated_Source\PSoC4/AppDelay.c **** *******************************************************************************/
1127:Generated_Source\PSoC4/AppDelay.c **** void AppDelay_SetReloadMode(uint32 triggerMode)
1128:Generated_Source\PSoC4/AppDelay.c **** {
1129:Generated_Source\PSoC4/AppDelay.c ****     uint8 enableInterrupts;
1130:Generated_Source\PSoC4/AppDelay.c **** 
1131:Generated_Source\PSoC4/AppDelay.c ****     enableInterrupts = CyEnterCriticalSection();
1132:Generated_Source\PSoC4/AppDelay.c **** 
1133:Generated_Source\PSoC4/AppDelay.c ****     AppDelay_TRIG_CONTROL1_REG &= (uint32)~AppDelay_RELOAD_MASK;
1134:Generated_Source\PSoC4/AppDelay.c ****     AppDelay_TRIG_CONTROL1_REG |= ((uint32)(triggerMode << AppDelay_RELOAD_SHIFT));
1135:Generated_Source\PSoC4/AppDelay.c **** 
1136:Generated_Source\PSoC4/AppDelay.c ****     CyExitCriticalSection(enableInterrupts);
1137:Generated_Source\PSoC4/AppDelay.c **** }
1138:Generated_Source\PSoC4/AppDelay.c **** 
1139:Generated_Source\PSoC4/AppDelay.c **** 
1140:Generated_Source\PSoC4/AppDelay.c **** /*******************************************************************************
1141:Generated_Source\PSoC4/AppDelay.c **** * Function Name: AppDelay_SetStartMode
1142:Generated_Source\PSoC4/AppDelay.c **** ********************************************************************************
1143:Generated_Source\PSoC4/AppDelay.c **** *
1144:Generated_Source\PSoC4/AppDelay.c **** * Summary:
1145:Generated_Source\PSoC4/AppDelay.c **** *  Sets the start trigger mode. For Quadrature Decoder mode this is the
1146:Generated_Source\PSoC4/AppDelay.c **** *  phiB input.
1147:Generated_Source\PSoC4/AppDelay.c **** *
1148:Generated_Source\PSoC4/AppDelay.c **** * Parameters:
1149:Generated_Source\PSoC4/AppDelay.c **** *  triggerMode: Enumerated trigger mode value
1150:Generated_Source\PSoC4/AppDelay.c **** *   Values:
1151:Generated_Source\PSoC4/AppDelay.c **** *     - AppDelay_TRIG_LEVEL     - Level
1152:Generated_Source\PSoC4/AppDelay.c **** *     - AppDelay_TRIG_RISING    - Rising edge
1153:Generated_Source\PSoC4/AppDelay.c **** *     - AppDelay_TRIG_FALLING   - Falling edge
1154:Generated_Source\PSoC4/AppDelay.c **** *     - AppDelay_TRIG_BOTH      - Both rising and falling edge
ARM GAS  C:\Users\Petro\AppData\Local\Temp\ccDwqNKG.s 			page 22


1155:Generated_Source\PSoC4/AppDelay.c **** *
1156:Generated_Source\PSoC4/AppDelay.c **** * Return:
1157:Generated_Source\PSoC4/AppDelay.c **** *  None
1158:Generated_Source\PSoC4/AppDelay.c **** *
1159:Generated_Source\PSoC4/AppDelay.c **** *******************************************************************************/
1160:Generated_Source\PSoC4/AppDelay.c **** void AppDelay_SetStartMode(uint32 triggerMode)
1161:Generated_Source\PSoC4/AppDelay.c **** {
1162:Generated_Source\PSoC4/AppDelay.c ****     uint8 enableInterrupts;
1163:Generated_Source\PSoC4/AppDelay.c **** 
1164:Generated_Source\PSoC4/AppDelay.c ****     enableInterrupts = CyEnterCriticalSection();
1165:Generated_Source\PSoC4/AppDelay.c **** 
1166:Generated_Source\PSoC4/AppDelay.c ****     AppDelay_TRIG_CONTROL1_REG &= (uint32)~AppDelay_START_MASK;
1167:Generated_Source\PSoC4/AppDelay.c ****     AppDelay_TRIG_CONTROL1_REG |= ((uint32)(triggerMode << AppDelay_START_SHIFT));
1168:Generated_Source\PSoC4/AppDelay.c **** 
1169:Generated_Source\PSoC4/AppDelay.c ****     CyExitCriticalSection(enableInterrupts);
1170:Generated_Source\PSoC4/AppDelay.c **** }
1171:Generated_Source\PSoC4/AppDelay.c **** 
1172:Generated_Source\PSoC4/AppDelay.c **** 
1173:Generated_Source\PSoC4/AppDelay.c **** /*******************************************************************************
1174:Generated_Source\PSoC4/AppDelay.c **** * Function Name: AppDelay_SetStopMode
1175:Generated_Source\PSoC4/AppDelay.c **** ********************************************************************************
1176:Generated_Source\PSoC4/AppDelay.c **** *
1177:Generated_Source\PSoC4/AppDelay.c **** * Summary:
1178:Generated_Source\PSoC4/AppDelay.c **** *  Sets the stop trigger mode. For PWM mode this is the kill input.
1179:Generated_Source\PSoC4/AppDelay.c **** *
1180:Generated_Source\PSoC4/AppDelay.c **** * Parameters:
1181:Generated_Source\PSoC4/AppDelay.c **** *  triggerMode: Enumerated trigger mode value
1182:Generated_Source\PSoC4/AppDelay.c **** *   Values:
1183:Generated_Source\PSoC4/AppDelay.c **** *     - AppDelay_TRIG_LEVEL     - Level
1184:Generated_Source\PSoC4/AppDelay.c **** *     - AppDelay_TRIG_RISING    - Rising edge
1185:Generated_Source\PSoC4/AppDelay.c **** *     - AppDelay_TRIG_FALLING   - Falling edge
1186:Generated_Source\PSoC4/AppDelay.c **** *     - AppDelay_TRIG_BOTH      - Both rising and falling edge
1187:Generated_Source\PSoC4/AppDelay.c **** *
1188:Generated_Source\PSoC4/AppDelay.c **** * Return:
1189:Generated_Source\PSoC4/AppDelay.c **** *  None
1190:Generated_Source\PSoC4/AppDelay.c **** *
1191:Generated_Source\PSoC4/AppDelay.c **** *******************************************************************************/
1192:Generated_Source\PSoC4/AppDelay.c **** void AppDelay_SetStopMode(uint32 triggerMode)
1193:Generated_Source\PSoC4/AppDelay.c **** {
1194:Generated_Source\PSoC4/AppDelay.c ****     uint8 enableInterrupts;
1195:Generated_Source\PSoC4/AppDelay.c **** 
1196:Generated_Source\PSoC4/AppDelay.c ****     enableInterrupts = CyEnterCriticalSection();
1197:Generated_Source\PSoC4/AppDelay.c **** 
1198:Generated_Source\PSoC4/AppDelay.c ****     AppDelay_TRIG_CONTROL1_REG &= (uint32)~AppDelay_STOP_MASK;
1199:Generated_Source\PSoC4/AppDelay.c ****     AppDelay_TRIG_CONTROL1_REG |= ((uint32)(triggerMode << AppDelay_STOP_SHIFT));
1200:Generated_Source\PSoC4/AppDelay.c **** 
1201:Generated_Source\PSoC4/AppDelay.c ****     CyExitCriticalSection(enableInterrupts);
1202:Generated_Source\PSoC4/AppDelay.c **** }
1203:Generated_Source\PSoC4/AppDelay.c **** 
1204:Generated_Source\PSoC4/AppDelay.c **** 
1205:Generated_Source\PSoC4/AppDelay.c **** /*******************************************************************************
1206:Generated_Source\PSoC4/AppDelay.c **** * Function Name: AppDelay_SetCountMode
1207:Generated_Source\PSoC4/AppDelay.c **** ********************************************************************************
1208:Generated_Source\PSoC4/AppDelay.c **** *
1209:Generated_Source\PSoC4/AppDelay.c **** * Summary:
1210:Generated_Source\PSoC4/AppDelay.c **** *  Sets the count trigger mode. For Quadrature Decoder mode this is the phiA
1211:Generated_Source\PSoC4/AppDelay.c **** *  input.
ARM GAS  C:\Users\Petro\AppData\Local\Temp\ccDwqNKG.s 			page 23


1212:Generated_Source\PSoC4/AppDelay.c **** *
1213:Generated_Source\PSoC4/AppDelay.c **** * Parameters:
1214:Generated_Source\PSoC4/AppDelay.c **** *  triggerMode: Enumerated trigger mode value
1215:Generated_Source\PSoC4/AppDelay.c **** *   Values:
1216:Generated_Source\PSoC4/AppDelay.c **** *     - AppDelay_TRIG_LEVEL     - Level
1217:Generated_Source\PSoC4/AppDelay.c **** *     - AppDelay_TRIG_RISING    - Rising edge
1218:Generated_Source\PSoC4/AppDelay.c **** *     - AppDelay_TRIG_FALLING   - Falling edge
1219:Generated_Source\PSoC4/AppDelay.c **** *     - AppDelay_TRIG_BOTH      - Both rising and falling edge
1220:Generated_Source\PSoC4/AppDelay.c **** *
1221:Generated_Source\PSoC4/AppDelay.c **** * Return:
1222:Generated_Source\PSoC4/AppDelay.c **** *  None
1223:Generated_Source\PSoC4/AppDelay.c **** *
1224:Generated_Source\PSoC4/AppDelay.c **** *******************************************************************************/
1225:Generated_Source\PSoC4/AppDelay.c **** void AppDelay_SetCountMode(uint32 triggerMode)
1226:Generated_Source\PSoC4/AppDelay.c **** {
1227:Generated_Source\PSoC4/AppDelay.c ****     uint8 enableInterrupts;
1228:Generated_Source\PSoC4/AppDelay.c **** 
1229:Generated_Source\PSoC4/AppDelay.c ****     enableInterrupts = CyEnterCriticalSection();
1230:Generated_Source\PSoC4/AppDelay.c **** 
1231:Generated_Source\PSoC4/AppDelay.c ****     AppDelay_TRIG_CONTROL1_REG &= (uint32)~AppDelay_COUNT_MASK;
1232:Generated_Source\PSoC4/AppDelay.c ****     AppDelay_TRIG_CONTROL1_REG |= ((uint32)(triggerMode << AppDelay_COUNT_SHIFT));
1233:Generated_Source\PSoC4/AppDelay.c **** 
1234:Generated_Source\PSoC4/AppDelay.c ****     CyExitCriticalSection(enableInterrupts);
1235:Generated_Source\PSoC4/AppDelay.c **** }
1236:Generated_Source\PSoC4/AppDelay.c **** 
1237:Generated_Source\PSoC4/AppDelay.c **** 
1238:Generated_Source\PSoC4/AppDelay.c **** /*******************************************************************************
1239:Generated_Source\PSoC4/AppDelay.c **** * Function Name: AppDelay_TriggerCommand
1240:Generated_Source\PSoC4/AppDelay.c **** ********************************************************************************
1241:Generated_Source\PSoC4/AppDelay.c **** *
1242:Generated_Source\PSoC4/AppDelay.c **** * Summary:
1243:Generated_Source\PSoC4/AppDelay.c **** *  Triggers the designated command to occur on the designated TCPWM instances.
1244:Generated_Source\PSoC4/AppDelay.c **** *  The mask can be used to apply this command simultaneously to more than one
1245:Generated_Source\PSoC4/AppDelay.c **** *  instance.  This allows multiple TCPWM instances to be synchronized.
1246:Generated_Source\PSoC4/AppDelay.c **** *
1247:Generated_Source\PSoC4/AppDelay.c **** * Parameters:
1248:Generated_Source\PSoC4/AppDelay.c **** *  mask: A combination of mask bits for each instance of the TCPWM that the
1249:Generated_Source\PSoC4/AppDelay.c **** *        command should apply to.  This function from one instance can be used
1250:Generated_Source\PSoC4/AppDelay.c **** *        to apply the command to any of the instances in the design.
1251:Generated_Source\PSoC4/AppDelay.c **** *        The mask value for a specific instance is available with the MASK
1252:Generated_Source\PSoC4/AppDelay.c **** *        define.
1253:Generated_Source\PSoC4/AppDelay.c **** *  command: Enumerated command values. Capture command only applicable for
1254:Generated_Source\PSoC4/AppDelay.c **** *           Timer/Counter with Capture and PWM modes.
1255:Generated_Source\PSoC4/AppDelay.c **** *   Values:
1256:Generated_Source\PSoC4/AppDelay.c **** *     - AppDelay_CMD_CAPTURE    - Trigger Capture/Switch command
1257:Generated_Source\PSoC4/AppDelay.c **** *     - AppDelay_CMD_RELOAD     - Trigger Reload/Index command
1258:Generated_Source\PSoC4/AppDelay.c **** *     - AppDelay_CMD_STOP       - Trigger Stop/Kill command
1259:Generated_Source\PSoC4/AppDelay.c **** *     - AppDelay_CMD_START      - Trigger Start/phiB command
1260:Generated_Source\PSoC4/AppDelay.c **** *
1261:Generated_Source\PSoC4/AppDelay.c **** * Return:
1262:Generated_Source\PSoC4/AppDelay.c **** *  None
1263:Generated_Source\PSoC4/AppDelay.c **** *
1264:Generated_Source\PSoC4/AppDelay.c **** *******************************************************************************/
1265:Generated_Source\PSoC4/AppDelay.c **** void AppDelay_TriggerCommand(uint32 mask, uint32 command)
1266:Generated_Source\PSoC4/AppDelay.c **** {
1267:Generated_Source\PSoC4/AppDelay.c ****     uint8 enableInterrupts;
1268:Generated_Source\PSoC4/AppDelay.c **** 
ARM GAS  C:\Users\Petro\AppData\Local\Temp\ccDwqNKG.s 			page 24


1269:Generated_Source\PSoC4/AppDelay.c ****     enableInterrupts = CyEnterCriticalSection();
1270:Generated_Source\PSoC4/AppDelay.c **** 
1271:Generated_Source\PSoC4/AppDelay.c ****     AppDelay_COMMAND_REG = ((uint32)(mask << command));
1272:Generated_Source\PSoC4/AppDelay.c **** 
1273:Generated_Source\PSoC4/AppDelay.c ****     CyExitCriticalSection(enableInterrupts);
1274:Generated_Source\PSoC4/AppDelay.c **** }
1275:Generated_Source\PSoC4/AppDelay.c **** 
1276:Generated_Source\PSoC4/AppDelay.c **** 
1277:Generated_Source\PSoC4/AppDelay.c **** /*******************************************************************************
1278:Generated_Source\PSoC4/AppDelay.c **** * Function Name: AppDelay_ReadStatus
1279:Generated_Source\PSoC4/AppDelay.c **** ********************************************************************************
1280:Generated_Source\PSoC4/AppDelay.c **** *
1281:Generated_Source\PSoC4/AppDelay.c **** * Summary:
1282:Generated_Source\PSoC4/AppDelay.c **** *  Reads the status of the AppDelay.
1283:Generated_Source\PSoC4/AppDelay.c **** *
1284:Generated_Source\PSoC4/AppDelay.c **** * Parameters:
1285:Generated_Source\PSoC4/AppDelay.c **** *  None
1286:Generated_Source\PSoC4/AppDelay.c **** *
1287:Generated_Source\PSoC4/AppDelay.c **** * Return:
1288:Generated_Source\PSoC4/AppDelay.c **** *  Status
1289:Generated_Source\PSoC4/AppDelay.c **** *   Values:
1290:Generated_Source\PSoC4/AppDelay.c **** *     - AppDelay_STATUS_DOWN    - Set if counting down
1291:Generated_Source\PSoC4/AppDelay.c **** *     - AppDelay_STATUS_RUNNING - Set if counter is running
1292:Generated_Source\PSoC4/AppDelay.c **** *
1293:Generated_Source\PSoC4/AppDelay.c **** *******************************************************************************/
1294:Generated_Source\PSoC4/AppDelay.c **** uint32 AppDelay_ReadStatus(void)
1295:Generated_Source\PSoC4/AppDelay.c **** {
1296:Generated_Source\PSoC4/AppDelay.c ****     return ((AppDelay_STATUS_REG >> AppDelay_RUNNING_STATUS_SHIFT) |
1297:Generated_Source\PSoC4/AppDelay.c ****             (AppDelay_STATUS_REG & AppDelay_STATUS_DOWN));
1298:Generated_Source\PSoC4/AppDelay.c **** }
1299:Generated_Source\PSoC4/AppDelay.c **** 
1300:Generated_Source\PSoC4/AppDelay.c **** 
1301:Generated_Source\PSoC4/AppDelay.c **** /*******************************************************************************
1302:Generated_Source\PSoC4/AppDelay.c **** * Function Name: AppDelay_SetInterruptMode
1303:Generated_Source\PSoC4/AppDelay.c **** ********************************************************************************
1304:Generated_Source\PSoC4/AppDelay.c **** *
1305:Generated_Source\PSoC4/AppDelay.c **** * Summary:
1306:Generated_Source\PSoC4/AppDelay.c **** *  Sets the interrupt mask to control which interrupt
1307:Generated_Source\PSoC4/AppDelay.c **** *  requests generate the interrupt signal.
1308:Generated_Source\PSoC4/AppDelay.c **** *
1309:Generated_Source\PSoC4/AppDelay.c **** * Parameters:
1310:Generated_Source\PSoC4/AppDelay.c **** *   interruptMask: Mask of bits to be enabled
1311:Generated_Source\PSoC4/AppDelay.c **** *   Values:
1312:Generated_Source\PSoC4/AppDelay.c **** *     - AppDelay_INTR_MASK_TC       - Terminal count mask
1313:Generated_Source\PSoC4/AppDelay.c **** *     - AppDelay_INTR_MASK_CC_MATCH - Compare count / capture mask
1314:Generated_Source\PSoC4/AppDelay.c **** *
1315:Generated_Source\PSoC4/AppDelay.c **** * Return:
1316:Generated_Source\PSoC4/AppDelay.c **** *  None
1317:Generated_Source\PSoC4/AppDelay.c **** *
1318:Generated_Source\PSoC4/AppDelay.c **** *******************************************************************************/
1319:Generated_Source\PSoC4/AppDelay.c **** void AppDelay_SetInterruptMode(uint32 interruptMask)
1320:Generated_Source\PSoC4/AppDelay.c **** {
1321:Generated_Source\PSoC4/AppDelay.c ****     AppDelay_INTERRUPT_MASK_REG =  interruptMask;
  43              		.loc 1 1321 0
  44 000e 0022     		mov	r2, #0
  45 0010 064B     		ldr	r3, .L2+8
  46 0012 1A60     		str	r2, [r3]
ARM GAS  C:\Users\Petro\AppData\Local\Temp\ccDwqNKG.s 			page 25


  47              	.LVL1:
  48              	.LBE11:
  49              	.LBE10:
  50              	.LBB12:
  51              	.LBB13:
 695:Generated_Source\PSoC4/AppDelay.c **** }
  52              		.loc 1 695 0
  53 0014 064B     		ldr	r3, .L2+12
  54 0016 074A     		ldr	r2, .L2+16
  55 0018 1360     		str	r3, [r2]
  56              	.LVL2:
  57              	.LBE13:
  58              	.LBE12:
  59              	.LBB14:
  60              	.LBB15:
 873:Generated_Source\PSoC4/AppDelay.c **** }
  61              		.loc 1 873 0
  62 001a 074A     		ldr	r2, .L2+20
  63 001c 1360     		str	r3, [r2]
  64              	.LVL3:
  65              	.LBE15:
  66              	.LBE14:
  67              	.LBB16:
  68              	.LBB17:
 617:Generated_Source\PSoC4/AppDelay.c **** }
  69              		.loc 1 617 0
  70 001e 074A     		ldr	r2, .L2+24
  71 0020 1360     		str	r3, [r2]
  72              	.LBE17:
  73              	.LBE16:
 160:Generated_Source\PSoC4/AppDelay.c **** 
  74              		.loc 1 160 0
  75 0022 7047     		bx	lr
  76              	.L3:
  77              		.align	2
  78              	.L2:
  79 0024 40012040 		.word	1075839296
  80 0028 64012040 		.word	1075839332
  81 002c 78012040 		.word	1075839352
  82 0030 E8FD0000 		.word	65000
  83 0034 54012040 		.word	1075839316
  84 0038 4C012040 		.word	1075839308
  85 003c 48012040 		.word	1075839304
  86              		.cfi_endproc
  87              	.LFE2:
  88              		.size	AppDelay_Init, .-AppDelay_Init
  89              		.section	.text.AppDelay_Stop,"ax",%progbits
  90              		.align	1
  91              		.global	AppDelay_Stop
  92              		.code	16
  93              		.thumb_func
  94              		.type	AppDelay_Stop, %function
  95              	AppDelay_Stop:
  96              	.LFB5:
 257:Generated_Source\PSoC4/AppDelay.c ****     uint8 enableInterrupts;
  97              		.loc 1 257 0
  98              		.cfi_startproc
ARM GAS  C:\Users\Petro\AppData\Local\Temp\ccDwqNKG.s 			page 26


  99 0000 08B5     		push	{r3, lr}
 100              		.cfi_def_cfa_offset 8
 101              		.cfi_offset 3, -8
 102              		.cfi_offset 14, -4
 260:Generated_Source\PSoC4/AppDelay.c **** 
 103              		.loc 1 260 0
 104 0002 FFF7FEFF 		bl	CyEnterCriticalSection
 105              	.LVL4:
 262:Generated_Source\PSoC4/AppDelay.c **** 
 106              		.loc 1 262 0
 107 0006 0221     		mov	r1, #2
 108 0008 034A     		ldr	r2, .L5
 265:Generated_Source\PSoC4/AppDelay.c **** 
 109              		.loc 1 265 0
 110              		@ sp needed
 262:Generated_Source\PSoC4/AppDelay.c **** 
 111              		.loc 1 262 0
 112 000a 1368     		ldr	r3, [r2]
 113 000c 8B43     		bic	r3, r1
 114 000e 1360     		str	r3, [r2]
 264:Generated_Source\PSoC4/AppDelay.c **** }
 115              		.loc 1 264 0
 116 0010 FFF7FEFF 		bl	CyExitCriticalSection
 117              	.LVL5:
 265:Generated_Source\PSoC4/AppDelay.c **** 
 118              		.loc 1 265 0
 119 0014 08BD     		pop	{r3, pc}
 120              	.L6:
 121 0016 C046     		.align	2
 122              	.L5:
 123 0018 00002040 		.word	1075838976
 124              		.cfi_endproc
 125              	.LFE5:
 126              		.size	AppDelay_Stop, .-AppDelay_Stop
 127              		.section	.text.AppDelay_SetMode,"ax",%progbits
 128              		.align	1
 129              		.global	AppDelay_SetMode
 130              		.code	16
 131              		.thumb_func
 132              		.type	AppDelay_SetMode, %function
 133              	AppDelay_SetMode:
 134              	.LFB6:
 294:Generated_Source\PSoC4/AppDelay.c ****     uint8 enableInterrupts;
 135              		.loc 1 294 0
 136              		.cfi_startproc
 137              	.LVL6:
 138 0000 10B5     		push	{r4, lr}
 139              		.cfi_def_cfa_offset 8
 140              		.cfi_offset 4, -8
 141              		.cfi_offset 14, -4
 294:Generated_Source\PSoC4/AppDelay.c ****     uint8 enableInterrupts;
 142              		.loc 1 294 0
 143 0002 041C     		mov	r4, r0
 297:Generated_Source\PSoC4/AppDelay.c **** 
 144              		.loc 1 297 0
 145 0004 FFF7FEFF 		bl	CyEnterCriticalSection
 146              	.LVL7:
ARM GAS  C:\Users\Petro\AppData\Local\Temp\ccDwqNKG.s 			page 27


 299:Generated_Source\PSoC4/AppDelay.c ****     AppDelay_CONTROL_REG |= mode;
 147              		.loc 1 299 0
 148 0008 054B     		ldr	r3, .L8
 149 000a 064A     		ldr	r2, .L8+4
 150 000c 1968     		ldr	r1, [r3]
 303:Generated_Source\PSoC4/AppDelay.c **** 
 151              		.loc 1 303 0
 152              		@ sp needed
 299:Generated_Source\PSoC4/AppDelay.c ****     AppDelay_CONTROL_REG |= mode;
 153              		.loc 1 299 0
 154 000e 0A40     		and	r2, r1
 155 0010 1A60     		str	r2, [r3]
 300:Generated_Source\PSoC4/AppDelay.c **** 
 156              		.loc 1 300 0
 157 0012 1A68     		ldr	r2, [r3]
 158 0014 2243     		orr	r2, r4
 159 0016 1A60     		str	r2, [r3]
 302:Generated_Source\PSoC4/AppDelay.c **** }
 160              		.loc 1 302 0
 161 0018 FFF7FEFF 		bl	CyExitCriticalSection
 162              	.LVL8:
 163              	.LVL9:
 303:Generated_Source\PSoC4/AppDelay.c **** 
 164              		.loc 1 303 0
 165 001c 10BD     		pop	{r4, pc}
 166              	.L9:
 167 001e C046     		.align	2
 168              	.L8:
 169 0020 40012040 		.word	1075839296
 170 0024 FFFFFFF8 		.word	-117440513
 171              		.cfi_endproc
 172              	.LFE6:
 173              		.size	AppDelay_SetMode, .-AppDelay_SetMode
 174              		.section	.text.AppDelay_SetQDMode,"ax",%progbits
 175              		.align	1
 176              		.global	AppDelay_SetQDMode
 177              		.code	16
 178              		.thumb_func
 179              		.type	AppDelay_SetQDMode, %function
 180              	AppDelay_SetQDMode:
 181              	.LFB7:
 327:Generated_Source\PSoC4/AppDelay.c ****     uint8 enableInterrupts;
 182              		.loc 1 327 0
 183              		.cfi_startproc
 184              	.LVL10:
 185 0000 10B5     		push	{r4, lr}
 186              		.cfi_def_cfa_offset 8
 187              		.cfi_offset 4, -8
 188              		.cfi_offset 14, -4
 327:Generated_Source\PSoC4/AppDelay.c ****     uint8 enableInterrupts;
 189              		.loc 1 327 0
 190 0002 041C     		mov	r4, r0
 330:Generated_Source\PSoC4/AppDelay.c **** 
 191              		.loc 1 330 0
 192 0004 FFF7FEFF 		bl	CyEnterCriticalSection
 193              	.LVL11:
 332:Generated_Source\PSoC4/AppDelay.c ****     AppDelay_CONTROL_REG |= qdMode;
ARM GAS  C:\Users\Petro\AppData\Local\Temp\ccDwqNKG.s 			page 28


 194              		.loc 1 332 0
 195 0008 054B     		ldr	r3, .L11
 196 000a 064A     		ldr	r2, .L11+4
 197 000c 1968     		ldr	r1, [r3]
 336:Generated_Source\PSoC4/AppDelay.c **** 
 198              		.loc 1 336 0
 199              		@ sp needed
 332:Generated_Source\PSoC4/AppDelay.c ****     AppDelay_CONTROL_REG |= qdMode;
 200              		.loc 1 332 0
 201 000e 0A40     		and	r2, r1
 202 0010 1A60     		str	r2, [r3]
 333:Generated_Source\PSoC4/AppDelay.c **** 
 203              		.loc 1 333 0
 204 0012 1A68     		ldr	r2, [r3]
 205 0014 2243     		orr	r2, r4
 206 0016 1A60     		str	r2, [r3]
 335:Generated_Source\PSoC4/AppDelay.c **** }
 207              		.loc 1 335 0
 208 0018 FFF7FEFF 		bl	CyExitCriticalSection
 209              	.LVL12:
 210              	.LVL13:
 336:Generated_Source\PSoC4/AppDelay.c **** 
 211              		.loc 1 336 0
 212 001c 10BD     		pop	{r4, pc}
 213              	.L12:
 214 001e C046     		.align	2
 215              	.L11:
 216 0020 40012040 		.word	1075839296
 217 0024 FFFF8FFF 		.word	-7340033
 218              		.cfi_endproc
 219              	.LFE7:
 220              		.size	AppDelay_SetQDMode, .-AppDelay_SetQDMode
 221              		.section	.text.AppDelay_SetPrescaler,"ax",%progbits
 222              		.align	1
 223              		.global	AppDelay_SetPrescaler
 224              		.code	16
 225              		.thumb_func
 226              		.type	AppDelay_SetPrescaler, %function
 227              	AppDelay_SetPrescaler:
 228              	.LFB8:
 364:Generated_Source\PSoC4/AppDelay.c ****     uint8 enableInterrupts;
 229              		.loc 1 364 0
 230              		.cfi_startproc
 231              	.LVL14:
 232 0000 10B5     		push	{r4, lr}
 233              		.cfi_def_cfa_offset 8
 234              		.cfi_offset 4, -8
 235              		.cfi_offset 14, -4
 364:Generated_Source\PSoC4/AppDelay.c ****     uint8 enableInterrupts;
 236              		.loc 1 364 0
 237 0002 041C     		mov	r4, r0
 367:Generated_Source\PSoC4/AppDelay.c **** 
 238              		.loc 1 367 0
 239 0004 FFF7FEFF 		bl	CyEnterCriticalSection
 240              	.LVL15:
 369:Generated_Source\PSoC4/AppDelay.c ****     AppDelay_CONTROL_REG |= prescaler;
 241              		.loc 1 369 0
ARM GAS  C:\Users\Petro\AppData\Local\Temp\ccDwqNKG.s 			page 29


 242 0008 054B     		ldr	r3, .L14
 243 000a 064A     		ldr	r2, .L14+4
 244 000c 1968     		ldr	r1, [r3]
 373:Generated_Source\PSoC4/AppDelay.c **** 
 245              		.loc 1 373 0
 246              		@ sp needed
 369:Generated_Source\PSoC4/AppDelay.c ****     AppDelay_CONTROL_REG |= prescaler;
 247              		.loc 1 369 0
 248 000e 0A40     		and	r2, r1
 249 0010 1A60     		str	r2, [r3]
 370:Generated_Source\PSoC4/AppDelay.c **** 
 250              		.loc 1 370 0
 251 0012 1A68     		ldr	r2, [r3]
 252 0014 2243     		orr	r2, r4
 253 0016 1A60     		str	r2, [r3]
 372:Generated_Source\PSoC4/AppDelay.c **** }
 254              		.loc 1 372 0
 255 0018 FFF7FEFF 		bl	CyExitCriticalSection
 256              	.LVL16:
 257              	.LVL17:
 373:Generated_Source\PSoC4/AppDelay.c **** 
 258              		.loc 1 373 0
 259 001c 10BD     		pop	{r4, pc}
 260              	.L15:
 261 001e C046     		.align	2
 262              	.L14:
 263 0020 40012040 		.word	1075839296
 264 0024 FF00FFFF 		.word	-65281
 265              		.cfi_endproc
 266              	.LFE8:
 267              		.size	AppDelay_SetPrescaler, .-AppDelay_SetPrescaler
 268              		.section	.text.AppDelay_SetOneShot,"ax",%progbits
 269              		.align	1
 270              		.global	AppDelay_SetOneShot
 271              		.code	16
 272              		.thumb_func
 273              		.type	AppDelay_SetOneShot, %function
 274              	AppDelay_SetOneShot:
 275              	.LFB9:
 396:Generated_Source\PSoC4/AppDelay.c ****     uint8 enableInterrupts;
 276              		.loc 1 396 0
 277              		.cfi_startproc
 278              	.LVL18:
 279 0000 10B5     		push	{r4, lr}
 280              		.cfi_def_cfa_offset 8
 281              		.cfi_offset 4, -8
 282              		.cfi_offset 14, -4
 396:Generated_Source\PSoC4/AppDelay.c ****     uint8 enableInterrupts;
 283              		.loc 1 396 0
 284 0002 041C     		mov	r4, r0
 399:Generated_Source\PSoC4/AppDelay.c **** 
 285              		.loc 1 399 0
 286 0004 FFF7FEFF 		bl	CyEnterCriticalSection
 287              	.LVL19:
 401:Generated_Source\PSoC4/AppDelay.c ****     AppDelay_CONTROL_REG |= ((uint32)((oneShotEnable & AppDelay_1BIT_MASK) <<
 288              		.loc 1 401 0
 289 0008 064A     		ldr	r2, .L17
ARM GAS  C:\Users\Petro\AppData\Local\Temp\ccDwqNKG.s 			page 30


 290 000a 074B     		ldr	r3, .L17+4
 291 000c 1168     		ldr	r1, [r2]
 406:Generated_Source\PSoC4/AppDelay.c **** 
 292              		.loc 1 406 0
 293              		@ sp needed
 401:Generated_Source\PSoC4/AppDelay.c ****     AppDelay_CONTROL_REG |= ((uint32)((oneShotEnable & AppDelay_1BIT_MASK) <<
 294              		.loc 1 401 0
 295 000e 0B40     		and	r3, r1
 296 0010 1360     		str	r3, [r2]
 402:Generated_Source\PSoC4/AppDelay.c ****                                                                AppDelay_ONESHOT_SHIFT));
 297              		.loc 1 402 0
 298 0012 0123     		mov	r3, #1
 299 0014 1168     		ldr	r1, [r2]
 300 0016 2340     		and	r3, r4
 301 0018 9B04     		lsl	r3, r3, #18
 302 001a 0B43     		orr	r3, r1
 303 001c 1360     		str	r3, [r2]
 405:Generated_Source\PSoC4/AppDelay.c **** }
 304              		.loc 1 405 0
 305 001e FFF7FEFF 		bl	CyExitCriticalSection
 306              	.LVL20:
 307              	.LVL21:
 406:Generated_Source\PSoC4/AppDelay.c **** 
 308              		.loc 1 406 0
 309 0022 10BD     		pop	{r4, pc}
 310              	.L18:
 311              		.align	2
 312              	.L17:
 313 0024 40012040 		.word	1075839296
 314 0028 FFFFFBFF 		.word	-262145
 315              		.cfi_endproc
 316              	.LFE9:
 317              		.size	AppDelay_SetOneShot, .-AppDelay_SetOneShot
 318              		.section	.text.AppDelay_SetPWMMode,"ax",%progbits
 319              		.align	1
 320              		.global	AppDelay_SetPWMMode
 321              		.code	16
 322              		.thumb_func
 323              		.type	AppDelay_SetPWMMode, %function
 324              	AppDelay_SetPWMMode:
 325              	.LFB10:
 450:Generated_Source\PSoC4/AppDelay.c ****     AppDelay_TRIG_CONTROL2_REG = (modeMask & AppDelay_6BIT_MASK);
 326              		.loc 1 450 0
 327              		.cfi_startproc
 328              	.LVL22:
 451:Generated_Source\PSoC4/AppDelay.c **** }
 329              		.loc 1 451 0
 330 0000 3F23     		mov	r3, #63
 331 0002 1840     		and	r0, r3
 332              	.LVL23:
 333 0004 014B     		ldr	r3, .L20
 452:Generated_Source\PSoC4/AppDelay.c **** 
 334              		.loc 1 452 0
 335              		@ sp needed
 451:Generated_Source\PSoC4/AppDelay.c **** }
 336              		.loc 1 451 0
 337 0006 1860     		str	r0, [r3]
ARM GAS  C:\Users\Petro\AppData\Local\Temp\ccDwqNKG.s 			page 31


 452:Generated_Source\PSoC4/AppDelay.c **** 
 338              		.loc 1 452 0
 339 0008 7047     		bx	lr
 340              	.L21:
 341 000a C046     		.align	2
 342              	.L20:
 343 000c 68012040 		.word	1075839336
 344              		.cfi_endproc
 345              	.LFE10:
 346              		.size	AppDelay_SetPWMMode, .-AppDelay_SetPWMMode
 347              		.section	.text.AppDelay_SetPWMSyncKill,"ax",%progbits
 348              		.align	1
 349              		.global	AppDelay_SetPWMSyncKill
 350              		.code	16
 351              		.thumb_func
 352              		.type	AppDelay_SetPWMSyncKill, %function
 353              	AppDelay_SetPWMSyncKill:
 354              	.LFB11:
 486:Generated_Source\PSoC4/AppDelay.c ****     uint8 enableInterrupts;
 355              		.loc 1 486 0
 356              		.cfi_startproc
 357              	.LVL24:
 358 0000 10B5     		push	{r4, lr}
 359              		.cfi_def_cfa_offset 8
 360              		.cfi_offset 4, -8
 361              		.cfi_offset 14, -4
 486:Generated_Source\PSoC4/AppDelay.c ****     uint8 enableInterrupts;
 362              		.loc 1 486 0
 363 0002 041C     		mov	r4, r0
 489:Generated_Source\PSoC4/AppDelay.c **** 
 364              		.loc 1 489 0
 365 0004 FFF7FEFF 		bl	CyEnterCriticalSection
 366              	.LVL25:
 491:Generated_Source\PSoC4/AppDelay.c ****     AppDelay_CONTROL_REG |= ((uint32)((syncKillEnable & AppDelay_1BIT_MASK)  <<
 367              		.loc 1 491 0
 368 0008 0421     		mov	r1, #4
 369 000a 064A     		ldr	r2, .L23
 496:Generated_Source\PSoC4/AppDelay.c **** 
 370              		.loc 1 496 0
 371              		@ sp needed
 491:Generated_Source\PSoC4/AppDelay.c ****     AppDelay_CONTROL_REG |= ((uint32)((syncKillEnable & AppDelay_1BIT_MASK)  <<
 372              		.loc 1 491 0
 373 000c 1368     		ldr	r3, [r2]
 374 000e 8B43     		bic	r3, r1
 375 0010 1360     		str	r3, [r2]
 492:Generated_Source\PSoC4/AppDelay.c ****                                                AppDelay_PWM_SYNC_KILL_SHIFT));
 376              		.loc 1 492 0
 377 0012 0123     		mov	r3, #1
 378 0014 1168     		ldr	r1, [r2]
 379 0016 2340     		and	r3, r4
 380 0018 9B00     		lsl	r3, r3, #2
 381 001a 0B43     		orr	r3, r1
 382 001c 1360     		str	r3, [r2]
 495:Generated_Source\PSoC4/AppDelay.c **** }
 383              		.loc 1 495 0
 384 001e FFF7FEFF 		bl	CyExitCriticalSection
 385              	.LVL26:
ARM GAS  C:\Users\Petro\AppData\Local\Temp\ccDwqNKG.s 			page 32


 386              	.LVL27:
 496:Generated_Source\PSoC4/AppDelay.c **** 
 387              		.loc 1 496 0
 388 0022 10BD     		pop	{r4, pc}
 389              	.L24:
 390              		.align	2
 391              	.L23:
 392 0024 40012040 		.word	1075839296
 393              		.cfi_endproc
 394              	.LFE11:
 395              		.size	AppDelay_SetPWMSyncKill, .-AppDelay_SetPWMSyncKill
 396              		.section	.text.AppDelay_SetPWMStopOnKill,"ax",%progbits
 397              		.align	1
 398              		.global	AppDelay_SetPWMStopOnKill
 399              		.code	16
 400              		.thumb_func
 401              		.type	AppDelay_SetPWMStopOnKill, %function
 402              	AppDelay_SetPWMStopOnKill:
 403              	.LFB12:
 520:Generated_Source\PSoC4/AppDelay.c ****     uint8 enableInterrupts;
 404              		.loc 1 520 0
 405              		.cfi_startproc
 406              	.LVL28:
 407 0000 10B5     		push	{r4, lr}
 408              		.cfi_def_cfa_offset 8
 409              		.cfi_offset 4, -8
 410              		.cfi_offset 14, -4
 520:Generated_Source\PSoC4/AppDelay.c ****     uint8 enableInterrupts;
 411              		.loc 1 520 0
 412 0002 041C     		mov	r4, r0
 523:Generated_Source\PSoC4/AppDelay.c **** 
 413              		.loc 1 523 0
 414 0004 FFF7FEFF 		bl	CyEnterCriticalSection
 415              	.LVL29:
 525:Generated_Source\PSoC4/AppDelay.c ****     AppDelay_CONTROL_REG |= ((uint32)((stopOnKillEnable & AppDelay_1BIT_MASK)  <<
 416              		.loc 1 525 0
 417 0008 0821     		mov	r1, #8
 418 000a 064A     		ldr	r2, .L26
 530:Generated_Source\PSoC4/AppDelay.c **** 
 419              		.loc 1 530 0
 420              		@ sp needed
 525:Generated_Source\PSoC4/AppDelay.c ****     AppDelay_CONTROL_REG |= ((uint32)((stopOnKillEnable & AppDelay_1BIT_MASK)  <<
 421              		.loc 1 525 0
 422 000c 1368     		ldr	r3, [r2]
 423 000e 8B43     		bic	r3, r1
 424 0010 1360     		str	r3, [r2]
 526:Generated_Source\PSoC4/AppDelay.c ****                                                          AppDelay_PWM_STOP_KILL_SHIFT));
 425              		.loc 1 526 0
 426 0012 0123     		mov	r3, #1
 427 0014 1168     		ldr	r1, [r2]
 428 0016 2340     		and	r3, r4
 429 0018 DB00     		lsl	r3, r3, #3
 430 001a 0B43     		orr	r3, r1
 431 001c 1360     		str	r3, [r2]
 529:Generated_Source\PSoC4/AppDelay.c **** }
 432              		.loc 1 529 0
 433 001e FFF7FEFF 		bl	CyExitCriticalSection
ARM GAS  C:\Users\Petro\AppData\Local\Temp\ccDwqNKG.s 			page 33


 434              	.LVL30:
 435              	.LVL31:
 530:Generated_Source\PSoC4/AppDelay.c **** 
 436              		.loc 1 530 0
 437 0022 10BD     		pop	{r4, pc}
 438              	.L27:
 439              		.align	2
 440              	.L26:
 441 0024 40012040 		.word	1075839296
 442              		.cfi_endproc
 443              	.LFE12:
 444              		.size	AppDelay_SetPWMStopOnKill, .-AppDelay_SetPWMStopOnKill
 445              		.section	.text.AppDelay_SetPWMDeadTime,"ax",%progbits
 446              		.align	1
 447              		.global	AppDelay_SetPWMDeadTime
 448              		.code	16
 449              		.thumb_func
 450              		.type	AppDelay_SetPWMDeadTime, %function
 451              	AppDelay_SetPWMDeadTime:
 452              	.LFB13:
 553:Generated_Source\PSoC4/AppDelay.c ****     uint8 enableInterrupts;
 453              		.loc 1 553 0
 454              		.cfi_startproc
 455              	.LVL32:
 456 0000 10B5     		push	{r4, lr}
 457              		.cfi_def_cfa_offset 8
 458              		.cfi_offset 4, -8
 459              		.cfi_offset 14, -4
 553:Generated_Source\PSoC4/AppDelay.c ****     uint8 enableInterrupts;
 460              		.loc 1 553 0
 461 0002 041C     		mov	r4, r0
 556:Generated_Source\PSoC4/AppDelay.c **** 
 462              		.loc 1 556 0
 463 0004 FFF7FEFF 		bl	CyEnterCriticalSection
 464              	.LVL33:
 558:Generated_Source\PSoC4/AppDelay.c ****     AppDelay_CONTROL_REG |= ((uint32)((deadTime & AppDelay_8BIT_MASK) <<
 465              		.loc 1 558 0
 466 0008 064B     		ldr	r3, .L29
 467 000a 074A     		ldr	r2, .L29+4
 468 000c 1968     		ldr	r1, [r3]
 559:Generated_Source\PSoC4/AppDelay.c ****                                                           AppDelay_PRESCALER_SHIFT));
 469              		.loc 1 559 0
 470 000e 2406     		lsl	r4, r4, #24
 471              	.LVL34:
 558:Generated_Source\PSoC4/AppDelay.c ****     AppDelay_CONTROL_REG |= ((uint32)((deadTime & AppDelay_8BIT_MASK) <<
 472              		.loc 1 558 0
 473 0010 0A40     		and	r2, r1
 474 0012 1A60     		str	r2, [r3]
 559:Generated_Source\PSoC4/AppDelay.c ****                                                           AppDelay_PRESCALER_SHIFT));
 475              		.loc 1 559 0
 476 0014 1A68     		ldr	r2, [r3]
 477 0016 240C     		lsr	r4, r4, #16
 478 0018 1443     		orr	r4, r2
 479 001a 1C60     		str	r4, [r3]
 562:Generated_Source\PSoC4/AppDelay.c **** }
 480              		.loc 1 562 0
 481 001c FFF7FEFF 		bl	CyExitCriticalSection
ARM GAS  C:\Users\Petro\AppData\Local\Temp\ccDwqNKG.s 			page 34


 482              	.LVL35:
 563:Generated_Source\PSoC4/AppDelay.c **** 
 483              		.loc 1 563 0
 484              		@ sp needed
 485 0020 10BD     		pop	{r4, pc}
 486              	.L30:
 487 0022 C046     		.align	2
 488              	.L29:
 489 0024 40012040 		.word	1075839296
 490 0028 FF00FFFF 		.word	-65281
 491              		.cfi_endproc
 492              	.LFE13:
 493              		.size	AppDelay_SetPWMDeadTime, .-AppDelay_SetPWMDeadTime
 494              		.section	.text.AppDelay_SetPWMInvert,"ax",%progbits
 495              		.align	1
 496              		.global	AppDelay_SetPWMInvert
 497              		.code	16
 498              		.thumb_func
 499              		.type	AppDelay_SetPWMInvert, %function
 500              	AppDelay_SetPWMInvert:
 501              	.LFB14:
 586:Generated_Source\PSoC4/AppDelay.c ****     uint8 enableInterrupts;
 502              		.loc 1 586 0
 503              		.cfi_startproc
 504              	.LVL36:
 505 0000 10B5     		push	{r4, lr}
 506              		.cfi_def_cfa_offset 8
 507              		.cfi_offset 4, -8
 508              		.cfi_offset 14, -4
 586:Generated_Source\PSoC4/AppDelay.c ****     uint8 enableInterrupts;
 509              		.loc 1 586 0
 510 0002 041C     		mov	r4, r0
 589:Generated_Source\PSoC4/AppDelay.c **** 
 511              		.loc 1 589 0
 512 0004 FFF7FEFF 		bl	CyEnterCriticalSection
 513              	.LVL37:
 591:Generated_Source\PSoC4/AppDelay.c ****     AppDelay_CONTROL_REG |= mask;
 514              		.loc 1 591 0
 515 0008 054B     		ldr	r3, .L32
 516 000a 064A     		ldr	r2, .L32+4
 517 000c 1968     		ldr	r1, [r3]
 595:Generated_Source\PSoC4/AppDelay.c **** 
 518              		.loc 1 595 0
 519              		@ sp needed
 591:Generated_Source\PSoC4/AppDelay.c ****     AppDelay_CONTROL_REG |= mask;
 520              		.loc 1 591 0
 521 000e 0A40     		and	r2, r1
 522 0010 1A60     		str	r2, [r3]
 592:Generated_Source\PSoC4/AppDelay.c **** 
 523              		.loc 1 592 0
 524 0012 1A68     		ldr	r2, [r3]
 525 0014 2243     		orr	r2, r4
 526 0016 1A60     		str	r2, [r3]
 594:Generated_Source\PSoC4/AppDelay.c **** }
 527              		.loc 1 594 0
 528 0018 FFF7FEFF 		bl	CyExitCriticalSection
 529              	.LVL38:
ARM GAS  C:\Users\Petro\AppData\Local\Temp\ccDwqNKG.s 			page 35


 530              	.LVL39:
 595:Generated_Source\PSoC4/AppDelay.c **** 
 531              		.loc 1 595 0
 532 001c 10BD     		pop	{r4, pc}
 533              	.L33:
 534 001e C046     		.align	2
 535              	.L32:
 536 0020 40012040 		.word	1075839296
 537 0024 FFFFCFFF 		.word	-3145729
 538              		.cfi_endproc
 539              	.LFE14:
 540              		.size	AppDelay_SetPWMInvert, .-AppDelay_SetPWMInvert
 541              		.section	.text.AppDelay_WriteCounter,"ax",%progbits
 542              		.align	1
 543              		.global	AppDelay_WriteCounter
 544              		.code	16
 545              		.thumb_func
 546              		.type	AppDelay_WriteCounter, %function
 547              	AppDelay_WriteCounter:
 548              	.LFB15:
 616:Generated_Source\PSoC4/AppDelay.c ****     AppDelay_COUNTER_REG = (count & AppDelay_16BIT_MASK);
 549              		.loc 1 616 0
 550              		.cfi_startproc
 551              	.LVL40:
 617:Generated_Source\PSoC4/AppDelay.c **** }
 552              		.loc 1 617 0
 553 0000 014B     		ldr	r3, .L35
 554 0002 80B2     		uxth	r0, r0
 555              	.LVL41:
 556 0004 1860     		str	r0, [r3]
 618:Generated_Source\PSoC4/AppDelay.c **** 
 557              		.loc 1 618 0
 558              		@ sp needed
 559 0006 7047     		bx	lr
 560              	.L36:
 561              		.align	2
 562              	.L35:
 563 0008 48012040 		.word	1075839304
 564              		.cfi_endproc
 565              	.LFE15:
 566              		.size	AppDelay_WriteCounter, .-AppDelay_WriteCounter
 567              		.section	.text.AppDelay_ReadCounter,"ax",%progbits
 568              		.align	1
 569              		.global	AppDelay_ReadCounter
 570              		.code	16
 571              		.thumb_func
 572              		.type	AppDelay_ReadCounter, %function
 573              	AppDelay_ReadCounter:
 574              	.LFB16:
 636:Generated_Source\PSoC4/AppDelay.c ****     return (AppDelay_COUNTER_REG & AppDelay_16BIT_MASK);
 575              		.loc 1 636 0
 576              		.cfi_startproc
 637:Generated_Source\PSoC4/AppDelay.c **** }
 577              		.loc 1 637 0
 578 0000 014B     		ldr	r3, .L38
 638:Generated_Source\PSoC4/AppDelay.c **** 
 579              		.loc 1 638 0
ARM GAS  C:\Users\Petro\AppData\Local\Temp\ccDwqNKG.s 			page 36


 580              		@ sp needed
 637:Generated_Source\PSoC4/AppDelay.c **** }
 581              		.loc 1 637 0
 582 0002 1868     		ldr	r0, [r3]
 583 0004 80B2     		uxth	r0, r0
 638:Generated_Source\PSoC4/AppDelay.c **** 
 584              		.loc 1 638 0
 585 0006 7047     		bx	lr
 586              	.L39:
 587              		.align	2
 588              	.L38:
 589 0008 48012040 		.word	1075839304
 590              		.cfi_endproc
 591              	.LFE16:
 592              		.size	AppDelay_ReadCounter, .-AppDelay_ReadCounter
 593              		.section	.text.AppDelay_SetCounterMode,"ax",%progbits
 594              		.align	1
 595              		.global	AppDelay_SetCounterMode
 596              		.code	16
 597              		.thumb_func
 598              		.type	AppDelay_SetCounterMode, %function
 599              	AppDelay_SetCounterMode:
 600              	.LFB17:
 665:Generated_Source\PSoC4/AppDelay.c ****     uint8 enableInterrupts;
 601              		.loc 1 665 0
 602              		.cfi_startproc
 603              	.LVL42:
 604 0000 10B5     		push	{r4, lr}
 605              		.cfi_def_cfa_offset 8
 606              		.cfi_offset 4, -8
 607              		.cfi_offset 14, -4
 665:Generated_Source\PSoC4/AppDelay.c ****     uint8 enableInterrupts;
 608              		.loc 1 665 0
 609 0002 041C     		mov	r4, r0
 668:Generated_Source\PSoC4/AppDelay.c **** 
 610              		.loc 1 668 0
 611 0004 FFF7FEFF 		bl	CyEnterCriticalSection
 612              	.LVL43:
 670:Generated_Source\PSoC4/AppDelay.c ****     AppDelay_CONTROL_REG |= counterMode;
 613              		.loc 1 670 0
 614 0008 054B     		ldr	r3, .L41
 615 000a 064A     		ldr	r2, .L41+4
 616 000c 1968     		ldr	r1, [r3]
 674:Generated_Source\PSoC4/AppDelay.c **** 
 617              		.loc 1 674 0
 618              		@ sp needed
 670:Generated_Source\PSoC4/AppDelay.c ****     AppDelay_CONTROL_REG |= counterMode;
 619              		.loc 1 670 0
 620 000e 0A40     		and	r2, r1
 621 0010 1A60     		str	r2, [r3]
 671:Generated_Source\PSoC4/AppDelay.c **** 
 622              		.loc 1 671 0
 623 0012 1A68     		ldr	r2, [r3]
 624 0014 2243     		orr	r2, r4
 625 0016 1A60     		str	r2, [r3]
 673:Generated_Source\PSoC4/AppDelay.c **** }
 626              		.loc 1 673 0
ARM GAS  C:\Users\Petro\AppData\Local\Temp\ccDwqNKG.s 			page 37


 627 0018 FFF7FEFF 		bl	CyExitCriticalSection
 628              	.LVL44:
 629              	.LVL45:
 674:Generated_Source\PSoC4/AppDelay.c **** 
 630              		.loc 1 674 0
 631 001c 10BD     		pop	{r4, pc}
 632              	.L42:
 633 001e C046     		.align	2
 634              	.L41:
 635 0020 40012040 		.word	1075839296
 636 0024 FFFFFCFF 		.word	-196609
 637              		.cfi_endproc
 638              	.LFE17:
 639              		.size	AppDelay_SetCounterMode, .-AppDelay_SetCounterMode
 640              		.section	.text.AppDelay_WritePeriod,"ax",%progbits
 641              		.align	1
 642              		.global	AppDelay_WritePeriod
 643              		.code	16
 644              		.thumb_func
 645              		.type	AppDelay_WritePeriod, %function
 646              	AppDelay_WritePeriod:
 647              	.LFB18:
 694:Generated_Source\PSoC4/AppDelay.c ****     AppDelay_PERIOD_REG = (period & AppDelay_16BIT_MASK);
 648              		.loc 1 694 0
 649              		.cfi_startproc
 650              	.LVL46:
 695:Generated_Source\PSoC4/AppDelay.c **** }
 651              		.loc 1 695 0
 652 0000 014B     		ldr	r3, .L44
 653 0002 80B2     		uxth	r0, r0
 654              	.LVL47:
 655 0004 1860     		str	r0, [r3]
 696:Generated_Source\PSoC4/AppDelay.c **** 
 656              		.loc 1 696 0
 657              		@ sp needed
 658 0006 7047     		bx	lr
 659              	.L45:
 660              		.align	2
 661              	.L44:
 662 0008 54012040 		.word	1075839316
 663              		.cfi_endproc
 664              	.LFE18:
 665              		.size	AppDelay_WritePeriod, .-AppDelay_WritePeriod
 666              		.section	.text.AppDelay_ReadPeriod,"ax",%progbits
 667              		.align	1
 668              		.global	AppDelay_ReadPeriod
 669              		.code	16
 670              		.thumb_func
 671              		.type	AppDelay_ReadPeriod, %function
 672              	AppDelay_ReadPeriod:
 673              	.LFB19:
 714:Generated_Source\PSoC4/AppDelay.c ****     return (AppDelay_PERIOD_REG & AppDelay_16BIT_MASK);
 674              		.loc 1 714 0
 675              		.cfi_startproc
 715:Generated_Source\PSoC4/AppDelay.c **** }
 676              		.loc 1 715 0
 677 0000 014B     		ldr	r3, .L47
ARM GAS  C:\Users\Petro\AppData\Local\Temp\ccDwqNKG.s 			page 38


 716:Generated_Source\PSoC4/AppDelay.c **** 
 678              		.loc 1 716 0
 679              		@ sp needed
 715:Generated_Source\PSoC4/AppDelay.c **** }
 680              		.loc 1 715 0
 681 0002 1868     		ldr	r0, [r3]
 682 0004 80B2     		uxth	r0, r0
 716:Generated_Source\PSoC4/AppDelay.c **** 
 683              		.loc 1 716 0
 684 0006 7047     		bx	lr
 685              	.L48:
 686              		.align	2
 687              	.L47:
 688 0008 54012040 		.word	1075839316
 689              		.cfi_endproc
 690              	.LFE19:
 691              		.size	AppDelay_ReadPeriod, .-AppDelay_ReadPeriod
 692              		.section	.text.AppDelay_SetCompareSwap,"ax",%progbits
 693              		.align	1
 694              		.global	AppDelay_SetCompareSwap
 695              		.code	16
 696              		.thumb_func
 697              		.type	AppDelay_SetCompareSwap, %function
 698              	AppDelay_SetCompareSwap:
 699              	.LFB20:
 740:Generated_Source\PSoC4/AppDelay.c ****     uint8 enableInterrupts;
 700              		.loc 1 740 0
 701              		.cfi_startproc
 702              	.LVL48:
 703 0000 10B5     		push	{r4, lr}
 704              		.cfi_def_cfa_offset 8
 705              		.cfi_offset 4, -8
 706              		.cfi_offset 14, -4
 740:Generated_Source\PSoC4/AppDelay.c ****     uint8 enableInterrupts;
 707              		.loc 1 740 0
 708 0002 041C     		mov	r4, r0
 743:Generated_Source\PSoC4/AppDelay.c **** 
 709              		.loc 1 743 0
 710 0004 FFF7FEFF 		bl	CyEnterCriticalSection
 711              	.LVL49:
 745:Generated_Source\PSoC4/AppDelay.c ****     AppDelay_CONTROL_REG |= (swapEnable & AppDelay_1BIT_MASK);
 712              		.loc 1 745 0
 713 0008 0122     		mov	r2, #1
 714 000a 054B     		ldr	r3, .L50
 749:Generated_Source\PSoC4/AppDelay.c **** 
 715              		.loc 1 749 0
 716              		@ sp needed
 745:Generated_Source\PSoC4/AppDelay.c ****     AppDelay_CONTROL_REG |= (swapEnable & AppDelay_1BIT_MASK);
 717              		.loc 1 745 0
 718 000c 1968     		ldr	r1, [r3]
 719 000e 9143     		bic	r1, r2
 720 0010 1960     		str	r1, [r3]
 746:Generated_Source\PSoC4/AppDelay.c **** 
 721              		.loc 1 746 0
 722 0012 1968     		ldr	r1, [r3]
 723 0014 2240     		and	r2, r4
 724 0016 0A43     		orr	r2, r1
ARM GAS  C:\Users\Petro\AppData\Local\Temp\ccDwqNKG.s 			page 39


 725 0018 1A60     		str	r2, [r3]
 748:Generated_Source\PSoC4/AppDelay.c **** }
 726              		.loc 1 748 0
 727 001a FFF7FEFF 		bl	CyExitCriticalSection
 728              	.LVL50:
 729              	.LVL51:
 749:Generated_Source\PSoC4/AppDelay.c **** 
 730              		.loc 1 749 0
 731 001e 10BD     		pop	{r4, pc}
 732              	.L51:
 733              		.align	2
 734              	.L50:
 735 0020 40012040 		.word	1075839296
 736              		.cfi_endproc
 737              	.LFE20:
 738              		.size	AppDelay_SetCompareSwap, .-AppDelay_SetCompareSwap
 739              		.section	.text.AppDelay_WritePeriodBuf,"ax",%progbits
 740              		.align	1
 741              		.global	AppDelay_WritePeriodBuf
 742              		.code	16
 743              		.thumb_func
 744              		.type	AppDelay_WritePeriodBuf, %function
 745              	AppDelay_WritePeriodBuf:
 746              	.LFB21:
 767:Generated_Source\PSoC4/AppDelay.c ****     AppDelay_PERIOD_BUF_REG = (periodBuf & AppDelay_16BIT_MASK);
 747              		.loc 1 767 0
 748              		.cfi_startproc
 749              	.LVL52:
 768:Generated_Source\PSoC4/AppDelay.c **** }
 750              		.loc 1 768 0
 751 0000 014B     		ldr	r3, .L53
 752 0002 80B2     		uxth	r0, r0
 753              	.LVL53:
 754 0004 1860     		str	r0, [r3]
 769:Generated_Source\PSoC4/AppDelay.c **** 
 755              		.loc 1 769 0
 756              		@ sp needed
 757 0006 7047     		bx	lr
 758              	.L54:
 759              		.align	2
 760              	.L53:
 761 0008 58012040 		.word	1075839320
 762              		.cfi_endproc
 763              	.LFE21:
 764              		.size	AppDelay_WritePeriodBuf, .-AppDelay_WritePeriodBuf
 765              		.section	.text.AppDelay_ReadPeriodBuf,"ax",%progbits
 766              		.align	1
 767              		.global	AppDelay_ReadPeriodBuf
 768              		.code	16
 769              		.thumb_func
 770              		.type	AppDelay_ReadPeriodBuf, %function
 771              	AppDelay_ReadPeriodBuf:
 772              	.LFB22:
 787:Generated_Source\PSoC4/AppDelay.c ****     return (AppDelay_PERIOD_BUF_REG & AppDelay_16BIT_MASK);
 773              		.loc 1 787 0
 774              		.cfi_startproc
 788:Generated_Source\PSoC4/AppDelay.c **** }
ARM GAS  C:\Users\Petro\AppData\Local\Temp\ccDwqNKG.s 			page 40


 775              		.loc 1 788 0
 776 0000 014B     		ldr	r3, .L56
 789:Generated_Source\PSoC4/AppDelay.c **** 
 777              		.loc 1 789 0
 778              		@ sp needed
 788:Generated_Source\PSoC4/AppDelay.c **** }
 779              		.loc 1 788 0
 780 0002 1868     		ldr	r0, [r3]
 781 0004 80B2     		uxth	r0, r0
 789:Generated_Source\PSoC4/AppDelay.c **** 
 782              		.loc 1 789 0
 783 0006 7047     		bx	lr
 784              	.L57:
 785              		.align	2
 786              	.L56:
 787 0008 58012040 		.word	1075839320
 788              		.cfi_endproc
 789              	.LFE22:
 790              		.size	AppDelay_ReadPeriodBuf, .-AppDelay_ReadPeriodBuf
 791              		.section	.text.AppDelay_SetPeriodSwap,"ax",%progbits
 792              		.align	1
 793              		.global	AppDelay_SetPeriodSwap
 794              		.code	16
 795              		.thumb_func
 796              		.type	AppDelay_SetPeriodSwap, %function
 797              	AppDelay_SetPeriodSwap:
 798              	.LFB23:
 813:Generated_Source\PSoC4/AppDelay.c ****     uint8 enableInterrupts;
 799              		.loc 1 813 0
 800              		.cfi_startproc
 801              	.LVL54:
 802 0000 10B5     		push	{r4, lr}
 803              		.cfi_def_cfa_offset 8
 804              		.cfi_offset 4, -8
 805              		.cfi_offset 14, -4
 813:Generated_Source\PSoC4/AppDelay.c ****     uint8 enableInterrupts;
 806              		.loc 1 813 0
 807 0002 041C     		mov	r4, r0
 816:Generated_Source\PSoC4/AppDelay.c **** 
 808              		.loc 1 816 0
 809 0004 FFF7FEFF 		bl	CyEnterCriticalSection
 810              	.LVL55:
 818:Generated_Source\PSoC4/AppDelay.c ****     AppDelay_CONTROL_REG |= ((uint32)((swapEnable & AppDelay_1BIT_MASK) <<
 811              		.loc 1 818 0
 812 0008 0221     		mov	r1, #2
 813 000a 064A     		ldr	r2, .L59
 823:Generated_Source\PSoC4/AppDelay.c **** 
 814              		.loc 1 823 0
 815              		@ sp needed
 818:Generated_Source\PSoC4/AppDelay.c ****     AppDelay_CONTROL_REG |= ((uint32)((swapEnable & AppDelay_1BIT_MASK) <<
 816              		.loc 1 818 0
 817 000c 1368     		ldr	r3, [r2]
 818 000e 8B43     		bic	r3, r1
 819 0010 1360     		str	r3, [r2]
 819:Generated_Source\PSoC4/AppDelay.c ****                                                             AppDelay_RELOAD_PERIOD_SHIFT));
 820              		.loc 1 819 0
 821 0012 0123     		mov	r3, #1
ARM GAS  C:\Users\Petro\AppData\Local\Temp\ccDwqNKG.s 			page 41


 822 0014 1168     		ldr	r1, [r2]
 823 0016 2340     		and	r3, r4
 824 0018 5B00     		lsl	r3, r3, #1
 825 001a 0B43     		orr	r3, r1
 826 001c 1360     		str	r3, [r2]
 822:Generated_Source\PSoC4/AppDelay.c **** }
 827              		.loc 1 822 0
 828 001e FFF7FEFF 		bl	CyExitCriticalSection
 829              	.LVL56:
 830              	.LVL57:
 823:Generated_Source\PSoC4/AppDelay.c **** 
 831              		.loc 1 823 0
 832 0022 10BD     		pop	{r4, pc}
 833              	.L60:
 834              		.align	2
 835              	.L59:
 836 0024 40012040 		.word	1075839296
 837              		.cfi_endproc
 838              	.LFE23:
 839              		.size	AppDelay_SetPeriodSwap, .-AppDelay_SetPeriodSwap
 840              		.section	.text.AppDelay_WriteCompare,"ax",%progbits
 841              		.align	1
 842              		.global	AppDelay_WriteCompare
 843              		.code	16
 844              		.thumb_func
 845              		.type	AppDelay_WriteCompare, %function
 846              	AppDelay_WriteCompare:
 847              	.LFB24:
 850:Generated_Source\PSoC4/AppDelay.c ****     #if (AppDelay_CY_TCPWM_4000)
 848              		.loc 1 850 0
 849              		.cfi_startproc
 850              	.LVL58:
 873:Generated_Source\PSoC4/AppDelay.c **** }
 851              		.loc 1 873 0
 852 0000 014B     		ldr	r3, .L62
 853 0002 80B2     		uxth	r0, r0
 854              	.LVL59:
 855 0004 1860     		str	r0, [r3]
 874:Generated_Source\PSoC4/AppDelay.c **** 
 856              		.loc 1 874 0
 857              		@ sp needed
 858 0006 7047     		bx	lr
 859              	.L63:
 860              		.align	2
 861              	.L62:
 862 0008 4C012040 		.word	1075839308
 863              		.cfi_endproc
 864              	.LFE24:
 865              		.size	AppDelay_WriteCompare, .-AppDelay_WriteCompare
 866              		.section	.text.AppDelay_ReadCompare,"ax",%progbits
 867              		.align	1
 868              		.global	AppDelay_ReadCompare
 869              		.code	16
 870              		.thumb_func
 871              		.type	AppDelay_ReadCompare, %function
 872              	AppDelay_ReadCompare:
 873              	.LFB25:
ARM GAS  C:\Users\Petro\AppData\Local\Temp\ccDwqNKG.s 			page 42


 901:Generated_Source\PSoC4/AppDelay.c ****     #if (AppDelay_CY_TCPWM_4000)
 874              		.loc 1 901 0
 875              		.cfi_startproc
 926:Generated_Source\PSoC4/AppDelay.c ****     #endif /* (AppDelay_CY_TCPWM_4000) */
 876              		.loc 1 926 0
 877 0000 014B     		ldr	r3, .L65
 928:Generated_Source\PSoC4/AppDelay.c **** 
 878              		.loc 1 928 0
 879              		@ sp needed
 926:Generated_Source\PSoC4/AppDelay.c ****     #endif /* (AppDelay_CY_TCPWM_4000) */
 880              		.loc 1 926 0
 881 0002 1868     		ldr	r0, [r3]
 882 0004 80B2     		uxth	r0, r0
 928:Generated_Source\PSoC4/AppDelay.c **** 
 883              		.loc 1 928 0
 884 0006 7047     		bx	lr
 885              	.L66:
 886              		.align	2
 887              	.L65:
 888 0008 4C012040 		.word	1075839308
 889              		.cfi_endproc
 890              	.LFE25:
 891              		.size	AppDelay_ReadCompare, .-AppDelay_ReadCompare
 892              		.section	.text.AppDelay_WriteCompareBuf,"ax",%progbits
 893              		.align	1
 894              		.global	AppDelay_WriteCompareBuf
 895              		.code	16
 896              		.thumb_func
 897              		.type	AppDelay_WriteCompareBuf, %function
 898              	AppDelay_WriteCompareBuf:
 899              	.LFB26:
 955:Generated_Source\PSoC4/AppDelay.c ****     #if (AppDelay_CY_TCPWM_4000)
 900              		.loc 1 955 0
 901              		.cfi_startproc
 902              	.LVL60:
 976:Generated_Source\PSoC4/AppDelay.c **** }
 903              		.loc 1 976 0
 904 0000 014B     		ldr	r3, .L68
 905 0002 80B2     		uxth	r0, r0
 906              	.LVL61:
 907 0004 1860     		str	r0, [r3]
 977:Generated_Source\PSoC4/AppDelay.c **** 
 908              		.loc 1 977 0
 909              		@ sp needed
 910 0006 7047     		bx	lr
 911              	.L69:
 912              		.align	2
 913              	.L68:
 914 0008 50012040 		.word	1075839312
 915              		.cfi_endproc
 916              	.LFE26:
 917              		.size	AppDelay_WriteCompareBuf, .-AppDelay_WriteCompareBuf
 918              		.section	.text.AppDelay_ReadCompareBuf,"ax",%progbits
 919              		.align	1
 920              		.global	AppDelay_ReadCompareBuf
 921              		.code	16
 922              		.thumb_func
ARM GAS  C:\Users\Petro\AppData\Local\Temp\ccDwqNKG.s 			page 43


 923              		.type	AppDelay_ReadCompareBuf, %function
 924              	AppDelay_ReadCompareBuf:
 925              	.LFB27:
1001:Generated_Source\PSoC4/AppDelay.c ****     #if (AppDelay_CY_TCPWM_4000)
 926              		.loc 1 1001 0
 927              		.cfi_startproc
1026:Generated_Source\PSoC4/AppDelay.c ****     #endif /* (AppDelay_CY_TCPWM_4000) */
 928              		.loc 1 1026 0
 929 0000 014B     		ldr	r3, .L71
1028:Generated_Source\PSoC4/AppDelay.c **** 
 930              		.loc 1 1028 0
 931              		@ sp needed
1026:Generated_Source\PSoC4/AppDelay.c ****     #endif /* (AppDelay_CY_TCPWM_4000) */
 932              		.loc 1 1026 0
 933 0002 1868     		ldr	r0, [r3]
 934 0004 80B2     		uxth	r0, r0
1028:Generated_Source\PSoC4/AppDelay.c **** 
 935              		.loc 1 1028 0
 936 0006 7047     		bx	lr
 937              	.L72:
 938              		.align	2
 939              	.L71:
 940 0008 50012040 		.word	1075839312
 941              		.cfi_endproc
 942              	.LFE27:
 943              		.size	AppDelay_ReadCompareBuf, .-AppDelay_ReadCompareBuf
 944              		.section	.text.AppDelay_ReadCapture,"ax",%progbits
 945              		.align	1
 946              		.global	AppDelay_ReadCapture
 947              		.code	16
 948              		.thumb_func
 949              		.type	AppDelay_ReadCapture, %function
 950              	AppDelay_ReadCapture:
 951              	.LFB28:
1047:Generated_Source\PSoC4/AppDelay.c ****     return (AppDelay_COMP_CAP_REG & AppDelay_16BIT_MASK);
 952              		.loc 1 1047 0
 953              		.cfi_startproc
1048:Generated_Source\PSoC4/AppDelay.c **** }
 954              		.loc 1 1048 0
 955 0000 014B     		ldr	r3, .L74
1049:Generated_Source\PSoC4/AppDelay.c **** 
 956              		.loc 1 1049 0
 957              		@ sp needed
1048:Generated_Source\PSoC4/AppDelay.c **** }
 958              		.loc 1 1048 0
 959 0002 1868     		ldr	r0, [r3]
 960 0004 80B2     		uxth	r0, r0
1049:Generated_Source\PSoC4/AppDelay.c **** 
 961              		.loc 1 1049 0
 962 0006 7047     		bx	lr
 963              	.L75:
 964              		.align	2
 965              	.L74:
 966 0008 4C012040 		.word	1075839308
 967              		.cfi_endproc
 968              	.LFE28:
 969              		.size	AppDelay_ReadCapture, .-AppDelay_ReadCapture
ARM GAS  C:\Users\Petro\AppData\Local\Temp\ccDwqNKG.s 			page 44


 970              		.section	.text.AppDelay_ReadCaptureBuf,"ax",%progbits
 971              		.align	1
 972              		.global	AppDelay_ReadCaptureBuf
 973              		.code	16
 974              		.thumb_func
 975              		.type	AppDelay_ReadCaptureBuf, %function
 976              	AppDelay_ReadCaptureBuf:
 977              	.LFB29:
1068:Generated_Source\PSoC4/AppDelay.c ****     return (AppDelay_COMP_CAP_BUF_REG & AppDelay_16BIT_MASK);
 978              		.loc 1 1068 0
 979              		.cfi_startproc
1069:Generated_Source\PSoC4/AppDelay.c **** }
 980              		.loc 1 1069 0
 981 0000 014B     		ldr	r3, .L77
1070:Generated_Source\PSoC4/AppDelay.c **** 
 982              		.loc 1 1070 0
 983              		@ sp needed
1069:Generated_Source\PSoC4/AppDelay.c **** }
 984              		.loc 1 1069 0
 985 0002 1868     		ldr	r0, [r3]
 986 0004 80B2     		uxth	r0, r0
1070:Generated_Source\PSoC4/AppDelay.c **** 
 987              		.loc 1 1070 0
 988 0006 7047     		bx	lr
 989              	.L78:
 990              		.align	2
 991              	.L77:
 992 0008 50012040 		.word	1075839312
 993              		.cfi_endproc
 994              	.LFE29:
 995              		.size	AppDelay_ReadCaptureBuf, .-AppDelay_ReadCaptureBuf
 996              		.section	.text.AppDelay_SetCaptureMode,"ax",%progbits
 997              		.align	1
 998              		.global	AppDelay_SetCaptureMode
 999              		.code	16
 1000              		.thumb_func
 1001              		.type	AppDelay_SetCaptureMode, %function
 1002              	AppDelay_SetCaptureMode:
 1003              	.LFB30:
1095:Generated_Source\PSoC4/AppDelay.c ****     uint8 enableInterrupts;
 1004              		.loc 1 1095 0
 1005              		.cfi_startproc
 1006              	.LVL62:
 1007 0000 10B5     		push	{r4, lr}
 1008              		.cfi_def_cfa_offset 8
 1009              		.cfi_offset 4, -8
 1010              		.cfi_offset 14, -4
1095:Generated_Source\PSoC4/AppDelay.c ****     uint8 enableInterrupts;
 1011              		.loc 1 1095 0
 1012 0002 041C     		mov	r4, r0
1098:Generated_Source\PSoC4/AppDelay.c **** 
 1013              		.loc 1 1098 0
 1014 0004 FFF7FEFF 		bl	CyEnterCriticalSection
 1015              	.LVL63:
1100:Generated_Source\PSoC4/AppDelay.c ****     AppDelay_TRIG_CONTROL1_REG |= triggerMode;
 1016              		.loc 1 1100 0
 1017 0008 0321     		mov	r1, #3
ARM GAS  C:\Users\Petro\AppData\Local\Temp\ccDwqNKG.s 			page 45


 1018 000a 054B     		ldr	r3, .L80
1104:Generated_Source\PSoC4/AppDelay.c **** 
 1019              		.loc 1 1104 0
 1020              		@ sp needed
1100:Generated_Source\PSoC4/AppDelay.c ****     AppDelay_TRIG_CONTROL1_REG |= triggerMode;
 1021              		.loc 1 1100 0
 1022 000c 1A68     		ldr	r2, [r3]
 1023 000e 8A43     		bic	r2, r1
 1024 0010 1A60     		str	r2, [r3]
1101:Generated_Source\PSoC4/AppDelay.c **** 
 1025              		.loc 1 1101 0
 1026 0012 1A68     		ldr	r2, [r3]
 1027 0014 2243     		orr	r2, r4
 1028 0016 1A60     		str	r2, [r3]
1103:Generated_Source\PSoC4/AppDelay.c **** }
 1029              		.loc 1 1103 0
 1030 0018 FFF7FEFF 		bl	CyExitCriticalSection
 1031              	.LVL64:
 1032              	.LVL65:
1104:Generated_Source\PSoC4/AppDelay.c **** 
 1033              		.loc 1 1104 0
 1034 001c 10BD     		pop	{r4, pc}
 1035              	.L81:
 1036 001e C046     		.align	2
 1037              	.L80:
 1038 0020 64012040 		.word	1075839332
 1039              		.cfi_endproc
 1040              	.LFE30:
 1041              		.size	AppDelay_SetCaptureMode, .-AppDelay_SetCaptureMode
 1042              		.section	.text.AppDelay_SetReloadMode,"ax",%progbits
 1043              		.align	1
 1044              		.global	AppDelay_SetReloadMode
 1045              		.code	16
 1046              		.thumb_func
 1047              		.type	AppDelay_SetReloadMode, %function
 1048              	AppDelay_SetReloadMode:
 1049              	.LFB31:
1128:Generated_Source\PSoC4/AppDelay.c ****     uint8 enableInterrupts;
 1050              		.loc 1 1128 0
 1051              		.cfi_startproc
 1052              	.LVL66:
 1053 0000 10B5     		push	{r4, lr}
 1054              		.cfi_def_cfa_offset 8
 1055              		.cfi_offset 4, -8
 1056              		.cfi_offset 14, -4
1128:Generated_Source\PSoC4/AppDelay.c ****     uint8 enableInterrupts;
 1057              		.loc 1 1128 0
 1058 0002 041C     		mov	r4, r0
1131:Generated_Source\PSoC4/AppDelay.c **** 
 1059              		.loc 1 1131 0
 1060 0004 FFF7FEFF 		bl	CyEnterCriticalSection
 1061              	.LVL67:
1133:Generated_Source\PSoC4/AppDelay.c ****     AppDelay_TRIG_CONTROL1_REG |= ((uint32)(triggerMode << AppDelay_RELOAD_SHIFT));
 1062              		.loc 1 1133 0
 1063 0008 3021     		mov	r1, #48
 1064 000a 054B     		ldr	r3, .L83
1137:Generated_Source\PSoC4/AppDelay.c **** 
ARM GAS  C:\Users\Petro\AppData\Local\Temp\ccDwqNKG.s 			page 46


 1065              		.loc 1 1137 0
 1066              		@ sp needed
1133:Generated_Source\PSoC4/AppDelay.c ****     AppDelay_TRIG_CONTROL1_REG |= ((uint32)(triggerMode << AppDelay_RELOAD_SHIFT));
 1067              		.loc 1 1133 0
 1068 000c 1A68     		ldr	r2, [r3]
 1069 000e 8A43     		bic	r2, r1
 1070 0010 1A60     		str	r2, [r3]
1134:Generated_Source\PSoC4/AppDelay.c **** 
 1071              		.loc 1 1134 0
 1072 0012 1968     		ldr	r1, [r3]
 1073 0014 2201     		lsl	r2, r4, #4
 1074 0016 0A43     		orr	r2, r1
 1075 0018 1A60     		str	r2, [r3]
1136:Generated_Source\PSoC4/AppDelay.c **** }
 1076              		.loc 1 1136 0
 1077 001a FFF7FEFF 		bl	CyExitCriticalSection
 1078              	.LVL68:
 1079              	.LVL69:
1137:Generated_Source\PSoC4/AppDelay.c **** 
 1080              		.loc 1 1137 0
 1081 001e 10BD     		pop	{r4, pc}
 1082              	.L84:
 1083              		.align	2
 1084              	.L83:
 1085 0020 64012040 		.word	1075839332
 1086              		.cfi_endproc
 1087              	.LFE31:
 1088              		.size	AppDelay_SetReloadMode, .-AppDelay_SetReloadMode
 1089              		.section	.text.AppDelay_SetStartMode,"ax",%progbits
 1090              		.align	1
 1091              		.global	AppDelay_SetStartMode
 1092              		.code	16
 1093              		.thumb_func
 1094              		.type	AppDelay_SetStartMode, %function
 1095              	AppDelay_SetStartMode:
 1096              	.LFB32:
1161:Generated_Source\PSoC4/AppDelay.c ****     uint8 enableInterrupts;
 1097              		.loc 1 1161 0
 1098              		.cfi_startproc
 1099              	.LVL70:
 1100 0000 10B5     		push	{r4, lr}
 1101              		.cfi_def_cfa_offset 8
 1102              		.cfi_offset 4, -8
 1103              		.cfi_offset 14, -4
1161:Generated_Source\PSoC4/AppDelay.c ****     uint8 enableInterrupts;
 1104              		.loc 1 1161 0
 1105 0002 041C     		mov	r4, r0
1164:Generated_Source\PSoC4/AppDelay.c **** 
 1106              		.loc 1 1164 0
 1107 0004 FFF7FEFF 		bl	CyEnterCriticalSection
 1108              	.LVL71:
1166:Generated_Source\PSoC4/AppDelay.c ****     AppDelay_TRIG_CONTROL1_REG |= ((uint32)(triggerMode << AppDelay_START_SHIFT));
 1109              		.loc 1 1166 0
 1110 0008 054B     		ldr	r3, .L86
 1111 000a 064A     		ldr	r2, .L86+4
 1112 000c 1968     		ldr	r1, [r3]
1170:Generated_Source\PSoC4/AppDelay.c **** 
ARM GAS  C:\Users\Petro\AppData\Local\Temp\ccDwqNKG.s 			page 47


 1113              		.loc 1 1170 0
 1114              		@ sp needed
1166:Generated_Source\PSoC4/AppDelay.c ****     AppDelay_TRIG_CONTROL1_REG |= ((uint32)(triggerMode << AppDelay_START_SHIFT));
 1115              		.loc 1 1166 0
 1116 000e 0A40     		and	r2, r1
 1117 0010 1A60     		str	r2, [r3]
1167:Generated_Source\PSoC4/AppDelay.c **** 
 1118              		.loc 1 1167 0
 1119 0012 1968     		ldr	r1, [r3]
 1120 0014 2202     		lsl	r2, r4, #8
 1121 0016 0A43     		orr	r2, r1
 1122 0018 1A60     		str	r2, [r3]
1169:Generated_Source\PSoC4/AppDelay.c **** }
 1123              		.loc 1 1169 0
 1124 001a FFF7FEFF 		bl	CyExitCriticalSection
 1125              	.LVL72:
 1126              	.LVL73:
1170:Generated_Source\PSoC4/AppDelay.c **** 
 1127              		.loc 1 1170 0
 1128 001e 10BD     		pop	{r4, pc}
 1129              	.L87:
 1130              		.align	2
 1131              	.L86:
 1132 0020 64012040 		.word	1075839332
 1133 0024 FFFCFFFF 		.word	-769
 1134              		.cfi_endproc
 1135              	.LFE32:
 1136              		.size	AppDelay_SetStartMode, .-AppDelay_SetStartMode
 1137              		.section	.text.AppDelay_SetStopMode,"ax",%progbits
 1138              		.align	1
 1139              		.global	AppDelay_SetStopMode
 1140              		.code	16
 1141              		.thumb_func
 1142              		.type	AppDelay_SetStopMode, %function
 1143              	AppDelay_SetStopMode:
 1144              	.LFB33:
1193:Generated_Source\PSoC4/AppDelay.c ****     uint8 enableInterrupts;
 1145              		.loc 1 1193 0
 1146              		.cfi_startproc
 1147              	.LVL74:
 1148 0000 10B5     		push	{r4, lr}
 1149              		.cfi_def_cfa_offset 8
 1150              		.cfi_offset 4, -8
 1151              		.cfi_offset 14, -4
1193:Generated_Source\PSoC4/AppDelay.c ****     uint8 enableInterrupts;
 1152              		.loc 1 1193 0
 1153 0002 041C     		mov	r4, r0
1196:Generated_Source\PSoC4/AppDelay.c **** 
 1154              		.loc 1 1196 0
 1155 0004 FFF7FEFF 		bl	CyEnterCriticalSection
 1156              	.LVL75:
1198:Generated_Source\PSoC4/AppDelay.c ****     AppDelay_TRIG_CONTROL1_REG |= ((uint32)(triggerMode << AppDelay_STOP_SHIFT));
 1157              		.loc 1 1198 0
 1158 0008 C021     		mov	r1, #192
 1159 000a 054B     		ldr	r3, .L89
1202:Generated_Source\PSoC4/AppDelay.c **** 
 1160              		.loc 1 1202 0
ARM GAS  C:\Users\Petro\AppData\Local\Temp\ccDwqNKG.s 			page 48


 1161              		@ sp needed
1198:Generated_Source\PSoC4/AppDelay.c ****     AppDelay_TRIG_CONTROL1_REG |= ((uint32)(triggerMode << AppDelay_STOP_SHIFT));
 1162              		.loc 1 1198 0
 1163 000c 1A68     		ldr	r2, [r3]
 1164 000e 8A43     		bic	r2, r1
 1165 0010 1A60     		str	r2, [r3]
1199:Generated_Source\PSoC4/AppDelay.c **** 
 1166              		.loc 1 1199 0
 1167 0012 1968     		ldr	r1, [r3]
 1168 0014 A201     		lsl	r2, r4, #6
 1169 0016 0A43     		orr	r2, r1
 1170 0018 1A60     		str	r2, [r3]
1201:Generated_Source\PSoC4/AppDelay.c **** }
 1171              		.loc 1 1201 0
 1172 001a FFF7FEFF 		bl	CyExitCriticalSection
 1173              	.LVL76:
 1174              	.LVL77:
1202:Generated_Source\PSoC4/AppDelay.c **** 
 1175              		.loc 1 1202 0
 1176 001e 10BD     		pop	{r4, pc}
 1177              	.L90:
 1178              		.align	2
 1179              	.L89:
 1180 0020 64012040 		.word	1075839332
 1181              		.cfi_endproc
 1182              	.LFE33:
 1183              		.size	AppDelay_SetStopMode, .-AppDelay_SetStopMode
 1184              		.section	.text.AppDelay_SetCountMode,"ax",%progbits
 1185              		.align	1
 1186              		.global	AppDelay_SetCountMode
 1187              		.code	16
 1188              		.thumb_func
 1189              		.type	AppDelay_SetCountMode, %function
 1190              	AppDelay_SetCountMode:
 1191              	.LFB34:
1226:Generated_Source\PSoC4/AppDelay.c ****     uint8 enableInterrupts;
 1192              		.loc 1 1226 0
 1193              		.cfi_startproc
 1194              	.LVL78:
 1195 0000 10B5     		push	{r4, lr}
 1196              		.cfi_def_cfa_offset 8
 1197              		.cfi_offset 4, -8
 1198              		.cfi_offset 14, -4
1226:Generated_Source\PSoC4/AppDelay.c ****     uint8 enableInterrupts;
 1199              		.loc 1 1226 0
 1200 0002 041C     		mov	r4, r0
1229:Generated_Source\PSoC4/AppDelay.c **** 
 1201              		.loc 1 1229 0
 1202 0004 FFF7FEFF 		bl	CyEnterCriticalSection
 1203              	.LVL79:
1231:Generated_Source\PSoC4/AppDelay.c ****     AppDelay_TRIG_CONTROL1_REG |= ((uint32)(triggerMode << AppDelay_COUNT_SHIFT));
 1204              		.loc 1 1231 0
 1205 0008 0C21     		mov	r1, #12
 1206 000a 054B     		ldr	r3, .L92
1235:Generated_Source\PSoC4/AppDelay.c **** 
 1207              		.loc 1 1235 0
 1208              		@ sp needed
ARM GAS  C:\Users\Petro\AppData\Local\Temp\ccDwqNKG.s 			page 49


1231:Generated_Source\PSoC4/AppDelay.c ****     AppDelay_TRIG_CONTROL1_REG |= ((uint32)(triggerMode << AppDelay_COUNT_SHIFT));
 1209              		.loc 1 1231 0
 1210 000c 1A68     		ldr	r2, [r3]
 1211 000e 8A43     		bic	r2, r1
 1212 0010 1A60     		str	r2, [r3]
1232:Generated_Source\PSoC4/AppDelay.c **** 
 1213              		.loc 1 1232 0
 1214 0012 1968     		ldr	r1, [r3]
 1215 0014 A200     		lsl	r2, r4, #2
 1216 0016 0A43     		orr	r2, r1
 1217 0018 1A60     		str	r2, [r3]
1234:Generated_Source\PSoC4/AppDelay.c **** }
 1218              		.loc 1 1234 0
 1219 001a FFF7FEFF 		bl	CyExitCriticalSection
 1220              	.LVL80:
 1221              	.LVL81:
1235:Generated_Source\PSoC4/AppDelay.c **** 
 1222              		.loc 1 1235 0
 1223 001e 10BD     		pop	{r4, pc}
 1224              	.L93:
 1225              		.align	2
 1226              	.L92:
 1227 0020 64012040 		.word	1075839332
 1228              		.cfi_endproc
 1229              	.LFE34:
 1230              		.size	AppDelay_SetCountMode, .-AppDelay_SetCountMode
 1231              		.section	.text.AppDelay_TriggerCommand,"ax",%progbits
 1232              		.align	1
 1233              		.global	AppDelay_TriggerCommand
 1234              		.code	16
 1235              		.thumb_func
 1236              		.type	AppDelay_TriggerCommand, %function
 1237              	AppDelay_TriggerCommand:
 1238              	.LFB35:
1266:Generated_Source\PSoC4/AppDelay.c ****     uint8 enableInterrupts;
 1239              		.loc 1 1266 0
 1240              		.cfi_startproc
 1241              	.LVL82:
 1242 0000 38B5     		push	{r3, r4, r5, lr}
 1243              		.cfi_def_cfa_offset 16
 1244              		.cfi_offset 3, -16
 1245              		.cfi_offset 4, -12
 1246              		.cfi_offset 5, -8
 1247              		.cfi_offset 14, -4
1266:Generated_Source\PSoC4/AppDelay.c ****     uint8 enableInterrupts;
 1248              		.loc 1 1266 0
 1249 0002 0D1C     		mov	r5, r1
 1250 0004 041C     		mov	r4, r0
1271:Generated_Source\PSoC4/AppDelay.c **** 
 1251              		.loc 1 1271 0
 1252 0006 AC40     		lsl	r4, r4, r5
1269:Generated_Source\PSoC4/AppDelay.c **** 
 1253              		.loc 1 1269 0
 1254 0008 FFF7FEFF 		bl	CyEnterCriticalSection
 1255              	.LVL83:
1271:Generated_Source\PSoC4/AppDelay.c **** 
 1256              		.loc 1 1271 0
ARM GAS  C:\Users\Petro\AppData\Local\Temp\ccDwqNKG.s 			page 50


 1257 000c 024B     		ldr	r3, .L95
1274:Generated_Source\PSoC4/AppDelay.c **** 
 1258              		.loc 1 1274 0
 1259              		@ sp needed
1271:Generated_Source\PSoC4/AppDelay.c **** 
 1260              		.loc 1 1271 0
 1261 000e 1C60     		str	r4, [r3]
1273:Generated_Source\PSoC4/AppDelay.c **** }
 1262              		.loc 1 1273 0
 1263 0010 FFF7FEFF 		bl	CyExitCriticalSection
 1264              	.LVL84:
 1265              	.LVL85:
1274:Generated_Source\PSoC4/AppDelay.c **** 
 1266              		.loc 1 1274 0
 1267 0014 38BD     		pop	{r3, r4, r5, pc}
 1268              	.L96:
 1269 0016 C046     		.align	2
 1270              	.L95:
 1271 0018 08002040 		.word	1075838984
 1272              		.cfi_endproc
 1273              	.LFE35:
 1274              		.size	AppDelay_TriggerCommand, .-AppDelay_TriggerCommand
 1275              		.section	.text.AppDelay_Enable,"ax",%progbits
 1276              		.align	1
 1277              		.global	AppDelay_Enable
 1278              		.code	16
 1279              		.thumb_func
 1280              		.type	AppDelay_Enable, %function
 1281              	AppDelay_Enable:
 1282              	.LFB3:
 178:Generated_Source\PSoC4/AppDelay.c ****     uint8 enableInterrupts;
 1283              		.loc 1 178 0
 1284              		.cfi_startproc
 1285 0000 10B5     		push	{r4, lr}
 1286              		.cfi_def_cfa_offset 8
 1287              		.cfi_offset 4, -8
 1288              		.cfi_offset 14, -4
 182:Generated_Source\PSoC4/AppDelay.c ****     CyExitCriticalSection(enableInterrupts);
 1289              		.loc 1 182 0
 1290 0002 0224     		mov	r4, #2
 181:Generated_Source\PSoC4/AppDelay.c ****     AppDelay_BLOCK_CONTROL_REG |= AppDelay_MASK;
 1291              		.loc 1 181 0
 1292 0004 FFF7FEFF 		bl	CyEnterCriticalSection
 1293              	.LVL86:
 182:Generated_Source\PSoC4/AppDelay.c ****     CyExitCriticalSection(enableInterrupts);
 1294              		.loc 1 182 0
 1295 0008 054A     		ldr	r2, .L98
 203:Generated_Source\PSoC4/AppDelay.c **** 
 1296              		.loc 1 203 0
 1297              		@ sp needed
 182:Generated_Source\PSoC4/AppDelay.c ****     CyExitCriticalSection(enableInterrupts);
 1298              		.loc 1 182 0
 1299 000a 1368     		ldr	r3, [r2]
 1300 000c 2343     		orr	r3, r4
 1301 000e 1360     		str	r3, [r2]
 183:Generated_Source\PSoC4/AppDelay.c **** 
 1302              		.loc 1 183 0
ARM GAS  C:\Users\Petro\AppData\Local\Temp\ccDwqNKG.s 			page 51


 1303 0010 FFF7FEFF 		bl	CyExitCriticalSection
 1304              	.LVL87:
 194:Generated_Source\PSoC4/AppDelay.c ****         #endif /* (0u == AppDelay_TC_START_SIGNAL_PRESENT) */
 1305              		.loc 1 194 0
 1306 0014 201C     		mov	r0, r4
 1307 0016 1821     		mov	r1, #24
 1308 0018 FFF7FEFF 		bl	AppDelay_TriggerCommand
 1309              	.LVL88:
 203:Generated_Source\PSoC4/AppDelay.c **** 
 1310              		.loc 1 203 0
 1311 001c 10BD     		pop	{r4, pc}
 1312              	.L99:
 1313 001e C046     		.align	2
 1314              	.L98:
 1315 0020 00002040 		.word	1075838976
 1316              		.cfi_endproc
 1317              	.LFE3:
 1318              		.size	AppDelay_Enable, .-AppDelay_Enable
 1319              		.section	.text.AppDelay_Start,"ax",%progbits
 1320              		.align	1
 1321              		.global	AppDelay_Start
 1322              		.code	16
 1323              		.thumb_func
 1324              		.type	AppDelay_Start, %function
 1325              	AppDelay_Start:
 1326              	.LFB4:
 231:Generated_Source\PSoC4/AppDelay.c ****     if (0u == AppDelay_initVar)
 1327              		.loc 1 231 0
 1328              		.cfi_startproc
 1329 0000 10B5     		push	{r4, lr}
 1330              		.cfi_def_cfa_offset 8
 1331              		.cfi_offset 4, -8
 1332              		.cfi_offset 14, -4
 232:Generated_Source\PSoC4/AppDelay.c ****     {
 1333              		.loc 1 232 0
 1334 0002 054C     		ldr	r4, .L103
 1335 0004 2378     		ldrb	r3, [r4]
 1336 0006 002B     		cmp	r3, #0
 1337 0008 03D1     		bne	.L101
 234:Generated_Source\PSoC4/AppDelay.c ****         AppDelay_initVar = 1u;
 1338              		.loc 1 234 0
 1339 000a FFF7FEFF 		bl	AppDelay_Init
 1340              	.LVL89:
 235:Generated_Source\PSoC4/AppDelay.c ****     }
 1341              		.loc 1 235 0
 1342 000e 0123     		mov	r3, #1
 1343 0010 2370     		strb	r3, [r4]
 1344              	.L101:
 238:Generated_Source\PSoC4/AppDelay.c **** }
 1345              		.loc 1 238 0
 1346 0012 FFF7FEFF 		bl	AppDelay_Enable
 1347              	.LVL90:
 239:Generated_Source\PSoC4/AppDelay.c **** 
 1348              		.loc 1 239 0
 1349              		@ sp needed
 1350 0016 10BD     		pop	{r4, pc}
 1351              	.L104:
ARM GAS  C:\Users\Petro\AppData\Local\Temp\ccDwqNKG.s 			page 52


 1352              		.align	2
 1353              	.L103:
 1354 0018 00000000 		.word	.LANCHOR0
 1355              		.cfi_endproc
 1356              	.LFE4:
 1357              		.size	AppDelay_Start, .-AppDelay_Start
 1358              		.section	.text.AppDelay_ReadStatus,"ax",%progbits
 1359              		.align	1
 1360              		.global	AppDelay_ReadStatus
 1361              		.code	16
 1362              		.thumb_func
 1363              		.type	AppDelay_ReadStatus, %function
 1364              	AppDelay_ReadStatus:
 1365              	.LFB36:
1295:Generated_Source\PSoC4/AppDelay.c ****     return ((AppDelay_STATUS_REG >> AppDelay_RUNNING_STATUS_SHIFT) |
 1366              		.loc 1 1295 0
 1367              		.cfi_startproc
1296:Generated_Source\PSoC4/AppDelay.c ****             (AppDelay_STATUS_REG & AppDelay_STATUS_DOWN));
 1368              		.loc 1 1296 0
 1369 0000 034A     		ldr	r2, .L106
1298:Generated_Source\PSoC4/AppDelay.c **** 
 1370              		.loc 1 1298 0
 1371              		@ sp needed
1296:Generated_Source\PSoC4/AppDelay.c ****             (AppDelay_STATUS_REG & AppDelay_STATUS_DOWN));
 1372              		.loc 1 1296 0
 1373 0002 1368     		ldr	r3, [r2]
1297:Generated_Source\PSoC4/AppDelay.c **** }
 1374              		.loc 1 1297 0
 1375 0004 1068     		ldr	r0, [r2]
 1376 0006 0122     		mov	r2, #1
1296:Generated_Source\PSoC4/AppDelay.c ****             (AppDelay_STATUS_REG & AppDelay_STATUS_DOWN));
 1377              		.loc 1 1296 0
 1378 0008 9B0F     		lsr	r3, r3, #30
1297:Generated_Source\PSoC4/AppDelay.c **** }
 1379              		.loc 1 1297 0
 1380 000a 1040     		and	r0, r2
1296:Generated_Source\PSoC4/AppDelay.c ****             (AppDelay_STATUS_REG & AppDelay_STATUS_DOWN));
 1381              		.loc 1 1296 0
 1382 000c 1843     		orr	r0, r3
1298:Generated_Source\PSoC4/AppDelay.c **** 
 1383              		.loc 1 1298 0
 1384 000e 7047     		bx	lr
 1385              	.L107:
 1386              		.align	2
 1387              	.L106:
 1388 0010 44012040 		.word	1075839300
 1389              		.cfi_endproc
 1390              	.LFE36:
 1391              		.size	AppDelay_ReadStatus, .-AppDelay_ReadStatus
 1392              		.section	.text.AppDelay_SetInterruptMode,"ax",%progbits
 1393              		.align	1
 1394              		.global	AppDelay_SetInterruptMode
 1395              		.code	16
 1396              		.thumb_func
 1397              		.type	AppDelay_SetInterruptMode, %function
 1398              	AppDelay_SetInterruptMode:
 1399              	.LFB37:
ARM GAS  C:\Users\Petro\AppData\Local\Temp\ccDwqNKG.s 			page 53


1320:Generated_Source\PSoC4/AppDelay.c ****     AppDelay_INTERRUPT_MASK_REG =  interruptMask;
 1400              		.loc 1 1320 0
 1401              		.cfi_startproc
 1402              	.LVL91:
 1403              		.loc 1 1321 0
 1404 0000 014B     		ldr	r3, .L109
1322:Generated_Source\PSoC4/AppDelay.c **** }
 1405              		.loc 1 1322 0
 1406              		@ sp needed
1321:Generated_Source\PSoC4/AppDelay.c **** }
 1407              		.loc 1 1321 0
 1408 0002 1860     		str	r0, [r3]
 1409              		.loc 1 1322 0
 1410 0004 7047     		bx	lr
 1411              	.L110:
 1412 0006 C046     		.align	2
 1413              	.L109:
 1414 0008 78012040 		.word	1075839352
 1415              		.cfi_endproc
 1416              	.LFE37:
 1417              		.size	AppDelay_SetInterruptMode, .-AppDelay_SetInterruptMode
 1418              		.section	.text.AppDelay_GetInterruptSourceMasked,"ax",%progbits
 1419              		.align	1
 1420              		.global	AppDelay_GetInterruptSourceMasked
 1421              		.code	16
 1422              		.thumb_func
 1423              		.type	AppDelay_GetInterruptSourceMasked, %function
 1424              	AppDelay_GetInterruptSourceMasked:
 1425              	.LFB38:
1323:Generated_Source\PSoC4/AppDelay.c **** 
1324:Generated_Source\PSoC4/AppDelay.c **** 
1325:Generated_Source\PSoC4/AppDelay.c **** /*******************************************************************************
1326:Generated_Source\PSoC4/AppDelay.c **** * Function Name: AppDelay_GetInterruptSourceMasked
1327:Generated_Source\PSoC4/AppDelay.c **** ********************************************************************************
1328:Generated_Source\PSoC4/AppDelay.c **** *
1329:Generated_Source\PSoC4/AppDelay.c **** * Summary:
1330:Generated_Source\PSoC4/AppDelay.c **** *  Gets the interrupt requests masked by the interrupt mask.
1331:Generated_Source\PSoC4/AppDelay.c **** *
1332:Generated_Source\PSoC4/AppDelay.c **** * Parameters:
1333:Generated_Source\PSoC4/AppDelay.c **** *   None
1334:Generated_Source\PSoC4/AppDelay.c **** *
1335:Generated_Source\PSoC4/AppDelay.c **** * Return:
1336:Generated_Source\PSoC4/AppDelay.c **** *  Masked interrupt source
1337:Generated_Source\PSoC4/AppDelay.c **** *   Values:
1338:Generated_Source\PSoC4/AppDelay.c **** *     - AppDelay_INTR_MASK_TC       - Terminal count mask
1339:Generated_Source\PSoC4/AppDelay.c **** *     - AppDelay_INTR_MASK_CC_MATCH - Compare count / capture mask
1340:Generated_Source\PSoC4/AppDelay.c **** *
1341:Generated_Source\PSoC4/AppDelay.c **** *******************************************************************************/
1342:Generated_Source\PSoC4/AppDelay.c **** uint32 AppDelay_GetInterruptSourceMasked(void)
1343:Generated_Source\PSoC4/AppDelay.c **** {
 1426              		.loc 1 1343 0
 1427              		.cfi_startproc
1344:Generated_Source\PSoC4/AppDelay.c ****     return (AppDelay_INTERRUPT_MASKED_REG);
 1428              		.loc 1 1344 0
 1429 0000 014B     		ldr	r3, .L112
1345:Generated_Source\PSoC4/AppDelay.c **** }
 1430              		.loc 1 1345 0
ARM GAS  C:\Users\Petro\AppData\Local\Temp\ccDwqNKG.s 			page 54


 1431              		@ sp needed
1344:Generated_Source\PSoC4/AppDelay.c ****     return (AppDelay_INTERRUPT_MASKED_REG);
 1432              		.loc 1 1344 0
 1433 0002 1868     		ldr	r0, [r3]
 1434              		.loc 1 1345 0
 1435 0004 7047     		bx	lr
 1436              	.L113:
 1437 0006 C046     		.align	2
 1438              	.L112:
 1439 0008 7C012040 		.word	1075839356
 1440              		.cfi_endproc
 1441              	.LFE38:
 1442              		.size	AppDelay_GetInterruptSourceMasked, .-AppDelay_GetInterruptSourceMasked
 1443              		.section	.text.AppDelay_GetInterruptSource,"ax",%progbits
 1444              		.align	1
 1445              		.global	AppDelay_GetInterruptSource
 1446              		.code	16
 1447              		.thumb_func
 1448              		.type	AppDelay_GetInterruptSource, %function
 1449              	AppDelay_GetInterruptSource:
 1450              	.LFB39:
1346:Generated_Source\PSoC4/AppDelay.c **** 
1347:Generated_Source\PSoC4/AppDelay.c **** 
1348:Generated_Source\PSoC4/AppDelay.c **** /*******************************************************************************
1349:Generated_Source\PSoC4/AppDelay.c **** * Function Name: AppDelay_GetInterruptSource
1350:Generated_Source\PSoC4/AppDelay.c **** ********************************************************************************
1351:Generated_Source\PSoC4/AppDelay.c **** *
1352:Generated_Source\PSoC4/AppDelay.c **** * Summary:
1353:Generated_Source\PSoC4/AppDelay.c **** *  Gets the interrupt requests (without masking).
1354:Generated_Source\PSoC4/AppDelay.c **** *
1355:Generated_Source\PSoC4/AppDelay.c **** * Parameters:
1356:Generated_Source\PSoC4/AppDelay.c **** *  None
1357:Generated_Source\PSoC4/AppDelay.c **** *
1358:Generated_Source\PSoC4/AppDelay.c **** * Return:
1359:Generated_Source\PSoC4/AppDelay.c **** *  Interrupt request value
1360:Generated_Source\PSoC4/AppDelay.c **** *   Values:
1361:Generated_Source\PSoC4/AppDelay.c **** *     - AppDelay_INTR_MASK_TC       - Terminal count mask
1362:Generated_Source\PSoC4/AppDelay.c **** *     - AppDelay_INTR_MASK_CC_MATCH - Compare count / capture mask
1363:Generated_Source\PSoC4/AppDelay.c **** *
1364:Generated_Source\PSoC4/AppDelay.c **** *******************************************************************************/
1365:Generated_Source\PSoC4/AppDelay.c **** uint32 AppDelay_GetInterruptSource(void)
1366:Generated_Source\PSoC4/AppDelay.c **** {
 1451              		.loc 1 1366 0
 1452              		.cfi_startproc
1367:Generated_Source\PSoC4/AppDelay.c ****     return (AppDelay_INTERRUPT_REQ_REG);
 1453              		.loc 1 1367 0
 1454 0000 014B     		ldr	r3, .L115
1368:Generated_Source\PSoC4/AppDelay.c **** }
 1455              		.loc 1 1368 0
 1456              		@ sp needed
1367:Generated_Source\PSoC4/AppDelay.c ****     return (AppDelay_INTERRUPT_REQ_REG);
 1457              		.loc 1 1367 0
 1458 0002 1868     		ldr	r0, [r3]
 1459              		.loc 1 1368 0
 1460 0004 7047     		bx	lr
 1461              	.L116:
 1462 0006 C046     		.align	2
ARM GAS  C:\Users\Petro\AppData\Local\Temp\ccDwqNKG.s 			page 55


 1463              	.L115:
 1464 0008 70012040 		.word	1075839344
 1465              		.cfi_endproc
 1466              	.LFE39:
 1467              		.size	AppDelay_GetInterruptSource, .-AppDelay_GetInterruptSource
 1468              		.section	.text.AppDelay_ClearInterrupt,"ax",%progbits
 1469              		.align	1
 1470              		.global	AppDelay_ClearInterrupt
 1471              		.code	16
 1472              		.thumb_func
 1473              		.type	AppDelay_ClearInterrupt, %function
 1474              	AppDelay_ClearInterrupt:
 1475              	.LFB40:
1369:Generated_Source\PSoC4/AppDelay.c **** 
1370:Generated_Source\PSoC4/AppDelay.c **** 
1371:Generated_Source\PSoC4/AppDelay.c **** /*******************************************************************************
1372:Generated_Source\PSoC4/AppDelay.c **** * Function Name: AppDelay_ClearInterrupt
1373:Generated_Source\PSoC4/AppDelay.c **** ********************************************************************************
1374:Generated_Source\PSoC4/AppDelay.c **** *
1375:Generated_Source\PSoC4/AppDelay.c **** * Summary:
1376:Generated_Source\PSoC4/AppDelay.c **** *  Clears the interrupt request.
1377:Generated_Source\PSoC4/AppDelay.c **** *
1378:Generated_Source\PSoC4/AppDelay.c **** * Parameters:
1379:Generated_Source\PSoC4/AppDelay.c **** *   interruptMask: Mask of interrupts to clear
1380:Generated_Source\PSoC4/AppDelay.c **** *   Values:
1381:Generated_Source\PSoC4/AppDelay.c **** *     - AppDelay_INTR_MASK_TC       - Terminal count mask
1382:Generated_Source\PSoC4/AppDelay.c **** *     - AppDelay_INTR_MASK_CC_MATCH - Compare count / capture mask
1383:Generated_Source\PSoC4/AppDelay.c **** *
1384:Generated_Source\PSoC4/AppDelay.c **** * Return:
1385:Generated_Source\PSoC4/AppDelay.c **** *  None
1386:Generated_Source\PSoC4/AppDelay.c **** *
1387:Generated_Source\PSoC4/AppDelay.c **** *******************************************************************************/
1388:Generated_Source\PSoC4/AppDelay.c **** void AppDelay_ClearInterrupt(uint32 interruptMask)
1389:Generated_Source\PSoC4/AppDelay.c **** {
 1476              		.loc 1 1389 0
 1477              		.cfi_startproc
 1478              	.LVL92:
1390:Generated_Source\PSoC4/AppDelay.c ****     AppDelay_INTERRUPT_REQ_REG = interruptMask;
 1479              		.loc 1 1390 0
 1480 0000 014B     		ldr	r3, .L118
1391:Generated_Source\PSoC4/AppDelay.c **** }
 1481              		.loc 1 1391 0
 1482              		@ sp needed
1390:Generated_Source\PSoC4/AppDelay.c ****     AppDelay_INTERRUPT_REQ_REG = interruptMask;
 1483              		.loc 1 1390 0
 1484 0002 1860     		str	r0, [r3]
 1485              		.loc 1 1391 0
 1486 0004 7047     		bx	lr
 1487              	.L119:
 1488 0006 C046     		.align	2
 1489              	.L118:
 1490 0008 70012040 		.word	1075839344
 1491              		.cfi_endproc
 1492              	.LFE40:
 1493              		.size	AppDelay_ClearInterrupt, .-AppDelay_ClearInterrupt
 1494              		.section	.text.AppDelay_SetInterrupt,"ax",%progbits
 1495              		.align	1
ARM GAS  C:\Users\Petro\AppData\Local\Temp\ccDwqNKG.s 			page 56


 1496              		.global	AppDelay_SetInterrupt
 1497              		.code	16
 1498              		.thumb_func
 1499              		.type	AppDelay_SetInterrupt, %function
 1500              	AppDelay_SetInterrupt:
 1501              	.LFB41:
1392:Generated_Source\PSoC4/AppDelay.c **** 
1393:Generated_Source\PSoC4/AppDelay.c **** 
1394:Generated_Source\PSoC4/AppDelay.c **** /*******************************************************************************
1395:Generated_Source\PSoC4/AppDelay.c **** * Function Name: AppDelay_SetInterrupt
1396:Generated_Source\PSoC4/AppDelay.c **** ********************************************************************************
1397:Generated_Source\PSoC4/AppDelay.c **** *
1398:Generated_Source\PSoC4/AppDelay.c **** * Summary:
1399:Generated_Source\PSoC4/AppDelay.c **** *  Sets a software interrupt request.
1400:Generated_Source\PSoC4/AppDelay.c **** *
1401:Generated_Source\PSoC4/AppDelay.c **** * Parameters:
1402:Generated_Source\PSoC4/AppDelay.c **** *   interruptMask: Mask of interrupts to set
1403:Generated_Source\PSoC4/AppDelay.c **** *   Values:
1404:Generated_Source\PSoC4/AppDelay.c **** *     - AppDelay_INTR_MASK_TC       - Terminal count mask
1405:Generated_Source\PSoC4/AppDelay.c **** *     - AppDelay_INTR_MASK_CC_MATCH - Compare count / capture mask
1406:Generated_Source\PSoC4/AppDelay.c **** *
1407:Generated_Source\PSoC4/AppDelay.c **** * Return:
1408:Generated_Source\PSoC4/AppDelay.c **** *  None
1409:Generated_Source\PSoC4/AppDelay.c **** *
1410:Generated_Source\PSoC4/AppDelay.c **** *******************************************************************************/
1411:Generated_Source\PSoC4/AppDelay.c **** void AppDelay_SetInterrupt(uint32 interruptMask)
1412:Generated_Source\PSoC4/AppDelay.c **** {
 1502              		.loc 1 1412 0
 1503              		.cfi_startproc
 1504              	.LVL93:
1413:Generated_Source\PSoC4/AppDelay.c ****     AppDelay_INTERRUPT_SET_REG = interruptMask;
 1505              		.loc 1 1413 0
 1506 0000 014B     		ldr	r3, .L121
1414:Generated_Source\PSoC4/AppDelay.c **** }
 1507              		.loc 1 1414 0
 1508              		@ sp needed
1413:Generated_Source\PSoC4/AppDelay.c ****     AppDelay_INTERRUPT_SET_REG = interruptMask;
 1509              		.loc 1 1413 0
 1510 0002 1860     		str	r0, [r3]
 1511              		.loc 1 1414 0
 1512 0004 7047     		bx	lr
 1513              	.L122:
 1514 0006 C046     		.align	2
 1515              	.L121:
 1516 0008 74012040 		.word	1075839348
 1517              		.cfi_endproc
 1518              	.LFE41:
 1519              		.size	AppDelay_SetInterrupt, .-AppDelay_SetInterrupt
 1520              		.global	AppDelay_initVar
 1521              		.bss
 1522              		.set	.LANCHOR0,. + 0
 1523              		.type	AppDelay_initVar, %object
 1524              		.size	AppDelay_initVar, 1
 1525              	AppDelay_initVar:
 1526 0000 00       		.space	1
 1527              		.text
 1528              	.Letext0:
ARM GAS  C:\Users\Petro\AppData\Local\Temp\ccDwqNKG.s 			page 57


 1529              		.file 2 "Generated_Source\\PSoC4\\cytypes.h"
 1530              		.file 3 "Generated_Source\\PSoC4\\CyLib.h"
 1531              		.section	.debug_info,"",%progbits
 1532              	.Ldebug_info0:
 1533 0000 5E090000 		.4byte	0x95e
 1534 0004 0400     		.2byte	0x4
 1535 0006 00000000 		.4byte	.Ldebug_abbrev0
 1536 000a 04       		.byte	0x4
 1537 000b 01       		.uleb128 0x1
 1538 000c 06000000 		.4byte	.LASF76
 1539 0010 01       		.byte	0x1
 1540 0011 08060000 		.4byte	.LASF77
 1541 0015 C5010000 		.4byte	.LASF78
 1542 0019 00000000 		.4byte	.Ldebug_ranges0+0
 1543 001d 00000000 		.4byte	0
 1544 0021 00000000 		.4byte	.Ldebug_line0
 1545 0025 02       		.uleb128 0x2
 1546 0026 01       		.byte	0x1
 1547 0027 06       		.byte	0x6
 1548 0028 59010000 		.4byte	.LASF0
 1549 002c 02       		.uleb128 0x2
 1550 002d 01       		.byte	0x1
 1551 002e 08       		.byte	0x8
 1552 002f 27040000 		.4byte	.LASF1
 1553 0033 02       		.uleb128 0x2
 1554 0034 02       		.byte	0x2
 1555 0035 05       		.byte	0x5
 1556 0036 5E040000 		.4byte	.LASF2
 1557 003a 02       		.uleb128 0x2
 1558 003b 02       		.byte	0x2
 1559 003c 07       		.byte	0x7
 1560 003d ED020000 		.4byte	.LASF3
 1561 0041 02       		.uleb128 0x2
 1562 0042 04       		.byte	0x4
 1563 0043 05       		.byte	0x5
 1564 0044 A6010000 		.4byte	.LASF4
 1565 0048 02       		.uleb128 0x2
 1566 0049 04       		.byte	0x4
 1567 004a 07       		.byte	0x7
 1568 004b A7020000 		.4byte	.LASF5
 1569 004f 02       		.uleb128 0x2
 1570 0050 08       		.byte	0x8
 1571 0051 05       		.byte	0x5
 1572 0052 4B010000 		.4byte	.LASF6
 1573 0056 02       		.uleb128 0x2
 1574 0057 08       		.byte	0x8
 1575 0058 07       		.byte	0x7
 1576 0059 EE000000 		.4byte	.LASF7
 1577 005d 03       		.uleb128 0x3
 1578 005e 04       		.byte	0x4
 1579 005f 05       		.byte	0x5
 1580 0060 696E7400 		.ascii	"int\000"
 1581 0064 02       		.uleb128 0x2
 1582 0065 04       		.byte	0x4
 1583 0066 07       		.byte	0x7
 1584 0067 92020000 		.4byte	.LASF8
 1585 006b 04       		.uleb128 0x4
ARM GAS  C:\Users\Petro\AppData\Local\Temp\ccDwqNKG.s 			page 58


 1586 006c BF010000 		.4byte	.LASF9
 1587 0070 02       		.byte	0x2
 1588 0071 9801     		.2byte	0x198
 1589 0073 2C000000 		.4byte	0x2c
 1590 0077 04       		.uleb128 0x4
 1591 0078 44020000 		.4byte	.LASF10
 1592 007c 02       		.byte	0x2
 1593 007d 9A01     		.2byte	0x19a
 1594 007f 48000000 		.4byte	0x48
 1595 0083 02       		.uleb128 0x2
 1596 0084 04       		.byte	0x4
 1597 0085 04       		.byte	0x4
 1598 0086 E9030000 		.4byte	.LASF11
 1599 008a 02       		.uleb128 0x2
 1600 008b 08       		.byte	0x8
 1601 008c 04       		.byte	0x4
 1602 008d 26020000 		.4byte	.LASF12
 1603 0091 02       		.uleb128 0x2
 1604 0092 01       		.byte	0x1
 1605 0093 08       		.byte	0x8
 1606 0094 B2040000 		.4byte	.LASF13
 1607 0098 04       		.uleb128 0x4
 1608 0099 7D030000 		.4byte	.LASF14
 1609 009d 02       		.byte	0x2
 1610 009e 4402     		.2byte	0x244
 1611 00a0 A4000000 		.4byte	0xa4
 1612 00a4 05       		.uleb128 0x5
 1613 00a5 77000000 		.4byte	0x77
 1614 00a9 02       		.uleb128 0x2
 1615 00aa 04       		.byte	0x4
 1616 00ab 07       		.byte	0x7
 1617 00ac 83030000 		.4byte	.LASF15
 1618 00b0 06       		.uleb128 0x6
 1619 00b1 1D010000 		.4byte	.LASF16
 1620 00b5 01       		.byte	0x1
 1621 00b6 2705     		.2byte	0x527
 1622 00b8 01       		.byte	0x1
 1623 00b9 CA000000 		.4byte	0xca
 1624 00bd 07       		.uleb128 0x7
 1625 00be 79040000 		.4byte	.LASF18
 1626 00c2 01       		.byte	0x1
 1627 00c3 2705     		.2byte	0x527
 1628 00c5 77000000 		.4byte	0x77
 1629 00c9 00       		.byte	0
 1630 00ca 06       		.uleb128 0x6
 1631 00cb 65010000 		.4byte	.LASF17
 1632 00cf 01       		.byte	0x1
 1633 00d0 B502     		.2byte	0x2b5
 1634 00d2 01       		.byte	0x1
 1635 00d3 E4000000 		.4byte	0xe4
 1636 00d7 07       		.uleb128 0x7
 1637 00d8 D1000000 		.4byte	.LASF19
 1638 00dc 01       		.byte	0x1
 1639 00dd B502     		.2byte	0x2b5
 1640 00df 77000000 		.4byte	0x77
 1641 00e3 00       		.byte	0
 1642 00e4 06       		.uleb128 0x6
ARM GAS  C:\Users\Petro\AppData\Local\Temp\ccDwqNKG.s 			page 59


 1643 00e5 48050000 		.4byte	.LASF20
 1644 00e9 01       		.byte	0x1
 1645 00ea 5103     		.2byte	0x351
 1646 00ec 01       		.byte	0x1
 1647 00ed FE000000 		.4byte	0xfe
 1648 00f1 07       		.uleb128 0x7
 1649 00f2 B3030000 		.4byte	.LASF21
 1650 00f6 01       		.byte	0x1
 1651 00f7 5103     		.2byte	0x351
 1652 00f9 77000000 		.4byte	0x77
 1653 00fd 00       		.byte	0
 1654 00fe 06       		.uleb128 0x6
 1655 00ff D6050000 		.4byte	.LASF22
 1656 0103 01       		.byte	0x1
 1657 0104 6702     		.2byte	0x267
 1658 0106 01       		.byte	0x1
 1659 0107 18010000 		.4byte	0x118
 1660 010b 07       		.uleb128 0x7
 1661 010c 00000000 		.4byte	.LASF23
 1662 0110 01       		.byte	0x1
 1663 0111 6702     		.2byte	0x267
 1664 0113 77000000 		.4byte	0x77
 1665 0117 00       		.byte	0
 1666 0118 08       		.uleb128 0x8
 1667 0119 18020000 		.4byte	.LASF24
 1668 011d 01       		.byte	0x1
 1669 011e 26       		.byte	0x26
 1670 011f 00000000 		.4byte	.LFB2
 1671 0123 40000000 		.4byte	.LFE2-.LFB2
 1672 0127 01       		.uleb128 0x1
 1673 0128 9C       		.byte	0x9c
 1674 0129 95010000 		.4byte	0x195
 1675 012d 09       		.uleb128 0x9
 1676 012e B0000000 		.4byte	0xb0
 1677 0132 0E000000 		.4byte	.LBB10
 1678 0136 06000000 		.4byte	.LBE10-.LBB10
 1679 013a 01       		.byte	0x1
 1680 013b 40       		.byte	0x40
 1681 013c 47010000 		.4byte	0x147
 1682 0140 0A       		.uleb128 0xa
 1683 0141 BD000000 		.4byte	0xbd
 1684 0145 00       		.byte	0
 1685 0146 00       		.byte	0
 1686 0147 09       		.uleb128 0x9
 1687 0148 CA000000 		.4byte	0xca
 1688 014c 14000000 		.4byte	.LBB12
 1689 0150 06000000 		.4byte	.LBE12-.LBB12
 1690 0154 01       		.byte	0x1
 1691 0155 43       		.byte	0x43
 1692 0156 62010000 		.4byte	0x162
 1693 015a 0B       		.uleb128 0xb
 1694 015b D7000000 		.4byte	0xd7
 1695 015f E8FD     		.2byte	0xfde8
 1696 0161 00       		.byte	0
 1697 0162 09       		.uleb128 0x9
 1698 0163 E4000000 		.4byte	0xe4
 1699 0167 1A000000 		.4byte	.LBB14
ARM GAS  C:\Users\Petro\AppData\Local\Temp\ccDwqNKG.s 			page 60


 1700 016b 04000000 		.4byte	.LBE14-.LBB14
 1701 016f 01       		.byte	0x1
 1702 0170 46       		.byte	0x46
 1703 0171 7D010000 		.4byte	0x17d
 1704 0175 0B       		.uleb128 0xb
 1705 0176 F1000000 		.4byte	0xf1
 1706 017a E8FD     		.2byte	0xfde8
 1707 017c 00       		.byte	0
 1708 017d 0C       		.uleb128 0xc
 1709 017e FE000000 		.4byte	0xfe
 1710 0182 1E000000 		.4byte	.LBB16
 1711 0186 04000000 		.4byte	.LBE16-.LBB16
 1712 018a 01       		.byte	0x1
 1713 018b 52       		.byte	0x52
 1714 018c 0B       		.uleb128 0xb
 1715 018d 0B010000 		.4byte	0x10b
 1716 0191 E8FD     		.2byte	0xfde8
 1717 0193 00       		.byte	0
 1718 0194 00       		.byte	0
 1719 0195 0D       		.uleb128 0xd
 1720 0196 7E050000 		.4byte	.LASF25
 1721 019a 01       		.byte	0x1
 1722 019b 0001     		.2byte	0x100
 1723 019d 00000000 		.4byte	.LFB5
 1724 01a1 1C000000 		.4byte	.LFE5-.LFB5
 1725 01a5 01       		.uleb128 0x1
 1726 01a6 9C       		.byte	0x9c
 1727 01a7 CE010000 		.4byte	0x1ce
 1728 01ab 0E       		.uleb128 0xe
 1729 01ac 8C050000 		.4byte	.LASF27
 1730 01b0 01       		.byte	0x1
 1731 01b1 0201     		.2byte	0x102
 1732 01b3 6B000000 		.4byte	0x6b
 1733 01b7 00000000 		.4byte	.LLST0
 1734 01bb 0F       		.uleb128 0xf
 1735 01bc 06000000 		.4byte	.LVL4
 1736 01c0 49090000 		.4byte	0x949
 1737 01c4 0F       		.uleb128 0xf
 1738 01c5 14000000 		.4byte	.LVL5
 1739 01c9 54090000 		.4byte	0x954
 1740 01cd 00       		.byte	0
 1741 01ce 0D       		.uleb128 0xd
 1742 01cf 05010000 		.4byte	.LASF26
 1743 01d3 01       		.byte	0x1
 1744 01d4 2501     		.2byte	0x125
 1745 01d6 00000000 		.4byte	.LFB6
 1746 01da 28000000 		.4byte	.LFE6-.LFB6
 1747 01de 01       		.uleb128 0x1
 1748 01df 9C       		.byte	0x9c
 1749 01e0 17020000 		.4byte	0x217
 1750 01e4 10       		.uleb128 0x10
 1751 01e5 B7040000 		.4byte	.LASF29
 1752 01e9 01       		.byte	0x1
 1753 01ea 2501     		.2byte	0x125
 1754 01ec 77000000 		.4byte	0x77
 1755 01f0 13000000 		.4byte	.LLST1
 1756 01f4 0E       		.uleb128 0xe
ARM GAS  C:\Users\Petro\AppData\Local\Temp\ccDwqNKG.s 			page 61


 1757 01f5 8C050000 		.4byte	.LASF27
 1758 01f9 01       		.byte	0x1
 1759 01fa 2701     		.2byte	0x127
 1760 01fc 6B000000 		.4byte	0x6b
 1761 0200 3F000000 		.4byte	.LLST2
 1762 0204 0F       		.uleb128 0xf
 1763 0205 08000000 		.4byte	.LVL7
 1764 0209 49090000 		.4byte	0x949
 1765 020d 0F       		.uleb128 0xf
 1766 020e 1C000000 		.4byte	.LVL8
 1767 0212 54090000 		.4byte	0x954
 1768 0216 00       		.byte	0
 1769 0217 0D       		.uleb128 0xd
 1770 0218 00030000 		.4byte	.LASF28
 1771 021c 01       		.byte	0x1
 1772 021d 4601     		.2byte	0x146
 1773 021f 00000000 		.4byte	.LFB7
 1774 0223 28000000 		.4byte	.LFE7-.LFB7
 1775 0227 01       		.uleb128 0x1
 1776 0228 9C       		.byte	0x9c
 1777 0229 60020000 		.4byte	0x260
 1778 022d 10       		.uleb128 0x10
 1779 022e 16010000 		.4byte	.LASF30
 1780 0232 01       		.byte	0x1
 1781 0233 4601     		.2byte	0x146
 1782 0235 77000000 		.4byte	0x77
 1783 0239 52000000 		.4byte	.LLST3
 1784 023d 0E       		.uleb128 0xe
 1785 023e 8C050000 		.4byte	.LASF27
 1786 0242 01       		.byte	0x1
 1787 0243 4801     		.2byte	0x148
 1788 0245 6B000000 		.4byte	0x6b
 1789 0249 7E000000 		.4byte	.LLST4
 1790 024d 0F       		.uleb128 0xf
 1791 024e 08000000 		.4byte	.LVL11
 1792 0252 49090000 		.4byte	0x949
 1793 0256 0F       		.uleb128 0xf
 1794 0257 1C000000 		.4byte	.LVL12
 1795 025b 54090000 		.4byte	0x954
 1796 025f 00       		.byte	0
 1797 0260 0D       		.uleb128 0xd
 1798 0261 C0050000 		.4byte	.LASF31
 1799 0265 01       		.byte	0x1
 1800 0266 6B01     		.2byte	0x16b
 1801 0268 00000000 		.4byte	.LFB8
 1802 026c 28000000 		.4byte	.LFE8-.LFB8
 1803 0270 01       		.uleb128 0x1
 1804 0271 9C       		.byte	0x9c
 1805 0272 A9020000 		.4byte	0x2a9
 1806 0276 10       		.uleb128 0x10
 1807 0277 EF030000 		.4byte	.LASF32
 1808 027b 01       		.byte	0x1
 1809 027c 6B01     		.2byte	0x16b
 1810 027e 77000000 		.4byte	0x77
 1811 0282 91000000 		.4byte	.LLST5
 1812 0286 0E       		.uleb128 0xe
 1813 0287 8C050000 		.4byte	.LASF27
ARM GAS  C:\Users\Petro\AppData\Local\Temp\ccDwqNKG.s 			page 62


 1814 028b 01       		.byte	0x1
 1815 028c 6D01     		.2byte	0x16d
 1816 028e 6B000000 		.4byte	0x6b
 1817 0292 BD000000 		.4byte	.LLST6
 1818 0296 0F       		.uleb128 0xf
 1819 0297 08000000 		.4byte	.LVL15
 1820 029b 49090000 		.4byte	0x949
 1821 029f 0F       		.uleb128 0xf
 1822 02a0 1C000000 		.4byte	.LVL16
 1823 02a4 54090000 		.4byte	0x954
 1824 02a8 00       		.byte	0
 1825 02a9 0D       		.uleb128 0xd
 1826 02aa 37010000 		.4byte	.LASF33
 1827 02ae 01       		.byte	0x1
 1828 02af 8B01     		.2byte	0x18b
 1829 02b1 00000000 		.4byte	.LFB9
 1830 02b5 2C000000 		.4byte	.LFE9-.LFB9
 1831 02b9 01       		.uleb128 0x1
 1832 02ba 9C       		.byte	0x9c
 1833 02bb F2020000 		.4byte	0x2f2
 1834 02bf 10       		.uleb128 0x10
 1835 02c0 5A030000 		.4byte	.LASF34
 1836 02c4 01       		.byte	0x1
 1837 02c5 8B01     		.2byte	0x18b
 1838 02c7 77000000 		.4byte	0x77
 1839 02cb D0000000 		.4byte	.LLST7
 1840 02cf 0E       		.uleb128 0xe
 1841 02d0 8C050000 		.4byte	.LASF27
 1842 02d4 01       		.byte	0x1
 1843 02d5 8D01     		.2byte	0x18d
 1844 02d7 6B000000 		.4byte	0x6b
 1845 02db FC000000 		.4byte	.LLST8
 1846 02df 0F       		.uleb128 0xf
 1847 02e0 08000000 		.4byte	.LVL19
 1848 02e4 49090000 		.4byte	0x949
 1849 02e8 0F       		.uleb128 0xf
 1850 02e9 22000000 		.4byte	.LVL20
 1851 02ed 54090000 		.4byte	0x954
 1852 02f1 00       		.byte	0
 1853 02f2 0D       		.uleb128 0xd
 1854 02f3 BB030000 		.4byte	.LASF35
 1855 02f7 01       		.byte	0x1
 1856 02f8 C101     		.2byte	0x1c1
 1857 02fa 00000000 		.4byte	.LFB10
 1858 02fe 10000000 		.4byte	.LFE10-.LFB10
 1859 0302 01       		.uleb128 0x1
 1860 0303 9C       		.byte	0x9c
 1861 0304 19030000 		.4byte	0x319
 1862 0308 10       		.uleb128 0x10
 1863 0309 B9020000 		.4byte	.LASF36
 1864 030d 01       		.byte	0x1
 1865 030e C101     		.2byte	0x1c1
 1866 0310 77000000 		.4byte	0x77
 1867 0314 0F010000 		.4byte	.LLST9
 1868 0318 00       		.byte	0
 1869 0319 0D       		.uleb128 0xd
 1870 031a 9B030000 		.4byte	.LASF37
ARM GAS  C:\Users\Petro\AppData\Local\Temp\ccDwqNKG.s 			page 63


 1871 031e 01       		.byte	0x1
 1872 031f E501     		.2byte	0x1e5
 1873 0321 00000000 		.4byte	.LFB11
 1874 0325 28000000 		.4byte	.LFE11-.LFB11
 1875 0329 01       		.uleb128 0x1
 1876 032a 9C       		.byte	0x9c
 1877 032b 62030000 		.4byte	0x362
 1878 032f 10       		.uleb128 0x10
 1879 0330 8C030000 		.4byte	.LASF38
 1880 0334 01       		.byte	0x1
 1881 0335 E501     		.2byte	0x1e5
 1882 0337 77000000 		.4byte	0x77
 1883 033b 30010000 		.4byte	.LLST10
 1884 033f 0E       		.uleb128 0xe
 1885 0340 8C050000 		.4byte	.LASF27
 1886 0344 01       		.byte	0x1
 1887 0345 E701     		.2byte	0x1e7
 1888 0347 6B000000 		.4byte	0x6b
 1889 034b 5C010000 		.4byte	.LLST11
 1890 034f 0F       		.uleb128 0xf
 1891 0350 08000000 		.4byte	.LVL25
 1892 0354 49090000 		.4byte	0x949
 1893 0358 0F       		.uleb128 0xf
 1894 0359 22000000 		.4byte	.LVL26
 1895 035d 54090000 		.4byte	0x954
 1896 0361 00       		.byte	0
 1897 0362 0D       		.uleb128 0xd
 1898 0363 CF030000 		.4byte	.LASF39
 1899 0367 01       		.byte	0x1
 1900 0368 0702     		.2byte	0x207
 1901 036a 00000000 		.4byte	.LFB12
 1902 036e 28000000 		.4byte	.LFE12-.LFB12
 1903 0372 01       		.uleb128 0x1
 1904 0373 9C       		.byte	0x9c
 1905 0374 AB030000 		.4byte	0x3ab
 1906 0378 10       		.uleb128 0x10
 1907 0379 4D040000 		.4byte	.LASF40
 1908 037d 01       		.byte	0x1
 1909 037e 0702     		.2byte	0x207
 1910 0380 77000000 		.4byte	0x77
 1911 0384 6F010000 		.4byte	.LLST12
 1912 0388 0E       		.uleb128 0xe
 1913 0389 8C050000 		.4byte	.LASF27
 1914 038d 01       		.byte	0x1
 1915 038e 0902     		.2byte	0x209
 1916 0390 6B000000 		.4byte	0x6b
 1917 0394 9B010000 		.4byte	.LLST13
 1918 0398 0F       		.uleb128 0xf
 1919 0399 08000000 		.4byte	.LVL29
 1920 039d 49090000 		.4byte	0x949
 1921 03a1 0F       		.uleb128 0xf
 1922 03a2 22000000 		.4byte	.LVL30
 1923 03a6 54090000 		.4byte	0x954
 1924 03aa 00       		.byte	0
 1925 03ab 0D       		.uleb128 0xd
 1926 03ac 30050000 		.4byte	.LASF41
 1927 03b0 01       		.byte	0x1
ARM GAS  C:\Users\Petro\AppData\Local\Temp\ccDwqNKG.s 			page 64


 1928 03b1 2802     		.2byte	0x228
 1929 03b3 00000000 		.4byte	.LFB13
 1930 03b7 2C000000 		.4byte	.LFE13-.LFB13
 1931 03bb 01       		.uleb128 0x1
 1932 03bc 9C       		.byte	0x9c
 1933 03bd F4030000 		.4byte	0x3f4
 1934 03c1 10       		.uleb128 0x10
 1935 03c2 74020000 		.4byte	.LASF42
 1936 03c6 01       		.byte	0x1
 1937 03c7 2802     		.2byte	0x228
 1938 03c9 77000000 		.4byte	0x77
 1939 03cd AE010000 		.4byte	.LLST14
 1940 03d1 0E       		.uleb128 0xe
 1941 03d2 8C050000 		.4byte	.LASF27
 1942 03d6 01       		.byte	0x1
 1943 03d7 2A02     		.2byte	0x22a
 1944 03d9 6B000000 		.4byte	0x6b
 1945 03dd DA010000 		.4byte	.LLST15
 1946 03e1 0F       		.uleb128 0xf
 1947 03e2 08000000 		.4byte	.LVL33
 1948 03e6 49090000 		.4byte	0x949
 1949 03ea 0F       		.uleb128 0xf
 1950 03eb 20000000 		.4byte	.LVL35
 1951 03ef 54090000 		.4byte	0x954
 1952 03f3 00       		.byte	0
 1953 03f4 0D       		.uleb128 0xd
 1954 03f5 D8000000 		.4byte	.LASF43
 1955 03f9 01       		.byte	0x1
 1956 03fa 4902     		.2byte	0x249
 1957 03fc 00000000 		.4byte	.LFB14
 1958 0400 28000000 		.4byte	.LFE14-.LFB14
 1959 0404 01       		.uleb128 0x1
 1960 0405 9C       		.byte	0x9c
 1961 0406 3D040000 		.4byte	0x43d
 1962 040a 10       		.uleb128 0x10
 1963 040b 57020000 		.4byte	.LASF44
 1964 040f 01       		.byte	0x1
 1965 0410 4902     		.2byte	0x249
 1966 0412 77000000 		.4byte	0x77
 1967 0416 ED010000 		.4byte	.LLST16
 1968 041a 0E       		.uleb128 0xe
 1969 041b 8C050000 		.4byte	.LASF27
 1970 041f 01       		.byte	0x1
 1971 0420 4B02     		.2byte	0x24b
 1972 0422 6B000000 		.4byte	0x6b
 1973 0426 19020000 		.4byte	.LLST17
 1974 042a 0F       		.uleb128 0xf
 1975 042b 08000000 		.4byte	.LVL37
 1976 042f 49090000 		.4byte	0x949
 1977 0433 0F       		.uleb128 0xf
 1978 0434 1C000000 		.4byte	.LVL38
 1979 0438 54090000 		.4byte	0x954
 1980 043c 00       		.byte	0
 1981 043d 11       		.uleb128 0x11
 1982 043e FE000000 		.4byte	0xfe
 1983 0442 00000000 		.4byte	.LFB15
 1984 0446 0C000000 		.4byte	.LFE15-.LFB15
ARM GAS  C:\Users\Petro\AppData\Local\Temp\ccDwqNKG.s 			page 65


 1985 044a 01       		.uleb128 0x1
 1986 044b 9C       		.byte	0x9c
 1987 044c 5A040000 		.4byte	0x45a
 1988 0450 12       		.uleb128 0x12
 1989 0451 0B010000 		.4byte	0x10b
 1990 0455 2C020000 		.4byte	.LLST18
 1991 0459 00       		.byte	0
 1992 045a 13       		.uleb128 0x13
 1993 045b 5E050000 		.4byte	.LASF47
 1994 045f 01       		.byte	0x1
 1995 0460 7B02     		.2byte	0x27b
 1996 0462 77000000 		.4byte	0x77
 1997 0466 00000000 		.4byte	.LFB16
 1998 046a 0C000000 		.4byte	.LFE16-.LFB16
 1999 046e 01       		.uleb128 0x1
 2000 046f 9C       		.byte	0x9c
 2001 0470 0D       		.uleb128 0xd
 2002 0471 7A010000 		.4byte	.LASF45
 2003 0475 01       		.byte	0x1
 2004 0476 9802     		.2byte	0x298
 2005 0478 00000000 		.4byte	.LFB17
 2006 047c 28000000 		.4byte	.LFE17-.LFB17
 2007 0480 01       		.uleb128 0x1
 2008 0481 9C       		.byte	0x9c
 2009 0482 B9040000 		.4byte	0x4b9
 2010 0486 10       		.uleb128 0x10
 2011 0487 F4040000 		.4byte	.LASF46
 2012 048b 01       		.byte	0x1
 2013 048c 9802     		.2byte	0x298
 2014 048e 77000000 		.4byte	0x77
 2015 0492 4D020000 		.4byte	.LLST19
 2016 0496 0E       		.uleb128 0xe
 2017 0497 8C050000 		.4byte	.LASF27
 2018 049b 01       		.byte	0x1
 2019 049c 9A02     		.2byte	0x29a
 2020 049e 6B000000 		.4byte	0x6b
 2021 04a2 79020000 		.4byte	.LLST20
 2022 04a6 0F       		.uleb128 0xf
 2023 04a7 08000000 		.4byte	.LVL43
 2024 04ab 49090000 		.4byte	0x949
 2025 04af 0F       		.uleb128 0xf
 2026 04b0 1C000000 		.4byte	.LVL44
 2027 04b4 54090000 		.4byte	0x954
 2028 04b8 00       		.byte	0
 2029 04b9 11       		.uleb128 0x11
 2030 04ba CA000000 		.4byte	0xca
 2031 04be 00000000 		.4byte	.LFB18
 2032 04c2 0C000000 		.4byte	.LFE18-.LFB18
 2033 04c6 01       		.uleb128 0x1
 2034 04c7 9C       		.byte	0x9c
 2035 04c8 D6040000 		.4byte	0x4d6
 2036 04cc 12       		.uleb128 0x12
 2037 04cd D7000000 		.4byte	0xd7
 2038 04d1 8C020000 		.4byte	.LLST21
 2039 04d5 00       		.byte	0
 2040 04d6 13       		.uleb128 0x13
 2041 04d7 D9020000 		.4byte	.LASF48
ARM GAS  C:\Users\Petro\AppData\Local\Temp\ccDwqNKG.s 			page 66


 2042 04db 01       		.byte	0x1
 2043 04dc C902     		.2byte	0x2c9
 2044 04de 77000000 		.4byte	0x77
 2045 04e2 00000000 		.4byte	.LFB19
 2046 04e6 0C000000 		.4byte	.LFE19-.LFB19
 2047 04ea 01       		.uleb128 0x1
 2048 04eb 9C       		.byte	0x9c
 2049 04ec 0D       		.uleb128 0xd
 2050 04ed 42030000 		.4byte	.LASF49
 2051 04f1 01       		.byte	0x1
 2052 04f2 E302     		.2byte	0x2e3
 2053 04f4 00000000 		.4byte	.LFB20
 2054 04f8 24000000 		.4byte	.LFE20-.LFB20
 2055 04fc 01       		.uleb128 0x1
 2056 04fd 9C       		.byte	0x9c
 2057 04fe 35050000 		.4byte	0x535
 2058 0502 10       		.uleb128 0x10
 2059 0503 B5050000 		.4byte	.LASF50
 2060 0507 01       		.byte	0x1
 2061 0508 E302     		.2byte	0x2e3
 2062 050a 77000000 		.4byte	0x77
 2063 050e AD020000 		.4byte	.LLST22
 2064 0512 0E       		.uleb128 0xe
 2065 0513 8C050000 		.4byte	.LASF27
 2066 0517 01       		.byte	0x1
 2067 0518 E502     		.2byte	0x2e5
 2068 051a 6B000000 		.4byte	0x6b
 2069 051e D9020000 		.4byte	.LLST23
 2070 0522 0F       		.uleb128 0xf
 2071 0523 08000000 		.4byte	.LVL49
 2072 0527 49090000 		.4byte	0x949
 2073 052b 0F       		.uleb128 0xf
 2074 052c 1E000000 		.4byte	.LVL50
 2075 0530 54090000 		.4byte	0x954
 2076 0534 00       		.byte	0
 2077 0535 0D       		.uleb128 0xd
 2078 0536 9D050000 		.4byte	.LASF51
 2079 053a 01       		.byte	0x1
 2080 053b FE02     		.2byte	0x2fe
 2081 053d 00000000 		.4byte	.LFB21
 2082 0541 0C000000 		.4byte	.LFE21-.LFB21
 2083 0545 01       		.uleb128 0x1
 2084 0546 9C       		.byte	0x9c
 2085 0547 5C050000 		.4byte	0x55c
 2086 054b 10       		.uleb128 0x10
 2087 054c 2A060000 		.4byte	.LASF52
 2088 0550 01       		.byte	0x1
 2089 0551 FE02     		.2byte	0x2fe
 2090 0553 77000000 		.4byte	0x77
 2091 0557 EC020000 		.4byte	.LLST24
 2092 055b 00       		.byte	0
 2093 055c 13       		.uleb128 0x13
 2094 055d 13030000 		.4byte	.LASF53
 2095 0561 01       		.byte	0x1
 2096 0562 1203     		.2byte	0x312
 2097 0564 77000000 		.4byte	0x77
 2098 0568 00000000 		.4byte	.LFB22
ARM GAS  C:\Users\Petro\AppData\Local\Temp\ccDwqNKG.s 			page 67


 2099 056c 0C000000 		.4byte	.LFE22-.LFB22
 2100 0570 01       		.uleb128 0x1
 2101 0571 9C       		.byte	0x9c
 2102 0572 0D       		.uleb128 0xd
 2103 0573 2D020000 		.4byte	.LASF54
 2104 0577 01       		.byte	0x1
 2105 0578 2C03     		.2byte	0x32c
 2106 057a 00000000 		.4byte	.LFB23
 2107 057e 28000000 		.4byte	.LFE23-.LFB23
 2108 0582 01       		.uleb128 0x1
 2109 0583 9C       		.byte	0x9c
 2110 0584 BB050000 		.4byte	0x5bb
 2111 0588 10       		.uleb128 0x10
 2112 0589 B5050000 		.4byte	.LASF50
 2113 058d 01       		.byte	0x1
 2114 058e 2C03     		.2byte	0x32c
 2115 0590 77000000 		.4byte	0x77
 2116 0594 0D030000 		.4byte	.LLST25
 2117 0598 0E       		.uleb128 0xe
 2118 0599 8C050000 		.4byte	.LASF27
 2119 059d 01       		.byte	0x1
 2120 059e 2E03     		.2byte	0x32e
 2121 05a0 6B000000 		.4byte	0x6b
 2122 05a4 39030000 		.4byte	.LLST26
 2123 05a8 0F       		.uleb128 0xf
 2124 05a9 08000000 		.4byte	.LVL55
 2125 05ad 49090000 		.4byte	0x949
 2126 05b1 0F       		.uleb128 0xf
 2127 05b2 22000000 		.4byte	.LVL56
 2128 05b6 54090000 		.4byte	0x954
 2129 05ba 00       		.byte	0
 2130 05bb 11       		.uleb128 0x11
 2131 05bc E4000000 		.4byte	0xe4
 2132 05c0 00000000 		.4byte	.LFB24
 2133 05c4 0C000000 		.4byte	.LFE24-.LFB24
 2134 05c8 01       		.uleb128 0x1
 2135 05c9 9C       		.byte	0x9c
 2136 05ca D8050000 		.4byte	0x5d8
 2137 05ce 12       		.uleb128 0x12
 2138 05cf F1000000 		.4byte	0xf1
 2139 05d3 4C030000 		.4byte	.LLST27
 2140 05d7 00       		.byte	0
 2141 05d8 13       		.uleb128 0x13
 2142 05d9 87040000 		.4byte	.LASF55
 2143 05dd 01       		.byte	0x1
 2144 05de 8403     		.2byte	0x384
 2145 05e0 77000000 		.4byte	0x77
 2146 05e4 00000000 		.4byte	.LFB25
 2147 05e8 0C000000 		.4byte	.LFE25-.LFB25
 2148 05ec 01       		.uleb128 0x1
 2149 05ed 9C       		.byte	0x9c
 2150 05ee 0D       		.uleb128 0xd
 2151 05ef 17050000 		.4byte	.LASF56
 2152 05f3 01       		.byte	0x1
 2153 05f4 BA03     		.2byte	0x3ba
 2154 05f6 00000000 		.4byte	.LFB26
 2155 05fa 0C000000 		.4byte	.LFE26-.LFB26
ARM GAS  C:\Users\Petro\AppData\Local\Temp\ccDwqNKG.s 			page 68


 2156 05fe 01       		.uleb128 0x1
 2157 05ff 9C       		.byte	0x9c
 2158 0600 15060000 		.4byte	0x615
 2159 0604 10       		.uleb128 0x10
 2160 0605 73050000 		.4byte	.LASF57
 2161 0609 01       		.byte	0x1
 2162 060a BA03     		.2byte	0x3ba
 2163 060c 77000000 		.4byte	0x77
 2164 0610 6D030000 		.4byte	.LLST28
 2165 0614 00       		.byte	0
 2166 0615 13       		.uleb128 0x13
 2167 0616 2A030000 		.4byte	.LASF58
 2168 061a 01       		.byte	0x1
 2169 061b E803     		.2byte	0x3e8
 2170 061d 77000000 		.4byte	0x77
 2171 0621 00000000 		.4byte	.LFB27
 2172 0625 0C000000 		.4byte	.LFE27-.LFB27
 2173 0629 01       		.uleb128 0x1
 2174 062a 9C       		.byte	0x9c
 2175 062b 13       		.uleb128 0x13
 2176 062c 7D020000 		.4byte	.LASF59
 2177 0630 01       		.byte	0x1
 2178 0631 1604     		.2byte	0x416
 2179 0633 77000000 		.4byte	0x77
 2180 0637 00000000 		.4byte	.LFB28
 2181 063b 0C000000 		.4byte	.LFE28-.LFB28
 2182 063f 01       		.uleb128 0x1
 2183 0640 9C       		.byte	0x9c
 2184 0641 13       		.uleb128 0x13
 2185 0642 AA000000 		.4byte	.LASF60
 2186 0646 01       		.byte	0x1
 2187 0647 2B04     		.2byte	0x42b
 2188 0649 77000000 		.4byte	0x77
 2189 064d 00000000 		.4byte	.LFB29
 2190 0651 0C000000 		.4byte	.LFE29-.LFB29
 2191 0655 01       		.uleb128 0x1
 2192 0656 9C       		.byte	0x9c
 2193 0657 0D       		.uleb128 0xd
 2194 0658 5C020000 		.4byte	.LASF61
 2195 065c 01       		.byte	0x1
 2196 065d 4604     		.2byte	0x446
 2197 065f 00000000 		.4byte	.LFB30
 2198 0663 24000000 		.4byte	.LFE30-.LFB30
 2199 0667 01       		.uleb128 0x1
 2200 0668 9C       		.byte	0x9c
 2201 0669 A0060000 		.4byte	0x6a0
 2202 066d 10       		.uleb128 0x10
 2203 066e 4B020000 		.4byte	.LASF62
 2204 0672 01       		.byte	0x1
 2205 0673 4604     		.2byte	0x446
 2206 0675 77000000 		.4byte	0x77
 2207 0679 8E030000 		.4byte	.LLST29
 2208 067d 0E       		.uleb128 0xe
 2209 067e 8C050000 		.4byte	.LASF27
 2210 0682 01       		.byte	0x1
 2211 0683 4804     		.2byte	0x448
 2212 0685 6B000000 		.4byte	0x6b
ARM GAS  C:\Users\Petro\AppData\Local\Temp\ccDwqNKG.s 			page 69


 2213 0689 BA030000 		.4byte	.LLST30
 2214 068d 0F       		.uleb128 0xf
 2215 068e 08000000 		.4byte	.LVL63
 2216 0692 49090000 		.4byte	0x949
 2217 0696 0F       		.uleb128 0xf
 2218 0697 1C000000 		.4byte	.LVL64
 2219 069b 54090000 		.4byte	0x954
 2220 069f 00       		.byte	0
 2221 06a0 0D       		.uleb128 0xd
 2222 06a1 00050000 		.4byte	.LASF63
 2223 06a5 01       		.byte	0x1
 2224 06a6 6704     		.2byte	0x467
 2225 06a8 00000000 		.4byte	.LFB31
 2226 06ac 24000000 		.4byte	.LFE31-.LFB31
 2227 06b0 01       		.uleb128 0x1
 2228 06b1 9C       		.byte	0x9c
 2229 06b2 E9060000 		.4byte	0x6e9
 2230 06b6 10       		.uleb128 0x10
 2231 06b7 4B020000 		.4byte	.LASF62
 2232 06bb 01       		.byte	0x1
 2233 06bc 6704     		.2byte	0x467
 2234 06be 77000000 		.4byte	0x77
 2235 06c2 CD030000 		.4byte	.LLST31
 2236 06c6 0E       		.uleb128 0xe
 2237 06c7 8C050000 		.4byte	.LASF27
 2238 06cb 01       		.byte	0x1
 2239 06cc 6904     		.2byte	0x469
 2240 06ce 6B000000 		.4byte	0x6b
 2241 06d2 F9030000 		.4byte	.LLST32
 2242 06d6 0F       		.uleb128 0xf
 2243 06d7 08000000 		.4byte	.LVL67
 2244 06db 49090000 		.4byte	0x949
 2245 06df 0F       		.uleb128 0xf
 2246 06e0 1E000000 		.4byte	.LVL68
 2247 06e4 54090000 		.4byte	0x954
 2248 06e8 00       		.byte	0
 2249 06e9 0D       		.uleb128 0xd
 2250 06ea DE040000 		.4byte	.LASF64
 2251 06ee 01       		.byte	0x1
 2252 06ef 8804     		.2byte	0x488
 2253 06f1 00000000 		.4byte	.LFB32
 2254 06f5 28000000 		.4byte	.LFE32-.LFB32
 2255 06f9 01       		.uleb128 0x1
 2256 06fa 9C       		.byte	0x9c
 2257 06fb 32070000 		.4byte	0x732
 2258 06ff 10       		.uleb128 0x10
 2259 0700 4B020000 		.4byte	.LASF62
 2260 0704 01       		.byte	0x1
 2261 0705 8804     		.2byte	0x488
 2262 0707 77000000 		.4byte	0x77
 2263 070b 0C040000 		.4byte	.LLST33
 2264 070f 0E       		.uleb128 0xe
 2265 0710 8C050000 		.4byte	.LASF27
 2266 0714 01       		.byte	0x1
 2267 0715 8A04     		.2byte	0x48a
 2268 0717 6B000000 		.4byte	0x6b
 2269 071b 38040000 		.4byte	.LLST34
ARM GAS  C:\Users\Petro\AppData\Local\Temp\ccDwqNKG.s 			page 70


 2270 071f 0F       		.uleb128 0xf
 2271 0720 08000000 		.4byte	.LVL71
 2272 0724 49090000 		.4byte	0x949
 2273 0728 0F       		.uleb128 0xf
 2274 0729 1E000000 		.4byte	.LVL72
 2275 072d 54090000 		.4byte	0x954
 2276 0731 00       		.byte	0
 2277 0732 0D       		.uleb128 0xd
 2278 0733 68030000 		.4byte	.LASF65
 2279 0737 01       		.byte	0x1
 2280 0738 A804     		.2byte	0x4a8
 2281 073a 00000000 		.4byte	.LFB33
 2282 073e 24000000 		.4byte	.LFE33-.LFB33
 2283 0742 01       		.uleb128 0x1
 2284 0743 9C       		.byte	0x9c
 2285 0744 7B070000 		.4byte	0x77b
 2286 0748 10       		.uleb128 0x10
 2287 0749 4B020000 		.4byte	.LASF62
 2288 074d 01       		.byte	0x1
 2289 074e A804     		.2byte	0x4a8
 2290 0750 77000000 		.4byte	0x77
 2291 0754 4B040000 		.4byte	.LLST35
 2292 0758 0E       		.uleb128 0xe
 2293 0759 8C050000 		.4byte	.LASF27
 2294 075d 01       		.byte	0x1
 2295 075e AA04     		.2byte	0x4aa
 2296 0760 6B000000 		.4byte	0x6b
 2297 0764 77040000 		.4byte	.LLST36
 2298 0768 0F       		.uleb128 0xf
 2299 0769 08000000 		.4byte	.LVL75
 2300 076d 49090000 		.4byte	0x949
 2301 0771 0F       		.uleb128 0xf
 2302 0772 1E000000 		.4byte	.LVL76
 2303 0776 54090000 		.4byte	0x954
 2304 077a 00       		.byte	0
 2305 077b 0D       		.uleb128 0xd
 2306 077c 9C040000 		.4byte	.LASF66
 2307 0780 01       		.byte	0x1
 2308 0781 C904     		.2byte	0x4c9
 2309 0783 00000000 		.4byte	.LFB34
 2310 0787 24000000 		.4byte	.LFE34-.LFB34
 2311 078b 01       		.uleb128 0x1
 2312 078c 9C       		.byte	0x9c
 2313 078d C4070000 		.4byte	0x7c4
 2314 0791 10       		.uleb128 0x10
 2315 0792 4B020000 		.4byte	.LASF62
 2316 0796 01       		.byte	0x1
 2317 0797 C904     		.2byte	0x4c9
 2318 0799 77000000 		.4byte	0x77
 2319 079d 8A040000 		.4byte	.LLST37
 2320 07a1 0E       		.uleb128 0xe
 2321 07a2 8C050000 		.4byte	.LASF27
 2322 07a6 01       		.byte	0x1
 2323 07a7 CB04     		.2byte	0x4cb
 2324 07a9 6B000000 		.4byte	0x6b
 2325 07ad B6040000 		.4byte	.LLST38
 2326 07b1 0F       		.uleb128 0xf
ARM GAS  C:\Users\Petro\AppData\Local\Temp\ccDwqNKG.s 			page 71


 2327 07b2 08000000 		.4byte	.LVL79
 2328 07b6 49090000 		.4byte	0x949
 2329 07ba 0F       		.uleb128 0xf
 2330 07bb 1E000000 		.4byte	.LVL80
 2331 07bf 54090000 		.4byte	0x954
 2332 07c3 00       		.byte	0
 2333 07c4 0D       		.uleb128 0xd
 2334 07c5 0F040000 		.4byte	.LASF67
 2335 07c9 01       		.byte	0x1
 2336 07ca F104     		.2byte	0x4f1
 2337 07cc 00000000 		.4byte	.LFB35
 2338 07d0 1C000000 		.4byte	.LFE35-.LFB35
 2339 07d4 01       		.uleb128 0x1
 2340 07d5 9C       		.byte	0x9c
 2341 07d6 1D080000 		.4byte	0x81d
 2342 07da 10       		.uleb128 0x10
 2343 07db 57020000 		.4byte	.LASF44
 2344 07df 01       		.byte	0x1
 2345 07e0 F104     		.2byte	0x4f1
 2346 07e2 77000000 		.4byte	0x77
 2347 07e6 C9040000 		.4byte	.LLST39
 2348 07ea 10       		.uleb128 0x10
 2349 07eb 9F020000 		.4byte	.LASF68
 2350 07ef 01       		.byte	0x1
 2351 07f0 F104     		.2byte	0x4f1
 2352 07f2 77000000 		.4byte	0x77
 2353 07f6 EA040000 		.4byte	.LLST40
 2354 07fa 0E       		.uleb128 0xe
 2355 07fb 8C050000 		.4byte	.LASF27
 2356 07ff 01       		.byte	0x1
 2357 0800 F304     		.2byte	0x4f3
 2358 0802 6B000000 		.4byte	0x6b
 2359 0806 16050000 		.4byte	.LLST41
 2360 080a 0F       		.uleb128 0xf
 2361 080b 0C000000 		.4byte	.LVL83
 2362 080f 49090000 		.4byte	0x949
 2363 0813 0F       		.uleb128 0xf
 2364 0814 14000000 		.4byte	.LVL84
 2365 0818 54090000 		.4byte	0x954
 2366 081c 00       		.byte	0
 2367 081d 08       		.uleb128 0x8
 2368 081e AF010000 		.4byte	.LASF69
 2369 0822 01       		.byte	0x1
 2370 0823 B1       		.byte	0xb1
 2371 0824 00000000 		.4byte	.LFB3
 2372 0828 24000000 		.4byte	.LFE3-.LFB3
 2373 082c 01       		.uleb128 0x1
 2374 082d 9C       		.byte	0x9c
 2375 082e 69080000 		.4byte	0x869
 2376 0832 14       		.uleb128 0x14
 2377 0833 8C050000 		.4byte	.LASF27
 2378 0837 01       		.byte	0x1
 2379 0838 B3       		.byte	0xb3
 2380 0839 6B000000 		.4byte	0x6b
 2381 083d 29050000 		.4byte	.LLST42
 2382 0841 0F       		.uleb128 0xf
 2383 0842 08000000 		.4byte	.LVL86
ARM GAS  C:\Users\Petro\AppData\Local\Temp\ccDwqNKG.s 			page 72


 2384 0846 49090000 		.4byte	0x949
 2385 084a 0F       		.uleb128 0xf
 2386 084b 14000000 		.4byte	.LVL87
 2387 084f 54090000 		.4byte	0x954
 2388 0853 15       		.uleb128 0x15
 2389 0854 1C000000 		.4byte	.LVL88
 2390 0858 C4070000 		.4byte	0x7c4
 2391 085c 16       		.uleb128 0x16
 2392 085d 01       		.uleb128 0x1
 2393 085e 51       		.byte	0x51
 2394 085f 01       		.uleb128 0x1
 2395 0860 48       		.byte	0x48
 2396 0861 16       		.uleb128 0x16
 2397 0862 01       		.uleb128 0x1
 2398 0863 50       		.byte	0x50
 2399 0864 02       		.uleb128 0x2
 2400 0865 74       		.byte	0x74
 2401 0866 00       		.sleb128 0
 2402 0867 00       		.byte	0
 2403 0868 00       		.byte	0
 2404 0869 08       		.uleb128 0x8
 2405 086a C2000000 		.4byte	.LASF70
 2406 086e 01       		.byte	0x1
 2407 086f E6       		.byte	0xe6
 2408 0870 00000000 		.4byte	.LFB4
 2409 0874 1C000000 		.4byte	.LFE4-.LFB4
 2410 0878 01       		.uleb128 0x1
 2411 0879 9C       		.byte	0x9c
 2412 087a 91080000 		.4byte	0x891
 2413 087e 0F       		.uleb128 0xf
 2414 087f 0E000000 		.4byte	.LVL89
 2415 0883 18010000 		.4byte	0x118
 2416 0887 0F       		.uleb128 0xf
 2417 0888 16000000 		.4byte	.LVL90
 2418 088c 1D080000 		.4byte	0x81d
 2419 0890 00       		.byte	0
 2420 0891 13       		.uleb128 0x13
 2421 0892 92010000 		.4byte	.LASF71
 2422 0896 01       		.byte	0x1
 2423 0897 0E05     		.2byte	0x50e
 2424 0899 77000000 		.4byte	0x77
 2425 089d 00000000 		.4byte	.LFB36
 2426 08a1 14000000 		.4byte	.LFE36-.LFB36
 2427 08a5 01       		.uleb128 0x1
 2428 08a6 9C       		.byte	0x9c
 2429 08a7 11       		.uleb128 0x11
 2430 08a8 B0000000 		.4byte	0xb0
 2431 08ac 00000000 		.4byte	.LFB37
 2432 08b0 0C000000 		.4byte	.LFE37-.LFB37
 2433 08b4 01       		.uleb128 0x1
 2434 08b5 9C       		.byte	0x9c
 2435 08b6 C2080000 		.4byte	0x8c2
 2436 08ba 17       		.uleb128 0x17
 2437 08bb BD000000 		.4byte	0xbd
 2438 08bf 01       		.uleb128 0x1
 2439 08c0 50       		.byte	0x50
 2440 08c1 00       		.byte	0
ARM GAS  C:\Users\Petro\AppData\Local\Temp\ccDwqNKG.s 			page 73


 2441 08c2 13       		.uleb128 0x13
 2442 08c3 BC040000 		.4byte	.LASF72
 2443 08c7 01       		.byte	0x1
 2444 08c8 3E05     		.2byte	0x53e
 2445 08ca 77000000 		.4byte	0x77
 2446 08ce 00000000 		.4byte	.LFB38
 2447 08d2 0C000000 		.4byte	.LFE38-.LFB38
 2448 08d6 01       		.uleb128 0x1
 2449 08d7 9C       		.byte	0x9c
 2450 08d8 13       		.uleb128 0x13
 2451 08d9 EC050000 		.4byte	.LASF73
 2452 08dd 01       		.byte	0x1
 2453 08de 5505     		.2byte	0x555
 2454 08e0 77000000 		.4byte	0x77
 2455 08e4 00000000 		.4byte	.LFB39
 2456 08e8 0C000000 		.4byte	.LFE39-.LFB39
 2457 08ec 01       		.uleb128 0x1
 2458 08ed 9C       		.byte	0x9c
 2459 08ee 0D       		.uleb128 0xd
 2460 08ef 35040000 		.4byte	.LASF74
 2461 08f3 01       		.byte	0x1
 2462 08f4 6C05     		.2byte	0x56c
 2463 08f6 00000000 		.4byte	.LFB40
 2464 08fa 0C000000 		.4byte	.LFE40-.LFB40
 2465 08fe 01       		.uleb128 0x1
 2466 08ff 9C       		.byte	0x9c
 2467 0900 13090000 		.4byte	0x913
 2468 0904 18       		.uleb128 0x18
 2469 0905 79040000 		.4byte	.LASF18
 2470 0909 01       		.byte	0x1
 2471 090a 6C05     		.2byte	0x56c
 2472 090c 77000000 		.4byte	0x77
 2473 0910 01       		.uleb128 0x1
 2474 0911 50       		.byte	0x50
 2475 0912 00       		.byte	0
 2476 0913 0D       		.uleb128 0xd
 2477 0914 F9030000 		.4byte	.LASF75
 2478 0918 01       		.byte	0x1
 2479 0919 8305     		.2byte	0x583
 2480 091b 00000000 		.4byte	.LFB41
 2481 091f 0C000000 		.4byte	.LFE41-.LFB41
 2482 0923 01       		.uleb128 0x1
 2483 0924 9C       		.byte	0x9c
 2484 0925 38090000 		.4byte	0x938
 2485 0929 18       		.uleb128 0x18
 2486 092a 79040000 		.4byte	.LASF18
 2487 092e 01       		.byte	0x1
 2488 092f 8305     		.2byte	0x583
 2489 0931 77000000 		.4byte	0x77
 2490 0935 01       		.uleb128 0x1
 2491 0936 50       		.byte	0x50
 2492 0937 00       		.byte	0
 2493 0938 19       		.uleb128 0x19
 2494 0939 68040000 		.4byte	.LASF79
 2495 093d 01       		.byte	0x1
 2496 093e 15       		.byte	0x15
 2497 093f 6B000000 		.4byte	0x6b
ARM GAS  C:\Users\Petro\AppData\Local\Temp\ccDwqNKG.s 			page 74


 2498 0943 05       		.uleb128 0x5
 2499 0944 03       		.byte	0x3
 2500 0945 00000000 		.4byte	AppDelay_initVar
 2501 0949 1A       		.uleb128 0x1a
 2502 094a C2020000 		.4byte	.LASF80
 2503 094e 03       		.byte	0x3
 2504 094f E3       		.byte	0xe3
 2505 0950 6B000000 		.4byte	0x6b
 2506 0954 1B       		.uleb128 0x1b
 2507 0955 94000000 		.4byte	.LASF81
 2508 0959 03       		.byte	0x3
 2509 095a E4       		.byte	0xe4
 2510 095b 1C       		.uleb128 0x1c
 2511 095c 6B000000 		.4byte	0x6b
 2512 0960 00       		.byte	0
 2513 0961 00       		.byte	0
 2514              		.section	.debug_abbrev,"",%progbits
 2515              	.Ldebug_abbrev0:
 2516 0000 01       		.uleb128 0x1
 2517 0001 11       		.uleb128 0x11
 2518 0002 01       		.byte	0x1
 2519 0003 25       		.uleb128 0x25
 2520 0004 0E       		.uleb128 0xe
 2521 0005 13       		.uleb128 0x13
 2522 0006 0B       		.uleb128 0xb
 2523 0007 03       		.uleb128 0x3
 2524 0008 0E       		.uleb128 0xe
 2525 0009 1B       		.uleb128 0x1b
 2526 000a 0E       		.uleb128 0xe
 2527 000b 55       		.uleb128 0x55
 2528 000c 17       		.uleb128 0x17
 2529 000d 11       		.uleb128 0x11
 2530 000e 01       		.uleb128 0x1
 2531 000f 10       		.uleb128 0x10
 2532 0010 17       		.uleb128 0x17
 2533 0011 00       		.byte	0
 2534 0012 00       		.byte	0
 2535 0013 02       		.uleb128 0x2
 2536 0014 24       		.uleb128 0x24
 2537 0015 00       		.byte	0
 2538 0016 0B       		.uleb128 0xb
 2539 0017 0B       		.uleb128 0xb
 2540 0018 3E       		.uleb128 0x3e
 2541 0019 0B       		.uleb128 0xb
 2542 001a 03       		.uleb128 0x3
 2543 001b 0E       		.uleb128 0xe
 2544 001c 00       		.byte	0
 2545 001d 00       		.byte	0
 2546 001e 03       		.uleb128 0x3
 2547 001f 24       		.uleb128 0x24
 2548 0020 00       		.byte	0
 2549 0021 0B       		.uleb128 0xb
 2550 0022 0B       		.uleb128 0xb
 2551 0023 3E       		.uleb128 0x3e
 2552 0024 0B       		.uleb128 0xb
 2553 0025 03       		.uleb128 0x3
 2554 0026 08       		.uleb128 0x8
ARM GAS  C:\Users\Petro\AppData\Local\Temp\ccDwqNKG.s 			page 75


 2555 0027 00       		.byte	0
 2556 0028 00       		.byte	0
 2557 0029 04       		.uleb128 0x4
 2558 002a 16       		.uleb128 0x16
 2559 002b 00       		.byte	0
 2560 002c 03       		.uleb128 0x3
 2561 002d 0E       		.uleb128 0xe
 2562 002e 3A       		.uleb128 0x3a
 2563 002f 0B       		.uleb128 0xb
 2564 0030 3B       		.uleb128 0x3b
 2565 0031 05       		.uleb128 0x5
 2566 0032 49       		.uleb128 0x49
 2567 0033 13       		.uleb128 0x13
 2568 0034 00       		.byte	0
 2569 0035 00       		.byte	0
 2570 0036 05       		.uleb128 0x5
 2571 0037 35       		.uleb128 0x35
 2572 0038 00       		.byte	0
 2573 0039 49       		.uleb128 0x49
 2574 003a 13       		.uleb128 0x13
 2575 003b 00       		.byte	0
 2576 003c 00       		.byte	0
 2577 003d 06       		.uleb128 0x6
 2578 003e 2E       		.uleb128 0x2e
 2579 003f 01       		.byte	0x1
 2580 0040 3F       		.uleb128 0x3f
 2581 0041 19       		.uleb128 0x19
 2582 0042 03       		.uleb128 0x3
 2583 0043 0E       		.uleb128 0xe
 2584 0044 3A       		.uleb128 0x3a
 2585 0045 0B       		.uleb128 0xb
 2586 0046 3B       		.uleb128 0x3b
 2587 0047 05       		.uleb128 0x5
 2588 0048 27       		.uleb128 0x27
 2589 0049 19       		.uleb128 0x19
 2590 004a 20       		.uleb128 0x20
 2591 004b 0B       		.uleb128 0xb
 2592 004c 01       		.uleb128 0x1
 2593 004d 13       		.uleb128 0x13
 2594 004e 00       		.byte	0
 2595 004f 00       		.byte	0
 2596 0050 07       		.uleb128 0x7
 2597 0051 05       		.uleb128 0x5
 2598 0052 00       		.byte	0
 2599 0053 03       		.uleb128 0x3
 2600 0054 0E       		.uleb128 0xe
 2601 0055 3A       		.uleb128 0x3a
 2602 0056 0B       		.uleb128 0xb
 2603 0057 3B       		.uleb128 0x3b
 2604 0058 05       		.uleb128 0x5
 2605 0059 49       		.uleb128 0x49
 2606 005a 13       		.uleb128 0x13
 2607 005b 00       		.byte	0
 2608 005c 00       		.byte	0
 2609 005d 08       		.uleb128 0x8
 2610 005e 2E       		.uleb128 0x2e
 2611 005f 01       		.byte	0x1
ARM GAS  C:\Users\Petro\AppData\Local\Temp\ccDwqNKG.s 			page 76


 2612 0060 3F       		.uleb128 0x3f
 2613 0061 19       		.uleb128 0x19
 2614 0062 03       		.uleb128 0x3
 2615 0063 0E       		.uleb128 0xe
 2616 0064 3A       		.uleb128 0x3a
 2617 0065 0B       		.uleb128 0xb
 2618 0066 3B       		.uleb128 0x3b
 2619 0067 0B       		.uleb128 0xb
 2620 0068 27       		.uleb128 0x27
 2621 0069 19       		.uleb128 0x19
 2622 006a 11       		.uleb128 0x11
 2623 006b 01       		.uleb128 0x1
 2624 006c 12       		.uleb128 0x12
 2625 006d 06       		.uleb128 0x6
 2626 006e 40       		.uleb128 0x40
 2627 006f 18       		.uleb128 0x18
 2628 0070 9742     		.uleb128 0x2117
 2629 0072 19       		.uleb128 0x19
 2630 0073 01       		.uleb128 0x1
 2631 0074 13       		.uleb128 0x13
 2632 0075 00       		.byte	0
 2633 0076 00       		.byte	0
 2634 0077 09       		.uleb128 0x9
 2635 0078 1D       		.uleb128 0x1d
 2636 0079 01       		.byte	0x1
 2637 007a 31       		.uleb128 0x31
 2638 007b 13       		.uleb128 0x13
 2639 007c 11       		.uleb128 0x11
 2640 007d 01       		.uleb128 0x1
 2641 007e 12       		.uleb128 0x12
 2642 007f 06       		.uleb128 0x6
 2643 0080 58       		.uleb128 0x58
 2644 0081 0B       		.uleb128 0xb
 2645 0082 59       		.uleb128 0x59
 2646 0083 0B       		.uleb128 0xb
 2647 0084 01       		.uleb128 0x1
 2648 0085 13       		.uleb128 0x13
 2649 0086 00       		.byte	0
 2650 0087 00       		.byte	0
 2651 0088 0A       		.uleb128 0xa
 2652 0089 05       		.uleb128 0x5
 2653 008a 00       		.byte	0
 2654 008b 31       		.uleb128 0x31
 2655 008c 13       		.uleb128 0x13
 2656 008d 1C       		.uleb128 0x1c
 2657 008e 0B       		.uleb128 0xb
 2658 008f 00       		.byte	0
 2659 0090 00       		.byte	0
 2660 0091 0B       		.uleb128 0xb
 2661 0092 05       		.uleb128 0x5
 2662 0093 00       		.byte	0
 2663 0094 31       		.uleb128 0x31
 2664 0095 13       		.uleb128 0x13
 2665 0096 1C       		.uleb128 0x1c
 2666 0097 05       		.uleb128 0x5
 2667 0098 00       		.byte	0
 2668 0099 00       		.byte	0
ARM GAS  C:\Users\Petro\AppData\Local\Temp\ccDwqNKG.s 			page 77


 2669 009a 0C       		.uleb128 0xc
 2670 009b 1D       		.uleb128 0x1d
 2671 009c 01       		.byte	0x1
 2672 009d 31       		.uleb128 0x31
 2673 009e 13       		.uleb128 0x13
 2674 009f 11       		.uleb128 0x11
 2675 00a0 01       		.uleb128 0x1
 2676 00a1 12       		.uleb128 0x12
 2677 00a2 06       		.uleb128 0x6
 2678 00a3 58       		.uleb128 0x58
 2679 00a4 0B       		.uleb128 0xb
 2680 00a5 59       		.uleb128 0x59
 2681 00a6 0B       		.uleb128 0xb
 2682 00a7 00       		.byte	0
 2683 00a8 00       		.byte	0
 2684 00a9 0D       		.uleb128 0xd
 2685 00aa 2E       		.uleb128 0x2e
 2686 00ab 01       		.byte	0x1
 2687 00ac 3F       		.uleb128 0x3f
 2688 00ad 19       		.uleb128 0x19
 2689 00ae 03       		.uleb128 0x3
 2690 00af 0E       		.uleb128 0xe
 2691 00b0 3A       		.uleb128 0x3a
 2692 00b1 0B       		.uleb128 0xb
 2693 00b2 3B       		.uleb128 0x3b
 2694 00b3 05       		.uleb128 0x5
 2695 00b4 27       		.uleb128 0x27
 2696 00b5 19       		.uleb128 0x19
 2697 00b6 11       		.uleb128 0x11
 2698 00b7 01       		.uleb128 0x1
 2699 00b8 12       		.uleb128 0x12
 2700 00b9 06       		.uleb128 0x6
 2701 00ba 40       		.uleb128 0x40
 2702 00bb 18       		.uleb128 0x18
 2703 00bc 9742     		.uleb128 0x2117
 2704 00be 19       		.uleb128 0x19
 2705 00bf 01       		.uleb128 0x1
 2706 00c0 13       		.uleb128 0x13
 2707 00c1 00       		.byte	0
 2708 00c2 00       		.byte	0
 2709 00c3 0E       		.uleb128 0xe
 2710 00c4 34       		.uleb128 0x34
 2711 00c5 00       		.byte	0
 2712 00c6 03       		.uleb128 0x3
 2713 00c7 0E       		.uleb128 0xe
 2714 00c8 3A       		.uleb128 0x3a
 2715 00c9 0B       		.uleb128 0xb
 2716 00ca 3B       		.uleb128 0x3b
 2717 00cb 05       		.uleb128 0x5
 2718 00cc 49       		.uleb128 0x49
 2719 00cd 13       		.uleb128 0x13
 2720 00ce 02       		.uleb128 0x2
 2721 00cf 17       		.uleb128 0x17
 2722 00d0 00       		.byte	0
 2723 00d1 00       		.byte	0
 2724 00d2 0F       		.uleb128 0xf
 2725 00d3 898201   		.uleb128 0x4109
ARM GAS  C:\Users\Petro\AppData\Local\Temp\ccDwqNKG.s 			page 78


 2726 00d6 00       		.byte	0
 2727 00d7 11       		.uleb128 0x11
 2728 00d8 01       		.uleb128 0x1
 2729 00d9 31       		.uleb128 0x31
 2730 00da 13       		.uleb128 0x13
 2731 00db 00       		.byte	0
 2732 00dc 00       		.byte	0
 2733 00dd 10       		.uleb128 0x10
 2734 00de 05       		.uleb128 0x5
 2735 00df 00       		.byte	0
 2736 00e0 03       		.uleb128 0x3
 2737 00e1 0E       		.uleb128 0xe
 2738 00e2 3A       		.uleb128 0x3a
 2739 00e3 0B       		.uleb128 0xb
 2740 00e4 3B       		.uleb128 0x3b
 2741 00e5 05       		.uleb128 0x5
 2742 00e6 49       		.uleb128 0x49
 2743 00e7 13       		.uleb128 0x13
 2744 00e8 02       		.uleb128 0x2
 2745 00e9 17       		.uleb128 0x17
 2746 00ea 00       		.byte	0
 2747 00eb 00       		.byte	0
 2748 00ec 11       		.uleb128 0x11
 2749 00ed 2E       		.uleb128 0x2e
 2750 00ee 01       		.byte	0x1
 2751 00ef 31       		.uleb128 0x31
 2752 00f0 13       		.uleb128 0x13
 2753 00f1 11       		.uleb128 0x11
 2754 00f2 01       		.uleb128 0x1
 2755 00f3 12       		.uleb128 0x12
 2756 00f4 06       		.uleb128 0x6
 2757 00f5 40       		.uleb128 0x40
 2758 00f6 18       		.uleb128 0x18
 2759 00f7 9742     		.uleb128 0x2117
 2760 00f9 19       		.uleb128 0x19
 2761 00fa 01       		.uleb128 0x1
 2762 00fb 13       		.uleb128 0x13
 2763 00fc 00       		.byte	0
 2764 00fd 00       		.byte	0
 2765 00fe 12       		.uleb128 0x12
 2766 00ff 05       		.uleb128 0x5
 2767 0100 00       		.byte	0
 2768 0101 31       		.uleb128 0x31
 2769 0102 13       		.uleb128 0x13
 2770 0103 02       		.uleb128 0x2
 2771 0104 17       		.uleb128 0x17
 2772 0105 00       		.byte	0
 2773 0106 00       		.byte	0
 2774 0107 13       		.uleb128 0x13
 2775 0108 2E       		.uleb128 0x2e
 2776 0109 00       		.byte	0
 2777 010a 3F       		.uleb128 0x3f
 2778 010b 19       		.uleb128 0x19
 2779 010c 03       		.uleb128 0x3
 2780 010d 0E       		.uleb128 0xe
 2781 010e 3A       		.uleb128 0x3a
 2782 010f 0B       		.uleb128 0xb
ARM GAS  C:\Users\Petro\AppData\Local\Temp\ccDwqNKG.s 			page 79


 2783 0110 3B       		.uleb128 0x3b
 2784 0111 05       		.uleb128 0x5
 2785 0112 27       		.uleb128 0x27
 2786 0113 19       		.uleb128 0x19
 2787 0114 49       		.uleb128 0x49
 2788 0115 13       		.uleb128 0x13
 2789 0116 11       		.uleb128 0x11
 2790 0117 01       		.uleb128 0x1
 2791 0118 12       		.uleb128 0x12
 2792 0119 06       		.uleb128 0x6
 2793 011a 40       		.uleb128 0x40
 2794 011b 18       		.uleb128 0x18
 2795 011c 9742     		.uleb128 0x2117
 2796 011e 19       		.uleb128 0x19
 2797 011f 00       		.byte	0
 2798 0120 00       		.byte	0
 2799 0121 14       		.uleb128 0x14
 2800 0122 34       		.uleb128 0x34
 2801 0123 00       		.byte	0
 2802 0124 03       		.uleb128 0x3
 2803 0125 0E       		.uleb128 0xe
 2804 0126 3A       		.uleb128 0x3a
 2805 0127 0B       		.uleb128 0xb
 2806 0128 3B       		.uleb128 0x3b
 2807 0129 0B       		.uleb128 0xb
 2808 012a 49       		.uleb128 0x49
 2809 012b 13       		.uleb128 0x13
 2810 012c 02       		.uleb128 0x2
 2811 012d 17       		.uleb128 0x17
 2812 012e 00       		.byte	0
 2813 012f 00       		.byte	0
 2814 0130 15       		.uleb128 0x15
 2815 0131 898201   		.uleb128 0x4109
 2816 0134 01       		.byte	0x1
 2817 0135 11       		.uleb128 0x11
 2818 0136 01       		.uleb128 0x1
 2819 0137 31       		.uleb128 0x31
 2820 0138 13       		.uleb128 0x13
 2821 0139 00       		.byte	0
 2822 013a 00       		.byte	0
 2823 013b 16       		.uleb128 0x16
 2824 013c 8A8201   		.uleb128 0x410a
 2825 013f 00       		.byte	0
 2826 0140 02       		.uleb128 0x2
 2827 0141 18       		.uleb128 0x18
 2828 0142 9142     		.uleb128 0x2111
 2829 0144 18       		.uleb128 0x18
 2830 0145 00       		.byte	0
 2831 0146 00       		.byte	0
 2832 0147 17       		.uleb128 0x17
 2833 0148 05       		.uleb128 0x5
 2834 0149 00       		.byte	0
 2835 014a 31       		.uleb128 0x31
 2836 014b 13       		.uleb128 0x13
 2837 014c 02       		.uleb128 0x2
 2838 014d 18       		.uleb128 0x18
 2839 014e 00       		.byte	0
ARM GAS  C:\Users\Petro\AppData\Local\Temp\ccDwqNKG.s 			page 80


 2840 014f 00       		.byte	0
 2841 0150 18       		.uleb128 0x18
 2842 0151 05       		.uleb128 0x5
 2843 0152 00       		.byte	0
 2844 0153 03       		.uleb128 0x3
 2845 0154 0E       		.uleb128 0xe
 2846 0155 3A       		.uleb128 0x3a
 2847 0156 0B       		.uleb128 0xb
 2848 0157 3B       		.uleb128 0x3b
 2849 0158 05       		.uleb128 0x5
 2850 0159 49       		.uleb128 0x49
 2851 015a 13       		.uleb128 0x13
 2852 015b 02       		.uleb128 0x2
 2853 015c 18       		.uleb128 0x18
 2854 015d 00       		.byte	0
 2855 015e 00       		.byte	0
 2856 015f 19       		.uleb128 0x19
 2857 0160 34       		.uleb128 0x34
 2858 0161 00       		.byte	0
 2859 0162 03       		.uleb128 0x3
 2860 0163 0E       		.uleb128 0xe
 2861 0164 3A       		.uleb128 0x3a
 2862 0165 0B       		.uleb128 0xb
 2863 0166 3B       		.uleb128 0x3b
 2864 0167 0B       		.uleb128 0xb
 2865 0168 49       		.uleb128 0x49
 2866 0169 13       		.uleb128 0x13
 2867 016a 3F       		.uleb128 0x3f
 2868 016b 19       		.uleb128 0x19
 2869 016c 02       		.uleb128 0x2
 2870 016d 18       		.uleb128 0x18
 2871 016e 00       		.byte	0
 2872 016f 00       		.byte	0
 2873 0170 1A       		.uleb128 0x1a
 2874 0171 2E       		.uleb128 0x2e
 2875 0172 00       		.byte	0
 2876 0173 3F       		.uleb128 0x3f
 2877 0174 19       		.uleb128 0x19
 2878 0175 03       		.uleb128 0x3
 2879 0176 0E       		.uleb128 0xe
 2880 0177 3A       		.uleb128 0x3a
 2881 0178 0B       		.uleb128 0xb
 2882 0179 3B       		.uleb128 0x3b
 2883 017a 0B       		.uleb128 0xb
 2884 017b 27       		.uleb128 0x27
 2885 017c 19       		.uleb128 0x19
 2886 017d 49       		.uleb128 0x49
 2887 017e 13       		.uleb128 0x13
 2888 017f 3C       		.uleb128 0x3c
 2889 0180 19       		.uleb128 0x19
 2890 0181 00       		.byte	0
 2891 0182 00       		.byte	0
 2892 0183 1B       		.uleb128 0x1b
 2893 0184 2E       		.uleb128 0x2e
 2894 0185 01       		.byte	0x1
 2895 0186 3F       		.uleb128 0x3f
 2896 0187 19       		.uleb128 0x19
ARM GAS  C:\Users\Petro\AppData\Local\Temp\ccDwqNKG.s 			page 81


 2897 0188 03       		.uleb128 0x3
 2898 0189 0E       		.uleb128 0xe
 2899 018a 3A       		.uleb128 0x3a
 2900 018b 0B       		.uleb128 0xb
 2901 018c 3B       		.uleb128 0x3b
 2902 018d 0B       		.uleb128 0xb
 2903 018e 27       		.uleb128 0x27
 2904 018f 19       		.uleb128 0x19
 2905 0190 3C       		.uleb128 0x3c
 2906 0191 19       		.uleb128 0x19
 2907 0192 00       		.byte	0
 2908 0193 00       		.byte	0
 2909 0194 1C       		.uleb128 0x1c
 2910 0195 05       		.uleb128 0x5
 2911 0196 00       		.byte	0
 2912 0197 49       		.uleb128 0x49
 2913 0198 13       		.uleb128 0x13
 2914 0199 00       		.byte	0
 2915 019a 00       		.byte	0
 2916 019b 00       		.byte	0
 2917              		.section	.debug_loc,"",%progbits
 2918              	.Ldebug_loc0:
 2919              	.LLST0:
 2920 0000 06000000 		.4byte	.LVL4
 2921 0004 13000000 		.4byte	.LVL5-1
 2922 0008 0100     		.2byte	0x1
 2923 000a 50       		.byte	0x50
 2924 000b 00000000 		.4byte	0
 2925 000f 00000000 		.4byte	0
 2926              	.LLST1:
 2927 0013 00000000 		.4byte	.LVL6
 2928 0017 07000000 		.4byte	.LVL7-1
 2929 001b 0100     		.2byte	0x1
 2930 001d 50       		.byte	0x50
 2931 001e 07000000 		.4byte	.LVL7-1
 2932 0022 1C000000 		.4byte	.LVL9
 2933 0026 0100     		.2byte	0x1
 2934 0028 54       		.byte	0x54
 2935 0029 1C000000 		.4byte	.LVL9
 2936 002d 28000000 		.4byte	.LFE6
 2937 0031 0400     		.2byte	0x4
 2938 0033 F3       		.byte	0xf3
 2939 0034 01       		.uleb128 0x1
 2940 0035 50       		.byte	0x50
 2941 0036 9F       		.byte	0x9f
 2942 0037 00000000 		.4byte	0
 2943 003b 00000000 		.4byte	0
 2944              	.LLST2:
 2945 003f 08000000 		.4byte	.LVL7
 2946 0043 1B000000 		.4byte	.LVL8-1
 2947 0047 0100     		.2byte	0x1
 2948 0049 50       		.byte	0x50
 2949 004a 00000000 		.4byte	0
 2950 004e 00000000 		.4byte	0
 2951              	.LLST3:
 2952 0052 00000000 		.4byte	.LVL10
 2953 0056 07000000 		.4byte	.LVL11-1
ARM GAS  C:\Users\Petro\AppData\Local\Temp\ccDwqNKG.s 			page 82


 2954 005a 0100     		.2byte	0x1
 2955 005c 50       		.byte	0x50
 2956 005d 07000000 		.4byte	.LVL11-1
 2957 0061 1C000000 		.4byte	.LVL13
 2958 0065 0100     		.2byte	0x1
 2959 0067 54       		.byte	0x54
 2960 0068 1C000000 		.4byte	.LVL13
 2961 006c 28000000 		.4byte	.LFE7
 2962 0070 0400     		.2byte	0x4
 2963 0072 F3       		.byte	0xf3
 2964 0073 01       		.uleb128 0x1
 2965 0074 50       		.byte	0x50
 2966 0075 9F       		.byte	0x9f
 2967 0076 00000000 		.4byte	0
 2968 007a 00000000 		.4byte	0
 2969              	.LLST4:
 2970 007e 08000000 		.4byte	.LVL11
 2971 0082 1B000000 		.4byte	.LVL12-1
 2972 0086 0100     		.2byte	0x1
 2973 0088 50       		.byte	0x50
 2974 0089 00000000 		.4byte	0
 2975 008d 00000000 		.4byte	0
 2976              	.LLST5:
 2977 0091 00000000 		.4byte	.LVL14
 2978 0095 07000000 		.4byte	.LVL15-1
 2979 0099 0100     		.2byte	0x1
 2980 009b 50       		.byte	0x50
 2981 009c 07000000 		.4byte	.LVL15-1
 2982 00a0 1C000000 		.4byte	.LVL17
 2983 00a4 0100     		.2byte	0x1
 2984 00a6 54       		.byte	0x54
 2985 00a7 1C000000 		.4byte	.LVL17
 2986 00ab 28000000 		.4byte	.LFE8
 2987 00af 0400     		.2byte	0x4
 2988 00b1 F3       		.byte	0xf3
 2989 00b2 01       		.uleb128 0x1
 2990 00b3 50       		.byte	0x50
 2991 00b4 9F       		.byte	0x9f
 2992 00b5 00000000 		.4byte	0
 2993 00b9 00000000 		.4byte	0
 2994              	.LLST6:
 2995 00bd 08000000 		.4byte	.LVL15
 2996 00c1 1B000000 		.4byte	.LVL16-1
 2997 00c5 0100     		.2byte	0x1
 2998 00c7 50       		.byte	0x50
 2999 00c8 00000000 		.4byte	0
 3000 00cc 00000000 		.4byte	0
 3001              	.LLST7:
 3002 00d0 00000000 		.4byte	.LVL18
 3003 00d4 07000000 		.4byte	.LVL19-1
 3004 00d8 0100     		.2byte	0x1
 3005 00da 50       		.byte	0x50
 3006 00db 07000000 		.4byte	.LVL19-1
 3007 00df 22000000 		.4byte	.LVL21
 3008 00e3 0100     		.2byte	0x1
 3009 00e5 54       		.byte	0x54
 3010 00e6 22000000 		.4byte	.LVL21
ARM GAS  C:\Users\Petro\AppData\Local\Temp\ccDwqNKG.s 			page 83


 3011 00ea 2C000000 		.4byte	.LFE9
 3012 00ee 0400     		.2byte	0x4
 3013 00f0 F3       		.byte	0xf3
 3014 00f1 01       		.uleb128 0x1
 3015 00f2 50       		.byte	0x50
 3016 00f3 9F       		.byte	0x9f
 3017 00f4 00000000 		.4byte	0
 3018 00f8 00000000 		.4byte	0
 3019              	.LLST8:
 3020 00fc 08000000 		.4byte	.LVL19
 3021 0100 21000000 		.4byte	.LVL20-1
 3022 0104 0100     		.2byte	0x1
 3023 0106 50       		.byte	0x50
 3024 0107 00000000 		.4byte	0
 3025 010b 00000000 		.4byte	0
 3026              	.LLST9:
 3027 010f 00000000 		.4byte	.LVL22
 3028 0113 04000000 		.4byte	.LVL23
 3029 0117 0100     		.2byte	0x1
 3030 0119 50       		.byte	0x50
 3031 011a 04000000 		.4byte	.LVL23
 3032 011e 10000000 		.4byte	.LFE10
 3033 0122 0400     		.2byte	0x4
 3034 0124 F3       		.byte	0xf3
 3035 0125 01       		.uleb128 0x1
 3036 0126 50       		.byte	0x50
 3037 0127 9F       		.byte	0x9f
 3038 0128 00000000 		.4byte	0
 3039 012c 00000000 		.4byte	0
 3040              	.LLST10:
 3041 0130 00000000 		.4byte	.LVL24
 3042 0134 07000000 		.4byte	.LVL25-1
 3043 0138 0100     		.2byte	0x1
 3044 013a 50       		.byte	0x50
 3045 013b 07000000 		.4byte	.LVL25-1
 3046 013f 22000000 		.4byte	.LVL27
 3047 0143 0100     		.2byte	0x1
 3048 0145 54       		.byte	0x54
 3049 0146 22000000 		.4byte	.LVL27
 3050 014a 28000000 		.4byte	.LFE11
 3051 014e 0400     		.2byte	0x4
 3052 0150 F3       		.byte	0xf3
 3053 0151 01       		.uleb128 0x1
 3054 0152 50       		.byte	0x50
 3055 0153 9F       		.byte	0x9f
 3056 0154 00000000 		.4byte	0
 3057 0158 00000000 		.4byte	0
 3058              	.LLST11:
 3059 015c 08000000 		.4byte	.LVL25
 3060 0160 21000000 		.4byte	.LVL26-1
 3061 0164 0100     		.2byte	0x1
 3062 0166 50       		.byte	0x50
 3063 0167 00000000 		.4byte	0
 3064 016b 00000000 		.4byte	0
 3065              	.LLST12:
 3066 016f 00000000 		.4byte	.LVL28
 3067 0173 07000000 		.4byte	.LVL29-1
ARM GAS  C:\Users\Petro\AppData\Local\Temp\ccDwqNKG.s 			page 84


 3068 0177 0100     		.2byte	0x1
 3069 0179 50       		.byte	0x50
 3070 017a 07000000 		.4byte	.LVL29-1
 3071 017e 22000000 		.4byte	.LVL31
 3072 0182 0100     		.2byte	0x1
 3073 0184 54       		.byte	0x54
 3074 0185 22000000 		.4byte	.LVL31
 3075 0189 28000000 		.4byte	.LFE12
 3076 018d 0400     		.2byte	0x4
 3077 018f F3       		.byte	0xf3
 3078 0190 01       		.uleb128 0x1
 3079 0191 50       		.byte	0x50
 3080 0192 9F       		.byte	0x9f
 3081 0193 00000000 		.4byte	0
 3082 0197 00000000 		.4byte	0
 3083              	.LLST13:
 3084 019b 08000000 		.4byte	.LVL29
 3085 019f 21000000 		.4byte	.LVL30-1
 3086 01a3 0100     		.2byte	0x1
 3087 01a5 50       		.byte	0x50
 3088 01a6 00000000 		.4byte	0
 3089 01aa 00000000 		.4byte	0
 3090              	.LLST14:
 3091 01ae 00000000 		.4byte	.LVL32
 3092 01b2 07000000 		.4byte	.LVL33-1
 3093 01b6 0100     		.2byte	0x1
 3094 01b8 50       		.byte	0x50
 3095 01b9 07000000 		.4byte	.LVL33-1
 3096 01bd 10000000 		.4byte	.LVL34
 3097 01c1 0100     		.2byte	0x1
 3098 01c3 54       		.byte	0x54
 3099 01c4 10000000 		.4byte	.LVL34
 3100 01c8 2C000000 		.4byte	.LFE13
 3101 01cc 0400     		.2byte	0x4
 3102 01ce F3       		.byte	0xf3
 3103 01cf 01       		.uleb128 0x1
 3104 01d0 50       		.byte	0x50
 3105 01d1 9F       		.byte	0x9f
 3106 01d2 00000000 		.4byte	0
 3107 01d6 00000000 		.4byte	0
 3108              	.LLST15:
 3109 01da 08000000 		.4byte	.LVL33
 3110 01de 1F000000 		.4byte	.LVL35-1
 3111 01e2 0100     		.2byte	0x1
 3112 01e4 50       		.byte	0x50
 3113 01e5 00000000 		.4byte	0
 3114 01e9 00000000 		.4byte	0
 3115              	.LLST16:
 3116 01ed 00000000 		.4byte	.LVL36
 3117 01f1 07000000 		.4byte	.LVL37-1
 3118 01f5 0100     		.2byte	0x1
 3119 01f7 50       		.byte	0x50
 3120 01f8 07000000 		.4byte	.LVL37-1
 3121 01fc 1C000000 		.4byte	.LVL39
 3122 0200 0100     		.2byte	0x1
 3123 0202 54       		.byte	0x54
 3124 0203 1C000000 		.4byte	.LVL39
ARM GAS  C:\Users\Petro\AppData\Local\Temp\ccDwqNKG.s 			page 85


 3125 0207 28000000 		.4byte	.LFE14
 3126 020b 0400     		.2byte	0x4
 3127 020d F3       		.byte	0xf3
 3128 020e 01       		.uleb128 0x1
 3129 020f 50       		.byte	0x50
 3130 0210 9F       		.byte	0x9f
 3131 0211 00000000 		.4byte	0
 3132 0215 00000000 		.4byte	0
 3133              	.LLST17:
 3134 0219 08000000 		.4byte	.LVL37
 3135 021d 1B000000 		.4byte	.LVL38-1
 3136 0221 0100     		.2byte	0x1
 3137 0223 50       		.byte	0x50
 3138 0224 00000000 		.4byte	0
 3139 0228 00000000 		.4byte	0
 3140              	.LLST18:
 3141 022c 00000000 		.4byte	.LVL40
 3142 0230 04000000 		.4byte	.LVL41
 3143 0234 0100     		.2byte	0x1
 3144 0236 50       		.byte	0x50
 3145 0237 04000000 		.4byte	.LVL41
 3146 023b 0C000000 		.4byte	.LFE15
 3147 023f 0400     		.2byte	0x4
 3148 0241 F3       		.byte	0xf3
 3149 0242 01       		.uleb128 0x1
 3150 0243 50       		.byte	0x50
 3151 0244 9F       		.byte	0x9f
 3152 0245 00000000 		.4byte	0
 3153 0249 00000000 		.4byte	0
 3154              	.LLST19:
 3155 024d 00000000 		.4byte	.LVL42
 3156 0251 07000000 		.4byte	.LVL43-1
 3157 0255 0100     		.2byte	0x1
 3158 0257 50       		.byte	0x50
 3159 0258 07000000 		.4byte	.LVL43-1
 3160 025c 1C000000 		.4byte	.LVL45
 3161 0260 0100     		.2byte	0x1
 3162 0262 54       		.byte	0x54
 3163 0263 1C000000 		.4byte	.LVL45
 3164 0267 28000000 		.4byte	.LFE17
 3165 026b 0400     		.2byte	0x4
 3166 026d F3       		.byte	0xf3
 3167 026e 01       		.uleb128 0x1
 3168 026f 50       		.byte	0x50
 3169 0270 9F       		.byte	0x9f
 3170 0271 00000000 		.4byte	0
 3171 0275 00000000 		.4byte	0
 3172              	.LLST20:
 3173 0279 08000000 		.4byte	.LVL43
 3174 027d 1B000000 		.4byte	.LVL44-1
 3175 0281 0100     		.2byte	0x1
 3176 0283 50       		.byte	0x50
 3177 0284 00000000 		.4byte	0
 3178 0288 00000000 		.4byte	0
 3179              	.LLST21:
 3180 028c 00000000 		.4byte	.LVL46
 3181 0290 04000000 		.4byte	.LVL47
ARM GAS  C:\Users\Petro\AppData\Local\Temp\ccDwqNKG.s 			page 86


 3182 0294 0100     		.2byte	0x1
 3183 0296 50       		.byte	0x50
 3184 0297 04000000 		.4byte	.LVL47
 3185 029b 0C000000 		.4byte	.LFE18
 3186 029f 0400     		.2byte	0x4
 3187 02a1 F3       		.byte	0xf3
 3188 02a2 01       		.uleb128 0x1
 3189 02a3 50       		.byte	0x50
 3190 02a4 9F       		.byte	0x9f
 3191 02a5 00000000 		.4byte	0
 3192 02a9 00000000 		.4byte	0
 3193              	.LLST22:
 3194 02ad 00000000 		.4byte	.LVL48
 3195 02b1 07000000 		.4byte	.LVL49-1
 3196 02b5 0100     		.2byte	0x1
 3197 02b7 50       		.byte	0x50
 3198 02b8 07000000 		.4byte	.LVL49-1
 3199 02bc 1E000000 		.4byte	.LVL51
 3200 02c0 0100     		.2byte	0x1
 3201 02c2 54       		.byte	0x54
 3202 02c3 1E000000 		.4byte	.LVL51
 3203 02c7 24000000 		.4byte	.LFE20
 3204 02cb 0400     		.2byte	0x4
 3205 02cd F3       		.byte	0xf3
 3206 02ce 01       		.uleb128 0x1
 3207 02cf 50       		.byte	0x50
 3208 02d0 9F       		.byte	0x9f
 3209 02d1 00000000 		.4byte	0
 3210 02d5 00000000 		.4byte	0
 3211              	.LLST23:
 3212 02d9 08000000 		.4byte	.LVL49
 3213 02dd 1D000000 		.4byte	.LVL50-1
 3214 02e1 0100     		.2byte	0x1
 3215 02e3 50       		.byte	0x50
 3216 02e4 00000000 		.4byte	0
 3217 02e8 00000000 		.4byte	0
 3218              	.LLST24:
 3219 02ec 00000000 		.4byte	.LVL52
 3220 02f0 04000000 		.4byte	.LVL53
 3221 02f4 0100     		.2byte	0x1
 3222 02f6 50       		.byte	0x50
 3223 02f7 04000000 		.4byte	.LVL53
 3224 02fb 0C000000 		.4byte	.LFE21
 3225 02ff 0400     		.2byte	0x4
 3226 0301 F3       		.byte	0xf3
 3227 0302 01       		.uleb128 0x1
 3228 0303 50       		.byte	0x50
 3229 0304 9F       		.byte	0x9f
 3230 0305 00000000 		.4byte	0
 3231 0309 00000000 		.4byte	0
 3232              	.LLST25:
 3233 030d 00000000 		.4byte	.LVL54
 3234 0311 07000000 		.4byte	.LVL55-1
 3235 0315 0100     		.2byte	0x1
 3236 0317 50       		.byte	0x50
 3237 0318 07000000 		.4byte	.LVL55-1
 3238 031c 22000000 		.4byte	.LVL57
ARM GAS  C:\Users\Petro\AppData\Local\Temp\ccDwqNKG.s 			page 87


 3239 0320 0100     		.2byte	0x1
 3240 0322 54       		.byte	0x54
 3241 0323 22000000 		.4byte	.LVL57
 3242 0327 28000000 		.4byte	.LFE23
 3243 032b 0400     		.2byte	0x4
 3244 032d F3       		.byte	0xf3
 3245 032e 01       		.uleb128 0x1
 3246 032f 50       		.byte	0x50
 3247 0330 9F       		.byte	0x9f
 3248 0331 00000000 		.4byte	0
 3249 0335 00000000 		.4byte	0
 3250              	.LLST26:
 3251 0339 08000000 		.4byte	.LVL55
 3252 033d 21000000 		.4byte	.LVL56-1
 3253 0341 0100     		.2byte	0x1
 3254 0343 50       		.byte	0x50
 3255 0344 00000000 		.4byte	0
 3256 0348 00000000 		.4byte	0
 3257              	.LLST27:
 3258 034c 00000000 		.4byte	.LVL58
 3259 0350 04000000 		.4byte	.LVL59
 3260 0354 0100     		.2byte	0x1
 3261 0356 50       		.byte	0x50
 3262 0357 04000000 		.4byte	.LVL59
 3263 035b 0C000000 		.4byte	.LFE24
 3264 035f 0400     		.2byte	0x4
 3265 0361 F3       		.byte	0xf3
 3266 0362 01       		.uleb128 0x1
 3267 0363 50       		.byte	0x50
 3268 0364 9F       		.byte	0x9f
 3269 0365 00000000 		.4byte	0
 3270 0369 00000000 		.4byte	0
 3271              	.LLST28:
 3272 036d 00000000 		.4byte	.LVL60
 3273 0371 04000000 		.4byte	.LVL61
 3274 0375 0100     		.2byte	0x1
 3275 0377 50       		.byte	0x50
 3276 0378 04000000 		.4byte	.LVL61
 3277 037c 0C000000 		.4byte	.LFE26
 3278 0380 0400     		.2byte	0x4
 3279 0382 F3       		.byte	0xf3
 3280 0383 01       		.uleb128 0x1
 3281 0384 50       		.byte	0x50
 3282 0385 9F       		.byte	0x9f
 3283 0386 00000000 		.4byte	0
 3284 038a 00000000 		.4byte	0
 3285              	.LLST29:
 3286 038e 00000000 		.4byte	.LVL62
 3287 0392 07000000 		.4byte	.LVL63-1
 3288 0396 0100     		.2byte	0x1
 3289 0398 50       		.byte	0x50
 3290 0399 07000000 		.4byte	.LVL63-1
 3291 039d 1C000000 		.4byte	.LVL65
 3292 03a1 0100     		.2byte	0x1
 3293 03a3 54       		.byte	0x54
 3294 03a4 1C000000 		.4byte	.LVL65
 3295 03a8 24000000 		.4byte	.LFE30
ARM GAS  C:\Users\Petro\AppData\Local\Temp\ccDwqNKG.s 			page 88


 3296 03ac 0400     		.2byte	0x4
 3297 03ae F3       		.byte	0xf3
 3298 03af 01       		.uleb128 0x1
 3299 03b0 50       		.byte	0x50
 3300 03b1 9F       		.byte	0x9f
 3301 03b2 00000000 		.4byte	0
 3302 03b6 00000000 		.4byte	0
 3303              	.LLST30:
 3304 03ba 08000000 		.4byte	.LVL63
 3305 03be 1B000000 		.4byte	.LVL64-1
 3306 03c2 0100     		.2byte	0x1
 3307 03c4 50       		.byte	0x50
 3308 03c5 00000000 		.4byte	0
 3309 03c9 00000000 		.4byte	0
 3310              	.LLST31:
 3311 03cd 00000000 		.4byte	.LVL66
 3312 03d1 07000000 		.4byte	.LVL67-1
 3313 03d5 0100     		.2byte	0x1
 3314 03d7 50       		.byte	0x50
 3315 03d8 07000000 		.4byte	.LVL67-1
 3316 03dc 1E000000 		.4byte	.LVL69
 3317 03e0 0100     		.2byte	0x1
 3318 03e2 54       		.byte	0x54
 3319 03e3 1E000000 		.4byte	.LVL69
 3320 03e7 24000000 		.4byte	.LFE31
 3321 03eb 0400     		.2byte	0x4
 3322 03ed F3       		.byte	0xf3
 3323 03ee 01       		.uleb128 0x1
 3324 03ef 50       		.byte	0x50
 3325 03f0 9F       		.byte	0x9f
 3326 03f1 00000000 		.4byte	0
 3327 03f5 00000000 		.4byte	0
 3328              	.LLST32:
 3329 03f9 08000000 		.4byte	.LVL67
 3330 03fd 1D000000 		.4byte	.LVL68-1
 3331 0401 0100     		.2byte	0x1
 3332 0403 50       		.byte	0x50
 3333 0404 00000000 		.4byte	0
 3334 0408 00000000 		.4byte	0
 3335              	.LLST33:
 3336 040c 00000000 		.4byte	.LVL70
 3337 0410 07000000 		.4byte	.LVL71-1
 3338 0414 0100     		.2byte	0x1
 3339 0416 50       		.byte	0x50
 3340 0417 07000000 		.4byte	.LVL71-1
 3341 041b 1E000000 		.4byte	.LVL73
 3342 041f 0100     		.2byte	0x1
 3343 0421 54       		.byte	0x54
 3344 0422 1E000000 		.4byte	.LVL73
 3345 0426 28000000 		.4byte	.LFE32
 3346 042a 0400     		.2byte	0x4
 3347 042c F3       		.byte	0xf3
 3348 042d 01       		.uleb128 0x1
 3349 042e 50       		.byte	0x50
 3350 042f 9F       		.byte	0x9f
 3351 0430 00000000 		.4byte	0
 3352 0434 00000000 		.4byte	0
ARM GAS  C:\Users\Petro\AppData\Local\Temp\ccDwqNKG.s 			page 89


 3353              	.LLST34:
 3354 0438 08000000 		.4byte	.LVL71
 3355 043c 1D000000 		.4byte	.LVL72-1
 3356 0440 0100     		.2byte	0x1
 3357 0442 50       		.byte	0x50
 3358 0443 00000000 		.4byte	0
 3359 0447 00000000 		.4byte	0
 3360              	.LLST35:
 3361 044b 00000000 		.4byte	.LVL74
 3362 044f 07000000 		.4byte	.LVL75-1
 3363 0453 0100     		.2byte	0x1
 3364 0455 50       		.byte	0x50
 3365 0456 07000000 		.4byte	.LVL75-1
 3366 045a 1E000000 		.4byte	.LVL77
 3367 045e 0100     		.2byte	0x1
 3368 0460 54       		.byte	0x54
 3369 0461 1E000000 		.4byte	.LVL77
 3370 0465 24000000 		.4byte	.LFE33
 3371 0469 0400     		.2byte	0x4
 3372 046b F3       		.byte	0xf3
 3373 046c 01       		.uleb128 0x1
 3374 046d 50       		.byte	0x50
 3375 046e 9F       		.byte	0x9f
 3376 046f 00000000 		.4byte	0
 3377 0473 00000000 		.4byte	0
 3378              	.LLST36:
 3379 0477 08000000 		.4byte	.LVL75
 3380 047b 1D000000 		.4byte	.LVL76-1
 3381 047f 0100     		.2byte	0x1
 3382 0481 50       		.byte	0x50
 3383 0482 00000000 		.4byte	0
 3384 0486 00000000 		.4byte	0
 3385              	.LLST37:
 3386 048a 00000000 		.4byte	.LVL78
 3387 048e 07000000 		.4byte	.LVL79-1
 3388 0492 0100     		.2byte	0x1
 3389 0494 50       		.byte	0x50
 3390 0495 07000000 		.4byte	.LVL79-1
 3391 0499 1E000000 		.4byte	.LVL81
 3392 049d 0100     		.2byte	0x1
 3393 049f 54       		.byte	0x54
 3394 04a0 1E000000 		.4byte	.LVL81
 3395 04a4 24000000 		.4byte	.LFE34
 3396 04a8 0400     		.2byte	0x4
 3397 04aa F3       		.byte	0xf3
 3398 04ab 01       		.uleb128 0x1
 3399 04ac 50       		.byte	0x50
 3400 04ad 9F       		.byte	0x9f
 3401 04ae 00000000 		.4byte	0
 3402 04b2 00000000 		.4byte	0
 3403              	.LLST38:
 3404 04b6 08000000 		.4byte	.LVL79
 3405 04ba 1D000000 		.4byte	.LVL80-1
 3406 04be 0100     		.2byte	0x1
 3407 04c0 50       		.byte	0x50
 3408 04c1 00000000 		.4byte	0
 3409 04c5 00000000 		.4byte	0
ARM GAS  C:\Users\Petro\AppData\Local\Temp\ccDwqNKG.s 			page 90


 3410              	.LLST39:
 3411 04c9 00000000 		.4byte	.LVL82
 3412 04cd 0B000000 		.4byte	.LVL83-1
 3413 04d1 0100     		.2byte	0x1
 3414 04d3 50       		.byte	0x50
 3415 04d4 0B000000 		.4byte	.LVL83-1
 3416 04d8 1C000000 		.4byte	.LFE35
 3417 04dc 0400     		.2byte	0x4
 3418 04de F3       		.byte	0xf3
 3419 04df 01       		.uleb128 0x1
 3420 04e0 50       		.byte	0x50
 3421 04e1 9F       		.byte	0x9f
 3422 04e2 00000000 		.4byte	0
 3423 04e6 00000000 		.4byte	0
 3424              	.LLST40:
 3425 04ea 00000000 		.4byte	.LVL82
 3426 04ee 0B000000 		.4byte	.LVL83-1
 3427 04f2 0100     		.2byte	0x1
 3428 04f4 51       		.byte	0x51
 3429 04f5 0B000000 		.4byte	.LVL83-1
 3430 04f9 14000000 		.4byte	.LVL85
 3431 04fd 0100     		.2byte	0x1
 3432 04ff 55       		.byte	0x55
 3433 0500 14000000 		.4byte	.LVL85
 3434 0504 1C000000 		.4byte	.LFE35
 3435 0508 0400     		.2byte	0x4
 3436 050a F3       		.byte	0xf3
 3437 050b 01       		.uleb128 0x1
 3438 050c 51       		.byte	0x51
 3439 050d 9F       		.byte	0x9f
 3440 050e 00000000 		.4byte	0
 3441 0512 00000000 		.4byte	0
 3442              	.LLST41:
 3443 0516 0C000000 		.4byte	.LVL83
 3444 051a 13000000 		.4byte	.LVL84-1
 3445 051e 0100     		.2byte	0x1
 3446 0520 50       		.byte	0x50
 3447 0521 00000000 		.4byte	0
 3448 0525 00000000 		.4byte	0
 3449              	.LLST42:
 3450 0529 08000000 		.4byte	.LVL86
 3451 052d 13000000 		.4byte	.LVL87-1
 3452 0531 0100     		.2byte	0x1
 3453 0533 50       		.byte	0x50
 3454 0534 00000000 		.4byte	0
 3455 0538 00000000 		.4byte	0
 3456              		.section	.debug_aranges,"",%progbits
 3457 0000 54010000 		.4byte	0x154
 3458 0004 0200     		.2byte	0x2
 3459 0006 00000000 		.4byte	.Ldebug_info0
 3460 000a 04       		.byte	0x4
 3461 000b 00       		.byte	0
 3462 000c 0000     		.2byte	0
 3463 000e 0000     		.2byte	0
 3464 0010 00000000 		.4byte	.LFB2
 3465 0014 40000000 		.4byte	.LFE2-.LFB2
 3466 0018 00000000 		.4byte	.LFB5
ARM GAS  C:\Users\Petro\AppData\Local\Temp\ccDwqNKG.s 			page 91


 3467 001c 1C000000 		.4byte	.LFE5-.LFB5
 3468 0020 00000000 		.4byte	.LFB6
 3469 0024 28000000 		.4byte	.LFE6-.LFB6
 3470 0028 00000000 		.4byte	.LFB7
 3471 002c 28000000 		.4byte	.LFE7-.LFB7
 3472 0030 00000000 		.4byte	.LFB8
 3473 0034 28000000 		.4byte	.LFE8-.LFB8
 3474 0038 00000000 		.4byte	.LFB9
 3475 003c 2C000000 		.4byte	.LFE9-.LFB9
 3476 0040 00000000 		.4byte	.LFB10
 3477 0044 10000000 		.4byte	.LFE10-.LFB10
 3478 0048 00000000 		.4byte	.LFB11
 3479 004c 28000000 		.4byte	.LFE11-.LFB11
 3480 0050 00000000 		.4byte	.LFB12
 3481 0054 28000000 		.4byte	.LFE12-.LFB12
 3482 0058 00000000 		.4byte	.LFB13
 3483 005c 2C000000 		.4byte	.LFE13-.LFB13
 3484 0060 00000000 		.4byte	.LFB14
 3485 0064 28000000 		.4byte	.LFE14-.LFB14
 3486 0068 00000000 		.4byte	.LFB15
 3487 006c 0C000000 		.4byte	.LFE15-.LFB15
 3488 0070 00000000 		.4byte	.LFB16
 3489 0074 0C000000 		.4byte	.LFE16-.LFB16
 3490 0078 00000000 		.4byte	.LFB17
 3491 007c 28000000 		.4byte	.LFE17-.LFB17
 3492 0080 00000000 		.4byte	.LFB18
 3493 0084 0C000000 		.4byte	.LFE18-.LFB18
 3494 0088 00000000 		.4byte	.LFB19
 3495 008c 0C000000 		.4byte	.LFE19-.LFB19
 3496 0090 00000000 		.4byte	.LFB20
 3497 0094 24000000 		.4byte	.LFE20-.LFB20
 3498 0098 00000000 		.4byte	.LFB21
 3499 009c 0C000000 		.4byte	.LFE21-.LFB21
 3500 00a0 00000000 		.4byte	.LFB22
 3501 00a4 0C000000 		.4byte	.LFE22-.LFB22
 3502 00a8 00000000 		.4byte	.LFB23
 3503 00ac 28000000 		.4byte	.LFE23-.LFB23
 3504 00b0 00000000 		.4byte	.LFB24
 3505 00b4 0C000000 		.4byte	.LFE24-.LFB24
 3506 00b8 00000000 		.4byte	.LFB25
 3507 00bc 0C000000 		.4byte	.LFE25-.LFB25
 3508 00c0 00000000 		.4byte	.LFB26
 3509 00c4 0C000000 		.4byte	.LFE26-.LFB26
 3510 00c8 00000000 		.4byte	.LFB27
 3511 00cc 0C000000 		.4byte	.LFE27-.LFB27
 3512 00d0 00000000 		.4byte	.LFB28
 3513 00d4 0C000000 		.4byte	.LFE28-.LFB28
 3514 00d8 00000000 		.4byte	.LFB29
 3515 00dc 0C000000 		.4byte	.LFE29-.LFB29
 3516 00e0 00000000 		.4byte	.LFB30
 3517 00e4 24000000 		.4byte	.LFE30-.LFB30
 3518 00e8 00000000 		.4byte	.LFB31
 3519 00ec 24000000 		.4byte	.LFE31-.LFB31
 3520 00f0 00000000 		.4byte	.LFB32
 3521 00f4 28000000 		.4byte	.LFE32-.LFB32
 3522 00f8 00000000 		.4byte	.LFB33
 3523 00fc 24000000 		.4byte	.LFE33-.LFB33
ARM GAS  C:\Users\Petro\AppData\Local\Temp\ccDwqNKG.s 			page 92


 3524 0100 00000000 		.4byte	.LFB34
 3525 0104 24000000 		.4byte	.LFE34-.LFB34
 3526 0108 00000000 		.4byte	.LFB35
 3527 010c 1C000000 		.4byte	.LFE35-.LFB35
 3528 0110 00000000 		.4byte	.LFB3
 3529 0114 24000000 		.4byte	.LFE3-.LFB3
 3530 0118 00000000 		.4byte	.LFB4
 3531 011c 1C000000 		.4byte	.LFE4-.LFB4
 3532 0120 00000000 		.4byte	.LFB36
 3533 0124 14000000 		.4byte	.LFE36-.LFB36
 3534 0128 00000000 		.4byte	.LFB37
 3535 012c 0C000000 		.4byte	.LFE37-.LFB37
 3536 0130 00000000 		.4byte	.LFB38
 3537 0134 0C000000 		.4byte	.LFE38-.LFB38
 3538 0138 00000000 		.4byte	.LFB39
 3539 013c 0C000000 		.4byte	.LFE39-.LFB39
 3540 0140 00000000 		.4byte	.LFB40
 3541 0144 0C000000 		.4byte	.LFE40-.LFB40
 3542 0148 00000000 		.4byte	.LFB41
 3543 014c 0C000000 		.4byte	.LFE41-.LFB41
 3544 0150 00000000 		.4byte	0
 3545 0154 00000000 		.4byte	0
 3546              		.section	.debug_ranges,"",%progbits
 3547              	.Ldebug_ranges0:
 3548 0000 00000000 		.4byte	.LFB2
 3549 0004 40000000 		.4byte	.LFE2
 3550 0008 00000000 		.4byte	.LFB5
 3551 000c 1C000000 		.4byte	.LFE5
 3552 0010 00000000 		.4byte	.LFB6
 3553 0014 28000000 		.4byte	.LFE6
 3554 0018 00000000 		.4byte	.LFB7
 3555 001c 28000000 		.4byte	.LFE7
 3556 0020 00000000 		.4byte	.LFB8
 3557 0024 28000000 		.4byte	.LFE8
 3558 0028 00000000 		.4byte	.LFB9
 3559 002c 2C000000 		.4byte	.LFE9
 3560 0030 00000000 		.4byte	.LFB10
 3561 0034 10000000 		.4byte	.LFE10
 3562 0038 00000000 		.4byte	.LFB11
 3563 003c 28000000 		.4byte	.LFE11
 3564 0040 00000000 		.4byte	.LFB12
 3565 0044 28000000 		.4byte	.LFE12
 3566 0048 00000000 		.4byte	.LFB13
 3567 004c 2C000000 		.4byte	.LFE13
 3568 0050 00000000 		.4byte	.LFB14
 3569 0054 28000000 		.4byte	.LFE14
 3570 0058 00000000 		.4byte	.LFB15
 3571 005c 0C000000 		.4byte	.LFE15
 3572 0060 00000000 		.4byte	.LFB16
 3573 0064 0C000000 		.4byte	.LFE16
 3574 0068 00000000 		.4byte	.LFB17
 3575 006c 28000000 		.4byte	.LFE17
 3576 0070 00000000 		.4byte	.LFB18
 3577 0074 0C000000 		.4byte	.LFE18
 3578 0078 00000000 		.4byte	.LFB19
 3579 007c 0C000000 		.4byte	.LFE19
 3580 0080 00000000 		.4byte	.LFB20
ARM GAS  C:\Users\Petro\AppData\Local\Temp\ccDwqNKG.s 			page 93


 3581 0084 24000000 		.4byte	.LFE20
 3582 0088 00000000 		.4byte	.LFB21
 3583 008c 0C000000 		.4byte	.LFE21
 3584 0090 00000000 		.4byte	.LFB22
 3585 0094 0C000000 		.4byte	.LFE22
 3586 0098 00000000 		.4byte	.LFB23
 3587 009c 28000000 		.4byte	.LFE23
 3588 00a0 00000000 		.4byte	.LFB24
 3589 00a4 0C000000 		.4byte	.LFE24
 3590 00a8 00000000 		.4byte	.LFB25
 3591 00ac 0C000000 		.4byte	.LFE25
 3592 00b0 00000000 		.4byte	.LFB26
 3593 00b4 0C000000 		.4byte	.LFE26
 3594 00b8 00000000 		.4byte	.LFB27
 3595 00bc 0C000000 		.4byte	.LFE27
 3596 00c0 00000000 		.4byte	.LFB28
 3597 00c4 0C000000 		.4byte	.LFE28
 3598 00c8 00000000 		.4byte	.LFB29
 3599 00cc 0C000000 		.4byte	.LFE29
 3600 00d0 00000000 		.4byte	.LFB30
 3601 00d4 24000000 		.4byte	.LFE30
 3602 00d8 00000000 		.4byte	.LFB31
 3603 00dc 24000000 		.4byte	.LFE31
 3604 00e0 00000000 		.4byte	.LFB32
 3605 00e4 28000000 		.4byte	.LFE32
 3606 00e8 00000000 		.4byte	.LFB33
 3607 00ec 24000000 		.4byte	.LFE33
 3608 00f0 00000000 		.4byte	.LFB34
 3609 00f4 24000000 		.4byte	.LFE34
 3610 00f8 00000000 		.4byte	.LFB35
 3611 00fc 1C000000 		.4byte	.LFE35
 3612 0100 00000000 		.4byte	.LFB3
 3613 0104 24000000 		.4byte	.LFE3
 3614 0108 00000000 		.4byte	.LFB4
 3615 010c 1C000000 		.4byte	.LFE4
 3616 0110 00000000 		.4byte	.LFB36
 3617 0114 14000000 		.4byte	.LFE36
 3618 0118 00000000 		.4byte	.LFB37
 3619 011c 0C000000 		.4byte	.LFE37
 3620 0120 00000000 		.4byte	.LFB38
 3621 0124 0C000000 		.4byte	.LFE38
 3622 0128 00000000 		.4byte	.LFB39
 3623 012c 0C000000 		.4byte	.LFE39
 3624 0130 00000000 		.4byte	.LFB40
 3625 0134 0C000000 		.4byte	.LFE40
 3626 0138 00000000 		.4byte	.LFB41
 3627 013c 0C000000 		.4byte	.LFE41
 3628 0140 00000000 		.4byte	0
 3629 0144 00000000 		.4byte	0
 3630              		.section	.debug_line,"",%progbits
 3631              	.Ldebug_line0:
 3632 0000 E6030000 		.section	.debug_str,"MS",%progbits,1
 3632      02005000 
 3632      00000201 
 3632      FB0E0D00 
 3632      01010101 
 3633              	.LASF23:
ARM GAS  C:\Users\Petro\AppData\Local\Temp\ccDwqNKG.s 			page 94


 3634 0000 636F756E 		.ascii	"count\000"
 3634      7400
 3635              	.LASF76:
 3636 0006 474E5520 		.ascii	"GNU C 4.9.3 20150303 (release) [ARM/embedded-4_9-br"
 3636      4320342E 
 3636      392E3320 
 3636      32303135 
 3636      30333033 
 3637 0039 616E6368 		.ascii	"anch revision 221220] -mcpu=cortex-m0 -mthumb -g -O"
 3637      20726576 
 3637      6973696F 
 3637      6E203232 
 3637      31323230 
 3638 006c 73202D66 		.ascii	"s -ffunction-sections -ffat-lto-objects\000"
 3638      66756E63 
 3638      74696F6E 
 3638      2D736563 
 3638      74696F6E 
 3639              	.LASF81:
 3640 0094 43794578 		.ascii	"CyExitCriticalSection\000"
 3640      69744372 
 3640      69746963 
 3640      616C5365 
 3640      6374696F 
 3641              	.LASF60:
 3642 00aa 41707044 		.ascii	"AppDelay_ReadCaptureBuf\000"
 3642      656C6179 
 3642      5F526561 
 3642      64436170 
 3642      74757265 
 3643              	.LASF70:
 3644 00c2 41707044 		.ascii	"AppDelay_Start\000"
 3644      656C6179 
 3644      5F537461 
 3644      727400
 3645              	.LASF19:
 3646 00d1 70657269 		.ascii	"period\000"
 3646      6F6400
 3647              	.LASF43:
 3648 00d8 41707044 		.ascii	"AppDelay_SetPWMInvert\000"
 3648      656C6179 
 3648      5F536574 
 3648      50574D49 
 3648      6E766572 
 3649              	.LASF7:
 3650 00ee 6C6F6E67 		.ascii	"long long unsigned int\000"
 3650      206C6F6E 
 3650      6720756E 
 3650      7369676E 
 3650      65642069 
 3651              	.LASF26:
 3652 0105 41707044 		.ascii	"AppDelay_SetMode\000"
 3652      656C6179 
 3652      5F536574 
 3652      4D6F6465 
 3652      00
 3653              	.LASF30:
ARM GAS  C:\Users\Petro\AppData\Local\Temp\ccDwqNKG.s 			page 95


 3654 0116 71644D6F 		.ascii	"qdMode\000"
 3654      646500
 3655              	.LASF16:
 3656 011d 41707044 		.ascii	"AppDelay_SetInterruptMode\000"
 3656      656C6179 
 3656      5F536574 
 3656      496E7465 
 3656      72727570 
 3657              	.LASF33:
 3658 0137 41707044 		.ascii	"AppDelay_SetOneShot\000"
 3658      656C6179 
 3658      5F536574 
 3658      4F6E6553 
 3658      686F7400 
 3659              	.LASF6:
 3660 014b 6C6F6E67 		.ascii	"long long int\000"
 3660      206C6F6E 
 3660      6720696E 
 3660      7400
 3661              	.LASF0:
 3662 0159 7369676E 		.ascii	"signed char\000"
 3662      65642063 
 3662      68617200 
 3663              	.LASF17:
 3664 0165 41707044 		.ascii	"AppDelay_WritePeriod\000"
 3664      656C6179 
 3664      5F577269 
 3664      74655065 
 3664      72696F64 
 3665              	.LASF45:
 3666 017a 41707044 		.ascii	"AppDelay_SetCounterMode\000"
 3666      656C6179 
 3666      5F536574 
 3666      436F756E 
 3666      7465724D 
 3667              	.LASF71:
 3668 0192 41707044 		.ascii	"AppDelay_ReadStatus\000"
 3668      656C6179 
 3668      5F526561 
 3668      64537461 
 3668      74757300 
 3669              	.LASF4:
 3670 01a6 6C6F6E67 		.ascii	"long int\000"
 3670      20696E74 
 3670      00
 3671              	.LASF69:
 3672 01af 41707044 		.ascii	"AppDelay_Enable\000"
 3672      656C6179 
 3672      5F456E61 
 3672      626C6500 
 3673              	.LASF9:
 3674 01bf 75696E74 		.ascii	"uint8\000"
 3674      3800
 3675              	.LASF78:
 3676 01c5 443A5C43 		.ascii	"D:\\Cypress\\system-start-finish\\vesion 2\\fw\\fin"
 3676      79707265 
 3676      73735C73 
ARM GAS  C:\Users\Petro\AppData\Local\Temp\ccDwqNKG.s 			page 96


 3676      79737465 
 3676      6D2D7374 
 3677 01f3 6973685C 		.ascii	"ish\\sandbox\\v9_testmode\\fin_v0.cydsn\000"
 3677      73616E64 
 3677      626F785C 
 3677      76395F74 
 3677      6573746D 
 3678              	.LASF24:
 3679 0218 41707044 		.ascii	"AppDelay_Init\000"
 3679      656C6179 
 3679      5F496E69 
 3679      7400
 3680              	.LASF12:
 3681 0226 646F7562 		.ascii	"double\000"
 3681      6C6500
 3682              	.LASF54:
 3683 022d 41707044 		.ascii	"AppDelay_SetPeriodSwap\000"
 3683      656C6179 
 3683      5F536574 
 3683      50657269 
 3683      6F645377 
 3684              	.LASF10:
 3685 0244 75696E74 		.ascii	"uint32\000"
 3685      333200
 3686              	.LASF62:
 3687 024b 74726967 		.ascii	"triggerMode\000"
 3687      6765724D 
 3687      6F646500 
 3688              	.LASF44:
 3689 0257 6D61736B 		.ascii	"mask\000"
 3689      00
 3690              	.LASF61:
 3691 025c 41707044 		.ascii	"AppDelay_SetCaptureMode\000"
 3691      656C6179 
 3691      5F536574 
 3691      43617074 
 3691      7572654D 
 3692              	.LASF42:
 3693 0274 64656164 		.ascii	"deadTime\000"
 3693      54696D65 
 3693      00
 3694              	.LASF59:
 3695 027d 41707044 		.ascii	"AppDelay_ReadCapture\000"
 3695      656C6179 
 3695      5F526561 
 3695      64436170 
 3695      74757265 
 3696              	.LASF8:
 3697 0292 756E7369 		.ascii	"unsigned int\000"
 3697      676E6564 
 3697      20696E74 
 3697      00
 3698              	.LASF68:
 3699 029f 636F6D6D 		.ascii	"command\000"
 3699      616E6400 
 3700              	.LASF5:
 3701 02a7 6C6F6E67 		.ascii	"long unsigned int\000"
ARM GAS  C:\Users\Petro\AppData\Local\Temp\ccDwqNKG.s 			page 97


 3701      20756E73 
 3701      69676E65 
 3701      6420696E 
 3701      7400
 3702              	.LASF36:
 3703 02b9 6D6F6465 		.ascii	"modeMask\000"
 3703      4D61736B 
 3703      00
 3704              	.LASF80:
 3705 02c2 4379456E 		.ascii	"CyEnterCriticalSection\000"
 3705      74657243 
 3705      72697469 
 3705      63616C53 
 3705      65637469 
 3706              	.LASF48:
 3707 02d9 41707044 		.ascii	"AppDelay_ReadPeriod\000"
 3707      656C6179 
 3707      5F526561 
 3707      64506572 
 3707      696F6400 
 3708              	.LASF3:
 3709 02ed 73686F72 		.ascii	"short unsigned int\000"
 3709      7420756E 
 3709      7369676E 
 3709      65642069 
 3709      6E7400
 3710              	.LASF28:
 3711 0300 41707044 		.ascii	"AppDelay_SetQDMode\000"
 3711      656C6179 
 3711      5F536574 
 3711      51444D6F 
 3711      646500
 3712              	.LASF53:
 3713 0313 41707044 		.ascii	"AppDelay_ReadPeriodBuf\000"
 3713      656C6179 
 3713      5F526561 
 3713      64506572 
 3713      696F6442 
 3714              	.LASF58:
 3715 032a 41707044 		.ascii	"AppDelay_ReadCompareBuf\000"
 3715      656C6179 
 3715      5F526561 
 3715      64436F6D 
 3715      70617265 
 3716              	.LASF49:
 3717 0342 41707044 		.ascii	"AppDelay_SetCompareSwap\000"
 3717      656C6179 
 3717      5F536574 
 3717      436F6D70 
 3717      61726553 
 3718              	.LASF34:
 3719 035a 6F6E6553 		.ascii	"oneShotEnable\000"
 3719      686F7445 
 3719      6E61626C 
 3719      6500
 3720              	.LASF65:
 3721 0368 41707044 		.ascii	"AppDelay_SetStopMode\000"
ARM GAS  C:\Users\Petro\AppData\Local\Temp\ccDwqNKG.s 			page 98


 3721      656C6179 
 3721      5F536574 
 3721      53746F70 
 3721      4D6F6465 
 3722              	.LASF14:
 3723 037d 72656733 		.ascii	"reg32\000"
 3723      3200
 3724              	.LASF15:
 3725 0383 73697A65 		.ascii	"sizetype\000"
 3725      74797065 
 3725      00
 3726              	.LASF38:
 3727 038c 73796E63 		.ascii	"syncKillEnable\000"
 3727      4B696C6C 
 3727      456E6162 
 3727      6C6500
 3728              	.LASF37:
 3729 039b 41707044 		.ascii	"AppDelay_SetPWMSyncKill\000"
 3729      656C6179 
 3729      5F536574 
 3729      50574D53 
 3729      796E634B 
 3730              	.LASF21:
 3731 03b3 636F6D70 		.ascii	"compare\000"
 3731      61726500 
 3732              	.LASF35:
 3733 03bb 41707044 		.ascii	"AppDelay_SetPWMMode\000"
 3733      656C6179 
 3733      5F536574 
 3733      50574D4D 
 3733      6F646500 
 3734              	.LASF39:
 3735 03cf 41707044 		.ascii	"AppDelay_SetPWMStopOnKill\000"
 3735      656C6179 
 3735      5F536574 
 3735      50574D53 
 3735      746F704F 
 3736              	.LASF11:
 3737 03e9 666C6F61 		.ascii	"float\000"
 3737      7400
 3738              	.LASF32:
 3739 03ef 70726573 		.ascii	"prescaler\000"
 3739      63616C65 
 3739      7200
 3740              	.LASF75:
 3741 03f9 41707044 		.ascii	"AppDelay_SetInterrupt\000"
 3741      656C6179 
 3741      5F536574 
 3741      496E7465 
 3741      72727570 
 3742              	.LASF67:
 3743 040f 41707044 		.ascii	"AppDelay_TriggerCommand\000"
 3743      656C6179 
 3743      5F547269 
 3743      67676572 
 3743      436F6D6D 
 3744              	.LASF1:
ARM GAS  C:\Users\Petro\AppData\Local\Temp\ccDwqNKG.s 			page 99


 3745 0427 756E7369 		.ascii	"unsigned char\000"
 3745      676E6564 
 3745      20636861 
 3745      7200
 3746              	.LASF74:
 3747 0435 41707044 		.ascii	"AppDelay_ClearInterrupt\000"
 3747      656C6179 
 3747      5F436C65 
 3747      6172496E 
 3747      74657272 
 3748              	.LASF40:
 3749 044d 73746F70 		.ascii	"stopOnKillEnable\000"
 3749      4F6E4B69 
 3749      6C6C456E 
 3749      61626C65 
 3749      00
 3750              	.LASF2:
 3751 045e 73686F72 		.ascii	"short int\000"
 3751      7420696E 
 3751      7400
 3752              	.LASF79:
 3753 0468 41707044 		.ascii	"AppDelay_initVar\000"
 3753      656C6179 
 3753      5F696E69 
 3753      74566172 
 3753      00
 3754              	.LASF18:
 3755 0479 696E7465 		.ascii	"interruptMask\000"
 3755      72727570 
 3755      744D6173 
 3755      6B00
 3756              	.LASF55:
 3757 0487 41707044 		.ascii	"AppDelay_ReadCompare\000"
 3757      656C6179 
 3757      5F526561 
 3757      64436F6D 
 3757      70617265 
 3758              	.LASF66:
 3759 049c 41707044 		.ascii	"AppDelay_SetCountMode\000"
 3759      656C6179 
 3759      5F536574 
 3759      436F756E 
 3759      744D6F64 
 3760              	.LASF13:
 3761 04b2 63686172 		.ascii	"char\000"
 3761      00
 3762              	.LASF29:
 3763 04b7 6D6F6465 		.ascii	"mode\000"
 3763      00
 3764              	.LASF72:
 3765 04bc 41707044 		.ascii	"AppDelay_GetInterruptSourceMasked\000"
 3765      656C6179 
 3765      5F476574 
 3765      496E7465 
 3765      72727570 
 3766              	.LASF64:
 3767 04de 41707044 		.ascii	"AppDelay_SetStartMode\000"
ARM GAS  C:\Users\Petro\AppData\Local\Temp\ccDwqNKG.s 			page 100


 3767      656C6179 
 3767      5F536574 
 3767      53746172 
 3767      744D6F64 
 3768              	.LASF46:
 3769 04f4 636F756E 		.ascii	"counterMode\000"
 3769      7465724D 
 3769      6F646500 
 3770              	.LASF63:
 3771 0500 41707044 		.ascii	"AppDelay_SetReloadMode\000"
 3771      656C6179 
 3771      5F536574 
 3771      52656C6F 
 3771      61644D6F 
 3772              	.LASF56:
 3773 0517 41707044 		.ascii	"AppDelay_WriteCompareBuf\000"
 3773      656C6179 
 3773      5F577269 
 3773      7465436F 
 3773      6D706172 
 3774              	.LASF41:
 3775 0530 41707044 		.ascii	"AppDelay_SetPWMDeadTime\000"
 3775      656C6179 
 3775      5F536574 
 3775      50574D44 
 3775      65616454 
 3776              	.LASF20:
 3777 0548 41707044 		.ascii	"AppDelay_WriteCompare\000"
 3777      656C6179 
 3777      5F577269 
 3777      7465436F 
 3777      6D706172 
 3778              	.LASF47:
 3779 055e 41707044 		.ascii	"AppDelay_ReadCounter\000"
 3779      656C6179 
 3779      5F526561 
 3779      64436F75 
 3779      6E746572 
 3780              	.LASF57:
 3781 0573 636F6D70 		.ascii	"compareBuf\000"
 3781      61726542 
 3781      756600
 3782              	.LASF25:
 3783 057e 41707044 		.ascii	"AppDelay_Stop\000"
 3783      656C6179 
 3783      5F53746F 
 3783      7000
 3784              	.LASF27:
 3785 058c 656E6162 		.ascii	"enableInterrupts\000"
 3785      6C65496E 
 3785      74657272 
 3785      75707473 
 3785      00
 3786              	.LASF51:
 3787 059d 41707044 		.ascii	"AppDelay_WritePeriodBuf\000"
 3787      656C6179 
 3787      5F577269 
ARM GAS  C:\Users\Petro\AppData\Local\Temp\ccDwqNKG.s 			page 101


 3787      74655065 
 3787      72696F64 
 3788              	.LASF50:
 3789 05b5 73776170 		.ascii	"swapEnable\000"
 3789      456E6162 
 3789      6C6500
 3790              	.LASF31:
 3791 05c0 41707044 		.ascii	"AppDelay_SetPrescaler\000"
 3791      656C6179 
 3791      5F536574 
 3791      50726573 
 3791      63616C65 
 3792              	.LASF22:
 3793 05d6 41707044 		.ascii	"AppDelay_WriteCounter\000"
 3793      656C6179 
 3793      5F577269 
 3793      7465436F 
 3793      756E7465 
 3794              	.LASF73:
 3795 05ec 41707044 		.ascii	"AppDelay_GetInterruptSource\000"
 3795      656C6179 
 3795      5F476574 
 3795      496E7465 
 3795      72727570 
 3796              	.LASF77:
 3797 0608 47656E65 		.ascii	"Generated_Source\\PSoC4\\AppDelay.c\000"
 3797      72617465 
 3797      645F536F 
 3797      75726365 
 3797      5C50536F 
 3798              	.LASF52:
 3799 062a 70657269 		.ascii	"periodBuf\000"
 3799      6F644275 
 3799      6600
 3800              		.ident	"GCC: (GNU Tools for ARM Embedded Processors) 4.9.3 20150303 (release) [ARM/embedded-4_9-br
