ARM GAS  C:\Users\Petro\AppData\Local\Temp\ccfEn9K1.s 			page 1


   1              		.cpu cortex-m0
   2              		.fpu softvfp
   3              		.eabi_attribute 20, 1
   4              		.eabi_attribute 21, 1
   5              		.eabi_attribute 23, 3
   6              		.eabi_attribute 24, 1
   7              		.eabi_attribute 25, 1
   8              		.eabi_attribute 26, 1
   9              		.eabi_attribute 30, 6
  10              		.eabi_attribute 34, 0
  11              		.eabi_attribute 18, 4
  12              		.code	16
  13              		.file	"BLE_1.c"
  14              		.text
  15              	.Ltext0:
  16              		.cfi_sections	.debug_frame
  17              		.global	cyBle_initVar
  18              		.bss
  19              		.type	cyBle_initVar, %object
  20              		.size	cyBle_initVar, 1
  21              	cyBle_initVar:
  22 0000 00       		.space	1
  23              		.global	cyBle_stackMemoryRam
  24              		.section	.noinit,"aw",%progbits
  25              		.align	3
  26              		.type	cyBle_stackMemoryRam, %object
  27              		.size	cyBle_stackMemoryRam, 2784
  28              	cyBle_stackMemoryRam:
  29 0000 00000000 		.space	2784
  29      00000000 
  29      00000000 
  29      00000000 
  29      00000000 
  30              		.comm	cyBle_connectionParameters,26,4
  31              		.comm	cyBle_connectingTimeout,2,2
  32              		.global	cyBle_discoveryInfo
  33              		.data
  34              		.align	2
  35              		.type	cyBle_discoveryInfo, %object
  36              		.size	cyBle_discoveryInfo, 12
  37              	cyBle_discoveryInfo:
  38 0000 02       		.byte	2
  39 0001 01       		.byte	1
  40 0002 3000     		.short	48
  41 0004 3000     		.short	48
  42 0006 00       		.byte	0
  43 0007 00       		.byte	0
  44 0008 1E00     		.short	30
  45 000a 00       		.byte	0
  46 000b 00       		.space	1
  47              		.comm	cyBle_peerBonding,1,1
  48              		.comm	cyBle_pendingFlashWrite,1,1
  49              		.bss
  50              	cyBle_pendingFlashClearCccdHandle:
  51 0001 00       		.space	1
  52              		.comm	CyBle_ApplCallback,4,4
  53              		.global	cyBle_deviceAddress
ARM GAS  C:\Users\Petro\AppData\Local\Temp\ccfEn9K1.s 			page 2


  54              		.data
  55              		.align	2
  56              		.type	cyBle_deviceAddress, %object
  57              		.size	cyBle_deviceAddress, 7
  58              	cyBle_deviceAddress:
  59 000c 00       		.byte	0
  60 000d 00       		.byte	0
  61 000e 00       		.byte	0
  62 000f 50       		.byte	80
  63 0010 A0       		.byte	-96
  64 0011 00       		.byte	0
  65 0012 00       		.byte	0
  66              		.global	cyBle_sflashDeviceAddress
  67 0013 00       		.align	2
  68              		.type	cyBle_sflashDeviceAddress, %object
  69              		.size	cyBle_sflashDeviceAddress, 4
  70              	cyBle_sflashDeviceAddress:
  71 0014 00F2FF0F 		.word	268431872
  72              		.section	.text.CyBle_Init,"ax",%progbits
  73              		.align	2
  74              		.global	CyBle_Init
  75              		.code	16
  76              		.thumb_func
  77              		.type	CyBle_Init, %function
  78              	CyBle_Init:
  79              	.LFB2:
  80              		.file 1 "Generated_Source\\PSoC4\\BLE_1.c"
   1:Generated_Source\PSoC4/BLE_1.c **** /***************************************************************************//**
   2:Generated_Source\PSoC4/BLE_1.c **** * \file CYBLE.c
   3:Generated_Source\PSoC4/BLE_1.c **** * \version 3.20
   4:Generated_Source\PSoC4/BLE_1.c **** * 
   5:Generated_Source\PSoC4/BLE_1.c **** * \brief
   6:Generated_Source\PSoC4/BLE_1.c **** *  This file contains the source code for the Common APIs of the BLE Component.
   7:Generated_Source\PSoC4/BLE_1.c **** * 
   8:Generated_Source\PSoC4/BLE_1.c **** ********************************************************************************
   9:Generated_Source\PSoC4/BLE_1.c **** * \copyright
  10:Generated_Source\PSoC4/BLE_1.c **** * Copyright 2014-2016, Cypress Semiconductor Corporation.  All rights reserved.
  11:Generated_Source\PSoC4/BLE_1.c **** * You may use this file only in accordance with the license, terms, conditions,
  12:Generated_Source\PSoC4/BLE_1.c **** * disclaimers, and limitations in the end user license agreement accompanying
  13:Generated_Source\PSoC4/BLE_1.c **** * the software package with which this file was provided.
  14:Generated_Source\PSoC4/BLE_1.c **** *******************************************************************************/
  15:Generated_Source\PSoC4/BLE_1.c **** 
  16:Generated_Source\PSoC4/BLE_1.c **** #include "BLE_1_eventHandler.h"
  17:Generated_Source\PSoC4/BLE_1.c **** #include "BLE_1_HAL_PVT.h"
  18:Generated_Source\PSoC4/BLE_1.c **** #include <stdlib.h>
  19:Generated_Source\PSoC4/BLE_1.c **** 
  20:Generated_Source\PSoC4/BLE_1.c **** 
  21:Generated_Source\PSoC4/BLE_1.c **** /***************************************
  22:Generated_Source\PSoC4/BLE_1.c **** * Function Prototypes
  23:Generated_Source\PSoC4/BLE_1.c **** ***************************************/
  24:Generated_Source\PSoC4/BLE_1.c **** 
  25:Generated_Source\PSoC4/BLE_1.c **** #if(CYBLE_GATT_ROLE_SERVER)
  26:Generated_Source\PSoC4/BLE_1.c ****     #if(CYBLE_GAP_ROLE_PERIPHERAL)
  27:Generated_Source\PSoC4/BLE_1.c ****         static void CyBle_ChangeAdLocalName(const char8 name[], uint8 dest);
  28:Generated_Source\PSoC4/BLE_1.c ****     #endif /* (CYBLE_GAP_ROLE_PERIPHERAL) */
  29:Generated_Source\PSoC4/BLE_1.c **** #endif /* (CYBLE_GATT_ROLE_SERVER) */
  30:Generated_Source\PSoC4/BLE_1.c ****     
ARM GAS  C:\Users\Petro\AppData\Local\Temp\ccfEn9K1.s 			page 3


  31:Generated_Source\PSoC4/BLE_1.c **** 
  32:Generated_Source\PSoC4/BLE_1.c **** /***************************************
  33:Generated_Source\PSoC4/BLE_1.c **** * Global Variables
  34:Generated_Source\PSoC4/BLE_1.c **** ***************************************/
  35:Generated_Source\PSoC4/BLE_1.c **** 
  36:Generated_Source\PSoC4/BLE_1.c **** /* Indicates whether the BLE has been initialized. The variable is initialized to
  37:Generated_Source\PSoC4/BLE_1.c ****    0 and set to 1 the first time CyBle_Start() is called. This allows the component
  38:Generated_Source\PSoC4/BLE_1.c ****    to restart without reinitialization after the first call to the CyBle_Start() 
  39:Generated_Source\PSoC4/BLE_1.c ****    routine. If reinitialization of the component is required, the variable should 
  40:Generated_Source\PSoC4/BLE_1.c ****    be set to 0 before the CyBle_Start() routine is called. Alternatively, the BLE
  41:Generated_Source\PSoC4/BLE_1.c ****    can be reinitialized by calling the CyBle_Init() function.
  42:Generated_Source\PSoC4/BLE_1.c **** */
  43:Generated_Source\PSoC4/BLE_1.c **** uint8  cyBle_initVar = 0u;
  44:Generated_Source\PSoC4/BLE_1.c **** 
  45:Generated_Source\PSoC4/BLE_1.c **** /* Allocate RAM memory for stack. This buffer could be reused by application when 
  46:Generated_Source\PSoC4/BLE_1.c ****    BLE component is stopped. For export mode buffer is allocated in heap.
  47:Generated_Source\PSoC4/BLE_1.c **** */
  48:Generated_Source\PSoC4/BLE_1.c **** #if(CYBLE_SHARING_MODE_EXPORT)
  49:Generated_Source\PSoC4/BLE_1.c ****     
  50:Generated_Source\PSoC4/BLE_1.c **** uint8 *cyBle_stackMemoryRam = NULL;
  51:Generated_Source\PSoC4/BLE_1.c **** 
  52:Generated_Source\PSoC4/BLE_1.c **** #else
  53:Generated_Source\PSoC4/BLE_1.c **** 
  54:Generated_Source\PSoC4/BLE_1.c **** CYBLE_CYALIGNED_BEGIN CY_NOINIT uint8 cyBle_stackMemoryRam[CYBLE_STACK_RAM_SIZE] CYBLE_CYALIGNED_EN
  55:Generated_Source\PSoC4/BLE_1.c **** 
  56:Generated_Source\PSoC4/BLE_1.c **** #endif  /* CYBLE_SHARING_MODE_EXPORT */
  57:Generated_Source\PSoC4/BLE_1.c **** 
  58:Generated_Source\PSoC4/BLE_1.c **** #if(CYBLE_GAP_ROLE_PERIPHERAL || CYBLE_GAP_ROLE_BROADCASTER)
  59:Generated_Source\PSoC4/BLE_1.c **** 
  60:Generated_Source\PSoC4/BLE_1.c **** 
  61:Generated_Source\PSoC4/BLE_1.c **** 
  62:Generated_Source\PSoC4/BLE_1.c **** #endif /* CYBLE_GAP_ROLE_PERIPHERAL || CYBLE_GAP_ROLE_BROADCASTER */
  63:Generated_Source\PSoC4/BLE_1.c **** 
  64:Generated_Source\PSoC4/BLE_1.c **** #if(CYBLE_GAP_ROLE_CENTRAL)
  65:Generated_Source\PSoC4/BLE_1.c ****     
  66:Generated_Source\PSoC4/BLE_1.c **** CYBLE_GAPC_CONN_PARAM_T cyBle_connectionParameters;
  67:Generated_Source\PSoC4/BLE_1.c **** 
  68:Generated_Source\PSoC4/BLE_1.c **** /* Connecting timeout is set to 30 seconds in CyBle_Init function. 
  69:Generated_Source\PSoC4/BLE_1.c ****    Not zero value starts timer in CyBle_GapcConnectDevice API.
  70:Generated_Source\PSoC4/BLE_1.c **** */
  71:Generated_Source\PSoC4/BLE_1.c **** uint16 cyBle_connectingTimeout;
  72:Generated_Source\PSoC4/BLE_1.c ****     
  73:Generated_Source\PSoC4/BLE_1.c **** #endif /* CYBLE_GAP_ROLE_CENTRAL */
  74:Generated_Source\PSoC4/BLE_1.c **** 
  75:Generated_Source\PSoC4/BLE_1.c **** #if(CYBLE_GAP_ROLE_CENTRAL || CYBLE_GAP_ROLE_OBSERVER)
  76:Generated_Source\PSoC4/BLE_1.c ****     
  77:Generated_Source\PSoC4/BLE_1.c **** /* This variable of type CYBLE_GAPC_DISC_INFO_T is present only when  
  78:Generated_Source\PSoC4/BLE_1.c ****    the BLE component is configured for Central GAP role or Central and  
  79:Generated_Source\PSoC4/BLE_1.c ****    Peripheral GAP role. It contains the Scan settings entered in the  
  80:Generated_Source\PSoC4/BLE_1.c ****    customizer. This variable can be used by advanced users to change Scan  
  81:Generated_Source\PSoC4/BLE_1.c ****    settings in runtime.
  82:Generated_Source\PSoC4/BLE_1.c **** */
  83:Generated_Source\PSoC4/BLE_1.c **** CYBLE_GAPC_DISC_INFO_T cyBle_discoveryInfo =
  84:Generated_Source\PSoC4/BLE_1.c **** {
  85:Generated_Source\PSoC4/BLE_1.c ****     0x02u,      /* discProcedure */
  86:Generated_Source\PSoC4/BLE_1.c ****     0x01u,      /* scanType */
  87:Generated_Source\PSoC4/BLE_1.c ****     0x0030u,    /* scanInterval */
ARM GAS  C:\Users\Petro\AppData\Local\Temp\ccfEn9K1.s 			page 4


  88:Generated_Source\PSoC4/BLE_1.c ****     0x0030u,    /* scanWindow */
  89:Generated_Source\PSoC4/BLE_1.c ****     0x00u,      /* ownAddrType */
  90:Generated_Source\PSoC4/BLE_1.c ****     0x00u,      /* scanFilterPolicy */
  91:Generated_Source\PSoC4/BLE_1.c ****     0x001Eu,    /* scanTO */
  92:Generated_Source\PSoC4/BLE_1.c ****     0x00u,      /* filterDuplicates */
  93:Generated_Source\PSoC4/BLE_1.c **** };
  94:Generated_Source\PSoC4/BLE_1.c ****     
  95:Generated_Source\PSoC4/BLE_1.c **** #endif /* CYBLE_GAP_ROLE_CENTRAL || CYBLE_GAP_ROLE_OBSERVER */
  96:Generated_Source\PSoC4/BLE_1.c **** 
  97:Generated_Source\PSoC4/BLE_1.c **** #if((CYBLE_GAP_ROLE_PERIPHERAL || CYBLE_GAP_ROLE_CENTRAL) && (CYBLE_BONDING_REQUIREMENT == CYBLE_BO
  98:Generated_Source\PSoC4/BLE_1.c **** 
  99:Generated_Source\PSoC4/BLE_1.c **** uint8 cyBle_peerBonding;
 100:Generated_Source\PSoC4/BLE_1.c **** uint8 cyBle_pendingFlashWrite;
 101:Generated_Source\PSoC4/BLE_1.c ****     
 102:Generated_Source\PSoC4/BLE_1.c **** #if(CYBLE_GATT_DB_CCCD_COUNT != 0u)
 103:Generated_Source\PSoC4/BLE_1.c ****     static uint8 cyBle_pendingFlashClearCccdHandle;
 104:Generated_Source\PSoC4/BLE_1.c **** #endif /* CYBLE_GATT_DB_CCCD_COUNT != 0u */
 105:Generated_Source\PSoC4/BLE_1.c ****     
 106:Generated_Source\PSoC4/BLE_1.c **** #endif  /* (CYBLE_BONDING_REQUIREMENT == CYBLE_BONDING_YES) */
 107:Generated_Source\PSoC4/BLE_1.c **** 
 108:Generated_Source\PSoC4/BLE_1.c **** CYBLE_CALLBACK_T CyBle_ApplCallback;
 109:Generated_Source\PSoC4/BLE_1.c **** CYBLE_GAP_BD_ADDR_T cyBle_deviceAddress = {{0x00u, 0x00u, 0x00u, 0x50u, 0xA0u, 0x00u}, 0x00u };
 110:Generated_Source\PSoC4/BLE_1.c **** CYBLE_GAP_BD_ADDR_T * cyBle_sflashDeviceAddress = CYBLE_SFLASH_DEVICE_ADDRESS_PTR;
 111:Generated_Source\PSoC4/BLE_1.c **** 
 112:Generated_Source\PSoC4/BLE_1.c **** 
 113:Generated_Source\PSoC4/BLE_1.c **** /******************************************************************************
 114:Generated_Source\PSoC4/BLE_1.c **** * Function Name: CyBle_Init
 115:Generated_Source\PSoC4/BLE_1.c **** ***************************************************************************//**
 116:Generated_Source\PSoC4/BLE_1.c **** *
 117:Generated_Source\PSoC4/BLE_1.c **** *   Initializes the component with the parameters set in the customizer.
 118:Generated_Source\PSoC4/BLE_1.c **** * 
 119:Generated_Source\PSoC4/BLE_1.c **** *  \return
 120:Generated_Source\PSoC4/BLE_1.c **** *   None
 121:Generated_Source\PSoC4/BLE_1.c **** * 
 122:Generated_Source\PSoC4/BLE_1.c **** ******************************************************************************/
 123:Generated_Source\PSoC4/BLE_1.c **** void CyBle_Init(void)
 124:Generated_Source\PSoC4/BLE_1.c **** {
  81              		.loc 1 124 0
  82              		.cfi_startproc
  83 0000 80B5     		push	{r7, lr}
  84              		.cfi_def_cfa_offset 8
  85              		.cfi_offset 7, -8
  86              		.cfi_offset 14, -4
  87 0002 00AF     		add	r7, sp, #0
  88              		.cfi_def_cfa_register 7
 125:Generated_Source\PSoC4/BLE_1.c ****     cyBle_eventHandlerFlag = 0u;
  89              		.loc 1 125 0
  90 0004 1C4B     		ldr	r3, .L2
  91 0006 0022     		mov	r2, #0
  92 0008 1A70     		strb	r2, [r3]
 126:Generated_Source\PSoC4/BLE_1.c ****     cyBle_busyStatus = CYBLE_STACK_STATE_FREE;
  93              		.loc 1 126 0
  94 000a 1C4B     		ldr	r3, .L2+4
  95 000c 0022     		mov	r2, #0
  96 000e 1A70     		strb	r2, [r3]
 127:Generated_Source\PSoC4/BLE_1.c **** 
 128:Generated_Source\PSoC4/BLE_1.c ****     #if(CYBLE_GAP_ROLE_PERIPHERAL || CYBLE_GAP_ROLE_BROADCASTER) 
ARM GAS  C:\Users\Petro\AppData\Local\Temp\ccfEn9K1.s 			page 5


 129:Generated_Source\PSoC4/BLE_1.c ****         cyBle_advertisingIntervalType = CYBLE_ADVERTISING_FAST; 
 130:Generated_Source\PSoC4/BLE_1.c ****     #endif /* (CYBLE_GAP_ROLE_PERIPHERAL || CYBLE_GAP_ROLE_BROADCASTER)  */
 131:Generated_Source\PSoC4/BLE_1.c ****     #if(CYBLE_GAP_ROLE_CENTRAL || CYBLE_GAP_ROLE_OBSERVER)
 132:Generated_Source\PSoC4/BLE_1.c ****         cyBle_scanningIntervalType = CYBLE_SCANNING_FAST; 
  97              		.loc 1 132 0
  98 0010 1B4B     		ldr	r3, .L2+8
  99 0012 0022     		mov	r2, #0
 100 0014 1A70     		strb	r2, [r3]
 133:Generated_Source\PSoC4/BLE_1.c ****     #endif /* (CYBLE_GAP_ROLE_CENTRAL || CYBLE_GAP_ROLE_OBSERVER) */
 134:Generated_Source\PSoC4/BLE_1.c ****         
 135:Generated_Source\PSoC4/BLE_1.c ****     /* Init default connection parameters. 
 136:Generated_Source\PSoC4/BLE_1.c ****        Application may change it before initiating a connection */
 137:Generated_Source\PSoC4/BLE_1.c ****     #if(CYBLE_GAP_ROLE_CENTRAL)
 138:Generated_Source\PSoC4/BLE_1.c ****         cyBle_connectionParameters.scanIntv = cyBle_discoveryInfo.scanIntv;
 101              		.loc 1 138 0
 102 0016 1B4B     		ldr	r3, .L2+12
 103 0018 5A88     		ldrh	r2, [r3, #2]
 104 001a 1B4B     		ldr	r3, .L2+16
 105 001c 1A80     		strh	r2, [r3]
 139:Generated_Source\PSoC4/BLE_1.c ****         cyBle_connectionParameters.scanWindow = cyBle_discoveryInfo.scanWindow;
 106              		.loc 1 139 0
 107 001e 194B     		ldr	r3, .L2+12
 108 0020 9A88     		ldrh	r2, [r3, #4]
 109 0022 194B     		ldr	r3, .L2+16
 110 0024 5A80     		strh	r2, [r3, #2]
 140:Generated_Source\PSoC4/BLE_1.c ****         cyBle_connectionParameters.ownAddrType = cyBle_discoveryInfo.ownAddrType;
 111              		.loc 1 140 0
 112 0026 174B     		ldr	r3, .L2+12
 113 0028 9A79     		ldrb	r2, [r3, #6]
 114 002a 174B     		ldr	r3, .L2+16
 115 002c 1A73     		strb	r2, [r3, #12]
 141:Generated_Source\PSoC4/BLE_1.c ****         cyBle_connectionParameters.initiatorFilterPolicy = cyBle_discoveryInfo.scanFilterPolicy;
 116              		.loc 1 141 0
 117 002e 154B     		ldr	r3, .L2+12
 118 0030 DA79     		ldrb	r2, [r3, #7]
 119 0032 154B     		ldr	r3, .L2+16
 120 0034 1A71     		strb	r2, [r3, #4]
 142:Generated_Source\PSoC4/BLE_1.c ****         cyBle_connectionParameters.connIntvMin = CYBLE_GAPC_CONNECTION_INTERVAL_MIN;
 121              		.loc 1 142 0
 122 0036 144B     		ldr	r3, .L2+16
 123 0038 0622     		mov	r2, #6
 124 003a DA81     		strh	r2, [r3, #14]
 143:Generated_Source\PSoC4/BLE_1.c ****         cyBle_connectionParameters.connIntvMax = CYBLE_GAPC_CONNECTION_INTERVAL_MAX;
 125              		.loc 1 143 0
 126 003c 124B     		ldr	r3, .L2+16
 127 003e 2822     		mov	r2, #40
 128 0040 1A82     		strh	r2, [r3, #16]
 144:Generated_Source\PSoC4/BLE_1.c ****         cyBle_connectionParameters.connLatency = CYBLE_GAPC_CONNECTION_SLAVE_LATENCY;
 129              		.loc 1 144 0
 130 0042 114B     		ldr	r3, .L2+16
 131 0044 0022     		mov	r2, #0
 132 0046 5A82     		strh	r2, [r3, #18]
 145:Generated_Source\PSoC4/BLE_1.c ****         cyBle_connectionParameters.supervisionTO = CYBLE_GAPC_CONNECTION_TIME_OUT;
 133              		.loc 1 145 0
 134 0048 0F4B     		ldr	r3, .L2+16
 135 004a FA22     		mov	r2, #250
 136 004c 9200     		lsl	r2, r2, #2
ARM GAS  C:\Users\Petro\AppData\Local\Temp\ccfEn9K1.s 			page 6


 137 004e 9A82     		strh	r2, [r3, #20]
 146:Generated_Source\PSoC4/BLE_1.c ****         cyBle_connectionParameters.minCeLength = 0x0000u;
 138              		.loc 1 146 0
 139 0050 0D4B     		ldr	r3, .L2+16
 140 0052 0022     		mov	r2, #0
 141 0054 DA82     		strh	r2, [r3, #22]
 147:Generated_Source\PSoC4/BLE_1.c ****         cyBle_connectionParameters.maxCeLength = 0xFFFFu;
 142              		.loc 1 147 0
 143 0056 0C4B     		ldr	r3, .L2+16
 144 0058 0122     		mov	r2, #1
 145 005a 5242     		neg	r2, r2
 146 005c 1A83     		strh	r2, [r3, #24]
 148:Generated_Source\PSoC4/BLE_1.c ****         
 149:Generated_Source\PSoC4/BLE_1.c ****         cyBle_connectingTimeout = CYBLE_GAPC_CONNECTING_TIMEOUT;
 147              		.loc 1 149 0
 148 005e 0B4B     		ldr	r3, .L2+20
 149 0060 1E22     		mov	r2, #30
 150 0062 1A80     		strh	r2, [r3]
 150:Generated_Source\PSoC4/BLE_1.c ****     #endif /* CYBLE_GAP_ROLE_CENTRAL */
 151:Generated_Source\PSoC4/BLE_1.c **** 
 152:Generated_Source\PSoC4/BLE_1.c ****     CyBle_ServiceInit();
 151              		.loc 1 152 0
 152 0064 FFF7FEFF 		bl	CyBle_ServiceInit
 153:Generated_Source\PSoC4/BLE_1.c **** 
 154:Generated_Source\PSoC4/BLE_1.c ****     #if((CYBLE_GAP_ROLE_PERIPHERAL || CYBLE_GAP_ROLE_CENTRAL) && (CYBLE_BONDING_REQUIREMENT == CYBL
 155:Generated_Source\PSoC4/BLE_1.c ****         cyBle_pendingFlashWrite = 0u;
 153              		.loc 1 155 0
 154 0068 094B     		ldr	r3, .L2+24
 155 006a 0022     		mov	r2, #0
 156 006c 1A70     		strb	r2, [r3]
 156:Generated_Source\PSoC4/BLE_1.c ****         cyBle_peerBonding = CYBLE_GAP_BONDING_NONE;
 157              		.loc 1 156 0
 158 006e 094B     		ldr	r3, .L2+28
 159 0070 0022     		mov	r2, #0
 160 0072 1A70     		strb	r2, [r3]
 157:Generated_Source\PSoC4/BLE_1.c ****     #endif  /* (CYBLE_BONDING_REQUIREMENT == CYBLE_BONDING_YES) */
 158:Generated_Source\PSoC4/BLE_1.c **** 
 159:Generated_Source\PSoC4/BLE_1.c **** }
 161              		.loc 1 159 0
 162 0074 BD46     		mov	sp, r7
 163              		@ sp needed
 164 0076 80BD     		pop	{r7, pc}
 165              	.L3:
 166              		.align	2
 167              	.L2:
 168 0078 00000000 		.word	cyBle_eventHandlerFlag
 169 007c 00000000 		.word	cyBle_busyStatus
 170 0080 00000000 		.word	cyBle_scanningIntervalType
 171 0084 00000000 		.word	cyBle_discoveryInfo
 172 0088 00000000 		.word	cyBle_connectionParameters
 173 008c 00000000 		.word	cyBle_connectingTimeout
 174 0090 00000000 		.word	cyBle_pendingFlashWrite
 175 0094 00000000 		.word	cyBle_peerBonding
 176              		.cfi_endproc
 177              	.LFE2:
 178              		.size	CyBle_Init, .-CyBle_Init
 179              		.section	.text.CyBle_ServiceInit,"ax",%progbits
ARM GAS  C:\Users\Petro\AppData\Local\Temp\ccfEn9K1.s 			page 7


 180              		.align	2
 181              		.global	CyBle_ServiceInit
 182              		.code	16
 183              		.thumb_func
 184              		.type	CyBle_ServiceInit, %function
 185              	CyBle_ServiceInit:
 186              	.LFB3:
 160:Generated_Source\PSoC4/BLE_1.c **** 
 161:Generated_Source\PSoC4/BLE_1.c **** 
 162:Generated_Source\PSoC4/BLE_1.c **** /******************************************************************************
 163:Generated_Source\PSoC4/BLE_1.c **** * Function Name: CyBle_ServiceInit
 164:Generated_Source\PSoC4/BLE_1.c **** ***************************************************************************//**
 165:Generated_Source\PSoC4/BLE_1.c **** * 
 166:Generated_Source\PSoC4/BLE_1.c **** *  Initializes all included services.
 167:Generated_Source\PSoC4/BLE_1.c **** * 
 168:Generated_Source\PSoC4/BLE_1.c **** * \return
 169:Generated_Source\PSoC4/BLE_1.c **** *  None
 170:Generated_Source\PSoC4/BLE_1.c **** * 
 171:Generated_Source\PSoC4/BLE_1.c **** ******************************************************************************/
 172:Generated_Source\PSoC4/BLE_1.c **** void CyBle_ServiceInit(void)
 173:Generated_Source\PSoC4/BLE_1.c **** {
 187              		.loc 1 173 0
 188              		.cfi_startproc
 189 0000 80B5     		push	{r7, lr}
 190              		.cfi_def_cfa_offset 8
 191              		.cfi_offset 7, -8
 192              		.cfi_offset 14, -4
 193 0002 00AF     		add	r7, sp, #0
 194              		.cfi_def_cfa_register 7
 174:Generated_Source\PSoC4/BLE_1.c ****     #if(CYBLE_GATT_ROLE_CLIENT)
 175:Generated_Source\PSoC4/BLE_1.c ****         /* Check service range before clearing to support partial discovery */
 176:Generated_Source\PSoC4/BLE_1.c ****         if(cyBle_serverInfo[CYBLE_SRVI_GAP].range.startHandle == CYBLE_GATT_INVALID_ATTR_HANDLE_VAL
 177:Generated_Source\PSoC4/BLE_1.c ****         {
 178:Generated_Source\PSoC4/BLE_1.c ****             (void)memset(&cyBle_gapc, 0, sizeof(cyBle_gapc));
 179:Generated_Source\PSoC4/BLE_1.c ****         }
 180:Generated_Source\PSoC4/BLE_1.c ****         if(cyBle_serverInfo[CYBLE_SRVI_GATT].range.startHandle == CYBLE_GATT_INVALID_ATTR_HANDLE_VA
 181:Generated_Source\PSoC4/BLE_1.c ****         {
 182:Generated_Source\PSoC4/BLE_1.c ****             (void)memset(&cyBle_gattc, 0, sizeof(cyBle_gattc));
 183:Generated_Source\PSoC4/BLE_1.c ****         }
 184:Generated_Source\PSoC4/BLE_1.c ****     #endif /* CYBLE_GATT_ROLE_CLIENT */
 185:Generated_Source\PSoC4/BLE_1.c ****     
 186:Generated_Source\PSoC4/BLE_1.c **** 	#ifdef CYBLE_ANCS
 187:Generated_Source\PSoC4/BLE_1.c ****         CyBle_AncsInit();
 188:Generated_Source\PSoC4/BLE_1.c ****     #endif /* CYBLE_ANCS */
 189:Generated_Source\PSoC4/BLE_1.c **** 	
 190:Generated_Source\PSoC4/BLE_1.c ****     #ifdef CYBLE_ANS
 191:Generated_Source\PSoC4/BLE_1.c ****         CyBle_AnsInit();
 195              		.loc 1 191 0
 196 0004 FFF7FEFF 		bl	CyBle_AnsInit
 192:Generated_Source\PSoC4/BLE_1.c ****     #endif /* CYBLE_ANS */
 193:Generated_Source\PSoC4/BLE_1.c ****     
 194:Generated_Source\PSoC4/BLE_1.c ****     #ifdef CYBLE_BAS
 195:Generated_Source\PSoC4/BLE_1.c ****         CyBle_BasInit();
 196:Generated_Source\PSoC4/BLE_1.c ****     #endif /* CYBLE_BAS */
 197:Generated_Source\PSoC4/BLE_1.c ****     
 198:Generated_Source\PSoC4/BLE_1.c ****     #ifdef CYBLE_BCS
 199:Generated_Source\PSoC4/BLE_1.c ****         CyBle_BcsInit();
ARM GAS  C:\Users\Petro\AppData\Local\Temp\ccfEn9K1.s 			page 8


 200:Generated_Source\PSoC4/BLE_1.c ****     #endif /* CYBLE_BCS */
 201:Generated_Source\PSoC4/BLE_1.c **** 
 202:Generated_Source\PSoC4/BLE_1.c ****     #ifdef CYBLE_BLS
 203:Generated_Source\PSoC4/BLE_1.c ****         CyBle_BlsInit();
 204:Generated_Source\PSoC4/BLE_1.c ****     #endif /* CYBLE_BLS */
 205:Generated_Source\PSoC4/BLE_1.c ****     
 206:Generated_Source\PSoC4/BLE_1.c ****     #ifdef CYBLE_BMS
 207:Generated_Source\PSoC4/BLE_1.c ****         CyBle_BmsInit();
 208:Generated_Source\PSoC4/BLE_1.c ****     #endif /* CYBLE_BMS */
 209:Generated_Source\PSoC4/BLE_1.c ****     
 210:Generated_Source\PSoC4/BLE_1.c ****     #ifdef CYBLE_CGMS
 211:Generated_Source\PSoC4/BLE_1.c ****         CyBle_CgmsInit();
 212:Generated_Source\PSoC4/BLE_1.c ****     #endif /* CYBLE_CGMS */
 213:Generated_Source\PSoC4/BLE_1.c **** 
 214:Generated_Source\PSoC4/BLE_1.c ****     #ifdef CYBLE_CPS
 215:Generated_Source\PSoC4/BLE_1.c ****         CyBle_CpsInit();
 216:Generated_Source\PSoC4/BLE_1.c ****     #endif /* CYBLE_CPS */
 217:Generated_Source\PSoC4/BLE_1.c **** 
 218:Generated_Source\PSoC4/BLE_1.c ****     #ifdef CYBLE_CSCS
 219:Generated_Source\PSoC4/BLE_1.c ****         CyBle_CscsInit();
 220:Generated_Source\PSoC4/BLE_1.c ****     #endif /* CYBLE_CSCS */
 221:Generated_Source\PSoC4/BLE_1.c ****     
 222:Generated_Source\PSoC4/BLE_1.c ****     #ifdef CYBLE_CTS
 223:Generated_Source\PSoC4/BLE_1.c ****         CyBle_CtsInit();
 224:Generated_Source\PSoC4/BLE_1.c ****     #endif /* CYBLE_CTS */
 225:Generated_Source\PSoC4/BLE_1.c **** 
 226:Generated_Source\PSoC4/BLE_1.c ****     #ifdef CYBLE_CUSTOM
 227:Generated_Source\PSoC4/BLE_1.c ****         CyBle_CustomInit();
 228:Generated_Source\PSoC4/BLE_1.c ****     #endif /* CYBLE_CUSTOM */
 229:Generated_Source\PSoC4/BLE_1.c **** 
 230:Generated_Source\PSoC4/BLE_1.c ****     #ifdef CYBLE_DIS
 231:Generated_Source\PSoC4/BLE_1.c ****         CyBle_DisInit();
 232:Generated_Source\PSoC4/BLE_1.c ****     #endif /* CYBLE_DIS */
 233:Generated_Source\PSoC4/BLE_1.c **** 
 234:Generated_Source\PSoC4/BLE_1.c ****     #ifdef CYBLE_ESS
 235:Generated_Source\PSoC4/BLE_1.c ****         CyBle_EssInit();
 236:Generated_Source\PSoC4/BLE_1.c ****     #endif /* CYBLE_ESS */
 237:Generated_Source\PSoC4/BLE_1.c ****     
 238:Generated_Source\PSoC4/BLE_1.c ****     #ifdef CYBLE_GLS
 239:Generated_Source\PSoC4/BLE_1.c ****         CyBle_GlsInit();
 240:Generated_Source\PSoC4/BLE_1.c ****     #endif /* CYBLE_GLS */
 241:Generated_Source\PSoC4/BLE_1.c ****     
 242:Generated_Source\PSoC4/BLE_1.c ****     #ifdef CYBLE_HIDS
 243:Generated_Source\PSoC4/BLE_1.c ****         CyBle_HidsInit();
 244:Generated_Source\PSoC4/BLE_1.c ****     #endif /* CYBLE_HIDS */
 245:Generated_Source\PSoC4/BLE_1.c **** 
 246:Generated_Source\PSoC4/BLE_1.c ****     #ifdef CYBLE_HPS
 247:Generated_Source\PSoC4/BLE_1.c ****         CyBle_HpsInit();
 248:Generated_Source\PSoC4/BLE_1.c ****     #endif /* CYBLE_HPS */
 249:Generated_Source\PSoC4/BLE_1.c **** 
 250:Generated_Source\PSoC4/BLE_1.c ****     #ifdef CYBLE_HRS
 251:Generated_Source\PSoC4/BLE_1.c ****         CyBle_HrsInit();
 252:Generated_Source\PSoC4/BLE_1.c ****     #endif /* CYBLE_HRS */
 253:Generated_Source\PSoC4/BLE_1.c ****     
 254:Generated_Source\PSoC4/BLE_1.c ****     #ifdef CYBLE_HTS
 255:Generated_Source\PSoC4/BLE_1.c ****         CyBle_HtsInit();
 256:Generated_Source\PSoC4/BLE_1.c ****     #endif /* CYBLE_RSCS */
ARM GAS  C:\Users\Petro\AppData\Local\Temp\ccfEn9K1.s 			page 9


 257:Generated_Source\PSoC4/BLE_1.c **** 
 258:Generated_Source\PSoC4/BLE_1.c ****     #ifdef CYBLE_IAS
 259:Generated_Source\PSoC4/BLE_1.c ****         CyBle_IasInit();
 260:Generated_Source\PSoC4/BLE_1.c ****     #endif /* CYBLE_IAS */
 261:Generated_Source\PSoC4/BLE_1.c **** 
 262:Generated_Source\PSoC4/BLE_1.c ****     #ifdef CYBLE_IPS
 263:Generated_Source\PSoC4/BLE_1.c ****         CyBle_IpsInit();
 264:Generated_Source\PSoC4/BLE_1.c ****     #endif /* CYBLE_IPS */
 265:Generated_Source\PSoC4/BLE_1.c ****     
 266:Generated_Source\PSoC4/BLE_1.c ****     #ifdef CYBLE_LLS
 267:Generated_Source\PSoC4/BLE_1.c ****         CyBle_LlsInit();
 268:Generated_Source\PSoC4/BLE_1.c ****     #endif /* CYBLE_LLS */
 269:Generated_Source\PSoC4/BLE_1.c **** 
 270:Generated_Source\PSoC4/BLE_1.c ****     #ifdef CYBLE_LNS
 271:Generated_Source\PSoC4/BLE_1.c ****         CyBle_LnsInit();
 272:Generated_Source\PSoC4/BLE_1.c ****     #endif /* CYBLE_LNS */
 273:Generated_Source\PSoC4/BLE_1.c ****     
 274:Generated_Source\PSoC4/BLE_1.c ****     #ifdef CYBLE_NDCS
 275:Generated_Source\PSoC4/BLE_1.c ****         CyBle_NdcsInit();
 276:Generated_Source\PSoC4/BLE_1.c ****     #endif /* CYBLE_NDCS */
 277:Generated_Source\PSoC4/BLE_1.c ****     
 278:Generated_Source\PSoC4/BLE_1.c ****     #ifdef CYBLE_PASS
 279:Generated_Source\PSoC4/BLE_1.c ****         CyBle_PassInit();
 280:Generated_Source\PSoC4/BLE_1.c ****     #endif /* CYBLE_PASS */
 281:Generated_Source\PSoC4/BLE_1.c ****     
 282:Generated_Source\PSoC4/BLE_1.c ****     #ifdef CYBLE_PLXS
 283:Generated_Source\PSoC4/BLE_1.c ****         CyBle_PlxsInit();
 284:Generated_Source\PSoC4/BLE_1.c ****     #endif /* CYBLE_PLXS */
 285:Generated_Source\PSoC4/BLE_1.c ****     
 286:Generated_Source\PSoC4/BLE_1.c ****     #ifdef CYBLE_RSCS
 287:Generated_Source\PSoC4/BLE_1.c ****         CyBle_RscsInit();
 288:Generated_Source\PSoC4/BLE_1.c ****     #endif /* CYBLE_RSCS */
 289:Generated_Source\PSoC4/BLE_1.c **** 
 290:Generated_Source\PSoC4/BLE_1.c ****     #ifdef CYBLE_RTUS
 291:Generated_Source\PSoC4/BLE_1.c ****         CyBle_RtusInit();
 292:Generated_Source\PSoC4/BLE_1.c ****     #endif /* CYBLE_RTUS */
 293:Generated_Source\PSoC4/BLE_1.c **** 
 294:Generated_Source\PSoC4/BLE_1.c ****     #ifdef CYBLE_SCPS
 295:Generated_Source\PSoC4/BLE_1.c ****         CyBle_ScpsInit();
 296:Generated_Source\PSoC4/BLE_1.c ****     #endif /* CYBLE_SCPS */
 297:Generated_Source\PSoC4/BLE_1.c ****     
 298:Generated_Source\PSoC4/BLE_1.c ****     #ifdef CYBLE_TPS
 299:Generated_Source\PSoC4/BLE_1.c ****         CyBle_TpsInit();
 300:Generated_Source\PSoC4/BLE_1.c ****     #endif /* CYBLE_TPS */
 301:Generated_Source\PSoC4/BLE_1.c ****     
 302:Generated_Source\PSoC4/BLE_1.c ****     #ifdef CYBLE_UDS
 303:Generated_Source\PSoC4/BLE_1.c ****         CyBle_UdsInit();
 304:Generated_Source\PSoC4/BLE_1.c ****     #endif /* CYBLE_UDS */
 305:Generated_Source\PSoC4/BLE_1.c **** 
 306:Generated_Source\PSoC4/BLE_1.c ****     #ifdef CYBLE_WPTS
 307:Generated_Source\PSoC4/BLE_1.c ****         CyBle_WptsInit();
 308:Generated_Source\PSoC4/BLE_1.c ****     #endif /* CYBLE_WPTS */
 309:Generated_Source\PSoC4/BLE_1.c **** 
 310:Generated_Source\PSoC4/BLE_1.c ****     #ifdef CYBLE_WSS
 311:Generated_Source\PSoC4/BLE_1.c ****         CyBle_WssInit();
 312:Generated_Source\PSoC4/BLE_1.c ****     #endif /* CYBLE_WSS */
 313:Generated_Source\PSoC4/BLE_1.c **** }
ARM GAS  C:\Users\Petro\AppData\Local\Temp\ccfEn9K1.s 			page 10


 197              		.loc 1 313 0
 198 0008 BD46     		mov	sp, r7
 199              		@ sp needed
 200 000a 80BD     		pop	{r7, pc}
 201              		.cfi_endproc
 202              	.LFE3:
 203              		.size	CyBle_ServiceInit, .-CyBle_ServiceInit
 204              		.section	.rodata
 205              		.align	2
 206              	.LC0:
 207 0000 2400     		.short	36
 208 0002 03       		.byte	3
 209 0003 00       		.space	1
 210 0004 3000     		.short	48
 211 0006 01       		.byte	1
 212 0007 00       		.space	1
 213 0008 2800     		.short	40
 214 000a 02       		.byte	2
 215 000b 00       		.space	1
 216 000c 2400     		.short	36
 217 000e 01       		.byte	1
 218 000f 00       		.space	1
 219 0010 2400     		.short	36
 220 0012 01       		.byte	1
 221 0013 00       		.space	1
 222              		.section	.text.CyBle_Start,"ax",%progbits
 223              		.align	2
 224              		.global	CyBle_Start
 225              		.code	16
 226              		.thumb_func
 227              		.type	CyBle_Start, %function
 228              	CyBle_Start:
 229              	.LFB4:
 314:Generated_Source\PSoC4/BLE_1.c **** 
 315:Generated_Source\PSoC4/BLE_1.c **** 
 316:Generated_Source\PSoC4/BLE_1.c **** /******************************************************************************
 317:Generated_Source\PSoC4/BLE_1.c **** * Function Name: CyBle_Start
 318:Generated_Source\PSoC4/BLE_1.c **** ***************************************************************************//**
 319:Generated_Source\PSoC4/BLE_1.c **** * 
 320:Generated_Source\PSoC4/BLE_1.c **** *  This function initializes the BLE Stack, which consists of the BLE Stack 
 321:Generated_Source\PSoC4/BLE_1.c **** *  Manager, BLE Controller, and BLE Host modules. It takes care of initializing
 322:Generated_Source\PSoC4/BLE_1.c **** *  the Profile layer, schedulers, Timer and other platform related
 323:Generated_Source\PSoC4/BLE_1.c **** *  resources required for the BLE component. It also registers the callback 
 324:Generated_Source\PSoC4/BLE_1.c **** *  function for BLE events that will be registered in the BLE stack.
 325:Generated_Source\PSoC4/BLE_1.c **** * 
 326:Generated_Source\PSoC4/BLE_1.c **** *  Note that this function does not reset the BLE Stack.
 327:Generated_Source\PSoC4/BLE_1.c **** * 
 328:Generated_Source\PSoC4/BLE_1.c **** *  For HCI-Mode of operation, this function will not initialize the BLE Host 
 329:Generated_Source\PSoC4/BLE_1.c **** *  module.
 330:Generated_Source\PSoC4/BLE_1.c **** * 
 331:Generated_Source\PSoC4/BLE_1.c **** *  Calling this function results in the generation of CYBLE_EVT_STACK_ON event
 332:Generated_Source\PSoC4/BLE_1.c **** *  on successful initialization of the BLE Stack.
 333:Generated_Source\PSoC4/BLE_1.c **** * 
 334:Generated_Source\PSoC4/BLE_1.c **** *  \param callbackFunc: Event callback function to receive events from BLE stack.
 335:Generated_Source\PSoC4/BLE_1.c **** *   CYBLE_CALLBACK_T is a function pointer type.
 336:Generated_Source\PSoC4/BLE_1.c **** * 
 337:Generated_Source\PSoC4/BLE_1.c **** * \return
ARM GAS  C:\Users\Petro\AppData\Local\Temp\ccfEn9K1.s 			page 11


 338:Generated_Source\PSoC4/BLE_1.c **** *  CYBLE_API_RESULT_T : Return value indicates if the function succeeded or 
 339:Generated_Source\PSoC4/BLE_1.c **** *  failed. Following are the possible error codes.
 340:Generated_Source\PSoC4/BLE_1.c **** * 
 341:Generated_Source\PSoC4/BLE_1.c **** *   <table>
 342:Generated_Source\PSoC4/BLE_1.c **** *  	  <tr>
 343:Generated_Source\PSoC4/BLE_1.c **** *       <th>Error codes</th>
 344:Generated_Source\PSoC4/BLE_1.c **** *       <th>Description</th>
 345:Generated_Source\PSoC4/BLE_1.c **** *     </tr>
 346:Generated_Source\PSoC4/BLE_1.c **** *     <tr>
 347:Generated_Source\PSoC4/BLE_1.c **** *       <td>CYBLE_ERROR_OK</td>
 348:Generated_Source\PSoC4/BLE_1.c **** *       <td>On successful operation.</td>
 349:Generated_Source\PSoC4/BLE_1.c **** *     </tr>
 350:Generated_Source\PSoC4/BLE_1.c **** *     <tr>
 351:Generated_Source\PSoC4/BLE_1.c **** *       <td>CYBLE_ERROR_INVALID_PARAMETER</td>
 352:Generated_Source\PSoC4/BLE_1.c **** *       <td>On passing a NULL pointer to the function when the BLE stack is not built in HCI mode. 
 353:Generated_Source\PSoC4/BLE_1.c **** *			CYBLE_ERROR_INVALID_PARAMETER is never returned in HCI mode.</td>
 354:Generated_Source\PSoC4/BLE_1.c **** *     </tr>
 355:Generated_Source\PSoC4/BLE_1.c **** *     <tr>
 356:Generated_Source\PSoC4/BLE_1.c **** *       <td>CYBLE_ERROR_REPEATED_ATTEMPTS</td>
 357:Generated_Source\PSoC4/BLE_1.c **** *       <td>On invoking this function more than once without calling CyBle_Shutdown() 
 358:Generated_Source\PSoC4/BLE_1.c **** *           function between calls to this function.</td>
 359:Generated_Source\PSoC4/BLE_1.c **** *     </tr>
 360:Generated_Source\PSoC4/BLE_1.c **** *     <tr>
 361:Generated_Source\PSoC4/BLE_1.c **** *       <td>CYBLE_ERROR_MEMORY_ALLOCATION_FAILED</td>
 362:Generated_Source\PSoC4/BLE_1.c **** *       <td>There is insufficient memory available.</td>
 363:Generated_Source\PSoC4/BLE_1.c **** *     </tr>
 364:Generated_Source\PSoC4/BLE_1.c **** *   </table>
 365:Generated_Source\PSoC4/BLE_1.c **** * 
 366:Generated_Source\PSoC4/BLE_1.c **** *  \globalvars
 367:Generated_Source\PSoC4/BLE_1.c **** *   The CyBle_initVar variable is used to indicate initial
 368:Generated_Source\PSoC4/BLE_1.c **** *   configuration of this component. The variable is initialized to zero (0u)
 369:Generated_Source\PSoC4/BLE_1.c **** *   and set to one (1u) the first time CyBle_Start() is called. This
 370:Generated_Source\PSoC4/BLE_1.c **** *   allows for component initialization without re-initialization in all
 371:Generated_Source\PSoC4/BLE_1.c **** *   subsequent calls to the CyBle_Start() routine.
 372:Generated_Source\PSoC4/BLE_1.c **** * 
 373:Generated_Source\PSoC4/BLE_1.c **** ******************************************************************************/
 374:Generated_Source\PSoC4/BLE_1.c **** CYBLE_API_RESULT_T CyBle_Start(CYBLE_CALLBACK_T callbackFunc)
 375:Generated_Source\PSoC4/BLE_1.c **** {
 230              		.loc 1 375 0
 231              		.cfi_startproc
 232 0000 B0B5     		push	{r4, r5, r7, lr}
 233              		.cfi_def_cfa_offset 16
 234              		.cfi_offset 4, -16
 235              		.cfi_offset 5, -12
 236              		.cfi_offset 7, -8
 237              		.cfi_offset 14, -4
 238 0002 94B0     		sub	sp, sp, #80
 239              		.cfi_def_cfa_offset 96
 240 0004 04AF     		add	r7, sp, #16
 241              		.cfi_def_cfa 7, 80
 242 0006 7860     		str	r0, [r7, #4]
 376:Generated_Source\PSoC4/BLE_1.c ****     CYBLE_API_RESULT_T apiResult = CYBLE_ERROR_OK;
 243              		.loc 1 376 0
 244 0008 3E23     		mov	r3, #62
 245 000a FB18     		add	r3, r7, r3
 246 000c 0022     		mov	r2, #0
 247 000e 1A80     		strh	r2, [r3]
ARM GAS  C:\Users\Petro\AppData\Local\Temp\ccfEn9K1.s 			page 12


 377:Generated_Source\PSoC4/BLE_1.c ****     
 378:Generated_Source\PSoC4/BLE_1.c ****     #if(CYBLE_MODE_PROFILE)
 379:Generated_Source\PSoC4/BLE_1.c ****     
 380:Generated_Source\PSoC4/BLE_1.c ****     CYBLE_STK_APP_DATA_BUFF_T cyBle_stackDataBuff[CYBLE_STACK_APP_MIN_POOL] = 
 248              		.loc 1 380 0
 249 0010 2823     		mov	r3, #40
 250 0012 FA18     		add	r2, r7, r3
 251 0014 3E4B     		ldr	r3, .L12
 252 0016 111C     		mov	r1, r2
 253 0018 1A1C     		mov	r2, r3
 254 001a 1423     		mov	r3, #20
 255 001c 081C     		mov	r0, r1
 256 001e 111C     		mov	r1, r2
 257 0020 1A1C     		mov	r2, r3
 258 0022 FFF7FEFF 		bl	memcpy
 381:Generated_Source\PSoC4/BLE_1.c ****     {
 382:Generated_Source\PSoC4/BLE_1.c ****         {CYBLE_GATT_MTU_PLUS_L2CAP_MEM_EXT, CYBLE_GATT_MTU_BUFF_COUNT + CYBLE_GATT_MAX_ATTR_BUFF_CO
 383:Generated_Source\PSoC4/BLE_1.c ****         {CYBLE_L2CAP_PSM_PLUS_L2CAP_MEM_EXT, CYBLE_L2CAP_PSM_COUNT},
 384:Generated_Source\PSoC4/BLE_1.c ****         {CYBLE_L2CAP_CBFC_PLUS_L2CAP_MEM_EXT, 2u * CYBLE_L2CAP_LOGICAL_CHANNEL_COUNT},
 385:Generated_Source\PSoC4/BLE_1.c ****         {CYBLE_L2CAP_MTU_PLUS_L2CAP_MEM_EXT, CYBLE_L2CAP_LOGICAL_CHANNEL_COUNT},
 386:Generated_Source\PSoC4/BLE_1.c ****         {CYBLE_L2CAP_MPS_PLUS_L2CAP_MEM_EXT, CYBLE_L2CAP_LOGICAL_CHANNEL_COUNT * (CYBLE_L2CAP_MTU_M
 387:Generated_Source\PSoC4/BLE_1.c ****     }; 
 388:Generated_Source\PSoC4/BLE_1.c **** 
 389:Generated_Source\PSoC4/BLE_1.c ****     #endif /* CYBLE_MODE_PROFILE */
 390:Generated_Source\PSoC4/BLE_1.c ****     
 391:Generated_Source\PSoC4/BLE_1.c ****     /* If not initialized then initialize all the required hardware and software */
 392:Generated_Source\PSoC4/BLE_1.c ****     if(cyBle_initVar == 0u)
 259              		.loc 1 392 0
 260 0026 3B4B     		ldr	r3, .L12+4
 261 0028 1B78     		ldrb	r3, [r3]
 262 002a 002B     		cmp	r3, #0
 263 002c 04D1     		bne	.L6
 393:Generated_Source\PSoC4/BLE_1.c ****     {
 394:Generated_Source\PSoC4/BLE_1.c ****         CyBle_Init();
 264              		.loc 1 394 0
 265 002e FFF7FEFF 		bl	CyBle_Init
 395:Generated_Source\PSoC4/BLE_1.c ****         cyBle_initVar = 1u;
 266              		.loc 1 395 0
 267 0032 384B     		ldr	r3, .L12+4
 268 0034 0122     		mov	r2, #1
 269 0036 1A70     		strb	r2, [r3]
 270              	.L6:
 396:Generated_Source\PSoC4/BLE_1.c ****     }
 397:Generated_Source\PSoC4/BLE_1.c ****     
 398:Generated_Source\PSoC4/BLE_1.c ****     if(callbackFunc != NULL)
 271              		.loc 1 398 0
 272 0038 7B68     		ldr	r3, [r7, #4]
 273 003a 002B     		cmp	r3, #0
 274 003c 5CD0     		beq	.L7
 399:Generated_Source\PSoC4/BLE_1.c ****     {
 400:Generated_Source\PSoC4/BLE_1.c ****         CyBle_ApplCallback = callbackFunc;
 275              		.loc 1 400 0
 276 003e 364B     		ldr	r3, .L12+8
 277 0040 7A68     		ldr	r2, [r7, #4]
 278 0042 1A60     		str	r2, [r3]
 401:Generated_Source\PSoC4/BLE_1.c ****         
 402:Generated_Source\PSoC4/BLE_1.c ****     #if(CYBLE_SHARING_MODE_EXPORT)
ARM GAS  C:\Users\Petro\AppData\Local\Temp\ccfEn9K1.s 			page 13


 403:Generated_Source\PSoC4/BLE_1.c ****         if(cyBle_stackMemoryRam == NULL)
 404:Generated_Source\PSoC4/BLE_1.c ****         {
 405:Generated_Source\PSoC4/BLE_1.c ****             cyBle_stackMemoryRam = (uint8 *)malloc(CYBLE_STACK_RAM_SIZE);
 406:Generated_Source\PSoC4/BLE_1.c ****             if(cyBle_stackMemoryRam == NULL)
 407:Generated_Source\PSoC4/BLE_1.c ****             {
 408:Generated_Source\PSoC4/BLE_1.c ****                 apiResult = CYBLE_ERROR_MEMORY_ALLOCATION_FAILED;
 409:Generated_Source\PSoC4/BLE_1.c ****             }
 410:Generated_Source\PSoC4/BLE_1.c ****         }
 411:Generated_Source\PSoC4/BLE_1.c ****     #endif /* CYBLE_SHARING_MODE_EXPORT */
 412:Generated_Source\PSoC4/BLE_1.c ****         if(apiResult == CYBLE_ERROR_OK)
 279              		.loc 1 412 0
 280 0044 3E23     		mov	r3, #62
 281 0046 FB18     		add	r3, r7, r3
 282 0048 1B88     		ldrh	r3, [r3]
 283 004a 002B     		cmp	r3, #0
 284 004c 29D1     		bne	.L8
 285              	.LBB2:
 413:Generated_Source\PSoC4/BLE_1.c ****         {
 414:Generated_Source\PSoC4/BLE_1.c ****             CYBLE_DLE_CONFIG_PARAM_T dleConfigParams;
 415:Generated_Source\PSoC4/BLE_1.c ****             CYBLE_PRIVACY_1_2_CONFIG_PARAM_T privacyConfigParams;
 416:Generated_Source\PSoC4/BLE_1.c ****             CYBLE_STACK_CONFIG_PARAM_T stackConfig;
 417:Generated_Source\PSoC4/BLE_1.c ****             uint16 featureHeapReq;
 418:Generated_Source\PSoC4/BLE_1.c ****             
 419:Generated_Source\PSoC4/BLE_1.c ****             stackConfig.privacyConfig = &privacyConfigParams;
 286              		.loc 1 419 0
 287 004e 1023     		mov	r3, #16
 288 0050 FB18     		add	r3, r7, r3
 289 0052 1C22     		mov	r2, #28
 290 0054 BA18     		add	r2, r7, r2
 291 0056 5A60     		str	r2, [r3, #4]
 420:Generated_Source\PSoC4/BLE_1.c ****             stackConfig.dleConfig = &dleConfigParams;
 292              		.loc 1 420 0
 293 0058 1023     		mov	r3, #16
 294 005a FB18     		add	r3, r7, r3
 295 005c 2022     		mov	r2, #32
 296 005e BA18     		add	r2, r7, r2
 297 0060 1A60     		str	r2, [r3]
 421:Generated_Source\PSoC4/BLE_1.c ****             
 422:Generated_Source\PSoC4/BLE_1.c ****             /* Configure default BLE 4.1 features and enabled 4.2 features */
 423:Generated_Source\PSoC4/BLE_1.c ****             stackConfig.feature_mask = CYBLE_DLE_FEATURE | CYBLE_LL_PRIVACY_FEATURE | 
 298              		.loc 1 423 0
 299 0062 1023     		mov	r3, #16
 300 0064 FB18     		add	r3, r7, r3
 301 0066 0022     		mov	r2, #0
 302 0068 1A81     		strh	r2, [r3, #8]
 424:Generated_Source\PSoC4/BLE_1.c ****                                        CYBLE_SECURE_CONN_FEATURE;
 425:Generated_Source\PSoC4/BLE_1.c **** 
 426:Generated_Source\PSoC4/BLE_1.c ****             /* Configure DLE */
 427:Generated_Source\PSoC4/BLE_1.c ****             dleConfigParams.dleMaxTxCapability = CYBLE_LL_MAX_TX_PAYLOAD_SIZE;
 303              		.loc 1 427 0
 304 006a 2023     		mov	r3, #32
 305 006c FB18     		add	r3, r7, r3
 306 006e 1B22     		mov	r2, #27
 307 0070 1A80     		strh	r2, [r3]
 428:Generated_Source\PSoC4/BLE_1.c ****             dleConfigParams.dleMaxRxCapability = CYBLE_LL_MAX_RX_PAYLOAD_SIZE;
 308              		.loc 1 428 0
 309 0072 2023     		mov	r3, #32
ARM GAS  C:\Users\Petro\AppData\Local\Temp\ccfEn9K1.s 			page 14


 310 0074 FB18     		add	r3, r7, r3
 311 0076 1B22     		mov	r2, #27
 312 0078 5A80     		strh	r2, [r3, #2]
 429:Generated_Source\PSoC4/BLE_1.c ****             dleConfigParams.dleNumTxBuffer = CYBLE_LL_DEFAULT_NUM_ACL_TX_PACKETS;
 313              		.loc 1 429 0
 314 007a 2023     		mov	r3, #32
 315 007c FB18     		add	r3, r7, r3
 316 007e 0422     		mov	r2, #4
 317 0080 1A71     		strb	r2, [r3, #4]
 430:Generated_Source\PSoC4/BLE_1.c ****         #if(CYBLE_DLE_FEATURE_ENABLED)
 431:Generated_Source\PSoC4/BLE_1.c ****             CyBle_EnableDleFeature();              /* Enable DLE code in stack */
 432:Generated_Source\PSoC4/BLE_1.c ****         #endif /* CYBLE_DLE_FEATURE_ENABLED */
 433:Generated_Source\PSoC4/BLE_1.c ****         
 434:Generated_Source\PSoC4/BLE_1.c ****             /* Configure LL Privacy */
 435:Generated_Source\PSoC4/BLE_1.c ****             privacyConfigParams.resolvingListSize = CYBLE_MAX_RESOLVABLE_DEVICES;
 318              		.loc 1 435 0
 319 0082 1C23     		mov	r3, #28
 320 0084 FB18     		add	r3, r7, r3
 321 0086 0022     		mov	r2, #0
 322 0088 1A70     		strb	r2, [r3]
 436:Generated_Source\PSoC4/BLE_1.c ****         #if(CYBLE_LL_PRIVACY_FEATURE_ENABLED)
 437:Generated_Source\PSoC4/BLE_1.c ****             CyBle_EnablePrivacyFeature();          /* Enable LL Privacy code in stack */
 438:Generated_Source\PSoC4/BLE_1.c ****         #endif /* CYBLE_LL_PRIVACY_FEATURE_ENABLED */
 439:Generated_Source\PSoC4/BLE_1.c **** 
 440:Generated_Source\PSoC4/BLE_1.c ****             apiResult = CyBle_StackSetFeatureConfig(&stackConfig, &featureHeapReq);
 323              		.loc 1 440 0
 324 008a 3E23     		mov	r3, #62
 325 008c FC18     		add	r4, r7, r3
 326 008e 1023     		mov	r3, #16
 327 0090 FA18     		add	r2, r7, r3
 328 0092 0E23     		mov	r3, #14
 329 0094 FB18     		add	r3, r7, r3
 330 0096 101C     		mov	r0, r2
 331 0098 191C     		mov	r1, r3
 332 009a FFF7FEFF 		bl	CyBle_StackSetFeatureConfig
 333 009e 031C     		mov	r3, r0
 334 00a0 2380     		strh	r3, [r4]
 335              	.L8:
 336              	.LBE2:
 441:Generated_Source\PSoC4/BLE_1.c ****             }
 442:Generated_Source\PSoC4/BLE_1.c ****     
 443:Generated_Source\PSoC4/BLE_1.c ****         if(apiResult == CYBLE_ERROR_OK)
 337              		.loc 1 443 0
 338 00a2 3E23     		mov	r3, #62
 339 00a4 FB18     		add	r3, r7, r3
 340 00a6 1B88     		ldrh	r3, [r3]
 341 00a8 002B     		cmp	r3, #0
 342 00aa 29D1     		bne	.L10
 444:Generated_Source\PSoC4/BLE_1.c ****         {
 445:Generated_Source\PSoC4/BLE_1.c ****         
 446:Generated_Source\PSoC4/BLE_1.c ****         #if(CYBLE_MODE_PROFILE)
 447:Generated_Source\PSoC4/BLE_1.c ****             #if(CYBLE_BONDING_REQUIREMENT == CYBLE_BONDING_YES)
 448:Generated_Source\PSoC4/BLE_1.c ****                 apiResult = CyBle_StackInit(&CyBle_EventHandler, cyBle_stackMemoryRam, 
 343              		.loc 1 448 0
 344 00ac 3E23     		mov	r3, #62
 345 00ae FC18     		add	r4, r7, r3
 346 00b0 1A48     		ldr	r0, .L12+12
ARM GAS  C:\Users\Petro\AppData\Local\Temp\ccfEn9K1.s 			page 15


 347 00b2 1B49     		ldr	r1, .L12+16
 348 00b4 AE23     		mov	r3, #174
 349 00b6 1A01     		lsl	r2, r3, #4
 350 00b8 2823     		mov	r3, #40
 351 00ba FD18     		add	r5, r7, r3
 352 00bc 0523     		mov	r3, #5
 353 00be 0093     		str	r3, [sp]
 354 00c0 184B     		ldr	r3, .L12+20
 355 00c2 0193     		str	r3, [sp, #4]
 356 00c4 184B     		ldr	r3, .L12+24
 357 00c6 0293     		str	r3, [sp, #8]
 358 00c8 2B1C     		mov	r3, r5
 359 00ca FFF7FEFF 		bl	CyBle_StackInit
 360 00ce 031C     		mov	r3, r0
 361 00d0 2380     		strh	r3, [r4]
 449:Generated_Source\PSoC4/BLE_1.c ****                     CYBLE_STACK_RAM_SIZE - CYBLE_GATT_PREPARE_WRITE_BUFF_LEN, cyBle_stackDataBuff, 
 450:Generated_Source\PSoC4/BLE_1.c ****                     CYBLE_STACK_APP_MIN_POOL, cyBle_flashStorage.stackFlashptr, CYBLE_STACK_FLASH_S
 451:Generated_Source\PSoC4/BLE_1.c ****             #else
 452:Generated_Source\PSoC4/BLE_1.c ****                 apiResult = CyBle_StackInit(&CyBle_EventHandler, cyBle_stackMemoryRam, 
 453:Generated_Source\PSoC4/BLE_1.c ****                     CYBLE_STACK_RAM_SIZE - CYBLE_GATT_PREPARE_WRITE_BUFF_LEN, cyBle_stackDataBuff, 
 454:Generated_Source\PSoC4/BLE_1.c ****                     CYBLE_STACK_APP_MIN_POOL, NULL, 0u);
 455:Generated_Source\PSoC4/BLE_1.c ****             #endif  /* CYBLE_BONDING_REQUIREMENT == CYBLE_BONDING_YES */
 456:Generated_Source\PSoC4/BLE_1.c ****         #else
 457:Generated_Source\PSoC4/BLE_1.c ****             apiResult = CyBle_StackInit(&CyBle_EventHandler, cyBle_stackMemoryRam, CYBLE_STACK_RAM_
 458:Generated_Source\PSoC4/BLE_1.c ****                 NULL, 0u, NULL, 0u);
 459:Generated_Source\PSoC4/BLE_1.c ****         #endif /* CYBLE_MODE_PROFILE */
 460:Generated_Source\PSoC4/BLE_1.c **** 
 461:Generated_Source\PSoC4/BLE_1.c ****             if(apiResult == CYBLE_ERROR_OK)
 362              		.loc 1 461 0
 363 00d2 3E23     		mov	r3, #62
 364 00d4 FB18     		add	r3, r7, r3
 365 00d6 1B88     		ldrh	r3, [r3]
 366 00d8 002B     		cmp	r3, #0
 367 00da 11D1     		bne	.L10
 462:Generated_Source\PSoC4/BLE_1.c ****             {
 463:Generated_Source\PSoC4/BLE_1.c ****                 CyBle_SetState(CYBLE_STATE_INITIALIZING);
 368              		.loc 1 463 0
 369 00dc 134B     		ldr	r3, .L12+28
 370 00de 0122     		mov	r2, #1
 371 00e0 1A70     		strb	r2, [r3]
 464:Generated_Source\PSoC4/BLE_1.c ****                 
 465:Generated_Source\PSoC4/BLE_1.c ****             #if (CYBLE_GATT_ROLE_CLIENT)
 466:Generated_Source\PSoC4/BLE_1.c ****                 CyBle_SetClientState(CYBLE_CLIENT_STATE_DISCONNECTED);
 467:Generated_Source\PSoC4/BLE_1.c ****             #endif /* CYBLE_GATT_ROLE_CLIENT */
 468:Generated_Source\PSoC4/BLE_1.c ****                 
 469:Generated_Source\PSoC4/BLE_1.c ****             #if(CYBLE_GATT_ROLE_SERVER)
 470:Generated_Source\PSoC4/BLE_1.c ****                 apiResult = CyBle_GattsDbRegister(cyBle_gattDB, CYBLE_GATT_DB_INDEX_COUNT, CYBLE_GA
 372              		.loc 1 470 0
 373 00e2 3E23     		mov	r3, #62
 374 00e4 FC18     		add	r4, r7, r3
 375 00e6 124B     		ldr	r3, .L12+32
 376 00e8 181C     		mov	r0, r3
 377 00ea 1A21     		mov	r1, #26
 378 00ec 0822     		mov	r2, #8
 379 00ee FFF7FEFF 		bl	CyBle_GattsDbRegister
 380 00f2 031C     		mov	r3, r0
 381 00f4 2380     		strh	r3, [r4]
ARM GAS  C:\Users\Petro\AppData\Local\Temp\ccfEn9K1.s 			page 16


 382 00f6 03E0     		b	.L10
 383              	.L7:
 471:Generated_Source\PSoC4/BLE_1.c ****             #endif /* CYBLE_GATT_ROLE_SERVER */
 472:Generated_Source\PSoC4/BLE_1.c ****             }
 473:Generated_Source\PSoC4/BLE_1.c ****         }
 474:Generated_Source\PSoC4/BLE_1.c ****     }
 475:Generated_Source\PSoC4/BLE_1.c ****     else
 476:Generated_Source\PSoC4/BLE_1.c ****     {
 477:Generated_Source\PSoC4/BLE_1.c ****         apiResult = CYBLE_ERROR_INVALID_PARAMETER;
 384              		.loc 1 477 0
 385 00f8 3E23     		mov	r3, #62
 386 00fa FB18     		add	r3, r7, r3
 387 00fc 0122     		mov	r2, #1
 388 00fe 1A80     		strh	r2, [r3]
 389              	.L10:
 478:Generated_Source\PSoC4/BLE_1.c ****     }
 479:Generated_Source\PSoC4/BLE_1.c **** 
 480:Generated_Source\PSoC4/BLE_1.c ****     return (apiResult);
 390              		.loc 1 480 0
 391 0100 3E23     		mov	r3, #62
 392 0102 FB18     		add	r3, r7, r3
 393 0104 1B88     		ldrh	r3, [r3]
 481:Generated_Source\PSoC4/BLE_1.c **** }
 394              		.loc 1 481 0
 395 0106 181C     		mov	r0, r3
 396 0108 BD46     		mov	sp, r7
 397 010a 10B0     		add	sp, sp, #64
 398              		@ sp needed
 399 010c B0BD     		pop	{r4, r5, r7, pc}
 400              	.L13:
 401 010e C046     		.align	2
 402              	.L12:
 403 0110 00000000 		.word	.LC0
 404 0114 00000000 		.word	cyBle_initVar
 405 0118 00000000 		.word	CyBle_ApplCallback
 406 011c 00000000 		.word	CyBle_EventHandler
 407 0120 00000000 		.word	cyBle_stackMemoryRam
 408 0124 00000000 		.word	cyBle_flashStorage
 409 0128 79020000 		.word	633
 410 012c 00000000 		.word	cyBle_state
 411 0130 00000000 		.word	cyBle_gattDB
 412              		.cfi_endproc
 413              	.LFE4:
 414              		.size	CyBle_Start, .-CyBle_Start
 415              		.section	.text.CyBle_Stop,"ax",%progbits
 416              		.align	2
 417              		.global	CyBle_Stop
 418              		.code	16
 419              		.thumb_func
 420              		.type	CyBle_Stop, %function
 421              	CyBle_Stop:
 422              	.LFB5:
 482:Generated_Source\PSoC4/BLE_1.c **** 
 483:Generated_Source\PSoC4/BLE_1.c **** 
 484:Generated_Source\PSoC4/BLE_1.c **** /******************************************************************************
 485:Generated_Source\PSoC4/BLE_1.c **** * Function Name: CyBle_Stop
 486:Generated_Source\PSoC4/BLE_1.c **** ***************************************************************************//**
ARM GAS  C:\Users\Petro\AppData\Local\Temp\ccfEn9K1.s 			page 17


 487:Generated_Source\PSoC4/BLE_1.c **** * 
 488:Generated_Source\PSoC4/BLE_1.c **** *  This function stops any ongoing operation in the BLE Stack and forces the 
 489:Generated_Source\PSoC4/BLE_1.c **** *  BLE Stack to shut down. The only function that can be called after calling
 490:Generated_Source\PSoC4/BLE_1.c **** *  this function is CyBle_Start(). 
 491:Generated_Source\PSoC4/BLE_1.c **** * 
 492:Generated_Source\PSoC4/BLE_1.c **** * \return
 493:Generated_Source\PSoC4/BLE_1.c **** *  None
 494:Generated_Source\PSoC4/BLE_1.c **** * 
 495:Generated_Source\PSoC4/BLE_1.c **** ******************************************************************************/
 496:Generated_Source\PSoC4/BLE_1.c **** void CyBle_Stop(void)
 497:Generated_Source\PSoC4/BLE_1.c **** {
 423              		.loc 1 497 0
 424              		.cfi_startproc
 425 0000 80B5     		push	{r7, lr}
 426              		.cfi_def_cfa_offset 8
 427              		.cfi_offset 7, -8
 428              		.cfi_offset 14, -4
 429 0002 00AF     		add	r7, sp, #0
 430              		.cfi_def_cfa_register 7
 498:Generated_Source\PSoC4/BLE_1.c ****     CyBle_Shutdown();                         /* Stop all ongoing activities */
 431              		.loc 1 498 0
 432 0004 FFF7FEFF 		bl	CyBle_Shutdown
 499:Generated_Source\PSoC4/BLE_1.c ****     CyBle_SetState(CYBLE_STATE_STOPPED);
 433              		.loc 1 499 0
 434 0008 024B     		ldr	r3, .L15
 435 000a 0022     		mov	r2, #0
 436 000c 1A70     		strb	r2, [r3]
 500:Generated_Source\PSoC4/BLE_1.c ****     #if(CYBLE_SHARING_MODE_EXPORT)
 501:Generated_Source\PSoC4/BLE_1.c ****         if(cyBle_stackMemoryRam != NULL)
 502:Generated_Source\PSoC4/BLE_1.c ****         {
 503:Generated_Source\PSoC4/BLE_1.c ****             free(cyBle_stackMemoryRam);
 504:Generated_Source\PSoC4/BLE_1.c ****         }
 505:Generated_Source\PSoC4/BLE_1.c ****     #endif /* CYBLE_SHARING_MODE_EXPORT */
 506:Generated_Source\PSoC4/BLE_1.c **** }
 437              		.loc 1 506 0
 438 000e BD46     		mov	sp, r7
 439              		@ sp needed
 440 0010 80BD     		pop	{r7, pc}
 441              	.L16:
 442 0012 C046     		.align	2
 443              	.L15:
 444 0014 00000000 		.word	cyBle_state
 445              		.cfi_endproc
 446              	.LFE5:
 447              		.size	CyBle_Stop, .-CyBle_Stop
 448              		.section	.text.CyBle_StoreBondingData,"ax",%progbits
 449              		.align	2
 450              		.global	CyBle_StoreBondingData
 451              		.code	16
 452              		.thumb_func
 453              		.type	CyBle_StoreBondingData, %function
 454              	CyBle_StoreBondingData:
 455              	.LFB6:
 507:Generated_Source\PSoC4/BLE_1.c **** 
 508:Generated_Source\PSoC4/BLE_1.c **** 
 509:Generated_Source\PSoC4/BLE_1.c **** #if((CYBLE_GAP_ROLE_PERIPHERAL || CYBLE_GAP_ROLE_CENTRAL) && (CYBLE_BONDING_REQUIREMENT == CYBLE_BO
 510:Generated_Source\PSoC4/BLE_1.c **** 
ARM GAS  C:\Users\Petro\AppData\Local\Temp\ccfEn9K1.s 			page 18


 511:Generated_Source\PSoC4/BLE_1.c ****     
 512:Generated_Source\PSoC4/BLE_1.c **** /******************************************************************************
 513:Generated_Source\PSoC4/BLE_1.c **** * Function Name: CyBle_StoreBondingData
 514:Generated_Source\PSoC4/BLE_1.c **** ***************************************************************************//**
 515:Generated_Source\PSoC4/BLE_1.c **** * 
 516:Generated_Source\PSoC4/BLE_1.c **** *  This function writes the new bonding data from RAM to the dedicated Flash 
 517:Generated_Source\PSoC4/BLE_1.c **** *  location as defined by the component. It performs data comparing between RAM
 518:Generated_Source\PSoC4/BLE_1.c **** *  and Flash before writing to Flash. If there is no change between RAM and Flash
 519:Generated_Source\PSoC4/BLE_1.c **** *  data, then no write is performed. It writes only one flash row in one call.
 520:Generated_Source\PSoC4/BLE_1.c **** *  Application should keep calling this function till API return CYBLE_ERROR_OK. 
 521:Generated_Source\PSoC4/BLE_1.c **** *  This function is available only when Bonding requirement is selected in
 522:Generated_Source\PSoC4/BLE_1.c **** *  Security settings.    
 523:Generated_Source\PSoC4/BLE_1.c **** * 
 524:Generated_Source\PSoC4/BLE_1.c **** *  \param isForceWrite:  If value is set to 0, then stack will check if flash write 
 525:Generated_Source\PSoC4/BLE_1.c **** *                 is permissible. 
 526:Generated_Source\PSoC4/BLE_1.c **** *  
 527:Generated_Source\PSoC4/BLE_1.c **** * \return
 528:Generated_Source\PSoC4/BLE_1.c **** *  Return value is of type CYBLE_API_RESULT_T.
 529:Generated_Source\PSoC4/BLE_1.c **** *
 530:Generated_Source\PSoC4/BLE_1.c **** *   Errors codes                         | Description
 531:Generated_Source\PSoC4/BLE_1.c **** *   ----------------------------------   | ------------------------------------
 532:Generated_Source\PSoC4/BLE_1.c **** *   CYBLE_ERROR_OK                       | On successful operation
 533:Generated_Source\PSoC4/BLE_1.c **** *   CYBLE_ERROR_FLASH_WRITE_NOT_PERMITED | Flash Write is not complete
 534:Generated_Source\PSoC4/BLE_1.c **** *   CYBLE_ERROR_INVALID_PARAMETER        | Invalid input parameter  
 535:Generated_Source\PSoC4/BLE_1.c **** *   CYBLE_ERROR_FLASH_WRITE              | Error in flash Write	
 536:Generated_Source\PSoC4/BLE_1.c ****     
 537:Generated_Source\PSoC4/BLE_1.c **** *  \sideeffect
 538:Generated_Source\PSoC4/BLE_1.c **** *   For BLE devices with 128K of Flash memory this API will automatically 
 539:Generated_Source\PSoC4/BLE_1.c **** *   modify the clock settings for the device.
 540:Generated_Source\PSoC4/BLE_1.c **** *   Writing to flash requires changes to be done to the IMO (set to 48 MHz)
 541:Generated_Source\PSoC4/BLE_1.c **** *   and HFCLK (source set to IMO) settings. The configuration is restored before
 542:Generated_Source\PSoC4/BLE_1.c **** *   returning. This will impact the operation of most of the hardware in the
 543:Generated_Source\PSoC4/BLE_1.c **** *   device.
 544:Generated_Source\PSoC4/BLE_1.c **** * 
 545:Generated_Source\PSoC4/BLE_1.c **** *  \globalvars
 546:Generated_Source\PSoC4/BLE_1.c **** *   The cyBle_pendingFlashWrite variable is used to detect status
 547:Generated_Source\PSoC4/BLE_1.c **** *   of pending write to flash operation for stack data and CCCD.
 548:Generated_Source\PSoC4/BLE_1.c **** *   This API automatically clears pending bits after write operation complete.
 549:Generated_Source\PSoC4/BLE_1.c **** *     
 550:Generated_Source\PSoC4/BLE_1.c **** ******************************************************************************/
 551:Generated_Source\PSoC4/BLE_1.c **** CYBLE_API_RESULT_T CyBle_StoreBondingData(uint8 isForceWrite)
 552:Generated_Source\PSoC4/BLE_1.c **** {
 456              		.loc 1 552 0
 457              		.cfi_startproc
 458 0000 90B5     		push	{r4, r7, lr}
 459              		.cfi_def_cfa_offset 12
 460              		.cfi_offset 4, -12
 461              		.cfi_offset 7, -8
 462              		.cfi_offset 14, -4
 463 0002 8DB0     		sub	sp, sp, #52
 464              		.cfi_def_cfa_offset 64
 465 0004 00AF     		add	r7, sp, #0
 466              		.cfi_def_cfa_register 7
 467 0006 021C     		mov	r2, r0
 468 0008 FB1D     		add	r3, r7, #7
 469 000a 1A70     		strb	r2, [r3]
 553:Generated_Source\PSoC4/BLE_1.c ****     CYBLE_API_RESULT_T apiResult = CYBLE_ERROR_OK;
ARM GAS  C:\Users\Petro\AppData\Local\Temp\ccfEn9K1.s 			page 19


 470              		.loc 1 553 0
 471 000c 2E23     		mov	r3, #46
 472 000e FB18     		add	r3, r7, r3
 473 0010 0022     		mov	r2, #0
 474 0012 1A80     		strh	r2, [r3]
 554:Generated_Source\PSoC4/BLE_1.c ****     
 555:Generated_Source\PSoC4/BLE_1.c ****     /* Store Stack data */
 556:Generated_Source\PSoC4/BLE_1.c ****     if((cyBle_pendingFlashWrite & CYBLE_PENDING_STACK_FLASH_WRITE_BIT) != 0u)
 475              		.loc 1 556 0
 476 0014 634B     		ldr	r3, .L27
 477 0016 1B78     		ldrb	r3, [r3]
 478 0018 1A1C     		mov	r2, r3
 479 001a 0123     		mov	r3, #1
 480 001c 1340     		and	r3, r2
 481 001e 1ED0     		beq	.L18
 557:Generated_Source\PSoC4/BLE_1.c ****     {
 558:Generated_Source\PSoC4/BLE_1.c ****         apiResult = CyBle_StoreStackData(isForceWrite);
 482              		.loc 1 558 0
 483 0020 2E23     		mov	r3, #46
 484 0022 FC18     		add	r4, r7, r3
 485 0024 FB1D     		add	r3, r7, #7
 486 0026 1B78     		ldrb	r3, [r3]
 487 0028 181C     		mov	r0, r3
 488 002a FFF7FEFF 		bl	CyBle_StoreStackData
 489 002e 031C     		mov	r3, r0
 490 0030 2380     		strh	r3, [r4]
 559:Generated_Source\PSoC4/BLE_1.c ****         if(apiResult == CYBLE_ERROR_OK)
 491              		.loc 1 559 0
 492 0032 2E23     		mov	r3, #46
 493 0034 FB18     		add	r3, r7, r3
 494 0036 1B88     		ldrh	r3, [r3]
 495 0038 002B     		cmp	r3, #0
 496 003a 10D1     		bne	.L18
 560:Generated_Source\PSoC4/BLE_1.c ****         {
 561:Generated_Source\PSoC4/BLE_1.c ****             cyBle_pendingFlashWrite &= (uint8)~CYBLE_PENDING_STACK_FLASH_WRITE_BIT;
 497              		.loc 1 561 0
 498 003c 594B     		ldr	r3, .L27
 499 003e 1B78     		ldrb	r3, [r3]
 500 0040 0122     		mov	r2, #1
 501 0042 9343     		bic	r3, r2
 502 0044 DAB2     		uxtb	r2, r3
 503 0046 574B     		ldr	r3, .L27
 504 0048 1A70     		strb	r2, [r3]
 562:Generated_Source\PSoC4/BLE_1.c ****             /* Change apiResult if there are more pending data to store */
 563:Generated_Source\PSoC4/BLE_1.c ****             if((cyBle_pendingFlashWrite & CYBLE_PENDING_CCCD_FLASH_WRITE_BIT) != 0u)
 505              		.loc 1 563 0
 506 004a 564B     		ldr	r3, .L27
 507 004c 1B78     		ldrb	r3, [r3]
 508 004e 1A1C     		mov	r2, r3
 509 0050 0223     		mov	r3, #2
 510 0052 1340     		and	r3, r2
 511 0054 03D0     		beq	.L18
 564:Generated_Source\PSoC4/BLE_1.c ****             {
 565:Generated_Source\PSoC4/BLE_1.c ****                 apiResult = CYBLE_ERROR_FLASH_WRITE_NOT_PERMITED;
 512              		.loc 1 565 0
 513 0056 2E23     		mov	r3, #46
 514 0058 FB18     		add	r3, r7, r3
ARM GAS  C:\Users\Petro\AppData\Local\Temp\ccfEn9K1.s 			page 20


 515 005a 2822     		mov	r2, #40
 516 005c 1A80     		strh	r2, [r3]
 517              	.L18:
 566:Generated_Source\PSoC4/BLE_1.c ****             }
 567:Generated_Source\PSoC4/BLE_1.c ****         }
 568:Generated_Source\PSoC4/BLE_1.c ****     }
 569:Generated_Source\PSoC4/BLE_1.c **** #if(CYBLE_GATT_DB_CCCD_COUNT != 0u)
 570:Generated_Source\PSoC4/BLE_1.c ****     /* Store CCCD values */
 571:Generated_Source\PSoC4/BLE_1.c ****     if( ((apiResult == CYBLE_ERROR_OK) || (isForceWrite != 0u)) && 
 518              		.loc 1 571 0
 519 005e 2E23     		mov	r3, #46
 520 0060 FB18     		add	r3, r7, r3
 521 0062 1B88     		ldrh	r3, [r3]
 522 0064 002B     		cmp	r3, #0
 523 0066 03D0     		beq	.L19
 524              		.loc 1 571 0 is_stmt 0 discriminator 2
 525 0068 FB1D     		add	r3, r7, #7
 526 006a 1B78     		ldrb	r3, [r3]
 527 006c 002B     		cmp	r3, #0
 528 006e 2ED0     		beq	.L20
 529              	.L19:
 572:Generated_Source\PSoC4/BLE_1.c ****         ((cyBle_pendingFlashWrite & CYBLE_PENDING_CCCD_FLASH_WRITE_BIT) != 0u) &&
 530              		.loc 1 572 0 is_stmt 1 discriminator 3
 531 0070 4C4B     		ldr	r3, .L27
 532 0072 1B78     		ldrb	r3, [r3]
 533 0074 1A1C     		mov	r2, r3
 534 0076 0223     		mov	r3, #2
 535 0078 1340     		and	r3, r2
 571:Generated_Source\PSoC4/BLE_1.c ****         ((cyBle_pendingFlashWrite & CYBLE_PENDING_CCCD_FLASH_WRITE_BIT) != 0u) &&
 536              		.loc 1 571 0 discriminator 3
 537 007a 28D0     		beq	.L20
 573:Generated_Source\PSoC4/BLE_1.c ****         (cyBle_connHandle.bdHandle <= CYBLE_GAP_MAX_BONDED_DEVICE))
 538              		.loc 1 573 0
 539 007c 4A4B     		ldr	r3, .L27+4
 540 007e 1B78     		ldrb	r3, [r3]
 572:Generated_Source\PSoC4/BLE_1.c ****         ((cyBle_pendingFlashWrite & CYBLE_PENDING_CCCD_FLASH_WRITE_BIT) != 0u) &&
 541              		.loc 1 572 0
 542 0080 042B     		cmp	r3, #4
 543 0082 24D8     		bhi	.L20
 574:Generated_Source\PSoC4/BLE_1.c ****     {
 575:Generated_Source\PSoC4/BLE_1.c ****         apiResult = CyBle_StoreAppData(cyBle_attValuesCCCD, cyBle_flashStorage.attValuesCCCDFlashMe
 576:Generated_Source\PSoC4/BLE_1.c ****                         cyBle_connHandle.bdHandle], CYBLE_GATT_DB_CCCD_COUNT, isForceWrite);
 544              		.loc 1 576 0
 545 0084 484B     		ldr	r3, .L27+4
 546 0086 1B78     		ldrb	r3, [r3]
 575:Generated_Source\PSoC4/BLE_1.c ****                         cyBle_connHandle.bdHandle], CYBLE_GATT_DB_CCCD_COUNT, isForceWrite);
 547              		.loc 1 575 0
 548 0088 1A1C     		mov	r2, r3
 549 008a 131C     		mov	r3, r2
 550 008c 5B00     		lsl	r3, r3, #1
 551 008e 9B18     		add	r3, r3, r2
 552 0090 5B00     		lsl	r3, r3, #1
 553 0092 9E22     		mov	r2, #158
 554 0094 9200     		lsl	r2, r2, #2
 555 0096 9A18     		add	r2, r3, r2
 556 0098 444B     		ldr	r3, .L27+8
 557 009a D318     		add	r3, r2, r3
ARM GAS  C:\Users\Petro\AppData\Local\Temp\ccfEn9K1.s 			page 21


 558 009c 5A1C     		add	r2, r3, #1
 559 009e 2E23     		mov	r3, #46
 560 00a0 FC18     		add	r4, r7, r3
 561 00a2 4349     		ldr	r1, .L27+12
 562 00a4 FB1D     		add	r3, r7, #7
 563 00a6 1B78     		ldrb	r3, [r3]
 564 00a8 081C     		mov	r0, r1
 565 00aa 111C     		mov	r1, r2
 566 00ac 0622     		mov	r2, #6
 567 00ae FFF7FEFF 		bl	CyBle_StoreAppData
 568 00b2 031C     		mov	r3, r0
 569 00b4 2380     		strh	r3, [r4]
 577:Generated_Source\PSoC4/BLE_1.c ****         if(apiResult == CYBLE_ERROR_OK)
 570              		.loc 1 577 0
 571 00b6 2E23     		mov	r3, #46
 572 00b8 FB18     		add	r3, r7, r3
 573 00ba 1B88     		ldrh	r3, [r3]
 574 00bc 002B     		cmp	r3, #0
 575 00be 06D1     		bne	.L20
 578:Generated_Source\PSoC4/BLE_1.c ****         {
 579:Generated_Source\PSoC4/BLE_1.c ****             cyBle_pendingFlashWrite &= (uint8)~CYBLE_PENDING_CCCD_FLASH_WRITE_BIT;
 576              		.loc 1 579 0
 577 00c0 384B     		ldr	r3, .L27
 578 00c2 1B78     		ldrb	r3, [r3]
 579 00c4 0222     		mov	r2, #2
 580 00c6 9343     		bic	r3, r2
 581 00c8 DAB2     		uxtb	r2, r3
 582 00ca 364B     		ldr	r3, .L27
 583 00cc 1A70     		strb	r2, [r3]
 584              	.L20:
 580:Generated_Source\PSoC4/BLE_1.c ****         }
 581:Generated_Source\PSoC4/BLE_1.c ****     }
 582:Generated_Source\PSoC4/BLE_1.c ****     /* Clear requested CCCD values */
 583:Generated_Source\PSoC4/BLE_1.c ****     if( ((apiResult == CYBLE_ERROR_OK) || (isForceWrite != 0u)) && 
 585              		.loc 1 583 0
 586 00ce 2E23     		mov	r3, #46
 587 00d0 FB18     		add	r3, r7, r3
 588 00d2 1B88     		ldrh	r3, [r3]
 589 00d4 002B     		cmp	r3, #0
 590 00d6 03D0     		beq	.L21
 591              		.loc 1 583 0 is_stmt 0 discriminator 2
 592 00d8 FB1D     		add	r3, r7, #7
 593 00da 1B78     		ldrb	r3, [r3]
 594 00dc 002B     		cmp	r3, #0
 595 00de 5AD0     		beq	.L22
 596              	.L21:
 584:Generated_Source\PSoC4/BLE_1.c ****         ((cyBle_pendingFlashWrite & CYBLE_PENDING_CCCD_FLASH_CLEAR_MASK) != 0u) )
 597              		.loc 1 584 0 is_stmt 1 discriminator 3
 598 00e0 304B     		ldr	r3, .L27
 599 00e2 1B78     		ldrb	r3, [r3]
 600 00e4 1A1C     		mov	r2, r3
 601 00e6 0C23     		mov	r3, #12
 602 00e8 1340     		and	r3, r2
 583:Generated_Source\PSoC4/BLE_1.c ****         ((cyBle_pendingFlashWrite & CYBLE_PENDING_CCCD_FLASH_CLEAR_MASK) != 0u) )
 603              		.loc 1 583 0 discriminator 3
 604 00ea 54D0     		beq	.L22
 585:Generated_Source\PSoC4/BLE_1.c ****     {
ARM GAS  C:\Users\Petro\AppData\Local\Temp\ccfEn9K1.s 			page 22


 586:Generated_Source\PSoC4/BLE_1.c ****         if((cyBle_pendingFlashWrite & CYBLE_PENDING_CCCD_FLASH_CLEAR_ALL_BIT) != 0u)
 605              		.loc 1 586 0
 606 00ec 2D4B     		ldr	r3, .L27
 607 00ee 1B78     		ldrb	r3, [r3]
 608 00f0 1A1C     		mov	r2, r3
 609 00f2 0823     		mov	r3, #8
 610 00f4 1340     		and	r3, r2
 611 00f6 22D0     		beq	.L23
 612              	.LBB3:
 587:Generated_Source\PSoC4/BLE_1.c ****         {
 588:Generated_Source\PSoC4/BLE_1.c ****             /* Remove cccd values for all bonded devices */
 589:Generated_Source\PSoC4/BLE_1.c ****             uint8 defaultValuesCCCD[CYBLE_GAP_MAX_BONDED_DEVICE + 1u][CYBLE_GATT_DB_CCCD_COUNT];
 590:Generated_Source\PSoC4/BLE_1.c ****             
 591:Generated_Source\PSoC4/BLE_1.c ****             (void)memset(defaultValuesCCCD, 0, sizeof(defaultValuesCCCD));
 613              		.loc 1 591 0
 614 00f8 1023     		mov	r3, #16
 615 00fa FB18     		add	r3, r7, r3
 616 00fc 181C     		mov	r0, r3
 617 00fe 0021     		mov	r1, #0
 618 0100 1E22     		mov	r2, #30
 619 0102 FFF7FEFF 		bl	memset
 592:Generated_Source\PSoC4/BLE_1.c **** 
 593:Generated_Source\PSoC4/BLE_1.c ****             apiResult = CyBle_StoreAppData((uint8 *)defaultValuesCCCD, 
 620              		.loc 1 593 0
 621 0106 2E23     		mov	r3, #46
 622 0108 FC18     		add	r4, r7, r3
 623 010a 1023     		mov	r3, #16
 624 010c F918     		add	r1, r7, r3
 625 010e 294A     		ldr	r2, .L27+16
 626 0110 FB1D     		add	r3, r7, #7
 627 0112 1B78     		ldrb	r3, [r3]
 628 0114 081C     		mov	r0, r1
 629 0116 111C     		mov	r1, r2
 630 0118 1E22     		mov	r2, #30
 631 011a FFF7FEFF 		bl	CyBle_StoreAppData
 632 011e 031C     		mov	r3, r0
 633 0120 2380     		strh	r3, [r4]
 594:Generated_Source\PSoC4/BLE_1.c ****                 (const uint8 *)cyBle_flashStorage.attValuesCCCDFlashMemory, sizeof(defaultValuesCCC
 595:Generated_Source\PSoC4/BLE_1.c ****             if(apiResult == CYBLE_ERROR_OK)
 634              		.loc 1 595 0
 635 0122 2E23     		mov	r3, #46
 636 0124 FB18     		add	r3, r7, r3
 637 0126 1B88     		ldrh	r3, [r3]
 638 0128 002B     		cmp	r3, #0
 639 012a 07D1     		bne	.L24
 596:Generated_Source\PSoC4/BLE_1.c ****             {
 597:Generated_Source\PSoC4/BLE_1.c ****                 cyBle_pendingFlashWrite &= (uint8)~CYBLE_PENDING_CCCD_FLASH_CLEAR_ALL_BIT;
 640              		.loc 1 597 0
 641 012c 1D4B     		ldr	r3, .L27
 642 012e 1B78     		ldrb	r3, [r3]
 643 0130 0822     		mov	r2, #8
 644 0132 9343     		bic	r3, r2
 645 0134 DAB2     		uxtb	r2, r3
 646 0136 1B4B     		ldr	r3, .L27
 647 0138 1A70     		strb	r2, [r3]
 648              	.LBE3:
 649 013a 2CE0     		b	.L22
ARM GAS  C:\Users\Petro\AppData\Local\Temp\ccfEn9K1.s 			page 23


 650              	.L24:
 651 013c 2BE0     		b	.L22
 652              	.L23:
 653              	.LBB4:
 598:Generated_Source\PSoC4/BLE_1.c ****             }
 599:Generated_Source\PSoC4/BLE_1.c ****         }
 600:Generated_Source\PSoC4/BLE_1.c ****         else /* Remove cccd values for particular device */
 601:Generated_Source\PSoC4/BLE_1.c ****         {
 602:Generated_Source\PSoC4/BLE_1.c ****             uint8 defaultValuesCCCD[CYBLE_GATT_DB_CCCD_COUNT] = {0u};
 654              		.loc 1 602 0
 655 013e 0823     		mov	r3, #8
 656 0140 FB18     		add	r3, r7, r3
 657 0142 0022     		mov	r2, #0
 658 0144 1A60     		str	r2, [r3]
 659 0146 0022     		mov	r2, #0
 660 0148 9A80     		strh	r2, [r3, #4]
 603:Generated_Source\PSoC4/BLE_1.c ****             
 604:Generated_Source\PSoC4/BLE_1.c ****             apiResult = CyBle_StoreAppData(defaultValuesCCCD, cyBle_flashStorage.attValuesCCCDFlash
 661              		.loc 1 604 0
 662 014a 1B4B     		ldr	r3, .L27+20
 663 014c 1B78     		ldrb	r3, [r3]
 664 014e 1A1C     		mov	r2, r3
 665 0150 131C     		mov	r3, r2
 666 0152 5B00     		lsl	r3, r3, #1
 667 0154 9B18     		add	r3, r3, r2
 668 0156 5B00     		lsl	r3, r3, #1
 669 0158 9E22     		mov	r2, #158
 670 015a 9200     		lsl	r2, r2, #2
 671 015c 9A18     		add	r2, r3, r2
 672 015e 134B     		ldr	r3, .L27+8
 673 0160 D318     		add	r3, r2, r3
 674 0162 5A1C     		add	r2, r3, #1
 675 0164 2E23     		mov	r3, #46
 676 0166 FC18     		add	r4, r7, r3
 677 0168 0823     		mov	r3, #8
 678 016a F918     		add	r1, r7, r3
 679 016c FB1D     		add	r3, r7, #7
 680 016e 1B78     		ldrb	r3, [r3]
 681 0170 081C     		mov	r0, r1
 682 0172 111C     		mov	r1, r2
 683 0174 0622     		mov	r2, #6
 684 0176 FFF7FEFF 		bl	CyBle_StoreAppData
 685 017a 031C     		mov	r3, r0
 686 017c 2380     		strh	r3, [r4]
 605:Generated_Source\PSoC4/BLE_1.c ****                                     cyBle_pendingFlashClearCccdHandle], CYBLE_GATT_DB_CCCD_COUNT, i
 606:Generated_Source\PSoC4/BLE_1.c ****             if(apiResult == CYBLE_ERROR_OK)
 687              		.loc 1 606 0
 688 017e 2E23     		mov	r3, #46
 689 0180 FB18     		add	r3, r7, r3
 690 0182 1B88     		ldrh	r3, [r3]
 691 0184 002B     		cmp	r3, #0
 692 0186 06D1     		bne	.L22
 607:Generated_Source\PSoC4/BLE_1.c ****             {
 608:Generated_Source\PSoC4/BLE_1.c ****                 cyBle_pendingFlashWrite &= (uint8)~CYBLE_PENDING_CCCD_FLASH_CLEAR_BIT;
 693              		.loc 1 608 0
 694 0188 064B     		ldr	r3, .L27
 695 018a 1B78     		ldrb	r3, [r3]
ARM GAS  C:\Users\Petro\AppData\Local\Temp\ccfEn9K1.s 			page 24


 696 018c 0422     		mov	r2, #4
 697 018e 9343     		bic	r3, r2
 698 0190 DAB2     		uxtb	r2, r3
 699 0192 044B     		ldr	r3, .L27
 700 0194 1A70     		strb	r2, [r3]
 701              	.L22:
 702              	.LBE4:
 609:Generated_Source\PSoC4/BLE_1.c ****             }
 610:Generated_Source\PSoC4/BLE_1.c ****         }
 611:Generated_Source\PSoC4/BLE_1.c ****     }
 612:Generated_Source\PSoC4/BLE_1.c **** #endif /* CYBLE_GATT_DB_CCCD_COUNT != 0u */
 613:Generated_Source\PSoC4/BLE_1.c ****     return(apiResult);
 703              		.loc 1 613 0
 704 0196 2E23     		mov	r3, #46
 705 0198 FB18     		add	r3, r7, r3
 706 019a 1B88     		ldrh	r3, [r3]
 614:Generated_Source\PSoC4/BLE_1.c **** }
 707              		.loc 1 614 0
 708 019c 181C     		mov	r0, r3
 709 019e BD46     		mov	sp, r7
 710 01a0 0DB0     		add	sp, sp, #52
 711              		@ sp needed
 712 01a2 90BD     		pop	{r4, r7, pc}
 713              	.L28:
 714              		.align	2
 715              	.L27:
 716 01a4 00000000 		.word	cyBle_pendingFlashWrite
 717 01a8 00000000 		.word	cyBle_connHandle
 718 01ac 00000000 		.word	cyBle_flashStorage
 719 01b0 00000000 		.word	cyBle_attValuesCCCD
 720 01b4 79020000 		.word	cyBle_flashStorage+633
 721 01b8 01000000 		.word	cyBle_pendingFlashClearCccdHandle
 722              		.cfi_endproc
 723              	.LFE6:
 724              		.size	CyBle_StoreBondingData, .-CyBle_StoreBondingData
 725              		.section	.text.CyBle_GapRemoveBondedDevice,"ax",%progbits
 726              		.align	2
 727              		.global	CyBle_GapRemoveBondedDevice
 728              		.code	16
 729              		.thumb_func
 730              		.type	CyBle_GapRemoveBondedDevice, %function
 731              	CyBle_GapRemoveBondedDevice:
 732              	.LFB7:
 615:Generated_Source\PSoC4/BLE_1.c **** 
 616:Generated_Source\PSoC4/BLE_1.c **** 
 617:Generated_Source\PSoC4/BLE_1.c **** /******************************************************************************
 618:Generated_Source\PSoC4/BLE_1.c **** * Function Name: CyBle_GapRemoveBondedDevice
 619:Generated_Source\PSoC4/BLE_1.c **** ***************************************************************************//**
 620:Generated_Source\PSoC4/BLE_1.c **** * 
 621:Generated_Source\PSoC4/BLE_1.c **** *  This function marks the device untrusted. It removes the bonding information
 622:Generated_Source\PSoC4/BLE_1.c **** *  of the device including CCCD values. This function removes device from the
 623:Generated_Source\PSoC4/BLE_1.c **** *  white list also when autopopulate white list with bonded devices option is
 624:Generated_Source\PSoC4/BLE_1.c **** *  enabled.
 625:Generated_Source\PSoC4/BLE_1.c **** * 
 626:Generated_Source\PSoC4/BLE_1.c **** *  This function is available only when Bonding requirement is selected in
 627:Generated_Source\PSoC4/BLE_1.c **** *  Security settings.    
 628:Generated_Source\PSoC4/BLE_1.c **** *
ARM GAS  C:\Users\Petro\AppData\Local\Temp\ccfEn9K1.s 			page 25


 629:Generated_Source\PSoC4/BLE_1.c **** *  \param bdAddr: Pointer to peer device address, of type CYBLE_GAP_BD_ADDR_T.
 630:Generated_Source\PSoC4/BLE_1.c **** *                 If device address is set to 0, then all devices shall be
 631:Generated_Source\PSoC4/BLE_1.c **** *                 removed from trusted list and white list.
 632:Generated_Source\PSoC4/BLE_1.c **** *
 633:Generated_Source\PSoC4/BLE_1.c **** * \return
 634:Generated_Source\PSoC4/BLE_1.c **** *  CYBLE_API_RESULT_T : Return value indicates if the function succeeded or
 635:Generated_Source\PSoC4/BLE_1.c **** *  failed. Following are the possible error codes.
 636:Generated_Source\PSoC4/BLE_1.c **** *
 637:Generated_Source\PSoC4/BLE_1.c **** *   Errors codes                     | Description
 638:Generated_Source\PSoC4/BLE_1.c **** *   ---------------------------------| ------------------------------------
 639:Generated_Source\PSoC4/BLE_1.c **** *   CYBLE_ERROR_OK                   | On successful operation.
 640:Generated_Source\PSoC4/BLE_1.c **** *   CYBLE_ERROR_INVALID_PARAMETER    | On specifying NULL as input parameter for 'bdAddr'.
 641:Generated_Source\PSoC4/BLE_1.c **** *   CYBLE_ERROR_INVALID_OPERATION    | Whitelist is already in use or there is pending write to fla
 642:Generated_Source\PSoC4/BLE_1.c **** *   CYBLE_ERROR_NO_DEVICE_ENTITY     | Device does not exist in the bond list.
 643:Generated_Source\PSoC4/BLE_1.c **** *
 644:Generated_Source\PSoC4/BLE_1.c **** *  \globalvars
 645:Generated_Source\PSoC4/BLE_1.c **** *   The bdHandle is set in cyBle_pendingFlashWrite variable to indicate that
 646:Generated_Source\PSoC4/BLE_1.c **** *   data should be stored to flash by CyBle_StoreBondingData afterwards. 
 647:Generated_Source\PSoC4/BLE_1.c **** *     
 648:Generated_Source\PSoC4/BLE_1.c **** ******************************************************************************/
 649:Generated_Source\PSoC4/BLE_1.c **** CYBLE_API_RESULT_T CyBle_GapRemoveBondedDevice(CYBLE_GAP_BD_ADDR_T* bdAddr)
 650:Generated_Source\PSoC4/BLE_1.c **** {
 733              		.loc 1 650 0
 734              		.cfi_startproc
 735 0000 90B5     		push	{r4, r7, lr}
 736              		.cfi_def_cfa_offset 12
 737              		.cfi_offset 4, -12
 738              		.cfi_offset 7, -8
 739              		.cfi_offset 14, -4
 740 0002 87B0     		sub	sp, sp, #28
 741              		.cfi_def_cfa_offset 40
 742 0004 00AF     		add	r7, sp, #0
 743              		.cfi_def_cfa_register 7
 744 0006 7860     		str	r0, [r7, #4]
 651:Generated_Source\PSoC4/BLE_1.c ****     CYBLE_API_RESULT_T apiResult = CYBLE_ERROR_OK;
 745              		.loc 1 651 0
 746 0008 1623     		mov	r3, #22
 747 000a FB18     		add	r3, r7, r3
 748 000c 0022     		mov	r2, #0
 749 000e 1A80     		strh	r2, [r3]
 652:Generated_Source\PSoC4/BLE_1.c ****     
 653:Generated_Source\PSoC4/BLE_1.c ****     if(cyBle_pendingFlashWrite == 0u)
 750              		.loc 1 653 0
 751 0010 334B     		ldr	r3, .L36
 752 0012 1B78     		ldrb	r3, [r3]
 753 0014 002B     		cmp	r3, #0
 754 0016 58D1     		bne	.L30
 755              	.LBB5:
 654:Generated_Source\PSoC4/BLE_1.c ****     {
 655:Generated_Source\PSoC4/BLE_1.c ****         
 656:Generated_Source\PSoC4/BLE_1.c ****     #if(CYBLE_GATT_DB_CCCD_COUNT != 0u)
 657:Generated_Source\PSoC4/BLE_1.c ****         /* Request to clear CCCD values which will be done by CyBle_StoreBondingData API */
 658:Generated_Source\PSoC4/BLE_1.c ****         uint8 bDevHandle;
 659:Generated_Source\PSoC4/BLE_1.c ****         CYBLE_GAP_BD_ADDR_T invalidBdAddr = {{0u,0u,0u,0u,0u,0u}, 0u};
 756              		.loc 1 659 0
 757 0018 0C23     		mov	r3, #12
 758 001a FB18     		add	r3, r7, r3
ARM GAS  C:\Users\Petro\AppData\Local\Temp\ccfEn9K1.s 			page 26


 759 001c 0022     		mov	r2, #0
 760 001e 1A70     		strb	r2, [r3]
 761 0020 0C23     		mov	r3, #12
 762 0022 FB18     		add	r3, r7, r3
 763 0024 0022     		mov	r2, #0
 764 0026 5A70     		strb	r2, [r3, #1]
 765 0028 0C23     		mov	r3, #12
 766 002a FB18     		add	r3, r7, r3
 767 002c 0022     		mov	r2, #0
 768 002e 9A70     		strb	r2, [r3, #2]
 769 0030 0C23     		mov	r3, #12
 770 0032 FB18     		add	r3, r7, r3
 771 0034 0022     		mov	r2, #0
 772 0036 DA70     		strb	r2, [r3, #3]
 773 0038 0C23     		mov	r3, #12
 774 003a FB18     		add	r3, r7, r3
 775 003c 0022     		mov	r2, #0
 776 003e 1A71     		strb	r2, [r3, #4]
 777 0040 0C23     		mov	r3, #12
 778 0042 FB18     		add	r3, r7, r3
 779 0044 0022     		mov	r2, #0
 780 0046 5A71     		strb	r2, [r3, #5]
 781 0048 0C23     		mov	r3, #12
 782 004a FB18     		add	r3, r7, r3
 783 004c 0022     		mov	r2, #0
 784 004e 9A71     		strb	r2, [r3, #6]
 660:Generated_Source\PSoC4/BLE_1.c **** 
 661:Generated_Source\PSoC4/BLE_1.c ****         if(memcmp(((uint8 *) &(bdAddr->bdAddr)), ((uint8 *) &(invalidBdAddr.bdAddr)), CYBLE_GAP_BD_
 785              		.loc 1 661 0
 786 0050 7A68     		ldr	r2, [r7, #4]
 787 0052 0C23     		mov	r3, #12
 788 0054 FB18     		add	r3, r7, r3
 789 0056 101C     		mov	r0, r2
 790 0058 191C     		mov	r1, r3
 791 005a 0622     		mov	r2, #6
 792 005c FFF7FEFF 		bl	memcmp
 793 0060 031E     		sub	r3, r0, #0
 794 0062 07D1     		bne	.L31
 662:Generated_Source\PSoC4/BLE_1.c **** 	    {
 663:Generated_Source\PSoC4/BLE_1.c ****             /* Request to remove all bonded devices by cyBle_StoreBondingData API */
 664:Generated_Source\PSoC4/BLE_1.c ****             cyBle_pendingFlashWrite |= CYBLE_PENDING_CCCD_FLASH_CLEAR_ALL_BIT;
 795              		.loc 1 664 0
 796 0064 1E4B     		ldr	r3, .L36
 797 0066 1B78     		ldrb	r3, [r3]
 798 0068 0822     		mov	r2, #8
 799 006a 1343     		orr	r3, r2
 800 006c DAB2     		uxtb	r2, r3
 801 006e 1C4B     		ldr	r3, .L36
 802 0070 1A70     		strb	r2, [r3]
 803 0072 1BE0     		b	.L32
 804              	.L31:
 665:Generated_Source\PSoC4/BLE_1.c ****         }
 666:Generated_Source\PSoC4/BLE_1.c ****         else
 667:Generated_Source\PSoC4/BLE_1.c ****         {
 668:Generated_Source\PSoC4/BLE_1.c ****             /* Get the BD handle from Address */
 669:Generated_Source\PSoC4/BLE_1.c ****             apiResult = CyBle_GapGetPeerBdHandle(&bDevHandle, bdAddr);
 805              		.loc 1 669 0
ARM GAS  C:\Users\Petro\AppData\Local\Temp\ccfEn9K1.s 			page 27


 806 0074 1623     		mov	r3, #22
 807 0076 FC18     		add	r4, r7, r3
 808 0078 1523     		mov	r3, #21
 809 007a FA18     		add	r2, r7, r3
 810 007c 7B68     		ldr	r3, [r7, #4]
 811 007e 101C     		mov	r0, r2
 812 0080 191C     		mov	r1, r3
 813 0082 FFF7FEFF 		bl	CyBle_GapGetPeerBdHandle
 814 0086 031C     		mov	r3, r0
 815 0088 2380     		strh	r3, [r4]
 670:Generated_Source\PSoC4/BLE_1.c ****             if(apiResult == CYBLE_ERROR_OK)
 816              		.loc 1 670 0
 817 008a 1623     		mov	r3, #22
 818 008c FB18     		add	r3, r7, r3
 819 008e 1B88     		ldrh	r3, [r3]
 820 0090 002B     		cmp	r3, #0
 821 0092 0BD1     		bne	.L32
 671:Generated_Source\PSoC4/BLE_1.c ****             {
 672:Generated_Source\PSoC4/BLE_1.c ****                 /* Store BD handle to clear cccd values by CyBle_StoreBondingData API */
 673:Generated_Source\PSoC4/BLE_1.c ****                 cyBle_pendingFlashWrite |= CYBLE_PENDING_CCCD_FLASH_CLEAR_BIT;
 822              		.loc 1 673 0
 823 0094 124B     		ldr	r3, .L36
 824 0096 1B78     		ldrb	r3, [r3]
 825 0098 0422     		mov	r2, #4
 826 009a 1343     		orr	r3, r2
 827 009c DAB2     		uxtb	r2, r3
 828 009e 104B     		ldr	r3, .L36
 829 00a0 1A70     		strb	r2, [r3]
 674:Generated_Source\PSoC4/BLE_1.c ****                 cyBle_pendingFlashClearCccdHandle = bDevHandle;
 830              		.loc 1 674 0
 831 00a2 1523     		mov	r3, #21
 832 00a4 FB18     		add	r3, r7, r3
 833 00a6 1A78     		ldrb	r2, [r3]
 834 00a8 0E4B     		ldr	r3, .L36+4
 835 00aa 1A70     		strb	r2, [r3]
 836              	.L32:
 675:Generated_Source\PSoC4/BLE_1.c ****             }
 676:Generated_Source\PSoC4/BLE_1.c ****         }
 677:Generated_Source\PSoC4/BLE_1.c ****     #endif /* CYBLE_GATT_DB_CCCD_COUNT != 0u */
 678:Generated_Source\PSoC4/BLE_1.c ****         if(apiResult == CYBLE_ERROR_OK)
 837              		.loc 1 678 0
 838 00ac 1623     		mov	r3, #22
 839 00ae FB18     		add	r3, r7, r3
 840 00b0 1B88     		ldrh	r3, [r3]
 841 00b2 002B     		cmp	r3, #0
 842 00b4 08D1     		bne	.L33
 679:Generated_Source\PSoC4/BLE_1.c ****         {
 680:Generated_Source\PSoC4/BLE_1.c ****             #if(CYBLE_AUTO_POPULATE_WHITELIST != 0u)
 681:Generated_Source\PSoC4/BLE_1.c ****                 apiResult = CyBle_GapRemoveDeviceFromWhiteList(bdAddr);
 843              		.loc 1 681 0
 844 00b6 1623     		mov	r3, #22
 845 00b8 FC18     		add	r4, r7, r3
 846 00ba 7B68     		ldr	r3, [r7, #4]
 847 00bc 181C     		mov	r0, r3
 848 00be FFF7FEFF 		bl	CyBle_GapRemoveDeviceFromWhiteList
 849 00c2 031C     		mov	r3, r0
 850 00c4 2380     		strh	r3, [r4]
ARM GAS  C:\Users\Petro\AppData\Local\Temp\ccfEn9K1.s 			page 28


 851              	.LBE5:
 852 00c6 04E0     		b	.L34
 853              	.L33:
 854 00c8 03E0     		b	.L34
 855              	.L30:
 682:Generated_Source\PSoC4/BLE_1.c ****             #else
 683:Generated_Source\PSoC4/BLE_1.c ****                 apiResult = CyBle_GapRemDeviceFromBondList(bdAddr);
 684:Generated_Source\PSoC4/BLE_1.c ****             #endif
 685:Generated_Source\PSoC4/BLE_1.c ****         }
 686:Generated_Source\PSoC4/BLE_1.c ****     }
 687:Generated_Source\PSoC4/BLE_1.c ****     else
 688:Generated_Source\PSoC4/BLE_1.c ****     {
 689:Generated_Source\PSoC4/BLE_1.c ****         apiResult = CYBLE_ERROR_INVALID_OPERATION;
 856              		.loc 1 689 0
 857 00ca 1623     		mov	r3, #22
 858 00cc FB18     		add	r3, r7, r3
 859 00ce 0222     		mov	r2, #2
 860 00d0 1A80     		strh	r2, [r3]
 861              	.L34:
 690:Generated_Source\PSoC4/BLE_1.c ****     }
 691:Generated_Source\PSoC4/BLE_1.c ****     
 692:Generated_Source\PSoC4/BLE_1.c ****     return(apiResult);
 862              		.loc 1 692 0
 863 00d2 1623     		mov	r3, #22
 864 00d4 FB18     		add	r3, r7, r3
 865 00d6 1B88     		ldrh	r3, [r3]
 693:Generated_Source\PSoC4/BLE_1.c **** }
 866              		.loc 1 693 0
 867 00d8 181C     		mov	r0, r3
 868 00da BD46     		mov	sp, r7
 869 00dc 07B0     		add	sp, sp, #28
 870              		@ sp needed
 871 00de 90BD     		pop	{r4, r7, pc}
 872              	.L37:
 873              		.align	2
 874              	.L36:
 875 00e0 00000000 		.word	cyBle_pendingFlashWrite
 876 00e4 01000000 		.word	cyBle_pendingFlashClearCccdHandle
 877              		.cfi_endproc
 878              	.LFE7:
 879              		.size	CyBle_GapRemoveBondedDevice, .-CyBle_GapRemoveBondedDevice
 880              		.section	.text.CyBle_GapcStartScan,"ax",%progbits
 881              		.align	2
 882              		.global	CyBle_GapcStartScan
 883              		.code	16
 884              		.thumb_func
 885              		.type	CyBle_GapcStartScan, %function
 886              	CyBle_GapcStartScan:
 887              	.LFB8:
 694:Generated_Source\PSoC4/BLE_1.c **** 
 695:Generated_Source\PSoC4/BLE_1.c **** 
 696:Generated_Source\PSoC4/BLE_1.c **** #endif /* (CYBLE_GAP_ROLE_PERIPHERAL || CYBLE_GAP_ROLE_CENTRAL) && (CYBLE_BONDING_REQUIREMENT == CY
 697:Generated_Source\PSoC4/BLE_1.c **** 
 698:Generated_Source\PSoC4/BLE_1.c **** 
 699:Generated_Source\PSoC4/BLE_1.c **** #if(CYBLE_GAP_ROLE_PERIPHERAL || CYBLE_GAP_ROLE_BROADCASTER)
 700:Generated_Source\PSoC4/BLE_1.c **** 
 701:Generated_Source\PSoC4/BLE_1.c ****     /******************************************************************************
ARM GAS  C:\Users\Petro\AppData\Local\Temp\ccfEn9K1.s 			page 29


 702:Generated_Source\PSoC4/BLE_1.c ****     *  Function Name: CyBle_GappStartAdvertisement
 703:Generated_Source\PSoC4/BLE_1.c ****     ***************************************************************************//**
 704:Generated_Source\PSoC4/BLE_1.c ****     *     
 705:Generated_Source\PSoC4/BLE_1.c ****     *  This function is used to start the advertisement using the advertisement data 
 706:Generated_Source\PSoC4/BLE_1.c ****     *  set in the component customizer's GUI. After invoking this API, the device 
 707:Generated_Source\PSoC4/BLE_1.c ****     *  will be available for connection by the devices configured for GAP central 
 708:Generated_Source\PSoC4/BLE_1.c ****     *  role. It is only included if the device is configured for GAP Peripheral or 
 709:Generated_Source\PSoC4/BLE_1.c ****     *  GAP Peripheral + Central role.
 710:Generated_Source\PSoC4/BLE_1.c ****     *  
 711:Generated_Source\PSoC4/BLE_1.c ****     *  On start of advertisement, GAP Peripheral receives the
 712:Generated_Source\PSoC4/BLE_1.c ****     *  CYBLE_EVT_GAPP_ADVERTISEMENT_START_STOP event. The following events are 
 713:Generated_Source\PSoC4/BLE_1.c ****     *  possible on invoking this function:
 714:Generated_Source\PSoC4/BLE_1.c ****     *  
 715:Generated_Source\PSoC4/BLE_1.c ****     *  * CYBLE_EVT_GAP_DEVICE_CONNECTED - If the device connects to a GAP Central and 
 716:Generated_Source\PSoC4/BLE_1.c ****     *    Link Layer Privacy is disabled in component customizer.
 717:Generated_Source\PSoC4/BLE_1.c ****     *  * CYBLE_EVT_GAP_ENHANCE_CONN_COMPLETE - If the device connects to a GAP Central and 
 718:Generated_Source\PSoC4/BLE_1.c ****     *    Link Layer Privacy is enabled in component customizer.
 719:Generated_Source\PSoC4/BLE_1.c ****     *  * CYBLE_EVT_TIMEOUT: If no device in GAP Central mode connects to this 
 720:Generated_Source\PSoC4/BLE_1.c ****     *                       device within the specified timeout limit. Stack 
 721:Generated_Source\PSoC4/BLE_1.c ****     *                       automatically initiate stop advertising when Slow 
 722:Generated_Source\PSoC4/BLE_1.c ****     *                       advertising was initiated, or starts Slow advertising
 723:Generated_Source\PSoC4/BLE_1.c ****     *                       after Fast advertising timeout occur.
 724:Generated_Source\PSoC4/BLE_1.c ****     *  * CYBLE_EVT_GAPP_ADVERTISEMENT_START_STOP: If device started or stopped
 725:Generated_Source\PSoC4/BLE_1.c ****     *                                               advertising. Use CyBle_GetState()
 726:Generated_Source\PSoC4/BLE_1.c ****     *                                               to determine the state. Sequential 
 727:Generated_Source\PSoC4/BLE_1.c ****     *                                               advertising could be started when
 728:Generated_Source\PSoC4/BLE_1.c ****     *                                               CYBLE_STATE_DISCONNECTED state is
 729:Generated_Source\PSoC4/BLE_1.c ****     *                                               returned.
 730:Generated_Source\PSoC4/BLE_1.c ****     * 
 731:Generated_Source\PSoC4/BLE_1.c ****     *  \param advertisingIntervalType: Fast or slow advertising interval with timings
 732:Generated_Source\PSoC4/BLE_1.c ****     *                                 entered in Advertising settings section of the
 733:Generated_Source\PSoC4/BLE_1.c ****     *                                 customizer.
 734:Generated_Source\PSoC4/BLE_1.c ****     *  * CYBLE_ADVERTISING_FAST   0x00u
 735:Generated_Source\PSoC4/BLE_1.c ****     *  * CYBLE_ADVERTISING_SLOW   0x01u
 736:Generated_Source\PSoC4/BLE_1.c ****     *  * CYBLE_ADVERTISING_CUSTOM 0x02u
 737:Generated_Source\PSoC4/BLE_1.c ****     * 
 738:Generated_Source\PSoC4/BLE_1.c ****     * \return
 739:Generated_Source\PSoC4/BLE_1.c ****     *  CYBLE_API_RESULT_T : Return value indicates if the function succeeded or
 740:Generated_Source\PSoC4/BLE_1.c ****     *  failed. Following are the possible error codes.
 741:Generated_Source\PSoC4/BLE_1.c ****     * 
 742:Generated_Source\PSoC4/BLE_1.c ****     *   Errors codes                      |  Description
 743:Generated_Source\PSoC4/BLE_1.c ****     *   --------------------------------- |  --------------------------------
 744:Generated_Source\PSoC4/BLE_1.c ****     *   CYBLE_ERROR_OK                    |  On successful operation.
 745:Generated_Source\PSoC4/BLE_1.c ****     *   CYBLE_ERROR_INVALID_PARAMETER     |  On passing an invalid parameter.
 746:Generated_Source\PSoC4/BLE_1.c ****     *   CYBLE_ERROR_INVALID_STATE         |  On calling this API not in Disconnected state.
 747:Generated_Source\PSoC4/BLE_1.c ****     *
 748:Generated_Source\PSoC4/BLE_1.c ****     * 
 749:Generated_Source\PSoC4/BLE_1.c ****     *******************************************************************************/
 750:Generated_Source\PSoC4/BLE_1.c ****     CYBLE_API_RESULT_T CyBle_GappStartAdvertisement(uint8 advertisingIntervalType)
 751:Generated_Source\PSoC4/BLE_1.c ****     {
 752:Generated_Source\PSoC4/BLE_1.c ****         CYBLE_API_RESULT_T apiResult;
 753:Generated_Source\PSoC4/BLE_1.c ****         
 754:Generated_Source\PSoC4/BLE_1.c ****         if(advertisingIntervalType > CYBLE_ADVERTISING_CUSTOM)
 755:Generated_Source\PSoC4/BLE_1.c ****         {
 756:Generated_Source\PSoC4/BLE_1.c ****             apiResult = CYBLE_ERROR_INVALID_PARAMETER;
 757:Generated_Source\PSoC4/BLE_1.c ****         }
 758:Generated_Source\PSoC4/BLE_1.c ****         else if((CYBLE_STATE_DISCONNECTED == CyBle_GetState()) && ((cyBle_eventHandlerFlag & CYBLE_
ARM GAS  C:\Users\Petro\AppData\Local\Temp\ccfEn9K1.s 			page 30


 759:Generated_Source\PSoC4/BLE_1.c ****         {   
 760:Generated_Source\PSoC4/BLE_1.c ****             if(advertisingIntervalType == CYBLE_ADVERTISING_FAST)
 761:Generated_Source\PSoC4/BLE_1.c ****             {
 762:Generated_Source\PSoC4/BLE_1.c ****                 cyBle_discoveryModeInfo.advTo = CYBLE_FAST_ADV_TIMEOUT;
 763:Generated_Source\PSoC4/BLE_1.c ****                 cyBle_discoveryModeInfo.advParam->advIntvMin = CYBLE_FAST_ADV_INT_MIN;
 764:Generated_Source\PSoC4/BLE_1.c ****                 cyBle_discoveryModeInfo.advParam->advIntvMax = CYBLE_FAST_ADV_INT_MAX;
 765:Generated_Source\PSoC4/BLE_1.c ****             }
 766:Generated_Source\PSoC4/BLE_1.c ****             else if(advertisingIntervalType == CYBLE_ADVERTISING_SLOW)
 767:Generated_Source\PSoC4/BLE_1.c ****             {
 768:Generated_Source\PSoC4/BLE_1.c ****                 cyBle_discoveryModeInfo.advTo = CYBLE_SLOW_ADV_TIMEOUT;
 769:Generated_Source\PSoC4/BLE_1.c ****                 cyBle_discoveryModeInfo.advParam->advIntvMin = CYBLE_SLOW_ADV_INT_MIN;
 770:Generated_Source\PSoC4/BLE_1.c ****                 cyBle_discoveryModeInfo.advParam->advIntvMax = CYBLE_SLOW_ADV_INT_MAX;
 771:Generated_Source\PSoC4/BLE_1.c ****             }       
 772:Generated_Source\PSoC4/BLE_1.c ****             else /* Do not update advertising intervals */
 773:Generated_Source\PSoC4/BLE_1.c ****             {
 774:Generated_Source\PSoC4/BLE_1.c ****             }
 775:Generated_Source\PSoC4/BLE_1.c ****             cyBle_advertisingIntervalType = advertisingIntervalType;
 776:Generated_Source\PSoC4/BLE_1.c ****             apiResult = CyBle_GappEnterDiscoveryMode(&cyBle_discoveryModeInfo);
 777:Generated_Source\PSoC4/BLE_1.c ****         
 778:Generated_Source\PSoC4/BLE_1.c ****             if(apiResult == CYBLE_ERROR_OK)
 779:Generated_Source\PSoC4/BLE_1.c ****             {
 780:Generated_Source\PSoC4/BLE_1.c ****                 cyBle_eventHandlerFlag |= CYBLE_START_FLAG;
 781:Generated_Source\PSoC4/BLE_1.c ****             }
 782:Generated_Source\PSoC4/BLE_1.c ****         }
 783:Generated_Source\PSoC4/BLE_1.c ****         else
 784:Generated_Source\PSoC4/BLE_1.c ****         {
 785:Generated_Source\PSoC4/BLE_1.c ****             apiResult = CYBLE_ERROR_INVALID_STATE;
 786:Generated_Source\PSoC4/BLE_1.c ****         }
 787:Generated_Source\PSoC4/BLE_1.c **** 
 788:Generated_Source\PSoC4/BLE_1.c ****         return (apiResult);
 789:Generated_Source\PSoC4/BLE_1.c ****     }
 790:Generated_Source\PSoC4/BLE_1.c **** 
 791:Generated_Source\PSoC4/BLE_1.c ****     
 792:Generated_Source\PSoC4/BLE_1.c ****     /******************************************************************************
 793:Generated_Source\PSoC4/BLE_1.c ****     * Function Name: CyBle_GappStopAdvertisement
 794:Generated_Source\PSoC4/BLE_1.c ****     ***************************************************************************//**
 795:Generated_Source\PSoC4/BLE_1.c ****     * 
 796:Generated_Source\PSoC4/BLE_1.c ****     *   This function can be used to exit from discovery mode. After the execution 
 797:Generated_Source\PSoC4/BLE_1.c ****     *   of this function, there will no longer be any advertisements. On stopping 
 798:Generated_Source\PSoC4/BLE_1.c ****     *   advertising, GAP Peripheral receives CYBLE_EVT_GAPP_ADVERTISEMENT_START_STOP
 799:Generated_Source\PSoC4/BLE_1.c ****     *   event. It is expected that the application layer tracks the function call 
 800:Generated_Source\PSoC4/BLE_1.c ****     *   performed before occurrence of this event as this event can occur on making 
 801:Generated_Source\PSoC4/BLE_1.c ****     *   a call to Cy_BleGappStartAdvertisement(), CyBle_GappEnterDiscoveryMode(), 
 802:Generated_Source\PSoC4/BLE_1.c ****     *   or CyBle_GappStartAdvertisement() functions as well.
 803:Generated_Source\PSoC4/BLE_1.c ****     *   
 804:Generated_Source\PSoC4/BLE_1.c ****     *   The following event occurs on invoking this function:
 805:Generated_Source\PSoC4/BLE_1.c ****     *   * CYBLE_EVT_GAPP_ADVERTISEMENT_START_STOP
 806:Generated_Source\PSoC4/BLE_1.c ****     * 
 807:Generated_Source\PSoC4/BLE_1.c ****     *  \return
 808:Generated_Source\PSoC4/BLE_1.c ****     *   None
 809:Generated_Source\PSoC4/BLE_1.c ****     * 
 810:Generated_Source\PSoC4/BLE_1.c ****     *******************************************************************************/
 811:Generated_Source\PSoC4/BLE_1.c ****     void CyBle_GappStopAdvertisement(void)
 812:Generated_Source\PSoC4/BLE_1.c ****     {
 813:Generated_Source\PSoC4/BLE_1.c ****         CyBle_GappExitDiscoveryMode();
 814:Generated_Source\PSoC4/BLE_1.c ****         cyBle_eventHandlerFlag |= CYBLE_STOP_FLAG;
 815:Generated_Source\PSoC4/BLE_1.c ****     }
ARM GAS  C:\Users\Petro\AppData\Local\Temp\ccfEn9K1.s 			page 31


 816:Generated_Source\PSoC4/BLE_1.c ****     
 817:Generated_Source\PSoC4/BLE_1.c ****     
 818:Generated_Source\PSoC4/BLE_1.c ****     /******************************************************************************
 819:Generated_Source\PSoC4/BLE_1.c ****     * Function Name: CyBle_ChangeAdDeviceAddress
 820:Generated_Source\PSoC4/BLE_1.c ****     ***************************************************************************//**
 821:Generated_Source\PSoC4/BLE_1.c ****     * 
 822:Generated_Source\PSoC4/BLE_1.c ****     *  This API is used to set the Bluetooth device address into the advertisement 
 823:Generated_Source\PSoC4/BLE_1.c ****     *  or scan response data structure.
 824:Generated_Source\PSoC4/BLE_1.c ****     * 
 825:Generated_Source\PSoC4/BLE_1.c ****     *  \param bdAddr: Bluetooth Device address. The variable is of type CYBLE_GAP_BD_ADDR_T
 826:Generated_Source\PSoC4/BLE_1.c ****     *  \param dest: 0 - selects advertisement structure, not zero value selects scan 
 827:Generated_Source\PSoC4/BLE_1.c ****     *               response structure.
 828:Generated_Source\PSoC4/BLE_1.c ****     * 
 829:Generated_Source\PSoC4/BLE_1.c ****     * \return
 830:Generated_Source\PSoC4/BLE_1.c ****     *  None
 831:Generated_Source\PSoC4/BLE_1.c ****     *  
 832:Generated_Source\PSoC4/BLE_1.c ****     *******************************************************************************/
 833:Generated_Source\PSoC4/BLE_1.c ****     void CyBle_ChangeAdDeviceAddress(const CYBLE_GAP_BD_ADDR_T* bdAddr, uint8 dest)
 834:Generated_Source\PSoC4/BLE_1.c ****     {
 835:Generated_Source\PSoC4/BLE_1.c ****         uint8 i;
 836:Generated_Source\PSoC4/BLE_1.c ****         uint8 *destBuffer = NULL;
 837:Generated_Source\PSoC4/BLE_1.c ****         
 838:Generated_Source\PSoC4/BLE_1.c ****         if(dest == 0u)      /* Destination - advertising structure */
 839:Generated_Source\PSoC4/BLE_1.c ****         {
 840:Generated_Source\PSoC4/BLE_1.c ****             #ifdef CYBLE_ADV_PKT_INDEX_BLUETOOTH_DEVICE_ADDRESS
 841:Generated_Source\PSoC4/BLE_1.c ****                 destBuffer = &cyBle_discoveryData.advData[CYBLE_ADV_PKT_INDEX_BLUETOOTH_DEVICE_ADDR
 842:Generated_Source\PSoC4/BLE_1.c ****             #endif /* CYBLE_ADV_PKT_INDEX_BLUETOOTH_DEVICE_ADDRESS */
 843:Generated_Source\PSoC4/BLE_1.c ****         }
 844:Generated_Source\PSoC4/BLE_1.c ****         else                /* Destination - scan response structure */
 845:Generated_Source\PSoC4/BLE_1.c ****         {
 846:Generated_Source\PSoC4/BLE_1.c ****             #ifdef CYBLE_SCN_PKT_INDEX_BLUETOOTH_DEVICE_ADDRESS
 847:Generated_Source\PSoC4/BLE_1.c ****                 destBuffer = &cyBle_scanRspData.scanRspData[CYBLE_SCN_PKT_INDEX_BLUETOOTH_DEVICE_AD
 848:Generated_Source\PSoC4/BLE_1.c ****             #endif /* CYBLE_SCN_PKT_INDEX_BLUETOOTH_DEVICE_ADDRESS */    
 849:Generated_Source\PSoC4/BLE_1.c ****         }
 850:Generated_Source\PSoC4/BLE_1.c ****         
 851:Generated_Source\PSoC4/BLE_1.c ****         if(destBuffer != NULL)
 852:Generated_Source\PSoC4/BLE_1.c ****         {
 853:Generated_Source\PSoC4/BLE_1.c ****             /* Update Device Address type */
 854:Generated_Source\PSoC4/BLE_1.c ****             destBuffer[0u] = bdAddr->type;
 855:Generated_Source\PSoC4/BLE_1.c ****             
 856:Generated_Source\PSoC4/BLE_1.c ****             for(i = 0u; i < CYBLE_GAP_BD_ADDR_SIZE; i++)
 857:Generated_Source\PSoC4/BLE_1.c ****             {
 858:Generated_Source\PSoC4/BLE_1.c ****                 destBuffer[i + 1u] = bdAddr->bdAddr[i];
 859:Generated_Source\PSoC4/BLE_1.c ****             }
 860:Generated_Source\PSoC4/BLE_1.c ****         }
 861:Generated_Source\PSoC4/BLE_1.c ****     }
 862:Generated_Source\PSoC4/BLE_1.c ****   
 863:Generated_Source\PSoC4/BLE_1.c **** #endif /* CYBLE_GAP_ROLE_PERIPHERAL || CYBLE_GAP_ROLE_BROADCASTER */
 864:Generated_Source\PSoC4/BLE_1.c **** 
 865:Generated_Source\PSoC4/BLE_1.c **** 
 866:Generated_Source\PSoC4/BLE_1.c **** #if(CYBLE_GAP_ROLE_CENTRAL || CYBLE_GAP_ROLE_OBSERVER)
 867:Generated_Source\PSoC4/BLE_1.c **** 
 868:Generated_Source\PSoC4/BLE_1.c ****     /******************************************************************************
 869:Generated_Source\PSoC4/BLE_1.c ****     * Function Name: CyBle_GapcStartScan
 870:Generated_Source\PSoC4/BLE_1.c ****     ***************************************************************************//**
 871:Generated_Source\PSoC4/BLE_1.c ****     * 
 872:Generated_Source\PSoC4/BLE_1.c ****     *   This function is used for discovering GAP peripheral devices that are 
ARM GAS  C:\Users\Petro\AppData\Local\Temp\ccfEn9K1.s 			page 32


 873:Generated_Source\PSoC4/BLE_1.c ****     *   available for connection. It performs the scanning routine using the 
 874:Generated_Source\PSoC4/BLE_1.c ****     *   parameters entered in the component's customizer.
 875:Generated_Source\PSoC4/BLE_1.c ****     *   
 876:Generated_Source\PSoC4/BLE_1.c ****     *   As soon as the discovery operation starts, CYBLE_EVT_GAPC_SCAN_START_STOP 
 877:Generated_Source\PSoC4/BLE_1.c ****     *   event is generated. The CYBLE_EVT_GAPC_SCAN_PROGRESS_RESULT event is 
 878:Generated_Source\PSoC4/BLE_1.c ****     *   generated when a GAP peripheral device is located. There are three discovery
 879:Generated_Source\PSoC4/BLE_1.c ****     *   procedures can be selected in the customizer's GUI:
 880:Generated_Source\PSoC4/BLE_1.c ****     *   
 881:Generated_Source\PSoC4/BLE_1.c ****     *   * Observation procedure: A device performing the observer role receives only
 882:Generated_Source\PSoC4/BLE_1.c ****     *                            advertisement data from devices irrespective of 
 883:Generated_Source\PSoC4/BLE_1.c ****     *                            their discoverable mode settings. Advertisement 
 884:Generated_Source\PSoC4/BLE_1.c ****     *                            data received is provided by the event,      
 885:Generated_Source\PSoC4/BLE_1.c ****     *                            CYBLE_EVT_GAPC_SCAN_PROGRESS_RESULT. This procedure
 886:Generated_Source\PSoC4/BLE_1.c ****     *                            requires the scanType sub parameter to be passive
 887:Generated_Source\PSoC4/BLE_1.c ****     *                            scanning. 
 888:Generated_Source\PSoC4/BLE_1.c ****     *   
 889:Generated_Source\PSoC4/BLE_1.c ****     *   * Limited Discovery procedure: A device performing the limited discovery
 890:Generated_Source\PSoC4/BLE_1.c ****     *                                  procedure receives advertisement data and 
 891:Generated_Source\PSoC4/BLE_1.c ****     *                                  scan# response data from devices in the 
 892:Generated_Source\PSoC4/BLE_1.c ****     *                                  limited discoverable mode only. Received data
 893:Generated_Source\PSoC4/BLE_1.c ****     *                                  is provided by the event, 
 894:Generated_Source\PSoC4/BLE_1.c ****     *                                  CYBLE_EVT_GAPC_SCAN_PROGRESS_RESULT. This 
 895:Generated_Source\PSoC4/BLE_1.c ****     *                                  procedure requires the scanType sub-parameter 
 896:Generated_Source\PSoC4/BLE_1.c ****     *                                  to be active scanning.
 897:Generated_Source\PSoC4/BLE_1.c ****     *   
 898:Generated_Source\PSoC4/BLE_1.c ****     *   * General Discovery procedure: A device performing the general discovery 
 899:Generated_Source\PSoC4/BLE_1.c ****     *                                  procedure receives the advertisement data and
 900:Generated_Source\PSoC4/BLE_1.c ****     *                                  scan response data from devices in both 
 901:Generated_Source\PSoC4/BLE_1.c ****     *                                  limited discoverable mode and the general 
 902:Generated_Source\PSoC4/BLE_1.c ****     *                                  discoverable mode. Received data is provided
 903:Generated_Source\PSoC4/BLE_1.c ****     *                                  by the event,
 904:Generated_Source\PSoC4/BLE_1.c ****     *                                  CYBLE_EVT_GAPC_SCAN_PROGRESS_RESULT. This 
 905:Generated_Source\PSoC4/BLE_1.c ****     *                                  procedure requires the scanType sub-parameter
 906:Generated_Source\PSoC4/BLE_1.c ****     *                                  to be active scanning.
 907:Generated_Source\PSoC4/BLE_1.c ****     *   
 908:Generated_Source\PSoC4/BLE_1.c ****     *   Every Advertisement / Scan response packet received results in a new event, 
 909:Generated_Source\PSoC4/BLE_1.c ****     *   CYBLE_EVT_GAPC_SCAN_PROGRESS_RESULT.
 910:Generated_Source\PSoC4/BLE_1.c ****     *   If 'scanTo' sub-parameter is a non-zero value, then upon commencement of 
 911:Generated_Source\PSoC4/BLE_1.c ****     *   discovery procedure and elapsed time = 'scanTo', CYBLE_EVT_TIMEOUT event
 912:Generated_Source\PSoC4/BLE_1.c ****     *   is generated with the event parameter indicating CYBLE_GAP_SCAN_TO.
 913:Generated_Source\PSoC4/BLE_1.c ****     *   Possible generated events are:
 914:Generated_Source\PSoC4/BLE_1.c ****     *   * CYBLE_EVT_GAPC_SCAN_START_STOP: If a device started or stopped scanning. 
 915:Generated_Source\PSoC4/BLE_1.c ****     *                                     Use CyBle_GetState() to determine the 
 916:Generated_Source\PSoC4/BLE_1.c ****     *                                     state. Sequential scanning could be 
 917:Generated_Source\PSoC4/BLE_1.c ****     *                                     started when CYBLE_STATE_DISCONNECTED 
 918:Generated_Source\PSoC4/BLE_1.c ****     *                                     state is returned. 
 919:Generated_Source\PSoC4/BLE_1.c ****     *   * CYBLE_EVT_GAPC_SCAN_PROGRESS_RESULT 
 920:Generated_Source\PSoC4/BLE_1.c ****     *   * CYBLE_EVT_TIMEOUT (CYBLE_GAP_SCAN_TO)
 921:Generated_Source\PSoC4/BLE_1.c ****     * 
 922:Generated_Source\PSoC4/BLE_1.c ****     *   \param scanningIntervalType:  Fast or slow scanning interval with
 923:Generated_Source\PSoC4/BLE_1.c ****     *       timings entered in Scan settings section of the customizer.
 924:Generated_Source\PSoC4/BLE_1.c ****     * 	  * CYBLE_SCANNING_FAST   0x00u
 925:Generated_Source\PSoC4/BLE_1.c ****     * 	  * CYBLE_SCANNING_SLOW   0x01u
 926:Generated_Source\PSoC4/BLE_1.c ****     * 	  * CYBLE_SCANNING_CUSTOM 0x02u
 927:Generated_Source\PSoC4/BLE_1.c ****     * 
 928:Generated_Source\PSoC4/BLE_1.c ****     * \return
 929:Generated_Source\PSoC4/BLE_1.c ****     *  CYBLE_API_RESULT_T : Return value indicates if the function succeeded or
ARM GAS  C:\Users\Petro\AppData\Local\Temp\ccfEn9K1.s 			page 33


 930:Generated_Source\PSoC4/BLE_1.c ****     *  failed. Following are the possible error codes.
 931:Generated_Source\PSoC4/BLE_1.c ****     *
 932:Generated_Source\PSoC4/BLE_1.c ****     *   Errors codes                       | Description
 933:Generated_Source\PSoC4/BLE_1.c ****     *   ---------------------------------- | -----------------------------------
 934:Generated_Source\PSoC4/BLE_1.c ****     *   CYBLE_ERROR_OK                     | On successful operation.
 935:Generated_Source\PSoC4/BLE_1.c ****     *   CYBLE_ERROR_STACK_INTERNAL         | An error occurred in the BLE stack.
 936:Generated_Source\PSoC4/BLE_1.c ****     *   CYBLE_ERROR_INVALID_PARAMETER      | On passing an invalid parameter.
 937:Generated_Source\PSoC4/BLE_1.c ****     *  
 938:Generated_Source\PSoC4/BLE_1.c ****     *******************************************************************************/
 939:Generated_Source\PSoC4/BLE_1.c ****     CYBLE_API_RESULT_T CyBle_GapcStartScan(uint8 scanningIntervalType)
 940:Generated_Source\PSoC4/BLE_1.c ****     {
 888              		.loc 1 940 0
 889              		.cfi_startproc
 890 0000 90B5     		push	{r4, r7, lr}
 891              		.cfi_def_cfa_offset 12
 892              		.cfi_offset 4, -12
 893              		.cfi_offset 7, -8
 894              		.cfi_offset 14, -4
 895 0002 85B0     		sub	sp, sp, #20
 896              		.cfi_def_cfa_offset 32
 897 0004 00AF     		add	r7, sp, #0
 898              		.cfi_def_cfa_register 7
 899 0006 021C     		mov	r2, r0
 900 0008 FB1D     		add	r3, r7, #7
 901 000a 1A70     		strb	r2, [r3]
 941:Generated_Source\PSoC4/BLE_1.c ****         CYBLE_API_RESULT_T apiResult;
 942:Generated_Source\PSoC4/BLE_1.c **** 
 943:Generated_Source\PSoC4/BLE_1.c ****         if(scanningIntervalType > CYBLE_SCANNING_CUSTOM)
 902              		.loc 1 943 0
 903 000c FB1D     		add	r3, r7, #7
 904 000e 1B78     		ldrb	r3, [r3]
 905 0010 022B     		cmp	r3, #2
 906 0012 04D9     		bls	.L39
 944:Generated_Source\PSoC4/BLE_1.c ****         {
 945:Generated_Source\PSoC4/BLE_1.c ****             apiResult = CYBLE_ERROR_INVALID_PARAMETER;
 907              		.loc 1 945 0
 908 0014 0E23     		mov	r3, #14
 909 0016 FB18     		add	r3, r7, r3
 910 0018 0122     		mov	r2, #1
 911 001a 1A80     		strh	r2, [r3]
 912 001c 35E0     		b	.L40
 913              	.L39:
 946:Generated_Source\PSoC4/BLE_1.c ****         }
 947:Generated_Source\PSoC4/BLE_1.c ****         else
 948:Generated_Source\PSoC4/BLE_1.c ****         {
 949:Generated_Source\PSoC4/BLE_1.c ****             if(scanningIntervalType == CYBLE_SCANNING_FAST)
 914              		.loc 1 949 0
 915 001e FB1D     		add	r3, r7, #7
 916 0020 1B78     		ldrb	r3, [r3]
 917 0022 002B     		cmp	r3, #0
 918 0024 09D1     		bne	.L41
 950:Generated_Source\PSoC4/BLE_1.c ****             {
 951:Generated_Source\PSoC4/BLE_1.c ****                 cyBle_discoveryInfo.scanTo = CYBLE_FAST_SCAN_TIMEOUT;
 919              		.loc 1 951 0
 920 0026 1C4B     		ldr	r3, .L44
 921 0028 1E22     		mov	r2, #30
 922 002a 1A81     		strh	r2, [r3, #8]
ARM GAS  C:\Users\Petro\AppData\Local\Temp\ccfEn9K1.s 			page 34


 952:Generated_Source\PSoC4/BLE_1.c ****                 cyBle_discoveryInfo.scanIntv = CYBLE_FAST_SCAN_INTERVAL;
 923              		.loc 1 952 0
 924 002c 1A4B     		ldr	r3, .L44
 925 002e 3022     		mov	r2, #48
 926 0030 5A80     		strh	r2, [r3, #2]
 953:Generated_Source\PSoC4/BLE_1.c ****                 cyBle_discoveryInfo.scanWindow = CYBLE_FAST_SCAN_WINDOW;
 927              		.loc 1 953 0
 928 0032 194B     		ldr	r3, .L44
 929 0034 3022     		mov	r2, #48
 930 0036 9A80     		strh	r2, [r3, #4]
 931 0038 0EE0     		b	.L42
 932              	.L41:
 954:Generated_Source\PSoC4/BLE_1.c ****             }
 955:Generated_Source\PSoC4/BLE_1.c ****             else if(scanningIntervalType == CYBLE_SCANNING_SLOW)
 933              		.loc 1 955 0
 934 003a FB1D     		add	r3, r7, #7
 935 003c 1B78     		ldrb	r3, [r3]
 936 003e 012B     		cmp	r3, #1
 937 0040 0AD1     		bne	.L42
 956:Generated_Source\PSoC4/BLE_1.c ****             {
 957:Generated_Source\PSoC4/BLE_1.c ****                 cyBle_discoveryInfo.scanTo = CYBLE_SLOW_SCAN_TIMEOUT;
 938              		.loc 1 957 0
 939 0042 154B     		ldr	r3, .L44
 940 0044 9622     		mov	r2, #150
 941 0046 1A81     		strh	r2, [r3, #8]
 958:Generated_Source\PSoC4/BLE_1.c ****                 cyBle_discoveryInfo.scanIntv = CYBLE_SLOW_SCAN_INTERVAL;
 942              		.loc 1 958 0
 943 0048 134B     		ldr	r3, .L44
 944 004a 8022     		mov	r2, #128
 945 004c 1201     		lsl	r2, r2, #4
 946 004e 5A80     		strh	r2, [r3, #2]
 959:Generated_Source\PSoC4/BLE_1.c ****                 cyBle_discoveryInfo.scanWindow = CYBLE_SLOW_SCAN_WINDOW;
 947              		.loc 1 959 0
 948 0050 114B     		ldr	r3, .L44
 949 0052 E122     		mov	r2, #225
 950 0054 D200     		lsl	r2, r2, #3
 951 0056 9A80     		strh	r2, [r3, #4]
 952              	.L42:
 960:Generated_Source\PSoC4/BLE_1.c ****             }       
 961:Generated_Source\PSoC4/BLE_1.c ****             else /* Do not update scanning intervals */
 962:Generated_Source\PSoC4/BLE_1.c ****             {
 963:Generated_Source\PSoC4/BLE_1.c ****             }
 964:Generated_Source\PSoC4/BLE_1.c ****             
 965:Generated_Source\PSoC4/BLE_1.c ****             cyBle_scanningIntervalType = scanningIntervalType;
 953              		.loc 1 965 0
 954 0058 104B     		ldr	r3, .L44+4
 955 005a FA1D     		add	r2, r7, #7
 956 005c 1278     		ldrb	r2, [r2]
 957 005e 1A70     		strb	r2, [r3]
 966:Generated_Source\PSoC4/BLE_1.c ****             apiResult = CyBle_GapcStartDiscovery(&cyBle_discoveryInfo);
 958              		.loc 1 966 0
 959 0060 0E23     		mov	r3, #14
 960 0062 FC18     		add	r4, r7, r3
 961 0064 0C4B     		ldr	r3, .L44
 962 0066 181C     		mov	r0, r3
 963 0068 FFF7FEFF 		bl	CyBle_GapcStartDiscovery
 964 006c 031C     		mov	r3, r0
ARM GAS  C:\Users\Petro\AppData\Local\Temp\ccfEn9K1.s 			page 35


 965 006e 2380     		strh	r3, [r4]
 967:Generated_Source\PSoC4/BLE_1.c ****         
 968:Generated_Source\PSoC4/BLE_1.c ****             if(apiResult == CYBLE_ERROR_OK)
 966              		.loc 1 968 0
 967 0070 0E23     		mov	r3, #14
 968 0072 FB18     		add	r3, r7, r3
 969 0074 1B88     		ldrh	r3, [r3]
 970 0076 002B     		cmp	r3, #0
 971 0078 07D1     		bne	.L40
 969:Generated_Source\PSoC4/BLE_1.c ****             {
 970:Generated_Source\PSoC4/BLE_1.c ****                 cyBle_eventHandlerFlag |= CYBLE_START_FLAG;
 972              		.loc 1 970 0
 973 007a 094B     		ldr	r3, .L44+8
 974 007c 1B78     		ldrb	r3, [r3]
 975 007e DBB2     		uxtb	r3, r3
 976 0080 0422     		mov	r2, #4
 977 0082 1343     		orr	r3, r2
 978 0084 DAB2     		uxtb	r2, r3
 979 0086 064B     		ldr	r3, .L44+8
 980 0088 1A70     		strb	r2, [r3]
 981              	.L40:
 971:Generated_Source\PSoC4/BLE_1.c ****             }
 972:Generated_Source\PSoC4/BLE_1.c ****         }
 973:Generated_Source\PSoC4/BLE_1.c ****        
 974:Generated_Source\PSoC4/BLE_1.c ****         return (apiResult);
 982              		.loc 1 974 0
 983 008a 0E23     		mov	r3, #14
 984 008c FB18     		add	r3, r7, r3
 985 008e 1B88     		ldrh	r3, [r3]
 975:Generated_Source\PSoC4/BLE_1.c ****     }
 986              		.loc 1 975 0
 987 0090 181C     		mov	r0, r3
 988 0092 BD46     		mov	sp, r7
 989 0094 05B0     		add	sp, sp, #20
 990              		@ sp needed
 991 0096 90BD     		pop	{r4, r7, pc}
 992              	.L45:
 993              		.align	2
 994              	.L44:
 995 0098 00000000 		.word	cyBle_discoveryInfo
 996 009c 00000000 		.word	cyBle_scanningIntervalType
 997 00a0 00000000 		.word	cyBle_eventHandlerFlag
 998              		.cfi_endproc
 999              	.LFE8:
 1000              		.size	CyBle_GapcStartScan, .-CyBle_GapcStartScan
 1001              		.section	.text.CyBle_GapcStopScan,"ax",%progbits
 1002              		.align	2
 1003              		.global	CyBle_GapcStopScan
 1004              		.code	16
 1005              		.thumb_func
 1006              		.type	CyBle_GapcStopScan, %function
 1007              	CyBle_GapcStopScan:
 1008              	.LFB9:
 976:Generated_Source\PSoC4/BLE_1.c ****     
 977:Generated_Source\PSoC4/BLE_1.c ****     
 978:Generated_Source\PSoC4/BLE_1.c ****     /******************************************************************************
 979:Generated_Source\PSoC4/BLE_1.c ****     * Function Name: CyBle_GapcStopScan
ARM GAS  C:\Users\Petro\AppData\Local\Temp\ccfEn9K1.s 			page 36


 980:Generated_Source\PSoC4/BLE_1.c ****     ***************************************************************************//**
 981:Generated_Source\PSoC4/BLE_1.c ****     * 
 982:Generated_Source\PSoC4/BLE_1.c ****     *   This function used to stop the discovery of devices. On stopping discovery
 983:Generated_Source\PSoC4/BLE_1.c ****     *   operation, CYBLE_EVT_GAPC_SCAN_START_STOP event is generated. Application
 984:Generated_Source\PSoC4/BLE_1.c ****     *   layer needs to keep track of the function call made before receiving this
 985:Generated_Source\PSoC4/BLE_1.c ****     *   event to associate this event with either the start or stop discovery
 986:Generated_Source\PSoC4/BLE_1.c ****     *   function.
 987:Generated_Source\PSoC4/BLE_1.c ****     * 
 988:Generated_Source\PSoC4/BLE_1.c ****     *   Possible events generated are:
 989:Generated_Source\PSoC4/BLE_1.c ****     *    * CYBLE_EVT_GAPC_SCAN_START_STOP
 990:Generated_Source\PSoC4/BLE_1.c ****     * 
 991:Generated_Source\PSoC4/BLE_1.c ****     *  \return
 992:Generated_Source\PSoC4/BLE_1.c ****     *   None
 993:Generated_Source\PSoC4/BLE_1.c ****     * 
 994:Generated_Source\PSoC4/BLE_1.c ****     *******************************************************************************/
 995:Generated_Source\PSoC4/BLE_1.c ****     void CyBle_GapcStopScan(void)
 996:Generated_Source\PSoC4/BLE_1.c ****     {
 1009              		.loc 1 996 0
 1010              		.cfi_startproc
 1011 0000 80B5     		push	{r7, lr}
 1012              		.cfi_def_cfa_offset 8
 1013              		.cfi_offset 7, -8
 1014              		.cfi_offset 14, -4
 1015 0002 00AF     		add	r7, sp, #0
 1016              		.cfi_def_cfa_register 7
 997:Generated_Source\PSoC4/BLE_1.c ****         CyBle_GapcStopDiscovery();
 1017              		.loc 1 997 0
 1018 0004 FFF7FEFF 		bl	CyBle_GapcStopDiscovery
 998:Generated_Source\PSoC4/BLE_1.c ****         
 999:Generated_Source\PSoC4/BLE_1.c ****         cyBle_eventHandlerFlag |= CYBLE_STOP_FLAG;
 1019              		.loc 1 999 0
 1020 0008 044B     		ldr	r3, .L47
 1021 000a 1B78     		ldrb	r3, [r3]
 1022 000c DBB2     		uxtb	r3, r3
 1023 000e 0822     		mov	r2, #8
 1024 0010 1343     		orr	r3, r2
 1025 0012 DAB2     		uxtb	r2, r3
 1026 0014 014B     		ldr	r3, .L47
 1027 0016 1A70     		strb	r2, [r3]
1000:Generated_Source\PSoC4/BLE_1.c ****     }
 1028              		.loc 1 1000 0
 1029 0018 BD46     		mov	sp, r7
 1030              		@ sp needed
 1031 001a 80BD     		pop	{r7, pc}
 1032              	.L48:
 1033              		.align	2
 1034              	.L47:
 1035 001c 00000000 		.word	cyBle_eventHandlerFlag
 1036              		.cfi_endproc
 1037              	.LFE9:
 1038              		.size	CyBle_GapcStopScan, .-CyBle_GapcStopScan
 1039              		.section	.text.CyBle_GapcConnectDevice,"ax",%progbits
 1040              		.align	2
 1041              		.global	CyBle_GapcConnectDevice
 1042              		.code	16
 1043              		.thumb_func
 1044              		.type	CyBle_GapcConnectDevice, %function
ARM GAS  C:\Users\Petro\AppData\Local\Temp\ccfEn9K1.s 			page 37


 1045              	CyBle_GapcConnectDevice:
 1046              	.LFB10:
1001:Generated_Source\PSoC4/BLE_1.c **** 
1002:Generated_Source\PSoC4/BLE_1.c ****     
1003:Generated_Source\PSoC4/BLE_1.c **** #endif /* CYBLE_GAP_ROLE_CENTRAL || CYBLE_GAP_ROLE_OBSERVER */
1004:Generated_Source\PSoC4/BLE_1.c **** 
1005:Generated_Source\PSoC4/BLE_1.c **** 
1006:Generated_Source\PSoC4/BLE_1.c **** #if(CYBLE_GAP_ROLE_CENTRAL)
1007:Generated_Source\PSoC4/BLE_1.c **** 
1008:Generated_Source\PSoC4/BLE_1.c ****     /******************************************************************************
1009:Generated_Source\PSoC4/BLE_1.c ****     * Function Name: CyBle_GapcConnectDevice
1010:Generated_Source\PSoC4/BLE_1.c ****     ***************************************************************************//**
1011:Generated_Source\PSoC4/BLE_1.c ****     * 
1012:Generated_Source\PSoC4/BLE_1.c ****     *  This function is used to send a connection request to the remote device with
1013:Generated_Source\PSoC4/BLE_1.c ****     *  the connection parameters set in the component customizer. This function needs
1014:Generated_Source\PSoC4/BLE_1.c ****     *  to be called only once after the target device is discovered by 
1015:Generated_Source\PSoC4/BLE_1.c ****     *  CyBle_GapcStartScan() and further scanning has stopped. Scanning is 
1016:Generated_Source\PSoC4/BLE_1.c ****     *  successfully stopped on invoking CyBle_GapcStopScan() and then receiving the
1017:Generated_Source\PSoC4/BLE_1.c ****     *  event CYBLE_EVT_GAPC_SCAN_START_STOP with sub-parameter 'success' = 0x01u.
1018:Generated_Source\PSoC4/BLE_1.c ****     *  
1019:Generated_Source\PSoC4/BLE_1.c ****     *  On successful connection, the following events are generated at the GAP 
1020:Generated_Source\PSoC4/BLE_1.c ****     *  Central device (as well as the GAP Peripheral device), in the following order.
1021:Generated_Source\PSoC4/BLE_1.c ****     *  * CYBLE_EVT_GATT_CONNECT_IND
1022:Generated_Source\PSoC4/BLE_1.c ****     *  * CYBLE_EVT_GAP_DEVICE_CONNECTED - If the device connects to a GAP Central and 
1023:Generated_Source\PSoC4/BLE_1.c ****     *    Link Layer Privacy is disabled in component customizer.
1024:Generated_Source\PSoC4/BLE_1.c ****     *  * CYBLE_EVT_GAP_ENHANCE_CONN_COMPLETE - If the device connects to a GAP Central and 
1025:Generated_Source\PSoC4/BLE_1.c ****     *    Link Layer Privacy is enabled in component customizer.
1026:Generated_Source\PSoC4/BLE_1.c ****     *  * CYBLE_EVT_GAP_DEVICE_CONNECTED
1027:Generated_Source\PSoC4/BLE_1.c ****     *  
1028:Generated_Source\PSoC4/BLE_1.c ****     *  A procedure is considered to have timed out if a connection response packet is 
1029:Generated_Source\PSoC4/BLE_1.c ****     *  not received within time set by cyBle_connectingTimeout global variable
1030:Generated_Source\PSoC4/BLE_1.c ****     *  (30 seconds by default). CYBLE_EVT_TIMEOUT event with CYBLE_GENERIC_TO parameter
1031:Generated_Source\PSoC4/BLE_1.c ****     *  will indicate about connection procedure timeout. Connection will automatically
1032:Generated_Source\PSoC4/BLE_1.c ****     *  be canceled and state will be changed to CYBLE_STATE_DISCONNECTED.
1033:Generated_Source\PSoC4/BLE_1.c ****     * 
1034:Generated_Source\PSoC4/BLE_1.c ****     *  \param address: The device address of the remote device to connect to. 
1035:Generated_Source\PSoC4/BLE_1.c ****     *  
1036:Generated_Source\PSoC4/BLE_1.c ****     * \return
1037:Generated_Source\PSoC4/BLE_1.c ****     *  CYBLE_API_RESULT_T : Return value indicates if the function succeeded or 
1038:Generated_Source\PSoC4/BLE_1.c ****     *  failed. Following are the possible error codes.
1039:Generated_Source\PSoC4/BLE_1.c ****     *
1040:Generated_Source\PSoC4/BLE_1.c ****     *   Errors codes                       | Description
1041:Generated_Source\PSoC4/BLE_1.c ****     *   ------------                       | -----------
1042:Generated_Source\PSoC4/BLE_1.c ****     *   CYBLE_ERROR_OK                     | On successful operation.
1043:Generated_Source\PSoC4/BLE_1.c ****     *   CYBLE_ERROR_STACK_INTERNAL         | On error occurred in the BLE stack.
1044:Generated_Source\PSoC4/BLE_1.c ****     *   CYBLE_ERROR_INVALID_PARAMETER      | On passing an invalid parameter.
1045:Generated_Source\PSoC4/BLE_1.c ****     *   CYBLE_ERROR_INVALID_STATE          | On calling this API not in Disconnected state.
1046:Generated_Source\PSoC4/BLE_1.c ****     *  
1047:Generated_Source\PSoC4/BLE_1.c ****     ******************************************************************************/
1048:Generated_Source\PSoC4/BLE_1.c ****     CYBLE_API_RESULT_T CyBle_GapcConnectDevice(const CYBLE_GAP_BD_ADDR_T * address)
1049:Generated_Source\PSoC4/BLE_1.c ****     {
 1047              		.loc 1 1049 0
 1048              		.cfi_startproc
 1049 0000 90B5     		push	{r4, r7, lr}
 1050              		.cfi_def_cfa_offset 12
 1051              		.cfi_offset 4, -12
 1052              		.cfi_offset 7, -8
ARM GAS  C:\Users\Petro\AppData\Local\Temp\ccfEn9K1.s 			page 38


 1053              		.cfi_offset 14, -4
 1054 0002 85B0     		sub	sp, sp, #20
 1055              		.cfi_def_cfa_offset 32
 1056 0004 00AF     		add	r7, sp, #0
 1057              		.cfi_def_cfa_register 7
 1058 0006 7860     		str	r0, [r7, #4]
1050:Generated_Source\PSoC4/BLE_1.c ****         CYBLE_API_RESULT_T apiResult;
1051:Generated_Source\PSoC4/BLE_1.c ****         uint8 i;
1052:Generated_Source\PSoC4/BLE_1.c **** 
1053:Generated_Source\PSoC4/BLE_1.c ****         if(CyBle_GetState() != CYBLE_STATE_DISCONNECTED)
 1059              		.loc 1 1053 0
 1060 0008 294B     		ldr	r3, .L56
 1061 000a 1B78     		ldrb	r3, [r3]
 1062 000c 052B     		cmp	r3, #5
 1063 000e 05D0     		beq	.L50
1054:Generated_Source\PSoC4/BLE_1.c ****         {
1055:Generated_Source\PSoC4/BLE_1.c ****             apiResult = CYBLE_ERROR_INVALID_STATE;
 1064              		.loc 1 1055 0
 1065 0010 0E23     		mov	r3, #14
 1066 0012 FB18     		add	r3, r7, r3
 1067 0014 0422     		mov	r2, #4
 1068 0016 FF32     		add	r2, r2, #255
 1069 0018 1A80     		strh	r2, [r3]
 1070 001a 41E0     		b	.L51
 1071              	.L50:
1056:Generated_Source\PSoC4/BLE_1.c ****         }
1057:Generated_Source\PSoC4/BLE_1.c ****         else if(address == NULL)
 1072              		.loc 1 1057 0
 1073 001c 7B68     		ldr	r3, [r7, #4]
 1074 001e 002B     		cmp	r3, #0
 1075 0020 04D1     		bne	.L52
1058:Generated_Source\PSoC4/BLE_1.c ****         {
1059:Generated_Source\PSoC4/BLE_1.c ****             apiResult = CYBLE_ERROR_INVALID_PARAMETER;
 1076              		.loc 1 1059 0
 1077 0022 0E23     		mov	r3, #14
 1078 0024 FB18     		add	r3, r7, r3
 1079 0026 0122     		mov	r2, #1
 1080 0028 1A80     		strh	r2, [r3]
 1081 002a 39E0     		b	.L51
 1082              	.L52:
1060:Generated_Source\PSoC4/BLE_1.c ****         }
1061:Generated_Source\PSoC4/BLE_1.c ****         else
1062:Generated_Source\PSoC4/BLE_1.c ****         {
1063:Generated_Source\PSoC4/BLE_1.c ****             for(i = 0u; i < CYBLE_GAP_BD_ADDR_SIZE; i++)
 1083              		.loc 1 1063 0
 1084 002c 0D23     		mov	r3, #13
 1085 002e FB18     		add	r3, r7, r3
 1086 0030 0022     		mov	r2, #0
 1087 0032 1A70     		strb	r2, [r3]
 1088 0034 12E0     		b	.L53
 1089              	.L54:
1064:Generated_Source\PSoC4/BLE_1.c ****             {
1065:Generated_Source\PSoC4/BLE_1.c ****                 cyBle_connectionParameters.peerBdAddr[i] = address->bdAddr[i];
 1090              		.loc 1 1065 0 discriminator 3
 1091 0036 0D23     		mov	r3, #13
 1092 0038 FB18     		add	r3, r7, r3
 1093 003a 1B78     		ldrb	r3, [r3]
ARM GAS  C:\Users\Petro\AppData\Local\Temp\ccfEn9K1.s 			page 39


 1094 003c 0D22     		mov	r2, #13
 1095 003e BA18     		add	r2, r7, r2
 1096 0040 1278     		ldrb	r2, [r2]
 1097 0042 7968     		ldr	r1, [r7, #4]
 1098 0044 895C     		ldrb	r1, [r1, r2]
 1099 0046 1B4A     		ldr	r2, .L56+4
 1100 0048 D318     		add	r3, r2, r3
 1101 004a 0A1C     		add	r2, r1, #0
 1102 004c 5A71     		strb	r2, [r3, #5]
1063:Generated_Source\PSoC4/BLE_1.c ****             {
 1103              		.loc 1 1063 0 discriminator 3
 1104 004e 0D23     		mov	r3, #13
 1105 0050 FB18     		add	r3, r7, r3
 1106 0052 1A78     		ldrb	r2, [r3]
 1107 0054 0D23     		mov	r3, #13
 1108 0056 FB18     		add	r3, r7, r3
 1109 0058 0132     		add	r2, r2, #1
 1110 005a 1A70     		strb	r2, [r3]
 1111              	.L53:
1063:Generated_Source\PSoC4/BLE_1.c ****             {
 1112              		.loc 1 1063 0 is_stmt 0 discriminator 1
 1113 005c 0D23     		mov	r3, #13
 1114 005e FB18     		add	r3, r7, r3
 1115 0060 1B78     		ldrb	r3, [r3]
 1116 0062 052B     		cmp	r3, #5
 1117 0064 E7D9     		bls	.L54
1066:Generated_Source\PSoC4/BLE_1.c ****             }
1067:Generated_Source\PSoC4/BLE_1.c ****             cyBle_connectionParameters.peerAddrType = address -> type;
 1118              		.loc 1 1067 0 is_stmt 1
 1119 0066 7B68     		ldr	r3, [r7, #4]
 1120 0068 9A79     		ldrb	r2, [r3, #6]
 1121 006a 124B     		ldr	r3, .L56+4
 1122 006c DA72     		strb	r2, [r3, #11]
1068:Generated_Source\PSoC4/BLE_1.c ****             apiResult = CyBle_GapcInitConnection(&cyBle_connectionParameters);
 1123              		.loc 1 1068 0
 1124 006e 0E23     		mov	r3, #14
 1125 0070 FC18     		add	r4, r7, r3
 1126 0072 104B     		ldr	r3, .L56+4
 1127 0074 181C     		mov	r0, r3
 1128 0076 FFF7FEFF 		bl	CyBle_GapcInitConnection
 1129 007a 031C     		mov	r3, r0
 1130 007c 2380     		strh	r3, [r4]
1069:Generated_Source\PSoC4/BLE_1.c ****             
1070:Generated_Source\PSoC4/BLE_1.c ****             if(apiResult == CYBLE_ERROR_OK)
 1131              		.loc 1 1070 0
 1132 007e 0E23     		mov	r3, #14
 1133 0080 FB18     		add	r3, r7, r3
 1134 0082 1B88     		ldrh	r3, [r3]
 1135 0084 002B     		cmp	r3, #0
 1136 0086 0BD1     		bne	.L51
1071:Generated_Source\PSoC4/BLE_1.c ****             {
1072:Generated_Source\PSoC4/BLE_1.c ****                 CyBle_SetState(CYBLE_STATE_CONNECTING);
 1137              		.loc 1 1072 0
 1138 0088 094B     		ldr	r3, .L56
 1139 008a 0422     		mov	r2, #4
 1140 008c 1A70     		strb	r2, [r3]
1073:Generated_Source\PSoC4/BLE_1.c ****                 if(cyBle_connectingTimeout != 0u)
ARM GAS  C:\Users\Petro\AppData\Local\Temp\ccfEn9K1.s 			page 40


 1141              		.loc 1 1073 0
 1142 008e 0A4B     		ldr	r3, .L56+8
 1143 0090 1B88     		ldrh	r3, [r3]
 1144 0092 002B     		cmp	r3, #0
 1145 0094 04D0     		beq	.L51
1074:Generated_Source\PSoC4/BLE_1.c ****                 {
1075:Generated_Source\PSoC4/BLE_1.c ****                     (void)CyBle_StartTimer(cyBle_connectingTimeout);
 1146              		.loc 1 1075 0
 1147 0096 084B     		ldr	r3, .L56+8
 1148 0098 1B88     		ldrh	r3, [r3]
 1149 009a 181C     		mov	r0, r3
 1150 009c FFF7FEFF 		bl	CyBle_StartTimer
 1151              	.L51:
1076:Generated_Source\PSoC4/BLE_1.c ****                 }
1077:Generated_Source\PSoC4/BLE_1.c ****             }
1078:Generated_Source\PSoC4/BLE_1.c ****         }
1079:Generated_Source\PSoC4/BLE_1.c ****         return (apiResult);
 1152              		.loc 1 1079 0
 1153 00a0 0E23     		mov	r3, #14
 1154 00a2 FB18     		add	r3, r7, r3
 1155 00a4 1B88     		ldrh	r3, [r3]
1080:Generated_Source\PSoC4/BLE_1.c ****     }
 1156              		.loc 1 1080 0
 1157 00a6 181C     		mov	r0, r3
 1158 00a8 BD46     		mov	sp, r7
 1159 00aa 05B0     		add	sp, sp, #20
 1160              		@ sp needed
 1161 00ac 90BD     		pop	{r4, r7, pc}
 1162              	.L57:
 1163 00ae C046     		.align	2
 1164              	.L56:
 1165 00b0 00000000 		.word	cyBle_state
 1166 00b4 00000000 		.word	cyBle_connectionParameters
 1167 00b8 00000000 		.word	cyBle_connectingTimeout
 1168              		.cfi_endproc
 1169              	.LFE10:
 1170              		.size	CyBle_GapcConnectDevice, .-CyBle_GapcConnectDevice
 1171              		.section	.text.CyBle_GapcCancelDeviceConnection,"ax",%progbits
 1172              		.align	2
 1173              		.global	CyBle_GapcCancelDeviceConnection
 1174              		.code	16
 1175              		.thumb_func
 1176              		.type	CyBle_GapcCancelDeviceConnection, %function
 1177              	CyBle_GapcCancelDeviceConnection:
 1178              	.LFB11:
1081:Generated_Source\PSoC4/BLE_1.c ****     
1082:Generated_Source\PSoC4/BLE_1.c **** 
1083:Generated_Source\PSoC4/BLE_1.c ****     /******************************************************************************
1084:Generated_Source\PSoC4/BLE_1.c ****     * Function Name: CyBle_GapcCancelDeviceConnection
1085:Generated_Source\PSoC4/BLE_1.c ****     ***************************************************************************//**
1086:Generated_Source\PSoC4/BLE_1.c ****     * 
1087:Generated_Source\PSoC4/BLE_1.c ****     *  This function cancels a previously initiated connection with the remote 
1088:Generated_Source\PSoC4/BLE_1.c ****     *  device. It is a blocking function. No event is generated on calling this 
1089:Generated_Source\PSoC4/BLE_1.c ****     *  function. If the devices are already connected then this function should not
1090:Generated_Source\PSoC4/BLE_1.c ****     *  be used. If you intend to disconnect from an existing connection, the function
1091:Generated_Source\PSoC4/BLE_1.c ****     *  CyBle_GapDisconnect() should be used.
1092:Generated_Source\PSoC4/BLE_1.c ****     * 
ARM GAS  C:\Users\Petro\AppData\Local\Temp\ccfEn9K1.s 			page 41


1093:Generated_Source\PSoC4/BLE_1.c ****     * \return
1094:Generated_Source\PSoC4/BLE_1.c ****     *  CYBLE_API_RESULT_T : Return value indicates if the function succeeded or 
1095:Generated_Source\PSoC4/BLE_1.c ****     *  failed. Following are the possible error codes.
1096:Generated_Source\PSoC4/BLE_1.c ****     *
1097:Generated_Source\PSoC4/BLE_1.c ****     *   Errors codes                       | Description
1098:Generated_Source\PSoC4/BLE_1.c ****     *   ---------------------------------- | --------------------------------------
1099:Generated_Source\PSoC4/BLE_1.c ****     *   CYBLE_ERROR_OK                     | On successful operation.
1100:Generated_Source\PSoC4/BLE_1.c ****     *   CYBLE_ERROR_STACK_INTERNAL         | An error occurred in the BLE stack.
1101:Generated_Source\PSoC4/BLE_1.c ****     *   CYBLE_ERROR_INVALID_STATE          | On calling this API not in Connecting state.
1102:Generated_Source\PSoC4/BLE_1.c ****     *  
1103:Generated_Source\PSoC4/BLE_1.c ****     *******************************************************************************/
1104:Generated_Source\PSoC4/BLE_1.c ****     CYBLE_API_RESULT_T CyBle_GapcCancelDeviceConnection(void)
1105:Generated_Source\PSoC4/BLE_1.c ****     {
 1179              		.loc 1 1105 0
 1180              		.cfi_startproc
 1181 0000 90B5     		push	{r4, r7, lr}
 1182              		.cfi_def_cfa_offset 12
 1183              		.cfi_offset 4, -12
 1184              		.cfi_offset 7, -8
 1185              		.cfi_offset 14, -4
 1186 0002 83B0     		sub	sp, sp, #12
 1187              		.cfi_def_cfa_offset 24
 1188 0004 00AF     		add	r7, sp, #0
 1189              		.cfi_def_cfa_register 7
1106:Generated_Source\PSoC4/BLE_1.c ****         CYBLE_API_RESULT_T apiResult;
1107:Generated_Source\PSoC4/BLE_1.c ****         
1108:Generated_Source\PSoC4/BLE_1.c ****         if(CyBle_GetState() != CYBLE_STATE_CONNECTING)
 1190              		.loc 1 1108 0
 1191 0006 104B     		ldr	r3, .L63
 1192 0008 1B78     		ldrb	r3, [r3]
 1193 000a 042B     		cmp	r3, #4
 1194 000c 04D0     		beq	.L59
1109:Generated_Source\PSoC4/BLE_1.c ****         {
1110:Generated_Source\PSoC4/BLE_1.c ****             apiResult = CYBLE_ERROR_INVALID_STATE;
 1195              		.loc 1 1110 0
 1196 000e BB1D     		add	r3, r7, #6
 1197 0010 0422     		mov	r2, #4
 1198 0012 FF32     		add	r2, r2, #255
 1199 0014 1A80     		strh	r2, [r3]
 1200 0016 11E0     		b	.L60
 1201              	.L59:
1111:Generated_Source\PSoC4/BLE_1.c ****         }
1112:Generated_Source\PSoC4/BLE_1.c ****         else 
1113:Generated_Source\PSoC4/BLE_1.c ****         {
1114:Generated_Source\PSoC4/BLE_1.c ****             apiResult = CyBle_GapcCancelConnection();
 1202              		.loc 1 1114 0
 1203 0018 BC1D     		add	r4, r7, #6
 1204 001a FFF7FEFF 		bl	CyBle_GapcCancelConnection
 1205 001e 031C     		mov	r3, r0
 1206 0020 2380     		strh	r3, [r4]
1115:Generated_Source\PSoC4/BLE_1.c ****             
1116:Generated_Source\PSoC4/BLE_1.c ****             if(cyBle_connectingTimeout != 0u)
 1207              		.loc 1 1116 0
 1208 0022 0A4B     		ldr	r3, .L63+4
 1209 0024 1B88     		ldrh	r3, [r3]
 1210 0026 002B     		cmp	r3, #0
 1211 0028 01D0     		beq	.L61
ARM GAS  C:\Users\Petro\AppData\Local\Temp\ccfEn9K1.s 			page 42


1117:Generated_Source\PSoC4/BLE_1.c ****             {
1118:Generated_Source\PSoC4/BLE_1.c ****                 (void)CyBle_StopTimer();
 1212              		.loc 1 1118 0
 1213 002a FFF7FEFF 		bl	CyBle_StopTimer
 1214              	.L61:
1119:Generated_Source\PSoC4/BLE_1.c ****             }
1120:Generated_Source\PSoC4/BLE_1.c **** 
1121:Generated_Source\PSoC4/BLE_1.c ****             if(apiResult == CYBLE_ERROR_OK)
 1215              		.loc 1 1121 0
 1216 002e BB1D     		add	r3, r7, #6
 1217 0030 1B88     		ldrh	r3, [r3]
 1218 0032 002B     		cmp	r3, #0
 1219 0034 02D1     		bne	.L60
1122:Generated_Source\PSoC4/BLE_1.c ****             {
1123:Generated_Source\PSoC4/BLE_1.c ****                 CyBle_SetState(CYBLE_STATE_DISCONNECTED);
 1220              		.loc 1 1123 0
 1221 0036 044B     		ldr	r3, .L63
 1222 0038 0522     		mov	r2, #5
 1223 003a 1A70     		strb	r2, [r3]
 1224              	.L60:
1124:Generated_Source\PSoC4/BLE_1.c ****             }
1125:Generated_Source\PSoC4/BLE_1.c ****         }
1126:Generated_Source\PSoC4/BLE_1.c ****         return (apiResult);
 1225              		.loc 1 1126 0
 1226 003c BB1D     		add	r3, r7, #6
 1227 003e 1B88     		ldrh	r3, [r3]
1127:Generated_Source\PSoC4/BLE_1.c ****     }    
 1228              		.loc 1 1127 0
 1229 0040 181C     		mov	r0, r3
 1230 0042 BD46     		mov	sp, r7
 1231 0044 03B0     		add	sp, sp, #12
 1232              		@ sp needed
 1233 0046 90BD     		pop	{r4, r7, pc}
 1234              	.L64:
 1235              		.align	2
 1236              	.L63:
 1237 0048 00000000 		.word	cyBle_state
 1238 004c 00000000 		.word	cyBle_connectingTimeout
 1239              		.cfi_endproc
 1240              	.LFE11:
 1241              		.size	CyBle_GapcCancelDeviceConnection, .-CyBle_GapcCancelDeviceConnection
 1242              		.section	.text.CyBle_GapSetLocalName,"ax",%progbits
 1243              		.align	2
 1244              		.global	CyBle_GapSetLocalName
 1245              		.code	16
 1246              		.thumb_func
 1247              		.type	CyBle_GapSetLocalName, %function
 1248              	CyBle_GapSetLocalName:
 1249              	.LFB12:
1128:Generated_Source\PSoC4/BLE_1.c **** 
1129:Generated_Source\PSoC4/BLE_1.c ****     
1130:Generated_Source\PSoC4/BLE_1.c **** #endif /* CYBLE_GAP_ROLE_CENTRAL */
1131:Generated_Source\PSoC4/BLE_1.c **** 
1132:Generated_Source\PSoC4/BLE_1.c **** 
1133:Generated_Source\PSoC4/BLE_1.c **** #if(CYBLE_GATT_ROLE_SERVER)
1134:Generated_Source\PSoC4/BLE_1.c **** 
1135:Generated_Source\PSoC4/BLE_1.c **** #if(CYBLE_GAP_ROLE_PERIPHERAL)
ARM GAS  C:\Users\Petro\AppData\Local\Temp\ccfEn9K1.s 			page 43


1136:Generated_Source\PSoC4/BLE_1.c **** 
1137:Generated_Source\PSoC4/BLE_1.c ****         /******************************************************************************
1138:Generated_Source\PSoC4/BLE_1.c ****         * Function Name: CyBle_ChangeAdLocalName
1139:Generated_Source\PSoC4/BLE_1.c ****         ***************************************************************************//**
1140:Generated_Source\PSoC4/BLE_1.c ****         *  This API is used to set the local device name in the advertisement or scan 
1141:Generated_Source\PSoC4/BLE_1.c ****         *  response data structure.
1142:Generated_Source\PSoC4/BLE_1.c ****         * 
1143:Generated_Source\PSoC4/BLE_1.c ****         *  \param name: The local device name string to be set in advertisement data 
1144:Generated_Source\PSoC4/BLE_1.c ****         *            structure.
1145:Generated_Source\PSoC4/BLE_1.c ****         *  \param dest: 0 - advertisement structure, not zero value selects scan response
1146:Generated_Source\PSoC4/BLE_1.c ****         *              structure.
1147:Generated_Source\PSoC4/BLE_1.c ****         * 
1148:Generated_Source\PSoC4/BLE_1.c ****         * \return
1149:Generated_Source\PSoC4/BLE_1.c ****         *  None
1150:Generated_Source\PSoC4/BLE_1.c ****         *  
1151:Generated_Source\PSoC4/BLE_1.c ****         *******************************************************************************/
1152:Generated_Source\PSoC4/BLE_1.c ****         static void CyBle_ChangeAdLocalName(const char8 name[], uint8 dest)
1153:Generated_Source\PSoC4/BLE_1.c ****         {
1154:Generated_Source\PSoC4/BLE_1.c ****             uint8 i;
1155:Generated_Source\PSoC4/BLE_1.c ****             uint8 flag = 0u;
1156:Generated_Source\PSoC4/BLE_1.c ****             uint8 adLength = 0u;
1157:Generated_Source\PSoC4/BLE_1.c ****             uint8 byteCounter = 0u;
1158:Generated_Source\PSoC4/BLE_1.c ****             uint8 *destBuffer;
1159:Generated_Source\PSoC4/BLE_1.c ****             uint8 maxLength;
1160:Generated_Source\PSoC4/BLE_1.c ****             
1161:Generated_Source\PSoC4/BLE_1.c ****             if(dest == 0u)      /* Destination - advertising structure */
1162:Generated_Source\PSoC4/BLE_1.c ****             {
1163:Generated_Source\PSoC4/BLE_1.c ****                 destBuffer = cyBle_discoveryData.advData;
1164:Generated_Source\PSoC4/BLE_1.c ****                 maxLength = cyBle_discoveryData.advDataLen;
1165:Generated_Source\PSoC4/BLE_1.c ****             }
1166:Generated_Source\PSoC4/BLE_1.c ****             else                /* Destination - scan response structure */
1167:Generated_Source\PSoC4/BLE_1.c ****             {
1168:Generated_Source\PSoC4/BLE_1.c ****                 destBuffer = cyBle_scanRspData.scanRspData;
1169:Generated_Source\PSoC4/BLE_1.c ****                 maxLength = cyBle_scanRspData.scanRspDataLen;
1170:Generated_Source\PSoC4/BLE_1.c ****             }
1171:Generated_Source\PSoC4/BLE_1.c ****             
1172:Generated_Source\PSoC4/BLE_1.c ****             while((byteCounter < maxLength) && (flag == 0u))
1173:Generated_Source\PSoC4/BLE_1.c ****             {
1174:Generated_Source\PSoC4/BLE_1.c ****                 adLength = destBuffer[byteCounter];
1175:Generated_Source\PSoC4/BLE_1.c ****                 
1176:Generated_Source\PSoC4/BLE_1.c ****                 if(0u != adLength)
1177:Generated_Source\PSoC4/BLE_1.c ****                 {
1178:Generated_Source\PSoC4/BLE_1.c ****                     /* Increment byte counter so it can point to AD type */
1179:Generated_Source\PSoC4/BLE_1.c ****                     byteCounter++;
1180:Generated_Source\PSoC4/BLE_1.c ****                     
1181:Generated_Source\PSoC4/BLE_1.c ****                     if((destBuffer[byteCounter] == CYBLE_SHORT_LOCAL_NAME) || 
1182:Generated_Source\PSoC4/BLE_1.c ****                        (destBuffer[byteCounter] == CYBLE_COMPLETE_LOCAL_NAME))
1183:Generated_Source\PSoC4/BLE_1.c ****                     {
1184:Generated_Source\PSoC4/BLE_1.c ****                         /* Start of the Local Name AD type was fount. Set flag and exit the loop. *
1185:Generated_Source\PSoC4/BLE_1.c ****                         flag = 1u;
1186:Generated_Source\PSoC4/BLE_1.c ****                     }
1187:Generated_Source\PSoC4/BLE_1.c ****                     else
1188:Generated_Source\PSoC4/BLE_1.c ****                     {
1189:Generated_Source\PSoC4/BLE_1.c ****                         byteCounter += adLength;
1190:Generated_Source\PSoC4/BLE_1.c ****                     }
1191:Generated_Source\PSoC4/BLE_1.c ****                 }
1192:Generated_Source\PSoC4/BLE_1.c ****                 else
ARM GAS  C:\Users\Petro\AppData\Local\Temp\ccfEn9K1.s 			page 44


1193:Generated_Source\PSoC4/BLE_1.c ****                 {
1194:Generated_Source\PSoC4/BLE_1.c ****                     /* The end of advertisement data structure was encountered though exit the loop
1195:Generated_Source\PSoC4/BLE_1.c ****                     break;
1196:Generated_Source\PSoC4/BLE_1.c ****                 }
1197:Generated_Source\PSoC4/BLE_1.c ****             }
1198:Generated_Source\PSoC4/BLE_1.c ****             
1199:Generated_Source\PSoC4/BLE_1.c ****             if(0u != flag)
1200:Generated_Source\PSoC4/BLE_1.c ****             {
1201:Generated_Source\PSoC4/BLE_1.c ****                 /* Reuse "adLength" to hold location of the last character of local name in 
1202:Generated_Source\PSoC4/BLE_1.c ****                    AD structure. */
1203:Generated_Source\PSoC4/BLE_1.c ****                 adLength += byteCounter;
1204:Generated_Source\PSoC4/BLE_1.c ****                 
1205:Generated_Source\PSoC4/BLE_1.c ****                 /* Increment byte counter to point to start of the local Name string */
1206:Generated_Source\PSoC4/BLE_1.c ****                 byteCounter++;
1207:Generated_Source\PSoC4/BLE_1.c ****                 
1208:Generated_Source\PSoC4/BLE_1.c ****                 for(i = byteCounter; ((i < (adLength)) && (CYBLE_NULL_CHARCTER != name[i - byteCoun
1209:Generated_Source\PSoC4/BLE_1.c ****                 {
1210:Generated_Source\PSoC4/BLE_1.c ****                     destBuffer[i] = (uint8)name[i - byteCounter];
1211:Generated_Source\PSoC4/BLE_1.c ****                 }
1212:Generated_Source\PSoC4/BLE_1.c ****                 
1213:Generated_Source\PSoC4/BLE_1.c ****                 /* This loop handles the case when new local name is shorted than old one.
1214:Generated_Source\PSoC4/BLE_1.c ****                    In this case all remaining characters should be null characters. */
1215:Generated_Source\PSoC4/BLE_1.c ****                 while(adLength > i)
1216:Generated_Source\PSoC4/BLE_1.c ****                 {
1217:Generated_Source\PSoC4/BLE_1.c ****                     /* Terminate string */
1218:Generated_Source\PSoC4/BLE_1.c ****                     destBuffer[i] = (uint8)CYBLE_NULL_CHARCTER;
1219:Generated_Source\PSoC4/BLE_1.c ****                     i++;
1220:Generated_Source\PSoC4/BLE_1.c ****                 }
1221:Generated_Source\PSoC4/BLE_1.c ****             }
1222:Generated_Source\PSoC4/BLE_1.c ****         }
1223:Generated_Source\PSoC4/BLE_1.c ****         
1224:Generated_Source\PSoC4/BLE_1.c **** #endif /* (CYBLE_GAP_ROLE_PERIPHERAL) */  
1225:Generated_Source\PSoC4/BLE_1.c ****     
1226:Generated_Source\PSoC4/BLE_1.c ****     
1227:Generated_Source\PSoC4/BLE_1.c ****     /******************************************************************************
1228:Generated_Source\PSoC4/BLE_1.c ****     * Function Name: CyBle_GapSetLocalName
1229:Generated_Source\PSoC4/BLE_1.c ****     ***************************************************************************//**
1230:Generated_Source\PSoC4/BLE_1.c ****     *  This API is used to set the local device name - a Characteristic of the 
1231:Generated_Source\PSoC4/BLE_1.c ****     *  GAP Service. If the characteristic length entered in the component customizer
1232:Generated_Source\PSoC4/BLE_1.c ****     *  is shorter than the string specified by the "name" parameter, the local device
1233:Generated_Source\PSoC4/BLE_1.c ****     *  name will be cut to the length specified in the customizer.
1234:Generated_Source\PSoC4/BLE_1.c ****     * 
1235:Generated_Source\PSoC4/BLE_1.c ****     *  \param name: The local device name string. The name string to be written as
1236:Generated_Source\PSoC4/BLE_1.c ****     *              the local device name. It represents a UTF-8 encoded User
1237:Generated_Source\PSoC4/BLE_1.c ****     *              Friendly Descriptive Name for the device. The length of the local
1238:Generated_Source\PSoC4/BLE_1.c ****     *              device string is entered into the component customizer and it can
1239:Generated_Source\PSoC4/BLE_1.c ****     *              be set to a value from 0 to 248 bytes. If the name contained in
1240:Generated_Source\PSoC4/BLE_1.c ****     *              the parameter is shorter than the length from the customizer, the
1241:Generated_Source\PSoC4/BLE_1.c ****     *              end of the name is indicated by a NULL octet (0x00).
1242:Generated_Source\PSoC4/BLE_1.c ****     * 
1243:Generated_Source\PSoC4/BLE_1.c ****     * \return
1244:Generated_Source\PSoC4/BLE_1.c ****     *  CYBLE_API_RESULT_T : Return value indicates if the function succeeded or 
1245:Generated_Source\PSoC4/BLE_1.c ****     *  failed. Following are the possible error codes.
1246:Generated_Source\PSoC4/BLE_1.c ****     *
1247:Generated_Source\PSoC4/BLE_1.c ****     *   Errors codes                       | Description
1248:Generated_Source\PSoC4/BLE_1.c ****     *   ------------                       | -----------
1249:Generated_Source\PSoC4/BLE_1.c ****     *   CYBLE_ERROR_OK                     | Function completed successfully.
ARM GAS  C:\Users\Petro\AppData\Local\Temp\ccfEn9K1.s 			page 45


1250:Generated_Source\PSoC4/BLE_1.c ****     *   CYBLE_ERROR_INVALID_PARAMETER      | On specifying NULL as input parameter
1251:Generated_Source\PSoC4/BLE_1.c ****     *  
1252:Generated_Source\PSoC4/BLE_1.c ****     *******************************************************************************/
1253:Generated_Source\PSoC4/BLE_1.c ****     CYBLE_API_RESULT_T CyBle_GapSetLocalName(const char8 name[])
1254:Generated_Source\PSoC4/BLE_1.c ****     {
 1250              		.loc 1 1254 0
 1251              		.cfi_startproc
 1252 0000 80B5     		push	{r7, lr}
 1253              		.cfi_def_cfa_offset 8
 1254              		.cfi_offset 7, -8
 1255              		.cfi_offset 14, -4
 1256 0002 86B0     		sub	sp, sp, #24
 1257              		.cfi_def_cfa_offset 32
 1258 0004 00AF     		add	r7, sp, #0
 1259              		.cfi_def_cfa_register 7
 1260 0006 7860     		str	r0, [r7, #4]
1255:Generated_Source\PSoC4/BLE_1.c ****         CYBLE_API_RESULT_T apiResult = CYBLE_ERROR_OK;
 1261              		.loc 1 1255 0
 1262 0008 1623     		mov	r3, #22
 1263 000a FB18     		add	r3, r7, r3
 1264 000c 0022     		mov	r2, #0
 1265 000e 1A80     		strh	r2, [r3]
1256:Generated_Source\PSoC4/BLE_1.c ****         uint8 i;
1257:Generated_Source\PSoC4/BLE_1.c ****         char8 *ptr;
1258:Generated_Source\PSoC4/BLE_1.c ****         uint8 charLen;
1259:Generated_Source\PSoC4/BLE_1.c **** 
1260:Generated_Source\PSoC4/BLE_1.c ****         if(NULL != name)
 1266              		.loc 1 1260 0
 1267 0010 7B68     		ldr	r3, [r7, #4]
 1268 0012 002B     		cmp	r3, #0
 1269 0014 40D0     		beq	.L66
1261:Generated_Source\PSoC4/BLE_1.c ****         {
1262:Generated_Source\PSoC4/BLE_1.c ****             /* Get the pointer to the Device Name characteristic  */
1263:Generated_Source\PSoC4/BLE_1.c ****             ptr = (char8 *) CYBLE_GATT_DB_ATTR_GET_ATTR_GEN_PTR(CYBLE_GAP_DEVICE_NAME_INDEX + 1u);
 1270              		.loc 1 1263 0
 1271 0016 264B     		ldr	r3, .L73
 1272 0018 9B6B     		ldr	r3, [r3, #56]
 1273 001a 5B68     		ldr	r3, [r3, #4]
 1274 001c 3B61     		str	r3, [r7, #16]
1264:Generated_Source\PSoC4/BLE_1.c **** 
1265:Generated_Source\PSoC4/BLE_1.c ****             /* First need to get the maximum length of the characteristic data in the GATT
1266:Generated_Source\PSoC4/BLE_1.c ****                 database to make sure there is enough place for the data. The length
1267:Generated_Source\PSoC4/BLE_1.c ****                 can't be longer than 248, so only the LSB of 16 bit of length is to
1268:Generated_Source\PSoC4/BLE_1.c ****                 be used. */
1269:Generated_Source\PSoC4/BLE_1.c ****             charLen = (uint8)CYBLE_GATT_DB_ATTR_GET_ATTR_GEN_MAX_LEN(CYBLE_GAP_DEVICE_NAME_INDEX + 
 1275              		.loc 1 1269 0
 1276 001e 244B     		ldr	r3, .L73
 1277 0020 9A8E     		ldrh	r2, [r3, #52]
 1278 0022 0F23     		mov	r3, #15
 1279 0024 FB18     		add	r3, r7, r3
 1280 0026 1A70     		strb	r2, [r3]
1270:Generated_Source\PSoC4/BLE_1.c **** 
1271:Generated_Source\PSoC4/BLE_1.c ****             /* Copy name into characteristic */
1272:Generated_Source\PSoC4/BLE_1.c ****             for(i = 0u; ((i < charLen) && (CYBLE_NULL_CHARCTER != name[i])); i++)
 1281              		.loc 1 1272 0
 1282 0028 1523     		mov	r3, #21
 1283 002a FB18     		add	r3, r7, r3
ARM GAS  C:\Users\Petro\AppData\Local\Temp\ccfEn9K1.s 			page 46


 1284 002c 0022     		mov	r2, #0
 1285 002e 1A70     		strb	r2, [r3]
 1286 0030 12E0     		b	.L67
 1287              	.L69:
1273:Generated_Source\PSoC4/BLE_1.c ****             {
1274:Generated_Source\PSoC4/BLE_1.c ****                 ptr[i] = name[i];
 1288              		.loc 1 1274 0 discriminator 4
 1289 0032 1523     		mov	r3, #21
 1290 0034 FB18     		add	r3, r7, r3
 1291 0036 1B78     		ldrb	r3, [r3]
 1292 0038 3A69     		ldr	r2, [r7, #16]
 1293 003a D318     		add	r3, r2, r3
 1294 003c 1522     		mov	r2, #21
 1295 003e BA18     		add	r2, r7, r2
 1296 0040 1278     		ldrb	r2, [r2]
 1297 0042 7968     		ldr	r1, [r7, #4]
 1298 0044 8A18     		add	r2, r1, r2
 1299 0046 1278     		ldrb	r2, [r2]
 1300 0048 1A70     		strb	r2, [r3]
1272:Generated_Source\PSoC4/BLE_1.c ****             {
 1301              		.loc 1 1272 0 discriminator 4
 1302 004a 1523     		mov	r3, #21
 1303 004c FB18     		add	r3, r7, r3
 1304 004e 1A78     		ldrb	r2, [r3]
 1305 0050 1523     		mov	r3, #21
 1306 0052 FB18     		add	r3, r7, r3
 1307 0054 0132     		add	r2, r2, #1
 1308 0056 1A70     		strb	r2, [r3]
 1309              	.L67:
1272:Generated_Source\PSoC4/BLE_1.c ****             {
 1310              		.loc 1 1272 0 is_stmt 0 discriminator 1
 1311 0058 1523     		mov	r3, #21
 1312 005a FA18     		add	r2, r7, r3
 1313 005c 0F23     		mov	r3, #15
 1314 005e FB18     		add	r3, r7, r3
 1315 0060 1278     		ldrb	r2, [r2]
 1316 0062 1B78     		ldrb	r3, [r3]
 1317 0064 9A42     		cmp	r2, r3
 1318 0066 07D2     		bcs	.L68
1272:Generated_Source\PSoC4/BLE_1.c ****             {
 1319              		.loc 1 1272 0 discriminator 3
 1320 0068 1523     		mov	r3, #21
 1321 006a FB18     		add	r3, r7, r3
 1322 006c 1B78     		ldrb	r3, [r3]
 1323 006e 7A68     		ldr	r2, [r7, #4]
 1324 0070 D318     		add	r3, r2, r3
 1325 0072 1B78     		ldrb	r3, [r3]
 1326 0074 002B     		cmp	r3, #0
 1327 0076 DCD1     		bne	.L69
 1328              	.L68:
1275:Generated_Source\PSoC4/BLE_1.c ****             }
1276:Generated_Source\PSoC4/BLE_1.c **** 
1277:Generated_Source\PSoC4/BLE_1.c ****             if(i < charLen)
 1329              		.loc 1 1277 0 is_stmt 1
 1330 0078 1523     		mov	r3, #21
 1331 007a FA18     		add	r2, r7, r3
 1332 007c 0F23     		mov	r3, #15
ARM GAS  C:\Users\Petro\AppData\Local\Temp\ccfEn9K1.s 			page 47


 1333 007e FB18     		add	r3, r7, r3
 1334 0080 1278     		ldrb	r2, [r2]
 1335 0082 1B78     		ldrb	r3, [r3]
 1336 0084 9A42     		cmp	r2, r3
 1337 0086 0BD2     		bcs	.L71
1278:Generated_Source\PSoC4/BLE_1.c ****             {
1279:Generated_Source\PSoC4/BLE_1.c ****                 /* Terminate string */
1280:Generated_Source\PSoC4/BLE_1.c ****                 ptr[i] = CYBLE_NULL_CHARCTER;
 1338              		.loc 1 1280 0
 1339 0088 1523     		mov	r3, #21
 1340 008a FB18     		add	r3, r7, r3
 1341 008c 1B78     		ldrb	r3, [r3]
 1342 008e 3A69     		ldr	r2, [r7, #16]
 1343 0090 D318     		add	r3, r2, r3
 1344 0092 0022     		mov	r2, #0
 1345 0094 1A70     		strb	r2, [r3]
 1346 0096 03E0     		b	.L71
 1347              	.L66:
1281:Generated_Source\PSoC4/BLE_1.c ****             }
1282:Generated_Source\PSoC4/BLE_1.c ****             
1283:Generated_Source\PSoC4/BLE_1.c ****             /* Set new actual length */
1284:Generated_Source\PSoC4/BLE_1.c ****             
1285:Generated_Source\PSoC4/BLE_1.c ****             /* Update device name in advertising and scan response structure */
1286:Generated_Source\PSoC4/BLE_1.c ****             #if(CYBLE_GAP_ROLE_PERIPHERAL)
1287:Generated_Source\PSoC4/BLE_1.c ****                 CyBle_ChangeAdLocalName(name, 0u);
1288:Generated_Source\PSoC4/BLE_1.c ****                 CyBle_ChangeAdLocalName(name, 1u);
1289:Generated_Source\PSoC4/BLE_1.c ****             #endif /* (CYBLE_GAP_ROLE_PERIPHERAL) */
1290:Generated_Source\PSoC4/BLE_1.c ****         }
1291:Generated_Source\PSoC4/BLE_1.c ****         else
1292:Generated_Source\PSoC4/BLE_1.c ****         {
1293:Generated_Source\PSoC4/BLE_1.c ****             apiResult = CYBLE_ERROR_INVALID_PARAMETER;
 1348              		.loc 1 1293 0
 1349 0098 1623     		mov	r3, #22
 1350 009a FB18     		add	r3, r7, r3
 1351 009c 0122     		mov	r2, #1
 1352 009e 1A80     		strh	r2, [r3]
 1353              	.L71:
1294:Generated_Source\PSoC4/BLE_1.c ****         }
1295:Generated_Source\PSoC4/BLE_1.c ****         
1296:Generated_Source\PSoC4/BLE_1.c ****         return(apiResult);
 1354              		.loc 1 1296 0
 1355 00a0 1623     		mov	r3, #22
 1356 00a2 FB18     		add	r3, r7, r3
 1357 00a4 1B88     		ldrh	r3, [r3]
1297:Generated_Source\PSoC4/BLE_1.c ****     }
 1358              		.loc 1 1297 0
 1359 00a6 181C     		mov	r0, r3
 1360 00a8 BD46     		mov	sp, r7
 1361 00aa 06B0     		add	sp, sp, #24
 1362              		@ sp needed
 1363 00ac 80BD     		pop	{r7, pc}
 1364              	.L74:
 1365 00ae C046     		.align	2
 1366              	.L73:
 1367 00b0 00000000 		.word	cyBle_gattDB
 1368              		.cfi_endproc
 1369              	.LFE12:
ARM GAS  C:\Users\Petro\AppData\Local\Temp\ccfEn9K1.s 			page 48


 1370              		.size	CyBle_GapSetLocalName, .-CyBle_GapSetLocalName
 1371              		.section	.text.CyBle_GapGetLocalName,"ax",%progbits
 1372              		.align	2
 1373              		.global	CyBle_GapGetLocalName
 1374              		.code	16
 1375              		.thumb_func
 1376              		.type	CyBle_GapGetLocalName, %function
 1377              	CyBle_GapGetLocalName:
 1378              	.LFB13:
1298:Generated_Source\PSoC4/BLE_1.c **** 
1299:Generated_Source\PSoC4/BLE_1.c **** 
1300:Generated_Source\PSoC4/BLE_1.c ****     /******************************************************************************
1301:Generated_Source\PSoC4/BLE_1.c ****     * Function Name: CyBle_GapGetLocalName
1302:Generated_Source\PSoC4/BLE_1.c ****     ***************************************************************************//**
1303:Generated_Source\PSoC4/BLE_1.c ****     *  
1304:Generated_Source\PSoC4/BLE_1.c ****     *  This API is used to read the local device name - a Characteristic of the 
1305:Generated_Source\PSoC4/BLE_1.c ****     *  GAP Service.
1306:Generated_Source\PSoC4/BLE_1.c ****     * 
1307:Generated_Source\PSoC4/BLE_1.c ****     * \param name: The local device name string. Used to read the local name to the
1308:Generated_Source\PSoC4/BLE_1.c ****     *             given string array. It represents a UTF-8 encoded User Friendly 
1309:Generated_Source\PSoC4/BLE_1.c ****     *             Descriptive Name for the device. The length of the local device
1310:Generated_Source\PSoC4/BLE_1.c ****     *             string is entered into the component customizer and it can be set
1311:Generated_Source\PSoC4/BLE_1.c ****     *             to a value from 0 to 248 bytes. If the name contained in the
1312:Generated_Source\PSoC4/BLE_1.c ****     *             parameter is shorter than the length from the customizer, the end
1313:Generated_Source\PSoC4/BLE_1.c ****     *             of the name is indicated by a NULL octet (0x00).
1314:Generated_Source\PSoC4/BLE_1.c ****     * 
1315:Generated_Source\PSoC4/BLE_1.c ****     * \return
1316:Generated_Source\PSoC4/BLE_1.c ****     *  CYBLE_API_RESULT_T : Return value indicates if the function succeeded or 
1317:Generated_Source\PSoC4/BLE_1.c ****     *  failed. Following are the possible error codes.
1318:Generated_Source\PSoC4/BLE_1.c ****     *
1319:Generated_Source\PSoC4/BLE_1.c ****     *   Errors codes                       | Description
1320:Generated_Source\PSoC4/BLE_1.c ****     *   ------------                       | -----------
1321:Generated_Source\PSoC4/BLE_1.c ****     *   CYBLE_ERROR_OK                     | Function completed successfully.
1322:Generated_Source\PSoC4/BLE_1.c ****     *   CYBLE_ERROR_INVALID_PARAMETER      | On specifying NULL as input parameter
1323:Generated_Source\PSoC4/BLE_1.c ****     *
1324:Generated_Source\PSoC4/BLE_1.c ****     *******************************************************************************/
1325:Generated_Source\PSoC4/BLE_1.c ****     CYBLE_API_RESULT_T CyBle_GapGetLocalName(char8 name[])
1326:Generated_Source\PSoC4/BLE_1.c ****     {
 1379              		.loc 1 1326 0
 1380              		.cfi_startproc
 1381 0000 80B5     		push	{r7, lr}
 1382              		.cfi_def_cfa_offset 8
 1383              		.cfi_offset 7, -8
 1384              		.cfi_offset 14, -4
 1385 0002 86B0     		sub	sp, sp, #24
 1386              		.cfi_def_cfa_offset 32
 1387 0004 00AF     		add	r7, sp, #0
 1388              		.cfi_def_cfa_register 7
 1389 0006 7860     		str	r0, [r7, #4]
1327:Generated_Source\PSoC4/BLE_1.c ****         CYBLE_API_RESULT_T apiResult = CYBLE_ERROR_OK;
 1390              		.loc 1 1327 0
 1391 0008 1623     		mov	r3, #22
 1392 000a FB18     		add	r3, r7, r3
 1393 000c 0022     		mov	r2, #0
 1394 000e 1A80     		strh	r2, [r3]
1328:Generated_Source\PSoC4/BLE_1.c ****         uint8 charLen;
1329:Generated_Source\PSoC4/BLE_1.c ****         uint8 i;
ARM GAS  C:\Users\Petro\AppData\Local\Temp\ccfEn9K1.s 			page 49


1330:Generated_Source\PSoC4/BLE_1.c ****         char8 *ptr;
1331:Generated_Source\PSoC4/BLE_1.c **** 
1332:Generated_Source\PSoC4/BLE_1.c ****         if(NULL != name)
 1395              		.loc 1 1332 0
 1396 0010 7B68     		ldr	r3, [r7, #4]
 1397 0012 002B     		cmp	r3, #0
 1398 0014 39D0     		beq	.L76
1333:Generated_Source\PSoC4/BLE_1.c ****         {
1334:Generated_Source\PSoC4/BLE_1.c ****             /* Get the pointer to the Device Name characteristic  */
1335:Generated_Source\PSoC4/BLE_1.c ****             ptr = (char8 *) CYBLE_GATT_DB_ATTR_GET_ATTR_GEN_PTR(CYBLE_GAP_DEVICE_NAME_INDEX + 1u);
 1399              		.loc 1 1335 0
 1400 0016 224B     		ldr	r3, .L82
 1401 0018 9B6B     		ldr	r3, [r3, #56]
 1402 001a 5B68     		ldr	r3, [r3, #4]
 1403 001c 3B61     		str	r3, [r7, #16]
1336:Generated_Source\PSoC4/BLE_1.c **** 
1337:Generated_Source\PSoC4/BLE_1.c ****             /* First need to get the length of the characteristic data in the GATT
1338:Generated_Source\PSoC4/BLE_1.c ****                 database to make sure there is enough place for the data. The length
1339:Generated_Source\PSoC4/BLE_1.c ****                 can't be longer than 248, so only the LSB of 16 bit of length is to
1340:Generated_Source\PSoC4/BLE_1.c ****                 be used. */
1341:Generated_Source\PSoC4/BLE_1.c ****             charLen = (uint8)CYBLE_GATT_DB_ATTR_GET_ATTR_GEN_LEN(CYBLE_GAP_DEVICE_NAME_INDEX + 1u);
 1404              		.loc 1 1341 0
 1405 001e 204B     		ldr	r3, .L82
 1406 0020 9B6B     		ldr	r3, [r3, #56]
 1407 0022 1A88     		ldrh	r2, [r3]
 1408 0024 0F23     		mov	r3, #15
 1409 0026 FB18     		add	r3, r7, r3
 1410 0028 1A70     		strb	r2, [r3]
1342:Generated_Source\PSoC4/BLE_1.c **** 
1343:Generated_Source\PSoC4/BLE_1.c ****             /* Copy name from characteristic */
1344:Generated_Source\PSoC4/BLE_1.c ****             for(i = 0u; ((i < charLen) && (CYBLE_NULL_CHARCTER != ptr[i])); i++)
 1411              		.loc 1 1344 0
 1412 002a 1523     		mov	r3, #21
 1413 002c FB18     		add	r3, r7, r3
 1414 002e 0022     		mov	r2, #0
 1415 0030 1A70     		strb	r2, [r3]
 1416 0032 12E0     		b	.L77
 1417              	.L79:
1345:Generated_Source\PSoC4/BLE_1.c ****             {
1346:Generated_Source\PSoC4/BLE_1.c ****                 name[i] = ptr[i];
 1418              		.loc 1 1346 0 discriminator 4
 1419 0034 1523     		mov	r3, #21
 1420 0036 FB18     		add	r3, r7, r3
 1421 0038 1B78     		ldrb	r3, [r3]
 1422 003a 7A68     		ldr	r2, [r7, #4]
 1423 003c D318     		add	r3, r2, r3
 1424 003e 1522     		mov	r2, #21
 1425 0040 BA18     		add	r2, r7, r2
 1426 0042 1278     		ldrb	r2, [r2]
 1427 0044 3969     		ldr	r1, [r7, #16]
 1428 0046 8A18     		add	r2, r1, r2
 1429 0048 1278     		ldrb	r2, [r2]
 1430 004a 1A70     		strb	r2, [r3]
1344:Generated_Source\PSoC4/BLE_1.c ****             {
 1431              		.loc 1 1344 0 discriminator 4
 1432 004c 1523     		mov	r3, #21
 1433 004e FB18     		add	r3, r7, r3
ARM GAS  C:\Users\Petro\AppData\Local\Temp\ccfEn9K1.s 			page 50


 1434 0050 1A78     		ldrb	r2, [r3]
 1435 0052 1523     		mov	r3, #21
 1436 0054 FB18     		add	r3, r7, r3
 1437 0056 0132     		add	r2, r2, #1
 1438 0058 1A70     		strb	r2, [r3]
 1439              	.L77:
1344:Generated_Source\PSoC4/BLE_1.c ****             {
 1440              		.loc 1 1344 0 is_stmt 0 discriminator 1
 1441 005a 1523     		mov	r3, #21
 1442 005c FA18     		add	r2, r7, r3
 1443 005e 0F23     		mov	r3, #15
 1444 0060 FB18     		add	r3, r7, r3
 1445 0062 1278     		ldrb	r2, [r2]
 1446 0064 1B78     		ldrb	r3, [r3]
 1447 0066 9A42     		cmp	r2, r3
 1448 0068 07D2     		bcs	.L78
1344:Generated_Source\PSoC4/BLE_1.c ****             {
 1449              		.loc 1 1344 0 discriminator 3
 1450 006a 1523     		mov	r3, #21
 1451 006c FB18     		add	r3, r7, r3
 1452 006e 1B78     		ldrb	r3, [r3]
 1453 0070 3A69     		ldr	r2, [r7, #16]
 1454 0072 D318     		add	r3, r2, r3
 1455 0074 1B78     		ldrb	r3, [r3]
 1456 0076 002B     		cmp	r3, #0
 1457 0078 DCD1     		bne	.L79
 1458              	.L78:
1347:Generated_Source\PSoC4/BLE_1.c ****             }
1348:Generated_Source\PSoC4/BLE_1.c **** 
1349:Generated_Source\PSoC4/BLE_1.c ****             /* Terminate string */
1350:Generated_Source\PSoC4/BLE_1.c ****             name[i] = CYBLE_NULL_CHARCTER;
 1459              		.loc 1 1350 0 is_stmt 1
 1460 007a 1523     		mov	r3, #21
 1461 007c FB18     		add	r3, r7, r3
 1462 007e 1B78     		ldrb	r3, [r3]
 1463 0080 7A68     		ldr	r2, [r7, #4]
 1464 0082 D318     		add	r3, r2, r3
 1465 0084 0022     		mov	r2, #0
 1466 0086 1A70     		strb	r2, [r3]
 1467 0088 03E0     		b	.L80
 1468              	.L76:
1351:Generated_Source\PSoC4/BLE_1.c ****         }
1352:Generated_Source\PSoC4/BLE_1.c ****         else
1353:Generated_Source\PSoC4/BLE_1.c ****         {
1354:Generated_Source\PSoC4/BLE_1.c ****             apiResult = CYBLE_ERROR_INVALID_PARAMETER;
 1469              		.loc 1 1354 0
 1470 008a 1623     		mov	r3, #22
 1471 008c FB18     		add	r3, r7, r3
 1472 008e 0122     		mov	r2, #1
 1473 0090 1A80     		strh	r2, [r3]
 1474              	.L80:
1355:Generated_Source\PSoC4/BLE_1.c ****         }
1356:Generated_Source\PSoC4/BLE_1.c ****         
1357:Generated_Source\PSoC4/BLE_1.c ****         return(apiResult);
 1475              		.loc 1 1357 0
 1476 0092 1623     		mov	r3, #22
 1477 0094 FB18     		add	r3, r7, r3
ARM GAS  C:\Users\Petro\AppData\Local\Temp\ccfEn9K1.s 			page 51


 1478 0096 1B88     		ldrh	r3, [r3]
1358:Generated_Source\PSoC4/BLE_1.c ****     }
 1479              		.loc 1 1358 0
 1480 0098 181C     		mov	r0, r3
 1481 009a BD46     		mov	sp, r7
 1482 009c 06B0     		add	sp, sp, #24
 1483              		@ sp needed
 1484 009e 80BD     		pop	{r7, pc}
 1485              	.L83:
 1486              		.align	2
 1487              	.L82:
 1488 00a0 00000000 		.word	cyBle_gattDB
 1489              		.cfi_endproc
 1490              	.LFE13:
 1491              		.size	CyBle_GapGetLocalName, .-CyBle_GapGetLocalName
 1492              		.section	.text.CyBle_Get16ByPtr,"ax",%progbits
 1493              		.align	2
 1494              		.global	CyBle_Get16ByPtr
 1495              		.code	16
 1496              		.thumb_func
 1497              		.type	CyBle_Get16ByPtr, %function
 1498              	CyBle_Get16ByPtr:
 1499              	.LFB14:
1359:Generated_Source\PSoC4/BLE_1.c **** 
1360:Generated_Source\PSoC4/BLE_1.c **** #endif /* (CYBLE_GATT_ROLE_SERVER) */
1361:Generated_Source\PSoC4/BLE_1.c **** 
1362:Generated_Source\PSoC4/BLE_1.c **** 
1363:Generated_Source\PSoC4/BLE_1.c **** /******************************************************************************
1364:Generated_Source\PSoC4/BLE_1.c **** * Function Name: CyBle_Get16ByPtr
1365:Generated_Source\PSoC4/BLE_1.c **** ***************************************************************************//**
1366:Generated_Source\PSoC4/BLE_1.c **** * 
1367:Generated_Source\PSoC4/BLE_1.c **** *  Returns the two-bytes value by using a pointer to the LSB.
1368:Generated_Source\PSoC4/BLE_1.c **** * 
1369:Generated_Source\PSoC4/BLE_1.c **** *  \param ptr: Pointer to the LSB of two-bytes data (little endian).
1370:Generated_Source\PSoC4/BLE_1.c **** * 
1371:Generated_Source\PSoC4/BLE_1.c **** *  \return
1372:Generated_Source\PSoC4/BLE_1.c **** *  uint16: Two-bytes data.
1373:Generated_Source\PSoC4/BLE_1.c **** * 
1374:Generated_Source\PSoC4/BLE_1.c **** ******************************************************************************/
1375:Generated_Source\PSoC4/BLE_1.c **** uint16 CyBle_Get16ByPtr(const uint8 ptr[])
1376:Generated_Source\PSoC4/BLE_1.c **** {
 1500              		.loc 1 1376 0
 1501              		.cfi_startproc
 1502 0000 80B5     		push	{r7, lr}
 1503              		.cfi_def_cfa_offset 8
 1504              		.cfi_offset 7, -8
 1505              		.cfi_offset 14, -4
 1506 0002 82B0     		sub	sp, sp, #8
 1507              		.cfi_def_cfa_offset 16
 1508 0004 00AF     		add	r7, sp, #0
 1509              		.cfi_def_cfa_register 7
 1510 0006 7860     		str	r0, [r7, #4]
1377:Generated_Source\PSoC4/BLE_1.c ****     return ((uint16) ptr[0u] | ((uint16) (((uint16) ptr[1u]) << 8u)));
 1511              		.loc 1 1377 0
 1512 0008 7B68     		ldr	r3, [r7, #4]
 1513 000a 1B78     		ldrb	r3, [r3]
 1514 000c 9AB2     		uxth	r2, r3
ARM GAS  C:\Users\Petro\AppData\Local\Temp\ccfEn9K1.s 			page 52


 1515 000e 7B68     		ldr	r3, [r7, #4]
 1516 0010 0133     		add	r3, r3, #1
 1517 0012 1B78     		ldrb	r3, [r3]
 1518 0014 9BB2     		uxth	r3, r3
 1519 0016 1B02     		lsl	r3, r3, #8
 1520 0018 9BB2     		uxth	r3, r3
 1521 001a 1343     		orr	r3, r2
 1522 001c 9BB2     		uxth	r3, r3
1378:Generated_Source\PSoC4/BLE_1.c **** }
 1523              		.loc 1 1378 0
 1524 001e 181C     		mov	r0, r3
 1525 0020 BD46     		mov	sp, r7
 1526 0022 02B0     		add	sp, sp, #8
 1527              		@ sp needed
 1528 0024 80BD     		pop	{r7, pc}
 1529              		.cfi_endproc
 1530              	.LFE14:
 1531              		.size	CyBle_Get16ByPtr, .-CyBle_Get16ByPtr
 1532 0026 C046     		.section	.text.CyBle_Set16ByPtr,"ax",%progbits
 1533              		.align	2
 1534              		.global	CyBle_Set16ByPtr
 1535              		.code	16
 1536              		.thumb_func
 1537              		.type	CyBle_Set16ByPtr, %function
 1538              	CyBle_Set16ByPtr:
 1539              	.LFB15:
1379:Generated_Source\PSoC4/BLE_1.c **** 
1380:Generated_Source\PSoC4/BLE_1.c **** 
1381:Generated_Source\PSoC4/BLE_1.c **** /******************************************************************************
1382:Generated_Source\PSoC4/BLE_1.c **** * Function Name: CyBle_Set16ByPtr
1383:Generated_Source\PSoC4/BLE_1.c **** ***************************************************************************//**
1384:Generated_Source\PSoC4/BLE_1.c **** * 
1385:Generated_Source\PSoC4/BLE_1.c **** *  Sets the two-bytes value by using a pointer to the LSB.
1386:Generated_Source\PSoC4/BLE_1.c **** * 
1387:Generated_Source\PSoC4/BLE_1.c **** *  \param ptr:    Pointer to the LSB of two-bytes data (little endian).
1388:Generated_Source\PSoC4/BLE_1.c **** *  \param value:  Two-bytes data to be written.
1389:Generated_Source\PSoC4/BLE_1.c **** * 
1390:Generated_Source\PSoC4/BLE_1.c **** *  \return
1391:Generated_Source\PSoC4/BLE_1.c **** *  None
1392:Generated_Source\PSoC4/BLE_1.c **** * 
1393:Generated_Source\PSoC4/BLE_1.c **** ******************************************************************************/
1394:Generated_Source\PSoC4/BLE_1.c **** void CyBle_Set16ByPtr(uint8 ptr[], uint16 value)
1395:Generated_Source\PSoC4/BLE_1.c **** {
 1540              		.loc 1 1395 0
 1541              		.cfi_startproc
 1542 0000 80B5     		push	{r7, lr}
 1543              		.cfi_def_cfa_offset 8
 1544              		.cfi_offset 7, -8
 1545              		.cfi_offset 14, -4
 1546 0002 82B0     		sub	sp, sp, #8
 1547              		.cfi_def_cfa_offset 16
 1548 0004 00AF     		add	r7, sp, #0
 1549              		.cfi_def_cfa_register 7
 1550 0006 7860     		str	r0, [r7, #4]
 1551 0008 0A1C     		mov	r2, r1
 1552 000a BB1C     		add	r3, r7, #2
 1553 000c 1A80     		strh	r2, [r3]
ARM GAS  C:\Users\Petro\AppData\Local\Temp\ccfEn9K1.s 			page 53


1396:Generated_Source\PSoC4/BLE_1.c ****     ptr[0u] = (uint8) value;
 1554              		.loc 1 1396 0
 1555 000e BB1C     		add	r3, r7, #2
 1556 0010 1B88     		ldrh	r3, [r3]
 1557 0012 DAB2     		uxtb	r2, r3
 1558 0014 7B68     		ldr	r3, [r7, #4]
 1559 0016 1A70     		strb	r2, [r3]
1397:Generated_Source\PSoC4/BLE_1.c ****     ptr[1u] = (uint8) (value >> 8u);
 1560              		.loc 1 1397 0
 1561 0018 7B68     		ldr	r3, [r7, #4]
 1562 001a 0133     		add	r3, r3, #1
 1563 001c BA1C     		add	r2, r7, #2
 1564 001e 1288     		ldrh	r2, [r2]
 1565 0020 120A     		lsr	r2, r2, #8
 1566 0022 92B2     		uxth	r2, r2
 1567 0024 D2B2     		uxtb	r2, r2
 1568 0026 1A70     		strb	r2, [r3]
1398:Generated_Source\PSoC4/BLE_1.c **** }
 1569              		.loc 1 1398 0
 1570 0028 BD46     		mov	sp, r7
 1571 002a 02B0     		add	sp, sp, #8
 1572              		@ sp needed
 1573 002c 80BD     		pop	{r7, pc}
 1574              		.cfi_endproc
 1575              	.LFE15:
 1576              		.size	CyBle_Set16ByPtr, .-CyBle_Set16ByPtr
 1577 002e C046     		.text
 1578              	.Letext0:
 1579              		.file 2 "Generated_Source\\PSoC4\\cytypes.h"
 1580              		.file 3 "Generated_Source\\PSoC4\\BLE_1_Stack.h"
 1581              		.file 4 "Generated_Source\\PSoC4\\BLE_1_StackGap.h"
 1582              		.file 5 "Generated_Source\\PSoC4\\BLE_1_StackGatt.h"
 1583              		.file 6 "Generated_Source\\PSoC4\\BLE_1_StackGattDb.h"
 1584              		.file 7 "Generated_Source\\PSoC4\\BLE_1.h"
 1585              		.file 8 "Generated_Source\\PSoC4\\BLE_1_gatt.h"
 1586              		.file 9 "Generated_Source\\PSoC4\\BLE_1_ans.h"
 1587              		.file 10 "Generated_Source\\PSoC4\\BLE_1_eventHandler.h"
 1588              		.section	.debug_info,"",%progbits
 1589              	.Ldebug_info0:
 1590 0000 C40C0000 		.4byte	0xcc4
 1591 0004 0400     		.2byte	0x4
 1592 0006 00000000 		.4byte	.Ldebug_abbrev0
 1593 000a 04       		.byte	0x4
 1594 000b 01       		.uleb128 0x1
 1595 000c 80140000 		.4byte	.LASF241
 1596 0010 01       		.byte	0x1
 1597 0011 33070000 		.4byte	.LASF242
 1598 0015 A50B0000 		.4byte	.LASF243
 1599 0019 00000000 		.4byte	.Ldebug_ranges0+0
 1600 001d 00000000 		.4byte	0
 1601 0021 00000000 		.4byte	.Ldebug_line0
 1602 0025 02       		.uleb128 0x2
 1603 0026 01       		.byte	0x1
 1604 0027 06       		.byte	0x6
 1605 0028 26040000 		.4byte	.LASF0
 1606 002c 02       		.uleb128 0x2
 1607 002d 01       		.byte	0x1
ARM GAS  C:\Users\Petro\AppData\Local\Temp\ccfEn9K1.s 			page 54


 1608 002e 08       		.byte	0x8
 1609 002f 020F0000 		.4byte	.LASF1
 1610 0033 02       		.uleb128 0x2
 1611 0034 02       		.byte	0x2
 1612 0035 05       		.byte	0x5
 1613 0036 870F0000 		.4byte	.LASF2
 1614 003a 02       		.uleb128 0x2
 1615 003b 02       		.byte	0x2
 1616 003c 07       		.byte	0x7
 1617 003d AE060000 		.4byte	.LASF3
 1618 0041 02       		.uleb128 0x2
 1619 0042 04       		.byte	0x4
 1620 0043 05       		.byte	0x5
 1621 0044 54020000 		.4byte	.LASF4
 1622 0048 02       		.uleb128 0x2
 1623 0049 04       		.byte	0x4
 1624 004a 07       		.byte	0x7
 1625 004b AC080000 		.4byte	.LASF5
 1626 004f 02       		.uleb128 0x2
 1627 0050 08       		.byte	0x8
 1628 0051 05       		.byte	0x5
 1629 0052 CC050000 		.4byte	.LASF6
 1630 0056 02       		.uleb128 0x2
 1631 0057 08       		.byte	0x8
 1632 0058 07       		.byte	0x7
 1633 0059 9B070000 		.4byte	.LASF7
 1634 005d 03       		.uleb128 0x3
 1635 005e 04       		.byte	0x4
 1636 005f 05       		.byte	0x5
 1637 0060 696E7400 		.ascii	"int\000"
 1638 0064 02       		.uleb128 0x2
 1639 0065 04       		.byte	0x4
 1640 0066 07       		.byte	0x7
 1641 0067 5A110000 		.4byte	.LASF8
 1642 006b 04       		.uleb128 0x4
 1643 006c C6050000 		.4byte	.LASF9
 1644 0070 02       		.byte	0x2
 1645 0071 9801     		.2byte	0x198
 1646 0073 2C000000 		.4byte	0x2c
 1647 0077 04       		.uleb128 0x4
 1648 0078 100F0000 		.4byte	.LASF10
 1649 007c 02       		.byte	0x2
 1650 007d 9901     		.2byte	0x199
 1651 007f 3A000000 		.4byte	0x3a
 1652 0083 04       		.uleb128 0x4
 1653 0084 C1060000 		.4byte	.LASF11
 1654 0088 02       		.byte	0x2
 1655 0089 9A01     		.2byte	0x19a
 1656 008b 48000000 		.4byte	0x48
 1657 008f 02       		.uleb128 0x2
 1658 0090 04       		.byte	0x4
 1659 0091 04       		.byte	0x4
 1660 0092 6B0E0000 		.4byte	.LASF12
 1661 0096 02       		.uleb128 0x2
 1662 0097 08       		.byte	0x8
 1663 0098 04       		.byte	0x4
 1664 0099 23060000 		.4byte	.LASF13
ARM GAS  C:\Users\Petro\AppData\Local\Temp\ccfEn9K1.s 			page 55


 1665 009d 04       		.uleb128 0x4
 1666 009e B1110000 		.4byte	.LASF14
 1667 00a2 02       		.byte	0x2
 1668 00a3 A901     		.2byte	0x1a9
 1669 00a5 A9000000 		.4byte	0xa9
 1670 00a9 02       		.uleb128 0x2
 1671 00aa 01       		.byte	0x1
 1672 00ab 08       		.byte	0x8
 1673 00ac 08110000 		.4byte	.LASF15
 1674 00b0 05       		.uleb128 0x5
 1675 00b1 6B000000 		.4byte	0x6b
 1676 00b5 02       		.uleb128 0x2
 1677 00b6 04       		.byte	0x4
 1678 00b7 07       		.byte	0x7
 1679 00b8 950C0000 		.4byte	.LASF16
 1680 00bc 06       		.uleb128 0x6
 1681 00bd 04       		.byte	0x4
 1682 00be 07       		.uleb128 0x7
 1683 00bf 04       		.byte	0x4
 1684 00c0 C4000000 		.4byte	0xc4
 1685 00c4 08       		.uleb128 0x8
 1686 00c5 D4000000 		.4byte	0xd4
 1687 00c9 09       		.uleb128 0x9
 1688 00ca 83000000 		.4byte	0x83
 1689 00ce 09       		.uleb128 0x9
 1690 00cf BC000000 		.4byte	0xbc
 1691 00d3 00       		.byte	0
 1692 00d4 0A       		.uleb128 0xa
 1693 00d5 01       		.byte	0x1
 1694 00d6 03       		.byte	0x3
 1695 00d7 3101     		.2byte	0x131
 1696 00d9 A3020000 		.4byte	0x2a3
 1697 00dd 0B       		.uleb128 0xb
 1698 00de B0090000 		.4byte	.LASF17
 1699 00e2 00       		.sleb128 0
 1700 00e3 0B       		.uleb128 0xb
 1701 00e4 32040000 		.4byte	.LASF18
 1702 00e8 01       		.sleb128 1
 1703 00e9 0B       		.uleb128 0xb
 1704 00ea 42020000 		.4byte	.LASF19
 1705 00ee 02       		.sleb128 2
 1706 00ef 0B       		.uleb128 0xb
 1707 00f0 68120000 		.4byte	.LASF20
 1708 00f4 03       		.sleb128 3
 1709 00f5 0B       		.uleb128 0xb
 1710 00f6 FD020000 		.4byte	.LASF21
 1711 00fa 04       		.sleb128 4
 1712 00fb 0B       		.uleb128 0xb
 1713 00fc 23000000 		.4byte	.LASF22
 1714 0100 05       		.sleb128 5
 1715 0101 0B       		.uleb128 0xb
 1716 0102 E5090000 		.4byte	.LASF23
 1717 0106 06       		.sleb128 6
 1718 0107 0B       		.uleb128 0xb
 1719 0108 050C0000 		.4byte	.LASF24
 1720 010c 20       		.sleb128 32
 1721 010d 0B       		.uleb128 0xb
ARM GAS  C:\Users\Petro\AppData\Local\Temp\ccfEn9K1.s 			page 56


 1722 010e 95040000 		.4byte	.LASF25
 1723 0112 21       		.sleb128 33
 1724 0113 0B       		.uleb128 0xb
 1725 0114 1F0A0000 		.4byte	.LASF26
 1726 0118 22       		.sleb128 34
 1727 0119 0B       		.uleb128 0xb
 1728 011a 190B0000 		.4byte	.LASF27
 1729 011e 23       		.sleb128 35
 1730 011f 0B       		.uleb128 0xb
 1731 0120 740D0000 		.4byte	.LASF28
 1732 0124 24       		.sleb128 36
 1733 0125 0B       		.uleb128 0xb
 1734 0126 D00C0000 		.4byte	.LASF29
 1735 012a 25       		.sleb128 37
 1736 012b 0B       		.uleb128 0xb
 1737 012c 4A050000 		.4byte	.LASF30
 1738 0130 26       		.sleb128 38
 1739 0131 0B       		.uleb128 0xb
 1740 0132 430A0000 		.4byte	.LASF31
 1741 0136 27       		.sleb128 39
 1742 0137 0B       		.uleb128 0xb
 1743 0138 2D110000 		.4byte	.LASF32
 1744 013c 28       		.sleb128 40
 1745 013d 0B       		.uleb128 0xb
 1746 013e 32100000 		.4byte	.LASF33
 1747 0142 29       		.sleb128 41
 1748 0143 0B       		.uleb128 0xb
 1749 0144 00010000 		.4byte	.LASF34
 1750 0148 2A       		.sleb128 42
 1751 0149 0B       		.uleb128 0xb
 1752 014a 26030000 		.4byte	.LASF35
 1753 014e 2B       		.sleb128 43
 1754 014f 0B       		.uleb128 0xb
 1755 0150 54150000 		.4byte	.LASF36
 1756 0154 2C       		.sleb128 44
 1757 0155 0B       		.uleb128 0xb
 1758 0156 DB030000 		.4byte	.LASF37
 1759 015a 2D       		.sleb128 45
 1760 015b 0B       		.uleb128 0xb
 1761 015c 170F0000 		.4byte	.LASF38
 1762 0160 2E       		.sleb128 46
 1763 0161 0B       		.uleb128 0xb
 1764 0162 7D010000 		.4byte	.LASF39
 1765 0166 2F       		.sleb128 47
 1766 0167 0B       		.uleb128 0xb
 1767 0168 2D0D0000 		.4byte	.LASF40
 1768 016c 30       		.sleb128 48
 1769 016d 0B       		.uleb128 0xb
 1770 016e ED150000 		.4byte	.LASF41
 1771 0172 31       		.sleb128 49
 1772 0173 0B       		.uleb128 0xb
 1773 0174 0C0D0000 		.4byte	.LASF42
 1774 0178 32       		.sleb128 50
 1775 0179 0B       		.uleb128 0xb
 1776 017a BD000000 		.4byte	.LASF43
 1777 017e 33       		.sleb128 51
 1778 017f 0B       		.uleb128 0xb
ARM GAS  C:\Users\Petro\AppData\Local\Temp\ccfEn9K1.s 			page 57


 1779 0180 BE080000 		.4byte	.LASF44
 1780 0184 34       		.sleb128 52
 1781 0185 0B       		.uleb128 0xb
 1782 0186 7E070000 		.4byte	.LASF45
 1783 018a 35       		.sleb128 53
 1784 018b 0B       		.uleb128 0xb
 1785 018c 900A0000 		.4byte	.LASF46
 1786 0190 36       		.sleb128 54
 1787 0191 0B       		.uleb128 0xb
 1788 0192 F3060000 		.4byte	.LASF47
 1789 0196 C000     		.sleb128 64
 1790 0198 0B       		.uleb128 0xb
 1791 0199 3F0B0000 		.4byte	.LASF48
 1792 019d C100     		.sleb128 65
 1793 019f 0B       		.uleb128 0xb
 1794 01a0 47160000 		.4byte	.LASF49
 1795 01a4 C200     		.sleb128 66
 1796 01a6 0B       		.uleb128 0xb
 1797 01a7 A8050000 		.4byte	.LASF50
 1798 01ab C300     		.sleb128 67
 1799 01ad 0B       		.uleb128 0xb
 1800 01ae F0080000 		.4byte	.LASF51
 1801 01b2 C400     		.sleb128 68
 1802 01b4 0B       		.uleb128 0xb
 1803 01b5 0C020000 		.4byte	.LASF52
 1804 01b9 C500     		.sleb128 69
 1805 01bb 0B       		.uleb128 0xb
 1806 01bc 740C0000 		.4byte	.LASF53
 1807 01c0 C600     		.sleb128 70
 1808 01c2 0B       		.uleb128 0xb
 1809 01c3 C7090000 		.4byte	.LASF54
 1810 01c7 C700     		.sleb128 71
 1811 01c9 0B       		.uleb128 0xb
 1812 01ca 0E150000 		.4byte	.LASF55
 1813 01ce C800     		.sleb128 72
 1814 01d0 0B       		.uleb128 0xb
 1815 01d1 B7040000 		.4byte	.LASF56
 1816 01d5 C900     		.sleb128 73
 1817 01d7 0B       		.uleb128 0xb
 1818 01d8 85130000 		.4byte	.LASF57
 1819 01dc CA00     		.sleb128 74
 1820 01de 0B       		.uleb128 0xb
 1821 01df A6010000 		.4byte	.LASF58
 1822 01e3 CB00     		.sleb128 75
 1823 01e5 0B       		.uleb128 0xb
 1824 01e6 D6080000 		.4byte	.LASF59
 1825 01ea CC00     		.sleb128 76
 1826 01ec 0B       		.uleb128 0xb
 1827 01ed F20C0000 		.4byte	.LASF60
 1828 01f1 CD00     		.sleb128 77
 1829 01f3 0B       		.uleb128 0xb
 1830 01f4 EA040000 		.4byte	.LASF61
 1831 01f8 CE00     		.sleb128 78
 1832 01fa 0B       		.uleb128 0xb
 1833 01fb 13100000 		.4byte	.LASF62
 1834 01ff CF00     		.sleb128 79
 1835 0201 0B       		.uleb128 0xb
ARM GAS  C:\Users\Petro\AppData\Local\Temp\ccfEn9K1.s 			page 58


 1836 0202 C5010000 		.4byte	.LASF63
 1837 0206 D000     		.sleb128 80
 1838 0208 0B       		.uleb128 0xb
 1839 0209 E5050000 		.4byte	.LASF64
 1840 020d D100     		.sleb128 81
 1841 020f 0B       		.uleb128 0xb
 1842 0210 B80D0000 		.4byte	.LASF65
 1843 0214 D200     		.sleb128 82
 1844 0216 0B       		.uleb128 0xb
 1845 0217 910F0000 		.4byte	.LASF66
 1846 021b D300     		.sleb128 83
 1847 021d 0B       		.uleb128 0xb
 1848 021e 5C100000 		.4byte	.LASF67
 1849 0222 D400     		.sleb128 84
 1850 0224 0B       		.uleb128 0xb
 1851 0225 0E090000 		.4byte	.LASF68
 1852 0229 D500     		.sleb128 85
 1853 022b 0B       		.uleb128 0xb
 1854 022c DB070000 		.4byte	.LASF69
 1855 0230 D600     		.sleb128 86
 1856 0232 0B       		.uleb128 0xb
 1857 0233 74110000 		.4byte	.LASF70
 1858 0237 D700     		.sleb128 87
 1859 0239 0B       		.uleb128 0xb
 1860 023a B8070000 		.4byte	.LASF71
 1861 023e D800     		.sleb128 88
 1862 0240 0B       		.uleb128 0xb
 1863 0241 0D070000 		.4byte	.LASF72
 1864 0245 F000     		.sleb128 112
 1865 0247 0B       		.uleb128 0xb
 1866 0248 C7150000 		.4byte	.LASF73
 1867 024c F100     		.sleb128 113
 1868 024e 0B       		.uleb128 0xb
 1869 024f 15050000 		.4byte	.LASF74
 1870 0253 F200     		.sleb128 114
 1871 0255 0B       		.uleb128 0xb
 1872 0256 9A0E0000 		.4byte	.LASF75
 1873 025a F300     		.sleb128 115
 1874 025c 0B       		.uleb128 0xb
 1875 025d 0D0E0000 		.4byte	.LASF76
 1876 0261 F400     		.sleb128 116
 1877 0263 0B       		.uleb128 0xb
 1878 0264 2A060000 		.4byte	.LASF77
 1879 0268 F500     		.sleb128 117
 1880 026a 0B       		.uleb128 0xb
 1881 026b 29010000 		.4byte	.LASF78
 1882 026f F600     		.sleb128 118
 1883 0271 0B       		.uleb128 0xb
 1884 0272 53000000 		.4byte	.LASF79
 1885 0276 F700     		.sleb128 119
 1886 0278 0B       		.uleb128 0xb
 1887 0279 00000000 		.4byte	.LASF80
 1888 027d F800     		.sleb128 120
 1889 027f 0B       		.uleb128 0xb
 1890 0280 820B0000 		.4byte	.LASF81
 1891 0284 F900     		.sleb128 121
 1892 0286 0B       		.uleb128 0xb
ARM GAS  C:\Users\Petro\AppData\Local\Temp\ccfEn9K1.s 			page 59


 1893 0287 52070000 		.4byte	.LASF82
 1894 028b FA00     		.sleb128 122
 1895 028d 0B       		.uleb128 0xb
 1896 028e 9E150000 		.4byte	.LASF83
 1897 0292 FA01     		.sleb128 250
 1898 0294 0B       		.uleb128 0xb
 1899 0295 31080000 		.4byte	.LASF84
 1900 0299 FB01     		.sleb128 251
 1901 029b 0B       		.uleb128 0xb
 1902 029c D6060000 		.4byte	.LASF85
 1903 02a0 FF01     		.sleb128 255
 1904 02a2 00       		.byte	0
 1905 02a3 0A       		.uleb128 0xa
 1906 02a4 02       		.byte	0x2
 1907 02a5 03       		.byte	0x3
 1908 02a6 D203     		.2byte	0x3d2
 1909 02a8 73030000 		.4byte	0x373
 1910 02ac 0B       		.uleb128 0xb
 1911 02ad E4060000 		.4byte	.LASF86
 1912 02b1 00       		.sleb128 0
 1913 02b2 0B       		.uleb128 0xb
 1914 02b3 4B060000 		.4byte	.LASF87
 1915 02b7 01       		.sleb128 1
 1916 02b8 0B       		.uleb128 0xb
 1917 02b9 B9120000 		.4byte	.LASF88
 1918 02bd 02       		.sleb128 2
 1919 02be 0B       		.uleb128 0xb
 1920 02bf 98000000 		.4byte	.LASF89
 1921 02c3 03       		.sleb128 3
 1922 02c4 0B       		.uleb128 0xb
 1923 02c5 C7020000 		.4byte	.LASF90
 1924 02c9 04       		.sleb128 4
 1925 02ca 0B       		.uleb128 0xb
 1926 02cb 13080000 		.4byte	.LASF91
 1927 02cf 05       		.sleb128 5
 1928 02d0 0B       		.uleb128 0xb
 1929 02d1 C70F0000 		.4byte	.LASF92
 1930 02d5 06       		.sleb128 6
 1931 02d6 0B       		.uleb128 0xb
 1932 02d7 78040000 		.4byte	.LASF93
 1933 02db 07       		.sleb128 7
 1934 02dc 0B       		.uleb128 0xb
 1935 02dd 7D100000 		.4byte	.LASF94
 1936 02e1 08       		.sleb128 8
 1937 02e2 0B       		.uleb128 0xb
 1938 02e3 35150000 		.4byte	.LASF95
 1939 02e7 09       		.sleb128 9
 1940 02e8 0B       		.uleb128 0xb
 1941 02e9 D20E0000 		.4byte	.LASF96
 1942 02ed 0A       		.sleb128 10
 1943 02ee 0B       		.uleb128 0xb
 1944 02ef 0D110000 		.4byte	.LASF97
 1945 02f3 0B       		.sleb128 11
 1946 02f4 0B       		.uleb128 0xb
 1947 02f5 97030000 		.4byte	.LASF98
 1948 02f9 0C       		.sleb128 12
 1949 02fa 0B       		.uleb128 0xb
ARM GAS  C:\Users\Petro\AppData\Local\Temp\ccfEn9K1.s 			page 60


 1950 02fb A2020000 		.4byte	.LASF99
 1951 02ff 0D       		.sleb128 13
 1952 0300 0B       		.uleb128 0xb
 1953 0301 73080000 		.4byte	.LASF100
 1954 0305 0E       		.sleb128 14
 1955 0306 0B       		.uleb128 0xb
 1956 0307 09140000 		.4byte	.LASF101
 1957 030b 0F       		.sleb128 15
 1958 030c 0B       		.uleb128 0xb
 1959 030d 01120000 		.4byte	.LASF102
 1960 0311 10       		.sleb128 16
 1961 0312 0B       		.uleb128 0xb
 1962 0313 AE030000 		.4byte	.LASF103
 1963 0317 11       		.sleb128 17
 1964 0318 0B       		.uleb128 0xb
 1965 0319 85050000 		.4byte	.LASF104
 1966 031d 12       		.sleb128 18
 1967 031e 0B       		.uleb128 0xb
 1968 031f 65160000 		.4byte	.LASF105
 1969 0323 13       		.sleb128 19
 1970 0324 0B       		.uleb128 0xb
 1971 0325 56040000 		.4byte	.LASF106
 1972 0329 27       		.sleb128 39
 1973 032a 0B       		.uleb128 0xb
 1974 032b DC110000 		.4byte	.LASF107
 1975 032f 28       		.sleb128 40
 1976 0330 0B       		.uleb128 0xb
 1977 0331 D4130000 		.4byte	.LASF108
 1978 0335 29       		.sleb128 41
 1979 0336 0B       		.uleb128 0xb
 1980 0337 5D020000 		.4byte	.LASF109
 1981 033b 2A       		.sleb128 42
 1982 033c 0B       		.uleb128 0xb
 1983 033d 4A010000 		.4byte	.LASF110
 1984 0341 2B       		.sleb128 43
 1985 0342 0B       		.uleb128 0xb
 1986 0343 5C0C0000 		.4byte	.LASF111
 1987 0347 2C       		.sleb128 44
 1988 0348 0B       		.uleb128 0xb
 1989 0349 E4000000 		.4byte	.LASF112
 1990 034d FE01     		.sleb128 254
 1991 034f 0B       		.uleb128 0xb
 1992 0350 4C0C0000 		.4byte	.LASF113
 1993 0354 FF01     		.sleb128 255
 1994 0356 0B       		.uleb128 0xb
 1995 0357 97090000 		.4byte	.LASF114
 1996 035b 8002     		.sleb128 256
 1997 035d 0B       		.uleb128 0xb
 1998 035e D90D0000 		.4byte	.LASF115
 1999 0362 8102     		.sleb128 257
 2000 0364 0B       		.uleb128 0xb
 2001 0365 640F0000 		.4byte	.LASF116
 2002 0369 8202     		.sleb128 258
 2003 036b 0B       		.uleb128 0xb
 2004 036c B80E0000 		.4byte	.LASF117
 2005 0370 8302     		.sleb128 259
 2006 0372 00       		.byte	0
ARM GAS  C:\Users\Petro\AppData\Local\Temp\ccfEn9K1.s 			page 61


 2007 0373 04       		.uleb128 0x4
 2008 0374 9A0D0000 		.4byte	.LASF118
 2009 0378 03       		.byte	0x3
 2010 0379 3E04     		.2byte	0x43e
 2011 037b A3020000 		.4byte	0x2a3
 2012 037f 0C       		.uleb128 0xc
 2013 0380 07       		.byte	0x7
 2014 0381 03       		.byte	0x3
 2015 0382 0C05     		.2byte	0x50c
 2016 0384 A3030000 		.4byte	0x3a3
 2017 0388 0D       		.uleb128 0xd
 2018 0389 44130000 		.4byte	.LASF119
 2019 038d 03       		.byte	0x3
 2020 038e 0F05     		.2byte	0x50f
 2021 0390 A3030000 		.4byte	0x3a3
 2022 0394 00       		.byte	0
 2023 0395 0D       		.uleb128 0xd
 2024 0396 33020000 		.4byte	.LASF120
 2025 039a 03       		.byte	0x3
 2026 039b 1105     		.2byte	0x511
 2027 039d 6B000000 		.4byte	0x6b
 2028 03a1 06       		.byte	0x6
 2029 03a2 00       		.byte	0
 2030 03a3 0E       		.uleb128 0xe
 2031 03a4 6B000000 		.4byte	0x6b
 2032 03a8 B3030000 		.4byte	0x3b3
 2033 03ac 0F       		.uleb128 0xf
 2034 03ad B5000000 		.4byte	0xb5
 2035 03b1 05       		.byte	0x5
 2036 03b2 00       		.byte	0
 2037 03b3 04       		.uleb128 0x4
 2038 03b4 83030000 		.4byte	.LASF121
 2039 03b8 03       		.byte	0x3
 2040 03b9 1205     		.2byte	0x512
 2041 03bb 7F030000 		.4byte	0x37f
 2042 03bf 0C       		.uleb128 0xc
 2043 03c0 04       		.byte	0x4
 2044 03c1 03       		.byte	0x3
 2045 03c2 1C05     		.2byte	0x51c
 2046 03c4 E3030000 		.4byte	0x3e3
 2047 03c8 0D       		.uleb128 0xd
 2048 03c9 4F110000 		.4byte	.LASF122
 2049 03cd 03       		.byte	0x3
 2050 03ce 1F05     		.2byte	0x51f
 2051 03d0 77000000 		.4byte	0x77
 2052 03d4 00       		.byte	0
 2053 03d5 0D       		.uleb128 0xd
 2054 03d6 75090000 		.4byte	.LASF123
 2055 03da 03       		.byte	0x3
 2056 03db 2105     		.2byte	0x521
 2057 03dd 6B000000 		.4byte	0x6b
 2058 03e1 02       		.byte	0x2
 2059 03e2 00       		.byte	0
 2060 03e3 04       		.uleb128 0x4
 2061 03e4 5A0B0000 		.4byte	.LASF124
 2062 03e8 03       		.byte	0x3
 2063 03e9 2205     		.2byte	0x522
ARM GAS  C:\Users\Petro\AppData\Local\Temp\ccfEn9K1.s 			page 62


 2064 03eb BF030000 		.4byte	0x3bf
 2065 03ef 0C       		.uleb128 0xc
 2066 03f0 06       		.byte	0x6
 2067 03f1 03       		.byte	0x3
 2068 03f2 2605     		.2byte	0x526
 2069 03f4 20040000 		.4byte	0x420
 2070 03f8 0D       		.uleb128 0xd
 2071 03f9 EA020000 		.4byte	.LASF125
 2072 03fd 03       		.byte	0x3
 2073 03fe 2905     		.2byte	0x529
 2074 0400 77000000 		.4byte	0x77
 2075 0404 00       		.byte	0
 2076 0405 0D       		.uleb128 0xd
 2077 0406 72050000 		.4byte	.LASF126
 2078 040a 03       		.byte	0x3
 2079 040b 2C05     		.2byte	0x52c
 2080 040d 77000000 		.4byte	0x77
 2081 0411 02       		.byte	0x2
 2082 0412 0D       		.uleb128 0xd
 2083 0413 810A0000 		.4byte	.LASF127
 2084 0417 03       		.byte	0x3
 2085 0418 2F05     		.2byte	0x52f
 2086 041a 6B000000 		.4byte	0x6b
 2087 041e 04       		.byte	0x4
 2088 041f 00       		.byte	0
 2089 0420 04       		.uleb128 0x4
 2090 0421 F0130000 		.4byte	.LASF128
 2091 0425 03       		.byte	0x3
 2092 0426 3005     		.2byte	0x530
 2093 0428 EF030000 		.4byte	0x3ef
 2094 042c 0C       		.uleb128 0xc
 2095 042d 01       		.byte	0x1
 2096 042e 03       		.byte	0x3
 2097 042f 3305     		.2byte	0x533
 2098 0431 43040000 		.4byte	0x443
 2099 0435 0D       		.uleb128 0xd
 2100 0436 8D160000 		.4byte	.LASF129
 2101 043a 03       		.byte	0x3
 2102 043b 3605     		.2byte	0x536
 2103 043d 6B000000 		.4byte	0x6b
 2104 0441 00       		.byte	0
 2105 0442 00       		.byte	0
 2106 0443 04       		.uleb128 0x4
 2107 0444 7A020000 		.4byte	.LASF130
 2108 0448 03       		.byte	0x3
 2109 0449 3705     		.2byte	0x537
 2110 044b 2C040000 		.4byte	0x42c
 2111 044f 0C       		.uleb128 0xc
 2112 0450 0C       		.byte	0xc
 2113 0451 03       		.byte	0x3
 2114 0452 3D05     		.2byte	0x53d
 2115 0454 80040000 		.4byte	0x480
 2116 0458 0D       		.uleb128 0xd
 2117 0459 4A150000 		.4byte	.LASF131
 2118 045d 03       		.byte	0x3
 2119 045e 4005     		.2byte	0x540
 2120 0460 80040000 		.4byte	0x480
ARM GAS  C:\Users\Petro\AppData\Local\Temp\ccfEn9K1.s 			page 63


 2121 0464 00       		.byte	0
 2122 0465 0D       		.uleb128 0xd
 2123 0466 D7120000 		.4byte	.LASF132
 2124 046a 03       		.byte	0x3
 2125 046b 4305     		.2byte	0x543
 2126 046d 86040000 		.4byte	0x486
 2127 0471 04       		.byte	0x4
 2128 0472 0D       		.uleb128 0xd
 2129 0473 4F100000 		.4byte	.LASF133
 2130 0477 03       		.byte	0x3
 2131 0478 4905     		.2byte	0x549
 2132 047a 77000000 		.4byte	0x77
 2133 047e 08       		.byte	0x8
 2134 047f 00       		.byte	0
 2135 0480 07       		.uleb128 0x7
 2136 0481 04       		.byte	0x4
 2137 0482 20040000 		.4byte	0x420
 2138 0486 07       		.uleb128 0x7
 2139 0487 04       		.byte	0x4
 2140 0488 43040000 		.4byte	0x443
 2141 048c 04       		.uleb128 0x4
 2142 048d 2F120000 		.4byte	.LASF134
 2143 0491 03       		.byte	0x3
 2144 0492 4A05     		.2byte	0x54a
 2145 0494 4F040000 		.4byte	0x44f
 2146 0498 07       		.uleb128 0x7
 2147 0499 04       		.byte	0x4
 2148 049a 6B000000 		.4byte	0x6b
 2149 049e 0C       		.uleb128 0xc
 2150 049f 0C       		.byte	0xc
 2151 04a0 04       		.byte	0x4
 2152 04a1 7C02     		.2byte	0x27c
 2153 04a3 10050000 		.4byte	0x510
 2154 04a7 0D       		.uleb128 0xd
 2155 04a8 DC040000 		.4byte	.LASF135
 2156 04ac 04       		.byte	0x4
 2157 04ad 8302     		.2byte	0x283
 2158 04af 6B000000 		.4byte	0x6b
 2159 04b3 00       		.byte	0
 2160 04b4 0D       		.uleb128 0xd
 2161 04b5 D2030000 		.4byte	.LASF136
 2162 04b9 04       		.byte	0x4
 2163 04ba 8902     		.2byte	0x289
 2164 04bc 6B000000 		.4byte	0x6b
 2165 04c0 01       		.byte	0x1
 2166 04c1 0D       		.uleb128 0xd
 2167 04c2 59130000 		.4byte	.LASF137
 2168 04c6 04       		.byte	0x4
 2169 04c7 8F02     		.2byte	0x28f
 2170 04c9 77000000 		.4byte	0x77
 2171 04cd 02       		.byte	0x2
 2172 04ce 0D       		.uleb128 0xd
 2173 04cf 78030000 		.4byte	.LASF138
 2174 04d3 04       		.byte	0x4
 2175 04d4 9402     		.2byte	0x294
 2176 04d6 77000000 		.4byte	0x77
 2177 04da 04       		.byte	0x4
ARM GAS  C:\Users\Petro\AppData\Local\Temp\ccfEn9K1.s 			page 64


 2178 04db 0D       		.uleb128 0xd
 2179 04dc C40C0000 		.4byte	.LASF139
 2180 04e0 04       		.byte	0x4
 2181 04e1 9C02     		.2byte	0x29c
 2182 04e3 6B000000 		.4byte	0x6b
 2183 04e7 06       		.byte	0x6
 2184 04e8 0D       		.uleb128 0xd
 2185 04e9 45040000 		.4byte	.LASF140
 2186 04ed 04       		.byte	0x4
 2187 04ee A402     		.2byte	0x2a4
 2188 04f0 6B000000 		.4byte	0x6b
 2189 04f4 07       		.byte	0x7
 2190 04f5 0D       		.uleb128 0xd
 2191 04f6 9B020000 		.4byte	.LASF141
 2192 04fa 04       		.byte	0x4
 2193 04fb AA02     		.2byte	0x2aa
 2194 04fd 77000000 		.4byte	0x77
 2195 0501 08       		.byte	0x8
 2196 0502 0D       		.uleb128 0xd
 2197 0503 710E0000 		.4byte	.LASF142
 2198 0507 04       		.byte	0x4
 2199 0508 B402     		.2byte	0x2b4
 2200 050a 6B000000 		.4byte	0x6b
 2201 050e 0A       		.byte	0xa
 2202 050f 00       		.byte	0
 2203 0510 04       		.uleb128 0x4
 2204 0511 E10F0000 		.4byte	.LASF143
 2205 0515 04       		.byte	0x4
 2206 0516 B602     		.2byte	0x2b6
 2207 0518 9E040000 		.4byte	0x49e
 2208 051c 0C       		.uleb128 0xc
 2209 051d 1A       		.byte	0x1a
 2210 051e 04       		.byte	0x4
 2211 051f B902     		.2byte	0x2b9
 2212 0521 C2050000 		.4byte	0x5c2
 2213 0525 0D       		.uleb128 0xd
 2214 0526 59130000 		.4byte	.LASF137
 2215 052a 04       		.byte	0x4
 2216 052b BF02     		.2byte	0x2bf
 2217 052d 77000000 		.4byte	0x77
 2218 0531 00       		.byte	0
 2219 0532 0D       		.uleb128 0xd
 2220 0533 78030000 		.4byte	.LASF138
 2221 0537 04       		.byte	0x4
 2222 0538 C402     		.2byte	0x2c4
 2223 053a 77000000 		.4byte	0x77
 2224 053e 02       		.byte	0x2
 2225 053f 0D       		.uleb128 0xd
 2226 0540 81090000 		.4byte	.LASF144
 2227 0544 04       		.byte	0x4
 2228 0545 CC02     		.2byte	0x2cc
 2229 0547 6B000000 		.4byte	0x6b
 2230 054b 04       		.byte	0x4
 2231 054c 0D       		.uleb128 0xd
 2232 054d DA050000 		.4byte	.LASF145
 2233 0551 04       		.byte	0x4
 2234 0552 CF02     		.2byte	0x2cf
ARM GAS  C:\Users\Petro\AppData\Local\Temp\ccfEn9K1.s 			page 65


 2235 0554 A3030000 		.4byte	0x3a3
 2236 0558 05       		.byte	0x5
 2237 0559 0D       		.uleb128 0xd
 2238 055a 5E0E0000 		.4byte	.LASF146
 2239 055e 04       		.byte	0x4
 2240 055f D702     		.2byte	0x2d7
 2241 0561 6B000000 		.4byte	0x6b
 2242 0565 0B       		.byte	0xb
 2243 0566 0D       		.uleb128 0xd
 2244 0567 C40C0000 		.4byte	.LASF139
 2245 056b 04       		.byte	0x4
 2246 056c DF02     		.2byte	0x2df
 2247 056e 6B000000 		.4byte	0x6b
 2248 0572 0C       		.byte	0xc
 2249 0573 0D       		.uleb128 0xd
 2250 0574 520E0000 		.4byte	.LASF147
 2251 0578 04       		.byte	0x4
 2252 0579 E602     		.2byte	0x2e6
 2253 057b 77000000 		.4byte	0x77
 2254 057f 0E       		.byte	0xe
 2255 0580 0D       		.uleb128 0xd
 2256 0581 F80F0000 		.4byte	.LASF148
 2257 0585 04       		.byte	0x4
 2258 0586 ED02     		.2byte	0x2ed
 2259 0588 77000000 		.4byte	0x77
 2260 058c 10       		.byte	0x10
 2261 058d 0D       		.uleb128 0xd
 2262 058e 400C0000 		.4byte	.LASF149
 2263 0592 04       		.byte	0x4
 2264 0593 F202     		.2byte	0x2f2
 2265 0595 77000000 		.4byte	0x77
 2266 0599 12       		.byte	0x12
 2267 059a 0D       		.uleb128 0xd
 2268 059b 4B130000 		.4byte	.LASF150
 2269 059f 04       		.byte	0x4
 2270 05a0 F802     		.2byte	0x2f8
 2271 05a2 77000000 		.4byte	0x77
 2272 05a6 14       		.byte	0x14
 2273 05a7 0D       		.uleb128 0xd
 2274 05a8 D0040000 		.4byte	.LASF151
 2275 05ac 04       		.byte	0x4
 2276 05ad FD02     		.2byte	0x2fd
 2277 05af 77000000 		.4byte	0x77
 2278 05b3 16       		.byte	0x16
 2279 05b4 0D       		.uleb128 0xd
 2280 05b5 89150000 		.4byte	.LASF152
 2281 05b9 04       		.byte	0x4
 2282 05ba 0203     		.2byte	0x302
 2283 05bc 77000000 		.4byte	0x77
 2284 05c0 18       		.byte	0x18
 2285 05c1 00       		.byte	0
 2286 05c2 04       		.uleb128 0x4
 2287 05c3 BD0A0000 		.4byte	.LASF153
 2288 05c7 04       		.byte	0x4
 2289 05c8 0403     		.2byte	0x304
 2290 05ca 1C050000 		.4byte	0x51c
 2291 05ce 0C       		.uleb128 0xc
ARM GAS  C:\Users\Petro\AppData\Local\Temp\ccfEn9K1.s 			page 66


 2292 05cf 02       		.byte	0x2
 2293 05d0 05       		.byte	0x5
 2294 05d1 8E01     		.2byte	0x18e
 2295 05d3 F2050000 		.4byte	0x5f2
 2296 05d7 0D       		.uleb128 0xd
 2297 05d8 95150000 		.4byte	.LASF154
 2298 05dc 05       		.byte	0x5
 2299 05dd 9501     		.2byte	0x195
 2300 05df 6B000000 		.4byte	0x6b
 2301 05e3 00       		.byte	0
 2302 05e4 0D       		.uleb128 0xd
 2303 05e5 740B0000 		.4byte	.LASF155
 2304 05e9 05       		.byte	0x5
 2305 05ea 9B01     		.2byte	0x19b
 2306 05ec 6B000000 		.4byte	0x6b
 2307 05f0 01       		.byte	0x1
 2308 05f1 00       		.byte	0
 2309 05f2 04       		.uleb128 0x4
 2310 05f3 72000000 		.4byte	.LASF156
 2311 05f7 05       		.byte	0x5
 2312 05f8 9D01     		.2byte	0x19d
 2313 05fa CE050000 		.4byte	0x5ce
 2314 05fe 10       		.uleb128 0x10
 2315 05ff 08       		.byte	0x8
 2316 0600 06       		.byte	0x6
 2317 0601 C6       		.byte	0xc6
 2318 0602 1F060000 		.4byte	0x61f
 2319 0606 11       		.uleb128 0x11
 2320 0607 9E0C0000 		.4byte	.LASF157
 2321 060b 06       		.byte	0x6
 2322 060c C9       		.byte	0xc9
 2323 060d 77000000 		.4byte	0x77
 2324 0611 00       		.byte	0
 2325 0612 11       		.uleb128 0x11
 2326 0613 FF0D0000 		.4byte	.LASF158
 2327 0617 06       		.byte	0x6
 2328 0618 CE       		.byte	0xce
 2329 0619 BC000000 		.4byte	0xbc
 2330 061d 04       		.byte	0x4
 2331 061e 00       		.byte	0
 2332 061f 12       		.uleb128 0x12
 2333 0620 11160000 		.4byte	.LASF159
 2334 0624 06       		.byte	0x6
 2335 0625 D0       		.byte	0xd0
 2336 0626 FE050000 		.4byte	0x5fe
 2337 062a 10       		.uleb128 0x10
 2338 062b 08       		.byte	0x8
 2339 062c 06       		.byte	0x6
 2340 062d D3       		.byte	0xd3
 2341 062e 4B060000 		.4byte	0x64b
 2342 0632 11       		.uleb128 0x11
 2343 0633 620A0000 		.4byte	.LASF160
 2344 0637 06       		.byte	0x6
 2345 0638 D6       		.byte	0xd6
 2346 0639 77000000 		.4byte	0x77
 2347 063d 00       		.byte	0
 2348 063e 11       		.uleb128 0x11
ARM GAS  C:\Users\Petro\AppData\Local\Temp\ccfEn9K1.s 			page 67


 2349 063f A3130000 		.4byte	.LASF161
 2350 0643 06       		.byte	0x6
 2351 0644 DB       		.byte	0xdb
 2352 0645 4B060000 		.4byte	0x64b
 2353 0649 04       		.byte	0x4
 2354 064a 00       		.byte	0
 2355 064b 07       		.uleb128 0x7
 2356 064c 04       		.byte	0x4
 2357 064d 1F060000 		.4byte	0x61f
 2358 0651 12       		.uleb128 0x12
 2359 0652 04060000 		.4byte	.LASF162
 2360 0656 06       		.byte	0x6
 2361 0657 DD       		.byte	0xdd
 2362 0658 2A060000 		.4byte	0x62a
 2363 065c 13       		.uleb128 0x13
 2364 065d 08       		.byte	0x8
 2365 065e 06       		.byte	0x6
 2366 065f E0       		.byte	0xe0
 2367 0660 7B060000 		.4byte	0x67b
 2368 0664 14       		.uleb128 0x14
 2369 0665 4B090000 		.4byte	.LASF163
 2370 0669 06       		.byte	0x6
 2371 066a E7       		.byte	0xe7
 2372 066b 51060000 		.4byte	0x651
 2373 066f 14       		.uleb128 0x14
 2374 0670 F20D0000 		.4byte	.LASF164
 2375 0674 06       		.byte	0x6
 2376 0675 EA       		.byte	0xea
 2377 0676 77000000 		.4byte	0x77
 2378 067a 00       		.byte	0
 2379 067b 12       		.uleb128 0x12
 2380 067c 77060000 		.4byte	.LASF165
 2381 0680 06       		.byte	0x6
 2382 0681 EC       		.byte	0xec
 2383 0682 5C060000 		.4byte	0x65c
 2384 0686 10       		.uleb128 0x10
 2385 0687 14       		.byte	0x14
 2386 0688 06       		.byte	0x6
 2387 0689 EF       		.byte	0xef
 2388 068a CE060000 		.4byte	0x6ce
 2389 068e 11       		.uleb128 0x11
 2390 068f A4060000 		.4byte	.LASF166
 2391 0693 06       		.byte	0x6
 2392 0694 F2       		.byte	0xf2
 2393 0695 77000000 		.4byte	0x77
 2394 0699 00       		.byte	0
 2395 069a 11       		.uleb128 0x11
 2396 069b 76070000 		.4byte	.LASF167
 2397 069f 06       		.byte	0x6
 2398 06a0 F8       		.byte	0xf8
 2399 06a1 77000000 		.4byte	0x77
 2400 06a5 02       		.byte	0x2
 2401 06a6 0D       		.uleb128 0xd
 2402 06a7 AC040000 		.4byte	.LASF168
 2403 06ab 06       		.byte	0x6
 2404 06ac 0301     		.2byte	0x103
 2405 06ae 83000000 		.4byte	0x83
ARM GAS  C:\Users\Petro\AppData\Local\Temp\ccfEn9K1.s 			page 68


 2406 06b2 04       		.byte	0x4
 2407 06b3 0D       		.uleb128 0xd
 2408 06b4 67110000 		.4byte	.LASF169
 2409 06b8 06       		.byte	0x6
 2410 06b9 0601     		.2byte	0x106
 2411 06bb 77000000 		.4byte	0x77
 2412 06bf 08       		.byte	0x8
 2413 06c0 0D       		.uleb128 0xd
 2414 06c1 F90E0000 		.4byte	.LASF170
 2415 06c5 06       		.byte	0x6
 2416 06c6 0F01     		.2byte	0x10f
 2417 06c8 7B060000 		.4byte	0x67b
 2418 06cc 0C       		.byte	0xc
 2419 06cd 00       		.byte	0
 2420 06ce 04       		.uleb128 0x4
 2421 06cf 99120000 		.4byte	.LASF171
 2422 06d3 06       		.byte	0x6
 2423 06d4 1001     		.2byte	0x110
 2424 06d6 86060000 		.4byte	0x686
 2425 06da 04       		.uleb128 0x4
 2426 06db FC120000 		.4byte	.LASF172
 2427 06df 07       		.byte	0x7
 2428 06e0 E401     		.2byte	0x1e4
 2429 06e2 BE000000 		.4byte	0xbe
 2430 06e6 15       		.uleb128 0x15
 2431 06e7 9902     		.2byte	0x299
 2432 06e9 08       		.byte	0x8
 2433 06ea 9C       		.byte	0x9c
 2434 06eb 23070000 		.4byte	0x723
 2435 06ef 11       		.uleb128 0x11
 2436 06f0 69060000 		.4byte	.LASF173
 2437 06f4 08       		.byte	0x8
 2438 06f5 9F       		.byte	0x9f
 2439 06f6 23070000 		.4byte	0x723
 2440 06fa 00       		.byte	0
 2441 06fb 16       		.uleb128 0x16
 2442 06fc E00A0000 		.4byte	.LASF174
 2443 0700 08       		.byte	0x8
 2444 0701 A2       		.byte	0xa2
 2445 0702 34070000 		.4byte	0x734
 2446 0706 7902     		.2byte	0x279
 2447 0708 16       		.uleb128 0x16
 2448 0709 38020000 		.4byte	.LASF175
 2449 070d 08       		.byte	0x8
 2450 070e A5       		.byte	0xa5
 2451 070f 6B000000 		.4byte	0x6b
 2452 0713 9702     		.2byte	0x297
 2453 0715 16       		.uleb128 0x16
 2454 0716 4E0D0000 		.4byte	.LASF176
 2455 071a 08       		.byte	0x8
 2456 071b A8       		.byte	0xa8
 2457 071c 6B000000 		.4byte	0x6b
 2458 0720 9802     		.2byte	0x298
 2459 0722 00       		.byte	0
 2460 0723 0E       		.uleb128 0xe
 2461 0724 6B000000 		.4byte	0x6b
 2462 0728 34070000 		.4byte	0x734
ARM GAS  C:\Users\Petro\AppData\Local\Temp\ccfEn9K1.s 			page 69


 2463 072c 17       		.uleb128 0x17
 2464 072d B5000000 		.4byte	0xb5
 2465 0731 7802     		.2byte	0x278
 2466 0733 00       		.byte	0
 2467 0734 0E       		.uleb128 0xe
 2468 0735 6B000000 		.4byte	0x6b
 2469 0739 4A070000 		.4byte	0x74a
 2470 073d 0F       		.uleb128 0xf
 2471 073e B5000000 		.4byte	0xb5
 2472 0742 04       		.byte	0x4
 2473 0743 0F       		.uleb128 0xf
 2474 0744 B5000000 		.4byte	0xb5
 2475 0748 05       		.byte	0x5
 2476 0749 00       		.byte	0
 2477 074a 12       		.uleb128 0x12
 2478 074b 62130000 		.4byte	.LASF177
 2479 074f 08       		.byte	0x8
 2480 0750 A9       		.byte	0xa9
 2481 0751 E6060000 		.4byte	0x6e6
 2482 0755 18       		.uleb128 0x18
 2483 0756 01       		.byte	0x1
 2484 0757 09       		.byte	0x9
 2485 0758 23       		.byte	0x23
 2486 0759 82070000 		.4byte	0x782
 2487 075d 0B       		.uleb128 0xb
 2488 075e 56030000 		.4byte	.LASF178
 2489 0762 00       		.sleb128 0
 2490 0763 0B       		.uleb128 0xb
 2491 0764 F90A0000 		.4byte	.LASF179
 2492 0768 01       		.sleb128 1
 2493 0769 0B       		.uleb128 0xb
 2494 076a B7110000 		.4byte	.LASF180
 2495 076e 02       		.sleb128 2
 2496 076f 0B       		.uleb128 0xb
 2497 0770 4A120000 		.4byte	.LASF181
 2498 0774 03       		.sleb128 3
 2499 0775 0B       		.uleb128 0xb
 2500 0776 5E140000 		.4byte	.LASF182
 2501 077a 04       		.sleb128 4
 2502 077b 0B       		.uleb128 0xb
 2503 077c 8F060000 		.4byte	.LASF183
 2504 0780 05       		.sleb128 5
 2505 0781 00       		.byte	0
 2506 0782 18       		.uleb128 0x18
 2507 0783 01       		.byte	0x1
 2508 0784 09       		.byte	0x9
 2509 0785 2E       		.byte	0x2e
 2510 0786 97070000 		.4byte	0x797
 2511 078a 0B       		.uleb128 0xb
 2512 078b AA120000 		.4byte	.LASF184
 2513 078f 00       		.sleb128 0
 2514 0790 0B       		.uleb128 0xb
 2515 0791 5E0D0000 		.4byte	.LASF185
 2516 0795 01       		.sleb128 1
 2517 0796 00       		.byte	0
 2518 0797 0A       		.uleb128 0xa
 2519 0798 01       		.byte	0x1
ARM GAS  C:\Users\Petro\AppData\Local\Temp\ccfEn9K1.s 			page 70


 2520 0799 0A       		.byte	0xa
 2521 079a F607     		.2byte	0x7f6
 2522 079c C5070000 		.4byte	0x7c5
 2523 07a0 0B       		.uleb128 0xb
 2524 07a1 3F000000 		.4byte	.LASF186
 2525 07a5 00       		.sleb128 0
 2526 07a6 0B       		.uleb128 0xb
 2527 07a7 AB0C0000 		.4byte	.LASF187
 2528 07ab 01       		.sleb128 1
 2529 07ac 0B       		.uleb128 0xb
 2530 07ad 48140000 		.4byte	.LASF188
 2531 07b1 02       		.sleb128 2
 2532 07b2 0B       		.uleb128 0xb
 2533 07b3 CB100000 		.4byte	.LASF189
 2534 07b7 03       		.sleb128 3
 2535 07b8 0B       		.uleb128 0xb
 2536 07b9 4D0F0000 		.4byte	.LASF190
 2537 07bd 04       		.sleb128 4
 2538 07be 0B       		.uleb128 0xb
 2539 07bf 31050000 		.4byte	.LASF191
 2540 07c3 05       		.sleb128 5
 2541 07c4 00       		.byte	0
 2542 07c5 04       		.uleb128 0x4
 2543 07c6 77130000 		.4byte	.LASF192
 2544 07ca 0A       		.byte	0xa
 2545 07cb 0408     		.2byte	0x804
 2546 07cd 97070000 		.4byte	0x797
 2547 07d1 19       		.uleb128 0x19
 2548 07d2 BC150000 		.4byte	.LASF193
 2549 07d6 01       		.byte	0x1
 2550 07d7 7B       		.byte	0x7b
 2551 07d8 00000000 		.4byte	.LFB2
 2552 07dc 98000000 		.4byte	.LFE2-.LFB2
 2553 07e0 01       		.uleb128 0x1
 2554 07e1 9C       		.byte	0x9c
 2555 07e2 19       		.uleb128 0x19
 2556 07e3 50080000 		.4byte	.LASF194
 2557 07e7 01       		.byte	0x1
 2558 07e8 AC       		.byte	0xac
 2559 07e9 00000000 		.4byte	.LFB3
 2560 07ed 0C000000 		.4byte	.LFE3-.LFB3
 2561 07f1 01       		.uleb128 0x1
 2562 07f2 9C       		.byte	0x9c
 2563 07f3 1A       		.uleb128 0x1a
 2564 07f4 B10A0000 		.4byte	.LASF202
 2565 07f8 01       		.byte	0x1
 2566 07f9 7601     		.2byte	0x176
 2567 07fb 73030000 		.4byte	0x373
 2568 07ff 00000000 		.4byte	.LFB4
 2569 0803 34010000 		.4byte	.LFE4-.LFB4
 2570 0807 01       		.uleb128 0x1
 2571 0808 9C       		.byte	0x9c
 2572 0809 83080000 		.4byte	0x883
 2573 080d 1B       		.uleb128 0x1b
 2574 080e EC0E0000 		.4byte	.LASF204
 2575 0812 01       		.byte	0x1
 2576 0813 7601     		.2byte	0x176
ARM GAS  C:\Users\Petro\AppData\Local\Temp\ccfEn9K1.s 			page 71


 2577 0815 DA060000 		.4byte	0x6da
 2578 0819 03       		.uleb128 0x3
 2579 081a 91       		.byte	0x91
 2580 081b B47F     		.sleb128 -76
 2581 081d 1C       		.uleb128 0x1c
 2582 081e 900D0000 		.4byte	.LASF195
 2583 0822 01       		.byte	0x1
 2584 0823 7801     		.2byte	0x178
 2585 0825 73030000 		.4byte	0x373
 2586 0829 02       		.uleb128 0x2
 2587 082a 91       		.byte	0x91
 2588 082b 6E       		.sleb128 -18
 2589 082c 1C       		.uleb128 0x1c
 2590 082d B7100000 		.4byte	.LASF196
 2591 0831 01       		.byte	0x1
 2592 0832 7C01     		.2byte	0x17c
 2593 0834 83080000 		.4byte	0x883
 2594 0838 02       		.uleb128 0x2
 2595 0839 91       		.byte	0x91
 2596 083a 58       		.sleb128 -40
 2597 083b 1D       		.uleb128 0x1d
 2598 083c 4E000000 		.4byte	.LBB2
 2599 0840 54000000 		.4byte	.LBE2-.LBB2
 2600 0844 1C       		.uleb128 0x1c
 2601 0845 9C080000 		.4byte	.LASF197
 2602 0849 01       		.byte	0x1
 2603 084a 9E01     		.2byte	0x19e
 2604 084c 20040000 		.4byte	0x420
 2605 0850 02       		.uleb128 0x2
 2606 0851 91       		.byte	0x91
 2607 0852 50       		.sleb128 -48
 2608 0853 1C       		.uleb128 0x1c
 2609 0854 2B0E0000 		.4byte	.LASF198
 2610 0858 01       		.byte	0x1
 2611 0859 9F01     		.2byte	0x19f
 2612 085b 43040000 		.4byte	0x443
 2613 085f 02       		.uleb128 0x2
 2614 0860 91       		.byte	0x91
 2615 0861 4C       		.sleb128 -52
 2616 0862 1C       		.uleb128 0x1c
 2617 0863 B4130000 		.4byte	.LASF199
 2618 0867 01       		.byte	0x1
 2619 0868 A001     		.2byte	0x1a0
 2620 086a 8C040000 		.4byte	0x48c
 2621 086e 02       		.uleb128 0x2
 2622 086f 91       		.byte	0x91
 2623 0870 40       		.sleb128 -64
 2624 0871 1C       		.uleb128 0x1c
 2625 0872 04100000 		.4byte	.LASF200
 2626 0876 01       		.byte	0x1
 2627 0877 A101     		.2byte	0x1a1
 2628 0879 77000000 		.4byte	0x77
 2629 087d 03       		.uleb128 0x3
 2630 087e 91       		.byte	0x91
 2631 087f BE7F     		.sleb128 -66
 2632 0881 00       		.byte	0
 2633 0882 00       		.byte	0
ARM GAS  C:\Users\Petro\AppData\Local\Temp\ccfEn9K1.s 			page 72


 2634 0883 0E       		.uleb128 0xe
 2635 0884 E3030000 		.4byte	0x3e3
 2636 0888 93080000 		.4byte	0x893
 2637 088c 0F       		.uleb128 0xf
 2638 088d B5000000 		.4byte	0xb5
 2639 0891 04       		.byte	0x4
 2640 0892 00       		.byte	0
 2641 0893 1E       		.uleb128 0x1e
 2642 0894 AD0D0000 		.4byte	.LASF201
 2643 0898 01       		.byte	0x1
 2644 0899 F001     		.2byte	0x1f0
 2645 089b 00000000 		.4byte	.LFB5
 2646 089f 18000000 		.4byte	.LFE5-.LFB5
 2647 08a3 01       		.uleb128 0x1
 2648 08a4 9C       		.byte	0x9c
 2649 08a5 1A       		.uleb128 0x1a
 2650 08a6 E5120000 		.4byte	.LASF203
 2651 08aa 01       		.byte	0x1
 2652 08ab 2702     		.2byte	0x227
 2653 08ad 73030000 		.4byte	0x373
 2654 08b1 00000000 		.4byte	.LFB6
 2655 08b5 BC010000 		.4byte	.LFE6-.LFB6
 2656 08b9 01       		.uleb128 0x1
 2657 08ba 9C       		.byte	0x9c
 2658 08bb 14090000 		.4byte	0x914
 2659 08bf 1B       		.uleb128 0x1b
 2660 08c0 08050000 		.4byte	.LASF205
 2661 08c4 01       		.byte	0x1
 2662 08c5 2702     		.2byte	0x227
 2663 08c7 6B000000 		.4byte	0x6b
 2664 08cb 02       		.uleb128 0x2
 2665 08cc 91       		.byte	0x91
 2666 08cd 47       		.sleb128 -57
 2667 08ce 1C       		.uleb128 0x1c
 2668 08cf 900D0000 		.4byte	.LASF195
 2669 08d3 01       		.byte	0x1
 2670 08d4 2902     		.2byte	0x229
 2671 08d6 73030000 		.4byte	0x373
 2672 08da 02       		.uleb128 0x2
 2673 08db 91       		.byte	0x91
 2674 08dc 6E       		.sleb128 -18
 2675 08dd 1F       		.uleb128 0x1f
 2676 08de F8000000 		.4byte	.LBB3
 2677 08e2 42000000 		.4byte	.LBE3-.LBB3
 2678 08e6 FA080000 		.4byte	0x8fa
 2679 08ea 1C       		.uleb128 0x1c
 2680 08eb 86000000 		.4byte	.LASF206
 2681 08ef 01       		.byte	0x1
 2682 08f0 4D02     		.2byte	0x24d
 2683 08f2 34070000 		.4byte	0x734
 2684 08f6 02       		.uleb128 0x2
 2685 08f7 91       		.byte	0x91
 2686 08f8 50       		.sleb128 -48
 2687 08f9 00       		.byte	0
 2688 08fa 1D       		.uleb128 0x1d
 2689 08fb 3E010000 		.4byte	.LBB4
 2690 08ff 58000000 		.4byte	.LBE4-.LBB4
ARM GAS  C:\Users\Petro\AppData\Local\Temp\ccfEn9K1.s 			page 73


 2691 0903 1C       		.uleb128 0x1c
 2692 0904 86000000 		.4byte	.LASF206
 2693 0908 01       		.byte	0x1
 2694 0909 5A02     		.2byte	0x25a
 2695 090b A3030000 		.4byte	0x3a3
 2696 090f 02       		.uleb128 0x2
 2697 0910 91       		.byte	0x91
 2698 0911 48       		.sleb128 -56
 2699 0912 00       		.byte	0
 2700 0913 00       		.byte	0
 2701 0914 1A       		.uleb128 0x1a
 2702 0915 9B100000 		.4byte	.LASF207
 2703 0919 01       		.byte	0x1
 2704 091a 8902     		.2byte	0x289
 2705 091c 73030000 		.4byte	0x373
 2706 0920 00000000 		.4byte	.LFB7
 2707 0924 E8000000 		.4byte	.LFE7-.LFB7
 2708 0928 01       		.uleb128 0x1
 2709 0929 9C       		.byte	0x9c
 2710 092a 75090000 		.4byte	0x975
 2711 092e 1B       		.uleb128 0x1b
 2712 092f 44130000 		.4byte	.LASF119
 2713 0933 01       		.byte	0x1
 2714 0934 8902     		.2byte	0x289
 2715 0936 75090000 		.4byte	0x975
 2716 093a 02       		.uleb128 0x2
 2717 093b 91       		.byte	0x91
 2718 093c 5C       		.sleb128 -36
 2719 093d 1C       		.uleb128 0x1c
 2720 093e 900D0000 		.4byte	.LASF195
 2721 0942 01       		.byte	0x1
 2722 0943 8B02     		.2byte	0x28b
 2723 0945 73030000 		.4byte	0x373
 2724 0949 02       		.uleb128 0x2
 2725 094a 91       		.byte	0x91
 2726 094b 6E       		.sleb128 -18
 2727 094c 1D       		.uleb128 0x1d
 2728 094d 18000000 		.4byte	.LBB5
 2729 0951 AE000000 		.4byte	.LBE5-.LBB5
 2730 0955 1C       		.uleb128 0x1c
 2731 0956 D50A0000 		.4byte	.LASF208
 2732 095a 01       		.byte	0x1
 2733 095b 9202     		.2byte	0x292
 2734 095d 6B000000 		.4byte	0x6b
 2735 0961 02       		.uleb128 0x2
 2736 0962 91       		.byte	0x91
 2737 0963 6D       		.sleb128 -19
 2738 0964 1C       		.uleb128 0x1c
 2739 0965 C8060000 		.4byte	.LASF209
 2740 0969 01       		.byte	0x1
 2741 096a 9302     		.2byte	0x293
 2742 096c B3030000 		.4byte	0x3b3
 2743 0970 02       		.uleb128 0x2
 2744 0971 91       		.byte	0x91
 2745 0972 64       		.sleb128 -28
 2746 0973 00       		.byte	0
 2747 0974 00       		.byte	0
ARM GAS  C:\Users\Petro\AppData\Local\Temp\ccfEn9K1.s 			page 74


 2748 0975 07       		.uleb128 0x7
 2749 0976 04       		.byte	0x4
 2750 0977 B3030000 		.4byte	0x3b3
 2751 097b 1A       		.uleb128 0x1a
 2752 097c 12030000 		.4byte	.LASF210
 2753 0980 01       		.byte	0x1
 2754 0981 AB03     		.2byte	0x3ab
 2755 0983 73030000 		.4byte	0x373
 2756 0987 00000000 		.4byte	.LFB8
 2757 098b A4000000 		.4byte	.LFE8-.LFB8
 2758 098f 01       		.uleb128 0x1
 2759 0990 9C       		.byte	0x9c
 2760 0991 B4090000 		.4byte	0x9b4
 2761 0995 1B       		.uleb128 0x1b
 2762 0996 B20F0000 		.4byte	.LASF211
 2763 099a 01       		.byte	0x1
 2764 099b AB03     		.2byte	0x3ab
 2765 099d 6B000000 		.4byte	0x6b
 2766 09a1 02       		.uleb128 0x2
 2767 09a2 91       		.byte	0x91
 2768 09a3 67       		.sleb128 -25
 2769 09a4 1C       		.uleb128 0x1c
 2770 09a5 900D0000 		.4byte	.LASF195
 2771 09a9 01       		.byte	0x1
 2772 09aa AD03     		.2byte	0x3ad
 2773 09ac 73030000 		.4byte	0x373
 2774 09b0 02       		.uleb128 0x2
 2775 09b1 91       		.byte	0x91
 2776 09b2 6E       		.sleb128 -18
 2777 09b3 00       		.byte	0
 2778 09b4 1E       		.uleb128 0x1e
 2779 09b5 FE090000 		.4byte	.LASF212
 2780 09b9 01       		.byte	0x1
 2781 09ba E303     		.2byte	0x3e3
 2782 09bc 00000000 		.4byte	.LFB9
 2783 09c0 20000000 		.4byte	.LFE9-.LFB9
 2784 09c4 01       		.uleb128 0x1
 2785 09c5 9C       		.byte	0x9c
 2786 09c6 1A       		.uleb128 0x1a
 2787 09c7 2F160000 		.4byte	.LASF213
 2788 09cb 01       		.byte	0x1
 2789 09cc 1804     		.2byte	0x418
 2790 09ce 73030000 		.4byte	0x373
 2791 09d2 00000000 		.4byte	.LFB10
 2792 09d6 BC000000 		.4byte	.LFE10-.LFB10
 2793 09da 01       		.uleb128 0x1
 2794 09db 9C       		.byte	0x9c
 2795 09dc 0C0A0000 		.4byte	0xa0c
 2796 09e0 1B       		.uleb128 0x1b
 2797 09e1 EA0C0000 		.4byte	.LASF214
 2798 09e5 01       		.byte	0x1
 2799 09e6 1804     		.2byte	0x418
 2800 09e8 0C0A0000 		.4byte	0xa0c
 2801 09ec 02       		.uleb128 0x2
 2802 09ed 91       		.byte	0x91
 2803 09ee 64       		.sleb128 -28
 2804 09ef 1C       		.uleb128 0x1c
ARM GAS  C:\Users\Petro\AppData\Local\Temp\ccfEn9K1.s 			page 75


 2805 09f0 900D0000 		.4byte	.LASF195
 2806 09f4 01       		.byte	0x1
 2807 09f5 1A04     		.2byte	0x41a
 2808 09f7 73030000 		.4byte	0x373
 2809 09fb 02       		.uleb128 0x2
 2810 09fc 91       		.byte	0x91
 2811 09fd 6E       		.sleb128 -18
 2812 09fe 20       		.uleb128 0x20
 2813 09ff 6900     		.ascii	"i\000"
 2814 0a01 01       		.byte	0x1
 2815 0a02 1B04     		.2byte	0x41b
 2816 0a04 6B000000 		.4byte	0x6b
 2817 0a08 02       		.uleb128 0x2
 2818 0a09 91       		.byte	0x91
 2819 0a0a 6D       		.sleb128 -19
 2820 0a0b 00       		.byte	0
 2821 0a0c 07       		.uleb128 0x7
 2822 0a0d 04       		.byte	0x4
 2823 0a0e 120A0000 		.4byte	0xa12
 2824 0a12 21       		.uleb128 0x21
 2825 0a13 B3030000 		.4byte	0x3b3
 2826 0a17 1A       		.uleb128 0x1a
 2827 0a18 0D130000 		.4byte	.LASF215
 2828 0a1c 01       		.byte	0x1
 2829 0a1d 5004     		.2byte	0x450
 2830 0a1f 73030000 		.4byte	0x373
 2831 0a23 00000000 		.4byte	.LFB11
 2832 0a27 50000000 		.4byte	.LFE11-.LFB11
 2833 0a2b 01       		.uleb128 0x1
 2834 0a2c 9C       		.byte	0x9c
 2835 0a2d 410A0000 		.4byte	0xa41
 2836 0a31 1C       		.uleb128 0x1c
 2837 0a32 900D0000 		.4byte	.LASF195
 2838 0a36 01       		.byte	0x1
 2839 0a37 5204     		.2byte	0x452
 2840 0a39 73030000 		.4byte	0x373
 2841 0a3d 02       		.uleb128 0x2
 2842 0a3e 91       		.byte	0x91
 2843 0a3f 6E       		.sleb128 -18
 2844 0a40 00       		.byte	0
 2845 0a41 22       		.uleb128 0x22
 2846 0a42 2E130000 		.4byte	.LASF216
 2847 0a46 01       		.byte	0x1
 2848 0a47 E504     		.2byte	0x4e5
 2849 0a49 73030000 		.4byte	0x373
 2850 0a4d 00000000 		.4byte	.LFB12
 2851 0a51 B4000000 		.4byte	.LFE12-.LFB12
 2852 0a55 01       		.uleb128 0x1
 2853 0a56 9C       		.byte	0x9c
 2854 0a57 A50A0000 		.4byte	0xaa5
 2855 0a5b 1B       		.uleb128 0x1b
 2856 0a5c 32090000 		.4byte	.LASF217
 2857 0a60 01       		.byte	0x1
 2858 0a61 E504     		.2byte	0x4e5
 2859 0a63 A50A0000 		.4byte	0xaa5
 2860 0a67 02       		.uleb128 0x2
 2861 0a68 91       		.byte	0x91
ARM GAS  C:\Users\Petro\AppData\Local\Temp\ccfEn9K1.s 			page 76


 2862 0a69 64       		.sleb128 -28
 2863 0a6a 1C       		.uleb128 0x1c
 2864 0a6b 900D0000 		.4byte	.LASF195
 2865 0a6f 01       		.byte	0x1
 2866 0a70 E704     		.2byte	0x4e7
 2867 0a72 73030000 		.4byte	0x373
 2868 0a76 02       		.uleb128 0x2
 2869 0a77 91       		.byte	0x91
 2870 0a78 76       		.sleb128 -10
 2871 0a79 20       		.uleb128 0x20
 2872 0a7a 6900     		.ascii	"i\000"
 2873 0a7c 01       		.byte	0x1
 2874 0a7d E804     		.2byte	0x4e8
 2875 0a7f 6B000000 		.4byte	0x6b
 2876 0a83 02       		.uleb128 0x2
 2877 0a84 91       		.byte	0x91
 2878 0a85 75       		.sleb128 -11
 2879 0a86 20       		.uleb128 0x20
 2880 0a87 70747200 		.ascii	"ptr\000"
 2881 0a8b 01       		.byte	0x1
 2882 0a8c E904     		.2byte	0x4e9
 2883 0a8e B00A0000 		.4byte	0xab0
 2884 0a92 02       		.uleb128 0x2
 2885 0a93 91       		.byte	0x91
 2886 0a94 70       		.sleb128 -16
 2887 0a95 1C       		.uleb128 0x1c
 2888 0a96 7A0B0000 		.4byte	.LASF218
 2889 0a9a 01       		.byte	0x1
 2890 0a9b EA04     		.2byte	0x4ea
 2891 0a9d 6B000000 		.4byte	0x6b
 2892 0aa1 02       		.uleb128 0x2
 2893 0aa2 91       		.byte	0x91
 2894 0aa3 6F       		.sleb128 -17
 2895 0aa4 00       		.byte	0
 2896 0aa5 07       		.uleb128 0x7
 2897 0aa6 04       		.byte	0x4
 2898 0aa7 AB0A0000 		.4byte	0xaab
 2899 0aab 21       		.uleb128 0x21
 2900 0aac 9D000000 		.4byte	0x9d
 2901 0ab0 07       		.uleb128 0x7
 2902 0ab1 04       		.byte	0x4
 2903 0ab2 9D000000 		.4byte	0x9d
 2904 0ab6 22       		.uleb128 0x22
 2905 0ab7 FD070000 		.4byte	.LASF219
 2906 0abb 01       		.byte	0x1
 2907 0abc 2D05     		.2byte	0x52d
 2908 0abe 73030000 		.4byte	0x373
 2909 0ac2 00000000 		.4byte	.LFB13
 2910 0ac6 A4000000 		.4byte	.LFE13-.LFB13
 2911 0aca 01       		.uleb128 0x1
 2912 0acb 9C       		.byte	0x9c
 2913 0acc 1A0B0000 		.4byte	0xb1a
 2914 0ad0 1B       		.uleb128 0x1b
 2915 0ad1 32090000 		.4byte	.LASF217
 2916 0ad5 01       		.byte	0x1
 2917 0ad6 2D05     		.2byte	0x52d
 2918 0ad8 B00A0000 		.4byte	0xab0
ARM GAS  C:\Users\Petro\AppData\Local\Temp\ccfEn9K1.s 			page 77


 2919 0adc 02       		.uleb128 0x2
 2920 0add 91       		.byte	0x91
 2921 0ade 64       		.sleb128 -28
 2922 0adf 1C       		.uleb128 0x1c
 2923 0ae0 900D0000 		.4byte	.LASF195
 2924 0ae4 01       		.byte	0x1
 2925 0ae5 2F05     		.2byte	0x52f
 2926 0ae7 73030000 		.4byte	0x373
 2927 0aeb 02       		.uleb128 0x2
 2928 0aec 91       		.byte	0x91
 2929 0aed 76       		.sleb128 -10
 2930 0aee 1C       		.uleb128 0x1c
 2931 0aef 7A0B0000 		.4byte	.LASF218
 2932 0af3 01       		.byte	0x1
 2933 0af4 3005     		.2byte	0x530
 2934 0af6 6B000000 		.4byte	0x6b
 2935 0afa 02       		.uleb128 0x2
 2936 0afb 91       		.byte	0x91
 2937 0afc 6F       		.sleb128 -17
 2938 0afd 20       		.uleb128 0x20
 2939 0afe 6900     		.ascii	"i\000"
 2940 0b00 01       		.byte	0x1
 2941 0b01 3105     		.2byte	0x531
 2942 0b03 6B000000 		.4byte	0x6b
 2943 0b07 02       		.uleb128 0x2
 2944 0b08 91       		.byte	0x91
 2945 0b09 75       		.sleb128 -11
 2946 0b0a 20       		.uleb128 0x20
 2947 0b0b 70747200 		.ascii	"ptr\000"
 2948 0b0f 01       		.byte	0x1
 2949 0b10 3205     		.2byte	0x532
 2950 0b12 B00A0000 		.4byte	0xab0
 2951 0b16 02       		.uleb128 0x2
 2952 0b17 91       		.byte	0x91
 2953 0b18 70       		.sleb128 -16
 2954 0b19 00       		.byte	0
 2955 0b1a 22       		.uleb128 0x22
 2956 0b1b 78150000 		.4byte	.LASF220
 2957 0b1f 01       		.byte	0x1
 2958 0b20 5F05     		.2byte	0x55f
 2959 0b22 77000000 		.4byte	0x77
 2960 0b26 00000000 		.4byte	.LFB14
 2961 0b2a 26000000 		.4byte	.LFE14-.LFB14
 2962 0b2e 01       		.uleb128 0x1
 2963 0b2f 9C       		.byte	0x9c
 2964 0b30 440B0000 		.4byte	0xb44
 2965 0b34 23       		.uleb128 0x23
 2966 0b35 70747200 		.ascii	"ptr\000"
 2967 0b39 01       		.byte	0x1
 2968 0b3a 5F05     		.2byte	0x55f
 2969 0b3c 440B0000 		.4byte	0xb44
 2970 0b40 02       		.uleb128 0x2
 2971 0b41 91       		.byte	0x91
 2972 0b42 74       		.sleb128 -12
 2973 0b43 00       		.byte	0
 2974 0b44 07       		.uleb128 0x7
 2975 0b45 04       		.byte	0x4
ARM GAS  C:\Users\Petro\AppData\Local\Temp\ccfEn9K1.s 			page 78


 2976 0b46 4A0B0000 		.4byte	0xb4a
 2977 0b4a 21       		.uleb128 0x21
 2978 0b4b 6B000000 		.4byte	0x6b
 2979 0b4f 24       		.uleb128 0x24
 2980 0b50 700A0000 		.4byte	.LASF244
 2981 0b54 01       		.byte	0x1
 2982 0b55 7205     		.2byte	0x572
 2983 0b57 00000000 		.4byte	.LFB15
 2984 0b5b 2E000000 		.4byte	.LFE15-.LFB15
 2985 0b5f 01       		.uleb128 0x1
 2986 0b60 9C       		.byte	0x9c
 2987 0b61 840B0000 		.4byte	0xb84
 2988 0b65 23       		.uleb128 0x23
 2989 0b66 70747200 		.ascii	"ptr\000"
 2990 0b6a 01       		.byte	0x1
 2991 0b6b 7205     		.2byte	0x572
 2992 0b6d 98040000 		.4byte	0x498
 2993 0b71 02       		.uleb128 0x2
 2994 0b72 91       		.byte	0x91
 2995 0b73 74       		.sleb128 -12
 2996 0b74 1B       		.uleb128 0x1b
 2997 0b75 B2070000 		.4byte	.LASF221
 2998 0b79 01       		.byte	0x1
 2999 0b7a 7205     		.2byte	0x572
 3000 0b7c 77000000 		.4byte	0x77
 3001 0b80 02       		.uleb128 0x2
 3002 0b81 91       		.byte	0x91
 3003 0b82 72       		.sleb128 -14
 3004 0b83 00       		.byte	0
 3005 0b84 25       		.uleb128 0x25
 3006 0b85 04040000 		.4byte	.LASF222
 3007 0b89 01       		.byte	0x1
 3008 0b8a 67       		.byte	0x67
 3009 0b8b 6B000000 		.4byte	0x6b
 3010 0b8f 05       		.uleb128 0x5
 3011 0b90 03       		.byte	0x3
 3012 0b91 01000000 		.4byte	cyBle_pendingFlashClearCccdHandle
 3013 0b95 26       		.uleb128 0x26
 3014 0b96 F9010000 		.4byte	.LASF223
 3015 0b9a 01       		.byte	0x1
 3016 0b9b 6C       		.byte	0x6c
 3017 0b9c DA060000 		.4byte	0x6da
 3018 0ba0 05       		.uleb128 0x5
 3019 0ba1 03       		.byte	0x3
 3020 0ba2 00000000 		.4byte	CyBle_ApplCallback
 3021 0ba6 26       		.uleb128 0x26
 3022 0ba7 110A0000 		.4byte	.LASF224
 3023 0bab 01       		.byte	0x1
 3024 0bac 2B       		.byte	0x2b
 3025 0bad 6B000000 		.4byte	0x6b
 3026 0bb1 05       		.uleb128 0x5
 3027 0bb2 03       		.byte	0x3
 3028 0bb3 00000000 		.4byte	cyBle_initVar
 3029 0bb7 0E       		.uleb128 0xe
 3030 0bb8 6B000000 		.4byte	0x6b
 3031 0bbc C80B0000 		.4byte	0xbc8
 3032 0bc0 17       		.uleb128 0x17
ARM GAS  C:\Users\Petro\AppData\Local\Temp\ccfEn9K1.s 			page 79


 3033 0bc1 B5000000 		.4byte	0xb5
 3034 0bc5 DF0A     		.2byte	0xadf
 3035 0bc7 00       		.byte	0
 3036 0bc8 26       		.uleb128 0x26
 3037 0bc9 E4010000 		.4byte	.LASF225
 3038 0bcd 01       		.byte	0x1
 3039 0bce 36       		.byte	0x36
 3040 0bcf B70B0000 		.4byte	0xbb7
 3041 0bd3 05       		.uleb128 0x5
 3042 0bd4 03       		.byte	0x3
 3043 0bd5 00000000 		.4byte	cyBle_stackMemoryRam
 3044 0bd9 27       		.uleb128 0x27
 3045 0bda 290C0000 		.4byte	.LASF226
 3046 0bde 07       		.byte	0x7
 3047 0bdf 8402     		.2byte	0x284
 3048 0be1 B0000000 		.4byte	0xb0
 3049 0be5 26       		.uleb128 0x26
 3050 0be6 C0130000 		.4byte	.LASF227
 3051 0bea 01       		.byte	0x1
 3052 0beb 6D       		.byte	0x6d
 3053 0bec B3030000 		.4byte	0x3b3
 3054 0bf0 05       		.uleb128 0x5
 3055 0bf1 03       		.byte	0x3
 3056 0bf2 00000000 		.4byte	cyBle_deviceAddress
 3057 0bf6 26       		.uleb128 0x26
 3058 0bf7 2E140000 		.4byte	.LASF228
 3059 0bfb 01       		.byte	0x1
 3060 0bfc 6E       		.byte	0x6e
 3061 0bfd 75090000 		.4byte	0x975
 3062 0c01 05       		.uleb128 0x5
 3063 0c02 03       		.byte	0x3
 3064 0c03 00000000 		.4byte	cyBle_sflashDeviceAddress
 3065 0c07 26       		.uleb128 0x26
 3066 0c08 37090000 		.4byte	.LASF229
 3067 0c0c 01       		.byte	0x1
 3068 0c0d 53       		.byte	0x53
 3069 0c0e 10050000 		.4byte	0x510
 3070 0c12 05       		.uleb128 0x5
 3071 0c13 03       		.byte	0x3
 3072 0c14 00000000 		.4byte	cyBle_discoveryInfo
 3073 0c18 26       		.uleb128 0x26
 3074 0c19 5A090000 		.4byte	.LASF230
 3075 0c1d 01       		.byte	0x1
 3076 0c1e 42       		.byte	0x42
 3077 0c1f C2050000 		.4byte	0x5c2
 3078 0c23 05       		.uleb128 0x5
 3079 0c24 03       		.byte	0x3
 3080 0c25 00000000 		.4byte	cyBle_connectionParameters
 3081 0c29 26       		.uleb128 0x26
 3082 0c2a 81120000 		.4byte	.LASF231
 3083 0c2e 01       		.byte	0x1
 3084 0c2f 47       		.byte	0x47
 3085 0c30 77000000 		.4byte	0x77
 3086 0c34 05       		.uleb128 0x5
 3087 0c35 03       		.byte	0x3
 3088 0c36 00000000 		.4byte	cyBle_connectingTimeout
 3089 0c3a 26       		.uleb128 0x26
ARM GAS  C:\Users\Petro\AppData\Local\Temp\ccfEn9K1.s 			page 80


 3090 0c3b 820E0000 		.4byte	.LASF232
 3091 0c3f 01       		.byte	0x1
 3092 0c40 64       		.byte	0x64
 3093 0c41 6B000000 		.4byte	0x6b
 3094 0c45 05       		.uleb128 0x5
 3095 0c46 03       		.byte	0x3
 3096 0c47 00000000 		.4byte	cyBle_pendingFlashWrite
 3097 0c4b 26       		.uleb128 0x26
 3098 0c4c 3B0F0000 		.4byte	.LASF233
 3099 0c50 01       		.byte	0x1
 3100 0c51 63       		.byte	0x63
 3101 0c52 6B000000 		.4byte	0x6b
 3102 0c56 05       		.uleb128 0x5
 3103 0c57 03       		.byte	0x3
 3104 0c58 00000000 		.4byte	cyBle_peerBonding
 3105 0c5c 0E       		.uleb128 0xe
 3106 0c5d CE060000 		.4byte	0x6ce
 3107 0c61 6C0C0000 		.4byte	0xc6c
 3108 0c65 0F       		.uleb128 0xf
 3109 0c66 B5000000 		.4byte	0xb5
 3110 0c6a 19       		.byte	0x19
 3111 0c6b 00       		.byte	0
 3112 0c6c 28       		.uleb128 0x28
 3113 0c6d E0100000 		.4byte	.LASF234
 3114 0c71 08       		.byte	0x8
 3115 0c72 E8       		.byte	0xe8
 3116 0c73 770C0000 		.4byte	0xc77
 3117 0c77 21       		.uleb128 0x21
 3118 0c78 5C0C0000 		.4byte	0xc5c
 3119 0c7c 28       		.uleb128 0x28
 3120 0c7d 9D110000 		.4byte	.LASF235
 3121 0c81 08       		.byte	0x8
 3122 0c82 EC       		.byte	0xec
 3123 0c83 A3030000 		.4byte	0x3a3
 3124 0c87 28       		.uleb128 0x28
 3125 0c88 3F0E0000 		.4byte	.LASF236
 3126 0c8c 08       		.byte	0x8
 3127 0c8d F4       		.byte	0xf4
 3128 0c8e 920C0000 		.4byte	0xc92
 3129 0c92 21       		.uleb128 0x21
 3130 0c93 4A070000 		.4byte	0x74a
 3131 0c97 27       		.uleb128 0x27
 3132 0c98 0D0B0000 		.4byte	.LASF237
 3133 0c9c 0A       		.byte	0xa
 3134 0c9d 2A0A     		.2byte	0xa2a
 3135 0c9f C5070000 		.4byte	0x7c5
 3136 0ca3 27       		.uleb128 0x27
 3137 0ca4 62080000 		.4byte	.LASF238
 3138 0ca8 0A       		.byte	0xa
 3139 0ca9 2B0A     		.2byte	0xa2b
 3140 0cab F2050000 		.4byte	0x5f2
 3141 0caf 27       		.uleb128 0x27
 3142 0cb0 45030000 		.4byte	.LASF239
 3143 0cb4 0A       		.byte	0xa
 3144 0cb5 2C0A     		.2byte	0xa2c
 3145 0cb7 B0000000 		.4byte	0xb0
 3146 0cbb 27       		.uleb128 0x27
ARM GAS  C:\Users\Petro\AppData\Local\Temp\ccfEn9K1.s 			page 81


 3147 0cbc ED100000 		.4byte	.LASF240
 3148 0cc0 0A       		.byte	0xa
 3149 0cc1 330A     		.2byte	0xa33
 3150 0cc3 6B000000 		.4byte	0x6b
 3151 0cc7 00       		.byte	0
 3152              		.section	.debug_abbrev,"",%progbits
 3153              	.Ldebug_abbrev0:
 3154 0000 01       		.uleb128 0x1
 3155 0001 11       		.uleb128 0x11
 3156 0002 01       		.byte	0x1
 3157 0003 25       		.uleb128 0x25
 3158 0004 0E       		.uleb128 0xe
 3159 0005 13       		.uleb128 0x13
 3160 0006 0B       		.uleb128 0xb
 3161 0007 03       		.uleb128 0x3
 3162 0008 0E       		.uleb128 0xe
 3163 0009 1B       		.uleb128 0x1b
 3164 000a 0E       		.uleb128 0xe
 3165 000b 55       		.uleb128 0x55
 3166 000c 17       		.uleb128 0x17
 3167 000d 11       		.uleb128 0x11
 3168 000e 01       		.uleb128 0x1
 3169 000f 10       		.uleb128 0x10
 3170 0010 17       		.uleb128 0x17
 3171 0011 00       		.byte	0
 3172 0012 00       		.byte	0
 3173 0013 02       		.uleb128 0x2
 3174 0014 24       		.uleb128 0x24
 3175 0015 00       		.byte	0
 3176 0016 0B       		.uleb128 0xb
 3177 0017 0B       		.uleb128 0xb
 3178 0018 3E       		.uleb128 0x3e
 3179 0019 0B       		.uleb128 0xb
 3180 001a 03       		.uleb128 0x3
 3181 001b 0E       		.uleb128 0xe
 3182 001c 00       		.byte	0
 3183 001d 00       		.byte	0
 3184 001e 03       		.uleb128 0x3
 3185 001f 24       		.uleb128 0x24
 3186 0020 00       		.byte	0
 3187 0021 0B       		.uleb128 0xb
 3188 0022 0B       		.uleb128 0xb
 3189 0023 3E       		.uleb128 0x3e
 3190 0024 0B       		.uleb128 0xb
 3191 0025 03       		.uleb128 0x3
 3192 0026 08       		.uleb128 0x8
 3193 0027 00       		.byte	0
 3194 0028 00       		.byte	0
 3195 0029 04       		.uleb128 0x4
 3196 002a 16       		.uleb128 0x16
 3197 002b 00       		.byte	0
 3198 002c 03       		.uleb128 0x3
 3199 002d 0E       		.uleb128 0xe
 3200 002e 3A       		.uleb128 0x3a
 3201 002f 0B       		.uleb128 0xb
 3202 0030 3B       		.uleb128 0x3b
 3203 0031 05       		.uleb128 0x5
ARM GAS  C:\Users\Petro\AppData\Local\Temp\ccfEn9K1.s 			page 82


 3204 0032 49       		.uleb128 0x49
 3205 0033 13       		.uleb128 0x13
 3206 0034 00       		.byte	0
 3207 0035 00       		.byte	0
 3208 0036 05       		.uleb128 0x5
 3209 0037 35       		.uleb128 0x35
 3210 0038 00       		.byte	0
 3211 0039 49       		.uleb128 0x49
 3212 003a 13       		.uleb128 0x13
 3213 003b 00       		.byte	0
 3214 003c 00       		.byte	0
 3215 003d 06       		.uleb128 0x6
 3216 003e 0F       		.uleb128 0xf
 3217 003f 00       		.byte	0
 3218 0040 0B       		.uleb128 0xb
 3219 0041 0B       		.uleb128 0xb
 3220 0042 00       		.byte	0
 3221 0043 00       		.byte	0
 3222 0044 07       		.uleb128 0x7
 3223 0045 0F       		.uleb128 0xf
 3224 0046 00       		.byte	0
 3225 0047 0B       		.uleb128 0xb
 3226 0048 0B       		.uleb128 0xb
 3227 0049 49       		.uleb128 0x49
 3228 004a 13       		.uleb128 0x13
 3229 004b 00       		.byte	0
 3230 004c 00       		.byte	0
 3231 004d 08       		.uleb128 0x8
 3232 004e 15       		.uleb128 0x15
 3233 004f 01       		.byte	0x1
 3234 0050 27       		.uleb128 0x27
 3235 0051 19       		.uleb128 0x19
 3236 0052 01       		.uleb128 0x1
 3237 0053 13       		.uleb128 0x13
 3238 0054 00       		.byte	0
 3239 0055 00       		.byte	0
 3240 0056 09       		.uleb128 0x9
 3241 0057 05       		.uleb128 0x5
 3242 0058 00       		.byte	0
 3243 0059 49       		.uleb128 0x49
 3244 005a 13       		.uleb128 0x13
 3245 005b 00       		.byte	0
 3246 005c 00       		.byte	0
 3247 005d 0A       		.uleb128 0xa
 3248 005e 04       		.uleb128 0x4
 3249 005f 01       		.byte	0x1
 3250 0060 0B       		.uleb128 0xb
 3251 0061 0B       		.uleb128 0xb
 3252 0062 3A       		.uleb128 0x3a
 3253 0063 0B       		.uleb128 0xb
 3254 0064 3B       		.uleb128 0x3b
 3255 0065 05       		.uleb128 0x5
 3256 0066 01       		.uleb128 0x1
 3257 0067 13       		.uleb128 0x13
 3258 0068 00       		.byte	0
 3259 0069 00       		.byte	0
 3260 006a 0B       		.uleb128 0xb
ARM GAS  C:\Users\Petro\AppData\Local\Temp\ccfEn9K1.s 			page 83


 3261 006b 28       		.uleb128 0x28
 3262 006c 00       		.byte	0
 3263 006d 03       		.uleb128 0x3
 3264 006e 0E       		.uleb128 0xe
 3265 006f 1C       		.uleb128 0x1c
 3266 0070 0D       		.uleb128 0xd
 3267 0071 00       		.byte	0
 3268 0072 00       		.byte	0
 3269 0073 0C       		.uleb128 0xc
 3270 0074 13       		.uleb128 0x13
 3271 0075 01       		.byte	0x1
 3272 0076 0B       		.uleb128 0xb
 3273 0077 0B       		.uleb128 0xb
 3274 0078 3A       		.uleb128 0x3a
 3275 0079 0B       		.uleb128 0xb
 3276 007a 3B       		.uleb128 0x3b
 3277 007b 05       		.uleb128 0x5
 3278 007c 01       		.uleb128 0x1
 3279 007d 13       		.uleb128 0x13
 3280 007e 00       		.byte	0
 3281 007f 00       		.byte	0
 3282 0080 0D       		.uleb128 0xd
 3283 0081 0D       		.uleb128 0xd
 3284 0082 00       		.byte	0
 3285 0083 03       		.uleb128 0x3
 3286 0084 0E       		.uleb128 0xe
 3287 0085 3A       		.uleb128 0x3a
 3288 0086 0B       		.uleb128 0xb
 3289 0087 3B       		.uleb128 0x3b
 3290 0088 05       		.uleb128 0x5
 3291 0089 49       		.uleb128 0x49
 3292 008a 13       		.uleb128 0x13
 3293 008b 38       		.uleb128 0x38
 3294 008c 0B       		.uleb128 0xb
 3295 008d 00       		.byte	0
 3296 008e 00       		.byte	0
 3297 008f 0E       		.uleb128 0xe
 3298 0090 01       		.uleb128 0x1
 3299 0091 01       		.byte	0x1
 3300 0092 49       		.uleb128 0x49
 3301 0093 13       		.uleb128 0x13
 3302 0094 01       		.uleb128 0x1
 3303 0095 13       		.uleb128 0x13
 3304 0096 00       		.byte	0
 3305 0097 00       		.byte	0
 3306 0098 0F       		.uleb128 0xf
 3307 0099 21       		.uleb128 0x21
 3308 009a 00       		.byte	0
 3309 009b 49       		.uleb128 0x49
 3310 009c 13       		.uleb128 0x13
 3311 009d 2F       		.uleb128 0x2f
 3312 009e 0B       		.uleb128 0xb
 3313 009f 00       		.byte	0
 3314 00a0 00       		.byte	0
 3315 00a1 10       		.uleb128 0x10
 3316 00a2 13       		.uleb128 0x13
 3317 00a3 01       		.byte	0x1
ARM GAS  C:\Users\Petro\AppData\Local\Temp\ccfEn9K1.s 			page 84


 3318 00a4 0B       		.uleb128 0xb
 3319 00a5 0B       		.uleb128 0xb
 3320 00a6 3A       		.uleb128 0x3a
 3321 00a7 0B       		.uleb128 0xb
 3322 00a8 3B       		.uleb128 0x3b
 3323 00a9 0B       		.uleb128 0xb
 3324 00aa 01       		.uleb128 0x1
 3325 00ab 13       		.uleb128 0x13
 3326 00ac 00       		.byte	0
 3327 00ad 00       		.byte	0
 3328 00ae 11       		.uleb128 0x11
 3329 00af 0D       		.uleb128 0xd
 3330 00b0 00       		.byte	0
 3331 00b1 03       		.uleb128 0x3
 3332 00b2 0E       		.uleb128 0xe
 3333 00b3 3A       		.uleb128 0x3a
 3334 00b4 0B       		.uleb128 0xb
 3335 00b5 3B       		.uleb128 0x3b
 3336 00b6 0B       		.uleb128 0xb
 3337 00b7 49       		.uleb128 0x49
 3338 00b8 13       		.uleb128 0x13
 3339 00b9 38       		.uleb128 0x38
 3340 00ba 0B       		.uleb128 0xb
 3341 00bb 00       		.byte	0
 3342 00bc 00       		.byte	0
 3343 00bd 12       		.uleb128 0x12
 3344 00be 16       		.uleb128 0x16
 3345 00bf 00       		.byte	0
 3346 00c0 03       		.uleb128 0x3
 3347 00c1 0E       		.uleb128 0xe
 3348 00c2 3A       		.uleb128 0x3a
 3349 00c3 0B       		.uleb128 0xb
 3350 00c4 3B       		.uleb128 0x3b
 3351 00c5 0B       		.uleb128 0xb
 3352 00c6 49       		.uleb128 0x49
 3353 00c7 13       		.uleb128 0x13
 3354 00c8 00       		.byte	0
 3355 00c9 00       		.byte	0
 3356 00ca 13       		.uleb128 0x13
 3357 00cb 17       		.uleb128 0x17
 3358 00cc 01       		.byte	0x1
 3359 00cd 0B       		.uleb128 0xb
 3360 00ce 0B       		.uleb128 0xb
 3361 00cf 3A       		.uleb128 0x3a
 3362 00d0 0B       		.uleb128 0xb
 3363 00d1 3B       		.uleb128 0x3b
 3364 00d2 0B       		.uleb128 0xb
 3365 00d3 01       		.uleb128 0x1
 3366 00d4 13       		.uleb128 0x13
 3367 00d5 00       		.byte	0
 3368 00d6 00       		.byte	0
 3369 00d7 14       		.uleb128 0x14
 3370 00d8 0D       		.uleb128 0xd
 3371 00d9 00       		.byte	0
 3372 00da 03       		.uleb128 0x3
 3373 00db 0E       		.uleb128 0xe
 3374 00dc 3A       		.uleb128 0x3a
ARM GAS  C:\Users\Petro\AppData\Local\Temp\ccfEn9K1.s 			page 85


 3375 00dd 0B       		.uleb128 0xb
 3376 00de 3B       		.uleb128 0x3b
 3377 00df 0B       		.uleb128 0xb
 3378 00e0 49       		.uleb128 0x49
 3379 00e1 13       		.uleb128 0x13
 3380 00e2 00       		.byte	0
 3381 00e3 00       		.byte	0
 3382 00e4 15       		.uleb128 0x15
 3383 00e5 13       		.uleb128 0x13
 3384 00e6 01       		.byte	0x1
 3385 00e7 0B       		.uleb128 0xb
 3386 00e8 05       		.uleb128 0x5
 3387 00e9 3A       		.uleb128 0x3a
 3388 00ea 0B       		.uleb128 0xb
 3389 00eb 3B       		.uleb128 0x3b
 3390 00ec 0B       		.uleb128 0xb
 3391 00ed 01       		.uleb128 0x1
 3392 00ee 13       		.uleb128 0x13
 3393 00ef 00       		.byte	0
 3394 00f0 00       		.byte	0
 3395 00f1 16       		.uleb128 0x16
 3396 00f2 0D       		.uleb128 0xd
 3397 00f3 00       		.byte	0
 3398 00f4 03       		.uleb128 0x3
 3399 00f5 0E       		.uleb128 0xe
 3400 00f6 3A       		.uleb128 0x3a
 3401 00f7 0B       		.uleb128 0xb
 3402 00f8 3B       		.uleb128 0x3b
 3403 00f9 0B       		.uleb128 0xb
 3404 00fa 49       		.uleb128 0x49
 3405 00fb 13       		.uleb128 0x13
 3406 00fc 38       		.uleb128 0x38
 3407 00fd 05       		.uleb128 0x5
 3408 00fe 00       		.byte	0
 3409 00ff 00       		.byte	0
 3410 0100 17       		.uleb128 0x17
 3411 0101 21       		.uleb128 0x21
 3412 0102 00       		.byte	0
 3413 0103 49       		.uleb128 0x49
 3414 0104 13       		.uleb128 0x13
 3415 0105 2F       		.uleb128 0x2f
 3416 0106 05       		.uleb128 0x5
 3417 0107 00       		.byte	0
 3418 0108 00       		.byte	0
 3419 0109 18       		.uleb128 0x18
 3420 010a 04       		.uleb128 0x4
 3421 010b 01       		.byte	0x1
 3422 010c 0B       		.uleb128 0xb
 3423 010d 0B       		.uleb128 0xb
 3424 010e 3A       		.uleb128 0x3a
 3425 010f 0B       		.uleb128 0xb
 3426 0110 3B       		.uleb128 0x3b
 3427 0111 0B       		.uleb128 0xb
 3428 0112 01       		.uleb128 0x1
 3429 0113 13       		.uleb128 0x13
 3430 0114 00       		.byte	0
 3431 0115 00       		.byte	0
ARM GAS  C:\Users\Petro\AppData\Local\Temp\ccfEn9K1.s 			page 86


 3432 0116 19       		.uleb128 0x19
 3433 0117 2E       		.uleb128 0x2e
 3434 0118 00       		.byte	0
 3435 0119 3F       		.uleb128 0x3f
 3436 011a 19       		.uleb128 0x19
 3437 011b 03       		.uleb128 0x3
 3438 011c 0E       		.uleb128 0xe
 3439 011d 3A       		.uleb128 0x3a
 3440 011e 0B       		.uleb128 0xb
 3441 011f 3B       		.uleb128 0x3b
 3442 0120 0B       		.uleb128 0xb
 3443 0121 27       		.uleb128 0x27
 3444 0122 19       		.uleb128 0x19
 3445 0123 11       		.uleb128 0x11
 3446 0124 01       		.uleb128 0x1
 3447 0125 12       		.uleb128 0x12
 3448 0126 06       		.uleb128 0x6
 3449 0127 40       		.uleb128 0x40
 3450 0128 18       		.uleb128 0x18
 3451 0129 9642     		.uleb128 0x2116
 3452 012b 19       		.uleb128 0x19
 3453 012c 00       		.byte	0
 3454 012d 00       		.byte	0
 3455 012e 1A       		.uleb128 0x1a
 3456 012f 2E       		.uleb128 0x2e
 3457 0130 01       		.byte	0x1
 3458 0131 3F       		.uleb128 0x3f
 3459 0132 19       		.uleb128 0x19
 3460 0133 03       		.uleb128 0x3
 3461 0134 0E       		.uleb128 0xe
 3462 0135 3A       		.uleb128 0x3a
 3463 0136 0B       		.uleb128 0xb
 3464 0137 3B       		.uleb128 0x3b
 3465 0138 05       		.uleb128 0x5
 3466 0139 27       		.uleb128 0x27
 3467 013a 19       		.uleb128 0x19
 3468 013b 49       		.uleb128 0x49
 3469 013c 13       		.uleb128 0x13
 3470 013d 11       		.uleb128 0x11
 3471 013e 01       		.uleb128 0x1
 3472 013f 12       		.uleb128 0x12
 3473 0140 06       		.uleb128 0x6
 3474 0141 40       		.uleb128 0x40
 3475 0142 18       		.uleb128 0x18
 3476 0143 9642     		.uleb128 0x2116
 3477 0145 19       		.uleb128 0x19
 3478 0146 01       		.uleb128 0x1
 3479 0147 13       		.uleb128 0x13
 3480 0148 00       		.byte	0
 3481 0149 00       		.byte	0
 3482 014a 1B       		.uleb128 0x1b
 3483 014b 05       		.uleb128 0x5
 3484 014c 00       		.byte	0
 3485 014d 03       		.uleb128 0x3
 3486 014e 0E       		.uleb128 0xe
 3487 014f 3A       		.uleb128 0x3a
 3488 0150 0B       		.uleb128 0xb
ARM GAS  C:\Users\Petro\AppData\Local\Temp\ccfEn9K1.s 			page 87


 3489 0151 3B       		.uleb128 0x3b
 3490 0152 05       		.uleb128 0x5
 3491 0153 49       		.uleb128 0x49
 3492 0154 13       		.uleb128 0x13
 3493 0155 02       		.uleb128 0x2
 3494 0156 18       		.uleb128 0x18
 3495 0157 00       		.byte	0
 3496 0158 00       		.byte	0
 3497 0159 1C       		.uleb128 0x1c
 3498 015a 34       		.uleb128 0x34
 3499 015b 00       		.byte	0
 3500 015c 03       		.uleb128 0x3
 3501 015d 0E       		.uleb128 0xe
 3502 015e 3A       		.uleb128 0x3a
 3503 015f 0B       		.uleb128 0xb
 3504 0160 3B       		.uleb128 0x3b
 3505 0161 05       		.uleb128 0x5
 3506 0162 49       		.uleb128 0x49
 3507 0163 13       		.uleb128 0x13
 3508 0164 02       		.uleb128 0x2
 3509 0165 18       		.uleb128 0x18
 3510 0166 00       		.byte	0
 3511 0167 00       		.byte	0
 3512 0168 1D       		.uleb128 0x1d
 3513 0169 0B       		.uleb128 0xb
 3514 016a 01       		.byte	0x1
 3515 016b 11       		.uleb128 0x11
 3516 016c 01       		.uleb128 0x1
 3517 016d 12       		.uleb128 0x12
 3518 016e 06       		.uleb128 0x6
 3519 016f 00       		.byte	0
 3520 0170 00       		.byte	0
 3521 0171 1E       		.uleb128 0x1e
 3522 0172 2E       		.uleb128 0x2e
 3523 0173 00       		.byte	0
 3524 0174 3F       		.uleb128 0x3f
 3525 0175 19       		.uleb128 0x19
 3526 0176 03       		.uleb128 0x3
 3527 0177 0E       		.uleb128 0xe
 3528 0178 3A       		.uleb128 0x3a
 3529 0179 0B       		.uleb128 0xb
 3530 017a 3B       		.uleb128 0x3b
 3531 017b 05       		.uleb128 0x5
 3532 017c 27       		.uleb128 0x27
 3533 017d 19       		.uleb128 0x19
 3534 017e 11       		.uleb128 0x11
 3535 017f 01       		.uleb128 0x1
 3536 0180 12       		.uleb128 0x12
 3537 0181 06       		.uleb128 0x6
 3538 0182 40       		.uleb128 0x40
 3539 0183 18       		.uleb128 0x18
 3540 0184 9642     		.uleb128 0x2116
 3541 0186 19       		.uleb128 0x19
 3542 0187 00       		.byte	0
 3543 0188 00       		.byte	0
 3544 0189 1F       		.uleb128 0x1f
 3545 018a 0B       		.uleb128 0xb
ARM GAS  C:\Users\Petro\AppData\Local\Temp\ccfEn9K1.s 			page 88


 3546 018b 01       		.byte	0x1
 3547 018c 11       		.uleb128 0x11
 3548 018d 01       		.uleb128 0x1
 3549 018e 12       		.uleb128 0x12
 3550 018f 06       		.uleb128 0x6
 3551 0190 01       		.uleb128 0x1
 3552 0191 13       		.uleb128 0x13
 3553 0192 00       		.byte	0
 3554 0193 00       		.byte	0
 3555 0194 20       		.uleb128 0x20
 3556 0195 34       		.uleb128 0x34
 3557 0196 00       		.byte	0
 3558 0197 03       		.uleb128 0x3
 3559 0198 08       		.uleb128 0x8
 3560 0199 3A       		.uleb128 0x3a
 3561 019a 0B       		.uleb128 0xb
 3562 019b 3B       		.uleb128 0x3b
 3563 019c 05       		.uleb128 0x5
 3564 019d 49       		.uleb128 0x49
 3565 019e 13       		.uleb128 0x13
 3566 019f 02       		.uleb128 0x2
 3567 01a0 18       		.uleb128 0x18
 3568 01a1 00       		.byte	0
 3569 01a2 00       		.byte	0
 3570 01a3 21       		.uleb128 0x21
 3571 01a4 26       		.uleb128 0x26
 3572 01a5 00       		.byte	0
 3573 01a6 49       		.uleb128 0x49
 3574 01a7 13       		.uleb128 0x13
 3575 01a8 00       		.byte	0
 3576 01a9 00       		.byte	0
 3577 01aa 22       		.uleb128 0x22
 3578 01ab 2E       		.uleb128 0x2e
 3579 01ac 01       		.byte	0x1
 3580 01ad 3F       		.uleb128 0x3f
 3581 01ae 19       		.uleb128 0x19
 3582 01af 03       		.uleb128 0x3
 3583 01b0 0E       		.uleb128 0xe
 3584 01b1 3A       		.uleb128 0x3a
 3585 01b2 0B       		.uleb128 0xb
 3586 01b3 3B       		.uleb128 0x3b
 3587 01b4 05       		.uleb128 0x5
 3588 01b5 27       		.uleb128 0x27
 3589 01b6 19       		.uleb128 0x19
 3590 01b7 49       		.uleb128 0x49
 3591 01b8 13       		.uleb128 0x13
 3592 01b9 11       		.uleb128 0x11
 3593 01ba 01       		.uleb128 0x1
 3594 01bb 12       		.uleb128 0x12
 3595 01bc 06       		.uleb128 0x6
 3596 01bd 40       		.uleb128 0x40
 3597 01be 18       		.uleb128 0x18
 3598 01bf 9742     		.uleb128 0x2117
 3599 01c1 19       		.uleb128 0x19
 3600 01c2 01       		.uleb128 0x1
 3601 01c3 13       		.uleb128 0x13
 3602 01c4 00       		.byte	0
ARM GAS  C:\Users\Petro\AppData\Local\Temp\ccfEn9K1.s 			page 89


 3603 01c5 00       		.byte	0
 3604 01c6 23       		.uleb128 0x23
 3605 01c7 05       		.uleb128 0x5
 3606 01c8 00       		.byte	0
 3607 01c9 03       		.uleb128 0x3
 3608 01ca 08       		.uleb128 0x8
 3609 01cb 3A       		.uleb128 0x3a
 3610 01cc 0B       		.uleb128 0xb
 3611 01cd 3B       		.uleb128 0x3b
 3612 01ce 05       		.uleb128 0x5
 3613 01cf 49       		.uleb128 0x49
 3614 01d0 13       		.uleb128 0x13
 3615 01d1 02       		.uleb128 0x2
 3616 01d2 18       		.uleb128 0x18
 3617 01d3 00       		.byte	0
 3618 01d4 00       		.byte	0
 3619 01d5 24       		.uleb128 0x24
 3620 01d6 2E       		.uleb128 0x2e
 3621 01d7 01       		.byte	0x1
 3622 01d8 3F       		.uleb128 0x3f
 3623 01d9 19       		.uleb128 0x19
 3624 01da 03       		.uleb128 0x3
 3625 01db 0E       		.uleb128 0xe
 3626 01dc 3A       		.uleb128 0x3a
 3627 01dd 0B       		.uleb128 0xb
 3628 01de 3B       		.uleb128 0x3b
 3629 01df 05       		.uleb128 0x5
 3630 01e0 27       		.uleb128 0x27
 3631 01e1 19       		.uleb128 0x19
 3632 01e2 11       		.uleb128 0x11
 3633 01e3 01       		.uleb128 0x1
 3634 01e4 12       		.uleb128 0x12
 3635 01e5 06       		.uleb128 0x6
 3636 01e6 40       		.uleb128 0x40
 3637 01e7 18       		.uleb128 0x18
 3638 01e8 9742     		.uleb128 0x2117
 3639 01ea 19       		.uleb128 0x19
 3640 01eb 01       		.uleb128 0x1
 3641 01ec 13       		.uleb128 0x13
 3642 01ed 00       		.byte	0
 3643 01ee 00       		.byte	0
 3644 01ef 25       		.uleb128 0x25
 3645 01f0 34       		.uleb128 0x34
 3646 01f1 00       		.byte	0
 3647 01f2 03       		.uleb128 0x3
 3648 01f3 0E       		.uleb128 0xe
 3649 01f4 3A       		.uleb128 0x3a
 3650 01f5 0B       		.uleb128 0xb
 3651 01f6 3B       		.uleb128 0x3b
 3652 01f7 0B       		.uleb128 0xb
 3653 01f8 49       		.uleb128 0x49
 3654 01f9 13       		.uleb128 0x13
 3655 01fa 02       		.uleb128 0x2
 3656 01fb 18       		.uleb128 0x18
 3657 01fc 00       		.byte	0
 3658 01fd 00       		.byte	0
 3659 01fe 26       		.uleb128 0x26
ARM GAS  C:\Users\Petro\AppData\Local\Temp\ccfEn9K1.s 			page 90


 3660 01ff 34       		.uleb128 0x34
 3661 0200 00       		.byte	0
 3662 0201 03       		.uleb128 0x3
 3663 0202 0E       		.uleb128 0xe
 3664 0203 3A       		.uleb128 0x3a
 3665 0204 0B       		.uleb128 0xb
 3666 0205 3B       		.uleb128 0x3b
 3667 0206 0B       		.uleb128 0xb
 3668 0207 49       		.uleb128 0x49
 3669 0208 13       		.uleb128 0x13
 3670 0209 3F       		.uleb128 0x3f
 3671 020a 19       		.uleb128 0x19
 3672 020b 02       		.uleb128 0x2
 3673 020c 18       		.uleb128 0x18
 3674 020d 00       		.byte	0
 3675 020e 00       		.byte	0
 3676 020f 27       		.uleb128 0x27
 3677 0210 34       		.uleb128 0x34
 3678 0211 00       		.byte	0
 3679 0212 03       		.uleb128 0x3
 3680 0213 0E       		.uleb128 0xe
 3681 0214 3A       		.uleb128 0x3a
 3682 0215 0B       		.uleb128 0xb
 3683 0216 3B       		.uleb128 0x3b
 3684 0217 05       		.uleb128 0x5
 3685 0218 49       		.uleb128 0x49
 3686 0219 13       		.uleb128 0x13
 3687 021a 3F       		.uleb128 0x3f
 3688 021b 19       		.uleb128 0x19
 3689 021c 3C       		.uleb128 0x3c
 3690 021d 19       		.uleb128 0x19
 3691 021e 00       		.byte	0
 3692 021f 00       		.byte	0
 3693 0220 28       		.uleb128 0x28
 3694 0221 34       		.uleb128 0x34
 3695 0222 00       		.byte	0
 3696 0223 03       		.uleb128 0x3
 3697 0224 0E       		.uleb128 0xe
 3698 0225 3A       		.uleb128 0x3a
 3699 0226 0B       		.uleb128 0xb
 3700 0227 3B       		.uleb128 0x3b
 3701 0228 0B       		.uleb128 0xb
 3702 0229 49       		.uleb128 0x49
 3703 022a 13       		.uleb128 0x13
 3704 022b 3F       		.uleb128 0x3f
 3705 022c 19       		.uleb128 0x19
 3706 022d 3C       		.uleb128 0x3c
 3707 022e 19       		.uleb128 0x19
 3708 022f 00       		.byte	0
 3709 0230 00       		.byte	0
 3710 0231 00       		.byte	0
 3711              		.section	.debug_aranges,"",%progbits
 3712 0000 84000000 		.4byte	0x84
 3713 0004 0200     		.2byte	0x2
 3714 0006 00000000 		.4byte	.Ldebug_info0
 3715 000a 04       		.byte	0x4
 3716 000b 00       		.byte	0
ARM GAS  C:\Users\Petro\AppData\Local\Temp\ccfEn9K1.s 			page 91


 3717 000c 0000     		.2byte	0
 3718 000e 0000     		.2byte	0
 3719 0010 00000000 		.4byte	.LFB2
 3720 0014 98000000 		.4byte	.LFE2-.LFB2
 3721 0018 00000000 		.4byte	.LFB3
 3722 001c 0C000000 		.4byte	.LFE3-.LFB3
 3723 0020 00000000 		.4byte	.LFB4
 3724 0024 34010000 		.4byte	.LFE4-.LFB4
 3725 0028 00000000 		.4byte	.LFB5
 3726 002c 18000000 		.4byte	.LFE5-.LFB5
 3727 0030 00000000 		.4byte	.LFB6
 3728 0034 BC010000 		.4byte	.LFE6-.LFB6
 3729 0038 00000000 		.4byte	.LFB7
 3730 003c E8000000 		.4byte	.LFE7-.LFB7
 3731 0040 00000000 		.4byte	.LFB8
 3732 0044 A4000000 		.4byte	.LFE8-.LFB8
 3733 0048 00000000 		.4byte	.LFB9
 3734 004c 20000000 		.4byte	.LFE9-.LFB9
 3735 0050 00000000 		.4byte	.LFB10
 3736 0054 BC000000 		.4byte	.LFE10-.LFB10
 3737 0058 00000000 		.4byte	.LFB11
 3738 005c 50000000 		.4byte	.LFE11-.LFB11
 3739 0060 00000000 		.4byte	.LFB12
 3740 0064 B4000000 		.4byte	.LFE12-.LFB12
 3741 0068 00000000 		.4byte	.LFB13
 3742 006c A4000000 		.4byte	.LFE13-.LFB13
 3743 0070 00000000 		.4byte	.LFB14
 3744 0074 26000000 		.4byte	.LFE14-.LFB14
 3745 0078 00000000 		.4byte	.LFB15
 3746 007c 2E000000 		.4byte	.LFE15-.LFB15
 3747 0080 00000000 		.4byte	0
 3748 0084 00000000 		.4byte	0
 3749              		.section	.debug_ranges,"",%progbits
 3750              	.Ldebug_ranges0:
 3751 0000 00000000 		.4byte	.LFB2
 3752 0004 98000000 		.4byte	.LFE2
 3753 0008 00000000 		.4byte	.LFB3
 3754 000c 0C000000 		.4byte	.LFE3
 3755 0010 00000000 		.4byte	.LFB4
 3756 0014 34010000 		.4byte	.LFE4
 3757 0018 00000000 		.4byte	.LFB5
 3758 001c 18000000 		.4byte	.LFE5
 3759 0020 00000000 		.4byte	.LFB6
 3760 0024 BC010000 		.4byte	.LFE6
 3761 0028 00000000 		.4byte	.LFB7
 3762 002c E8000000 		.4byte	.LFE7
 3763 0030 00000000 		.4byte	.LFB8
 3764 0034 A4000000 		.4byte	.LFE8
 3765 0038 00000000 		.4byte	.LFB9
 3766 003c 20000000 		.4byte	.LFE9
 3767 0040 00000000 		.4byte	.LFB10
 3768 0044 BC000000 		.4byte	.LFE10
 3769 0048 00000000 		.4byte	.LFB11
 3770 004c 50000000 		.4byte	.LFE11
 3771 0050 00000000 		.4byte	.LFB12
 3772 0054 B4000000 		.4byte	.LFE12
 3773 0058 00000000 		.4byte	.LFB13
ARM GAS  C:\Users\Petro\AppData\Local\Temp\ccfEn9K1.s 			page 92


 3774 005c A4000000 		.4byte	.LFE13
 3775 0060 00000000 		.4byte	.LFB14
 3776 0064 26000000 		.4byte	.LFE14
 3777 0068 00000000 		.4byte	.LFB15
 3778 006c 2E000000 		.4byte	.LFE15
 3779 0070 00000000 		.4byte	0
 3780 0074 00000000 		.4byte	0
 3781              		.section	.debug_line,"",%progbits
 3782              	.Ldebug_line0:
 3783 0000 C3020000 		.section	.debug_str,"MS",%progbits,1
 3783      0200D500 
 3783      00000201 
 3783      FB0E0D00 
 3783      01010101 
 3784              	.LASF80:
 3785 0000 4359424C 		.ascii	"CYBLE_EVT_L2CAP_CBFC_RX_CREDIT_IND\000"
 3785      455F4556 
 3785      545F4C32 
 3785      4341505F 
 3785      43424643 
 3786              	.LASF22:
 3787 0023 4359424C 		.ascii	"CYBLE_EVT_STACK_BUSY_STATUS\000"
 3787      455F4556 
 3787      545F5354 
 3787      41434B5F 
 3787      42555359 
 3788              	.LASF186:
 3789 003f 4359424C 		.ascii	"CYBLE_STATE_STOPPED\000"
 3789      455F5354 
 3789      4154455F 
 3789      53544F50 
 3789      50454400 
 3790              	.LASF79:
 3791 0053 4359424C 		.ascii	"CYBLE_EVT_L2CAP_CBFC_DATA_READ\000"
 3791      455F4556 
 3791      545F4C32 
 3791      4341505F 
 3791      43424643 
 3792              	.LASF156:
 3793 0072 4359424C 		.ascii	"CYBLE_CONN_HANDLE_T\000"
 3793      455F434F 
 3793      4E4E5F48 
 3793      414E444C 
 3793      455F5400 
 3794              	.LASF206:
 3795 0086 64656661 		.ascii	"defaultValuesCCCD\000"
 3795      756C7456 
 3795      616C7565 
 3795      73434343 
 3795      4400
 3796              	.LASF89:
 3797 0098 4359424C 		.ascii	"CYBLE_ERROR_MEMORY_ALLOCATION_FAILED\000"
 3797      455F4552 
 3797      524F525F 
 3797      4D454D4F 
 3797      52595F41 
 3798              	.LASF43:
ARM GAS  C:\Users\Petro\AppData\Local\Temp\ccfEn9K1.s 			page 93


 3799 00bd 4359424C 		.ascii	"CYBLE_EVT_GAP_SMP_NEGOTIATED_AUTH_INFO\000"
 3799      455F4556 
 3799      545F4741 
 3799      505F534D 
 3799      505F4E45 
 3800              	.LASF112:
 3801 00e4 4359424C 		.ascii	"CYBLE_ERROR_CONTROLLER_BUSY\000"
 3801      455F4552 
 3801      524F525F 
 3801      434F4E54 
 3801      524F4C4C 
 3802              	.LASF34:
 3803 0100 4359424C 		.ascii	"CYBLE_EVT_GAP_CONNECTION_UPDATE_COMPLETE\000"
 3803      455F4556 
 3803      545F4741 
 3803      505F434F 
 3803      4E4E4543 
 3804              	.LASF78:
 3805 0129 4359424C 		.ascii	"CYBLE_EVT_L2CAP_CBFC_DISCONN_CNF\000"
 3805      455F4556 
 3805      545F4C32 
 3805      4341505F 
 3805      43424643 
 3806              	.LASF110:
 3807 014a 4359424C 		.ascii	"CYBLE_ERROR_UNSUPPORTED_FEATURE_OR_PARAMETER_VALUE\000"
 3807      455F4552 
 3807      524F525F 
 3807      554E5355 
 3807      50504F52 
 3808              	.LASF39:
 3809 017d 4359424C 		.ascii	"CYBLE_EVT_GAP_OOB_GENERATED_NOTIFICATION\000"
 3809      455F4556 
 3809      545F4741 
 3809      505F4F4F 
 3809      425F4745 
 3810              	.LASF58:
 3811 01a6 4359424C 		.ascii	"CYBLE_EVT_GATTC_READ_MULTI_RSP\000"
 3811      455F4556 
 3811      545F4741 
 3811      5454435F 
 3811      52454144 
 3812              	.LASF63:
 3813 01c5 4359424C 		.ascii	"CYBLE_EVT_GATTS_EXEC_WRITE_REQ\000"
 3813      455F4556 
 3813      545F4741 
 3813      5454535F 
 3813      45584543 
 3814              	.LASF225:
 3815 01e4 6379426C 		.ascii	"cyBle_stackMemoryRam\000"
 3815      655F7374 
 3815      61636B4D 
 3815      656D6F72 
 3815      7952616D 
 3816              	.LASF223:
 3817 01f9 4379426C 		.ascii	"CyBle_ApplCallback\000"
 3817      655F4170 
 3817      706C4361 
ARM GAS  C:\Users\Petro\AppData\Local\Temp\ccfEn9K1.s 			page 94


 3817      6C6C6261 
 3817      636B00
 3818              	.LASF52:
 3819 020c 4359424C 		.ascii	"CYBLE_EVT_GATTC_READ_BY_GROUP_TYPE_RSP\000"
 3819      455F4556 
 3819      545F4741 
 3819      5454435F 
 3819      52454144 
 3820              	.LASF120:
 3821 0233 74797065 		.ascii	"type\000"
 3821      00
 3822              	.LASF175:
 3823 0238 63636364 		.ascii	"cccdCount\000"
 3823      436F756E 
 3823      7400
 3824              	.LASF19:
 3825 0242 4359424C 		.ascii	"CYBLE_EVT_TIMEOUT\000"
 3825      455F4556 
 3825      545F5449 
 3825      4D454F55 
 3825      5400
 3826              	.LASF4:
 3827 0254 6C6F6E67 		.ascii	"long int\000"
 3827      20696E74 
 3827      00
 3828              	.LASF109:
 3829 025d 4359424C 		.ascii	"CYBLE_ERROR_HARDWARE_FAILURE\000"
 3829      455F4552 
 3829      524F525F 
 3829      48415244 
 3829      57415245 
 3830              	.LASF130:
 3831 027a 4359424C 		.ascii	"CYBLE_PRIVACY_1_2_CONFIG_PARAM_T\000"
 3831      455F5052 
 3831      49564143 
 3831      595F315F 
 3831      325F434F 
 3832              	.LASF141:
 3833 029b 7363616E 		.ascii	"scanTo\000"
 3833      546F00
 3834              	.LASF99:
 3835 02a2 4359424C 		.ascii	"CYBLE_ERROR_L2CAP_PSM_WRONG_ENCODING\000"
 3835      455F4552 
 3835      524F525F 
 3835      4C324341 
 3835      505F5053 
 3836              	.LASF90:
 3837 02c7 4359424C 		.ascii	"CYBLE_ERROR_INSUFFICIENT_RESOURCES\000"
 3837      455F4552 
 3837      524F525F 
 3837      494E5355 
 3837      46464943 
 3838              	.LASF125:
 3839 02ea 646C654D 		.ascii	"dleMaxTxCapability\000"
 3839      61785478 
 3839      43617061 
 3839      62696C69 
ARM GAS  C:\Users\Petro\AppData\Local\Temp\ccfEn9K1.s 			page 95


 3839      747900
 3840              	.LASF21:
 3841 02fd 4359424C 		.ascii	"CYBLE_EVT_HCI_STATUS\000"
 3841      455F4556 
 3841      545F4843 
 3841      495F5354 
 3841      41545553 
 3842              	.LASF210:
 3843 0312 4379426C 		.ascii	"CyBle_GapcStartScan\000"
 3843      655F4761 
 3843      70635374 
 3843      61727453 
 3843      63616E00 
 3844              	.LASF35:
 3845 0326 4359424C 		.ascii	"CYBLE_EVT_GAPC_SCAN_START_STOP\000"
 3845      455F4556 
 3845      545F4741 
 3845      50435F53 
 3845      43414E5F 
 3846              	.LASF239:
 3847 0345 6379426C 		.ascii	"cyBle_busyStatus\000"
 3847      655F6275 
 3847      73795374 
 3847      61747573 
 3847      00
 3848              	.LASF178:
 3849 0356 4359424C 		.ascii	"CYBLE_ANS_SUPPORTED_NEW_ALERT_CAT\000"
 3849      455F414E 
 3849      535F5355 
 3849      50504F52 
 3849      5445445F 
 3850              	.LASF138:
 3851 0378 7363616E 		.ascii	"scanWindow\000"
 3851      57696E64 
 3851      6F7700
 3852              	.LASF121:
 3853 0383 4359424C 		.ascii	"CYBLE_GAP_BD_ADDR_T\000"
 3853      455F4741 
 3853      505F4244 
 3853      5F414444 
 3853      525F5400 
 3854              	.LASF98:
 3855 0397 4359424C 		.ascii	"CYBLE_ERROR_SEC_FAILED\000"
 3855      455F4552 
 3855      524F525F 
 3855      5345435F 
 3855      4641494C 
 3856              	.LASF103:
 3857 03ae 4359424C 		.ascii	"CYBLE_ERROR_L2CAP_CHANNEL_NOT_FOUND\000"
 3857      455F4552 
 3857      524F525F 
 3857      4C324341 
 3857      505F4348 
 3858              	.LASF136:
 3859 03d2 7363616E 		.ascii	"scanType\000"
 3859      54797065 
 3859      00
ARM GAS  C:\Users\Petro\AppData\Local\Temp\ccfEn9K1.s 			page 96


 3860              	.LASF37:
 3861 03db 4359424C 		.ascii	"CYBLE_EVT_GAP_NUMERIC_COMPARISON_REQUEST\000"
 3861      455F4556 
 3861      545F4741 
 3861      505F4E55 
 3861      4D455249 
 3862              	.LASF222:
 3863 0404 6379426C 		.ascii	"cyBle_pendingFlashClearCccdHandle\000"
 3863      655F7065 
 3863      6E64696E 
 3863      67466C61 
 3863      7368436C 
 3864              	.LASF0:
 3865 0426 7369676E 		.ascii	"signed char\000"
 3865      65642063 
 3865      68617200 
 3866              	.LASF18:
 3867 0432 4359424C 		.ascii	"CYBLE_EVT_STACK_ON\000"
 3867      455F4556 
 3867      545F5354 
 3867      41434B5F 
 3867      4F4E00
 3868              	.LASF140:
 3869 0445 7363616E 		.ascii	"scanFilterPolicy\000"
 3869      46696C74 
 3869      6572506F 
 3869      6C696379 
 3869      00
 3870              	.LASF106:
 3871 0456 4359424C 		.ascii	"CYBLE_ERROR_DEVICE_ALREADY_EXISTS\000"
 3871      455F4552 
 3871      524F525F 
 3871      44455649 
 3871      43455F41 
 3872              	.LASF93:
 3873 0478 4359424C 		.ascii	"CYBLE_ERROR_NO_DEVICE_ENTITY\000"
 3873      455F4552 
 3873      524F525F 
 3873      4E4F5F44 
 3873      45564943 
 3874              	.LASF25:
 3875 0495 4359424C 		.ascii	"CYBLE_EVT_GAP_AUTH_REQ\000"
 3875      455F4556 
 3875      545F4741 
 3875      505F4155 
 3875      54485F52 
 3876              	.LASF168:
 3877 04ac 7065726D 		.ascii	"permission\000"
 3877      69737369 
 3877      6F6E00
 3878              	.LASF56:
 3879 04b7 4359424C 		.ascii	"CYBLE_EVT_GATTC_READ_RSP\000"
 3879      455F4556 
 3879      545F4741 
 3879      5454435F 
 3879      52454144 
 3880              	.LASF151:
ARM GAS  C:\Users\Petro\AppData\Local\Temp\ccfEn9K1.s 			page 97


 3881 04d0 6D696E43 		.ascii	"minCeLength\000"
 3881      654C656E 
 3881      67746800 
 3882              	.LASF135:
 3883 04dc 64697363 		.ascii	"discProcedure\000"
 3883      50726F63 
 3883      65647572 
 3883      6500
 3884              	.LASF61:
 3885 04ea 4359424C 		.ascii	"CYBLE_EVT_GATTS_WRITE_CMD_REQ\000"
 3885      455F4556 
 3885      545F4741 
 3885      5454535F 
 3885      57524954 
 3886              	.LASF205:
 3887 0508 6973466F 		.ascii	"isForceWrite\000"
 3887      72636557 
 3887      72697465 
 3887      00
 3888              	.LASF74:
 3889 0515 4359424C 		.ascii	"CYBLE_EVT_L2CAP_COMMAND_REJ\000"
 3889      455F4556 
 3889      545F4C32 
 3889      4341505F 
 3889      434F4D4D 
 3890              	.LASF191:
 3891 0531 4359424C 		.ascii	"CYBLE_STATE_DISCONNECTED\000"
 3891      455F5354 
 3891      4154455F 
 3891      44495343 
 3891      4F4E4E45 
 3892              	.LASF30:
 3893 054a 4359424C 		.ascii	"CYBLE_EVT_GAPP_ADVERTISEMENT_START_STOP\000"
 3893      455F4556 
 3893      545F4741 
 3893      50505F41 
 3893      44564552 
 3894              	.LASF126:
 3895 0572 646C654D 		.ascii	"dleMaxRxCapability\000"
 3895      61785278 
 3895      43617061 
 3895      62696C69 
 3895      747900
 3896              	.LASF104:
 3897 0585 4359424C 		.ascii	"CYBLE_ERROR_L2CAP_PSM_NOT_IN_RANGE\000"
 3897      455F4552 
 3897      524F525F 
 3897      4C324341 
 3897      505F5053 
 3898              	.LASF50:
 3899 05a8 4359424C 		.ascii	"CYBLE_EVT_GATTS_XCNHG_MTU_REQ\000"
 3899      455F4556 
 3899      545F4741 
 3899      5454535F 
 3899      58434E48 
 3900              	.LASF9:
 3901 05c6 75696E74 		.ascii	"uint8\000"
ARM GAS  C:\Users\Petro\AppData\Local\Temp\ccfEn9K1.s 			page 98


 3901      3800
 3902              	.LASF6:
 3903 05cc 6C6F6E67 		.ascii	"long long int\000"
 3903      206C6F6E 
 3903      6720696E 
 3903      7400
 3904              	.LASF145:
 3905 05da 70656572 		.ascii	"peerBdAddr\000"
 3905      42644164 
 3905      647200
 3906              	.LASF64:
 3907 05e5 4359424C 		.ascii	"CYBLE_EVT_GATTC_EXEC_WRITE_RSP\000"
 3907      455F4556 
 3907      545F4741 
 3907      5454435F 
 3907      45584543 
 3908              	.LASF162:
 3909 0604 4359424C 		.ascii	"CYBLE_GATTS_ATT_PACK_VAL_LEN_T\000"
 3909      455F4741 
 3909      5454535F 
 3909      4154545F 
 3909      5041434B 
 3910              	.LASF13:
 3911 0623 646F7562 		.ascii	"double\000"
 3911      6C6500
 3912              	.LASF77:
 3913 062a 4359424C 		.ascii	"CYBLE_EVT_L2CAP_CBFC_DISCONN_IND\000"
 3913      455F4556 
 3913      545F4C32 
 3913      4341505F 
 3913      43424643 
 3914              	.LASF87:
 3915 064b 4359424C 		.ascii	"CYBLE_ERROR_INVALID_PARAMETER\000"
 3915      455F4552 
 3915      524F525F 
 3915      494E5641 
 3915      4C49445F 
 3916              	.LASF173:
 3917 0669 73746163 		.ascii	"stackFlashptr\000"
 3917      6B466C61 
 3917      73687074 
 3917      7200
 3918              	.LASF165:
 3919 0677 4359424C 		.ascii	"CYBLE_GATTS_ATT_VALUE_T\000"
 3919      455F4741 
 3919      5454535F 
 3919      4154545F 
 3919      56414C55 
 3920              	.LASF183:
 3921 068f 4359424C 		.ascii	"CYBLE_ANS_CHAR_COUNT\000"
 3921      455F414E 
 3921      535F4348 
 3921      41525F43 
 3921      4F554E54 
 3922              	.LASF166:
 3923 06a4 61747448 		.ascii	"attHandle\000"
 3923      616E646C 
ARM GAS  C:\Users\Petro\AppData\Local\Temp\ccfEn9K1.s 			page 99


 3923      6500
 3924              	.LASF3:
 3925 06ae 73686F72 		.ascii	"short unsigned int\000"
 3925      7420756E 
 3925      7369676E 
 3925      65642069 
 3925      6E7400
 3926              	.LASF11:
 3927 06c1 75696E74 		.ascii	"uint32\000"
 3927      333200
 3928              	.LASF209:
 3929 06c8 696E7661 		.ascii	"invalidBdAddr\000"
 3929      6C696442 
 3929      64416464 
 3929      7200
 3930              	.LASF85:
 3931 06d6 4359424C 		.ascii	"CYBLE_EVT_MAX\000"
 3931      455F4556 
 3931      545F4D41 
 3931      5800
 3932              	.LASF86:
 3933 06e4 4359424C 		.ascii	"CYBLE_ERROR_OK\000"
 3933      455F4552 
 3933      524F525F 
 3933      4F4B00
 3934              	.LASF47:
 3935 06f3 4359424C 		.ascii	"CYBLE_EVT_GATTC_ERROR_RSP\000"
 3935      455F4556 
 3935      545F4741 
 3935      5454435F 
 3935      4552524F 
 3936              	.LASF72:
 3937 070d 4359424C 		.ascii	"CYBLE_EVT_L2CAP_CONN_PARAM_UPDATE_REQ\000"
 3937      455F4556 
 3937      545F4C32 
 3937      4341505F 
 3937      434F4E4E 
 3938              	.LASF242:
 3939 0733 47656E65 		.ascii	"Generated_Source\\PSoC4\\BLE_1.c\000"
 3939      72617465 
 3939      645F536F 
 3939      75726365 
 3939      5C50536F 
 3940              	.LASF82:
 3941 0752 4359424C 		.ascii	"CYBLE_EVT_L2CAP_CBFC_DATA_WRITE_IND\000"
 3941      455F4556 
 3941      545F4C32 
 3941      4341505F 
 3941      43424643 
 3942              	.LASF167:
 3943 0776 61747454 		.ascii	"attType\000"
 3943      79706500 
 3944              	.LASF45:
 3945 077e 4359424C 		.ascii	"CYBLE_EVT_GAP_SCAN_REQ_RECVD\000"
 3945      455F4556 
 3945      545F4741 
 3945      505F5343 
ARM GAS  C:\Users\Petro\AppData\Local\Temp\ccfEn9K1.s 			page 100


 3945      414E5F52 
 3946              	.LASF7:
 3947 079b 6C6F6E67 		.ascii	"long long unsigned int\000"
 3947      206C6F6E 
 3947      6720756E 
 3947      7369676E 
 3947      65642069 
 3948              	.LASF221:
 3949 07b2 76616C75 		.ascii	"value\000"
 3949      6500
 3950              	.LASF71:
 3951 07b8 4359424C 		.ascii	"CYBLE_EVT_GATTC_LONG_PROCEDURE_END\000"
 3951      455F4556 
 3951      545F4741 
 3951      5454435F 
 3951      4C4F4E47 
 3952              	.LASF69:
 3953 07db 4359424C 		.ascii	"CYBLE_EVT_GATTC_STOP_CMD_COMPLETE\000"
 3953      455F4556 
 3953      545F4741 
 3953      5454435F 
 3953      53544F50 
 3954              	.LASF219:
 3955 07fd 4379426C 		.ascii	"CyBle_GapGetLocalName\000"
 3955      655F4761 
 3955      70476574 
 3955      4C6F6361 
 3955      6C4E616D 
 3956              	.LASF91:
 3957 0813 4359424C 		.ascii	"CYBLE_ERROR_OOB_NOT_AVAILABLE\000"
 3957      455F4552 
 3957      524F525F 
 3957      4F4F425F 
 3957      4E4F545F 
 3958              	.LASF84:
 3959 0831 4359424C 		.ascii	"CYBLE_EVT_LE_PING_AUTH_TIMEOUT\000"
 3959      455F4556 
 3959      545F4C45 
 3959      5F50494E 
 3959      475F4155 
 3960              	.LASF194:
 3961 0850 4379426C 		.ascii	"CyBle_ServiceInit\000"
 3961      655F5365 
 3961      72766963 
 3961      65496E69 
 3961      7400
 3962              	.LASF238:
 3963 0862 6379426C 		.ascii	"cyBle_connHandle\000"
 3963      655F636F 
 3963      6E6E4861 
 3963      6E646C65 
 3963      00
 3964              	.LASF100:
 3965 0873 4359424C 		.ascii	"CYBLE_ERROR_L2CAP_PSM_ALREADY_REGISTERED\000"
 3965      455F4552 
 3965      524F525F 
 3965      4C324341 
ARM GAS  C:\Users\Petro\AppData\Local\Temp\ccfEn9K1.s 			page 101


 3965      505F5053 
 3966              	.LASF197:
 3967 089c 646C6543 		.ascii	"dleConfigParams\000"
 3967      6F6E6669 
 3967      67506172 
 3967      616D7300 
 3968              	.LASF5:
 3969 08ac 6C6F6E67 		.ascii	"long unsigned int\000"
 3969      20756E73 
 3969      69676E65 
 3969      6420696E 
 3969      7400
 3970              	.LASF44:
 3971 08be 4359424C 		.ascii	"CYBLE_EVT_GAP_CONN_ESTB\000"
 3971      455F4556 
 3971      545F4741 
 3971      505F434F 
 3971      4E4E5F45 
 3972              	.LASF59:
 3973 08d6 4359424C 		.ascii	"CYBLE_EVT_GATTS_WRITE_REQ\000"
 3973      455F4556 
 3973      545F4741 
 3973      5454535F 
 3973      57524954 
 3974              	.LASF51:
 3975 08f0 4359424C 		.ascii	"CYBLE_EVT_GATTC_XCHNG_MTU_RSP\000"
 3975      455F4556 
 3975      545F4741 
 3975      5454435F 
 3975      5843484E 
 3976              	.LASF68:
 3977 090e 4359424C 		.ascii	"CYBLE_EVT_GATTS_DATA_SIGNED_CMD_REQ\000"
 3977      455F4556 
 3977      545F4741 
 3977      5454535F 
 3977      44415441 
 3978              	.LASF217:
 3979 0932 6E616D65 		.ascii	"name\000"
 3979      00
 3980              	.LASF229:
 3981 0937 6379426C 		.ascii	"cyBle_discoveryInfo\000"
 3981      655F6469 
 3981      73636F76 
 3981      65727949 
 3981      6E666F00 
 3982              	.LASF163:
 3983 094b 61747446 		.ascii	"attFormatValue\000"
 3983      6F726D61 
 3983      7456616C 
 3983      756500
 3984              	.LASF230:
 3985 095a 6379426C 		.ascii	"cyBle_connectionParameters\000"
 3985      655F636F 
 3985      6E6E6563 
 3985      74696F6E 
 3985      50617261 
 3986              	.LASF123:
ARM GAS  C:\Users\Petro\AppData\Local\Temp\ccfEn9K1.s 			page 102


 3987 0975 62756666 		.ascii	"bufferUnits\000"
 3987      6572556E 
 3987      69747300 
 3988              	.LASF144:
 3989 0981 696E6974 		.ascii	"initiatorFilterPolicy\000"
 3989      6961746F 
 3989      7246696C 
 3989      74657250 
 3989      6F6C6963 
 3990              	.LASF114:
 3991 0997 4359424C 		.ascii	"CYBLE_ERROR_NTF_DISABLED\000"
 3991      455F4552 
 3991      524F525F 
 3991      4E54465F 
 3991      44495341 
 3992              	.LASF17:
 3993 09b0 4359424C 		.ascii	"CYBLE_EVT_HOST_INVALID\000"
 3993      455F4556 
 3993      545F484F 
 3993      53545F49 
 3993      4E56414C 
 3994              	.LASF54:
 3995 09c7 4359424C 		.ascii	"CYBLE_EVT_GATTC_FIND_INFO_RSP\000"
 3995      455F4556 
 3995      545F4741 
 3995      5454435F 
 3995      46494E44 
 3996              	.LASF23:
 3997 09e5 4359424C 		.ascii	"CYBLE_EVT_MEMORY_REQUEST\000"
 3997      455F4556 
 3997      545F4D45 
 3997      4D4F5259 
 3997      5F524551 
 3998              	.LASF212:
 3999 09fe 4379426C 		.ascii	"CyBle_GapcStopScan\000"
 3999      655F4761 
 3999      70635374 
 3999      6F705363 
 3999      616E00
 4000              	.LASF224:
 4001 0a11 6379426C 		.ascii	"cyBle_initVar\000"
 4001      655F696E 
 4001      69745661 
 4001      7200
 4002              	.LASF26:
 4003 0a1f 4359424C 		.ascii	"CYBLE_EVT_GAP_PASSKEY_ENTRY_REQUEST\000"
 4003      455F4556 
 4003      545F4741 
 4003      505F5041 
 4003      53534B45 
 4004              	.LASF31:
 4005 0a43 4359424C 		.ascii	"CYBLE_EVT_GAP_DEVICE_CONNECTED\000"
 4005      455F4556 
 4005      545F4741 
 4005      505F4445 
 4005      56494345 
 4006              	.LASF160:
ARM GAS  C:\Users\Petro\AppData\Local\Temp\ccfEn9K1.s 			page 103


 4007 0a62 6D617841 		.ascii	"maxAttrLength\000"
 4007      7474724C 
 4007      656E6774 
 4007      6800
 4008              	.LASF244:
 4009 0a70 4379426C 		.ascii	"CyBle_Set16ByPtr\000"
 4009      655F5365 
 4009      74313642 
 4009      79507472 
 4009      00
 4010              	.LASF127:
 4011 0a81 646C654E 		.ascii	"dleNumTxBuffer\000"
 4011      756D5478 
 4011      42756666 
 4011      657200
 4012              	.LASF46:
 4013 0a90 4359424C 		.ascii	"CYBLE_EVT_GAP_AUTH_REQ_REPLY_ERR\000"
 4013      455F4556 
 4013      545F4741 
 4013      505F4155 
 4013      54485F52 
 4014              	.LASF202:
 4015 0ab1 4379426C 		.ascii	"CyBle_Start\000"
 4015      655F5374 
 4015      61727400 
 4016              	.LASF153:
 4017 0abd 4359424C 		.ascii	"CYBLE_GAPC_CONN_PARAM_T\000"
 4017      455F4741 
 4017      50435F43 
 4017      4F4E4E5F 
 4017      50415241 
 4018              	.LASF208:
 4019 0ad5 62446576 		.ascii	"bDevHandle\000"
 4019      48616E64 
 4019      6C6500
 4020              	.LASF174:
 4021 0ae0 61747456 		.ascii	"attValuesCCCDFlashMemory\000"
 4021      616C7565 
 4021      73434343 
 4021      44466C61 
 4021      73684D65 
 4022              	.LASF179:
 4023 0af9 4359424C 		.ascii	"CYBLE_ANS_NEW_ALERT\000"
 4023      455F414E 
 4023      535F4E45 
 4023      575F414C 
 4023      45525400 
 4024              	.LASF237:
 4025 0b0d 6379426C 		.ascii	"cyBle_state\000"
 4025      655F7374 
 4025      61746500 
 4026              	.LASF27:
 4027 0b19 4359424C 		.ascii	"CYBLE_EVT_GAP_PASSKEY_DISPLAY_REQUEST\000"
 4027      455F4556 
 4027      545F4741 
 4027      505F5041 
 4027      53534B45 
ARM GAS  C:\Users\Petro\AppData\Local\Temp\ccfEn9K1.s 			page 104


 4028              	.LASF48:
 4029 0b3f 4359424C 		.ascii	"CYBLE_EVT_GATT_CONNECT_IND\000"
 4029      455F4556 
 4029      545F4741 
 4029      54545F43 
 4029      4F4E4E45 
 4030              	.LASF124:
 4031 0b5a 4359424C 		.ascii	"CYBLE_STK_APP_DATA_BUFF_T\000"
 4031      455F5354 
 4031      4B5F4150 
 4031      505F4441 
 4031      54415F42 
 4032              	.LASF155:
 4033 0b74 61747449 		.ascii	"attId\000"
 4033      6400
 4034              	.LASF218:
 4035 0b7a 63686172 		.ascii	"charLen\000"
 4035      4C656E00 
 4036              	.LASF81:
 4037 0b82 4359424C 		.ascii	"CYBLE_EVT_L2CAP_CBFC_TX_CREDIT_IND\000"
 4037      455F4556 
 4037      545F4C32 
 4037      4341505F 
 4037      43424643 
 4038              	.LASF243:
 4039 0ba5 443A5C43 		.ascii	"D:\\Cypress\\system-start-finish\\vesion 2\\fw\\fin"
 4039      79707265 
 4039      73735C73 
 4039      79737465 
 4039      6D2D7374 
 4040 0bd3 6973685C 		.ascii	"ish\\sandbox\\v4\\Finish(state machine)\\fin_v0.cyd"
 4040      73616E64 
 4040      626F785C 
 4040      76345C46 
 4040      696E6973 
 4041 0c02 736E00   		.ascii	"sn\000"
 4042              	.LASF24:
 4043 0c05 4359424C 		.ascii	"CYBLE_EVT_GAPC_SCAN_PROGRESS_RESULT\000"
 4043      455F4556 
 4043      545F4741 
 4043      50435F53 
 4043      43414E5F 
 4044              	.LASF226:
 4045 0c29 6379426C 		.ascii	"cyBle_eventHandlerFlag\000"
 4045      655F6576 
 4045      656E7448 
 4045      616E646C 
 4045      6572466C 
 4046              	.LASF149:
 4047 0c40 636F6E6E 		.ascii	"connLatency\000"
 4047      4C617465 
 4047      6E637900 
 4048              	.LASF113:
 4049 0c4c 4359424C 		.ascii	"CYBLE_ERROR_MAX\000"
 4049      455F4552 
 4049      524F525F 
 4049      4D415800 
ARM GAS  C:\Users\Petro\AppData\Local\Temp\ccfEn9K1.s 			page 105


 4050              	.LASF111:
 4051 0c5c 4359424C 		.ascii	"CYBLE_ERROR_FLASH_WRITE\000"
 4051      455F4552 
 4051      524F525F 
 4051      464C4153 
 4051      485F5752 
 4052              	.LASF53:
 4053 0c74 4359424C 		.ascii	"CYBLE_EVT_GATTC_READ_BY_TYPE_RSP\000"
 4053      455F4556 
 4053      545F4741 
 4053      5454435F 
 4053      52454144 
 4054              	.LASF16:
 4055 0c95 73697A65 		.ascii	"sizetype\000"
 4055      74797065 
 4055      00
 4056              	.LASF157:
 4057 0c9e 61637475 		.ascii	"actualLength\000"
 4057      616C4C65 
 4057      6E677468 
 4057      00
 4058              	.LASF187:
 4059 0cab 4359424C 		.ascii	"CYBLE_STATE_INITIALIZING\000"
 4059      455F5354 
 4059      4154455F 
 4059      494E4954 
 4059      49414C49 
 4060              	.LASF139:
 4061 0cc4 6F776E41 		.ascii	"ownAddrType\000"
 4061      64647254 
 4061      79706500 
 4062              	.LASF29:
 4063 0cd0 4359424C 		.ascii	"CYBLE_EVT_GAP_AUTH_FAILED\000"
 4063      455F4556 
 4063      545F4741 
 4063      505F4155 
 4063      54485F46 
 4064              	.LASF214:
 4065 0cea 61646472 		.ascii	"address\000"
 4065      65737300 
 4066              	.LASF60:
 4067 0cf2 4359424C 		.ascii	"CYBLE_EVT_GATTC_WRITE_RSP\000"
 4067      455F4556 
 4067      545F4741 
 4067      5454435F 
 4067      57524954 
 4068              	.LASF42:
 4069 0d0c 4359424C 		.ascii	"CYBLE_EVT_GAPC_DIRECT_ADV_REPORT\000"
 4069      455F4556 
 4069      545F4741 
 4069      50435F44 
 4069      49524543 
 4070              	.LASF40:
 4071 0d2d 4359424C 		.ascii	"CYBLE_EVT_GAP_DATA_LENGTH_CHANGE\000"
 4071      455F4556 
 4071      545F4741 
 4071      505F4441 
ARM GAS  C:\Users\Petro\AppData\Local\Temp\ccfEn9K1.s 			page 106


 4071      54415F4C 
 4072              	.LASF176:
 4073 0d4e 626F756E 		.ascii	"boundedDevCount\000"
 4073      64656444 
 4073      6576436F 
 4073      756E7400 
 4074              	.LASF185:
 4075 0d5e 4359424C 		.ascii	"CYBLE_ANS_DESCR_COUNT\000"
 4075      455F414E 
 4075      535F4445 
 4075      5343525F 
 4075      434F554E 
 4076              	.LASF28:
 4077 0d74 4359424C 		.ascii	"CYBLE_EVT_GAP_AUTH_COMPLETE\000"
 4077      455F4556 
 4077      545F4741 
 4077      505F4155 
 4077      54485F43 
 4078              	.LASF195:
 4079 0d90 61706952 		.ascii	"apiResult\000"
 4079      6573756C 
 4079      7400
 4080              	.LASF118:
 4081 0d9a 4359424C 		.ascii	"CYBLE_API_RESULT_T\000"
 4081      455F4150 
 4081      495F5245 
 4081      53554C54 
 4081      5F5400
 4082              	.LASF201:
 4083 0dad 4379426C 		.ascii	"CyBle_Stop\000"
 4083      655F5374 
 4083      6F7000
 4084              	.LASF65:
 4085 0db8 4359424C 		.ascii	"CYBLE_EVT_GATTC_HANDLE_VALUE_NTF\000"
 4085      455F4556 
 4085      545F4741 
 4085      5454435F 
 4085      48414E44 
 4086              	.LASF115:
 4087 0dd9 4359424C 		.ascii	"CYBLE_ERROR_IND_DISABLED\000"
 4087      455F4552 
 4087      524F525F 
 4087      494E445F 
 4087      44495341 
 4088              	.LASF164:
 4089 0df2 61747456 		.ascii	"attValueUuid\000"
 4089      616C7565 
 4089      55756964 
 4089      00
 4090              	.LASF158:
 4091 0dff 61747447 		.ascii	"attGenericVal\000"
 4091      656E6572 
 4091      69635661 
 4091      6C00
 4092              	.LASF76:
 4093 0e0d 4359424C 		.ascii	"CYBLE_EVT_L2CAP_CBFC_CONN_CNF\000"
 4093      455F4556 
ARM GAS  C:\Users\Petro\AppData\Local\Temp\ccfEn9K1.s 			page 107


 4093      545F4C32 
 4093      4341505F 
 4093      43424643 
 4094              	.LASF198:
 4095 0e2b 70726976 		.ascii	"privacyConfigParams\000"
 4095      61637943 
 4095      6F6E6669 
 4095      67506172 
 4095      616D7300 
 4096              	.LASF236:
 4097 0e3f 6379426C 		.ascii	"cyBle_flashStorage\000"
 4097      655F666C 
 4097      61736853 
 4097      746F7261 
 4097      676500
 4098              	.LASF147:
 4099 0e52 636F6E6E 		.ascii	"connIntvMin\000"
 4099      496E7476 
 4099      4D696E00 
 4100              	.LASF146:
 4101 0e5e 70656572 		.ascii	"peerAddrType\000"
 4101      41646472 
 4101      54797065 
 4101      00
 4102              	.LASF12:
 4103 0e6b 666C6F61 		.ascii	"float\000"
 4103      7400
 4104              	.LASF142:
 4105 0e71 66696C74 		.ascii	"filterDuplicates\000"
 4105      65724475 
 4105      706C6963 
 4105      61746573 
 4105      00
 4106              	.LASF232:
 4107 0e82 6379426C 		.ascii	"cyBle_pendingFlashWrite\000"
 4107      655F7065 
 4107      6E64696E 
 4107      67466C61 
 4107      73685772 
 4108              	.LASF75:
 4109 0e9a 4359424C 		.ascii	"CYBLE_EVT_L2CAP_CBFC_CONN_IND\000"
 4109      455F4556 
 4109      545F4C32 
 4109      4341505F 
 4109      43424643 
 4110              	.LASF117:
 4111 0eb8 4359424C 		.ascii	"CYBLE_ERROR_INVALID_STATE\000"
 4111      455F4552 
 4111      524F525F 
 4111      494E5641 
 4111      4C49445F 
 4112              	.LASF96:
 4113 0ed2 4359424C 		.ascii	"CYBLE_ERROR_TX_POWER_READ\000"
 4113      455F4552 
 4113      524F525F 
 4113      54585F50 
 4113      4F574552 
ARM GAS  C:\Users\Petro\AppData\Local\Temp\ccfEn9K1.s 			page 108


 4114              	.LASF204:
 4115 0eec 63616C6C 		.ascii	"callbackFunc\000"
 4115      6261636B 
 4115      46756E63 
 4115      00
 4116              	.LASF170:
 4117 0ef9 61747456 		.ascii	"attValue\000"
 4117      616C7565 
 4117      00
 4118              	.LASF1:
 4119 0f02 756E7369 		.ascii	"unsigned char\000"
 4119      676E6564 
 4119      20636861 
 4119      7200
 4120              	.LASF10:
 4121 0f10 75696E74 		.ascii	"uint16\000"
 4121      313600
 4122              	.LASF38:
 4123 0f17 4359424C 		.ascii	"CYBLE_EVT_GAP_KEYPRESS_NOTIFICATION\000"
 4123      455F4556 
 4123      545F4741 
 4123      505F4B45 
 4123      59505245 
 4124              	.LASF233:
 4125 0f3b 6379426C 		.ascii	"cyBle_peerBonding\000"
 4125      655F7065 
 4125      6572426F 
 4125      6E64696E 
 4125      6700
 4126              	.LASF190:
 4127 0f4d 4359424C 		.ascii	"CYBLE_STATE_CONNECTING\000"
 4127      455F5354 
 4127      4154455F 
 4127      434F4E4E 
 4127      45435449 
 4128              	.LASF116:
 4129 0f64 4359424C 		.ascii	"CYBLE_ERROR_CHAR_IS_NOT_DISCOVERED\000"
 4129      455F4552 
 4129      524F525F 
 4129      43484152 
 4129      5F49535F 
 4130              	.LASF2:
 4131 0f87 73686F72 		.ascii	"short int\000"
 4131      7420696E 
 4131      7400
 4132              	.LASF66:
 4133 0f91 4359424C 		.ascii	"CYBLE_EVT_GATTC_HANDLE_VALUE_IND\000"
 4133      455F4556 
 4133      545F4741 
 4133      5454435F 
 4133      48414E44 
 4134              	.LASF211:
 4135 0fb2 7363616E 		.ascii	"scanningIntervalType\000"
 4135      6E696E67 
 4135      496E7465 
 4135      7276616C 
 4135      54797065 
ARM GAS  C:\Users\Petro\AppData\Local\Temp\ccfEn9K1.s 			page 109


 4136              	.LASF92:
 4137 0fc7 4359424C 		.ascii	"CYBLE_ERROR_NO_CONNECTION\000"
 4137      455F4552 
 4137      524F525F 
 4137      4E4F5F43 
 4137      4F4E4E45 
 4138              	.LASF143:
 4139 0fe1 4359424C 		.ascii	"CYBLE_GAPC_DISC_INFO_T\000"
 4139      455F4741 
 4139      50435F44 
 4139      4953435F 
 4139      494E464F 
 4140              	.LASF148:
 4141 0ff8 636F6E6E 		.ascii	"connIntvMax\000"
 4141      496E7476 
 4141      4D617800 
 4142              	.LASF200:
 4143 1004 66656174 		.ascii	"featureHeapReq\000"
 4143      75726548 
 4143      65617052 
 4143      657100
 4144              	.LASF62:
 4145 1013 4359424C 		.ascii	"CYBLE_EVT_GATTS_PREP_WRITE_REQ\000"
 4145      455F4556 
 4145      545F4741 
 4145      5454535F 
 4145      50524550 
 4146              	.LASF33:
 4147 1032 4359424C 		.ascii	"CYBLE_EVT_GAP_ENCRYPT_CHANGE\000"
 4147      455F4556 
 4147      545F4741 
 4147      505F454E 
 4147      43525950 
 4148              	.LASF133:
 4149 104f 66656174 		.ascii	"feature_mask\000"
 4149      7572655F 
 4149      6D61736B 
 4149      00
 4150              	.LASF67:
 4151 105c 4359424C 		.ascii	"CYBLE_EVT_GATTS_HANDLE_VALUE_CNF\000"
 4151      455F4556 
 4151      545F4741 
 4151      5454535F 
 4151      48414E44 
 4152              	.LASF94:
 4153 107d 4359424C 		.ascii	"CYBLE_ERROR_REPEATED_ATTEMPTS\000"
 4153      455F4552 
 4153      524F525F 
 4153      52455045 
 4153      41544544 
 4154              	.LASF207:
 4155 109b 4379426C 		.ascii	"CyBle_GapRemoveBondedDevice\000"
 4155      655F4761 
 4155      7052656D 
 4155      6F766542 
 4155      6F6E6465 
 4156              	.LASF196:
ARM GAS  C:\Users\Petro\AppData\Local\Temp\ccfEn9K1.s 			page 110


 4157 10b7 6379426C 		.ascii	"cyBle_stackDataBuff\000"
 4157      655F7374 
 4157      61636B44 
 4157      61746142 
 4157      75666600 
 4158              	.LASF189:
 4159 10cb 4359424C 		.ascii	"CYBLE_STATE_SCANNING\000"
 4159      455F5354 
 4159      4154455F 
 4159      5343414E 
 4159      4E494E47 
 4160              	.LASF234:
 4161 10e0 6379426C 		.ascii	"cyBle_gattDB\000"
 4161      655F6761 
 4161      74744442 
 4161      00
 4162              	.LASF240:
 4163 10ed 6379426C 		.ascii	"cyBle_scanningIntervalType\000"
 4163      655F7363 
 4163      616E6E69 
 4163      6E67496E 
 4163      74657276 
 4164              	.LASF15:
 4165 1108 63686172 		.ascii	"char\000"
 4165      00
 4166              	.LASF97:
 4167 110d 4359424C 		.ascii	"CYBLE_ERROR_BT_ON_NOT_COMPLETED\000"
 4167      455F4552 
 4167      524F525F 
 4167      42545F4F 
 4167      4E5F4E4F 
 4168              	.LASF32:
 4169 112d 4359424C 		.ascii	"CYBLE_EVT_GAP_DEVICE_DISCONNECTED\000"
 4169      455F4556 
 4169      545F4741 
 4169      505F4445 
 4169      56494345 
 4170              	.LASF122:
 4171 114f 62756666 		.ascii	"bufferSize\000"
 4171      65725369 
 4171      7A6500
 4172              	.LASF8:
 4173 115a 756E7369 		.ascii	"unsigned int\000"
 4173      676E6564 
 4173      20696E74 
 4173      00
 4174              	.LASF169:
 4175 1167 61747445 		.ascii	"attEndHandle\000"
 4175      6E644861 
 4175      6E646C65 
 4175      00
 4176              	.LASF70:
 4177 1174 4359424C 		.ascii	"CYBLE_EVT_GATTS_READ_CHAR_VAL_ACCESS_REQ\000"
 4177      455F4556 
 4177      545F4741 
 4177      5454535F 
 4177      52454144 
ARM GAS  C:\Users\Petro\AppData\Local\Temp\ccfEn9K1.s 			page 111


 4178              	.LASF235:
 4179 119d 6379426C 		.ascii	"cyBle_attValuesCCCD\000"
 4179      655F6174 
 4179      7456616C 
 4179      75657343 
 4179      43434400 
 4180              	.LASF14:
 4181 11b1 63686172 		.ascii	"char8\000"
 4181      3800
 4182              	.LASF180:
 4183 11b7 4359424C 		.ascii	"CYBLE_ANS_SUPPORTED_UNREAD_ALERT_CAT\000"
 4183      455F414E 
 4183      535F5355 
 4183      50504F52 
 4183      5445445F 
 4184              	.LASF107:
 4185 11dc 4359424C 		.ascii	"CYBLE_ERROR_FLASH_WRITE_NOT_PERMITED\000"
 4185      455F4552 
 4185      524F525F 
 4185      464C4153 
 4185      485F5752 
 4186              	.LASF102:
 4187 1201 4359424C 		.ascii	"CYBLE_ERROR_L2CAP_CONNECTION_ENTITY_NOT_FOUND\000"
 4187      455F4552 
 4187      524F525F 
 4187      4C324341 
 4187      505F434F 
 4188              	.LASF134:
 4189 122f 4359424C 		.ascii	"CYBLE_STACK_CONFIG_PARAM_T\000"
 4189      455F5354 
 4189      41434B5F 
 4189      434F4E46 
 4189      49475F50 
 4190              	.LASF181:
 4191 124a 4359424C 		.ascii	"CYBLE_ANS_UNREAD_ALERT_STATUS\000"
 4191      455F414E 
 4191      535F554E 
 4191      52454144 
 4191      5F414C45 
 4192              	.LASF20:
 4193 1268 4359424C 		.ascii	"CYBLE_EVT_HARDWARE_ERROR\000"
 4193      455F4556 
 4193      545F4841 
 4193      52445741 
 4193      52455F45 
 4194              	.LASF231:
 4195 1281 6379426C 		.ascii	"cyBle_connectingTimeout\000"
 4195      655F636F 
 4195      6E6E6563 
 4195      74696E67 
 4195      54696D65 
 4196              	.LASF171:
 4197 1299 4359424C 		.ascii	"CYBLE_GATTS_DB_T\000"
 4197      455F4741 
 4197      5454535F 
 4197      44425F54 
 4197      00
ARM GAS  C:\Users\Petro\AppData\Local\Temp\ccfEn9K1.s 			page 112


 4198              	.LASF184:
 4199 12aa 4359424C 		.ascii	"CYBLE_ANS_CCCD\000"
 4199      455F414E 
 4199      535F4343 
 4199      434400
 4200              	.LASF88:
 4201 12b9 4359424C 		.ascii	"CYBLE_ERROR_INVALID_OPERATION\000"
 4201      455F4552 
 4201      524F525F 
 4201      494E5641 
 4201      4C49445F 
 4202              	.LASF132:
 4203 12d7 70726976 		.ascii	"privacyConfig\000"
 4203      61637943 
 4203      6F6E6669 
 4203      6700
 4204              	.LASF203:
 4205 12e5 4379426C 		.ascii	"CyBle_StoreBondingData\000"
 4205      655F5374 
 4205      6F726542 
 4205      6F6E6469 
 4205      6E674461 
 4206              	.LASF172:
 4207 12fc 4359424C 		.ascii	"CYBLE_CALLBACK_T\000"
 4207      455F4341 
 4207      4C4C4241 
 4207      434B5F54 
 4207      00
 4208              	.LASF215:
 4209 130d 4379426C 		.ascii	"CyBle_GapcCancelDeviceConnection\000"
 4209      655F4761 
 4209      70634361 
 4209      6E63656C 
 4209      44657669 
 4210              	.LASF216:
 4211 132e 4379426C 		.ascii	"CyBle_GapSetLocalName\000"
 4211      655F4761 
 4211      70536574 
 4211      4C6F6361 
 4211      6C4E616D 
 4212              	.LASF119:
 4213 1344 62644164 		.ascii	"bdAddr\000"
 4213      647200
 4214              	.LASF150:
 4215 134b 73757065 		.ascii	"supervisionTO\000"
 4215      72766973 
 4215      696F6E54 
 4215      4F00
 4216              	.LASF137:
 4217 1359 7363616E 		.ascii	"scanIntv\000"
 4217      496E7476 
 4217      00
 4218              	.LASF177:
 4219 1362 43595F42 		.ascii	"CY_BLE_FLASH_STORAGE\000"
 4219      4C455F46 
 4219      4C415348 
 4219      5F53544F 
ARM GAS  C:\Users\Petro\AppData\Local\Temp\ccfEn9K1.s 			page 113


 4219      52414745 
 4220              	.LASF192:
 4221 1377 4359424C 		.ascii	"CYBLE_STATE_T\000"
 4221      455F5354 
 4221      4154455F 
 4221      5400
 4222              	.LASF57:
 4223 1385 4359424C 		.ascii	"CYBLE_EVT_GATTC_READ_BLOB_RSP\000"
 4223      455F4556 
 4223      545F4741 
 4223      5454435F 
 4223      52454144 
 4224              	.LASF161:
 4225 13a3 61747447 		.ascii	"attGenericValLen\000"
 4225      656E6572 
 4225      69635661 
 4225      6C4C656E 
 4225      00
 4226              	.LASF199:
 4227 13b4 73746163 		.ascii	"stackConfig\000"
 4227      6B436F6E 
 4227      66696700 
 4228              	.LASF227:
 4229 13c0 6379426C 		.ascii	"cyBle_deviceAddress\000"
 4229      655F6465 
 4229      76696365 
 4229      41646472 
 4229      65737300 
 4230              	.LASF108:
 4231 13d4 4359424C 		.ascii	"CYBLE_ERROR_MIC_AUTH_FAILED\000"
 4231      455F4552 
 4231      524F525F 
 4231      4D49435F 
 4231      41555448 
 4232              	.LASF128:
 4233 13f0 4359424C 		.ascii	"CYBLE_DLE_CONFIG_PARAM_T\000"
 4233      455F444C 
 4233      455F434F 
 4233      4E464947 
 4233      5F504152 
 4234              	.LASF101:
 4235 1409 4359424C 		.ascii	"CYBLE_ERROR_L2CAP_PSM_NOT_REGISTERED\000"
 4235      455F4552 
 4235      524F525F 
 4235      4C324341 
 4235      505F5053 
 4236              	.LASF228:
 4237 142e 6379426C 		.ascii	"cyBle_sflashDeviceAddress\000"
 4237      655F7366 
 4237      6C617368 
 4237      44657669 
 4237      63654164 
 4238              	.LASF188:
 4239 1448 4359424C 		.ascii	"CYBLE_STATE_CONNECTED\000"
 4239      455F5354 
 4239      4154455F 
 4239      434F4E4E 
ARM GAS  C:\Users\Petro\AppData\Local\Temp\ccfEn9K1.s 			page 114


 4239      45435445 
 4240              	.LASF182:
 4241 145e 4359424C 		.ascii	"CYBLE_ANS_ALERT_NTF_CONTROL_POINT\000"
 4241      455F414E 
 4241      535F414C 
 4241      4552545F 
 4241      4E54465F 
 4242              	.LASF241:
 4243 1480 474E5520 		.ascii	"GNU C 4.9.3 20150303 (release) [ARM/embedded-4_9-br"
 4243      4320342E 
 4243      392E3320 
 4243      32303135 
 4243      30333033 
 4244 14b3 616E6368 		.ascii	"anch revision 221220] -mcpu=cortex-m0 -mthumb -g -O"
 4244      20726576 
 4244      6973696F 
 4244      6E203232 
 4244      31323230 
 4245 14e6 30202D66 		.ascii	"0 -ffunction-sections -ffat-lto-objects\000"
 4245      66756E63 
 4245      74696F6E 
 4245      2D736563 
 4245      74696F6E 
 4246              	.LASF55:
 4247 150e 4359424C 		.ascii	"CYBLE_EVT_GATTC_FIND_BY_TYPE_VALUE_RSP\000"
 4247      455F4556 
 4247      545F4741 
 4247      5454435F 
 4247      46494E44 
 4248              	.LASF95:
 4249 1535 4359424C 		.ascii	"CYBLE_ERROR_GAP_ROLE\000"
 4249      455F4552 
 4249      524F525F 
 4249      4741505F 
 4249      524F4C45 
 4250              	.LASF131:
 4251 154a 646C6543 		.ascii	"dleConfig\000"
 4251      6F6E6669 
 4251      6700
 4252              	.LASF36:
 4253 1554 4359424C 		.ascii	"CYBLE_EVT_GAP_KEYINFO_EXCHNGE_CMPLT\000"
 4253      455F4556 
 4253      545F4741 
 4253      505F4B45 
 4253      59494E46 
 4254              	.LASF220:
 4255 1578 4379426C 		.ascii	"CyBle_Get16ByPtr\000"
 4255      655F4765 
 4255      74313642 
 4255      79507472 
 4255      00
 4256              	.LASF152:
 4257 1589 6D617843 		.ascii	"maxCeLength\000"
 4257      654C656E 
 4257      67746800 
 4258              	.LASF154:
 4259 1595 62644861 		.ascii	"bdHandle\000"
ARM GAS  C:\Users\Petro\AppData\Local\Temp\ccfEn9K1.s 			page 115


 4259      6E646C65 
 4259      00
 4260              	.LASF83:
 4261 159e 4359424C 		.ascii	"CYBLE_EVT_PENDING_FLASH_WRITE\000"
 4261      455F4556 
 4261      545F5045 
 4261      4E44494E 
 4261      475F464C 
 4262              	.LASF193:
 4263 15bc 4379426C 		.ascii	"CyBle_Init\000"
 4263      655F496E 
 4263      697400
 4264              	.LASF73:
 4265 15c7 4359424C 		.ascii	"CYBLE_EVT_L2CAP_CONN_PARAM_UPDATE_RSP\000"
 4265      455F4556 
 4265      545F4C32 
 4265      4341505F 
 4265      434F4E4E 
 4266              	.LASF41:
 4267 15ed 4359424C 		.ascii	"CYBLE_EVT_GAP_ENHANCE_CONN_COMPLETE\000"
 4267      455F4556 
 4267      545F4741 
 4267      505F454E 
 4267      48414E43 
 4268              	.LASF159:
 4269 1611 4359424C 		.ascii	"CYBLE_GATTS_ATT_GEN_VAL_LEN_T\000"
 4269      455F4741 
 4269      5454535F 
 4269      4154545F 
 4269      47454E5F 
 4270              	.LASF213:
 4271 162f 4379426C 		.ascii	"CyBle_GapcConnectDevice\000"
 4271      655F4761 
 4271      7063436F 
 4271      6E6E6563 
 4271      74446576 
 4272              	.LASF49:
 4273 1647 4359424C 		.ascii	"CYBLE_EVT_GATT_DISCONNECT_IND\000"
 4273      455F4556 
 4273      545F4741 
 4273      54545F44 
 4273      4953434F 
 4274              	.LASF105:
 4275 1665 4359424C 		.ascii	"CYBLE_ERROR_GATT_DB_INVALID_ATTR_HANDLE\000"
 4275      455F4552 
 4275      524F525F 
 4275      47415454 
 4275      5F44425F 
 4276              	.LASF129:
 4277 168d 7265736F 		.ascii	"resolvingListSize\000"
 4277      6C76696E 
 4277      674C6973 
 4277      7453697A 
 4277      6500
 4278              		.ident	"GCC: (GNU Tools for ARM Embedded Processors) 4.9.3 20150303 (release) [ARM/embedded-4_9-br
