ARM GAS  C:\Users\Petro\AppData\Local\Temp\ccfEn9K1.s 			page 1


   1              		.cpu cortex-m0
   2              		.fpu softvfp
   3              		.eabi_attribute 20, 1
   4              		.eabi_attribute 21, 1
   5              		.eabi_attribute 23, 3
   6              		.eabi_attribute 24, 1
   7              		.eabi_attribute 25, 1
   8              		.eabi_attribute 26, 1
   9              		.eabi_attribute 30, 6
  10              		.eabi_attribute 34, 0
  11              		.eabi_attribute 18, 4
  12              		.code	16
  13              		.file	"BLE_1.c"
  14              		.text
  15              	.Ltext0:
  16              		.cfi_sections	.debug_frame
  17              		.global	cyBle_initVar
  18              		.bss
  19              		.type	cyBle_initVar, %object
  20              		.size	cyBle_initVar, 1
  21              	cyBle_initVar:
  22 0000 00       		.space	1
  23              		.global	cyBle_stackMemoryRam
  24              		.section	.noinit,"aw",%progbits
  25              		.align	3
  26              		.type	cyBle_stackMemoryRam, %object
  27              		.size	cyBle_stackMemoryRam, 2784
  28              	cyBle_stackMemoryRam:
  29 0000 00000000 		.space	2784
  29      00000000 
  29      00000000 
  29      00000000 
  29      00000000 
  30              		.comm	cyBle_connectionParameters,26,4
  31              		.comm	cyBle_connectingTimeout,2,2
  32              		.global	cyBle_discoveryInfo
  33              		.data
  34              		.align	2
  35              		.type	cyBle_discoveryInfo, %object
  36              		.size	cyBle_discoveryInfo, 12
  37              	cyBle_discoveryInfo:
  38 0000 02       		.byte	2
  39 0001 01       		.byte	1
  40 0002 3000     		.short	48
  41 0004 3000     		.short	48
  42 0006 00       		.byte	0
  43 0007 00       		.byte	0
  44 0008 1E00     		.short	30
  45 000a 00       		.byte	0
  46 000b 00       		.space	1
  47              		.comm	cyBle_peerBonding,1,1
  48              		.comm	cyBle_pendingFlashWrite,1,1
  49              		.bss
  50              	cyBle_pendingFlashClearCccdHandle:
  51 0001 00       		.space	1
  52              		.comm	CyBle_ApplCallback,4,4
  53              		.global	cyBle_deviceAddress
ARM GAS  C:\Users\Petro\AppData\Local\Temp\ccfEn9K1.s 			page 2


  54              		.data
  55              		.align	2
  56              		.type	cyBle_deviceAddress, %object
  57              		.size	cyBle_deviceAddress, 7
  58              	cyBle_deviceAddress:
  59 000c 00       		.byte	0
  60 000d 00       		.byte	0
  61 000e 00       		.byte	0
  62 000f 50       		.byte	80
  63 0010 A0       		.byte	-96
  64 0011 00       		.byte	0
  65 0012 00       		.byte	0
  66              		.global	cyBle_sflashDeviceAddress
  67 0013 00       		.align	2
  68              		.type	cyBle_sflashDeviceAddress, %object
  69              		.size	cyBle_sflashDeviceAddress, 4
  70              	cyBle_sflashDeviceAddress:
  71 0014 00F2FF0F 		.word	268431872
  72              		.section	.text.CyBle_Init,"ax",%progbits
  73              		.align	2
  74              		.global	CyBle_Init
  75              		.code	16
  76              		.thumb_func
  77              		.type	CyBle_Init, %function
  78              	CyBle_Init:
  79              	.LFB2:
  80              		.file 1 "Generated_Source\\PSoC4\\BLE_1.c"
   1:Generated_Source\PSoC4/BLE_1.c **** /***************************************************************************//**
   2:Generated_Source\PSoC4/BLE_1.c **** * \file CYBLE.c
   3:Generated_Source\PSoC4/BLE_1.c **** * \version 3.20
   4:Generated_Source\PSoC4/BLE_1.c **** * 
   5:Generated_Source\PSoC4/BLE_1.c **** * \brief
   6:Generated_Source\PSoC4/BLE_1.c **** *  This file contains the source code for the Common APIs of the BLE Component.
   7:Generated_Source\PSoC4/BLE_1.c **** * 
   8:Generated_Source\PSoC4/BLE_1.c **** ********************************************************************************
   9:Generated_Source\PSoC4/BLE_1.c **** * \copyright
  10:Generated_Source\PSoC4/BLE_1.c **** * Copyright 2014-2016, Cypress Semiconductor Corporation.  All rights reserved.
  11:Generated_Source\PSoC4/BLE_1.c **** * You may use this file only in accordance with the license, terms, conditions,
  12:Generated_Source\PSoC4/BLE_1.c **** * disclaimers, and limitations in the end user license agreement accompanying
  13:Generated_Source\PSoC4/BLE_1.c **** * the software package with which this file was provided.
  14:Generated_Source\PSoC4/BLE_1.c **** *******************************************************************************/
  15:Generated_Source\PSoC4/BLE_1.c **** 
  16:Generated_Source\PSoC4/BLE_1.c **** #include "BLE_1_eventHandler.h"
  17:Generated_Source\PSoC4/BLE_1.c **** #include "BLE_1_HAL_PVT.h"
  18:Generated_Source\PSoC4/BLE_1.c **** #include <stdlib.h>
  19:Generated_Source\PSoC4/BLE_1.c **** 
  20:Generated_Source\PSoC4/BLE_1.c **** 
  21:Generated_Source\PSoC4/BLE_1.c **** /***************************************
  22:Generated_Source\PSoC4/BLE_1.c **** * Function Prototypes
  23:Generated_Source\PSoC4/BLE_1.c **** ***************************************/
  24:Generated_Source\PSoC4/BLE_1.c **** 
  25:Generated_Source\PSoC4/BLE_1.c **** #if(CYBLE_GATT_ROLE_SERVER)
  26:Generated_Source\PSoC4/BLE_1.c ****     #if(CYBLE_GAP_ROLE_PERIPHERAL)
  27:Generated_Source\PSoC4/BLE_1.c ****         static void CyBle_ChangeAdLocalName(const char8 name[], uint8 dest);
  28:Generated_Source\PSoC4/BLE_1.c ****     #endif /* (CYBLE_GAP_ROLE_PERIPHERAL) */
  29:Generated_Source\PSoC4/BLE_1.c **** #endif /* (CYBLE_GATT_ROLE_SERVER) */
  30:Generated_Source\PSoC4/BLE_1.c ****     
ARM GAS  C:\Users\Petro\AppData\Local\Temp\ccfEn9K1.s 			page 3


  31:Generated_Source\PSoC4/BLE_1.c **** 
  32:Generated_Source\PSoC4/BLE_1.c **** /***************************************
  33:Generated_Source\PSoC4/BLE_1.c **** * Global Variables
  34:Generated_Source\PSoC4/BLE_1.c **** ***************************************/
  35:Generated_Source\PSoC4/BLE_1.c **** 
  36:Generated_Source\PSoC4/BLE_1.c **** /* Indicates whether the BLE has been initialized. The variable is initialized to
  37:Generated_Source\PSoC4/BLE_1.c ****    0 and set to 1 the first time CyBle_Start() is called. This allows the component
  38:Generated_Source\PSoC4/BLE_1.c ****    to restart without reinitialization after the first call to the CyBle_Start() 
  39:Generated_Source\PSoC4/BLE_1.c ****    routine. If reinitialization of the component is required, the variable should 
  40:Generated_Source\PSoC4/BLE_1.c ****    be set to 0 before the CyBle_Start() routine is called. Alternatively, the BLE
  41:Generated_Source\PSoC4/BLE_1.c ****    can be reinitialized by calling the CyBle_Init() function.
  42:Generated_Source\PSoC4/BLE_1.c **** */
  43:Generated_Source\PSoC4/BLE_1.c **** uint8  cyBle_initVar = 0u;
  44:Generated_Source\PSoC4/BLE_1.c **** 
  45:Generated_Source\PSoC4/BLE_1.c **** /* Allocate RAM memory for stack. This buffer could be reused by application when 
  46:Generated_Source\PSoC4/BLE_1.c ****    BLE component is stopped. For export mode buffer is allocated in heap.
  47:Generated_Source\PSoC4/BLE_1.c **** */
  48:Generated_Source\PSoC4/BLE_1.c **** #if(CYBLE_SHARING_MODE_EXPORT)
  49:Generated_Source\PSoC4/BLE_1.c ****     
  50:Generated_Source\PSoC4/BLE_1.c **** uint8 *cyBle_stackMemoryRam = NULL;
  51:Generated_Source\PSoC4/BLE_1.c **** 
  52:Generated_Source\PSoC4/BLE_1.c **** #else
  53:Generated_Source\PSoC4/BLE_1.c **** 
  54:Generated_Source\PSoC4/BLE_1.c **** CYBLE_CYALIGNED_BEGIN CY_NOINIT uint8 cyBle_stackMemoryRam[CYBLE_STACK_RAM_SIZE] CYBLE_CYALIGNED_EN
  55:Generated_Source\PSoC4/BLE_1.c **** 
  56:Generated_Source\PSoC4/BLE_1.c **** #endif  /* CYBLE_SHARING_MODE_EXPORT */
  57:Generated_Source\PSoC4/BLE_1.c **** 
  58:Generated_Source\PSoC4/BLE_1.c **** #if(CYBLE_GAP_ROLE_PERIPHERAL || CYBLE_GAP_ROLE_BROADCASTER)
  59:Generated_Source\PSoC4/BLE_1.c **** 
  60:Generated_Source\PSoC4/BLE_1.c **** 
  61:Generated_Source\PSoC4/BLE_1.c **** 
  62:Generated_Source\PSoC4/BLE_1.c **** #endif /* CYBLE_GAP_ROLE_PERIPHERAL || CYBLE_GAP_ROLE_BROADCASTER */
  63:Generated_Source\PSoC4/BLE_1.c **** 
  64:Generated_Source\PSoC4/BLE_1.c **** #if(CYBLE_GAP_ROLE_CENTRAL)
  65:Generated_Source\PSoC4/BLE_1.c ****     
  66:Generated_Source\PSoC4/BLE_1.c **** CYBLE_GAPC_CONN_PARAM_T cyBle_connectionParameters;
  67:Generated_Source\PSoC4/BLE_1.c **** 
  68:Generated_Source\PSoC4/BLE_1.c **** /* Connecting timeout is set to 30 seconds in CyBle_Init function. 
  69:Generated_Source\PSoC4/BLE_1.c ****    Not zero value starts timer in CyBle_GapcConnectDevice API.
  70:Generated_Source\PSoC4/BLE_1.c **** */
  71:Generated_Source\PSoC4/BLE_1.c **** uint16 cyBle_connectingTimeout;
  72:Generated_Source\PSoC4/BLE_1.c ****     
  73:Generated_Source\PSoC4/BLE_1.c **** #endif /* CYBLE_GAP_ROLE_CENTRAL */
  74:Generated_Source\PSoC4/BLE_1.c **** 
  75:Generated_Source\PSoC4/BLE_1.c **** #if(CYBLE_GAP_ROLE_CENTRAL || CYBLE_GAP_ROLE_OBSERVER)
  76:Generated_Source\PSoC4/BLE_1.c ****     
  77:Generated_Source\PSoC4/BLE_1.c **** /* This variable of type CYBLE_GAPC_DISC_INFO_T is present only when  
  78:Generated_Source\PSoC4/BLE_1.c ****    the BLE component is configured for Central GAP role or Central and  
  79:Generated_Source\PSoC4/BLE_1.c ****    Peripheral GAP role. It contains the Scan settings entered in the  
  80:Generated_Source\PSoC4/BLE_1.c ****    customizer. This variable can be used by advanced users to change Scan  
  81:Generated_Source\PSoC4/BLE_1.c ****    settings in runtime.
  82:Generated_Source\PSoC4/BLE_1.c **** */
  83:Generated_Source\PSoC4/BLE_1.c **** CYBLE_GAPC_DISC_INFO_T cyBle_discoveryInfo =
  84:Generated_Source\PSoC4/BLE_1.c **** {
  85:Generated_Source\PSoC4/BLE_1.c ****     0x02u,      /* discProcedure */
  86:Generated_Source\PSoC4/BLE_1.c ****     0x01u,      /* scanType */
  87:Generated_Source\PSoC4/BLE_1.c ****     0x0030u,    /* scanInterval */
ARM GAS  C:\Users\Petro\AppData\Local\Temp\ccfEn9K1.s 			page 4


  88:Generated_Source\PSoC4/BLE_1.c ****     0x0030u,    /* scanWindow */
  89:Generated_Source\PSoC4/BLE_1.c ****     0x00u,      /* ownAddrType */
  90:Generated_Source\PSoC4/BLE_1.c ****     0x00u,      /* scanFilterPolicy */
  91:Generated_Source\PSoC4/BLE_1.c ****     0x001Eu,    /* scanTO */
  92:Generated_Source\PSoC4/BLE_1.c ****     0x00u,      /* filterDuplicates */
  93:Generated_Source\PSoC4/BLE_1.c **** };
  94:Generated_Source\PSoC4/BLE_1.c ****     
  95:Generated_Source\PSoC4/BLE_1.c **** #endif /* CYBLE_GAP_ROLE_CENTRAL || CYBLE_GAP_ROLE_OBSERVER */
  96:Generated_Source\PSoC4/BLE_1.c **** 
  97:Generated_Source\PSoC4/BLE_1.c **** #if((CYBLE_GAP_ROLE_PERIPHERAL || CYBLE_GAP_ROLE_CENTRAL) && (CYBLE_BONDING_REQUIREMENT == CYBLE_BO
  98:Generated_Source\PSoC4/BLE_1.c **** 
  99:Generated_Source\PSoC4/BLE_1.c **** uint8 cyBle_peerBonding;
 100:Generated_Source\PSoC4/BLE_1.c **** uint8 cyBle_pendingFlashWrite;
 101:Generated_Source\PSoC4/BLE_1.c ****     
 102:Generated_Source\PSoC4/BLE_1.c **** #if(CYBLE_GATT_DB_CCCD_COUNT != 0u)
 103:Generated_Source\PSoC4/BLE_1.c ****     static uint8 cyBle_pendingFlashClearCccdHandle;
 104:Generated_Source\PSoC4/BLE_1.c **** #endif /* CYBLE_GATT_DB_CCCD_COUNT != 0u */
 105:Generated_Source\PSoC4/BLE_1.c ****     
 106:Generated_Source\PSoC4/BLE_1.c **** #endif  /* (CYBLE_BONDING_REQUIREMENT == CYBLE_BONDING_YES) */
 107:Generated_Source\PSoC4/BLE_1.c **** 
 108:Generated_Source\PSoC4/BLE_1.c **** CYBLE_CALLBACK_T CyBle_ApplCallback;
 109:Generated_Source\PSoC4/BLE_1.c **** CYBLE_GAP_BD_ADDR_T cyBle_deviceAddress = {{0x00u, 0x00u, 0x00u, 0x50u, 0xA0u, 0x00u}, 0x00u };
 110:Generated_Source\PSoC4/BLE_1.c **** CYBLE_GAP_BD_ADDR_T * cyBle_sflashDeviceAddress = CYBLE_SFLASH_DEVICE_ADDRESS_PTR;
 111:Generated_Source\PSoC4/BLE_1.c **** 
 112:Generated_Source\PSoC4/BLE_1.c **** 
 113:Generated_Source\PSoC4/BLE_1.c **** /******************************************************************************
 114:Generated_Source\PSoC4/BLE_1.c **** * Function Name: CyBle_Init
 115:Generated_Source\PSoC4/BLE_1.c **** ***************************************************************************//**
 116:Generated_Source\PSoC4/BLE_1.c **** *
 117:Generated_Source\PSoC4/BLE_1.c **** *   Initializes the component with the parameters set in the customizer.
 118:Generated_Source\PSoC4/BLE_1.c **** * 
 119:Generated_Source\PSoC4/BLE_1.c **** *  \return
 120:Generated_Source\PSoC4/BLE_1.c **** *   None
 121:Generated_Source\PSoC4/BLE_1.c **** * 
 122:Generated_Source\PSoC4/BLE_1.c **** ******************************************************************************/
 123:Generated_Source\PSoC4/BLE_1.c **** void CyBle_Init(void)
 124:Generated_Source\PSoC4/BLE_1.c **** {
  81              		.loc 1 124 0
  82              		.cfi_startproc
  83 0000 80B5     		push	{r7, lr}
  84              		.cfi_def_cfa_offset 8
  85              		.cfi_offset 7, -8
  86              		.cfi_offset 14, -4
  87 0002 00AF     		add	r7, sp, #0
  88              		.cfi_def_cfa_register 7
 125:Generated_Source\PSoC4/BLE_1.c ****     cyBle_eventHandlerFlag = 0u;
  89              		.loc 1 125 0
  90 0004 1C4B     		ldr	r3, .L2
  91 0006 0022     		mov	r2, #0
  92 0008 1A70     		strb	r2, [r3]
 126:Generated_Source\PSoC4/BLE_1.c ****     cyBle_busyStatus = CYBLE_STACK_STATE_FREE;
  93              		.loc 1 126 0
  94 000a 1C4B     		ldr	r3, .L2+4
  95 000c 0022     		mov	r2, #0
  96 000e 1A70     		strb	r2, [r3]
 127:Generated_Source\PSoC4/BLE_1.c **** 
 128:Generated_Source\PSoC4/BLE_1.c ****     #if(CYBLE_GAP_ROLE_PERIPHERAL || CYBLE_GAP_ROLE_BROADCASTER) 
ARM GAS  C:\Users\Petro\AppData\Local\Temp\ccfEn9K1.s 			page 5


 129:Generated_Source\PSoC4/BLE_1.c ****         cyBle_advertisingIntervalType = CYBLE_ADVERTISING_FAST; 
 130:Generated_Source\PSoC4/BLE_1.c ****     #endif /* (CYBLE_GAP_ROLE_PERIPHERAL || CYBLE_GAP_ROLE_BROADCASTER)  */
 131:Generated_Source\PSoC4/BLE_1.c ****     #if(CYBLE_GAP_ROLE_CENTRAL || CYBLE_GAP_ROLE_OBSERVER)
 132:Generated_Source\PSoC4/BLE_1.c ****         cyBle_scanningIntervalType = CYBLE_SCANNING_FAST; 
  97              		.loc 1 132 0
  98 0010 1B4B     		ldr	r3, .L2+8
  99 0012 0022     		mov	r2, #0
 100 0014 1A70     		strb	r2, [r3]
 133:Generated_Source\PSoC4/BLE_1.c ****     #endif /* (CYBLE_GAP_ROLE_CENTRAL || CYBLE_GAP_ROLE_OBSERVER) */
 134:Generated_Source\PSoC4/BLE_1.c ****         
 135:Generated_Source\PSoC4/BLE_1.c ****     /* Init default connection parameters. 
 136:Generated_Source\PSoC4/BLE_1.c ****        Application may change it before initiating a connection */
 137:Generated_Source\PSoC4/BLE_1.c ****     #if(CYBLE_GAP_ROLE_CENTRAL)
 138:Generated_Source\PSoC4/BLE_1.c ****         cyBle_connectionParameters.scanIntv = cyBle_discoveryInfo.scanIntv;
 101              		.loc 1 138 0
 102 0016 1B4B     		ldr	r3, .L2+12
 103 0018 5A88     		ldrh	r2, [r3, #2]
 104 001a 1B4B     		ldr	r3, .L2+16
 105 001c 1A80     		strh	r2, [r3]
 139:Generated_Source\PSoC4/BLE_1.c ****         cyBle_connectionParameters.scanWindow = cyBle_discoveryInfo.scanWindow;
 106              		.loc 1 139 0
 107 001e 194B     		ldr	r3, .L2+12
 108 0020 9A88     		ldrh	r2, [r3, #4]
 109 0022 194B     		ldr	r3, .L2+16
 110 0024 5A80     		strh	r2, [r3, #2]
 140:Generated_Source\PSoC4/BLE_1.c ****         cyBle_connectionParameters.ownAddrType = cyBle_discoveryInfo.ownAddrType;
 111              		.loc 1 140 0
 112 0026 174B     		ldr	r3, .L2+12
 113 0028 9A79     		ldrb	r2, [r3, #6]
 114 002a 174B     		ldr	r3, .L2+16
 115 002c 1A73     		strb	r2, [r3, #12]
 141:Generated_Source\PSoC4/BLE_1.c ****         cyBle_connectionParameters.initiatorFilterPolicy = cyBle_discoveryInfo.scanFilterPolicy;
 116              		.loc 1 141 0
 117 002e 154B     		ldr	r3, .L2+12
 118 0030 DA79     		ldrb	r2, [r3, #7]
 119 0032 154B     		ldr	r3, .L2+16
 120 0034 1A71     		strb	r2, [r3, #4]
 142:Generated_Source\PSoC4/BLE_1.c ****         cyBle_connectionParameters.connIntvMin = CYBLE_GAPC_CONNECTION_INTERVAL_MIN;
 121              		.loc 1 142 0
 122 0036 144B     		ldr	r3, .L2+16
 123 0038 0622     		mov	r2, #6
 124 003a DA81     		strh	r2, [r3, #14]
 143:Generated_Source\PSoC4/BLE_1.c ****         cyBle_connectionParameters.connIntvMax = CYBLE_GAPC_CONNECTION_INTERVAL_MAX;
 125              		.loc 1 143 0
 126 003c 124B     		ldr	r3, .L2+16
 127 003e 2822     		mov	r2, #40
 128 0040 1A82     		strh	r2, [r3, #16]
 144:Generated_Source\PSoC4/BLE_1.c ****         cyBle_connectionParameters.connLatency = CYBLE_GAPC_CONNECTION_SLAVE_LATENCY;
 129              		.loc 1 144 0
 130 0042 114B     		ldr	r3, .L2+16
 131 0044 0022     		mov	r2, #0
 132 0046 5A82     		strh	r2, [r3, #18]
 145:Generated_Source\PSoC4/BLE_1.c ****         cyBle_connectionParameters.supervisionTO = CYBLE_GAPC_CONNECTION_TIME_OUT;
 133              		.loc 1 145 0
 134 0048 0F4B     		ldr	r3, .L2+16
 135 004a FA22     		mov	r2, #250
 136 004c 9200     		lsl	r2, r2, #2
ARM GAS  C:\Users\Petro\AppData\Local\Temp\ccfEn9K1.s 			page 6


 137 004e 9A82     		strh	r2, [r3, #20]
 146:Generated_Source\PSoC4/BLE_1.c ****         cyBle_connectionParameters.minCeLength = 0x0000u;
 138              		.loc 1 146 0
 139 0050 0D4B     		ldr	r3, .L2+16
 140 0052 0022     		mov	r2, #0
 141 0054 DA82     		strh	r2, [r3, #22]
 147:Generated_Source\PSoC4/BLE_1.c ****         cyBle_connectionParameters.maxCeLength = 0xFFFFu;
 142              		.loc 1 147 0
 143 0056 0C4B     		ldr	r3, .L2+16
 144 0058 0122     		mov	r2, #1
 145 005a 5242     		neg	r2, r2
 146 005c 1A83     		strh	r2, [r3, #24]
 148:Generated_Source\PSoC4/BLE_1.c ****         
 149:Generated_Source\PSoC4/BLE_1.c ****         cyBle_connectingTimeout = CYBLE_GAPC_CONNECTING_TIMEOUT;
 147              		.loc 1 149 0
 148 005e 0B4B     		ldr	r3, .L2+20
 149 0060 1E22     		mov	r2, #30
 150 0062 1A80     		strh	r2, [r3]
 150:Generated_Source\PSoC4/BLE_1.c ****     #endif /* CYBLE_GAP_ROLE_CENTRAL */
 151:Generated_Source\PSoC4/BLE_1.c **** 
 152:Generated_Source\PSoC4/BLE_1.c ****     CyBle_ServiceInit();
 151              		.loc 1 152 0
 152 0064 FFF7FEFF 		bl	CyBle_ServiceInit
 153:Generated_Source\PSoC4/BLE_1.c **** 
 154:Generated_Source\PSoC4/BLE_1.c ****     #if((CYBLE_GAP_ROLE_PERIPHERAL || CYBLE_GAP_ROLE_CENTRAL) && (CYBLE_BONDING_REQUIREMENT == CYBL
 155:Generated_Source\PSoC4/BLE_1.c ****         cyBle_pendingFlashWrite = 0u;
 153              		.loc 1 155 0
 154 0068 094B     		ldr	r3, .L2+24
 155 006a 0022     		mov	r2, #0
 156 006c 1A70     		strb	r2, [r3]
 156:Generated_Source\PSoC4/BLE_1.c ****         cyBle_peerBonding = CYBLE_GAP_BONDING_NONE;
 157              		.loc 1 156 0
 158 006e 094B     		ldr	r3, .L2+28
 159 0070 0022     		mov	r2, #0
 160 0072 1A70     		strb	r2, [r3]
 157:Generated_Source\PSoC4/BLE_1.c ****     #endif  /* (CYBLE_BONDING_REQUIREMENT == CYBLE_BONDING_YES) */
 158:Generated_Source\PSoC4/BLE_1.c **** 
 159:Generated_Source\PSoC4/BLE_1.c **** }
 161              		.loc 1 159 0
 162 0074 BD46     		mov	sp, r7
 163              		@ sp needed
 164 0076 80BD     		pop	{r7, pc}
 165              	.L3:
 166              		.align	2
 167              	.L2:
 168 0078 00000000 		.word	cyBle_eventHandlerFlag
 169 007c 00000000 		.word	cyBle_busyStatus
 170 0080 00000000 		.word	cyBle_scanningIntervalType
 171 0084 00000000 		.word	cyBle_discoveryInfo
 172 0088 00000000 		.word	cyBle_connectionParameters
 173 008c 00000000 		.word	cyBle_connectingTimeout
 174 0090 00000000 		.word	cyBle_pendingFlashWrite
 175 0094 00000000 		.word	cyBle_peerBonding
 176              		.cfi_endproc
 177              	.LFE2:
 178              		.size	CyBle_Init, .-CyBle_Init
 179              		.section	.text.CyBle_ServiceInit,"ax",%progbits
ARM GAS  C:\Users\Petro\AppData\Local\Temp\ccfEn9K1.s 			page 7


 180              		.align	2
 181              		.global	CyBle_ServiceInit
 182              		.code	16
 183              		.thumb_func
 184              		.type	CyBle_ServiceInit, %function
 185              	CyBle_ServiceInit:
 186              	.LFB3:
 160:Generated_Source\PSoC4/BLE_1.c **** 
 161:Generated_Source\PSoC4/BLE_1.c **** 
 162:Generated_Source\PSoC4/BLE_1.c **** /******************************************************************************
 163:Generated_Source\PSoC4/BLE_1.c **** * Function Name: CyBle_ServiceInit
 164:Generated_Source\PSoC4/BLE_1.c **** ***************************************************************************//**
 165:Generated_Source\PSoC4/BLE_1.c **** * 
 166:Generated_Source\PSoC4/BLE_1.c **** *  Initializes all included services.
 167:Generated_Source\PSoC4/BLE_1.c **** * 
 168:Generated_Source\PSoC4/BLE_1.c **** * \return
 169:Generated_Source\PSoC4/BLE_1.c **** *  None
 170:Generated_Source\PSoC4/BLE_1.c **** * 
 171:Generated_Source\PSoC4/BLE_1.c **** ******************************************************************************/
 172:Generated_Source\PSoC4/BLE_1.c **** void CyBle_ServiceInit(void)
 173:Generated_Source\PSoC4/BLE_1.c **** {
 187              		.loc 1 173 0
 188              		.cfi_startproc
 189 0000 80B5     		push	{r7, lr}
 190              		.cfi_def_cfa_offset 8
 191              		.cfi_offset 7, -8
 192              		.cfi_offset 14, -4
 193 0002 00AF     		add	r7, sp, #0
 194              		.cfi_def_cfa_register 7
 174:Generated_Source\PSoC4/BLE_1.c ****     #if(CYBLE_GATT_ROLE_CLIENT)
 175:Generated_Source\PSoC4/BLE_1.c ****         /* Check service range before clearing to support partial discovery */
 176:Generated_Source\PSoC4/BLE_1.c ****         if(cyBle_serverInfo[CYBLE_SRVI_GAP].range.startHandle == CYBLE_GATT_INVALID_ATTR_HANDLE_VAL
 177:Generated_Source\PSoC4/BLE_1.c ****         {
 178:Generated_Source\PSoC4/BLE_1.c ****             (void)memset(&cyBle_gapc, 0, sizeof(cyBle_gapc));
 179:Generated_Source\PSoC4/BLE_1.c ****         }
 180:Generated_Source\PSoC4/BLE_1.c ****         if(cyBle_serverInfo[CYBLE_SRVI_GATT].range.startHandle == CYBLE_GATT_INVALID_ATTR_HANDLE_VA
 181:Generated_Source\PSoC4/BLE_1.c ****         {
 182:Generated_Source\PSoC4/BLE_1.c ****             (void)memset(&cyBle_gattc, 0, sizeof(cyBle_gattc));
 183:Generated_Source\PSoC4/BLE_1.c ****         }
 184:Generated_Source\PSoC4/BLE_1.c ****     #endif /* CYBLE_GATT_ROLE_CLIENT */
 185:Generated_Source\PSoC4/BLE_1.c ****     
 186:Generated_Source\PSoC4/BLE_1.c **** 	#ifdef CYBLE_ANCS
 187:Generated_Source\PSoC4/BLE_1.c ****         CyBle_AncsInit();
 188:Generated_Source\PSoC4/BLE_1.c ****     #endif /* CYBLE_ANCS */
 189:Generated_Source\PSoC4/BLE_1.c **** 	
 190:Generated_Source\PSoC4/BLE_1.c ****     #ifdef CYBLE_ANS
 191:Generated_Source\PSoC4/BLE_1.c ****         CyBle_AnsInit();
 195              		.loc 1 191 0
 196 0004 FFF7FEFF 		bl	CyBle_AnsInit
 192:Generated_Source\PSoC4/BLE_1.c ****     #endif /* CYBLE_ANS */
 193:Generated_Source\PSoC4/BLE_1.c ****     
 194:Generated_Source\PSoC4/BLE_1.c ****     #ifdef CYBLE_BAS
 195:Generated_Source\PSoC4/BLE_1.c ****         CyBle_BasInit();
 196:Generated_Source\PSoC4/BLE_1.c ****     #endif /* CYBLE_BAS */
 197:Generated_Source\PSoC4/BLE_1.c ****     
 198:Generated_Source\PSoC4/BLE_1.c ****     #ifdef CYBLE_BCS
 199:Generated_Source\PSoC4/BLE_1.c ****         CyBle_BcsInit();
ARM GAS  C:\Users\Petro\AppData\Local\Temp\ccfEn9K1.s 			page 8


 200:Generated_Source\PSoC4/BLE_1.c ****     #endif /* CYBLE_BCS */
 201:Generated_Source\PSoC4/BLE_1.c **** 
 202:Generated_Source\PSoC4/BLE_1.c ****     #ifdef CYBLE_BLS
 203:Generated_Source\PSoC4/BLE_1.c ****         CyBle_BlsInit();
 204:Generated_Source\PSoC4/BLE_1.c ****     #endif /* CYBLE_BLS */
 205:Generated_Source\PSoC4/BLE_1.c ****     
 206:Generated_Source\PSoC4/BLE_1.c ****     #ifdef CYBLE_BMS
 207:Generated_Source\PSoC4/BLE_1.c ****         CyBle_BmsInit();
 208:Generated_Source\PSoC4/BLE_1.c ****     #endif /* CYBLE_BMS */
 209:Generated_Source\PSoC4/BLE_1.c ****     
 210:Generated_Source\PSoC4/BLE_1.c ****     #ifdef CYBLE_CGMS
 211:Generated_Source\PSoC4/BLE_1.c ****         CyBle_CgmsInit();
 212:Generated_Source\PSoC4/BLE_1.c ****     #endif /* CYBLE_CGMS */
 213:Generated_Source\PSoC4/BLE_1.c **** 
 214:Generated_Source\PSoC4/BLE_1.c ****     #ifdef CYBLE_CPS
 215:Generated_Source\PSoC4/BLE_1.c ****         CyBle_CpsInit();
 216:Generated_Source\PSoC4/BLE_1.c ****     #endif /* CYBLE_CPS */
 217:Generated_Source\PSoC4/BLE_1.c **** 
 218:Generated_Source\PSoC4/BLE_1.c ****     #ifdef CYBLE_CSCS
 219:Generated_Source\PSoC4/BLE_1.c ****         CyBle_CscsInit();
 220:Generated_Source\PSoC4/BLE_1.c ****     #endif /* CYBLE_CSCS */
 221:Generated_Source\PSoC4/BLE_1.c ****     
 222:Generated_Source\PSoC4/BLE_1.c ****     #ifdef CYBLE_CTS
 223:Generated_Source\PSoC4/BLE_1.c ****         CyBle_CtsInit();
 224:Generated_Source\PSoC4/BLE_1.c ****     #endif /* CYBLE_CTS */
 225:Generated_Source\PSoC4/BLE_1.c **** 
 226:Generated_Source\PSoC4/BLE_1.c ****     #ifdef CYBLE_CUSTOM
 227:Generated_Source\PSoC4/BLE_1.c ****         CyBle_CustomInit();
 228:Generated_Source\PSoC4/BLE_1.c ****     #endif /* CYBLE_CUSTOM */
 229:Generated_Source\PSoC4/BLE_1.c **** 
 230:Generated_Source\PSoC4/BLE_1.c ****     #ifdef CYBLE_DIS
 231:Generated_Source\PSoC4/BLE_1.c ****         CyBle_DisInit();
 232:Generated_Source\PSoC4/BLE_1.c ****     #endif /* CYBLE_DIS */
 233:Generated_Source\PSoC4/BLE_1.c **** 
 234:Generated_Source\PSoC4/BLE_1.c ****     #ifdef CYBLE_ESS
 235:Generated_Source\PSoC4/BLE_1.c ****         CyBle_EssInit();
 236:Generated_Source\PSoC4/BLE_1.c ****     #endif /* CYBLE_ESS */
 237:Generated_Source\PSoC4/BLE_1.c ****     
 238:Generated_Source\PSoC4/BLE_1.c ****     #ifdef CYBLE_GLS
 239:Generated_Source\PSoC4/BLE_1.c ****         CyBle_GlsInit();
 240:Generated_Source\PSoC4/BLE_1.c ****     #endif /* CYBLE_GLS */
 241:Generated_Source\PSoC4/BLE_1.c ****     
 242:Generated_Source\PSoC4/BLE_1.c ****     #ifdef CYBLE_HIDS
 243:Generated_Source\PSoC4/BLE_1.c ****         CyBle_HidsInit();
 244:Generated_Source\PSoC4/BLE_1.c ****     #endif /* CYBLE_HIDS */
 245:Generated_Source\PSoC4/BLE_1.c **** 
 246:Generated_Source\PSoC4/BLE_1.c ****     #ifdef CYBLE_HPS
 247:Generated_Source\PSoC4/BLE_1.c ****         CyBle_HpsInit();
 248:Generated_Source\PSoC4/BLE_1.c ****     #endif /* CYBLE_HPS */
 249:Generated_Source\PSoC4/BLE_1.c **** 
 250:Generated_Source\PSoC4/BLE_1.c ****     #ifdef CYBLE_HRS
 251:Generated_Source\PSoC4/BLE_1.c ****         CyBle_HrsInit();
 252:Generated_Source\PSoC4/BLE_1.c ****     #endif /* CYBLE_HRS */
 253:Generated_Source\PSoC4/BLE_1.c ****     
 254:Generated_Source\PSoC4/BLE_1.c ****     #ifdef CYBLE_HTS
 255:Generated_Source\PSoC4/BLE_1.c ****         CyBle_HtsInit();
 256:Generated_Source\PSoC4/BLE_1.c ****     #endif /* CYBLE_RSCS */
ARM GAS  C:\Users\Petro\AppData\Local\Temp\ccfEn9K1.s 			page 9


 257:Generated_Source\PSoC4/BLE_1.c **** 
 258:Generated_Source\PSoC4/BLE_1.c ****     #ifdef CYBLE_IAS
 259:Generated_Source\PSoC4/BLE_1.c ****         CyBle_IasInit();
 260:Generated_Source\PSoC4/BLE_1.c ****     #endif /* CYBLE_IAS */
 261:Generated_Source\PSoC4/BLE_1.c **** 
 262:Generated_Source\PSoC4/BLE_1.c ****     #ifdef CYBLE_IPS
 263:Generated_Source\PSoC4/BLE_1.c ****         CyBle_IpsInit();
 264:Generated_Source\PSoC4/BLE_1.c ****     #endif /* CYBLE_IPS */
 265:Generated_Source\PSoC4/BLE_1.c ****     
 266:Generated_Source\PSoC4/BLE_1.c ****     #ifdef CYBLE_LLS
 267:Generated_Source\PSoC4/BLE_1.c ****         CyBle_LlsInit();
 268:Generated_Source\PSoC4/BLE_1.c ****     #endif /* CYBLE_LLS */
 269:Generated_Source\PSoC4/BLE_1.c **** 
 270:Generated_Source\PSoC4/BLE_1.c ****     #ifdef CYBLE_LNS
 271:Generated_Source\PSoC4/BLE_1.c ****         CyBle_LnsInit();
 272:Generated_Source\PSoC4/BLE_1.c ****     #endif /* CYBLE_LNS */
 273:Generated_Source\PSoC4/BLE_1.c ****     
 274:Generated_Source\PSoC4/BLE_1.c ****     #ifdef CYBLE_NDCS
 275:Generated_Source\PSoC4/BLE_1.c ****         CyBle_NdcsInit();
 276:Generated_Source\PSoC4/BLE_1.c ****     #endif /* CYBLE_NDCS */
 277:Generated_Source\PSoC4/BLE_1.c ****     
 278:Generated_Source\PSoC4/BLE_1.c ****     #ifdef CYBLE_PASS
 279:Generated_Source\PSoC4/BLE_1.c ****         CyBle_PassInit();
 280:Generated_Source\PSoC4/BLE_1.c ****     #endif /* CYBLE_PASS */
 281:Generated_Source\PSoC4/BLE_1.c ****     
 282:Generated_Source\PSoC4/BLE_1.c ****     #ifdef CYBLE_PLXS
 283:Generated_Source\PSoC4/BLE_1.c ****         CyBle_PlxsInit();
 284:Generated_Source\PSoC4/BLE_1.c ****     #endif /* CYBLE_PLXS */
 285:Generated_Source\PSoC4/BLE_1.c ****     
 286:Generated_Source\PSoC4/BLE_1.c ****     #ifdef CYBLE_RSCS
 287:Generated_Source\PSoC4/BLE_1.c ****         CyBle_RscsInit();
 288:Generated_Source\PSoC4/BLE_1.c ****     #endif /* CYBLE_RSCS */
 289:Generated_Source\PSoC4/BLE_1.c **** 
 290:Generated_Source\PSoC4/BLE_1.c ****     #ifdef CYBLE_RTUS
 291:Generated_Source\PSoC4/BLE_1.c ****         CyBle_RtusInit();
 292:Generated_Source\PSoC4/BLE_1.c ****     #endif /* CYBLE_RTUS */
 293:Generated_Source\PSoC4/BLE_1.c **** 
 294:Generated_Source\PSoC4/BLE_1.c ****     #ifdef CYBLE_SCPS
 295:Generated_Source\PSoC4/BLE_1.c ****         CyBle_ScpsInit();
 296:Generated_Source\PSoC4/BLE_1.c ****     #endif /* CYBLE_SCPS */
 297:Generated_Source\PSoC4/BLE_1.c ****     
 298:Generated_Source\PSoC4/BLE_1.c ****     #ifdef CYBLE_TPS
 299:Generated_Source\PSoC4/BLE_1.c ****         CyBle_TpsInit();
 300:Generated_Source\PSoC4/BLE_1.c ****     #endif /* CYBLE_TPS */
 301:Generated_Source\PSoC4/BLE_1.c ****     
 302:Generated_Source\PSoC4/BLE_1.c ****     #ifdef CYBLE_UDS
 303:Generated_Source\PSoC4/BLE_1.c ****         CyBle_UdsInit();
 304:Generated_Source\PSoC4/BLE_1.c ****     #endif /* CYBLE_UDS */
 305:Generated_Source\PSoC4/BLE_1.c **** 
 306:Generated_Source\PSoC4/BLE_1.c ****     #ifdef CYBLE_WPTS
 307:Generated_Source\PSoC4/BLE_1.c ****         CyBle_WptsInit();
 308:Generated_Source\PSoC4/BLE_1.c ****     #endif /* CYBLE_WPTS */
 309:Generated_Source\PSoC4/BLE_1.c **** 
 310:Generated_Source\PSoC4/BLE_1.c ****     #ifdef CYBLE_WSS
 311:Generated_Source\PSoC4/BLE_1.c ****         CyBle_WssInit();
 312:Generated_Source\PSoC4/BLE_1.c ****     #endif /* CYBLE_WSS */
 313:Generated_Source\PSoC4/BLE_1.c **** }
ARM GAS  C:\Users\Petro\AppData\Local\Temp\ccfEn9K1.s 			page 10


 197              		.loc 1 313 0
 198 0008 BD46     		mov	sp, r7
 199              		@ sp needed
 200 000a 80BD     		pop	{r7, pc}
 201              		.cfi_endproc
 202              	.LFE3:
 203              		.size	CyBle_ServiceInit, .-CyBle_ServiceInit
 204              		.section	.rodata
 205              		.align	2
 206              	.LC0:
 207 0000 2400     		.short	36
 208 0002 03       		.byte	3
 209 0003 00       		.space	1
 210 0004 3000     		.short	48
 211 0006 01       		.byte	1
 212 0007 00       		.space	1
 213 0008 2800     		.short	40
 214 000a 02       		.byte	2
 215 000b 00       		.space	1
 216 000c 2400     		.short	36
 217 000e 01       		.byte	1
 218 000f 00       		.space	1
 219 0010 2400     		.short	36
 220 0012 01       		.byte	1
 221 0013 00       		.space	1
 222              		.section	.text.CyBle_Start,"ax",%progbits
 223              		.align	2
 224              		.global	CyBle_Start
 225              		.code	16
 226              		.thumb_func
 227              		.type	CyBle_Start, %function
 228              	CyBle_Start:
 229              	.LFB4:
 314:Generated_Source\PSoC4/BLE_1.c **** 
 315:Generated_Source\PSoC4/BLE_1.c **** 
 316:Generated_Source\PSoC4/BLE_1.c **** /******************************************************************************
 317:Generated_Source\PSoC4/BLE_1.c **** * Function Name: CyBle_Start
 318:Generated_Source\PSoC4/BLE_1.c **** ***************************************************************************//**
 319:Generated_Source\PSoC4/BLE_1.c **** * 
 320:Generated_Source\PSoC4/BLE_1.c **** *  This function initializes the BLE Stack, which consists of the BLE Stack 
 321:Generated_Source\PSoC4/BLE_1.c **** *  Manager, BLE Controller, and BLE Host modules. It takes care of initializing
 322:Generated_Source\PSoC4/BLE_1.c **** *  the Profile layer, schedulers, Timer and other platform related
 323:Generated_Source\PSoC4/BLE_1.c **** *  resources required for the BLE component. It also registers the callback 
 324:Generated_Source\PSoC4/BLE_1.c **** *  function for BLE events that will be registered in the BLE stack.
 325:Generated_Source\PSoC4/BLE_1.c **** * 
 326:Generated_Source\PSoC4/BLE_1.c **** *  Note that this function does not reset the BLE Stack.
 327:Generated_Source\PSoC4/BLE_1.c **** * 
 328:Generated_Source\PSoC4/BLE_1.c **** *  For HCI-Mode of operation, this function will not initialize the BLE Host 
 329:Generated_Source\PSoC4/BLE_1.c **** *  module.
 330:Generated_Source\PSoC4/BLE_1.c **** * 
 331:Generated_Source\PSoC4/BLE_1.c **** *  Calling this function results in the generation of CYBLE_EVT_STACK_ON event
 332:Generated_Source\PSoC4/BLE_1.c **** *  on successful initialization of the BLE Stack.
 333:Generated_Source\PSoC4/BLE_1.c **** * 
 334:Generated_Source\PSoC4/BLE_1.c **** *  \param callbackFunc: Event callback function to receive events from BLE stack.
 335:Generated_Source\PSoC4/BLE_1.c **** *   CYBLE_CALLBACK_T is a function pointer type.
 336:Generated_Source\PSoC4/BLE_1.c **** * 
 337:Generated_Source\PSoC4/BLE_1.c **** * \return
ARM GAS  C:\Users\Petro\AppData\Local\Temp\ccfEn9K1.s 			page 11


 338:Generated_Source\PSoC4/BLE_1.c **** *  CYBLE_API_RESULT_T : Return value indicates if the function succeeded or 
 339:Generated_Source\PSoC4/BLE_1.c **** *  failed. Following are the possible error codes.
 340:Generated_Source\PSoC4/BLE_1.c **** * 
 341:Generated_Source\PSoC4/BLE_1.c **** *   <table>
 342:Generated_Source\PSoC4/BLE_1.c **** *  	  <tr>
 343:Generated_Source\PSoC4/BLE_1.c **** *       <th>Error codes</th>
 344:Generated_Source\PSoC4/BLE_1.c **** *       <th>Description</th>
 345:Generated_Source\PSoC4/BLE_1.c **** *     </tr>
 346:Generated_Source\PSoC4/BLE_1.c **** *     <tr>
 347:Generated_Source\PSoC4/BLE_1.c **** *       <td>CYBLE_ERROR_OK</td>
 348:Generated_Source\PSoC4/BLE_1.c **** *       <td>On successful operation.</td>
 349:Generated_Source\PSoC4/BLE_1.c **** *     </tr>
 350:Generated_Source\PSoC4/BLE_1.c **** *     <tr>
 351:Generated_Source\PSoC4/BLE_1.c **** *       <td>CYBLE_ERROR_INVALID_PARAMETER</td>
 352:Generated_Source\PSoC4/BLE_1.c **** *       <td>On passing a NULL pointer to the function when the BLE stack is not built in HCI mode. 
 353:Generated_Source\PSoC4/BLE_1.c **** *			CYBLE_ERROR_INVALID_PARAMETER is never returned in HCI mode.</td>
 354:Generated_Source\PSoC4/BLE_1.c **** *     </tr>
 355:Generated_Source\PSoC4/BLE_1.c **** *     <tr>
 356:Generated_Source\PSoC4/BLE_1.c **** *       <td>CYBLE_ERROR_REPEATED_ATTEMPTS</td>
 357:Generated_Source\PSoC4/BLE_1.c **** *       <td>On invoking this function more than once without calling CyBle_Shutdown() 
 358:Generated_Source\PSoC4/BLE_1.c **** *           function between calls to this function.</td>
 359:Generated_Source\PSoC4/BLE_1.c **** *     </tr>
 360:Generated_Source\PSoC4/BLE_1.c **** *     <tr>
 361:Generated_Source\PSoC4/BLE_1.c **** *       <td>CYBLE_ERROR_MEMORY_ALLOCATION_FAILED</td>
 362:Generated_Source\PSoC4/BLE_1.c **** *       <td>There is insufficient memory available.</td>
 363:Generated_Source\PSoC4/BLE_1.c **** *     </tr>
 364:Generated_Source\PSoC4/BLE_1.c **** *   </table>
 365:Generated_Source\PSoC4/BLE_1.c **** * 
 366:Generated_Source\PSoC4/BLE_1.c **** *  \globalvars
 367:Generated_Source\PSoC4/BLE_1.c **** *   The CyBle_initVar variable is used to indicate initial
 368:Generated_Source\PSoC4/BLE_1.c **** *   configuration of this component. The variable is initialized to zero (0u)
 369:Generated_Source\PSoC4/BLE_1.c **** *   and set to one (1u) the first time CyBle_Start() is called. This
 370:Generated_Source\PSoC4/BLE_1.c **** *   allows for component initialization without re-initialization in all
 371:Generated_Source\PSoC4/BLE_1.c **** *   subsequent calls to the CyBle_Start() routine.
 372:Generated_Source\PSoC4/BLE_1.c **** * 
 373:Generated_Source\PSoC4/BLE_1.c **** ******************************************************************************/
 374:Generated_Source\PSoC4/BLE_1.c **** CYBLE_API_RESULT_T CyBle_Start(CYBLE_CALLBACK_T callbackFunc)
 375:Generated_Source\PSoC4/BLE_1.c **** {
 230              		.loc 1 375 0
 231              		.cfi_startproc
 232 0000 B0B5     		push	{r4, r5, r7, lr}
 233              		.cfi_def_cfa_offset 16
 234              		.cfi_offset 4, -16
 235              		.cfi_offset 5, -12
 236              		.cfi_offset 7, -8
 237              		.cfi_offset 14, -4
 238 0002 94B0     		sub	sp, sp, #80
 239              		.cfi_def_cfa_offset 96
 240 0004 04AF     		add	r7, sp, #16
 241              		.cfi_def_cfa 7, 80
 242 0006 7860     		str	r0, [r7, #4]
 376:Generated_Source\PSoC4/BLE_1.c ****     CYBLE_API_RESULT_T apiResult = CYBLE_ERROR_OK;
 243              		.loc 1 376 0
 244 0008 3E23     		mov	r3, #62
 245 000a FB18     		add	r3, r7, r3
 246 000c 0022     		mov	r2, #0
 247 000e 1A80     		strh	r2, [r3]
ARM GAS  C:\Users\Petro\AppData\Local\Temp\ccfEn9K1.s 			page 12


 377:Generated_Source\PSoC4/BLE_1.c ****     
 378:Generated_Source\PSoC4/BLE_1.c ****     #if(CYBLE_MODE_PROFILE)
 379:Generated_Source\PSoC4/BLE_1.c ****     
 380:Generated_Source\PSoC4/BLE_1.c ****     CYBLE_STK_APP_DATA_BUFF_T cyBle_stackDataBuff[CYBLE_STACK_APP_MIN_POOL] = 
 248              		.loc 1 380 0
 249 0010 2823     		mov	r3, #40
 250 0012 FA18     		add	r2, r7, r3
 251 0014 3E4B     		ldr	r3, .L12
 252 0016 111C     		mov	r1, r2
 253 0018 1A1C     		mov	r2, r3
 254 001a 1423     		mov	r3, #20
 255 001c 081C     		mov	r0, r1
 256 001e 111C     		mov	r1, r2
 257 0020 1A1C     		mov	r2, r3
 258 0022 FFF7FEFF 		bl	memcpy
 381:Generated_Source\PSoC4/BLE_1.c ****     {
 382:Generated_Source\PSoC4/BLE_1.c ****         {CYBLE_GATT_MTU_PLUS_L2CAP_MEM_EXT, CYBLE_GATT_MTU_BUFF_COUNT + CYBLE_GATT_MAX_ATTR_BUFF_CO
 383:Generated_Source\PSoC4/BLE_1.c ****         {CYBLE_L2CAP_PSM_PLUS_L2CAP_MEM_EXT, CYBLE_L2CAP_PSM_COUNT},
 384:Generated_Source\PSoC4/BLE_1.c ****         {CYBLE_L2CAP_CBFC_PLUS_L2CAP_MEM_EXT, 2u * CYBLE_L2CAP_LOGICAL_CHANNEL_COUNT},
 385:Generated_Source\PSoC4/BLE_1.c ****         {CYBLE_L2CAP_MTU_PLUS_L2CAP_MEM_EXT, CYBLE_L2CAP_LOGICAL_CHANNEL_COUNT},
 386:Generated_Source\PSoC4/BLE_1.c ****         {CYBLE_L2CAP_MPS_PLUS_L2CAP_MEM_EXT, CYBLE_L2CAP_LOGICAL_CHANNEL_COUNT * (CYBLE_L2CAP_MTU_M
 387:Generated_Source\PSoC4/BLE_1.c ****     }; 
 388:Generated_Source\PSoC4/BLE_1.c **** 
 389:Generated_Source\PSoC4/BLE_1.c ****     #endif /* CYBLE_MODE_PROFILE */
 390:Generated_Source\PSoC4/BLE_1.c ****     
 391:Generated_Source\PSoC4/BLE_1.c ****     /* If not initialized then initialize all the required hardware and software */
 392:Generated_Source\PSoC4/BLE_1.c ****     if(cyBle_initVar == 0u)
 259              		.loc 1 392 0
 260 0026 3B4B     		ldr	r3, .L12+4
 261 0028 1B78     		ldrb	r3, [r3]
 262 002a 002B     		cmp	r3, #0
 263 002c 04D1     		bne	.L6
 393:Generated_Source\PSoC4/BLE_1.c ****     {
 394:Generated_Source\PSoC4/BLE_1.c ****         CyBle_Init();
 264              		.loc 1 394 0
 265 002e FFF7FEFF 		bl	CyBle_Init
 395:Generated_Source\PSoC4/BLE_1.c ****         cyBle_initVar = 1u;
 266              		.loc 1 395 0
 267 0032 384B     		ldr	r3, .L12+4
 268 0034 0122     		mov	r2, #1
 269 0036 1A70     		strb	r2, [r3]
 270              	.L6:
 396:Generated_Source\PSoC4/BLE_1.c ****     }
 397:Generated_Source\PSoC4/BLE_1.c ****     
 398:Generated_Source\PSoC4/BLE_1.c ****     if(callbackFunc != NULL)
 271              		.loc 1 398 0
 272 0038 7B68     		ldr	r3, [r7, #4]
 273 003a 002B     		cmp	r3, #0
 274 003c 5CD0     		beq	.L7
 399:Generated_Source\PSoC4/BLE_1.c ****     {
 400:Generated_Source\PSoC4/BLE_1.c ****         CyBle_ApplCallback = callbackFunc;
 275              		.loc 1 400 0
 276 003e 364B     		ldr	r3, .L12+8
 277 0040 7A68     		ldr	r2, [r7, #4]
 278 0042 1A60     		str	r2, [r3]
 401:Generated_Source\PSoC4/BLE_1.c ****         
 402:Generated_Source\PSoC4/BLE_1.c ****     #if(CYBLE_SHARING_MODE_EXPORT)
ARM GAS  C:\Users\Petro\AppData\Local\Temp\ccfEn9K1.s 			page 13


 403:Generated_Source\PSoC4/BLE_1.c ****         if(cyBle_stackMemoryRam == NULL)
 404:Generated_Source\PSoC4/BLE_1.c ****         {
 405:Generated_Source\PSoC4/BLE_1.c ****             cyBle_stackMemoryRam = (uint8 *)malloc(CYBLE_STACK_RAM_SIZE);
 406:Generated_Source\PSoC4/BLE_1.c ****             if(cyBle_stackMemoryRam == NULL)
 407:Generated_Source\PSoC4/BLE_1.c ****             {
 408:Generated_Source\PSoC4/BLE_1.c ****                 apiResult = CYBLE_ERROR_MEMORY_ALLOCATION_FAILED;
 409:Generated_Source\PSoC4/BLE_1.c ****             }
 410:Generated_Source\PSoC4/BLE_1.c ****         }
 411:Generated_Source\PSoC4/BLE_1.c ****     #endif /* CYBLE_SHARING_MODE_EXPORT */
 412:Generated_Source\PSoC4/BLE_1.c ****         if(apiResult == CYBLE_ERROR_OK)
 279              		.loc 1 412 0
 280 0044 3E23     		mov	r3, #62
 281 0046 FB18     		add	r3, r7, r3
 282 0048 1B88     		ldrh	r3, [r3]
 283 004a 002B     		cmp	r3, #0
 284 004c 29D1     		bne	.L8
 285              	.LBB2:
 413:Generated_Source\PSoC4/BLE_1.c ****         {
 414:Generated_Source\PSoC4/BLE_1.c ****             CYBLE_DLE_CONFIG_PARAM_T dleConfigParams;
 415:Generated_Source\PSoC4/BLE_1.c ****             CYBLE_PRIVACY_1_2_CONFIG_PARAM_T privacyConfigParams;
 416:Generated_Source\PSoC4/BLE_1.c ****             CYBLE_STACK_CONFIG_PARAM_T stackConfig;
 417:Generated_Source\PSoC4/BLE_1.c ****             uint16 featureHeapReq;
 418:Generated_Source\PSoC4/BLE_1.c ****             
 419:Generated_Source\PSoC4/BLE_1.c ****             stackConfig.privacyConfig = &privacyConfigParams;
 286              		.loc 1 419 0
 287 004e 1023     		mov	r3, #16
 288 0050 FB18     		add	r3, r7, r3
 289 0052 1C22     		mov	r2, #28
 290 0054 BA18     		add	r2, r7, r2
 291 0056 5A60     		str	r2, [r3, #4]
 420:Generated_Source\PSoC4/BLE_1.c ****             stackConfig.dleConfig = &dleConfigParams;
 292              		.loc 1 420 0
 293 0058 1023     		mov	r3, #16
 294 005a FB18     		add	r3, r7, r3
 295 005c 2022     		mov	r2, #32
 296 005e BA18     		add	r2, r7, r2
 297 0060 1A60     		str	r2, [r3]
 421:Generated_Source\PSoC4/BLE_1.c ****             
 422:Generated_Source\PSoC4/BLE_1.c ****             /* Configure default BLE 4.1 features and enabled 4.2 features */
 423:Generated_Source\PSoC4/BLE_1.c ****             stackConfig.feature_mask = CYBLE_DLE_FEATURE | CYBLE_LL_PRIVACY_FEATURE | 
 298              		.loc 1 423 0
 299 0062 1023     		mov	r3, #16
 300 0064 FB18     		add	r3, r7, r3
 301 0066 0022     		mov	r2, #0
 302 0068 1A81     		strh	r2, [r3, #8]
 424:Generated_Source\PSoC4/BLE_1.c ****                                        CYBLE_SECURE_CONN_FEATURE;
 425:Generated_Source\PSoC4/BLE_1.c **** 
 426:Generated_Source\PSoC4/BLE_1.c ****             /* Configure DLE */
 427:Generated_Source\PSoC4/BLE_1.c ****             dleConfigParams.dleMaxTxCapability = CYBLE_LL_MAX_TX_PAYLOAD_SIZE;
 303              		.loc 1 427 0
 304 006a 2023     		mov	r3, #32
 305 006c FB18     		add	r3, r7, r3
 306 006e 1B22     		mov	r2, #27
 307 0070 1A80     		strh	r2, [r3]
 428:Generated_Source\PSoC4/BLE_1.c ****             dleConfigParams.dleMaxRxCapability = CYBLE_LL_MAX_RX_PAYLOAD_SIZE;
 308              		.loc 1 428 0
 309 0072 2023     		mov	r3, #32
ARM GAS  C:\Users\Petro\AppData\Local\Temp\ccfEn9K1.s 			page 14


 310 0074 FB18     		add	r3, r7, r3
 311 0076 1B22     		mov	r2, #27
 312 0078 5A80     		strh	r2, [r3, #2]
 429:Generated_Source\PSoC4/BLE_1.c ****             dleConfigParams.dleNumTxBuffer = CYBLE_LL_DEFAULT_NUM_ACL_TX_PACKETS;
 313              		.loc 1 429 0
 314 007a 2023     		mov	r3, #32
 315 007c FB18     		add	r3, r7, r3
 316 007e 0422     		mov	r2, #4
 317 0080 1A71     		strb	r2, [r3, #4]
 430:Generated_Source\PSoC4/BLE_1.c ****         #if(CYBLE_DLE_FEATURE_ENABLED)
 431:Generated_Source\PSoC4/BLE_1.c ****             CyBle_EnableDleFeature();              /* Enable DLE code in stack */
 432:Generated_Source\PSoC4/BLE_1.c ****         #endif /* CYBLE_DLE_FEATURE_ENABLED */
 433:Generated_Source\PSoC4/BLE_1.c ****         
 434:Generated_Source\PSoC4/BLE_1.c ****             /* Configure LL Privacy */
 435:Generated_Source\PSoC4/BLE_1.c ****             privacyConfigParams.resolvingListSize = CYBLE_MAX_RESOLVABLE_DEVICES;
 318              		.loc 1 435 0
 319 0082 1C23     		mov	r3, #28
 320 0084 FB18     		add	r3, r7, r3
 321 0086 0022     		mov	r2, #0
 322 0088 1A70     		strb	r2, [r3]
 436:Generated_Source\PSoC4/BLE_1.c ****         #if(CYBLE_LL_PRIVACY_FEATURE_ENABLED)
 437:Generated_Source\PSoC4/BLE_1.c ****             CyBle_EnablePrivacyFeature();          /* Enable LL Privacy code in stack */
 438:Generated_Source\PSoC4/BLE_1.c ****         #endif /* CYBLE_LL_PRIVACY_FEATURE_ENABLED */
 439:Generated_Source\PSoC4/BLE_1.c **** 
 440:Generated_Source\PSoC4/BLE_1.c ****             apiResult = CyBle_StackSetFeatureConfig(&stackConfig, &featureHeapReq);
 323              		.loc 1 440 0
 324 008a 3E23     		mov	r3, #62
 325 008c FC18     		add	r4, r7, r3
 326 008e 1023     		mov	r3, #16
 327 0090 FA18     		add	r2, r7, r3
 328 0092 0E23     		mov	r3, #14
 329 0094 FB18     		add	r3, r7, r3
 330 0096 101C     		mov	r0, r2
 331 0098 191C     		mov	r1, r3
 332 009a FFF7FEFF 		bl	CyBle_StackSetFeatureConfig
 333 009e 031C     		mov	r3, r0
 334 00a0 2380     		strh	r3, [r4]
 335              	.L8:
 336              	.LBE2:
 441:Generated_Source\PSoC4/BLE_1.c ****             }
 442:Generated_Source\PSoC4/BLE_1.c ****     
 443:Generated_Source\PSoC4/BLE_1.c ****         if(apiResult == CYBLE_ERROR_OK)
 337              		.loc 1 443 0
 338 00a2 3E23     		mov	r3, #62
 339 00a4 FB18     		add	r3, r7, r3
 340 00a6 1B88     		ldrh	r3, [r3]
 341 00a8 002B     		cmp	r3, #0
 342 00aa 29D1     		bne	.L10
 444:Generated_Source\PSoC4/BLE_1.c ****         {
 445:Generated_Source\PSoC4/BLE_1.c ****         
 446:Generated_Source\PSoC4/BLE_1.c ****         #if(CYBLE_MODE_PROFILE)
 447:Generated_Source\PSoC4/BLE_1.c ****             #if(CYBLE_BONDING_REQUIREMENT == CYBLE_BONDING_YES)
 448:Generated_Source\PSoC4/BLE_1.c ****                 apiResult = CyBle_StackInit(&CyBle_EventHandler, cyBle_stackMemoryRam, 
 343              		.loc 1 448 0
 344 00ac 3E23     		mov	r3, #62
 345 00ae FC18     		add	r4, r7, r3
 346 00b0 1A48     		ldr	r0, .L12+12
ARM GAS  C:\Users\Petro\AppData\Local\Temp\ccfEn9K1.s 			page 15


 347 00b2 1B49     		ldr	r1, .L12+16
 348 00b4 AE23     		mov	r3, #174
 349 00b6 1A01     		lsl	r2, r3, #4
 350 00b8 2823     		mov	r3, #40
 351 00ba FD18     		add	r5, r7, r3
 352 00bc 0523     		mov	r3, #5
 353 00be 0093     		str	r3, [sp]
 354 00c0 184B     		ldr	r3, .L12+20
 355 00c2 0193     		str	r3, [sp, #4]
 356 00c4 184B     		ldr	r3, .L12+24
 357 00c6 0293     		str	r3, [sp, #8]
 358 00c8 2B1C     		mov	r3, r5
 359 00ca FFF7FEFF 		bl	CyBle_StackInit
 360 00ce 031C     		mov	r3, r0
 361 00d0 2380     		strh	r3, [r4]
 449:Generated_Source\PSoC4/BLE_1.c ****                     CYBLE_STACK_RAM_SIZE - CYBLE_GATT_PREPARE_WRITE_BUFF_LEN, cyBle_stackDataBuff, 
 450:Generated_Source\PSoC4/BLE_1.c ****                     CYBLE_STACK_APP_MIN_POOL, cyBle_flashStorage.stackFlashptr, CYBLE_STACK_FLASH_S
 451:Generated_Source\PSoC4/BLE_1.c ****             #else
 452:Generated_Source\PSoC4/BLE_1.c ****                 apiResult = CyBle_StackInit(&CyBle_EventHandler, cyBle_stackMemoryRam, 
 453:Generated_Source\PSoC4/BLE_1.c ****                     CYBLE_STACK_RAM_SIZE - CYBLE_GATT_PREPARE_WRITE_BUFF_LEN, cyBle_stackDataBuff, 
 454:Generated_Source\PSoC4/BLE_1.c ****                     CYBLE_STACK_APP_MIN_POOL, NULL, 0u);
 455:Generated_Source\PSoC4/BLE_1.c ****             #endif  /* CYBLE_BONDING_REQUIREMENT == CYBLE_BONDING_YES */
 456:Generated_Source\PSoC4/BLE_1.c ****         #else
 457:Generated_Source\PSoC4/BLE_1.c ****             apiResult = CyBle_StackInit(&CyBle_EventHandler, cyBle_stackMemoryRam, CYBLE_STACK_RAM_
 458:Generated_Source\PSoC4/BLE_1.c ****                 NULL, 0u, NULL, 0u);
 459:Generated_Source\PSoC4/BLE_1.c ****         #endif /* CYBLE_MODE_PROFILE */
 460:Generated_Source\PSoC4/BLE_1.c **** 
 461:Generated_Source\PSoC4/BLE_1.c ****             if(apiResult == CYBLE_ERROR_OK)
 362              		.loc 1 461 0
 363 00d2 3E23     		mov	r3, #62
 364 00d4 FB18     		add	r3, r7, r3
 365 00d6 1B88     		ldrh	r3, [r3]
 366 00d8 002B     		cmp	r3, #0
 367 00da 11D1     		bne	.L10
 462:Generated_Source\PSoC4/BLE_1.c ****             {
 463:Generated_Source\PSoC4/BLE_1.c ****                 CyBle_SetState(CYBLE_STATE_INITIALIZING);
 368              		.loc 1 463 0
 369 00dc 134B     		ldr	r3, .L12+28
 370 00de 0122     		mov	r2, #1
 371 00e0 1A70     		strb	r2, [r3]
 464:Generated_Source\PSoC4/BLE_1.c ****                 
 465:Generated_Source\PSoC4/BLE_1.c ****             #if (CYBLE_GATT_ROLE_CLIENT)
 466:Generated_Source\PSoC4/BLE_1.c ****                 CyBle_SetClientState(CYBLE_CLIENT_STATE_DISCONNECTED);
 467:Generated_Source\PSoC4/BLE_1.c ****             #endif /* CYBLE_GATT_ROLE_CLIENT */
 468:Generated_Source\PSoC4/BLE_1.c ****                 
 469:Generated_Source\PSoC4/BLE_1.c ****             #if(CYBLE_GATT_ROLE_SERVER)
 470:Generated_Source\PSoC4/BLE_1.c ****                 apiResult = CyBle_GattsDbRegister(cyBle_gattDB, CYBLE_GATT_DB_INDEX_COUNT, CYBLE_GA
 372              		.loc 1 470 0
 373 00e2 3E23     		mov	r3, #62
 374 00e4 FC18     		add	r4, r7, r3
 375 00e6 124B     		ldr	r3, .L12+32
 376 00e8 181C     		mov	r0, r3
 377 00ea 1A21     		mov	r1, #26
 378 00ec 0822     		mov	r2, #8
 379 00ee FFF7FEFF 		bl	CyBle_GattsDbRegister
 380 00f2 031C     		mov	r3, r0
 381 00f4 2380     		strh	r3, [r4]
ARM GAS  C:\Users\Petro\AppData\Local\Temp\ccfEn9K1.s 			page 16


 382 00f6 03E0     		b	.L10
 383              	.L7:
 471:Generated_Source\PSoC4/BLE_1.c ****             #endif /* CYBLE_GATT_ROLE_SERVER */
 472:Generated_Source\PSoC4/BLE_1.c ****             }
 473:Generated_Source\PSoC4/BLE_1.c ****         }
 474:Generated_Source\PSoC4/BLE_1.c ****     }
 475:Generated_Source\PSoC4/BLE_1.c ****     else
 476:Generated_Source\PSoC4/BLE_1.c ****     {
 477:Generated_Source\PSoC4/BLE_1.c ****         apiResult = CYBLE_ERROR_INVALID_PARAMETER;
 384              		.loc 1 477 0
 385 00f8 3E23     		mov	r3, #62
 386 00fa FB18     		add	r3, r7, r3
 387 00fc 0122     		mov	r2, #1
 388 00fe 1A80     		strh	r2, [r3]
 389              	.L10:
 478:Generated_Source\PSoC4/BLE_1.c ****     }
 479:Generated_Source\PSoC4/BLE_1.c **** 
 480:Generated_Source\PSoC4/BLE_1.c ****     return (apiResult);
 390              		.loc 1 480 0
 391 0100 3E23     		mov	r3, #62
 392 0102 FB18     		add	r3, r7, r3
 393 0104 1B88     		ldrh	r3, [r3]
 481:Generated_Source\PSoC4/BLE_1.c **** }
 394              		.loc 1 481 0
 395 0106 181C     		mov	r0, r3
 396 0108 BD46     		mov	sp, r7
 397 010a 10B0     		add	sp, sp, #64
 398              		@ sp needed
 399 010c B0BD     		pop	{r4, r5, r7, pc}
 400              	.L13:
 401 010e C046     		.align	2
 402              	.L12:
 403 0110 00000000 		.word	.LC0
 404 0114 00000000 		.word	cyBle_initVar
 405 0118 00000000 		.word	CyBle_ApplCallback
 406 011c 00000000 		.word	CyBle_EventHandler
 407 0120 00000000 		.word	cyBle_stackMemoryRam
 408 0124 00000000 		.word	cyBle_flashStorage
 409 0128 79020000 		.word	633
 410 012c 00000000 		.word	cyBle_state
 411 0130 00000000 		.word	cyBle_gattDB
 412              		.cfi_endproc
 413              	.LFE4:
 414              		.size	CyBle_Start, .-CyBle_Start
 415              		.section	.text.CyBle_Stop,"ax",%progbits
 416              		.align	2
 417              		.global	CyBle_Stop
 418              		.code	16
 419              		.thumb_func
 420              		.type	CyBle_Stop, %function
 421              	CyBle_Stop:
 422              	.LFB5:
 482:Generated_Source\PSoC4/BLE_1.c **** 
 483:Generated_Source\PSoC4/BLE_1.c **** 
 484:Generated_Source\PSoC4/BLE_1.c **** /******************************************************************************
 485:Generated_Source\PSoC4/BLE_1.c **** * Function Name: CyBle_Stop
 486:Generated_Source\PSoC4/BLE_1.c **** ***************************************************************************//**
ARM GAS  C:\Users\Petro\AppData\Local\Temp\ccfEn9K1.s 			page 17


 487:Generated_Source\PSoC4/BLE_1.c **** * 
 488:Generated_Source\PSoC4/BLE_1.c **** *  This function stops any ongoing operation in the BLE Stack and forces the 
 489:Generated_Source\PSoC4/BLE_1.c **** *  BLE Stack to shut down. The only function that can be called after calling
 490:Generated_Source\PSoC4/BLE_1.c **** *  this function is CyBle_Start(). 
 491:Generated_Source\PSoC4/BLE_1.c **** * 
 492:Generated_Source\PSoC4/BLE_1.c **** * \return
 493:Generated_Source\PSoC4/BLE_1.c **** *  None
 494:Generated_Source\PSoC4/BLE_1.c **** * 
 495:Generated_Source\PSoC4/BLE_1.c **** ******************************************************************************/
 496:Generated_Source\PSoC4/BLE_1.c **** void CyBle_Stop(void)
 497:Generated_Source\PSoC4/BLE_1.c **** {
 423              		.loc 1 497 0
 424              		.cfi_startproc
 425 0000 80B5     		push	{r7, lr}
 426              		.cfi_def_cfa_offset 8
 427              		.cfi_offset 7, -8
 428              		.cfi_offset 14, -4
 429 0002 00AF     		add	r7, sp, #0
 430              		.cfi_def_cfa_register 7
 498:Generated_Source\PSoC4/BLE_1.c ****     CyBle_Shutdown();                         /* Stop all ongoing activities */
 431              		.loc 1 498 0
 432 0004 FFF7FEFF 		bl	CyBle_Shutdown
 499:Generated_Source\PSoC4/BLE_1.c ****     CyBle_SetState(CYBLE_STATE_STOPPED);
 433              		.loc 1 499 0
 434 0008 024B     		ldr	r3, .L15
 435 000a 0022     		mov	r2, #0
 436 000c 1A70     		strb	r2, [r3]
 500:Generated_Source\PSoC4/BLE_1.c ****     #if(CYBLE_SHARING_MODE_EXPORT)
 501:Generated_Source\PSoC4/BLE_1.c ****         if(cyBle_stackMemoryRam != NULL)
 502:Generated_Source\PSoC4/BLE_1.c ****         {
 503:Generated_Source\PSoC4/BLE_1.c ****             free(cyBle_stackMemoryRam);
 504:Generated_Source\PSoC4/BLE_1.c ****         }
 505:Generated_Source\PSoC4/BLE_1.c ****     #endif /* CYBLE_SHARING_MODE_EXPORT */
 506:Generated_Source\PSoC4/BLE_1.c **** }
 437              		.loc 1 506 0
 438 000e BD46     		mov	sp, r7
 439              		@ sp needed
 440 0010 80BD     		pop	{r7, pc}
 441              	.L16:
 442 0012 C046     		.align	2
 443              	.L15:
 444 0014 00000000 		.word	cyBle_state
 445              		.cfi_endproc
 446              	.LFE5:
 447              		.size	CyBle_Stop, .-CyBle_Stop
 448              		.section	.text.CyBle_StoreBondingData,"ax",%progbits
 449              		.align	2
 450              		.global	CyBle_StoreBondingData
 451              		.code	16
 452              		.thumb_func
 453              		.type	CyBle_StoreBondingData, %function
 454              	CyBle_StoreBondingData:
 455              	.LFB6:
 507:Generated_Source\PSoC4/BLE_1.c **** 
 508:Generated_Source\PSoC4/BLE_1.c **** 
 509:Generated_Source\PSoC4/BLE_1.c **** #if((CYBLE_GAP_ROLE_PERIPHERAL || CYBLE_GAP_ROLE_CENTRAL) && (CYBLE_BONDING_REQUIREMENT == CYBLE_BO
 510:Generated_Source\PSoC4/BLE_1.c **** 
ARM GAS  C:\Users\Petro\AppData\Local\Temp\ccfEn9K1.s 			page 18


 511:Generated_Source\PSoC4/BLE_1.c ****     
 512:Generated_Source\PSoC4/BLE_1.c **** /******************************************************************************
 513:Generated_Source\PSoC4/BLE_1.c **** * Function Name: CyBle_StoreBondingData
 514:Generated_Source\PSoC4/BLE_1.c **** ***************************************************************************//**
 515:Generated_Source\PSoC4/BLE_1.c **** * 
 516:Generated_Source\PSoC4/BLE_1.c **** *  This function writes the new bonding data from RAM to the dedicated Flash 
 517:Generated_Source\PSoC4/BLE_1.c **** *  location as defined by the component. It performs data comparing between RAM
 518:Generated_Source\PSoC4/BLE_1.c **** *  and Flash before writing to Flash. If there is no change between RAM and Flash
 519:Generated_Source\PSoC4/BLE_1.c **** *  data, then no write is performed. It writes only one flash row in one call.
 520:Generated_Source\PSoC4/BLE_1.c **** *  Application should keep calling this function till API return CYBLE_ERROR_OK. 
 521:Generated_Source\PSoC4/BLE_1.c **** *  This function is available only when Bonding requirement is selected in
 522:Generated_Source\PSoC4/BLE_1.c **** *  Security settings.    
 523:Generated_Source\PSoC4/BLE_1.c **** * 
 524:Generated_Source\PSoC4/BLE_1.c **** *  \param isForceWrite:  If value is set to 0, then stack will check if flash write 
 525:Generated_Source\PSoC4/BLE_1.c **** *                 is permissible. 
 526:Generated_Source\PSoC4/BLE_1.c **** *  
 527:Generated_Source\PSoC4/BLE_1.c **** * \return
 528:Generated_Source\PSoC4/BLE_1.c **** *  Return value is of type CYBLE_API_RESULT_T.
 529:Generated_Source\PSoC4/BLE_1.c **** *
 530:Generated_Source\PSoC4/BLE_1.c **** *   Errors codes                         | Description
 531:Generated_Source\PSoC4/BLE_1.c **** *   ----------------------------------   | ------------------------------------
 532:Generated_Source\PSoC4/BLE_1.c **** *   CYBLE_ERROR_OK                       | On successful operation
 533:Generated_Source\PSoC4/BLE_1.c **** *   CYBLE_ERROR_FLASH_WRITE_NOT_PERMITED | Flash Write is not complete
 534:Generated_Source\PSoC4/BLE_1.c **** *   CYBLE_ERROR_INVALID_PARAMETER        | Invalid input parameter  
 535:Generated_Source\PSoC4/BLE_1.c **** *   CYBLE_ERROR_FLASH_WRITE              | Error in flash Write	
 536:Generated_Source\PSoC4/BLE_1.c ****     
 537:Generated_Source\PSoC4/BLE_1.c **** *  \sideeffect
 538:Generated_Source\PSoC4/BLE_1.c **** *   For BLE devices with 128K of Flash memory this API will automatically 
 539:Generated_Source\PSoC4/BLE_1.c **** *   modify the clock settings for the device.
 540:Generated_Source\PSoC4/BLE_1.c **** *   Writing to flash requires changes to be done to the IMO (set to 48 MHz)
 541:Generated_Source\PSoC4/BLE_1.c **** *   and HFCLK (source set to IMO) settings. The configuration is restored before
 542:Generated_Source\PSoC4/BLE_1.c **** *   returning. This will impact the operation of most of the hardware in the
 543:Generated_Source\PSoC4/BLE_1.c **** *   device.
 544:Generated_Source\PSoC4/BLE_1.c **** * 
 545:Generated_Source\PSoC4/BLE_1.c **** *  \globalvars
 546:Generated_Source\PSoC4/BLE_1.c **** *   The cyBle_pendingFlashWrite variable is used to detect status
 547:Generated_Source\PSoC4/BLE_1.c **** *   of pending write to flash operation for stack data and CCCD.
 548:Generated_Source\PSoC4/BLE_1.c **** *   This API automatically clears pending bits after write operation complete.
 549:Generated_Source\PSoC4/BLE_1.c **** *     
 550:Generated_Source\PSoC4/BLE_1.c **** ******************************************************************************/
 551:Generated_Source\PSoC4/BLE_1.c **** CYBLE_API_RESULT_T CyBle_StoreBondingData(uint8 isForceWrite)
 552:Generated_Source\PSoC4/BLE_1.c **** {
 456              		.loc 1 552 0
 457              		.cfi_startproc
 458 0000 90B5     		push	{r4, r7, lr}
 459              		.cfi_def_cfa_offset 12
 460              		.cfi_offset 4, -12
 461              		.cfi_offset 7, -8
 462              		.cfi_offset 14, -4
 463 0002 8DB0     		sub	sp, sp, #52
 464              		.cfi_def_cfa_offset 64
 465 0004 00AF     		add	r7, sp, #0
 466              		.cfi_def_cfa_register 7
 467 0006 021C     		mov	r2, r0
 468 0008 FB1D     		add	r3, r7, #7
 469 000a 1A70     		strb	r2, [r3]
 553:Generated_Source\PSoC4/BLE_1.c ****     CYBLE_API_RESULT_T apiResult = CYBLE_ERROR_OK;
ARM GAS  C:\Users\Petro\AppData\Local\Temp\ccfEn9K1.s 			page 19


 470              		.loc 1 553 0
 471 000c 2E23     		mov	r3, #46
 472 000e FB18     		add	r3, r7, r3
 473 0010 0022     		mov	r2, #0
 474 0012 1A80     		strh	r2, [r3]
 554:Generated_Source\PSoC4/BLE_1.c ****     
 555:Generated_Source\PSoC4/BLE_1.c ****     /* Store Stack data */
 556:Generated_Source\PSoC4/BLE_1.c ****     if((cyBle_pendingFlashWrite & CYBLE_PENDING_STACK_FLASH_WRITE_BIT) != 0u)
 475              		.loc 1 556 0
 476 0014 634B     		ldr	r3, .L27
 477 0016 1B78     		ldrb	r3, [r3]
 478 0018 1A1C     		mov	r2, r3
 479 001a 0123     		mov	r3, #1
 480 001c 1340     		and	r3, r2
 481 001e 1ED0     		beq	.L18
 557:Generated_Source\PSoC4/BLE_1.c ****     {
 558:Generated_Source\PSoC4/BLE_1.c ****         apiResult = CyBle_StoreStackData(isForceWrite);
 482              		.loc 1 558 0
 483 0020 2E23     		mov	r3, #46
 484 0022 FC18     		add	r4, r7, r3
 485 0024 FB1D     		add	r3, r7, #7
 486 0026 1B78     		ldrb	r3, [r3]
 487 0028 181C     		mov	r0, r3
 488 002a FFF7FEFF 		bl	CyBle_StoreStackData
 489 002e 031C     		mov	r3, r0
 490 0030 2380     		strh	r3, [r4]
 559:Generated_Source\PSoC4/BLE_1.c ****         if(apiResult == CYBLE_ERROR_OK)
 491              		.loc 1 559 0
 492 0032 2E23     		mov	r3, #46
 493 0034 FB18     		add	r3, r7, r3
 494 0036 1B88     		ldrh	r3, [r3]
 495 0038 002B     		cmp	r3, #0
 496 003a 10D1     		bne	.L18
 560:Generated_Source\PSoC4/BLE_1.c ****         {
 561:Generated_Source\PSoC4/BLE_1.c ****             cyBle_pendingFlashWrite &= (uint8)~CYBLE_PENDING_STACK_FLASH_WRITE_BIT;
 497              		.loc 1 561 0
 498 003c 594B     		ldr	r3, .L27
 499 003e 1B78     		ldrb	r3, [r3]
 500 0040 0122     		mov	r2, #1
 501 0042 9343     		bic	r3, r2
 502 0044 DAB2     		uxtb	r2, r3
 503 0046 574B     		ldr	r3, .L27
 504 0048 1A70     		strb	r2, [r3]
 562:Generated_Source\PSoC4/BLE_1.c ****             /* Change apiResult if there are more pending data to store */
 563:Generated_Source\PSoC4/BLE_1.c ****             if((cyBle_pendingFlashWrite & CYBLE_PENDING_CCCD_FLASH_WRITE_BIT) != 0u)
 505              		.loc 1 563 0
 506 004a 564B     		ldr	r3, .L27
 507 004c 1B78     		ldrb	r3, [r3]
 508 004e 1A1C     		mov	r2, r3
 509 0050 0223     		mov	r3, #2
 510 0052 1340     		and	r3, r2
 511 0054 03D0     		beq	.L18
 564:Generated_Source\PSoC4/BLE_1.c ****             {
 565:Generated_Source\PSoC4/BLE_1.c ****                 apiResult = CYBLE_ERROR_FLASH_WRITE_NOT_PERMITED;
 512              		.loc 1 565 0
 513 0056 2E23     		mov	r3, #46
 514 0058 FB18     		add	r3, r7, r3
ARM GAS  C:\Users\Petro\AppData\Local\Temp\ccfEn9K1.s 			page 20


 515 005a 2822     		mov	r2, #40
 516 005c 1A80     		strh	r2, [r3]
 517              	.L18:
 566:Generated_Source\PSoC4/BLE_1.c ****             }
 567:Generated_Source\PSoC4/BLE_1.c ****         }
 568:Generated_Source\PSoC4/BLE_1.c ****     }
 569:Generated_Source\PSoC4/BLE_1.c **** #if(CYBLE_GATT_DB_CCCD_COUNT != 0u)
 570:Generated_Source\PSoC4/BLE_1.c ****     /* Store CCCD values */
 571:Generated_Source\PSoC4/BLE_1.c ****     if( ((apiResult == CYBLE_ERROR_OK) || (isForceWrite != 0u)) && 
 518              		.loc 1 571 0
 519 005e 2E23     		mov	r3, #46
 520 0060 FB18     		add	r3, r7, r3
 521 0062 1B88     		ldrh	r3, [r3]
 522 0064 002B     		cmp	r3, #0
 523 0066 03D0     		beq	.L19
 524              		.loc 1 571 0 is_stmt 0 discriminator 2
 525 0068 FB1D     		add	r3, r7, #7
 526 006a 1B78     		ldrb	r3, [r3]
 527 006c 002B     		cmp	r3, #0
 528 006e 2ED0     		beq	.L20
 529              	.L19:
 572:Generated_Source\PSoC4/BLE_1.c ****         ((cyBle_pendingFlashWrite & CYBLE_PENDING_CCCD_FLASH_WRITE_BIT) != 0u) &&
 530              		.loc 1 572 0 is_stmt 1 discriminator 3
 531 0070 4C4B     		ldr	r3, .L27
 532 0072 1B78     		ldrb	r3, [r3]
 533 0074 1A1C     		mov	r2, r3
 534 0076 0223     		mov	r3, #2
 535 0078 1340     		and	r3, r2
 571:Generated_Source\PSoC4/BLE_1.c ****         ((cyBle_pendingFlashWrite & CYBLE_PENDING_CCCD_FLASH_WRITE_BIT) != 0u) &&
 536              		.loc 1 571 0 discriminator 3
 537 007a 28D0     		beq	.L20
 573:Generated_Source\PSoC4/BLE_1.c ****         (cyBle_connHandle.bdHandle <= CYBLE_GAP_MAX_BONDED_DEVICE))
 538              		.loc 1 573 0
 539 007c 4A4B     		ldr	r3, .L27+4
 540 007e 1B78     		ldrb	r3, [r3]
 572:Generated_Source\PSoC4/BLE_1.c ****         ((cyBle_pendingFlashWrite & CYBLE_PENDING_CCCD_FLASH_WRITE_BIT) != 0u) &&
 541              		.loc 1 572 0
 542 0080 042B     		cmp	r3, #4
 543 0082 24D8     		bhi	.L20
 574:Generated_Source\PSoC4/BLE_1.c ****     {
 575:Generated_Source\PSoC4/BLE_1.c ****         apiResult = CyBle_StoreAppData(cyBle_attValuesCCCD, cyBle_flashStorage.attValuesCCCDFlashMe
 576:Generated_Source\PSoC4/BLE_1.c ****                         cyBle_connHandle.bdHandle], CYBLE_GATT_DB_CCCD_COUNT, isForceWrite);
 544              		.loc 1 576 0
 545 0084 484B     		ldr	r3, .L27+4
 546 0086 1B78     		ldrb	r3, [r3]
 575:Generated_Source\PSoC4/BLE_1.c ****                         cyBle_connHandle.bdHandle], CYBLE_GATT_DB_CCCD_COUNT, isForceWrite);
 547              		.loc 1 575 0
 548 0088 1A1C     		mov	r2, r3
 549 008a 131C     		mov	r3, r2
 550 008c 5B00     		lsl	r3, r3, #1
 551 008e 9B18     		add	r3, r3, r2
 552 0090 5B00     		lsl	r3, r3, #1
 553 0092 9E22     		mov	r2, #158
 554 0094 9200     		lsl	r2, r2, #2
 555 0096 9A18     		add	r2, r3, r2
 556 0098 444B     		ldr	r3, .L27+8
 557 009a D318     		add	r3, r2, r3
ARM GAS  C:\Users\Petro\AppData\Local\Temp\ccfEn9K1.s 			page 21


 558 009c 5A1C     		add	r2, r3, #1
 559 009e 2E23     		mov	r3, #46
 560 00a0 FC18     		add	r4, r7, r3
 561 00a2 4349     		ldr	r1, .L27+12
 562 00a4 FB1D     		add	r3, r7, #7
 563 00a6 1B78     		ldrb	r3, [r3]
 564 00a8 081C     		mov	r0, r1
 565 00aa 111C     		mov	r1, r2
 566 00ac 0622     		mov	r2, #6
 567 00ae FFF7FEFF 		bl	CyBle_StoreAppData
 568 00b2 031C     		mov	r3, r0
 569 00b4 2380     		strh	r3, [r4]
 577:Generated_Source\PSoC4/BLE_1.c ****         if(apiResult == CYBLE_ERROR_OK)
 570              		.loc 1 577 0
 571 00b6 2E23     		mov	r3, #46
 572 00b8 FB18     		add	r3, r7, r3
 573 00ba 1B88     		ldrh	r3, [r3]
 574 00bc 002B     		cmp	r3, #0
 575 00be 06D1     		bne	.L20
 578:Generated_Source\PSoC4/BLE_1.c ****         {
 579:Generated_Source\PSoC4/BLE_1.c ****             cyBle_pendingFlashWrite &= (uint8)~CYBLE_PENDING_CCCD_FLASH_WRITE_BIT;
 576              		.loc 1 579 0
 577 00c0 384B     		ldr	r3, .L27
 578 00c2 1B78     		ldrb	r3, [r3]
 579 00c4 0222     		mov	r2, #2
 580 00c6 9343     		bic	r3, r2
 581 00c8 DAB2     		uxtb	r2, r3
 582 00ca 364B     		ldr	r3, .L27
 583 00cc 1A70     		strb	r2, [r3]
 584              	.L20:
 580:Generated_Source\PSoC4/BLE_1.c ****         }
 581:Generated_Source\PSoC4/BLE_1.c ****     }
 582:Generated_Source\PSoC4/BLE_1.c ****     /* Clear requested CCCD values */
 583:Generated_Source\PSoC4/BLE_1.c ****     if( ((apiResult == CYBLE_ERROR_OK) || (isForceWrite != 0u)) && 
 585              		.loc 1 583 0
 586 00ce 2E23     		mov	r3, #46
 587 00d0 FB18     		add	r3, r7, r3
 588 00d2 1B88     		ldrh	r3, [r3]
 589 00d4 002B     		cmp	r3, #0
 590 00d6 03D0     		beq	.L21
 591              		.loc 1 583 0 is_stmt 0 discriminator 2
 592 00d8 FB1D     		add	r3, r7, #7
 593 00da 1B78     		ldrb	r3, [r3]
 594 00dc 002B     		cmp	r3, #0
 595 00de 5AD0     		beq	.L22
 596              	.L21:
 584:Generated_Source\PSoC4/BLE_1.c ****         ((cyBle_pendingFlashWrite & CYBLE_PENDING_CCCD_FLASH_CLEAR_MASK) != 0u) )
 597              		.loc 1 584 0 is_stmt 1 discriminator 3
 598 00e0 304B     		ldr	r3, .L27
 599 00e2 1B78     		ldrb	r3, [r3]
 600 00e4 1A1C     		mov	r2, r3
 601 00e6 0C23     		mov	r3, #12
 602 00e8 1340     		and	r3, r2
 583:Generated_Source\PSoC4/BLE_1.c ****         ((cyBle_pendingFlashWrite & CYBLE_PENDING_CCCD_FLASH_CLEAR_MASK) != 0u) )
 603              		.loc 1 583 0 discriminator 3
 604 00ea 54D0     		beq	.L22
 585:Generated_Source\PSoC4/BLE_1.c ****     {
ARM GAS  C:\Users\Petro\AppData\Local\Temp\ccfEn9K1.s 			page 22


 586:Generated_Source\PSoC4/BLE_1.c ****         if((cyBle_pendingFlashWrite & CYBLE_PENDING_CCCD_FLASH_CLEAR_ALL_BIT) != 0u)
 605              		.loc 1 586 0
 606 00ec 2D4B     		ldr	r3, .L27
 607 00ee 1B78     		ldrb	r3, [r3]
 608 00f0 1A1C     		mov	r2, r3
 609 00f2 0823     		mov	r3, #8
 610 00f4 1340     		and	r3, r2
 611 00f6 22D0     		beq	.L23
 612              	.LBB3:
 587:Generated_Source\PSoC4/BLE_1.c ****         {
 588:Generated_Source\PSoC4/BLE_1.c ****             /* Remove cccd values for all bonded devices */
 589:Generated_Source\PSoC4/BLE_1.c ****             uint8 defaultValuesCCCD[CYBLE_GAP_MAX_BONDED_DEVICE + 1u][CYBLE_GATT_DB_CCCD_COUNT];
 590:Generated_Source\PSoC4/BLE_1.c ****             
 591:Generated_Source\PSoC4/BLE_1.c ****             (void)memset(defaultValuesCCCD, 0, sizeof(defaultValuesCCCD));
 613              		.loc 1 591 0
 614 00f8 1023     		mov	r3, #16
 615 00fa FB18     		add	r3, r7, r3
 616 00fc 181C     		mov	r0, r3
 617 00fe 0021     		mov	r1, #0
 618 0100 1E22     		mov	r2, #30
 619 0102 FFF7FEFF 		bl	memset
 592:Generated_Source\PSoC4/BLE_1.c **** 
 593:Generated_Source\PSoC4/BLE_1.c ****             apiResult = CyBle_StoreAppData((uint8 *)defaultValuesCCCD, 
 620              		.loc 1 593 0
 621 0106 2E23     		mov	r3, #46
 622 0108 FC18     		add	r4, r7, r3
 623 010a 1023     		mov	r3, #16
 624 010c F918     		add	r1, r7, r3
 625 010e 294A     		ldr	r2, .L27+16
 626 0110 FB1D     		add	r3, r7, #7
 627 0112 1B78     		ldrb	r3, [r3]
 628 0114 081C     		mov	r0, r1
 629 0116 111C     		mov	r1, r2
 630 0118 1E22     		mov	r2, #30
 631 011a FFF7FEFF 		bl	CyBle_StoreAppData
 632 011e 031C     		mov	r3, r0
 633 0120 2380     		strh	r3, [r4]
 594:Generated_Source\PSoC4/BLE_1.c ****                 (const uint8 *)cyBle_flashStorage.attValuesCCCDFlashMemory, sizeof(defaultValuesCCC
 595:Generated_Source\PSoC4/BLE_1.c ****             if(apiResult == CYBLE_ERROR_OK)
 634              		.loc 1 595 0
 635 0122 2E23     		mov	r3, #46
 636 0124 FB18     		add	r3, r7, r3
 637 0126 1B88     		ldrh	r3, [r3]
 638 0128 002B     		cmp	r3, #0
 639 012a 07D1     		bne	.L24
 596:Generated_Source\PSoC4/BLE_1.c ****             {
 597:Generated_Source\PSoC4/BLE_1.c ****                 cyBle_pendingFlashWrite &= (uint8)~CYBLE_PENDING_CCCD_FLASH_CLEAR_ALL_BIT;
 640              		.loc 1 597 0
 641 012c 1D4B     		ldr	r3, .L27
 642 012e 1B78     		ldrb	r3, [r3]
 643 0130 0822     		mov	r2, #8
 644 0132 9343     		bic	r3, r2
 645 0134 DAB2     		uxtb	r2, r3
 646 0136 1B4B     		ldr	r3, .L27
 647 0138 1A70     		strb	r2, [r3]
 648              	.LBE3:
 649 013a 2CE0     		b	.L22
ARM GAS  C:\Users\Petro\AppData\Local\Temp\ccfEn9K1.s 			page 23


 650              	.L24:
 651 013c 2BE0     		b	.L22
 652              	.L23:
 653              	.LBB4:
 598:Generated_Source\PSoC4/BLE_1.c ****             }
 599:Generated_Source\PSoC4/BLE_1.c ****         }
 600:Generated_Source\PSoC4/BLE_1.c ****         else /* Remove cccd values for particular device */
 601:Generated_Source\PSoC4/BLE_1.c ****         {
 602:Generated_Source\PSoC4/BLE_1.c ****             uint8 defaultValuesCCCD[CYBLE_GATT_DB_CCCD_COUNT] = {0u};
 654              		.loc 1 602 0
 655 013e 0823     		mov	r3, #8
 656 0140 FB18     		add	r3, r7, r3
 657 0142 0022     		mov	r2, #0
 658 0144 1A60     		str	r2, [r3]
 659 0146 0022     		mov	r2, #0
 660 0148 9A80     		strh	r2, [r3, #4]
 603:Generated_Source\PSoC4/BLE_1.c ****             
 604:Generated_Source\PSoC4/BLE_1.c ****             apiResult = CyBle_StoreAppData(defaultValuesCCCD, cyBle_flashStorage.attValuesCCCDFlash
 661              		.loc 1 604 0
 662 014a 1B4B     		ldr	r3, .L27+20
 663 014c 1B78     		ldrb	r3, [r3]
 664 014e 1A1C     		mov	r2, r3
 665 0150 131C     		mov	r3, r2
 666 0152 5B00     		lsl	r3, r3, #1
 667 0154 9B18     		add	r3, r3, r2
 668 0156 5B00     		lsl	r3, r3, #1
 669 0158 9E22     		mov	r2, #158
 670 015a 9200     		lsl	r2, r2, #2
 671 015c 9A18     		add	r2, r3, r2
 672 015e 134B     		ldr	r3, .L27+8
 673 0160 D318     		add	r3, r2, r3
 674 0162 5A1C     		add	r2, r3, #1
 675 0164 2E23     		mov	r3, #46
 676 0166 FC18     		add	r4, r7, r3
 677 0168 0823     		mov	r3, #8
 678 016a F918     		add	r1, r7, r3
 679 016c FB1D     		add	r3, r7, #7
 680 016e 1B78     		ldrb	r3, [r3]
 681 0170 081C     		mov	r0, r1
 682 0172 111C     		mov	r1, r2
 683 0174 0622     		mov	r2, #6
 684 0176 FFF7FEFF 		bl	CyBle_StoreAppData
 685 017a 031C     		mov	r3, r0
 686 017c 2380     		strh	r3, [r4]
 605:Generated_Source\PSoC4/BLE_1.c ****                                     cyBle_pendingFlashClearCccdHandle], CYBLE_GATT_DB_CCCD_COUNT, i
 606:Generated_Source\PSoC4/BLE_1.c ****             if(apiResult == CYBLE_ERROR_OK)
 687              		.loc 1 606 0
 688 017e 2E23     		mov	r3, #46
 689 0180 FB18     		add	r3, r7, r3
 690 0182 1B88     		ldrh	r3, [r3]
 691 0184 002B     		cmp	r3, #0
 692 0186 06D1     		bne	.L22
 607:Generated_Source\PSoC4/BLE_1.c ****             {
 608:Generated_Source\PSoC4/BLE_1.c ****                 cyBle_pendingFlashWrite &= (uint8)~CYBLE_PENDING_CCCD_FLASH_CLEAR_BIT;
 693              		.loc 1 608 0
 694 0188 064B     		ldr	r3, .L27
 695 018a 1B78     		ldrb	r3, [r3]
ARM GAS  C:\Users\Petro\AppData\Local\Temp\ccfEn9K1.s 			page 24


 696 018c 0422     		mov	r2, #4
 697 018e 9343     		bic	r3, r2
 698 0190 DAB2     		uxtb	r2, r3
 699 0192 044B     		ldr	r3, .L27
 700 0194 1A70     		strb	r2, [r3]
 701              	.L22:
 702              	.LBE4:
 609:Generated_Source\PSoC4/BLE_1.c ****             }
 610:Generated_Source\PSoC4/BLE_1.c ****         }
 611:Generated_Source\PSoC4/BLE_1.c ****     }
 612:Generated_Source\PSoC4/BLE_1.c **** #endif /* CYBLE_GATT_DB_CCCD_COUNT != 0u */
 613:Generated_Source\PSoC4/BLE_1.c ****     return(apiResult);
 703              		.loc 1 613 0
 704 0196 2E23     		mov	r3, #46
 705 0198 FB18     		add	r3, r7, r3
 706 019a 1B88     		ldrh	r3, [r3]
 614:Generated_Source\PSoC4/BLE_1.c **** }
 707              		.loc 1 614 0
 708 019c 181C     		mov	r0, r3
 709 019e BD46     		mov	sp, r7
 710 01a0 0DB0     		add	sp, sp, #52
 711              		@ sp needed
 712 01a2 90BD     		pop	{r4, r7, pc}
 713              	.L28:
 714              		.align	2
 715              	.L27:
 716 01a4 00000000 		.word	cyBle_pendingFlashWrite
 717 01a8 00000000 		.word	cyBle_connHandle
 718 01ac 00000000 		.word	cyBle_flashStorage
 719 01b0 00000000 		.word	cyBle_attValuesCCCD
 720 01b4 79020000 		.word	cyBle_flashStorage+633
 721 01b8 01000000 		.word	cyBle_pendingFlashClearCccdHandle
 722              		.cfi_endproc
 723              	.LFE6:
 724              		.size	CyBle_StoreBondingData, .-CyBle_StoreBondingData
 725              		.section	.text.CyBle_GapRemoveBondedDevice,"ax",%progbits
 726              		.align	2
 727              		.global	CyBle_GapRemoveBondedDevice
 728              		.code	16
 729              		.thumb_func
 730              		.type	CyBle_GapRemoveBondedDevice, %function
 731              	CyBle_GapRemoveBondedDevice:
 732              	.LFB7:
 615:Generated_Source\PSoC4/BLE_1.c **** 
 616:Generated_Source\PSoC4/BLE_1.c **** 
 617:Generated_Source\PSoC4/BLE_1.c **** /******************************************************************************
 618:Generated_Source\PSoC4/BLE_1.c **** * Function Name: CyBle_GapRemoveBondedDevice
 619:Generated_Source\PSoC4/BLE_1.c **** ***************************************************************************//**
 620:Generated_Source\PSoC4/BLE_1.c **** * 
 621:Generated_Source\PSoC4/BLE_1.c **** *  This function marks the device untrusted. It removes the bonding information
 622:Generated_Source\PSoC4/BLE_1.c **** *  of the device including CCCD values. This function removes device from the
 623:Generated_Source\PSoC4/BLE_1.c **** *  white list also when autopopulate white list with bonded devices option is
 624:Generated_Source\PSoC4/BLE_1.c **** *  enabled.
 625:Generated_Source\PSoC4/BLE_1.c **** * 
 626:Generated_Source\PSoC4/BLE_1.c **** *  This function is available only when Bonding requirement is selected in
 627:Generated_Source\PSoC4/BLE_1.c **** *  Security settings.    
 628:Generated_Source\PSoC4/BLE_1.c **** *
ARM GAS  C:\Users\Petro\AppData\Local\Temp\ccfEn9K1.s 			page 25


 629:Generated_Source\PSoC4/BLE_1.c **** *  \param bdAddr: Pointer to peer device address, of type CYBLE_GAP_BD_ADDR_T.
 630:Generated_Source\PSoC4/BLE_1.c **** *                 If device address is set to 0, then all devices shall be
 631:Generated_Source\PSoC4/BLE_1.c **** *                 removed from trusted list and white list.
 632:Generated_Source\PSoC4/BLE_1.c **** *
 633:Generated_Source\PSoC4/BLE_1.c **** * \return
 634:Generated_Source\PSoC4/BLE_1.c **** *  CYBLE_API_RESULT_T : Return value indicates if the function succeeded or
 635:Generated_Source\PSoC4/BLE_1.c **** *  failed. Following are the possible error codes.
 636:Generated_Source\PSoC4/BLE_1.c **** *
 637:Generated_Source\PSoC4/BLE_1.c **** *   Errors codes                     | Description
 638:Generated_Source\PSoC4/BLE_1.c **** *   ---------------------------------| ------------------------------------
 639:Generated_Source\PSoC4/BLE_1.c **** *   CYBLE_ERROR_OK                   | On successful operation.
 640:Generated_Source\PSoC4/BLE_1.c **** *   CYBLE_ERROR_INVALID_PARAMETER    | On specifying NULL as input parameter for 'bdAddr'.
 641:Generated_Source\PSoC4/BLE_1.c **** *   CYBLE_ERROR_INVALID_OPERATION    | Whitelist is already in use or there is pending write to fla
 642:Generated_Source\PSoC4/BLE_1.c **** *   CYBLE_ERROR_NO_DEVICE_ENTITY     | Device does not exist in the bond list.
 643:Generated_Source\PSoC4/BLE_1.c **** *
 644:Generated_Source\PSoC4/BLE_1.c **** *  \globalvars
 645:Generated_Source\PSoC4/BLE_1.c **** *   The bdHandle is set in cyBle_pendingFlashWrite variable to indicate that
 646:Generated_Source\PSoC4/BLE_1.c **** *   data should be stored to flash by CyBle_StoreBondingData afterwards. 
 647:Generated_Source\PSoC4/BLE_1.c **** *     
 648:Generated_Source\PSoC4/BLE_1.c **** ******************************************************************************/
 649:Generated_Source\PSoC4/BLE_1.c **** CYBLE_API_RESULT_T CyBle_GapRemoveBondedDevice(CYBLE_GAP_BD_ADDR_T* bdAddr)
 650:Generated_Source\PSoC4/BLE_1.c **** {
 733              		.loc 1 650 0
 734              		.cfi_startproc
 735 0000 90B5     		push	{r4, r7, lr}
 736              		.cfi_def_cfa_offset 12
 737              		.cfi_offset 4, -12
 738              		.cfi_offset 7, -8
 739              		.cfi_offset 14, -4
 740 0002 87B0     		sub	sp, sp, #28
 741              		.cfi_def_cfa_offset 40
 742 0004 00AF     		add	r7, sp, #0
 743              		.cfi_def_cfa_register 7
 744 0006 7860     		str	r0, [r7, #4]
 651:Generated_Source\PSoC4/BLE_1.c ****     CYBLE_API_RESULT_T apiResult = CYBLE_ERROR_OK;
 745              		.loc 1 651 0
 746 0008 1623     		mov	r3, #22
 747 000a FB18     		add	r3, r7, r3
 748 000c 0022     		mov	r2, #0
 749 000e 1A80     		strh	r2, [r3]
 652:Generated_Source\PSoC4/BLE_1.c ****     
 653:Generated_Source\PSoC4/BLE_1.c ****     if(cyBle_pendingFlashWrite == 0u)
 750              		.loc 1 653 0
 751 0010 334B     		ldr	r3, .L36
 752 0012 1B78     		ldrb	r3, [r3]
 753 0014 002B     		cmp	r3, #0
 754 0016 58D1     		bne	.L30
 755              	.LBB5:
 654:Generated_Source\PSoC4/BLE_1.c ****     {
 655:Generated_Source\PSoC4/BLE_1.c ****         
 656:Generated_Source\PSoC4/BLE_1.c ****     #if(CYBLE_GATT_DB_CCCD_COUNT != 0u)
 657:Generated_Source\PSoC4/BLE_1.c ****         /* Request to clear CCCD values which will be done by CyBle_StoreBondingData API */
 658:Generated_Source\PSoC4/BLE_1.c ****         uint8 bDevHandle;
 659:Generated_Source\PSoC4/BLE_1.c ****         CYBLE_GAP_BD_ADDR_T invalidBdAddr = {{0u,0u,0u,0u,0u,0u}, 0u};
 756              		.loc 1 659 0
 757 0018 0C23     		mov	r3, #12
 758 001a FB18     		add	r3, r7, r3
ARM GAS  C:\Users\Petro\AppData\Local\Temp\ccfEn9K1.s 			page 26


 759 001c 0022     		mov	r2, #0
 760 001e 1A70     		strb	r2, [r3]
 761 0020 0C23     		mov	r3, #12
 762 0022 FB18     		add	r3, r7, r3
 763 0024 0022     		mov	r2, #0
 764 0026 5A70     		strb	r2, [r3, #1]
 765 0028 0C23     		mov	r3, #12
 766 002a FB18     		add	r3, r7, r3
 767 002c 0022     		mov	r2, #0
 768 002e 9A70     		strb	r2, [r3, #2]
 769 0030 0C23     		mov	r3, #12
 770 0032 FB18     		add	r3, r7, r3
 771 0034 0022     		mov	r2, #0
 772 0036 DA70     		strb	r2, [r3, #3]
 773 0038 0C23     		mov	r3, #12
 774 003a FB18     		add	r3, r7, r3
 775 003c 0022     		mov	r2, #0
 776 003e 1A71     		strb	r2, [r3, #4]
 777 0040 0C23     		mov	r3, #12
 778 0042 FB18     		add	r3, r7, r3
 779 0044 0022     		mov	r2, #0
 780 0046 5A71     		strb	r2, [r3, #5]
 781 0048 0C23     		mov	r3, #12
 782 004a FB18     		add	r3, r7, r3
 783 004c 0022     		mov	r2, #0
 784 004e 9A71     		strb	r2, [r3, #6]
 660:Generated_Source\PSoC4/BLE_1.c **** 
 661:Generated_Source\PSoC4/BLE_1.c ****         if(memcmp(((uint8 *) &(bdAddr->bdAddr)), ((uint8 *) &(invalidBdAddr.bdAddr)), CYBLE_GAP_BD_
 785              		.loc 1 661 0
 786 0050 7A68     		ldr	r2, [r7, #4]
 787 0052 0C23     		mov	r3, #12
 788 0054 FB18     		add	r3, r7, r3
 789 0056 101C     		mov	r0, r2
 790 0058 191C     		mov	r1, r3
 791 005a 0622     		mov	r2, #6
 792 005c FFF7FEFF 		bl	memcmp
 793 0060 031E     		sub	r3, r0, #0
 794 0062 07D1     		bne	.L31
 662:Generated_Source\PSoC4/BLE_1.c **** 	    {
 663:Generated_Source\PSoC4/BLE_1.c ****             /* Request to remove all bonded devices by cyBle_StoreBondingData API */
 664:Generated_Source\PSoC4/BLE_1.c ****             cyBle_pendingFlashWrite |= CYBLE_PENDING_CCCD_FLASH_CLEAR_ALL_BIT;
 795              		.loc 1 664 0
 796 0064 1E4B     		ldr	r3, .L36
 797 0066 1B78     		ldrb	r3, [r3]
 798 0068 0822     		mov	r2, #8
 799 006a 1343     		orr	r3, r2
 800 006c DAB2     		uxtb	r2, r3
 801 006e 1C4B     		ldr	r3, .L36
 802 0070 1A70     		strb	r2, [r3]
 803 0072 1BE0     		b	.L32
 804              	.L31:
 665:Generated_Source\PSoC4/BLE_1.c ****         }
 666:Generated_Source\PSoC4/BLE_1.c ****         else
 667:Generated_Source\PSoC4/BLE_1.c ****         {
 668:Generated_Source\PSoC4/BLE_1.c ****             /* Get the BD handle from Address */
 669:Generated_Source\PSoC4/BLE_1.c ****             apiResult = CyBle_GapGetPeerBdHandle(&bDevHandle, bdAddr);
 805              		.loc 1 669 0
ARM GAS  C:\Users\Petro\AppData\Local\Temp\ccfEn9K1.s 			page 27


 806 0074 1623     		mov	r3, #22
 807 0076 FC18     		add	r4, r7, r3
 808 0078 1523     		mov	r3, #21
 809 007a FA18     		add	r2, r7, r3
 810 007c 7B68     		ldr	r3, [r7, #4]
 811 007e 101C     		mov	r0, r2
 812 0080 191C     		mov	r1, r3
 813 0082 FFF7FEFF 		bl	CyBle_GapGetPeerBdHandle
 814 0086 031C     		mov	r3, r0
 815 0088 2380     		strh	r3, [r4]
 670:Generated_Source\PSoC4/BLE_1.c ****             if(apiResult == CYBLE_ERROR_OK)
 816              		.loc 1 670 0
 817 008a 1623     		mov	r3, #22
 818 008c FB18     		add	r3, r7, r3
 819 008e 1B88     		ldrh	r3, [r3]
 820 0090 002B     		cmp	r3, #0
 821 0092 0BD1     		bne	.L32
 671:Generated_Source\PSoC4/BLE_1.c ****             {
 672:Generated_Source\PSoC4/BLE_1.c ****                 /* Store BD handle to clear cccd values by CyBle_StoreBondingData API */
 673:Generated_Source\PSoC4/BLE_1.c ****                 cyBle_pendingFlashWrite |= CYBLE_PENDING_CCCD_FLASH_CLEAR_BIT;
 822              		.loc 1 673 0
 823 0094 124B     		ldr	r3, .L36
 824 0096 1B78     		ldrb	r3, [r3]
 825 0098 0422     		mov	r2, #4
 826 009a 1343     		orr	r3, r2
 827 009c DAB2     		uxtb	r2, r3
 828 009e 104B     		ldr	r3, .L36
 829 00a0 1A70     		strb	r2, [r3]
 674:Generated_Source\PSoC4/BLE_1.c ****                 cyBle_pendingFlashClearCccdHandle = bDevHandle;
 830              		.loc 1 674 0
 831 00a2 1523     		mov	r3, #21
 832 00a4 FB18     		add	r3, r7, r3
 833 00a6 1A78     		ldrb	r2, [r3]
 834 00a8 0E4B     		ldr	r3, .L36+4
 835 00aa 1A70     		strb	r2, [r3]
 836              	.L32:
 675:Generated_Source\PSoC4/BLE_1.c ****             }
 676:Generated_Source\PSoC4/BLE_1.c ****         }
 677:Generated_Source\PSoC4/BLE_1.c ****     #endif /* CYBLE_GATT_DB_CCCD_COUNT != 0u */
 678:Generated_Source\PSoC4/BLE_1.c ****         if(apiResult == CYBLE_ERROR_OK)
 837              		.loc 1 678 0
 838 00ac 1623     		mov	r3, #22
 839 00ae FB18     		add	r3, r7, r3
 840 00b0 1B88     		ldrh	r3, [r3]
 841 00b2 002B     		cmp	r3, #0
 842 00b4 08D1     		bne	.L33
 679:Generated_Source\PSoC4/BLE_1.c ****         {
 680:Generated_Source\PSoC4/BLE_1.c ****             #if(CYBLE_AUTO_POPULATE_WHITELIST != 0u)
 681:Generated_Source\PSoC4/BLE_1.c ****                 apiResult = CyBle_GapRemoveDeviceFromWhiteList(bdAddr);
 843              		.loc 1 681 0
 844 00b6 1623     		mov	r3, #22
 845 00b8 FC18     		add	r4, r7, r3
 846 00ba 7B68     		ldr	r3, [r7, #4]
 847 00bc 181C     		mov	r0, r3
 848 00be FFF7FEFF 		bl	CyBle_GapRemoveDeviceFromWhiteList
 849 00c2 031C     		mov	r3, r0
 850 00c4 2380     		strh	r3, [r4]
ARM GAS  C:\Users\Petro\AppData\Local\Temp\ccfEn9K1.s 			page 28


 851              	.LBE5:
 852 00c6 04E0     		b	.L34
 853              	.L33:
 854 00c8 03E0     		b	.L34
 855              	.L30:
 682:Generated_Source\PSoC4/BLE_1.c ****             #else
 683:Generated_Source\PSoC4/BLE_1.c ****                 apiResult = CyBle_GapRemDeviceFromBondList(bdAddr);
 684:Generated_Source\PSoC4/BLE_1.c ****             #endif
 685:Generated_Source\PSoC4/BLE_1.c ****         }
 686:Generated_Source\PSoC4/BLE_1.c ****     }
 687:Generated_Source\PSoC4/BLE_1.c ****     else
 688:Generated_Source\PSoC4/BLE_1.c ****     {
 689:Generated_Source\PSoC4/BLE_1.c ****         apiResult = CYBLE_ERROR_INVALID_OPERATION;
 856              		.loc 1 689 0
 857 00ca 1623     		mov	r3, #22
 858 00cc FB18     		add	r3, r7, r3
 859 00ce 0222     		mov	r2, #2
 860 00d0 1A80     		strh	r2, [r3]
 861              	.L34:
 690:Generated_Source\PSoC4/BLE_1.c ****     }
 691:Generated_Source\PSoC4/BLE_1.c ****     
 692:Generated_Source\PSoC4/BLE_1.c ****     return(apiResult);
 862              		.loc 1 692 0
 863 00d2 1623     		mov	r3, #22
 864 00d4 FB18     		add	r3, r7, r3
 865 00d6 1B88     		ldrh	r3, [r3]
 693:Generated_Source\PSoC4/BLE_1.c **** }
 866              		.loc 1 693 0
 867 00d8 181C     		mov	r0, r3
 868 00da BD46     		mov	sp, r7
 869 00dc 07B0     		add	sp, sp, #28
 870              		@ sp needed
 871 00de 90BD     		pop	{r4, r7, pc}
 872              	.L37:
 873              		.align	2
 874              	.L36:
 875 00e0 00000000 		.word	cyBle_pendingFlashWrite
 876 00e4 01000000 		.word	cyBle_pendingFlashClearCccdHandle
 877              		.cfi_endproc
 878              	.LFE7:
 879              		.size	CyBle_GapRemoveBondedDevice, .-CyBle_GapRemoveBondedDevice
 880              		.section	.text.CyBle_GapcStartScan,"ax",%progbits
 881              		.align	2
 882              		.global	CyBle_GapcStartScan
 883              		.code	16
 884              		.thumb_func
 885              		.type	CyBle_GapcStartScan, %function
 886              	CyBle_GapcStartScan:
 887              	.LFB8:
 694:Generated_Source\PSoC4/BLE_1.c **** 
 695:Generated_Source\PSoC4/BLE_1.c **** 
 696:Generated_Source\PSoC4/BLE_1.c **** #endif /* (CYBLE_GAP_ROLE_PERIPHERAL || CYBLE_GAP_ROLE_CENTRAL) && (CYBLE_BONDING_REQUIREMENT == CY
 697:Generated_Source\PSoC4/BLE_1.c **** 
 698:Generated_Source\PSoC4/BLE_1.c **** 
 699:Generated_Source\PSoC4/BLE_1.c **** #if(CYBLE_GAP_ROLE_PERIPHERAL || CYBLE_GAP_ROLE_BROADCASTER)
 700:Generated_Source\PSoC4/BLE_1.c **** 
 701:Generated_Source\PSoC4/BLE_1.c ****     /******************************************************************************
ARM GAS  C:\Users\Petro\AppData\Local\Temp\ccfEn9K1.s 			page 29


 702:Generated_Source\PSoC4/BLE_1.c ****     *  Function Name: CyBle_GappStartAdvertisement
 703:Generated_Source\PSoC4/BLE_1.c ****     ***************************************************************************//**
 704:Generated_Source\PSoC4/BLE_1.c ****     *     
 705:Generated_Source\PSoC4/BLE_1.c ****     *  This function is used to start the advertisement using the advertisement data 
 706:Generated_Source\PSoC4/BLE_1.c ****     *  set in the component customizer's GUI. After invoking this API, the device 
 707:Generated_Source\PSoC4/BLE_1.c ****     *  will be available for connection by the devices configured for GAP central 
 708:Generated_Source\PSoC4/BLE_1.c ****     *  role. It is only included if the device is configured for GAP Peripheral or 
 709:Generated_Source\PSoC4/BLE_1.c ****     *  GAP Peripheral + Central role.
 710:Generated_Source\PSoC4/BLE_1.c ****     *  
 711:Generated_Source\PSoC4/BLE_1.c ****     *  On start of advertisement, GAP Peripheral receives the
 712:Generated_Source\PSoC4/BLE_1.c ****     *  CYBLE_EVT_GAPP_ADVERTISEMENT_START_STOP event. The following events are 
 713:Generated_Source\PSoC4/BLE_1.c ****     *  possible on invoking this function:
 714:Generated_Source\PSoC4/BLE_1.c ****     *  
 715:Generated_Source\PSoC4/BLE_1.c ****     *  * CYBLE_EVT_GAP_DEVICE_CONNECTED - If the device connects to a GAP Central and 
 716:Generated_Source\PSoC4/BLE_1.c ****     *    Link Layer Privacy is disabled in component customizer.
 717:Generated_Source\PSoC4/BLE_1.c ****     *  * CYBLE_EVT_GAP_ENHANCE_CONN_COMPLETE - If the device connects to a GAP Central and 
 718:Generated_Source\PSoC4/BLE_1.c ****     *    Link Layer Privacy is enabled in component customizer.
 719:Generated_Source\PSoC4/BLE_1.c ****     *  * CYBLE_EVT_TIMEOUT: If no device in GAP Central mode connects to this 
 720:Generated_Source\PSoC4/BLE_1.c ****     *                       device within the specified timeout limit. Stack 
 721:Generated_Source\PSoC4/BLE_1.c ****     *                       automatically initiate stop advertising when Slow 
 722:Generated_Source\PSoC4/BLE_1.c ****     *                       advertising was initiated, or starts Slow advertising
 723:Generated_Source\PSoC4/BLE_1.c ****     *                       after Fast advertising timeout occur.
 724:Generated_Source\PSoC4/BLE_1.c ****     *  * CYBLE_EVT_GAPP_ADVERTISEMENT_START_STOP: If device started or stopped
 725:Generated_Source\PSoC4/BLE_1.c ****     *                                               advertising. Use CyBle_GetState()
 726:Generated_Source\PSoC4/BLE_1.c ****     *                                               to determine the state. Sequential 
 727:Generated_Source\PSoC4/BLE_1.c ****     *                                               advertising could be started when
 728:Generated_Source\PSoC4/BLE_1.c ****     *                                               CYBLE_STATE_DISCONNECTED state is
 729:Generated_Source\PSoC4/BLE_1.c ****     *                                               returned.
 730:Generated_Source\PSoC4/BLE_1.c ****     * 
 731:Generated_Source\PSoC4/BLE_1.c ****     *  \param advertisingIntervalType: Fast or slow advertising interval with timings
 732:Generated_Source\PSoC4/BLE_1.c ****     *                                 entered in Advertising settings section of the
 733:Generated_Source\PSoC4/BLE_1.c ****     *                                 customizer.
 734:Generated_Source\PSoC4/BLE_1.c ****     *  * CYBLE_ADVERTISING_FAST   0x00u
 735:Generated_Source\PSoC4/BLE_1.c ****     *  * CYBLE_ADVERTISING_SLOW   0x01u
 736:Generated_Source\PSoC4/BLE_1.c ****     *  * CYBLE_ADVERTISING_CUSTOM 0x02u
 737:Generated_Source\PSoC4/BLE_1.c ****     * 
 738:Generated_Source\PSoC4/BLE_1.c ****     * \return
 739:Generated_Source\PSoC4/BLE_1.c ****     *  CYBLE_API_RESULT_T : Return value indicates if the function succeeded or
 740:Generated_Source\PSoC4/BLE_1.c ****     *  failed. Following are the possible error codes.
 741:Generated_Source\PSoC4/BLE_1.c ****     * 
 742:Generated_Source\PSoC4/BLE_1.c ****     *   Errors codes                      |  Description
 743:Generated_Source\PSoC4/BLE_1.c ****     *   --------------------------------- |  --------------------------------
 744:Generated_Source\PSoC4/BLE_1.c ****     *   CYBLE_ERROR_OK                    |  On successful operation.
 745:Generated_Source\PSoC4/BLE_1.c ****     *   CYBLE_ERROR_INVALID_PARAMETER     |  On passing an invalid parameter.
 746:Generated_Source\PSoC4/BLE_1.c ****     *   CYBLE_ERROR_INVALID_STATE         |  On calling this API not in Disconnected state.
 747:Generated_Source\PSoC4/BLE_1.c ****     *
 748:Generated_Source\PSoC4/BLE_1.c ****     * 
 749:Generated_Source\PSoC4/BLE_1.c ****     *******************************************************************************/
 750:Generated_Source\PSoC4/BLE_1.c ****     CYBLE_API_RESULT_T CyBle_GappStartAdvertisement(uint8 advertisingIntervalType)
 751:Generated_Source\PSoC4/BLE_1.c ****     {
 752:Generated_Source\PSoC4/BLE_1.c ****         CYBLE_API_RESULT_T apiResult;
 753:Generated_Source\PSoC4/BLE_1.c ****         
 754:Generated_Source\PSoC4/BLE_1.c ****         if(advertisingIntervalType > CYBLE_ADVERTISING_CUSTOM)
 755:Generated_Source\PSoC4/BLE_1.c ****         {
 756:Generated_Source\PSoC4/BLE_1.c ****             apiResult = CYBLE_ERROR_INVALID_PARAMETER;
 757:Generated_Source\PSoC4/BLE_1.c ****         }
 758:Generated_Source\PSoC4/BLE_1.c ****         else if((CYBLE_STATE_DISCONNECTED == CyBle_GetState()) && ((cyBle_eventHandlerFlag & CYBLE_
ARM GAS  C:\Users\Petro\AppData\Local\Temp\ccfEn9K1.s 			page 30


 759:Generated_Source\PSoC4/BLE_1.c ****         {   
 760:Generated_Source\PSoC4/BLE_1.c ****             if(advertisingIntervalType == CYBLE_ADVERTISING_FAST)
 761:Generated_Source\PSoC4/BLE_1.c ****             {
 762:Generated_Source\PSoC4/BLE_1.c ****                 cyBle_discoveryModeInfo.advTo = CYBLE_FAST_ADV_TIMEOUT;
 763:Generated_Source\PSoC4/BLE_1.c ****                 cyBle_discoveryModeInfo.advParam->advIntvMin = CYBLE_FAST_ADV_INT_MIN;
 764:Generated_Source\PSoC4/BLE_1.c ****                 cyBle_discoveryModeInfo.advParam->advIntvMax = CYBLE_FAST_ADV_INT_MAX;
 765:Generated_Source\PSoC4/BLE_1.c ****             }
 766:Generated_Source\PSoC4/BLE_1.c ****             else if(advertisingIntervalType == CYBLE_ADVERTISING_SLOW)
 767:Generated_Source\PSoC4/BLE_1.c ****             {
 768:Generated_Source\PSoC4/BLE_1.c ****                 cyBle_discoveryModeInfo.advTo = CYBLE_SLOW_ADV_TIMEOUT;
 769:Generated_Source\PSoC4/BLE_1.c ****                 cyBle_discoveryModeInfo.advParam->advIntvMin = CYBLE_SLOW_ADV_INT_MIN;
 770:Generated_Source\PSoC4/BLE_1.c ****                 cyBle_discoveryModeInfo.advParam->advIntvMax = CYBLE_SLOW_ADV_INT_MAX;
 771:Generated_Source\PSoC4/BLE_1.c ****             }       
 772:Generated_Source\PSoC4/BLE_1.c ****             else /* Do not update advertising intervals */
 773:Generated_Source\PSoC4/BLE_1.c ****             {
 774:Generated_Source\PSoC4/BLE_1.c ****             }
 775:Generated_Source\PSoC4/BLE_1.c ****             cyBle_advertisingIntervalType = advertisingIntervalType;
 776:Generated_Source\PSoC4/BLE_1.c ****             apiResult = CyBle_GappEnterDiscoveryMode(&cyBle_discoveryModeInfo);
 777:Generated_Source\PSoC4/BLE_1.c ****         
 778:Generated_Source\PSoC4/BLE_1.c ****             if(apiResult == CYBLE_ERROR_OK)
 779:Generated_Source\PSoC4/BLE_1.c ****             {
 780:Generated_Source\PSoC4/BLE_1.c ****                 cyBle_eventHandlerFlag |= CYBLE_START_FLAG;
 781:Generated_Source\PSoC4/BLE_1.c ****             }
 782:Generated_Source\PSoC4/BLE_1.c ****         }
 783:Generated_Source\PSoC4/BLE_1.c ****         else
 784:Generated_Source\PSoC4/BLE_1.c ****         {
 785:Generated_Source\PSoC4/BLE_1.c ****             apiResult = CYBLE_ERROR_INVALID_STATE;
 786:Generated_Source\PSoC4/BLE_1.c ****         }
 787:Generated_Source\PSoC4/BLE_1.c **** 
 788:Generated_Source\PSoC4/BLE_1.c ****         return (apiResult);
 789:Generated_Source\PSoC4/BLE_1.c ****     }
 790:Generated_Source\PSoC4/BLE_1.c **** 
 791:Generated_Source\PSoC4/BLE_1.c ****     
 792:Generated_Source\PSoC4/BLE_1.c ****     /******************************************************************************
 793:Generated_Source\PSoC4/BLE_1.c ****     * Function Name: CyBle_GappStopAdvertisement
 794:Generated_Source\PSoC4/BLE_1.c ****     ***************************************************************************//**
 795:Generated_Source\PSoC4/BLE_1.c ****     * 
 796:Generated_Source\PSoC4/BLE_1.c ****     *   This function can be used to exit from discovery mode. After the execution 
 797:Generated_Source\PSoC4/BLE_1.c ****     *   of this function, there will no longer be any advertisements. On stopping 
 798:Generated_Source\PSoC4/BLE_1.c ****     *   advertising, GAP Peripheral receives CYBLE_EVT_GAPP_ADVERTISEMENT_START_STOP
 799:Generated_Source\PSoC4/BLE_1.c ****     *   event. It is expected that the application layer tracks the function call 
 800:Generated_Source\PSoC4/BLE_1.c ****     *   performed before occurrence of this event as this event can occur on making 
 801:Generated_Source\PSoC4/BLE_1.c ****     *   a call to Cy_BleGappStartAdvertisement(), CyBle_GappEnterDiscoveryMode(), 
 802:Generated_Source\PSoC4/BLE_1.c ****     *   or CyBle_GappStartAdvertisement() functions as well.
 803:Generated_Source\PSoC4/BLE_1.c ****     *   
 804:Generated_Source\PSoC4/BLE_1.c ****     *   The following event occurs on invoking this function:
 805:Generated_Source\PSoC4/BLE_1.c ****     *   * CYBLE_EVT_GAPP_ADVERTISEMENT_START_STOP
 806:Generated_Source\PSoC4/BLE_1.c ****     * 
 807:Generated_Source\PSoC4/BLE_1.c ****     *  \return
 808:Generated_Source\PSoC4/BLE_1.c ****     *   None
 809:Generated_Source\PSoC4/BLE_1.c ****     * 
 810:Generated_Source\PSoC4/BLE_1.c ****     *******************************************************************************/
 811:Generated_Source\PSoC4/BLE_1.c ****     void CyBle_GappStopAdvertisement(void)
 812:Generated_Source\PSoC4/BLE_1.c ****     {
 813:Generated_Source\PSoC4/BLE_1.c ****         CyBle_GappExitDiscoveryMode();
 814:Generated_Source\PSoC4/BLE_1.c ****         cyBle_eventHandlerFlag |= CYBLE_STOP_FLAG;
 815:Generated_Source\PSoC4/BLE_1.c ****     }
ARM GAS  C:\Users\Petro\AppData\Local\Temp\ccfEn9K1.s 			page 31


 816:Generated_Source\PSoC4/BLE_1.c ****     
 817:Generated_Source\PSoC4/BLE_1.c ****     
 818:Generated_Source\PSoC4/BLE_1.c ****     /******************************************************************************
 819:Generated_Source\PSoC4/BLE_1.c ****     * Function Name: CyBle_ChangeAdDeviceAddress
 820:Generated_Source\PSoC4/BLE_1.c ****     ***************************************************************************//**
 821:Generated_Source\PSoC4/BLE_1.c ****     * 
 822:Generated_Source\PSoC4/BLE_1.c ****     *  This API is used to set the Bluetooth device address into the advertisement 
 823:Generated_Source\PSoC4/BLE_1.c ****     *  or scan response data structure.
 824:Generated_Source\PSoC4/BLE_1.c ****     * 
 825:Generated_Source\PSoC4/BLE_1.c ****     *  \param bdAddr: Bluetooth Device address. The variable is of type CYBLE_GAP_BD_ADDR_T
 826:Generated_Source\PSoC4/BLE_1.c ****     *  \param dest: 0 - selects advertisement structure, not zero value selects scan 
 827:Generated_Source\PSoC4/BLE_1.c ****     *               response structure.
 828:Generated_Source\PSoC4/BLE_1.c ****     * 
 829:Generated_Source\PSoC4/BLE_1.c ****     * \return
 830:Generated_Source\PSoC4/BLE_1.c ****     *  None
 831:Generated_Source\PSoC4/BLE_1.c ****     *  
 832:Generated_Source\PSoC4/BLE_1.c ****     *******************************************************************************/
 833:Generated_Source\PSoC4/BLE_1.c ****     void CyBle_ChangeAdDeviceAddress(const CYBLE_GAP_BD_ADDR_T* bdAddr, uint8 dest)
 834:Generated_Source\PSoC4/BLE_1.c ****     {
 835:Generated_Source\PSoC4/BLE_1.c ****         uint8 i;
 836:Generated_Source\PSoC4/BLE_1.c ****         uint8 *destBuffer = NULL;
 837:Generated_Source\PSoC4/BLE_1.c ****         
 838:Generated_Source\PSoC4/BLE_1.c ****         if(dest == 0u)      /* Destination - advertising structure */
 839:Generated_Source\PSoC4/BLE_1.c ****         {
 840:Generated_Source\PSoC4/BLE_1.c ****             #ifdef CYBLE_ADV_PKT_INDEX_BLUETOOTH_DEVICE_ADDRESS
 841:Generated_Source\PSoC4/BLE_1.c ****                 destBuffer = &cyBle_discoveryData.advData[CYBLE_ADV_PKT_INDEX_BLUETOOTH_DEVICE_ADDR
 842:Generated_Source\PSoC4/BLE_1.c ****             #endif /* CYBLE_ADV_PKT_INDEX_BLUETOOTH_DEVICE_ADDRESS */
 843:Generated_Source\PSoC4/BLE_1.c ****         }
 844:Generated_Source\PSoC4/BLE_1.c ****         else                /* Destination - scan response structure */
 845:Generated_Source\PSoC4/BLE_1.c ****         {
 846:Generated_Source\PSoC4/BLE_1.c ****             #ifdef CYBLE_SCN_PKT_INDEX_BLUETOOTH_DEVICE_ADDRESS
 847:Generated_Source\PSoC4/BLE_1.c ****                 destBuffer = &cyBle_scanRspData.scanRspData[CYBLE_SCN_PKT_INDEX_BLUETOOTH_DEVICE_AD
 848:Generated_Source\PSoC4/BLE_1.c ****             #endif /* CYBLE_SCN_PKT_INDEX_BLUETOOTH_DEVICE_ADDRESS */    
 849:Generated_Source\PSoC4/BLE_1.c ****         }
 850:Generated_Source\PSoC4/BLE_1.c ****         
 851:Generated_Source\PSoC4/BLE_1.c ****         if(destBuffer != NULL)
 852:Generated_Source\PSoC4/BLE_1.c ****         {
 853:Generated_Source\PSoC4/BLE_1.c ****             /* Update Device Address type */
 854:Generated_Source\PSoC4/BLE_1.c ****             destBuffer[0u] = bdAddr->type;
 855:Generated_Source\PSoC4/BLE_1.c ****             
 856:Generated_Source\PSoC4/BLE_1.c ****             for(i = 0u; i < CYBLE_GAP_BD_ADDR_SIZE; i++)
 857:Generated_Source\PSoC4/BLE_1.c ****             {
 858:Generated_Source\PSoC4/BLE_1.c ****                 destBuffer[i + 1u] = bdAddr->bdAddr[i];
 859:Generated_Source\PSoC4/BLE_1.c ****             }
 860:Generated_Source\PSoC4/BLE_1.c ****         }
 861:Generated_Source\PSoC4/BLE_1.c ****     }
 862:Generated_Source\PSoC4/BLE_1.c ****   
 863:Generated_Source\PSoC4/BLE_1.c **** #endif /* CYBLE_GAP_ROLE_PERIPHERAL || CYBLE_GAP_ROLE_BROADCASTER */
 864:Generated_Source\PSoC4/BLE_1.c **** 
 865:Generated_Source\PSoC4/BLE_1.c **** 
 866:Generated_Source\PSoC4/BLE_1.c **** #if(CYBLE_GAP_ROLE_CENTRAL || CYBLE_GAP_ROLE_OBSERVER)
 867:Generated_Source\PSoC4/BLE_1.c **** 
 868:Generated_Source\PSoC4/BLE_1.c ****     /******************************************************************************
 869:Generated_Source\PSoC4/BLE_1.c ****     * Function Name: CyBle_GapcStartScan
 870:Generated_Source\PSoC4/BLE_1.c ****     ***************************************************************************//**
 871:Generated_Source\PSoC4/BLE_1.c ****     * 
 872:Generated_Source\PSoC4/BLE_1.c ****     *   This function is used for discovering GAP peripheral devices that are 
ARM GAS  C:\Users\Petro\AppData\Local\Temp\ccfEn9K1.s 			page 32


 873:Generated_Source\PSoC4/BLE_1.c ****     *   available for connection. It performs the scanning routine using the 
 874:Generated_Source\PSoC4/BLE_1.c ****     *   parameters entered in the component's customizer.
 875:Generated_Source\PSoC4/BLE_1.c ****     *   
 876:Generated_Source\PSoC4/BLE_1.c ****     *   As soon as the discovery operation starts, CYBLE_EVT_GAPC_SCAN_START_STOP 
 877:Generated_Source\PSoC4/BLE_1.c ****     *   event is generated. The CYBLE_EVT_GAPC_SCAN_PROGRESS_RESULT event is 
 878:Generated_Source\PSoC4/BLE_1.c ****     *   generated when a GAP peripheral device is located. There are three discovery
 879:Generated_Source\PSoC4/BLE_1.c ****     *   procedures can be selected in the customizer's GUI:
 880:Generated_Source\PSoC4/BLE_1.c ****     *   
 881:Generated_Source\PSoC4/BLE_1.c ****     *   * Observation procedure: A device performing the observer role receives only
 882:Generated_Source\PSoC4/BLE_1.c ****     *                            advertisement data from devices irrespective of 
 883:Generated_Source\PSoC4/BLE_1.c ****     *                            their discoverable mode settings. Advertisement 
 884:Generated_Source\PSoC4/BLE_1.c ****     *                            data received is provided by the event,      
 885:Generated_Source\PSoC4/BLE_1.c ****     *                            CYBLE_EVT_GAPC_SCAN_PROGRESS_RESULT. This procedure
 886:Generated_Source\PSoC4/BLE_1.c ****     *                            requires the scanType sub parameter to be passive
 887:Generated_Source\PSoC4/BLE_1.c ****     *                            scanning. 
 888:Generated_Source\PSoC4/BLE_1.c ****     *   
 889:Generated_Source\PSoC4/BLE_1.c ****     *   * Limited Discovery procedure: A device performing the limited discovery
 890:Generated_Source\PSoC4/BLE_1.c ****     *                                  procedure receives advertisement data and 
 891:Generated_Source\PSoC4/BLE_1.c ****     *                                  scan# response data from devices in the 
 892:Generated_Source\PSoC4/BLE_1.c ****     *                                  limited discoverable mode only. Received data
 893:Generated_Source\PSoC4/BLE_1.c ****     *                                  is provided by the event, 
 894:Generated_Source\PSoC4/BLE_1.c ****     *                                  CYBLE_EVT_GAPC_SCAN_PROGRESS_RESULT. This 
 895:Generated_Source\PSoC4/BLE_1.c ****     *                                  procedure requires the scanType sub-parameter 
 896:Generated_Source\PSoC4/BLE_1.c ****     *                                  to be active scanning.
 897:Generated_Source\PSoC4/BLE_1.c ****     *   
 898:Generated_Source\PSoC4/BLE_1.c ****     *   * General Discovery procedure: A device performing the general discovery 
 899:Generated_Source\PSoC4/BLE_1.c ****     *                                  procedure receives the advertisement data and
 900:Generated_Source\PSoC4/BLE_1.c ****     *                                  scan response data from devices in both 
 901:Generated_Source\PSoC4/BLE_1.c ****     *                                  limited discoverable mode and the general 
 902:Generated_Source\PSoC4/BLE_1.c ****     *                                  discoverable mode. Received data is provided
 903:Generated_Source\PSoC4/BLE_1.c ****     *                                  by the event,
 904:Generated_Source\PSoC4/BLE_1.c ****     *                                  CYBLE_EVT_GAPC_SCAN_PROGRESS_RESULT. This 
 905:Generated_Source\PSoC4/BLE_1.c ****     *                                  procedure requires the scanType sub-parameter
 906:Generated_Source\PSoC4/BLE_1.c ****     *                                  to be active scanning.
 907:Generated_Source\PSoC4/BLE_1.c ****     *   
 908:Generated_Source\PSoC4/BLE_1.c ****     *   Every Advertisement / Scan response packet received results in a new event, 
 909:Generated_Source\PSoC4/BLE_1.c ****     *   CYBLE_EVT_GAPC_SCAN_PROGRESS_RESULT.
 910:Generated_Source\PSoC4/BLE_1.c ****     *   If 'scanTo' sub-parameter is a non-zero value, then upon commencement of 
 911:Generated_Source\PSoC4/BLE_1.c ****     *   discovery procedure and elapsed time = 'scanTo', CYBLE_EVT_TIMEOUT event
 912:Generated_Source\PSoC4/BLE_1.c ****     *   is generated with the event parameter indicating CYBLE_GAP_SCAN_TO.
 913:Generated_Source\PSoC4/BLE_1.c ****     *   Possible generated events are:
 914:Generated_Source\PSoC4/BLE_1.c ****     *   * CYBLE_EVT_GAPC_SCAN_START_STOP: If a device started or stopped scanning. 
 915:Generated_Source\PSoC4/BLE_1.c ****     *                                     Use CyBle_GetState() to determine the 
 916:Generated_Source\PSoC4/BLE_1.c ****     *                                     state. Sequential scanning could be 
 917:Generated_Source\PSoC4/BLE_1.c ****     *                                     started when CYBLE_STATE_DISCONNECTED 
 918:Generated_Source\PSoC4/BLE_1.c ****     *                                     state is returned. 
 919:Generated_Source\PSoC4/BLE_1.c ****     *   * CYBLE_EVT_GAPC_SCAN_PROGRESS_RESULT 
 920:Generated_Source\PSoC4/BLE_1.c ****     *   * CYBLE_EVT_TIMEOUT (CYBLE_GAP_SCAN_TO)
 921:Generated_Source\PSoC4/BLE_1.c ****     * 
 922:Generated_Source\PSoC4/BLE_1.c ****     *   \param scanningIntervalType:  Fast or slow scanning interval with
 923:Generated_Source\PSoC4/BLE_1.c ****     *       timings entered in Scan settings section of the customizer.
 924:Generated_Source\PSoC4/BLE_1.c ****     * 	  * CYBLE_SCANNING_FAST   0x00u
 925:Generated_Source\PSoC4/BLE_1.c ****     * 	  * CYBLE_SCANNING_SLOW   0x01u
 926:Generated_Source\PSoC4/BLE_1.c ****     * 	  * CYBLE_SCANNING_CUSTOM 0x02u
 927:Generated_Source\PSoC4/BLE_1.c ****     * 
 928:Generated_Source\PSoC4/BLE_1.c ****     * \return
 929:Generated_Source\PSoC4/BLE_1.c ****     *  CYBLE_API_RESULT_T : Return value indicates if the function succeeded or
ARM GAS  C:\Users\Petro\AppData\Local\Temp\ccfEn9K1.s 			page 33


 930:Generated_Source\PSoC4/BLE_1.c ****     *  failed. Following are the possible error codes.
 931:Generated_Source\PSoC4/BLE_1.c ****     *
 932:Generated_Source\PSoC4/BLE_1.c ****     *   Errors codes                       | Description
 933:Generated_Source\PSoC4/BLE_1.c ****     *   ---------------------------------- | -----------------------------------
 934:Generated_Source\PSoC4/BLE_1.c ****     *   CYBLE_ERROR_OK                     | On successful operation.
 935:Generated_Source\PSoC4/BLE_1.c ****     *   CYBLE_ERROR_STACK_INTERNAL         | An error occurred in the BLE stack.
 936:Generated_Source\PSoC4/BLE_1.c ****     *   CYBLE_ERROR_INVALID_PARAMETER      | On passing an invalid parameter.
 937:Generated_Source\PSoC4/BLE_1.c ****     *  
 938:Generated_Source\PSoC4/BLE_1.c ****     *******************************************************************************/
 939:Generated_Source\PSoC4/BLE_1.c ****     CYBLE_API_RESULT_T CyBle_GapcStartScan(uint8 scanningIntervalType)
 940:Generated_Source\PSoC4/BLE_1.c ****     {
 888              		.loc 1 940 0
 889              		.cfi_startproc
 890 0000 90B5     		push	{r4, r7, lr}
 891              		.cfi_def_cfa_offset 12
 892              		.cfi_offset 4, -12
 893              		.cfi_offset 7, -8
 894              		.cfi_offset 14, -4
 895 0002 85B0     		sub	sp, sp, #20
 896              		.cfi_def_cfa_offset 32
 897 0004 00AF     		add	r7, sp, #0
 898              		.cfi_def_cfa_register 7
 899 0006 021C     		mov	r2, r0
 900 0008 FB1D     		add	r3, r7, #7
 901 000a 1A70     		strb	r2, [r3]
 941:Generated_Source\PSoC4/BLE_1.c ****         CYBLE_API_RESULT_T apiResult;
 942:Generated_Source\PSoC4/BLE_1.c **** 
 943:Generated_Source\PSoC4/BLE_1.c ****         if(scanningIntervalType > CYBLE_SCANNING_CUSTOM)
 902              		.loc 1 943 0
 903 000c FB1D     		add	r3, r7, #7
 904 000e 1B78     		ldrb	r3, [r3]
 905 0010 022B     		cmp	r3, #2
 906 0012 04D9     		bls	.L39
 944:Generated_Source\PSoC4/BLE_1.c ****         {
 945:Generated_Source\PSoC4/BLE_1.c ****             apiResult = CYBLE_ERROR_INVALID_PARAMETER;
 907              		.loc 1 945 0
 908 0014 0E23     		mov	r3, #14
 909 0016 FB18     		add	r3, r7, r3
 910 0018 0122     		mov	r2, #1
 911 001a 1A80     		strh	r2, [r3]
 912 001c 35E0     		b	.L40
 913              	.L39:
 946:Generated_Source\PSoC4/BLE_1.c ****         }
 947:Generated_Source\PSoC4/BLE_1.c ****         else
 948:Generated_Source\PSoC4/BLE_1.c ****         {
 949:Generated_Source\PSoC4/BLE_1.c ****             if(scanningIntervalType == CYBLE_SCANNING_FAST)
 914              		.loc 1 949 0
 915 001e FB1D     		add	r3, r7, #7
 916 0020 1B78     		ldrb	r3, [r3]
 917 0022 002B     		cmp	r3, #0
 918 0024 09D1     		bne	.L41
 950:Generated_Source\PSoC4/BLE_1.c ****             {
 951:Generated_Source\PSoC4/BLE_1.c ****                 cyBle_discoveryInfo.scanTo = CYBLE_FAST_SCAN_TIMEOUT;
 919              		.loc 1 951 0
 920 0026 1C4B     		ldr	r3, .L44
 921 0028 1E22     		mov	r2, #30
 922 002a 1A81     		strh	r2, [r3, #8]
ARM GAS  C:\Users\Petro\AppData\Local\Temp\ccfEn9K1.s 			page 34


 952:Generated_Source\PSoC4/BLE_1.c ****                 cyBle_discoveryInfo.scanIntv = CYBLE_FAST_SCAN_INTERVAL;
 923              		.loc 1 952 0
 924 002c 1A4B     		ldr	r3, .L44
 925 002e 3022     		mov	r2, #48
 926 0030 5A80     		strh	r2, [r3, #2]
 953:Generated_Source\PSoC4/BLE_1.c ****                 cyBle_discoveryInfo.scanWindow = CYBLE_FAST_SCAN_WINDOW;
 927              		.loc 1 953 0
 928 0032 194B     		ldr	r3, .L44
 929 0034 3022     		mov	r2, #48
 930 0036 9A80     		strh	r2, [r3, #4]
 931 0038 0EE0     		b	.L42
 932              	.L41:
 954:Generated_Source\PSoC4/BLE_1.c ****             }
 955:Generated_Source\PSoC4/BLE_1.c ****             else if(scanningIntervalType == CYBLE_SCANNING_SLOW)
 933              		.loc 1 955 0
 934 003a FB1D     		add	r3, r7, #7
 935 003c 1B78     		ldrb	r3, [r3]
 936 003e 012B     		cmp	r3, #1
 937 0040 0AD1     		bne	.L42
 956:Generated_Source\PSoC4/BLE_1.c ****             {
 957:Generated_Source\PSoC4/BLE_1.c ****                 cyBle_discoveryInfo.scanTo = CYBLE_SLOW_SCAN_TIMEOUT;
 938              		.loc 1 957 0
 939 0042 154B     		ldr	r3, .L44
 940 0044 9622     		mov	r2, #150
 941 0046 1A81     		strh	r2, [r3, #8]
 958:Generated_Source\PSoC4/BLE_1.c ****                 cyBle_discoveryInfo.scanIntv = CYBLE_SLOW_SCAN_INTERVAL;
 942              		.loc 1 958 0
 943 0048 134B     		ldr	r3, .L44
 944 004a 8022     		mov	r2, #128
 945 004c 1201     		lsl	r2, r2, #4
 946 004e 5A80     		strh	r2, [r3, #2]
 959:Generated_Source\PSoC4/BLE_1.c ****                 cyBle_discoveryInfo.scanWindow = CYBLE_SLOW_SCAN_WINDOW;
 947              		.loc 1 959 0
 948 0050 114B     		ldr	r3, .L44
 949 0052 E122     		mov	r2, #225
 950 0054 D200     		lsl	r2, r2, #3
 951 0056 9A80     		strh	r2, [r3, #4]
 952              	.L42:
 960:Generated_Source\PSoC4/BLE_1.c ****             }       
 961:Generated_Source\PSoC4/BLE_1.c ****             else /* Do not update scanning intervals */
 962:Generated_Source\PSoC4/BLE_1.c ****             {
 963:Generated_Source\PSoC4/BLE_1.c ****             }
 964:Generated_Source\PSoC4/BLE_1.c ****             
 965:Generated_Source\PSoC4/BLE_1.c ****             cyBle_scanningIntervalType = scanningIntervalType;
 953              		.loc 1 965 0
 954 0058 104B     		ldr	r3, .L44+4
 955 005a FA1D     		add	r2, r7, #7
 956 005c 1278     		ldrb	r2, [r2]
 957 005e 1A70     		strb	r2, [r3]
 966:Generated_Source\PSoC4/BLE_1.c ****             apiResult = CyBle_GapcStartDiscovery(&cyBle_discoveryInfo);
 958              		.loc 1 966 0
 959 0060 0E23     		mov	r3, #14
 960 0062 FC18     		add	r4, r7, r3
 961 0064 0C4B     		ldr	r3, .L44
 962 0066 181C     		mov	r0, r3
 963 0068 FFF7FEFF 		bl	CyBle_GapcStartDiscovery
 964 006c 031C     		mov	r3, r0
ARM GAS  C:\Users\Petro\AppData\Local\Temp\ccfEn9K1.s 			page 35


 965 006e 2380     		strh	r3, [r4]
 967:Generated_Source\PSoC4/BLE_1.c ****         
 968:Generated_Source\PSoC4/BLE_1.c ****             if(apiResult == CYBLE_ERROR_OK)
 966              		.loc 1 968 0
 967 0070 0E23     		mov	r3, #14
 968 0072 FB18     		add	r3, r7, r3
 969 0074 1B88     		ldrh	r3, [r3]
 970 0076 002B     		cmp	r3, #0
 971 0078 07D1     		bne	.L40
 969:Generated_Source\PSoC4/BLE_1.c ****             {
 970:Generated_Source\PSoC4/BLE_1.c ****                 cyBle_eventHandlerFlag |= CYBLE_START_FLAG;
 972              		.loc 1 970 0
 973 007a 094B     		ldr	r3, .L44+8
 974 007c 1B78     		ldrb	r3, [r3]
 975 007e DBB2     		uxtb	r3, r3
 976 0080 0422     		mov	r2, #4
 977 0082 1343     		orr	r3, r2
 978 0084 DAB2     		uxtb	r2, r3
 979 0086 064B     		ldr	r3, .L44+8
 980 0088 1A70     		strb	r2, [r3]
 981              	.L40:
 971:Generated_Source\PSoC4/BLE_1.c ****             }
 972:Generated_Source\PSoC4/BLE_1.c ****         }
 973:Generated_Source\PSoC4/BLE_1.c ****        
 974:Generated_Source\PSoC4/BLE_1.c ****         return (apiResult);
 982              		.loc 1 974 0
 983 008a 0E23     		mov	r3, #14
 984 008c FB18     		add	r3, r7, r3
 985 008e 1B88     		ldrh	r3, [r3]
 975:Generated_Source\PSoC4/BLE_1.c ****     }
 986              		.loc 1 975 0
 987 0090 181C     		mov	r0, r3
 988 0092 BD46     		mov	sp, r7
 989 0094 05B0     		add	sp, sp, #20
 990              		@ sp needed
 991 0096 90BD     		pop	{r4, r7, pc}
 992              	.L45:
 993              		.align	2
 994              	.L44:
 995 0098 00000000 		.word	cyBle_discoveryInfo
 996 009c 00000000 		.word	cyBle_scanningIntervalType
 997 00a0 00000000 		.word	cyBle_eventHandlerFlag
 998              		.cfi_endproc
 999              	.LFE8:
 1000              		.size	CyBle_GapcStartScan, .-CyBle_GapcStartScan
 1001              		.section	.text.CyBle_GapcStopScan,"ax",%progbits
 1002              		.align	2
 1003              		.global	CyBle_GapcStopScan
 1004              		.code	16
 1005              		.thumb_func
 1006              		.type	CyBle_GapcStopScan, %function
 1007              	CyBle_GapcStopScan:
 1008              	.LFB9:
 976:Generated_Source\PSoC4/BLE_1.c ****     
 977:Generated_Source\PSoC4/BLE_1.c ****     
 978:Generated_Source\PSoC4/BLE_1.c ****     /******************************************************************************
 979:Generated_Source\PSoC4/BLE_1.c ****     * Function Name: CyBle_GapcStopScan
ARM GAS  C:\Users\Petro\AppData\Local\Temp\ccfEn9K1.s 			page 36


 980:Generated_Source\PSoC4/BLE_1.c ****     ***************************************************************************//**
 981:Generated_Source\PSoC4/BLE_1.c ****     * 
 982:Generated_Source\PSoC4/BLE_1.c ****     *   This function used to stop the discovery of devices. On stopping discovery
 983:Generated_Source\PSoC4/BLE_1.c ****     *   operation, CYBLE_EVT_GAPC_SCAN_START_STOP event is generated. Application
 984:Generated_Source\PSoC4/BLE_1.c ****     *   layer needs to keep track of the function call made before receiving this
 985:Generated_Source\PSoC4/BLE_1.c ****     *   event to associate this event with either the start or stop discovery
 986:Generated_Source\PSoC4/BLE_1.c ****     *   function.
 987:Generated_Source\PSoC4/BLE_1.c ****     * 
 988:Generated_Source\PSoC4/BLE_1.c ****     *   Possible events generated are:
 989:Generated_Source\PSoC4/BLE_1.c ****     *    * CYBLE_EVT_GAPC_SCAN_START_STOP
 990:Generated_Source\PSoC4/BLE_1.c ****     * 
 991:Generated_Source\PSoC4/BLE_1.c ****     *  \return
 992:Generated_Source\PSoC4/BLE_1.c ****     *   None
 993:Generated_Source\PSoC4/BLE_1.c ****     * 
 994:Generated_Source\PSoC4/BLE_1.c ****     *******************************************************************************/
 995:Generated_Source\PSoC4/BLE_1.c ****     void CyBle_GapcStopScan(void)
 996:Generated_Source\PSoC4/BLE_1.c ****     {
 1009              		.loc 1 996 0
 1010              		.cfi_startproc
 1011 0000 80B5     		push	{r7, lr}
 1012              		.cfi_def_cfa_offset 8
 1013              		.cfi_offset 7, -8
 1014              		.cfi_offset 14, -4
 1015 0002 00AF     		add	r7, sp, #0
 1016              		.cfi_def_cfa_register 7
 997:Generated_Source\PSoC4/BLE_1.c ****         CyBle_GapcStopDiscovery();
 1017              		.loc 1 997 0
 1018 0004 FFF7FEFF 		bl	CyBle_GapcStopDiscovery
 998:Generated_Source\PSoC4/BLE_1.c ****         
 999:Generated_Source\PSoC4/BLE_1.c ****         cyBle_eventHandlerFlag |= CYBLE_STOP_FLAG;
 1019              		.loc 1 999 0
 1020 0008 044B     		ldr	r3, .L47
 1021 000a 1B78     		ldrb	r3, [r3]
 1022 000c DBB2     		uxtb	r3, r3
 1023 000e 0822     		mov	r2, #8
 1024 0010 1343     		orr	r3, r2
 1025 0012 DAB2     		uxtb	r2, r3
 1026 0014 014B     		ldr	r3, .L47
 1027 0016 1A70     		strb	r2, [r3]
1000:Generated_Source\PSoC4/BLE_1.c ****     }
 1028              		.loc 1 1000 0
 1029 0018 BD46     		mov	sp, r7
 1030              		@ sp needed
 1031 001a 80BD     		pop	{r7, pc}
 1032              	.L48:
 1033              		.align	2
 1034              	.L47:
 1035 001c 00000000 		.word	cyBle_eventHandlerFlag
 1036              		.cfi_endproc
 1037              	.LFE9:
 1038              		.size	CyBle_GapcStopScan, .-CyBle_GapcStopScan
 1039              		.section	.text.CyBle_GapcConnectDevice,"ax",%progbits
 1040              		.align	2
 1041              		.global	CyBle_GapcConnectDevice
 1042              		.code	16
 1043              		.thumb_func
 1044              		.type	CyBle_GapcConnectDevice, %function
ARM GAS  C:\Users\Petro\AppData\Local\Temp\ccfEn9K1.s 			page 37


 1045              	CyBle_GapcConnectDevice:
 1046              	.LFB10:
1001:Generated_Source\PSoC4/BLE_1.c **** 
1002:Generated_Source\PSoC4/BLE_1.c ****     
1003:Generated_Source\PSoC4/BLE_1.c **** #endif /* CYBLE_GAP_ROLE_CENTRAL || CYBLE_GAP_ROLE_OBSERVER */
1004:Generated_Source\PSoC4/BLE_1.c **** 
1005:Generated_Source\PSoC4/BLE_1.c **** 
1006:Generated_Source\PSoC4/BLE_1.c **** #if(CYBLE_GAP_ROLE_CENTRAL)
1007:Generated_Source\PSoC4/BLE_1.c **** 
1008:Generated_Source\PSoC4/BLE_1.c ****     /******************************************************************************
1009:Generated_Source\PSoC4/BLE_1.c ****     * Function Name: CyBle_GapcConnectDevice
1010:Generated_Source\PSoC4/BLE_1.c ****     ***************************************************************************//**
1011:Generated_Source\PSoC4/BLE_1.c ****     * 
1012:Generated_Source\PSoC4/BLE_1.c ****     *  This function is used to send a connection request to the remote device with
1013:Generated_Source\PSoC4/BLE_1.c ****     *  the connection parameters set in the component customizer. This function needs
1014:Generated_Source\PSoC4/BLE_1.c ****     *  to be called only once after the target device is discovered by 
1015:Generated_Source\PSoC4/BLE_1.c ****     *  CyBle_GapcStartScan() and further scanning has stopped. Scanning is 
1016:Generated_Source\PSoC4/BLE_1.c ****     *  successfully stopped on invoking CyBle_GapcStopScan() and then receiving the
1017:Generated_Source\PSoC4/BLE_1.c ****     *  event CYBLE_EVT_GAPC_SCAN_START_STOP with sub-parameter 'success' = 0x01u.
1018:Generated_Source\PSoC4/BLE_1.c ****     *  
1019:Generated_Source\PSoC4/BLE_1.c ****     *  On successful connection, the following events are generated at the GAP 
1020:Generated_Source\PSoC4/BLE_1.c ****     *  Central device (as well as the GAP Peripheral device), in the following order.
1021:Generated_Source\PSoC4/BLE_1.c ****     *  * CYBLE_EVT_GATT_CONNECT_IND
1022:Generated_Source\PSoC4/BLE_1.c ****     *  * CYBLE_EVT_GAP_DEVICE_CONNECTED - If the device connects to a GAP Central and 
1023:Generated_Source\PSoC4/BLE_1.c ****     *    Link Layer Privacy is disabled in component customizer.
1024:Generated_Source\PSoC4/BLE_1.c ****     *  * CYBLE_EVT_GAP_ENHANCE_CONN_COMPLETE - If the device connects to a GAP Central and 
1025:Generated_Source\PSoC4/BLE_1.c ****     *    Link Layer Privacy is enabled in component customizer.
1026:Generated_Source\PSoC4/BLE_1.c ****     *  * CYBLE_EVT_GAP_DEVICE_CONNECTED
1027:Generated_Source\PSoC4/BLE_1.c ****     *  
1028:Generated_Source\PSoC4/BLE_1.c ****     *  A procedure is considered to have timed out if a connection response packet is 
1029:Generated_Source\PSoC4/BLE_1.c ****     *  not received within time set by cyBle_connectingTimeout global variable
1030:Generated_Source\PSoC4/BLE_1.c ****     *  (30 seconds by default). CYBLE_EVT_TIMEOUT event with CYBLE_GENERIC_TO parameter
1031:Generated_Source\PSoC4/BLE_1.c ****     *  will indicate about connection procedure timeout. Connection will automatically
1032:Generated_Source\PSoC4/BLE_1.c ****     *  be canceled and state will be changed to CYBLE_STATE_DISCONNECTED.
1033:Generated_Source\PSoC4/BLE_1.c ****     * 
1034:Generated_Source\PSoC4/BLE_1.c ****     *  \param address: The device address of the remote device to connect to. 
1035:Generated_Source\PSoC4/BLE_1.c ****     *  
1036:Generated_Source\PSoC4/BLE_1.c ****     * \return
1037:Generated_Source\PSoC4/BLE_1.c ****     *  CYBLE_API_RESULT_T : Return value indicates if the function succeeded or 
1038:Generated_Source\PSoC4/BLE_1.c ****     *  failed. Following are the possible error codes.
1039:Generated_Source\PSoC4/BLE_1.c ****     *
1040:Generated_Source\PSoC4/BLE_1.c ****     *   Errors codes                       | Description
1041:Generated_Source\PSoC4/BLE_1.c ****     *   ------------                       | -----------
1042:Generated_Source\PSoC4/BLE_1.c ****     *   CYBLE_ERROR_OK                     | On successful operation.
1043:Generated_Source\PSoC4/BLE_1.c ****     *   CYBLE_ERROR_STACK_INTERNAL         | On error occurred in the BLE stack.
1044:Generated_Source\PSoC4/BLE_1.c ****     *   CYBLE_ERROR_INVALID_PARAMETER      | On passing an invalid parameter.
1045:Generated_Source\PSoC4/BLE_1.c ****     *   CYBLE_ERROR_INVALID_STATE          | On calling this API not in Disconnected state.
1046:Generated_Source\PSoC4/BLE_1.c ****     *  
1047:Generated_Source\PSoC4/BLE_1.c ****     ******************************************************************************/
1048:Generated_Source\PSoC4/BLE_1.c ****     CYBLE_API_RESULT_T CyBle_GapcConnectDevice(const CYBLE_GAP_BD_ADDR_T * address)
1049:Generated_Source\PSoC4/BLE_1.c ****     {
 1047              		.loc 1 1049 0
 1048              		.cfi_startproc
 1049 0000 90B5     		push	{r4, r7, lr}
 1050              		.cfi_def_cfa_offset 12
 1051              		.cfi_offset 4, -12
 1052              		.cfi_offset 7, -8
ARM GAS  C:\Users\Petro\AppData\Local\Temp\ccfEn9K1.s 			page 38


 1053              		.cfi_offset 14, -4
 1054 0002 85B0     		sub	sp, sp, #20
 1055              		.cfi_def_cfa_offset 32
 1056 0004 00AF     		add	r7, sp, #0
 1057              		.cfi_def_cfa_register 7
 1058 0006 7860     		str	r0, [r7, #4]
1050:Generated_Source\PSoC4/BLE_1.c ****         CYBLE_API_RESULT_T apiResult;
1051:Generated_Source\PSoC4/BLE_1.c ****         uint8 i;
1052:Generated_Source\PSoC4/BLE_1.c **** 
1053:Generated_Source\PSoC4/BLE_1.c ****         if(CyBle_GetState() != CYBLE_STATE_DISCONNECTED)
 1059              		.loc 1 1053 0
 1060 0008 294B     		ldr	r3, .L56
 1061 000a 1B78     		ldrb	r3, [r3]
 1062 000c 052B     		cmp	r3, #5
 1063 000e 05D0     		beq	.L50
1054:Generated_Source\PSoC4/BLE_1.c ****         {
1055:Generated_Source\PSoC4/BLE_1.c ****             apiResult = CYBLE_ERROR_INVALID_STATE;
 1064              		.loc 1 1055 0
 1065 0010 0E23     		mov	r3, #14
 1066 0012 FB18     		add	r3, r7, r3
 1067 0014 0422     		mov	r2, #4
 1068 0016 FF32     		add	r2, r2, #255
 1069 0018 1A80     		strh	r2, [r3]
 1070 001a 41E0     		b	.L51
 1071              	.L50:
1056:Generated_Source\PSoC4/BLE_1.c ****         }
1057:Generated_Source\PSoC4/BLE_1.c ****         else if(address == NULL)
 1072              		.loc 1 1057 0
 1073 001c 7B68     		ldr	r3, [r7, #4]
 1074 001e 002B     		cmp	r3, #0
 1075 0020 04D1     		bne	.L52
1058:Generated_Source\PSoC4/BLE_1.c ****         {
1059:Generated_Source\PSoC4/BLE_1.c ****             apiResult = CYBLE_ERROR_INVALID_PARAMETER;
 1076              		.loc 1 1059 0
 1077 0022 0E23     		mov	r3, #14
 1078 0024 FB18     		add	r3, r7, r3
 1079 0026 0122     		mov	r2, #1
 1080 0028 1A80     		strh	r2, [r3]
 1081 002a 39E0     		b	.L51
 1082              	.L52:
1060:Generated_Source\PSoC4/BLE_1.c ****         }
1061:Generated_Source\PSoC4/BLE_1.c ****         else
1062:Generated_Source\PSoC4/BLE_1.c ****         {
1063:Generated_Source\PSoC4/BLE_1.c ****             for(i = 0u; i < CYBLE_GAP_BD_ADDR_SIZE; i++)
 1083              		.loc 1 1063 0
 1084 002c 0D23     		mov	r3, #13
 1085 002e FB18     		add	r3, r7, r3
 1086 0030 0022     		mov	r2, #0
 1087 0032 1A70     		strb	r2, [r3]
 1088 0034 12E0     		b	.L53
 1089              	.L54:
1064:Generated_Source\PSoC4/BLE_1.c ****             {
1065:Generated_Source\PSoC4/BLE_1.c ****                 cyBle_connectionParameters.peerBdAddr[i] = address->bdAddr[i];
 1090              		.loc 1 1065 0 discriminator 3
 1091 0036 0D23     		mov	r3, #13
 1092 0038 FB18     		add	r3, r7, r3
 1093 003a 1B78     		ldrb	r3, [r3]
ARM GAS  C:\Users\Petro\AppData\Local\Temp\ccfEn9K1.s 			page 39


 1094 003c 0D22     		mov	r2, #13
 1095 003e BA18     		add	r2, r7, r2
 1096 0040 1278     		ldrb	r2, [r2]
 1097 0042 7968     		ldr	r1, [r7, #4]
 1098 0044 895C     		ldrb	r1, [r1, r2]
 1099 0046 1B4A     		ldr	r2, .L56+4
 1100 0048 D318     		add	r3, r2, r3
 1101 004a 0A1C     		add	r2, r1, #0
 1102 004c 5A71     		strb	r2, [r3, #5]
1063:Generated_Source\PSoC4/BLE_1.c ****             {
 1103              		.loc 1 1063 0 discriminator 3
 1104 004e 0D23     		mov	r3, #13
 1105 0050 FB18     		add	r3, r7, r3
 1106 0052 1A78     		ldrb	r2, [r3]
 1107 0054 0D23     		mov	r3, #13
 1108 0056 FB18     		add	r3, r7, r3
 1109 0058 0132     		add	r2, r2, #1
 1110 005a 1A70     		strb	r2, [r3]
 1111              	.L53:
1063:Generated_Source\PSoC4/BLE_1.c ****             {
 1112              		.loc 1 1063 0 is_stmt 0 discriminator 1
 1113 005c 0D23     		mov	r3, #13
 1114 005e FB18     		add	r3, r7, r3
 1115 0060 1B78     		ldrb	r3, [r3]
 1116 0062 052B     		cmp	r3, #5
 1117 0064 E7D9     		bls	.L54
1066:Generated_Source\PSoC4/BLE_1.c ****             }
1067:Generated_Source\PSoC4/BLE_1.c ****             cyBle_connectionParameters.peerAddrType = address -> type;
 1118              		.loc 1 1067 0 is_stmt 1
 1119 0066 7B68     		ldr	r3, [r7, #4]
 1120 0068 9A79     		ldrb	r2, [r3, #6]
 1121 006a 124B     		ldr	r3, .L56+4
 1122 006c DA72     		strb	r2, [r3, #11]
1068:Generated_Source\PSoC4/BLE_1.c ****             apiResult = CyBle_GapcInitConnection(&cyBle_connectionParameters);
 1123              		.loc 1 1068 0
 1124 006e 0E23     		mov	r3, #14
 1125 0070 FC18     		add	r4, r7, r3
 1126 0072 104B     		ldr	r3, .L56+4
 1127 0074 181C     		mov	r0, r3
 1128 0076 FFF7FEFF 		bl	CyBle_GapcInitConnection
 1129 007a 031C     		mov	r3, r0
 1130 007c 2380     		strh	r3, [r4]
1069:Generated_Source\PSoC4/BLE_1.c ****             
1070:Generated_Source\PSoC4/BLE_1.c ****             if(apiResult == CYBLE_ERROR_OK)
 1131              		.loc 1 1070 0
 1132 007e 0E23     		mov	r3, #14
 1133 0080 FB18     		add	r3, r7, r3
 1134 0082 1B88     		ldrh	r3, [r3]
 1135 0084 002B     		cmp	r3, #0
 1136 0086 0BD1     		bne	.L51
1071:Generated_Source\PSoC4/BLE_1.c ****             {
1072:Generated_Source\PSoC4/BLE_1.c ****                 CyBle_SetState(CYBLE_STATE_CONNECTING);
 1137              		.loc 1 1072 0
 1138 0088 094B     		ldr	r3, .L56
 1139 008a 0422     		mov	r2, #4
 1140 008c 1A70     		strb	r2, [r3]
1073:Generated_Source\PSoC4/BLE_1.c ****                 if(cyBle_connectingTimeout != 0u)
ARM GAS  C:\Users\Petro\AppData\Local\Temp\ccfEn9K1.s 			page 40


 1141              		.loc 1 1073 0
 1142 008e 0A4B     		ldr	r3, .L56+8
 1143 0090 1B88     		ldrh	r3, [r3]
 1144 0092 002B     		cmp	r3, #0
 1145 0094 04D0     		beq	.L51
1074:Generated_Source\PSoC4/BLE_1.c ****                 {
1075:Generated_Source\PSoC4/BLE_1.c ****                     (void)CyBle_StartTimer(cyBle_connectingTimeout);
 1146              		.loc 1 1075 0
 1147 0096 084B     		ldr	r3, .L56+8
 1148 0098 1B88     		ldrh	r3, [r3]
 1149 009a 181C     		mov	r0, r3
 1150 009c FFF7FEFF 		bl	CyBle_StartTimer
 1151              	.L51:
1076:Generated_Source\PSoC4/BLE_1.c ****                 }
1077:Generated_Source\PSoC4/BLE_1.c ****             }
1078:Generated_Source\PSoC4/BLE_1.c ****         }
1079:Generated_Source\PSoC4/BLE_1.c ****         return (apiResult);
 1152              		.loc 1 1079 0
 1153 00a0 0E23     		mov	r3, #14
 1154 00a2 FB18     		add	r3, r7, r3
 1155 00a4 1B88     		ldrh	r3, [r3]
1080:Generated_Source\PSoC4/BLE_1.c ****     }
 1156              		.loc 1 1080 0
 1157 00a6 181C     		mov	r0, r3
 1158 00a8 BD46     		mov	sp, r7
 1159 00aa 05B0     		add	sp, sp, #20
 1160              		@ sp needed
 1161 00ac 90BD     		pop	{r4, r7, pc}
 1162              	.L57:
 1163 00ae C046     		.align	2
 1164              	.L56:
 1165 00b0 00000000 		.word	cyBle_state
 1166 00b4 00000000 		.word	cyBle_connectionParameters
 1167 00b8 00000000 		.word	cyBle_connectingTimeout
 1168              		.cfi_endproc
 1169              	.LFE10:
 1170              		.size	CyBle_GapcConnectDevice, .-CyBle_GapcConnectDevice
 1171              		.section	.text.CyBle_GapcCancelDeviceConnection,"ax",%progbits
 1172              		.align	2
 1173              		.global	CyBle_GapcCancelDeviceConnection
 1174              		.code	16
 1175              		.thumb_func
 1176              		.type	CyBle_GapcCancelDeviceConnection, %function
 1177              	CyBle_GapcCancelDeviceConnection:
 1178              	.LFB11:
1081:Generated_Source\PSoC4/BLE_1.c ****     
1082:Generated_Source\PSoC4/BLE_1.c **** 
1083:Generated_Source\PSoC4/BLE_1.c ****     /******************************************************************************
1084:Generated_Source\PSoC4/BLE_1.c ****     * Function Name: CyBle_GapcCancelDeviceConnection
1085:Generated_Source\PSoC4/BLE_1.c ****     ***************************************************************************//**
1086:Generated_Source\PSoC4/BLE_1.c ****     * 
1087:Generated_Source\PSoC4/BLE_1.c ****     *  This function cancels a previously initiated connection with the remote 
1088:Generated_Source\PSoC4/BLE_1.c ****     *  device. It is a blocking function. No event is generated on calling this 
1089:Generated_Source\PSoC4/BLE_1.c ****     *  function. If the devices are already connected then this function should not
1090:Generated_Source\PSoC4/BLE_1.c ****     *  be used. If you intend to disconnect from an existing connection, the function
1091:Generated_Source\PSoC4/BLE_1.c ****     *  CyBle_GapDisconnect() should be used.
1092:Generated_Source\PSoC4/BLE_1.c ****     * 
ARM GAS  C:\Users\Petro\AppData\Local\Temp\ccfEn9K1.s 			page 41


1093:Generated_Source\PSoC4/BLE_1.c ****     * \return
1094:Generated_Source\PSoC4/BLE_1.c ****     *  CYBLE_API_RESULT_T : Return value indicates if the function succeeded or 
1095:Generated_Source\PSoC4/BLE_1.c ****     *  failed. Following are the possible error codes.
1096:Generated_Source\PSoC4/BLE_1.c ****     *
1097:Generated_Source\PSoC4/BLE_1.c ****     *   Errors codes                       | Description
1098:Generated_Source\PSoC4/BLE_1.c ****     *   ---------------------------------- | --------------------------------------
1099:Generated_Source\PSoC4/BLE_1.c ****     *   CYBLE_ERROR_OK                     | On successful operation.
1100:Generated_Source\PSoC4/BLE_1.c ****     *   CYBLE_ERROR_STACK_INTERNAL         | An error occurred in the BLE stack.
1101:Generated_Source\PSoC4/BLE_1.c ****     *   CYBLE_ERROR_INVALID_STATE          | On calling this API not in Connecting state.
1102:Generated_Source\PSoC4/BLE_1.c ****     *  
1103:Generated_Source\PSoC4/BLE_1.c ****     *******************************************************************************/
1104:Generated_Source\PSoC4/BLE_1.c ****     CYBLE_API_RESULT_T CyBle_GapcCancelDeviceConnection(void)
1105:Generated_Source\PSoC4/BLE_1.c ****     {
 1179              		.loc 1 1105 0
 1180              		.cfi_startproc
 1181 0000 90B5     		push	{r4, r7, lr}
 1182              		.cfi_def_cfa_offset 12
 1183              		.cfi_offset 4, -12
 1184              		.cfi_offset 7, -8
 1185              		.cfi_offset 14, -4
 1186 0002 83B0     		sub	sp, sp, #12
 1187              		.cfi_def_cfa_offset 24
 1188 0004 00AF     		add	r7, sp, #0
 1189              		.cfi_def_cfa_register 7
1106:Generated_Source\PSoC4/BLE_1.c ****         CYBLE_API_RESULT_T apiResult;
1107:Generated_Source\PSoC4/BLE_1.c ****         
1108:Generated_Source\PSoC4/BLE_1.c ****         if(CyBle_GetState() != CYBLE_STATE_CONNECTING)
 1190              		.loc 1 1108 0
 1191 0006 104B     		ldr	r3, .L63
 1192 0008 1B78     		ldrb	r3, [r3]
 1193 000a 042B     		cmp	r3, #4
 1194 000c 04D0     		beq	.L59
1109:Generated_Source\PSoC4/BLE_1.c ****         {
1110:Generated_Source\PSoC4/BLE_1.c ****             apiResult = CYBLE_ERROR_INVALID_STATE;
 1195              		.loc 1 1110 0
 1196 000e BB1D     		add	r3, r7, #6
 1197 0010 0422     		mov	r2, #4
 1198 0012 FF32     		add	r2, r2, #255
 1199 0014 1A80     		strh	r2, [r3]
 1200 0016 11E0     		b	.L60
 1201              	.L59:
1111:Generated_Source\PSoC4/BLE_1.c ****         }
1112:Generated_Source\PSoC4/BLE_1.c ****         else 
1113:Generated_Source\PSoC4/BLE_1.c ****         {
1114:Generated_Source\PSoC4/BLE_1.c ****             apiResult = CyBle_GapcCancelConnection();
 1202              		.loc 1 1114 0
 1203 0018 BC1D     		add	r4, r7, #6
 1204 001a FFF7FEFF 		bl	CyBle_GapcCancelConnection
 1205 001e 031C     		mov	r3, r0
 1206 0020 2380     		strh	r3, [r4]
1115:Generated_Source\PSoC4/BLE_1.c ****             
1116:Generated_Source\PSoC4/BLE_1.c ****             if(cyBle_connectingTimeout != 0u)
 1207              		.loc 1 1116 0
 1208 0022 0A4B     		ldr	r3, .L63+4
 1209 0024 1B88     		ldrh	r3, [r3]
 1210 0026 002B     		cmp	r3, #0
 1211 0028 01D0     		beq	.L61
ARM GAS  C:\Users\Petro\AppData\Local\Temp\ccfEn9K1.s 			page 42


1117:Generated_Source\PSoC4/BLE_1.c ****             {
1118:Generated_Source\PSoC4/BLE_1.c ****                 (void)CyBle_StopTimer();
 1212              		.loc 1 1118 0
 1213 002a FFF7FEFF 		bl	CyBle_StopTimer
 1214              	.L61:
1119:Generated_Source\PSoC4/BLE_1.c ****             }
1120:Generated_Source\PSoC4/BLE_1.c **** 
1121:Generated_Source\PSoC4/BLE_1.c ****             if(apiResult == CYBLE_ERROR_OK)
 1215              		.loc 1 1121 0
 1216 002e BB1D     		add	r3, r7, #6
 1217 0030 1B88     		ldrh	r3, [r3]
 1218 0032 002B     		cmp	r3, #0
 1219 0034 02D1     		bne	.L60
1122:Generated_Source\PSoC4/BLE_1.c ****             {
1123:Generated_Source\PSoC4/BLE_1.c ****                 CyBle_SetState(CYBLE_STATE_DISCONNECTED);
 1220              		.loc 1 1123 0
 1221 0036 044B     		ldr	r3, .L63
 1222 0038 0522     		mov	r2, #5
 1223 003a 1A70     		strb	r2, [r3]
 1224              	.L60:
1124:Generated_Source\PSoC4/BLE_1.c ****             }
1125:Generated_Source\PSoC4/BLE_1.c ****         }
1126:Generated_Source\PSoC4/BLE_1.c ****         return (apiResult);
 1225              		.loc 1 1126 0
 1226 003c BB1D     		add	r3, r7, #6
 1227 003e 1B88     		ldrh	r3, [r3]
1127:Generated_Source\PSoC4/BLE_1.c ****     }    
 1228              		.loc 1 1127 0
 1229 0040 181C     		mov	r0, r3
 1230 0042 BD46     		mov	sp, r7
 1231 0044 03B0     		add	sp, sp, #12
 1232              		@ sp needed
 1233 0046 90BD     		pop	{r4, r7, pc}
 1234              	.L64:
 1235              		.align	2
 1236              	.L63:
 1237 0048 00000000 		.word	cyBle_state
 1238 004c 00000000 		.word	cyBle_connectingTimeout
 1239              		.cfi_endproc
 1240              	.LFE11:
 1241              		.size	CyBle_GapcCancelDeviceConnection, .-CyBle_GapcCancelDeviceConnection
 1242              		.section	.text.CyBle_GapSetLocalName,"ax",%progbits
 1243              		.align	2
 1244              		.global	CyBle_GapSetLocalName
 1245              		.code	16
 1246              		.thumb_func
 1247              		.type	CyBle_GapSetLocalName, %function
 1248              	CyBle_GapSetLocalName:
 1249              	.LFB12:
1128:Generated_Source\PSoC4/BLE_1.c **** 
1129:Generated_Source\PSoC4/BLE_1.c ****     
1130:Generated_Source\PSoC4/BLE_1.c **** #endif /* CYBLE_GAP_ROLE_CENTRAL */
1131:Generated_Source\PSoC4/BLE_1.c **** 
1132:Generated_Source\PSoC4/BLE_1.c **** 
1133:Generated_Source\PSoC4/BLE_1.c **** #if(CYBLE_GATT_ROLE_SERVER)
1134:Generated_Source\PSoC4/BLE_1.c **** 
1135:Generated_Source\PSoC4/BLE_1.c **** #if(CYBLE_GAP_ROLE_PERIPHERAL)
ARM GAS  C:\Users\Petro\AppData\Local\Temp\ccfEn9K1.s 			page 43


1136:Generated_Source\PSoC4/BLE_1.c **** 
1137:Generated_Source\PSoC4/BLE_1.c ****         /******************************************************************************
1138:Generated_Source\PSoC4/BLE_1.c ****         * Function Name: CyBle_ChangeAdLocalName
1139:Generated_Source\PSoC4/BLE_1.c ****         ***************************************************************************//**
1140:Generated_Source\PSoC4/BLE_1.c ****         *  This API is used to set the local device name in the advertisement or scan 
1141:Generated_Source\PSoC4/BLE_1.c ****         *  response data structure.
1142:Generated_Source\PSoC4/BLE_1.c ****         * 
1143:Generated_Source\PSoC4/BLE_1.c ****         *  \param name: The local device name string to be set in advertisement data 
1144:Generated_Source\PSoC4/BLE_1.c ****         *            structure.
1145:Generated_Source\PSoC4/BLE_1.c ****         *  \param dest: 0 - advertisement structure, not zero value selects scan response
1146:Generated_Source\PSoC4/BLE_1.c ****         *              structure.
1147:Generated_Source\PSoC4/BLE_1.c ****         * 
1148:Generated_Source\PSoC4/BLE_1.c ****         * \return
1149:Generated_Source\PSoC4/BLE_1.c ****         *  None
1150:Generated_Source\PSoC4/BLE_1.c ****         *  
1151:Generated_Source\PSoC4/BLE_1.c ****         *******************************************************************************/
1152:Generated_Source\PSoC4/BLE_1.c ****         static void CyBle_ChangeAdLocalName(const char8 name[], uint8 dest)
1153:Generated_Source\PSoC4/BLE_1.c ****         {
1154:Generated_Source\PSoC4/BLE_1.c ****             uint8 i;
1155:Generated_Source\PSoC4/BLE_1.c ****             uint8 flag = 0u;
1156:Generated_Source\PSoC4/BLE_1.c ****             uint8 adLength = 0u;
1157:Generated_Source\PSoC4/BLE_1.c ****             uint8 byteCounter = 0u;
1158:Generated_Source\PSoC4/BLE_1.c ****             uint8 *destBuffer;
1159:Generated_Source\PSoC4/BLE_1.c ****             uint8 maxLength;
1160:Generated_Source\PSoC4/BLE_1.c ****             
1161:Generated_Source\PSoC4/BLE_1.c ****             if(dest == 0u)      /* Destination - advertising structure */
1162:Generated_Source\PSoC4/BLE_1.c ****             {
1163:Generated_Source\PSoC4/BLE_1.c ****                 destBuffer = cyBle_discoveryData.advData;
1164:Generated_Source\PSoC4/BLE_1.c ****                 maxLength = cyBle_discoveryData.advDataLen;
1165:Generated_Source\PSoC4/BLE_1.c ****             }
1166:Generated_Source\PSoC4/BLE_1.c ****             else                /* Destination - scan response structure */
1167:Generated_Source\PSoC4/BLE_1.c ****             {
1168:Generated_Source\PSoC4/BLE_1.c ****                 destBuffer = cyBle_scanRspData.scanRspData;
1169:Generated_Source\PSoC4/BLE_1.c ****                 maxLength = cyBle_scanRspData.scanRspDataLen;
1170:Generated_Source\PSoC4/BLE_1.c ****             }
1171:Generated_Source\PSoC4/BLE_1.c ****             
1172:Generated_Source\PSoC4/BLE_1.c ****             while((byteCounter < maxLength) && (flag == 0u))
1173:Generated_Source\PSoC4/BLE_1.c ****             {
1174:Generated_Source\PSoC4/BLE_1.c ****                 adLength = destBuffer[byteCounter];
1175:Generated_Source\PSoC4/BLE_1.c ****                 
1176:Generated_Source\PSoC4/BLE_1.c ****                 if(0u != adLength)
1177:Generated_Source\PSoC4/BLE_1.c ****                 {
1178:Generated_Source\PSoC4/BLE_1.c ****                     /* Increment byte counter so it can point to AD type */
1179:Generated_Source\PSoC4/BLE_1.c ****                     byteCounter++;
1180:Generated_Source\PSoC4/BLE_1.c ****                     
1181:Generated_Source\PSoC4/BLE_1.c ****                     if((destBuffer[byteCounter] == CYBLE_SHORT_LOCAL_NAME) || 
1182:Generated_Source\PSoC4/BLE_1.c ****                        (destBuffer[byteCounter] == CYBLE_COMPLETE_LOCAL_NAME))
1183:Generated_Source\PSoC4/BLE_1.c ****                     {
1184:Generated_Source\PSoC4/BLE_1.c ****                         /* Start of the Local Name AD type was fount. Set flag and exit the loop. *
1185:Generated_Source\PSoC4/BLE_1.c ****                         flag = 1u;
1186:Generated_Source\PSoC4/BLE_1.c ****                     }
1187:Generated_Source\PSoC4/BLE_1.c ****                     else
1188:Generated_Source\PSoC4/BLE_1.c ****                     {
1189:Generated_Source\PSoC4/BLE_1.c ****                         byteCounter += adLength;
1190:Generated_Source\PSoC4/BLE_1.c ****                     }
1191:Generated_Source\PSoC4/BLE_1.c ****                 }
1192:Generated_Source\PSoC4/BLE_1.c ****                 else
ARM GAS  C:\Users\Petro\AppData\Local\Temp\ccfEn9K1.s 			page 44


1193:Generated_Source\PSoC4/BLE_1.c ****                 {
1194:Generated_Source\PSoC4/BLE_1.c ****                     /* The end of advertisement data structure was encountered though exit the loop
1195:Generated_Source\PSoC4/BLE_1.c ****                     break;
1196:Generated_Source\PSoC4/BLE_1.c ****                 }
1197:Generated_Source\PSoC4/BLE_1.c ****             }
1198:Generated_Source\PSoC4/BLE_1.c ****             
1199:Generated_Source\PSoC4/BLE_1.c ****             if(0u != flag)
1200:Generated_Source\PSoC4/BLE_1.c ****             {
1201:Generated_Source\PSoC4/BLE_1.c ****                 /* Reuse "adLength" to hold location of the last character of local name in 
1202:Generated_Source\PSoC4/BLE_1.c ****                    AD structure. */
1203:Generated_Source\PSoC4/BLE_1.c ****                 adLength += byteCounter;
1204:Generated_Source\PSoC4/BLE_1.c ****                 
1205:Generated_Source\PSoC4/BLE_1.c ****                 /* Increment byte counter to point to start of the local Name string */
1206:Generated_Source\PSoC4/BLE_1.c ****                 byteCounter++;
1207:Generated_Source\PSoC4/BLE_1.c ****                 
1208:Generated_Source\PSoC4/BLE_1.c ****                 for(i = byteCounter; ((i < (adLength)) && (CYBLE_NULL_CHARCTER != name[i - byteCoun
1209:Generated_Source\PSoC4/BLE_1.c ****                 {
1210:Generated_Source\PSoC4/BLE_1.c ****                     destBuffer[i] = (uint8)name[i - byteCounter];
1211:Generated_Source\PSoC4/BLE_1.c ****                 }
1212:Generated_Source\PSoC4/BLE_1.c ****                 
1213:Generated_Source\PSoC4/BLE_1.c ****                 /* This loop handles the case when new local name is shorted than old one.
1214:Generated_Source\PSoC4/BLE_1.c ****                    In this case all remaining characters should be null characters. */
1215:Generated_Source\PSoC4/BLE_1.c ****                 while(adLength > i)
1216:Generated_Source\PSoC4/BLE_1.c ****                 {
1217:Generated_Source\PSoC4/BLE_1.c ****                     /* Terminate string */
1218:Generated_Source\PSoC4/BLE_1.c ****                     destBuffer[i] = (uint8)CYBLE_NULL_CHARCTER;
1219:Generated_Source\PSoC4/BLE_1.c ****                     i++;
1220:Generated_Source\PSoC4/BLE_1.c ****                 }
1221:Generated_Source\PSoC4/BLE_1.c ****             }
1222:Generated_Source\PSoC4/BLE_1.c ****         }
1223:Generated_Source\PSoC4/BLE_1.c ****         
1224:Generated_Source\PSoC4/BLE_1.c **** #endif /* (CYBLE_GAP_ROLE_PERIPHERAL) */  
1225:Generated_Source\PSoC4/BLE_1.c ****     
1226:Generated_Source\PSoC4/BLE_1.c ****     
1227:Generated_Source\PSoC4/BLE_1.c ****     /******************************************************************************
1228:Generated_Source\PSoC4/BLE_1.c ****     * Function Name: CyBle_GapSetLocalName
1229:Generated_Source\PSoC4/BLE_1.c ****     ***************************************************************************//**
1230:Generated_Source\PSoC4/BLE_1.c ****     *  This API is used to set the local device name - a Characteristic of the 
1231:Generated_Source\PSoC4/BLE_1.c ****     *  GAP Service. If the characteristic length entered in the component customizer
1232:Generated_Source\PSoC4/BLE_1.c ****     *  is shorter than the string specified by the "name" parameter, the local device
1233:Generated_Source\PSoC4/BLE_1.c ****     *  name will be cut to the length specified in the customizer.
1234:Generated_Source\PSoC4/BLE_1.c ****     * 
1235:Generated_Source\PSoC4/BLE_1.c ****     *  \param name: The local device name string. The name string to be written as
1236:Generated_Source\PSoC4/BLE_1.c ****     *              the local device name. It represents a UTF-8 encoded User
1237:Generated_Source\PSoC4/BLE_1.c ****     *              Friendly Descriptive Name for the device. The length of the local
1238:Generated_Source\PSoC4/BLE_1.c ****     *              device string is entered into the component customizer and it can
1239:Generated_Source\PSoC4/BLE_1.c ****     *              be set to a value from 0 to 248 bytes. If the name contained in
1240:Generated_Source\PSoC4/BLE_1.c ****     *              the parameter is shorter than the length from the customizer, the
1241:Generated_Source\PSoC4/BLE_1.c ****     *              end of the name is indicated by a NULL octet (0x00).
1242:Generated_Source\PSoC4/BLE_1.c ****     * 
1243:Generated_Source\PSoC4/BLE_1.c ****     * \return
1244:Generated_Source\PSoC4/BLE_1.c ****     *  CYBLE_API_RESULT_T : Return value indicates if the function succeeded or 
1245:Generated_Source\PSoC4/BLE_1.c ****     *  failed. Following are the possible error codes.
1246:Generated_Source\PSoC4/BLE_1.c ****     *
1247:Generated_Source\PSoC4/BLE_1.c ****     *   Errors codes                       | Description
1248:Generated_Source\PSoC4/BLE_1.c ****     *   ------------                       | -----------
1249:Generated_Source\PSoC4/BLE_1.c ****     *   CYBLE_ERROR_OK                     | Function completed successfully.
ARM GAS  C:\Users\Petro\AppData\Local\Temp\ccfEn9K1.s 			page 45


1250:Generated_Source\PSoC4/BLE_1.c ****     *   CYBLE_ERROR_INVALID_PARAMETER      | On specifying NULL as input parameter
1251:Generated_Source\PSoC4/BLE_1.c ****     *  
1252:Generated_Source\PSoC4/BLE_1.c ****     *******************************************************************************/
1253:Generated_Source\PSoC4/BLE_1.c ****     CYBLE_API_RESULT_T CyBle_GapSetLocalName(const char8 name[])
1254:Generated_Source\PSoC4/BLE_1.c ****     {
 1250              		.loc 1 1254 0
 1251              		.cfi_startproc
 1252 0000 80B5     		push	{r7, lr}
 1253              		.cfi_def_cfa_offset 8
 1254              		.cfi_offset 7, -8
 1255              		.cfi_offset 14, -4
 1256 0002 86B0     		sub	sp, sp, #24
 1257              		.cfi_def_cfa_offset 32
 1258 0004 00AF     		add	r7, sp, #0
 1259              		.cfi_def_cfa_register 7
 1260 0006 7860     		str	r0, [r7, #4]
1255:Generated_Source\PSoC4/BLE_1.c ****         CYBLE_API_RESULT_T apiResult = CYBLE_ERROR_OK;
 1261              		.loc 1 1255 0
 1262 0008 1623     		mov	r3, #22
 1263 000a FB18     		add	r3, r7, r3
 1264 000c 0022     		mov	r2, #0
 1265 000e 1A80     		strh	r2, [r3]
1256:Generated_Source\PSoC4/BLE_1.c ****         uint8 i;
1257:Generated_Source\PSoC4/BLE_1.c ****         char8 *ptr;
1258:Generated_Source\PSoC4/BLE_1.c ****         uint8 charLen;
1259:Generated_Source\PSoC4/BLE_1.c **** 
1260:Generated_Source\PSoC4/BLE_1.c ****         if(NULL != name)
 1266              		.loc 1 1260 0
 1267 0010 7B68     		ldr	r3, [r7, #4]
 1268 0012 002B     		cmp	r3, #0
 1269 0014 40D0     		beq	.L66
1261:Generated_Source\PSoC4/BLE_1.c ****         {
1262:Generated_Source\PSoC4/BLE_1.c ****             /* Get the pointer to the Device Name characteristic  */
1263:Generated_Source\PSoC4/BLE_1.c ****             ptr = (char8 *) CYBLE_GATT_DB_ATTR_GET_ATTR_GEN_PTR(CYBLE_GAP_DEVICE_NAME_INDEX + 1u);
 1270              		.loc 1 1263 0
 1271 0016 264B     		ldr	r3, .L73
 1272 0018 9B6B     		ldr	r3, [r3, #56]
 1273 001a 5B68     		ldr	r3, [r3, #4]
 1274 001c 3B61     		str	r3, [r7, #16]
1264:Generated_Source\PSoC4/BLE_1.c **** 
1265:Generated_Source\PSoC4/BLE_1.c ****             /* First need to get the maximum length of the characteristic data in the GATT
1266:Generated_Source\PSoC4/BLE_1.c ****                 database to make sure there is enough place for the data. The length
1267:Generated_Source\PSoC4/BLE_1.c ****                 can't be longer than 248, so only the LSB of 16 bit of length is to
1268:Generated_Source\PSoC4/BLE_1.c ****                 be used. */
1269:Generated_Source\PSoC4/BLE_1.c ****             charLen = (uint8)CYBLE_GATT_DB_ATTR_GET_ATTR_GEN_MAX_LEN(CYBLE_GAP_DEVICE_NAME_INDEX + 
 1275              		.loc 1 1269 0
 1276 001e 244B     		ldr	r3, .L73
 1277 0020 9A8E     		ldrh	r2, [r3, #52]
 1278 0022 0F23     		mov	r3, #15
 1279 0024 FB18     		add	r3, r7, r3
 1280 0026 1A70     		strb	r2, [r3]
1270:Generated_Source\PSoC4/BLE_1.c **** 
1271:Generated_Source\PSoC4/BLE_1.c ****             /* Copy name into characteristic */
1272:Generated_Source\PSoC4/BLE_1.c ****             for(i = 0u; ((i < charLen) && (CYBLE_NULL_CHARCTER != name[i])); i++)
 1281              		.loc 1 1272 0
 1282 0028 1523     		mov	r3, #21
 1283 002a FB18     		add	r3, r7, r3
ARM GAS  C:\Users\Petro\AppData\Local\Temp\ccfEn9K1.s 			page 46


 1284 002c 0022     		mov	r2, #0
 1285 002e 1A70     		strb	r2, [r3]
 1286 0030 12E0     		b	.L67
 1287              	.L69:
1273:Generated_Source\PSoC4/BLE_1.c ****             {
1274:Generated_Source\PSoC4/BLE_1.c ****                 ptr[i] = name[i];
 1288              		.loc 1 1274 0 discriminator 4
 1289 0032 1523     		mov	r3, #21
 1290 0034 FB18     		add	r3, r7, r3
 1291 0036 1B78     		ldrb	r3, [r3]
 1292 0038 3A69     		ldr	r2, [r7, #16]
 1293 003a D318     		add	r3, r2, r3
 1294 003c 1522     		mov	r2, #21
 1295 003e BA18     		add	r2, r7, r2
 1296 0040 1278     		ldrb	r2, [r2]
 1297 0042 7968     		ldr	r1, [r7, #4]
 1298 0044 8A18     		add	r2, r1, r2
 1299 0046 1278     		ldrb	r2, [r2]
 1300 0048 1A70     		strb	r2, [r3]
1272:Generated_Source\PSoC4/BLE_1.c ****             {
 1301              		.loc 1 1272 0 discriminator 4
 1302 004a 1523     		mov	r3, #21
 1303 004c FB18     		add	r3, r7, r3
 1304 004e 1A78     		ldrb	r2, [r3]
 1305 0050 1523     		mov	r3, #21
 1306 0052 FB18     		add	r3, r7, r3
 1307 0054 0132     		add	r2, r2, #1
 1308 0056 1A70     		strb	r2, [r3]
 1309              	.L67:
1272:Generated_Source\PSoC4/BLE_1.c ****             {
 1310              		.loc 1 1272 0 is_stmt 0 discriminator 1
 1311 0058 1523     		mov	r3, #21
 1312 005a FA18     		add	r2, r7, r3
 1313 005c 0F23     		mov	r3, #15
 1314 005e FB18     		add	r3, r7, r3
 1315 0060 1278     		ldrb	r2, [r2]
 1316 0062 1B78     		ldrb	r3, [r3]
 1317 0064 9A42     		cmp	r2, r3
 1318 0066 07D2     		bcs	.L68
1272:Generated_Source\PSoC4/BLE_1.c ****             {
 1319              		.loc 1 1272 0 discriminator 3
 1320 0068 1523     		mov	r3, #21
 1321 006a FB18     		add	r3, r7, r3
 1322 006c 1B78     		ldrb	r3, [r3]
 1323 006e 7A68     		ldr	r2, [r7, #4]
 1324 0070 D318     		add	r3, r2, r3
 1325 0072 1B78     		ldrb	r3, [r3]
 1326 0074 002B     		cmp	r3, #0
 1327 0076 DCD1     		bne	.L69
 1328              	.L68:
1275:Generated_Source\PSoC4/BLE_1.c ****             }
1276:Generated_Source\PSoC4/BLE_1.c **** 
1277:Generated_Source\PSoC4/BLE_1.c ****             if(i < charLen)
 1329              		.loc 1 1277 0 is_stmt 1
 1330 0078 1523     		mov	r3, #21
 1331 007a FA18     		add	r2, r7, r3
 1332 007c 0F23     		mov	r3, #15
ARM GAS  C:\Users\Petro\AppData\Local\Temp\ccfEn9K1.s 			page 47


 1333 007e FB18     		add	r3, r7, r3
 1334 0080 1278     		ldrb	r2, [r2]
 1335 0082 1B78     		ldrb	r3, [r3]
 1336 0084 9A42     		cmp	r2, r3
 1337 0086 0BD2     		bcs	.L71
1278:Generated_Source\PSoC4/BLE_1.c ****             {
1279:Generated_Source\PSoC4/BLE_1.c ****                 /* Terminate string */
1280:Generated_Source\PSoC4/BLE_1.c ****                 ptr[i] = CYBLE_NULL_CHARCTER;
 1338              		.loc 1 1280 0
 1339 0088 1523     		mov	r3, #21
 1340 008a FB18     		add	r3, r7, r3
 1341 008c 1B78     		ldrb	r3, [r3]
 1342 008e 3A69     		ldr	r2, [r7, #16]
 1343 0090 D318     		add	r3, r2, r3
 1344 0092 0022     		mov	r2, #0
 1345 0094 1A70     		strb	r2, [r3]
 1346 0096 03E0     		b	.L71
 1347              	.L66:
1281:Generated_Source\PSoC4/BLE_1.c ****             }
1282:Generated_Source\PSoC4/BLE_1.c ****             
1283:Generated_Source\PSoC4/BLE_1.c ****             /* Set new actual length */
1284:Generated_Source\PSoC4/BLE_1.c ****             
1285:Generated_Source\PSoC4/BLE_1.c ****             /* Update device name in advertising and scan response structure */
1286:Generated_Source\PSoC4/BLE_1.c ****             #if(CYBLE_GAP_ROLE_PERIPHERAL)
1287:Generated_Source\PSoC4/BLE_1.c ****                 CyBle_ChangeAdLocalName(name, 0u);
1288:Generated_Source\PSoC4/BLE_1.c ****                 CyBle_ChangeAdLocalName(name, 1u);
1289:Generated_Source\PSoC4/BLE_1.c ****             #endif /* (CYBLE_GAP_ROLE_PERIPHERAL) */
1290:Generated_Source\PSoC4/BLE_1.c ****         }
1291:Generated_Source\PSoC4/BLE_1.c ****         else
1292:Generated_Source\PSoC4/BLE_1.c ****         {
1293:Generated_Source\PSoC4/BLE_1.c ****             apiResult = CYBLE_ERROR_INVALID_PARAMETER;
 1348              		.loc 1 1293 0
 1349 0098 1623     		mov	r3, #22
 1350 009a FB18     		add	r3, r7, r3
 1351 009c 0122     		mov	r2, #1
 1352 009e 1A80     		strh	r2, [r3]
 1353              	.L71:
1294:Generated_Source\PSoC4/BLE_1.c ****         }
1295:Generated_Source\PSoC4/BLE_1.c ****         
1296:Generated_Source\PSoC4/BLE_1.c ****         return(apiResult);
 1354              		.loc 1 1296 0
 1355 00a0 1623     		mov	r3, #22
 1356 00a2 FB18     		add	r3, r7, r3
 1357 00a4 1B88     		ldrh	r3, [r3]
1297:Generated_Source\PSoC4/BLE_1.c ****     }
 1358              		.loc 1 1297 0
 1359 00a6 181C     		mov	r0, r3
 1360 00a8 BD46     		mov	sp, r7
 1361 00aa 06B0     		add	sp, sp, #24
 1362              		@ sp needed
 1363 00ac 80BD     		pop	{r7, pc}
 1364              	.L74:
 1365 00ae C046     		.align	2
 1366              	.L73:
 1367 00b0 00000000 		.word	cyBle_gattDB
 1368              		.cfi_endproc
 1369              	.LFE12:
ARM GAS  C:\Users\Petro\AppData\Local\Temp\ccfEn9K1.s 			page 48


 1370              		.size	CyBle_GapSetLocalName, .-CyBle_GapSetLocalName
 1371              		.section	.text.CyBle_GapGetLocalName,"ax",%progbits
 1372              		.align	2
 1373              		.global	CyBle_GapGetLocalName
 1374              		.code	16
 1375              		.thumb_func
 1376              		.type	CyBle_GapGetLocalName, %function
 1377              	CyBle_GapGetLocalName:
 1378              	.LFB13:
1298:Generated_Source\PSoC4/BLE_1.c **** 
1299:Generated_Source\PSoC4/BLE_1.c **** 
1300:Generated_Source\PSoC4/BLE_1.c ****     /******************************************************************************
1301:Generated_Source\PSoC4/BLE_1.c ****     * Function Name: CyBle_GapGetLocalName
1302:Generated_Source\PSoC4/BLE_1.c ****     ***************************************************************************//**
1303:Generated_Source\PSoC4/BLE_1.c ****     *  
1304:Generated_Source\PSoC4/BLE_1.c ****     *  This API is used to read the local device name - a Characteristic of the 
1305:Generated_Source\PSoC4/BLE_1.c ****     *  GAP Service.
1306:Generated_Source\PSoC4/BLE_1.c ****     * 
1307:Generated_Source\PSoC4/BLE_1.c ****     * \param name: The local device name string. Used to read the local name to the
1308:Generated_Source\PSoC4/BLE_1.c ****     *             given string array. It represents a UTF-8 encoded User Friendly 
1309:Generated_Source\PSoC4/BLE_1.c ****     *             Descriptive Name for the device. The length of the local device
1310:Generated_Source\PSoC4/BLE_1.c ****     *             string is entered into the component customizer and it can be set
1311:Generated_Source\PSoC4/BLE_1.c ****     *             to a value from 0 to 248 bytes. If the name contained in the
1312:Generated_Source\PSoC4/BLE_1.c ****     *             parameter is shorter than the length from the customizer, the end
1313:Generated_Source\PSoC4/BLE_1.c ****     *             of the name is indicated by a NULL octet (0x00).
1314:Generated_Source\PSoC4/BLE_1.c ****     * 
1315:Generated_Source\PSoC4/BLE_1.c ****     * \return
1316:Generated_Source\PSoC4/BLE_1.c ****     *  CYBLE_API_RESULT_T : Return value indicates if the function succeeded or 
1317:Generated_Source\PSoC4/BLE_1.c ****     *  failed. Following are the possible error codes.
1318:Generated_Source\PSoC4/BLE_1.c ****     *
1319:Generated_Source\PSoC4/BLE_1.c ****     *   Errors codes                       | Description
1320:Generated_Source\PSoC4/BLE_1.c ****     *   ------------                       | -----------
1321:Generated_Source\PSoC4/BLE_1.c ****     *   CYBLE_ERROR_OK                     | Function completed successfully.
1322:Generated_Source\PSoC4/BLE_1.c ****     *   CYBLE_ERROR_INVALID_PARAMETER      | On specifying NULL as input parameter
1323:Generated_Source\PSoC4/BLE_1.c ****     *
1324:Generated_Source\PSoC4/BLE_1.c ****     *******************************************************************************/
1325:Generated_Source\PSoC4/BLE_1.c ****     CYBLE_API_RESULT_T CyBle_GapGetLocalName(char8 name[])
1326:Generated_Source\PSoC4/BLE_1.c ****     {
 1379              		.loc 1 1326 0
 1380              		.cfi_startproc
 1381 0000 80B5     		push	{r7, lr}
 1382              		.cfi_def_cfa_offset 8
 1383              		.cfi_offset 7, -8
 1384              		.cfi_offset 14, -4
 1385 0002 86B0     		sub	sp, sp, #24
 1386              		.cfi_def_cfa_offset 32
 1387 0004 00AF     		add	r7, sp, #0
 1388              		.cfi_def_cfa_register 7
 1389 0006 7860     		str	r0, [r7, #4]
1327:Generated_Source\PSoC4/BLE_1.c ****         CYBLE_API_RESULT_T apiResult = CYBLE_ERROR_OK;
 1390              		.loc 1 1327 0
 1391 0008 1623     		mov	r3, #22
 1392 000a FB18     		add	r3, r7, r3
 1393 000c 0022     		mov	r2, #0
 1394 000e 1A80     		strh	r2, [r3]
1328:Generated_Source\PSoC4/BLE_1.c ****         uint8 charLen;
1329:Generated_Source\PSoC4/BLE_1.c ****         uint8 i;
ARM GAS  C:\Users\Petro\AppData\Local\Temp\ccfEn9K1.s 			page 49


1330:Generated_Source\PSoC4/BLE_1.c ****         char8 *ptr;
1331:Generated_Source\PSoC4/BLE_1.c **** 
1332:Generated_Source\PSoC4/BLE_1.c ****         if(NULL != name)
 1395              		.loc 1 1332 0
 1396 0010 7B68     		ldr	r3, [r7, #4]
 1397 0012 002B     		cmp	r3, #0
 1398 0014 39D0     		beq	.L76
1333:Generated_Source\PSoC4/BLE_1.c ****         {
1334:Generated_Source\PSoC4/BLE_1.c ****             /* Get the pointer to the Device Name characteristic  */
1335:Generated_Source\PSoC4/BLE_1.c ****             ptr = (char8 *) CYBLE_GATT_DB_ATTR_GET_ATTR_GEN_PTR(CYBLE_GAP_DEVICE_NAME_INDEX + 1u);
 1399              		.loc 1 1335 0
 1400 0016 224B     		ldr	r3, .L82
 1401 0018 9B6B     		ldr	r3, [r3, #56]
 1402 001a 5B68     		ldr	r3, [r3, #4]
 1403 001c 3B61     		str	r3, [r7, #16]
1336:Generated_Source\PSoC4/BLE_1.c **** 
1337:Generated_Source\PSoC4/BLE_1.c ****             /* First need to get the length of the characteristic data in the GATT
1338:Generated_Source\PSoC4/BLE_1.c ****                 database to make sure there is enough place for the data. The length
1339:Generated_Source\PSoC4/BLE_1.c ****                 can't be longer than 248, so only the LSB of 16 bit of length is to
1340:Generated_Source\PSoC4/BLE_1.c ****                 be used. */
1341:Generated_Source\PSoC4/BLE_1.c ****             charLen = (uint8)CYBLE_GATT_DB_ATTR_GET_ATTR_GEN_LEN(CYBLE_GAP_DEVICE_NAME_INDEX + 1u);
 1404              		.loc 1 1341 0
 1405 001e 204B     		ldr	r3, .L82
 1406 0020 9B6B     		ldr	r3, [r3, #56]
 1407 0022 1A88     		ldrh	r2, [r3]
 1408 0024 0F23     		mov	r3, #15
 1409 0026 FB18     		add	r3, r7, r3
 1410 0028 1A70     		strb	r2, [r3]
1342:Generated_Source\PSoC4/BLE_1.c **** 
1343:Generated_Source\PSoC4/BLE_1.c ****             /* Copy name from characteristic */
1344:Generated_Source\PSoC4/BLE_1.c ****             for(i = 0u; ((i < charLen) && (CYBLE_NULL_CHARCTER != ptr[i])); i++)
 1411              		.loc 1 1344 0
 1412 002a 1523     		mov	r3, #21
 1413 002c FB18     		add	r3, r7, r3
 1414 002e 0022     		mov	r2, #0
 1415 0030 1A70     		strb	r2, [r3]
 1416 0032 12E0     		b	.L77
 1417              	.L79:
1345:Generated_Source\PSoC4/BLE_1.c ****             {
1346:Generated_Source\PSoC4/BLE_1.c ****                 name[i] = ptr[i];
 1418              		.loc 1 1346 0 discriminator 4
 1419 0034 1523     		mov	r3, #21
 1420 0036 FB18     		add	r3, r7, r3
 1421 0038 1B78     		ldrb	r3, [r3]
 1422 003a 7A68     		ldr	r2, [r7, #4]
 1423 003c D318     		add	r3, r2, r3
 1424 003e 1522     		mov	r2, #21
 1425 0040 BA18     		add	r2, r7, r2
 1426 0042 1278     		ldrb	r2, [r2]
 1427 0044 3969     		ldr	r1, [r7, #16]
 1428 0046 8A18     		add	r2, r1, r2
 1429 0048 1278     		ldrb	r2, [r2]
 1430 004a 1A70     		strb	r2, [r3]
1344:Generated_Source\PSoC4/BLE_1.c ****             {
 1431              		.loc 1 1344 0 discriminator 4
 1432 004c 1523     		mov	r3, #21
 1433 004e FB18     		add	r3, r7, r3
ARM GAS  C:\Users\Petro\AppData\Local\Temp\ccfEn9K1.s 			page 50


 1434 0050 1A78     		ldrb	r2, [r3]
 1435 0052 1523     		mov	r3, #21
 1436 0054 FB18     		add	r3, r7, r3
 1437 0056 0132     		add	r2, r2, #1
 1438 0058 1A70     		strb	r2, [r3]
 1439              	.L77:
1344:Generated_Source\PSoC4/BLE_1.c ****             {
 1440              		.loc 1 1344 0 is_stmt 0 discriminator 1
 1441 005a 1523     		mov	r3, #21
 1442 005c FA18     		add	r2, r7, r3
 1443 005e 0F23     		mov	r3, #15
 1444 0060 FB18     		add	r3, r7, r3
 1445 0062 1278     		ldrb	r2, [r2]
 1446 0064 1B78     		ldrb	r3, [r3]
 1447 0066 9A42     		cmp	r2, r3
 1448 0068 07D2     		bcs	.L78
1344:Generated_Source\PSoC4/BLE_1.c ****             {
 1449              		.loc 1 1344 0 discriminator 3
 1450 006a 1523     		mov	r3, #21
 1451 006c FB18     		add	r3, r7, r3
 1452 006e 1B78     		ldrb	r3, [r3]
 1453 0070 3A69     		ldr	r2, [r7, #16]
 1454 0072 D318     		add	r3, r2, r3
 1455 0074 1B78     		ldrb	r3, [r3]
 1456 0076 002B     		cmp	r3, #0
 1457 0078 DCD1     		bne	.L79
 1458              	.L78:
1347:Generated_Source\PSoC4/BLE_1.c ****             }
1348:Generated_Source\PSoC4/BLE_1.c **** 
1349:Generated_Source\PSoC4/BLE_1.c ****             /* Terminate string */
1350:Generated_Source\PSoC4/BLE_1.c ****             name[i] = CYBLE_NULL_CHARCTER;
 1459              		.loc 1 1350 0 is_stmt 1
 1460 007a 1523     		mov	r3, #21
 1461 007c FB18     		add	r3, r7, r3
 1462 007e 1B78     		ldrb	r3, [r3]
 1463 0080 7A68     		ldr	r2, [r7, #4]
 1464 0082 D318     		add	r3, r2, r3
 1465 0084 0022     		mov	r2, #0
 1466 0086 1A70     		strb	r2, [r3]
 1467 0088 03E0     		b	.L80
 1468              	.L76:
1351:Generated_Source\PSoC4/BLE_1.c ****         }
1352:Generated_Source\PSoC4/BLE_1.c ****         else
1353:Generated_Source\PSoC4/BLE_1.c ****         {
1354:Generated_Source\PSoC4/BLE_1.c ****             apiResult = CYBLE_ERROR_INVALID_PARAMETER;
 1469              		.loc 1 1354 0
 1470 008a 1623     		mov	r3, #22
 1471 008c FB18     		add	r3, r7, r3
 1472 008e 0122     		mov	r2, #1
 1473 0090 1A80     		strh	r2, [r3]
 1474              	.L80:
1355:Generated_Source\PSoC4/BLE_1.c ****         }
1356:Generated_Source\PSoC4/BLE_1.c ****         
1357:Generated_Source\PSoC4/BLE_1.c ****         return(apiResult);
 1475              		.loc 1 1357 0
 1476 0092 1623     		mov	r3, #22
 1477 0094 FB18     		add	r3, r7, r3
ARM GAS  C:\Users\Petro\AppData\Local\Temp\ccfEn9K1.s 			page 51


 1478 0096 1B88     		ldrh	r3, [r3]
1358:Generated_Source\PSoC4/BLE_1.c ****     }
 1479              		.loc 1 1358 0
 1480 0098 181C     		mov	r0, r3
 1481 009a BD46     		mov	sp, r7
 1482 009c 06B0     		add	sp, sp, #24
 1483              		@ sp needed
 1484 009e 80BD     		pop	{r7, pc}
 1485              	.L83:
 1486              		.align	2
 1487              	.L82:
 1488 00a0 00000000 		.word	cyBle_gattDB
 1489              		.cfi_endproc
 1490              	.LFE13:
 1491              		.size	CyBle_GapGetLocalName, .-CyBle_GapGetLocalName
 1492              		.section	.text.CyBle_Get16ByPtr,"ax",%progbits
 1493              		.align	2
 1494              		.global	CyBle_Get16ByPtr
 1495              		.code	16
 1496              		.thumb_func
 1497              		.type	CyBle_Get16ByPtr, %function
 1498              	CyBle_Get16ByPtr:
 1499              	.LFB14:
1359:Generated_Source\PSoC4/BLE_1.c **** 
1360:Generated_Source\PSoC4/BLE_1.c **** #endif /* (CYBLE_GATT_ROLE_SERVER) */
1361:Generated_Source\PSoC4/BLE_1.c **** 
1362:Generated_Source\PSoC4/BLE_1.c **** 
1363:Generated_Source\PSoC4/BLE_1.c **** /******************************************************************************
1364:Generated_Source\PSoC4/BLE_1.c **** * Function Name: CyBle_Get16ByPtr
1365:Generated_Source\PSoC4/BLE_1.c **** ***************************************************************************//**
1366:Generated_Source\PSoC4/BLE_1.c **** * 
1367:Generated_Source\PSoC4/BLE_1.c **** *  Returns the two-bytes value by using a pointer to the LSB.
1368:Generated_Source\PSoC4/BLE_1.c **** * 
1369:Generated_Source\PSoC4/BLE_1.c **** *  \param ptr: Pointer to the LSB of two-bytes data (little endian).
1370:Generated_Source\PSoC4/BLE_1.c **** * 
1371:Generated_Source\PSoC4/BLE_1.c **** *  \return
1372:Generated_Source\PSoC4/BLE_1.c **** *  uint16: Two-bytes data.
1373:Generated_Source\PSoC4/BLE_1.c **** * 
1374:Generated_Source\PSoC4/BLE_1.c **** ******************************************************************************/
1375:Generated_Source\PSoC4/BLE_1.c **** uint16 CyBle_Get16ByPtr(const uint8 ptr[])
1376:Generated_Source\PSoC4/BLE_1.c **** {
 1500              		.loc 1 1376 0
 1501              		.cfi_startproc
 1502 0000 80B5     		push	{r7, lr}
 1503              		.cfi_def_cfa_offset 8
 1504              		.cfi_offset 7, -8
 1505              		.cfi_offset 14, -4
 1506 0002 82B0     		sub	sp, sp, #8
 1507              		.cfi_def_cfa_offset 16
 1508 0004 00AF     		add	r7, sp, #0
 1509              		.cfi_def_cfa_register 7
 1510 0006 7860     		str	r0, [r7, #4]
1377:Generated_Source\PSoC4/BLE_1.c ****     return ((uint16) ptr[0u] | ((uint16) (((uint16) ptr[1u]) << 8u)));
 1511              		.loc 1 1377 0
 1512 0008 7B68     		ldr	r3, [r7, #4]
 1513 000a 1B78     		ldrb	r3, [r3]
 1514 000c 9AB2     		uxth	r2, r3
ARM GAS  C:\Users\Petro\AppData\Local\Temp\ccfEn9K1.s 			page 52


 1515 000e 7B68     		ldr	r3, [r7, #4]
 1516 0010 0133     		add	r3, r3, #1
 1517 0012 1B78     		ldrb	r3, [r3]
 1518 0014 9BB2     		uxth	r3, r3
 1519 0016 1B02     		lsl	r3, r3, #8
 1520 0018 9BB2     		uxth	r3, r3
 1521 001a 1343     		orr	r3, r2
 1522 001c 9BB2     		uxth	r3, r3
1378:Generated_Source\PSoC4/BLE_1.c **** }
 1523              		.loc 1 1378 0
 1524 001e 181C     		mov	r0, r3
 1525 0020 BD46     		mov	sp, r7
 1526 0022 02B0     		add	sp, sp, #8
 1527              		@ sp needed
 1528 0024 80BD     		pop	{r7, pc}
 1529              		.cfi_endproc
 1530              	.LFE14:
 1531              		.size	CyBle_Get16ByPtr, .-CyBle_Get16ByPtr
 1532 0026 C046     		.section	.text.CyBle_Set16ByPtr,"ax",%progbits
 1533              		.align	2
 1534              		.global	CyBle_Set16ByPtr
 1535              		.code	16
 1536              		.thumb_func
 1537              		.type	CyBle_Set16ByPtr, %function
 1538              	CyBle_Set16ByPtr:
 1539              	.LFB15:
1379:Generated_Source\PSoC4/BLE_1.c **** 
1380:Generated_Source\PSoC4/BLE_1.c **** 
1381:Generated_Source\PSoC4/BLE_1.c **** /******************************************************************************
1382:Generated_Source\PSoC4/BLE_1.c **** * Function Name: CyBle_Set16ByPtr
1383:Generated_Source\PSoC4/BLE_1.c **** ***************************************************************************//**
1384:Generated_Source\PSoC4/BLE_1.c **** * 
1385:Generated_Source\PSoC4/BLE_1.c **** *  Sets the two-bytes value by using a pointer to the LSB.
1386:Generated_Source\PSoC4/BLE_1.c **** * 
1387:Generated_Source\PSoC4/BLE_1.c **** *  \param ptr:    Pointer to the LSB of two-bytes data (little endian).
1388:Generated_Source\PSoC4/BLE_1.c **** *  \param value:  Two-bytes data to be written.
1389:Generated_Source\PSoC4/BLE_1.c **** * 
1390:Generated_Source\PSoC4/BLE_1.c **** *  \return
1391:Generated_Source\PSoC4/BLE_1.c **** *  None
1392:Generated_Source\PSoC4/BLE_1.c **** * 
1393:Generated_Source\PSoC4/BLE_1.c **** ******************************************************************************/
1394:Generated_Source\PSoC4/BLE_1.c **** void CyBle_Set16ByPtr(uint8 ptr[], uint16 value)
1395:Generated_Source\PSoC4/BLE_1.c **** {
 1540              		.loc 1 1395 0
 1541              		.cfi_startproc
 1542 0000 80B5     		push	{r7, lr}
 1543              		.cfi_def_cfa_offset 8
 1544              		.cfi_offset 7, -8
 1545              		.cfi_offset 14, -4
 1546 0002 82B0     		sub	sp, sp, #8
 1547              		.cfi_def_cfa_offset 16
 1548 0004 00AF     		add	r7, sp, #0
 1549              		.cfi_def_cfa_register 7
 1550 0006 7860     		str	r0, [r7, #4]
 1551 0008 0A1C     		mov	r2, r1
 1552 000a BB1C     		add	r3, r7, #2
 1553 000c 1A80     		strh	r2, [r3]
ARM GAS  C:\Users\Petro\AppData\Local\Temp\ccfEn9K1.s 			page 53


1396:Generated_Source\PSoC4/BLE_1.c ****     ptr[0u] = (uint8) value;
 1554              		.loc 1 1396 0
 1555 000e BB1C     		add	r3, r7, #2
 1556 0010 1B88     		ldrh	r3, [r3]
 1557 0012 DAB2     		uxtb	r2, r3
 1558 0014 7B68     		ldr	r3, [r7, #4]
 1559 0016 1A70     		strb	r2, [r3]
1397:Generated_Source\PSoC4/BLE_1.c ****     ptr[1u] = (uint8) (value >> 8u);
 1560              		.loc 1 1397 0
 1561 0018 7B68     		ldr	r3, [r7, #4]
 1562 001a 0133     		add	r3, r3, #1
 1563 001c BA1C     		add	r2, r7, #2
 1564 001e 1288     		ldrh	r2, [r2]
 1565 0020 120A     		lsr	r2, r2, #8
 1566 0022 92B2     		uxth	r2, r2
 1567 0024 D2B2     		uxtb	r2, r2
 1568 0026 1A70     		strb	r2, [r3]
1398:Generated_Source\PSoC4/BLE_1.c **** }
 1569              		.loc 1 1398 0
 1570 0028 BD46     		mov	sp, r7
 1571 002a 02B0     		add	sp, sp, #8
 1572              		@ sp needed
 1573 002c 80BD     		pop	{r7, pc}
 1574              		.cfi_endproc
 1575              	.LFE15:
 1576              		.size	CyBle_Set16ByPtr, .-CyBle_Set16ByPtr
 1577 002e C046     		.text
 1578              	.Letext0:
 1579              		.file 2 "Generated_Source\\PSoC4\\cytypes.h"
 1580              		.file 3 "Generated_Source\\PSoC4\\BLE_1_Stack.h"
 1581              		.file 4 "Generated_Source\\PSoC4\\BLE_1_StackGap.h"
 1582              		.file 5 "Generated_Source\\PSoC4\\BLE_1_StackGatt.h"
 1583              		.file 6 "Generated_Source\\PSoC4\\BLE_1_StackGattDb.h"
 1584              		.file 7 "Generated_Source\\PSoC4\\BLE_1.h"
 1585              		.file 8 "Generated_Source\\PSoC4\\BLE_1_gatt.h"
 1586              		.file 9 "Generated_Source\\PSoC4\\BLE_1_ans.h"
 1587              		.file 10 "Generated_Source\\PSoC4\\BLE_1_eventHandler.h"