ARM GAS  C:\Users\Petro\AppData\Local\Temp\cck8ZwW8.s 			page 1


   1              		.cpu cortex-m0
   2              		.fpu softvfp
   3              		.eabi_attribute 20, 1
   4              		.eabi_attribute 21, 1
   5              		.eabi_attribute 23, 3
   6              		.eabi_attribute 24, 1
   7              		.eabi_attribute 25, 1
   8              		.eabi_attribute 26, 1
   9              		.eabi_attribute 30, 4
  10              		.eabi_attribute 34, 0
  11              		.eabi_attribute 18, 4
  12              		.code	16
  13              		.file	"display.c"
  14              		.text
  15              	.Ltext0:
  16              		.cfi_sections	.debug_frame
  17              		.section	.text.DisplayStart,"ax",%progbits
  18              		.align	1
  19              		.global	DisplayStart
  20              		.code	16
  21              		.thumb_func
  22              		.type	DisplayStart, %function
  23              	DisplayStart:
  24              	.LFB63:
  25              		.file 1 "lib_Display\\display.c"
   1:lib_Display/display.c **** 
   2:lib_Display/display.c **** #include <CyLib.h>
   3:lib_Display/display.c **** #include <stdio.h>
   4:lib_Display/display.c **** //#include "lib_RTC\RTC_WDT.h"
   5:lib_Display/display.c **** #include "lib_Display\display.h"
   6:lib_Display/display.c **** #include "nokia5110/LCD5110_Graph.h"
   7:lib_Display/display.c **** #include "project.h"
   8:lib_Display/display.c **** 
   9:lib_Display/display.c **** #define BATT_0_PERCENT      0.36
  10:lib_Display/display.c **** #define BATT_25_PERCENT     0.41
  11:lib_Display/display.c **** #define BATT_50_PERCENT     0.46
  12:lib_Display/display.c **** #define BATT_75_PERCENT     0.51
  13:lib_Display/display.c **** #define BATT_100_PERCENT    0.56
  14:lib_Display/display.c **** 
  15:lib_Display/display.c **** extern unsigned char SmallFont[];
  16:lib_Display/display.c **** extern unsigned char TinyFont[];
  17:lib_Display/display.c **** extern unsigned char BigNumbers[];
  18:lib_Display/display.c **** extern unsigned char MediumNumbers[];
  19:lib_Display/display.c **** extern uint8_t logoCypress[];
  20:lib_Display/display.c **** extern uint8_t homeSkreen[];
  21:lib_Display/display.c **** extern uint8_t homeSkreenNull[];
  22:lib_Display/display.c **** extern uint8_t networkOn[];
  23:lib_Display/display.c **** extern uint8_t SDinsert[];
  24:lib_Display/display.c **** extern uint8_t SDnoInsert[];
  25:lib_Display/display.c **** 
  26:lib_Display/display.c **** /*buffer for print string on LCD*/
  27:lib_Display/display.c **** static  char buff[100];
  28:lib_Display/display.c **** 
  29:lib_Display/display.c **** 
  30:lib_Display/display.c **** /*******************************************************************************
  31:lib_Display/display.c **** * Function name: DisplayConfig
  32:lib_Display/display.c **** ********************************************************************************
ARM GAS  C:\Users\Petro\AppData\Local\Temp\cck8ZwW8.s 			page 2


  33:lib_Display/display.c **** *
  34:lib_Display/display.c **** * Summary:
  35:lib_Display/display.c **** * initialization display
  36:lib_Display/display.c **** *
  37:lib_Display/display.c **** *******************************************************************************/	
  38:lib_Display/display.c **** void DisplayStart(void)
  39:lib_Display/display.c **** {
  26              		.loc 1 39 0
  27              		.cfi_startproc
  28 0000 07B5     		push	{r0, r1, r2, lr}
  29              		.cfi_def_cfa_offset 16
  30              		.cfi_offset 0, -16
  31              		.cfi_offset 1, -12
  32              		.cfi_offset 2, -8
  33              		.cfi_offset 14, -4
  40:lib_Display/display.c ****     /*backlight off*/
  41:lib_Display/display.c ****     LCD_BL_Write(1);
  34              		.loc 1 41 0
  35 0002 0120     		mov	r0, #1
  36 0004 FFF7FEFF 		bl	LCD_BL_Write
  37              	.LVL0:
  42:lib_Display/display.c ****     
  43:lib_Display/display.c ****     InitLCD(LCD_CONTRAST);
  38              		.loc 1 43 0
  39 0008 4620     		mov	r0, #70
  40 000a FFF7FEFF 		bl	InitLCD
  41              	.LVL1:
  44:lib_Display/display.c ****     setContrast(0x40);
  42              		.loc 1 44 0
  43 000e 4020     		mov	r0, #64
  44 0010 FFF7FEFF 		bl	setContrast
  45              	.LVL2:
  45:lib_Display/display.c ****     setFont(SmallFont);
  46              		.loc 1 45 0
  47 0014 0748     		ldr	r0, .L2
  48 0016 FFF7FEFF 		bl	setFont
  49              	.LVL3:
  46:lib_Display/display.c ****     clrScr();
  50              		.loc 1 46 0
  51 001a FFF7FEFF 		bl	clrScr
  52              	.LVL4:
  47:lib_Display/display.c ****     drawBitmap(0, 0, homeSkreenNull, 84, 48);
  53              		.loc 1 47 0
  54 001e 0020     		mov	r0, #0
  55 0020 3023     		mov	r3, #48
  56 0022 011C     		mov	r1, r0
  57 0024 0093     		str	r3, [sp]
  58 0026 044A     		ldr	r2, .L2+4
  59 0028 2433     		add	r3, r3, #36
  60 002a FFF7FEFF 		bl	drawBitmap
  61              	.LVL5:
  48:lib_Display/display.c ****     update();
  49:lib_Display/display.c **** }
  62              		.loc 1 49 0
  63              		@ sp needed
  48:lib_Display/display.c ****     update();
  64              		.loc 1 48 0
ARM GAS  C:\Users\Petro\AppData\Local\Temp\cck8ZwW8.s 			page 3


  65 002e FFF7FEFF 		bl	update
  66              	.LVL6:
  67              		.loc 1 49 0
  68 0032 07BD     		pop	{r0, r1, r2, pc}
  69              	.L3:
  70              		.align	2
  71              	.L2:
  72 0034 00000000 		.word	SmallFont
  73 0038 00000000 		.word	homeSkreenNull
  74              		.cfi_endproc
  75              	.LFE63:
  76              		.size	DisplayStart, .-DisplayStart
  77              		.section	.text.Display,"ax",%progbits
  78              		.align	1
  79              		.global	Display
  80              		.code	16
  81              		.thumb_func
  82              		.type	Display, %function
  83              	Display:
  84              	.LFB64:
  50:lib_Display/display.c **** 	
  51:lib_Display/display.c **** 
  52:lib_Display/display.c **** /*******************************************************************************
  53:lib_Display/display.c **** * Function Name: DisplayPrintf
  54:lib_Display/display.c **** ********************************************************************************
  55:lib_Display/display.c **** *
  56:lib_Display/display.c **** * Summary:
  57:lib_Display/display.c **** *   Writes a zero terminated string to the LCD.
  58:lib_Display/display.c **** *
  59:lib_Display/display.c **** * Parameters:
  60:lib_Display/display.c **** *  string: Pointer to head of char8 array to be written to the LCD module
  61:lib_Display/display.c **** * Note:
  62:lib_Display/display.c **** *   print string from position row = 0, column = 0
  63:lib_Display/display.c **** *
  64:lib_Display/display.c **** *******************************************************************************/
  65:lib_Display/display.c **** void Display(char *message)
  66:lib_Display/display.c **** {    
  85              		.loc 1 66 0
  86              		.cfi_startproc
  87              	.LVL7:
  88 0000 7FB5     		push	{r0, r1, r2, r3, r4, r5, r6, lr}
  89              		.cfi_def_cfa_offset 32
  90              		.cfi_offset 0, -32
  91              		.cfi_offset 1, -28
  92              		.cfi_offset 2, -24
  93              		.cfi_offset 3, -20
  94              		.cfi_offset 4, -16
  95              		.cfi_offset 5, -12
  96              		.cfi_offset 6, -8
  97              		.cfi_offset 14, -4
  67:lib_Display/display.c ****     //if(strlen(message) > 11)return;
  68:lib_Display/display.c ****     uint8_t len;
  69:lib_Display/display.c ****     char strNull[11] = {"           "};
  98              		.loc 1 69 0
  99 0002 0B25     		mov	r5, #11
  66:lib_Display/display.c ****     //if(strlen(message) > 11)return;
 100              		.loc 1 66 0
ARM GAS  C:\Users\Petro\AppData\Local\Temp\cck8ZwW8.s 			page 4


 101 0004 061C     		mov	r6, r0
 102              		.loc 1 69 0
 103 0006 1149     		ldr	r1, .L7
 104 0008 2A1C     		mov	r2, r5
 105 000a 01A8     		add	r0, sp, #4
 106              	.LVL8:
 107 000c FFF7FEFF 		bl	memcpy
 108              	.LVL9:
  70:lib_Display/display.c ****     strncpy(buff,message,11);
 109              		.loc 1 70 0
 110 0010 0F4C     		ldr	r4, .L7+4
 111 0012 311C     		mov	r1, r6
 112 0014 2A1C     		mov	r2, r5
 113 0016 201C     		mov	r0, r4
 114 0018 FFF7FEFF 		bl	strncpy
 115              	.LVL10:
  71:lib_Display/display.c ****     len = strlen(message);
 116              		.loc 1 71 0
 117 001c 301C     		mov	r0, r6
 118 001e FFF7FEFF 		bl	strlen
 119              	.LVL11:
  72:lib_Display/display.c ****     if(len<11)
 120              		.loc 1 72 0
 121 0022 C3B2     		uxtb	r3, r0
 122 0024 0A2B     		cmp	r3, #10
 123 0026 05D8     		bhi	.L5
 124 0028 C2B2     		uxtb	r2, r0
  73:lib_Display/display.c ****     {
  74:lib_Display/display.c ****         strncat(buff,strNull,11-len);
 125              		.loc 1 74 0
 126 002a AA1A     		sub	r2, r5, r2
 127 002c 201C     		mov	r0, r4
 128              	.LVL12:
 129 002e 01A9     		add	r1, sp, #4
 130 0030 FFF7FEFF 		bl	strncat
 131              	.LVL13:
 132              	.L5:
  75:lib_Display/display.c ****     }
  76:lib_Display/display.c ****     
  77:lib_Display/display.c ****     setFont(SmallFont);
 133              		.loc 1 77 0
 134 0034 0748     		ldr	r0, .L7+8
 135 0036 FFF7FEFF 		bl	setFont
 136              	.LVL14:
  78:lib_Display/display.c ****     print(buff,8,40);
 137              		.loc 1 78 0
 138 003a 201C     		mov	r0, r4
 139 003c 0821     		mov	r1, #8
 140 003e 2822     		mov	r2, #40
 141 0040 FFF7FEFF 		bl	print
 142              	.LVL15:
  79:lib_Display/display.c ****     update();
  80:lib_Display/display.c **** }
 143              		.loc 1 80 0
 144              		@ sp needed
  79:lib_Display/display.c ****     update();
 145              		.loc 1 79 0
ARM GAS  C:\Users\Petro\AppData\Local\Temp\cck8ZwW8.s 			page 5


 146 0044 FFF7FEFF 		bl	update
 147              	.LVL16:
 148              	.LVL17:
 149              		.loc 1 80 0
 150 0048 7FBD     		pop	{r0, r1, r2, r3, r4, r5, r6, pc}
 151              	.L8:
 152 004a C046     		.align	2
 153              	.L7:
 154 004c 00000000 		.word	.LANCHOR0
 155 0050 00000000 		.word	.LANCHOR1
 156 0054 00000000 		.word	SmallFont
 157              		.cfi_endproc
 158              	.LFE64:
 159              		.size	Display, .-Display
 160              		.section	.text.DisplayIndicatorSD,"ax",%progbits
 161              		.align	1
 162              		.global	DisplayIndicatorSD
 163              		.code	16
 164              		.thumb_func
 165              		.type	DisplayIndicatorSD, %function
 166              	DisplayIndicatorSD:
 167              	.LFB65:
  81:lib_Display/display.c **** 
  82:lib_Display/display.c **** /*******************************************************************************
  83:lib_Display/display.c **** * Function name: DisplayPutIndicatorSD
  84:lib_Display/display.c **** ********************************************************************************
  85:lib_Display/display.c **** *
  86:lib_Display/display.c **** * Summary:
  87:lib_Display/display.c **** *   print incator SD card 
  88:lib_Display/display.c **** *
  89:lib_Display/display.c **** * Parametrs:
  90:lib_Display/display.c **** *   state = SD_INSERT or state = SD_NO_INSERT
  91:lib_Display/display.c **** *******************************************************************************/
  92:lib_Display/display.c **** void DisplayIndicatorSD(SDindicator indicator)
  93:lib_Display/display.c **** {
 168              		.loc 1 93 0
 169              		.cfi_startproc
 170              	.LVL18:
 171 0000 0823     		mov	r3, #8
 172 0002 07B5     		push	{r0, r1, r2, lr}
 173              		.cfi_def_cfa_offset 16
 174              		.cfi_offset 0, -16
 175              		.cfi_offset 1, -12
 176              		.cfi_offset 2, -8
 177              		.cfi_offset 14, -4
  94:lib_Display/display.c ****     if(indicator == SD_INSERT)
  95:lib_Display/display.c ****     {
  96:lib_Display/display.c ****         drawBitmap(64, 1, SDinsert, 10, 8);
 178              		.loc 1 96 0
 179 0004 0093     		str	r3, [sp]
  94:lib_Display/display.c ****     if(indicator == SD_INSERT)
 180              		.loc 1 94 0
 181 0006 0028     		cmp	r0, #0
 182 0008 04D1     		bne	.L10
 183              		.loc 1 96 0
 184 000a 4030     		add	r0, r0, #64
 185              	.LVL19:
ARM GAS  C:\Users\Petro\AppData\Local\Temp\cck8ZwW8.s 			page 6


 186 000c 0121     		mov	r1, #1
 187 000e 064A     		ldr	r2, .L13
 188 0010 0233     		add	r3, r3, #2
 189 0012 03E0     		b	.L12
 190              	.LVL20:
 191              	.L10:
  97:lib_Display/display.c ****     }
  98:lib_Display/display.c ****     else
  99:lib_Display/display.c ****     {
 100:lib_Display/display.c ****         drawBitmap(64, 1, SDnoInsert, 10, 8);
 192              		.loc 1 100 0
 193 0014 4020     		mov	r0, #64
 194              	.LVL21:
 195 0016 0121     		mov	r1, #1
 196 0018 0A23     		mov	r3, #10
 197 001a 044A     		ldr	r2, .L13+4
 198              	.L12:
 199 001c FFF7FEFF 		bl	drawBitmap
 200              	.LVL22:
 101:lib_Display/display.c ****     }
 102:lib_Display/display.c ****     update();
 103:lib_Display/display.c **** }
 201              		.loc 1 103 0
 202              		@ sp needed
 102:lib_Display/display.c **** }
 203              		.loc 1 102 0
 204 0020 FFF7FEFF 		bl	update
 205              	.LVL23:
 206              		.loc 1 103 0
 207 0024 07BD     		pop	{r0, r1, r2, pc}
 208              	.L14:
 209 0026 C046     		.align	2
 210              	.L13:
 211 0028 00000000 		.word	SDinsert
 212 002c 00000000 		.word	SDnoInsert
 213              		.cfi_endproc
 214              	.LFE65:
 215              		.size	DisplayIndicatorSD, .-DisplayIndicatorSD
 216              		.section	.text.DisplayIndicatorNetwork,"ax",%progbits
 217              		.align	1
 218              		.global	DisplayIndicatorNetwork
 219              		.code	16
 220              		.thumb_func
 221              		.type	DisplayIndicatorNetwork, %function
 222              	DisplayIndicatorNetwork:
 223              	.LFB66:
 104:lib_Display/display.c **** 
 105:lib_Display/display.c **** /*******************************************************************************
 106:lib_Display/display.c **** * Function name: DisplayPutIndicatorNetwork
 107:lib_Display/display.c **** ********************************************************************************
 108:lib_Display/display.c **** *
 109:lib_Display/display.c **** * Summary:
 110:lib_Display/display.c **** *   print incator connect  from position row = 1, column = 15
 111:lib_Display/display.c **** *
 112:lib_Display/display.c **** * Parametrs:
 113:lib_Display/display.c **** *   state = CONNECT or state = DISCONNECT
 114:lib_Display/display.c **** *******************************************************************************/
ARM GAS  C:\Users\Petro\AppData\Local\Temp\cck8ZwW8.s 			page 7


 115:lib_Display/display.c **** void DisplayIndicatorNetwork(NetworkIndicator indicator)
 116:lib_Display/display.c **** {
 224              		.loc 1 116 0
 225              		.cfi_startproc
 226              	.LVL24:
 227 0000 07B5     		push	{r0, r1, r2, lr}
 228              		.cfi_def_cfa_offset 16
 229              		.cfi_offset 0, -16
 230              		.cfi_offset 1, -12
 231              		.cfi_offset 2, -8
 232              		.cfi_offset 14, -4
 117:lib_Display/display.c ****     if(indicator == CONNECT)
 233              		.loc 1 117 0
 234 0002 0028     		cmp	r0, #0
 235 0004 08D1     		bne	.L16
 118:lib_Display/display.c ****     {
 119:lib_Display/display.c ****         drawBitmap(1,3,networkOn,6,35);
 236              		.loc 1 119 0
 237 0006 2323     		mov	r3, #35
 238 0008 0130     		add	r0, r0, #1
 239              	.LVL25:
 240 000a 0093     		str	r3, [sp]
 241 000c 0321     		mov	r1, #3
 242 000e 104A     		ldr	r2, .L18
 243 0010 1D3B     		sub	r3, r3, #29
 244 0012 FFF7FEFF 		bl	drawBitmap
 245              	.LVL26:
 246 0016 18E0     		b	.L17
 247              	.LVL27:
 248              	.L16:
 120:lib_Display/display.c ****     }
 121:lib_Display/display.c ****     else
 122:lib_Display/display.c ****     {
 123:lib_Display/display.c ****         clrVLine(1,3,35);
 249              		.loc 1 123 0
 250 0018 0120     		mov	r0, #1
 251              	.LVL28:
 252 001a 0321     		mov	r1, #3
 253 001c 2322     		mov	r2, #35
 254 001e FFF7FEFF 		bl	clrVLine
 255              	.LVL29:
 124:lib_Display/display.c ****         clrVLine(2,3,35);
 256              		.loc 1 124 0
 257 0022 0220     		mov	r0, #2
 258 0024 0321     		mov	r1, #3
 259 0026 2322     		mov	r2, #35
 260 0028 FFF7FEFF 		bl	clrVLine
 261              	.LVL30:
 125:lib_Display/display.c ****         clrVLine(3,3,35);
 262              		.loc 1 125 0
 263 002c 0320     		mov	r0, #3
 264 002e 2322     		mov	r2, #35
 265 0030 011C     		mov	r1, r0
 266 0032 FFF7FEFF 		bl	clrVLine
 267              	.LVL31:
 126:lib_Display/display.c ****         clrVLine(4,3,35);
 268              		.loc 1 126 0
ARM GAS  C:\Users\Petro\AppData\Local\Temp\cck8ZwW8.s 			page 8


 269 0036 0420     		mov	r0, #4
 270 0038 0321     		mov	r1, #3
 271 003a 2322     		mov	r2, #35
 272 003c FFF7FEFF 		bl	clrVLine
 273              	.LVL32:
 127:lib_Display/display.c ****         clrVLine(5,3,35);
 274              		.loc 1 127 0
 275 0040 0520     		mov	r0, #5
 276 0042 0321     		mov	r1, #3
 277 0044 2322     		mov	r2, #35
 278 0046 FFF7FEFF 		bl	clrVLine
 279              	.LVL33:
 280              	.L17:
 128:lib_Display/display.c ****     }
 129:lib_Display/display.c ****     update();
 281              		.loc 1 129 0
 282 004a FFF7FEFF 		bl	update
 283              	.LVL34:
 130:lib_Display/display.c **** }
 284              		.loc 1 130 0
 285              		@ sp needed
 286 004e 07BD     		pop	{r0, r1, r2, pc}
 287              	.L19:
 288              		.align	2
 289              	.L18:
 290 0050 00000000 		.word	networkOn
 291              		.cfi_endproc
 292              	.LFE66:
 293              		.size	DisplayIndicatorNetwork, .-DisplayIndicatorNetwork
 294              		.section	.text.DisplayRealTime,"ax",%progbits
 295              		.align	1
 296              		.global	DisplayRealTime
 297              		.code	16
 298              		.thumb_func
 299              		.type	DisplayRealTime, %function
 300              	DisplayRealTime:
 301              	.LFB67:
 131:lib_Display/display.c **** 
 132:lib_Display/display.c **** /*******************************************************************************
 133:lib_Display/display.c **** * Function name: DisplayPrintfRealTime
 134:lib_Display/display.c **** ********************************************************************************
 135:lib_Display/display.c **** *
 136:lib_Display/display.c **** * Summary:
 137:lib_Display/display.c **** *   print real time from position row = 1, column = 0
 138:lib_Display/display.c **** *
 139:lib_Display/display.c **** *******************************************************************************/
 140:lib_Display/display.c **** void DisplayRealTime(void)
 141:lib_Display/display.c **** {
 302              		.loc 1 141 0
 303              		.cfi_startproc
 304 0000 F7B5     		push	{r0, r1, r2, r4, r5, r6, r7, lr}
 305              		.cfi_def_cfa_offset 32
 306              		.cfi_offset 0, -32
 307              		.cfi_offset 1, -28
 308              		.cfi_offset 2, -24
 309              		.cfi_offset 4, -20
 310              		.cfi_offset 5, -16
ARM GAS  C:\Users\Petro\AppData\Local\Temp\cck8ZwW8.s 			page 9


 311              		.cfi_offset 6, -12
 312              		.cfi_offset 7, -8
 313              		.cfi_offset 14, -4
 142:lib_Display/display.c ****     uint32_t time;
 143:lib_Display/display.c ****     
 144:lib_Display/display.c ****     setFont(SmallFont);
 314              		.loc 1 144 0
 315 0002 1448     		ldr	r0, .L21
 316 0004 FFF7FEFF 		bl	setFont
 317              	.LVL35:
 145:lib_Display/display.c ****     time = RTC_GetTime();
 318              		.loc 1 145 0
 319 0008 FFF7FEFF 		bl	RTC_GetTime
 320              	.LVL36:
 321              	.LBB8:
 322              	.LBB9:
 323              		.file 2 "Generated_Source\\PSoC4/RTC.h"
   1:Generated_Source\PSoC4/RTC.h **** /***************************************************************************//**
   2:Generated_Source\PSoC4/RTC.h **** * \file Name: RTC.h
   3:Generated_Source\PSoC4/RTC.h **** * \version 1.10
   4:Generated_Source\PSoC4/RTC.h **** *
   5:Generated_Source\PSoC4/RTC.h **** * \brief
   6:Generated_Source\PSoC4/RTC.h **** *  This file provides constants and parameter values for the RTC_P4 Component.
   7:Generated_Source\PSoC4/RTC.h **** *
   8:Generated_Source\PSoC4/RTC.h **** ********************************************************************************
   9:Generated_Source\PSoC4/RTC.h **** * Copyright 2015-2016, Cypress Semiconductor Corporation.  All rights reserved.
  10:Generated_Source\PSoC4/RTC.h **** * You may use this file only in accordance with the license, terms, conditions,
  11:Generated_Source\PSoC4/RTC.h **** * disclaimers, and limitations in the end user license agreement accompanying
  12:Generated_Source\PSoC4/RTC.h **** * the software package with which this file was provided.
  13:Generated_Source\PSoC4/RTC.h **** *******************************************************************************/
  14:Generated_Source\PSoC4/RTC.h **** 
  15:Generated_Source\PSoC4/RTC.h **** #if !defined(CY_RTC_P4_RTC_H)
  16:Generated_Source\PSoC4/RTC.h **** #define CY_RTC_P4_RTC_H
  17:Generated_Source\PSoC4/RTC.h **** 
  18:Generated_Source\PSoC4/RTC.h **** #include <cytypes.h>
  19:Generated_Source\PSoC4/RTC.h **** #include <CyLib.h>
  20:Generated_Source\PSoC4/RTC.h **** 
  21:Generated_Source\PSoC4/RTC.h **** 
  22:Generated_Source\PSoC4/RTC.h **** /*******************************************************************************
  23:Generated_Source\PSoC4/RTC.h **** *    Data types definition
  24:Generated_Source\PSoC4/RTC.h **** *******************************************************************************/
  25:Generated_Source\PSoC4/RTC.h **** 
  26:Generated_Source\PSoC4/RTC.h **** typedef enum
  27:Generated_Source\PSoC4/RTC.h **** {
  28:Generated_Source\PSoC4/RTC.h ****     RTC_DST_DATE_RELATIVE = 0u,
  29:Generated_Source\PSoC4/RTC.h ****     RTC_DST_DATE_FIXED = 1u
  30:Generated_Source\PSoC4/RTC.h **** }RTC_DST_DATETYPE_ENUM;
  31:Generated_Source\PSoC4/RTC.h **** 
  32:Generated_Source\PSoC4/RTC.h **** /**
  33:Generated_Source\PSoC4/RTC.h **** * \addtogroup group_structures
  34:Generated_Source\PSoC4/RTC.h **** * @{
  35:Generated_Source\PSoC4/RTC.h **** */
  36:Generated_Source\PSoC4/RTC.h **** 
  37:Generated_Source\PSoC4/RTC.h **** /**
  38:Generated_Source\PSoC4/RTC.h **** * This is the data structure that is used to save the current time and date 
  39:Generated_Source\PSoC4/RTC.h **** * (RTC_currentTimeDate), and Alarm time and date (RTC_alarmCfgTimeDate).
  40:Generated_Source\PSoC4/RTC.h **** */
ARM GAS  C:\Users\Petro\AppData\Local\Temp\cck8ZwW8.s 			page 10


  41:Generated_Source\PSoC4/RTC.h **** typedef struct
  42:Generated_Source\PSoC4/RTC.h **** {
  43:Generated_Source\PSoC4/RTC.h ****     uint32 time;
  44:Generated_Source\PSoC4/RTC.h ****     uint32 date;
  45:Generated_Source\PSoC4/RTC.h ****     uint32 dayOfWeek;
  46:Generated_Source\PSoC4/RTC.h ****     uint32 status;
  47:Generated_Source\PSoC4/RTC.h **** }RTC_DATE_TIME;
  48:Generated_Source\PSoC4/RTC.h **** 
  49:Generated_Source\PSoC4/RTC.h **** /**
  50:Generated_Source\PSoC4/RTC.h **** * This is the data structure that is used to save time and date values for 
  51:Generated_Source\PSoC4/RTC.h **** * Daylight Savings Time Start and Stop (RTC_dstTimeDateStart and 
  52:Generated_Source\PSoC4/RTC.h **** * RTC_dstTimeDateStop).
  53:Generated_Source\PSoC4/RTC.h **** */
  54:Generated_Source\PSoC4/RTC.h **** typedef struct
  55:Generated_Source\PSoC4/RTC.h **** {
  56:Generated_Source\PSoC4/RTC.h ****     uint32 hour;
  57:Generated_Source\PSoC4/RTC.h ****     uint32 dayOfWeek;
  58:Generated_Source\PSoC4/RTC.h ****     uint32 dayOfMonth;
  59:Generated_Source\PSoC4/RTC.h ****     uint32 weekOfMonth;
  60:Generated_Source\PSoC4/RTC.h ****     uint32 month;
  61:Generated_Source\PSoC4/RTC.h ****     uint8  timeFormat;
  62:Generated_Source\PSoC4/RTC.h **** }RTC_DST_TIME;
  63:Generated_Source\PSoC4/RTC.h **** 
  64:Generated_Source\PSoC4/RTC.h **** /** @} structures */
  65:Generated_Source\PSoC4/RTC.h **** 
  66:Generated_Source\PSoC4/RTC.h **** /*******************************************************************************
  67:Generated_Source\PSoC4/RTC.h **** *    Enumerated Types and Parameters
  68:Generated_Source\PSoC4/RTC.h **** *******************************************************************************/
  69:Generated_Source\PSoC4/RTC.h **** /* Time Format setting constants */
  70:Generated_Source\PSoC4/RTC.h **** #define RTC__HOUR_12 1
  71:Generated_Source\PSoC4/RTC.h **** #define RTC__HOUR_24 0
  72:Generated_Source\PSoC4/RTC.h **** 
  73:Generated_Source\PSoC4/RTC.h **** /*  Date Format setting constants */
  74:Generated_Source\PSoC4/RTC.h **** #define RTC__MM_DD_YYYY 0
  75:Generated_Source\PSoC4/RTC.h **** #define RTC__DD_MM_YYYY 1
  76:Generated_Source\PSoC4/RTC.h **** #define RTC__YYYY_MM_DD 2
  77:Generated_Source\PSoC4/RTC.h **** 
  78:Generated_Source\PSoC4/RTC.h **** /* Date Type setting constants */
  79:Generated_Source\PSoC4/RTC.h **** #define RTC__RELATIVE 0
  80:Generated_Source\PSoC4/RTC.h **** #define RTC__FIXED 1
  81:Generated_Source\PSoC4/RTC.h **** 
  82:Generated_Source\PSoC4/RTC.h **** /* DST Hour setting constants */
  83:Generated_Source\PSoC4/RTC.h **** #define RTC__H0000 0
  84:Generated_Source\PSoC4/RTC.h **** #define RTC__H0100 1
  85:Generated_Source\PSoC4/RTC.h **** #define RTC__H0200 2
  86:Generated_Source\PSoC4/RTC.h **** #define RTC__H0300 3
  87:Generated_Source\PSoC4/RTC.h **** #define RTC__H0400 4
  88:Generated_Source\PSoC4/RTC.h **** #define RTC__H0500 5
  89:Generated_Source\PSoC4/RTC.h **** #define RTC__H0600 6
  90:Generated_Source\PSoC4/RTC.h **** #define RTC__H0700 7
  91:Generated_Source\PSoC4/RTC.h **** #define RTC__H0800 8
  92:Generated_Source\PSoC4/RTC.h **** #define RTC__H0900 9
  93:Generated_Source\PSoC4/RTC.h **** #define RTC__H1000 10
  94:Generated_Source\PSoC4/RTC.h **** #define RTC__H1100 11
  95:Generated_Source\PSoC4/RTC.h **** #define RTC__H1200 12
  96:Generated_Source\PSoC4/RTC.h **** #define RTC__H1300 13
  97:Generated_Source\PSoC4/RTC.h **** #define RTC__H1400 14
ARM GAS  C:\Users\Petro\AppData\Local\Temp\cck8ZwW8.s 			page 11


  98:Generated_Source\PSoC4/RTC.h **** #define RTC__H1500 15
  99:Generated_Source\PSoC4/RTC.h **** #define RTC__H1600 16
 100:Generated_Source\PSoC4/RTC.h **** #define RTC__H1700 17
 101:Generated_Source\PSoC4/RTC.h **** #define RTC__H1800 18
 102:Generated_Source\PSoC4/RTC.h **** #define RTC__H1900 19
 103:Generated_Source\PSoC4/RTC.h **** #define RTC__H2000 20
 104:Generated_Source\PSoC4/RTC.h **** #define RTC__H2100 21
 105:Generated_Source\PSoC4/RTC.h **** #define RTC__H2200 22
 106:Generated_Source\PSoC4/RTC.h **** #define RTC__H2300 23
 107:Generated_Source\PSoC4/RTC.h **** 
 108:Generated_Source\PSoC4/RTC.h **** /* DST DayOfWeek setting constants */
 109:Generated_Source\PSoC4/RTC.h **** #define RTC__SUNDAY 1
 110:Generated_Source\PSoC4/RTC.h **** #define RTC__MONDAY 2
 111:Generated_Source\PSoC4/RTC.h **** #define RTC__TUESDAY 3
 112:Generated_Source\PSoC4/RTC.h **** #define RTC__WEDNESDAY 4
 113:Generated_Source\PSoC4/RTC.h **** #define RTC__THURSDAY 5
 114:Generated_Source\PSoC4/RTC.h **** #define RTC__FRIDAY 6
 115:Generated_Source\PSoC4/RTC.h **** #define RTC__SATURDAY 7
 116:Generated_Source\PSoC4/RTC.h **** 
 117:Generated_Source\PSoC4/RTC.h **** /* DST Month setting constants */
 118:Generated_Source\PSoC4/RTC.h **** #define RTC__JAN 1
 119:Generated_Source\PSoC4/RTC.h **** #define RTC__FEB 2
 120:Generated_Source\PSoC4/RTC.h **** #define RTC__MAR 3
 121:Generated_Source\PSoC4/RTC.h **** #define RTC__APR 4
 122:Generated_Source\PSoC4/RTC.h **** #define RTC__MAY 5
 123:Generated_Source\PSoC4/RTC.h **** #define RTC__JUN 6
 124:Generated_Source\PSoC4/RTC.h **** #define RTC__JUL 7
 125:Generated_Source\PSoC4/RTC.h **** #define RTC__AUG 8
 126:Generated_Source\PSoC4/RTC.h **** #define RTC__SEP 9
 127:Generated_Source\PSoC4/RTC.h **** #define RTC__OCT 10
 128:Generated_Source\PSoC4/RTC.h **** #define RTC__NOV 11
 129:Generated_Source\PSoC4/RTC.h **** #define RTC__DEC 12
 130:Generated_Source\PSoC4/RTC.h **** 
 131:Generated_Source\PSoC4/RTC.h **** /* DST WeekOfMonth setting constants */
 132:Generated_Source\PSoC4/RTC.h **** #define RTC__FIRST 1
 133:Generated_Source\PSoC4/RTC.h **** #define RTC__SECOND 2
 134:Generated_Source\PSoC4/RTC.h **** #define RTC__THIRD 3
 135:Generated_Source\PSoC4/RTC.h **** #define RTC__FOURTH 4
 136:Generated_Source\PSoC4/RTC.h **** #define RTC__FIFTH 5
 137:Generated_Source\PSoC4/RTC.h **** #define RTC__LAST 6
 138:Generated_Source\PSoC4/RTC.h **** 
 139:Generated_Source\PSoC4/RTC.h **** 
 140:Generated_Source\PSoC4/RTC.h **** #define RTC_INITIAL_DATA_FORMAT     (0u)
 141:Generated_Source\PSoC4/RTC.h **** #define RTC_INITIAL_TIME_FORMAT     (0u)
 142:Generated_Source\PSoC4/RTC.h **** #define RTC_INITIAL_UPDATE_MODE     (0u)
 143:Generated_Source\PSoC4/RTC.h **** #define RTC_INITIAL_SECOND          (0u)
 144:Generated_Source\PSoC4/RTC.h **** #define RTC_INITIAL_MINUTE          (16u)
 145:Generated_Source\PSoC4/RTC.h **** #define RTC_INITIAL_HOUR            (10u)
 146:Generated_Source\PSoC4/RTC.h **** #define RTC_INITIAL_DAY             (9u)
 147:Generated_Source\PSoC4/RTC.h **** #define RTC_INITIAL_MONTH           (8u)
 148:Generated_Source\PSoC4/RTC.h **** #define RTC_INITIAL_YEAR            (2016u)
 149:Generated_Source\PSoC4/RTC.h **** 
 150:Generated_Source\PSoC4/RTC.h **** #define RTC_INITIAL_ALARM_STATUS    (0u)
 151:Generated_Source\PSoC4/RTC.h **** 
 152:Generated_Source\PSoC4/RTC.h **** #define RTC_INITIAL_DST_STATUS      (0u)
 153:Generated_Source\PSoC4/RTC.h **** #define RTC_INITIAL_DST_DATE_TYPE   (0u)
 154:Generated_Source\PSoC4/RTC.h **** #define RTC_INITIAL_DST_START_MONTH (3uL)
ARM GAS  C:\Users\Petro\AppData\Local\Temp\cck8ZwW8.s 			page 12


 155:Generated_Source\PSoC4/RTC.h **** #define RTC_INITIAL_DST_START_WOM   (6uL)
 156:Generated_Source\PSoC4/RTC.h **** #define RTC_INITIAL_DST_START_DOM   (22uL)
 157:Generated_Source\PSoC4/RTC.h **** #define RTC_INITIAL_DST_START_DOW   (1uL)
 158:Generated_Source\PSoC4/RTC.h **** #define RTC_INITIAL_DST_START_HRS   (0uL)
 159:Generated_Source\PSoC4/RTC.h **** #define RTC_INITIAL_DST_STOP_MONTH  (10uL)
 160:Generated_Source\PSoC4/RTC.h **** #define RTC_INITIAL_DST_STOP_DOM    (22uL)
 161:Generated_Source\PSoC4/RTC.h **** #define RTC_INITIAL_DST_STOP_DOW    (1uL)
 162:Generated_Source\PSoC4/RTC.h **** #define RTC_INITIAL_DST_STOP_WOM    (6uL)
 163:Generated_Source\PSoC4/RTC.h **** #define RTC_INITIAL_DST_STOP_HRS    (0uL)
 164:Generated_Source\PSoC4/RTC.h **** 
 165:Generated_Source\PSoC4/RTC.h **** /* Day of week definitions */
 166:Generated_Source\PSoC4/RTC.h **** #define RTC_SUNDAY     (RTC__SUNDAY)
 167:Generated_Source\PSoC4/RTC.h **** #define RTC_MONDAY     (RTC__MONDAY)
 168:Generated_Source\PSoC4/RTC.h **** #define RTC_TUESDAY    (RTC__TUESDAY)
 169:Generated_Source\PSoC4/RTC.h **** #define RTC_WEDNESDAY  (RTC__WEDNESDAY)
 170:Generated_Source\PSoC4/RTC.h **** #define RTC_THURSDAY   (RTC__THURSDAY)
 171:Generated_Source\PSoC4/RTC.h **** #define RTC_FRIDAY     (RTC__FRIDAY)
 172:Generated_Source\PSoC4/RTC.h **** #define RTC_SATURDAY   (RTC__SATURDAY)
 173:Generated_Source\PSoC4/RTC.h **** 
 174:Generated_Source\PSoC4/RTC.h **** /* DST WeekOfMonth setting constants definitions */
 175:Generated_Source\PSoC4/RTC.h **** #define RTC_FIRST      (RTC__FIRST)
 176:Generated_Source\PSoC4/RTC.h **** #define RTC_SECOND     (RTC__SECOND)
 177:Generated_Source\PSoC4/RTC.h **** #define RTC_THIRD      (RTC__THIRD)
 178:Generated_Source\PSoC4/RTC.h **** #define RTC_FOURTH     (RTC__FOURTH)
 179:Generated_Source\PSoC4/RTC.h **** #define RTC_FIFTH      (RTC__FIFTH)
 180:Generated_Source\PSoC4/RTC.h **** #define RTC_LAST       (RTC__LAST)
 181:Generated_Source\PSoC4/RTC.h **** 
 182:Generated_Source\PSoC4/RTC.h **** /* Month definitions */
 183:Generated_Source\PSoC4/RTC.h **** #define RTC_JANUARY    (RTC__JAN)
 184:Generated_Source\PSoC4/RTC.h **** #define RTC_FEBRUARY   (RTC__FEB)
 185:Generated_Source\PSoC4/RTC.h **** #define RTC_MARCH      (RTC__MAR)
 186:Generated_Source\PSoC4/RTC.h **** #define RTC_APRIL      (RTC__APR)
 187:Generated_Source\PSoC4/RTC.h **** #define RTC_MAY        (RTC__MAY)
 188:Generated_Source\PSoC4/RTC.h **** #define RTC_JUNE       (RTC__JUN)
 189:Generated_Source\PSoC4/RTC.h **** #define RTC_JULY       (RTC__JUL)
 190:Generated_Source\PSoC4/RTC.h **** #define RTC_AUGUST     (RTC__AUG)
 191:Generated_Source\PSoC4/RTC.h **** #define RTC_SEPTEMBER  (RTC__SEP)
 192:Generated_Source\PSoC4/RTC.h **** #define RTC_OCTOBER    (RTC__OCT)
 193:Generated_Source\PSoC4/RTC.h **** #define RTC_NOVEMBER   (RTC__NOV)
 194:Generated_Source\PSoC4/RTC.h **** #define RTC_DECEMBER   (RTC__DEC)
 195:Generated_Source\PSoC4/RTC.h **** 
 196:Generated_Source\PSoC4/RTC.h **** #define RTC_DAYS_PER_WEEK       (7u)
 197:Generated_Source\PSoC4/RTC.h **** 
 198:Generated_Source\PSoC4/RTC.h **** /* Number of days in month definitions */
 199:Generated_Source\PSoC4/RTC.h **** #define RTC_DAYS_IN_JANUARY     (31u)
 200:Generated_Source\PSoC4/RTC.h **** #define RTC_DAYS_IN_FEBRUARY    (28u)
 201:Generated_Source\PSoC4/RTC.h **** #define RTC_DAYS_IN_MARCH       (31u)
 202:Generated_Source\PSoC4/RTC.h **** #define RTC_DAYS_IN_APRIL       (30u)
 203:Generated_Source\PSoC4/RTC.h **** #define RTC_DAYS_IN_MAY         (31u)
 204:Generated_Source\PSoC4/RTC.h **** #define RTC_DAYS_IN_JUNE        (30u)
 205:Generated_Source\PSoC4/RTC.h **** #define RTC_DAYS_IN_JULY        (31u)
 206:Generated_Source\PSoC4/RTC.h **** #define RTC_DAYS_IN_AUGUST      (31u)
 207:Generated_Source\PSoC4/RTC.h **** #define RTC_DAYS_IN_SEPTEMBER   (30u)
 208:Generated_Source\PSoC4/RTC.h **** #define RTC_DAYS_IN_OCTOBER     (31u)
 209:Generated_Source\PSoC4/RTC.h **** #define RTC_DAYS_IN_NOVEMBER    (30u)
 210:Generated_Source\PSoC4/RTC.h **** #define RTC_DAYS_IN_DECEMBER    (31u)
 211:Generated_Source\PSoC4/RTC.h **** 
ARM GAS  C:\Users\Petro\AppData\Local\Temp\cck8ZwW8.s 			page 13


 212:Generated_Source\PSoC4/RTC.h **** #define RTC_MONTHS_PER_YEAR     (12uL)
 213:Generated_Source\PSoC4/RTC.h **** 
 214:Generated_Source\PSoC4/RTC.h **** #define RTC_HOURS_PER_DAY       (24uL)
 215:Generated_Source\PSoC4/RTC.h **** #define RTC_HOURS_PER_HALF_DAY  (12uL)
 216:Generated_Source\PSoC4/RTC.h **** 
 217:Generated_Source\PSoC4/RTC.h **** #define RTC_SECONDS_PER_MINUTE  (60uL)
 218:Generated_Source\PSoC4/RTC.h **** #define RTC_SECONDS_PER_HOUR    (3600uL)
 219:Generated_Source\PSoC4/RTC.h **** #define RTC_SECONDS_PER_DAY     (24uL * 3600uL)
 220:Generated_Source\PSoC4/RTC.h **** 
 221:Generated_Source\PSoC4/RTC.h **** #define RTC_SECONDS_PER_LEAP_YEAR    (366uL * 24uL * 3600uL)
 222:Generated_Source\PSoC4/RTC.h **** #define RTC_SECONDS_PER_NONLEAP_YEAR (365uL * 24uL * 3600uL)
 223:Generated_Source\PSoC4/RTC.h **** 
 224:Generated_Source\PSoC4/RTC.h **** #define RTC_UNIX_TIME_PM   ((12uL * 3600uL) + 1uL)
 225:Generated_Source\PSoC4/RTC.h **** 
 226:Generated_Source\PSoC4/RTC.h **** /* AM/PM status definitions */
 227:Generated_Source\PSoC4/RTC.h **** #define RTC_AM                 (0u)
 228:Generated_Source\PSoC4/RTC.h **** #define RTC_PM                 (1u)
 229:Generated_Source\PSoC4/RTC.h **** 
 230:Generated_Source\PSoC4/RTC.h **** /* Time format definitions */
 231:Generated_Source\PSoC4/RTC.h **** #define RTC_12_HOURS_FORMAT    (RTC__HOUR_12)
 232:Generated_Source\PSoC4/RTC.h **** #define RTC_24_HOURS_FORMAT    (RTC__HOUR_24)
 233:Generated_Source\PSoC4/RTC.h **** 
 234:Generated_Source\PSoC4/RTC.h **** /* UNIX time begins in 1970 year.  */
 235:Generated_Source\PSoC4/RTC.h **** #define RTC_YEAR_0             (1970u)
 236:Generated_Source\PSoC4/RTC.h **** 
 237:Generated_Source\PSoC4/RTC.h **** /* Definition of date register fields */
 238:Generated_Source\PSoC4/RTC.h **** #if(RTC_INITIAL_DATA_FORMAT == RTC__MM_DD_YYYY)
 239:Generated_Source\PSoC4/RTC.h ****     #define RTC_10_MONTH_OFFSET   (28u)
 240:Generated_Source\PSoC4/RTC.h ****     #define RTC_MONTH_OFFSET      (24u)
 241:Generated_Source\PSoC4/RTC.h ****     #define RTC_10_DAY_OFFSET     (20u)
 242:Generated_Source\PSoC4/RTC.h ****     #define RTC_DAY_OFFSET        (16u)
 243:Generated_Source\PSoC4/RTC.h ****     #define RTC_1000_YEAR_OFFSET  (12u)
 244:Generated_Source\PSoC4/RTC.h ****     #define RTC_100_YEAR_OFFSET   (8u)
 245:Generated_Source\PSoC4/RTC.h ****     #define RTC_10_YEAR_OFFSET    (4u)
 246:Generated_Source\PSoC4/RTC.h ****     #define RTC_YEAR_OFFSET       (0u)
 247:Generated_Source\PSoC4/RTC.h **** #elif(RTC_INITIAL_DATA_FORMAT == RTC__DD_MM_YYYY)
 248:Generated_Source\PSoC4/RTC.h ****     #define RTC_10_MONTH_OFFSET   (20u)
 249:Generated_Source\PSoC4/RTC.h ****     #define RTC_MONTH_OFFSET      (16u)
 250:Generated_Source\PSoC4/RTC.h ****     #define RTC_10_DAY_OFFSET     (28u)
 251:Generated_Source\PSoC4/RTC.h ****     #define RTC_DAY_OFFSET        (24u)
 252:Generated_Source\PSoC4/RTC.h ****     #define RTC_1000_YEAR_OFFSET  (12u)
 253:Generated_Source\PSoC4/RTC.h ****     #define RTC_100_YEAR_OFFSET   (8u)
 254:Generated_Source\PSoC4/RTC.h ****     #define RTC_10_YEAR_OFFSET    (4u)
 255:Generated_Source\PSoC4/RTC.h ****     #define RTC_YEAR_OFFSET       (0u)
 256:Generated_Source\PSoC4/RTC.h **** #else
 257:Generated_Source\PSoC4/RTC.h ****     #define RTC_10_MONTH_OFFSET   (12u)
 258:Generated_Source\PSoC4/RTC.h ****     #define RTC_MONTH_OFFSET      (8u)
 259:Generated_Source\PSoC4/RTC.h ****     #define RTC_10_DAY_OFFSET     (4u)
 260:Generated_Source\PSoC4/RTC.h ****     #define RTC_DAY_OFFSET        (0u)
 261:Generated_Source\PSoC4/RTC.h ****     #define RTC_1000_YEAR_OFFSET  (28u)
 262:Generated_Source\PSoC4/RTC.h ****     #define RTC_100_YEAR_OFFSET   (24u)
 263:Generated_Source\PSoC4/RTC.h ****     #define RTC_10_YEAR_OFFSET    (20u)
 264:Generated_Source\PSoC4/RTC.h ****     #define RTC_YEAR_OFFSET       (16u)
 265:Generated_Source\PSoC4/RTC.h **** #endif /* (RTC_INITIAL_DATA_FORMAT == RTC__MM_DD_YYYY) */
 266:Generated_Source\PSoC4/RTC.h **** 
 267:Generated_Source\PSoC4/RTC.h **** #define RTC_10_MONTH_MASK          (0x00000001uL << RTC_10_MONTH_OFFSET)
 268:Generated_Source\PSoC4/RTC.h **** #define RTC_MONTH_MASK             (0x0000000FuL << RTC_MONTH_OFFSET)
ARM GAS  C:\Users\Petro\AppData\Local\Temp\cck8ZwW8.s 			page 14


 269:Generated_Source\PSoC4/RTC.h **** #define RTC_10_DAY_MASK            (0x00000003uL << RTC_10_DAY_OFFSET)
 270:Generated_Source\PSoC4/RTC.h **** #define RTC_DAY_MASK               (0x0000000FuL << RTC_DAY_OFFSET)
 271:Generated_Source\PSoC4/RTC.h **** #define RTC_1000_YEAR_MASK         (0x00000003uL << RTC_1000_YEAR_OFFSET)
 272:Generated_Source\PSoC4/RTC.h **** #define RTC_100_YEAR_MASK          (0x0000000FuL << RTC_100_YEAR_OFFSET)
 273:Generated_Source\PSoC4/RTC.h **** #define RTC_10_YEAR_MASK           (0x0000000FuL << RTC_10_YEAR_OFFSET)
 274:Generated_Source\PSoC4/RTC.h **** #define RTC_YEAR_MASK              (0x0000000FuL << RTC_YEAR_OFFSET)
 275:Generated_Source\PSoC4/RTC.h **** 
 276:Generated_Source\PSoC4/RTC.h **** #define  RTC_MONTH_FULL_MASK       (RTC_10_MONTH_MASK  | RTC_MONTH_MASK)
 277:Generated_Source\PSoC4/RTC.h **** #define  RTC_DAY_FULL_MASK         (RTC_10_DAY_MASK    | RTC_DAY_MASK)
 278:Generated_Source\PSoC4/RTC.h **** #define  RTC_YEAR_FULL_MASK        (RTC_1000_YEAR_MASK | RTC_100_YEAR_MASK |\
 279:Generated_Source\PSoC4/RTC.h ****                                                  RTC_10_YEAR_MASK   | RTC_YEAR_MASK)
 280:Generated_Source\PSoC4/RTC.h **** 
 281:Generated_Source\PSoC4/RTC.h **** 
 282:Generated_Source\PSoC4/RTC.h **** /* Definition of time register fields */
 283:Generated_Source\PSoC4/RTC.h **** #define RTC_TIME_FORMAT_OFFSET     (23u)
 284:Generated_Source\PSoC4/RTC.h **** #define RTC_PERIOD_OF_DAY_OFFSET   (22u)
 285:Generated_Source\PSoC4/RTC.h **** #define RTC_10_HOURS_OFFSET        (20u)
 286:Generated_Source\PSoC4/RTC.h **** #define RTC_HOURS_OFFSET           (16u)
 287:Generated_Source\PSoC4/RTC.h **** #define RTC_10_MINUTES_OFFSET      (12u)
 288:Generated_Source\PSoC4/RTC.h **** #define RTC_MINUTES_OFFSET         (8u)
 289:Generated_Source\PSoC4/RTC.h **** #define RTC_10_SECONDS_OFFSET      (4u)
 290:Generated_Source\PSoC4/RTC.h **** #define RTC_SECONDS_OFFSET         (0u)
 291:Generated_Source\PSoC4/RTC.h **** 
 292:Generated_Source\PSoC4/RTC.h **** #define RTC_TIME_FORMAT_MASK       (0x00000001uL << RTC_TIME_FORMAT_OFFSET)
 293:Generated_Source\PSoC4/RTC.h **** #define RTC_PERIOD_OF_DAY_MASK     (0x00000001uL << RTC_PERIOD_OF_DAY_OFFSET)
 294:Generated_Source\PSoC4/RTC.h **** #define RTC_10_HOURS_MASK          (0x00000003uL << RTC_10_HOURS_OFFSET)
 295:Generated_Source\PSoC4/RTC.h **** #define RTC_HOURS_MASK             (0x0000000FuL << RTC_HOURS_OFFSET)
 296:Generated_Source\PSoC4/RTC.h **** #define RTC_10_MINUTES_MASK        (0x00000007uL << RTC_10_MINUTES_OFFSET)
 297:Generated_Source\PSoC4/RTC.h **** #define RTC_MINUTES_MASK           (0x0000000FuL << RTC_MINUTES_OFFSET)
 298:Generated_Source\PSoC4/RTC.h **** #define RTC_10_SECONDS_MASK        (0x00000007uL << RTC_10_SECONDS_OFFSET)
 299:Generated_Source\PSoC4/RTC.h **** #define RTC_SECONDS_MASK           (0x0000000FuL << RTC_SECONDS_OFFSET)
 300:Generated_Source\PSoC4/RTC.h **** 
 301:Generated_Source\PSoC4/RTC.h **** #define RTC_HOURS_FULL_MASK        (RTC_10_HOURS_MASK   | RTC_HOURS_MASK)
 302:Generated_Source\PSoC4/RTC.h **** #define RTC_MINUTES_FULL_MASK      (RTC_10_MINUTES_MASK | RTC_MINUTES_MASK)
 303:Generated_Source\PSoC4/RTC.h **** #define RTC_SECONDS_FULL_MASK      (RTC_10_SECONDS_MASK | RTC_SECONDS_MASK)
 304:Generated_Source\PSoC4/RTC.h **** 
 305:Generated_Source\PSoC4/RTC.h **** #define RTC_ALARM_SEC_MASK         (0x00000001uL)
 306:Generated_Source\PSoC4/RTC.h **** #define RTC_ALARM_MIN_MASK         (0x00000002uL)
 307:Generated_Source\PSoC4/RTC.h **** #define RTC_ALARM_HOUR_MASK        (0x00000004uL)
 308:Generated_Source\PSoC4/RTC.h **** #define RTC_ALARM_DAYOFWEEK_MASK   (0x00000008uL)
 309:Generated_Source\PSoC4/RTC.h **** #define RTC_ALARM_DAYOFMONTH_MASK  (0x00000010uL)
 310:Generated_Source\PSoC4/RTC.h **** #define RTC_ALARM_MONTH_MASK       (0x00000020uL)
 311:Generated_Source\PSoC4/RTC.h **** #define RTC_ALARM_YEAR_MASK        (0x00000040uL)
 312:Generated_Source\PSoC4/RTC.h **** 
 313:Generated_Source\PSoC4/RTC.h **** #define RTC_STATUS_DST_OFFSET      (1u)
 314:Generated_Source\PSoC4/RTC.h **** #define RTC_STATUS_ALARM_OFFSET    (2u)
 315:Generated_Source\PSoC4/RTC.h **** #define RTC_STATUS_LY_OFFSET       (3u)
 316:Generated_Source\PSoC4/RTC.h **** #define RTC_STATUS_AM_PM_OFFSET    (4u)
 317:Generated_Source\PSoC4/RTC.h **** 
 318:Generated_Source\PSoC4/RTC.h **** /* Definition of the RTC status values. */
 319:Generated_Source\PSoC4/RTC.h **** #define RTC_STATUS_DST             (1uL << RTC_STATUS_DST_OFFSET)
 320:Generated_Source\PSoC4/RTC.h **** #define RTC_STATUS_LY              (1uL << RTC_STATUS_LY_OFFSET)
 321:Generated_Source\PSoC4/RTC.h **** #define RTC_STATUS_AM_PM           (1uL << RTC_STATUS_AM_PM_OFFSET)
 322:Generated_Source\PSoC4/RTC.h **** 
 323:Generated_Source\PSoC4/RTC.h **** /* Number of bits per one BCD digit. */
 324:Generated_Source\PSoC4/RTC.h **** #define RTC_BCD_NUMBER_SIZE        (4u)
 325:Generated_Source\PSoC4/RTC.h **** #define RTC_BCD_ONE_DIGIT_MASK     (0x0000000FuL)
ARM GAS  C:\Users\Petro\AppData\Local\Temp\cck8ZwW8.s 			page 15


 326:Generated_Source\PSoC4/RTC.h **** 
 327:Generated_Source\PSoC4/RTC.h **** /*******************************************************************************
 328:Generated_Source\PSoC4/RTC.h **** *    Function Prototypes
 329:Generated_Source\PSoC4/RTC.h **** *******************************************************************************/
 330:Generated_Source\PSoC4/RTC.h **** /**
 331:Generated_Source\PSoC4/RTC.h **** * \addtogroup group_api
 332:Generated_Source\PSoC4/RTC.h **** * @{
 333:Generated_Source\PSoC4/RTC.h **** */
 334:Generated_Source\PSoC4/RTC.h **** void   RTC_Start(void);
 335:Generated_Source\PSoC4/RTC.h **** void   RTC_Stop(void);
 336:Generated_Source\PSoC4/RTC.h **** void   RTC_Init(void);
 337:Generated_Source\PSoC4/RTC.h **** void   RTC_SetUnixTime(uint64 unixTime);
 338:Generated_Source\PSoC4/RTC.h **** uint64 RTC_GetUnixTime(void);
 339:Generated_Source\PSoC4/RTC.h **** void   RTC_SetPeriod(uint32 ticks, uint32 refOneSecTicks);
 340:Generated_Source\PSoC4/RTC.h **** uint32 RTC_GetPeriod(void);
 341:Generated_Source\PSoC4/RTC.h **** uint32 RTC_GetRefOneSec(void);
 342:Generated_Source\PSoC4/RTC.h **** void   RTC_SetDateAndTime(uint32 inputTime, uint32 inputDate);
 343:Generated_Source\PSoC4/RTC.h **** void   RTC_GetDateAndTime(RTC_DATE_TIME* dateTime);
 344:Generated_Source\PSoC4/RTC.h **** uint32 RTC_GetTime(void);
 345:Generated_Source\PSoC4/RTC.h **** uint32 RTC_GetDate(void);
 346:Generated_Source\PSoC4/RTC.h **** void   RTC_SetAlarmDateAndTime(const RTC_DATE_TIME* alarmTime);
 347:Generated_Source\PSoC4/RTC.h **** void   RTC_GetAlarmDateAndTime(RTC_DATE_TIME* alarmTimeDate);
 348:Generated_Source\PSoC4/RTC.h **** void   RTC_SetAlarmMask(uint32 mask);
 349:Generated_Source\PSoC4/RTC.h **** uint32 RTC_GetAlarmMask(void);
 350:Generated_Source\PSoC4/RTC.h **** uint32 RTC_ReadStatus(void);
 351:Generated_Source\PSoC4/RTC.h **** uint32 RTC_GetAlarmStatus(void);
 352:Generated_Source\PSoC4/RTC.h **** void   RTC_ClearAlarmStatus(void);
 353:Generated_Source\PSoC4/RTC.h **** void   RTC_SetDSTStartTime(const RTC_DST_TIME* dstStartTime,
 354:Generated_Source\PSoC4/RTC.h ****                                               RTC_DST_DATETYPE_ENUM type);
 355:Generated_Source\PSoC4/RTC.h **** void   RTC_SetDSTStopTime(const RTC_DST_TIME* dstStopTime,
 356:Generated_Source\PSoC4/RTC.h ****                                              RTC_DST_DATETYPE_ENUM type);
 357:Generated_Source\PSoC4/RTC.h **** uint32 RTC_ConvertBCDToDec(uint32 bcdNum);
 358:Generated_Source\PSoC4/RTC.h **** uint32 RTC_ConvertDecToBCD(uint32 decNum);
 359:Generated_Source\PSoC4/RTC.h **** void   RTC_Update(void);
 360:Generated_Source\PSoC4/RTC.h **** void*  RTC_SetAlarmHandler(void (*CallbackFunction)(void));
 361:Generated_Source\PSoC4/RTC.h **** 
 362:Generated_Source\PSoC4/RTC.h **** static uint32 RTC_ConstructDate(uint32 month, uint32 day, uint32 year);
 363:Generated_Source\PSoC4/RTC.h **** static uint32 RTC_ConstructTime(uint32 timeFormat, uint32 stateAmPm, uint32 hour, uint32 min, uint3
 364:Generated_Source\PSoC4/RTC.h **** /** @} api */
 365:Generated_Source\PSoC4/RTC.h **** 
 366:Generated_Source\PSoC4/RTC.h **** static uint32 RTC_GetTimeFormat(uint32 inputTime);
 367:Generated_Source\PSoC4/RTC.h **** static uint32 RTC_SetTimeFormat(uint32 inputTime, uint32 timeFormat);
 368:Generated_Source\PSoC4/RTC.h **** 
 369:Generated_Source\PSoC4/RTC.h **** /**
 370:Generated_Source\PSoC4/RTC.h **** * \addtogroup group_api
 371:Generated_Source\PSoC4/RTC.h **** * @{
 372:Generated_Source\PSoC4/RTC.h **** */
 373:Generated_Source\PSoC4/RTC.h **** static uint32 RTC_LeapYear(uint32 year);
 374:Generated_Source\PSoC4/RTC.h **** static uint32 RTC_IsBitSet(uint32 var, uint32 mask);
 375:Generated_Source\PSoC4/RTC.h **** static uint32 RTC_GetSecond(uint32 inputTime);
 376:Generated_Source\PSoC4/RTC.h **** static uint32 RTC_GetMinutes(uint32 inputTime);
 377:Generated_Source\PSoC4/RTC.h **** static uint32 RTC_GetHours(uint32 inputTime);
 378:Generated_Source\PSoC4/RTC.h **** static uint32 RTC_GetAmPm(uint32 inputTime);
 379:Generated_Source\PSoC4/RTC.h **** static uint32 RTC_GetDay(uint32 date);
 380:Generated_Source\PSoC4/RTC.h **** static uint32 RTC_GetMonth(uint32 date);
 381:Generated_Source\PSoC4/RTC.h **** static uint32 RTC_GetYear(uint32 date);
 382:Generated_Source\PSoC4/RTC.h **** /** @} api */
ARM GAS  C:\Users\Petro\AppData\Local\Temp\cck8ZwW8.s 			page 16


 383:Generated_Source\PSoC4/RTC.h **** 
 384:Generated_Source\PSoC4/RTC.h **** static uint32 RTC_SetSecond(uint32 inputTime, uint32 inputSecond);
 385:Generated_Source\PSoC4/RTC.h **** static uint32 RTC_SetMinutes(uint32 inputTime, uint32 inputMinute);
 386:Generated_Source\PSoC4/RTC.h **** static uint32 RTC_SetHours(uint32 inputTime, uint32 inputHours);
 387:Generated_Source\PSoC4/RTC.h **** static uint32 RTC_SetAmPm(uint32 inputTime, uint32 periodOfDay);
 388:Generated_Source\PSoC4/RTC.h **** static uint32 RTC_SetDay(uint32 inputDate, uint32 inputDay);
 389:Generated_Source\PSoC4/RTC.h **** static uint32 RTC_SetMonth(uint32 inputDate, uint32 inputMonth);
 390:Generated_Source\PSoC4/RTC.h **** static uint32 RTC_SetYear(uint32 inputDate, uint32 inputYear);
 391:Generated_Source\PSoC4/RTC.h **** 
 392:Generated_Source\PSoC4/RTC.h **** uint64 RTC_ConstructUnixAlarmTime(const RTC_DATE_TIME* alarmTime, uint8 alarmCfgMask);
 393:Generated_Source\PSoC4/RTC.h **** uint64 RTC_GetDstUnixTime(const RTC_DST_TIME* dstTime);
 394:Generated_Source\PSoC4/RTC.h **** uint64 RTC_GetNexAlarmTime(uint64 curUnixTime, uint8 alarmCfgMask);
 395:Generated_Source\PSoC4/RTC.h **** 
 396:Generated_Source\PSoC4/RTC.h **** static uint32 RTC_GetNextMinSec(uint32 curVal);
 397:Generated_Source\PSoC4/RTC.h **** static uint32 RTC_GetNextHour(uint32 curVal);
 398:Generated_Source\PSoC4/RTC.h **** static uint32 RTC_GetNextDay(uint32 curYear, uint32 curMonth, uint32 curDay, uint32 alarmCfgMask);
 399:Generated_Source\PSoC4/RTC.h **** static uint32 RTC_GetNextMonth(uint32 curMonth);
 400:Generated_Source\PSoC4/RTC.h **** static uint32 RTC_GetNextYear(uint32 curYear);
 401:Generated_Source\PSoC4/RTC.h **** static uint32 RTC_GetDayOfWeek(uint32 day, uint32 month, uint32 year);
 402:Generated_Source\PSoC4/RTC.h **** 
 403:Generated_Source\PSoC4/RTC.h **** uint32 RTC_DaysInMonth(uint32 month, uint32 year);
 404:Generated_Source\PSoC4/RTC.h **** uint32 RTC_DaysBeforeMonth(uint32 month, uint32 year);
 405:Generated_Source\PSoC4/RTC.h **** 
 406:Generated_Source\PSoC4/RTC.h **** /**
 407:Generated_Source\PSoC4/RTC.h **** * \addtogroup group_api
 408:Generated_Source\PSoC4/RTC.h **** * @{
 409:Generated_Source\PSoC4/RTC.h **** */
 410:Generated_Source\PSoC4/RTC.h **** void   RTC_UnixToDateTime(RTC_DATE_TIME* dateTime, uint64 unixTime, uint32 timeFormat);
 411:Generated_Source\PSoC4/RTC.h **** uint64 RTC_DateTimeToUnix(uint32 inputDate, uint32 inputTime);
 412:Generated_Source\PSoC4/RTC.h **** /** @} api */
 413:Generated_Source\PSoC4/RTC.h **** 
 414:Generated_Source\PSoC4/RTC.h **** uint32 RTC_RelativeToFixed(uint32 dayOfWeek, uint32 weekOfMonth, uint32 month, uint32 year);
 415:Generated_Source\PSoC4/RTC.h **** 
 416:Generated_Source\PSoC4/RTC.h **** 
 417:Generated_Source\PSoC4/RTC.h **** #if defined(CYDEV_RTC_SOURCE_WDT)
 418:Generated_Source\PSoC4/RTC.h ****     #if((0u != CYDEV_WDT_GENERATE_ISR) && (0u == RTC_INITIAL_UPDATE_MODE))
 419:Generated_Source\PSoC4/RTC.h ****         static void RTC_CySysRtcSetCallback(uint32 wdtNumber);
 420:Generated_Source\PSoC4/RTC.h ****         static void RTC_CySysRtcResetCallback(uint32 wdtNumber);
 421:Generated_Source\PSoC4/RTC.h ****     #endif /* ((0u != CYDEV_WDT_GENERATE_ISR) && (0u == RTC_INITIAL_UPDATE_MODE)) */
 422:Generated_Source\PSoC4/RTC.h **** #endif /* (CYDEV_RTC_SOURCE_WDT) */
 423:Generated_Source\PSoC4/RTC.h **** 
 424:Generated_Source\PSoC4/RTC.h **** /*******************************************************************************
 425:Generated_Source\PSoC4/RTC.h **** * Function Name: RTC_IsBitSet
 426:Generated_Source\PSoC4/RTC.h **** ****************************************************************************//**
 427:Generated_Source\PSoC4/RTC.h **** *
 428:Generated_Source\PSoC4/RTC.h **** * \brief
 429:Generated_Source\PSoC4/RTC.h **** *  Checks the state of a bit passed through parameter.
 430:Generated_Source\PSoC4/RTC.h **** *
 431:Generated_Source\PSoC4/RTC.h **** * \param
 432:Generated_Source\PSoC4/RTC.h **** *  var The variable to be checked.
 433:Generated_Source\PSoC4/RTC.h **** * \param
 434:Generated_Source\PSoC4/RTC.h **** *  mask The mask for a bit to be checked.
 435:Generated_Source\PSoC4/RTC.h **** *
 436:Generated_Source\PSoC4/RTC.h **** * \return
 437:Generated_Source\PSoC4/RTC.h **** *  0u - Bit is not set.
 438:Generated_Source\PSoC4/RTC.h **** * \return
 439:Generated_Source\PSoC4/RTC.h **** *  1u - Bit is set.
ARM GAS  C:\Users\Petro\AppData\Local\Temp\cck8ZwW8.s 			page 17


 440:Generated_Source\PSoC4/RTC.h **** *
 441:Generated_Source\PSoC4/RTC.h **** *******************************************************************************/
 442:Generated_Source\PSoC4/RTC.h **** static CY_INLINE uint32 RTC_IsBitSet(uint32 var, uint32 mask)
 443:Generated_Source\PSoC4/RTC.h **** {
 444:Generated_Source\PSoC4/RTC.h ****     return ((mask == (var & mask)) ? 1Lu : 0Lu);
 445:Generated_Source\PSoC4/RTC.h **** }
 446:Generated_Source\PSoC4/RTC.h **** 
 447:Generated_Source\PSoC4/RTC.h **** 
 448:Generated_Source\PSoC4/RTC.h **** /*******************************************************************************
 449:Generated_Source\PSoC4/RTC.h **** * Function Name: RTC_LeapYear
 450:Generated_Source\PSoC4/RTC.h **** ****************************************************************************//**
 451:Generated_Source\PSoC4/RTC.h **** *
 452:Generated_Source\PSoC4/RTC.h **** * \brief
 453:Generated_Source\PSoC4/RTC.h **** * Checks whether the year passed through the parameter is
 454:Generated_Source\PSoC4/RTC.h **** * leap or no.
 455:Generated_Source\PSoC4/RTC.h **** *
 456:Generated_Source\PSoC4/RTC.h **** * \param
 457:Generated_Source\PSoC4/RTC.h **** *  year The year to be checked.
 458:Generated_Source\PSoC4/RTC.h **** *
 459:Generated_Source\PSoC4/RTC.h **** *
 460:Generated_Source\PSoC4/RTC.h **** * \return
 461:Generated_Source\PSoC4/RTC.h **** *  0u - The year is not leap.
 462:Generated_Source\PSoC4/RTC.h **** * \return
 463:Generated_Source\PSoC4/RTC.h **** *  1u - The year is leap.
 464:Generated_Source\PSoC4/RTC.h **** *
 465:Generated_Source\PSoC4/RTC.h **** *******************************************************************************/
 466:Generated_Source\PSoC4/RTC.h **** static CY_INLINE uint32 RTC_LeapYear(uint32 year)
 467:Generated_Source\PSoC4/RTC.h **** {
 468:Generated_Source\PSoC4/RTC.h ****     uint32 retVal;
 469:Generated_Source\PSoC4/RTC.h **** 
 470:Generated_Source\PSoC4/RTC.h ****     if(((0u == (year % 4Lu)) && (0u != (year % 100Lu))) || (0u == (year % 400Lu)))
 471:Generated_Source\PSoC4/RTC.h ****     {
 472:Generated_Source\PSoC4/RTC.h ****         retVal = 1uL;
 473:Generated_Source\PSoC4/RTC.h ****     }
 474:Generated_Source\PSoC4/RTC.h ****     else
 475:Generated_Source\PSoC4/RTC.h ****     {
 476:Generated_Source\PSoC4/RTC.h ****         retVal = 0uL;
 477:Generated_Source\PSoC4/RTC.h ****     }
 478:Generated_Source\PSoC4/RTC.h **** 
 479:Generated_Source\PSoC4/RTC.h ****     return(retVal);
 480:Generated_Source\PSoC4/RTC.h **** }
 481:Generated_Source\PSoC4/RTC.h **** 
 482:Generated_Source\PSoC4/RTC.h **** 
 483:Generated_Source\PSoC4/RTC.h **** /*******************************************************************************
 484:Generated_Source\PSoC4/RTC.h **** * Function Name: RTC_GetSecond
 485:Generated_Source\PSoC4/RTC.h **** ****************************************************************************//**
 486:Generated_Source\PSoC4/RTC.h **** *
 487:Generated_Source\PSoC4/RTC.h **** * \brief
 488:Generated_Source\PSoC4/RTC.h **** *  Returns the seconds value from the time value that is passed as a/the parameter.
 489:Generated_Source\PSoC4/RTC.h **** *
 490:Generated_Source\PSoC4/RTC.h **** * \param
 491:Generated_Source\PSoC4/RTC.h **** *  time The time value.
 492:Generated_Source\PSoC4/RTC.h **** *
 493:Generated_Source\PSoC4/RTC.h **** * \return
 494:Generated_Source\PSoC4/RTC.h **** *  The seconds value.
 495:Generated_Source\PSoC4/RTC.h **** *
 496:Generated_Source\PSoC4/RTC.h **** *******************************************************************************/
ARM GAS  C:\Users\Petro\AppData\Local\Temp\cck8ZwW8.s 			page 18


 497:Generated_Source\PSoC4/RTC.h **** static CY_INLINE uint32 RTC_GetSecond(uint32 inputTime)
 498:Generated_Source\PSoC4/RTC.h **** {
 499:Generated_Source\PSoC4/RTC.h ****     uint32 retVal;
 500:Generated_Source\PSoC4/RTC.h **** 
 501:Generated_Source\PSoC4/RTC.h ****     retVal  = ((inputTime & RTC_10_SECONDS_MASK) >> RTC_10_SECONDS_OFFSET) * 10u;
 502:Generated_Source\PSoC4/RTC.h ****     retVal += (inputTime & RTC_SECONDS_MASK) >> RTC_SECONDS_OFFSET;
 503:Generated_Source\PSoC4/RTC.h **** 
 504:Generated_Source\PSoC4/RTC.h ****     return (retVal);
 505:Generated_Source\PSoC4/RTC.h **** }
 506:Generated_Source\PSoC4/RTC.h **** 
 507:Generated_Source\PSoC4/RTC.h **** 
 508:Generated_Source\PSoC4/RTC.h **** /*******************************************************************************
 509:Generated_Source\PSoC4/RTC.h **** * Function Name: RTC_GetMinutes
 510:Generated_Source\PSoC4/RTC.h **** ****************************************************************************//**
 511:Generated_Source\PSoC4/RTC.h **** *
 512:Generated_Source\PSoC4/RTC.h **** * \brief
 513:Generated_Source\PSoC4/RTC.h **** *  Returns the minutes value from the time value that is passed as a/the 
 514:Generated_Source\PSoC4/RTC.h **** * parameter.
 515:Generated_Source\PSoC4/RTC.h **** *
 516:Generated_Source\PSoC4/RTC.h **** * \param
 517:Generated_Source\PSoC4/RTC.h **** *  time The time value.
 518:Generated_Source\PSoC4/RTC.h **** *
 519:Generated_Source\PSoC4/RTC.h **** * \return
 520:Generated_Source\PSoC4/RTC.h **** *  The minutes value.
 521:Generated_Source\PSoC4/RTC.h **** *
 522:Generated_Source\PSoC4/RTC.h **** *******************************************************************************/
 523:Generated_Source\PSoC4/RTC.h **** static CY_INLINE uint32 RTC_GetMinutes(uint32 inputTime)
 524:Generated_Source\PSoC4/RTC.h **** {
 525:Generated_Source\PSoC4/RTC.h ****     uint32 retVal;
 526:Generated_Source\PSoC4/RTC.h **** 
 527:Generated_Source\PSoC4/RTC.h ****     retVal  = ((inputTime & RTC_10_MINUTES_MASK) >> RTC_10_MINUTES_OFFSET) * 10u;
 528:Generated_Source\PSoC4/RTC.h ****     retVal += (inputTime & RTC_MINUTES_MASK) >> RTC_MINUTES_OFFSET;
 529:Generated_Source\PSoC4/RTC.h **** 
 530:Generated_Source\PSoC4/RTC.h ****     return (retVal);
 531:Generated_Source\PSoC4/RTC.h **** }
 532:Generated_Source\PSoC4/RTC.h **** 
 533:Generated_Source\PSoC4/RTC.h **** 
 534:Generated_Source\PSoC4/RTC.h **** /*******************************************************************************
 535:Generated_Source\PSoC4/RTC.h **** * Function Name: RTC_GetHours
 536:Generated_Source\PSoC4/RTC.h **** ****************************************************************************//**
 537:Generated_Source\PSoC4/RTC.h **** *
 538:Generated_Source\PSoC4/RTC.h **** * \brief
 539:Generated_Source\PSoC4/RTC.h **** *  Returns the hours value from the time value that is passed as a/the parameter.
 540:Generated_Source\PSoC4/RTC.h **** *
 541:Generated_Source\PSoC4/RTC.h **** * \param
 542:Generated_Source\PSoC4/RTC.h **** *  time The time value.
 543:Generated_Source\PSoC4/RTC.h **** *
 544:Generated_Source\PSoC4/RTC.h **** * \return
 545:Generated_Source\PSoC4/RTC.h **** *  The hours value.
 546:Generated_Source\PSoC4/RTC.h **** *
 547:Generated_Source\PSoC4/RTC.h **** *******************************************************************************/
 548:Generated_Source\PSoC4/RTC.h **** static CY_INLINE uint32 RTC_GetHours(uint32 inputTime)
 549:Generated_Source\PSoC4/RTC.h **** {
 550:Generated_Source\PSoC4/RTC.h ****     uint32 retVal;
 551:Generated_Source\PSoC4/RTC.h **** 
 552:Generated_Source\PSoC4/RTC.h ****     retVal  = ((inputTime & RTC_10_HOURS_MASK) >> RTC_10_HOURS_OFFSET) * 10u;
 324              		.loc 2 552 0
ARM GAS  C:\Users\Petro\AppData\Local\Temp\cck8ZwW8.s 			page 19


 325 000c 0A24     		mov	r4, #10
 326              	.LBE9:
 327              	.LBE8:
 328              	.LBB14:
 329              	.LBB15:
 527:Generated_Source\PSoC4/RTC.h ****     retVal += (inputTime & RTC_MINUTES_MASK) >> RTC_MINUTES_OFFSET;
 330              		.loc 2 527 0
 331 000e 4304     		lsl	r3, r0, #17
 332 0010 5B0F     		lsr	r3, r3, #29
 333 0012 6343     		mul	r3, r4
 334 0014 191C     		mov	r1, r3
 335              	.LBE15:
 336              	.LBE14:
 337              	.LBB17:
 338              	.LBB10:
 339              		.loc 2 552 0
 340 0016 8202     		lsl	r2, r0, #10
 341 0018 920F     		lsr	r2, r2, #30
 342 001a 6243     		mul	r2, r4
 343              	.LBE10:
 344              	.LBE17:
 345              	.LBB18:
 346              	.LBB16:
 528:Generated_Source\PSoC4/RTC.h **** 
 347              		.loc 2 528 0
 348 001c 0305     		lsl	r3, r0, #20
 349 001e 1B0F     		lsr	r3, r3, #28
 350 0020 CB18     		add	r3, r1, r3
 351              	.LBE16:
 352              	.LBE18:
 353              	.LBB19:
 354              	.LBB20:
 502:Generated_Source\PSoC4/RTC.h **** 
 355              		.loc 2 502 0
 356 0022 0F21     		mov	r1, #15
 357              	.LBE20:
 358              	.LBE19:
 359              	.LBB23:
 360              	.LBB11:
 361              		.loc 2 552 0
 362 0024 171C     		mov	r7, r2
 363              	.LVL37:
 364              	.LBE11:
 365              	.LBE23:
 366              	.LBB24:
 367              	.LBB21:
 501:Generated_Source\PSoC4/RTC.h ****     retVal += (inputTime & RTC_SECONDS_MASK) >> RTC_SECONDS_OFFSET;
 368              		.loc 2 501 0
 369 0026 4606     		lsl	r6, r0, #25
 370 0028 760F     		lsr	r6, r6, #29
 371 002a 6643     		mul	r6, r4
 372              	.LVL38:
 373              	.LBE21:
 374              	.LBE24:
 146:lib_Display/display.c ****     sprintf(buff, "%02lu:%02lu:%02lu", RTC_GetHours(time),RTC_GetMinutes(time), RTC_GetSecond(time)
 375              		.loc 1 146 0
 376 002c 0A4D     		ldr	r5, .L21+4
ARM GAS  C:\Users\Petro\AppData\Local\Temp\cck8ZwW8.s 			page 20


 377              	.LBB25:
 378              	.LBB12:
 553:Generated_Source\PSoC4/RTC.h ****     retVal += (inputTime & RTC_HOURS_MASK) >> RTC_HOURS_OFFSET;
 379              		.loc 2 553 0
 380 002e 0203     		lsl	r2, r0, #12
 381              	.LVL39:
 382              	.LBE12:
 383              	.LBE25:
 384              	.LBB26:
 385              	.LBB22:
 502:Generated_Source\PSoC4/RTC.h **** 
 386              		.loc 2 502 0
 387 0030 0840     		and	r0, r1
 388              	.LVL40:
 389 0032 3018     		add	r0, r6, r0
 390              	.LVL41:
 391              	.LBE22:
 392              	.LBE26:
 393              	.LBB27:
 394              	.LBB13:
 395              		.loc 2 553 0
 396 0034 120F     		lsr	r2, r2, #28
 397 0036 BA18     		add	r2, r7, r2
 398              	.LBE13:
 399              	.LBE27:
 400              		.loc 1 146 0
 401 0038 0090     		str	r0, [sp]
 402 003a 0849     		ldr	r1, .L21+8
 403 003c 281C     		mov	r0, r5
 404              	.LVL42:
 405 003e FFF7FEFF 		bl	sprintf
 406              	.LVL43:
 147:lib_Display/display.c ****     print(buff,10,0);
 407              		.loc 1 147 0
 408 0042 281C     		mov	r0, r5
 409 0044 211C     		mov	r1, r4
 410 0046 0022     		mov	r2, #0
 411 0048 FFF7FEFF 		bl	print
 412              	.LVL44:
 148:lib_Display/display.c ****     update();
 149:lib_Display/display.c ****     
 150:lib_Display/display.c **** }
 413              		.loc 1 150 0
 414              		@ sp needed
 148:lib_Display/display.c ****     update();
 415              		.loc 1 148 0
 416 004c FFF7FEFF 		bl	update
 417              	.LVL45:
 418              		.loc 1 150 0
 419 0050 F7BD     		pop	{r0, r1, r2, r4, r5, r6, r7, pc}
 420              	.L22:
 421 0052 C046     		.align	2
 422              	.L21:
 423 0054 00000000 		.word	SmallFont
 424 0058 00000000 		.word	.LANCHOR1
 425 005c 00000000 		.word	.LC11
 426              		.cfi_endproc
ARM GAS  C:\Users\Petro\AppData\Local\Temp\cck8ZwW8.s 			page 21


 427              	.LFE67:
 428              		.size	DisplayRealTime, .-DisplayRealTime
 429              		.section	.text.DisplayLoading,"ax",%progbits
 430              		.align	1
 431              		.global	DisplayLoading
 432              		.code	16
 433              		.thumb_func
 434              		.type	DisplayLoading, %function
 435              	DisplayLoading:
 436              	.LFB68:
 151:lib_Display/display.c **** 
 152:lib_Display/display.c **** 
 153:lib_Display/display.c **** /*******************************************************************************
 154:lib_Display/display.c **** * Function name: DisplayPrintfLoading
 155:lib_Display/display.c **** ********************************************************************************
 156:lib_Display/display.c **** *
 157:lib_Display/display.c **** * print loading from position row = 1, column = 0
 158:lib_Display/display.c **** *
 159:lib_Display/display.c **** *******************************************************************************/
 160:lib_Display/display.c **** void DisplayLoading(uint32_t numLoad)
 161:lib_Display/display.c **** {
 437              		.loc 1 161 0
 438              		.cfi_startproc
 439              	.LVL46:
 162:lib_Display/display.c **** //    if(numLoad == 0)
 163:lib_Display/display.c **** //    {
 164:lib_Display/display.c **** //        /*clear row 1*/
 165:lib_Display/display.c **** //        LCD_Position(1,0);
 166:lib_Display/display.c **** //        LCD_PrintString("             ");
 167:lib_Display/display.c **** //    }
 168:lib_Display/display.c **** //    if((numLoad > 0) && numLoad < 16)
 169:lib_Display/display.c **** //    {
 170:lib_Display/display.c **** //        LCD_Position(1,numLoad-1);
 171:lib_Display/display.c **** //        LCD_PutChar(LCD_CUSTOM_4);
 172:lib_Display/display.c **** //    }
 173:lib_Display/display.c **** }
 440              		.loc 1 173 0
 441              		@ sp needed
 442 0000 7047     		bx	lr
 443              		.cfi_endproc
 444              	.LFE68:
 445              		.size	DisplayLoading, .-DisplayLoading
 446              		.global	__aeabi_fcmplt
 447              		.global	__aeabi_f2d
 448              		.global	__aeabi_dcmpgt
 449              		.section	.text.DisplayBattVoltage,"ax",%progbits
 450              		.align	1
 451              		.global	DisplayBattVoltage
 452              		.code	16
 453              		.thumb_func
 454              		.type	DisplayBattVoltage, %function
 455              	DisplayBattVoltage:
 456              	.LFB69:
 174:lib_Display/display.c **** 
 175:lib_Display/display.c **** /*******************************************************************************
 176:lib_Display/display.c **** * Function name: DisplayBattVoltage
 177:lib_Display/display.c **** ********************************************************************************
ARM GAS  C:\Users\Petro\AppData\Local\Temp\cck8ZwW8.s 			page 22


 178:lib_Display/display.c **** *
 179:lib_Display/display.c **** * print voltage battery
 180:lib_Display/display.c **** *
 181:lib_Display/display.c **** *******************************************************************************/
 182:lib_Display/display.c **** void DisplayBattVoltage(float voltage)
 183:lib_Display/display.c **** {
 457              		.loc 1 183 0
 458              		.cfi_startproc
 459              	.LVL47:
 460 0000 38B5     		push	{r3, r4, r5, lr}
 461              		.cfi_def_cfa_offset 16
 462              		.cfi_offset 3, -16
 463              		.cfi_offset 4, -12
 464              		.cfi_offset 5, -8
 465              		.cfi_offset 14, -4
 184:lib_Display/display.c ****     if(voltage < 0)return;
 466              		.loc 1 184 0
 467 0002 0021     		mov	r1, #0
 183:lib_Display/display.c ****     if(voltage < 0)return;
 468              		.loc 1 183 0
 469 0004 051C     		add	r5, r0, #0
 470              		.loc 1 184 0
 471 0006 FFF7FEFF 		bl	__aeabi_fcmplt
 472              	.LVL48:
 473 000a 0028     		cmp	r0, #0
 474 000c 78D1     		bne	.L24
 475 000e 4D24     		mov	r4, #77
 476              	.L26:
 477              	.LVL49:
 185:lib_Display/display.c ****     
 186:lib_Display/display.c ****     /*clear image batt*/
 187:lib_Display/display.c ****     uint8_t i;
 188:lib_Display/display.c ****     for(i=0;i<5;i++)
 189:lib_Display/display.c ****     {
 190:lib_Display/display.c ****         clrVLine(77+i,4,35);
 478              		.loc 1 190 0 discriminator 3
 479 0010 201C     		mov	r0, r4
 480 0012 0421     		mov	r1, #4
 481 0014 2322     		mov	r2, #35
 482 0016 0134     		add	r4, r4, #1
 483              	.LVL50:
 484 0018 FFF7FEFF 		bl	clrVLine
 485              	.LVL51:
 188:lib_Display/display.c ****     {
 486              		.loc 1 188 0 discriminator 3
 487 001c 522C     		cmp	r4, #82
 488 001e F7D1     		bne	.L26
 191:lib_Display/display.c ****     }
 192:lib_Display/display.c ****     
 193:lib_Display/display.c ****     if(voltage > BATT_0_PERCENT)
 489              		.loc 1 193 0
 490 0020 281C     		add	r0, r5, #0
 491 0022 FFF7FEFF 		bl	__aeabi_f2d
 492              	.LVL52:
 493 0026 374A     		ldr	r2, .L39
 494 0028 374B     		ldr	r3, .L39+4
 495 002a 041C     		mov	r4, r0
ARM GAS  C:\Users\Petro\AppData\Local\Temp\cck8ZwW8.s 			page 23


 496 002c 0D1C     		mov	r5, r1
 497              	.LVL53:
 498 002e FFF7FEFF 		bl	__aeabi_dcmpgt
 499              	.LVL54:
 500 0032 0028     		cmp	r0, #0
 501 0034 0ED0     		beq	.L27
 194:lib_Display/display.c ****     {
 195:lib_Display/display.c ****         drawVLine(79,31,7);
 502              		.loc 1 195 0
 503 0036 4F20     		mov	r0, #79
 504 0038 1F21     		mov	r1, #31
 505 003a 0722     		mov	r2, #7
 506 003c FFF7FEFF 		bl	drawVLine
 507              	.LVL55:
 196:lib_Display/display.c ****         drawVLine(80,31,7);
 508              		.loc 1 196 0
 509 0040 5020     		mov	r0, #80
 510 0042 1F21     		mov	r1, #31
 511 0044 0722     		mov	r2, #7
 512 0046 FFF7FEFF 		bl	drawVLine
 513              	.LVL56:
 197:lib_Display/display.c ****         drawVLine(81,31,7);
 514              		.loc 1 197 0
 515 004a 5120     		mov	r0, #81
 516 004c 1F21     		mov	r1, #31
 517 004e 0722     		mov	r2, #7
 518 0050 FFF7FEFF 		bl	drawVLine
 519              	.LVL57:
 520              	.L27:
 198:lib_Display/display.c ****     }
 199:lib_Display/display.c ****     if(voltage > BATT_25_PERCENT)
 521              		.loc 1 199 0
 522 0054 201C     		mov	r0, r4
 523 0056 291C     		mov	r1, r5
 524 0058 2C4A     		ldr	r2, .L39+8
 525 005a 2D4B     		ldr	r3, .L39+12
 526 005c FFF7FEFF 		bl	__aeabi_dcmpgt
 527              	.LVL58:
 528 0060 0028     		cmp	r0, #0
 529 0062 0ED0     		beq	.L29
 200:lib_Display/display.c ****     {
 201:lib_Display/display.c ****         drawVLine(79,22,7);
 530              		.loc 1 201 0
 531 0064 4F20     		mov	r0, #79
 532 0066 1621     		mov	r1, #22
 533 0068 0722     		mov	r2, #7
 534 006a FFF7FEFF 		bl	drawVLine
 535              	.LVL59:
 202:lib_Display/display.c ****         drawVLine(80,22,7);
 536              		.loc 1 202 0
 537 006e 5020     		mov	r0, #80
 538 0070 1621     		mov	r1, #22
 539 0072 0722     		mov	r2, #7
 540 0074 FFF7FEFF 		bl	drawVLine
 541              	.LVL60:
 203:lib_Display/display.c ****         drawVLine(81,22,7);
 542              		.loc 1 203 0
ARM GAS  C:\Users\Petro\AppData\Local\Temp\cck8ZwW8.s 			page 24


 543 0078 5120     		mov	r0, #81
 544 007a 1621     		mov	r1, #22
 545 007c 0722     		mov	r2, #7
 546 007e FFF7FEFF 		bl	drawVLine
 547              	.LVL61:
 548              	.L29:
 204:lib_Display/display.c ****     }
 205:lib_Display/display.c ****     if(voltage > BATT_50_PERCENT)
 549              		.loc 1 205 0
 550 0082 201C     		mov	r0, r4
 551 0084 291C     		mov	r1, r5
 552 0086 234A     		ldr	r2, .L39+16
 553 0088 234B     		ldr	r3, .L39+20
 554 008a FFF7FEFF 		bl	__aeabi_dcmpgt
 555              	.LVL62:
 556 008e 0028     		cmp	r0, #0
 557 0090 13D0     		beq	.L31
 206:lib_Display/display.c ****     {
 207:lib_Display/display.c ****         drawVLine(78,13,7);
 558              		.loc 1 207 0
 559 0092 4E20     		mov	r0, #78
 560 0094 0D21     		mov	r1, #13
 561 0096 0722     		mov	r2, #7
 562 0098 FFF7FEFF 		bl	drawVLine
 563              	.LVL63:
 208:lib_Display/display.c ****         drawVLine(79,13,7);
 564              		.loc 1 208 0
 565 009c 4F20     		mov	r0, #79
 566 009e 0D21     		mov	r1, #13
 567 00a0 0722     		mov	r2, #7
 568 00a2 FFF7FEFF 		bl	drawVLine
 569              	.LVL64:
 209:lib_Display/display.c ****         drawVLine(80,13,7);
 570              		.loc 1 209 0
 571 00a6 5020     		mov	r0, #80
 572 00a8 0D21     		mov	r1, #13
 573 00aa 0722     		mov	r2, #7
 574 00ac FFF7FEFF 		bl	drawVLine
 575              	.LVL65:
 210:lib_Display/display.c ****         drawVLine(81,13,7);
 576              		.loc 1 210 0
 577 00b0 5120     		mov	r0, #81
 578 00b2 0D21     		mov	r1, #13
 579 00b4 0722     		mov	r2, #7
 580 00b6 FFF7FEFF 		bl	drawVLine
 581              	.LVL66:
 582              	.L31:
 211:lib_Display/display.c ****     }
 212:lib_Display/display.c ****     if(voltage > BATT_75_PERCENT)
 583              		.loc 1 212 0
 584 00ba 201C     		mov	r0, r4
 585 00bc 291C     		mov	r1, r5
 586 00be 174A     		ldr	r2, .L39+24
 587 00c0 174B     		ldr	r3, .L39+28
 588 00c2 FFF7FEFF 		bl	__aeabi_dcmpgt
 589              	.LVL67:
 590 00c6 0028     		cmp	r0, #0
ARM GAS  C:\Users\Petro\AppData\Local\Temp\cck8ZwW8.s 			page 25


 591 00c8 18D0     		beq	.L33
 213:lib_Display/display.c ****     {
 214:lib_Display/display.c ****         drawVLine(77,4,7);
 592              		.loc 1 214 0
 593 00ca 4D20     		mov	r0, #77
 594 00cc 0421     		mov	r1, #4
 595 00ce 0722     		mov	r2, #7
 596 00d0 FFF7FEFF 		bl	drawVLine
 597              	.LVL68:
 215:lib_Display/display.c ****         drawVLine(78,4,7);
 598              		.loc 1 215 0
 599 00d4 4E20     		mov	r0, #78
 600 00d6 0421     		mov	r1, #4
 601 00d8 0722     		mov	r2, #7
 602 00da FFF7FEFF 		bl	drawVLine
 603              	.LVL69:
 216:lib_Display/display.c ****         drawVLine(79,4,7);
 604              		.loc 1 216 0
 605 00de 4F20     		mov	r0, #79
 606 00e0 0421     		mov	r1, #4
 607 00e2 0722     		mov	r2, #7
 608 00e4 FFF7FEFF 		bl	drawVLine
 609              	.LVL70:
 217:lib_Display/display.c ****         drawVLine(80,4,7);
 610              		.loc 1 217 0
 611 00e8 5020     		mov	r0, #80
 612 00ea 0421     		mov	r1, #4
 613 00ec 0722     		mov	r2, #7
 614 00ee FFF7FEFF 		bl	drawVLine
 615              	.LVL71:
 218:lib_Display/display.c ****         drawVLine(81,4,7);
 616              		.loc 1 218 0
 617 00f2 5120     		mov	r0, #81
 618 00f4 0421     		mov	r1, #4
 619 00f6 0722     		mov	r2, #7
 620 00f8 FFF7FEFF 		bl	drawVLine
 621              	.LVL72:
 622              	.L33:
 219:lib_Display/display.c ****     }
 220:lib_Display/display.c ****     update();
 623              		.loc 1 220 0
 624 00fc FFF7FEFF 		bl	update
 625              	.LVL73:
 626              	.L24:
 221:lib_Display/display.c **** }
 627              		.loc 1 221 0
 628              		@ sp needed
 629 0100 38BD     		pop	{r3, r4, r5, pc}
 630              	.L40:
 631 0102 C046     		.align	2
 632              	.L39:
 633 0104 0AD7A370 		.word	1889785610
 634 0108 3D0AD73F 		.word	1071057469
 635 010c 3D0AD7A3 		.word	-1546188227
 636 0110 703DDA3F 		.word	1071267184
 637 0114 713D0AD7 		.word	-687194767
 638 0118 A370DD3F 		.word	1071476899
ARM GAS  C:\Users\Petro\AppData\Local\Temp\cck8ZwW8.s 			page 26


 639 011c 52B81E85 		.word	-2061584302
 640 0120 EB51E03F 		.word	1071665643
 641              		.cfi_endproc
 642              	.LFE69:
 643              		.size	DisplayBattVoltage, .-DisplayBattVoltage
 644              		.global	__aeabi_uidiv
 645              		.global	__aeabi_uidivmod
 646              		.section	.text.DisplayLastSkierTime,"ax",%progbits
 647              		.align	1
 648              		.global	DisplayLastSkierTime
 649              		.code	16
 650              		.thumb_func
 651              		.type	DisplayLastSkierTime, %function
 652              	DisplayLastSkierTime:
 653              	.LFB70:
 222:lib_Display/display.c **** 
 223:lib_Display/display.c **** /*******************************************************************************
 224:lib_Display/display.c **** * Function name: DisplayPrintLastTimeSkier
 225:lib_Display/display.c **** ********************************************************************************
 226:lib_Display/display.c **** *
 227:lib_Display/display.c **** * Summary:
 228:lib_Display/display.c **** *   print time last skier from position row = 1, column = 0
 229:lib_Display/display.c **** *
 230:lib_Display/display.c **** *******************************************************************************/
 231:lib_Display/display.c **** void DisplayLastSkierTime(uint32_t sec, uint16_t milisec)
 232:lib_Display/display.c **** {
 654              		.loc 1 232 0
 655              		.cfi_startproc
 656              	.LVL74:
 233:lib_Display/display.c ****     if(sec > 60000 || milisec >= 1000)return;
 657              		.loc 1 233 0
 658 0000 144B     		ldr	r3, .L43
 232:lib_Display/display.c ****     if(sec > 60000 || milisec >= 1000)return;
 659              		.loc 1 232 0
 660 0002 73B5     		push	{r0, r1, r4, r5, r6, lr}
 661              		.cfi_def_cfa_offset 24
 662              		.cfi_offset 0, -24
 663              		.cfi_offset 1, -20
 664              		.cfi_offset 4, -16
 665              		.cfi_offset 5, -12
 666              		.cfi_offset 6, -8
 667              		.cfi_offset 14, -4
 668              		.loc 1 233 0
 669 0004 9842     		cmp	r0, r3
 670 0006 24D8     		bhi	.L41
 671              		.loc 1 233 0 is_stmt 0 discriminator 1
 672 0008 134B     		ldr	r3, .L43+4
 673 000a 9942     		cmp	r1, r3
 674 000c 21D8     		bhi	.L41
 675 000e 041C     		mov	r4, r0
 234:lib_Display/display.c ****         
 235:lib_Display/display.c ****     setFont(SmallFont);
 236:lib_Display/display.c ****     printNumI(sec/60,22,11,3,' ');
 676              		.loc 1 236 0 is_stmt 1
 677 0010 2025     		mov	r5, #32
 235:lib_Display/display.c ****     printNumI(sec/60,22,11,3,' ');
 678              		.loc 1 235 0
ARM GAS  C:\Users\Petro\AppData\Local\Temp\cck8ZwW8.s 			page 27


 679 0012 1248     		ldr	r0, .L43+8
 680              	.LVL75:
 681 0014 0E1C     		mov	r6, r1
 682 0016 FFF7FEFF 		bl	setFont
 683              	.LVL76:
 684              		.loc 1 236 0
 685 001a 3C21     		mov	r1, #60
 686 001c 201C     		mov	r0, r4
 687 001e FFF7FEFF 		bl	__aeabi_uidiv
 688              	.LVL77:
 689 0022 0B22     		mov	r2, #11
 690 0024 0323     		mov	r3, #3
 691 0026 1621     		mov	r1, #22
 692 0028 0095     		str	r5, [sp]
 693 002a FFF7FEFF 		bl	printNumI
 694              	.LVL78:
 237:lib_Display/display.c ****     printNumI(sec%60,28,20,2,' ');
 695              		.loc 1 237 0
 696 002e 201C     		mov	r0, r4
 697 0030 3C21     		mov	r1, #60
 698 0032 FFF7FEFF 		bl	__aeabi_uidivmod
 699              	.LVL79:
 700 0036 1422     		mov	r2, #20
 701 0038 081C     		mov	r0, r1
 702 003a 0223     		mov	r3, #2
 703 003c 1C21     		mov	r1, #28
 704 003e 0095     		str	r5, [sp]
 705 0040 FFF7FEFF 		bl	printNumI
 706              	.LVL80:
 238:lib_Display/display.c ****     printNumI(milisec,22,29,3,' ');
 707              		.loc 1 238 0
 708 0044 0095     		str	r5, [sp]
 709 0046 301C     		mov	r0, r6
 710 0048 1621     		mov	r1, #22
 711 004a 1D22     		mov	r2, #29
 712 004c 0323     		mov	r3, #3
 713 004e FFF7FEFF 		bl	printNumI
 714              	.LVL81:
 715              	.L41:
 239:lib_Display/display.c **** }
 716              		.loc 1 239 0
 717              		@ sp needed
 718 0052 73BD     		pop	{r0, r1, r4, r5, r6, pc}
 719              	.L44:
 720              		.align	2
 721              	.L43:
 722 0054 60EA0000 		.word	60000
 723 0058 E7030000 		.word	999
 724 005c 00000000 		.word	SmallFont
 725              		.cfi_endproc
 726              	.LFE70:
 727              		.size	DisplayLastSkierTime, .-DisplayLastSkierTime
 728              		.section	.text.DisplayNumSkierOnWay,"ax",%progbits
 729              		.align	1
 730              		.global	DisplayNumSkierOnWay
 731              		.code	16
 732              		.thumb_func
ARM GAS  C:\Users\Petro\AppData\Local\Temp\cck8ZwW8.s 			page 28


 733              		.type	DisplayNumSkierOnWay, %function
 734              	DisplayNumSkierOnWay:
 735              	.LFB71:
 240:lib_Display/display.c **** 
 241:lib_Display/display.c **** /*******************************************************************************
 242:lib_Display/display.c **** * Function name: DisplayPrintNumSkierOnWay
 243:lib_Display/display.c **** ********************************************************************************
 244:lib_Display/display.c **** *
 245:lib_Display/display.c **** * Summary:
 246:lib_Display/display.c **** *   print number skier on way from position row = 1, column = 11
 247:lib_Display/display.c **** *
 248:lib_Display/display.c **** *******************************************************************************/
 249:lib_Display/display.c **** void DisplayNumSkierOnWay(uint32_t num)
 250:lib_Display/display.c **** {
 736              		.loc 1 250 0
 737              		.cfi_startproc
 738              	.LVL82:
 739 0000 37B5     		push	{r0, r1, r2, r4, r5, lr}
 740              		.cfi_def_cfa_offset 24
 741              		.cfi_offset 0, -24
 742              		.cfi_offset 1, -20
 743              		.cfi_offset 2, -16
 744              		.cfi_offset 4, -12
 745              		.cfi_offset 5, -8
 746              		.cfi_offset 14, -4
 747              		.loc 1 250 0
 748 0002 051C     		mov	r5, r0
 251:lib_Display/display.c ****     setFont(MediumNumbers);
 252:lib_Display/display.c ****     printNumI(num,43,14,1,' ');
 749              		.loc 1 252 0
 750 0004 2024     		mov	r4, #32
 251:lib_Display/display.c ****     setFont(MediumNumbers);
 751              		.loc 1 251 0
 752 0006 0A48     		ldr	r0, .L46
 753              	.LVL83:
 754 0008 FFF7FEFF 		bl	setFont
 755              	.LVL84:
 756              		.loc 1 252 0
 757 000c 281C     		mov	r0, r5
 758 000e 0094     		str	r4, [sp]
 759 0010 2B21     		mov	r1, #43
 760 0012 0E22     		mov	r2, #14
 761 0014 0123     		mov	r3, #1
 762 0016 FFF7FEFF 		bl	printNumI
 763              	.LVL85:
 253:lib_Display/display.c ****     printNumI(4,64,14,1,' ');
 764              		.loc 1 253 0
 765 001a 0420     		mov	r0, #4
 766 001c 4021     		mov	r1, #64
 767 001e 0E22     		mov	r2, #14
 768 0020 0123     		mov	r3, #1
 769 0022 0094     		str	r4, [sp]
 770 0024 FFF7FEFF 		bl	printNumI
 771              	.LVL86:
 254:lib_Display/display.c ****     update();
 255:lib_Display/display.c **** }
 772              		.loc 1 255 0
ARM GAS  C:\Users\Petro\AppData\Local\Temp\cck8ZwW8.s 			page 29


 773              		@ sp needed
 254:lib_Display/display.c ****     update();
 774              		.loc 1 254 0
 775 0028 FFF7FEFF 		bl	update
 776              	.LVL87:
 777              	.LVL88:
 778              		.loc 1 255 0
 779 002c 37BD     		pop	{r0, r1, r2, r4, r5, pc}
 780              	.L47:
 781 002e C046     		.align	2
 782              	.L46:
 783 0030 00000000 		.word	MediumNumbers
 784              		.cfi_endproc
 785              	.LFE71:
 786              		.size	DisplayNumSkierOnWay, .-DisplayNumSkierOnWay
 787              		.section	.text.DisplayTestMode,"ax",%progbits
 788              		.align	1
 789              		.global	DisplayTestMode
 790              		.code	16
 791              		.thumb_func
 792              		.type	DisplayTestMode, %function
 793              	DisplayTestMode:
 794              	.LFB72:
 256:lib_Display/display.c **** 
 257:lib_Display/display.c **** void DisplayTestMode(uint8_t state)
 258:lib_Display/display.c **** {
 795              		.loc 1 258 0
 796              		.cfi_startproc
 797              	.LVL89:
 798 0000 10B5     		push	{r4, lr}
 799              		.cfi_def_cfa_offset 8
 800              		.cfi_offset 4, -8
 801              		.cfi_offset 14, -4
 802              		.loc 1 258 0
 803 0002 041C     		mov	r4, r0
 259:lib_Display/display.c ****     setFont(TinyFont);
 804              		.loc 1 259 0
 805 0004 0548     		ldr	r0, .L52
 806              	.LVL90:
 807 0006 FFF7FEFF 		bl	setFont
 808              	.LVL91:
 260:lib_Display/display.c ****     if(state > 0)
 261:lib_Display/display.c ****     {
 262:lib_Display/display.c ****         print("test",43,31);
 809              		.loc 1 262 0
 810 000a 0548     		ldr	r0, .L52+4
 260:lib_Display/display.c ****     if(state > 0)
 811              		.loc 1 260 0
 812 000c 002C     		cmp	r4, #0
 813 000e 00D1     		bne	.L51
 263:lib_Display/display.c ****     }
 264:lib_Display/display.c ****     else
 265:lib_Display/display.c ****     {
 266:lib_Display/display.c ****         print("    ",43,31); 
 814              		.loc 1 266 0
 815 0010 0448     		ldr	r0, .L52+8
 816              	.L51:
ARM GAS  C:\Users\Petro\AppData\Local\Temp\cck8ZwW8.s 			page 30


 817 0012 2B21     		mov	r1, #43
 818 0014 1F22     		mov	r2, #31
 819 0016 FFF7FEFF 		bl	print
 820              	.LVL92:
 267:lib_Display/display.c ****     }
 268:lib_Display/display.c **** }
 821              		.loc 1 268 0
 822              		@ sp needed
 823 001a 10BD     		pop	{r4, pc}
 824              	.L53:
 825              		.align	2
 826              	.L52:
 827 001c 00000000 		.word	TinyFont
 828 0020 12000000 		.word	.LC16
 829 0024 17000000 		.word	.LC18
 830              		.cfi_endproc
 831              	.LFE72:
 832              		.size	DisplayTestMode, .-DisplayTestMode
 833              		.comm	_contrast,4,4
 834              		.comm	_sleep,1,1
 835              		.comm	scrbuf,504,1
 836              		.comm	cfont,12,4
 837              		.section	.rodata
 838              		.set	.LANCHOR0,. + 0
 839              	.LC2:
 840 0000 20202020 		.ascii	"           \000"
 840      20202020 
 840      20202000 
 841              		.section	.rodata.str1.1,"aMS",%progbits,1
 842              	.LC11:
 843 0000 2530326C 		.ascii	"%02lu:%02lu:%02lu\000"
 843      753A2530 
 843      326C753A 
 843      2530326C 
 843      7500
 844              	.LC16:
 845 0012 74657374 		.ascii	"test\000"
 845      00
 846              	.LC18:
 847 0017 20202020 		.ascii	"    \000"
 847      00
 848              		.bss
 849              		.set	.LANCHOR1,. + 0
 850              		.type	buff, %object
 851              		.size	buff, 100
 852              	buff:
 853 0000 00000000 		.space	100
 853      00000000 
 853      00000000 
 853      00000000 
 853      00000000 
 854              		.text
 855              	.Letext0:
 856              		.file 3 "c:\\program files (x86)\\cypress\\psoc creator\\4.0\\psoc creator\\import\\gnu\\arm\\4.9.
 857              		.file 4 "c:\\program files (x86)\\cypress\\psoc creator\\4.0\\psoc creator\\import\\gnu\\arm\\4.9.
 858              		.file 5 "Generated_Source\\PSoC4/cytypes.h"
 859              		.file 6 "c:\\program files (x86)\\cypress\\psoc creator\\4.0\\psoc creator\\import\\gnu\\arm\\4.9.
ARM GAS  C:\Users\Petro\AppData\Local\Temp\cck8ZwW8.s 			page 31


 860              		.file 7 "./lib_Display\\display.h"
 861              		.file 8 "Generated_Source\\PSoC4/ble_Stack.h"
 862              		.file 9 "./nokia5110/LCD5110_Graph.h"
 863              		.file 10 "Generated_Source\\PSoC4/LCD_BL.h"
 864              		.file 11 "c:\\program files (x86)\\cypress\\psoc creator\\4.0\\psoc creator\\import\\gnu\\arm\\4.9
 865              		.file 12 "c:\\program files (x86)\\cypress\\psoc creator\\4.0\\psoc creator\\import\\gnu\\arm\\4.9