ARM GAS  C:\Users\Petro\AppData\Local\Temp\ccqvpTVu.s 			page 1


   1              		.cpu cortex-m0
   2              		.fpu softvfp
   3              		.eabi_attribute 20, 1
   4              		.eabi_attribute 21, 1
   5              		.eabi_attribute 23, 3
   6              		.eabi_attribute 24, 1
   7              		.eabi_attribute 25, 1
   8              		.eabi_attribute 26, 1
   9              		.eabi_attribute 30, 4
  10              		.eabi_attribute 34, 0
  11              		.eabi_attribute 18, 4
  12              		.code	16
  13              		.file	"DS1307.c"
  14              		.text
  15              	.Ltext0:
  16              		.cfi_sections	.debug_frame
  17              		.global	__aeabi_uidivmod
  18              		.global	__aeabi_uidiv
  19              		.section	.text.DS1307_GetUnixTime,"ax",%progbits
  20              		.align	1
  21              		.global	DS1307_GetUnixTime
  22              		.code	16
  23              		.thumb_func
  24              		.type	DS1307_GetUnixTime, %function
  25              	DS1307_GetUnixTime:
  26              	.LFB7:
  27              		.file 1 "lib_DS1307\\DS1307.c"
   1:lib_DS1307/DS1307.c **** #include "lib_DS1307\DS1307.h"
   2:lib_DS1307/DS1307.c **** #include <I2C.h>
   3:lib_DS1307/DS1307.c **** #include <I2C_I2C.h>
   4:lib_DS1307/DS1307.c **** 
   5:lib_DS1307/DS1307.c **** /*struct for time*/
   6:lib_DS1307/DS1307.c **** typedef struct
   7:lib_DS1307/DS1307.c **** {
   8:lib_DS1307/DS1307.c ****     uint8_t second;
   9:lib_DS1307/DS1307.c ****     uint8_t minutes;
  10:lib_DS1307/DS1307.c ****     uint8_t hours;
  11:lib_DS1307/DS1307.c ****     uint8_t timeFormat;
  12:lib_DS1307/DS1307.c ****     uint8_t AmRm;
  13:lib_DS1307/DS1307.c ****     uint8_t day;
  14:lib_DS1307/DS1307.c ****     uint8_t date;
  15:lib_DS1307/DS1307.c ****     uint8_t month;
  16:lib_DS1307/DS1307.c ****     uint16_t year;  
  17:lib_DS1307/DS1307.c **** }DS1307_DATE_TIME;
  18:lib_DS1307/DS1307.c **** 
  19:lib_DS1307/DS1307.c **** /*data for DS1307*/
  20:lib_DS1307/DS1307.c **** #define DS1307_SLAVE_ADRESS (0x68)
  21:lib_DS1307/DS1307.c **** #define DS1307_NULL_ADRESS  (0x00)
  22:lib_DS1307/DS1307.c **** #define DS1307_NUMBER_OF_BYTES     (0x07)
  23:lib_DS1307/DS1307.c **** 
  24:lib_DS1307/DS1307.c **** 
  25:lib_DS1307/DS1307.c **** #define DS1307_SEC_MASK         (0x0f)
  26:lib_DS1307/DS1307.c **** #define DS1307_10_SEC_MASK      (0x70)
  27:lib_DS1307/DS1307.c **** #define DS1307_MIN_MASK         (0x0f)
  28:lib_DS1307/DS1307.c **** #define DS1307_10_MIN_MASK      (0x70)
  29:lib_DS1307/DS1307.c **** #define DS1307_HOUR_MASK        (0x0f)
  30:lib_DS1307/DS1307.c **** #define DS1307_10_12HOUR_MASK   (0x10)
ARM GAS  C:\Users\Petro\AppData\Local\Temp\ccqvpTVu.s 			page 2


  31:lib_DS1307/DS1307.c **** #define DS1307_10_24HOUR_MASK   (0x30)
  32:lib_DS1307/DS1307.c **** #define DS1307_DAY_MASK         (0x07)
  33:lib_DS1307/DS1307.c **** #define DS1307_DATE_MASK        (0x0f)
  34:lib_DS1307/DS1307.c **** #define DS1307_10_DATE_MASK     (0x30)
  35:lib_DS1307/DS1307.c **** #define DS1307_MONTH_MASK       (0x0f)
  36:lib_DS1307/DS1307.c **** #define DS1307_10_MONTH_MASK    (0x10)
  37:lib_DS1307/DS1307.c **** #define DS1307_YEAR_MASK        (0x0f)
  38:lib_DS1307/DS1307.c **** #define DS1307_10_YEAR_MASK     (0xf0)
  39:lib_DS1307/DS1307.c **** #define DS1307_TIME_FORMAT_MASK (0x40)
  40:lib_DS1307/DS1307.c **** #define DS1307_AM_RM_MASK       (0x20)
  41:lib_DS1307/DS1307.c **** #define DS1307_OFF_MASK         (0x80)
  42:lib_DS1307/DS1307.c **** 
  43:lib_DS1307/DS1307.c **** #define DS1307_SEC_ADRESS   (0x00)
  44:lib_DS1307/DS1307.c **** #define DS1307_MIN_ADRESS   (0x01)
  45:lib_DS1307/DS1307.c **** #define DS1307_HOUR_ADRESS  (0x02)
  46:lib_DS1307/DS1307.c **** #define DS1307_DAY_ADRESS   (0x03)
  47:lib_DS1307/DS1307.c **** #define DS1307_DATE_ADRESS  (0x04)
  48:lib_DS1307/DS1307.c **** #define DS1307_MONTH_ADRESS (0x05)
  49:lib_DS1307/DS1307.c **** #define DS1307_YEAR_ADRESS  (0x06)
  50:lib_DS1307/DS1307.c **** 
  51:lib_DS1307/DS1307.c **** /* Time format definitions */
  52:lib_DS1307/DS1307.c **** #define DS1307_PM                  (1u)
  53:lib_DS1307/DS1307.c **** #define DS1307_AM                  (0u)
  54:lib_DS1307/DS1307.c **** #define DS1307_12TIME_FORMAT       (1u)
  55:lib_DS1307/DS1307.c **** #define DS1307_24TIME_FORMAT       (0u)
  56:lib_DS1307/DS1307.c **** #define DS1307_UNIX_TIME_PM   ((12uL * 3600uL) + 1uL)
  57:lib_DS1307/DS1307.c **** 
  58:lib_DS1307/DS1307.c **** /* Definition of time register fields */
  59:lib_DS1307/DS1307.c **** #define DS1307_TIME_FORMAT_OFFSET     (23u)
  60:lib_DS1307/DS1307.c **** #define DS1307_PERIOD_OF_DAY_OFFSET   (22u)
  61:lib_DS1307/DS1307.c **** #define DS1307_10_HOURS_OFFSET        (20u)
  62:lib_DS1307/DS1307.c **** #define DS1307_HOURS_OFFSET           (16u)
  63:lib_DS1307/DS1307.c **** #define DS1307_10_MINUTES_OFFSET      (12u)
  64:lib_DS1307/DS1307.c **** #define DS1307_MINUTES_OFFSET         (8u)
  65:lib_DS1307/DS1307.c **** #define DS1307_10_SECONDS_OFFSET      (4u)
  66:lib_DS1307/DS1307.c **** #define DS1307_SECONDS_OFFSET         (0u)
  67:lib_DS1307/DS1307.c **** 
  68:lib_DS1307/DS1307.c **** /* Definition of date register fields */
  69:lib_DS1307/DS1307.c **** #define DS1307_10_MONTH_OFFSET   (28u)
  70:lib_DS1307/DS1307.c **** #define DS1307_MONTH_OFFSET      (24u)
  71:lib_DS1307/DS1307.c **** #define DS1307_10_DAY_OFFSET     (20u)
  72:lib_DS1307/DS1307.c **** #define DS1307_DAY_OFFSET        (16u)
  73:lib_DS1307/DS1307.c **** #define DS1307_1000_YEAR_OFFSET  (12u)
  74:lib_DS1307/DS1307.c **** #define DS1307_100_YEAR_OFFSET   (8u)
  75:lib_DS1307/DS1307.c **** #define DS1307_10_YEAR_OFFSET    (4u)
  76:lib_DS1307/DS1307.c **** #define DS1307_YEAR_OFFSET       (0u)
  77:lib_DS1307/DS1307.c **** 
  78:lib_DS1307/DS1307.c **** /*Define for unix time*/
  79:lib_DS1307/DS1307.c **** /* UNIX time begins in 1970 year.  */
  80:lib_DS1307/DS1307.c **** #define DS1307_YEAR_0             (1970u)
  81:lib_DS1307/DS1307.c **** #define DS1307_SECONDS_PER_LEAP_YEAR    (366uL * 24uL * 3600uL)
  82:lib_DS1307/DS1307.c **** #define DS1307_SECONDS_PER_NONLEAP_YEAR (365uL * 24uL * 3600uL)
  83:lib_DS1307/DS1307.c **** #define DS1307_MONTHS_PER_YEAR     (12uL)
  84:lib_DS1307/DS1307.c **** #define DS1307_HOURS_PER_DAY       (24uL)
  85:lib_DS1307/DS1307.c **** #define DS1307_HOURS_PER_HALF_DAY  (12uL)
  86:lib_DS1307/DS1307.c **** #define DS1307_SECONDS_PER_MINUTE  (60uL)
  87:lib_DS1307/DS1307.c **** #define DS1307_SECONDS_PER_HOUR    (3600uL)
ARM GAS  C:\Users\Petro\AppData\Local\Temp\ccqvpTVu.s 			page 3


  88:lib_DS1307/DS1307.c **** #define DS1307_SECONDS_PER_DAY     (24uL * 3600uL)
  89:lib_DS1307/DS1307.c **** 
  90:lib_DS1307/DS1307.c **** #define DS1307_10_MONTH_MASK_UNIX          (0x00000001uL << DS1307_10_MONTH_OFFSET)
  91:lib_DS1307/DS1307.c **** #define DS1307_MONTH_MASK_UNIX             (0x0000000FuL << DS1307_MONTH_OFFSET)
  92:lib_DS1307/DS1307.c **** #define DS1307_10_DAY_MASK_UNIX            (0x00000003uL << DS1307_10_DAY_OFFSET)
  93:lib_DS1307/DS1307.c **** #define DS1307_DAY_MASK_UNIX               (0x0000000FuL << DS1307_DAY_OFFSET)
  94:lib_DS1307/DS1307.c **** #define DS1307_1000_YEAR_MASK_UNIX         (0x00000003uL << DS1307_1000_YEAR_OFFSET)
  95:lib_DS1307/DS1307.c **** #define DS1307_100_YEAR_MASK_UNIX          (0x0000000FuL << DS1307_100_YEAR_OFFSET)
  96:lib_DS1307/DS1307.c **** #define DS1307_10_YEAR_MASK_UNIX           (0x0000000FuL << DS1307_10_YEAR_OFFSET)
  97:lib_DS1307/DS1307.c **** #define DS1307_YEAR_MASK_UNIX              (0x0000000FuL << DS1307_YEAR_OFFSET)
  98:lib_DS1307/DS1307.c **** 
  99:lib_DS1307/DS1307.c **** #define DS1307_TIME_FORMAT_MASK_UNIX       (0x00000001uL << DS1307_TIME_FORMAT_OFFSET)
 100:lib_DS1307/DS1307.c **** #define DS1307_PERIOD_OF_DAY_MASK_UNIX     (0x00000001uL << DS1307_PERIOD_OF_DAY_OFFSET)
 101:lib_DS1307/DS1307.c **** #define DS1307_10_HOURS_MASK_UNIX          (0x00000003uL << DS1307_10_HOURS_OFFSET)
 102:lib_DS1307/DS1307.c **** #define DS1307_HOURS_MASK_UNIX             (0x0000000FuL << DS1307_HOURS_OFFSET)
 103:lib_DS1307/DS1307.c **** #define DS1307_10_MINUTES_MASK_UNIX        (0x00000007uL << DS1307_10_MINUTES_OFFSET)
 104:lib_DS1307/DS1307.c **** #define DS1307_MINUTES_MASK_UNIX           (0x0000000FuL << DS1307_MINUTES_OFFSET)
 105:lib_DS1307/DS1307.c **** #define DS1307_10_SECONDS_MASK_UNIX        (0x00000007uL << DS1307_10_SECONDS_OFFSET)
 106:lib_DS1307/DS1307.c **** #define DS1307_SECONDS_MASK_UNIX           (0x0000000FuL << DS1307_SECONDS_OFFSET)
 107:lib_DS1307/DS1307.c **** 
 108:lib_DS1307/DS1307.c **** /* Number of days in month definitions */
 109:lib_DS1307/DS1307.c **** #define DS1307_DAYS_IN_JANUARY     (31u)
 110:lib_DS1307/DS1307.c **** #define DS1307_DAYS_IN_FEBRUARY    (28u)
 111:lib_DS1307/DS1307.c **** #define DS1307_DAYS_IN_MARCH       (31u)
 112:lib_DS1307/DS1307.c **** #define DS1307_DAYS_IN_APRIL       (30u)
 113:lib_DS1307/DS1307.c **** #define DS1307_DAYS_IN_MAY         (31u)
 114:lib_DS1307/DS1307.c **** #define DS1307_DAYS_IN_JUNE        (30u)
 115:lib_DS1307/DS1307.c **** #define DS1307_DAYS_IN_JULY        (31u)
 116:lib_DS1307/DS1307.c **** #define DS1307_DAYS_IN_AUGUST      (31u)
 117:lib_DS1307/DS1307.c **** #define DS1307_DAYS_IN_SEPTEMBER   (30u)
 118:lib_DS1307/DS1307.c **** #define DS1307_DAYS_IN_OCTOBER     (31u)
 119:lib_DS1307/DS1307.c **** #define DS1307_DAYS_IN_NOVEMBER    (30u)
 120:lib_DS1307/DS1307.c **** #define DS1307_DAYS_IN_DECEMBER    (31u)
 121:lib_DS1307/DS1307.c **** 
 122:lib_DS1307/DS1307.c **** /* Month definitions */
 123:lib_DS1307/DS1307.c **** #define DS1307_JANUARY    (1)
 124:lib_DS1307/DS1307.c **** #define DS1307_FEBRUARY   (2)
 125:lib_DS1307/DS1307.c **** #define DS1307_MARCH      (3)
 126:lib_DS1307/DS1307.c **** #define DS1307_APRIL      (4)
 127:lib_DS1307/DS1307.c **** #define DS1307_MAY        (5)
 128:lib_DS1307/DS1307.c **** #define DS1307_JUNE       (6)
 129:lib_DS1307/DS1307.c **** #define DS1307_JULY       (7)
 130:lib_DS1307/DS1307.c **** #define DS1307_AUGUST     (8)
 131:lib_DS1307/DS1307.c **** #define DS1307_SEPTEMBER  (9)
 132:lib_DS1307/DS1307.c **** #define DS1307_OCTOBER    (10)
 133:lib_DS1307/DS1307.c **** #define DS1307_NOVEMBER   (11)
 134:lib_DS1307/DS1307.c **** #define DS1307_DECEMBER   (12)
 135:lib_DS1307/DS1307.c **** 
 136:lib_DS1307/DS1307.c **** static uint16 DS1307_daysBeforeMonthTbl1[DS1307_MONTHS_PER_YEAR] = {
 137:lib_DS1307/DS1307.c ****                                                  (0u), /* JANUARY */
 138:lib_DS1307/DS1307.c ****                                                  (0u + 31u), /* FEBRUARY */
 139:lib_DS1307/DS1307.c ****                                                  (0u + 31u + 28u), /* MARCH */
 140:lib_DS1307/DS1307.c ****                                                  (0u + 31u + 28u + 31u), /* APRIL */
 141:lib_DS1307/DS1307.c ****                                                  (0u + 31u + 28u + 31u + 30u), /* MAY */
 142:lib_DS1307/DS1307.c ****                                                  (0u + 31u + 28u + 31u + 30u + 31u), /* JUNE */
 143:lib_DS1307/DS1307.c ****                                                  (0u + 31u + 28u + 31u + 30u + 31u + 30u), /* JULY 
 144:lib_DS1307/DS1307.c ****                                                  (0u + 31u + 28u + 31u + 30u + 31u + 30u + 31u), /*
ARM GAS  C:\Users\Petro\AppData\Local\Temp\ccqvpTVu.s 			page 4


 145:lib_DS1307/DS1307.c ****                                                  (0u + 31u + 28u + 31u + 30u + 31u + 30u + 31u + 31
 146:lib_DS1307/DS1307.c ****                                                  (0u + 31u + 28u + 31u + 30u + 31u + 30u + 31u + 31
 147:lib_DS1307/DS1307.c ****                                                  (0u + 31u + 28u + 31u + 30u + 31u + 30u + 31u + 31
 148:lib_DS1307/DS1307.c ****                                                  (0u + 31u + 28u + 31u + 30u + 31u + 30u + 31u + 31
 149:lib_DS1307/DS1307.c **** 
 150:lib_DS1307/DS1307.c **** static uint8 DS1307_daysInMonthTbl[DS1307_MONTHS_PER_YEAR] = {DS1307_DAYS_IN_JANUARY,
 151:lib_DS1307/DS1307.c ****                                                             DS1307_DAYS_IN_FEBRUARY,
 152:lib_DS1307/DS1307.c ****                                                             DS1307_DAYS_IN_MARCH,
 153:lib_DS1307/DS1307.c ****                                                             DS1307_DAYS_IN_APRIL,
 154:lib_DS1307/DS1307.c ****                                                             DS1307_DAYS_IN_MAY,
 155:lib_DS1307/DS1307.c ****                                                             DS1307_DAYS_IN_JUNE,
 156:lib_DS1307/DS1307.c ****                                                             DS1307_DAYS_IN_JULY,
 157:lib_DS1307/DS1307.c ****                                                             DS1307_DAYS_IN_AUGUST,
 158:lib_DS1307/DS1307.c ****                                                             DS1307_DAYS_IN_SEPTEMBER,
 159:lib_DS1307/DS1307.c ****                                                             DS1307_DAYS_IN_OCTOBER,
 160:lib_DS1307/DS1307.c ****                                                             DS1307_DAYS_IN_NOVEMBER,
 161:lib_DS1307/DS1307.c ****                                                             DS1307_DAYS_IN_DECEMBER};
 162:lib_DS1307/DS1307.c **** 
 163:lib_DS1307/DS1307.c **** 
 164:lib_DS1307/DS1307.c **** static uint32 DS1307_ReadTimeToStruct(void);
 165:lib_DS1307/DS1307.c **** static void DS1307_WriteTimeFromStruct(void);
 166:lib_DS1307/DS1307.c **** static uint32_t DS1307_ConstructTime(uint32 timeFormat, uint32 stateAmPm, uint32 hour, uint32 min, 
 167:lib_DS1307/DS1307.c **** static uint32 DS1307_ConstructDate(uint32 month, uint32 day, uint32 year);
 168:lib_DS1307/DS1307.c **** static uint64 DS1307_DateTimeToUnix(uint32 inputDate, uint32 inputTime);
 169:lib_DS1307/DS1307.c **** 
 170:lib_DS1307/DS1307.c **** DS1307_DATE_TIME DS1307_currentTimeDate ;
 171:lib_DS1307/DS1307.c **** 
 172:lib_DS1307/DS1307.c **** 
 173:lib_DS1307/DS1307.c **** 
 174:lib_DS1307/DS1307.c **** /*******************************************************************************
 175:lib_DS1307/DS1307.c **** * Function Name: DS1307_ReadTimeToStruct
 176:lib_DS1307/DS1307.c **** ********************************************************************************
 177:lib_DS1307/DS1307.c **** *
 178:lib_DS1307/DS1307.c **** * Summary:
 179:lib_DS1307/DS1307.c **** *   Read real time from chip DS1307
 180:lib_DS1307/DS1307.c **** *
 181:lib_DS1307/DS1307.c **** * Return:
 182:lib_DS1307/DS1307.c **** *   status the I2C connect
 183:lib_DS1307/DS1307.c **** *
 184:lib_DS1307/DS1307.c **** *******************************************************************************/
 185:lib_DS1307/DS1307.c **** static uint32 DS1307_ReadTimeToStruct(void)
 186:lib_DS1307/DS1307.c **** {
 187:lib_DS1307/DS1307.c ****     uint8_t data[DS1307_NUMBER_OF_BYTES];
 188:lib_DS1307/DS1307.c ****     uint32_t status;    
 189:lib_DS1307/DS1307.c ****     int i;
 190:lib_DS1307/DS1307.c ****     
 191:lib_DS1307/DS1307.c ****     I2C_Start();
 192:lib_DS1307/DS1307.c ****     
 193:lib_DS1307/DS1307.c ****     /*reset pointer register reading*/
 194:lib_DS1307/DS1307.c ****     //I2C_I2CMasterClearStatus();
 195:lib_DS1307/DS1307.c ****     status = I2C_I2CMasterSendStart(DS1307_SLAVE_ADRESS,I2C_I2C_WRITE_XFER_MODE);
 196:lib_DS1307/DS1307.c ****     if(status == I2C_I2C_MSTR_NO_ERROR)
 197:lib_DS1307/DS1307.c ****     {
 198:lib_DS1307/DS1307.c ****         I2C_I2CMasterWriteByte(DS1307_NULL_ADRESS);
 199:lib_DS1307/DS1307.c ****     }
 200:lib_DS1307/DS1307.c ****     else 
 201:lib_DS1307/DS1307.c ****     {
ARM GAS  C:\Users\Petro\AppData\Local\Temp\ccqvpTVu.s 			page 5


 202:lib_DS1307/DS1307.c ****         /*error connect from DS1307*/
 203:lib_DS1307/DS1307.c ****         return status;
 204:lib_DS1307/DS1307.c ****     }
 205:lib_DS1307/DS1307.c ****     I2C_I2CMasterSendStop();
 206:lib_DS1307/DS1307.c **** 
 207:lib_DS1307/DS1307.c ****     /*read data*/
 208:lib_DS1307/DS1307.c ****     I2C_I2CMasterClearStatus();
 209:lib_DS1307/DS1307.c ****     status = I2C_I2CMasterSendStart(DS1307_SLAVE_ADRESS,I2C_I2C_READ_XFER_MODE);
 210:lib_DS1307/DS1307.c ****     if(I2C_I2C_MSTR_NO_ERROR == status) 
 211:lib_DS1307/DS1307.c ****     {
 212:lib_DS1307/DS1307.c ****         /*write data in buffer*/
 213:lib_DS1307/DS1307.c ****         for(i=0; i<DS1307_NUMBER_OF_BYTES; i++)
 214:lib_DS1307/DS1307.c ****         {   
 215:lib_DS1307/DS1307.c ****             if(i < DS1307_NUMBER_OF_BYTES-1)
 216:lib_DS1307/DS1307.c ****             {
 217:lib_DS1307/DS1307.c ****                 data[i] = I2C_I2CMasterReadByte(I2C_I2C_ACK_DATA);
 218:lib_DS1307/DS1307.c ****             }
 219:lib_DS1307/DS1307.c ****             else
 220:lib_DS1307/DS1307.c ****             {
 221:lib_DS1307/DS1307.c ****                 data[i] = I2C_I2CMasterReadByte(I2C_I2C_NAK_DATA);
 222:lib_DS1307/DS1307.c ****             }
 223:lib_DS1307/DS1307.c ****         }
 224:lib_DS1307/DS1307.c ****     }
 225:lib_DS1307/DS1307.c ****     I2C_I2CMasterSendStop();
 226:lib_DS1307/DS1307.c ****     I2C_Stop();
 227:lib_DS1307/DS1307.c ****     
 228:lib_DS1307/DS1307.c ****     /*write data from buffer in struct*/
 229:lib_DS1307/DS1307.c ****     DS1307_currentTimeDate.second =  (data[DS1307_SEC_ADRESS]& DS1307_SEC_MASK)+(((data[DS1307_SEC_
 230:lib_DS1307/DS1307.c ****     DS1307_currentTimeDate.minutes = (data[DS1307_MIN_ADRESS]& DS1307_MIN_MASK)+(((data[DS1307_MIN_
 231:lib_DS1307/DS1307.c ****     DS1307_currentTimeDate.timeFormat = (data[DS1307_HOUR_ADRESS] & DS1307_TIME_FORMAT_MASK)>>6;
 232:lib_DS1307/DS1307.c ****     if(DS1307_currentTimeDate.timeFormat == DS1307_12TIME_FORMAT)
 233:lib_DS1307/DS1307.c ****     {
 234:lib_DS1307/DS1307.c ****         DS1307_currentTimeDate.hours = (data[DS1307_HOUR_ADRESS]& DS1307_HOUR_MASK)+(((data[DS1307_
 235:lib_DS1307/DS1307.c ****         DS1307_currentTimeDate.AmRm = (data[DS1307_HOUR_ADRESS]&DS1307_AM_RM_MASK)>>5;
 236:lib_DS1307/DS1307.c ****     }
 237:lib_DS1307/DS1307.c ****     else 
 238:lib_DS1307/DS1307.c ****     {
 239:lib_DS1307/DS1307.c ****         DS1307_currentTimeDate.hours = (uint32_t)(data[DS1307_HOUR_ADRESS]& DS1307_HOUR_MASK) + (((
 240:lib_DS1307/DS1307.c ****     }
 241:lib_DS1307/DS1307.c ****     DS1307_currentTimeDate.day = data[DS1307_DAY_ADRESS]&DS1307_DAY_MASK;
 242:lib_DS1307/DS1307.c ****     DS1307_currentTimeDate.date = (data[DS1307_DATE_ADRESS]&DS1307_DATE_MASK) + (((data[DS1307_DATE
 243:lib_DS1307/DS1307.c ****     DS1307_currentTimeDate.month  = (data[DS1307_MONTH_ADRESS]&DS1307_MONTH_MASK) + (((data[DS1307_
 244:lib_DS1307/DS1307.c ****     DS1307_currentTimeDate.year = (data[DS1307_YEAR_ADRESS]&DS1307_YEAR_MASK) + (((data[DS1307_YEAR
 245:lib_DS1307/DS1307.c ****     
 246:lib_DS1307/DS1307.c ****     return I2C_I2C_MSTR_NO_ERROR;
 247:lib_DS1307/DS1307.c **** }
 248:lib_DS1307/DS1307.c **** 
 249:lib_DS1307/DS1307.c **** 
 250:lib_DS1307/DS1307.c **** /*******************************************************************************
 251:lib_DS1307/DS1307.c **** * Function Name: DS1307_WriteTimeFromStruct
 252:lib_DS1307/DS1307.c **** ********************************************************************************
 253:lib_DS1307/DS1307.c **** *
 254:lib_DS1307/DS1307.c **** * Summary:
 255:lib_DS1307/DS1307.c **** *   write time in chip DS1307
 256:lib_DS1307/DS1307.c **** *
 257:lib_DS1307/DS1307.c **** *******************************************************************************/
 258:lib_DS1307/DS1307.c **** static void DS1307_WriteTimeFromStruct(void)
ARM GAS  C:\Users\Petro\AppData\Local\Temp\ccqvpTVu.s 			page 6


 259:lib_DS1307/DS1307.c **** {
 260:lib_DS1307/DS1307.c ****     uint32_t status;
 261:lib_DS1307/DS1307.c ****     int i;
 262:lib_DS1307/DS1307.c ****     uint8_t data[DS1307_NUMBER_OF_BYTES] ;
 263:lib_DS1307/DS1307.c ****     
 264:lib_DS1307/DS1307.c ****     /*write data from buffer*/
 265:lib_DS1307/DS1307.c ****     data[DS1307_SEC_ADRESS] = ((DS1307_currentTimeDate.second/10)<<4) + (DS1307_currentTimeDate.sec
 266:lib_DS1307/DS1307.c ****     data[DS1307_MIN_ADRESS] = ((DS1307_currentTimeDate.minutes/10)<<4) + (DS1307_currentTimeDate.mi
 267:lib_DS1307/DS1307.c ****     if(DS1307_currentTimeDate.timeFormat == DS1307_12TIME_FORMAT)
 268:lib_DS1307/DS1307.c ****     {
 269:lib_DS1307/DS1307.c ****         data[DS1307_HOUR_ADRESS] = ((DS1307_currentTimeDate.hours/10)<<4) + (DS1307_currentTimeDate
 270:lib_DS1307/DS1307.c ****         data[DS1307_HOUR_ADRESS] |= (DS1307_currentTimeDate.AmRm << 5);
 271:lib_DS1307/DS1307.c ****         data[DS1307_HOUR_ADRESS] |= (DS1307_currentTimeDate.timeFormat << 6);
 272:lib_DS1307/DS1307.c ****     }
 273:lib_DS1307/DS1307.c ****     else
 274:lib_DS1307/DS1307.c ****     {
 275:lib_DS1307/DS1307.c ****         data[DS1307_HOUR_ADRESS] = ((DS1307_currentTimeDate.hours/10)<<4) + (DS1307_currentTimeDate
 276:lib_DS1307/DS1307.c ****         data[DS1307_HOUR_ADRESS] |= (DS1307_currentTimeDate.timeFormat << 6);
 277:lib_DS1307/DS1307.c ****     }
 278:lib_DS1307/DS1307.c ****     data[DS1307_DAY_ADRESS] = DS1307_currentTimeDate.day;
 279:lib_DS1307/DS1307.c ****     data[DS1307_DATE_ADRESS] = ((DS1307_currentTimeDate.date/10)<<4) + (DS1307_currentTimeDate.date
 280:lib_DS1307/DS1307.c ****     data[DS1307_MONTH_ADRESS] = ((DS1307_currentTimeDate.month/10)<<4) + (DS1307_currentTimeDate.mo
 281:lib_DS1307/DS1307.c ****     data[DS1307_YEAR_ADRESS] = ((DS1307_currentTimeDate.year/10)<<4) + (DS1307_currentTimeDate.year
 282:lib_DS1307/DS1307.c ****     
 283:lib_DS1307/DS1307.c ****     /*write data on DS1307*/
 284:lib_DS1307/DS1307.c ****     I2C_Start();
 285:lib_DS1307/DS1307.c ****     I2C_I2CMasterClearStatus();
 286:lib_DS1307/DS1307.c ****     status = I2C_I2CMasterSendStart(DS1307_SLAVE_ADRESS, I2C_I2C_WRITE_XFER_MODE);
 287:lib_DS1307/DS1307.c ****     I2C_I2CMasterWriteByte(DS1307_NULL_ADRESS);
 288:lib_DS1307/DS1307.c ****     if(I2C_I2C_MSTR_NO_ERROR == status) 
 289:lib_DS1307/DS1307.c ****     {
 290:lib_DS1307/DS1307.c ****         for(i=0; i < DS1307_NUMBER_OF_BYTES; i++)
 291:lib_DS1307/DS1307.c ****         {
 292:lib_DS1307/DS1307.c ****             status = I2C_I2CMasterWriteByte(data[i]);
 293:lib_DS1307/DS1307.c ****             if(I2C_I2C_MSTR_NO_ERROR != status)
 294:lib_DS1307/DS1307.c ****             {
 295:lib_DS1307/DS1307.c ****                 break;
 296:lib_DS1307/DS1307.c ****             }
 297:lib_DS1307/DS1307.c ****         }
 298:lib_DS1307/DS1307.c ****     }
 299:lib_DS1307/DS1307.c ****     I2C_I2CMasterSendStop();    
 300:lib_DS1307/DS1307.c **** }
 301:lib_DS1307/DS1307.c **** 
 302:lib_DS1307/DS1307.c **** /*******************************************************************************
 303:lib_DS1307/DS1307.c **** * Function Name: DS1307_ConstructTime
 304:lib_DS1307/DS1307.c **** ********************************************************************************
 305:lib_DS1307/DS1307.c **** *
 306:lib_DS1307/DS1307.c **** * Summary:
 307:lib_DS1307/DS1307.c **** *   Returns the time in the format used in APIs from individual elements passed (hour, min, sec etc
 308:lib_DS1307/DS1307.c **** * Parametrs:
 309:lib_DS1307/DS1307.c **** *   timeFormat - DS1307_12TIME_FORMAT or DS1307_24TIME_FORMAT
 310:lib_DS1307/DS1307.c **** *   stateAmRm - DS1307_PM or DS1307_AM
 311:lib_DS1307/DS1307.c **** *   hour, min, sec - time
 312:lib_DS1307/DS1307.c **** *
 313:lib_DS1307/DS1307.c **** *******************************************************************************/
 314:lib_DS1307/DS1307.c **** static uint32_t DS1307_ConstructTime(uint32 timeFormat, uint32 stateAmPm, uint32 hour, uint32 min, 
 315:lib_DS1307/DS1307.c **** {
ARM GAS  C:\Users\Petro\AppData\Local\Temp\ccqvpTVu.s 			page 7


 316:lib_DS1307/DS1307.c ****     uint32 retVal;
 317:lib_DS1307/DS1307.c ****     stateAmPm = stateAmPm;
 318:lib_DS1307/DS1307.c ****     timeFormat = timeFormat;
 319:lib_DS1307/DS1307.c ****     
 320:lib_DS1307/DS1307.c ****     retVal  = timeFormat << DS1307_TIME_FORMAT_OFFSET;
 321:lib_DS1307/DS1307.c ****     retVal |= stateAmPm << DS1307_PERIOD_OF_DAY_OFFSET;
 322:lib_DS1307/DS1307.c **** 
 323:lib_DS1307/DS1307.c ****     retVal |= (hour / 10u) << DS1307_10_HOURS_OFFSET;
 324:lib_DS1307/DS1307.c ****     retVal |= (hour % 10u) << DS1307_HOURS_OFFSET;
 325:lib_DS1307/DS1307.c **** 
 326:lib_DS1307/DS1307.c ****     retVal |= (min / 10u) << DS1307_10_MINUTES_OFFSET;
 327:lib_DS1307/DS1307.c ****     retVal |= (min % 10u) << DS1307_MINUTES_OFFSET;
 328:lib_DS1307/DS1307.c **** 
 329:lib_DS1307/DS1307.c ****     retVal |= (sec / 10u) << DS1307_10_SECONDS_OFFSET;
 330:lib_DS1307/DS1307.c ****     retVal |= (sec % 10u) << DS1307_SECONDS_OFFSET;
 331:lib_DS1307/DS1307.c **** 
 332:lib_DS1307/DS1307.c ****     return (retVal);
 333:lib_DS1307/DS1307.c **** }
 334:lib_DS1307/DS1307.c **** 
 335:lib_DS1307/DS1307.c **** /*******************************************************************************
 336:lib_DS1307/DS1307.c **** * Function Name: DS1307_ConstructDate
 337:lib_DS1307/DS1307.c **** ********************************************************************************
 338:lib_DS1307/DS1307.c **** *
 339:lib_DS1307/DS1307.c **** * Summary:
 340:lib_DS1307/DS1307.c **** *   Returns the date in the format used in APIs from individual elements passed 
 341:lib_DS1307/DS1307.c **** * Parametrs:
 342:lib_DS1307/DS1307.c **** *   month, day, year - date
 343:lib_DS1307/DS1307.c **** *
 344:lib_DS1307/DS1307.c **** *******************************************************************************/
 345:lib_DS1307/DS1307.c **** static uint32 DS1307_ConstructDate(uint32 month, uint32 day, uint32 year)
 346:lib_DS1307/DS1307.c **** {  
 347:lib_DS1307/DS1307.c ****     /*year in D1307 save ten (16 =>2016 year)*/
 348:lib_DS1307/DS1307.c ****     year +=2000;
 349:lib_DS1307/DS1307.c ****     uint32 retVal;
 350:lib_DS1307/DS1307.c ****     uint32 tmpVal = year;
 351:lib_DS1307/DS1307.c **** 
 352:lib_DS1307/DS1307.c ****     retVal  = (month / 10u) << DS1307_10_MONTH_OFFSET;
 353:lib_DS1307/DS1307.c ****     retVal |= (month % 10u) << DS1307_MONTH_OFFSET;
 354:lib_DS1307/DS1307.c **** 
 355:lib_DS1307/DS1307.c ****     retVal |= (day / 10u) << DS1307_10_DAY_OFFSET;
 356:lib_DS1307/DS1307.c ****     retVal |= (day % 10u) << DS1307_DAY_OFFSET;
 357:lib_DS1307/DS1307.c **** 
 358:lib_DS1307/DS1307.c ****     retVal |= (year / 1000u) << DS1307_1000_YEAR_OFFSET;
 359:lib_DS1307/DS1307.c ****     tmpVal %= 1000u;
 360:lib_DS1307/DS1307.c **** 
 361:lib_DS1307/DS1307.c ****     retVal |= (tmpVal / 100u) << DS1307_100_YEAR_OFFSET;
 362:lib_DS1307/DS1307.c ****     tmpVal %= 100u;
 363:lib_DS1307/DS1307.c **** 
 364:lib_DS1307/DS1307.c ****     retVal |= (tmpVal / 10u) << DS1307_10_YEAR_OFFSET;
 365:lib_DS1307/DS1307.c ****     retVal |= (tmpVal % 10u) << DS1307_YEAR_OFFSET;
 366:lib_DS1307/DS1307.c **** 
 367:lib_DS1307/DS1307.c ****     return (retVal);
 368:lib_DS1307/DS1307.c **** }
 369:lib_DS1307/DS1307.c **** 
 370:lib_DS1307/DS1307.c **** 
 371:lib_DS1307/DS1307.c **** /*******************************************************************************
 372:lib_DS1307/DS1307.c **** * Function Name: DS1307_DateTimeToUnix
ARM GAS  C:\Users\Petro\AppData\Local\Temp\ccqvpTVu.s 			page 8


 373:lib_DS1307/DS1307.c **** ********************************************************************************
 374:lib_DS1307/DS1307.c **** *
 375:lib_DS1307/DS1307.c **** * Summary:
 376:lib_DS1307/DS1307.c **** *   convert the time in unix format
 377:lib_DS1307/DS1307.c **** * Parametrs:
 378:lib_DS1307/DS1307.c **** *   inoutDate, inoutTime - date and time 
 379:lib_DS1307/DS1307.c **** *
 380:lib_DS1307/DS1307.c **** *******************************************************************************/
 381:lib_DS1307/DS1307.c **** static uint64 DS1307_DateTimeToUnix(uint32 inputDate, uint32 inputTime)
 382:lib_DS1307/DS1307.c **** {
 383:lib_DS1307/DS1307.c ****     uint32 i;
 384:lib_DS1307/DS1307.c ****     uint32 tmpYear;
 385:lib_DS1307/DS1307.c ****     uint32 tmpMonth;
 386:lib_DS1307/DS1307.c ****     uint32 tmpVal;
 387:lib_DS1307/DS1307.c ****     uint64 unixTime;
 388:lib_DS1307/DS1307.c **** 
 389:lib_DS1307/DS1307.c ****     unixTime = 0u;
 390:lib_DS1307/DS1307.c ****     
 391:lib_DS1307/DS1307.c ****     /*GetYear*/
 392:lib_DS1307/DS1307.c ****     tmpYear  = ((inputDate & DS1307_1000_YEAR_MASK_UNIX) >> DS1307_1000_YEAR_OFFSET) * 1000u;
 393:lib_DS1307/DS1307.c ****     tmpYear += ((inputDate & DS1307_100_YEAR_MASK_UNIX) >> DS1307_100_YEAR_OFFSET) * 100u;
 394:lib_DS1307/DS1307.c ****     tmpYear += ((inputDate & DS1307_10_YEAR_MASK_UNIX) >> DS1307_10_YEAR_OFFSET) * 10u;
 395:lib_DS1307/DS1307.c ****     tmpYear += (inputDate & DS1307_YEAR_MASK_UNIX) >> DS1307_YEAR_OFFSET;
 396:lib_DS1307/DS1307.c **** 
 397:lib_DS1307/DS1307.c ****     /* Calculate seconds from epoch start up to (but not including) current year. */
 398:lib_DS1307/DS1307.c ****     for(i = DS1307_YEAR_0; i < tmpYear; i++)
 399:lib_DS1307/DS1307.c ****     {
 400:lib_DS1307/DS1307.c ****         if(0u != ((((0u == (i % 4Lu)) && (0u != (i % 100Lu))) || (0u == (i % 400Lu)))))
 401:lib_DS1307/DS1307.c ****         {
 402:lib_DS1307/DS1307.c ****             unixTime += DS1307_SECONDS_PER_LEAP_YEAR;
 403:lib_DS1307/DS1307.c ****         }
 404:lib_DS1307/DS1307.c ****         else
 405:lib_DS1307/DS1307.c ****         {
 406:lib_DS1307/DS1307.c ****             unixTime += DS1307_SECONDS_PER_NONLEAP_YEAR;
 407:lib_DS1307/DS1307.c ****         }
 408:lib_DS1307/DS1307.c ****     }
 409:lib_DS1307/DS1307.c **** 
 410:lib_DS1307/DS1307.c ****     /* Calculates how many seconds had elapsed in this year prior to the current month. */
 411:lib_DS1307/DS1307.c ****     /*GetMonth*/
 412:lib_DS1307/DS1307.c ****     tmpMonth  = ((inputDate & DS1307_10_MONTH_MASK_UNIX) >> DS1307_10_MONTH_OFFSET) * 10u;
 413:lib_DS1307/DS1307.c ****     tmpMonth += (inputDate & DS1307_MONTH_MASK_UNIX) >> DS1307_MONTH_OFFSET;
 414:lib_DS1307/DS1307.c ****     
 415:lib_DS1307/DS1307.c ****     tmpVal = DS1307_daysBeforeMonthTbl1[tmpMonth - 1u];
 416:lib_DS1307/DS1307.c **** 
 417:lib_DS1307/DS1307.c ****     if((tmpMonth > 2u) && (0u != (((0u == (tmpYear % 4Lu)) && (0u != (tmpYear % 100Lu))) || (0u == 
 418:lib_DS1307/DS1307.c ****     {
 419:lib_DS1307/DS1307.c ****         tmpVal++;
 420:lib_DS1307/DS1307.c ****     }
 421:lib_DS1307/DS1307.c **** 
 422:lib_DS1307/DS1307.c ****     /* Calculates how many seconds are in current month days prior to today. */
 423:lib_DS1307/DS1307.c ****     unixTime += tmpVal * DS1307_SECONDS_PER_DAY;
 424:lib_DS1307/DS1307.c ****     /*GetDay*/
 425:lib_DS1307/DS1307.c ****     uint32_t getDay;
 426:lib_DS1307/DS1307.c ****     getDay  = ((inputDate & DS1307_10_DAY_MASK_UNIX) >> DS1307_10_DAY_OFFSET) * 10u;
 427:lib_DS1307/DS1307.c ****     getDay += (inputDate & DS1307_DAY_MASK_UNIX) >> DS1307_DAY_OFFSET;
 428:lib_DS1307/DS1307.c ****     
 429:lib_DS1307/DS1307.c ****     unixTime += (getDay - 1u) * DS1307_SECONDS_PER_DAY;
ARM GAS  C:\Users\Petro\AppData\Local\Temp\ccqvpTVu.s 			page 9


 430:lib_DS1307/DS1307.c **** 
 431:lib_DS1307/DS1307.c ****     /* Calculates how many seconds have elapsed today up to the current hour. */
 432:lib_DS1307/DS1307.c ****     /*GetHours*/
 433:lib_DS1307/DS1307.c ****     tmpVal  = ((inputTime & DS1307_10_HOURS_MASK_UNIX) >> DS1307_10_HOURS_OFFSET) * 10u;
 434:lib_DS1307/DS1307.c ****     tmpVal += (inputTime & DS1307_HOURS_MASK_UNIX) >> DS1307_HOURS_OFFSET;
 435:lib_DS1307/DS1307.c ****     
 436:lib_DS1307/DS1307.c ****     /*Get time format*/
 437:lib_DS1307/DS1307.c ****     uint32_t timeFormat= ((0uL != (inputTime & (1uL << DS1307_TIME_FORMAT_OFFSET))) ? (uint32)!DS13
 438:lib_DS1307/DS1307.c ****                                                                                   (uint32)!DS1307_2
 439:lib_DS1307/DS1307.c ****    
 440:lib_DS1307/DS1307.c ****     uint32_t AmRm = ((DS1307_PERIOD_OF_DAY_MASK_UNIX == (inputTime & DS1307_PERIOD_OF_DAY_MASK_UNIX
 441:lib_DS1307/DS1307.c ****     if(((uint32)!DS1307_24TIME_FORMAT != timeFormat) &&
 442:lib_DS1307/DS1307.c ****        ((uint32)DS1307_AM == AmRm) && (tmpVal < 12u))
 443:lib_DS1307/DS1307.c ****     {
 444:lib_DS1307/DS1307.c ****         tmpVal += DS1307_HOURS_PER_HALF_DAY;
 445:lib_DS1307/DS1307.c ****     }
 446:lib_DS1307/DS1307.c ****     unixTime += tmpVal * DS1307_SECONDS_PER_HOUR;
 447:lib_DS1307/DS1307.c **** 
 448:lib_DS1307/DS1307.c ****     /* Calculates how many seconds have elapsed today up to the current minute. */
 449:lib_DS1307/DS1307.c ****     /*get Minutes*/
 450:lib_DS1307/DS1307.c ****     uint32_t minutes;
 451:lib_DS1307/DS1307.c ****     minutes  = ((inputTime & DS1307_10_MINUTES_MASK_UNIX) >> DS1307_10_MINUTES_OFFSET) * 10u;
 452:lib_DS1307/DS1307.c ****     minutes += (inputTime & DS1307_MINUTES_MASK_UNIX) >> DS1307_MINUTES_OFFSET;
 453:lib_DS1307/DS1307.c ****     
 454:lib_DS1307/DS1307.c ****     unixTime += minutes * DS1307_SECONDS_PER_MINUTE;
 455:lib_DS1307/DS1307.c **** 
 456:lib_DS1307/DS1307.c ****     /* Add remaining seconds of current minute. */
 457:lib_DS1307/DS1307.c ****     uint32_t seconds;
 458:lib_DS1307/DS1307.c ****     seconds  = ((inputTime & DS1307_10_SECONDS_MASK_UNIX) >> DS1307_10_SECONDS_OFFSET) * 10u;
 459:lib_DS1307/DS1307.c ****     seconds += (inputTime & DS1307_SECONDS_MASK_UNIX) >> DS1307_SECONDS_OFFSET;
 460:lib_DS1307/DS1307.c ****     unixTime += seconds;
 461:lib_DS1307/DS1307.c **** 
 462:lib_DS1307/DS1307.c ****     return(unixTime);
 463:lib_DS1307/DS1307.c **** }
 464:lib_DS1307/DS1307.c **** 
 465:lib_DS1307/DS1307.c **** /*******************************************************************************
 466:lib_DS1307/DS1307.c **** * Function Name: DS1307_GetUnixTime
 467:lib_DS1307/DS1307.c **** ********************************************************************************
 468:lib_DS1307/DS1307.c **** *
 469:lib_DS1307/DS1307.c **** * Summary:
 470:lib_DS1307/DS1307.c **** *   get time from DS1307
 471:lib_DS1307/DS1307.c **** * Return:
 472:lib_DS1307/DS1307.c **** *   unix time
 473:lib_DS1307/DS1307.c **** *
 474:lib_DS1307/DS1307.c **** *******************************************************************************/
 475:lib_DS1307/DS1307.c **** uint64_t DS1307_GetUnixTime(void)
 476:lib_DS1307/DS1307.c **** {
  28              		.loc 1 476 0
  29              		.cfi_startproc
  30 0000 F0B5     		push	{r4, r5, r6, r7, lr}
  31              		.cfi_def_cfa_offset 20
  32              		.cfi_offset 4, -20
  33              		.cfi_offset 5, -16
  34              		.cfi_offset 6, -12
  35              		.cfi_offset 7, -8
  36              		.cfi_offset 14, -4
  37 0002 89B0     		sub	sp, sp, #36
ARM GAS  C:\Users\Petro\AppData\Local\Temp\ccqvpTVu.s 			page 10


  38              		.cfi_def_cfa_offset 56
  39              	.LBB10:
  40              	.LBB11:
 191:lib_DS1307/DS1307.c ****     
  41              		.loc 1 191 0
  42 0004 FFF7FEFF 		bl	I2C_Start
  43              	.LVL0:
 195:lib_DS1307/DS1307.c ****     if(status == I2C_I2C_MSTR_NO_ERROR)
  44              		.loc 1 195 0
  45 0008 6820     		mov	r0, #104
  46 000a 0021     		mov	r1, #0
  47 000c FFF7FEFF 		bl	I2C_I2CMasterSendStart
  48              	.LVL1:
  49              	.LBE11:
  50              	.LBE10:
 477:lib_DS1307/DS1307.c ****     uint64_t unixTime;
 478:lib_DS1307/DS1307.c ****     uint32_t date;
 479:lib_DS1307/DS1307.c ****     uint32_t time;
 480:lib_DS1307/DS1307.c ****     uint32_t status;
 481:lib_DS1307/DS1307.c ****     
 482:lib_DS1307/DS1307.c ****     status = DS1307_ReadTimeToStruct();
 483:lib_DS1307/DS1307.c ****     
 484:lib_DS1307/DS1307.c ****     if(status == I2C_I2C_MSTR_NO_ERROR)
 485:lib_DS1307/DS1307.c ****     {
 486:lib_DS1307/DS1307.c ****         date = DS1307_ConstructDate(DS1307_currentTimeDate.month,\
 487:lib_DS1307/DS1307.c ****                                     DS1307_currentTimeDate.date, \
 488:lib_DS1307/DS1307.c ****                                     DS1307_currentTimeDate.year);
 489:lib_DS1307/DS1307.c ****         time = DS1307_ConstructTime(DS1307_currentTimeDate.timeFormat,   \
 490:lib_DS1307/DS1307.c ****                                     DS1307_currentTimeDate.AmRm,   \
 491:lib_DS1307/DS1307.c ****                                     DS1307_currentTimeDate.hours,   \
 492:lib_DS1307/DS1307.c ****                                     DS1307_currentTimeDate.minutes,   \
 493:lib_DS1307/DS1307.c ****                                     DS1307_currentTimeDate.second);
 494:lib_DS1307/DS1307.c ****         /*convert  time and data in unix format*/
 495:lib_DS1307/DS1307.c ****         unixTime = DS1307_DateTimeToUnix(date, time);
 496:lib_DS1307/DS1307.c ****     }
 497:lib_DS1307/DS1307.c ****     else 
 498:lib_DS1307/DS1307.c ****     {
 499:lib_DS1307/DS1307.c ****         unixTime = 0;
  51              		.loc 1 499 0
  52 0010 0024     		mov	r4, #0
  53 0012 0025     		mov	r5, #0
  54              	.LBB14:
  55              	.LBB12:
 196:lib_DS1307/DS1307.c ****     {
  56              		.loc 1 196 0
  57 0014 0028     		cmp	r0, #0
  58 0016 00D0     		beq	.LCB29
  59 0018 86E1     		b	.L30	@long jump
  60              	.LCB29:
 198:lib_DS1307/DS1307.c ****     }
  61              		.loc 1 198 0
  62 001a FFF7FEFF 		bl	I2C_I2CMasterWriteByte
  63              	.LVL2:
 205:lib_DS1307/DS1307.c **** 
  64              		.loc 1 205 0
  65 001e FFF7FEFF 		bl	I2C_I2CMasterSendStop
  66              	.LVL3:
ARM GAS  C:\Users\Petro\AppData\Local\Temp\ccqvpTVu.s 			page 11


 208:lib_DS1307/DS1307.c ****     status = I2C_I2CMasterSendStart(DS1307_SLAVE_ADRESS,I2C_I2C_READ_XFER_MODE);
  67              		.loc 1 208 0
  68 0022 FFF7FEFF 		bl	I2C_I2CMasterClearStatus
  69              	.LVL4:
 209:lib_DS1307/DS1307.c ****     if(I2C_I2C_MSTR_NO_ERROR == status) 
  70              		.loc 1 209 0
  71 0026 6820     		mov	r0, #104
  72 0028 0121     		mov	r1, #1
  73 002a FFF7FEFF 		bl	I2C_I2CMasterSendStart
  74              	.LVL5:
 210:lib_DS1307/DS1307.c ****     {
  75              		.loc 1 210 0
  76 002e 0028     		cmp	r0, #0
  77 0030 28D0     		beq	.L24
  78              	.LVL6:
  79              	.L8:
 225:lib_DS1307/DS1307.c ****     I2C_Stop();
  80              		.loc 1 225 0
  81 0032 FFF7FEFF 		bl	I2C_I2CMasterSendStop
  82              	.LVL7:
 226:lib_DS1307/DS1307.c ****     
  83              		.loc 1 226 0
  84 0036 FFF7FEFF 		bl	I2C_Stop
  85              	.LVL8:
 229:lib_DS1307/DS1307.c ****     DS1307_currentTimeDate.minutes = (data[DS1307_MIN_ADRESS]& DS1307_MIN_MASK)+(((data[DS1307_MIN_
  86              		.loc 1 229 0
  87 003a 06AB     		add	r3, sp, #24
  88 003c 1B78     		ldrb	r3, [r3]
  89 003e 7020     		mov	r0, #112
  90 0040 1D1C     		mov	r5, r3
  91 0042 0A24     		mov	r4, #10
  92 0044 0F21     		mov	r1, #15
  93 0046 0540     		and	r5, r0
  94 0048 2D11     		asr	r5, r5, #4
  95 004a 6543     		mul	r5, r4
  96 004c B84A     		ldr	r2, .L40
  97 004e 0B40     		and	r3, r1
  98 0050 EB18     		add	r3, r5, r3
  99 0052 1370     		strb	r3, [r2]
 230:lib_DS1307/DS1307.c ****     DS1307_currentTimeDate.timeFormat = (data[DS1307_HOUR_ADRESS] & DS1307_TIME_FORMAT_MASK)>>6;
 100              		.loc 1 230 0
 101 0054 06AB     		add	r3, sp, #24
 102 0056 5D78     		ldrb	r5, [r3, #1]
 103 0058 2840     		and	r0, r5
 104 005a 0011     		asr	r0, r0, #4
 105 005c 6043     		mul	r0, r4
 106 005e 0D40     		and	r5, r1
 107 0060 4019     		add	r0, r0, r5
 108 0062 5070     		strb	r0, [r2, #1]
 231:lib_DS1307/DS1307.c ****     if(DS1307_currentTimeDate.timeFormat == DS1307_12TIME_FORMAT)
 109              		.loc 1 231 0
 110 0064 9B78     		ldrb	r3, [r3, #2]
 111 0066 5806     		lsl	r0, r3, #25
 112 0068 C00F     		lsr	r0, r0, #31
 113 006a D070     		strb	r0, [r2, #3]
 114 006c 1940     		and	r1, r3
 232:lib_DS1307/DS1307.c ****     {
ARM GAS  C:\Users\Petro\AppData\Local\Temp\ccqvpTVu.s 			page 12


 115              		.loc 1 232 0
 116 006e 0128     		cmp	r0, #1
 117 0070 1BD1     		bne	.L33
 234:lib_DS1307/DS1307.c ****         DS1307_currentTimeDate.AmRm = (data[DS1307_HOUR_ADRESS]&DS1307_AM_RM_MASK)>>5;
 118              		.loc 1 234 0
 119 0072 D806     		lsl	r0, r3, #27
 120 0074 C00F     		lsr	r0, r0, #31
 121 0076 4443     		mul	r4, r0
 235:lib_DS1307/DS1307.c ****     }
 122              		.loc 1 235 0
 123 0078 9B06     		lsl	r3, r3, #26
 234:lib_DS1307/DS1307.c ****         DS1307_currentTimeDate.AmRm = (data[DS1307_HOUR_ADRESS]&DS1307_AM_RM_MASK)>>5;
 124              		.loc 1 234 0
 125 007a 6118     		add	r1, r4, r1
 235:lib_DS1307/DS1307.c ****     }
 126              		.loc 1 235 0
 127 007c DB0F     		lsr	r3, r3, #31
 234:lib_DS1307/DS1307.c ****         DS1307_currentTimeDate.AmRm = (data[DS1307_HOUR_ADRESS]&DS1307_AM_RM_MASK)>>5;
 128              		.loc 1 234 0
 129 007e 9170     		strb	r1, [r2, #2]
 235:lib_DS1307/DS1307.c ****     }
 130              		.loc 1 235 0
 131 0080 1371     		strb	r3, [r2, #4]
 132 0082 17E0     		b	.L9
 133              	.LVL9:
 134              	.L24:
 210:lib_DS1307/DS1307.c ****     {
 135              		.loc 1 210 0
 136 0084 041C     		mov	r4, r0
 137              	.LVL10:
 138              	.L3:
 139 0086 651C     		add	r5, r4, #1
 215:lib_DS1307/DS1307.c ****             {
 140              		.loc 1 215 0
 141 0088 062C     		cmp	r4, #6
 142 008a 08D0     		beq	.L6
 217:lib_DS1307/DS1307.c ****             }
 143              		.loc 1 217 0
 144 008c 0020     		mov	r0, #0
 145 008e FFF7FEFF 		bl	I2C_I2CMasterReadByte
 146              	.LVL11:
 147 0092 06AB     		add	r3, sp, #24
 148 0094 1855     		strb	r0, [r3, r4]
 213:lib_DS1307/DS1307.c ****         {   
 149              		.loc 1 213 0
 150 0096 2C1E     		sub	r4, r5, #0
 151              	.LVL12:
 152 0098 072C     		cmp	r4, #7
 153 009a F4D1     		bne	.L3
 154 009c C9E7     		b	.L8
 155              	.L6:
 221:lib_DS1307/DS1307.c ****             }
 156              		.loc 1 221 0
 157 009e 0120     		mov	r0, #1
 158 00a0 FFF7FEFF 		bl	I2C_I2CMasterReadByte
 159              	.LVL13:
 160 00a4 06AB     		add	r3, sp, #24
ARM GAS  C:\Users\Petro\AppData\Local\Temp\ccqvpTVu.s 			page 13


 161 00a6 9871     		strb	r0, [r3, #6]
 162 00a8 C3E7     		b	.L8
 163              	.LVL14:
 164              	.L33:
 239:lib_DS1307/DS1307.c ****     }
 165              		.loc 1 239 0
 166 00aa 9B06     		lsl	r3, r3, #26
 167 00ac 9B0F     		lsr	r3, r3, #30
 168 00ae 6343     		mul	r3, r4
 169 00b0 5B18     		add	r3, r3, r1
 170 00b2 9370     		strb	r3, [r2, #2]
 171              	.L9:
 241:lib_DS1307/DS1307.c ****     DS1307_currentTimeDate.date = (data[DS1307_DATE_ADRESS]&DS1307_DATE_MASK) + (((data[DS1307_DATE
 172              		.loc 1 241 0
 173 00b4 06AB     		add	r3, sp, #24
 174 00b6 D978     		ldrb	r1, [r3, #3]
 175 00b8 0723     		mov	r3, #7
 176 00ba 0B40     		and	r3, r1
 177 00bc 5371     		strb	r3, [r2, #5]
 242:lib_DS1307/DS1307.c ****     DS1307_currentTimeDate.month  = (data[DS1307_MONTH_ADRESS]&DS1307_MONTH_MASK) + (((data[DS1307_
 178              		.loc 1 242 0
 179 00be 06AB     		add	r3, sp, #24
 180 00c0 1979     		ldrb	r1, [r3, #4]
 181 00c2 0F20     		mov	r0, #15
 182 00c4 8B06     		lsl	r3, r1, #26
 183 00c6 9F0F     		lsr	r7, r3, #30
 184 00c8 0A23     		mov	r3, #10
 185 00ca 7B43     		mul	r3, r7
 186 00cc 0140     		and	r1, r0
 187 00ce 5F18     		add	r7, r3, r1
 188 00d0 9771     		strb	r7, [r2, #6]
 243:lib_DS1307/DS1307.c ****     DS1307_currentTimeDate.year = (data[DS1307_YEAR_ADRESS]&DS1307_YEAR_MASK) + (((data[DS1307_YEAR
 189              		.loc 1 243 0
 190 00d2 06AB     		add	r3, sp, #24
 191 00d4 5979     		ldrb	r1, [r3, #5]
 192              	.LBE12:
 193              	.LBE14:
 486:lib_DS1307/DS1307.c ****                                     DS1307_currentTimeDate.date, \
 194              		.loc 1 486 0
 195 00d6 FFB2     		uxtb	r7, r7
 196              	.LBB15:
 197              	.LBB13:
 243:lib_DS1307/DS1307.c ****     DS1307_currentTimeDate.year = (data[DS1307_YEAR_ADRESS]&DS1307_YEAR_MASK) + (((data[DS1307_YEAR
 198              		.loc 1 243 0
 199 00d8 CB06     		lsl	r3, r1, #27
 200 00da DD0F     		lsr	r5, r3, #31
 201 00dc 0A23     		mov	r3, #10
 202 00de 6B43     		mul	r3, r5
 203 00e0 0140     		and	r1, r0
 204 00e2 5D18     		add	r5, r3, r1
 205 00e4 D571     		strb	r5, [r2, #7]
 244:lib_DS1307/DS1307.c ****     
 206              		.loc 1 244 0
 207 00e6 06AB     		add	r3, sp, #24
 208 00e8 9B79     		ldrb	r3, [r3, #6]
 209 00ea 0538     		sub	r0, r0, #5
 210 00ec 1909     		lsr	r1, r3, #4
ARM GAS  C:\Users\Petro\AppData\Local\Temp\ccqvpTVu.s 			page 14


 211 00ee 4143     		mul	r1, r0
 212 00f0 0530     		add	r0, r0, #5
 213 00f2 0340     		and	r3, r0
 214 00f4 5B18     		add	r3, r3, r1
 215 00f6 1381     		strh	r3, [r2, #8]
 216              	.LBE13:
 217              	.LBE15:
 218              	.LBB16:
 219              	.LBB17:
 348:lib_DS1307/DS1307.c ****     uint32 retVal;
 220              		.loc 1 348 0
 221 00f8 FA22     		mov	r2, #250
 359:lib_DS1307/DS1307.c **** 
 222              		.loc 1 359 0
 223 00fa FA21     		mov	r1, #250
 348:lib_DS1307/DS1307.c ****     uint32 retVal;
 224              		.loc 1 348 0
 225 00fc D200     		lsl	r2, r2, #3
 226              	.LBE17:
 227              	.LBE16:
 486:lib_DS1307/DS1307.c ****                                     DS1307_currentTimeDate.date, \
 228              		.loc 1 486 0
 229 00fe 9BB2     		uxth	r3, r3
 230              	.LBB22:
 231              	.LBB18:
 348:lib_DS1307/DS1307.c ****     uint32 retVal;
 232              		.loc 1 348 0
 233 0100 9B18     		add	r3, r3, r2
 359:lib_DS1307/DS1307.c **** 
 234              		.loc 1 359 0
 235 0102 181C     		mov	r0, r3
 236 0104 8900     		lsl	r1, r1, #2
 348:lib_DS1307/DS1307.c ****     uint32 retVal;
 237              		.loc 1 348 0
 238 0106 0093     		str	r3, [sp]
 359:lib_DS1307/DS1307.c **** 
 239              		.loc 1 359 0
 240 0108 FFF7FEFF 		bl	__aeabi_uidivmod
 241              	.LVL15:
 242 010c 0291     		str	r1, [sp, #8]
 362:lib_DS1307/DS1307.c **** 
 243              		.loc 1 362 0
 244 010e 081C     		mov	r0, r1
 245 0110 6421     		mov	r1, #100
 246 0112 FFF7FEFF 		bl	__aeabi_uidivmod
 247              	.LVL16:
 248              	.LBE18:
 249              	.LBE22:
 486:lib_DS1307/DS1307.c ****                                     DS1307_currentTimeDate.date, \
 250              		.loc 1 486 0
 251 0116 EDB2     		uxtb	r5, r5
 252              	.LVL17:
 253              	.LBB23:
 254              	.LBB19:
 362:lib_DS1307/DS1307.c **** 
 255              		.loc 1 362 0
 256 0118 0491     		str	r1, [sp, #16]
ARM GAS  C:\Users\Petro\AppData\Local\Temp\ccqvpTVu.s 			page 15


 257              	.LVL18:
 353:lib_DS1307/DS1307.c **** 
 258              		.loc 1 353 0
 259 011a 281C     		mov	r0, r5
 260 011c 0A21     		mov	r1, #10
 261              	.LVL19:
 262 011e FFF7FEFF 		bl	__aeabi_uidivmod
 263              	.LVL20:
 352:lib_DS1307/DS1307.c ****     retVal |= (month % 10u) << DS1307_MONTH_OFFSET;
 264              		.loc 1 352 0
 265 0122 281C     		mov	r0, r5
 353:lib_DS1307/DS1307.c **** 
 266              		.loc 1 353 0
 267 0124 0E06     		lsl	r6, r1, #24
 352:lib_DS1307/DS1307.c ****     retVal |= (month % 10u) << DS1307_MONTH_OFFSET;
 268              		.loc 1 352 0
 269 0126 0A21     		mov	r1, #10
 270 0128 FFF7FEFF 		bl	__aeabi_uidiv
 271              	.LVL21:
 272 012c 0007     		lsl	r0, r0, #28
 273 012e 0643     		orr	r6, r0
 355:lib_DS1307/DS1307.c ****     retVal |= (day % 10u) << DS1307_DAY_OFFSET;
 274              		.loc 1 355 0
 275 0130 0A21     		mov	r1, #10
 276 0132 381C     		mov	r0, r7
 277 0134 FFF7FEFF 		bl	__aeabi_uidiv
 278              	.LVL22:
 279 0138 0005     		lsl	r0, r0, #20
 280 013a 0643     		orr	r6, r0
 356:lib_DS1307/DS1307.c **** 
 281              		.loc 1 356 0
 282 013c 0A21     		mov	r1, #10
 283 013e 381C     		mov	r0, r7
 284 0140 FFF7FEFF 		bl	__aeabi_uidivmod
 285              	.LVL23:
 286 0144 0904     		lsl	r1, r1, #16
 287 0146 0E43     		orr	r6, r1
 358:lib_DS1307/DS1307.c ****     tmpVal %= 1000u;
 288              		.loc 1 358 0
 289 0148 FA21     		mov	r1, #250
 290 014a 0098     		ldr	r0, [sp]
 291 014c 8900     		lsl	r1, r1, #2
 292 014e FFF7FEFF 		bl	__aeabi_uidiv
 293              	.LVL24:
 294 0152 0003     		lsl	r0, r0, #12
 295 0154 0643     		orr	r6, r0
 361:lib_DS1307/DS1307.c ****     tmpVal %= 100u;
 296              		.loc 1 361 0
 297 0156 6421     		mov	r1, #100
 298 0158 0298     		ldr	r0, [sp, #8]
 299 015a FFF7FEFF 		bl	__aeabi_uidiv
 300              	.LVL25:
 301 015e 0002     		lsl	r0, r0, #8
 302 0160 0643     		orr	r6, r0
 365:lib_DS1307/DS1307.c **** 
 303              		.loc 1 365 0
 304 0162 0A21     		mov	r1, #10
ARM GAS  C:\Users\Petro\AppData\Local\Temp\ccqvpTVu.s 			page 16


 305 0164 0498     		ldr	r0, [sp, #16]
 306 0166 FFF7FEFF 		bl	__aeabi_uidivmod
 307              	.LVL26:
 364:lib_DS1307/DS1307.c ****     retVal |= (tmpVal % 10u) << DS1307_YEAR_OFFSET;
 308              		.loc 1 364 0
 309 016a 0498     		ldr	r0, [sp, #16]
 310 016c 0E43     		orr	r6, r1
 311 016e 0A21     		mov	r1, #10
 312 0170 FFF7FEFF 		bl	__aeabi_uidiv
 313              	.LVL27:
 314              	.LBE19:
 315              	.LBE23:
 486:lib_DS1307/DS1307.c ****                                     DS1307_currentTimeDate.date, \
 316              		.loc 1 486 0
 317 0174 6E4C     		ldr	r4, .L40
 318              	.LBB24:
 319              	.LBB20:
 364:lib_DS1307/DS1307.c ****     retVal |= (tmpVal % 10u) << DS1307_YEAR_OFFSET;
 320              		.loc 1 364 0
 321 0176 0001     		lsl	r0, r0, #4
 322              	.LBE20:
 323              	.LBE24:
 489:lib_DS1307/DS1307.c ****                                     DS1307_currentTimeDate.AmRm,   \
 324              		.loc 1 489 0
 325 0178 A378     		ldrb	r3, [r4, #2]
 326 017a 2578     		ldrb	r5, [r4]
 327              	.LVL28:
 328 017c 0093     		str	r3, [sp]
 329              	.LVL29:
 330 017e 2179     		ldrb	r1, [r4, #4]
 331 0180 E378     		ldrb	r3, [r4, #3]
 332              	.LBB25:
 333              	.LBB26:
 321:lib_DS1307/DS1307.c **** 
 334              		.loc 1 321 0
 335 0182 8905     		lsl	r1, r1, #22
 320:lib_DS1307/DS1307.c ****     retVal |= stateAmPm << DS1307_PERIOD_OF_DAY_OFFSET;
 336              		.loc 1 320 0
 337 0184 DB05     		lsl	r3, r3, #23
 338 0186 1943     		orr	r1, r3
 339              	.LBE26:
 340              	.LBE25:
 341              	.LBB31:
 342              	.LBB21:
 365:lib_DS1307/DS1307.c **** 
 343              		.loc 1 365 0
 344 0188 0643     		orr	r6, r0
 345 018a 371C     		mov	r7, r6
 346              	.LVL30:
 347              	.LBE21:
 348              	.LBE31:
 349              	.LBB32:
 350              	.LBB27:
 330:lib_DS1307/DS1307.c **** 
 351              		.loc 1 330 0
 352 018c 281C     		mov	r0, r5
 353              	.LBE27:
ARM GAS  C:\Users\Petro\AppData\Local\Temp\ccqvpTVu.s 			page 17


 354              	.LBE32:
 489:lib_DS1307/DS1307.c ****                                     DS1307_currentTimeDate.AmRm,   \
 355              		.loc 1 489 0
 356 018e 6678     		ldrb	r6, [r4, #1]
 357              	.LVL31:
 358 0190 0C1C     		mov	r4, r1
 359              	.LBB33:
 360              	.LBB28:
 330:lib_DS1307/DS1307.c **** 
 361              		.loc 1 330 0
 362 0192 0A21     		mov	r1, #10
 363 0194 FFF7FEFF 		bl	__aeabi_uidivmod
 364              	.LVL32:
 323:lib_DS1307/DS1307.c ****     retVal |= (hour % 10u) << DS1307_HOURS_OFFSET;
 365              		.loc 1 323 0
 366 0198 0098     		ldr	r0, [sp]
 367 019a 0C43     		orr	r4, r1
 368 019c 0A21     		mov	r1, #10
 369 019e FFF7FEFF 		bl	__aeabi_uidiv
 370              	.LVL33:
 371 01a2 0005     		lsl	r0, r0, #20
 372 01a4 0443     		orr	r4, r0
 324:lib_DS1307/DS1307.c **** 
 373              		.loc 1 324 0
 374 01a6 0A21     		mov	r1, #10
 375 01a8 0098     		ldr	r0, [sp]
 376 01aa FFF7FEFF 		bl	__aeabi_uidivmod
 377              	.LVL34:
 378 01ae 0904     		lsl	r1, r1, #16
 379 01b0 0C43     		orr	r4, r1
 326:lib_DS1307/DS1307.c ****     retVal |= (min % 10u) << DS1307_MINUTES_OFFSET;
 380              		.loc 1 326 0
 381 01b2 301C     		mov	r0, r6
 382 01b4 0A21     		mov	r1, #10
 383 01b6 FFF7FEFF 		bl	__aeabi_uidiv
 384              	.LVL35:
 385 01ba 0003     		lsl	r0, r0, #12
 386 01bc 0443     		orr	r4, r0
 327:lib_DS1307/DS1307.c **** 
 387              		.loc 1 327 0
 388 01be 0A21     		mov	r1, #10
 389 01c0 301C     		mov	r0, r6
 390 01c2 FFF7FEFF 		bl	__aeabi_uidivmod
 391              	.LVL36:
 392 01c6 0902     		lsl	r1, r1, #8
 393 01c8 0C43     		orr	r4, r1
 329:lib_DS1307/DS1307.c ****     retVal |= (sec % 10u) << DS1307_SECONDS_OFFSET;
 394              		.loc 1 329 0
 395 01ca 281C     		mov	r0, r5
 396 01cc 0A21     		mov	r1, #10
 397 01ce FFF7FEFF 		bl	__aeabi_uidiv
 398              	.LVL37:
 399              	.LBE28:
 400              	.LBE33:
 401              	.LBB34:
 402              	.LBB35:
 392:lib_DS1307/DS1307.c ****     tmpYear += ((inputDate & DS1307_100_YEAR_MASK_UNIX) >> DS1307_100_YEAR_OFFSET) * 100u;
ARM GAS  C:\Users\Petro\AppData\Local\Temp\ccqvpTVu.s 			page 18


 403              		.loc 1 392 0
 404 01d2 FA22     		mov	r2, #250
 405 01d4 BD04     		lsl	r5, r7, #18
 406              	.LVL38:
 407 01d6 AD0F     		lsr	r5, r5, #30
 408 01d8 9200     		lsl	r2, r2, #2
 409 01da 6A43     		mul	r2, r5
 410 01dc 111C     		mov	r1, r2
 393:lib_DS1307/DS1307.c ****     tmpYear += ((inputDate & DS1307_10_YEAR_MASK_UNIX) >> DS1307_10_YEAR_OFFSET) * 10u;
 411              		.loc 1 393 0
 412 01de 6422     		mov	r2, #100
 413 01e0 3B05     		lsl	r3, r7, #20
 414 01e2 1B0F     		lsr	r3, r3, #28
 415 01e4 5343     		mul	r3, r2
 395:lib_DS1307/DS1307.c **** 
 416              		.loc 1 395 0
 417 01e6 553A     		sub	r2, r2, #85
 393:lib_DS1307/DS1307.c ****     tmpYear += ((inputDate & DS1307_10_YEAR_MASK_UNIX) >> DS1307_10_YEAR_OFFSET) * 10u;
 418              		.loc 1 393 0
 419 01e8 CD18     		add	r5, r1, r3
 395:lib_DS1307/DS1307.c **** 
 420              		.loc 1 395 0
 421 01ea 3A40     		and	r2, r7
 422 01ec AB18     		add	r3, r5, r2
 394:lib_DS1307/DS1307.c ****     tmpYear += (inputDate & DS1307_YEAR_MASK_UNIX) >> DS1307_YEAR_OFFSET;
 423              		.loc 1 394 0
 424 01ee 0A22     		mov	r2, #10
 425 01f0 3D06     		lsl	r5, r7, #24
 426 01f2 2D0F     		lsr	r5, r5, #28
 427 01f4 5543     		mul	r5, r2
 389:lib_DS1307/DS1307.c ****     
 428              		.loc 1 389 0
 429 01f6 0022     		mov	r2, #0
 395:lib_DS1307/DS1307.c **** 
 430              		.loc 1 395 0
 431 01f8 5D19     		add	r5, r3, r5
 389:lib_DS1307/DS1307.c ****     
 432              		.loc 1 389 0
 433 01fa 0023     		mov	r3, #0
 434 01fc 0092     		str	r2, [sp]
 435 01fe 0193     		str	r3, [sp, #4]
 436              	.LVL39:
 437              	.LBE35:
 438              	.LBE34:
 439              	.LBB39:
 440              	.LBB29:
 329:lib_DS1307/DS1307.c ****     retVal |= (sec % 10u) << DS1307_SECONDS_OFFSET;
 441              		.loc 1 329 0
 442 0200 0001     		lsl	r0, r0, #4
 443              	.LBE29:
 444              	.LBE39:
 445              	.LBB40:
 446              	.LBB36:
 398:lib_DS1307/DS1307.c ****     {
 447              		.loc 1 398 0
 448 0202 4C4E     		ldr	r6, .L40+4
 449              	.LVL40:
ARM GAS  C:\Users\Petro\AppData\Local\Temp\ccqvpTVu.s 			page 19


 450              	.LBE36:
 451              	.LBE40:
 452              	.LBB41:
 453              	.LBB30:
 330:lib_DS1307/DS1307.c **** 
 454              		.loc 1 330 0
 455 0204 0443     		orr	r4, r0
 456              	.LVL41:
 457              	.L11:
 458              	.LBE30:
 459              	.LBE41:
 460              	.LBB42:
 461              	.LBB37:
 398:lib_DS1307/DS1307.c ****     {
 462              		.loc 1 398 0
 463 0206 AE42     		cmp	r6, r5
 464 0208 0FD2     		bcs	.L38
 400:lib_DS1307/DS1307.c ****         {
 465              		.loc 1 400 0
 466 020a B307     		lsl	r3, r6, #30
 467 020c 05D1     		bne	.L12
 468 020e 301C     		mov	r0, r6
 469 0210 6421     		mov	r1, #100
 470 0212 FFF7FEFF 		bl	__aeabi_uidivmod
 471              	.LVL42:
 472 0216 0029     		cmp	r1, #0
 473 0218 78D1     		bne	.L13
 474              	.L12:
 475 021a C821     		mov	r1, #200
 476 021c 301C     		mov	r0, r6
 477 021e 4900     		lsl	r1, r1, #1
 478 0220 FFF7FEFF 		bl	__aeabi_uidivmod
 479              	.LVL43:
 480 0224 0029     		cmp	r1, #0
 481 0226 71D0     		beq	.L13
 482 0228 72E0     		b	.L39
 483              	.L38:
 412:lib_DS1307/DS1307.c ****     tmpMonth += (inputDate & DS1307_MONTH_MASK_UNIX) >> DS1307_MONTH_OFFSET;
 484              		.loc 1 412 0
 485 022a 0A22     		mov	r2, #10
 486 022c FB00     		lsl	r3, r7, #3
 487 022e DB0F     		lsr	r3, r3, #31
 488 0230 5A43     		mul	r2, r3
 489 0232 111C     		mov	r1, r2
 490              	.LVL44:
 413:lib_DS1307/DS1307.c ****     
 491              		.loc 1 413 0
 492 0234 3B01     		lsl	r3, r7, #4
 493 0236 1A0F     		lsr	r2, r3, #28
 494 0238 8B18     		add	r3, r1, r2
 495              	.LVL45:
 415:lib_DS1307/DS1307.c **** 
 496              		.loc 1 415 0
 497 023a 5A1E     		sub	r2, r3, #1
 498 023c 3E49     		ldr	r1, .L40+8
 499 023e 5200     		lsl	r2, r2, #1
 500 0240 565A     		ldrh	r6, [r2, r1]
ARM GAS  C:\Users\Petro\AppData\Local\Temp\ccqvpTVu.s 			page 20


 501              	.LVL46:
 417:lib_DS1307/DS1307.c ****     {
 502              		.loc 1 417 0
 503 0242 022B     		cmp	r3, #2
 504 0244 0ED9     		bls	.L16
 505 0246 AB07     		lsl	r3, r5, #30
 506 0248 05D1     		bne	.L17
 507              	.LVL47:
 508 024a 281C     		mov	r0, r5
 509 024c 6421     		mov	r1, #100
 510 024e FFF7FEFF 		bl	__aeabi_uidivmod
 511              	.LVL48:
 512 0252 0029     		cmp	r1, #0
 513 0254 66D1     		bne	.L18
 514              	.L17:
 515 0256 C821     		mov	r1, #200
 516 0258 281C     		mov	r0, r5
 517 025a 4900     		lsl	r1, r1, #1
 518 025c FFF7FEFF 		bl	__aeabi_uidivmod
 519              	.LVL49:
 520 0260 0029     		cmp	r1, #0
 521 0262 5FD0     		beq	.L18
 522              	.L16:
 423:lib_DS1307/DS1307.c ****     /*GetDay*/
 523              		.loc 1 423 0
 524 0264 0023     		mov	r3, #0
 525 0266 0393     		str	r3, [sp, #12]
 526              	.LVL50:
 426:lib_DS1307/DS1307.c ****     getDay += (inputDate & DS1307_DAY_MASK_UNIX) >> DS1307_DAY_OFFSET;
 527              		.loc 1 426 0
 528 0268 C023     		mov	r3, #192
 529 026a 391C     		mov	r1, r7
 530 026c 0A25     		mov	r5, #10
 531              	.LVL51:
 532 026e 9B03     		lsl	r3, r3, #14
 423:lib_DS1307/DS1307.c ****     /*GetDay*/
 533              		.loc 1 423 0
 534 0270 3248     		ldr	r0, .L40+12
 426:lib_DS1307/DS1307.c ****     getDay += (inputDate & DS1307_DAY_MASK_UNIX) >> DS1307_DAY_OFFSET;
 535              		.loc 1 426 0
 536 0272 1940     		and	r1, r3
 537 0274 090D     		lsr	r1, r1, #20
 423:lib_DS1307/DS1307.c ****     /*GetDay*/
 538              		.loc 1 423 0
 539 0276 4643     		mul	r6, r0
 540              	.LVL52:
 426:lib_DS1307/DS1307.c ****     getDay += (inputDate & DS1307_DAY_MASK_UNIX) >> DS1307_DAY_OFFSET;
 541              		.loc 1 426 0
 542 0278 6943     		mul	r1, r5
 427:lib_DS1307/DS1307.c ****     
 543              		.loc 1 427 0
 544 027a F022     		mov	r2, #240
 423:lib_DS1307/DS1307.c ****     /*GetDay*/
 545              		.loc 1 423 0
 546 027c 0296     		str	r6, [sp, #8]
 547              	.LVL53:
 426:lib_DS1307/DS1307.c ****     getDay += (inputDate & DS1307_DAY_MASK_UNIX) >> DS1307_DAY_OFFSET;
ARM GAS  C:\Users\Petro\AppData\Local\Temp\ccqvpTVu.s 			page 21


 548              		.loc 1 426 0
 549 027e 0E1C     		mov	r6, r1
 550              	.LVL54:
 427:lib_DS1307/DS1307.c ****     
 551              		.loc 1 427 0
 552 0280 391C     		mov	r1, r7
 553              	.LVL55:
 554 0282 1203     		lsl	r2, r2, #12
 555 0284 1140     		and	r1, r2
 556 0286 090C     		lsr	r1, r1, #16
 557 0288 7118     		add	r1, r6, r1
 429:lib_DS1307/DS1307.c **** 
 558              		.loc 1 429 0
 559 028a 4143     		mul	r1, r0
 560 028c 2C48     		ldr	r0, .L40+16
 433:lib_DS1307/DS1307.c ****     tmpVal += (inputTime & DS1307_HOURS_MASK_UNIX) >> DS1307_HOURS_OFFSET;
 561              		.loc 1 433 0
 562 028e 2340     		and	r3, r4
 429:lib_DS1307/DS1307.c **** 
 563              		.loc 1 429 0
 564 0290 0918     		add	r1, r1, r0
 565 0292 0491     		str	r1, [sp, #16]
 566              	.LVL56:
 567 0294 0021     		mov	r1, #0
 433:lib_DS1307/DS1307.c ****     tmpVal += (inputTime & DS1307_HOURS_MASK_UNIX) >> DS1307_HOURS_OFFSET;
 568              		.loc 1 433 0
 569 0296 1B0D     		lsr	r3, r3, #20
 570 0298 6B43     		mul	r3, r5
 434:lib_DS1307/DS1307.c ****     
 571              		.loc 1 434 0
 572 029a 2240     		and	r2, r4
 573 029c 120C     		lsr	r2, r2, #16
 574 029e 9B18     		add	r3, r3, r2
 429:lib_DS1307/DS1307.c **** 
 575              		.loc 1 429 0
 576 02a0 0591     		str	r1, [sp, #20]
 434:lib_DS1307/DS1307.c ****     
 577              		.loc 1 434 0
 578 02a2 9C46     		mov	ip, r3
 579              	.LVL57:
 440:lib_DS1307/DS1307.c ****     if(((uint32)!DS1307_24TIME_FORMAT != timeFormat) &&
 580              		.loc 1 440 0
 581 02a4 6302     		lsl	r3, r4, #9
 582 02a6 06D4     		bmi	.L19
 583              	.LVL58:
 441:lib_DS1307/DS1307.c ****        ((uint32)DS1307_AM == AmRm) && (tmpVal < 12u))
 584              		.loc 1 441 0
 585 02a8 2302     		lsl	r3, r4, #8
 586 02aa 04D5     		bpl	.L19
 442:lib_DS1307/DS1307.c ****     {
 587              		.loc 1 442 0
 588 02ac 6346     		mov	r3, ip
 589 02ae 0B2B     		cmp	r3, #11
 590 02b0 01D8     		bhi	.L19
 444:lib_DS1307/DS1307.c ****     }
 591              		.loc 1 444 0
 592 02b2 0C23     		mov	r3, #12
ARM GAS  C:\Users\Petro\AppData\Local\Temp\ccqvpTVu.s 			page 22


 593 02b4 9C44     		add	ip, ip, r3
 594              	.LVL59:
 595              	.L19:
 451:lib_DS1307/DS1307.c ****     minutes += (inputTime & DS1307_MINUTES_MASK_UNIX) >> DS1307_MINUTES_OFFSET;
 596              		.loc 1 451 0
 597 02b6 6104     		lsl	r1, r4, #17
 598 02b8 490F     		lsr	r1, r1, #29
 599 02ba 0A22     		mov	r2, #10
 600 02bc 0B1C     		mov	r3, r1
 454:lib_DS1307/DS1307.c **** 
 601              		.loc 1 454 0
 602 02be 3C20     		mov	r0, #60
 451:lib_DS1307/DS1307.c ****     minutes += (inputTime & DS1307_MINUTES_MASK_UNIX) >> DS1307_MINUTES_OFFSET;
 603              		.loc 1 451 0
 604 02c0 5343     		mul	r3, r2
 605              	.LVL60:
 452:lib_DS1307/DS1307.c ****     
 606              		.loc 1 452 0
 607 02c2 2105     		lsl	r1, r4, #20
 608 02c4 090F     		lsr	r1, r1, #28
 609 02c6 5918     		add	r1, r3, r1
 454:lib_DS1307/DS1307.c **** 
 610              		.loc 1 454 0
 611 02c8 4843     		mul	r0, r1
 458:lib_DS1307/DS1307.c ****     seconds += (inputTime & DS1307_SECONDS_MASK_UNIX) >> DS1307_SECONDS_OFFSET;
 612              		.loc 1 458 0
 613 02ca 6506     		lsl	r5, r4, #25
 614              	.LVL61:
 615 02cc 6D0F     		lsr	r5, r5, #29
 616 02ce 5543     		mul	r5, r2
 617              	.LVL62:
 454:lib_DS1307/DS1307.c **** 
 618              		.loc 1 454 0
 619 02d0 021C     		mov	r2, r0
 620              	.LVL63:
 459:lib_DS1307/DS1307.c ****     unixTime += seconds;
 621              		.loc 1 459 0
 622 02d2 0F20     		mov	r0, #15
 454:lib_DS1307/DS1307.c **** 
 623              		.loc 1 454 0
 624 02d4 0023     		mov	r3, #0
 625              	.LVL64:
 459:lib_DS1307/DS1307.c ****     unixTime += seconds;
 626              		.loc 1 459 0
 627 02d6 0440     		and	r4, r0
 628              	.LVL65:
 460:lib_DS1307/DS1307.c **** 
 629              		.loc 1 460 0
 630 02d8 2E19     		add	r6, r5, r4
 631              	.LVL66:
 632 02da 301C     		mov	r0, r6
 633 02dc 049C     		ldr	r4, [sp, #16]
 634 02de 059D     		ldr	r5, [sp, #20]
 635 02e0 191C     		mov	r1, r3
 636 02e2 8018     		add	r0, r0, r2
 637 02e4 5941     		adc	r1, r1, r3
 638 02e6 0019     		add	r0, r0, r4
ARM GAS  C:\Users\Petro\AppData\Local\Temp\ccqvpTVu.s 			page 23


 639 02e8 6941     		adc	r1, r1, r5
 640 02ea 009C     		ldr	r4, [sp]
 641 02ec 019D     		ldr	r5, [sp, #4]
 446:lib_DS1307/DS1307.c **** 
 642              		.loc 1 446 0
 643 02ee E122     		mov	r2, #225
 644 02f0 6646     		mov	r6, ip
 645              	.LVL67:
 646 02f2 0019     		add	r0, r0, r4
 647 02f4 6941     		adc	r1, r1, r5
 648 02f6 029C     		ldr	r4, [sp, #8]
 649 02f8 039D     		ldr	r5, [sp, #12]
 650 02fa 1201     		lsl	r2, r2, #4
 651 02fc 5643     		mul	r6, r2
 652 02fe 0019     		add	r0, r0, r4
 653 0300 6941     		adc	r1, r1, r5
 654 0302 341C     		mov	r4, r6
 655 0304 1D1C     		mov	r5, r3
 460:lib_DS1307/DS1307.c **** 
 656              		.loc 1 460 0
 657 0306 2418     		add	r4, r4, r0
 658 0308 4D41     		adc	r5, r5, r1
 659              	.LVL68:
 660              	.LBE37:
 661              	.LBE42:
 662 030a 0DE0     		b	.L30
 663              	.LVL69:
 664              	.L13:
 665              	.LBB43:
 666              	.LBB38:
 402:lib_DS1307/DS1307.c ****         }
 667              		.loc 1 402 0
 668 030c 0D4A     		ldr	r2, .L40+20
 669 030e 00E0     		b	.L36
 670              	.L39:
 406:lib_DS1307/DS1307.c ****         }
 671              		.loc 1 406 0
 672 0310 0D4A     		ldr	r2, .L40+24
 673              	.L36:
 674 0312 0023     		mov	r3, #0
 675 0314 0098     		ldr	r0, [sp]
 676 0316 0199     		ldr	r1, [sp, #4]
 677 0318 8018     		add	r0, r0, r2
 678 031a 5941     		adc	r1, r1, r3
 398:lib_DS1307/DS1307.c ****     {
 679              		.loc 1 398 0
 680 031c 0136     		add	r6, r6, #1
 681              	.LVL70:
 406:lib_DS1307/DS1307.c ****         }
 682              		.loc 1 406 0
 683 031e 0090     		str	r0, [sp]
 684 0320 0191     		str	r1, [sp, #4]
 685              	.LVL71:
 686 0322 70E7     		b	.L11
 687              	.LVL72:
 688              	.L18:
 419:lib_DS1307/DS1307.c ****     }
ARM GAS  C:\Users\Petro\AppData\Local\Temp\ccqvpTVu.s 			page 24


 689              		.loc 1 419 0
 690 0324 0136     		add	r6, r6, #1
 691              	.LVL73:
 692 0326 9DE7     		b	.L16
 693              	.LVL74:
 694              	.L30:
 695              	.LBE38:
 696              	.LBE43:
 500:lib_DS1307/DS1307.c ****     }
 501:lib_DS1307/DS1307.c ****     
 502:lib_DS1307/DS1307.c ****     return unixTime;
 503:lib_DS1307/DS1307.c **** }
 697              		.loc 1 503 0
 698 0328 201C     		mov	r0, r4
 699 032a 291C     		mov	r1, r5
 700 032c 09B0     		add	sp, sp, #36
 701              		@ sp needed
 702 032e F0BD     		pop	{r4, r5, r6, r7, pc}
 703              	.L41:
 704              		.align	2
 705              	.L40:
 706 0330 00000000 		.word	DS1307_currentTimeDate
 707 0334 B2070000 		.word	1970
 708 0338 00000000 		.word	.LANCHOR0
 709 033c 80510100 		.word	86400
 710 0340 80AEFEFF 		.word	-86400
 711 0344 0085E201 		.word	31622400
 712 0348 8033E101 		.word	31536000
 713              		.cfi_endproc
 714              	.LFE7:
 715              		.size	DS1307_GetUnixTime, .-DS1307_GetUnixTime
 716              		.global	__aeabi_uldivmod
 717              		.section	.text.DS1307_SetUnixTime,"ax",%progbits
 718              		.align	1
 719              		.global	DS1307_SetUnixTime
 720              		.code	16
 721              		.thumb_func
 722              		.type	DS1307_SetUnixTime, %function
 723              	DS1307_SetUnixTime:
 724              	.LFB8:
 504:lib_DS1307/DS1307.c **** 
 505:lib_DS1307/DS1307.c **** /*******************************************************************************
 506:lib_DS1307/DS1307.c **** * Function Name: DS1307_SetUnixTime
 507:lib_DS1307/DS1307.c **** ********************************************************************************
 508:lib_DS1307/DS1307.c **** *
 509:lib_DS1307/DS1307.c **** * Summary:
 510:lib_DS1307/DS1307.c **** *   Set time in DS1307
 511:lib_DS1307/DS1307.c **** * Parametrs:
 512:lib_DS1307/DS1307.c **** *   unixTime - time in unix format
 513:lib_DS1307/DS1307.c **** *
 514:lib_DS1307/DS1307.c **** *******************************************************************************/
 515:lib_DS1307/DS1307.c **** void DS1307_SetUnixTime( uint64 unixTime)
 516:lib_DS1307/DS1307.c **** {
 725              		.loc 1 516 0
 726              		.cfi_startproc
 727              	.LVL75:
 728 0000 F0B5     		push	{r4, r5, r6, r7, lr}
ARM GAS  C:\Users\Petro\AppData\Local\Temp\ccqvpTVu.s 			page 25


 729              		.cfi_def_cfa_offset 20
 730              		.cfi_offset 4, -20
 731              		.cfi_offset 5, -16
 732              		.cfi_offset 6, -12
 733              		.cfi_offset 7, -8
 734              		.cfi_offset 14, -4
 735 0002 061C     		mov	r6, r0
 736 0004 0F1C     		mov	r7, r1
 517:lib_DS1307/DS1307.c ****     uint32 tmpMinute;
 518:lib_DS1307/DS1307.c ****     uint32 tmpHour;
 519:lib_DS1307/DS1307.c ****     uint32 tmpAmPmState;
 520:lib_DS1307/DS1307.c ****     uint32 timeFormat;
 521:lib_DS1307/DS1307.c **** 
 522:lib_DS1307/DS1307.c ****     uint32 tmpDay;
 523:lib_DS1307/DS1307.c ****     uint32 tmpMonth;
 524:lib_DS1307/DS1307.c ****     uint32 tmpYear;
 525:lib_DS1307/DS1307.c **** 
 526:lib_DS1307/DS1307.c ****     uint32 tmpVar;
 527:lib_DS1307/DS1307.c ****     
 528:lib_DS1307/DS1307.c ****     timeFormat = DS1307_24TIME_FORMAT;
 529:lib_DS1307/DS1307.c ****     tmpAmPmState = DS1307_AM;
 530:lib_DS1307/DS1307.c ****     tmpYear = DS1307_YEAR_0;
 531:lib_DS1307/DS1307.c ****     tmpVar = DS1307_SECONDS_PER_NONLEAP_YEAR;
 737              		.loc 1 531 0
 738 0006 A84B     		ldr	r3, .L80
 530:lib_DS1307/DS1307.c ****     tmpVar = DS1307_SECONDS_PER_NONLEAP_YEAR;
 739              		.loc 1 530 0
 740 0008 A84C     		ldr	r4, .L80+4
 516:lib_DS1307/DS1307.c ****     uint32 tmpMinute;
 741              		.loc 1 516 0
 742 000a 8DB0     		sub	sp, sp, #52
 743              		.cfi_def_cfa_offset 72
 744              	.LVL76:
 745              	.L43:
 532:lib_DS1307/DS1307.c **** 
 533:lib_DS1307/DS1307.c ****     /* Calculates current year value. Variable tmpYear
 534:lib_DS1307/DS1307.c ****     *  increments while it contains value greater than number
 535:lib_DS1307/DS1307.c ****     *  of seconds in current year.
 536:lib_DS1307/DS1307.c ****     */
 537:lib_DS1307/DS1307.c ****     while(unixTime > tmpVar)
 746              		.loc 1 537 0
 747 000c 0093     		str	r3, [sp]
 748 000e 0023     		mov	r3, #0
 749              	.LVL77:
 750 0010 0193     		str	r3, [sp, #4]
 751 0012 9F42     		cmp	r7, r3
 752 0014 17D0     		beq	.L77
 753              	.L46:
 754              	.LBB48:
 538:lib_DS1307/DS1307.c ****     {
 539:lib_DS1307/DS1307.c ****         unixTime -= tmpVar;
 755              		.loc 1 539 0
 756 0016 009A     		ldr	r2, [sp]
 757 0018 019B     		ldr	r3, [sp, #4]
 540:lib_DS1307/DS1307.c ****         tmpYear++;
 758              		.loc 1 540 0
 759 001a 0134     		add	r4, r4, #1
ARM GAS  C:\Users\Petro\AppData\Local\Temp\ccqvpTVu.s 			page 26


 760              	.LVL78:
 539:lib_DS1307/DS1307.c ****         tmpYear++;
 761              		.loc 1 539 0
 762 001c B61A     		sub	r6, r6, r2
 763 001e 9F41     		sbc	r7, r7, r3
 764              	.LVL79:
 541:lib_DS1307/DS1307.c ****         
 542:lib_DS1307/DS1307.c ****         /*Leap year*/
 543:lib_DS1307/DS1307.c ****         uint32_t leapYear;
 544:lib_DS1307/DS1307.c ****         if(((0u == (tmpYear % 4Lu)) && (0u != (tmpYear % 100Lu))) || (0u == (tmpYear % 400Lu)))
 765              		.loc 1 544 0
 766 0020 A307     		lsl	r3, r4, #30
 767 0022 05D1     		bne	.L44
 768              		.loc 1 544 0 is_stmt 0 discriminator 1
 769 0024 201C     		mov	r0, r4
 770 0026 6421     		mov	r1, #100
 771 0028 FFF7FEFF 		bl	__aeabi_uidivmod
 772              	.LVL80:
 773 002c 0029     		cmp	r1, #0
 774 002e 08D1     		bne	.L65
 775              	.L44:
 776              		.loc 1 544 0 discriminator 3
 777 0030 C821     		mov	r1, #200
 778 0032 201C     		mov	r0, r4
 779 0034 4900     		lsl	r1, r1, #1
 780 0036 FFF7FEFF 		bl	__aeabi_uidivmod
 781              	.LVL81:
 782 003a 0029     		cmp	r1, #0
 783 003c 01D0     		beq	.L65
 545:lib_DS1307/DS1307.c ****         {
 546:lib_DS1307/DS1307.c ****             leapYear = 1uL;
 547:lib_DS1307/DS1307.c ****         }
 548:lib_DS1307/DS1307.c ****         else
 549:lib_DS1307/DS1307.c ****         {
 550:lib_DS1307/DS1307.c ****             leapYear = 0uL;
 551:lib_DS1307/DS1307.c ****         }
 552:lib_DS1307/DS1307.c ****         
 553:lib_DS1307/DS1307.c ****         if(0u != leapYear)
 554:lib_DS1307/DS1307.c ****         {
 555:lib_DS1307/DS1307.c ****             tmpVar = DS1307_SECONDS_PER_LEAP_YEAR;
 556:lib_DS1307/DS1307.c ****         }
 557:lib_DS1307/DS1307.c ****         else
 558:lib_DS1307/DS1307.c ****         {
 559:lib_DS1307/DS1307.c ****             tmpVar = DS1307_SECONDS_PER_NONLEAP_YEAR;
 784              		.loc 1 559 0 is_stmt 1
 785 003e 9A4B     		ldr	r3, .L80
 786 0040 E4E7     		b	.L43
 787              	.L65:
 555:lib_DS1307/DS1307.c ****         }
 788              		.loc 1 555 0
 789 0042 9B4B     		ldr	r3, .L80+8
 790 0044 E2E7     		b	.L43
 791              	.L77:
 792              	.LBE48:
 537:lib_DS1307/DS1307.c ****     {
 793              		.loc 1 537 0
 794 0046 009B     		ldr	r3, [sp]
ARM GAS  C:\Users\Petro\AppData\Local\Temp\ccqvpTVu.s 			page 27


 795 0048 9E42     		cmp	r6, r3
 796 004a E4D8     		bhi	.L46
 797              	.LBB49:
 560:lib_DS1307/DS1307.c ****         }
 561:lib_DS1307/DS1307.c **** 
 562:lib_DS1307/DS1307.c ****     }
 563:lib_DS1307/DS1307.c **** 
 564:lib_DS1307/DS1307.c ****     /* Calculates current month value. tmpMonth variable increments
 565:lib_DS1307/DS1307.c ****      * while unixTime variable value is greater than time
 566:lib_DS1307/DS1307.c ****      * interval from beginning of current year to beginning of
 567:lib_DS1307/DS1307.c ****      * current month
 568:lib_DS1307/DS1307.c ****     */
 569:lib_DS1307/DS1307.c ****     tmpMonth = 1;
 570:lib_DS1307/DS1307.c ****     
 571:lib_DS1307/DS1307.c ****     uint32_t daysInMonth;
 572:lib_DS1307/DS1307.c ****     daysInMonth = DS1307_daysInMonthTbl[tmpMonth - 1u];
 573:lib_DS1307/DS1307.c ****     if((uint32)DS1307_FEBRUARY == tmpMonth)
 574:lib_DS1307/DS1307.c ****     {
 575:lib_DS1307/DS1307.c ****         /*Leap year*/
 576:lib_DS1307/DS1307.c ****         uint32_t leapYear;
 577:lib_DS1307/DS1307.c ****         if(((0u == (tmpYear % 4Lu)) && (0u != (tmpYear % 100Lu))) || (0u == (tmpYear % 400Lu)))
 578:lib_DS1307/DS1307.c ****         {
 579:lib_DS1307/DS1307.c ****             leapYear = 1uL;
 580:lib_DS1307/DS1307.c ****         }
 581:lib_DS1307/DS1307.c ****         else
 582:lib_DS1307/DS1307.c ****         {
 583:lib_DS1307/DS1307.c ****             leapYear = 0uL;
 584:lib_DS1307/DS1307.c ****         }
 585:lib_DS1307/DS1307.c ****         
 586:lib_DS1307/DS1307.c ****         if(0u != leapYear)
 587:lib_DS1307/DS1307.c ****         {
 588:lib_DS1307/DS1307.c ****             daysInMonth++;
 589:lib_DS1307/DS1307.c ****         }
 590:lib_DS1307/DS1307.c ****     }
 591:lib_DS1307/DS1307.c ****     
 592:lib_DS1307/DS1307.c ****     /*days in month*/
 593:lib_DS1307/DS1307.c ****     daysInMonth = DS1307_daysInMonthTbl[tmpMonth - 1u];
 594:lib_DS1307/DS1307.c ****     if((uint32)DS1307_FEBRUARY == tmpMonth)
 595:lib_DS1307/DS1307.c ****     {
 596:lib_DS1307/DS1307.c ****         uint32_t leapYear;
 597:lib_DS1307/DS1307.c ****         if(((0u == (tmpYear % 4Lu)) && (0u != (tmpYear % 100Lu))) || (0u == (tmpYear % 400Lu)))
 598:lib_DS1307/DS1307.c ****         {
 599:lib_DS1307/DS1307.c ****             leapYear = 1uL;
 600:lib_DS1307/DS1307.c ****         }
 601:lib_DS1307/DS1307.c ****         else
 602:lib_DS1307/DS1307.c ****         {
 603:lib_DS1307/DS1307.c ****             leapYear = 0uL;
 604:lib_DS1307/DS1307.c ****         }
 605:lib_DS1307/DS1307.c ****         if(0u != leapYear)
 606:lib_DS1307/DS1307.c ****         {
 607:lib_DS1307/DS1307.c ****             daysInMonth++;
 608:lib_DS1307/DS1307.c ****         }
 609:lib_DS1307/DS1307.c ****     }
 610:lib_DS1307/DS1307.c ****     tmpVar = daysInMonth * DS1307_SECONDS_PER_DAY;
 611:lib_DS1307/DS1307.c **** 
 612:lib_DS1307/DS1307.c ****     while(unixTime >= tmpVar)
 613:lib_DS1307/DS1307.c ****     {
ARM GAS  C:\Users\Petro\AppData\Local\Temp\ccqvpTVu.s 			page 28


 614:lib_DS1307/DS1307.c ****         unixTime -= tmpVar;
 615:lib_DS1307/DS1307.c ****         tmpMonth++;
 616:lib_DS1307/DS1307.c ****             /*days in month*/
 617:lib_DS1307/DS1307.c ****         daysInMonth = DS1307_daysInMonthTbl[tmpMonth - 1u];
 618:lib_DS1307/DS1307.c ****         if((uint32)DS1307_FEBRUARY == tmpMonth)
 619:lib_DS1307/DS1307.c ****         {
 620:lib_DS1307/DS1307.c ****             uint32_t leapYear;
 621:lib_DS1307/DS1307.c ****             if(((0u == (tmpYear % 4Lu)) && (0u != (tmpYear % 100Lu))) || (0u == (tmpYear % 400Lu)))
 798              		.loc 1 621 0
 799 004c 201C     		mov	r0, r4
 800 004e 6421     		mov	r1, #100
 801              	.LBE49:
 802 0050 0994     		str	r4, [sp, #36]
 803              	.LBB50:
 804 0052 FFF7FEFF 		bl	__aeabi_uidivmod
 805              	.LVL82:
 806 0056 0591     		str	r1, [sp, #20]
 807 0058 C821     		mov	r1, #200
 808 005a 201C     		mov	r0, r4
 809 005c 4900     		lsl	r1, r1, #1
 810 005e FFF7FEFF 		bl	__aeabi_uidivmod
 811              	.LVL83:
 812 0062 0123     		mov	r3, #1
 813 0064 934D     		ldr	r5, .L80+12
 814 0066 0093     		str	r3, [sp]
 815              	.LVL84:
 816              	.L48:
 817              	.LBE50:
 612:lib_DS1307/DS1307.c ****     {
 818              		.loc 1 612 0
 819 0068 0023     		mov	r3, #0
 820 006a 0295     		str	r5, [sp, #8]
 821 006c 0393     		str	r3, [sp, #12]
 822 006e 924D     		ldr	r5, .L80+16
 823              	.LVL85:
 824 0070 BB42     		cmp	r3, r7
 825 0072 17D0     		beq	.L78
 826              	.L52:
 614:lib_DS1307/DS1307.c ****         tmpMonth++;
 827              		.loc 1 614 0
 828 0074 029A     		ldr	r2, [sp, #8]
 829 0076 039B     		ldr	r3, [sp, #12]
 830 0078 B61A     		sub	r6, r6, r2
 831 007a 9F41     		sbc	r7, r7, r3
 832              	.LVL86:
 615:lib_DS1307/DS1307.c ****             /*days in month*/
 833              		.loc 1 615 0
 834 007c 009B     		ldr	r3, [sp]
 617:lib_DS1307/DS1307.c ****         if((uint32)DS1307_FEBRUARY == tmpMonth)
 835              		.loc 1 617 0
 836 007e 0098     		ldr	r0, [sp]
 615:lib_DS1307/DS1307.c ****             /*days in month*/
 837              		.loc 1 615 0
 838 0080 5A1C     		add	r2, r3, #1
 839              	.LVL87:
 617:lib_DS1307/DS1307.c ****         if((uint32)DS1307_FEBRUARY == tmpMonth)
 840              		.loc 1 617 0
ARM GAS  C:\Users\Petro\AppData\Local\Temp\ccqvpTVu.s 			page 29


 841 0082 8E4B     		ldr	r3, .L80+20
 842 0084 1833     		add	r3, r3, #24
 843 0086 1B5C     		ldrb	r3, [r3, r0]
 844              	.LVL88:
 618:lib_DS1307/DS1307.c ****         {
 845              		.loc 1 618 0
 846 0088 022A     		cmp	r2, #2
 847 008a 08D1     		bne	.L49
 848              	.LVL89:
 849              	.LBB51:
 850              		.loc 1 621 0
 851 008c A007     		lsl	r0, r4, #30
 852 008e 03D1     		bne	.L50
 853              		.loc 1 621 0 is_stmt 0 discriminator 1
 854 0090 0598     		ldr	r0, [sp, #20]
 855 0092 0028     		cmp	r0, #0
 856 0094 00D0     		beq	.LCB909
 857 0096 04E1     		b	.L51	@long jump
 858              	.LCB909:
 859              	.L50:
 860              		.loc 1 621 0 discriminator 3
 861 0098 0029     		cmp	r1, #0
 862 009a 00D1     		bne	.LCB912
 863 009c 01E1     		b	.L51	@long jump
 864              	.LCB912:
 865              	.LVL90:
 866              	.L49:
 867              	.LBE51:
 622:lib_DS1307/DS1307.c ****             {
 623:lib_DS1307/DS1307.c ****                 leapYear = 1uL;
 624:lib_DS1307/DS1307.c ****             }
 625:lib_DS1307/DS1307.c ****             else
 626:lib_DS1307/DS1307.c ****             {
 627:lib_DS1307/DS1307.c ****                 leapYear = 0uL;
 628:lib_DS1307/DS1307.c ****             }
 629:lib_DS1307/DS1307.c ****             if(0u != leapYear)
 630:lib_DS1307/DS1307.c ****             {
 631:lib_DS1307/DS1307.c ****                daysInMonth++;
 632:lib_DS1307/DS1307.c ****             }
 633:lib_DS1307/DS1307.c ****         }
 634:lib_DS1307/DS1307.c ****             tmpVar = daysInMonth * DS1307_SECONDS_PER_DAY;
 868              		.loc 1 634 0 is_stmt 1
 869 009e 5D43     		mul	r5, r3
 870              	.LVL91:
 615:lib_DS1307/DS1307.c ****             /*days in month*/
 871              		.loc 1 615 0
 872 00a0 0092     		str	r2, [sp]
 873 00a2 E1E7     		b	.L48
 874              	.LVL92:
 875              	.L78:
 612:lib_DS1307/DS1307.c ****     {
 876              		.loc 1 612 0
 877 00a4 029B     		ldr	r3, [sp, #8]
 878 00a6 B342     		cmp	r3, r6
 879 00a8 E4D9     		bls	.L52
 635:lib_DS1307/DS1307.c ****         }
 636:lib_DS1307/DS1307.c **** 
ARM GAS  C:\Users\Petro\AppData\Local\Temp\ccqvpTVu.s 			page 30


 637:lib_DS1307/DS1307.c ****     /* Calculates current day value. */
 638:lib_DS1307/DS1307.c ****     tmpDay = (unixTime / DS1307_SECONDS_PER_DAY);
 880              		.loc 1 638 0
 881 00aa 301C     		mov	r0, r6
 882 00ac 391C     		mov	r1, r7
 883 00ae 824A     		ldr	r2, .L80+16
 884 00b0 0023     		mov	r3, #0
 885 00b2 FFF7FEFF 		bl	__aeabi_uldivmod
 886              	.LVL93:
 639:lib_DS1307/DS1307.c ****     tmpVar = tmpDay * DS1307_SECONDS_PER_DAY;
 640:lib_DS1307/DS1307.c ****     unixTime -= (unixTime >= tmpVar) ? tmpVar : 0u;
 887              		.loc 1 640 0
 888 00b6 291C     		mov	r1, r5
 889 00b8 039B     		ldr	r3, [sp, #12]
 890 00ba 4143     		mul	r1, r0
 891 00bc 1D1C     		mov	r5, r3
 892 00be 8E42     		cmp	r6, r1
 893 00c0 5D41     		adc	r5, r5, r3
 894 00c2 6D42     		neg	r5, r5
 895 00c4 0D40     		and	r5, r1
 896 00c6 2A1C     		mov	r2, r5
 897 00c8 039B     		ldr	r3, [sp, #12]
 898 00ca B61A     		sub	r6, r6, r2
 899 00cc 9F41     		sbc	r7, r7, r3
 900              	.LVL94:
 641:lib_DS1307/DS1307.c ****     tmpDay += 1u;
 642:lib_DS1307/DS1307.c **** 
 643:lib_DS1307/DS1307.c ****     /* Calculates current hour value. If function works in 12-Hour mode,
 644:lib_DS1307/DS1307.c ****      * it converts time to 12-Hours mode and calculates AmPm status */
 645:lib_DS1307/DS1307.c ****     tmpHour = unixTime / DS1307_SECONDS_PER_HOUR;
 901              		.loc 1 645 0
 902 00ce E122     		mov	r2, #225
 641:lib_DS1307/DS1307.c ****     tmpDay += 1u;
 903              		.loc 1 641 0
 904 00d0 431C     		add	r3, r0, #1
 905 00d2 0593     		str	r3, [sp, #20]
 906              	.LVL95:
 907              		.loc 1 645 0
 908 00d4 1201     		lsl	r2, r2, #4
 909 00d6 0023     		mov	r3, #0
 910              	.LVL96:
 911 00d8 301C     		mov	r0, r6
 912              	.LVL97:
 913 00da 391C     		mov	r1, r7
 914 00dc FFF7FEFF 		bl	__aeabi_uldivmod
 915              	.LVL98:
 646:lib_DS1307/DS1307.c ****     tmpVar  = tmpHour * DS1307_SECONDS_PER_HOUR;
 647:lib_DS1307/DS1307.c ****     if((uint32)DS1307_24TIME_FORMAT != timeFormat)
 648:lib_DS1307/DS1307.c ****     {
 649:lib_DS1307/DS1307.c ****         if(unixTime > DS1307_UNIX_TIME_PM)
 650:lib_DS1307/DS1307.c ****         {
 651:lib_DS1307/DS1307.c ****             tmpAmPmState = !DS1307_PM;
 652:lib_DS1307/DS1307.c ****             tmpHour = (tmpHour > 12u) ? (tmpHour - 12u) : tmpHour;
 653:lib_DS1307/DS1307.c ****         }
 654:lib_DS1307/DS1307.c ****         else
 655:lib_DS1307/DS1307.c ****         {
 656:lib_DS1307/DS1307.c ****             tmpAmPmState = !DS1307_AM;
ARM GAS  C:\Users\Petro\AppData\Local\Temp\ccqvpTVu.s 			page 31


 657:lib_DS1307/DS1307.c ****             tmpHour = (0u != tmpHour) ? tmpHour : 12u;
 658:lib_DS1307/DS1307.c ****         }
 659:lib_DS1307/DS1307.c ****     }
 660:lib_DS1307/DS1307.c ****     unixTime -= (unixTime >= tmpVar) ? tmpVar : 0u;
 916              		.loc 1 660 0
 917 00e0 E121     		mov	r1, #225
 918 00e2 0023     		mov	r3, #0
 919 00e4 0901     		lsl	r1, r1, #4
 645:lib_DS1307/DS1307.c ****     tmpVar  = tmpHour * DS1307_SECONDS_PER_HOUR;
 920              		.loc 1 645 0
 921 00e6 0290     		str	r0, [sp, #8]
 922              	.LVL99:
 923              		.loc 1 660 0
 924 00e8 4843     		mul	r0, r1
 925              	.LVL100:
 926 00ea 021C     		mov	r2, r0
 927 00ec BB42     		cmp	r3, r7
 928 00ee 05D1     		bne	.L56
 929              		.loc 1 660 0 is_stmt 0 discriminator 4
 930 00f0 1D1C     		mov	r5, r3
 931 00f2 9642     		cmp	r6, r2
 932 00f4 5D41     		adc	r5, r5, r3
 933 00f6 6942     		neg	r1, r5
 934 00f8 1140     		and	r1, r2
 935 00fa 0A1C     		mov	r2, r1
 936              	.L56:
 937 00fc B61A     		sub	r6, r6, r2
 938 00fe 9F41     		sbc	r7, r7, r3
 939              	.LVL101:
 661:lib_DS1307/DS1307.c **** 
 662:lib_DS1307/DS1307.c ****     /* Calculates current minute.  */
 663:lib_DS1307/DS1307.c ****     tmpMinute = unixTime / DS1307_SECONDS_PER_MINUTE;
 940              		.loc 1 663 0 is_stmt 1 discriminator 4
 941 0100 3C22     		mov	r2, #60
 942 0102 0023     		mov	r3, #0
 943 0104 301C     		mov	r0, r6
 944 0106 391C     		mov	r1, r7
 945 0108 FFF7FEFF 		bl	__aeabi_uldivmod
 946              	.LVL102:
 664:lib_DS1307/DS1307.c ****     tmpVar = tmpMinute * DS1307_SECONDS_PER_MINUTE;
 665:lib_DS1307/DS1307.c **** 
 666:lib_DS1307/DS1307.c ****     /* Calculates current second. */
 667:lib_DS1307/DS1307.c ****     unixTime -= (unixTime >= tmpVar) ? tmpVar : 0u;
 947              		.loc 1 667 0 discriminator 4
 948 010c 3C21     		mov	r1, #60
 949 010e 0023     		mov	r3, #0
 950 0110 4143     		mul	r1, r0
 663:lib_DS1307/DS1307.c ****     tmpVar = tmpMinute * DS1307_SECONDS_PER_MINUTE;
 951              		.loc 1 663 0 discriminator 4
 952 0112 0890     		str	r0, [sp, #32]
 953              	.LVL103:
 954              		.loc 1 667 0 discriminator 4
 955 0114 0A1C     		mov	r2, r1
 956 0116 BB42     		cmp	r3, r7
 957 0118 05D1     		bne	.L58
 958 011a 1D1C     		mov	r5, r3
 959 011c 9642     		cmp	r6, r2
ARM GAS  C:\Users\Petro\AppData\Local\Temp\ccqvpTVu.s 			page 32


 960 011e 5D41     		adc	r5, r5, r3
 961 0120 6942     		neg	r1, r5
 962              	.LVL104:
 963 0122 1140     		and	r1, r2
 964 0124 0A1C     		mov	r2, r1
 965              	.LVL105:
 966              	.L58:
 967 0126 B61A     		sub	r6, r6, r2
 968 0128 9F41     		sbc	r7, r7, r3
 969              	.LVL106:
 668:lib_DS1307/DS1307.c ****     
 669:lib_DS1307/DS1307.c ****     /*construct date*/
 670:lib_DS1307/DS1307.c ****     uint32_t tmpDate;
 671:lib_DS1307/DS1307.c ****     uint32 tmpVal = tmpYear;
 672:lib_DS1307/DS1307.c ****     tmpDate  = (tmpMonth / 10u) << DS1307_10_MONTH_OFFSET;
 673:lib_DS1307/DS1307.c ****     tmpDate |= (tmpMonth % 10u) << DS1307_MONTH_OFFSET;
 674:lib_DS1307/DS1307.c **** 
 675:lib_DS1307/DS1307.c ****     tmpDate |= (tmpDay / 10u) << DS1307_10_DAY_OFFSET;
 676:lib_DS1307/DS1307.c ****     tmpDate |= (tmpDay % 10u) << DS1307_DAY_OFFSET;
 677:lib_DS1307/DS1307.c **** 
 678:lib_DS1307/DS1307.c ****     tmpDate |= (tmpYear / 1000u) << DS1307_1000_YEAR_OFFSET;
 679:lib_DS1307/DS1307.c ****     tmpVal %= 1000u;
 680:lib_DS1307/DS1307.c **** 
 681:lib_DS1307/DS1307.c ****     tmpDate |= (tmpVal / 100u) << DS1307_100_YEAR_OFFSET;
 682:lib_DS1307/DS1307.c ****     tmpVal %= 100u;
 683:lib_DS1307/DS1307.c **** 
 684:lib_DS1307/DS1307.c ****     tmpDate |= (tmpVal / 10u) << DS1307_10_YEAR_OFFSET;
 685:lib_DS1307/DS1307.c ****     tmpDate |= (tmpVal % 10u) << DS1307_YEAR_OFFSET;
 686:lib_DS1307/DS1307.c ****     
 687:lib_DS1307/DS1307.c ****     /*day of week*/
 688:lib_DS1307/DS1307.c ****     uint32_t dayOfWeek;
 689:lib_DS1307/DS1307.c ****     uint32_t year;
 690:lib_DS1307/DS1307.c ****     year = tmpYear;
 691:lib_DS1307/DS1307.c ****     if(tmpMonth < (uint32)DS1307_MARCH)
 970              		.loc 1 691 0 discriminator 4
 971 012a 009B     		ldr	r3, [sp]
 667:lib_DS1307/DS1307.c ****     
 972              		.loc 1 667 0 discriminator 4
 973 012c 0696     		str	r6, [sp, #24]
 974 012e 0797     		str	r7, [sp, #28]
 975              	.LVL107:
 976              		.loc 1 691 0 discriminator 4
 977 0130 022B     		cmp	r3, #2
 978 0132 02D8     		bhi	.L60
 692:lib_DS1307/DS1307.c ****     {
 693:lib_DS1307/DS1307.c ****         tmpMonth = 12u + tmpMonth;
 979              		.loc 1 693 0
 980 0134 0C33     		add	r3, r3, #12
 981              	.LVL108:
 982 0136 0093     		str	r3, [sp]
 983              	.LVL109:
 694:lib_DS1307/DS1307.c ****         year--;
 984              		.loc 1 694 0
 985 0138 013C     		sub	r4, r4, #1
 986              	.LVL110:
 987              	.L60:
 695:lib_DS1307/DS1307.c ****     }
ARM GAS  C:\Users\Petro\AppData\Local\Temp\ccqvpTVu.s 			page 33


 696:lib_DS1307/DS1307.c ****     /* Calculates Day of Week using Zeller's congruence algorithms.
 697:lib_DS1307/DS1307.c ****     */
 698:lib_DS1307/DS1307.c ****     dayOfWeek = (tmpDay + (((tmpMonth + 1u) * 26u) / 10u) + year + (year / 4u) + (6u * (year / 100u
 988              		.loc 1 698 0
 989 013a C821     		mov	r1, #200
 990 013c 059B     		ldr	r3, [sp, #20]
 991 013e 4900     		lsl	r1, r1, #1
 992 0140 E618     		add	r6, r4, r3
 993              	.LVL111:
 994 0142 201C     		mov	r0, r4
 995              	.LVL112:
 996 0144 A308     		lsr	r3, r4, #2
 997 0146 F618     		add	r6, r6, r3
 998 0148 FFF7FEFF 		bl	__aeabi_uidiv
 999              	.LVL113:
 1000 014c 6421     		mov	r1, #100
 1001 014e 3618     		add	r6, r6, r0
 1002 0150 201C     		mov	r0, r4
 1003 0152 FFF7FEFF 		bl	__aeabi_uidiv
 1004              	.LVL114:
 1005 0156 0623     		mov	r3, #6
 1006 0158 5843     		mul	r0, r3
 1007 015a 009B     		ldr	r3, [sp]
 1008 015c 3618     		add	r6, r6, r0
 1009 015e 581C     		add	r0, r3, #1
 1010 0160 1A23     		mov	r3, #26
 1011 0162 0A21     		mov	r1, #10
 1012 0164 5843     		mul	r0, r3
 1013 0166 FFF7FEFF 		bl	__aeabi_uidiv
 1014              	.LVL115:
 1015 016a 0721     		mov	r1, #7
 1016 016c 3018     		add	r0, r6, r0
 1017 016e FFF7FEFF 		bl	__aeabi_uidivmod
 1018              	.LVL116:
 699:lib_DS1307/DS1307.c **** 
 700:lib_DS1307/DS1307.c ****     /* Makes correction for Saturday. Saturday number should be 7 instead of 0. */
 701:lib_DS1307/DS1307.c ****     if(0u == dayOfWeek)
 1019              		.loc 1 701 0
 1020 0172 0029     		cmp	r1, #0
 1021 0174 00D1     		bne	.L61
 702:lib_DS1307/DS1307.c ****     {
 703:lib_DS1307/DS1307.c ****         dayOfWeek = 7;
 1022              		.loc 1 703 0
 1023 0176 0731     		add	r1, r1, #7
 1024              	.LVL117:
 1025              	.L61:
 704:lib_DS1307/DS1307.c ****     }
 705:lib_DS1307/DS1307.c **** 
 706:lib_DS1307/DS1307.c ****     /*write data to struct*/
 707:lib_DS1307/DS1307.c ****     DS1307_currentTimeDate.second = unixTime;
 708:lib_DS1307/DS1307.c ****     DS1307_currentTimeDate.minutes = tmpMinute;
 1026              		.loc 1 708 0
 1027 0178 2020     		mov	r0, #32
 1028 017a 6A46     		mov	r2, sp
 1029 017c 1218     		add	r2, r2, r0
 1030 017e 1578     		ldrb	r5, [r2]
 709:lib_DS1307/DS1307.c ****     DS1307_currentTimeDate.hours = tmpHour;
ARM GAS  C:\Users\Petro\AppData\Local\Temp\ccqvpTVu.s 			page 34


 1031              		.loc 1 709 0
 1032 0180 6A46     		mov	r2, sp
 1033 0182 177A     		ldrb	r7, [r2, #8]
 710:lib_DS1307/DS1307.c ****     DS1307_currentTimeDate.AmRm = tmpAmPmState;
 711:lib_DS1307/DS1307.c ****     DS1307_currentTimeDate.timeFormat = timeFormat;
 712:lib_DS1307/DS1307.c ****     DS1307_currentTimeDate.day = dayOfWeek;
 1034              		.loc 1 712 0
 1035 0184 CAB2     		uxtb	r2, r1
 1036 0186 0892     		str	r2, [sp, #32]
 1037              	.LVL118:
 1038 0188 6A46     		mov	r2, sp
 707:lib_DS1307/DS1307.c ****     DS1307_currentTimeDate.minutes = tmpMinute;
 1039              		.loc 1 707 0
 1040 018a 6B46     		mov	r3, sp
 1041              		.loc 1 712 0
 1042 018c 1218     		add	r2, r2, r0
 707:lib_DS1307/DS1307.c ****     DS1307_currentTimeDate.minutes = tmpMinute;
 1043              		.loc 1 707 0
 1044 018e 1E7E     		ldrb	r6, [r3, #24]
 1045              		.loc 1 712 0
 1046 0190 1278     		ldrb	r2, [r2]
 707:lib_DS1307/DS1307.c ****     DS1307_currentTimeDate.minutes = tmpMinute;
 1047              		.loc 1 707 0
 1048 0192 4B4B     		ldr	r3, .L80+24
 713:lib_DS1307/DS1307.c ****     DS1307_currentTimeDate.month = tmpMonth;
 714:lib_DS1307/DS1307.c ****     DS1307_currentTimeDate.year = tmpYear-2000;
 1049              		.loc 1 714 0
 1050 0194 4B49     		ldr	r1, .L80+28
 1051              	.LVL119:
 712:lib_DS1307/DS1307.c ****     DS1307_currentTimeDate.month = tmpMonth;
 1052              		.loc 1 712 0
 1053 0196 5A71     		strb	r2, [r3, #5]
 713:lib_DS1307/DS1307.c ****     DS1307_currentTimeDate.month = tmpMonth;
 1054              		.loc 1 713 0
 1055 0198 6A46     		mov	r2, sp
 1056 019a 1278     		ldrb	r2, [r2]
 1057              		.loc 1 714 0
 1058 019c 8C46     		mov	ip, r1
 713:lib_DS1307/DS1307.c ****     DS1307_currentTimeDate.month = tmpMonth;
 1059              		.loc 1 713 0
 1060 019e 0092     		str	r2, [sp]
 1061              	.LVL120:
 1062 01a0 6A46     		mov	r2, sp
 1063 01a2 1278     		ldrb	r2, [r2]
 710:lib_DS1307/DS1307.c ****     DS1307_currentTimeDate.timeFormat = timeFormat;
 1064              		.loc 1 710 0
 1065 01a4 0024     		mov	r4, #0
 1066              	.LVL121:
 713:lib_DS1307/DS1307.c ****     DS1307_currentTimeDate.month = tmpMonth;
 1067              		.loc 1 713 0
 1068 01a6 DA71     		strb	r2, [r3, #7]
 1069              		.loc 1 714 0
 1070 01a8 099A     		ldr	r2, [sp, #36]
 707:lib_DS1307/DS1307.c ****     DS1307_currentTimeDate.minutes = tmpMinute;
 1071              		.loc 1 707 0
 1072 01aa 1E70     		strb	r6, [r3]
 1073              		.loc 1 714 0
ARM GAS  C:\Users\Petro\AppData\Local\Temp\ccqvpTVu.s 			page 35


 1074 01ac 6244     		add	r2, r2, ip
 1075 01ae 92B2     		uxth	r2, r2
 1076 01b0 0292     		str	r2, [sp, #8]
 1077              	.LVL122:
 1078 01b2 6A46     		mov	r2, sp
 1079 01b4 1289     		ldrh	r2, [r2, #8]
 708:lib_DS1307/DS1307.c ****     DS1307_currentTimeDate.hours = tmpHour;
 1080              		.loc 1 708 0
 1081 01b6 5D70     		strb	r5, [r3, #1]
 1082              		.loc 1 714 0
 1083 01b8 1A81     		strh	r2, [r3, #8]
 715:lib_DS1307/DS1307.c ****     DS1307_currentTimeDate.date = tmpDay;
 1084              		.loc 1 715 0
 1085 01ba 6A46     		mov	r2, sp
 1086 01bc 127D     		ldrb	r2, [r2, #20]
 709:lib_DS1307/DS1307.c ****     DS1307_currentTimeDate.AmRm = tmpAmPmState;
 1087              		.loc 1 709 0
 1088 01be 9F70     		strb	r7, [r3, #2]
 1089              		.loc 1 715 0
 1090 01c0 0592     		str	r2, [sp, #20]
 1091              	.LVL123:
 1092 01c2 6A46     		mov	r2, sp
 1093 01c4 127D     		ldrb	r2, [r2, #20]
 710:lib_DS1307/DS1307.c ****     DS1307_currentTimeDate.timeFormat = timeFormat;
 1094              		.loc 1 710 0
 1095 01c6 1C71     		strb	r4, [r3, #4]
 1096              		.loc 1 715 0
 1097 01c8 9A71     		strb	r2, [r3, #6]
 711:lib_DS1307/DS1307.c ****     DS1307_currentTimeDate.day = dayOfWeek;
 1098              		.loc 1 711 0
 1099 01ca DC70     		strb	r4, [r3, #3]
 1100              	.LBB52:
 1101              	.LBB53:
 265:lib_DS1307/DS1307.c ****     data[DS1307_MIN_ADRESS] = ((DS1307_currentTimeDate.minutes/10)<<4) + (DS1307_currentTimeDate.mi
 1102              		.loc 1 265 0
 1103 01cc 301C     		mov	r0, r6
 1104 01ce 0A21     		mov	r1, #10
 1105 01d0 FFF7FEFF 		bl	__aeabi_uidiv
 1106              	.LVL124:
 1107 01d4 0A21     		mov	r1, #10
 1108 01d6 0301     		lsl	r3, r0, #4
 1109 01d8 301C     		mov	r0, r6
 1110 01da 0693     		str	r3, [sp, #24]
 1111              	.LVL125:
 1112 01dc FFF7FEFF 		bl	__aeabi_uidivmod
 1113              	.LVL126:
 1114 01e0 069B     		ldr	r3, [sp, #24]
 266:lib_DS1307/DS1307.c ****     if(DS1307_currentTimeDate.timeFormat == DS1307_12TIME_FORMAT)
 1115              		.loc 1 266 0
 1116 01e2 281C     		mov	r0, r5
 265:lib_DS1307/DS1307.c ****     data[DS1307_MIN_ADRESS] = ((DS1307_currentTimeDate.minutes/10)<<4) + (DS1307_currentTimeDate.mi
 1117              		.loc 1 265 0
 1118 01e4 5918     		add	r1, r3, r1
 1119 01e6 0AAB     		add	r3, sp, #40
 1120 01e8 1970     		strb	r1, [r3]
 266:lib_DS1307/DS1307.c ****     if(DS1307_currentTimeDate.timeFormat == DS1307_12TIME_FORMAT)
 1121              		.loc 1 266 0
ARM GAS  C:\Users\Petro\AppData\Local\Temp\ccqvpTVu.s 			page 36


 1122 01ea 0A21     		mov	r1, #10
 1123 01ec FFF7FEFF 		bl	__aeabi_uidiv
 1124              	.LVL127:
 1125 01f0 0A21     		mov	r1, #10
 1126 01f2 0601     		lsl	r6, r0, #4
 1127 01f4 281C     		mov	r0, r5
 1128 01f6 FFF7FEFF 		bl	__aeabi_uidivmod
 1129              	.LVL128:
 1130 01fa 0AAB     		add	r3, sp, #40
 1131 01fc 7618     		add	r6, r6, r1
 1132 01fe 5E70     		strb	r6, [r3, #1]
 275:lib_DS1307/DS1307.c ****         data[DS1307_HOUR_ADRESS] |= (DS1307_currentTimeDate.timeFormat << 6);
 1133              		.loc 1 275 0
 1134 0200 0A21     		mov	r1, #10
 1135 0202 381C     		mov	r0, r7
 1136 0204 FFF7FEFF 		bl	__aeabi_uidiv
 1137              	.LVL129:
 1138 0208 0A21     		mov	r1, #10
 1139 020a 0501     		lsl	r5, r0, #4
 1140 020c 381C     		mov	r0, r7
 1141 020e FFF7FEFF 		bl	__aeabi_uidivmod
 1142              	.LVL130:
 278:lib_DS1307/DS1307.c ****     data[DS1307_DATE_ADRESS] = ((DS1307_currentTimeDate.date/10)<<4) + (DS1307_currentTimeDate.date
 1143              		.loc 1 278 0
 1144 0212 6A46     		mov	r2, sp
 275:lib_DS1307/DS1307.c ****         data[DS1307_HOUR_ADRESS] |= (DS1307_currentTimeDate.timeFormat << 6);
 1145              		.loc 1 275 0
 1146 0214 6D18     		add	r5, r5, r1
 278:lib_DS1307/DS1307.c ****     data[DS1307_DATE_ADRESS] = ((DS1307_currentTimeDate.date/10)<<4) + (DS1307_currentTimeDate.date
 1147              		.loc 1 278 0
 1148 0216 2021     		mov	r1, #32
 1149 0218 5218     		add	r2, r2, r1
 1150 021a 1278     		ldrb	r2, [r2]
 275:lib_DS1307/DS1307.c ****         data[DS1307_HOUR_ADRESS] |= (DS1307_currentTimeDate.timeFormat << 6);
 1151              		.loc 1 275 0
 1152 021c 0AAB     		add	r3, sp, #40
 278:lib_DS1307/DS1307.c ****     data[DS1307_DATE_ADRESS] = ((DS1307_currentTimeDate.date/10)<<4) + (DS1307_currentTimeDate.date
 1153              		.loc 1 278 0
 1154 021e DA70     		strb	r2, [r3, #3]
 275:lib_DS1307/DS1307.c ****         data[DS1307_HOUR_ADRESS] |= (DS1307_currentTimeDate.timeFormat << 6);
 1155              		.loc 1 275 0
 1156 0220 9D70     		strb	r5, [r3, #2]
 279:lib_DS1307/DS1307.c ****     data[DS1307_MONTH_ADRESS] = ((DS1307_currentTimeDate.month/10)<<4) + (DS1307_currentTimeDate.mo
 1157              		.loc 1 279 0
 1158 0222 0598     		ldr	r0, [sp, #20]
 1159 0224 1639     		sub	r1, r1, #22
 1160 0226 FFF7FEFF 		bl	__aeabi_uidiv
 1161              	.LVL131:
 1162 022a 0A21     		mov	r1, #10
 1163 022c 0501     		lsl	r5, r0, #4
 1164 022e 0598     		ldr	r0, [sp, #20]
 1165 0230 FFF7FEFF 		bl	__aeabi_uidivmod
 1166              	.LVL132:
 1167 0234 0AAB     		add	r3, sp, #40
 1168 0236 6D18     		add	r5, r5, r1
 1169 0238 1D71     		strb	r5, [r3, #4]
 280:lib_DS1307/DS1307.c ****     data[DS1307_YEAR_ADRESS] = ((DS1307_currentTimeDate.year/10)<<4) + (DS1307_currentTimeDate.year
ARM GAS  C:\Users\Petro\AppData\Local\Temp\ccqvpTVu.s 			page 37


 1170              		.loc 1 280 0
 1171 023a 0098     		ldr	r0, [sp]
 1172 023c 0A21     		mov	r1, #10
 1173 023e FFF7FEFF 		bl	__aeabi_uidiv
 1174              	.LVL133:
 1175 0242 0A21     		mov	r1, #10
 1176 0244 0501     		lsl	r5, r0, #4
 1177 0246 0098     		ldr	r0, [sp]
 1178 0248 FFF7FEFF 		bl	__aeabi_uidivmod
 1179              	.LVL134:
 1180 024c 0AAB     		add	r3, sp, #40
 1181 024e 6818     		add	r0, r5, r1
 1182 0250 5871     		strb	r0, [r3, #5]
 281:lib_DS1307/DS1307.c ****     
 1183              		.loc 1 281 0
 1184 0252 0A21     		mov	r1, #10
 1185 0254 0298     		ldr	r0, [sp, #8]
 1186 0256 FFF7FEFF 		bl	__aeabi_uidiv
 1187              	.LVL135:
 1188 025a 0A21     		mov	r1, #10
 1189 025c 0501     		lsl	r5, r0, #4
 1190 025e 0298     		ldr	r0, [sp, #8]
 1191 0260 FFF7FEFF 		bl	__aeabi_uidivmod
 1192              	.LVL136:
 1193 0264 0AAB     		add	r3, sp, #40
 1194 0266 4D19     		add	r5, r1, r5
 1195 0268 9D71     		strb	r5, [r3, #6]
 284:lib_DS1307/DS1307.c ****     I2C_I2CMasterClearStatus();
 1196              		.loc 1 284 0
 1197 026a FFF7FEFF 		bl	I2C_Start
 1198              	.LVL137:
 285:lib_DS1307/DS1307.c ****     status = I2C_I2CMasterSendStart(DS1307_SLAVE_ADRESS, I2C_I2C_WRITE_XFER_MODE);
 1199              		.loc 1 285 0
 1200 026e FFF7FEFF 		bl	I2C_I2CMasterClearStatus
 1201              	.LVL138:
 286:lib_DS1307/DS1307.c ****     I2C_I2CMasterWriteByte(DS1307_NULL_ADRESS);
 1202              		.loc 1 286 0
 1203 0272 6820     		mov	r0, #104
 1204 0274 211C     		mov	r1, r4
 1205 0276 FFF7FEFF 		bl	I2C_I2CMasterSendStart
 1206              	.LVL139:
 1207 027a 051C     		mov	r5, r0
 1208              	.LVL140:
 287:lib_DS1307/DS1307.c ****     if(I2C_I2C_MSTR_NO_ERROR == status) 
 1209              		.loc 1 287 0
 1210 027c 201C     		mov	r0, r4
 1211              	.LVL141:
 1212 027e FFF7FEFF 		bl	I2C_I2CMasterWriteByte
 1213              	.LVL142:
 288:lib_DS1307/DS1307.c ****     {
 1214              		.loc 1 288 0
 1215 0282 A542     		cmp	r5, r4
 1216 0284 06D0     		beq	.L62
 1217              	.LVL143:
 1218              	.L63:
 299:lib_DS1307/DS1307.c **** }
 1219              		.loc 1 299 0
ARM GAS  C:\Users\Petro\AppData\Local\Temp\ccqvpTVu.s 			page 38


 1220 0286 FFF7FEFF 		bl	I2C_I2CMasterSendStop
 1221              	.LVL144:
 1222              	.LBE53:
 1223              	.LBE52:
 716:lib_DS1307/DS1307.c ****     
 717:lib_DS1307/DS1307.c ****     /*write in chip*/
 718:lib_DS1307/DS1307.c ****     DS1307_WriteTimeFromStruct();
 719:lib_DS1307/DS1307.c **** }
 1224              		.loc 1 719 0
 1225 028a 0DB0     		add	sp, sp, #52
 1226              		@ sp needed
 1227 028c F0BD     		pop	{r4, r5, r6, r7, pc}
 1228              	.LVL145:
 1229              	.L79:
 1230              	.LBB55:
 1231              	.LBB54:
 290:lib_DS1307/DS1307.c ****         {
 1232              		.loc 1 290 0
 1233 028e 0134     		add	r4, r4, #1
 1234              	.LVL146:
 1235 0290 072C     		cmp	r4, #7
 1236 0292 F8D0     		beq	.L63
 1237              	.LVL147:
 1238              	.L62:
 292:lib_DS1307/DS1307.c ****             if(I2C_I2C_MSTR_NO_ERROR != status)
 1239              		.loc 1 292 0
 1240 0294 0AAB     		add	r3, sp, #40
 1241 0296 185D     		ldrb	r0, [r3, r4]
 1242 0298 FFF7FEFF 		bl	I2C_I2CMasterWriteByte
 1243              	.LVL148:
 293:lib_DS1307/DS1307.c ****             {
 1244              		.loc 1 293 0
 1245 029c 0028     		cmp	r0, #0
 1246 029e F6D0     		beq	.L79
 1247 02a0 F1E7     		b	.L63
 1248              	.LVL149:
 1249              	.L51:
 1250              	.LBE54:
 1251              	.LBE55:
 1252              	.LBB56:
 631:lib_DS1307/DS1307.c ****             }
 1253              		.loc 1 631 0
 1254 02a2 0133     		add	r3, r3, #1
 1255              	.LVL150:
 1256 02a4 FBE6     		b	.L49
 1257              	.L81:
 1258 02a6 C046     		.align	2
 1259              	.L80:
 1260 02a8 8033E101 		.word	31536000
 1261 02ac B2070000 		.word	1970
 1262 02b0 0085E201 		.word	31622400
 1263 02b4 80DE2800 		.word	2678400
 1264 02b8 80510100 		.word	86400
 1265 02bc 00000000 		.word	.LANCHOR0
 1266 02c0 00000000 		.word	DS1307_currentTimeDate
 1267 02c4 30F8FFFF 		.word	-2000
 1268              	.LBE56:
ARM GAS  C:\Users\Petro\AppData\Local\Temp\ccqvpTVu.s 			page 39


 1269              		.cfi_endproc
 1270              	.LFE8:
 1271              		.size	DS1307_SetUnixTime, .-DS1307_SetUnixTime
 1272              		.section	.text.DS1307_Start,"ax",%progbits
 1273              		.align	1
 1274              		.global	DS1307_Start
 1275              		.code	16
 1276              		.thumb_func
 1277              		.type	DS1307_Start, %function
 1278              	DS1307_Start:
 1279              	.LFB9:
 720:lib_DS1307/DS1307.c **** 
 721:lib_DS1307/DS1307.c **** /*******************************************************************************
 722:lib_DS1307/DS1307.c **** * Function Name: DS1307_Start
 723:lib_DS1307/DS1307.c **** ********************************************************************************
 724:lib_DS1307/DS1307.c **** *
 725:lib_DS1307/DS1307.c **** * Summary:
 726:lib_DS1307/DS1307.c **** *   start the chip DS1307
 727:lib_DS1307/DS1307.c **** *
 728:lib_DS1307/DS1307.c **** *******************************************************************************/
 729:lib_DS1307/DS1307.c **** void DS1307_Start(void)
 730:lib_DS1307/DS1307.c **** {
 1280              		.loc 1 730 0
 1281              		.cfi_startproc
 1282 0000 38B5     		push	{r3, r4, r5, lr}
 1283              		.cfi_def_cfa_offset 16
 1284              		.cfi_offset 3, -16
 1285              		.cfi_offset 4, -12
 1286              		.cfi_offset 5, -8
 1287              		.cfi_offset 14, -4
 731:lib_DS1307/DS1307.c ****     uint8_t data ;
 732:lib_DS1307/DS1307.c ****     uint32_t status;
 733:lib_DS1307/DS1307.c ****     
 734:lib_DS1307/DS1307.c ****     data = DS1307_currentTimeDate.second & (~DS1307_OFF_MASK); 
 1288              		.loc 1 734 0
 1289 0002 0B4B     		ldr	r3, .L84
 1290 0004 1C78     		ldrb	r4, [r3]
 1291              	.LVL151:
 735:lib_DS1307/DS1307.c ****     
 736:lib_DS1307/DS1307.c ****     I2C_Start();
 1292              		.loc 1 736 0
 1293 0006 FFF7FEFF 		bl	I2C_Start
 1294              	.LVL152:
 737:lib_DS1307/DS1307.c ****     I2C_I2CMasterClearStatus();
 1295              		.loc 1 737 0
 1296 000a FFF7FEFF 		bl	I2C_I2CMasterClearStatus
 1297              	.LVL153:
 738:lib_DS1307/DS1307.c ****     status = I2C_I2CMasterSendStart(DS1307_SLAVE_ADRESS, I2C_I2C_WRITE_XFER_MODE);
 1298              		.loc 1 738 0
 1299 000e 6820     		mov	r0, #104
 1300 0010 0021     		mov	r1, #0
 1301 0012 FFF7FEFF 		bl	I2C_I2CMasterSendStart
 1302              	.LVL154:
 1303 0016 051C     		mov	r5, r0
 1304              	.LVL155:
 739:lib_DS1307/DS1307.c ****     I2C_I2CMasterWriteByte(DS1307_NULL_ADRESS);
 1305              		.loc 1 739 0
ARM GAS  C:\Users\Petro\AppData\Local\Temp\ccqvpTVu.s 			page 40


 1306 0018 0020     		mov	r0, #0
 1307              	.LVL156:
 1308 001a FFF7FEFF 		bl	I2C_I2CMasterWriteByte
 1309              	.LVL157:
 740:lib_DS1307/DS1307.c ****     
 741:lib_DS1307/DS1307.c ****     if(I2C_I2C_MSTR_NO_ERROR == status) 
 1310              		.loc 1 741 0
 1311 001e 002D     		cmp	r5, #0
 1312 0020 03D1     		bne	.L83
 742:lib_DS1307/DS1307.c ****     {
 743:lib_DS1307/DS1307.c ****         status = I2C_I2CMasterWriteByte(data);
 1313              		.loc 1 743 0
 1314 0022 7F20     		mov	r0, #127
 1315 0024 2040     		and	r0, r4
 1316 0026 FFF7FEFF 		bl	I2C_I2CMasterWriteByte
 1317              	.LVL158:
 1318              	.L83:
 744:lib_DS1307/DS1307.c ****     }
 745:lib_DS1307/DS1307.c ****     I2C_I2CMasterSendStop();
 1319              		.loc 1 745 0
 1320 002a FFF7FEFF 		bl	I2C_I2CMasterSendStop
 1321              	.LVL159:
 746:lib_DS1307/DS1307.c **** }
 1322              		.loc 1 746 0
 1323              		@ sp needed
 1324              	.LVL160:
 1325 002e 38BD     		pop	{r3, r4, r5, pc}
 1326              	.L85:
 1327              		.align	2
 1328              	.L84:
 1329 0030 00000000 		.word	DS1307_currentTimeDate
 1330              		.cfi_endproc
 1331              	.LFE9:
 1332              		.size	DS1307_Start, .-DS1307_Start
 1333              		.section	.text.DS1307_Stop,"ax",%progbits
 1334              		.align	1
 1335              		.global	DS1307_Stop
 1336              		.code	16
 1337              		.thumb_func
 1338              		.type	DS1307_Stop, %function
 1339              	DS1307_Stop:
 1340              	.LFB10:
 747:lib_DS1307/DS1307.c **** 
 748:lib_DS1307/DS1307.c **** 
 749:lib_DS1307/DS1307.c **** /*******************************************************************************
 750:lib_DS1307/DS1307.c **** * Function Name: DS1307_Start
 751:lib_DS1307/DS1307.c **** ********************************************************************************
 752:lib_DS1307/DS1307.c **** *
 753:lib_DS1307/DS1307.c **** * Summary:
 754:lib_DS1307/DS1307.c **** *   stop the chip DS1307
 755:lib_DS1307/DS1307.c **** *
 756:lib_DS1307/DS1307.c **** *******************************************************************************/
 757:lib_DS1307/DS1307.c **** void DS1307_Stop(void)
 758:lib_DS1307/DS1307.c **** {
 1341              		.loc 1 758 0
 1342              		.cfi_startproc
 1343 0000 38B5     		push	{r3, r4, r5, lr}
ARM GAS  C:\Users\Petro\AppData\Local\Temp\ccqvpTVu.s 			page 41


 1344              		.cfi_def_cfa_offset 16
 1345              		.cfi_offset 3, -16
 1346              		.cfi_offset 4, -12
 1347              		.cfi_offset 5, -8
 1348              		.cfi_offset 14, -4
 759:lib_DS1307/DS1307.c ****     uint8_t data ;
 760:lib_DS1307/DS1307.c ****     uint32_t status;
 761:lib_DS1307/DS1307.c ****     
 762:lib_DS1307/DS1307.c ****     data = DS1307_currentTimeDate.second | DS1307_OFF_MASK; 
 1349              		.loc 1 762 0
 1350 0002 0B4B     		ldr	r3, .L88
 1351 0004 1C78     		ldrb	r4, [r3]
 1352              	.LVL161:
 763:lib_DS1307/DS1307.c ****     
 764:lib_DS1307/DS1307.c ****     I2C_Start();
 1353              		.loc 1 764 0
 1354 0006 FFF7FEFF 		bl	I2C_Start
 1355              	.LVL162:
 765:lib_DS1307/DS1307.c ****     I2C_I2CMasterClearStatus();
 1356              		.loc 1 765 0
 1357 000a FFF7FEFF 		bl	I2C_I2CMasterClearStatus
 1358              	.LVL163:
 766:lib_DS1307/DS1307.c ****     status = I2C_I2CMasterSendStart(DS1307_SLAVE_ADRESS, I2C_I2C_WRITE_XFER_MODE);
 1359              		.loc 1 766 0
 1360 000e 6820     		mov	r0, #104
 1361 0010 0021     		mov	r1, #0
 1362 0012 FFF7FEFF 		bl	I2C_I2CMasterSendStart
 1363              	.LVL164:
 1364 0016 051C     		mov	r5, r0
 1365              	.LVL165:
 767:lib_DS1307/DS1307.c ****     I2C_I2CMasterWriteByte(DS1307_NULL_ADRESS);
 1366              		.loc 1 767 0
 1367 0018 0020     		mov	r0, #0
 1368              	.LVL166:
 1369 001a FFF7FEFF 		bl	I2C_I2CMasterWriteByte
 1370              	.LVL167:
 768:lib_DS1307/DS1307.c ****     
 769:lib_DS1307/DS1307.c ****     if(I2C_I2C_MSTR_NO_ERROR == status) 
 1371              		.loc 1 769 0
 1372 001e 002D     		cmp	r5, #0
 1373 0020 03D1     		bne	.L87
 762:lib_DS1307/DS1307.c ****     
 1374              		.loc 1 762 0
 1375 0022 8020     		mov	r0, #128
 770:lib_DS1307/DS1307.c ****     {
 771:lib_DS1307/DS1307.c ****         status = I2C_I2CMasterWriteByte(data);
 1376              		.loc 1 771 0
 1377 0024 2043     		orr	r0, r4
 1378 0026 FFF7FEFF 		bl	I2C_I2CMasterWriteByte
 1379              	.LVL168:
 1380              	.L87:
 772:lib_DS1307/DS1307.c ****     }
 773:lib_DS1307/DS1307.c ****     I2C_I2CMasterSendStop();
 1381              		.loc 1 773 0
 1382 002a FFF7FEFF 		bl	I2C_I2CMasterSendStop
 1383              	.LVL169:
 774:lib_DS1307/DS1307.c **** }
ARM GAS  C:\Users\Petro\AppData\Local\Temp\ccqvpTVu.s 			page 42


 1384              		.loc 1 774 0
 1385              		@ sp needed
 1386              	.LVL170:
 1387 002e 38BD     		pop	{r3, r4, r5, pc}
 1388              	.L89:
 1389              		.align	2
 1390              	.L88:
 1391 0030 00000000 		.word	DS1307_currentTimeDate
 1392              		.cfi_endproc
 1393              	.LFE10:
 1394              		.size	DS1307_Stop, .-DS1307_Stop
 1395              		.comm	DS1307_currentTimeDate,10,2
 1396              		.section	.rodata
 1397              		.align	1
 1398              		.set	.LANCHOR0,. + 0
 1399              		.type	DS1307_daysBeforeMonthTbl1, %object
 1400              		.size	DS1307_daysBeforeMonthTbl1, 24
 1401              	DS1307_daysBeforeMonthTbl1:
 1402 0000 0000     		.short	0
 1403 0002 1F00     		.short	31
 1404 0004 3B00     		.short	59
 1405 0006 5A00     		.short	90
 1406 0008 7800     		.short	120
 1407 000a 9700     		.short	151
 1408 000c B500     		.short	181
 1409 000e D400     		.short	212
 1410 0010 F300     		.short	243
 1411 0012 1101     		.short	273
 1412 0014 3001     		.short	304
 1413 0016 4E01     		.short	334
 1414              		.type	DS1307_daysInMonthTbl, %object
 1415              		.size	DS1307_daysInMonthTbl, 12
 1416              	DS1307_daysInMonthTbl:
 1417 0018 1F       		.byte	31
 1418 0019 1C       		.byte	28
 1419 001a 1F       		.byte	31
 1420 001b 1E       		.byte	30
 1421 001c 1F       		.byte	31
 1422 001d 1E       		.byte	30
 1423 001e 1F       		.byte	31
 1424 001f 1F       		.byte	31
 1425 0020 1E       		.byte	30
 1426 0021 1F       		.byte	31
 1427 0022 1E       		.byte	30
 1428 0023 1F       		.byte	31
 1429              		.text
 1430              	.Letext0:
 1431              		.file 2 "c:\\program files (x86)\\cypress\\psoc creator\\4.0\\psoc creator\\import\\gnu\\arm\\4.9.
 1432              		.file 3 "c:\\program files (x86)\\cypress\\psoc creator\\4.0\\psoc creator\\import\\gnu\\arm\\4.9.
 1433              		.file 4 "Generated_Source\\PSoC4/cytypes.h"
 1434              		.file 5 "Generated_Source\\PSoC4/I2C_I2C.h"
 1435              		.file 6 "Generated_Source\\PSoC4/I2C.h"