ARM GAS  C:\Users\Petro\AppData\Local\Temp\ccvg6EGn.s 			page 1


   1              		.cpu cortex-m0
   2              		.fpu softvfp
   3              		.eabi_attribute 20, 1
   4              		.eabi_attribute 21, 1
   5              		.eabi_attribute 23, 3
   6              		.eabi_attribute 24, 1
   7              		.eabi_attribute 25, 1
   8              		.eabi_attribute 26, 1
   9              		.eabi_attribute 30, 4
  10              		.eabi_attribute 34, 0
  11              		.eabi_attribute 18, 4
  12              		.code	16
  13              		.file	"gate.c"
  14              		.text
  15              	.Ltext0:
  16              		.cfi_sections	.debug_frame
  17              		.section	.text.GATE_INTERRUPT,"ax",%progbits
  18              		.align	1
  19              		.global	GATE_INTERRUPT
  20              		.code	16
  21              		.thumb_func
  22              		.type	GATE_INTERRUPT, %function
  23              	GATE_INTERRUPT:
  24              	.LFB2:
  25              		.file 1 "lib_Gate\\gate.c"
   1:lib_Gate/gate.c **** #include "lib_Gate\gate.h"
   2:lib_Gate/gate.c **** #include <GatePin.h>
   3:lib_Gate/gate.c **** #include <GATE_INT.h>
   4:lib_Gate/gate.c **** #include "lib_RTC\RTC_WDT.h"
   5:lib_Gate/gate.c **** 
   6:lib_Gate/gate.c **** static uint64_t savedUnixTime;
   7:lib_Gate/gate.c **** static uint32_t savedRecentMs;
   8:lib_Gate/gate.c **** static uint32_t gateOpen ;
   9:lib_Gate/gate.c **** 
  10:lib_Gate/gate.c **** 
  11:lib_Gate/gate.c **** /*gate interrupt*/
  12:lib_Gate/gate.c **** CY_ISR(GATE_INTERRUPT)
  13:lib_Gate/gate.c **** {   
  26              		.loc 1 13 0
  27              		.cfi_startproc
  28 0000 10B5     		push	{r4, lr}
  29              		.cfi_def_cfa_offset 8
  30              		.cfi_offset 4, -8
  31              		.cfi_offset 14, -4
  14:lib_Gate/gate.c ****     GATE_INT_Disable();
  32              		.loc 1 14 0
  33 0002 FFF7FEFF 		bl	GATE_INT_Disable
  34              	.LVL0:
  15:lib_Gate/gate.c ****     
  16:lib_Gate/gate.c ****     gateOpen = GATE_OPEN;    
  35              		.loc 1 16 0
  36 0006 0123     		mov	r3, #1
  37 0008 054C     		ldr	r4, .L2
  17:lib_Gate/gate.c **** 
  18:lib_Gate/gate.c ****     savedUnixTime = RTCGetUnixTime();
  19:lib_Gate/gate.c ****     savedRecentMs = RTCgetRecentMs();
  20:lib_Gate/gate.c ****     
ARM GAS  C:\Users\Petro\AppData\Local\Temp\ccvg6EGn.s 			page 2


  21:lib_Gate/gate.c ****     //GatePin_ClearInterrupt();
  22:lib_Gate/gate.c ****     GATE_INT_ClearPending();   
  23:lib_Gate/gate.c **** }
  38              		.loc 1 23 0
  39              		@ sp needed
  16:lib_Gate/gate.c **** 
  40              		.loc 1 16 0
  41 000a 2360     		str	r3, [r4]
  18:lib_Gate/gate.c ****     savedRecentMs = RTCgetRecentMs();
  42              		.loc 1 18 0
  43 000c FFF7FEFF 		bl	RTCGetUnixTime
  44              	.LVL1:
  45 0010 A060     		str	r0, [r4, #8]
  46 0012 E160     		str	r1, [r4, #12]
  19:lib_Gate/gate.c ****     
  47              		.loc 1 19 0
  48 0014 FFF7FEFF 		bl	RTCgetRecentMs
  49              	.LVL2:
  50 0018 2061     		str	r0, [r4, #16]
  22:lib_Gate/gate.c **** }
  51              		.loc 1 22 0
  52 001a FFF7FEFF 		bl	GATE_INT_ClearPending
  53              	.LVL3:
  54              		.loc 1 23 0
  55 001e 10BD     		pop	{r4, pc}
  56              	.L3:
  57              		.align	2
  58              	.L2:
  59 0020 00000000 		.word	.LANCHOR0
  60              		.cfi_endproc
  61              	.LFE2:
  62              		.size	GATE_INTERRUPT, .-GATE_INTERRUPT
  63              		.section	.text.GateInit,"ax",%progbits
  64              		.align	1
  65              		.global	GateInit
  66              		.code	16
  67              		.thumb_func
  68              		.type	GateInit, %function
  69              	GateInit:
  70              	.LFB3:
  24:lib_Gate/gate.c **** 
  25:lib_Gate/gate.c **** /*******************************************************************************
  26:lib_Gate/gate.c **** * Function Name: GateInit
  27:lib_Gate/gate.c **** ********************************************************************************
  28:lib_Gate/gate.c **** *
  29:lib_Gate/gate.c **** * Summary:
  30:lib_Gate/gate.c **** *   inittilisation the gate pin
  31:lib_Gate/gate.c **** *   disable interrupt from gate
  32:lib_Gate/gate.c **** *
  33:lib_Gate/gate.c **** *******************************************************************************/
  34:lib_Gate/gate.c **** void GateInit(void)
  35:lib_Gate/gate.c **** {
  71              		.loc 1 35 0
  72              		.cfi_startproc
  73 0000 08B5     		push	{r3, lr}
  74              		.cfi_def_cfa_offset 8
  75              		.cfi_offset 3, -8
ARM GAS  C:\Users\Petro\AppData\Local\Temp\ccvg6EGn.s 			page 3


  76              		.cfi_offset 14, -4
  36:lib_Gate/gate.c ****     //GatePin_ClearInterrupt();
  37:lib_Gate/gate.c ****     GATE_INT_ClearPending();
  77              		.loc 1 37 0
  78 0002 FFF7FEFF 		bl	GATE_INT_ClearPending
  79              	.LVL4:
  38:lib_Gate/gate.c ****     GATE_INT_StartEx(GATE_INTERRUPT); 
  80              		.loc 1 38 0
  81 0006 0448     		ldr	r0, .L5
  82 0008 FFF7FEFF 		bl	GATE_INT_StartEx
  83              	.LVL5:
  39:lib_Gate/gate.c ****     GATE_INT_Disable();
  84              		.loc 1 39 0
  85 000c FFF7FEFF 		bl	GATE_INT_Disable
  86              	.LVL6:
  40:lib_Gate/gate.c ****     
  41:lib_Gate/gate.c ****     gateOpen = GATE_CLOSE;     
  87              		.loc 1 41 0
  88 0010 0022     		mov	r2, #0
  89 0012 024B     		ldr	r3, .L5+4
  42:lib_Gate/gate.c **** }
  90              		.loc 1 42 0
  91              		@ sp needed
  41:lib_Gate/gate.c **** }
  92              		.loc 1 41 0
  93 0014 1A60     		str	r2, [r3]
  94              		.loc 1 42 0
  95 0016 08BD     		pop	{r3, pc}
  96              	.L6:
  97              		.align	2
  98              	.L5:
  99 0018 00000000 		.word	GATE_INTERRUPT
 100 001c 00000000 		.word	.LANCHOR0
 101              		.cfi_endproc
 102              	.LFE3:
 103              		.size	GateInit, .-GateInit
 104              		.section	.text.GateIsOpen,"ax",%progbits
 105              		.align	1
 106              		.global	GateIsOpen
 107              		.code	16
 108              		.thumb_func
 109              		.type	GateIsOpen, %function
 110              	GateIsOpen:
 111              	.LFB4:
  43:lib_Gate/gate.c **** 
  44:lib_Gate/gate.c **** 
  45:lib_Gate/gate.c **** /*******************************************************************************
  46:lib_Gate/gate.c **** * Function Name: GateOpen
  47:lib_Gate/gate.c **** ********************************************************************************
  48:lib_Gate/gate.c **** *
  49:lib_Gate/gate.c **** * Summary:
  50:lib_Gate/gate.c **** *  verification or gate closed
  51:lib_Gate/gate.c **** *
  52:lib_Gate/gate.c **** * Return:
  53:lib_Gate/gate.c **** *  GATE_CLOSE or GATE_OPEN
  54:lib_Gate/gate.c **** *******************************************************************************/
  55:lib_Gate/gate.c **** uint32_t GateIsOpen(void)
ARM GAS  C:\Users\Petro\AppData\Local\Temp\ccvg6EGn.s 			page 4


  56:lib_Gate/gate.c **** {   
 112              		.loc 1 56 0
 113              		.cfi_startproc
  57:lib_Gate/gate.c ****     uint32_t result;
  58:lib_Gate/gate.c ****     
  59:lib_Gate/gate.c ****     result = gateOpen;
  60:lib_Gate/gate.c ****     gateOpen = GATE_CLOSE;
 114              		.loc 1 60 0
 115 0000 0022     		mov	r2, #0
  59:lib_Gate/gate.c ****     gateOpen = GATE_CLOSE;
 116              		.loc 1 59 0
 117 0002 024B     		ldr	r3, .L8
  61:lib_Gate/gate.c ****     
  62:lib_Gate/gate.c ****     return result;
  63:lib_Gate/gate.c **** }
 118              		.loc 1 63 0
 119              		@ sp needed
  59:lib_Gate/gate.c ****     gateOpen = GATE_CLOSE;
 120              		.loc 1 59 0
 121 0004 1868     		ldr	r0, [r3]
 122              	.LVL7:
  60:lib_Gate/gate.c ****     
 123              		.loc 1 60 0
 124 0006 1A60     		str	r2, [r3]
 125              		.loc 1 63 0
 126 0008 7047     		bx	lr
 127              	.L9:
 128 000a C046     		.align	2
 129              	.L8:
 130 000c 00000000 		.word	.LANCHOR0
 131              		.cfi_endproc
 132              	.LFE4:
 133              		.size	GateIsOpen, .-GateIsOpen
 134              		.section	.text.AllowNextSkier,"ax",%progbits
 135              		.align	1
 136              		.global	AllowNextSkier
 137              		.code	16
 138              		.thumb_func
 139              		.type	AllowNextSkier, %function
 140              	AllowNextSkier:
 141              	.LFB5:
  64:lib_Gate/gate.c **** 
  65:lib_Gate/gate.c **** 
  66:lib_Gate/gate.c **** /*******************************************************************************
  67:lib_Gate/gate.c **** * Function Name: AllowNextSkier
  68:lib_Gate/gate.c **** ********************************************************************************
  69:lib_Gate/gate.c **** *
  70:lib_Gate/gate.c **** * Summary:
  71:lib_Gate/gate.c **** *   allow the new skier on way(enable gate interrupt)
  72:lib_Gate/gate.c **** *
  73:lib_Gate/gate.c **** *******************************************************************************/
  74:lib_Gate/gate.c **** void AllowNextSkier(void)
  75:lib_Gate/gate.c **** {
 142              		.loc 1 75 0
 143              		.cfi_startproc
 144 0000 08B5     		push	{r3, lr}
 145              		.cfi_def_cfa_offset 8
ARM GAS  C:\Users\Petro\AppData\Local\Temp\ccvg6EGn.s 			page 5


 146              		.cfi_offset 3, -8
 147              		.cfi_offset 14, -4
  76:lib_Gate/gate.c ****     //GatePin_ClearInterrupt();
  77:lib_Gate/gate.c ****     GATE_INT_ClearPending();
 148              		.loc 1 77 0
 149 0002 FFF7FEFF 		bl	GATE_INT_ClearPending
 150              	.LVL8:
  78:lib_Gate/gate.c ****     GATE_INT_Enable();
  79:lib_Gate/gate.c **** }
 151              		.loc 1 79 0
 152              		@ sp needed
  78:lib_Gate/gate.c ****     GATE_INT_Enable();
 153              		.loc 1 78 0
 154 0006 FFF7FEFF 		bl	GATE_INT_Enable
 155              	.LVL9:
 156              		.loc 1 79 0
 157 000a 08BD     		pop	{r3, pc}
 158              		.cfi_endproc
 159              	.LFE5:
 160              		.size	AllowNextSkier, .-AllowNextSkier
 161              		.section	.text.DisAllowNextSkier,"ax",%progbits
 162              		.align	1
 163              		.global	DisAllowNextSkier
 164              		.code	16
 165              		.thumb_func
 166              		.type	DisAllowNextSkier, %function
 167              	DisAllowNextSkier:
 168              	.LFB6:
  80:lib_Gate/gate.c **** 
  81:lib_Gate/gate.c **** void DisAllowNextSkier(void)
  82:lib_Gate/gate.c **** {
 169              		.loc 1 82 0
 170              		.cfi_startproc
  83:lib_Gate/gate.c ****     gateOpen = GATE_CLOSE;
 171              		.loc 1 83 0
 172 0000 0022     		mov	r2, #0
  82:lib_Gate/gate.c ****     gateOpen = GATE_CLOSE;
 173              		.loc 1 82 0
 174 0002 08B5     		push	{r3, lr}
 175              		.cfi_def_cfa_offset 8
 176              		.cfi_offset 3, -8
 177              		.cfi_offset 14, -4
 178              		.loc 1 83 0
 179 0004 044B     		ldr	r3, .L12
  84:lib_Gate/gate.c ****      
  85:lib_Gate/gate.c ****     GatePin_ClearInterrupt();
  86:lib_Gate/gate.c ****     GATE_INT_ClearPending();
  87:lib_Gate/gate.c ****     GATE_INT_Disable();   
  88:lib_Gate/gate.c **** }
 180              		.loc 1 88 0
 181              		@ sp needed
  83:lib_Gate/gate.c ****      
 182              		.loc 1 83 0
 183 0006 1A60     		str	r2, [r3]
  85:lib_Gate/gate.c ****     GATE_INT_ClearPending();
 184              		.loc 1 85 0
 185 0008 FFF7FEFF 		bl	GatePin_ClearInterrupt
ARM GAS  C:\Users\Petro\AppData\Local\Temp\ccvg6EGn.s 			page 6


 186              	.LVL10:
  86:lib_Gate/gate.c ****     GATE_INT_Disable();   
 187              		.loc 1 86 0
 188 000c FFF7FEFF 		bl	GATE_INT_ClearPending
 189              	.LVL11:
  87:lib_Gate/gate.c **** }
 190              		.loc 1 87 0
 191 0010 FFF7FEFF 		bl	GATE_INT_Disable
 192              	.LVL12:
 193              		.loc 1 88 0
 194 0014 08BD     		pop	{r3, pc}
 195              	.L13:
 196 0016 C046     		.align	2
 197              	.L12:
 198 0018 00000000 		.word	.LANCHOR0
 199              		.cfi_endproc
 200              	.LFE6:
 201              		.size	DisAllowNextSkier, .-DisAllowNextSkier
 202              		.section	.text.GetFinTime,"ax",%progbits
 203              		.align	1
 204              		.global	GetFinTime
 205              		.code	16
 206              		.thumb_func
 207              		.type	GetFinTime, %function
 208              	GetFinTime:
 209              	.LFB7:
  89:lib_Gate/gate.c **** 
  90:lib_Gate/gate.c **** /*******************************************************************************
  91:lib_Gate/gate.c **** * Function Name: GetFinTime
  92:lib_Gate/gate.c **** ********************************************************************************
  93:lib_Gate/gate.c **** *
  94:lib_Gate/gate.c **** * Summary:
  95:lib_Gate/gate.c **** *   reading recorded in the interruption time finish skier
  96:lib_Gate/gate.c **** * Parametrs:
  97:lib_Gate/gate.c **** *   *unixTime - pointer from unix time skier
  98:lib_Gate/gate.c **** *   *recentMs - pointer from miliseconds time
  99:lib_Gate/gate.c **** *
 100:lib_Gate/gate.c **** *******************************************************************************/
 101:lib_Gate/gate.c **** void GetFinTime(uint64_t *unixTime,  uint32_t *recentMs)
 102:lib_Gate/gate.c **** {
 210              		.loc 1 102 0
 211              		.cfi_startproc
 212              	.LVL13:
 213 0000 30B5     		push	{r4, r5, lr}
 214              		.cfi_def_cfa_offset 12
 215              		.cfi_offset 4, -12
 216              		.cfi_offset 5, -8
 217              		.cfi_offset 14, -4
 103:lib_Gate/gate.c ****     *unixTime = savedUnixTime;
 218              		.loc 1 103 0
 219 0002 044B     		ldr	r3, .L15
 104:lib_Gate/gate.c ****     *recentMs = savedRecentMs;
 105:lib_Gate/gate.c **** }
 220              		.loc 1 105 0
 221              		@ sp needed
 103:lib_Gate/gate.c ****     *unixTime = savedUnixTime;
 222              		.loc 1 103 0
ARM GAS  C:\Users\Petro\AppData\Local\Temp\ccvg6EGn.s 			page 7


 223 0004 9C68     		ldr	r4, [r3, #8]
 224 0006 DD68     		ldr	r5, [r3, #12]
 104:lib_Gate/gate.c ****     *recentMs = savedRecentMs;
 225              		.loc 1 104 0
 226 0008 1B69     		ldr	r3, [r3, #16]
 103:lib_Gate/gate.c ****     *unixTime = savedUnixTime;
 227              		.loc 1 103 0
 228 000a 0460     		str	r4, [r0]
 229 000c 4560     		str	r5, [r0, #4]
 104:lib_Gate/gate.c ****     *recentMs = savedRecentMs;
 230              		.loc 1 104 0
 231 000e 0B60     		str	r3, [r1]
 232              		.loc 1 105 0
 233 0010 30BD     		pop	{r4, r5, pc}
 234              	.L16:
 235 0012 C046     		.align	2
 236              	.L15:
 237 0014 00000000 		.word	.LANCHOR0
 238              		.cfi_endproc
 239              	.LFE7:
 240              		.size	GetFinTime, .-GetFinTime
 241              		.bss
 242              		.align	3
 243              		.set	.LANCHOR0,. + 0
 244              		.type	gateOpen, %object
 245              		.size	gateOpen, 4
 246              	gateOpen:
 247 0000 00000000 		.space	4
 248 0004 00000000 		.space	4
 249              		.type	savedUnixTime, %object
 250              		.size	savedUnixTime, 8
 251              	savedUnixTime:
 252 0008 00000000 		.space	8
 252      00000000 
 253              		.type	savedRecentMs, %object
 254              		.size	savedRecentMs, 4
 255              	savedRecentMs:
 256 0010 00000000 		.space	4
 257 0014 00000000 		.text
 258              	.Letext0:
 259              		.file 2 "c:\\program files (x86)\\cypress\\psoc creator\\4.0\\psoc creator\\import\\gnu\\arm\\4.9.
 260              		.file 3 "c:\\program files (x86)\\cypress\\psoc creator\\4.0\\psoc creator\\import\\gnu\\arm\\4.9.
 261              		.file 4 "Generated_Source\\PSoC4/cytypes.h"
 262              		.file 5 "./lib_RTC\\RTC_WDT.h"
 263              		.file 6 "Generated_Source\\PSoC4/GATE_INT.h"
 264              		.file 7 "Generated_Source\\PSoC4/GatePin.h"