ARM GAS  C:\Users\Petro\AppData\Local\Temp\cchQWd3Z.s 			page 1


   1              		.cpu cortex-m0
   2              		.fpu softvfp
   3              		.eabi_attribute 20, 1
   4              		.eabi_attribute 21, 1
   5              		.eabi_attribute 23, 3
   6              		.eabi_attribute 24, 1
   7              		.eabi_attribute 25, 1
   8              		.eabi_attribute 26, 1
   9              		.eabi_attribute 30, 4
  10              		.eabi_attribute 34, 0
  11              		.eabi_attribute 18, 4
  12              		.code	16
  13              		.file	"LCD5110_Graph.c"
  14              		.text
  15              	.Ltext0:
  16              		.cfi_sections	.debug_frame
  17              		.section	.text._convert_float,"ax",%progbits
  18              		.align	1
  19              		.global	_convert_float
  20              		.code	16
  21              		.thumb_func
  22              		.type	_convert_float, %function
  23              	_convert_float:
  24              	.LFB63:
  25              		.file 1 "./nokia5110/HW_ARM.h"
   1:./nokia5110/HW_ARM.h **** #include "stdio.h"
   2:./nokia5110/HW_ARM.h **** #include "stdint.h"
   3:./nokia5110/HW_ARM.h **** 
   4:./nokia5110/HW_ARM.h **** void _convert_float(char *buf, double num, int width, uint8_t prec)
   5:./nokia5110/HW_ARM.h **** {
  26              		.loc 1 5 0
  27              		.cfi_startproc
  28              	.LVL0:
  29 0000 7FB5     		push	{r0, r1, r2, r3, r4, r5, r6, lr}
  30              		.cfi_def_cfa_offset 32
  31              		.cfi_offset 0, -32
  32              		.cfi_offset 1, -28
  33              		.cfi_offset 2, -24
  34              		.cfi_offset 3, -20
  35              		.cfi_offset 4, -16
  36              		.cfi_offset 5, -12
  37              		.cfi_offset 6, -8
  38              		.cfi_offset 14, -4
  39              		.loc 1 5 0
  40 0002 061C     		mov	r6, r0
  41 0004 1D1C     		mov	r5, r3
  42 0006 141C     		mov	r4, r2
  43 0008 08AB     		add	r3, sp, #32
  44              	.LVL1:
  45 000a 04CB     		ldmia	r3!, {r2}
  46              	.LVL2:
   6:./nokia5110/HW_ARM.h **** 	char format[10];
   7:./nokia5110/HW_ARM.h **** 	
   8:./nokia5110/HW_ARM.h **** 	sprintf(format, "%%%i.%if", width, prec);
  47              		.loc 1 8 0
  48 000c 01A8     		add	r0, sp, #4
  49              	.LVL3:
ARM GAS  C:\Users\Petro\AppData\Local\Temp\cchQWd3Z.s 			page 2


   5:./nokia5110/HW_ARM.h **** 	char format[10];
  50              		.loc 1 5 0
  51 000e 1B78     		ldrb	r3, [r3]
  52              	.LVL4:
  53              		.loc 1 8 0
  54 0010 0449     		ldr	r1, .L2
  55 0012 FFF7FEFF 		bl	sprintf
  56              	.LVL5:
   9:./nokia5110/HW_ARM.h **** 	sprintf(buf, format, num);
  57              		.loc 1 9 0
  58 0016 301C     		mov	r0, r6
  59 0018 2B1C     		mov	r3, r5
  60 001a 01A9     		add	r1, sp, #4
  61 001c 221C     		mov	r2, r4
  62 001e FFF7FEFF 		bl	sprintf
  63              	.LVL6:
  10:./nokia5110/HW_ARM.h **** }
  64              		.loc 1 10 0
  65              		@ sp needed
  66              	.LVL7:
  67 0022 7FBD     		pop	{r0, r1, r2, r3, r4, r5, r6, pc}
  68              	.L3:
  69              		.align	2
  70              	.L2:
  71 0024 00000000 		.word	.LC0
  72              		.cfi_endproc
  73              	.LFE63:
  74              		.size	_convert_float, .-_convert_float
  75              		.section	.text._LCD_Write,"ax",%progbits
  76              		.align	1
  77              		.global	_LCD_Write
  78              		.code	16
  79              		.thumb_func
  80              		.type	_LCD_Write, %function
  81              	_LCD_Write:
  82              	.LFB64:
  83              		.file 2 "nokia5110\\LCD5110_Graph.c"
   1:nokia5110/LCD5110_Graph.c **** /*
   2:nokia5110/LCD5110_Graph.c ****   LCD5110_Graph.cpp - Arduino/chipKit library support for Nokia 5110 compatible LCDs
   3:nokia5110/LCD5110_Graph.c ****   Copyright (C)2015 Rinky-Dink Electronics, Henning Karlsen. All right reserved
   4:nokia5110/LCD5110_Graph.c ****   
   5:nokia5110/LCD5110_Graph.c ****   Basic functionality of this library are based on the demo-code provided by
   6:nokia5110/LCD5110_Graph.c ****   ITead studio. You can find the latest version of the library at
   7:nokia5110/LCD5110_Graph.c ****   http://www.RinkyDinkElectronics.com/
   8:nokia5110/LCD5110_Graph.c **** 
   9:nokia5110/LCD5110_Graph.c ****   This library has been made to make it easy to use the Nokia 5110 LCD module 
  10:nokia5110/LCD5110_Graph.c ****   as a graphics display on an Arduino or a chipKit.
  11:nokia5110/LCD5110_Graph.c **** 
  12:nokia5110/LCD5110_Graph.c ****   This library is free software; you can redistribute it and/or
  13:nokia5110/LCD5110_Graph.c ****   modify it under the terms of the CC BY-NC-SA 3.0 license.
  14:nokia5110/LCD5110_Graph.c ****   Please see the included documents for further information.
  15:nokia5110/LCD5110_Graph.c **** 
  16:nokia5110/LCD5110_Graph.c ****   Commercial use of this library requires you to buy a license that
  17:nokia5110/LCD5110_Graph.c ****   will allow commercial use. This includes using the library,
  18:nokia5110/LCD5110_Graph.c ****   modified or not, as a tool to sell products.
  19:nokia5110/LCD5110_Graph.c **** 
  20:nokia5110/LCD5110_Graph.c ****   The license applies to all part of the library including the 
ARM GAS  C:\Users\Petro\AppData\Local\Temp\cchQWd3Z.s 			page 3


  21:nokia5110/LCD5110_Graph.c ****   examples and tools supplied with the library.
  22:nokia5110/LCD5110_Graph.c **** */
  23:nokia5110/LCD5110_Graph.c **** 
  24:nokia5110/LCD5110_Graph.c **** #include "LCD5110_Graph.h"
  25:nokia5110/LCD5110_Graph.c **** #include "stdlib.h"
  26:nokia5110/LCD5110_Graph.c **** 
  27:nokia5110/LCD5110_Graph.c **** 
  28:nokia5110/LCD5110_Graph.c **** #include "nokia5110/HW_ARM.h"
  29:nokia5110/LCD5110_Graph.c **** 
  30:nokia5110/LCD5110_Graph.c **** 
  31:nokia5110/LCD5110_Graph.c **** void _LCD_Write(unsigned char data, unsigned char mode)
  32:nokia5110/LCD5110_Graph.c **** {   
  84              		.loc 2 32 0
  85              		.cfi_startproc
  86              	.LVL8:
  87 0000 10B5     		push	{r4, lr}
  88              		.cfi_def_cfa_offset 8
  89              		.cfi_offset 4, -8
  90              		.cfi_offset 14, -4
  91              		.loc 2 32 0
  92 0002 041C     		mov	r4, r0
  33:nokia5110/LCD5110_Graph.c ****     //cbi(P_CS, B_CS);
  34:nokia5110/LCD5110_Graph.c **** 
  35:nokia5110/LCD5110_Graph.c **** 	if (mode==LCD_COMMAND)
  36:nokia5110/LCD5110_Graph.c **** 		//cbi(P_DC, B_DC);
  37:nokia5110/LCD5110_Graph.c ****         DC_Write(0);
  93              		.loc 2 37 0
  94 0004 081E     		sub	r0, r1, #0
  95              	.LVL9:
  35:nokia5110/LCD5110_Graph.c **** 		//cbi(P_DC, B_DC);
  96              		.loc 2 35 0
  97 0006 00D0     		beq	.L7
  38:nokia5110/LCD5110_Graph.c **** 	else
  39:nokia5110/LCD5110_Graph.c **** 		//sbi(P_DC, B_DC);
  40:nokia5110/LCD5110_Graph.c ****         DC_Write(1);
  98              		.loc 2 40 0
  99 0008 0120     		mov	r0, #1
 100              	.L7:
 101 000a FFF7FEFF 		bl	DC_Write
 102              	.LVL10:
  41:nokia5110/LCD5110_Graph.c **** 
  42:nokia5110/LCD5110_Graph.c **** //    char c;
  43:nokia5110/LCD5110_Graph.c **** //	for (c=0; c<8; c++)
  44:nokia5110/LCD5110_Graph.c **** //	{
  45:nokia5110/LCD5110_Graph.c **** //		if (data & 0x80)
  46:nokia5110/LCD5110_Graph.c **** //			sbi(P_MOSI, B_MOSI);
  47:nokia5110/LCD5110_Graph.c **** //		else
  48:nokia5110/LCD5110_Graph.c **** //			cbi(P_MOSI, B_MOSI);
  49:nokia5110/LCD5110_Graph.c **** //		data = data<<1;
  50:nokia5110/LCD5110_Graph.c **** //		pulseClock;
  51:nokia5110/LCD5110_Graph.c **** //	}
  52:nokia5110/LCD5110_Graph.c ****     CE_Write(0);
 103              		.loc 2 52 0
 104 000e 0020     		mov	r0, #0
 105 0010 FFF7FEFF 		bl	CE_Write
 106              	.LVL11:
  53:nokia5110/LCD5110_Graph.c **** //    SPIM_WriteTxData(data);
ARM GAS  C:\Users\Petro\AppData\Local\Temp\cchQWd3Z.s 			page 4


  54:nokia5110/LCD5110_Graph.c ****     SwSPI_Master_SendByte(data);
 107              		.loc 2 54 0
 108 0014 201C     		mov	r0, r4
 109 0016 FFF7FEFF 		bl	SwSPI_Master_SendByte
 110              	.LVL12:
  55:nokia5110/LCD5110_Graph.c ****     CE_Write(1);
 111              		.loc 2 55 0
 112 001a 0120     		mov	r0, #1
 113 001c FFF7FEFF 		bl	CE_Write
 114              	.LVL13:
  56:nokia5110/LCD5110_Graph.c **** 
  57:nokia5110/LCD5110_Graph.c **** 	//sbi(P_CS, B_CS);
  58:nokia5110/LCD5110_Graph.c **** }
 115              		.loc 2 58 0
 116              		@ sp needed
 117 0020 10BD     		pop	{r4, pc}
 118              		.cfi_endproc
 119              	.LFE64:
 120              		.size	_LCD_Write, .-_LCD_Write
 121              		.section	.text.setContrast,"ax",%progbits
 122              		.align	1
 123              		.global	setContrast
 124              		.code	16
 125              		.thumb_func
 126              		.type	setContrast, %function
 127              	setContrast:
 128              	.LFB66:
  59:nokia5110/LCD5110_Graph.c **** 
  60:nokia5110/LCD5110_Graph.c **** void InitLCD(int contrast)
  61:nokia5110/LCD5110_Graph.c **** {
  62:nokia5110/LCD5110_Graph.c **** //    SPIM_Start();
  63:nokia5110/LCD5110_Graph.c ****     
  64:nokia5110/LCD5110_Graph.c **** 	if (contrast>0x7F)
  65:nokia5110/LCD5110_Graph.c **** 		contrast=0x7F;
  66:nokia5110/LCD5110_Graph.c **** 	if (contrast<0)
  67:nokia5110/LCD5110_Graph.c **** 		contrast=0;
  68:nokia5110/LCD5110_Graph.c **** 
  69:nokia5110/LCD5110_Graph.c **** 	resetLCD;
  70:nokia5110/LCD5110_Graph.c **** 
  71:nokia5110/LCD5110_Graph.c **** 	_LCD_Write(PCD8544_FUNCTIONSET | PCD8544_EXTENDEDINSTRUCTION, LCD_COMMAND);
  72:nokia5110/LCD5110_Graph.c **** 	_LCD_Write(PCD8544_SETVOP | contrast, LCD_COMMAND);
  73:nokia5110/LCD5110_Graph.c **** 	_LCD_Write(PCD8544_SETTEMP | LCD_TEMP, LCD_COMMAND);
  74:nokia5110/LCD5110_Graph.c **** 	_LCD_Write(PCD8544_SETBIAS | LCD_BIAS, LCD_COMMAND);
  75:nokia5110/LCD5110_Graph.c **** 	_LCD_Write(PCD8544_FUNCTIONSET, LCD_COMMAND);
  76:nokia5110/LCD5110_Graph.c **** 	_LCD_Write(PCD8544_SETYADDR, LCD_COMMAND);
  77:nokia5110/LCD5110_Graph.c **** 	_LCD_Write(PCD8544_SETXADDR, LCD_COMMAND);
  78:nokia5110/LCD5110_Graph.c **** 	_LCD_Write(PCD8544_DISPLAYCONTROL | PCD8544_DISPLAYNORMAL, LCD_COMMAND);
  79:nokia5110/LCD5110_Graph.c **** 
  80:nokia5110/LCD5110_Graph.c **** 	clrScr();
  81:nokia5110/LCD5110_Graph.c **** 	update();
  82:nokia5110/LCD5110_Graph.c **** 	cfont.font=0;
  83:nokia5110/LCD5110_Graph.c **** 	_sleep=false;
  84:nokia5110/LCD5110_Graph.c **** 	_contrast=contrast;
  85:nokia5110/LCD5110_Graph.c **** }
  86:nokia5110/LCD5110_Graph.c **** 
  87:nokia5110/LCD5110_Graph.c **** void setContrast(int contrast)
  88:nokia5110/LCD5110_Graph.c **** {
ARM GAS  C:\Users\Petro\AppData\Local\Temp\cchQWd3Z.s 			page 5


 129              		.loc 2 88 0
 130              		.cfi_startproc
 131              	.LVL14:
 132 0000 10B5     		push	{r4, lr}
 133              		.cfi_def_cfa_offset 8
 134              		.cfi_offset 4, -8
 135              		.cfi_offset 14, -4
 136              		.loc 2 88 0
 137 0002 041E     		sub	r4, r0, #0
  89:nokia5110/LCD5110_Graph.c **** 	if (contrast>0x7F)
 138              		.loc 2 89 0
 139 0004 7F2C     		cmp	r4, #127
 140 0006 03DC     		bgt	.L12
  90:nokia5110/LCD5110_Graph.c **** 		contrast=0x7F;
  91:nokia5110/LCD5110_Graph.c **** 	if (contrast<0)
  92:nokia5110/LCD5110_Graph.c **** 		contrast=0;
 141              		.loc 2 92 0
 142 0008 C343     		mvn	r3, r0
 143 000a DB17     		asr	r3, r3, #31
 144 000c 1C40     		and	r4, r3
 145 000e 00E0     		b	.L11
 146              	.L12:
  90:nokia5110/LCD5110_Graph.c **** 		contrast=0x7F;
 147              		.loc 2 90 0
 148 0010 7F24     		mov	r4, #127
 149              	.LVL15:
 150              	.L11:
  93:nokia5110/LCD5110_Graph.c **** 	_LCD_Write(PCD8544_FUNCTIONSET | PCD8544_EXTENDEDINSTRUCTION, LCD_COMMAND);
 151              		.loc 2 93 0
 152 0012 2120     		mov	r0, #33
 153 0014 0021     		mov	r1, #0
 154 0016 FFF7FEFF 		bl	_LCD_Write
 155              	.LVL16:
  94:nokia5110/LCD5110_Graph.c **** 	_LCD_Write(PCD8544_SETVOP | contrast, LCD_COMMAND);
 156              		.loc 2 94 0
 157 001a 8020     		mov	r0, #128
 158 001c 4042     		neg	r0, r0
 159 001e 2043     		orr	r0, r4
 160 0020 C0B2     		uxtb	r0, r0
 161 0022 0021     		mov	r1, #0
 162 0024 FFF7FEFF 		bl	_LCD_Write
 163              	.LVL17:
  95:nokia5110/LCD5110_Graph.c **** 	_LCD_Write(PCD8544_FUNCTIONSET, LCD_COMMAND);
 164              		.loc 2 95 0
 165 0028 2020     		mov	r0, #32
 166 002a 0021     		mov	r1, #0
 167 002c FFF7FEFF 		bl	_LCD_Write
 168              	.LVL18:
  96:nokia5110/LCD5110_Graph.c **** 	_contrast=contrast;
 169              		.loc 2 96 0
 170 0030 014B     		ldr	r3, .L14
  97:nokia5110/LCD5110_Graph.c **** }
 171              		.loc 2 97 0
 172              		@ sp needed
  96:nokia5110/LCD5110_Graph.c **** 	_contrast=contrast;
 173              		.loc 2 96 0
 174 0032 1C60     		str	r4, [r3]
ARM GAS  C:\Users\Petro\AppData\Local\Temp\cchQWd3Z.s 			page 6


 175              	.LVL19:
 176              		.loc 2 97 0
 177 0034 10BD     		pop	{r4, pc}
 178              	.L15:
 179 0036 C046     		.align	2
 180              	.L14:
 181 0038 00000000 		.word	_contrast
 182              		.cfi_endproc
 183              	.LFE66:
 184              		.size	setContrast, .-setContrast
 185              		.section	.text.enableSleep,"ax",%progbits
 186              		.align	1
 187              		.global	enableSleep
 188              		.code	16
 189              		.thumb_func
 190              		.type	enableSleep, %function
 191              	enableSleep:
 192              	.LFB67:
  98:nokia5110/LCD5110_Graph.c **** 
  99:nokia5110/LCD5110_Graph.c **** void enableSleep()
 100:nokia5110/LCD5110_Graph.c **** {
 193              		.loc 2 100 0
 194              		.cfi_startproc
 101:nokia5110/LCD5110_Graph.c **** 	_sleep = true;
 195              		.loc 2 101 0
 196 0000 0122     		mov	r2, #1
 197 0002 0C4B     		ldr	r3, .L18
 100:nokia5110/LCD5110_Graph.c **** 	_sleep = true;
 198              		.loc 2 100 0
 199 0004 10B5     		push	{r4, lr}
 200              		.cfi_def_cfa_offset 8
 201              		.cfi_offset 4, -8
 202              		.cfi_offset 14, -4
 102:nokia5110/LCD5110_Graph.c **** 	_LCD_Write(PCD8544_SETYADDR, LCD_COMMAND);
 203              		.loc 2 102 0
 204 0006 4020     		mov	r0, #64
 205 0008 0021     		mov	r1, #0
 101:nokia5110/LCD5110_Graph.c **** 	_sleep = true;
 206              		.loc 2 101 0
 207 000a 1A70     		strb	r2, [r3]
 103:nokia5110/LCD5110_Graph.c **** 	_LCD_Write(PCD8544_SETXADDR, LCD_COMMAND);
 208              		.loc 2 103 0
 209 000c FC24     		mov	r4, #252
 102:nokia5110/LCD5110_Graph.c **** 	_LCD_Write(PCD8544_SETYADDR, LCD_COMMAND);
 210              		.loc 2 102 0
 211 000e FFF7FEFF 		bl	_LCD_Write
 212              	.LVL20:
 213              		.loc 2 103 0
 214 0012 8020     		mov	r0, #128
 215 0014 0021     		mov	r1, #0
 216 0016 FFF7FEFF 		bl	_LCD_Write
 217              	.LVL21:
 218 001a 6400     		lsl	r4, r4, #1
 219              	.LVL22:
 220              	.L17:
 104:nokia5110/LCD5110_Graph.c ****     int b;
 105:nokia5110/LCD5110_Graph.c **** 	for (b=0; b<504; b++)
ARM GAS  C:\Users\Petro\AppData\Local\Temp\cchQWd3Z.s 			page 7


 106:nokia5110/LCD5110_Graph.c **** 		_LCD_Write(0, LCD_DATA);
 221              		.loc 2 106 0 discriminator 3
 222 001c 0020     		mov	r0, #0
 223 001e 0121     		mov	r1, #1
 224 0020 013C     		sub	r4, r4, #1
 225              	.LVL23:
 226 0022 FFF7FEFF 		bl	_LCD_Write
 227              	.LVL24:
 105:nokia5110/LCD5110_Graph.c **** 		_LCD_Write(0, LCD_DATA);
 228              		.loc 2 105 0 discriminator 3
 229 0026 002C     		cmp	r4, #0
 230 0028 F8D1     		bne	.L17
 107:nokia5110/LCD5110_Graph.c **** 	_LCD_Write(PCD8544_FUNCTIONSET | PCD8544_POWERDOWN, LCD_COMMAND);
 231              		.loc 2 107 0
 232 002a 2420     		mov	r0, #36
 233 002c 211C     		mov	r1, r4
 234 002e FFF7FEFF 		bl	_LCD_Write
 235              	.LVL25:
 108:nokia5110/LCD5110_Graph.c **** }
 236              		.loc 2 108 0
 237              		@ sp needed
 238 0032 10BD     		pop	{r4, pc}
 239              	.L19:
 240              		.align	2
 241              	.L18:
 242 0034 00000000 		.word	_sleep
 243              		.cfi_endproc
 244              	.LFE67:
 245              		.size	enableSleep, .-enableSleep
 246              		.section	.text.update,"ax",%progbits
 247              		.align	1
 248              		.global	update
 249              		.code	16
 250              		.thumb_func
 251              		.type	update, %function
 252              	update:
 253              	.LFB69:
 109:nokia5110/LCD5110_Graph.c **** 
 110:nokia5110/LCD5110_Graph.c **** void disableSleep()
 111:nokia5110/LCD5110_Graph.c **** {
 112:nokia5110/LCD5110_Graph.c **** 	_sleep = false;
 113:nokia5110/LCD5110_Graph.c **** 	_LCD_Write(PCD8544_FUNCTIONSET | PCD8544_EXTENDEDINSTRUCTION, LCD_COMMAND);
 114:nokia5110/LCD5110_Graph.c **** 	_LCD_Write(PCD8544_SETVOP | _contrast, LCD_COMMAND);
 115:nokia5110/LCD5110_Graph.c **** 	_LCD_Write(PCD8544_SETTEMP | LCD_TEMP, LCD_COMMAND);
 116:nokia5110/LCD5110_Graph.c **** 	_LCD_Write(PCD8544_SETBIAS | LCD_BIAS, LCD_COMMAND);
 117:nokia5110/LCD5110_Graph.c **** 	_LCD_Write(PCD8544_FUNCTIONSET, LCD_COMMAND);
 118:nokia5110/LCD5110_Graph.c **** 	_LCD_Write(PCD8544_DISPLAYCONTROL | PCD8544_DISPLAYNORMAL, LCD_COMMAND);
 119:nokia5110/LCD5110_Graph.c **** 	update();
 120:nokia5110/LCD5110_Graph.c **** }
 121:nokia5110/LCD5110_Graph.c **** 
 122:nokia5110/LCD5110_Graph.c **** void update()
 123:nokia5110/LCD5110_Graph.c **** {
 254              		.loc 2 123 0
 255              		.cfi_startproc
 124:nokia5110/LCD5110_Graph.c **** 	if (_sleep==false)
 256              		.loc 2 124 0
 257 0000 0B4B     		ldr	r3, .L24
ARM GAS  C:\Users\Petro\AppData\Local\Temp\cchQWd3Z.s 			page 8


 123:nokia5110/LCD5110_Graph.c **** 	if (_sleep==false)
 258              		.loc 2 123 0
 259 0002 10B5     		push	{r4, lr}
 260              		.cfi_def_cfa_offset 8
 261              		.cfi_offset 4, -8
 262              		.cfi_offset 14, -4
 263              		.loc 2 124 0
 264 0004 1C78     		ldrb	r4, [r3]
 265 0006 002C     		cmp	r4, #0
 266 0008 11D1     		bne	.L20
 267              	.LBB11:
 268              	.LBB12:
 125:nokia5110/LCD5110_Graph.c **** 	{
 126:nokia5110/LCD5110_Graph.c **** 		_LCD_Write(PCD8544_SETYADDR, LCD_COMMAND);
 269              		.loc 2 126 0
 270 000a 4020     		mov	r0, #64
 271 000c 211C     		mov	r1, r4
 272 000e FFF7FEFF 		bl	_LCD_Write
 273              	.LVL26:
 127:nokia5110/LCD5110_Graph.c **** 		_LCD_Write(PCD8544_SETXADDR, LCD_COMMAND);
 274              		.loc 2 127 0
 275 0012 8020     		mov	r0, #128
 276 0014 211C     		mov	r1, r4
 277 0016 FFF7FEFF 		bl	_LCD_Write
 278              	.LVL27:
 279              	.L22:
 128:nokia5110/LCD5110_Graph.c ****         int b;
 129:nokia5110/LCD5110_Graph.c **** 		for (b=0; b<504; b++)
 130:nokia5110/LCD5110_Graph.c **** 			_LCD_Write(scrbuf[b], LCD_DATA);
 280              		.loc 2 130 0
 281 001a 064B     		ldr	r3, .L24+4
 282 001c 0121     		mov	r1, #1
 283 001e 185D     		ldrb	r0, [r3, r4]
 284 0020 FFF7FEFF 		bl	_LCD_Write
 285              	.LVL28:
 129:nokia5110/LCD5110_Graph.c **** 			_LCD_Write(scrbuf[b], LCD_DATA);
 286              		.loc 2 129 0
 287 0024 FC23     		mov	r3, #252
 288 0026 0134     		add	r4, r4, #1
 289              	.LVL29:
 290 0028 5B00     		lsl	r3, r3, #1
 291 002a 9C42     		cmp	r4, r3
 292 002c F5D1     		bne	.L22
 293              	.LVL30:
 294              	.L20:
 295              	.LBE12:
 296              	.LBE11:
 131:nokia5110/LCD5110_Graph.c **** 	}
 132:nokia5110/LCD5110_Graph.c **** }
 297              		.loc 2 132 0
 298              		@ sp needed
 299 002e 10BD     		pop	{r4, pc}
 300              	.L25:
 301              		.align	2
 302              	.L24:
 303 0030 00000000 		.word	_sleep
 304 0034 00000000 		.word	scrbuf
ARM GAS  C:\Users\Petro\AppData\Local\Temp\cchQWd3Z.s 			page 9


 305              		.cfi_endproc
 306              	.LFE69:
 307              		.size	update, .-update
 308              		.section	.text.disableSleep,"ax",%progbits
 309              		.align	1
 310              		.global	disableSleep
 311              		.code	16
 312              		.thumb_func
 313              		.type	disableSleep, %function
 314              	disableSleep:
 315              	.LFB68:
 111:nokia5110/LCD5110_Graph.c **** 	_sleep = false;
 316              		.loc 2 111 0
 317              		.cfi_startproc
 318 0000 10B5     		push	{r4, lr}
 319              		.cfi_def_cfa_offset 8
 320              		.cfi_offset 4, -8
 321              		.cfi_offset 14, -4
 112:nokia5110/LCD5110_Graph.c **** 	_LCD_Write(PCD8544_FUNCTIONSET | PCD8544_EXTENDEDINSTRUCTION, LCD_COMMAND);
 322              		.loc 2 112 0
 323 0002 0024     		mov	r4, #0
 324 0004 104B     		ldr	r3, .L27
 113:nokia5110/LCD5110_Graph.c **** 	_LCD_Write(PCD8544_SETVOP | _contrast, LCD_COMMAND);
 325              		.loc 2 113 0
 326 0006 211C     		mov	r1, r4
 327 0008 2120     		mov	r0, #33
 112:nokia5110/LCD5110_Graph.c **** 	_LCD_Write(PCD8544_FUNCTIONSET | PCD8544_EXTENDEDINSTRUCTION, LCD_COMMAND);
 328              		.loc 2 112 0
 329 000a 1C70     		strb	r4, [r3]
 113:nokia5110/LCD5110_Graph.c **** 	_LCD_Write(PCD8544_SETVOP | _contrast, LCD_COMMAND);
 330              		.loc 2 113 0
 331 000c FFF7FEFF 		bl	_LCD_Write
 332              	.LVL31:
 114:nokia5110/LCD5110_Graph.c **** 	_LCD_Write(PCD8544_SETTEMP | LCD_TEMP, LCD_COMMAND);
 333              		.loc 2 114 0
 334 0010 8020     		mov	r0, #128
 335 0012 0E4B     		ldr	r3, .L27+4
 336 0014 4042     		neg	r0, r0
 337 0016 1B68     		ldr	r3, [r3]
 338 0018 211C     		mov	r1, r4
 339 001a 1843     		orr	r0, r3
 340 001c C0B2     		uxtb	r0, r0
 341 001e FFF7FEFF 		bl	_LCD_Write
 342              	.LVL32:
 115:nokia5110/LCD5110_Graph.c **** 	_LCD_Write(PCD8544_SETBIAS | LCD_BIAS, LCD_COMMAND);
 343              		.loc 2 115 0
 344 0022 211C     		mov	r1, r4
 345 0024 0620     		mov	r0, #6
 346 0026 FFF7FEFF 		bl	_LCD_Write
 347              	.LVL33:
 116:nokia5110/LCD5110_Graph.c **** 	_LCD_Write(PCD8544_FUNCTIONSET, LCD_COMMAND);
 348              		.loc 2 116 0
 349 002a 211C     		mov	r1, r4
 350 002c 1320     		mov	r0, #19
 351 002e FFF7FEFF 		bl	_LCD_Write
 352              	.LVL34:
 117:nokia5110/LCD5110_Graph.c **** 	_LCD_Write(PCD8544_DISPLAYCONTROL | PCD8544_DISPLAYNORMAL, LCD_COMMAND);
ARM GAS  C:\Users\Petro\AppData\Local\Temp\cchQWd3Z.s 			page 10


 353              		.loc 2 117 0
 354 0032 211C     		mov	r1, r4
 355 0034 2020     		mov	r0, #32
 356 0036 FFF7FEFF 		bl	_LCD_Write
 357              	.LVL35:
 118:nokia5110/LCD5110_Graph.c **** 	update();
 358              		.loc 2 118 0
 359 003a 0C20     		mov	r0, #12
 360 003c 211C     		mov	r1, r4
 361 003e FFF7FEFF 		bl	_LCD_Write
 362              	.LVL36:
 120:nokia5110/LCD5110_Graph.c **** 
 363              		.loc 2 120 0
 364              		@ sp needed
 119:nokia5110/LCD5110_Graph.c **** }
 365              		.loc 2 119 0
 366 0042 FFF7FEFF 		bl	update
 367              	.LVL37:
 120:nokia5110/LCD5110_Graph.c **** 
 368              		.loc 2 120 0
 369 0046 10BD     		pop	{r4, pc}
 370              	.L28:
 371              		.align	2
 372              	.L27:
 373 0048 00000000 		.word	_sleep
 374 004c 00000000 		.word	_contrast
 375              		.cfi_endproc
 376              	.LFE68:
 377              		.size	disableSleep, .-disableSleep
 378              		.section	.text.clrScr,"ax",%progbits
 379              		.align	1
 380              		.global	clrScr
 381              		.code	16
 382              		.thumb_func
 383              		.type	clrScr, %function
 384              	clrScr:
 385              	.LFB70:
 133:nokia5110/LCD5110_Graph.c **** 
 134:nokia5110/LCD5110_Graph.c **** void clrScr()
 135:nokia5110/LCD5110_Graph.c **** {
 386              		.loc 2 135 0
 387              		.cfi_startproc
 388              	.LVL38:
 136:nokia5110/LCD5110_Graph.c ****     int c;
 137:nokia5110/LCD5110_Graph.c **** 	for (c=0; c<504; c++)
 389              		.loc 2 137 0
 390 0000 0023     		mov	r3, #0
 391              	.LVL39:
 392              	.L30:
 138:nokia5110/LCD5110_Graph.c **** 		scrbuf[c]=0;
 393              		.loc 2 138 0 discriminator 3
 394 0002 0021     		mov	r1, #0
 395 0004 044A     		ldr	r2, .L31
 396 0006 9A18     		add	r2, r3, r2
 397 0008 1170     		strb	r1, [r2]
 137:nokia5110/LCD5110_Graph.c **** 		scrbuf[c]=0;
 398              		.loc 2 137 0 discriminator 3
ARM GAS  C:\Users\Petro\AppData\Local\Temp\cchQWd3Z.s 			page 11


 399 000a FC22     		mov	r2, #252
 400 000c 0133     		add	r3, r3, #1
 401              	.LVL40:
 402 000e 5200     		lsl	r2, r2, #1
 403 0010 9342     		cmp	r3, r2
 404 0012 F6D1     		bne	.L30
 139:nokia5110/LCD5110_Graph.c **** }
 405              		.loc 2 139 0
 406              		@ sp needed
 407 0014 7047     		bx	lr
 408              	.L32:
 409 0016 C046     		.align	2
 410              	.L31:
 411 0018 00000000 		.word	scrbuf
 412              		.cfi_endproc
 413              	.LFE70:
 414              		.size	clrScr, .-clrScr
 415              		.section	.text.InitLCD,"ax",%progbits
 416              		.align	1
 417              		.global	InitLCD
 418              		.code	16
 419              		.thumb_func
 420              		.type	InitLCD, %function
 421              	InitLCD:
 422              	.LFB65:
  61:nokia5110/LCD5110_Graph.c **** //    SPIM_Start();
 423              		.loc 2 61 0
 424              		.cfi_startproc
 425              	.LVL41:
 426 0000 10B5     		push	{r4, lr}
 427              		.cfi_def_cfa_offset 8
 428              		.cfi_offset 4, -8
 429              		.cfi_offset 14, -4
  61:nokia5110/LCD5110_Graph.c **** //    SPIM_Start();
 430              		.loc 2 61 0
 431 0002 041E     		sub	r4, r0, #0
  64:nokia5110/LCD5110_Graph.c **** 		contrast=0x7F;
 432              		.loc 2 64 0
 433 0004 7F2C     		cmp	r4, #127
 434 0006 03DC     		bgt	.L36
  67:nokia5110/LCD5110_Graph.c **** 
 435              		.loc 2 67 0
 436 0008 C343     		mvn	r3, r0
 437 000a DB17     		asr	r3, r3, #31
 438 000c 1C40     		and	r4, r3
 439 000e 00E0     		b	.L35
 440              	.L36:
  65:nokia5110/LCD5110_Graph.c **** 	if (contrast<0)
 441              		.loc 2 65 0
 442 0010 7F24     		mov	r4, #127
 443              	.LVL42:
 444              	.L35:
  69:nokia5110/LCD5110_Graph.c **** 
 445              		.loc 2 69 0
 446 0012 0020     		mov	r0, #0
 447 0014 FFF7FEFF 		bl	RST_Write
 448              	.LVL43:
ARM GAS  C:\Users\Petro\AppData\Local\Temp\cchQWd3Z.s 			page 12


 449 0018 0120     		mov	r0, #1
 450 001a FFF7FEFF 		bl	RST_Write
 451              	.LVL44:
  71:nokia5110/LCD5110_Graph.c **** 	_LCD_Write(PCD8544_SETVOP | contrast, LCD_COMMAND);
 452              		.loc 2 71 0
 453 001e 2120     		mov	r0, #33
 454 0020 0021     		mov	r1, #0
 455 0022 FFF7FEFF 		bl	_LCD_Write
 456              	.LVL45:
  72:nokia5110/LCD5110_Graph.c **** 	_LCD_Write(PCD8544_SETTEMP | LCD_TEMP, LCD_COMMAND);
 457              		.loc 2 72 0
 458 0026 8020     		mov	r0, #128
 459 0028 4042     		neg	r0, r0
 460 002a 2043     		orr	r0, r4
 461 002c C0B2     		uxtb	r0, r0
 462 002e 0021     		mov	r1, #0
 463 0030 FFF7FEFF 		bl	_LCD_Write
 464              	.LVL46:
  73:nokia5110/LCD5110_Graph.c **** 	_LCD_Write(PCD8544_SETBIAS | LCD_BIAS, LCD_COMMAND);
 465              		.loc 2 73 0
 466 0034 0620     		mov	r0, #6
 467 0036 0021     		mov	r1, #0
 468 0038 FFF7FEFF 		bl	_LCD_Write
 469              	.LVL47:
  74:nokia5110/LCD5110_Graph.c **** 	_LCD_Write(PCD8544_FUNCTIONSET, LCD_COMMAND);
 470              		.loc 2 74 0
 471 003c 1320     		mov	r0, #19
 472 003e 0021     		mov	r1, #0
 473 0040 FFF7FEFF 		bl	_LCD_Write
 474              	.LVL48:
  75:nokia5110/LCD5110_Graph.c **** 	_LCD_Write(PCD8544_SETYADDR, LCD_COMMAND);
 475              		.loc 2 75 0
 476 0044 2020     		mov	r0, #32
 477 0046 0021     		mov	r1, #0
 478 0048 FFF7FEFF 		bl	_LCD_Write
 479              	.LVL49:
  76:nokia5110/LCD5110_Graph.c **** 	_LCD_Write(PCD8544_SETXADDR, LCD_COMMAND);
 480              		.loc 2 76 0
 481 004c 4020     		mov	r0, #64
 482 004e 0021     		mov	r1, #0
 483 0050 FFF7FEFF 		bl	_LCD_Write
 484              	.LVL50:
  77:nokia5110/LCD5110_Graph.c **** 	_LCD_Write(PCD8544_DISPLAYCONTROL | PCD8544_DISPLAYNORMAL, LCD_COMMAND);
 485              		.loc 2 77 0
 486 0054 8020     		mov	r0, #128
 487 0056 0021     		mov	r1, #0
 488 0058 FFF7FEFF 		bl	_LCD_Write
 489              	.LVL51:
  78:nokia5110/LCD5110_Graph.c **** 
 490              		.loc 2 78 0
 491 005c 0C20     		mov	r0, #12
 492 005e 0021     		mov	r1, #0
 493 0060 FFF7FEFF 		bl	_LCD_Write
 494              	.LVL52:
  80:nokia5110/LCD5110_Graph.c **** 	update();
 495              		.loc 2 80 0
 496 0064 FFF7FEFF 		bl	clrScr
ARM GAS  C:\Users\Petro\AppData\Local\Temp\cchQWd3Z.s 			page 13


 497              	.LVL53:
  81:nokia5110/LCD5110_Graph.c **** 	cfont.font=0;
 498              		.loc 2 81 0
 499 0068 FFF7FEFF 		bl	update
 500              	.LVL54:
  82:nokia5110/LCD5110_Graph.c **** 	_sleep=false;
 501              		.loc 2 82 0
 502 006c 0023     		mov	r3, #0
 503 006e 034A     		ldr	r2, .L38
  85:nokia5110/LCD5110_Graph.c **** 
 504              		.loc 2 85 0
 505              		@ sp needed
  82:nokia5110/LCD5110_Graph.c **** 	_sleep=false;
 506              		.loc 2 82 0
 507 0070 1360     		str	r3, [r2]
  83:nokia5110/LCD5110_Graph.c **** 	_contrast=contrast;
 508              		.loc 2 83 0
 509 0072 034A     		ldr	r2, .L38+4
 510 0074 1370     		strb	r3, [r2]
  84:nokia5110/LCD5110_Graph.c **** }
 511              		.loc 2 84 0
 512 0076 034B     		ldr	r3, .L38+8
 513 0078 1C60     		str	r4, [r3]
 514              	.LVL55:
  85:nokia5110/LCD5110_Graph.c **** 
 515              		.loc 2 85 0
 516 007a 10BD     		pop	{r4, pc}
 517              	.L39:
 518              		.align	2
 519              	.L38:
 520 007c 00000000 		.word	cfont
 521 0080 00000000 		.word	_sleep
 522 0084 00000000 		.word	_contrast
 523              		.cfi_endproc
 524              	.LFE65:
 525              		.size	InitLCD, .-InitLCD
 526              		.section	.text.fillScr,"ax",%progbits
 527              		.align	1
 528              		.global	fillScr
 529              		.code	16
 530              		.thumb_func
 531              		.type	fillScr, %function
 532              	fillScr:
 533              	.LFB71:
 140:nokia5110/LCD5110_Graph.c **** 
 141:nokia5110/LCD5110_Graph.c **** void fillScr()
 142:nokia5110/LCD5110_Graph.c **** {
 534              		.loc 2 142 0
 535              		.cfi_startproc
 536              	.LVL56:
 143:nokia5110/LCD5110_Graph.c ****     int c;
 144:nokia5110/LCD5110_Graph.c **** 	for (c=0; c<504; c++)
 537              		.loc 2 144 0
 538 0000 0023     		mov	r3, #0
 539              	.LVL57:
 540              	.L41:
 145:nokia5110/LCD5110_Graph.c **** 		scrbuf[c]=255;
ARM GAS  C:\Users\Petro\AppData\Local\Temp\cchQWd3Z.s 			page 14


 541              		.loc 2 145 0 discriminator 3
 542 0002 FF21     		mov	r1, #255
 543 0004 034A     		ldr	r2, .L42
 544 0006 D154     		strb	r1, [r2, r3]
 144:nokia5110/LCD5110_Graph.c **** 		scrbuf[c]=255;
 545              		.loc 2 144 0 discriminator 3
 546 0008 FC22     		mov	r2, #252
 547 000a 0133     		add	r3, r3, #1
 548              	.LVL58:
 549 000c 5200     		lsl	r2, r2, #1
 550 000e 9342     		cmp	r3, r2
 551 0010 F7D1     		bne	.L41
 146:nokia5110/LCD5110_Graph.c **** }
 552              		.loc 2 146 0
 553              		@ sp needed
 554 0012 7047     		bx	lr
 555              	.L43:
 556              		.align	2
 557              	.L42:
 558 0014 00000000 		.word	scrbuf
 559              		.cfi_endproc
 560              	.LFE71:
 561              		.size	fillScr, .-fillScr
 562              		.section	.text.invert,"ax",%progbits
 563              		.align	1
 564              		.global	invert
 565              		.code	16
 566              		.thumb_func
 567              		.type	invert, %function
 568              	invert:
 569              	.LFB72:
 147:nokia5110/LCD5110_Graph.c **** 
 148:nokia5110/LCD5110_Graph.c **** void invert(bool mode)
 149:nokia5110/LCD5110_Graph.c **** {
 570              		.loc 2 149 0
 571              		.cfi_startproc
 572              	.LVL59:
 573 0000 011C     		mov	r1, r0
 574 0002 08B5     		push	{r3, lr}
 575              		.cfi_def_cfa_offset 8
 576              		.cfi_offset 3, -8
 577              		.cfi_offset 14, -4
 150:nokia5110/LCD5110_Graph.c **** 	if (mode==true)
 151:nokia5110/LCD5110_Graph.c **** 		_LCD_Write(PCD8544_DISPLAYCONTROL | PCD8544_DISPLAYINVERTED, LCD_COMMAND);
 152:nokia5110/LCD5110_Graph.c **** 	else
 153:nokia5110/LCD5110_Graph.c **** 		_LCD_Write(PCD8544_DISPLAYCONTROL | PCD8544_DISPLAYNORMAL, LCD_COMMAND);
 578              		.loc 2 153 0
 579 0004 0C20     		mov	r0, #12
 580              	.LVL60:
 150:nokia5110/LCD5110_Graph.c **** 	if (mode==true)
 581              		.loc 2 150 0
 582 0006 0029     		cmp	r1, #0
 583 0008 01D0     		beq	.L47
 151:nokia5110/LCD5110_Graph.c **** 	else
 584              		.loc 2 151 0
 585 000a 0D20     		mov	r0, #13
 586 000c 0021     		mov	r1, #0
ARM GAS  C:\Users\Petro\AppData\Local\Temp\cchQWd3Z.s 			page 15


 587              	.L47:
 588              		.loc 2 153 0
 589 000e FFF7FEFF 		bl	_LCD_Write
 590              	.LVL61:
 154:nokia5110/LCD5110_Graph.c **** }
 591              		.loc 2 154 0
 592              		@ sp needed
 593 0012 08BD     		pop	{r3, pc}
 594              		.cfi_endproc
 595              	.LFE72:
 596              		.size	invert, .-invert
 597              		.section	.text.setPixel,"ax",%progbits
 598              		.align	1
 599              		.global	setPixel
 600              		.code	16
 601              		.thumb_func
 602              		.type	setPixel, %function
 603              	setPixel:
 604              	.LFB73:
 155:nokia5110/LCD5110_Graph.c **** 
 156:nokia5110/LCD5110_Graph.c **** void setPixel(uint16_t x, uint16_t y)
 157:nokia5110/LCD5110_Graph.c **** {
 605              		.loc 2 157 0
 606              		.cfi_startproc
 607              	.LVL62:
 158:nokia5110/LCD5110_Graph.c **** 	int by, bi;
 159:nokia5110/LCD5110_Graph.c **** 
 160:nokia5110/LCD5110_Graph.c **** 	if ((x>=0) && (x<84) && (y>=0) && (y<48))
 608              		.loc 2 160 0
 609 0000 5328     		cmp	r0, #83
 610 0002 0ED8     		bhi	.L48
 611              		.loc 2 160 0 is_stmt 0 discriminator 1
 612 0004 2F29     		cmp	r1, #47
 613 0006 0CD8     		bhi	.L48
 614              	.LVL63:
 615              	.LBB15:
 616              	.LBB16:
 161:nokia5110/LCD5110_Graph.c **** 	{
 162:nokia5110/LCD5110_Graph.c **** 		by=((y/8)*84)+x;
 617              		.loc 2 162 0 is_stmt 1
 618 0008 5423     		mov	r3, #84
 619 000a CA08     		lsr	r2, r1, #3
 620 000c 5343     		mul	r3, r2
 621 000e 1818     		add	r0, r3, r0
 622              	.LVL64:
 163:nokia5110/LCD5110_Graph.c **** 		bi=y % 8;
 623              		.loc 2 163 0
 624 0010 0723     		mov	r3, #7
 625 0012 1940     		and	r1, r3
 626              	.LVL65:
 164:nokia5110/LCD5110_Graph.c **** 
 165:nokia5110/LCD5110_Graph.c **** 		scrbuf[by]=scrbuf[by] | (1<<bi);
 627              		.loc 2 165 0
 628 0014 063B     		sub	r3, r3, #6
 629 0016 8B40     		lsl	r3, r3, r1
 630 0018 191C     		mov	r1, r3
 631 001a 024A     		ldr	r2, .L50
ARM GAS  C:\Users\Petro\AppData\Local\Temp\cchQWd3Z.s 			page 16


 632 001c 135C     		ldrb	r3, [r2, r0]
 633 001e 1943     		orr	r1, r3
 634 0020 1154     		strb	r1, [r2, r0]
 635              	.LVL66:
 636              	.L48:
 637              	.LBE16:
 638              	.LBE15:
 166:nokia5110/LCD5110_Graph.c **** 	}
 167:nokia5110/LCD5110_Graph.c **** }
 639              		.loc 2 167 0
 640              		@ sp needed
 641 0022 7047     		bx	lr
 642              	.L51:
 643              		.align	2
 644              	.L50:
 645 0024 00000000 		.word	scrbuf
 646              		.cfi_endproc
 647              	.LFE73:
 648              		.size	setPixel, .-setPixel
 649              		.section	.text.clrPixel,"ax",%progbits
 650              		.align	1
 651              		.global	clrPixel
 652              		.code	16
 653              		.thumb_func
 654              		.type	clrPixel, %function
 655              	clrPixel:
 656              	.LFB74:
 168:nokia5110/LCD5110_Graph.c **** 
 169:nokia5110/LCD5110_Graph.c **** void clrPixel(uint16_t x, uint16_t y)
 170:nokia5110/LCD5110_Graph.c **** {
 657              		.loc 2 170 0
 658              		.cfi_startproc
 659              	.LVL67:
 171:nokia5110/LCD5110_Graph.c **** 	int by, bi;
 172:nokia5110/LCD5110_Graph.c **** 
 173:nokia5110/LCD5110_Graph.c **** 	if ((x>=0) && (x<84) && (y>=0) && (y<48))
 660              		.loc 2 173 0
 661 0000 5328     		cmp	r0, #83
 662 0002 0ED8     		bhi	.L52
 663              		.loc 2 173 0 is_stmt 0 discriminator 1
 664 0004 2F29     		cmp	r1, #47
 665 0006 0CD8     		bhi	.L52
 666              	.LVL68:
 667              	.LBB19:
 668              	.LBB20:
 174:nokia5110/LCD5110_Graph.c **** 	{
 175:nokia5110/LCD5110_Graph.c **** 		by=((y/8)*84)+x;
 669              		.loc 2 175 0 is_stmt 1
 670 0008 5423     		mov	r3, #84
 671 000a CA08     		lsr	r2, r1, #3
 672 000c 5343     		mul	r3, r2
 673 000e 1818     		add	r0, r3, r0
 674              	.LVL69:
 176:nokia5110/LCD5110_Graph.c **** 		bi=y % 8;
 675              		.loc 2 176 0
 676 0010 0723     		mov	r3, #7
 677 0012 1940     		and	r1, r3
ARM GAS  C:\Users\Petro\AppData\Local\Temp\cchQWd3Z.s 			page 17


 678              	.LVL70:
 177:nokia5110/LCD5110_Graph.c **** 
 178:nokia5110/LCD5110_Graph.c **** 		scrbuf[by]=scrbuf[by] & ~(1<<bi);
 679              		.loc 2 178 0
 680 0014 063B     		sub	r3, r3, #6
 681 0016 8B40     		lsl	r3, r3, r1
 682 0018 191C     		mov	r1, r3
 683 001a 024A     		ldr	r2, .L54
 684 001c 135C     		ldrb	r3, [r2, r0]
 685 001e 8B43     		bic	r3, r1
 686 0020 1354     		strb	r3, [r2, r0]
 687              	.LVL71:
 688              	.L52:
 689              	.LBE20:
 690              	.LBE19:
 179:nokia5110/LCD5110_Graph.c **** 	}
 180:nokia5110/LCD5110_Graph.c **** }
 691              		.loc 2 180 0
 692              		@ sp needed
 693 0022 7047     		bx	lr
 694              	.L55:
 695              		.align	2
 696              	.L54:
 697 0024 00000000 		.word	scrbuf
 698              		.cfi_endproc
 699              	.LFE74:
 700              		.size	clrPixel, .-clrPixel
 701              		.section	.text.invPixel,"ax",%progbits
 702              		.align	1
 703              		.global	invPixel
 704              		.code	16
 705              		.thumb_func
 706              		.type	invPixel, %function
 707              	invPixel:
 708              	.LFB75:
 181:nokia5110/LCD5110_Graph.c **** 
 182:nokia5110/LCD5110_Graph.c **** void invPixel(uint16_t x, uint16_t y)
 183:nokia5110/LCD5110_Graph.c **** {
 709              		.loc 2 183 0
 710              		.cfi_startproc
 711              	.LVL72:
 712 0000 70B5     		push	{r4, r5, r6, lr}
 713              		.cfi_def_cfa_offset 16
 714              		.cfi_offset 4, -16
 715              		.cfi_offset 5, -12
 716              		.cfi_offset 6, -8
 717              		.cfi_offset 14, -4
 184:nokia5110/LCD5110_Graph.c **** 	int by, bi;
 185:nokia5110/LCD5110_Graph.c **** 
 186:nokia5110/LCD5110_Graph.c **** 	if ((x>=0) && (x<84) && (y>=0) && (y<48))
 718              		.loc 2 186 0
 719 0002 5328     		cmp	r0, #83
 720 0004 16D8     		bhi	.L56
 721              		.loc 2 186 0 is_stmt 0 discriminator 1
 722 0006 2F29     		cmp	r1, #47
 723 0008 14D8     		bhi	.L56
 187:nokia5110/LCD5110_Graph.c **** 	{
ARM GAS  C:\Users\Petro\AppData\Local\Temp\cchQWd3Z.s 			page 18


 188:nokia5110/LCD5110_Graph.c **** 		by=((y/8)*84)+x;
 724              		.loc 2 188 0 is_stmt 1
 725 000a 5423     		mov	r3, #84
 726 000c CA08     		lsr	r2, r1, #3
 727 000e 5343     		mul	r3, r2
 728 0010 1818     		add	r0, r3, r0
 729              	.LVL73:
 189:nokia5110/LCD5110_Graph.c **** 		bi=y % 8;
 730              		.loc 2 189 0
 731 0012 0723     		mov	r3, #7
 190:nokia5110/LCD5110_Graph.c **** 
 191:nokia5110/LCD5110_Graph.c **** 		if ((scrbuf[by] & (1<<bi))==0)
 732              		.loc 2 191 0
 733 0014 0124     		mov	r4, #1
 734 0016 084A     		ldr	r2, .L60
 189:nokia5110/LCD5110_Graph.c **** 		bi=y % 8;
 735              		.loc 2 189 0
 736 0018 1940     		and	r1, r3
 737              	.LVL74:
 738              		.loc 2 191 0
 739 001a 135C     		ldrb	r3, [r2, r0]
 740 001c 261C     		mov	r6, r4
 741 001e 1D1C     		mov	r5, r3
 742 0020 8E40     		lsl	r6, r6, r1
 743 0022 0D41     		asr	r5, r5, r1
 744 0024 311C     		mov	r1, r6
 745              	.LVL75:
 746 0026 2542     		tst	r5, r4
 747 0028 01D1     		bne	.L58
 192:nokia5110/LCD5110_Graph.c **** 			scrbuf[by]=scrbuf[by] | (1<<bi);
 748              		.loc 2 192 0
 749 002a 1943     		orr	r1, r3
 750 002c 01E0     		b	.L59
 751              	.L58:
 193:nokia5110/LCD5110_Graph.c **** 		else
 194:nokia5110/LCD5110_Graph.c **** 			scrbuf[by]=scrbuf[by] & ~(1<<bi);
 752              		.loc 2 194 0
 753 002e B343     		bic	r3, r6
 754 0030 191C     		mov	r1, r3
 755              	.L59:
 756 0032 1154     		strb	r1, [r2, r0]
 757              	.LVL76:
 758              	.L56:
 195:nokia5110/LCD5110_Graph.c **** 	}
 196:nokia5110/LCD5110_Graph.c **** }
 759              		.loc 2 196 0
 760              		@ sp needed
 761 0034 70BD     		pop	{r4, r5, r6, pc}
 762              	.L61:
 763 0036 C046     		.align	2
 764              	.L60:
 765 0038 00000000 		.word	scrbuf
 766              		.cfi_endproc
 767              	.LFE75:
 768              		.size	invPixel, .-invPixel
 769              		.section	.text.invertText,"ax",%progbits
 770              		.align	1
ARM GAS  C:\Users\Petro\AppData\Local\Temp\cchQWd3Z.s 			page 19


 771              		.global	invertText
 772              		.code	16
 773              		.thumb_func
 774              		.type	invertText, %function
 775              	invertText:
 776              	.LFB76:
 197:nokia5110/LCD5110_Graph.c **** 
 198:nokia5110/LCD5110_Graph.c **** void invertText(bool mode)
 199:nokia5110/LCD5110_Graph.c **** {
 777              		.loc 2 199 0
 778              		.cfi_startproc
 779              	.LVL77:
 780 0000 034B     		ldr	r3, .L65
 200:nokia5110/LCD5110_Graph.c **** 	if (mode==true)
 781              		.loc 2 200 0
 782 0002 0028     		cmp	r0, #0
 783 0004 02D0     		beq	.L63
 201:nokia5110/LCD5110_Graph.c **** 		cfont.inverted=1;
 784              		.loc 2 201 0
 785 0006 0122     		mov	r2, #1
 786 0008 1A72     		strb	r2, [r3, #8]
 787 000a 00E0     		b	.L62
 788              	.L63:
 202:nokia5110/LCD5110_Graph.c **** 	else
 203:nokia5110/LCD5110_Graph.c **** 		cfont.inverted=0;
 789              		.loc 2 203 0
 790 000c 1872     		strb	r0, [r3, #8]
 791              	.L62:
 204:nokia5110/LCD5110_Graph.c **** }
 792              		.loc 2 204 0
 793              		@ sp needed
 794 000e 7047     		bx	lr
 795              	.L66:
 796              		.align	2
 797              	.L65:
 798 0010 00000000 		.word	cfont
 799              		.cfi_endproc
 800              	.LFE76:
 801              		.size	invertText, .-invertText
 802              		.section	.text._print_char,"ax",%progbits
 803              		.align	1
 804              		.global	_print_char
 805              		.code	16
 806              		.thumb_func
 807              		.type	_print_char, %function
 808              	_print_char:
 809              	.LFB81:
 205:nokia5110/LCD5110_Graph.c **** 
 206:nokia5110/LCD5110_Graph.c **** void print(char *st, int x, int y)
 207:nokia5110/LCD5110_Graph.c **** {
 208:nokia5110/LCD5110_Graph.c **** 	unsigned char ch;
 209:nokia5110/LCD5110_Graph.c **** 	int stl;
 210:nokia5110/LCD5110_Graph.c **** 
 211:nokia5110/LCD5110_Graph.c **** 	stl = strlen(st);
 212:nokia5110/LCD5110_Graph.c **** 	if (x == RIGHT)
 213:nokia5110/LCD5110_Graph.c **** 		x = 84-(stl*cfont.x_size);
 214:nokia5110/LCD5110_Graph.c **** 	if (x == CENTER)
ARM GAS  C:\Users\Petro\AppData\Local\Temp\cchQWd3Z.s 			page 20


 215:nokia5110/LCD5110_Graph.c **** 		x = (84-(stl*cfont.x_size))/2;
 216:nokia5110/LCD5110_Graph.c **** 
 217:nokia5110/LCD5110_Graph.c ****     int cnt;
 218:nokia5110/LCD5110_Graph.c **** 	for (cnt=0; cnt<stl; cnt++)
 219:nokia5110/LCD5110_Graph.c **** 			_print_char(*st++, x + (cnt*(cfont.x_size)), y);
 220:nokia5110/LCD5110_Graph.c **** }
 221:nokia5110/LCD5110_Graph.c **** 
 222:nokia5110/LCD5110_Graph.c **** void prints(char *st, int x, int y)
 223:nokia5110/LCD5110_Graph.c **** {
 224:nokia5110/LCD5110_Graph.c **** //	char buf[st.length()+1];
 225:nokia5110/LCD5110_Graph.c **** //
 226:nokia5110/LCD5110_Graph.c **** //	st.toCharArray(buf, st.length()+1);
 227:nokia5110/LCD5110_Graph.c **** 	print(st, x, y);
 228:nokia5110/LCD5110_Graph.c **** }
 229:nokia5110/LCD5110_Graph.c **** 
 230:nokia5110/LCD5110_Graph.c **** void printNumI(long num, int x, int y, int length, char filler)
 231:nokia5110/LCD5110_Graph.c **** {
 232:nokia5110/LCD5110_Graph.c **** 	char buf[25];
 233:nokia5110/LCD5110_Graph.c **** 	char st[27];
 234:nokia5110/LCD5110_Graph.c **** 	bool neg=false;
 235:nokia5110/LCD5110_Graph.c **** 	int c=0, f=0;
 236:nokia5110/LCD5110_Graph.c ****   
 237:nokia5110/LCD5110_Graph.c **** 	if (num==0)
 238:nokia5110/LCD5110_Graph.c **** 	{
 239:nokia5110/LCD5110_Graph.c **** 		if (length!=0)
 240:nokia5110/LCD5110_Graph.c **** 		{
 241:nokia5110/LCD5110_Graph.c **** 			for (c=0; c<(length-1); c++)
 242:nokia5110/LCD5110_Graph.c **** 				st[c]=filler;
 243:nokia5110/LCD5110_Graph.c **** 			st[c]=48;
 244:nokia5110/LCD5110_Graph.c **** 			st[c+1]=0;
 245:nokia5110/LCD5110_Graph.c **** 		}
 246:nokia5110/LCD5110_Graph.c **** 		else
 247:nokia5110/LCD5110_Graph.c **** 		{
 248:nokia5110/LCD5110_Graph.c **** 			st[0]=48;
 249:nokia5110/LCD5110_Graph.c **** 			st[1]=0;
 250:nokia5110/LCD5110_Graph.c **** 		}
 251:nokia5110/LCD5110_Graph.c **** 	}
 252:nokia5110/LCD5110_Graph.c **** 	else
 253:nokia5110/LCD5110_Graph.c **** 	{
 254:nokia5110/LCD5110_Graph.c **** 		if (num<0)
 255:nokia5110/LCD5110_Graph.c **** 		{
 256:nokia5110/LCD5110_Graph.c **** 			neg=true;
 257:nokia5110/LCD5110_Graph.c **** 			num=-num;
 258:nokia5110/LCD5110_Graph.c **** 		}
 259:nokia5110/LCD5110_Graph.c **** 	  
 260:nokia5110/LCD5110_Graph.c **** 		while (num>0)
 261:nokia5110/LCD5110_Graph.c **** 		{
 262:nokia5110/LCD5110_Graph.c **** 			buf[c]=48+(num % 10);
 263:nokia5110/LCD5110_Graph.c **** 			c++;
 264:nokia5110/LCD5110_Graph.c **** 			num=(num-(num % 10))/10;
 265:nokia5110/LCD5110_Graph.c **** 		}
 266:nokia5110/LCD5110_Graph.c **** 		buf[c]=0;
 267:nokia5110/LCD5110_Graph.c **** 	  
 268:nokia5110/LCD5110_Graph.c **** 		if (neg)
 269:nokia5110/LCD5110_Graph.c **** 		{
 270:nokia5110/LCD5110_Graph.c **** 			st[0]=45;
 271:nokia5110/LCD5110_Graph.c **** 		}
ARM GAS  C:\Users\Petro\AppData\Local\Temp\cchQWd3Z.s 			page 21


 272:nokia5110/LCD5110_Graph.c **** 	  
 273:nokia5110/LCD5110_Graph.c **** 		if (length>(c+neg))
 274:nokia5110/LCD5110_Graph.c **** 		{
 275:nokia5110/LCD5110_Graph.c ****             int i;
 276:nokia5110/LCD5110_Graph.c **** 			for (i=0; i<(length-c-neg); i++)
 277:nokia5110/LCD5110_Graph.c **** 			{
 278:nokia5110/LCD5110_Graph.c **** 				st[i+neg]=filler;
 279:nokia5110/LCD5110_Graph.c **** 				f++;
 280:nokia5110/LCD5110_Graph.c **** 			}
 281:nokia5110/LCD5110_Graph.c **** 		}
 282:nokia5110/LCD5110_Graph.c **** 
 283:nokia5110/LCD5110_Graph.c ****         int i;
 284:nokia5110/LCD5110_Graph.c **** 		for (i=0; i<c; i++)
 285:nokia5110/LCD5110_Graph.c **** 		{
 286:nokia5110/LCD5110_Graph.c **** 			st[i+neg+f]=buf[c-i-1];
 287:nokia5110/LCD5110_Graph.c **** 		}
 288:nokia5110/LCD5110_Graph.c **** 		st[c+neg+f]=0;
 289:nokia5110/LCD5110_Graph.c **** 
 290:nokia5110/LCD5110_Graph.c **** 	}
 291:nokia5110/LCD5110_Graph.c **** 
 292:nokia5110/LCD5110_Graph.c **** 	print(st,x,y);
 293:nokia5110/LCD5110_Graph.c **** }
 294:nokia5110/LCD5110_Graph.c **** 
 295:nokia5110/LCD5110_Graph.c **** void printNumF(double num, uint8 dec, int x, int y, char divider, int length, char filler)
 296:nokia5110/LCD5110_Graph.c **** {
 297:nokia5110/LCD5110_Graph.c **** 	char st[27];
 298:nokia5110/LCD5110_Graph.c ****     uint8_t size;
 299:nokia5110/LCD5110_Graph.c **** 	bool neg=false;
 300:nokia5110/LCD5110_Graph.c **** 
 301:nokia5110/LCD5110_Graph.c **** 	if (num<0)
 302:nokia5110/LCD5110_Graph.c **** 		neg = true;
 303:nokia5110/LCD5110_Graph.c **** 
 304:nokia5110/LCD5110_Graph.c **** 	_convert_float(st, num, length, dec);
 305:nokia5110/LCD5110_Graph.c **** 
 306:nokia5110/LCD5110_Graph.c **** 	if (divider != '.')
 307:nokia5110/LCD5110_Graph.c **** 	{
 308:nokia5110/LCD5110_Graph.c ****         size = sizeof st;
 309:nokia5110/LCD5110_Graph.c ****         int i;
 310:nokia5110/LCD5110_Graph.c **** 		for (i=0; i<size; i++)
 311:nokia5110/LCD5110_Graph.c **** 			if (st[i]=='.')
 312:nokia5110/LCD5110_Graph.c **** 				st[i]=divider;
 313:nokia5110/LCD5110_Graph.c **** 	}
 314:nokia5110/LCD5110_Graph.c **** 
 315:nokia5110/LCD5110_Graph.c **** 	if (filler != ' ')
 316:nokia5110/LCD5110_Graph.c **** 	{
 317:nokia5110/LCD5110_Graph.c **** 		if (neg)
 318:nokia5110/LCD5110_Graph.c **** 		{
 319:nokia5110/LCD5110_Graph.c **** 			st[0]='-';
 320:nokia5110/LCD5110_Graph.c ****             size = sizeof st;
 321:nokia5110/LCD5110_Graph.c ****             int i;
 322:nokia5110/LCD5110_Graph.c **** 			for (i=1; i<size; i++)
 323:nokia5110/LCD5110_Graph.c **** 				if ((st[i]==' ') || (st[i]=='-'))
 324:nokia5110/LCD5110_Graph.c **** 					st[i]=filler;
 325:nokia5110/LCD5110_Graph.c **** 		}
 326:nokia5110/LCD5110_Graph.c **** 		else
 327:nokia5110/LCD5110_Graph.c **** 		{
 328:nokia5110/LCD5110_Graph.c ****             size = sizeof st;
ARM GAS  C:\Users\Petro\AppData\Local\Temp\cchQWd3Z.s 			page 22


 329:nokia5110/LCD5110_Graph.c ****             int i;
 330:nokia5110/LCD5110_Graph.c **** 			for (i=0; i<size; i++)
 331:nokia5110/LCD5110_Graph.c **** 				if (st[i]==' ')
 332:nokia5110/LCD5110_Graph.c **** 					st[i]=filler;
 333:nokia5110/LCD5110_Graph.c **** 		}
 334:nokia5110/LCD5110_Graph.c **** 	}
 335:nokia5110/LCD5110_Graph.c **** 
 336:nokia5110/LCD5110_Graph.c **** 	print(st,x,y);
 337:nokia5110/LCD5110_Graph.c **** }
 338:nokia5110/LCD5110_Graph.c **** 
 339:nokia5110/LCD5110_Graph.c **** void _print_char(unsigned char c, int x, int y)
 340:nokia5110/LCD5110_Graph.c **** {
 810              		.loc 2 340 0
 811              		.cfi_startproc
 812              	.LVL78:
 813 0000 F0B5     		push	{r4, r5, r6, r7, lr}
 814              		.cfi_def_cfa_offset 20
 815              		.cfi_offset 4, -20
 816              		.cfi_offset 5, -16
 817              		.cfi_offset 6, -12
 818              		.cfi_offset 7, -8
 819              		.cfi_offset 14, -4
 820 0002 85B0     		sub	sp, sp, #20
 821              		.cfi_def_cfa_offset 40
 822              		.loc 2 340 0
 823 0004 0192     		str	r2, [sp, #4]
 341:nokia5110/LCD5110_Graph.c **** 	if ((cfont.y_size % 8) == 0)
 824              		.loc 2 341 0
 825 0006 3E4A     		ldr	r2, .L91
 826              	.LVL79:
 340:nokia5110/LCD5110_Graph.c **** 	if ((cfont.y_size % 8) == 0)
 827              		.loc 2 340 0
 828 0008 0391     		str	r1, [sp, #12]
 829              		.loc 2 341 0
 830 000a 5379     		ldrb	r3, [r2, #5]
 831 000c 0725     		mov	r5, #7
 832 000e 191C     		mov	r1, r3
 833              	.LVL80:
 834 0010 9479     		ldrb	r4, [r2, #6]
 835 0012 2940     		and	r1, r5
 836 0014 1679     		ldrb	r6, [r2, #4]
 837 0016 0029     		cmp	r1, #0
 838 0018 38D1     		bne	.L68
 839              	.LBB21:
 342:nokia5110/LCD5110_Graph.c **** 	{
 343:nokia5110/LCD5110_Graph.c **** 		int font_idx = ((c - cfont.offset)*(cfont.x_size*(cfont.y_size/8)))+4;
 840              		.loc 2 343 0
 841 001a DB08     		lsr	r3, r3, #3
 842 001c 7343     		mul	r3, r6
 843 001e 001B     		sub	r0, r0, r4
 844              	.LVL81:
 845 0020 4343     		mul	r3, r0
 846 0022 0293     		str	r3, [sp, #8]
 847              	.LVL82:
 848 0024 6B46     		mov	r3, sp
 849              	.LVL83:
 344:nokia5110/LCD5110_Graph.c ****         int rowcnt;
ARM GAS  C:\Users\Petro\AppData\Local\Temp\cchQWd3Z.s 			page 23


 345:nokia5110/LCD5110_Graph.c **** 		for (rowcnt=0; rowcnt<(cfont.y_size/8); rowcnt++)
 850              		.loc 2 345 0
 851 0026 0C1C     		mov	r4, r1
 852 0028 9D88     		ldrh	r5, [r3, #4]
 853              	.LVL84:
 854              	.L69:
 855              		.loc 2 345 0 is_stmt 0 discriminator 1
 856 002a 354B     		ldr	r3, .L91
 857 002c 5B79     		ldrb	r3, [r3, #5]
 858 002e DB08     		lsr	r3, r3, #3
 859 0030 9C42     		cmp	r4, r3
 860 0032 62DA     		bge	.L67
 861 0034 0026     		mov	r6, #0
 862              	.L75:
 863              	.LVL85:
 864              	.LBB22:
 346:nokia5110/LCD5110_Graph.c **** 		{
 347:nokia5110/LCD5110_Graph.c ****             int cnt;
 348:nokia5110/LCD5110_Graph.c **** 			for(cnt=0; cnt<cfont.x_size; cnt++)
 865              		.loc 2 348 0 is_stmt 1 discriminator 1
 866 0036 324B     		ldr	r3, .L91
 867 0038 1B79     		ldrb	r3, [r3, #4]
 868 003a 9E42     		cmp	r6, r3
 869 003c 22DA     		bge	.L89
 870 003e 0027     		mov	r7, #0
 871              	.L74:
 872              	.LVL86:
 873              	.LBB23:
 349:nokia5110/LCD5110_Graph.c **** 			{
 350:nokia5110/LCD5110_Graph.c ****                 int b;
 351:nokia5110/LCD5110_Graph.c **** 				for (b=0; b<8; b++)
 352:nokia5110/LCD5110_Graph.c **** 					if ((fontbyte(font_idx+cnt+(rowcnt*cfont.x_size)) & (1<<b))!=0)
 874              		.loc 2 352 0
 875 0040 2F49     		ldr	r1, .L91
 876 0042 0298     		ldr	r0, [sp, #8]
 877 0044 0B79     		ldrb	r3, [r1, #4]
 878 0046 6343     		mul	r3, r4
 879 0048 1A1C     		mov	r2, r3
 880 004a 0B68     		ldr	r3, [r1]
 881 004c 9B19     		add	r3, r3, r6
 882 004e 1B18     		add	r3, r3, r0
 883 0050 9B18     		add	r3, r3, r2
 884 0052 1B79     		ldrb	r3, [r3, #4]
 885 0054 0A7A     		ldrb	r2, [r1, #8]
 886 0056 3B41     		asr	r3, r3, r7
 887 0058 0399     		ldr	r1, [sp, #12]
 888 005a 7018     		add	r0, r6, r1
 889 005c E919     		add	r1, r5, r7
 353:nokia5110/LCD5110_Graph.c **** 						if (cfont.inverted==0)
 354:nokia5110/LCD5110_Graph.c **** 							setPixel(x+cnt, y+(rowcnt*8)+b);
 890              		.loc 2 354 0
 891 005e 80B2     		uxth	r0, r0
 892 0060 89B2     		uxth	r1, r1
 352:nokia5110/LCD5110_Graph.c **** 						if (cfont.inverted==0)
 893              		.loc 2 352 0
 894 0062 DB07     		lsl	r3, r3, #31
 895 0064 02D5     		bpl	.L70
ARM GAS  C:\Users\Petro\AppData\Local\Temp\cchQWd3Z.s 			page 24


 353:nokia5110/LCD5110_Graph.c **** 						if (cfont.inverted==0)
 896              		.loc 2 353 0
 897 0066 002A     		cmp	r2, #0
 898 0068 02D1     		bne	.L87
 899 006a 04E0     		b	.L73
 900              	.L70:
 355:nokia5110/LCD5110_Graph.c **** 						else
 356:nokia5110/LCD5110_Graph.c **** 							clrPixel(x+cnt, y+(rowcnt*8)+b);
 357:nokia5110/LCD5110_Graph.c **** 					else
 358:nokia5110/LCD5110_Graph.c **** 						if (cfont.inverted==0)
 901              		.loc 2 358 0
 902 006c 002A     		cmp	r2, #0
 903 006e 02D1     		bne	.L73
 904              	.L87:
 359:nokia5110/LCD5110_Graph.c **** 							clrPixel(x+cnt, y+(rowcnt*8)+b);
 905              		.loc 2 359 0
 906 0070 FFF7FEFF 		bl	clrPixel
 907              	.LVL87:
 908 0074 01E0     		b	.L72
 909              	.L73:
 360:nokia5110/LCD5110_Graph.c **** 						else
 361:nokia5110/LCD5110_Graph.c **** 							setPixel(x+cnt, y+(rowcnt*8)+b);
 910              		.loc 2 361 0
 911 0076 FFF7FEFF 		bl	setPixel
 912              	.LVL88:
 913              	.L72:
 351:nokia5110/LCD5110_Graph.c **** 					if ((fontbyte(font_idx+cnt+(rowcnt*cfont.x_size)) & (1<<b))!=0)
 914              		.loc 2 351 0 discriminator 2
 915 007a 0137     		add	r7, r7, #1
 916              	.LVL89:
 917 007c 082F     		cmp	r7, #8
 918 007e DFD1     		bne	.L74
 919              	.LBE23:
 348:nokia5110/LCD5110_Graph.c **** 			{
 920              		.loc 2 348 0 discriminator 2
 921 0080 0136     		add	r6, r6, #1
 922              	.LVL90:
 923 0082 D8E7     		b	.L75
 924              	.LVL91:
 925              	.L89:
 926 0084 0835     		add	r5, r5, #8
 927              	.LBE22:
 345:nokia5110/LCD5110_Graph.c **** 		{
 928              		.loc 2 345 0 discriminator 2
 929 0086 0134     		add	r4, r4, #1
 930              	.LVL92:
 931 0088 ADB2     		uxth	r5, r5
 932 008a CEE7     		b	.L69
 933              	.LVL93:
 934              	.L68:
 935              	.LBE21:
 936              	.LBB24:
 362:nokia5110/LCD5110_Graph.c **** 			}
 363:nokia5110/LCD5110_Graph.c **** 		}
 364:nokia5110/LCD5110_Graph.c **** 	}
 365:nokia5110/LCD5110_Graph.c **** 	else
 366:nokia5110/LCD5110_Graph.c **** 	{
ARM GAS  C:\Users\Petro\AppData\Local\Temp\cchQWd3Z.s 			page 25


 367:nokia5110/LCD5110_Graph.c **** 		int font_idx = ((c - cfont.offset)*((cfont.x_size*cfont.y_size/8)))+4;
 368:nokia5110/LCD5110_Graph.c **** 		int cbyte=fontbyte(font_idx);
 369:nokia5110/LCD5110_Graph.c **** 		int cbit=7;
 370:nokia5110/LCD5110_Graph.c ****         int cx;
 371:nokia5110/LCD5110_Graph.c **** 		for (cx=0; cx<cfont.x_size; cx++)
 937              		.loc 2 371 0
 938 008c 0027     		mov	r7, #0
 367:nokia5110/LCD5110_Graph.c **** 		int cbyte=fontbyte(font_idx);
 939              		.loc 2 367 0
 940 008e 7343     		mul	r3, r6
 941 0090 041B     		sub	r4, r0, r4
 942 0092 DB10     		asr	r3, r3, #3
 943 0094 5C43     		mul	r4, r3
 368:nokia5110/LCD5110_Graph.c **** 		int cbit=7;
 944              		.loc 2 368 0
 945 0096 1368     		ldr	r3, [r2]
 367:nokia5110/LCD5110_Graph.c **** 		int cbyte=fontbyte(font_idx);
 946              		.loc 2 367 0
 947 0098 0434     		add	r4, r4, #4
 948              	.LVL94:
 368:nokia5110/LCD5110_Graph.c **** 		int cbit=7;
 949              		.loc 2 368 0
 950 009a 1B5D     		ldrb	r3, [r3, r4]
 951 009c 0293     		str	r3, [sp, #8]
 952              	.LVL95:
 953              	.L76:
 954              		.loc 2 371 0 discriminator 1
 955 009e 184B     		ldr	r3, .L91
 956 00a0 1B79     		ldrb	r3, [r3, #4]
 957 00a2 9F42     		cmp	r7, r3
 958 00a4 29DA     		bge	.L67
 959 00a6 0026     		mov	r6, #0
 960              	.L84:
 961              	.LVL96:
 962              	.LBB25:
 372:nokia5110/LCD5110_Graph.c **** 		{
 373:nokia5110/LCD5110_Graph.c ****             int cy;
 374:nokia5110/LCD5110_Graph.c **** 			for (cy=0; cy<cfont.y_size; cy++)
 963              		.loc 2 374 0 discriminator 1
 964 00a8 154B     		ldr	r3, .L91
 965 00aa 5A79     		ldrb	r2, [r3, #5]
 966 00ac 9642     		cmp	r6, r2
 967 00ae 22DA     		bge	.L90
 968 00b0 1A7A     		ldrb	r2, [r3, #8]
 969 00b2 039B     		ldr	r3, [sp, #12]
 970 00b4 F818     		add	r0, r7, r3
 375:nokia5110/LCD5110_Graph.c **** 			{
 376:nokia5110/LCD5110_Graph.c **** 				if ((cbyte & (1<<cbit)) != 0)
 971              		.loc 2 376 0
 972 00b6 029B     		ldr	r3, [sp, #8]
 973 00b8 2B41     		asr	r3, r3, r5
 974 00ba DB07     		lsl	r3, r3, #31
 975 00bc 06D5     		bpl	.L77
 976 00be 019B     		ldr	r3, [sp, #4]
 377:nokia5110/LCD5110_Graph.c **** 					if (cfont.inverted==0)
 378:nokia5110/LCD5110_Graph.c **** 						setPixel(x+cx, y+cy);
 977              		.loc 2 378 0
ARM GAS  C:\Users\Petro\AppData\Local\Temp\cchQWd3Z.s 			page 26


 978 00c0 80B2     		uxth	r0, r0
 979 00c2 F118     		add	r1, r6, r3
 980 00c4 89B2     		uxth	r1, r1
 377:nokia5110/LCD5110_Graph.c **** 					if (cfont.inverted==0)
 981              		.loc 2 377 0
 982 00c6 002A     		cmp	r2, #0
 983 00c8 06D1     		bne	.L88
 984 00ca 08E0     		b	.L80
 985              	.L77:
 986 00cc 019B     		ldr	r3, [sp, #4]
 379:nokia5110/LCD5110_Graph.c **** 					else
 380:nokia5110/LCD5110_Graph.c **** 						clrPixel(x+cx, y+cy);
 381:nokia5110/LCD5110_Graph.c **** 				else
 382:nokia5110/LCD5110_Graph.c **** 					if (cfont.inverted==0)
 383:nokia5110/LCD5110_Graph.c **** 						clrPixel(x+cx, y+cy);
 987              		.loc 2 383 0
 988 00ce 80B2     		uxth	r0, r0
 989 00d0 F118     		add	r1, r6, r3
 990 00d2 89B2     		uxth	r1, r1
 382:nokia5110/LCD5110_Graph.c **** 						clrPixel(x+cx, y+cy);
 991              		.loc 2 382 0
 992 00d4 002A     		cmp	r2, #0
 993 00d6 02D1     		bne	.L80
 994              	.L88:
 995              		.loc 2 383 0
 996 00d8 FFF7FEFF 		bl	clrPixel
 997              	.LVL97:
 998 00dc 01E0     		b	.L79
 999              	.L80:
 384:nokia5110/LCD5110_Graph.c **** 					else
 385:nokia5110/LCD5110_Graph.c **** 						setPixel(x+cx, y+cy);
 1000              		.loc 2 385 0
 1001 00de FFF7FEFF 		bl	setPixel
 1002              	.LVL98:
 1003              	.L79:
 386:nokia5110/LCD5110_Graph.c **** 				cbit--;
 387:nokia5110/LCD5110_Graph.c **** 				if (cbit<0)
 1004              		.loc 2 387 0
 1005 00e2 013D     		sub	r5, r5, #1
 1006 00e4 05D5     		bpl	.L81
 1007              	.LVL99:
 388:nokia5110/LCD5110_Graph.c **** 				{
 389:nokia5110/LCD5110_Graph.c **** 					cbit=7;
 1008              		.loc 2 389 0
 1009 00e6 0725     		mov	r5, #7
 390:nokia5110/LCD5110_Graph.c **** 					font_idx++;
 391:nokia5110/LCD5110_Graph.c **** 					cbyte=fontbyte(font_idx);
 1010              		.loc 2 391 0
 1011 00e8 054B     		ldr	r3, .L91
 390:nokia5110/LCD5110_Graph.c **** 					font_idx++;
 1012              		.loc 2 390 0
 1013 00ea 0134     		add	r4, r4, #1
 1014              	.LVL100:
 1015              		.loc 2 391 0
 1016 00ec 1B68     		ldr	r3, [r3]
 1017 00ee 1B5D     		ldrb	r3, [r3, r4]
 1018 00f0 0293     		str	r3, [sp, #8]
ARM GAS  C:\Users\Petro\AppData\Local\Temp\cchQWd3Z.s 			page 27


 1019              	.LVL101:
 1020              	.L81:
 374:nokia5110/LCD5110_Graph.c **** 			{
 1021              		.loc 2 374 0 discriminator 2
 1022 00f2 0136     		add	r6, r6, #1
 1023              	.LVL102:
 1024 00f4 D8E7     		b	.L84
 1025              	.L90:
 1026              	.LBE25:
 371:nokia5110/LCD5110_Graph.c **** 		{
 1027              		.loc 2 371 0 discriminator 2
 1028 00f6 0137     		add	r7, r7, #1
 1029              	.LVL103:
 1030 00f8 D1E7     		b	.L76
 1031              	.LVL104:
 1032              	.L67:
 1033              	.LBE24:
 392:nokia5110/LCD5110_Graph.c **** 				}
 393:nokia5110/LCD5110_Graph.c **** 			}
 394:nokia5110/LCD5110_Graph.c **** 		}
 395:nokia5110/LCD5110_Graph.c **** 	}
 396:nokia5110/LCD5110_Graph.c **** }
 1034              		.loc 2 396 0
 1035 00fa 05B0     		add	sp, sp, #20
 1036              		@ sp needed
 1037 00fc F0BD     		pop	{r4, r5, r6, r7, pc}
 1038              	.L92:
 1039 00fe C046     		.align	2
 1040              	.L91:
 1041 0100 00000000 		.word	cfont
 1042              		.cfi_endproc
 1043              	.LFE81:
 1044              		.size	_print_char, .-_print_char
 1045              		.section	.text.print,"ax",%progbits
 1046              		.align	1
 1047              		.global	print
 1048              		.code	16
 1049              		.thumb_func
 1050              		.type	print, %function
 1051              	print:
 1052              	.LFB77:
 207:nokia5110/LCD5110_Graph.c **** 	unsigned char ch;
 1053              		.loc 2 207 0
 1054              		.cfi_startproc
 1055              	.LVL105:
 1056 0000 F7B5     		push	{r0, r1, r2, r4, r5, r6, r7, lr}
 1057              		.cfi_def_cfa_offset 32
 1058              		.cfi_offset 0, -32
 1059              		.cfi_offset 1, -28
 1060              		.cfi_offset 2, -24
 1061              		.cfi_offset 4, -20
 1062              		.cfi_offset 5, -16
 1063              		.cfi_offset 6, -12
 1064              		.cfi_offset 7, -8
 1065              		.cfi_offset 14, -4
 207:nokia5110/LCD5110_Graph.c **** 	unsigned char ch;
 1066              		.loc 2 207 0
ARM GAS  C:\Users\Petro\AppData\Local\Temp\cchQWd3Z.s 			page 28


 1067 0002 071C     		mov	r7, r0
 1068 0004 0C1C     		mov	r4, r1
 1069 0006 0192     		str	r2, [sp, #4]
 211:nokia5110/LCD5110_Graph.c **** 	if (x == RIGHT)
 1070              		.loc 2 211 0
 1071 0008 FFF7FEFF 		bl	strlen
 1072              	.LVL106:
 212:nokia5110/LCD5110_Graph.c **** 		x = 84-(stl*cfont.x_size);
 1073              		.loc 2 212 0
 1074 000c 104B     		ldr	r3, .L99
 211:nokia5110/LCD5110_Graph.c **** 	if (x == RIGHT)
 1075              		.loc 2 211 0
 1076 000e 061C     		mov	r6, r0
 1077              	.LVL107:
 212:nokia5110/LCD5110_Graph.c **** 		x = 84-(stl*cfont.x_size);
 1078              		.loc 2 212 0
 1079 0010 9C42     		cmp	r4, r3
 1080 0012 04D1     		bne	.L94
 213:nokia5110/LCD5110_Graph.c **** 	if (x == CENTER)
 1081              		.loc 2 213 0
 1082 0014 0F4B     		ldr	r3, .L99+4
 1083 0016 1C79     		ldrb	r4, [r3, #4]
 1084              	.LVL108:
 1085 0018 5423     		mov	r3, #84
 1086 001a 4443     		mul	r4, r0
 1087 001c 1C1B     		sub	r4, r3, r4
 1088              	.LVL109:
 1089              	.L94:
 214:nokia5110/LCD5110_Graph.c **** 		x = (84-(stl*cfont.x_size))/2;
 1090              		.loc 2 214 0
 1091 001e 0E4B     		ldr	r3, .L99+8
 1092 0020 9C42     		cmp	r4, r3
 1093 0022 07D1     		bne	.L95
 215:nokia5110/LCD5110_Graph.c **** 
 1094              		.loc 2 215 0
 1095 0024 5422     		mov	r2, #84
 1096 0026 0B4B     		ldr	r3, .L99+4
 1097 0028 1B79     		ldrb	r3, [r3, #4]
 1098 002a 7343     		mul	r3, r6
 1099 002c D31A     		sub	r3, r2, r3
 1100 002e DC0F     		lsr	r4, r3, #31
 1101              	.LVL110:
 1102 0030 E418     		add	r4, r4, r3
 1103 0032 6410     		asr	r4, r4, #1
 1104              	.LVL111:
 1105              	.L95:
 218:nokia5110/LCD5110_Graph.c **** 			_print_char(*st++, x + (cnt*(cfont.x_size)), y);
 1106              		.loc 2 218 0
 1107 0034 0025     		mov	r5, #0
 1108              	.LVL112:
 1109              	.L96:
 218:nokia5110/LCD5110_Graph.c **** 			_print_char(*st++, x + (cnt*(cfont.x_size)), y);
 1110              		.loc 2 218 0 is_stmt 0 discriminator 1
 1111 0036 B542     		cmp	r5, r6
 1112 0038 09DA     		bge	.L98
 1113              	.LVL113:
 219:nokia5110/LCD5110_Graph.c **** }
ARM GAS  C:\Users\Petro\AppData\Local\Temp\cchQWd3Z.s 			page 29


 1114              		.loc 2 219 0 is_stmt 1 discriminator 3
 1115 003a 064B     		ldr	r3, .L99+4
 1116 003c 785D     		ldrb	r0, [r7, r5]
 1117 003e 1979     		ldrb	r1, [r3, #4]
 1118 0040 019A     		ldr	r2, [sp, #4]
 1119 0042 6943     		mul	r1, r5
 1120 0044 6118     		add	r1, r4, r1
 1121 0046 FFF7FEFF 		bl	_print_char
 1122              	.LVL114:
 218:nokia5110/LCD5110_Graph.c **** 			_print_char(*st++, x + (cnt*(cfont.x_size)), y);
 1123              		.loc 2 218 0 discriminator 3
 1124 004a 0135     		add	r5, r5, #1
 1125              	.LVL115:
 1126 004c F3E7     		b	.L96
 1127              	.L98:
 220:nokia5110/LCD5110_Graph.c **** 
 1128              		.loc 2 220 0
 1129              		@ sp needed
 1130              	.LVL116:
 1131              	.LVL117:
 1132              	.LVL118:
 1133 004e F7BD     		pop	{r0, r1, r2, r4, r5, r6, r7, pc}
 1134              	.L100:
 1135              		.align	2
 1136              	.L99:
 1137 0050 0F270000 		.word	9999
 1138 0054 00000000 		.word	cfont
 1139 0058 0E270000 		.word	9998
 1140              		.cfi_endproc
 1141              	.LFE77:
 1142              		.size	print, .-print
 1143              		.section	.text.prints,"ax",%progbits
 1144              		.align	1
 1145              		.global	prints
 1146              		.code	16
 1147              		.thumb_func
 1148              		.type	prints, %function
 1149              	prints:
 1150              	.LFB78:
 223:nokia5110/LCD5110_Graph.c **** //	char buf[st.length()+1];
 1151              		.loc 2 223 0
 1152              		.cfi_startproc
 1153              	.LVL119:
 1154 0000 08B5     		push	{r3, lr}
 1155              		.cfi_def_cfa_offset 8
 1156              		.cfi_offset 3, -8
 1157              		.cfi_offset 14, -4
 227:nokia5110/LCD5110_Graph.c **** }
 1158              		.loc 2 227 0
 1159 0002 FFF7FEFF 		bl	print
 1160              	.LVL120:
 228:nokia5110/LCD5110_Graph.c **** 
 1161              		.loc 2 228 0
 1162              		@ sp needed
 1163 0006 08BD     		pop	{r3, pc}
 1164              		.cfi_endproc
 1165              	.LFE78:
ARM GAS  C:\Users\Petro\AppData\Local\Temp\cchQWd3Z.s 			page 30


 1166              		.size	prints, .-prints
 1167              		.global	__aeabi_idivmod
 1168              		.global	__aeabi_idiv
 1169              		.section	.text.printNumI,"ax",%progbits
 1170              		.align	1
 1171              		.global	printNumI
 1172              		.code	16
 1173              		.thumb_func
 1174              		.type	printNumI, %function
 1175              	printNumI:
 1176              	.LFB79:
 231:nokia5110/LCD5110_Graph.c **** 	char buf[25];
 1177              		.loc 2 231 0
 1178              		.cfi_startproc
 1179              	.LVL121:
 1180 0000 F0B5     		push	{r4, r5, r6, r7, lr}
 1181              		.cfi_def_cfa_offset 20
 1182              		.cfi_offset 4, -20
 1183              		.cfi_offset 5, -16
 1184              		.cfi_offset 6, -12
 1185              		.cfi_offset 7, -8
 1186              		.cfi_offset 14, -4
 1187 0002 93B0     		sub	sp, sp, #76
 1188              		.cfi_def_cfa_offset 96
 231:nokia5110/LCD5110_Graph.c **** 	char buf[25];
 1189              		.loc 2 231 0
 1190 0004 1F1C     		mov	r7, r3
 1191 0006 18AB     		add	r3, sp, #96
 1192              	.LVL122:
 1193 0008 1B78     		ldrb	r3, [r3]
 1194              	.LVL123:
 1195 000a 041E     		sub	r4, r0, #0
 1196 000c 0291     		str	r1, [sp, #8]
 1197 000e 0392     		str	r2, [sp, #12]
 1198 0010 0193     		str	r3, [sp, #4]
 237:nokia5110/LCD5110_Graph.c **** 	{
 1199              		.loc 2 237 0
 1200 0012 14D1     		bne	.L103
 1201 0014 0BA8     		add	r0, sp, #44
 1202              	.LVL124:
 239:nokia5110/LCD5110_Graph.c **** 		{
 1203              		.loc 2 239 0
 1204 0016 002F     		cmp	r7, #0
 1205 0018 0DD0     		beq	.L123
 1206              	.LVL125:
 1207              	.L104:
 241:nokia5110/LCD5110_Graph.c **** 				st[c]=filler;
 1208              		.loc 2 241 0 discriminator 1
 1209 001a 7B1E     		sub	r3, r7, #1
 1210 001c 9C42     		cmp	r4, r3
 1211 001e 04DA     		bge	.L124
 242:nokia5110/LCD5110_Graph.c **** 			st[c]=48;
 1212              		.loc 2 242 0 discriminator 3
 1213 0020 6B46     		mov	r3, sp
 1214 0022 1B79     		ldrb	r3, [r3, #4]
 1215 0024 0355     		strb	r3, [r0, r4]
 241:nokia5110/LCD5110_Graph.c **** 				st[c]=filler;
ARM GAS  C:\Users\Petro\AppData\Local\Temp\cchQWd3Z.s 			page 31


 1216              		.loc 2 241 0 discriminator 3
 1217 0026 0134     		add	r4, r4, #1
 1218              	.LVL126:
 1219 0028 F7E7     		b	.L104
 1220              	.L124:
 243:nokia5110/LCD5110_Graph.c **** 			st[c+1]=0;
 1221              		.loc 2 243 0
 1222 002a 3023     		mov	r3, #48
 1223 002c 0355     		strb	r3, [r0, r4]
 244:nokia5110/LCD5110_Graph.c **** 		}
 1224              		.loc 2 244 0
 1225 002e 0023     		mov	r3, #0
 1226 0030 0419     		add	r4, r0, r4
 1227              	.LVL127:
 1228 0032 6370     		strb	r3, [r4, #1]
 1229 0034 43E0     		b	.L107
 1230              	.LVL128:
 1231              	.L123:
 248:nokia5110/LCD5110_Graph.c **** 			st[1]=0;
 1232              		.loc 2 248 0
 1233 0036 3023     		mov	r3, #48
 249:nokia5110/LCD5110_Graph.c **** 		}
 1234              		.loc 2 249 0
 1235 0038 4770     		strb	r7, [r0, #1]
 248:nokia5110/LCD5110_Graph.c **** 			st[1]=0;
 1236              		.loc 2 248 0
 1237 003a 0370     		strb	r3, [r0]
 1238 003c 3FE0     		b	.L107
 1239              	.LVL129:
 1240              	.L103:
 234:nokia5110/LCD5110_Graph.c **** 	int c=0, f=0;
 1241              		.loc 2 234 0
 1242 003e 0026     		mov	r6, #0
 1243              	.LBB26:
 254:nokia5110/LCD5110_Graph.c **** 		{
 1244              		.loc 2 254 0
 1245 0040 B042     		cmp	r0, r6
 1246 0042 01DA     		bge	.L108
 1247              	.LVL130:
 257:nokia5110/LCD5110_Graph.c **** 		}
 1248              		.loc 2 257 0
 1249 0044 4442     		neg	r4, r0
 1250              	.LVL131:
 256:nokia5110/LCD5110_Graph.c **** 			num=-num;
 1251              		.loc 2 256 0
 1252 0046 0136     		add	r6, r6, #1
 1253              	.LVL132:
 1254              	.L108:
 1255              	.LBE26:
 234:nokia5110/LCD5110_Graph.c **** 	int c=0, f=0;
 1256              		.loc 2 234 0
 1257 0048 0025     		mov	r5, #0
 1258              	.LVL133:
 1259              	.L109:
 1260              	.LBB28:
 262:nokia5110/LCD5110_Graph.c **** 			c++;
 1261              		.loc 2 262 0
ARM GAS  C:\Users\Petro\AppData\Local\Temp\cchQWd3Z.s 			page 32


 1262 004a 201C     		mov	r0, r4
 1263 004c 0A21     		mov	r1, #10
 1264 004e FFF7FEFF 		bl	__aeabi_idivmod
 1265              	.LVL134:
 1266 0052 0B1C     		mov	r3, r1
 1267 0054 04AA     		add	r2, sp, #16
 1268 0056 3033     		add	r3, r3, #48
 264:nokia5110/LCD5110_Graph.c **** 		}
 1269              		.loc 2 264 0
 1270 0058 601A     		sub	r0, r4, r1
 262:nokia5110/LCD5110_Graph.c **** 			c++;
 1271              		.loc 2 262 0
 1272 005a AB54     		strb	r3, [r5, r2]
 264:nokia5110/LCD5110_Graph.c **** 		}
 1273              		.loc 2 264 0
 1274 005c 0A21     		mov	r1, #10
 1275 005e FFF7FEFF 		bl	__aeabi_idiv
 1276              	.LVL135:
 263:nokia5110/LCD5110_Graph.c **** 			num=(num-(num % 10))/10;
 1277              		.loc 2 263 0
 1278 0062 0135     		add	r5, r5, #1
 1279              	.LVL136:
 264:nokia5110/LCD5110_Graph.c **** 		}
 1280              		.loc 2 264 0
 1281 0064 041E     		sub	r4, r0, #0
 1282              	.LVL137:
 260:nokia5110/LCD5110_Graph.c **** 		{
 1283              		.loc 2 260 0
 1284 0066 F0D1     		bne	.L109
 266:nokia5110/LCD5110_Graph.c **** 	  
 1285              		.loc 2 266 0
 1286 0068 04AB     		add	r3, sp, #16
 1287 006a 5855     		strb	r0, [r3, r5]
 268:nokia5110/LCD5110_Graph.c **** 		{
 1288              		.loc 2 268 0
 1289 006c 002E     		cmp	r6, #0
 1290 006e 02D0     		beq	.L110
 270:nokia5110/LCD5110_Graph.c **** 		}
 1291              		.loc 2 270 0
 1292 0070 2D22     		mov	r2, #45
 1293 0072 0BAB     		add	r3, sp, #44
 1294 0074 1A70     		strb	r2, [r3]
 1295              	.L110:
 273:nokia5110/LCD5110_Graph.c **** 		{
 1296              		.loc 2 273 0
 1297 0076 A819     		add	r0, r5, r6
 1298              	.LVL138:
 1299              	.LBE28:
 235:nokia5110/LCD5110_Graph.c ****   
 1300              		.loc 2 235 0
 1301 0078 0023     		mov	r3, #0
 1302              	.LBB29:
 273:nokia5110/LCD5110_Graph.c **** 		{
 1303              		.loc 2 273 0
 1304 007a 8742     		cmp	r7, r0
 1305 007c 0EDD     		ble	.L112
 1306 007e 0021     		mov	r1, #0
ARM GAS  C:\Users\Petro\AppData\Local\Temp\cchQWd3Z.s 			page 33


 1307              	.LVL139:
 1308              	.L111:
 1309              	.LBB27:
 276:nokia5110/LCD5110_Graph.c **** 			{
 1310              		.loc 2 276 0 discriminator 1
 1311 0080 7B1B     		sub	r3, r7, r5
 1312 0082 9A1B     		sub	r2, r3, r6
 1313 0084 9142     		cmp	r1, r2
 1314 0086 06DA     		bge	.L125
 278:nokia5110/LCD5110_Graph.c **** 				f++;
 1315              		.loc 2 278 0 discriminator 3
 1316 0088 6A46     		mov	r2, sp
 1317 008a 0BAB     		add	r3, sp, #44
 1318 008c 1279     		ldrb	r2, [r2, #4]
 1319 008e 9B19     		add	r3, r3, r6
 1320 0090 5A54     		strb	r2, [r3, r1]
 279:nokia5110/LCD5110_Graph.c **** 			}
 1321              		.loc 2 279 0 discriminator 3
 1322 0092 0131     		add	r1, r1, #1
 1323              	.LVL140:
 1324 0094 F4E7     		b	.L111
 1325              	.L125:
 1326 0096 D343     		mvn	r3, r2
 1327 0098 DB17     		asr	r3, r3, #31
 1328 009a 1340     		and	r3, r2
 1329              	.LVL141:
 1330              	.L112:
 1331              	.LBE27:
 284:nokia5110/LCD5110_Graph.c **** 		{
 1332              		.loc 2 284 0
 1333 009c 0022     		mov	r2, #0
 1334              	.LVL142:
 1335              	.L115:
 1336 009e 0BAF     		add	r7, sp, #44
 1337 00a0 9C19     		add	r4, r3, r6
 1338 00a2 A91A     		sub	r1, r5, r2
 1339 00a4 3C19     		add	r4, r7, r4
 1340 00a6 12AF     		add	r7, sp, #72
 1341 00a8 7918     		add	r1, r7, r1
 1342 00aa 3939     		sub	r1, r1, #57
 286:nokia5110/LCD5110_Graph.c **** 		}
 1343              		.loc 2 286 0 discriminator 3
 1344 00ac 0978     		ldrb	r1, [r1]
 1345 00ae A154     		strb	r1, [r4, r2]
 284:nokia5110/LCD5110_Graph.c **** 		{
 1346              		.loc 2 284 0 discriminator 3
 1347 00b0 0132     		add	r2, r2, #1
 1348              	.LVL143:
 1349 00b2 AA42     		cmp	r2, r5
 1350 00b4 F3D1     		bne	.L115
 288:nokia5110/LCD5110_Graph.c **** 
 1351              		.loc 2 288 0
 1352 00b6 0BAA     		add	r2, sp, #44
 1353              	.LVL144:
 1354 00b8 D318     		add	r3, r2, r3
 1355              	.LVL145:
 1356 00ba 0022     		mov	r2, #0
ARM GAS  C:\Users\Petro\AppData\Local\Temp\cchQWd3Z.s 			page 34


 1357 00bc 1A54     		strb	r2, [r3, r0]
 1358              	.LVL146:
 1359              	.L107:
 1360              	.LBE29:
 292:nokia5110/LCD5110_Graph.c **** }
 1361              		.loc 2 292 0
 1362 00be 0BA8     		add	r0, sp, #44
 1363 00c0 0299     		ldr	r1, [sp, #8]
 1364 00c2 039A     		ldr	r2, [sp, #12]
 1365 00c4 FFF7FEFF 		bl	print
 1366              	.LVL147:
 293:nokia5110/LCD5110_Graph.c **** 
 1367              		.loc 2 293 0
 1368 00c8 13B0     		add	sp, sp, #76
 1369              		@ sp needed
 1370 00ca F0BD     		pop	{r4, r5, r6, r7, pc}
 1371              		.cfi_endproc
 1372              	.LFE79:
 1373              		.size	printNumI, .-printNumI
 1374              		.global	__aeabi_dcmplt
 1375              		.section	.text.printNumF,"ax",%progbits
 1376              		.align	1
 1377              		.global	printNumF
 1378              		.code	16
 1379              		.thumb_func
 1380              		.type	printNumF, %function
 1381              	printNumF:
 1382              	.LFB80:
 296:nokia5110/LCD5110_Graph.c **** 	char st[27];
 1383              		.loc 2 296 0
 1384              		.cfi_startproc
 1385              	.LVL148:
 1386 0000 F0B5     		push	{r4, r5, r6, r7, lr}
 1387              		.cfi_def_cfa_offset 20
 1388              		.cfi_offset 4, -20
 1389              		.cfi_offset 5, -16
 1390              		.cfi_offset 6, -12
 1391              		.cfi_offset 7, -8
 1392              		.cfi_offset 14, -4
 1393 0002 061C     		mov	r6, r0
 1394 0004 0F1C     		mov	r7, r1
 1395              	.LVL149:
 1396 0006 8DB0     		sub	sp, sp, #52
 1397              		.cfi_def_cfa_offset 72
 296:nokia5110/LCD5110_Graph.c **** 	char st[27];
 1398              		.loc 2 296 0
 1399 0008 0393     		str	r3, [sp, #12]
 1400 000a 12AB     		add	r3, sp, #72
 1401              	.LVL150:
 1402 000c 02CB     		ldmia	r3!, {r1}
 1403              	.LVL151:
 304:nokia5110/LCD5110_Graph.c **** 
 1404              		.loc 2 304 0
 1405 000e 05AC     		add	r4, sp, #20
 296:nokia5110/LCD5110_Graph.c **** 	char st[27];
 1406              		.loc 2 296 0
 1407 0010 1B78     		ldrb	r3, [r3]
ARM GAS  C:\Users\Petro\AppData\Local\Temp\cchQWd3Z.s 			page 35


 1408              	.LVL152:
 304:nokia5110/LCD5110_Graph.c **** 
 1409              		.loc 2 304 0
 1410 0012 201C     		mov	r0, r4
 1411              	.LVL153:
 296:nokia5110/LCD5110_Graph.c **** 	char st[27];
 1412              		.loc 2 296 0
 1413 0014 0293     		str	r3, [sp, #8]
 1414 0016 15AB     		add	r3, sp, #84
 1415              	.LVL154:
 1416 0018 1D78     		ldrb	r5, [r3]
 304:nokia5110/LCD5110_Graph.c **** 
 1417              		.loc 2 304 0
 1418 001a 149B     		ldr	r3, [sp, #80]
 1419              	.LVL155:
 1420 001c 0192     		str	r2, [sp, #4]
 1421 001e 0093     		str	r3, [sp]
 1422 0020 321C     		mov	r2, r6
 1423              	.LVL156:
 1424 0022 3B1C     		mov	r3, r7
 1425 0024 FFF7FEFF 		bl	_convert_float
 1426              	.LVL157:
 306:nokia5110/LCD5110_Graph.c **** 	{
 1427              		.loc 2 306 0
 1428 0028 029A     		ldr	r2, [sp, #8]
 1429 002a 0023     		mov	r3, #0
 1430 002c 2E2A     		cmp	r2, #46
 1431 002e 05D1     		bne	.L127
 1432              	.L131:
 315:nokia5110/LCD5110_Graph.c **** 	{
 1433              		.loc 2 315 0
 1434 0030 202D     		cmp	r5, #32
 1435 0032 0AD1     		bne	.L128
 1436 0034 1CE0     		b	.L129
 1437              	.LVL158:
 1438              	.L130:
 1439              	.LBB30:
 310:nokia5110/LCD5110_Graph.c **** 			if (st[i]=='.')
 1440              		.loc 2 310 0 discriminator 2
 1441 0036 0133     		add	r3, r3, #1
 1442              	.LVL159:
 1443 0038 1B2B     		cmp	r3, #27
 1444 003a F9D0     		beq	.L131
 1445              	.LVL160:
 1446              	.L127:
 311:nokia5110/LCD5110_Graph.c **** 				st[i]=divider;
 1447              		.loc 2 311 0
 1448 003c E25C     		ldrb	r2, [r4, r3]
 1449 003e 2E2A     		cmp	r2, #46
 1450 0040 F9D1     		bne	.L130
 312:nokia5110/LCD5110_Graph.c **** 	}
 1451              		.loc 2 312 0
 1452 0042 6A46     		mov	r2, sp
 1453 0044 127A     		ldrb	r2, [r2, #8]
 1454 0046 E254     		strb	r2, [r4, r3]
 1455 0048 F5E7     		b	.L130
 1456              	.LVL161:
ARM GAS  C:\Users\Petro\AppData\Local\Temp\cchQWd3Z.s 			page 36


 1457              	.L128:
 1458              	.LBE30:
 317:nokia5110/LCD5110_Graph.c **** 		{
 1459              		.loc 2 317 0
 1460 004a 301C     		mov	r0, r6
 1461 004c 391C     		mov	r1, r7
 1462 004e 0022     		mov	r2, #0
 1463 0050 0023     		mov	r3, #0
 1464 0052 FFF7FEFF 		bl	__aeabi_dcmplt
 1465              	.LVL162:
 1466 0056 0028     		cmp	r0, #0
 1467 0058 16D0     		beq	.L132
 1468              	.LBB31:
 319:nokia5110/LCD5110_Graph.c ****             size = sizeof st;
 1469              		.loc 2 319 0
 1470 005a 2D23     		mov	r3, #45
 1471 005c 2370     		strb	r3, [r4]
 1472              	.LVL163:
 322:nokia5110/LCD5110_Graph.c **** 				if ((st[i]==' ') || (st[i]=='-'))
 1473              		.loc 2 322 0
 1474 005e 2C3B     		sub	r3, r3, #44
 1475              	.LVL164:
 1476              	.L136:
 323:nokia5110/LCD5110_Graph.c **** 					st[i]=filler;
 1477              		.loc 2 323 0
 1478 0060 E25C     		ldrb	r2, [r4, r3]
 1479 0062 202A     		cmp	r2, #32
 1480 0064 0BD0     		beq	.L134
 323:nokia5110/LCD5110_Graph.c **** 					st[i]=filler;
 1481              		.loc 2 323 0 is_stmt 0 discriminator 1
 1482 0066 2D2A     		cmp	r2, #45
 1483 0068 09D0     		beq	.L134
 1484              	.L135:
 322:nokia5110/LCD5110_Graph.c **** 				if ((st[i]==' ') || (st[i]=='-'))
 1485              		.loc 2 322 0 is_stmt 1 discriminator 2
 1486 006a 0133     		add	r3, r3, #1
 1487              	.LVL165:
 1488 006c 1B2B     		cmp	r3, #27
 1489 006e F7D1     		bne	.L136
 1490              	.LVL166:
 1491              	.L129:
 1492              	.LBE31:
 336:nokia5110/LCD5110_Graph.c **** }
 1493              		.loc 2 336 0
 1494 0070 201C     		mov	r0, r4
 1495 0072 0399     		ldr	r1, [sp, #12]
 1496 0074 129A     		ldr	r2, [sp, #72]
 1497 0076 FFF7FEFF 		bl	print
 1498              	.LVL167:
 337:nokia5110/LCD5110_Graph.c **** 
 1499              		.loc 2 337 0
 1500 007a 0DB0     		add	sp, sp, #52
 1501              		@ sp needed
 1502              	.LVL168:
 1503 007c F0BD     		pop	{r4, r5, r6, r7, pc}
 1504              	.LVL169:
 1505              	.L134:
ARM GAS  C:\Users\Petro\AppData\Local\Temp\cchQWd3Z.s 			page 37


 1506              	.LBB32:
 324:nokia5110/LCD5110_Graph.c **** 		}
 1507              		.loc 2 324 0
 1508 007e E554     		strb	r5, [r4, r3]
 1509 0080 F3E7     		b	.L135
 1510              	.LVL170:
 1511              	.L137:
 1512              	.LBE32:
 1513              	.LBB33:
 330:nokia5110/LCD5110_Graph.c **** 				if (st[i]==' ')
 1514              		.loc 2 330 0 discriminator 2
 1515 0082 0130     		add	r0, r0, #1
 1516              	.LVL171:
 1517 0084 1B28     		cmp	r0, #27
 1518 0086 F3D0     		beq	.L129
 1519              	.LVL172:
 1520              	.L132:
 331:nokia5110/LCD5110_Graph.c **** 					st[i]=filler;
 1521              		.loc 2 331 0
 1522 0088 235C     		ldrb	r3, [r4, r0]
 1523 008a 202B     		cmp	r3, #32
 1524 008c F9D1     		bne	.L137
 332:nokia5110/LCD5110_Graph.c **** 		}
 1525              		.loc 2 332 0
 1526 008e 2554     		strb	r5, [r4, r0]
 1527 0090 F7E7     		b	.L137
 1528              	.LBE33:
 1529              		.cfi_endproc
 1530              	.LFE80:
 1531              		.size	printNumF, .-printNumF
 1532              		.section	.text.setFont,"ax",%progbits
 1533              		.align	1
 1534              		.global	setFont
 1535              		.code	16
 1536              		.thumb_func
 1537              		.type	setFont, %function
 1538              	setFont:
 1539              	.LFB82:
 397:nokia5110/LCD5110_Graph.c **** 
 398:nokia5110/LCD5110_Graph.c **** void setFont(uint8_t* font)
 399:nokia5110/LCD5110_Graph.c **** {
 1540              		.loc 2 399 0
 1541              		.cfi_startproc
 1542              	.LVL173:
 400:nokia5110/LCD5110_Graph.c **** 	cfont.font=font;
 1543              		.loc 2 400 0
 1544 0000 064B     		ldr	r3, .L147
 401:nokia5110/LCD5110_Graph.c **** 	cfont.x_size=fontbyte(0);
 402:nokia5110/LCD5110_Graph.c **** 	cfont.y_size=fontbyte(1);
 403:nokia5110/LCD5110_Graph.c **** 	cfont.offset=fontbyte(2);
 404:nokia5110/LCD5110_Graph.c **** 	cfont.numchars=fontbyte(3);
 405:nokia5110/LCD5110_Graph.c **** 	cfont.inverted=0;
 406:nokia5110/LCD5110_Graph.c **** }
 1545              		.loc 2 406 0
 1546              		@ sp needed
 400:nokia5110/LCD5110_Graph.c **** 	cfont.font=font;
 1547              		.loc 2 400 0
ARM GAS  C:\Users\Petro\AppData\Local\Temp\cchQWd3Z.s 			page 38


 1548 0002 1860     		str	r0, [r3]
 401:nokia5110/LCD5110_Graph.c **** 	cfont.x_size=fontbyte(0);
 1549              		.loc 2 401 0
 1550 0004 0278     		ldrb	r2, [r0]
 1551 0006 1A71     		strb	r2, [r3, #4]
 402:nokia5110/LCD5110_Graph.c **** 	cfont.offset=fontbyte(2);
 1552              		.loc 2 402 0
 1553 0008 4278     		ldrb	r2, [r0, #1]
 1554 000a 5A71     		strb	r2, [r3, #5]
 403:nokia5110/LCD5110_Graph.c **** 	cfont.numchars=fontbyte(3);
 1555              		.loc 2 403 0
 1556 000c 8278     		ldrb	r2, [r0, #2]
 1557 000e 9A71     		strb	r2, [r3, #6]
 404:nokia5110/LCD5110_Graph.c **** 	cfont.inverted=0;
 1558              		.loc 2 404 0
 1559 0010 C278     		ldrb	r2, [r0, #3]
 1560 0012 DA71     		strb	r2, [r3, #7]
 405:nokia5110/LCD5110_Graph.c **** }
 1561              		.loc 2 405 0
 1562 0014 0022     		mov	r2, #0
 1563 0016 1A72     		strb	r2, [r3, #8]
 1564              		.loc 2 406 0
 1565 0018 7047     		bx	lr
 1566              	.L148:
 1567 001a C046     		.align	2
 1568              	.L147:
 1569 001c 00000000 		.word	cfont
 1570              		.cfi_endproc
 1571              	.LFE82:
 1572              		.size	setFont, .-setFont
 1573              		.section	.text.drawHLine,"ax",%progbits
 1574              		.align	1
 1575              		.global	drawHLine
 1576              		.code	16
 1577              		.thumb_func
 1578              		.type	drawHLine, %function
 1579              	drawHLine:
 1580              	.LFB83:
 407:nokia5110/LCD5110_Graph.c **** 
 408:nokia5110/LCD5110_Graph.c **** void drawHLine(int x, int y, int l)
 409:nokia5110/LCD5110_Graph.c **** {
 1581              		.loc 2 409 0
 1582              		.cfi_startproc
 1583              	.LVL174:
 1584 0000 30B5     		push	{r4, r5, lr}
 1585              		.cfi_def_cfa_offset 12
 1586              		.cfi_offset 4, -12
 1587              		.cfi_offset 5, -8
 1588              		.cfi_offset 14, -4
 410:nokia5110/LCD5110_Graph.c **** 	int by, bi;
 411:nokia5110/LCD5110_Graph.c **** 
 412:nokia5110/LCD5110_Graph.c **** 	if ((x>=0) && (x<84) && (y>=0) && (y<48))
 1589              		.loc 2 412 0
 1590 0002 5328     		cmp	r0, #83
 1591 0004 14D8     		bhi	.L149
 1592              		.loc 2 412 0 is_stmt 0 discriminator 2
 1593 0006 2F29     		cmp	r1, #47
ARM GAS  C:\Users\Petro\AppData\Local\Temp\cchQWd3Z.s 			page 39


 1594 0008 12D8     		bhi	.L149
 1595              	.LBB38:
 1596              	.LBB39:
 1597              	.LBB40:
 413:nokia5110/LCD5110_Graph.c **** 	{
 414:nokia5110/LCD5110_Graph.c ****         int cx;
 415:nokia5110/LCD5110_Graph.c **** 		for (cx=0; cx<l; cx++)
 416:nokia5110/LCD5110_Graph.c **** 		{
 417:nokia5110/LCD5110_Graph.c **** 			by=((y/8)*84)+x;
 1598              		.loc 2 417 0 is_stmt 1
 1599 000a 5423     		mov	r3, #84
 1600 000c CC10     		asr	r4, r1, #3
 1601 000e 6343     		mul	r3, r4
 1602 0010 1818     		add	r0, r3, r0
 1603              	.LVL175:
 418:nokia5110/LCD5110_Graph.c **** 			bi=y % 8;
 1604              		.loc 2 418 0
 1605 0012 0723     		mov	r3, #7
 1606 0014 1940     		and	r1, r3
 1607              	.LVL176:
 419:nokia5110/LCD5110_Graph.c **** 
 420:nokia5110/LCD5110_Graph.c **** 			scrbuf[by+cx] |= (1<<bi);
 1608              		.loc 2 420 0
 1609 0016 063B     		sub	r3, r3, #6
 1610 0018 8B40     		lsl	r3, r3, r1
 1611 001a D9B2     		uxtb	r1, r3
 1612 001c 0023     		mov	r3, #0
 1613              	.L152:
 1614              	.LVL177:
 415:nokia5110/LCD5110_Graph.c **** 		{
 1615              		.loc 2 415 0
 1616 001e 9342     		cmp	r3, r2
 1617 0020 06DA     		bge	.L149
 1618              	.LVL178:
 1619 0022 044C     		ldr	r4, .L154
 1620 0024 0419     		add	r4, r0, r4
 1621              		.loc 2 420 0
 1622 0026 E55C     		ldrb	r5, [r4, r3]
 1623 0028 0D43     		orr	r5, r1
 1624 002a E554     		strb	r5, [r4, r3]
 415:nokia5110/LCD5110_Graph.c **** 		{
 1625              		.loc 2 415 0
 1626 002c 0133     		add	r3, r3, #1
 1627              	.LVL179:
 1628 002e F6E7     		b	.L152
 1629              	.LVL180:
 1630              	.L149:
 1631              	.LBE40:
 1632              	.LBE39:
 1633              	.LBE38:
 421:nokia5110/LCD5110_Graph.c **** 		}
 422:nokia5110/LCD5110_Graph.c **** 	}
 423:nokia5110/LCD5110_Graph.c **** }
 1634              		.loc 2 423 0
 1635              		@ sp needed
 1636 0030 30BD     		pop	{r4, r5, pc}
 1637              	.L155:
ARM GAS  C:\Users\Petro\AppData\Local\Temp\cchQWd3Z.s 			page 40


 1638 0032 C046     		.align	2
 1639              	.L154:
 1640 0034 00000000 		.word	scrbuf
 1641              		.cfi_endproc
 1642              	.LFE83:
 1643              		.size	drawHLine, .-drawHLine
 1644              		.section	.text.clrHLine,"ax",%progbits
 1645              		.align	1
 1646              		.global	clrHLine
 1647              		.code	16
 1648              		.thumb_func
 1649              		.type	clrHLine, %function
 1650              	clrHLine:
 1651              	.LFB84:
 424:nokia5110/LCD5110_Graph.c **** 
 425:nokia5110/LCD5110_Graph.c **** void clrHLine(int x, int y, int l)
 426:nokia5110/LCD5110_Graph.c **** {
 1652              		.loc 2 426 0
 1653              		.cfi_startproc
 1654              	.LVL181:
 1655 0000 30B5     		push	{r4, r5, lr}
 1656              		.cfi_def_cfa_offset 12
 1657              		.cfi_offset 4, -12
 1658              		.cfi_offset 5, -8
 1659              		.cfi_offset 14, -4
 427:nokia5110/LCD5110_Graph.c **** 	int by, bi;
 428:nokia5110/LCD5110_Graph.c **** 
 429:nokia5110/LCD5110_Graph.c **** 	if ((x>=0) && (x<84) && (y>=0) && (y<48))
 1660              		.loc 2 429 0
 1661 0002 5328     		cmp	r0, #83
 1662 0004 15D8     		bhi	.L156
 1663              		.loc 2 429 0 is_stmt 0 discriminator 2
 1664 0006 2F29     		cmp	r1, #47
 1665 0008 13D8     		bhi	.L156
 1666              	.LBB45:
 1667              	.LBB46:
 1668              	.LBB47:
 430:nokia5110/LCD5110_Graph.c **** 	{
 431:nokia5110/LCD5110_Graph.c ****         int cx;
 432:nokia5110/LCD5110_Graph.c **** 		for (cx=0; cx<l; cx++)
 433:nokia5110/LCD5110_Graph.c **** 		{
 434:nokia5110/LCD5110_Graph.c **** 			by=((y/8)*84)+x;
 1669              		.loc 2 434 0 is_stmt 1
 1670 000a 5423     		mov	r3, #84
 1671 000c CC10     		asr	r4, r1, #3
 1672 000e 6343     		mul	r3, r4
 1673 0010 1818     		add	r0, r3, r0
 1674              	.LVL182:
 435:nokia5110/LCD5110_Graph.c **** 			bi=y % 8;
 1675              		.loc 2 435 0
 1676 0012 0723     		mov	r3, #7
 1677 0014 1940     		and	r1, r3
 1678              	.LVL183:
 436:nokia5110/LCD5110_Graph.c **** 
 437:nokia5110/LCD5110_Graph.c **** 			scrbuf[by+cx] &= ~(1<<bi);
 1679              		.loc 2 437 0
 1680 0016 063B     		sub	r3, r3, #6
ARM GAS  C:\Users\Petro\AppData\Local\Temp\cchQWd3Z.s 			page 41


 1681 0018 8B40     		lsl	r3, r3, r1
 1682 001a D943     		mvn	r1, r3
 1683 001c 0023     		mov	r3, #0
 1684 001e C9B2     		uxtb	r1, r1
 1685              	.L159:
 1686              	.LVL184:
 432:nokia5110/LCD5110_Graph.c **** 		{
 1687              		.loc 2 432 0
 1688 0020 9342     		cmp	r3, r2
 1689 0022 06DA     		bge	.L156
 1690              	.LVL185:
 1691 0024 034C     		ldr	r4, .L161
 1692 0026 0419     		add	r4, r0, r4
 1693              		.loc 2 437 0
 1694 0028 E55C     		ldrb	r5, [r4, r3]
 1695 002a 0D40     		and	r5, r1
 1696 002c E554     		strb	r5, [r4, r3]
 432:nokia5110/LCD5110_Graph.c **** 		{
 1697              		.loc 2 432 0
 1698 002e 0133     		add	r3, r3, #1
 1699              	.LVL186:
 1700 0030 F6E7     		b	.L159
 1701              	.LVL187:
 1702              	.L156:
 1703              	.LBE47:
 1704              	.LBE46:
 1705              	.LBE45:
 438:nokia5110/LCD5110_Graph.c **** 		}
 439:nokia5110/LCD5110_Graph.c **** 	}
 440:nokia5110/LCD5110_Graph.c **** }
 1706              		.loc 2 440 0
 1707              		@ sp needed
 1708 0032 30BD     		pop	{r4, r5, pc}
 1709              	.L162:
 1710              		.align	2
 1711              	.L161:
 1712 0034 00000000 		.word	scrbuf
 1713              		.cfi_endproc
 1714              	.LFE84:
 1715              		.size	clrHLine, .-clrHLine
 1716              		.section	.text.drawVLine,"ax",%progbits
 1717              		.align	1
 1718              		.global	drawVLine
 1719              		.code	16
 1720              		.thumb_func
 1721              		.type	drawVLine, %function
 1722              	drawVLine:
 1723              	.LFB85:
 441:nokia5110/LCD5110_Graph.c **** 
 442:nokia5110/LCD5110_Graph.c **** void drawVLine(int x, int y, int l)
 443:nokia5110/LCD5110_Graph.c **** {
 1724              		.loc 2 443 0
 1725              		.cfi_startproc
 1726              	.LVL188:
 1727 0000 F8B5     		push	{r3, r4, r5, r6, r7, lr}
 1728              		.cfi_def_cfa_offset 24
 1729              		.cfi_offset 3, -24
ARM GAS  C:\Users\Petro\AppData\Local\Temp\cchQWd3Z.s 			page 42


 1730              		.cfi_offset 4, -20
 1731              		.cfi_offset 5, -16
 1732              		.cfi_offset 6, -12
 1733              		.cfi_offset 7, -8
 1734              		.cfi_offset 14, -4
 1735              		.loc 2 443 0
 1736 0002 051C     		mov	r5, r0
 1737 0004 0E1C     		mov	r6, r1
 1738 0006 171C     		mov	r7, r2
 444:nokia5110/LCD5110_Graph.c **** 	int by, bi;
 445:nokia5110/LCD5110_Graph.c **** 
 446:nokia5110/LCD5110_Graph.c **** 	if ((x>=0) && (x<84) && (y>=0) && (y<48))
 1739              		.loc 2 446 0
 1740 0008 5328     		cmp	r0, #83
 1741 000a 0BD8     		bhi	.L163
 1742 000c 0024     		mov	r4, #0
 1743              		.loc 2 446 0 is_stmt 0 discriminator 2
 1744 000e 2F29     		cmp	r1, #47
 1745 0010 08D8     		bhi	.L163
 1746              	.LVL189:
 1747              	.L165:
 1748              	.LBB52:
 1749              	.LBB53:
 1750              	.LBB54:
 447:nokia5110/LCD5110_Graph.c **** 	{
 448:nokia5110/LCD5110_Graph.c ****         int cy;
 449:nokia5110/LCD5110_Graph.c **** 		for (cy=0; cy<l; cy++)
 1751              		.loc 2 449 0 is_stmt 1
 1752 0012 BC42     		cmp	r4, r7
 1753 0014 06DA     		bge	.L163
 1754 0016 A119     		add	r1, r4, r6
 450:nokia5110/LCD5110_Graph.c **** 		{
 451:nokia5110/LCD5110_Graph.c **** 			setPixel(x, y+cy);
 1755              		.loc 2 451 0
 1756 0018 A8B2     		uxth	r0, r5
 1757 001a 89B2     		uxth	r1, r1
 1758 001c FFF7FEFF 		bl	setPixel
 1759              	.LVL190:
 449:nokia5110/LCD5110_Graph.c **** 		{
 1760              		.loc 2 449 0
 1761 0020 0134     		add	r4, r4, #1
 1762              	.LVL191:
 1763 0022 F6E7     		b	.L165
 1764              	.LVL192:
 1765              	.L163:
 1766              	.LBE54:
 1767              	.LBE53:
 1768              	.LBE52:
 452:nokia5110/LCD5110_Graph.c **** 		}
 453:nokia5110/LCD5110_Graph.c **** 	}
 454:nokia5110/LCD5110_Graph.c **** }
 1769              		.loc 2 454 0
 1770              		@ sp needed
 1771              	.LVL193:
 1772              	.LVL194:
 1773              	.LVL195:
 1774 0024 F8BD     		pop	{r3, r4, r5, r6, r7, pc}
ARM GAS  C:\Users\Petro\AppData\Local\Temp\cchQWd3Z.s 			page 43


 1775              		.cfi_endproc
 1776              	.LFE85:
 1777              		.size	drawVLine, .-drawVLine
 1778              		.section	.text.clrVLine,"ax",%progbits
 1779              		.align	1
 1780              		.global	clrVLine
 1781              		.code	16
 1782              		.thumb_func
 1783              		.type	clrVLine, %function
 1784              	clrVLine:
 1785              	.LFB86:
 455:nokia5110/LCD5110_Graph.c **** 
 456:nokia5110/LCD5110_Graph.c **** void clrVLine(int x, int y, int l)
 457:nokia5110/LCD5110_Graph.c **** {
 1786              		.loc 2 457 0
 1787              		.cfi_startproc
 1788              	.LVL196:
 1789 0000 F8B5     		push	{r3, r4, r5, r6, r7, lr}
 1790              		.cfi_def_cfa_offset 24
 1791              		.cfi_offset 3, -24
 1792              		.cfi_offset 4, -20
 1793              		.cfi_offset 5, -16
 1794              		.cfi_offset 6, -12
 1795              		.cfi_offset 7, -8
 1796              		.cfi_offset 14, -4
 1797              		.loc 2 457 0
 1798 0002 051C     		mov	r5, r0
 1799 0004 0E1C     		mov	r6, r1
 1800 0006 171C     		mov	r7, r2
 458:nokia5110/LCD5110_Graph.c **** 	int by, bi;
 459:nokia5110/LCD5110_Graph.c **** 
 460:nokia5110/LCD5110_Graph.c **** 	if ((x>=0) && (x<84) && (y>=0) && (y<48))
 1801              		.loc 2 460 0
 1802 0008 5328     		cmp	r0, #83
 1803 000a 0BD8     		bhi	.L169
 1804 000c 0024     		mov	r4, #0
 1805              		.loc 2 460 0 is_stmt 0 discriminator 2
 1806 000e 2F29     		cmp	r1, #47
 1807 0010 08D8     		bhi	.L169
 1808              	.LVL197:
 1809              	.L171:
 1810              	.LBB59:
 1811              	.LBB60:
 1812              	.LBB61:
 461:nokia5110/LCD5110_Graph.c **** 	{
 462:nokia5110/LCD5110_Graph.c ****         int cy;
 463:nokia5110/LCD5110_Graph.c **** 		for (cy=0; cy<l; cy++)
 1813              		.loc 2 463 0 is_stmt 1
 1814 0012 BC42     		cmp	r4, r7
 1815 0014 06DA     		bge	.L169
 1816 0016 A119     		add	r1, r4, r6
 464:nokia5110/LCD5110_Graph.c **** 		{
 465:nokia5110/LCD5110_Graph.c **** 			clrPixel(x, y+cy);
 1817              		.loc 2 465 0
 1818 0018 A8B2     		uxth	r0, r5
 1819 001a 89B2     		uxth	r1, r1
 1820 001c FFF7FEFF 		bl	clrPixel
ARM GAS  C:\Users\Petro\AppData\Local\Temp\cchQWd3Z.s 			page 44


 1821              	.LVL198:
 463:nokia5110/LCD5110_Graph.c **** 		{
 1822              		.loc 2 463 0
 1823 0020 0134     		add	r4, r4, #1
 1824              	.LVL199:
 1825 0022 F6E7     		b	.L171
 1826              	.LVL200:
 1827              	.L169:
 1828              	.LBE61:
 1829              	.LBE60:
 1830              	.LBE59:
 466:nokia5110/LCD5110_Graph.c **** 		}
 467:nokia5110/LCD5110_Graph.c **** 	}
 468:nokia5110/LCD5110_Graph.c **** }
 1831              		.loc 2 468 0
 1832              		@ sp needed
 1833              	.LVL201:
 1834              	.LVL202:
 1835              	.LVL203:
 1836 0024 F8BD     		pop	{r3, r4, r5, r6, r7, pc}
 1837              		.cfi_endproc
 1838              	.LFE86:
 1839              		.size	clrVLine, .-clrVLine
 1840              		.global	__aeabi_i2d
 1841              		.global	__aeabi_ddiv
 1842              		.global	__aeabi_dadd
 1843              		.global	__aeabi_d2iz
 1844              		.global	__aeabi_dsub
 1845              		.global	__aeabi_i2f
 1846              		.global	__aeabi_f2d
 1847              		.global	__aeabi_fdiv
 1848              		.section	.text.drawLine,"ax",%progbits
 1849              		.align	1
 1850              		.global	drawLine
 1851              		.code	16
 1852              		.thumb_func
 1853              		.type	drawLine, %function
 1854              	drawLine:
 1855              	.LFB87:
 469:nokia5110/LCD5110_Graph.c **** 
 470:nokia5110/LCD5110_Graph.c **** void drawLine(int x1, int y1, int x2, int y2)
 471:nokia5110/LCD5110_Graph.c **** {
 1856              		.loc 2 471 0
 1857              		.cfi_startproc
 1858              	.LVL204:
 1859 0000 F0B5     		push	{r4, r5, r6, r7, lr}
 1860              		.cfi_def_cfa_offset 20
 1861              		.cfi_offset 4, -20
 1862              		.cfi_offset 5, -16
 1863              		.cfi_offset 6, -12
 1864              		.cfi_offset 7, -8
 1865              		.cfi_offset 14, -4
 1866 0002 85B0     		sub	sp, sp, #20
 1867              		.cfi_def_cfa_offset 40
 1868              		.loc 2 471 0
 1869 0004 1E1C     		mov	r6, r3
 1870 0006 041C     		mov	r4, r0
ARM GAS  C:\Users\Petro\AppData\Local\Temp\cchQWd3Z.s 			page 45


 1871 0008 0D1C     		mov	r5, r1
 1872 000a 0092     		str	r2, [sp]
 472:nokia5110/LCD5110_Graph.c **** 	int tmp;
 473:nokia5110/LCD5110_Graph.c **** 	double delta, tx, ty;
 474:nokia5110/LCD5110_Graph.c **** 	double m, b, dx, dy;
 475:nokia5110/LCD5110_Graph.c **** 	
 476:nokia5110/LCD5110_Graph.c **** 	if (((x2-x1)<0))
 1873              		.loc 2 476 0
 1874 000c 131A     		sub	r3, r2, r0
 1875              	.LVL205:
 1876 000e 03D5     		bpl	.L176
 477:nokia5110/LCD5110_Graph.c **** 	{
 478:nokia5110/LCD5110_Graph.c **** 		tmp=x1;
 479:nokia5110/LCD5110_Graph.c **** 		x1=x2;
 480:nokia5110/LCD5110_Graph.c **** 		x2=tmp;
 481:nokia5110/LCD5110_Graph.c **** 		tmp=y1;
 482:nokia5110/LCD5110_Graph.c **** 		y1=y2;
 1877              		.loc 2 482 0
 1878 0010 351C     		mov	r5, r6
 479:nokia5110/LCD5110_Graph.c **** 		x2=tmp;
 1879              		.loc 2 479 0
 1880 0012 141C     		mov	r4, r2
 483:nokia5110/LCD5110_Graph.c **** 		y2=tmp;
 1881              		.loc 2 483 0
 1882 0014 0E1C     		mov	r6, r1
 1883              	.LVL206:
 480:nokia5110/LCD5110_Graph.c **** 		tmp=y1;
 1884              		.loc 2 480 0
 1885 0016 0090     		str	r0, [sp]
 1886              	.LVL207:
 1887              	.L176:
 484:nokia5110/LCD5110_Graph.c **** 	}
 485:nokia5110/LCD5110_Graph.c ****     if (((y2-y1)<0))
 1888              		.loc 2 485 0
 1889 0018 731B     		sub	r3, r6, r5
 1890 001a 05D5     		bpl	.L177
 1891 001c 2B1C     		mov	r3, r5
 486:nokia5110/LCD5110_Graph.c **** 	{
 487:nokia5110/LCD5110_Graph.c **** 		tmp=x1;
 488:nokia5110/LCD5110_Graph.c **** 		x1=x2;
 489:nokia5110/LCD5110_Graph.c **** 		x2=tmp;
 490:nokia5110/LCD5110_Graph.c **** 		tmp=y1;
 491:nokia5110/LCD5110_Graph.c **** 		y1=y2;
 1892              		.loc 2 491 0
 1893 001e 351C     		mov	r5, r6
 1894              	.LVL208:
 492:nokia5110/LCD5110_Graph.c **** 		y2=tmp;
 1895              		.loc 2 492 0
 1896 0020 1E1C     		mov	r6, r3
 1897              	.LVL209:
 485:nokia5110/LCD5110_Graph.c **** 	{
 1898              		.loc 2 485 0
 1899 0022 231C     		mov	r3, r4
 1900              	.LVL210:
 488:nokia5110/LCD5110_Graph.c **** 		x2=tmp;
 1901              		.loc 2 488 0
 1902 0024 009C     		ldr	r4, [sp]
ARM GAS  C:\Users\Petro\AppData\Local\Temp\cchQWd3Z.s 			page 46


 1903              	.LVL211:
 489:nokia5110/LCD5110_Graph.c **** 		tmp=y1;
 1904              		.loc 2 489 0
 1905 0026 0093     		str	r3, [sp]
 1906              	.LVL212:
 1907              	.L177:
 493:nokia5110/LCD5110_Graph.c **** 	}
 494:nokia5110/LCD5110_Graph.c **** 
 495:nokia5110/LCD5110_Graph.c **** 	if (y1==y2)
 496:nokia5110/LCD5110_Graph.c **** 	{
 497:nokia5110/LCD5110_Graph.c **** 		if (x1>x2)
 1908              		.loc 2 497 0
 1909 0028 009B     		ldr	r3, [sp]
 495:nokia5110/LCD5110_Graph.c **** 	{
 1910              		.loc 2 495 0
 1911 002a B542     		cmp	r5, r6
 1912 002c 0BD1     		bne	.L178
 1913              		.loc 2 497 0
 1914 002e 9C42     		cmp	r4, r3
 1915 0030 02DD     		ble	.L179
 1916 0032 231C     		mov	r3, r4
 1917 0034 009C     		ldr	r4, [sp]
 1918              	.LVL213:
 1919 0036 0093     		str	r3, [sp]
 1920              	.LVL214:
 1921              	.L179:
 498:nokia5110/LCD5110_Graph.c **** 		{
 499:nokia5110/LCD5110_Graph.c **** 			tmp=x1;
 500:nokia5110/LCD5110_Graph.c **** 			x1=x2;
 501:nokia5110/LCD5110_Graph.c **** 			x2=tmp;
 502:nokia5110/LCD5110_Graph.c **** 		}
 503:nokia5110/LCD5110_Graph.c **** 		drawHLine(x1, y1, x2-x1);
 1922              		.loc 2 503 0
 1923 0038 009B     		ldr	r3, [sp]
 1924 003a 201C     		mov	r0, r4
 1925 003c 1A1B     		sub	r2, r3, r4
 1926 003e 291C     		mov	r1, r5
 1927 0040 FFF7FEFF 		bl	drawHLine
 1928              	.LVL215:
 1929 0044 92E0     		b	.L175
 1930              	.LVL216:
 1931              	.L178:
 504:nokia5110/LCD5110_Graph.c **** 	}
 505:nokia5110/LCD5110_Graph.c **** 	else if (x1==x2)
 1932              		.loc 2 505 0
 1933 0046 9C42     		cmp	r4, r3
 1934 0048 0AD1     		bne	.L181
 506:nokia5110/LCD5110_Graph.c **** 	{
 507:nokia5110/LCD5110_Graph.c **** 		if (y1>y2)
 1935              		.loc 2 507 0
 1936 004a B542     		cmp	r5, r6
 1937 004c 02DD     		ble	.L182
 1938 004e 2B1C     		mov	r3, r5
 1939              	.LVL217:
 1940 0050 351C     		mov	r5, r6
 1941              	.LVL218:
 1942 0052 1E1C     		mov	r6, r3
ARM GAS  C:\Users\Petro\AppData\Local\Temp\cchQWd3Z.s 			page 47


 1943              	.LVL219:
 1944              	.L182:
 508:nokia5110/LCD5110_Graph.c **** 		{
 509:nokia5110/LCD5110_Graph.c **** 			tmp=y1;
 510:nokia5110/LCD5110_Graph.c **** 			y1=y2;
 511:nokia5110/LCD5110_Graph.c **** 			y2=tmp;
 512:nokia5110/LCD5110_Graph.c **** 		}
 513:nokia5110/LCD5110_Graph.c **** 		drawVLine(x1, y1, y2-y1);
 1945              		.loc 2 513 0
 1946 0054 721B     		sub	r2, r6, r5
 1947 0056 201C     		mov	r0, r4
 1948 0058 291C     		mov	r1, r5
 1949 005a FFF7FEFF 		bl	drawVLine
 1950              	.LVL220:
 1951 005e 85E0     		b	.L175
 1952              	.LVL221:
 1953              	.L181:
 514:nokia5110/LCD5110_Graph.c **** 	}
 515:nokia5110/LCD5110_Graph.c **** 	else if (abs(x2-x1)>abs(y2-y1))
 1954              		.loc 2 515 0
 1955 0060 009B     		ldr	r3, [sp]
 1956              	.LVL222:
 1957 0062 771B     		sub	r7, r6, r5
 1958 0064 1B1B     		sub	r3, r3, r4
 1959 0066 D917     		asr	r1, r3, #31
 1960 0068 5A18     		add	r2, r3, r1
 1961 006a 4A40     		eor	r2, r1
 1962 006c F917     		asr	r1, r7, #31
 1963 006e 0293     		str	r3, [sp, #8]
 1964 0070 7B18     		add	r3, r7, r1
 1965 0072 4B40     		eor	r3, r1
 1966 0074 9A42     		cmp	r2, r3
 1967 0076 4BDD     		ble	.L183
 516:nokia5110/LCD5110_Graph.c **** 	{
 517:nokia5110/LCD5110_Graph.c **** 		delta=((double)(y2-y1)/(double)(x2-x1));
 1968              		.loc 2 517 0
 1969 0078 381C     		mov	r0, r7
 1970 007a FFF7FEFF 		bl	__aeabi_i2d
 1971              	.LVL223:
 1972 007e 061C     		mov	r6, r0
 1973              	.LVL224:
 1974 0080 0298     		ldr	r0, [sp, #8]
 1975 0082 0F1C     		mov	r7, r1
 1976 0084 FFF7FEFF 		bl	__aeabi_i2d
 1977              	.LVL225:
 1978 0088 0B1C     		mov	r3, r1
 1979 008a 021C     		mov	r2, r0
 1980 008c 391C     		mov	r1, r7
 1981 008e 301C     		mov	r0, r6
 1982 0090 FFF7FEFF 		bl	__aeabi_ddiv
 1983              	.LVL226:
 1984 0094 0290     		str	r0, [sp, #8]
 1985 0096 0391     		str	r1, [sp, #12]
 1986              	.LVL227:
 518:nokia5110/LCD5110_Graph.c **** 		ty=(double)(y1);
 1987              		.loc 2 518 0
 1988 0098 281C     		mov	r0, r5
ARM GAS  C:\Users\Petro\AppData\Local\Temp\cchQWd3Z.s 			page 48


 1989              	.LVL228:
 1990 009a FFF7FEFF 		bl	__aeabi_i2d
 1991              	.LVL229:
 519:nokia5110/LCD5110_Graph.c **** 		if (x1>x2)
 1992              		.loc 2 519 0
 1993 009e 009B     		ldr	r3, [sp]
 518:nokia5110/LCD5110_Graph.c **** 		ty=(double)(y1);
 1994              		.loc 2 518 0
 1995 00a0 061C     		mov	r6, r0
 1996 00a2 0F1C     		mov	r7, r1
 1997              	.LVL230:
 1998              		.loc 2 519 0
 1999 00a4 9C42     		cmp	r4, r3
 2000 00a6 19DD     		ble	.L186
 2001              	.LVL231:
 2002              	.L185:
 2003              	.LBB62:
 520:nokia5110/LCD5110_Graph.c **** 		{
 521:nokia5110/LCD5110_Graph.c ****             int i;
 522:nokia5110/LCD5110_Graph.c **** 			for (i=x1; i>=x2; i--)
 523:nokia5110/LCD5110_Graph.c **** 			{
 524:nokia5110/LCD5110_Graph.c **** 				setPixel(i, (int)(ty+0.5));
 2004              		.loc 2 524 0 discriminator 3
 2005 00a8 0022     		mov	r2, #0
 2006 00aa 314B     		ldr	r3, .L190
 2007 00ac 301C     		mov	r0, r6
 2008 00ae 391C     		mov	r1, r7
 2009 00b0 FFF7FEFF 		bl	__aeabi_dadd
 2010              	.LVL232:
 2011 00b4 FFF7FEFF 		bl	__aeabi_d2iz
 2012              	.LVL233:
 2013 00b8 A5B2     		uxth	r5, r4
 2014 00ba 81B2     		uxth	r1, r0
 2015 00bc 281C     		mov	r0, r5
 2016 00be FFF7FEFF 		bl	setPixel
 2017              	.LVL234:
 525:nokia5110/LCD5110_Graph.c ****         		ty=ty-delta;
 2018              		.loc 2 525 0 discriminator 3
 2019 00c2 029A     		ldr	r2, [sp, #8]
 2020 00c4 039B     		ldr	r3, [sp, #12]
 2021 00c6 301C     		mov	r0, r6
 2022 00c8 391C     		mov	r1, r7
 2023 00ca FFF7FEFF 		bl	__aeabi_dsub
 2024              	.LVL235:
 522:nokia5110/LCD5110_Graph.c **** 			{
 2025              		.loc 2 522 0 discriminator 3
 2026 00ce 009B     		ldr	r3, [sp]
 2027 00d0 013C     		sub	r4, r4, #1
 2028              	.LVL236:
 2029              		.loc 2 525 0 discriminator 3
 2030 00d2 061C     		mov	r6, r0
 2031              	.LVL237:
 2032 00d4 0F1C     		mov	r7, r1
 2033              	.LVL238:
 522:nokia5110/LCD5110_Graph.c **** 			{
 2034              		.loc 2 522 0 discriminator 3
 2035 00d6 9C42     		cmp	r4, r3
ARM GAS  C:\Users\Petro\AppData\Local\Temp\cchQWd3Z.s 			page 49


 2036 00d8 E6DA     		bge	.L185
 2037 00da 47E0     		b	.L175
 2038              	.LVL239:
 2039              	.L186:
 2040              	.LBE62:
 2041              	.LBB63:
 526:nokia5110/LCD5110_Graph.c **** 			}
 527:nokia5110/LCD5110_Graph.c **** 		}
 528:nokia5110/LCD5110_Graph.c **** 		else
 529:nokia5110/LCD5110_Graph.c **** 		{
 530:nokia5110/LCD5110_Graph.c ****             int i;
 531:nokia5110/LCD5110_Graph.c **** 			for (i=x1; i<=x2; i++)
 532:nokia5110/LCD5110_Graph.c **** 			{
 533:nokia5110/LCD5110_Graph.c **** 				setPixel(i, (int)(ty+0.5));
 2042              		.loc 2 533 0 discriminator 3
 2043 00dc 0022     		mov	r2, #0
 2044 00de 244B     		ldr	r3, .L190
 2045 00e0 301C     		mov	r0, r6
 2046 00e2 391C     		mov	r1, r7
 2047 00e4 FFF7FEFF 		bl	__aeabi_dadd
 2048              	.LVL240:
 2049 00e8 FFF7FEFF 		bl	__aeabi_d2iz
 2050              	.LVL241:
 2051 00ec A5B2     		uxth	r5, r4
 2052 00ee 81B2     		uxth	r1, r0
 2053 00f0 281C     		mov	r0, r5
 2054 00f2 FFF7FEFF 		bl	setPixel
 2055              	.LVL242:
 534:nokia5110/LCD5110_Graph.c ****         		ty=ty+delta;
 2056              		.loc 2 534 0 discriminator 3
 2057 00f6 029A     		ldr	r2, [sp, #8]
 2058 00f8 039B     		ldr	r3, [sp, #12]
 2059 00fa 301C     		mov	r0, r6
 2060 00fc 391C     		mov	r1, r7
 2061 00fe FFF7FEFF 		bl	__aeabi_dadd
 2062              	.LVL243:
 531:nokia5110/LCD5110_Graph.c **** 			{
 2063              		.loc 2 531 0 discriminator 3
 2064 0102 009B     		ldr	r3, [sp]
 2065 0104 0134     		add	r4, r4, #1
 2066              	.LVL244:
 2067              		.loc 2 534 0 discriminator 3
 2068 0106 061C     		mov	r6, r0
 2069              	.LVL245:
 2070 0108 0F1C     		mov	r7, r1
 2071              	.LVL246:
 531:nokia5110/LCD5110_Graph.c **** 			{
 2072              		.loc 2 531 0 discriminator 3
 2073 010a 9C42     		cmp	r4, r3
 2074 010c E6DD     		ble	.L186
 2075 010e 2DE0     		b	.L175
 2076              	.LVL247:
 2077              	.L183:
 2078              	.LBE63:
 535:nokia5110/LCD5110_Graph.c **** 			}
 536:nokia5110/LCD5110_Graph.c **** 		}
 537:nokia5110/LCD5110_Graph.c **** 	}
ARM GAS  C:\Users\Petro\AppData\Local\Temp\cchQWd3Z.s 			page 50


 538:nokia5110/LCD5110_Graph.c **** 	else
 539:nokia5110/LCD5110_Graph.c **** 	{
 540:nokia5110/LCD5110_Graph.c **** 		delta=((float)(x2-x1)/(float)(y2-y1));
 541:nokia5110/LCD5110_Graph.c **** 		tx=(float)(x1);
 542:nokia5110/LCD5110_Graph.c ****         if (y1>y2)
 2079              		.loc 2 542 0
 2080 0110 B542     		cmp	r5, r6
 2081 0112 2BDC     		bgt	.L175
 541:nokia5110/LCD5110_Graph.c ****         if (y1>y2)
 2082              		.loc 2 541 0
 2083 0114 201C     		mov	r0, r4
 2084 0116 FFF7FEFF 		bl	__aeabi_i2f
 2085              	.LVL248:
 2086 011a FFF7FEFF 		bl	__aeabi_f2d
 2087              	.LVL249:
 2088 011e 0090     		str	r0, [sp]
 2089 0120 0191     		str	r1, [sp, #4]
 2090              	.LVL250:
 2091              	.L188:
 2092              	.LBB64:
 543:nokia5110/LCD5110_Graph.c ****         {
 544:nokia5110/LCD5110_Graph.c ****             int i;
 545:nokia5110/LCD5110_Graph.c **** 			for (i=y2+1; i>y1; i--)
 546:nokia5110/LCD5110_Graph.c **** 			{
 547:nokia5110/LCD5110_Graph.c **** 		 		setPixel((int)(tx+0.5), i);
 548:nokia5110/LCD5110_Graph.c ****         		tx=tx+delta;
 549:nokia5110/LCD5110_Graph.c **** 			}
 550:nokia5110/LCD5110_Graph.c ****         }
 551:nokia5110/LCD5110_Graph.c ****         else
 552:nokia5110/LCD5110_Graph.c ****         {
 553:nokia5110/LCD5110_Graph.c ****             int i;
 554:nokia5110/LCD5110_Graph.c **** 			for (i=y1; i<y2+1; i++)
 2093              		.loc 2 554 0 discriminator 1
 2094 0122 AE42     		cmp	r6, r5
 2095 0124 22DB     		blt	.L175
 555:nokia5110/LCD5110_Graph.c **** 			{
 556:nokia5110/LCD5110_Graph.c **** 		 		setPixel((int)(tx+0.5), i);
 2096              		.loc 2 556 0 discriminator 3
 2097 0126 0098     		ldr	r0, [sp]
 2098 0128 0199     		ldr	r1, [sp, #4]
 2099 012a 0022     		mov	r2, #0
 2100 012c 104B     		ldr	r3, .L190
 2101 012e FFF7FEFF 		bl	__aeabi_dadd
 2102              	.LVL251:
 2103 0132 FFF7FEFF 		bl	__aeabi_d2iz
 2104              	.LVL252:
 2105 0136 A9B2     		uxth	r1, r5
 2106 0138 80B2     		uxth	r0, r0
 2107 013a FFF7FEFF 		bl	setPixel
 2108              	.LVL253:
 2109              	.LBE64:
 540:nokia5110/LCD5110_Graph.c **** 		tx=(float)(x1);
 2110              		.loc 2 540 0 discriminator 3
 2111 013e 0298     		ldr	r0, [sp, #8]
 2112 0140 FFF7FEFF 		bl	__aeabi_i2f
 2113              	.LVL254:
 2114 0144 041C     		add	r4, r0, #0
ARM GAS  C:\Users\Petro\AppData\Local\Temp\cchQWd3Z.s 			page 51


 2115 0146 381C     		mov	r0, r7
 2116 0148 FFF7FEFF 		bl	__aeabi_i2f
 2117              	.LVL255:
 2118 014c 011C     		add	r1, r0, #0
 2119 014e 201C     		add	r0, r4, #0
 2120 0150 FFF7FEFF 		bl	__aeabi_fdiv
 2121              	.LVL256:
 2122 0154 FFF7FEFF 		bl	__aeabi_f2d
 2123              	.LVL257:
 2124 0158 021C     		mov	r2, r0
 2125 015a 0B1C     		mov	r3, r1
 2126              	.LBB65:
 557:nokia5110/LCD5110_Graph.c ****         		tx=tx+delta;
 2127              		.loc 2 557 0 discriminator 3
 2128 015c 0098     		ldr	r0, [sp]
 2129 015e 0199     		ldr	r1, [sp, #4]
 2130 0160 FFF7FEFF 		bl	__aeabi_dadd
 2131              	.LVL258:
 554:nokia5110/LCD5110_Graph.c **** 			{
 2132              		.loc 2 554 0 discriminator 3
 2133 0164 0135     		add	r5, r5, #1
 2134              	.LVL259:
 2135              		.loc 2 557 0 discriminator 3
 2136 0166 0090     		str	r0, [sp]
 2137 0168 0191     		str	r1, [sp, #4]
 2138              	.LVL260:
 2139 016a DAE7     		b	.L188
 2140              	.LVL261:
 2141              	.L175:
 2142              	.LBE65:
 558:nokia5110/LCD5110_Graph.c **** 			}
 559:nokia5110/LCD5110_Graph.c ****         }
 560:nokia5110/LCD5110_Graph.c **** 	}
 561:nokia5110/LCD5110_Graph.c **** 
 562:nokia5110/LCD5110_Graph.c **** }
 2143              		.loc 2 562 0
 2144 016c 05B0     		add	sp, sp, #20
 2145              		@ sp needed
 2146 016e F0BD     		pop	{r4, r5, r6, r7, pc}
 2147              	.L191:
 2148              		.align	2
 2149              	.L190:
 2150 0170 0000E03F 		.word	1071644672
 2151              		.cfi_endproc
 2152              	.LFE87:
 2153              		.size	drawLine, .-drawLine
 2154              		.section	.text.clrLine,"ax",%progbits
 2155              		.align	1
 2156              		.global	clrLine
 2157              		.code	16
 2158              		.thumb_func
 2159              		.type	clrLine, %function
 2160              	clrLine:
 2161              	.LFB88:
 563:nokia5110/LCD5110_Graph.c **** 
 564:nokia5110/LCD5110_Graph.c **** void clrLine(int x1, int y1, int x2, int y2)
 565:nokia5110/LCD5110_Graph.c **** {
ARM GAS  C:\Users\Petro\AppData\Local\Temp\cchQWd3Z.s 			page 52


 2162              		.loc 2 565 0
 2163              		.cfi_startproc
 2164              	.LVL262:
 2165 0000 F0B5     		push	{r4, r5, r6, r7, lr}
 2166              		.cfi_def_cfa_offset 20
 2167              		.cfi_offset 4, -20
 2168              		.cfi_offset 5, -16
 2169              		.cfi_offset 6, -12
 2170              		.cfi_offset 7, -8
 2171              		.cfi_offset 14, -4
 2172 0002 85B0     		sub	sp, sp, #20
 2173              		.cfi_def_cfa_offset 40
 2174              		.loc 2 565 0
 2175 0004 1E1C     		mov	r6, r3
 2176 0006 041C     		mov	r4, r0
 2177 0008 0D1C     		mov	r5, r1
 2178 000a 0092     		str	r2, [sp]
 566:nokia5110/LCD5110_Graph.c **** 	int tmp;
 567:nokia5110/LCD5110_Graph.c **** 	double delta, tx, ty;
 568:nokia5110/LCD5110_Graph.c **** 	double m, b, dx, dy;
 569:nokia5110/LCD5110_Graph.c **** 	
 570:nokia5110/LCD5110_Graph.c **** 	if (((x2-x1)<0))
 2179              		.loc 2 570 0
 2180 000c 131A     		sub	r3, r2, r0
 2181              	.LVL263:
 2182 000e 03D5     		bpl	.L193
 571:nokia5110/LCD5110_Graph.c **** 	{
 572:nokia5110/LCD5110_Graph.c **** 		tmp=x1;
 573:nokia5110/LCD5110_Graph.c **** 		x1=x2;
 574:nokia5110/LCD5110_Graph.c **** 		x2=tmp;
 575:nokia5110/LCD5110_Graph.c **** 		tmp=y1;
 576:nokia5110/LCD5110_Graph.c **** 		y1=y2;
 2183              		.loc 2 576 0
 2184 0010 351C     		mov	r5, r6
 573:nokia5110/LCD5110_Graph.c **** 		x2=tmp;
 2185              		.loc 2 573 0
 2186 0012 141C     		mov	r4, r2
 577:nokia5110/LCD5110_Graph.c **** 		y2=tmp;
 2187              		.loc 2 577 0
 2188 0014 0E1C     		mov	r6, r1
 2189              	.LVL264:
 574:nokia5110/LCD5110_Graph.c **** 		tmp=y1;
 2190              		.loc 2 574 0
 2191 0016 0090     		str	r0, [sp]
 2192              	.LVL265:
 2193              	.L193:
 578:nokia5110/LCD5110_Graph.c **** 	}
 579:nokia5110/LCD5110_Graph.c ****     if (((y2-y1)<0))
 2194              		.loc 2 579 0
 2195 0018 731B     		sub	r3, r6, r5
 2196 001a 05D5     		bpl	.L194
 2197 001c 2B1C     		mov	r3, r5
 580:nokia5110/LCD5110_Graph.c **** 	{
 581:nokia5110/LCD5110_Graph.c **** 		tmp=x1;
 582:nokia5110/LCD5110_Graph.c **** 		x1=x2;
 583:nokia5110/LCD5110_Graph.c **** 		x2=tmp;
 584:nokia5110/LCD5110_Graph.c **** 		tmp=y1;
ARM GAS  C:\Users\Petro\AppData\Local\Temp\cchQWd3Z.s 			page 53


 585:nokia5110/LCD5110_Graph.c **** 		y1=y2;
 2198              		.loc 2 585 0
 2199 001e 351C     		mov	r5, r6
 2200              	.LVL266:
 586:nokia5110/LCD5110_Graph.c **** 		y2=tmp;
 2201              		.loc 2 586 0
 2202 0020 1E1C     		mov	r6, r3
 2203              	.LVL267:
 579:nokia5110/LCD5110_Graph.c **** 	{
 2204              		.loc 2 579 0
 2205 0022 231C     		mov	r3, r4
 2206              	.LVL268:
 582:nokia5110/LCD5110_Graph.c **** 		x2=tmp;
 2207              		.loc 2 582 0
 2208 0024 009C     		ldr	r4, [sp]
 2209              	.LVL269:
 583:nokia5110/LCD5110_Graph.c **** 		tmp=y1;
 2210              		.loc 2 583 0
 2211 0026 0093     		str	r3, [sp]
 2212              	.LVL270:
 2213              	.L194:
 587:nokia5110/LCD5110_Graph.c **** 	}
 588:nokia5110/LCD5110_Graph.c **** 
 589:nokia5110/LCD5110_Graph.c **** 	if (y1==y2)
 590:nokia5110/LCD5110_Graph.c **** 	{
 591:nokia5110/LCD5110_Graph.c **** 		if (x1>x2)
 2214              		.loc 2 591 0
 2215 0028 009B     		ldr	r3, [sp]
 589:nokia5110/LCD5110_Graph.c **** 	{
 2216              		.loc 2 589 0
 2217 002a B542     		cmp	r5, r6
 2218 002c 0BD1     		bne	.L195
 2219              		.loc 2 591 0
 2220 002e 9C42     		cmp	r4, r3
 2221 0030 02DD     		ble	.L196
 2222 0032 231C     		mov	r3, r4
 2223 0034 009C     		ldr	r4, [sp]
 2224              	.LVL271:
 2225 0036 0093     		str	r3, [sp]
 2226              	.LVL272:
 2227              	.L196:
 592:nokia5110/LCD5110_Graph.c **** 		{
 593:nokia5110/LCD5110_Graph.c **** 			tmp=x1;
 594:nokia5110/LCD5110_Graph.c **** 			x1=x2;
 595:nokia5110/LCD5110_Graph.c **** 			x2=tmp;
 596:nokia5110/LCD5110_Graph.c **** 		}
 597:nokia5110/LCD5110_Graph.c **** 		clrHLine(x1, y1, x2-x1);
 2228              		.loc 2 597 0
 2229 0038 009B     		ldr	r3, [sp]
 2230 003a 201C     		mov	r0, r4
 2231 003c 1A1B     		sub	r2, r3, r4
 2232 003e 291C     		mov	r1, r5
 2233 0040 FFF7FEFF 		bl	clrHLine
 2234              	.LVL273:
 2235 0044 92E0     		b	.L192
 2236              	.LVL274:
 2237              	.L195:
ARM GAS  C:\Users\Petro\AppData\Local\Temp\cchQWd3Z.s 			page 54


 598:nokia5110/LCD5110_Graph.c **** 	}
 599:nokia5110/LCD5110_Graph.c **** 	else if (x1==x2)
 2238              		.loc 2 599 0
 2239 0046 9C42     		cmp	r4, r3
 2240 0048 0AD1     		bne	.L198
 600:nokia5110/LCD5110_Graph.c **** 	{
 601:nokia5110/LCD5110_Graph.c **** 		if (y1>y2)
 2241              		.loc 2 601 0
 2242 004a B542     		cmp	r5, r6
 2243 004c 02DD     		ble	.L199
 2244 004e 2B1C     		mov	r3, r5
 2245              	.LVL275:
 2246 0050 351C     		mov	r5, r6
 2247              	.LVL276:
 2248 0052 1E1C     		mov	r6, r3
 2249              	.LVL277:
 2250              	.L199:
 602:nokia5110/LCD5110_Graph.c **** 		{
 603:nokia5110/LCD5110_Graph.c **** 			tmp=y1;
 604:nokia5110/LCD5110_Graph.c **** 			y1=y2;
 605:nokia5110/LCD5110_Graph.c **** 			y2=tmp;
 606:nokia5110/LCD5110_Graph.c **** 		}
 607:nokia5110/LCD5110_Graph.c **** 		clrVLine(x1, y1, y2-y1);
 2251              		.loc 2 607 0
 2252 0054 721B     		sub	r2, r6, r5
 2253 0056 201C     		mov	r0, r4
 2254 0058 291C     		mov	r1, r5
 2255 005a FFF7FEFF 		bl	clrVLine
 2256              	.LVL278:
 2257 005e 85E0     		b	.L192
 2258              	.LVL279:
 2259              	.L198:
 608:nokia5110/LCD5110_Graph.c **** 	}
 609:nokia5110/LCD5110_Graph.c **** 	else if (abs(x2-x1)>abs(y2-y1))
 2260              		.loc 2 609 0
 2261 0060 009B     		ldr	r3, [sp]
 2262              	.LVL280:
 2263 0062 771B     		sub	r7, r6, r5
 2264 0064 1B1B     		sub	r3, r3, r4
 2265 0066 D917     		asr	r1, r3, #31
 2266 0068 5A18     		add	r2, r3, r1
 2267 006a 4A40     		eor	r2, r1
 2268 006c F917     		asr	r1, r7, #31
 2269 006e 0293     		str	r3, [sp, #8]
 2270 0070 7B18     		add	r3, r7, r1
 2271 0072 4B40     		eor	r3, r1
 2272 0074 9A42     		cmp	r2, r3
 2273 0076 4BDD     		ble	.L200
 610:nokia5110/LCD5110_Graph.c **** 	{
 611:nokia5110/LCD5110_Graph.c **** 		delta=((double)(y2-y1))/((double)(x2-x1));
 2274              		.loc 2 611 0
 2275 0078 381C     		mov	r0, r7
 2276 007a FFF7FEFF 		bl	__aeabi_i2d
 2277              	.LVL281:
 2278 007e 061C     		mov	r6, r0
 2279              	.LVL282:
 2280 0080 0298     		ldr	r0, [sp, #8]
ARM GAS  C:\Users\Petro\AppData\Local\Temp\cchQWd3Z.s 			page 55


 2281 0082 0F1C     		mov	r7, r1
 2282 0084 FFF7FEFF 		bl	__aeabi_i2d
 2283              	.LVL283:
 2284 0088 0B1C     		mov	r3, r1
 2285 008a 021C     		mov	r2, r0
 2286 008c 391C     		mov	r1, r7
 2287 008e 301C     		mov	r0, r6
 2288 0090 FFF7FEFF 		bl	__aeabi_ddiv
 2289              	.LVL284:
 2290 0094 0290     		str	r0, [sp, #8]
 2291 0096 0391     		str	r1, [sp, #12]
 2292              	.LVL285:
 612:nokia5110/LCD5110_Graph.c **** 		ty=(double)(y1);
 2293              		.loc 2 612 0
 2294 0098 281C     		mov	r0, r5
 2295              	.LVL286:
 2296 009a FFF7FEFF 		bl	__aeabi_i2d
 2297              	.LVL287:
 613:nokia5110/LCD5110_Graph.c **** 		if (x1>x2)
 2298              		.loc 2 613 0
 2299 009e 009B     		ldr	r3, [sp]
 612:nokia5110/LCD5110_Graph.c **** 		ty=(double)(y1);
 2300              		.loc 2 612 0
 2301 00a0 061C     		mov	r6, r0
 2302 00a2 0F1C     		mov	r7, r1
 2303              	.LVL288:
 2304              		.loc 2 613 0
 2305 00a4 9C42     		cmp	r4, r3
 2306 00a6 19DD     		ble	.L203
 2307              	.LVL289:
 2308              	.L202:
 2309              	.LBB66:
 614:nokia5110/LCD5110_Graph.c **** 		{
 615:nokia5110/LCD5110_Graph.c ****             int i;
 616:nokia5110/LCD5110_Graph.c **** 			for ( i=x1; i>=x2; i--)
 617:nokia5110/LCD5110_Graph.c **** 			{
 618:nokia5110/LCD5110_Graph.c **** 				clrPixel(i, (int)(ty+0.5));
 2310              		.loc 2 618 0 discriminator 3
 2311 00a8 0022     		mov	r2, #0
 2312 00aa 314B     		ldr	r3, .L207
 2313 00ac 301C     		mov	r0, r6
 2314 00ae 391C     		mov	r1, r7
 2315 00b0 FFF7FEFF 		bl	__aeabi_dadd
 2316              	.LVL290:
 2317 00b4 FFF7FEFF 		bl	__aeabi_d2iz
 2318              	.LVL291:
 2319 00b8 A5B2     		uxth	r5, r4
 2320 00ba 81B2     		uxth	r1, r0
 2321 00bc 281C     		mov	r0, r5
 2322 00be FFF7FEFF 		bl	clrPixel
 2323              	.LVL292:
 619:nokia5110/LCD5110_Graph.c ****         		ty=ty-delta;
 2324              		.loc 2 619 0 discriminator 3
 2325 00c2 029A     		ldr	r2, [sp, #8]
 2326 00c4 039B     		ldr	r3, [sp, #12]
 2327 00c6 301C     		mov	r0, r6
 2328 00c8 391C     		mov	r1, r7
ARM GAS  C:\Users\Petro\AppData\Local\Temp\cchQWd3Z.s 			page 56


 2329 00ca FFF7FEFF 		bl	__aeabi_dsub
 2330              	.LVL293:
 616:nokia5110/LCD5110_Graph.c **** 			{
 2331              		.loc 2 616 0 discriminator 3
 2332 00ce 009B     		ldr	r3, [sp]
 2333 00d0 013C     		sub	r4, r4, #1
 2334              	.LVL294:
 2335              		.loc 2 619 0 discriminator 3
 2336 00d2 061C     		mov	r6, r0
 2337              	.LVL295:
 2338 00d4 0F1C     		mov	r7, r1
 2339              	.LVL296:
 616:nokia5110/LCD5110_Graph.c **** 			{
 2340              		.loc 2 616 0 discriminator 3
 2341 00d6 9C42     		cmp	r4, r3
 2342 00d8 E6DA     		bge	.L202
 2343 00da 47E0     		b	.L192
 2344              	.LVL297:
 2345              	.L203:
 2346              	.LBE66:
 2347              	.LBB67:
 620:nokia5110/LCD5110_Graph.c **** 			}
 621:nokia5110/LCD5110_Graph.c **** 		}
 622:nokia5110/LCD5110_Graph.c **** 		else
 623:nokia5110/LCD5110_Graph.c **** 		{
 624:nokia5110/LCD5110_Graph.c ****             int i;
 625:nokia5110/LCD5110_Graph.c **** 			for (i=x1; i<=x2; i++)
 626:nokia5110/LCD5110_Graph.c **** 			{
 627:nokia5110/LCD5110_Graph.c **** 				clrPixel(i, (int)(ty+0.5));
 2348              		.loc 2 627 0 discriminator 3
 2349 00dc 0022     		mov	r2, #0
 2350 00de 244B     		ldr	r3, .L207
 2351 00e0 301C     		mov	r0, r6
 2352 00e2 391C     		mov	r1, r7
 2353 00e4 FFF7FEFF 		bl	__aeabi_dadd
 2354              	.LVL298:
 2355 00e8 FFF7FEFF 		bl	__aeabi_d2iz
 2356              	.LVL299:
 2357 00ec A5B2     		uxth	r5, r4
 2358 00ee 81B2     		uxth	r1, r0
 2359 00f0 281C     		mov	r0, r5
 2360 00f2 FFF7FEFF 		bl	clrPixel
 2361              	.LVL300:
 628:nokia5110/LCD5110_Graph.c ****         		ty=ty+delta;
 2362              		.loc 2 628 0 discriminator 3
 2363 00f6 029A     		ldr	r2, [sp, #8]
 2364 00f8 039B     		ldr	r3, [sp, #12]
 2365 00fa 301C     		mov	r0, r6
 2366 00fc 391C     		mov	r1, r7
 2367 00fe FFF7FEFF 		bl	__aeabi_dadd
 2368              	.LVL301:
 625:nokia5110/LCD5110_Graph.c **** 			{
 2369              		.loc 2 625 0 discriminator 3
 2370 0102 009B     		ldr	r3, [sp]
 2371 0104 0134     		add	r4, r4, #1
 2372              	.LVL302:
 2373              		.loc 2 628 0 discriminator 3
ARM GAS  C:\Users\Petro\AppData\Local\Temp\cchQWd3Z.s 			page 57


 2374 0106 061C     		mov	r6, r0
 2375              	.LVL303:
 2376 0108 0F1C     		mov	r7, r1
 2377              	.LVL304:
 625:nokia5110/LCD5110_Graph.c **** 			{
 2378              		.loc 2 625 0 discriminator 3
 2379 010a 9C42     		cmp	r4, r3
 2380 010c E6DD     		ble	.L203
 2381 010e 2DE0     		b	.L192
 2382              	.LVL305:
 2383              	.L200:
 2384              	.LBE67:
 629:nokia5110/LCD5110_Graph.c **** 			}
 630:nokia5110/LCD5110_Graph.c **** 		}
 631:nokia5110/LCD5110_Graph.c **** 	}
 632:nokia5110/LCD5110_Graph.c **** 	else
 633:nokia5110/LCD5110_Graph.c **** 	{
 634:nokia5110/LCD5110_Graph.c **** 		delta=((float)(x2-x1)/(float)(y2-y1));
 635:nokia5110/LCD5110_Graph.c **** 		tx=(float)(x1);
 636:nokia5110/LCD5110_Graph.c ****         if (y1>y2)
 2385              		.loc 2 636 0
 2386 0110 B542     		cmp	r5, r6
 2387 0112 2BDC     		bgt	.L192
 635:nokia5110/LCD5110_Graph.c ****         if (y1>y2)
 2388              		.loc 2 635 0
 2389 0114 201C     		mov	r0, r4
 2390 0116 FFF7FEFF 		bl	__aeabi_i2f
 2391              	.LVL306:
 2392 011a FFF7FEFF 		bl	__aeabi_f2d
 2393              	.LVL307:
 2394 011e 0090     		str	r0, [sp]
 2395 0120 0191     		str	r1, [sp, #4]
 2396              	.LVL308:
 2397              	.L205:
 2398              	.LBB68:
 637:nokia5110/LCD5110_Graph.c ****         {
 638:nokia5110/LCD5110_Graph.c ****             int i;
 639:nokia5110/LCD5110_Graph.c **** 			for (i=y2+1; i>y1; i--)
 640:nokia5110/LCD5110_Graph.c **** 			{
 641:nokia5110/LCD5110_Graph.c **** 		 		clrPixel((int)(tx+0.5), i);
 642:nokia5110/LCD5110_Graph.c ****         		tx=tx+delta;
 643:nokia5110/LCD5110_Graph.c **** 			}
 644:nokia5110/LCD5110_Graph.c ****         }
 645:nokia5110/LCD5110_Graph.c ****         else
 646:nokia5110/LCD5110_Graph.c ****         {
 647:nokia5110/LCD5110_Graph.c ****             int i;
 648:nokia5110/LCD5110_Graph.c **** 			for (i=y1; i<y2+1; i++)
 2399              		.loc 2 648 0 discriminator 1
 2400 0122 AE42     		cmp	r6, r5
 2401 0124 22DB     		blt	.L192
 649:nokia5110/LCD5110_Graph.c **** 			{
 650:nokia5110/LCD5110_Graph.c **** 		 		clrPixel((int)(tx+0.5), i);
 2402              		.loc 2 650 0 discriminator 3
 2403 0126 0098     		ldr	r0, [sp]
 2404 0128 0199     		ldr	r1, [sp, #4]
 2405 012a 0022     		mov	r2, #0
 2406 012c 104B     		ldr	r3, .L207
ARM GAS  C:\Users\Petro\AppData\Local\Temp\cchQWd3Z.s 			page 58


 2407 012e FFF7FEFF 		bl	__aeabi_dadd
 2408              	.LVL309:
 2409 0132 FFF7FEFF 		bl	__aeabi_d2iz
 2410              	.LVL310:
 2411 0136 A9B2     		uxth	r1, r5
 2412 0138 80B2     		uxth	r0, r0
 2413 013a FFF7FEFF 		bl	clrPixel
 2414              	.LVL311:
 2415              	.LBE68:
 634:nokia5110/LCD5110_Graph.c **** 		tx=(float)(x1);
 2416              		.loc 2 634 0 discriminator 3
 2417 013e 0298     		ldr	r0, [sp, #8]
 2418 0140 FFF7FEFF 		bl	__aeabi_i2f
 2419              	.LVL312:
 2420 0144 041C     		add	r4, r0, #0
 2421 0146 381C     		mov	r0, r7
 2422 0148 FFF7FEFF 		bl	__aeabi_i2f
 2423              	.LVL313:
 2424 014c 011C     		add	r1, r0, #0
 2425 014e 201C     		add	r0, r4, #0
 2426 0150 FFF7FEFF 		bl	__aeabi_fdiv
 2427              	.LVL314:
 2428 0154 FFF7FEFF 		bl	__aeabi_f2d
 2429              	.LVL315:
 2430 0158 021C     		mov	r2, r0
 2431 015a 0B1C     		mov	r3, r1
 2432              	.LBB69:
 651:nokia5110/LCD5110_Graph.c ****         		tx=tx+delta;
 2433              		.loc 2 651 0 discriminator 3
 2434 015c 0098     		ldr	r0, [sp]
 2435 015e 0199     		ldr	r1, [sp, #4]
 2436 0160 FFF7FEFF 		bl	__aeabi_dadd
 2437              	.LVL316:
 648:nokia5110/LCD5110_Graph.c **** 			{
 2438              		.loc 2 648 0 discriminator 3
 2439 0164 0135     		add	r5, r5, #1
 2440              	.LVL317:
 2441              		.loc 2 651 0 discriminator 3
 2442 0166 0090     		str	r0, [sp]
 2443 0168 0191     		str	r1, [sp, #4]
 2444              	.LVL318:
 2445 016a DAE7     		b	.L205
 2446              	.LVL319:
 2447              	.L192:
 2448              	.LBE69:
 652:nokia5110/LCD5110_Graph.c **** 			}
 653:nokia5110/LCD5110_Graph.c ****         }
 654:nokia5110/LCD5110_Graph.c **** 	}
 655:nokia5110/LCD5110_Graph.c **** 
 656:nokia5110/LCD5110_Graph.c **** }
 2449              		.loc 2 656 0
 2450 016c 05B0     		add	sp, sp, #20
 2451              		@ sp needed
 2452 016e F0BD     		pop	{r4, r5, r6, r7, pc}
 2453              	.L208:
 2454              		.align	2
 2455              	.L207:
ARM GAS  C:\Users\Petro\AppData\Local\Temp\cchQWd3Z.s 			page 59


 2456 0170 0000E03F 		.word	1071644672
 2457              		.cfi_endproc
 2458              	.LFE88:
 2459              		.size	clrLine, .-clrLine
 2460              		.section	.text.drawRect,"ax",%progbits
 2461              		.align	1
 2462              		.global	drawRect
 2463              		.code	16
 2464              		.thumb_func
 2465              		.type	drawRect, %function
 2466              	drawRect:
 2467              	.LFB89:
 657:nokia5110/LCD5110_Graph.c **** 
 658:nokia5110/LCD5110_Graph.c **** void drawRect(int x1, int y1, int x2, int y2)
 659:nokia5110/LCD5110_Graph.c **** {
 2468              		.loc 2 659 0
 2469              		.cfi_startproc
 2470              	.LVL320:
 2471 0000 F7B5     		push	{r0, r1, r2, r4, r5, r6, r7, lr}
 2472              		.cfi_def_cfa_offset 32
 2473              		.cfi_offset 0, -32
 2474              		.cfi_offset 1, -28
 2475              		.cfi_offset 2, -24
 2476              		.cfi_offset 4, -20
 2477              		.cfi_offset 5, -16
 2478              		.cfi_offset 6, -12
 2479              		.cfi_offset 7, -8
 2480              		.cfi_offset 14, -4
 2481              		.loc 2 659 0
 2482 0002 051C     		mov	r5, r0
 2483 0004 0C1C     		mov	r4, r1
 2484 0006 161C     		mov	r6, r2
 2485 0008 1F1C     		mov	r7, r3
 660:nokia5110/LCD5110_Graph.c **** 	int tmp;
 661:nokia5110/LCD5110_Graph.c **** 
 662:nokia5110/LCD5110_Graph.c **** 	if (x1>x2)
 2486              		.loc 2 662 0
 2487 000a 9042     		cmp	r0, r2
 2488 000c 01DD     		ble	.L210
 2489 000e 151C     		mov	r5, r2
 2490 0010 061C     		mov	r6, r0
 2491              	.L210:
 2492              	.LVL321:
 663:nokia5110/LCD5110_Graph.c **** 	{
 664:nokia5110/LCD5110_Graph.c **** 		tmp=x1;
 665:nokia5110/LCD5110_Graph.c **** 		x1=x2;
 666:nokia5110/LCD5110_Graph.c **** 		x2=tmp;
 667:nokia5110/LCD5110_Graph.c **** 	}
 668:nokia5110/LCD5110_Graph.c **** 	if (y1>y2)
 2493              		.loc 2 668 0
 2494 0012 BC42     		cmp	r4, r7
 2495 0014 02DD     		ble	.L211
 2496 0016 231C     		mov	r3, r4
 2497              	.LVL322:
 2498 0018 3C1C     		mov	r4, r7
 2499 001a 1F1C     		mov	r7, r3
 2500              	.LVL323:
ARM GAS  C:\Users\Petro\AppData\Local\Temp\cchQWd3Z.s 			page 60


 2501              	.L211:
 669:nokia5110/LCD5110_Graph.c **** 	{
 670:nokia5110/LCD5110_Graph.c **** 		tmp=y1;
 671:nokia5110/LCD5110_Graph.c **** 		y1=y2;
 672:nokia5110/LCD5110_Graph.c **** 		y2=tmp;
 673:nokia5110/LCD5110_Graph.c **** 	}
 674:nokia5110/LCD5110_Graph.c **** 
 675:nokia5110/LCD5110_Graph.c **** 	drawHLine(x1, y1, x2-x1);
 2502              		.loc 2 675 0
 2503 001c 731B     		sub	r3, r6, r5
 2504 001e 1A1C     		mov	r2, r3
 2505 0020 281C     		mov	r0, r5
 2506 0022 211C     		mov	r1, r4
 2507 0024 0193     		str	r3, [sp, #4]
 2508 0026 FFF7FEFF 		bl	drawHLine
 2509              	.LVL324:
 676:nokia5110/LCD5110_Graph.c **** 	drawHLine(x1, y2, x2-x1);
 2510              		.loc 2 676 0
 2511 002a 281C     		mov	r0, r5
 2512 002c 391C     		mov	r1, r7
 2513 002e 019A     		ldr	r2, [sp, #4]
 677:nokia5110/LCD5110_Graph.c **** 	drawVLine(x1, y1, y2-y1);
 2514              		.loc 2 677 0
 2515 0030 3F1B     		sub	r7, r7, r4
 2516              	.LVL325:
 676:nokia5110/LCD5110_Graph.c **** 	drawHLine(x1, y2, x2-x1);
 2517              		.loc 2 676 0
 2518 0032 FFF7FEFF 		bl	drawHLine
 2519              	.LVL326:
 2520              		.loc 2 677 0
 2521 0036 281C     		mov	r0, r5
 2522 0038 3A1C     		mov	r2, r7
 2523 003a 211C     		mov	r1, r4
 2524 003c FFF7FEFF 		bl	drawVLine
 2525              	.LVL327:
 678:nokia5110/LCD5110_Graph.c **** 	drawVLine(x2, y1, y2-y1+1);
 2526              		.loc 2 678 0
 2527 0040 7A1C     		add	r2, r7, #1
 2528 0042 301C     		mov	r0, r6
 2529 0044 211C     		mov	r1, r4
 2530 0046 FFF7FEFF 		bl	drawVLine
 2531              	.LVL328:
 679:nokia5110/LCD5110_Graph.c **** }
 2532              		.loc 2 679 0
 2533              		@ sp needed
 2534              	.LVL329:
 2535              	.LVL330:
 2536              	.LVL331:
 2537 004a F7BD     		pop	{r0, r1, r2, r4, r5, r6, r7, pc}
 2538              		.cfi_endproc
 2539              	.LFE89:
 2540              		.size	drawRect, .-drawRect
 2541              		.section	.text.clrRect,"ax",%progbits
 2542              		.align	1
 2543              		.global	clrRect
 2544              		.code	16
 2545              		.thumb_func
ARM GAS  C:\Users\Petro\AppData\Local\Temp\cchQWd3Z.s 			page 61


 2546              		.type	clrRect, %function
 2547              	clrRect:
 2548              	.LFB90:
 680:nokia5110/LCD5110_Graph.c **** 
 681:nokia5110/LCD5110_Graph.c **** void clrRect(int x1, int y1, int x2, int y2)
 682:nokia5110/LCD5110_Graph.c **** {
 2549              		.loc 2 682 0
 2550              		.cfi_startproc
 2551              	.LVL332:
 2552 0000 F7B5     		push	{r0, r1, r2, r4, r5, r6, r7, lr}
 2553              		.cfi_def_cfa_offset 32
 2554              		.cfi_offset 0, -32
 2555              		.cfi_offset 1, -28
 2556              		.cfi_offset 2, -24
 2557              		.cfi_offset 4, -20
 2558              		.cfi_offset 5, -16
 2559              		.cfi_offset 6, -12
 2560              		.cfi_offset 7, -8
 2561              		.cfi_offset 14, -4
 2562              		.loc 2 682 0
 2563 0002 051C     		mov	r5, r0
 2564 0004 0C1C     		mov	r4, r1
 2565 0006 161C     		mov	r6, r2
 2566 0008 1F1C     		mov	r7, r3
 683:nokia5110/LCD5110_Graph.c **** 	int tmp;
 684:nokia5110/LCD5110_Graph.c **** 
 685:nokia5110/LCD5110_Graph.c **** 	if (x1>x2)
 2567              		.loc 2 685 0
 2568 000a 9042     		cmp	r0, r2
 2569 000c 01DD     		ble	.L213
 2570 000e 151C     		mov	r5, r2
 2571 0010 061C     		mov	r6, r0
 2572              	.L213:
 2573              	.LVL333:
 686:nokia5110/LCD5110_Graph.c **** 	{
 687:nokia5110/LCD5110_Graph.c **** 		tmp=x1;
 688:nokia5110/LCD5110_Graph.c **** 		x1=x2;
 689:nokia5110/LCD5110_Graph.c **** 		x2=tmp;
 690:nokia5110/LCD5110_Graph.c **** 	}
 691:nokia5110/LCD5110_Graph.c **** 	if (y1>y2)
 2574              		.loc 2 691 0
 2575 0012 BC42     		cmp	r4, r7
 2576 0014 02DD     		ble	.L214
 2577 0016 231C     		mov	r3, r4
 2578              	.LVL334:
 2579 0018 3C1C     		mov	r4, r7
 2580 001a 1F1C     		mov	r7, r3
 2581              	.LVL335:
 2582              	.L214:
 692:nokia5110/LCD5110_Graph.c **** 	{
 693:nokia5110/LCD5110_Graph.c **** 		tmp=y1;
 694:nokia5110/LCD5110_Graph.c **** 		y1=y2;
 695:nokia5110/LCD5110_Graph.c **** 		y2=tmp;
 696:nokia5110/LCD5110_Graph.c **** 	}
 697:nokia5110/LCD5110_Graph.c **** 
 698:nokia5110/LCD5110_Graph.c **** 	clrHLine(x1, y1, x2-x1);
 2583              		.loc 2 698 0
ARM GAS  C:\Users\Petro\AppData\Local\Temp\cchQWd3Z.s 			page 62


 2584 001c 731B     		sub	r3, r6, r5
 2585 001e 1A1C     		mov	r2, r3
 2586 0020 281C     		mov	r0, r5
 2587 0022 211C     		mov	r1, r4
 2588 0024 0193     		str	r3, [sp, #4]
 2589 0026 FFF7FEFF 		bl	clrHLine
 2590              	.LVL336:
 699:nokia5110/LCD5110_Graph.c **** 	clrHLine(x1, y2, x2-x1);
 2591              		.loc 2 699 0
 2592 002a 281C     		mov	r0, r5
 2593 002c 391C     		mov	r1, r7
 2594 002e 019A     		ldr	r2, [sp, #4]
 700:nokia5110/LCD5110_Graph.c **** 	clrVLine(x1, y1, y2-y1);
 2595              		.loc 2 700 0
 2596 0030 3F1B     		sub	r7, r7, r4
 2597              	.LVL337:
 699:nokia5110/LCD5110_Graph.c **** 	clrHLine(x1, y2, x2-x1);
 2598              		.loc 2 699 0
 2599 0032 FFF7FEFF 		bl	clrHLine
 2600              	.LVL338:
 2601              		.loc 2 700 0
 2602 0036 281C     		mov	r0, r5
 2603 0038 3A1C     		mov	r2, r7
 2604 003a 211C     		mov	r1, r4
 2605 003c FFF7FEFF 		bl	clrVLine
 2606              	.LVL339:
 701:nokia5110/LCD5110_Graph.c **** 	clrVLine(x2, y1, y2-y1+1);
 2607              		.loc 2 701 0
 2608 0040 7A1C     		add	r2, r7, #1
 2609 0042 301C     		mov	r0, r6
 2610 0044 211C     		mov	r1, r4
 2611 0046 FFF7FEFF 		bl	clrVLine
 2612              	.LVL340:
 702:nokia5110/LCD5110_Graph.c **** }
 2613              		.loc 2 702 0
 2614              		@ sp needed
 2615              	.LVL341:
 2616              	.LVL342:
 2617              	.LVL343:
 2618 004a F7BD     		pop	{r0, r1, r2, r4, r5, r6, r7, pc}
 2619              		.cfi_endproc
 2620              	.LFE90:
 2621              		.size	clrRect, .-clrRect
 2622              		.section	.text.drawRoundRect,"ax",%progbits
 2623              		.align	1
 2624              		.global	drawRoundRect
 2625              		.code	16
 2626              		.thumb_func
 2627              		.type	drawRoundRect, %function
 2628              	drawRoundRect:
 2629              	.LFB91:
 703:nokia5110/LCD5110_Graph.c **** 
 704:nokia5110/LCD5110_Graph.c **** void drawRoundRect(int x1, int y1, int x2, int y2)
 705:nokia5110/LCD5110_Graph.c **** {
 2630              		.loc 2 705 0
 2631              		.cfi_startproc
 2632              	.LVL344:
ARM GAS  C:\Users\Petro\AppData\Local\Temp\cchQWd3Z.s 			page 63


 2633 0000 F0B5     		push	{r4, r5, r6, r7, lr}
 2634              		.cfi_def_cfa_offset 20
 2635              		.cfi_offset 4, -20
 2636              		.cfi_offset 5, -16
 2637              		.cfi_offset 6, -12
 2638              		.cfi_offset 7, -8
 2639              		.cfi_offset 14, -4
 2640 0002 87B0     		sub	sp, sp, #28
 2641              		.cfi_def_cfa_offset 48
 2642              		.loc 2 705 0
 2643 0004 051C     		mov	r5, r0
 2644 0006 0C1C     		mov	r4, r1
 2645 0008 0192     		str	r2, [sp, #4]
 2646 000a 0293     		str	r3, [sp, #8]
 706:nokia5110/LCD5110_Graph.c **** 	int tmp;
 707:nokia5110/LCD5110_Graph.c **** 
 708:nokia5110/LCD5110_Graph.c **** 	if (x1>x2)
 2647              		.loc 2 708 0
 2648 000c 9042     		cmp	r0, r2
 2649 000e 01DD     		ble	.L216
 2650 0010 151C     		mov	r5, r2
 2651 0012 0190     		str	r0, [sp, #4]
 2652              	.L216:
 2653              	.LVL345:
 709:nokia5110/LCD5110_Graph.c **** 	{
 710:nokia5110/LCD5110_Graph.c **** 		tmp=x1;
 711:nokia5110/LCD5110_Graph.c **** 		x1=x2;
 712:nokia5110/LCD5110_Graph.c **** 		x2=tmp;
 713:nokia5110/LCD5110_Graph.c **** 	}
 714:nokia5110/LCD5110_Graph.c **** 	if (y1>y2)
 2654              		.loc 2 714 0
 2655 0014 029B     		ldr	r3, [sp, #8]
 2656              	.LVL346:
 2657 0016 9C42     		cmp	r4, r3
 2658 0018 02DD     		ble	.L217
 2659 001a 231C     		mov	r3, r4
 2660 001c 029C     		ldr	r4, [sp, #8]
 2661 001e 0293     		str	r3, [sp, #8]
 2662              	.LVL347:
 2663              	.L217:
 715:nokia5110/LCD5110_Graph.c **** 	{
 716:nokia5110/LCD5110_Graph.c **** 		tmp=y1;
 717:nokia5110/LCD5110_Graph.c **** 		y1=y2;
 718:nokia5110/LCD5110_Graph.c **** 		y2=tmp;
 719:nokia5110/LCD5110_Graph.c **** 	}
 720:nokia5110/LCD5110_Graph.c **** 	if ((x2-x1)>4 && (y2-y1)>4)
 2664              		.loc 2 720 0
 2665 0020 019B     		ldr	r3, [sp, #4]
 2666 0022 5B1B     		sub	r3, r3, r5
 2667 0024 0393     		str	r3, [sp, #12]
 2668 0026 042B     		cmp	r3, #4
 2669 0028 39DD     		ble	.L215
 2670              		.loc 2 720 0 is_stmt 0 discriminator 1
 2671 002a 029B     		ldr	r3, [sp, #8]
 2672 002c 1B1B     		sub	r3, r3, r4
 2673 002e 0493     		str	r3, [sp, #16]
 2674 0030 042B     		cmp	r3, #4
ARM GAS  C:\Users\Petro\AppData\Local\Temp\cchQWd3Z.s 			page 64


 2675 0032 34DD     		ble	.L215
 721:nokia5110/LCD5110_Graph.c **** 	{
 722:nokia5110/LCD5110_Graph.c **** 		setPixel(x1+1,y1+1);
 2676              		.loc 2 722 0 is_stmt 1
 2677 0034 661C     		add	r6, r4, #1
 2678 0036 6F1C     		add	r7, r5, #1
 2679 0038 BFB2     		uxth	r7, r7
 2680 003a B6B2     		uxth	r6, r6
 2681 003c 381C     		mov	r0, r7
 2682 003e 311C     		mov	r1, r6
 2683 0040 FFF7FEFF 		bl	setPixel
 2684              	.LVL348:
 723:nokia5110/LCD5110_Graph.c **** 		setPixel(x2-1,y1+1);
 2685              		.loc 2 723 0
 2686 0044 019B     		ldr	r3, [sp, #4]
 2687 0046 311C     		mov	r1, r6
 2688 0048 013B     		sub	r3, r3, #1
 2689 004a 9BB2     		uxth	r3, r3
 2690 004c 181C     		mov	r0, r3
 2691 004e 0593     		str	r3, [sp, #20]
 2692 0050 FFF7FEFF 		bl	setPixel
 2693              	.LVL349:
 724:nokia5110/LCD5110_Graph.c **** 		setPixel(x1+1,y2-1);
 2694              		.loc 2 724 0
 2695 0054 029B     		ldr	r3, [sp, #8]
 2696 0056 381C     		mov	r0, r7
 2697 0058 5E1E     		sub	r6, r3, #1
 2698 005a B6B2     		uxth	r6, r6
 2699 005c 311C     		mov	r1, r6
 2700 005e FFF7FEFF 		bl	setPixel
 2701              	.LVL350:
 725:nokia5110/LCD5110_Graph.c **** 		setPixel(x2-1,y2-1);
 2702              		.loc 2 725 0
 2703 0062 311C     		mov	r1, r6
 2704 0064 0598     		ldr	r0, [sp, #20]
 2705 0066 FFF7FEFF 		bl	setPixel
 2706              	.LVL351:
 726:nokia5110/LCD5110_Graph.c **** 		drawHLine(x1+2, y1, x2-x1-3);
 2707              		.loc 2 726 0
 2708 006a 039E     		ldr	r6, [sp, #12]
 2709 006c AF1C     		add	r7, r5, #2
 2710 006e 033E     		sub	r6, r6, #3
 2711 0070 211C     		mov	r1, r4
 2712 0072 321C     		mov	r2, r6
 2713 0074 381C     		mov	r0, r7
 2714 0076 FFF7FEFF 		bl	drawHLine
 2715              	.LVL352:
 727:nokia5110/LCD5110_Graph.c **** 		drawHLine(x1+2, y2, x2-x1-3);
 2716              		.loc 2 727 0
 2717 007a 321C     		mov	r2, r6
 2718 007c 381C     		mov	r0, r7
 2719 007e 0299     		ldr	r1, [sp, #8]
 2720 0080 FFF7FEFF 		bl	drawHLine
 2721              	.LVL353:
 728:nokia5110/LCD5110_Graph.c **** 		drawVLine(x1, y1+2, y2-y1-3);
 2722              		.loc 2 728 0
 2723 0084 049E     		ldr	r6, [sp, #16]
ARM GAS  C:\Users\Petro\AppData\Local\Temp\cchQWd3Z.s 			page 65


 2724 0086 0234     		add	r4, r4, #2
 2725              	.LVL354:
 2726 0088 033E     		sub	r6, r6, #3
 2727 008a 281C     		mov	r0, r5
 2728 008c 211C     		mov	r1, r4
 2729 008e 321C     		mov	r2, r6
 2730 0090 FFF7FEFF 		bl	drawVLine
 2731              	.LVL355:
 729:nokia5110/LCD5110_Graph.c **** 		drawVLine(x2, y1+2, y2-y1-3);
 2732              		.loc 2 729 0
 2733 0094 0198     		ldr	r0, [sp, #4]
 2734 0096 211C     		mov	r1, r4
 2735 0098 321C     		mov	r2, r6
 2736 009a FFF7FEFF 		bl	drawVLine
 2737              	.LVL356:
 2738              	.L215:
 730:nokia5110/LCD5110_Graph.c **** 	}
 731:nokia5110/LCD5110_Graph.c **** }
 2739              		.loc 2 731 0
 2740 009e 07B0     		add	sp, sp, #28
 2741              		@ sp needed
 2742              	.LVL357:
 2743 00a0 F0BD     		pop	{r4, r5, r6, r7, pc}
 2744              		.cfi_endproc
 2745              	.LFE91:
 2746              		.size	drawRoundRect, .-drawRoundRect
 2747              		.section	.text.clrRoundRect,"ax",%progbits
 2748              		.align	1
 2749              		.global	clrRoundRect
 2750              		.code	16
 2751              		.thumb_func
 2752              		.type	clrRoundRect, %function
 2753              	clrRoundRect:
 2754              	.LFB92:
 732:nokia5110/LCD5110_Graph.c **** 
 733:nokia5110/LCD5110_Graph.c **** void clrRoundRect(int x1, int y1, int x2, int y2)
 734:nokia5110/LCD5110_Graph.c **** {
 2755              		.loc 2 734 0
 2756              		.cfi_startproc
 2757              	.LVL358:
 2758 0000 F0B5     		push	{r4, r5, r6, r7, lr}
 2759              		.cfi_def_cfa_offset 20
 2760              		.cfi_offset 4, -20
 2761              		.cfi_offset 5, -16
 2762              		.cfi_offset 6, -12
 2763              		.cfi_offset 7, -8
 2764              		.cfi_offset 14, -4
 2765 0002 87B0     		sub	sp, sp, #28
 2766              		.cfi_def_cfa_offset 48
 2767              		.loc 2 734 0
 2768 0004 051C     		mov	r5, r0
 2769 0006 0C1C     		mov	r4, r1
 2770 0008 0192     		str	r2, [sp, #4]
 2771 000a 0293     		str	r3, [sp, #8]
 735:nokia5110/LCD5110_Graph.c **** 	int tmp;
 736:nokia5110/LCD5110_Graph.c **** 
 737:nokia5110/LCD5110_Graph.c **** 	if (x1>x2)
ARM GAS  C:\Users\Petro\AppData\Local\Temp\cchQWd3Z.s 			page 66


 2772              		.loc 2 737 0
 2773 000c 9042     		cmp	r0, r2
 2774 000e 01DD     		ble	.L220
 2775 0010 151C     		mov	r5, r2
 2776 0012 0190     		str	r0, [sp, #4]
 2777              	.L220:
 2778              	.LVL359:
 738:nokia5110/LCD5110_Graph.c **** 	{
 739:nokia5110/LCD5110_Graph.c **** 		tmp=x1;
 740:nokia5110/LCD5110_Graph.c **** 		x1=x2;
 741:nokia5110/LCD5110_Graph.c **** 		x2=tmp;
 742:nokia5110/LCD5110_Graph.c **** 	}
 743:nokia5110/LCD5110_Graph.c **** 	if (y1>y2)
 2779              		.loc 2 743 0
 2780 0014 029B     		ldr	r3, [sp, #8]
 2781              	.LVL360:
 2782 0016 9C42     		cmp	r4, r3
 2783 0018 02DD     		ble	.L221
 2784 001a 231C     		mov	r3, r4
 2785 001c 029C     		ldr	r4, [sp, #8]
 2786 001e 0293     		str	r3, [sp, #8]
 2787              	.LVL361:
 2788              	.L221:
 744:nokia5110/LCD5110_Graph.c **** 	{
 745:nokia5110/LCD5110_Graph.c **** 		tmp=y1;
 746:nokia5110/LCD5110_Graph.c **** 		y1=y2;
 747:nokia5110/LCD5110_Graph.c **** 		y2=tmp;
 748:nokia5110/LCD5110_Graph.c **** 	}
 749:nokia5110/LCD5110_Graph.c **** 	if ((x2-x1)>4 && (y2-y1)>4)
 2789              		.loc 2 749 0
 2790 0020 019B     		ldr	r3, [sp, #4]
 2791 0022 5B1B     		sub	r3, r3, r5
 2792 0024 0393     		str	r3, [sp, #12]
 2793 0026 042B     		cmp	r3, #4
 2794 0028 39DD     		ble	.L219
 2795              		.loc 2 749 0 is_stmt 0 discriminator 1
 2796 002a 029B     		ldr	r3, [sp, #8]
 2797 002c 1B1B     		sub	r3, r3, r4
 2798 002e 0493     		str	r3, [sp, #16]
 2799 0030 042B     		cmp	r3, #4
 2800 0032 34DD     		ble	.L219
 750:nokia5110/LCD5110_Graph.c **** 	{
 751:nokia5110/LCD5110_Graph.c **** 		clrPixel(x1+1,y1+1);
 2801              		.loc 2 751 0 is_stmt 1
 2802 0034 661C     		add	r6, r4, #1
 2803 0036 6F1C     		add	r7, r5, #1
 2804 0038 BFB2     		uxth	r7, r7
 2805 003a B6B2     		uxth	r6, r6
 2806 003c 381C     		mov	r0, r7
 2807 003e 311C     		mov	r1, r6
 2808 0040 FFF7FEFF 		bl	clrPixel
 2809              	.LVL362:
 752:nokia5110/LCD5110_Graph.c **** 		clrPixel(x2-1,y1+1);
 2810              		.loc 2 752 0
 2811 0044 019B     		ldr	r3, [sp, #4]
 2812 0046 311C     		mov	r1, r6
 2813 0048 013B     		sub	r3, r3, #1
ARM GAS  C:\Users\Petro\AppData\Local\Temp\cchQWd3Z.s 			page 67


 2814 004a 9BB2     		uxth	r3, r3
 2815 004c 181C     		mov	r0, r3
 2816 004e 0593     		str	r3, [sp, #20]
 2817 0050 FFF7FEFF 		bl	clrPixel
 2818              	.LVL363:
 753:nokia5110/LCD5110_Graph.c **** 		clrPixel(x1+1,y2-1);
 2819              		.loc 2 753 0
 2820 0054 029B     		ldr	r3, [sp, #8]
 2821 0056 381C     		mov	r0, r7
 2822 0058 5E1E     		sub	r6, r3, #1
 2823 005a B6B2     		uxth	r6, r6
 2824 005c 311C     		mov	r1, r6
 2825 005e FFF7FEFF 		bl	clrPixel
 2826              	.LVL364:
 754:nokia5110/LCD5110_Graph.c **** 		clrPixel(x2-1,y2-1);
 2827              		.loc 2 754 0
 2828 0062 311C     		mov	r1, r6
 2829 0064 0598     		ldr	r0, [sp, #20]
 2830 0066 FFF7FEFF 		bl	clrPixel
 2831              	.LVL365:
 755:nokia5110/LCD5110_Graph.c **** 		clrHLine(x1+2, y1, x2-x1-3);
 2832              		.loc 2 755 0
 2833 006a 039E     		ldr	r6, [sp, #12]
 2834 006c AF1C     		add	r7, r5, #2
 2835 006e 033E     		sub	r6, r6, #3
 2836 0070 211C     		mov	r1, r4
 2837 0072 321C     		mov	r2, r6
 2838 0074 381C     		mov	r0, r7
 2839 0076 FFF7FEFF 		bl	clrHLine
 2840              	.LVL366:
 756:nokia5110/LCD5110_Graph.c **** 		clrHLine(x1+2, y2, x2-x1-3);
 2841              		.loc 2 756 0
 2842 007a 321C     		mov	r2, r6
 2843 007c 381C     		mov	r0, r7
 2844 007e 0299     		ldr	r1, [sp, #8]
 2845 0080 FFF7FEFF 		bl	clrHLine
 2846              	.LVL367:
 757:nokia5110/LCD5110_Graph.c **** 		clrVLine(x1, y1+2, y2-y1-3);
 2847              		.loc 2 757 0
 2848 0084 049E     		ldr	r6, [sp, #16]
 2849 0086 0234     		add	r4, r4, #2
 2850              	.LVL368:
 2851 0088 033E     		sub	r6, r6, #3
 2852 008a 281C     		mov	r0, r5
 2853 008c 211C     		mov	r1, r4
 2854 008e 321C     		mov	r2, r6
 2855 0090 FFF7FEFF 		bl	clrVLine
 2856              	.LVL369:
 758:nokia5110/LCD5110_Graph.c **** 		clrVLine(x2, y1+2, y2-y1-3);
 2857              		.loc 2 758 0
 2858 0094 0198     		ldr	r0, [sp, #4]
 2859 0096 211C     		mov	r1, r4
 2860 0098 321C     		mov	r2, r6
 2861 009a FFF7FEFF 		bl	clrVLine
 2862              	.LVL370:
 2863              	.L219:
 759:nokia5110/LCD5110_Graph.c **** 	}
ARM GAS  C:\Users\Petro\AppData\Local\Temp\cchQWd3Z.s 			page 68


 760:nokia5110/LCD5110_Graph.c **** }
 2864              		.loc 2 760 0
 2865 009e 07B0     		add	sp, sp, #28
 2866              		@ sp needed
 2867              	.LVL371:
 2868 00a0 F0BD     		pop	{r4, r5, r6, r7, pc}
 2869              		.cfi_endproc
 2870              	.LFE92:
 2871              		.size	clrRoundRect, .-clrRoundRect
 2872              		.section	.text.drawCircle,"ax",%progbits
 2873              		.align	1
 2874              		.global	drawCircle
 2875              		.code	16
 2876              		.thumb_func
 2877              		.type	drawCircle, %function
 2878              	drawCircle:
 2879              	.LFB93:
 761:nokia5110/LCD5110_Graph.c **** 
 762:nokia5110/LCD5110_Graph.c **** void drawCircle(int x, int y, int radius)
 763:nokia5110/LCD5110_Graph.c **** {
 2880              		.loc 2 763 0
 2881              		.cfi_startproc
 2882              	.LVL372:
 764:nokia5110/LCD5110_Graph.c **** 	int f = 1 - radius;
 2883              		.loc 2 764 0
 2884 0000 0123     		mov	r3, #1
 763:nokia5110/LCD5110_Graph.c **** 	int f = 1 - radius;
 2885              		.loc 2 763 0
 2886 0002 F0B5     		push	{r4, r5, r6, r7, lr}
 2887              		.cfi_def_cfa_offset 20
 2888              		.cfi_offset 4, -20
 2889              		.cfi_offset 5, -16
 2890              		.cfi_offset 6, -12
 2891              		.cfi_offset 7, -8
 2892              		.cfi_offset 14, -4
 2893              		.loc 2 764 0
 2894 0004 9B1A     		sub	r3, r3, r2
 763:nokia5110/LCD5110_Graph.c **** 	int f = 1 - radius;
 2895              		.loc 2 763 0
 2896 0006 89B0     		sub	sp, sp, #36
 2897              		.cfi_def_cfa_offset 56
 2898              		.loc 2 764 0
 2899 0008 0393     		str	r3, [sp, #12]
 2900              	.LVL373:
 765:nokia5110/LCD5110_Graph.c **** 	int ddF_x = 1;
 766:nokia5110/LCD5110_Graph.c **** 	int ddF_y = -2 * radius;
 2901              		.loc 2 766 0
 2902 000a 5300     		lsl	r3, r2, #1
 2903              	.LVL374:
 2904 000c 5B42     		neg	r3, r3
 2905 000e 0793     		str	r3, [sp, #28]
 2906              	.LVL375:
 767:nokia5110/LCD5110_Graph.c **** 	int x1 = 0;
 768:nokia5110/LCD5110_Graph.c **** 	int y1 = radius;
 769:nokia5110/LCD5110_Graph.c **** 	char ch, cl;
 770:nokia5110/LCD5110_Graph.c **** 	
 771:nokia5110/LCD5110_Graph.c **** 	setPixel(x, y + radius);
ARM GAS  C:\Users\Petro\AppData\Local\Temp\cchQWd3Z.s 			page 69


 2907              		.loc 2 771 0
 2908 0010 83B2     		uxth	r3, r0
 2909              	.LVL376:
 2910 0012 0193     		str	r3, [sp, #4]
 2911 0014 6B46     		mov	r3, sp
 763:nokia5110/LCD5110_Graph.c **** 	int f = 1 - radius;
 2912              		.loc 2 763 0
 2913 0016 0292     		str	r2, [sp, #8]
 2914              	.LVL377:
 2915              		.loc 2 771 0
 2916 0018 1D89     		ldrh	r5, [r3, #8]
 2917 001a 8CB2     		uxth	r4, r1
 2918 001c 2919     		add	r1, r5, r4
 2919              	.LVL378:
 2920 001e 89B2     		uxth	r1, r1
 2921 0020 0198     		ldr	r0, [sp, #4]
 2922              	.LVL379:
 2923 0022 FFF7FEFF 		bl	setPixel
 2924              	.LVL380:
 772:nokia5110/LCD5110_Graph.c **** 	setPixel(x, y - radius);
 2925              		.loc 2 772 0
 2926 0026 611B     		sub	r1, r4, r5
 2927 0028 89B2     		uxth	r1, r1
 2928 002a 0198     		ldr	r0, [sp, #4]
 2929 002c FFF7FEFF 		bl	setPixel
 2930              	.LVL381:
 773:nokia5110/LCD5110_Graph.c **** 	setPixel(x + radius, y);
 2931              		.loc 2 773 0
 2932 0030 019B     		ldr	r3, [sp, #4]
 2933 0032 211C     		mov	r1, r4
 2934 0034 E818     		add	r0, r5, r3
 2935 0036 80B2     		uxth	r0, r0
 2936 0038 FFF7FEFF 		bl	setPixel
 2937              	.LVL382:
 774:nokia5110/LCD5110_Graph.c **** 	setPixel(x - radius, y);
 2938              		.loc 2 774 0
 2939 003c 019B     		ldr	r3, [sp, #4]
 2940 003e 211C     		mov	r1, r4
 2941 0040 581B     		sub	r0, r3, r5
 2942 0042 80B2     		uxth	r0, r0
 2943 0044 FFF7FEFF 		bl	setPixel
 2944              	.LVL383:
 767:nokia5110/LCD5110_Graph.c **** 	int y1 = radius;
 2945              		.loc 2 767 0
 2946 0048 0023     		mov	r3, #0
 2947 004a 0493     		str	r3, [sp, #16]
 2948              	.LVL384:
 2949              	.L224:
 775:nokia5110/LCD5110_Graph.c ****  
 776:nokia5110/LCD5110_Graph.c **** 	while(x1 < y1)
 2950              		.loc 2 776 0
 2951 004c 049B     		ldr	r3, [sp, #16]
 2952 004e 029A     		ldr	r2, [sp, #8]
 2953 0050 9342     		cmp	r3, r2
 2954 0052 56DA     		bge	.L227
 777:nokia5110/LCD5110_Graph.c **** 	{
 778:nokia5110/LCD5110_Graph.c **** 		if(f >= 0) 
ARM GAS  C:\Users\Petro\AppData\Local\Temp\cchQWd3Z.s 			page 70


 2955              		.loc 2 778 0
 2956 0054 039B     		ldr	r3, [sp, #12]
 2957 0056 002B     		cmp	r3, #0
 2958 0058 0ADB     		blt	.L225
 779:nokia5110/LCD5110_Graph.c **** 		{
 780:nokia5110/LCD5110_Graph.c **** 			y1--;
 2959              		.loc 2 780 0
 2960 005a 029B     		ldr	r3, [sp, #8]
 2961 005c 013B     		sub	r3, r3, #1
 2962 005e 0293     		str	r3, [sp, #8]
 2963              	.LVL385:
 781:nokia5110/LCD5110_Graph.c **** 			ddF_y += 2;
 2964              		.loc 2 781 0
 2965 0060 079B     		ldr	r3, [sp, #28]
 2966              	.LVL386:
 2967 0062 0233     		add	r3, r3, #2
 2968 0064 0793     		str	r3, [sp, #28]
 2969              	.LVL387:
 782:nokia5110/LCD5110_Graph.c **** 			f += ddF_y;
 2970              		.loc 2 782 0
 2971 0066 079A     		ldr	r2, [sp, #28]
 2972 0068 039B     		ldr	r3, [sp, #12]
 2973              	.LVL388:
 2974 006a 9446     		mov	ip, r2
 2975 006c 6344     		add	r3, r3, ip
 2976 006e 0393     		str	r3, [sp, #12]
 2977              	.LVL389:
 2978              	.L225:
 783:nokia5110/LCD5110_Graph.c **** 		}
 784:nokia5110/LCD5110_Graph.c **** 		x1++;
 2979              		.loc 2 784 0
 2980 0070 049B     		ldr	r3, [sp, #16]
 785:nokia5110/LCD5110_Graph.c **** 		ddF_x += 2;
 786:nokia5110/LCD5110_Graph.c **** 		f += ddF_x;    
 2981              		.loc 2 786 0
 2982 0072 039A     		ldr	r2, [sp, #12]
 784:nokia5110/LCD5110_Graph.c **** 		ddF_x += 2;
 2983              		.loc 2 784 0
 2984 0074 0133     		add	r3, r3, #1
 2985 0076 0493     		str	r3, [sp, #16]
 2986              	.LVL390:
 2987 0078 5B00     		lsl	r3, r3, #1
 2988              	.LVL391:
 2989 007a 0133     		add	r3, r3, #1
 2990              	.LVL392:
 2991              		.loc 2 786 0
 2992 007c D318     		add	r3, r2, r3
 2993              	.LVL393:
 2994 007e 0393     		str	r3, [sp, #12]
 2995              	.LVL394:
 2996 0080 6B46     		mov	r3, sp
 2997              	.LVL395:
 2998 0082 019A     		ldr	r2, [sp, #4]
 2999 0084 1B8A     		ldrh	r3, [r3, #16]
 3000 0086 9F18     		add	r7, r3, r2
 3001 0088 0693     		str	r3, [sp, #24]
 787:nokia5110/LCD5110_Graph.c **** 		setPixel(x + x1, y + y1);
ARM GAS  C:\Users\Petro\AppData\Local\Temp\cchQWd3Z.s 			page 71


 3002              		.loc 2 787 0
 3003 008a 6B46     		mov	r3, sp
 3004 008c 1B89     		ldrh	r3, [r3, #8]
 3005 008e BFB2     		uxth	r7, r7
 3006 0090 1D19     		add	r5, r3, r4
 3007 0092 ADB2     		uxth	r5, r5
 3008 0094 381C     		mov	r0, r7
 3009 0096 291C     		mov	r1, r5
 3010 0098 0593     		str	r3, [sp, #20]
 3011 009a FFF7FEFF 		bl	setPixel
 3012              	.LVL396:
 3013 009e 069A     		ldr	r2, [sp, #24]
 3014 00a0 019B     		ldr	r3, [sp, #4]
 788:nokia5110/LCD5110_Graph.c **** 		setPixel(x - x1, y + y1);
 3015              		.loc 2 788 0
 3016 00a2 291C     		mov	r1, r5
 3017 00a4 9E1A     		sub	r6, r3, r2
 3018 00a6 B6B2     		uxth	r6, r6
 3019 00a8 301C     		mov	r0, r6
 3020 00aa FFF7FEFF 		bl	setPixel
 3021              	.LVL397:
 789:nokia5110/LCD5110_Graph.c **** 		setPixel(x + x1, y - y1);
 3022              		.loc 2 789 0
 3023 00ae 059B     		ldr	r3, [sp, #20]
 3024 00b0 381C     		mov	r0, r7
 3025 00b2 E51A     		sub	r5, r4, r3
 3026 00b4 ADB2     		uxth	r5, r5
 3027 00b6 291C     		mov	r1, r5
 3028 00b8 FFF7FEFF 		bl	setPixel
 3029              	.LVL398:
 790:nokia5110/LCD5110_Graph.c **** 		setPixel(x - x1, y - y1);
 3030              		.loc 2 790 0
 3031 00bc 301C     		mov	r0, r6
 3032 00be 291C     		mov	r1, r5
 3033 00c0 FFF7FEFF 		bl	setPixel
 3034              	.LVL399:
 791:nokia5110/LCD5110_Graph.c **** 		setPixel(x + y1, y + x1);
 3035              		.loc 2 791 0
 3036 00c4 059B     		ldr	r3, [sp, #20]
 3037 00c6 019A     		ldr	r2, [sp, #4]
 3038 00c8 9F18     		add	r7, r3, r2
 3039 00ca 069B     		ldr	r3, [sp, #24]
 3040 00cc BFB2     		uxth	r7, r7
 3041 00ce 1D19     		add	r5, r3, r4
 3042 00d0 ADB2     		uxth	r5, r5
 3043 00d2 381C     		mov	r0, r7
 3044 00d4 291C     		mov	r1, r5
 3045 00d6 FFF7FEFF 		bl	setPixel
 3046              	.LVL400:
 792:nokia5110/LCD5110_Graph.c **** 		setPixel(x - y1, y + x1);
 3047              		.loc 2 792 0
 3048 00da 019B     		ldr	r3, [sp, #4]
 3049 00dc 059A     		ldr	r2, [sp, #20]
 3050 00de 291C     		mov	r1, r5
 3051 00e0 9E1A     		sub	r6, r3, r2
 3052 00e2 B6B2     		uxth	r6, r6
 3053 00e4 301C     		mov	r0, r6
ARM GAS  C:\Users\Petro\AppData\Local\Temp\cchQWd3Z.s 			page 72


 3054 00e6 FFF7FEFF 		bl	setPixel
 3055              	.LVL401:
 3056 00ea 069B     		ldr	r3, [sp, #24]
 793:nokia5110/LCD5110_Graph.c **** 		setPixel(x + y1, y - x1);
 3057              		.loc 2 793 0
 3058 00ec 381C     		mov	r0, r7
 3059 00ee E51A     		sub	r5, r4, r3
 3060 00f0 ADB2     		uxth	r5, r5
 3061 00f2 291C     		mov	r1, r5
 3062 00f4 FFF7FEFF 		bl	setPixel
 3063              	.LVL402:
 794:nokia5110/LCD5110_Graph.c **** 		setPixel(x - y1, y - x1);
 3064              		.loc 2 794 0
 3065 00f8 301C     		mov	r0, r6
 3066 00fa 291C     		mov	r1, r5
 3067 00fc FFF7FEFF 		bl	setPixel
 3068              	.LVL403:
 3069 0100 A4E7     		b	.L224
 3070              	.LVL404:
 3071              	.L227:
 795:nokia5110/LCD5110_Graph.c **** 	}
 796:nokia5110/LCD5110_Graph.c **** }
 3072              		.loc 2 796 0
 3073 0102 09B0     		add	sp, sp, #36
 3074              		@ sp needed
 3075 0104 F0BD     		pop	{r4, r5, r6, r7, pc}
 3076              		.cfi_endproc
 3077              	.LFE93:
 3078              		.size	drawCircle, .-drawCircle
 3079              		.section	.text.clrCircle,"ax",%progbits
 3080              		.align	1
 3081              		.global	clrCircle
 3082              		.code	16
 3083              		.thumb_func
 3084              		.type	clrCircle, %function
 3085              	clrCircle:
 3086              	.LFB94:
 797:nokia5110/LCD5110_Graph.c **** 
 798:nokia5110/LCD5110_Graph.c **** void clrCircle(int x, int y, int radius)
 799:nokia5110/LCD5110_Graph.c **** {
 3087              		.loc 2 799 0
 3088              		.cfi_startproc
 3089              	.LVL405:
 800:nokia5110/LCD5110_Graph.c **** 	int f = 1 - radius;
 3090              		.loc 2 800 0
 3091 0000 0123     		mov	r3, #1
 799:nokia5110/LCD5110_Graph.c **** 	int f = 1 - radius;
 3092              		.loc 2 799 0
 3093 0002 F0B5     		push	{r4, r5, r6, r7, lr}
 3094              		.cfi_def_cfa_offset 20
 3095              		.cfi_offset 4, -20
 3096              		.cfi_offset 5, -16
 3097              		.cfi_offset 6, -12
 3098              		.cfi_offset 7, -8
 3099              		.cfi_offset 14, -4
 3100              		.loc 2 800 0
 3101 0004 9B1A     		sub	r3, r3, r2
ARM GAS  C:\Users\Petro\AppData\Local\Temp\cchQWd3Z.s 			page 73


 799:nokia5110/LCD5110_Graph.c **** 	int f = 1 - radius;
 3102              		.loc 2 799 0
 3103 0006 89B0     		sub	sp, sp, #36
 3104              		.cfi_def_cfa_offset 56
 3105              		.loc 2 800 0
 3106 0008 0393     		str	r3, [sp, #12]
 3107              	.LVL406:
 801:nokia5110/LCD5110_Graph.c **** 	int ddF_x = 1;
 802:nokia5110/LCD5110_Graph.c **** 	int ddF_y = -2 * radius;
 3108              		.loc 2 802 0
 3109 000a 5300     		lsl	r3, r2, #1
 3110              	.LVL407:
 3111 000c 5B42     		neg	r3, r3
 3112 000e 0793     		str	r3, [sp, #28]
 3113              	.LVL408:
 803:nokia5110/LCD5110_Graph.c **** 	int x1 = 0;
 804:nokia5110/LCD5110_Graph.c **** 	int y1 = radius;
 805:nokia5110/LCD5110_Graph.c **** 	char ch, cl;
 806:nokia5110/LCD5110_Graph.c **** 	
 807:nokia5110/LCD5110_Graph.c **** 	clrPixel(x, y + radius);
 3114              		.loc 2 807 0
 3115 0010 83B2     		uxth	r3, r0
 3116              	.LVL409:
 3117 0012 0193     		str	r3, [sp, #4]
 3118 0014 6B46     		mov	r3, sp
 799:nokia5110/LCD5110_Graph.c **** 	int f = 1 - radius;
 3119              		.loc 2 799 0
 3120 0016 0292     		str	r2, [sp, #8]
 3121              	.LVL410:
 3122              		.loc 2 807 0
 3123 0018 1D89     		ldrh	r5, [r3, #8]
 3124 001a 8CB2     		uxth	r4, r1
 3125 001c 2919     		add	r1, r5, r4
 3126              	.LVL411:
 3127 001e 89B2     		uxth	r1, r1
 3128 0020 0198     		ldr	r0, [sp, #4]
 3129              	.LVL412:
 3130 0022 FFF7FEFF 		bl	clrPixel
 3131              	.LVL413:
 808:nokia5110/LCD5110_Graph.c **** 	clrPixel(x, y - radius);
 3132              		.loc 2 808 0
 3133 0026 611B     		sub	r1, r4, r5
 3134 0028 89B2     		uxth	r1, r1
 3135 002a 0198     		ldr	r0, [sp, #4]
 3136 002c FFF7FEFF 		bl	clrPixel
 3137              	.LVL414:
 809:nokia5110/LCD5110_Graph.c **** 	clrPixel(x + radius, y);
 3138              		.loc 2 809 0
 3139 0030 019B     		ldr	r3, [sp, #4]
 3140 0032 211C     		mov	r1, r4
 3141 0034 E818     		add	r0, r5, r3
 3142 0036 80B2     		uxth	r0, r0
 3143 0038 FFF7FEFF 		bl	clrPixel
 3144              	.LVL415:
 810:nokia5110/LCD5110_Graph.c **** 	clrPixel(x - radius, y);
 3145              		.loc 2 810 0
 3146 003c 019B     		ldr	r3, [sp, #4]
ARM GAS  C:\Users\Petro\AppData\Local\Temp\cchQWd3Z.s 			page 74


 3147 003e 211C     		mov	r1, r4
 3148 0040 581B     		sub	r0, r3, r5
 3149 0042 80B2     		uxth	r0, r0
 3150 0044 FFF7FEFF 		bl	clrPixel
 3151              	.LVL416:
 803:nokia5110/LCD5110_Graph.c **** 	int y1 = radius;
 3152              		.loc 2 803 0
 3153 0048 0023     		mov	r3, #0
 3154 004a 0493     		str	r3, [sp, #16]
 3155              	.LVL417:
 3156              	.L229:
 811:nokia5110/LCD5110_Graph.c ****  
 812:nokia5110/LCD5110_Graph.c **** 	while(x1 < y1)
 3157              		.loc 2 812 0
 3158 004c 049B     		ldr	r3, [sp, #16]
 3159 004e 029A     		ldr	r2, [sp, #8]
 3160 0050 9342     		cmp	r3, r2
 3161 0052 56DA     		bge	.L232
 813:nokia5110/LCD5110_Graph.c **** 	{
 814:nokia5110/LCD5110_Graph.c **** 		if(f >= 0) 
 3162              		.loc 2 814 0
 3163 0054 039B     		ldr	r3, [sp, #12]
 3164 0056 002B     		cmp	r3, #0
 3165 0058 0ADB     		blt	.L230
 815:nokia5110/LCD5110_Graph.c **** 		{
 816:nokia5110/LCD5110_Graph.c **** 			y1--;
 3166              		.loc 2 816 0
 3167 005a 029B     		ldr	r3, [sp, #8]
 3168 005c 013B     		sub	r3, r3, #1
 3169 005e 0293     		str	r3, [sp, #8]
 3170              	.LVL418:
 817:nokia5110/LCD5110_Graph.c **** 			ddF_y += 2;
 3171              		.loc 2 817 0
 3172 0060 079B     		ldr	r3, [sp, #28]
 3173              	.LVL419:
 3174 0062 0233     		add	r3, r3, #2
 3175 0064 0793     		str	r3, [sp, #28]
 3176              	.LVL420:
 818:nokia5110/LCD5110_Graph.c **** 			f += ddF_y;
 3177              		.loc 2 818 0
 3178 0066 079A     		ldr	r2, [sp, #28]
 3179 0068 039B     		ldr	r3, [sp, #12]
 3180              	.LVL421:
 3181 006a 9446     		mov	ip, r2
 3182 006c 6344     		add	r3, r3, ip
 3183 006e 0393     		str	r3, [sp, #12]
 3184              	.LVL422:
 3185              	.L230:
 819:nokia5110/LCD5110_Graph.c **** 		}
 820:nokia5110/LCD5110_Graph.c **** 		x1++;
 3186              		.loc 2 820 0
 3187 0070 049B     		ldr	r3, [sp, #16]
 821:nokia5110/LCD5110_Graph.c **** 		ddF_x += 2;
 822:nokia5110/LCD5110_Graph.c **** 		f += ddF_x;    
 3188              		.loc 2 822 0
 3189 0072 039A     		ldr	r2, [sp, #12]
 820:nokia5110/LCD5110_Graph.c **** 		ddF_x += 2;
ARM GAS  C:\Users\Petro\AppData\Local\Temp\cchQWd3Z.s 			page 75


 3190              		.loc 2 820 0
 3191 0074 0133     		add	r3, r3, #1
 3192 0076 0493     		str	r3, [sp, #16]
 3193              	.LVL423:
 3194 0078 5B00     		lsl	r3, r3, #1
 3195              	.LVL424:
 3196 007a 0133     		add	r3, r3, #1
 3197              	.LVL425:
 3198              		.loc 2 822 0
 3199 007c D318     		add	r3, r2, r3
 3200              	.LVL426:
 3201 007e 0393     		str	r3, [sp, #12]
 3202              	.LVL427:
 3203 0080 6B46     		mov	r3, sp
 3204              	.LVL428:
 3205 0082 019A     		ldr	r2, [sp, #4]
 3206 0084 1B8A     		ldrh	r3, [r3, #16]
 3207 0086 9F18     		add	r7, r3, r2
 3208 0088 0693     		str	r3, [sp, #24]
 823:nokia5110/LCD5110_Graph.c **** 		clrPixel(x + x1, y + y1);
 3209              		.loc 2 823 0
 3210 008a 6B46     		mov	r3, sp
 3211 008c 1B89     		ldrh	r3, [r3, #8]
 3212 008e BFB2     		uxth	r7, r7
 3213 0090 1D19     		add	r5, r3, r4
 3214 0092 ADB2     		uxth	r5, r5
 3215 0094 381C     		mov	r0, r7
 3216 0096 291C     		mov	r1, r5
 3217 0098 0593     		str	r3, [sp, #20]
 3218 009a FFF7FEFF 		bl	clrPixel
 3219              	.LVL429:
 3220 009e 069A     		ldr	r2, [sp, #24]
 3221 00a0 019B     		ldr	r3, [sp, #4]
 824:nokia5110/LCD5110_Graph.c **** 		clrPixel(x - x1, y + y1);
 3222              		.loc 2 824 0
 3223 00a2 291C     		mov	r1, r5
 3224 00a4 9E1A     		sub	r6, r3, r2
 3225 00a6 B6B2     		uxth	r6, r6
 3226 00a8 301C     		mov	r0, r6
 3227 00aa FFF7FEFF 		bl	clrPixel
 3228              	.LVL430:
 825:nokia5110/LCD5110_Graph.c **** 		clrPixel(x + x1, y - y1);
 3229              		.loc 2 825 0
 3230 00ae 059B     		ldr	r3, [sp, #20]
 3231 00b0 381C     		mov	r0, r7
 3232 00b2 E51A     		sub	r5, r4, r3
 3233 00b4 ADB2     		uxth	r5, r5
 3234 00b6 291C     		mov	r1, r5
 3235 00b8 FFF7FEFF 		bl	clrPixel
 3236              	.LVL431:
 826:nokia5110/LCD5110_Graph.c **** 		clrPixel(x - x1, y - y1);
 3237              		.loc 2 826 0
 3238 00bc 301C     		mov	r0, r6
 3239 00be 291C     		mov	r1, r5
 3240 00c0 FFF7FEFF 		bl	clrPixel
 3241              	.LVL432:
 827:nokia5110/LCD5110_Graph.c **** 		clrPixel(x + y1, y + x1);
ARM GAS  C:\Users\Petro\AppData\Local\Temp\cchQWd3Z.s 			page 76


 3242              		.loc 2 827 0
 3243 00c4 059B     		ldr	r3, [sp, #20]
 3244 00c6 019A     		ldr	r2, [sp, #4]
 3245 00c8 9F18     		add	r7, r3, r2
 3246 00ca 069B     		ldr	r3, [sp, #24]
 3247 00cc BFB2     		uxth	r7, r7
 3248 00ce 1D19     		add	r5, r3, r4
 3249 00d0 ADB2     		uxth	r5, r5
 3250 00d2 381C     		mov	r0, r7
 3251 00d4 291C     		mov	r1, r5
 3252 00d6 FFF7FEFF 		bl	clrPixel
 3253              	.LVL433:
 828:nokia5110/LCD5110_Graph.c **** 		clrPixel(x - y1, y + x1);
 3254              		.loc 2 828 0
 3255 00da 019B     		ldr	r3, [sp, #4]
 3256 00dc 059A     		ldr	r2, [sp, #20]
 3257 00de 291C     		mov	r1, r5
 3258 00e0 9E1A     		sub	r6, r3, r2
 3259 00e2 B6B2     		uxth	r6, r6
 3260 00e4 301C     		mov	r0, r6
 3261 00e6 FFF7FEFF 		bl	clrPixel
 3262              	.LVL434:
 3263 00ea 069B     		ldr	r3, [sp, #24]
 829:nokia5110/LCD5110_Graph.c **** 		clrPixel(x + y1, y - x1);
 3264              		.loc 2 829 0
 3265 00ec 381C     		mov	r0, r7
 3266 00ee E51A     		sub	r5, r4, r3
 3267 00f0 ADB2     		uxth	r5, r5
 3268 00f2 291C     		mov	r1, r5
 3269 00f4 FFF7FEFF 		bl	clrPixel
 3270              	.LVL435:
 830:nokia5110/LCD5110_Graph.c **** 		clrPixel(x - y1, y - x1);
 3271              		.loc 2 830 0
 3272 00f8 301C     		mov	r0, r6
 3273 00fa 291C     		mov	r1, r5
 3274 00fc FFF7FEFF 		bl	clrPixel
 3275              	.LVL436:
 3276 0100 A4E7     		b	.L229
 3277              	.LVL437:
 3278              	.L232:
 831:nokia5110/LCD5110_Graph.c **** 	}
 832:nokia5110/LCD5110_Graph.c **** }
 3279              		.loc 2 832 0
 3280 0102 09B0     		add	sp, sp, #36
 3281              		@ sp needed
 3282 0104 F0BD     		pop	{r4, r5, r6, r7, pc}
 3283              		.cfi_endproc
 3284              	.LFE94:
 3285              		.size	clrCircle, .-clrCircle
 3286              		.section	.text.drawBitmap,"ax",%progbits
 3287              		.align	1
 3288              		.global	drawBitmap
 3289              		.code	16
 3290              		.thumb_func
 3291              		.type	drawBitmap, %function
 3292              	drawBitmap:
 3293              	.LFB95:
ARM GAS  C:\Users\Petro\AppData\Local\Temp\cchQWd3Z.s 			page 77


 833:nokia5110/LCD5110_Graph.c **** 
 834:nokia5110/LCD5110_Graph.c **** void drawBitmap(int x, int y, uint8_t* bitmap, int sx, int sy)
 835:nokia5110/LCD5110_Graph.c **** {
 3294              		.loc 2 835 0
 3295              		.cfi_startproc
 3296              	.LVL438:
 3297 0000 F0B5     		push	{r4, r5, r6, r7, lr}
 3298              		.cfi_def_cfa_offset 20
 3299              		.cfi_offset 4, -20
 3300              		.cfi_offset 5, -16
 3301              		.cfi_offset 6, -12
 3302              		.cfi_offset 7, -8
 3303              		.cfi_offset 14, -4
 3304 0002 0F1C     		mov	r7, r1
 3305 0004 1E1C     		mov	r6, r3
 836:nokia5110/LCD5110_Graph.c **** 	int bit;
 837:nokia5110/LCD5110_Graph.c **** 	uint8_t data;
 838:nokia5110/LCD5110_Graph.c **** 
 839:nokia5110/LCD5110_Graph.c ****     int cy;
 840:nokia5110/LCD5110_Graph.c **** 	for (cy=0; cy<sy; cy++)
 3306              		.loc 2 840 0
 3307 0006 0024     		mov	r4, #0
 835:nokia5110/LCD5110_Graph.c **** 	int bit;
 3308              		.loc 2 835 0
 3309 0008 85B0     		sub	sp, sp, #20
 3310              		.cfi_def_cfa_offset 40
 835:nokia5110/LCD5110_Graph.c **** 	int bit;
 3311              		.loc 2 835 0
 3312 000a 0290     		str	r0, [sp, #8]
 3313 000c 0392     		str	r2, [sp, #12]
 3314              	.LVL439:
 3315              	.L234:
 3316              		.loc 2 840 0 discriminator 1
 3317 000e 0A9B     		ldr	r3, [sp, #40]
 3318 0010 9C42     		cmp	r4, r3
 3319 0012 28DA     		bge	.L241
 3320              	.LVL440:
 3321              	.LBB70:
 841:nokia5110/LCD5110_Graph.c **** 	{
 842:nokia5110/LCD5110_Graph.c **** 		bit= cy % 8;
 843:nokia5110/LCD5110_Graph.c ****         int cx;
 844:nokia5110/LCD5110_Graph.c **** 		for(cx=0; cx<sx; cx++)
 845:nokia5110/LCD5110_Graph.c **** 		{
 846:nokia5110/LCD5110_Graph.c **** 			data=bitmapbyte(cx+((cy/8)*sx));
 3322              		.loc 2 846 0
 3323 0014 E317     		asr	r3, r4, #31
 3324 0016 5B0F     		lsr	r3, r3, #29
 3325 0018 1B19     		add	r3, r3, r4
 3326 001a DB10     		asr	r3, r3, #3
 3327 001c 7343     		mul	r3, r6
 3328 001e 0193     		str	r3, [sp, #4]
 842:nokia5110/LCD5110_Graph.c ****         int cx;
 3329              		.loc 2 842 0
 3330 0020 124B     		ldr	r3, .L243
 3331 0022 2340     		and	r3, r4
 3332 0024 04D5     		bpl	.L235
 3333 0026 0822     		mov	r2, #8
ARM GAS  C:\Users\Petro\AppData\Local\Temp\cchQWd3Z.s 			page 78


 3334 0028 013B     		sub	r3, r3, #1
 3335 002a 5242     		neg	r2, r2
 3336 002c 1343     		orr	r3, r2
 3337 002e 0133     		add	r3, r3, #1
 3338              	.L235:
 847:nokia5110/LCD5110_Graph.c **** 			if ((data & (1<<bit))>0)
 3339              		.loc 2 847 0
 3340 0030 0122     		mov	r2, #1
 3341 0032 9A40     		lsl	r2, r2, r3
 844:nokia5110/LCD5110_Graph.c **** 		{
 3342              		.loc 2 844 0
 3343 0034 0025     		mov	r5, #0
 3344              		.loc 2 847 0
 3345 0036 0092     		str	r2, [sp]
 3346              	.LVL441:
 3347              	.L236:
 844:nokia5110/LCD5110_Graph.c **** 		{
 3348              		.loc 2 844 0 discriminator 1
 3349 0038 B542     		cmp	r5, r6
 3350 003a 12DA     		bge	.L242
 3351              	.LVL442:
 3352 003c 019A     		ldr	r2, [sp, #4]
 3353 003e 039B     		ldr	r3, [sp, #12]
 3354 0040 E119     		add	r1, r4, r7
 3355 0042 9B18     		add	r3, r3, r2
 3356 0044 029A     		ldr	r2, [sp, #8]
 3357              		.loc 2 847 0
 3358 0046 5B5D     		ldrb	r3, [r3, r5]
 3359 0048 A818     		add	r0, r5, r2
 3360 004a 009A     		ldr	r2, [sp]
 848:nokia5110/LCD5110_Graph.c **** 				setPixel(x+cx, y+cy);
 3361              		.loc 2 848 0
 3362 004c 80B2     		uxth	r0, r0
 3363 004e 89B2     		uxth	r1, r1
 847:nokia5110/LCD5110_Graph.c **** 			if ((data & (1<<bit))>0)
 3364              		.loc 2 847 0
 3365 0050 1A42     		tst	r2, r3
 3366 0052 02D0     		beq	.L237
 3367              		.loc 2 848 0
 3368 0054 FFF7FEFF 		bl	setPixel
 3369              	.LVL443:
 3370 0058 01E0     		b	.L238
 3371              	.LVL444:
 3372              	.L237:
 849:nokia5110/LCD5110_Graph.c **** 			else
 850:nokia5110/LCD5110_Graph.c **** 				clrPixel(x+cx, y+cy);
 3373              		.loc 2 850 0
 3374 005a FFF7FEFF 		bl	clrPixel
 3375              	.LVL445:
 3376              	.L238:
 844:nokia5110/LCD5110_Graph.c **** 		{
 3377              		.loc 2 844 0 discriminator 2
 3378 005e 0135     		add	r5, r5, #1
 3379              	.LVL446:
 3380 0060 EAE7     		b	.L236
 3381              	.L242:
 3382              	.LBE70:
ARM GAS  C:\Users\Petro\AppData\Local\Temp\cchQWd3Z.s 			page 79


 840:nokia5110/LCD5110_Graph.c **** 	{
 3383              		.loc 2 840 0 discriminator 2
 3384 0062 0134     		add	r4, r4, #1
 3385              	.LVL447:
 3386 0064 D3E7     		b	.L234
 3387              	.LVL448:
 3388              	.L241:
 851:nokia5110/LCD5110_Graph.c **** 		}
 852:nokia5110/LCD5110_Graph.c **** 	}      
 853:nokia5110/LCD5110_Graph.c **** }
 3389              		.loc 2 853 0
 3390 0066 05B0     		add	sp, sp, #20
 3391              		@ sp needed
 3392              	.LVL449:
 3393              	.LVL450:
 3394              	.LVL451:
 3395 0068 F0BD     		pop	{r4, r5, r6, r7, pc}
 3396              	.L244:
 3397 006a C046     		.align	2
 3398              	.L243:
 3399 006c 07000080 		.word	-2147483641
 3400              		.cfi_endproc
 3401              	.LFE95:
 3402              		.size	drawBitmap, .-drawBitmap
 3403              		.comm	_contrast,4,4
 3404              		.comm	_sleep,1,1
 3405              		.comm	scrbuf,504,1
 3406              		.comm	cfont,12,4
 3407              		.section	.rodata.str1.1,"aMS",%progbits,1
 3408              	.LC0:
 3409 0000 25252569 		.ascii	"%%%i.%if\000"
 3409      2E256966 
 3409      00
 3410              		.text
 3411              	.Letext0:
 3412              		.file 3 "c:\\program files (x86)\\cypress\\psoc creator\\4.0\\psoc creator\\import\\gnu\\arm\\4.9.
 3413              		.file 4 "c:\\program files (x86)\\cypress\\psoc creator\\4.0\\psoc creator\\import\\gnu\\arm\\4.9.
 3414              		.file 5 "Generated_Source\\PSoC4/cytypes.h"
 3415              		.file 6 "c:\\program files (x86)\\cypress\\psoc creator\\4.0\\psoc creator\\import\\gnu\\arm\\4.9.
 3416              		.file 7 "nokia5110\\LCD5110_Graph.h"
 3417              		.file 8 "Generated_Source\\PSoC4/DC.h"
 3418              		.file 9 "Generated_Source\\PSoC4/CE.h"
 3419              		.file 10 "Generated_Source\\PSoC4/SwSPI_Master.h"
 3420              		.file 11 "Generated_Source\\PSoC4/RST.h"
 3421              		.file 12 "c:\\program files (x86)\\cypress\\psoc creator\\4.0\\psoc creator\\import\\gnu\\arm\\4.9
 3422              		.file 13 "Generated_Source\\PSoC4/ble_Stack.h"
 3423              		.file 14 "c:\\program files (x86)\\cypress\\psoc creator\\4.0\\psoc creator\\import\\gnu\\arm\\4.9
 3424              		.section	.debug_info,"",%progbits
 3425              	.Ldebug_info0:
 3426 0000 CC1D0000 		.4byte	0x1dcc
 3427 0004 0400     		.2byte	0x4
 3428 0006 00000000 		.4byte	.Ldebug_abbrev0
 3429 000a 04       		.byte	0x4
 3430 000b 01       		.uleb128 0x1
 3431 000c 2B000000 		.4byte	.LASF144
 3432 0010 01       		.byte	0x1
 3433 0011 690A0000 		.4byte	.LASF145
ARM GAS  C:\Users\Petro\AppData\Local\Temp\cchQWd3Z.s 			page 80


 3434 0015 92010000 		.4byte	.LASF146
 3435 0019 68000000 		.4byte	.Ldebug_ranges0+0x68
 3436 001d 00000000 		.4byte	0
 3437 0021 00000000 		.4byte	.Ldebug_line0
 3438 0025 02       		.uleb128 0x2
 3439 0026 08       		.byte	0x8
 3440 0027 04       		.byte	0x4
 3441 0028 E50A0000 		.4byte	.LASF0
 3442 002c 03       		.uleb128 0x3
 3443 002d 04       		.byte	0x4
 3444 002e 05       		.byte	0x5
 3445 002f 696E7400 		.ascii	"int\000"
 3446 0033 02       		.uleb128 0x2
 3447 0034 04       		.byte	0x4
 3448 0035 04       		.byte	0x4
 3449 0036 02080000 		.4byte	.LASF1
 3450 003a 02       		.uleb128 0x2
 3451 003b 01       		.byte	0x1
 3452 003c 06       		.byte	0x6
 3453 003d C3020000 		.4byte	.LASF2
 3454 0041 04       		.uleb128 0x4
 3455 0042 54010000 		.4byte	.LASF5
 3456 0046 03       		.byte	0x3
 3457 0047 1D       		.byte	0x1d
 3458 0048 4C000000 		.4byte	0x4c
 3459 004c 02       		.uleb128 0x2
 3460 004d 01       		.byte	0x1
 3461 004e 08       		.byte	0x8
 3462 004f 2F080000 		.4byte	.LASF3
 3463 0053 02       		.uleb128 0x2
 3464 0054 02       		.byte	0x2
 3465 0055 05       		.byte	0x5
 3466 0056 4C080000 		.4byte	.LASF4
 3467 005a 04       		.uleb128 0x4
 3468 005b 2D090000 		.4byte	.LASF6
 3469 005f 03       		.byte	0x3
 3470 0060 2B       		.byte	0x2b
 3471 0061 65000000 		.4byte	0x65
 3472 0065 02       		.uleb128 0x2
 3473 0066 02       		.byte	0x2
 3474 0067 07       		.byte	0x7
 3475 0068 3E050000 		.4byte	.LASF7
 3476 006c 02       		.uleb128 0x2
 3477 006d 04       		.byte	0x4
 3478 006e 05       		.byte	0x5
 3479 006f 83010000 		.4byte	.LASF8
 3480 0073 02       		.uleb128 0x2
 3481 0074 04       		.byte	0x4
 3482 0075 07       		.byte	0x7
 3483 0076 B9040000 		.4byte	.LASF9
 3484 007a 02       		.uleb128 0x2
 3485 007b 08       		.byte	0x8
 3486 007c 05       		.byte	0x5
 3487 007d B5020000 		.4byte	.LASF10
 3488 0081 02       		.uleb128 0x2
 3489 0082 08       		.byte	0x8
 3490 0083 07       		.byte	0x7
ARM GAS  C:\Users\Petro\AppData\Local\Temp\cchQWd3Z.s 			page 81


 3491 0084 E7020000 		.4byte	.LASF11
 3492 0088 02       		.uleb128 0x2
 3493 0089 04       		.byte	0x4
 3494 008a 07       		.byte	0x7
 3495 008b 76040000 		.4byte	.LASF12
 3496 008f 04       		.uleb128 0x4
 3497 0090 020A0000 		.4byte	.LASF13
 3498 0094 04       		.byte	0x4
 3499 0095 15       		.byte	0x15
 3500 0096 41000000 		.4byte	0x41
 3501 009a 04       		.uleb128 0x4
 3502 009b A2040000 		.4byte	.LASF14
 3503 009f 04       		.byte	0x4
 3504 00a0 21       		.byte	0x21
 3505 00a1 5A000000 		.4byte	0x5a
 3506 00a5 05       		.uleb128 0x5
 3507 00a6 C5030000 		.4byte	.LASF15
 3508 00aa 05       		.byte	0x5
 3509 00ab 9801     		.2byte	0x198
 3510 00ad 4C000000 		.4byte	0x4c
 3511 00b1 02       		.uleb128 0x2
 3512 00b2 01       		.byte	0x1
 3513 00b3 08       		.byte	0x8
 3514 00b4 23090000 		.4byte	.LASF16
 3515 00b8 04       		.uleb128 0x4
 3516 00b9 C8000000 		.4byte	.LASF17
 3517 00bd 06       		.byte	0x6
 3518 00be D4       		.byte	0xd4
 3519 00bf 88000000 		.4byte	0x88
 3520 00c3 02       		.uleb128 0x2
 3521 00c4 04       		.byte	0x4
 3522 00c5 07       		.byte	0x7
 3523 00c6 14070000 		.4byte	.LASF18
 3524 00ca 06       		.uleb128 0x6
 3525 00cb 04       		.byte	0x4
 3526 00cc B1000000 		.4byte	0xb1
 3527 00d0 06       		.uleb128 0x6
 3528 00d1 04       		.byte	0x4
 3529 00d2 D6000000 		.4byte	0xd6
 3530 00d6 07       		.uleb128 0x7
 3531 00d7 B1000000 		.4byte	0xb1
 3532 00db 08       		.uleb128 0x8
 3533 00dc B1000000 		.4byte	0xb1
 3534 00e0 EB000000 		.4byte	0xeb
 3535 00e4 09       		.uleb128 0x9
 3536 00e5 C3000000 		.4byte	0xc3
 3537 00e9 18       		.byte	0x18
 3538 00ea 00       		.byte	0
 3539 00eb 0A       		.uleb128 0xa
 3540 00ec 01       		.byte	0x1
 3541 00ed 0D       		.byte	0xd
 3542 00ee A4       		.byte	0xa4
 3543 00ef 70020000 		.4byte	0x270
 3544 00f3 0B       		.uleb128 0xb
 3545 00f4 51050000 		.4byte	.LASF19
 3546 00f8 00       		.sleb128 0
 3547 00f9 0B       		.uleb128 0xb
ARM GAS  C:\Users\Petro\AppData\Local\Temp\cchQWd3Z.s 			page 82


 3548 00fa CF020000 		.4byte	.LASF20
 3549 00fe 01       		.sleb128 1
 3550 00ff 0B       		.uleb128 0xb
 3551 0100 71010000 		.4byte	.LASF21
 3552 0104 02       		.sleb128 2
 3553 0105 0B       		.uleb128 0xb
 3554 0106 A5090000 		.4byte	.LASF22
 3555 010a 03       		.sleb128 3
 3556 010b 0B       		.uleb128 0xb
 3557 010c F6010000 		.4byte	.LASF23
 3558 0110 04       		.sleb128 4
 3559 0111 0B       		.uleb128 0xb
 3560 0112 19010000 		.4byte	.LASF24
 3561 0116 05       		.sleb128 5
 3562 0117 0B       		.uleb128 0xb
 3563 0118 78060000 		.4byte	.LASF25
 3564 011c 20       		.sleb128 32
 3565 011d 0B       		.uleb128 0xb
 3566 011e 1D030000 		.4byte	.LASF26
 3567 0122 21       		.sleb128 33
 3568 0123 0B       		.uleb128 0xb
 3569 0124 A8050000 		.4byte	.LASF27
 3570 0128 22       		.sleb128 34
 3571 0129 0B       		.uleb128 0xb
 3572 012a 05060000 		.4byte	.LASF28
 3573 012e 23       		.sleb128 35
 3574 012f 0B       		.uleb128 0xb
 3575 0130 66070000 		.4byte	.LASF29
 3576 0134 24       		.sleb128 36
 3577 0135 0B       		.uleb128 0xb
 3578 0136 2B070000 		.4byte	.LASF30
 3579 013a 25       		.sleb128 37
 3580 013b 0B       		.uleb128 0xb
 3581 013c 7F030000 		.4byte	.LASF31
 3582 0140 26       		.sleb128 38
 3583 0141 0B       		.uleb128 0xb
 3584 0142 CC050000 		.4byte	.LASF32
 3585 0146 27       		.sleb128 39
 3586 0147 0B       		.uleb128 0xb
 3587 0148 AA060000 		.4byte	.LASF33
 3588 014c 28       		.sleb128 40
 3589 014d 0B       		.uleb128 0xb
 3590 014e 6D020000 		.4byte	.LASF34
 3591 0152 29       		.sleb128 41
 3592 0153 0B       		.uleb128 0xb
 3593 0154 CF000000 		.4byte	.LASF35
 3594 0158 2A       		.sleb128 42
 3595 0159 0B       		.uleb128 0xb
 3596 015a FE020000 		.4byte	.LASF36
 3597 015e 2B       		.sleb128 43
 3598 015f 0B       		.uleb128 0xb
 3599 0160 450A0000 		.4byte	.LASF37
 3600 0164 2C       		.sleb128 44
 3601 0165 0B       		.uleb128 0xb
 3602 0166 DB080000 		.4byte	.LASF38
 3603 016a C000     		.sleb128 64
 3604 016c 0B       		.uleb128 0xb
ARM GAS  C:\Users\Petro\AppData\Local\Temp\cchQWd3Z.s 			page 83


 3605 016d 2B060000 		.4byte	.LASF39
 3606 0171 C100     		.sleb128 65
 3607 0173 0B       		.uleb128 0xb
 3608 0174 EC0A0000 		.4byte	.LASF40
 3609 0178 C200     		.sleb128 66
 3610 017a 0B       		.uleb128 0xb
 3611 017b A7030000 		.4byte	.LASF41
 3612 017f C300     		.sleb128 67
 3613 0181 0B       		.uleb128 0xb
 3614 0182 D4040000 		.4byte	.LASF42
 3615 0186 C400     		.sleb128 68
 3616 0188 0B       		.uleb128 0xb
 3617 0189 DB070000 		.4byte	.LASF43
 3618 018d C500     		.sleb128 69
 3619 018f 0B       		.uleb128 0xb
 3620 0190 EA060000 		.4byte	.LASF44
 3621 0194 C600     		.sleb128 70
 3622 0196 0B       		.uleb128 0xb
 3623 0197 F5080000 		.4byte	.LASF45
 3624 019b C700     		.sleb128 71
 3625 019d 0B       		.uleb128 0xb
 3626 019e 1E0A0000 		.4byte	.LASF46
 3627 01a2 C800     		.sleb128 72
 3628 01a4 0B       		.uleb128 0xb
 3629 01a5 34030000 		.4byte	.LASF47
 3630 01a9 C900     		.sleb128 73
 3631 01ab 0B       		.uleb128 0xb
 3632 01ac 61090000 		.4byte	.LASF48
 3633 01b0 CA00     		.sleb128 74
 3634 01b2 0B       		.uleb128 0xb
 3635 01b3 35010000 		.4byte	.LASF49
 3636 01b7 CB00     		.sleb128 75
 3637 01b9 0B       		.uleb128 0xb
 3638 01ba EB050000 		.4byte	.LASF50
 3639 01be CC00     		.sleb128 76
 3640 01c0 0B       		.uleb128 0xb
 3641 01c1 45070000 		.4byte	.LASF51
 3642 01c5 CD00     		.sleb128 77
 3643 01c7 0B       		.uleb128 0xb
 3644 01c8 57030000 		.4byte	.LASF52
 3645 01cc CE00     		.sleb128 78
 3646 01ce 0B       		.uleb128 0xb
 3647 01cf 80080000 		.4byte	.LASF53
 3648 01d3 CF00     		.sleb128 79
 3649 01d5 0B       		.uleb128 0xb
 3650 01d6 89050000 		.4byte	.LASF54
 3651 01da D000     		.sleb128 80
 3652 01dc 0B       		.uleb128 0xb
 3653 01dd CB030000 		.4byte	.LASF55
 3654 01e1 D100     		.sleb128 81
 3655 01e3 0B       		.uleb128 0xb
 3656 01e4 89070000 		.4byte	.LASF56
 3657 01e8 D200     		.sleb128 82
 3658 01ea 0B       		.uleb128 0xb
 3659 01eb 56080000 		.4byte	.LASF57
 3660 01ef D300     		.sleb128 83
 3661 01f1 0B       		.uleb128 0xb
ARM GAS  C:\Users\Petro\AppData\Local\Temp\cchQWd3Z.s 			page 84


 3662 01f2 BA080000 		.4byte	.LASF58
 3663 01f6 D400     		.sleb128 84
 3664 01f8 0B       		.uleb128 0xb
 3665 01f9 F2040000 		.4byte	.LASF59
 3666 01fd D500     		.sleb128 85
 3667 01ff 0B       		.uleb128 0xb
 3668 0200 54040000 		.4byte	.LASF60
 3669 0204 D600     		.sleb128 86
 3670 0206 0B       		.uleb128 0xb
 3671 0207 38090000 		.4byte	.LASF61
 3672 020b D700     		.sleb128 87
 3673 020d 0B       		.uleb128 0xb
 3674 020e 3C020000 		.4byte	.LASF62
 3675 0212 F000     		.sleb128 112
 3676 0214 0B       		.uleb128 0xb
 3677 0215 A40A0000 		.4byte	.LASF63
 3678 0219 F100     		.sleb128 113
 3679 021b 0B       		.uleb128 0xb
 3680 021c 4F060000 		.4byte	.LASF64
 3681 0220 F200     		.sleb128 114
 3682 0222 0B       		.uleb128 0xb
 3683 0223 CC060000 		.4byte	.LASF65
 3684 0227 F300     		.sleb128 115
 3685 0229 0B       		.uleb128 0xb
 3686 022a BD070000 		.4byte	.LASF66
 3687 022e F400     		.sleb128 116
 3688 0230 0B       		.uleb128 0xb
 3689 0231 830A0000 		.4byte	.LASF67
 3690 0235 F500     		.sleb128 117
 3691 0237 0B       		.uleb128 0xb
 3692 0238 F8000000 		.4byte	.LASF68
 3693 023c F600     		.sleb128 118
 3694 023e 0B       		.uleb128 0xb
 3695 023f 7F090000 		.4byte	.LASF69
 3696 0243 F700     		.sleb128 119
 3697 0245 0B       		.uleb128 0xb
 3698 0246 00000000 		.4byte	.LASF70
 3699 024a F800     		.sleb128 120
 3700 024c 0B       		.uleb128 0xb
 3701 024d 8A020000 		.4byte	.LASF71
 3702 0251 F900     		.sleb128 121
 3703 0253 0B       		.uleb128 0xb
 3704 0254 20040000 		.4byte	.LASF72
 3705 0258 FA00     		.sleb128 122
 3706 025a 0B       		.uleb128 0xb
 3707 025b 11020000 		.4byte	.LASF73
 3708 025f FA01     		.sleb128 250
 3709 0261 0B       		.uleb128 0xb
 3710 0262 83040000 		.4byte	.LASF74
 3711 0266 FB01     		.sleb128 251
 3712 0268 0B       		.uleb128 0xb
 3713 0269 1D070000 		.4byte	.LASF75
 3714 026d FF01     		.sleb128 255
 3715 026f 00       		.byte	0
 3716 0270 0C       		.uleb128 0xc
 3717 0271 0C       		.byte	0xc
 3718 0272 07       		.byte	0x7
ARM GAS  C:\Users\Petro\AppData\Local\Temp\cchQWd3Z.s 			page 85


 3719 0273 3F       		.byte	0x3f
 3720 0274 C1020000 		.4byte	0x2c1
 3721 0278 0D       		.uleb128 0xd
 3722 0279 E7090000 		.4byte	.LASF76
 3723 027d 07       		.byte	0x7
 3724 027e 41       		.byte	0x41
 3725 027f C1020000 		.4byte	0x2c1
 3726 0283 00       		.byte	0
 3727 0284 0D       		.uleb128 0xd
 3728 0285 5F070000 		.4byte	.LASF77
 3729 0289 07       		.byte	0x7
 3730 028a 42       		.byte	0x42
 3731 028b 8F000000 		.4byte	0x8f
 3732 028f 04       		.byte	0x4
 3733 0290 0D       		.uleb128 0xd
 3734 0291 45080000 		.4byte	.LASF78
 3735 0295 07       		.byte	0x7
 3736 0296 43       		.byte	0x43
 3737 0297 8F000000 		.4byte	0x8f
 3738 029b 05       		.byte	0x5
 3739 029c 0D       		.uleb128 0xd
 3740 029d 9E090000 		.4byte	.LASF79
 3741 02a1 07       		.byte	0x7
 3742 02a2 44       		.byte	0x44
 3743 02a3 8F000000 		.4byte	0x8f
 3744 02a7 06       		.byte	0x6
 3745 02a8 0D       		.uleb128 0xd
 3746 02a9 ED010000 		.4byte	.LASF80
 3747 02ad 07       		.byte	0x7
 3748 02ae 45       		.byte	0x45
 3749 02af 8F000000 		.4byte	0x8f
 3750 02b3 07       		.byte	0x7
 3751 02b4 0D       		.uleb128 0xd
 3752 02b5 77080000 		.4byte	.LASF81
 3753 02b9 07       		.byte	0x7
 3754 02ba 46       		.byte	0x46
 3755 02bb 8F000000 		.4byte	0x8f
 3756 02bf 08       		.byte	0x8
 3757 02c0 00       		.byte	0
 3758 02c1 06       		.uleb128 0x6
 3759 02c2 04       		.byte	0x4
 3760 02c3 8F000000 		.4byte	0x8f
 3761 02c7 04       		.uleb128 0x4
 3762 02c8 9C060000 		.4byte	.LASF82
 3763 02cc 07       		.byte	0x7
 3764 02cd 47       		.byte	0x47
 3765 02ce 70020000 		.4byte	0x270
 3766 02d2 0E       		.uleb128 0xe
 3767 02d3 C3090000 		.4byte	.LASF147
 3768 02d7 02       		.byte	0x2
 3769 02d8 7A       		.byte	0x7a
 3770 02d9 01       		.byte	0x1
 3771 02da EA020000 		.4byte	0x2ea
 3772 02de 0F       		.uleb128 0xf
 3773 02df 10       		.uleb128 0x10
 3774 02e0 6200     		.ascii	"b\000"
 3775 02e2 02       		.byte	0x2
ARM GAS  C:\Users\Petro\AppData\Local\Temp\cchQWd3Z.s 			page 86


 3776 02e3 80       		.byte	0x80
 3777 02e4 2C000000 		.4byte	0x2c
 3778 02e8 00       		.byte	0
 3779 02e9 00       		.byte	0
 3780 02ea 11       		.uleb128 0x11
 3781 02eb CB040000 		.4byte	.LASF83
 3782 02ef 02       		.byte	0x2
 3783 02f0 9C       		.byte	0x9c
 3784 02f1 01       		.byte	0x1
 3785 02f2 1D030000 		.4byte	0x31d
 3786 02f6 12       		.uleb128 0x12
 3787 02f7 7800     		.ascii	"x\000"
 3788 02f9 02       		.byte	0x2
 3789 02fa 9C       		.byte	0x9c
 3790 02fb 9A000000 		.4byte	0x9a
 3791 02ff 12       		.uleb128 0x12
 3792 0300 7900     		.ascii	"y\000"
 3793 0302 02       		.byte	0x2
 3794 0303 9C       		.byte	0x9c
 3795 0304 9A000000 		.4byte	0x9a
 3796 0308 10       		.uleb128 0x10
 3797 0309 627900   		.ascii	"by\000"
 3798 030c 02       		.byte	0x2
 3799 030d 9E       		.byte	0x9e
 3800 030e 2C000000 		.4byte	0x2c
 3801 0312 10       		.uleb128 0x10
 3802 0313 626900   		.ascii	"bi\000"
 3803 0316 02       		.byte	0x2
 3804 0317 9E       		.byte	0x9e
 3805 0318 2C000000 		.4byte	0x2c
 3806 031c 00       		.byte	0
 3807 031d 11       		.uleb128 0x11
 3808 031e 46060000 		.4byte	.LASF84
 3809 0322 02       		.byte	0x2
 3810 0323 A9       		.byte	0xa9
 3811 0324 01       		.byte	0x1
 3812 0325 50030000 		.4byte	0x350
 3813 0329 12       		.uleb128 0x12
 3814 032a 7800     		.ascii	"x\000"
 3815 032c 02       		.byte	0x2
 3816 032d A9       		.byte	0xa9
 3817 032e 9A000000 		.4byte	0x9a
 3818 0332 12       		.uleb128 0x12
 3819 0333 7900     		.ascii	"y\000"
 3820 0335 02       		.byte	0x2
 3821 0336 A9       		.byte	0xa9
 3822 0337 9A000000 		.4byte	0x9a
 3823 033b 10       		.uleb128 0x10
 3824 033c 627900   		.ascii	"by\000"
 3825 033f 02       		.byte	0x2
 3826 0340 AB       		.byte	0xab
 3827 0341 2C000000 		.4byte	0x2c
 3828 0345 10       		.uleb128 0x10
 3829 0346 626900   		.ascii	"bi\000"
 3830 0349 02       		.byte	0x2
 3831 034a AB       		.byte	0xab
 3832 034b 2C000000 		.4byte	0x2c
ARM GAS  C:\Users\Petro\AppData\Local\Temp\cchQWd3Z.s 			page 87


 3833 034f 00       		.byte	0
 3834 0350 13       		.uleb128 0x13
 3835 0351 B3070000 		.4byte	.LASF85
 3836 0355 02       		.byte	0x2
 3837 0356 9801     		.2byte	0x198
 3838 0358 01       		.byte	0x1
 3839 0359 9F030000 		.4byte	0x39f
 3840 035d 14       		.uleb128 0x14
 3841 035e 7800     		.ascii	"x\000"
 3842 0360 02       		.byte	0x2
 3843 0361 9801     		.2byte	0x198
 3844 0363 2C000000 		.4byte	0x2c
 3845 0367 14       		.uleb128 0x14
 3846 0368 7900     		.ascii	"y\000"
 3847 036a 02       		.byte	0x2
 3848 036b 9801     		.2byte	0x198
 3849 036d 2C000000 		.4byte	0x2c
 3850 0371 14       		.uleb128 0x14
 3851 0372 6C00     		.ascii	"l\000"
 3852 0374 02       		.byte	0x2
 3853 0375 9801     		.2byte	0x198
 3854 0377 2C000000 		.4byte	0x2c
 3855 037b 15       		.uleb128 0x15
 3856 037c 627900   		.ascii	"by\000"
 3857 037f 02       		.byte	0x2
 3858 0380 9A01     		.2byte	0x19a
 3859 0382 2C000000 		.4byte	0x2c
 3860 0386 15       		.uleb128 0x15
 3861 0387 626900   		.ascii	"bi\000"
 3862 038a 02       		.byte	0x2
 3863 038b 9A01     		.2byte	0x19a
 3864 038d 2C000000 		.4byte	0x2c
 3865 0391 0F       		.uleb128 0xf
 3866 0392 15       		.uleb128 0x15
 3867 0393 637800   		.ascii	"cx\000"
 3868 0396 02       		.byte	0x2
 3869 0397 9E01     		.2byte	0x19e
 3870 0399 2C000000 		.4byte	0x2c
 3871 039d 00       		.byte	0
 3872 039e 00       		.byte	0
 3873 039f 13       		.uleb128 0x13
 3874 03a0 0B070000 		.4byte	.LASF86
 3875 03a4 02       		.byte	0x2
 3876 03a5 A901     		.2byte	0x1a9
 3877 03a7 01       		.byte	0x1
 3878 03a8 EE030000 		.4byte	0x3ee
 3879 03ac 14       		.uleb128 0x14
 3880 03ad 7800     		.ascii	"x\000"
 3881 03af 02       		.byte	0x2
 3882 03b0 A901     		.2byte	0x1a9
 3883 03b2 2C000000 		.4byte	0x2c
 3884 03b6 14       		.uleb128 0x14
 3885 03b7 7900     		.ascii	"y\000"
 3886 03b9 02       		.byte	0x2
 3887 03ba A901     		.2byte	0x1a9
 3888 03bc 2C000000 		.4byte	0x2c
 3889 03c0 14       		.uleb128 0x14
ARM GAS  C:\Users\Petro\AppData\Local\Temp\cchQWd3Z.s 			page 88


 3890 03c1 6C00     		.ascii	"l\000"
 3891 03c3 02       		.byte	0x2
 3892 03c4 A901     		.2byte	0x1a9
 3893 03c6 2C000000 		.4byte	0x2c
 3894 03ca 15       		.uleb128 0x15
 3895 03cb 627900   		.ascii	"by\000"
 3896 03ce 02       		.byte	0x2
 3897 03cf AB01     		.2byte	0x1ab
 3898 03d1 2C000000 		.4byte	0x2c
 3899 03d5 15       		.uleb128 0x15
 3900 03d6 626900   		.ascii	"bi\000"
 3901 03d9 02       		.byte	0x2
 3902 03da AB01     		.2byte	0x1ab
 3903 03dc 2C000000 		.4byte	0x2c
 3904 03e0 0F       		.uleb128 0xf
 3905 03e1 15       		.uleb128 0x15
 3906 03e2 637800   		.ascii	"cx\000"
 3907 03e5 02       		.byte	0x2
 3908 03e6 AF01     		.2byte	0x1af
 3909 03e8 2C000000 		.4byte	0x2c
 3910 03ec 00       		.byte	0
 3911 03ed 00       		.byte	0
 3912 03ee 13       		.uleb128 0x13
 3913 03ef 22050000 		.4byte	.LASF87
 3914 03f3 02       		.byte	0x2
 3915 03f4 BA01     		.2byte	0x1ba
 3916 03f6 01       		.byte	0x1
 3917 03f7 3D040000 		.4byte	0x43d
 3918 03fb 14       		.uleb128 0x14
 3919 03fc 7800     		.ascii	"x\000"
 3920 03fe 02       		.byte	0x2
 3921 03ff BA01     		.2byte	0x1ba
 3922 0401 2C000000 		.4byte	0x2c
 3923 0405 14       		.uleb128 0x14
 3924 0406 7900     		.ascii	"y\000"
 3925 0408 02       		.byte	0x2
 3926 0409 BA01     		.2byte	0x1ba
 3927 040b 2C000000 		.4byte	0x2c
 3928 040f 14       		.uleb128 0x14
 3929 0410 6C00     		.ascii	"l\000"
 3930 0412 02       		.byte	0x2
 3931 0413 BA01     		.2byte	0x1ba
 3932 0415 2C000000 		.4byte	0x2c
 3933 0419 15       		.uleb128 0x15
 3934 041a 627900   		.ascii	"by\000"
 3935 041d 02       		.byte	0x2
 3936 041e BC01     		.2byte	0x1bc
 3937 0420 2C000000 		.4byte	0x2c
 3938 0424 15       		.uleb128 0x15
 3939 0425 626900   		.ascii	"bi\000"
 3940 0428 02       		.byte	0x2
 3941 0429 BC01     		.2byte	0x1bc
 3942 042b 2C000000 		.4byte	0x2c
 3943 042f 0F       		.uleb128 0xf
 3944 0430 15       		.uleb128 0x15
 3945 0431 637900   		.ascii	"cy\000"
 3946 0434 02       		.byte	0x2
ARM GAS  C:\Users\Petro\AppData\Local\Temp\cchQWd3Z.s 			page 89


 3947 0435 C001     		.2byte	0x1c0
 3948 0437 2C000000 		.4byte	0x2c
 3949 043b 00       		.byte	0
 3950 043c 00       		.byte	0
 3951 043d 13       		.uleb128 0x13
 3952 043e 4B040000 		.4byte	.LASF88
 3953 0442 02       		.byte	0x2
 3954 0443 C801     		.2byte	0x1c8
 3955 0445 01       		.byte	0x1
 3956 0446 8C040000 		.4byte	0x48c
 3957 044a 14       		.uleb128 0x14
 3958 044b 7800     		.ascii	"x\000"
 3959 044d 02       		.byte	0x2
 3960 044e C801     		.2byte	0x1c8
 3961 0450 2C000000 		.4byte	0x2c
 3962 0454 14       		.uleb128 0x14
 3963 0455 7900     		.ascii	"y\000"
 3964 0457 02       		.byte	0x2
 3965 0458 C801     		.2byte	0x1c8
 3966 045a 2C000000 		.4byte	0x2c
 3967 045e 14       		.uleb128 0x14
 3968 045f 6C00     		.ascii	"l\000"
 3969 0461 02       		.byte	0x2
 3970 0462 C801     		.2byte	0x1c8
 3971 0464 2C000000 		.4byte	0x2c
 3972 0468 15       		.uleb128 0x15
 3973 0469 627900   		.ascii	"by\000"
 3974 046c 02       		.byte	0x2
 3975 046d CA01     		.2byte	0x1ca
 3976 046f 2C000000 		.4byte	0x2c
 3977 0473 15       		.uleb128 0x15
 3978 0474 626900   		.ascii	"bi\000"
 3979 0477 02       		.byte	0x2
 3980 0478 CA01     		.2byte	0x1ca
 3981 047a 2C000000 		.4byte	0x2c
 3982 047e 0F       		.uleb128 0xf
 3983 047f 15       		.uleb128 0x15
 3984 0480 637900   		.ascii	"cy\000"
 3985 0483 02       		.byte	0x2
 3986 0484 CE01     		.2byte	0x1ce
 3987 0486 2C000000 		.4byte	0x2c
 3988 048a 00       		.byte	0
 3989 048b 00       		.byte	0
 3990 048c 16       		.uleb128 0x16
 3991 048d CA0A0000 		.4byte	.LASF91
 3992 0491 01       		.byte	0x1
 3993 0492 04       		.byte	0x4
 3994 0493 00000000 		.4byte	.LFB63
 3995 0497 28000000 		.4byte	.LFE63-.LFB63
 3996 049b 01       		.uleb128 0x1
 3997 049c 9C       		.byte	0x9c
 3998 049d 31050000 		.4byte	0x531
 3999 04a1 17       		.uleb128 0x17
 4000 04a2 62756600 		.ascii	"buf\000"
 4001 04a6 01       		.byte	0x1
 4002 04a7 04       		.byte	0x4
 4003 04a8 CA000000 		.4byte	0xca
ARM GAS  C:\Users\Petro\AppData\Local\Temp\cchQWd3Z.s 			page 90


 4004 04ac 00000000 		.4byte	.LLST0
 4005 04b0 17       		.uleb128 0x17
 4006 04b1 6E756D00 		.ascii	"num\000"
 4007 04b5 01       		.byte	0x1
 4008 04b6 04       		.byte	0x4
 4009 04b7 25000000 		.4byte	0x25
 4010 04bb 2C000000 		.4byte	.LLST1
 4011 04bf 18       		.uleb128 0x18
 4012 04c0 2C050000 		.4byte	.LASF89
 4013 04c4 01       		.byte	0x1
 4014 04c5 04       		.byte	0x4
 4015 04c6 2C000000 		.4byte	0x2c
 4016 04ca 54000000 		.4byte	.LLST2
 4017 04ce 18       		.uleb128 0x18
 4018 04cf BE090000 		.4byte	.LASF90
 4019 04d3 01       		.byte	0x1
 4020 04d4 04       		.byte	0x4
 4021 04d5 8F000000 		.4byte	0x8f
 4022 04d9 8C000000 		.4byte	.LLST3
 4023 04dd 19       		.uleb128 0x19
 4024 04de 9F080000 		.4byte	.LASF97
 4025 04e2 01       		.byte	0x1
 4026 04e3 06       		.byte	0x6
 4027 04e4 31050000 		.4byte	0x531
 4028 04e8 02       		.uleb128 0x2
 4029 04e9 91       		.byte	0x91
 4030 04ea 64       		.sleb128 -28
 4031 04eb 1A       		.uleb128 0x1a
 4032 04ec 16000000 		.4byte	.LVL5
 4033 04f0 5F1D0000 		.4byte	0x1d5f
 4034 04f4 1A050000 		.4byte	0x51a
 4035 04f8 1B       		.uleb128 0x1b
 4036 04f9 01       		.uleb128 0x1
 4037 04fa 53       		.byte	0x53
 4038 04fb 07       		.uleb128 0x7
 4039 04fc 91       		.byte	0x91
 4040 04fd 04       		.sleb128 4
 4041 04fe 94       		.byte	0x94
 4042 04ff 01       		.byte	0x1
 4043 0500 08       		.byte	0x8
 4044 0501 FF       		.byte	0xff
 4045 0502 1A       		.byte	0x1a
 4046 0503 1B       		.uleb128 0x1b
 4047 0504 01       		.uleb128 0x1
 4048 0505 52       		.byte	0x52
 4049 0506 03       		.uleb128 0x3
 4050 0507 91       		.byte	0x91
 4051 0508 00       		.sleb128 0
 4052 0509 06       		.byte	0x6
 4053 050a 1B       		.uleb128 0x1b
 4054 050b 01       		.uleb128 0x1
 4055 050c 51       		.byte	0x51
 4056 050d 05       		.uleb128 0x5
 4057 050e 03       		.byte	0x3
 4058 050f 00000000 		.4byte	.LC0
 4059 0513 1B       		.uleb128 0x1b
 4060 0514 01       		.uleb128 0x1
ARM GAS  C:\Users\Petro\AppData\Local\Temp\cchQWd3Z.s 			page 91


 4061 0515 50       		.byte	0x50
 4062 0516 02       		.uleb128 0x2
 4063 0517 91       		.byte	0x91
 4064 0518 64       		.sleb128 -28
 4065 0519 00       		.byte	0
 4066 051a 1C       		.uleb128 0x1c
 4067 051b 22000000 		.4byte	.LVL6
 4068 051f 5F1D0000 		.4byte	0x1d5f
 4069 0523 1B       		.uleb128 0x1b
 4070 0524 01       		.uleb128 0x1
 4071 0525 51       		.byte	0x51
 4072 0526 02       		.uleb128 0x2
 4073 0527 91       		.byte	0x91
 4074 0528 64       		.sleb128 -28
 4075 0529 1B       		.uleb128 0x1b
 4076 052a 01       		.uleb128 0x1
 4077 052b 50       		.byte	0x50
 4078 052c 02       		.uleb128 0x2
 4079 052d 76       		.byte	0x76
 4080 052e 00       		.sleb128 0
 4081 052f 00       		.byte	0
 4082 0530 00       		.byte	0
 4083 0531 08       		.uleb128 0x8
 4084 0532 B1000000 		.4byte	0xb1
 4085 0536 41050000 		.4byte	0x541
 4086 053a 09       		.uleb128 0x9
 4087 053b C3000000 		.4byte	0xc3
 4088 053f 09       		.byte	0x9
 4089 0540 00       		.byte	0
 4090 0541 16       		.uleb128 0x16
 4091 0542 68050000 		.4byte	.LASF92
 4092 0546 02       		.byte	0x2
 4093 0547 1F       		.byte	0x1f
 4094 0548 00000000 		.4byte	.LFB64
 4095 054c 22000000 		.4byte	.LFE64-.LFB64
 4096 0550 01       		.uleb128 0x1
 4097 0551 9C       		.byte	0x9c
 4098 0552 B4050000 		.4byte	0x5b4
 4099 0556 18       		.uleb128 0x18
 4100 0557 32050000 		.4byte	.LASF93
 4101 055b 02       		.byte	0x2
 4102 055c 1F       		.byte	0x1f
 4103 055d 4C000000 		.4byte	0x4c
 4104 0561 C4000000 		.4byte	.LLST4
 4105 0565 18       		.uleb128 0x18
 4106 0566 28090000 		.4byte	.LASF94
 4107 056a 02       		.byte	0x2
 4108 056b 1F       		.byte	0x1f
 4109 056c 4C000000 		.4byte	0x4c
 4110 0570 E5000000 		.4byte	.LLST5
 4111 0574 1D       		.uleb128 0x1d
 4112 0575 0E000000 		.4byte	.LVL10
 4113 0579 7A1D0000 		.4byte	0x1d7a
 4114 057d 1A       		.uleb128 0x1a
 4115 057e 14000000 		.4byte	.LVL11
 4116 0582 8B1D0000 		.4byte	0x1d8b
 4117 0586 90050000 		.4byte	0x590
ARM GAS  C:\Users\Petro\AppData\Local\Temp\cchQWd3Z.s 			page 92


 4118 058a 1B       		.uleb128 0x1b
 4119 058b 01       		.uleb128 0x1
 4120 058c 50       		.byte	0x50
 4121 058d 01       		.uleb128 0x1
 4122 058e 30       		.byte	0x30
 4123 058f 00       		.byte	0
 4124 0590 1A       		.uleb128 0x1a
 4125 0591 1A000000 		.4byte	.LVL12
 4126 0595 9C1D0000 		.4byte	0x1d9c
 4127 0599 A4050000 		.4byte	0x5a4
 4128 059d 1B       		.uleb128 0x1b
 4129 059e 01       		.uleb128 0x1
 4130 059f 50       		.byte	0x50
 4131 05a0 02       		.uleb128 0x2
 4132 05a1 74       		.byte	0x74
 4133 05a2 00       		.sleb128 0
 4134 05a3 00       		.byte	0
 4135 05a4 1C       		.uleb128 0x1c
 4136 05a5 20000000 		.4byte	.LVL13
 4137 05a9 8B1D0000 		.4byte	0x1d8b
 4138 05ad 1B       		.uleb128 0x1b
 4139 05ae 01       		.uleb128 0x1
 4140 05af 50       		.byte	0x50
 4141 05b0 01       		.uleb128 0x1
 4142 05b1 31       		.byte	0x31
 4143 05b2 00       		.byte	0
 4144 05b3 00       		.byte	0
 4145 05b4 16       		.uleb128 0x16
 4146 05b5 F2030000 		.4byte	.LASF95
 4147 05b9 02       		.byte	0x2
 4148 05ba 57       		.byte	0x57
 4149 05bb 00000000 		.4byte	.LFB66
 4150 05bf 3C000000 		.4byte	.LFE66-.LFB66
 4151 05c3 01       		.uleb128 0x1
 4152 05c4 9C       		.byte	0x9c
 4153 05c5 23060000 		.4byte	0x623
 4154 05c9 18       		.uleb128 0x18
 4155 05ca DE090000 		.4byte	.LASF96
 4156 05ce 02       		.byte	0x2
 4157 05cf 57       		.byte	0x57
 4158 05d0 2C000000 		.4byte	0x2c
 4159 05d4 06010000 		.4byte	.LLST6
 4160 05d8 1A       		.uleb128 0x1a
 4161 05d9 1A000000 		.4byte	.LVL16
 4162 05dd 41050000 		.4byte	0x541
 4163 05e1 F1050000 		.4byte	0x5f1
 4164 05e5 1B       		.uleb128 0x1b
 4165 05e6 01       		.uleb128 0x1
 4166 05e7 51       		.byte	0x51
 4167 05e8 01       		.uleb128 0x1
 4168 05e9 30       		.byte	0x30
 4169 05ea 1B       		.uleb128 0x1b
 4170 05eb 01       		.uleb128 0x1
 4171 05ec 50       		.byte	0x50
 4172 05ed 02       		.uleb128 0x2
 4173 05ee 08       		.byte	0x8
 4174 05ef 21       		.byte	0x21
ARM GAS  C:\Users\Petro\AppData\Local\Temp\cchQWd3Z.s 			page 93


 4175 05f0 00       		.byte	0
 4176 05f1 1A       		.uleb128 0x1a
 4177 05f2 28000000 		.4byte	.LVL17
 4178 05f6 41050000 		.4byte	0x541
 4179 05fa 0D060000 		.4byte	0x60d
 4180 05fe 1B       		.uleb128 0x1b
 4181 05ff 01       		.uleb128 0x1
 4182 0600 51       		.byte	0x51
 4183 0601 01       		.uleb128 0x1
 4184 0602 30       		.byte	0x30
 4185 0603 1B       		.uleb128 0x1b
 4186 0604 01       		.uleb128 0x1
 4187 0605 50       		.byte	0x50
 4188 0606 05       		.uleb128 0x5
 4189 0607 74       		.byte	0x74
 4190 0608 00       		.sleb128 0
 4191 0609 09       		.byte	0x9
 4192 060a 80       		.byte	0x80
 4193 060b 21       		.byte	0x21
 4194 060c 00       		.byte	0
 4195 060d 1C       		.uleb128 0x1c
 4196 060e 30000000 		.4byte	.LVL18
 4197 0612 41050000 		.4byte	0x541
 4198 0616 1B       		.uleb128 0x1b
 4199 0617 01       		.uleb128 0x1
 4200 0618 51       		.byte	0x51
 4201 0619 01       		.uleb128 0x1
 4202 061a 30       		.byte	0x30
 4203 061b 1B       		.uleb128 0x1b
 4204 061c 01       		.uleb128 0x1
 4205 061d 50       		.byte	0x50
 4206 061e 02       		.uleb128 0x2
 4207 061f 08       		.byte	0x8
 4208 0620 20       		.byte	0x20
 4209 0621 00       		.byte	0
 4210 0622 00       		.byte	0
 4211 0623 1E       		.uleb128 0x1e
 4212 0624 D90A0000 		.4byte	.LASF98
 4213 0628 02       		.byte	0x2
 4214 0629 63       		.byte	0x63
 4215 062a 00000000 		.4byte	.LFB67
 4216 062e 38000000 		.4byte	.LFE67-.LFB67
 4217 0632 01       		.uleb128 0x1
 4218 0633 9C       		.byte	0x9c
 4219 0634 A6060000 		.4byte	0x6a6
 4220 0638 1F       		.uleb128 0x1f
 4221 0639 6200     		.ascii	"b\000"
 4222 063b 02       		.byte	0x2
 4223 063c 68       		.byte	0x68
 4224 063d 2C000000 		.4byte	0x2c
 4225 0641 33010000 		.4byte	.LLST7
 4226 0645 1A       		.uleb128 0x1a
 4227 0646 12000000 		.4byte	.LVL20
 4228 064a 41050000 		.4byte	0x541
 4229 064e 5E060000 		.4byte	0x65e
 4230 0652 1B       		.uleb128 0x1b
 4231 0653 01       		.uleb128 0x1
ARM GAS  C:\Users\Petro\AppData\Local\Temp\cchQWd3Z.s 			page 94


 4232 0654 51       		.byte	0x51
 4233 0655 01       		.uleb128 0x1
 4234 0656 30       		.byte	0x30
 4235 0657 1B       		.uleb128 0x1b
 4236 0658 01       		.uleb128 0x1
 4237 0659 50       		.byte	0x50
 4238 065a 02       		.uleb128 0x2
 4239 065b 08       		.byte	0x8
 4240 065c 40       		.byte	0x40
 4241 065d 00       		.byte	0
 4242 065e 1A       		.uleb128 0x1a
 4243 065f 1A000000 		.4byte	.LVL21
 4244 0663 41050000 		.4byte	0x541
 4245 0667 77060000 		.4byte	0x677
 4246 066b 1B       		.uleb128 0x1b
 4247 066c 01       		.uleb128 0x1
 4248 066d 51       		.byte	0x51
 4249 066e 01       		.uleb128 0x1
 4250 066f 30       		.byte	0x30
 4251 0670 1B       		.uleb128 0x1b
 4252 0671 01       		.uleb128 0x1
 4253 0672 50       		.byte	0x50
 4254 0673 02       		.uleb128 0x2
 4255 0674 09       		.byte	0x9
 4256 0675 80       		.byte	0x80
 4257 0676 00       		.byte	0
 4258 0677 1A       		.uleb128 0x1a
 4259 0678 26000000 		.4byte	.LVL24
 4260 067c 41050000 		.4byte	0x541
 4261 0680 8F060000 		.4byte	0x68f
 4262 0684 1B       		.uleb128 0x1b
 4263 0685 01       		.uleb128 0x1
 4264 0686 51       		.byte	0x51
 4265 0687 01       		.uleb128 0x1
 4266 0688 31       		.byte	0x31
 4267 0689 1B       		.uleb128 0x1b
 4268 068a 01       		.uleb128 0x1
 4269 068b 50       		.byte	0x50
 4270 068c 01       		.uleb128 0x1
 4271 068d 30       		.byte	0x30
 4272 068e 00       		.byte	0
 4273 068f 1C       		.uleb128 0x1c
 4274 0690 32000000 		.4byte	.LVL25
 4275 0694 41050000 		.4byte	0x541
 4276 0698 1B       		.uleb128 0x1b
 4277 0699 01       		.uleb128 0x1
 4278 069a 51       		.byte	0x51
 4279 069b 02       		.uleb128 0x2
 4280 069c 74       		.byte	0x74
 4281 069d 00       		.sleb128 0
 4282 069e 1B       		.uleb128 0x1b
 4283 069f 01       		.uleb128 0x1
 4284 06a0 50       		.byte	0x50
 4285 06a1 02       		.uleb128 0x2
 4286 06a2 08       		.byte	0x8
 4287 06a3 24       		.byte	0x24
 4288 06a4 00       		.byte	0
ARM GAS  C:\Users\Petro\AppData\Local\Temp\cchQWd3Z.s 			page 95


 4289 06a5 00       		.byte	0
 4290 06a6 20       		.uleb128 0x20
 4291 06a7 D2020000 		.4byte	0x2d2
 4292 06ab 00000000 		.4byte	.LFB69
 4293 06af 38000000 		.4byte	.LFE69-.LFB69
 4294 06b3 01       		.uleb128 0x1
 4295 06b4 9C       		.byte	0x9c
 4296 06b5 10070000 		.4byte	0x710
 4297 06b9 21       		.uleb128 0x21
 4298 06ba 0A000000 		.4byte	.LBB12
 4299 06be 24000000 		.4byte	.LBE12-.LBB12
 4300 06c2 22       		.uleb128 0x22
 4301 06c3 DF020000 		.4byte	0x2df
 4302 06c7 69010000 		.4byte	.LLST8
 4303 06cb 1A       		.uleb128 0x1a
 4304 06cc 12000000 		.4byte	.LVL26
 4305 06d0 41050000 		.4byte	0x541
 4306 06d4 E5060000 		.4byte	0x6e5
 4307 06d8 1B       		.uleb128 0x1b
 4308 06d9 01       		.uleb128 0x1
 4309 06da 51       		.byte	0x51
 4310 06db 02       		.uleb128 0x2
 4311 06dc 74       		.byte	0x74
 4312 06dd 00       		.sleb128 0
 4313 06de 1B       		.uleb128 0x1b
 4314 06df 01       		.uleb128 0x1
 4315 06e0 50       		.byte	0x50
 4316 06e1 02       		.uleb128 0x2
 4317 06e2 08       		.byte	0x8
 4318 06e3 40       		.byte	0x40
 4319 06e4 00       		.byte	0
 4320 06e5 1A       		.uleb128 0x1a
 4321 06e6 1A000000 		.4byte	.LVL27
 4322 06ea 41050000 		.4byte	0x541
 4323 06ee FF060000 		.4byte	0x6ff
 4324 06f2 1B       		.uleb128 0x1b
 4325 06f3 01       		.uleb128 0x1
 4326 06f4 51       		.byte	0x51
 4327 06f5 02       		.uleb128 0x2
 4328 06f6 74       		.byte	0x74
 4329 06f7 00       		.sleb128 0
 4330 06f8 1B       		.uleb128 0x1b
 4331 06f9 01       		.uleb128 0x1
 4332 06fa 50       		.byte	0x50
 4333 06fb 02       		.uleb128 0x2
 4334 06fc 09       		.byte	0x9
 4335 06fd 80       		.byte	0x80
 4336 06fe 00       		.byte	0
 4337 06ff 1C       		.uleb128 0x1c
 4338 0700 24000000 		.4byte	.LVL28
 4339 0704 41050000 		.4byte	0x541
 4340 0708 1B       		.uleb128 0x1b
 4341 0709 01       		.uleb128 0x1
 4342 070a 51       		.byte	0x51
 4343 070b 01       		.uleb128 0x1
 4344 070c 31       		.byte	0x31
 4345 070d 00       		.byte	0
ARM GAS  C:\Users\Petro\AppData\Local\Temp\cchQWd3Z.s 			page 96


 4346 070e 00       		.byte	0
 4347 070f 00       		.byte	0
 4348 0710 1E       		.uleb128 0x1e
 4349 0711 FE030000 		.4byte	.LASF99
 4350 0715 02       		.byte	0x2
 4351 0716 6E       		.byte	0x6e
 4352 0717 00000000 		.4byte	.LFB68
 4353 071b 50000000 		.4byte	.LFE68-.LFB68
 4354 071f 01       		.uleb128 0x1
 4355 0720 9C       		.byte	0x9c
 4356 0721 C2070000 		.4byte	0x7c2
 4357 0725 1A       		.uleb128 0x1a
 4358 0726 10000000 		.4byte	.LVL31
 4359 072a 41050000 		.4byte	0x541
 4360 072e 3F070000 		.4byte	0x73f
 4361 0732 1B       		.uleb128 0x1b
 4362 0733 01       		.uleb128 0x1
 4363 0734 51       		.byte	0x51
 4364 0735 02       		.uleb128 0x2
 4365 0736 74       		.byte	0x74
 4366 0737 00       		.sleb128 0
 4367 0738 1B       		.uleb128 0x1b
 4368 0739 01       		.uleb128 0x1
 4369 073a 50       		.byte	0x50
 4370 073b 02       		.uleb128 0x2
 4371 073c 08       		.byte	0x8
 4372 073d 21       		.byte	0x21
 4373 073e 00       		.byte	0
 4374 073f 1A       		.uleb128 0x1a
 4375 0740 22000000 		.4byte	.LVL32
 4376 0744 41050000 		.4byte	0x541
 4377 0748 53070000 		.4byte	0x753
 4378 074c 1B       		.uleb128 0x1b
 4379 074d 01       		.uleb128 0x1
 4380 074e 51       		.byte	0x51
 4381 074f 02       		.uleb128 0x2
 4382 0750 74       		.byte	0x74
 4383 0751 00       		.sleb128 0
 4384 0752 00       		.byte	0
 4385 0753 1A       		.uleb128 0x1a
 4386 0754 2A000000 		.4byte	.LVL33
 4387 0758 41050000 		.4byte	0x541
 4388 075c 6C070000 		.4byte	0x76c
 4389 0760 1B       		.uleb128 0x1b
 4390 0761 01       		.uleb128 0x1
 4391 0762 51       		.byte	0x51
 4392 0763 02       		.uleb128 0x2
 4393 0764 74       		.byte	0x74
 4394 0765 00       		.sleb128 0
 4395 0766 1B       		.uleb128 0x1b
 4396 0767 01       		.uleb128 0x1
 4397 0768 50       		.byte	0x50
 4398 0769 01       		.uleb128 0x1
 4399 076a 36       		.byte	0x36
 4400 076b 00       		.byte	0
 4401 076c 1A       		.uleb128 0x1a
 4402 076d 32000000 		.4byte	.LVL34
ARM GAS  C:\Users\Petro\AppData\Local\Temp\cchQWd3Z.s 			page 97


 4403 0771 41050000 		.4byte	0x541
 4404 0775 85070000 		.4byte	0x785
 4405 0779 1B       		.uleb128 0x1b
 4406 077a 01       		.uleb128 0x1
 4407 077b 51       		.byte	0x51
 4408 077c 02       		.uleb128 0x2
 4409 077d 74       		.byte	0x74
 4410 077e 00       		.sleb128 0
 4411 077f 1B       		.uleb128 0x1b
 4412 0780 01       		.uleb128 0x1
 4413 0781 50       		.byte	0x50
 4414 0782 01       		.uleb128 0x1
 4415 0783 43       		.byte	0x43
 4416 0784 00       		.byte	0
 4417 0785 1A       		.uleb128 0x1a
 4418 0786 3A000000 		.4byte	.LVL35
 4419 078a 41050000 		.4byte	0x541
 4420 078e 9F070000 		.4byte	0x79f
 4421 0792 1B       		.uleb128 0x1b
 4422 0793 01       		.uleb128 0x1
 4423 0794 51       		.byte	0x51
 4424 0795 02       		.uleb128 0x2
 4425 0796 74       		.byte	0x74
 4426 0797 00       		.sleb128 0
 4427 0798 1B       		.uleb128 0x1b
 4428 0799 01       		.uleb128 0x1
 4429 079a 50       		.byte	0x50
 4430 079b 02       		.uleb128 0x2
 4431 079c 08       		.byte	0x8
 4432 079d 20       		.byte	0x20
 4433 079e 00       		.byte	0
 4434 079f 1A       		.uleb128 0x1a
 4435 07a0 42000000 		.4byte	.LVL36
 4436 07a4 41050000 		.4byte	0x541
 4437 07a8 B8070000 		.4byte	0x7b8
 4438 07ac 1B       		.uleb128 0x1b
 4439 07ad 01       		.uleb128 0x1
 4440 07ae 51       		.byte	0x51
 4441 07af 02       		.uleb128 0x2
 4442 07b0 74       		.byte	0x74
 4443 07b1 00       		.sleb128 0
 4444 07b2 1B       		.uleb128 0x1b
 4445 07b3 01       		.uleb128 0x1
 4446 07b4 50       		.byte	0x50
 4447 07b5 01       		.uleb128 0x1
 4448 07b6 3C       		.byte	0x3c
 4449 07b7 00       		.byte	0
 4450 07b8 1D       		.uleb128 0x1d
 4451 07b9 46000000 		.4byte	.LVL37
 4452 07bd D2020000 		.4byte	0x2d2
 4453 07c1 00       		.byte	0
 4454 07c2 1E       		.uleb128 0x1e
 4455 07c3 2F020000 		.4byte	.LASF100
 4456 07c7 02       		.byte	0x2
 4457 07c8 86       		.byte	0x86
 4458 07c9 00000000 		.4byte	.LFB70
 4459 07cd 1C000000 		.4byte	.LFE70-.LFB70
ARM GAS  C:\Users\Petro\AppData\Local\Temp\cchQWd3Z.s 			page 98


 4460 07d1 01       		.uleb128 0x1
 4461 07d2 9C       		.byte	0x9c
 4462 07d3 E5070000 		.4byte	0x7e5
 4463 07d7 1F       		.uleb128 0x1f
 4464 07d8 6300     		.ascii	"c\000"
 4465 07da 02       		.byte	0x2
 4466 07db 88       		.byte	0x88
 4467 07dc 2C000000 		.4byte	0x2c
 4468 07e0 7C010000 		.4byte	.LLST9
 4469 07e4 00       		.byte	0
 4470 07e5 16       		.uleb128 0x16
 4471 07e6 B9000000 		.4byte	.LASF101
 4472 07ea 02       		.byte	0x2
 4473 07eb 3C       		.byte	0x3c
 4474 07ec 00000000 		.4byte	.LFB65
 4475 07f0 88000000 		.4byte	.LFE65-.LFB65
 4476 07f4 01       		.uleb128 0x1
 4477 07f5 9C       		.byte	0x9c
 4478 07f6 0A090000 		.4byte	0x90a
 4479 07fa 18       		.uleb128 0x18
 4480 07fb DE090000 		.4byte	.LASF96
 4481 07ff 02       		.byte	0x2
 4482 0800 3C       		.byte	0x3c
 4483 0801 2C000000 		.4byte	0x2c
 4484 0805 9B010000 		.4byte	.LLST10
 4485 0809 1A       		.uleb128 0x1a
 4486 080a 18000000 		.4byte	.LVL43
 4487 080e AD1D0000 		.4byte	0x1dad
 4488 0812 1C080000 		.4byte	0x81c
 4489 0816 1B       		.uleb128 0x1b
 4490 0817 01       		.uleb128 0x1
 4491 0818 50       		.byte	0x50
 4492 0819 01       		.uleb128 0x1
 4493 081a 30       		.byte	0x30
 4494 081b 00       		.byte	0
 4495 081c 1A       		.uleb128 0x1a
 4496 081d 1E000000 		.4byte	.LVL44
 4497 0821 AD1D0000 		.4byte	0x1dad
 4498 0825 2F080000 		.4byte	0x82f
 4499 0829 1B       		.uleb128 0x1b
 4500 082a 01       		.uleb128 0x1
 4501 082b 50       		.byte	0x50
 4502 082c 01       		.uleb128 0x1
 4503 082d 31       		.byte	0x31
 4504 082e 00       		.byte	0
 4505 082f 1A       		.uleb128 0x1a
 4506 0830 26000000 		.4byte	.LVL45
 4507 0834 41050000 		.4byte	0x541
 4508 0838 48080000 		.4byte	0x848
 4509 083c 1B       		.uleb128 0x1b
 4510 083d 01       		.uleb128 0x1
 4511 083e 51       		.byte	0x51
 4512 083f 01       		.uleb128 0x1
 4513 0840 30       		.byte	0x30
 4514 0841 1B       		.uleb128 0x1b
 4515 0842 01       		.uleb128 0x1
 4516 0843 50       		.byte	0x50
ARM GAS  C:\Users\Petro\AppData\Local\Temp\cchQWd3Z.s 			page 99


 4517 0844 02       		.uleb128 0x2
 4518 0845 08       		.byte	0x8
 4519 0846 21       		.byte	0x21
 4520 0847 00       		.byte	0
 4521 0848 1A       		.uleb128 0x1a
 4522 0849 34000000 		.4byte	.LVL46
 4523 084d 41050000 		.4byte	0x541
 4524 0851 64080000 		.4byte	0x864
 4525 0855 1B       		.uleb128 0x1b
 4526 0856 01       		.uleb128 0x1
 4527 0857 51       		.byte	0x51
 4528 0858 01       		.uleb128 0x1
 4529 0859 30       		.byte	0x30
 4530 085a 1B       		.uleb128 0x1b
 4531 085b 01       		.uleb128 0x1
 4532 085c 50       		.byte	0x50
 4533 085d 05       		.uleb128 0x5
 4534 085e 74       		.byte	0x74
 4535 085f 00       		.sleb128 0
 4536 0860 09       		.byte	0x9
 4537 0861 80       		.byte	0x80
 4538 0862 21       		.byte	0x21
 4539 0863 00       		.byte	0
 4540 0864 1A       		.uleb128 0x1a
 4541 0865 3C000000 		.4byte	.LVL47
 4542 0869 41050000 		.4byte	0x541
 4543 086d 7C080000 		.4byte	0x87c
 4544 0871 1B       		.uleb128 0x1b
 4545 0872 01       		.uleb128 0x1
 4546 0873 51       		.byte	0x51
 4547 0874 01       		.uleb128 0x1
 4548 0875 30       		.byte	0x30
 4549 0876 1B       		.uleb128 0x1b
 4550 0877 01       		.uleb128 0x1
 4551 0878 50       		.byte	0x50
 4552 0879 01       		.uleb128 0x1
 4553 087a 36       		.byte	0x36
 4554 087b 00       		.byte	0
 4555 087c 1A       		.uleb128 0x1a
 4556 087d 44000000 		.4byte	.LVL48
 4557 0881 41050000 		.4byte	0x541
 4558 0885 94080000 		.4byte	0x894
 4559 0889 1B       		.uleb128 0x1b
 4560 088a 01       		.uleb128 0x1
 4561 088b 51       		.byte	0x51
 4562 088c 01       		.uleb128 0x1
 4563 088d 30       		.byte	0x30
 4564 088e 1B       		.uleb128 0x1b
 4565 088f 01       		.uleb128 0x1
 4566 0890 50       		.byte	0x50
 4567 0891 01       		.uleb128 0x1
 4568 0892 43       		.byte	0x43
 4569 0893 00       		.byte	0
 4570 0894 1A       		.uleb128 0x1a
 4571 0895 4C000000 		.4byte	.LVL49
 4572 0899 41050000 		.4byte	0x541
 4573 089d AD080000 		.4byte	0x8ad
ARM GAS  C:\Users\Petro\AppData\Local\Temp\cchQWd3Z.s 			page 100


 4574 08a1 1B       		.uleb128 0x1b
 4575 08a2 01       		.uleb128 0x1
 4576 08a3 51       		.byte	0x51
 4577 08a4 01       		.uleb128 0x1
 4578 08a5 30       		.byte	0x30
 4579 08a6 1B       		.uleb128 0x1b
 4580 08a7 01       		.uleb128 0x1
 4581 08a8 50       		.byte	0x50
 4582 08a9 02       		.uleb128 0x2
 4583 08aa 08       		.byte	0x8
 4584 08ab 20       		.byte	0x20
 4585 08ac 00       		.byte	0
 4586 08ad 1A       		.uleb128 0x1a
 4587 08ae 54000000 		.4byte	.LVL50
 4588 08b2 41050000 		.4byte	0x541
 4589 08b6 C6080000 		.4byte	0x8c6
 4590 08ba 1B       		.uleb128 0x1b
 4591 08bb 01       		.uleb128 0x1
 4592 08bc 51       		.byte	0x51
 4593 08bd 01       		.uleb128 0x1
 4594 08be 30       		.byte	0x30
 4595 08bf 1B       		.uleb128 0x1b
 4596 08c0 01       		.uleb128 0x1
 4597 08c1 50       		.byte	0x50
 4598 08c2 02       		.uleb128 0x2
 4599 08c3 08       		.byte	0x8
 4600 08c4 40       		.byte	0x40
 4601 08c5 00       		.byte	0
 4602 08c6 1A       		.uleb128 0x1a
 4603 08c7 5C000000 		.4byte	.LVL51
 4604 08cb 41050000 		.4byte	0x541
 4605 08cf DF080000 		.4byte	0x8df
 4606 08d3 1B       		.uleb128 0x1b
 4607 08d4 01       		.uleb128 0x1
 4608 08d5 51       		.byte	0x51
 4609 08d6 01       		.uleb128 0x1
 4610 08d7 30       		.byte	0x30
 4611 08d8 1B       		.uleb128 0x1b
 4612 08d9 01       		.uleb128 0x1
 4613 08da 50       		.byte	0x50
 4614 08db 02       		.uleb128 0x2
 4615 08dc 09       		.byte	0x9
 4616 08dd 80       		.byte	0x80
 4617 08de 00       		.byte	0
 4618 08df 1A       		.uleb128 0x1a
 4619 08e0 64000000 		.4byte	.LVL52
 4620 08e4 41050000 		.4byte	0x541
 4621 08e8 F7080000 		.4byte	0x8f7
 4622 08ec 1B       		.uleb128 0x1b
 4623 08ed 01       		.uleb128 0x1
 4624 08ee 51       		.byte	0x51
 4625 08ef 01       		.uleb128 0x1
 4626 08f0 30       		.byte	0x30
 4627 08f1 1B       		.uleb128 0x1b
 4628 08f2 01       		.uleb128 0x1
 4629 08f3 50       		.byte	0x50
 4630 08f4 01       		.uleb128 0x1
ARM GAS  C:\Users\Petro\AppData\Local\Temp\cchQWd3Z.s 			page 101


 4631 08f5 3C       		.byte	0x3c
 4632 08f6 00       		.byte	0
 4633 08f7 1D       		.uleb128 0x1d
 4634 08f8 68000000 		.4byte	.LVL53
 4635 08fc C2070000 		.4byte	0x7c2
 4636 0900 1D       		.uleb128 0x1d
 4637 0901 6C000000 		.4byte	.LVL54
 4638 0905 D2020000 		.4byte	0x2d2
 4639 0909 00       		.byte	0
 4640 090a 1E       		.uleb128 0x1e
 4641 090b AD020000 		.4byte	.LASF102
 4642 090f 02       		.byte	0x2
 4643 0910 8D       		.byte	0x8d
 4644 0911 00000000 		.4byte	.LFB71
 4645 0915 18000000 		.4byte	.LFE71-.LFB71
 4646 0919 01       		.uleb128 0x1
 4647 091a 9C       		.byte	0x9c
 4648 091b 2D090000 		.4byte	0x92d
 4649 091f 1F       		.uleb128 0x1f
 4650 0920 6300     		.ascii	"c\000"
 4651 0922 02       		.byte	0x2
 4652 0923 8F       		.byte	0x8f
 4653 0924 2C000000 		.4byte	0x2c
 4654 0928 C8010000 		.4byte	.LLST11
 4655 092c 00       		.byte	0
 4656 092d 16       		.uleb128 0x16
 4657 092e 0A0B0000 		.4byte	.LASF103
 4658 0932 02       		.byte	0x2
 4659 0933 94       		.byte	0x94
 4660 0934 00000000 		.4byte	.LFB72
 4661 0938 14000000 		.4byte	.LFE72-.LFB72
 4662 093c 01       		.uleb128 0x1
 4663 093d 9C       		.byte	0x9c
 4664 093e 5B090000 		.4byte	0x95b
 4665 0942 18       		.uleb128 0x18
 4666 0943 28090000 		.4byte	.LASF94
 4667 0947 02       		.byte	0x2
 4668 0948 94       		.byte	0x94
 4669 0949 5B090000 		.4byte	0x95b
 4670 094d E7010000 		.4byte	.LLST12
 4671 0951 1D       		.uleb128 0x1d
 4672 0952 12000000 		.4byte	.LVL61
 4673 0956 41050000 		.4byte	0x541
 4674 095a 00       		.byte	0
 4675 095b 02       		.uleb128 0x2
 4676 095c 01       		.byte	0x1
 4677 095d 02       		.byte	0x2
 4678 095e 29080000 		.4byte	.LASF104
 4679 0962 20       		.uleb128 0x20
 4680 0963 EA020000 		.4byte	0x2ea
 4681 0967 00000000 		.4byte	.LFB73
 4682 096b 28000000 		.4byte	.LFE73-.LFB73
 4683 096f 01       		.uleb128 0x1
 4684 0970 9C       		.byte	0x9c
 4685 0971 CA090000 		.4byte	0x9ca
 4686 0975 23       		.uleb128 0x23
 4687 0976 F6020000 		.4byte	0x2f6
ARM GAS  C:\Users\Petro\AppData\Local\Temp\cchQWd3Z.s 			page 102


 4688 097a 08020000 		.4byte	.LLST13
 4689 097e 23       		.uleb128 0x23
 4690 097f FF020000 		.4byte	0x2ff
 4691 0983 29020000 		.4byte	.LLST14
 4692 0987 24       		.uleb128 0x24
 4693 0988 08030000 		.4byte	0x308
 4694 098c 24       		.uleb128 0x24
 4695 098d 12030000 		.4byte	0x312
 4696 0991 21       		.uleb128 0x21
 4697 0992 08000000 		.4byte	.LBB15
 4698 0996 1A000000 		.4byte	.LBE15-.LBB15
 4699 099a 23       		.uleb128 0x23
 4700 099b FF020000 		.4byte	0x2ff
 4701 099f 4A020000 		.4byte	.LLST15
 4702 09a3 23       		.uleb128 0x23
 4703 09a4 F6020000 		.4byte	0x2f6
 4704 09a8 6B020000 		.4byte	.LLST16
 4705 09ac 21       		.uleb128 0x21
 4706 09ad 08000000 		.4byte	.LBB16
 4707 09b1 1A000000 		.4byte	.LBE16-.LBB16
 4708 09b5 22       		.uleb128 0x22
 4709 09b6 08030000 		.4byte	0x308
 4710 09ba 8C020000 		.4byte	.LLST17
 4711 09be 22       		.uleb128 0x22
 4712 09bf 12030000 		.4byte	0x312
 4713 09c3 9F020000 		.4byte	.LLST18
 4714 09c7 00       		.byte	0
 4715 09c8 00       		.byte	0
 4716 09c9 00       		.byte	0
 4717 09ca 20       		.uleb128 0x20
 4718 09cb 1D030000 		.4byte	0x31d
 4719 09cf 00000000 		.4byte	.LFB74
 4720 09d3 28000000 		.4byte	.LFE74-.LFB74
 4721 09d7 01       		.uleb128 0x1
 4722 09d8 9C       		.byte	0x9c
 4723 09d9 320A0000 		.4byte	0xa32
 4724 09dd 23       		.uleb128 0x23
 4725 09de 29030000 		.4byte	0x329
 4726 09e2 CE020000 		.4byte	.LLST19
 4727 09e6 23       		.uleb128 0x23
 4728 09e7 32030000 		.4byte	0x332
 4729 09eb EF020000 		.4byte	.LLST20
 4730 09ef 24       		.uleb128 0x24
 4731 09f0 3B030000 		.4byte	0x33b
 4732 09f4 24       		.uleb128 0x24
 4733 09f5 45030000 		.4byte	0x345
 4734 09f9 21       		.uleb128 0x21
 4735 09fa 08000000 		.4byte	.LBB19
 4736 09fe 1A000000 		.4byte	.LBE19-.LBB19
 4737 0a02 23       		.uleb128 0x23
 4738 0a03 32030000 		.4byte	0x332
 4739 0a07 10030000 		.4byte	.LLST21
 4740 0a0b 23       		.uleb128 0x23
 4741 0a0c 29030000 		.4byte	0x329
 4742 0a10 31030000 		.4byte	.LLST22
 4743 0a14 21       		.uleb128 0x21
 4744 0a15 08000000 		.4byte	.LBB20
ARM GAS  C:\Users\Petro\AppData\Local\Temp\cchQWd3Z.s 			page 103


 4745 0a19 1A000000 		.4byte	.LBE20-.LBB20
 4746 0a1d 22       		.uleb128 0x22
 4747 0a1e 3B030000 		.4byte	0x33b
 4748 0a22 52030000 		.4byte	.LLST23
 4749 0a26 22       		.uleb128 0x22
 4750 0a27 45030000 		.4byte	0x345
 4751 0a2b 65030000 		.4byte	.LLST24
 4752 0a2f 00       		.byte	0
 4753 0a30 00       		.byte	0
 4754 0a31 00       		.byte	0
 4755 0a32 16       		.uleb128 0x16
 4756 0a33 B1080000 		.4byte	.LASF105
 4757 0a37 02       		.byte	0x2
 4758 0a38 B6       		.byte	0xb6
 4759 0a39 00000000 		.4byte	.LFB75
 4760 0a3d 3C000000 		.4byte	.LFE75-.LFB75
 4761 0a41 01       		.uleb128 0x1
 4762 0a42 9C       		.byte	0x9c
 4763 0a43 7E0A0000 		.4byte	0xa7e
 4764 0a47 17       		.uleb128 0x17
 4765 0a48 7800     		.ascii	"x\000"
 4766 0a4a 02       		.byte	0x2
 4767 0a4b B6       		.byte	0xb6
 4768 0a4c 9A000000 		.4byte	0x9a
 4769 0a50 94030000 		.4byte	.LLST25
 4770 0a54 17       		.uleb128 0x17
 4771 0a55 7900     		.ascii	"y\000"
 4772 0a57 02       		.byte	0x2
 4773 0a58 B6       		.byte	0xb6
 4774 0a59 9A000000 		.4byte	0x9a
 4775 0a5d B5030000 		.4byte	.LLST26
 4776 0a61 1F       		.uleb128 0x1f
 4777 0a62 627900   		.ascii	"by\000"
 4778 0a65 02       		.byte	0x2
 4779 0a66 B8       		.byte	0xb8
 4780 0a67 2C000000 		.4byte	0x2c
 4781 0a6b D6030000 		.4byte	.LLST27
 4782 0a6f 1F       		.uleb128 0x1f
 4783 0a70 626900   		.ascii	"bi\000"
 4784 0a73 02       		.byte	0x2
 4785 0a74 B8       		.byte	0xb8
 4786 0a75 2C000000 		.4byte	0x2c
 4787 0a79 E9030000 		.4byte	.LLST28
 4788 0a7d 00       		.byte	0
 4789 0a7e 16       		.uleb128 0x16
 4790 0a7f 62020000 		.4byte	.LASF106
 4791 0a83 02       		.byte	0x2
 4792 0a84 C6       		.byte	0xc6
 4793 0a85 00000000 		.4byte	.LFB76
 4794 0a89 14000000 		.4byte	.LFE76-.LFB76
 4795 0a8d 01       		.uleb128 0x1
 4796 0a8e 9C       		.byte	0x9c
 4797 0a8f A10A0000 		.4byte	0xaa1
 4798 0a93 25       		.uleb128 0x25
 4799 0a94 28090000 		.4byte	.LASF94
 4800 0a98 02       		.byte	0x2
 4801 0a99 C6       		.byte	0xc6
ARM GAS  C:\Users\Petro\AppData\Local\Temp\cchQWd3Z.s 			page 104


 4802 0a9a 5B090000 		.4byte	0x95b
 4803 0a9e 01       		.uleb128 0x1
 4804 0a9f 50       		.byte	0x50
 4805 0aa0 00       		.byte	0
 4806 0aa1 26       		.uleb128 0x26
 4807 0aa2 14040000 		.4byte	.LASF107
 4808 0aa6 02       		.byte	0x2
 4809 0aa7 5301     		.2byte	0x153
 4810 0aa9 00000000 		.4byte	.LFB81
 4811 0aad 04010000 		.4byte	.LFE81-.LFB81
 4812 0ab1 01       		.uleb128 0x1
 4813 0ab2 9C       		.byte	0x9c
 4814 0ab3 C80B0000 		.4byte	0xbc8
 4815 0ab7 27       		.uleb128 0x27
 4816 0ab8 6300     		.ascii	"c\000"
 4817 0aba 02       		.byte	0x2
 4818 0abb 5301     		.2byte	0x153
 4819 0abd 4C000000 		.4byte	0x4c
 4820 0ac1 FC030000 		.4byte	.LLST29
 4821 0ac5 27       		.uleb128 0x27
 4822 0ac6 7800     		.ascii	"x\000"
 4823 0ac8 02       		.byte	0x2
 4824 0ac9 5301     		.2byte	0x153
 4825 0acb 2C000000 		.4byte	0x2c
 4826 0acf 36040000 		.4byte	.LLST30
 4827 0ad3 27       		.uleb128 0x27
 4828 0ad4 7900     		.ascii	"y\000"
 4829 0ad6 02       		.byte	0x2
 4830 0ad7 5301     		.2byte	0x153
 4831 0ad9 2C000000 		.4byte	0x2c
 4832 0add 55040000 		.4byte	.LLST31
 4833 0ae1 28       		.uleb128 0x28
 4834 0ae2 1A000000 		.4byte	.LBB21
 4835 0ae6 72000000 		.4byte	.LBE21-.LBB21
 4836 0aea 530B0000 		.4byte	0xb53
 4837 0aee 29       		.uleb128 0x29
 4838 0aef 13090000 		.4byte	.LASF108
 4839 0af3 02       		.byte	0x2
 4840 0af4 5701     		.2byte	0x157
 4841 0af6 2C000000 		.4byte	0x2c
 4842 0afa 74040000 		.4byte	.LLST32
 4843 0afe 29       		.uleb128 0x29
 4844 0aff B2040000 		.4byte	.LASF109
 4845 0b03 02       		.byte	0x2
 4846 0b04 5801     		.2byte	0x158
 4847 0b06 2C000000 		.4byte	0x2c
 4848 0b0a 99040000 		.4byte	.LLST33
 4849 0b0e 21       		.uleb128 0x21
 4850 0b0f 36000000 		.4byte	.LBB22
 4851 0b13 50000000 		.4byte	.LBE22-.LBB22
 4852 0b17 2A       		.uleb128 0x2a
 4853 0b18 636E7400 		.ascii	"cnt\000"
 4854 0b1c 02       		.byte	0x2
 4855 0b1d 5B01     		.2byte	0x15b
 4856 0b1f 2C000000 		.4byte	0x2c
 4857 0b23 B8040000 		.4byte	.LLST34
 4858 0b27 21       		.uleb128 0x21
ARM GAS  C:\Users\Petro\AppData\Local\Temp\cchQWd3Z.s 			page 105


 4859 0b28 40000000 		.4byte	.LBB23
 4860 0b2c 40000000 		.4byte	.LBE23-.LBB23
 4861 0b30 2A       		.uleb128 0x2a
 4862 0b31 6200     		.ascii	"b\000"
 4863 0b33 02       		.byte	0x2
 4864 0b34 5E01     		.2byte	0x15e
 4865 0b36 2C000000 		.4byte	0x2c
 4866 0b3a CB040000 		.4byte	.LLST35
 4867 0b3e 1D       		.uleb128 0x1d
 4868 0b3f 74000000 		.4byte	.LVL87
 4869 0b43 1D030000 		.4byte	0x31d
 4870 0b47 1D       		.uleb128 0x1d
 4871 0b48 7A000000 		.4byte	.LVL88
 4872 0b4c EA020000 		.4byte	0x2ea
 4873 0b50 00       		.byte	0
 4874 0b51 00       		.byte	0
 4875 0b52 00       		.byte	0
 4876 0b53 21       		.uleb128 0x21
 4877 0b54 8C000000 		.4byte	.LBB24
 4878 0b58 6E000000 		.4byte	.LBE24-.LBB24
 4879 0b5c 29       		.uleb128 0x29
 4880 0b5d 13090000 		.4byte	.LASF108
 4881 0b61 02       		.byte	0x2
 4882 0b62 6F01     		.2byte	0x16f
 4883 0b64 2C000000 		.4byte	0x2c
 4884 0b68 DE040000 		.4byte	.LLST36
 4885 0b6c 29       		.uleb128 0x29
 4886 0b6d 72060000 		.4byte	.LASF110
 4887 0b71 02       		.byte	0x2
 4888 0b72 7001     		.2byte	0x170
 4889 0b74 2C000000 		.4byte	0x2c
 4890 0b78 F1040000 		.4byte	.LLST37
 4891 0b7c 29       		.uleb128 0x29
 4892 0b7d 0A0A0000 		.4byte	.LASF111
 4893 0b81 02       		.byte	0x2
 4894 0b82 7101     		.2byte	0x171
 4895 0b84 2C000000 		.4byte	0x2c
 4896 0b88 05050000 		.4byte	.LLST38
 4897 0b8c 2A       		.uleb128 0x2a
 4898 0b8d 637800   		.ascii	"cx\000"
 4899 0b90 02       		.byte	0x2
 4900 0b91 7201     		.2byte	0x172
 4901 0b93 2C000000 		.4byte	0x2c
 4902 0b97 3C050000 		.4byte	.LLST39
 4903 0b9b 21       		.uleb128 0x21
 4904 0b9c A8000000 		.4byte	.LBB25
 4905 0ba0 4E000000 		.4byte	.LBE25-.LBB25
 4906 0ba4 2A       		.uleb128 0x2a
 4907 0ba5 637900   		.ascii	"cy\000"
 4908 0ba8 02       		.byte	0x2
 4909 0ba9 7501     		.2byte	0x175
 4910 0bab 2C000000 		.4byte	0x2c
 4911 0baf 4F050000 		.4byte	.LLST40
 4912 0bb3 1D       		.uleb128 0x1d
 4913 0bb4 DC000000 		.4byte	.LVL97
 4914 0bb8 1D030000 		.4byte	0x31d
 4915 0bbc 1D       		.uleb128 0x1d
ARM GAS  C:\Users\Petro\AppData\Local\Temp\cchQWd3Z.s 			page 106


 4916 0bbd E2000000 		.4byte	.LVL98
 4917 0bc1 EA020000 		.4byte	0x2ea
 4918 0bc5 00       		.byte	0
 4919 0bc6 00       		.byte	0
 4920 0bc7 00       		.byte	0
 4921 0bc8 16       		.uleb128 0x16
 4922 0bc9 0B020000 		.4byte	.LASF112
 4923 0bcd 02       		.byte	0x2
 4924 0bce CE       		.byte	0xce
 4925 0bcf 00000000 		.4byte	.LFB77
 4926 0bd3 5C000000 		.4byte	.LFE77-.LFB77
 4927 0bd7 01       		.uleb128 0x1
 4928 0bd8 9C       		.byte	0x9c
 4929 0bd9 530C0000 		.4byte	0xc53
 4930 0bdd 17       		.uleb128 0x17
 4931 0bde 737400   		.ascii	"st\000"
 4932 0be1 02       		.byte	0x2
 4933 0be2 CE       		.byte	0xce
 4934 0be3 CA000000 		.4byte	0xca
 4935 0be7 62050000 		.4byte	.LLST41
 4936 0beb 17       		.uleb128 0x17
 4937 0bec 7800     		.ascii	"x\000"
 4938 0bee 02       		.byte	0x2
 4939 0bef CE       		.byte	0xce
 4940 0bf0 2C000000 		.4byte	0x2c
 4941 0bf4 B2050000 		.4byte	.LLST42
 4942 0bf8 17       		.uleb128 0x17
 4943 0bf9 7900     		.ascii	"y\000"
 4944 0bfb 02       		.byte	0x2
 4945 0bfc CE       		.byte	0xce
 4946 0bfd 2C000000 		.4byte	0x2c
 4947 0c01 F4050000 		.4byte	.LLST43
 4948 0c05 10       		.uleb128 0x10
 4949 0c06 636800   		.ascii	"ch\000"
 4950 0c09 02       		.byte	0x2
 4951 0c0a D0       		.byte	0xd0
 4952 0c0b 4C000000 		.4byte	0x4c
 4953 0c0f 1F       		.uleb128 0x1f
 4954 0c10 73746C00 		.ascii	"stl\000"
 4955 0c14 02       		.byte	0x2
 4956 0c15 D1       		.byte	0xd1
 4957 0c16 2C000000 		.4byte	0x2c
 4958 0c1a 13060000 		.4byte	.LLST44
 4959 0c1e 1F       		.uleb128 0x1f
 4960 0c1f 636E7400 		.ascii	"cnt\000"
 4961 0c23 02       		.byte	0x2
 4962 0c24 D9       		.byte	0xd9
 4963 0c25 2C000000 		.4byte	0x2c
 4964 0c29 31060000 		.4byte	.LLST45
 4965 0c2d 1A       		.uleb128 0x1a
 4966 0c2e 0C000000 		.4byte	.LVL106
 4967 0c32 BE1D0000 		.4byte	0x1dbe
 4968 0c36 410C0000 		.4byte	0xc41
 4969 0c3a 1B       		.uleb128 0x1b
 4970 0c3b 01       		.uleb128 0x1
 4971 0c3c 50       		.byte	0x50
 4972 0c3d 02       		.uleb128 0x2
ARM GAS  C:\Users\Petro\AppData\Local\Temp\cchQWd3Z.s 			page 107


 4973 0c3e 77       		.byte	0x77
 4974 0c3f 00       		.sleb128 0
 4975 0c40 00       		.byte	0
 4976 0c41 1C       		.uleb128 0x1c
 4977 0c42 4A000000 		.4byte	.LVL114
 4978 0c46 A10A0000 		.4byte	0xaa1
 4979 0c4a 1B       		.uleb128 0x1b
 4980 0c4b 01       		.uleb128 0x1
 4981 0c4c 52       		.byte	0x52
 4982 0c4d 03       		.uleb128 0x3
 4983 0c4e 91       		.byte	0x91
 4984 0c4f 64       		.sleb128 -28
 4985 0c50 06       		.byte	0x6
 4986 0c51 00       		.byte	0
 4987 0c52 00       		.byte	0
 4988 0c53 16       		.uleb128 0x16
 4989 0c54 C1000000 		.4byte	.LASF113
 4990 0c58 02       		.byte	0x2
 4991 0c59 DE       		.byte	0xde
 4992 0c5a 00000000 		.4byte	.LFB78
 4993 0c5e 08000000 		.4byte	.LFE78-.LFB78
 4994 0c62 01       		.uleb128 0x1
 4995 0c63 9C       		.byte	0x9c
 4996 0c64 B00C0000 		.4byte	0xcb0
 4997 0c68 17       		.uleb128 0x17
 4998 0c69 737400   		.ascii	"st\000"
 4999 0c6c 02       		.byte	0x2
 5000 0c6d DE       		.byte	0xde
 5001 0c6e CA000000 		.4byte	0xca
 5002 0c72 50060000 		.4byte	.LLST46
 5003 0c76 17       		.uleb128 0x17
 5004 0c77 7800     		.ascii	"x\000"
 5005 0c79 02       		.byte	0x2
 5006 0c7a DE       		.byte	0xde
 5007 0c7b 2C000000 		.4byte	0x2c
 5008 0c7f 71060000 		.4byte	.LLST47
 5009 0c83 17       		.uleb128 0x17
 5010 0c84 7900     		.ascii	"y\000"
 5011 0c86 02       		.byte	0x2
 5012 0c87 DE       		.byte	0xde
 5013 0c88 2C000000 		.4byte	0x2c
 5014 0c8c 92060000 		.4byte	.LLST48
 5015 0c90 1C       		.uleb128 0x1c
 5016 0c91 06000000 		.4byte	.LVL120
 5017 0c95 C80B0000 		.4byte	0xbc8
 5018 0c99 1B       		.uleb128 0x1b
 5019 0c9a 01       		.uleb128 0x1
 5020 0c9b 52       		.byte	0x52
 5021 0c9c 03       		.uleb128 0x3
 5022 0c9d F3       		.byte	0xf3
 5023 0c9e 01       		.uleb128 0x1
 5024 0c9f 52       		.byte	0x52
 5025 0ca0 1B       		.uleb128 0x1b
 5026 0ca1 01       		.uleb128 0x1
 5027 0ca2 51       		.byte	0x51
 5028 0ca3 03       		.uleb128 0x3
 5029 0ca4 F3       		.byte	0xf3
ARM GAS  C:\Users\Petro\AppData\Local\Temp\cchQWd3Z.s 			page 108


 5030 0ca5 01       		.uleb128 0x1
 5031 0ca6 51       		.byte	0x51
 5032 0ca7 1B       		.uleb128 0x1b
 5033 0ca8 01       		.uleb128 0x1
 5034 0ca9 50       		.byte	0x50
 5035 0caa 03       		.uleb128 0x3
 5036 0cab F3       		.byte	0xf3
 5037 0cac 01       		.uleb128 0x1
 5038 0cad 50       		.byte	0x50
 5039 0cae 00       		.byte	0
 5040 0caf 00       		.byte	0
 5041 0cb0 2B       		.uleb128 0x2b
 5042 0cb1 D4090000 		.4byte	.LASF114
 5043 0cb5 02       		.byte	0x2
 5044 0cb6 E6       		.byte	0xe6
 5045 0cb7 00000000 		.4byte	.LFB79
 5046 0cbb CC000000 		.4byte	.LFE79-.LFB79
 5047 0cbf 01       		.uleb128 0x1
 5048 0cc0 9C       		.byte	0x9c
 5049 0cc1 A20D0000 		.4byte	0xda2
 5050 0cc5 17       		.uleb128 0x17
 5051 0cc6 6E756D00 		.ascii	"num\000"
 5052 0cca 02       		.byte	0x2
 5053 0ccb E6       		.byte	0xe6
 5054 0ccc 6C000000 		.4byte	0x6c
 5055 0cd0 B3060000 		.4byte	.LLST49
 5056 0cd4 17       		.uleb128 0x17
 5057 0cd5 7800     		.ascii	"x\000"
 5058 0cd7 02       		.byte	0x2
 5059 0cd8 E6       		.byte	0xe6
 5060 0cd9 2C000000 		.4byte	0x2c
 5061 0cdd 16070000 		.4byte	.LLST50
 5062 0ce1 17       		.uleb128 0x17
 5063 0ce2 7900     		.ascii	"y\000"
 5064 0ce4 02       		.byte	0x2
 5065 0ce5 E6       		.byte	0xe6
 5066 0ce6 2C000000 		.4byte	0x2c
 5067 0cea 36070000 		.4byte	.LLST51
 5068 0cee 18       		.uleb128 0x18
 5069 0cef 1C090000 		.4byte	.LASF115
 5070 0cf3 02       		.byte	0x2
 5071 0cf4 E6       		.byte	0xe6
 5072 0cf5 2C000000 		.4byte	0x2c
 5073 0cf9 56070000 		.4byte	.LLST52
 5074 0cfd 18       		.uleb128 0x18
 5075 0cfe 44040000 		.4byte	.LASF116
 5076 0d02 02       		.byte	0x2
 5077 0d03 E6       		.byte	0xe6
 5078 0d04 B1000000 		.4byte	0xb1
 5079 0d08 82070000 		.4byte	.LLST53
 5080 0d0c 2C       		.uleb128 0x2c
 5081 0d0d 62756600 		.ascii	"buf\000"
 5082 0d11 02       		.byte	0x2
 5083 0d12 E8       		.byte	0xe8
 5084 0d13 DB000000 		.4byte	0xdb
 5085 0d17 03       		.uleb128 0x3
 5086 0d18 91       		.byte	0x91
ARM GAS  C:\Users\Petro\AppData\Local\Temp\cchQWd3Z.s 			page 109


 5087 0d19 B07F     		.sleb128 -80
 5088 0d1b 2C       		.uleb128 0x2c
 5089 0d1c 737400   		.ascii	"st\000"
 5090 0d1f 02       		.byte	0x2
 5091 0d20 E9       		.byte	0xe9
 5092 0d21 A20D0000 		.4byte	0xda2
 5093 0d25 02       		.uleb128 0x2
 5094 0d26 91       		.byte	0x91
 5095 0d27 4C       		.sleb128 -52
 5096 0d28 1F       		.uleb128 0x1f
 5097 0d29 6E656700 		.ascii	"neg\000"
 5098 0d2d 02       		.byte	0x2
 5099 0d2e EA       		.byte	0xea
 5100 0d2f 5B090000 		.4byte	0x95b
 5101 0d33 AE070000 		.4byte	.LLST54
 5102 0d37 1F       		.uleb128 0x1f
 5103 0d38 6300     		.ascii	"c\000"
 5104 0d3a 02       		.byte	0x2
 5105 0d3b EB       		.byte	0xeb
 5106 0d3c 2C000000 		.4byte	0x2c
 5107 0d40 D9070000 		.4byte	.LLST55
 5108 0d44 1F       		.uleb128 0x1f
 5109 0d45 6600     		.ascii	"f\000"
 5110 0d47 02       		.byte	0x2
 5111 0d48 EB       		.byte	0xeb
 5112 0d49 2C000000 		.4byte	0x2c
 5113 0d4d 0F080000 		.4byte	.LLST56
 5114 0d51 2D       		.uleb128 0x2d
 5115 0d52 00000000 		.4byte	.Ldebug_ranges0+0
 5116 0d56 810D0000 		.4byte	0xd81
 5117 0d5a 2A       		.uleb128 0x2a
 5118 0d5b 6900     		.ascii	"i\000"
 5119 0d5d 02       		.byte	0x2
 5120 0d5e 1B01     		.2byte	0x11b
 5121 0d60 2C000000 		.4byte	0x2c
 5122 0d64 39080000 		.4byte	.LLST57
 5123 0d68 21       		.uleb128 0x21
 5124 0d69 80000000 		.4byte	.LBB27
 5125 0d6d 1C000000 		.4byte	.LBE27-.LBB27
 5126 0d71 2A       		.uleb128 0x2a
 5127 0d72 6900     		.ascii	"i\000"
 5128 0d74 02       		.byte	0x2
 5129 0d75 1301     		.2byte	0x113
 5130 0d77 2C000000 		.4byte	0x2c
 5131 0d7b 58080000 		.4byte	.LLST58
 5132 0d7f 00       		.byte	0
 5133 0d80 00       		.byte	0
 5134 0d81 1C       		.uleb128 0x1c
 5135 0d82 C8000000 		.4byte	.LVL147
 5136 0d86 C80B0000 		.4byte	0xbc8
 5137 0d8a 1B       		.uleb128 0x1b
 5138 0d8b 01       		.uleb128 0x1
 5139 0d8c 52       		.byte	0x52
 5140 0d8d 04       		.uleb128 0x4
 5141 0d8e 91       		.byte	0x91
 5142 0d8f AC7F     		.sleb128 -84
 5143 0d91 06       		.byte	0x6
ARM GAS  C:\Users\Petro\AppData\Local\Temp\cchQWd3Z.s 			page 110


 5144 0d92 1B       		.uleb128 0x1b
 5145 0d93 01       		.uleb128 0x1
 5146 0d94 51       		.byte	0x51
 5147 0d95 04       		.uleb128 0x4
 5148 0d96 91       		.byte	0x91
 5149 0d97 A87F     		.sleb128 -88
 5150 0d99 06       		.byte	0x6
 5151 0d9a 1B       		.uleb128 0x1b
 5152 0d9b 01       		.uleb128 0x1
 5153 0d9c 50       		.byte	0x50
 5154 0d9d 02       		.uleb128 0x2
 5155 0d9e 91       		.byte	0x91
 5156 0d9f 4C       		.sleb128 -52
 5157 0da0 00       		.byte	0
 5158 0da1 00       		.byte	0
 5159 0da2 08       		.uleb128 0x8
 5160 0da3 B1000000 		.4byte	0xb1
 5161 0da7 B20D0000 		.4byte	0xdb2
 5162 0dab 09       		.uleb128 0x9
 5163 0dac C3000000 		.4byte	0xc3
 5164 0db0 1A       		.byte	0x1a
 5165 0db1 00       		.byte	0
 5166 0db2 2E       		.uleb128 0x2e
 5167 0db3 CA090000 		.4byte	.LASF117
 5168 0db7 02       		.byte	0x2
 5169 0db8 2701     		.2byte	0x127
 5170 0dba 00000000 		.4byte	.LFB80
 5171 0dbe 92000000 		.4byte	.LFE80-.LFB80
 5172 0dc2 01       		.uleb128 0x1
 5173 0dc3 9C       		.byte	0x9c
 5174 0dc4 E70E0000 		.4byte	0xee7
 5175 0dc8 27       		.uleb128 0x27
 5176 0dc9 6E756D00 		.ascii	"num\000"
 5177 0dcd 02       		.byte	0x2
 5178 0dce 2701     		.2byte	0x127
 5179 0dd0 25000000 		.4byte	0x25
 5180 0dd4 6B080000 		.4byte	.LLST59
 5181 0dd8 27       		.uleb128 0x27
 5182 0dd9 64656300 		.ascii	"dec\000"
 5183 0ddd 02       		.byte	0x2
 5184 0dde 2701     		.2byte	0x127
 5185 0de0 A5000000 		.4byte	0xa5
 5186 0de4 93080000 		.4byte	.LLST60
 5187 0de8 27       		.uleb128 0x27
 5188 0de9 7800     		.ascii	"x\000"
 5189 0deb 02       		.byte	0x2
 5190 0dec 2701     		.2byte	0x127
 5191 0dee 2C000000 		.4byte	0x2c
 5192 0df2 B4080000 		.4byte	.LLST61
 5193 0df6 27       		.uleb128 0x27
 5194 0df7 7900     		.ascii	"y\000"
 5195 0df9 02       		.byte	0x2
 5196 0dfa 2701     		.2byte	0x127
 5197 0dfc 2C000000 		.4byte	0x2c
 5198 0e00 EB080000 		.4byte	.LLST62
 5199 0e04 2F       		.uleb128 0x2f
 5200 0e05 160A0000 		.4byte	.LASF118
ARM GAS  C:\Users\Petro\AppData\Local\Temp\cchQWd3Z.s 			page 111


 5201 0e09 02       		.byte	0x2
 5202 0e0a 2701     		.2byte	0x127
 5203 0e0c B1000000 		.4byte	0xb1
 5204 0e10 23090000 		.4byte	.LLST63
 5205 0e14 2F       		.uleb128 0x2f
 5206 0e15 1C090000 		.4byte	.LASF115
 5207 0e19 02       		.byte	0x2
 5208 0e1a 2701     		.2byte	0x127
 5209 0e1c 2C000000 		.4byte	0x2c
 5210 0e20 5B090000 		.4byte	.LLST64
 5211 0e24 2F       		.uleb128 0x2f
 5212 0e25 44040000 		.4byte	.LASF116
 5213 0e29 02       		.byte	0x2
 5214 0e2a 2701     		.2byte	0x127
 5215 0e2c B1000000 		.4byte	0xb1
 5216 0e30 93090000 		.4byte	.LLST65
 5217 0e34 30       		.uleb128 0x30
 5218 0e35 737400   		.ascii	"st\000"
 5219 0e38 02       		.byte	0x2
 5220 0e39 2901     		.2byte	0x129
 5221 0e3b A20D0000 		.4byte	0xda2
 5222 0e3f 02       		.uleb128 0x2
 5223 0e40 91       		.byte	0x91
 5224 0e41 4C       		.sleb128 -52
 5225 0e42 29       		.uleb128 0x29
 5226 0e43 E2020000 		.4byte	.LASF119
 5227 0e47 02       		.byte	0x2
 5228 0e48 2A01     		.2byte	0x12a
 5229 0e4a 8F000000 		.4byte	0x8f
 5230 0e4e E3090000 		.4byte	.LLST66
 5231 0e52 15       		.uleb128 0x15
 5232 0e53 6E656700 		.ascii	"neg\000"
 5233 0e57 02       		.byte	0x2
 5234 0e58 2B01     		.2byte	0x12b
 5235 0e5a 5B090000 		.4byte	0x95b
 5236 0e5e 28       		.uleb128 0x28
 5237 0e5f 36000000 		.4byte	.LBB30
 5238 0e63 14000000 		.4byte	.LBE30-.LBB30
 5239 0e67 7A0E0000 		.4byte	0xe7a
 5240 0e6b 2A       		.uleb128 0x2a
 5241 0e6c 6900     		.ascii	"i\000"
 5242 0e6e 02       		.byte	0x2
 5243 0e6f 3501     		.2byte	0x135
 5244 0e71 2C000000 		.4byte	0x2c
 5245 0e75 030A0000 		.4byte	.LLST67
 5246 0e79 00       		.byte	0
 5247 0e7a 2D       		.uleb128 0x2d
 5248 0e7b 20000000 		.4byte	.Ldebug_ranges0+0x20
 5249 0e7f 920E0000 		.4byte	0xe92
 5250 0e83 2A       		.uleb128 0x2a
 5251 0e84 6900     		.ascii	"i\000"
 5252 0e86 02       		.byte	0x2
 5253 0e87 4101     		.2byte	0x141
 5254 0e89 2C000000 		.4byte	0x2c
 5255 0e8d 160A0000 		.4byte	.LLST68
 5256 0e91 00       		.byte	0
 5257 0e92 28       		.uleb128 0x28
ARM GAS  C:\Users\Petro\AppData\Local\Temp\cchQWd3Z.s 			page 112


 5258 0e93 82000000 		.4byte	.LBB33
 5259 0e97 10000000 		.4byte	.LBE33-.LBB33
 5260 0e9b AC0E0000 		.4byte	0xeac
 5261 0e9f 30       		.uleb128 0x30
 5262 0ea0 6900     		.ascii	"i\000"
 5263 0ea2 02       		.byte	0x2
 5264 0ea3 4901     		.2byte	0x149
 5265 0ea5 2C000000 		.4byte	0x2c
 5266 0ea9 01       		.uleb128 0x1
 5267 0eaa 50       		.byte	0x50
 5268 0eab 00       		.byte	0
 5269 0eac 1A       		.uleb128 0x1a
 5270 0ead 28000000 		.4byte	.LVL157
 5271 0eb1 8C040000 		.4byte	0x48c
 5272 0eb5 C80E0000 		.4byte	0xec8
 5273 0eb9 1B       		.uleb128 0x1b
 5274 0eba 01       		.uleb128 0x1
 5275 0ebb 50       		.byte	0x50
 5276 0ebc 02       		.uleb128 0x2
 5277 0ebd 74       		.byte	0x74
 5278 0ebe 00       		.sleb128 0
 5279 0ebf 1B       		.uleb128 0x1b
 5280 0ec0 02       		.uleb128 0x2
 5281 0ec1 7D       		.byte	0x7d
 5282 0ec2 00       		.sleb128 0
 5283 0ec3 03       		.uleb128 0x3
 5284 0ec4 91       		.byte	0x91
 5285 0ec5 08       		.sleb128 8
 5286 0ec6 06       		.byte	0x6
 5287 0ec7 00       		.byte	0
 5288 0ec8 1C       		.uleb128 0x1c
 5289 0ec9 7A000000 		.4byte	.LVL167
 5290 0ecd C80B0000 		.4byte	0xbc8
 5291 0ed1 1B       		.uleb128 0x1b
 5292 0ed2 01       		.uleb128 0x1
 5293 0ed3 52       		.byte	0x52
 5294 0ed4 03       		.uleb128 0x3
 5295 0ed5 91       		.byte	0x91
 5296 0ed6 00       		.sleb128 0
 5297 0ed7 06       		.byte	0x6
 5298 0ed8 1B       		.uleb128 0x1b
 5299 0ed9 01       		.uleb128 0x1
 5300 0eda 51       		.byte	0x51
 5301 0edb 03       		.uleb128 0x3
 5302 0edc 91       		.byte	0x91
 5303 0edd 44       		.sleb128 -60
 5304 0ede 06       		.byte	0x6
 5305 0edf 1B       		.uleb128 0x1b
 5306 0ee0 01       		.uleb128 0x1
 5307 0ee1 50       		.byte	0x50
 5308 0ee2 02       		.uleb128 0x2
 5309 0ee3 74       		.byte	0x74
 5310 0ee4 00       		.sleb128 0
 5311 0ee5 00       		.byte	0
 5312 0ee6 00       		.byte	0
 5313 0ee7 26       		.uleb128 0x26
 5314 0ee8 13080000 		.4byte	.LASF120
ARM GAS  C:\Users\Petro\AppData\Local\Temp\cchQWd3Z.s 			page 113


 5315 0eec 02       		.byte	0x2
 5316 0eed 8E01     		.2byte	0x18e
 5317 0eef 00000000 		.4byte	.LFB82
 5318 0ef3 20000000 		.4byte	.LFE82-.LFB82
 5319 0ef7 01       		.uleb128 0x1
 5320 0ef8 9C       		.byte	0x9c
 5321 0ef9 0C0F0000 		.4byte	0xf0c
 5322 0efd 31       		.uleb128 0x31
 5323 0efe E7090000 		.4byte	.LASF76
 5324 0f02 02       		.byte	0x2
 5325 0f03 8E01     		.2byte	0x18e
 5326 0f05 C1020000 		.4byte	0x2c1
 5327 0f09 01       		.uleb128 0x1
 5328 0f0a 50       		.byte	0x50
 5329 0f0b 00       		.byte	0
 5330 0f0c 20       		.uleb128 0x20
 5331 0f0d 50030000 		.4byte	0x350
 5332 0f11 00000000 		.4byte	.LFB83
 5333 0f15 38000000 		.4byte	.LFE83-.LFB83
 5334 0f19 01       		.uleb128 0x1
 5335 0f1a 9C       		.byte	0x9c
 5336 0f1b 8B0F0000 		.4byte	0xf8b
 5337 0f1f 23       		.uleb128 0x23
 5338 0f20 5D030000 		.4byte	0x35d
 5339 0f24 400A0000 		.4byte	.LLST69
 5340 0f28 23       		.uleb128 0x23
 5341 0f29 67030000 		.4byte	0x367
 5342 0f2d 610A0000 		.4byte	.LLST70
 5343 0f31 32       		.uleb128 0x32
 5344 0f32 71030000 		.4byte	0x371
 5345 0f36 01       		.uleb128 0x1
 5346 0f37 52       		.byte	0x52
 5347 0f38 24       		.uleb128 0x24
 5348 0f39 7B030000 		.4byte	0x37b
 5349 0f3d 24       		.uleb128 0x24
 5350 0f3e 86030000 		.4byte	0x386
 5351 0f42 21       		.uleb128 0x21
 5352 0f43 0A000000 		.4byte	.LBB38
 5353 0f47 26000000 		.4byte	.LBE38-.LBB38
 5354 0f4b 33       		.uleb128 0x33
 5355 0f4c 71030000 		.4byte	0x371
 5356 0f50 33       		.uleb128 0x33
 5357 0f51 67030000 		.4byte	0x367
 5358 0f55 33       		.uleb128 0x33
 5359 0f56 5D030000 		.4byte	0x35d
 5360 0f5a 21       		.uleb128 0x21
 5361 0f5b 0A000000 		.4byte	.LBB39
 5362 0f5f 26000000 		.4byte	.LBE39-.LBB39
 5363 0f63 22       		.uleb128 0x22
 5364 0f64 7B030000 		.4byte	0x37b
 5365 0f68 820A0000 		.4byte	.LLST71
 5366 0f6c 22       		.uleb128 0x22
 5367 0f6d 86030000 		.4byte	0x386
 5368 0f71 A10A0000 		.4byte	.LLST72
 5369 0f75 21       		.uleb128 0x21
 5370 0f76 0A000000 		.4byte	.LBB40
 5371 0f7a 26000000 		.4byte	.LBE40-.LBB40
ARM GAS  C:\Users\Petro\AppData\Local\Temp\cchQWd3Z.s 			page 114


 5372 0f7e 22       		.uleb128 0x22
 5373 0f7f 92030000 		.4byte	0x392
 5374 0f83 B90A0000 		.4byte	.LLST73
 5375 0f87 00       		.byte	0
 5376 0f88 00       		.byte	0
 5377 0f89 00       		.byte	0
 5378 0f8a 00       		.byte	0
 5379 0f8b 20       		.uleb128 0x20
 5380 0f8c 9F030000 		.4byte	0x39f
 5381 0f90 00000000 		.4byte	.LFB84
 5382 0f94 38000000 		.4byte	.LFE84-.LFB84
 5383 0f98 01       		.uleb128 0x1
 5384 0f99 9C       		.byte	0x9c
 5385 0f9a 0A100000 		.4byte	0x100a
 5386 0f9e 23       		.uleb128 0x23
 5387 0f9f AC030000 		.4byte	0x3ac
 5388 0fa3 CC0A0000 		.4byte	.LLST74
 5389 0fa7 23       		.uleb128 0x23
 5390 0fa8 B6030000 		.4byte	0x3b6
 5391 0fac ED0A0000 		.4byte	.LLST75
 5392 0fb0 32       		.uleb128 0x32
 5393 0fb1 C0030000 		.4byte	0x3c0
 5394 0fb5 01       		.uleb128 0x1
 5395 0fb6 52       		.byte	0x52
 5396 0fb7 24       		.uleb128 0x24
 5397 0fb8 CA030000 		.4byte	0x3ca
 5398 0fbc 24       		.uleb128 0x24
 5399 0fbd D5030000 		.4byte	0x3d5
 5400 0fc1 21       		.uleb128 0x21
 5401 0fc2 0A000000 		.4byte	.LBB45
 5402 0fc6 28000000 		.4byte	.LBE45-.LBB45
 5403 0fca 33       		.uleb128 0x33
 5404 0fcb C0030000 		.4byte	0x3c0
 5405 0fcf 33       		.uleb128 0x33
 5406 0fd0 B6030000 		.4byte	0x3b6
 5407 0fd4 33       		.uleb128 0x33
 5408 0fd5 AC030000 		.4byte	0x3ac
 5409 0fd9 21       		.uleb128 0x21
 5410 0fda 0A000000 		.4byte	.LBB46
 5411 0fde 28000000 		.4byte	.LBE46-.LBB46
 5412 0fe2 22       		.uleb128 0x22
 5413 0fe3 CA030000 		.4byte	0x3ca
 5414 0fe7 0E0B0000 		.4byte	.LLST76
 5415 0feb 22       		.uleb128 0x22
 5416 0fec D5030000 		.4byte	0x3d5
 5417 0ff0 2D0B0000 		.4byte	.LLST77
 5418 0ff4 21       		.uleb128 0x21
 5419 0ff5 0A000000 		.4byte	.LBB47
 5420 0ff9 28000000 		.4byte	.LBE47-.LBB47
 5421 0ffd 22       		.uleb128 0x22
 5422 0ffe E1030000 		.4byte	0x3e1
 5423 1002 450B0000 		.4byte	.LLST78
 5424 1006 00       		.byte	0
 5425 1007 00       		.byte	0
 5426 1008 00       		.byte	0
 5427 1009 00       		.byte	0
 5428 100a 20       		.uleb128 0x20
ARM GAS  C:\Users\Petro\AppData\Local\Temp\cchQWd3Z.s 			page 115


 5429 100b EE030000 		.4byte	0x3ee
 5430 100f 00000000 		.4byte	.LFB85
 5431 1013 26000000 		.4byte	.LFE85-.LFB85
 5432 1017 01       		.uleb128 0x1
 5433 1018 9C       		.byte	0x9c
 5434 1019 9C100000 		.4byte	0x109c
 5435 101d 23       		.uleb128 0x23
 5436 101e FB030000 		.4byte	0x3fb
 5437 1022 580B0000 		.4byte	.LLST79
 5438 1026 23       		.uleb128 0x23
 5439 1027 05040000 		.4byte	0x405
 5440 102b 840B0000 		.4byte	.LLST80
 5441 102f 23       		.uleb128 0x23
 5442 1030 0F040000 		.4byte	0x40f
 5443 1034 B00B0000 		.4byte	.LLST81
 5444 1038 24       		.uleb128 0x24
 5445 1039 19040000 		.4byte	0x419
 5446 103d 24       		.uleb128 0x24
 5447 103e 24040000 		.4byte	0x424
 5448 1042 21       		.uleb128 0x21
 5449 1043 12000000 		.4byte	.LBB52
 5450 1047 12000000 		.4byte	.LBE52-.LBB52
 5451 104b 33       		.uleb128 0x33
 5452 104c 0F040000 		.4byte	0x40f
 5453 1050 33       		.uleb128 0x33
 5454 1051 05040000 		.4byte	0x405
 5455 1055 33       		.uleb128 0x33
 5456 1056 FB030000 		.4byte	0x3fb
 5457 105a 21       		.uleb128 0x21
 5458 105b 12000000 		.4byte	.LBB53
 5459 105f 12000000 		.4byte	.LBE53-.LBB53
 5460 1063 24       		.uleb128 0x24
 5461 1064 19040000 		.4byte	0x419
 5462 1068 24       		.uleb128 0x24
 5463 1069 24040000 		.4byte	0x424
 5464 106d 21       		.uleb128 0x21
 5465 106e 12000000 		.4byte	.LBB54
 5466 1072 12000000 		.4byte	.LBE54-.LBB54
 5467 1076 22       		.uleb128 0x22
 5468 1077 30040000 		.4byte	0x430
 5469 107b DC0B0000 		.4byte	.LLST82
 5470 107f 1C       		.uleb128 0x1c
 5471 1080 20000000 		.4byte	.LVL190
 5472 1084 EA020000 		.4byte	0x2ea
 5473 1088 1B       		.uleb128 0x1b
 5474 1089 01       		.uleb128 0x1
 5475 108a 51       		.byte	0x51
 5476 108b 05       		.uleb128 0x5
 5477 108c 74       		.byte	0x74
 5478 108d 00       		.sleb128 0
 5479 108e 76       		.byte	0x76
 5480 108f 00       		.sleb128 0
 5481 1090 22       		.byte	0x22
 5482 1091 1B       		.uleb128 0x1b
 5483 1092 01       		.uleb128 0x1
 5484 1093 50       		.byte	0x50
 5485 1094 02       		.uleb128 0x2
ARM GAS  C:\Users\Petro\AppData\Local\Temp\cchQWd3Z.s 			page 116


 5486 1095 75       		.byte	0x75
 5487 1096 00       		.sleb128 0
 5488 1097 00       		.byte	0
 5489 1098 00       		.byte	0
 5490 1099 00       		.byte	0
 5491 109a 00       		.byte	0
 5492 109b 00       		.byte	0
 5493 109c 20       		.uleb128 0x20
 5494 109d 3D040000 		.4byte	0x43d
 5495 10a1 00000000 		.4byte	.LFB86
 5496 10a5 26000000 		.4byte	.LFE86-.LFB86
 5497 10a9 01       		.uleb128 0x1
 5498 10aa 9C       		.byte	0x9c
 5499 10ab 2E110000 		.4byte	0x112e
 5500 10af 23       		.uleb128 0x23
 5501 10b0 4A040000 		.4byte	0x44a
 5502 10b4 EF0B0000 		.4byte	.LLST83
 5503 10b8 23       		.uleb128 0x23
 5504 10b9 54040000 		.4byte	0x454
 5505 10bd 1B0C0000 		.4byte	.LLST84
 5506 10c1 23       		.uleb128 0x23
 5507 10c2 5E040000 		.4byte	0x45e
 5508 10c6 470C0000 		.4byte	.LLST85
 5509 10ca 24       		.uleb128 0x24
 5510 10cb 68040000 		.4byte	0x468
 5511 10cf 24       		.uleb128 0x24
 5512 10d0 73040000 		.4byte	0x473
 5513 10d4 21       		.uleb128 0x21
 5514 10d5 12000000 		.4byte	.LBB59
 5515 10d9 12000000 		.4byte	.LBE59-.LBB59
 5516 10dd 33       		.uleb128 0x33
 5517 10de 5E040000 		.4byte	0x45e
 5518 10e2 33       		.uleb128 0x33
 5519 10e3 54040000 		.4byte	0x454
 5520 10e7 33       		.uleb128 0x33
 5521 10e8 4A040000 		.4byte	0x44a
 5522 10ec 21       		.uleb128 0x21
 5523 10ed 12000000 		.4byte	.LBB60
 5524 10f1 12000000 		.4byte	.LBE60-.LBB60
 5525 10f5 24       		.uleb128 0x24
 5526 10f6 68040000 		.4byte	0x468
 5527 10fa 24       		.uleb128 0x24
 5528 10fb 73040000 		.4byte	0x473
 5529 10ff 21       		.uleb128 0x21
 5530 1100 12000000 		.4byte	.LBB61
 5531 1104 12000000 		.4byte	.LBE61-.LBB61
 5532 1108 22       		.uleb128 0x22
 5533 1109 7F040000 		.4byte	0x47f
 5534 110d 730C0000 		.4byte	.LLST86
 5535 1111 1C       		.uleb128 0x1c
 5536 1112 20000000 		.4byte	.LVL198
 5537 1116 1D030000 		.4byte	0x31d
 5538 111a 1B       		.uleb128 0x1b
 5539 111b 01       		.uleb128 0x1
 5540 111c 51       		.byte	0x51
 5541 111d 05       		.uleb128 0x5
 5542 111e 74       		.byte	0x74
ARM GAS  C:\Users\Petro\AppData\Local\Temp\cchQWd3Z.s 			page 117


 5543 111f 00       		.sleb128 0
 5544 1120 76       		.byte	0x76
 5545 1121 00       		.sleb128 0
 5546 1122 22       		.byte	0x22
 5547 1123 1B       		.uleb128 0x1b
 5548 1124 01       		.uleb128 0x1
 5549 1125 50       		.byte	0x50
 5550 1126 02       		.uleb128 0x2
 5551 1127 75       		.byte	0x75
 5552 1128 00       		.sleb128 0
 5553 1129 00       		.byte	0
 5554 112a 00       		.byte	0
 5555 112b 00       		.byte	0
 5556 112c 00       		.byte	0
 5557 112d 00       		.byte	0
 5558 112e 2E       		.uleb128 0x2e
 5559 112f 0B040000 		.4byte	.LASF121
 5560 1133 02       		.byte	0x2
 5561 1134 D601     		.2byte	0x1d6
 5562 1136 00000000 		.4byte	.LFB87
 5563 113a 74010000 		.4byte	.LFE87-.LFB87
 5564 113e 01       		.uleb128 0x1
 5565 113f 9C       		.byte	0x9c
 5566 1140 A8120000 		.4byte	0x12a8
 5567 1144 27       		.uleb128 0x27
 5568 1145 783100   		.ascii	"x1\000"
 5569 1148 02       		.byte	0x2
 5570 1149 D601     		.2byte	0x1d6
 5571 114b 2C000000 		.4byte	0x2c
 5572 114f 860C0000 		.4byte	.LLST87
 5573 1153 27       		.uleb128 0x27
 5574 1154 793100   		.ascii	"y1\000"
 5575 1157 02       		.byte	0x2
 5576 1158 D601     		.2byte	0x1d6
 5577 115a 2C000000 		.4byte	0x2c
 5578 115e DB0C0000 		.4byte	.LLST88
 5579 1162 27       		.uleb128 0x27
 5580 1163 783200   		.ascii	"x2\000"
 5581 1166 02       		.byte	0x2
 5582 1167 D601     		.2byte	0x1d6
 5583 1169 2C000000 		.4byte	0x2c
 5584 116d 3B0D0000 		.4byte	.LLST89
 5585 1171 27       		.uleb128 0x27
 5586 1172 793200   		.ascii	"y2\000"
 5587 1175 02       		.byte	0x2
 5588 1176 D601     		.2byte	0x1d6
 5589 1178 2C000000 		.4byte	0x2c
 5590 117c 880D0000 		.4byte	.LLST90
 5591 1180 15       		.uleb128 0x15
 5592 1181 746D7000 		.ascii	"tmp\000"
 5593 1185 02       		.byte	0x2
 5594 1186 D801     		.2byte	0x1d8
 5595 1188 2C000000 		.4byte	0x2c
 5596 118c 29       		.uleb128 0x29
 5597 118d 36020000 		.4byte	.LASF122
 5598 1191 02       		.byte	0x2
 5599 1192 D901     		.2byte	0x1d9
ARM GAS  C:\Users\Petro\AppData\Local\Temp\cchQWd3Z.s 			page 118


 5600 1194 25000000 		.4byte	0x25
 5601 1198 DD0D0000 		.4byte	.LLST91
 5602 119c 2A       		.uleb128 0x2a
 5603 119d 747800   		.ascii	"tx\000"
 5604 11a0 02       		.byte	0x2
 5605 11a1 D901     		.2byte	0x1d9
 5606 11a3 25000000 		.4byte	0x25
 5607 11a7 1C0E0000 		.4byte	.LLST92
 5608 11ab 2A       		.uleb128 0x2a
 5609 11ac 747900   		.ascii	"ty\000"
 5610 11af 02       		.byte	0x2
 5611 11b0 D901     		.2byte	0x1d9
 5612 11b2 25000000 		.4byte	0x25
 5613 11b6 530E0000 		.4byte	.LLST93
 5614 11ba 15       		.uleb128 0x15
 5615 11bb 6D00     		.ascii	"m\000"
 5616 11bd 02       		.byte	0x2
 5617 11be DA01     		.2byte	0x1da
 5618 11c0 25000000 		.4byte	0x25
 5619 11c4 15       		.uleb128 0x15
 5620 11c5 6200     		.ascii	"b\000"
 5621 11c7 02       		.byte	0x2
 5622 11c8 DA01     		.2byte	0x1da
 5623 11ca 25000000 		.4byte	0x25
 5624 11ce 15       		.uleb128 0x15
 5625 11cf 647800   		.ascii	"dx\000"
 5626 11d2 02       		.byte	0x2
 5627 11d3 DA01     		.2byte	0x1da
 5628 11d5 25000000 		.4byte	0x25
 5629 11d9 15       		.uleb128 0x15
 5630 11da 647900   		.ascii	"dy\000"
 5631 11dd 02       		.byte	0x2
 5632 11de DA01     		.2byte	0x1da
 5633 11e0 25000000 		.4byte	0x25
 5634 11e4 28       		.uleb128 0x28
 5635 11e5 A8000000 		.4byte	.LBB62
 5636 11e9 34000000 		.4byte	.LBE62-.LBB62
 5637 11ed 10120000 		.4byte	0x1210
 5638 11f1 2A       		.uleb128 0x2a
 5639 11f2 6900     		.ascii	"i\000"
 5640 11f4 02       		.byte	0x2
 5641 11f5 0902     		.2byte	0x209
 5642 11f7 2C000000 		.4byte	0x2c
 5643 11fb 8B0E0000 		.4byte	.LLST94
 5644 11ff 1C       		.uleb128 0x1c
 5645 1200 C2000000 		.4byte	.LVL234
 5646 1204 EA020000 		.4byte	0x2ea
 5647 1208 1B       		.uleb128 0x1b
 5648 1209 01       		.uleb128 0x1
 5649 120a 50       		.byte	0x50
 5650 120b 02       		.uleb128 0x2
 5651 120c 75       		.byte	0x75
 5652 120d 00       		.sleb128 0
 5653 120e 00       		.byte	0
 5654 120f 00       		.byte	0
 5655 1210 28       		.uleb128 0x28
 5656 1211 DC000000 		.4byte	.LBB63
ARM GAS  C:\Users\Petro\AppData\Local\Temp\cchQWd3Z.s 			page 119


 5657 1215 34000000 		.4byte	.LBE63-.LBB63
 5658 1219 3C120000 		.4byte	0x123c
 5659 121d 2A       		.uleb128 0x2a
 5660 121e 6900     		.ascii	"i\000"
 5661 1220 02       		.byte	0x2
 5662 1221 1202     		.2byte	0x212
 5663 1223 2C000000 		.4byte	0x2c
 5664 1227 B60E0000 		.4byte	.LLST95
 5665 122b 1C       		.uleb128 0x1c
 5666 122c F6000000 		.4byte	.LVL242
 5667 1230 EA020000 		.4byte	0x2ea
 5668 1234 1B       		.uleb128 0x1b
 5669 1235 01       		.uleb128 0x1
 5670 1236 50       		.byte	0x50
 5671 1237 02       		.uleb128 0x2
 5672 1238 75       		.byte	0x75
 5673 1239 00       		.sleb128 0
 5674 123a 00       		.byte	0
 5675 123b 00       		.byte	0
 5676 123c 2D       		.uleb128 0x2d
 5677 123d 38000000 		.4byte	.Ldebug_ranges0+0x38
 5678 1241 64120000 		.4byte	0x1264
 5679 1245 2A       		.uleb128 0x2a
 5680 1246 6900     		.ascii	"i\000"
 5681 1248 02       		.byte	0x2
 5682 1249 2902     		.2byte	0x229
 5683 124b 2C000000 		.4byte	0x2c
 5684 124f E10E0000 		.4byte	.LLST96
 5685 1253 1C       		.uleb128 0x1c
 5686 1254 3E010000 		.4byte	.LVL253
 5687 1258 EA020000 		.4byte	0x2ea
 5688 125c 1B       		.uleb128 0x1b
 5689 125d 01       		.uleb128 0x1
 5690 125e 51       		.byte	0x51
 5691 125f 02       		.uleb128 0x2
 5692 1260 75       		.byte	0x75
 5693 1261 00       		.sleb128 0
 5694 1262 00       		.byte	0
 5695 1263 00       		.byte	0
 5696 1264 1A       		.uleb128 0x1a
 5697 1265 44000000 		.4byte	.LVL215
 5698 1269 50030000 		.4byte	0x350
 5699 126d 88120000 		.4byte	0x1288
 5700 1271 1B       		.uleb128 0x1b
 5701 1272 01       		.uleb128 0x1
 5702 1273 52       		.byte	0x52
 5703 1274 06       		.uleb128 0x6
 5704 1275 7D       		.byte	0x7d
 5705 1276 00       		.sleb128 0
 5706 1277 06       		.byte	0x6
 5707 1278 74       		.byte	0x74
 5708 1279 00       		.sleb128 0
 5709 127a 1C       		.byte	0x1c
 5710 127b 1B       		.uleb128 0x1b
 5711 127c 01       		.uleb128 0x1
 5712 127d 51       		.byte	0x51
 5713 127e 02       		.uleb128 0x2
ARM GAS  C:\Users\Petro\AppData\Local\Temp\cchQWd3Z.s 			page 120


 5714 127f 75       		.byte	0x75
 5715 1280 00       		.sleb128 0
 5716 1281 1B       		.uleb128 0x1b
 5717 1282 01       		.uleb128 0x1
 5718 1283 50       		.byte	0x50
 5719 1284 02       		.uleb128 0x2
 5720 1285 74       		.byte	0x74
 5721 1286 00       		.sleb128 0
 5722 1287 00       		.byte	0
 5723 1288 1C       		.uleb128 0x1c
 5724 1289 5E000000 		.4byte	.LVL220
 5725 128d EE030000 		.4byte	0x3ee
 5726 1291 1B       		.uleb128 0x1b
 5727 1292 01       		.uleb128 0x1
 5728 1293 52       		.byte	0x52
 5729 1294 05       		.uleb128 0x5
 5730 1295 76       		.byte	0x76
 5731 1296 00       		.sleb128 0
 5732 1297 75       		.byte	0x75
 5733 1298 00       		.sleb128 0
 5734 1299 1C       		.byte	0x1c
 5735 129a 1B       		.uleb128 0x1b
 5736 129b 01       		.uleb128 0x1
 5737 129c 51       		.byte	0x51
 5738 129d 02       		.uleb128 0x2
 5739 129e 75       		.byte	0x75
 5740 129f 00       		.sleb128 0
 5741 12a0 1B       		.uleb128 0x1b
 5742 12a1 01       		.uleb128 0x1
 5743 12a2 50       		.byte	0x50
 5744 12a3 02       		.uleb128 0x2
 5745 12a4 74       		.byte	0x74
 5746 12a5 00       		.sleb128 0
 5747 12a6 00       		.byte	0
 5748 12a7 00       		.byte	0
 5749 12a8 2E       		.uleb128 0x2e
 5750 12a9 23000000 		.4byte	.LASF123
 5751 12ad 02       		.byte	0x2
 5752 12ae 3402     		.2byte	0x234
 5753 12b0 00000000 		.4byte	.LFB88
 5754 12b4 74010000 		.4byte	.LFE88-.LFB88
 5755 12b8 01       		.uleb128 0x1
 5756 12b9 9C       		.byte	0x9c
 5757 12ba 22140000 		.4byte	0x1422
 5758 12be 27       		.uleb128 0x27
 5759 12bf 783100   		.ascii	"x1\000"
 5760 12c2 02       		.byte	0x2
 5761 12c3 3402     		.2byte	0x234
 5762 12c5 2C000000 		.4byte	0x2c
 5763 12c9 0C0F0000 		.4byte	.LLST97
 5764 12cd 27       		.uleb128 0x27
 5765 12ce 793100   		.ascii	"y1\000"
 5766 12d1 02       		.byte	0x2
 5767 12d2 3402     		.2byte	0x234
 5768 12d4 2C000000 		.4byte	0x2c
 5769 12d8 610F0000 		.4byte	.LLST98
 5770 12dc 27       		.uleb128 0x27
ARM GAS  C:\Users\Petro\AppData\Local\Temp\cchQWd3Z.s 			page 121


 5771 12dd 783200   		.ascii	"x2\000"
 5772 12e0 02       		.byte	0x2
 5773 12e1 3402     		.2byte	0x234
 5774 12e3 2C000000 		.4byte	0x2c
 5775 12e7 C10F0000 		.4byte	.LLST99
 5776 12eb 27       		.uleb128 0x27
 5777 12ec 793200   		.ascii	"y2\000"
 5778 12ef 02       		.byte	0x2
 5779 12f0 3402     		.2byte	0x234
 5780 12f2 2C000000 		.4byte	0x2c
 5781 12f6 0E100000 		.4byte	.LLST100
 5782 12fa 15       		.uleb128 0x15
 5783 12fb 746D7000 		.ascii	"tmp\000"
 5784 12ff 02       		.byte	0x2
 5785 1300 3602     		.2byte	0x236
 5786 1302 2C000000 		.4byte	0x2c
 5787 1306 29       		.uleb128 0x29
 5788 1307 36020000 		.4byte	.LASF122
 5789 130b 02       		.byte	0x2
 5790 130c 3702     		.2byte	0x237
 5791 130e 25000000 		.4byte	0x25
 5792 1312 63100000 		.4byte	.LLST101
 5793 1316 2A       		.uleb128 0x2a
 5794 1317 747800   		.ascii	"tx\000"
 5795 131a 02       		.byte	0x2
 5796 131b 3702     		.2byte	0x237
 5797 131d 25000000 		.4byte	0x25
 5798 1321 A2100000 		.4byte	.LLST102
 5799 1325 2A       		.uleb128 0x2a
 5800 1326 747900   		.ascii	"ty\000"
 5801 1329 02       		.byte	0x2
 5802 132a 3702     		.2byte	0x237
 5803 132c 25000000 		.4byte	0x25
 5804 1330 D9100000 		.4byte	.LLST103
 5805 1334 15       		.uleb128 0x15
 5806 1335 6D00     		.ascii	"m\000"
 5807 1337 02       		.byte	0x2
 5808 1338 3802     		.2byte	0x238
 5809 133a 25000000 		.4byte	0x25
 5810 133e 15       		.uleb128 0x15
 5811 133f 6200     		.ascii	"b\000"
 5812 1341 02       		.byte	0x2
 5813 1342 3802     		.2byte	0x238
 5814 1344 25000000 		.4byte	0x25
 5815 1348 15       		.uleb128 0x15
 5816 1349 647800   		.ascii	"dx\000"
 5817 134c 02       		.byte	0x2
 5818 134d 3802     		.2byte	0x238
 5819 134f 25000000 		.4byte	0x25
 5820 1353 15       		.uleb128 0x15
 5821 1354 647900   		.ascii	"dy\000"
 5822 1357 02       		.byte	0x2
 5823 1358 3802     		.2byte	0x238
 5824 135a 25000000 		.4byte	0x25
 5825 135e 28       		.uleb128 0x28
 5826 135f A8000000 		.4byte	.LBB66
 5827 1363 34000000 		.4byte	.LBE66-.LBB66
ARM GAS  C:\Users\Petro\AppData\Local\Temp\cchQWd3Z.s 			page 122


 5828 1367 8A130000 		.4byte	0x138a
 5829 136b 2A       		.uleb128 0x2a
 5830 136c 6900     		.ascii	"i\000"
 5831 136e 02       		.byte	0x2
 5832 136f 6702     		.2byte	0x267
 5833 1371 2C000000 		.4byte	0x2c
 5834 1375 11110000 		.4byte	.LLST104
 5835 1379 1C       		.uleb128 0x1c
 5836 137a C2000000 		.4byte	.LVL292
 5837 137e 1D030000 		.4byte	0x31d
 5838 1382 1B       		.uleb128 0x1b
 5839 1383 01       		.uleb128 0x1
 5840 1384 50       		.byte	0x50
 5841 1385 02       		.uleb128 0x2
 5842 1386 75       		.byte	0x75
 5843 1387 00       		.sleb128 0
 5844 1388 00       		.byte	0
 5845 1389 00       		.byte	0
 5846 138a 28       		.uleb128 0x28
 5847 138b DC000000 		.4byte	.LBB67
 5848 138f 34000000 		.4byte	.LBE67-.LBB67
 5849 1393 B6130000 		.4byte	0x13b6
 5850 1397 2A       		.uleb128 0x2a
 5851 1398 6900     		.ascii	"i\000"
 5852 139a 02       		.byte	0x2
 5853 139b 7002     		.2byte	0x270
 5854 139d 2C000000 		.4byte	0x2c
 5855 13a1 3C110000 		.4byte	.LLST105
 5856 13a5 1C       		.uleb128 0x1c
 5857 13a6 F6000000 		.4byte	.LVL300
 5858 13aa 1D030000 		.4byte	0x31d
 5859 13ae 1B       		.uleb128 0x1b
 5860 13af 01       		.uleb128 0x1
 5861 13b0 50       		.byte	0x50
 5862 13b1 02       		.uleb128 0x2
 5863 13b2 75       		.byte	0x75
 5864 13b3 00       		.sleb128 0
 5865 13b4 00       		.byte	0
 5866 13b5 00       		.byte	0
 5867 13b6 2D       		.uleb128 0x2d
 5868 13b7 50000000 		.4byte	.Ldebug_ranges0+0x50
 5869 13bb DE130000 		.4byte	0x13de
 5870 13bf 2A       		.uleb128 0x2a
 5871 13c0 6900     		.ascii	"i\000"
 5872 13c2 02       		.byte	0x2
 5873 13c3 8702     		.2byte	0x287
 5874 13c5 2C000000 		.4byte	0x2c
 5875 13c9 67110000 		.4byte	.LLST106
 5876 13cd 1C       		.uleb128 0x1c
 5877 13ce 3E010000 		.4byte	.LVL311
 5878 13d2 1D030000 		.4byte	0x31d
 5879 13d6 1B       		.uleb128 0x1b
 5880 13d7 01       		.uleb128 0x1
 5881 13d8 51       		.byte	0x51
 5882 13d9 02       		.uleb128 0x2
 5883 13da 75       		.byte	0x75
 5884 13db 00       		.sleb128 0
ARM GAS  C:\Users\Petro\AppData\Local\Temp\cchQWd3Z.s 			page 123


 5885 13dc 00       		.byte	0
 5886 13dd 00       		.byte	0
 5887 13de 1A       		.uleb128 0x1a
 5888 13df 44000000 		.4byte	.LVL273
 5889 13e3 9F030000 		.4byte	0x39f
 5890 13e7 02140000 		.4byte	0x1402
 5891 13eb 1B       		.uleb128 0x1b
 5892 13ec 01       		.uleb128 0x1
 5893 13ed 52       		.byte	0x52
 5894 13ee 06       		.uleb128 0x6
 5895 13ef 7D       		.byte	0x7d
 5896 13f0 00       		.sleb128 0
 5897 13f1 06       		.byte	0x6
 5898 13f2 74       		.byte	0x74
 5899 13f3 00       		.sleb128 0
 5900 13f4 1C       		.byte	0x1c
 5901 13f5 1B       		.uleb128 0x1b
 5902 13f6 01       		.uleb128 0x1
 5903 13f7 51       		.byte	0x51
 5904 13f8 02       		.uleb128 0x2
 5905 13f9 75       		.byte	0x75
 5906 13fa 00       		.sleb128 0
 5907 13fb 1B       		.uleb128 0x1b
 5908 13fc 01       		.uleb128 0x1
 5909 13fd 50       		.byte	0x50
 5910 13fe 02       		.uleb128 0x2
 5911 13ff 74       		.byte	0x74
 5912 1400 00       		.sleb128 0
 5913 1401 00       		.byte	0
 5914 1402 1C       		.uleb128 0x1c
 5915 1403 5E000000 		.4byte	.LVL278
 5916 1407 3D040000 		.4byte	0x43d
 5917 140b 1B       		.uleb128 0x1b
 5918 140c 01       		.uleb128 0x1
 5919 140d 52       		.byte	0x52
 5920 140e 05       		.uleb128 0x5
 5921 140f 76       		.byte	0x76
 5922 1410 00       		.sleb128 0
 5923 1411 75       		.byte	0x75
 5924 1412 00       		.sleb128 0
 5925 1413 1C       		.byte	0x1c
 5926 1414 1B       		.uleb128 0x1b
 5927 1415 01       		.uleb128 0x1
 5928 1416 51       		.byte	0x51
 5929 1417 02       		.uleb128 0x2
 5930 1418 75       		.byte	0x75
 5931 1419 00       		.sleb128 0
 5932 141a 1B       		.uleb128 0x1b
 5933 141b 01       		.uleb128 0x1
 5934 141c 50       		.byte	0x50
 5935 141d 02       		.uleb128 0x2
 5936 141e 74       		.byte	0x74
 5937 141f 00       		.sleb128 0
 5938 1420 00       		.byte	0
 5939 1421 00       		.byte	0
 5940 1422 26       		.uleb128 0x26
 5941 1423 F9090000 		.4byte	.LASF124
ARM GAS  C:\Users\Petro\AppData\Local\Temp\cchQWd3Z.s 			page 124


 5942 1427 02       		.byte	0x2
 5943 1428 9202     		.2byte	0x292
 5944 142a 00000000 		.4byte	.LFB89
 5945 142e 4C000000 		.4byte	.LFE89-.LFB89
 5946 1432 01       		.uleb128 0x1
 5947 1433 9C       		.byte	0x9c
 5948 1434 F9140000 		.4byte	0x14f9
 5949 1438 27       		.uleb128 0x27
 5950 1439 783100   		.ascii	"x1\000"
 5951 143c 02       		.byte	0x2
 5952 143d 9202     		.2byte	0x292
 5953 143f 2C000000 		.4byte	0x2c
 5954 1443 92110000 		.4byte	.LLST107
 5955 1447 27       		.uleb128 0x27
 5956 1448 793100   		.ascii	"y1\000"
 5957 144b 02       		.byte	0x2
 5958 144c 9202     		.2byte	0x292
 5959 144e 2C000000 		.4byte	0x2c
 5960 1452 B0110000 		.4byte	.LLST108
 5961 1456 27       		.uleb128 0x27
 5962 1457 783200   		.ascii	"x2\000"
 5963 145a 02       		.byte	0x2
 5964 145b 9202     		.2byte	0x292
 5965 145d 2C000000 		.4byte	0x2c
 5966 1461 CE110000 		.4byte	.LLST109
 5967 1465 27       		.uleb128 0x27
 5968 1466 793200   		.ascii	"y2\000"
 5969 1469 02       		.byte	0x2
 5970 146a 9202     		.2byte	0x292
 5971 146c 2C000000 		.4byte	0x2c
 5972 1470 EC110000 		.4byte	.LLST110
 5973 1474 15       		.uleb128 0x15
 5974 1475 746D7000 		.ascii	"tmp\000"
 5975 1479 02       		.byte	0x2
 5976 147a 9402     		.2byte	0x294
 5977 147c 2C000000 		.4byte	0x2c
 5978 1480 1A       		.uleb128 0x1a
 5979 1481 2A000000 		.4byte	.LVL324
 5980 1485 50030000 		.4byte	0x350
 5981 1489 A1140000 		.4byte	0x14a1
 5982 148d 1B       		.uleb128 0x1b
 5983 148e 01       		.uleb128 0x1
 5984 148f 52       		.byte	0x52
 5985 1490 03       		.uleb128 0x3
 5986 1491 91       		.byte	0x91
 5987 1492 64       		.sleb128 -28
 5988 1493 06       		.byte	0x6
 5989 1494 1B       		.uleb128 0x1b
 5990 1495 01       		.uleb128 0x1
 5991 1496 51       		.byte	0x51
 5992 1497 02       		.uleb128 0x2
 5993 1498 74       		.byte	0x74
 5994 1499 00       		.sleb128 0
 5995 149a 1B       		.uleb128 0x1b
 5996 149b 01       		.uleb128 0x1
 5997 149c 50       		.byte	0x50
 5998 149d 02       		.uleb128 0x2
ARM GAS  C:\Users\Petro\AppData\Local\Temp\cchQWd3Z.s 			page 125


 5999 149e 75       		.byte	0x75
 6000 149f 00       		.sleb128 0
 6001 14a0 00       		.byte	0
 6002 14a1 1A       		.uleb128 0x1a
 6003 14a2 36000000 		.4byte	.LVL326
 6004 14a6 50030000 		.4byte	0x350
 6005 14aa BC140000 		.4byte	0x14bc
 6006 14ae 1B       		.uleb128 0x1b
 6007 14af 01       		.uleb128 0x1
 6008 14b0 52       		.byte	0x52
 6009 14b1 03       		.uleb128 0x3
 6010 14b2 91       		.byte	0x91
 6011 14b3 64       		.sleb128 -28
 6012 14b4 06       		.byte	0x6
 6013 14b5 1B       		.uleb128 0x1b
 6014 14b6 01       		.uleb128 0x1
 6015 14b7 50       		.byte	0x50
 6016 14b8 02       		.uleb128 0x2
 6017 14b9 75       		.byte	0x75
 6018 14ba 00       		.sleb128 0
 6019 14bb 00       		.byte	0
 6020 14bc 1A       		.uleb128 0x1a
 6021 14bd 40000000 		.4byte	.LVL327
 6022 14c1 EE030000 		.4byte	0x3ee
 6023 14c5 DC140000 		.4byte	0x14dc
 6024 14c9 1B       		.uleb128 0x1b
 6025 14ca 01       		.uleb128 0x1
 6026 14cb 52       		.byte	0x52
 6027 14cc 02       		.uleb128 0x2
 6028 14cd 77       		.byte	0x77
 6029 14ce 00       		.sleb128 0
 6030 14cf 1B       		.uleb128 0x1b
 6031 14d0 01       		.uleb128 0x1
 6032 14d1 51       		.byte	0x51
 6033 14d2 02       		.uleb128 0x2
 6034 14d3 74       		.byte	0x74
 6035 14d4 00       		.sleb128 0
 6036 14d5 1B       		.uleb128 0x1b
 6037 14d6 01       		.uleb128 0x1
 6038 14d7 50       		.byte	0x50
 6039 14d8 02       		.uleb128 0x2
 6040 14d9 75       		.byte	0x75
 6041 14da 00       		.sleb128 0
 6042 14db 00       		.byte	0
 6043 14dc 1C       		.uleb128 0x1c
 6044 14dd 4A000000 		.4byte	.LVL328
 6045 14e1 EE030000 		.4byte	0x3ee
 6046 14e5 1B       		.uleb128 0x1b
 6047 14e6 01       		.uleb128 0x1
 6048 14e7 52       		.byte	0x52
 6049 14e8 02       		.uleb128 0x2
 6050 14e9 77       		.byte	0x77
 6051 14ea 01       		.sleb128 1
 6052 14eb 1B       		.uleb128 0x1b
 6053 14ec 01       		.uleb128 0x1
 6054 14ed 51       		.byte	0x51
 6055 14ee 02       		.uleb128 0x2
ARM GAS  C:\Users\Petro\AppData\Local\Temp\cchQWd3Z.s 			page 126


 6056 14ef 74       		.byte	0x74
 6057 14f0 00       		.sleb128 0
 6058 14f1 1B       		.uleb128 0x1b
 6059 14f2 01       		.uleb128 0x1
 6060 14f3 50       		.byte	0x50
 6061 14f4 02       		.uleb128 0x2
 6062 14f5 76       		.byte	0x76
 6063 14f6 00       		.sleb128 0
 6064 14f7 00       		.byte	0
 6065 14f8 00       		.byte	0
 6066 14f9 26       		.uleb128 0x26
 6067 14fa 3D080000 		.4byte	.LASF125
 6068 14fe 02       		.byte	0x2
 6069 14ff A902     		.2byte	0x2a9
 6070 1501 00000000 		.4byte	.LFB90
 6071 1505 4C000000 		.4byte	.LFE90-.LFB90
 6072 1509 01       		.uleb128 0x1
 6073 150a 9C       		.byte	0x9c
 6074 150b D0150000 		.4byte	0x15d0
 6075 150f 27       		.uleb128 0x27
 6076 1510 783100   		.ascii	"x1\000"
 6077 1513 02       		.byte	0x2
 6078 1514 A902     		.2byte	0x2a9
 6079 1516 2C000000 		.4byte	0x2c
 6080 151a 15120000 		.4byte	.LLST111
 6081 151e 27       		.uleb128 0x27
 6082 151f 793100   		.ascii	"y1\000"
 6083 1522 02       		.byte	0x2
 6084 1523 A902     		.2byte	0x2a9
 6085 1525 2C000000 		.4byte	0x2c
 6086 1529 33120000 		.4byte	.LLST112
 6087 152d 27       		.uleb128 0x27
 6088 152e 783200   		.ascii	"x2\000"
 6089 1531 02       		.byte	0x2
 6090 1532 A902     		.2byte	0x2a9
 6091 1534 2C000000 		.4byte	0x2c
 6092 1538 51120000 		.4byte	.LLST113
 6093 153c 27       		.uleb128 0x27
 6094 153d 793200   		.ascii	"y2\000"
 6095 1540 02       		.byte	0x2
 6096 1541 A902     		.2byte	0x2a9
 6097 1543 2C000000 		.4byte	0x2c
 6098 1547 6F120000 		.4byte	.LLST114
 6099 154b 15       		.uleb128 0x15
 6100 154c 746D7000 		.ascii	"tmp\000"
 6101 1550 02       		.byte	0x2
 6102 1551 AB02     		.2byte	0x2ab
 6103 1553 2C000000 		.4byte	0x2c
 6104 1557 1A       		.uleb128 0x1a
 6105 1558 2A000000 		.4byte	.LVL336
 6106 155c 9F030000 		.4byte	0x39f
 6107 1560 78150000 		.4byte	0x1578
 6108 1564 1B       		.uleb128 0x1b
 6109 1565 01       		.uleb128 0x1
 6110 1566 52       		.byte	0x52
 6111 1567 03       		.uleb128 0x3
 6112 1568 91       		.byte	0x91
ARM GAS  C:\Users\Petro\AppData\Local\Temp\cchQWd3Z.s 			page 127


 6113 1569 64       		.sleb128 -28
 6114 156a 06       		.byte	0x6
 6115 156b 1B       		.uleb128 0x1b
 6116 156c 01       		.uleb128 0x1
 6117 156d 51       		.byte	0x51
 6118 156e 02       		.uleb128 0x2
 6119 156f 74       		.byte	0x74
 6120 1570 00       		.sleb128 0
 6121 1571 1B       		.uleb128 0x1b
 6122 1572 01       		.uleb128 0x1
 6123 1573 50       		.byte	0x50
 6124 1574 02       		.uleb128 0x2
 6125 1575 75       		.byte	0x75
 6126 1576 00       		.sleb128 0
 6127 1577 00       		.byte	0
 6128 1578 1A       		.uleb128 0x1a
 6129 1579 36000000 		.4byte	.LVL338
 6130 157d 9F030000 		.4byte	0x39f
 6131 1581 93150000 		.4byte	0x1593
 6132 1585 1B       		.uleb128 0x1b
 6133 1586 01       		.uleb128 0x1
 6134 1587 52       		.byte	0x52
 6135 1588 03       		.uleb128 0x3
 6136 1589 91       		.byte	0x91
 6137 158a 64       		.sleb128 -28
 6138 158b 06       		.byte	0x6
 6139 158c 1B       		.uleb128 0x1b
 6140 158d 01       		.uleb128 0x1
 6141 158e 50       		.byte	0x50
 6142 158f 02       		.uleb128 0x2
 6143 1590 75       		.byte	0x75
 6144 1591 00       		.sleb128 0
 6145 1592 00       		.byte	0
 6146 1593 1A       		.uleb128 0x1a
 6147 1594 40000000 		.4byte	.LVL339
 6148 1598 3D040000 		.4byte	0x43d
 6149 159c B3150000 		.4byte	0x15b3
 6150 15a0 1B       		.uleb128 0x1b
 6151 15a1 01       		.uleb128 0x1
 6152 15a2 52       		.byte	0x52
 6153 15a3 02       		.uleb128 0x2
 6154 15a4 77       		.byte	0x77
 6155 15a5 00       		.sleb128 0
 6156 15a6 1B       		.uleb128 0x1b
 6157 15a7 01       		.uleb128 0x1
 6158 15a8 51       		.byte	0x51
 6159 15a9 02       		.uleb128 0x2
 6160 15aa 74       		.byte	0x74
 6161 15ab 00       		.sleb128 0
 6162 15ac 1B       		.uleb128 0x1b
 6163 15ad 01       		.uleb128 0x1
 6164 15ae 50       		.byte	0x50
 6165 15af 02       		.uleb128 0x2
 6166 15b0 75       		.byte	0x75
 6167 15b1 00       		.sleb128 0
 6168 15b2 00       		.byte	0
 6169 15b3 1C       		.uleb128 0x1c
ARM GAS  C:\Users\Petro\AppData\Local\Temp\cchQWd3Z.s 			page 128


 6170 15b4 4A000000 		.4byte	.LVL340
 6171 15b8 3D040000 		.4byte	0x43d
 6172 15bc 1B       		.uleb128 0x1b
 6173 15bd 01       		.uleb128 0x1
 6174 15be 52       		.byte	0x52
 6175 15bf 02       		.uleb128 0x2
 6176 15c0 77       		.byte	0x77
 6177 15c1 01       		.sleb128 1
 6178 15c2 1B       		.uleb128 0x1b
 6179 15c3 01       		.uleb128 0x1
 6180 15c4 51       		.byte	0x51
 6181 15c5 02       		.uleb128 0x2
 6182 15c6 74       		.byte	0x74
 6183 15c7 00       		.sleb128 0
 6184 15c8 1B       		.uleb128 0x1b
 6185 15c9 01       		.uleb128 0x1
 6186 15ca 50       		.byte	0x50
 6187 15cb 02       		.uleb128 0x2
 6188 15cc 76       		.byte	0x76
 6189 15cd 00       		.sleb128 0
 6190 15ce 00       		.byte	0
 6191 15cf 00       		.byte	0
 6192 15d0 26       		.uleb128 0x26
 6193 15d1 1B080000 		.4byte	.LASF126
 6194 15d5 02       		.byte	0x2
 6195 15d6 C002     		.2byte	0x2c0
 6196 15d8 00000000 		.4byte	.LFB91
 6197 15dc A2000000 		.4byte	.LFE91-.LFB91
 6198 15e0 01       		.uleb128 0x1
 6199 15e1 9C       		.byte	0x9c
 6200 15e2 19170000 		.4byte	0x1719
 6201 15e6 27       		.uleb128 0x27
 6202 15e7 783100   		.ascii	"x1\000"
 6203 15ea 02       		.byte	0x2
 6204 15eb C002     		.2byte	0x2c0
 6205 15ed 2C000000 		.4byte	0x2c
 6206 15f1 98120000 		.4byte	.LLST115
 6207 15f5 27       		.uleb128 0x27
 6208 15f6 793100   		.ascii	"y1\000"
 6209 15f9 02       		.byte	0x2
 6210 15fa C002     		.2byte	0x2c0
 6211 15fc 2C000000 		.4byte	0x2c
 6212 1600 B6120000 		.4byte	.LLST116
 6213 1604 27       		.uleb128 0x27
 6214 1605 783200   		.ascii	"x2\000"
 6215 1608 02       		.byte	0x2
 6216 1609 C002     		.2byte	0x2c0
 6217 160b 2C000000 		.4byte	0x2c
 6218 160f E1120000 		.4byte	.LLST117
 6219 1613 27       		.uleb128 0x27
 6220 1614 793200   		.ascii	"y2\000"
 6221 1617 02       		.byte	0x2
 6222 1618 C002     		.2byte	0x2c0
 6223 161a 2C000000 		.4byte	0x2c
 6224 161e 00130000 		.4byte	.LLST118
 6225 1622 15       		.uleb128 0x15
 6226 1623 746D7000 		.ascii	"tmp\000"
ARM GAS  C:\Users\Petro\AppData\Local\Temp\cchQWd3Z.s 			page 129


 6227 1627 02       		.byte	0x2
 6228 1628 C202     		.2byte	0x2c2
 6229 162a 2C000000 		.4byte	0x2c
 6230 162e 1A       		.uleb128 0x1a
 6231 162f 44000000 		.4byte	.LVL348
 6232 1633 EA020000 		.4byte	0x2ea
 6233 1637 48160000 		.4byte	0x1648
 6234 163b 1B       		.uleb128 0x1b
 6235 163c 01       		.uleb128 0x1
 6236 163d 51       		.byte	0x51
 6237 163e 02       		.uleb128 0x2
 6238 163f 76       		.byte	0x76
 6239 1640 00       		.sleb128 0
 6240 1641 1B       		.uleb128 0x1b
 6241 1642 01       		.uleb128 0x1
 6242 1643 50       		.byte	0x50
 6243 1644 02       		.uleb128 0x2
 6244 1645 77       		.byte	0x77
 6245 1646 00       		.sleb128 0
 6246 1647 00       		.byte	0
 6247 1648 1A       		.uleb128 0x1a
 6248 1649 54000000 		.4byte	.LVL349
 6249 164d EA020000 		.4byte	0x2ea
 6250 1651 64160000 		.4byte	0x1664
 6251 1655 1B       		.uleb128 0x1b
 6252 1656 01       		.uleb128 0x1
 6253 1657 51       		.byte	0x51
 6254 1658 02       		.uleb128 0x2
 6255 1659 76       		.byte	0x76
 6256 165a 00       		.sleb128 0
 6257 165b 1B       		.uleb128 0x1b
 6258 165c 01       		.uleb128 0x1
 6259 165d 50       		.byte	0x50
 6260 165e 04       		.uleb128 0x4
 6261 165f 91       		.byte	0x91
 6262 1660 64       		.sleb128 -28
 6263 1661 94       		.byte	0x94
 6264 1662 02       		.byte	0x2
 6265 1663 00       		.byte	0
 6266 1664 1A       		.uleb128 0x1a
 6267 1665 62000000 		.4byte	.LVL350
 6268 1669 EA020000 		.4byte	0x2ea
 6269 166d 7E160000 		.4byte	0x167e
 6270 1671 1B       		.uleb128 0x1b
 6271 1672 01       		.uleb128 0x1
 6272 1673 51       		.byte	0x51
 6273 1674 02       		.uleb128 0x2
 6274 1675 76       		.byte	0x76
 6275 1676 00       		.sleb128 0
 6276 1677 1B       		.uleb128 0x1b
 6277 1678 01       		.uleb128 0x1
 6278 1679 50       		.byte	0x50
 6279 167a 02       		.uleb128 0x2
 6280 167b 77       		.byte	0x77
 6281 167c 00       		.sleb128 0
 6282 167d 00       		.byte	0
 6283 167e 1A       		.uleb128 0x1a
ARM GAS  C:\Users\Petro\AppData\Local\Temp\cchQWd3Z.s 			page 130


 6284 167f 6A000000 		.4byte	.LVL351
 6285 1683 EA020000 		.4byte	0x2ea
 6286 1687 9A160000 		.4byte	0x169a
 6287 168b 1B       		.uleb128 0x1b
 6288 168c 01       		.uleb128 0x1
 6289 168d 51       		.byte	0x51
 6290 168e 02       		.uleb128 0x2
 6291 168f 76       		.byte	0x76
 6292 1690 00       		.sleb128 0
 6293 1691 1B       		.uleb128 0x1b
 6294 1692 01       		.uleb128 0x1
 6295 1693 50       		.byte	0x50
 6296 1694 04       		.uleb128 0x4
 6297 1695 91       		.byte	0x91
 6298 1696 64       		.sleb128 -28
 6299 1697 94       		.byte	0x94
 6300 1698 02       		.byte	0x2
 6301 1699 00       		.byte	0
 6302 169a 1A       		.uleb128 0x1a
 6303 169b 7A000000 		.4byte	.LVL352
 6304 169f 50030000 		.4byte	0x350
 6305 16a3 BA160000 		.4byte	0x16ba
 6306 16a7 1B       		.uleb128 0x1b
 6307 16a8 01       		.uleb128 0x1
 6308 16a9 52       		.byte	0x52
 6309 16aa 02       		.uleb128 0x2
 6310 16ab 76       		.byte	0x76
 6311 16ac 00       		.sleb128 0
 6312 16ad 1B       		.uleb128 0x1b
 6313 16ae 01       		.uleb128 0x1
 6314 16af 51       		.byte	0x51
 6315 16b0 02       		.uleb128 0x2
 6316 16b1 74       		.byte	0x74
 6317 16b2 00       		.sleb128 0
 6318 16b3 1B       		.uleb128 0x1b
 6319 16b4 01       		.uleb128 0x1
 6320 16b5 50       		.byte	0x50
 6321 16b6 02       		.uleb128 0x2
 6322 16b7 77       		.byte	0x77
 6323 16b8 00       		.sleb128 0
 6324 16b9 00       		.byte	0
 6325 16ba 1A       		.uleb128 0x1a
 6326 16bb 84000000 		.4byte	.LVL353
 6327 16bf 50030000 		.4byte	0x350
 6328 16c3 DB160000 		.4byte	0x16db
 6329 16c7 1B       		.uleb128 0x1b
 6330 16c8 01       		.uleb128 0x1
 6331 16c9 52       		.byte	0x52
 6332 16ca 02       		.uleb128 0x2
 6333 16cb 76       		.byte	0x76
 6334 16cc 00       		.sleb128 0
 6335 16cd 1B       		.uleb128 0x1b
 6336 16ce 01       		.uleb128 0x1
 6337 16cf 51       		.byte	0x51
 6338 16d0 03       		.uleb128 0x3
 6339 16d1 91       		.byte	0x91
 6340 16d2 58       		.sleb128 -40
ARM GAS  C:\Users\Petro\AppData\Local\Temp\cchQWd3Z.s 			page 131


 6341 16d3 06       		.byte	0x6
 6342 16d4 1B       		.uleb128 0x1b
 6343 16d5 01       		.uleb128 0x1
 6344 16d6 50       		.byte	0x50
 6345 16d7 02       		.uleb128 0x2
 6346 16d8 77       		.byte	0x77
 6347 16d9 00       		.sleb128 0
 6348 16da 00       		.byte	0
 6349 16db 1A       		.uleb128 0x1a
 6350 16dc 94000000 		.4byte	.LVL355
 6351 16e0 EE030000 		.4byte	0x3ee
 6352 16e4 FB160000 		.4byte	0x16fb
 6353 16e8 1B       		.uleb128 0x1b
 6354 16e9 01       		.uleb128 0x1
 6355 16ea 52       		.byte	0x52
 6356 16eb 02       		.uleb128 0x2
 6357 16ec 76       		.byte	0x76
 6358 16ed 00       		.sleb128 0
 6359 16ee 1B       		.uleb128 0x1b
 6360 16ef 01       		.uleb128 0x1
 6361 16f0 51       		.byte	0x51
 6362 16f1 02       		.uleb128 0x2
 6363 16f2 74       		.byte	0x74
 6364 16f3 00       		.sleb128 0
 6365 16f4 1B       		.uleb128 0x1b
 6366 16f5 01       		.uleb128 0x1
 6367 16f6 50       		.byte	0x50
 6368 16f7 02       		.uleb128 0x2
 6369 16f8 75       		.byte	0x75
 6370 16f9 00       		.sleb128 0
 6371 16fa 00       		.byte	0
 6372 16fb 1C       		.uleb128 0x1c
 6373 16fc 9E000000 		.4byte	.LVL356
 6374 1700 EE030000 		.4byte	0x3ee
 6375 1704 1B       		.uleb128 0x1b
 6376 1705 01       		.uleb128 0x1
 6377 1706 52       		.byte	0x52
 6378 1707 02       		.uleb128 0x2
 6379 1708 76       		.byte	0x76
 6380 1709 00       		.sleb128 0
 6381 170a 1B       		.uleb128 0x1b
 6382 170b 01       		.uleb128 0x1
 6383 170c 51       		.byte	0x51
 6384 170d 02       		.uleb128 0x2
 6385 170e 74       		.byte	0x74
 6386 170f 00       		.sleb128 0
 6387 1710 1B       		.uleb128 0x1b
 6388 1711 01       		.uleb128 0x1
 6389 1712 50       		.byte	0x50
 6390 1713 03       		.uleb128 0x3
 6391 1714 91       		.byte	0x91
 6392 1715 54       		.sleb128 -44
 6393 1716 06       		.byte	0x6
 6394 1717 00       		.byte	0
 6395 1718 00       		.byte	0
 6396 1719 26       		.uleb128 0x26
 6397 171a EC090000 		.4byte	.LASF127
ARM GAS  C:\Users\Petro\AppData\Local\Temp\cchQWd3Z.s 			page 132


 6398 171e 02       		.byte	0x2
 6399 171f DD02     		.2byte	0x2dd
 6400 1721 00000000 		.4byte	.LFB92
 6401 1725 A2000000 		.4byte	.LFE92-.LFB92
 6402 1729 01       		.uleb128 0x1
 6403 172a 9C       		.byte	0x9c
 6404 172b 62180000 		.4byte	0x1862
 6405 172f 27       		.uleb128 0x27
 6406 1730 783100   		.ascii	"x1\000"
 6407 1733 02       		.byte	0x2
 6408 1734 DD02     		.2byte	0x2dd
 6409 1736 2C000000 		.4byte	0x2c
 6410 173a 1F130000 		.4byte	.LLST119
 6411 173e 27       		.uleb128 0x27
 6412 173f 793100   		.ascii	"y1\000"
 6413 1742 02       		.byte	0x2
 6414 1743 DD02     		.2byte	0x2dd
 6415 1745 2C000000 		.4byte	0x2c
 6416 1749 3D130000 		.4byte	.LLST120
 6417 174d 27       		.uleb128 0x27
 6418 174e 783200   		.ascii	"x2\000"
 6419 1751 02       		.byte	0x2
 6420 1752 DD02     		.2byte	0x2dd
 6421 1754 2C000000 		.4byte	0x2c
 6422 1758 68130000 		.4byte	.LLST121
 6423 175c 27       		.uleb128 0x27
 6424 175d 793200   		.ascii	"y2\000"
 6425 1760 02       		.byte	0x2
 6426 1761 DD02     		.2byte	0x2dd
 6427 1763 2C000000 		.4byte	0x2c
 6428 1767 87130000 		.4byte	.LLST122
 6429 176b 15       		.uleb128 0x15
 6430 176c 746D7000 		.ascii	"tmp\000"
 6431 1770 02       		.byte	0x2
 6432 1771 DF02     		.2byte	0x2df
 6433 1773 2C000000 		.4byte	0x2c
 6434 1777 1A       		.uleb128 0x1a
 6435 1778 44000000 		.4byte	.LVL362
 6436 177c 1D030000 		.4byte	0x31d
 6437 1780 91170000 		.4byte	0x1791
 6438 1784 1B       		.uleb128 0x1b
 6439 1785 01       		.uleb128 0x1
 6440 1786 51       		.byte	0x51
 6441 1787 02       		.uleb128 0x2
 6442 1788 76       		.byte	0x76
 6443 1789 00       		.sleb128 0
 6444 178a 1B       		.uleb128 0x1b
 6445 178b 01       		.uleb128 0x1
 6446 178c 50       		.byte	0x50
 6447 178d 02       		.uleb128 0x2
 6448 178e 77       		.byte	0x77
 6449 178f 00       		.sleb128 0
 6450 1790 00       		.byte	0
 6451 1791 1A       		.uleb128 0x1a
 6452 1792 54000000 		.4byte	.LVL363
 6453 1796 1D030000 		.4byte	0x31d
 6454 179a AD170000 		.4byte	0x17ad
ARM GAS  C:\Users\Petro\AppData\Local\Temp\cchQWd3Z.s 			page 133


 6455 179e 1B       		.uleb128 0x1b
 6456 179f 01       		.uleb128 0x1
 6457 17a0 51       		.byte	0x51
 6458 17a1 02       		.uleb128 0x2
 6459 17a2 76       		.byte	0x76
 6460 17a3 00       		.sleb128 0
 6461 17a4 1B       		.uleb128 0x1b
 6462 17a5 01       		.uleb128 0x1
 6463 17a6 50       		.byte	0x50
 6464 17a7 04       		.uleb128 0x4
 6465 17a8 91       		.byte	0x91
 6466 17a9 64       		.sleb128 -28
 6467 17aa 94       		.byte	0x94
 6468 17ab 02       		.byte	0x2
 6469 17ac 00       		.byte	0
 6470 17ad 1A       		.uleb128 0x1a
 6471 17ae 62000000 		.4byte	.LVL364
 6472 17b2 1D030000 		.4byte	0x31d
 6473 17b6 C7170000 		.4byte	0x17c7
 6474 17ba 1B       		.uleb128 0x1b
 6475 17bb 01       		.uleb128 0x1
 6476 17bc 51       		.byte	0x51
 6477 17bd 02       		.uleb128 0x2
 6478 17be 76       		.byte	0x76
 6479 17bf 00       		.sleb128 0
 6480 17c0 1B       		.uleb128 0x1b
 6481 17c1 01       		.uleb128 0x1
 6482 17c2 50       		.byte	0x50
 6483 17c3 02       		.uleb128 0x2
 6484 17c4 77       		.byte	0x77
 6485 17c5 00       		.sleb128 0
 6486 17c6 00       		.byte	0
 6487 17c7 1A       		.uleb128 0x1a
 6488 17c8 6A000000 		.4byte	.LVL365
 6489 17cc 1D030000 		.4byte	0x31d
 6490 17d0 E3170000 		.4byte	0x17e3
 6491 17d4 1B       		.uleb128 0x1b
 6492 17d5 01       		.uleb128 0x1
 6493 17d6 51       		.byte	0x51
 6494 17d7 02       		.uleb128 0x2
 6495 17d8 76       		.byte	0x76
 6496 17d9 00       		.sleb128 0
 6497 17da 1B       		.uleb128 0x1b
 6498 17db 01       		.uleb128 0x1
 6499 17dc 50       		.byte	0x50
 6500 17dd 04       		.uleb128 0x4
 6501 17de 91       		.byte	0x91
 6502 17df 64       		.sleb128 -28
 6503 17e0 94       		.byte	0x94
 6504 17e1 02       		.byte	0x2
 6505 17e2 00       		.byte	0
 6506 17e3 1A       		.uleb128 0x1a
 6507 17e4 7A000000 		.4byte	.LVL366
 6508 17e8 9F030000 		.4byte	0x39f
 6509 17ec 03180000 		.4byte	0x1803
 6510 17f0 1B       		.uleb128 0x1b
 6511 17f1 01       		.uleb128 0x1
ARM GAS  C:\Users\Petro\AppData\Local\Temp\cchQWd3Z.s 			page 134


 6512 17f2 52       		.byte	0x52
 6513 17f3 02       		.uleb128 0x2
 6514 17f4 76       		.byte	0x76
 6515 17f5 00       		.sleb128 0
 6516 17f6 1B       		.uleb128 0x1b
 6517 17f7 01       		.uleb128 0x1
 6518 17f8 51       		.byte	0x51
 6519 17f9 02       		.uleb128 0x2
 6520 17fa 74       		.byte	0x74
 6521 17fb 00       		.sleb128 0
 6522 17fc 1B       		.uleb128 0x1b
 6523 17fd 01       		.uleb128 0x1
 6524 17fe 50       		.byte	0x50
 6525 17ff 02       		.uleb128 0x2
 6526 1800 77       		.byte	0x77
 6527 1801 00       		.sleb128 0
 6528 1802 00       		.byte	0
 6529 1803 1A       		.uleb128 0x1a
 6530 1804 84000000 		.4byte	.LVL367
 6531 1808 9F030000 		.4byte	0x39f
 6532 180c 24180000 		.4byte	0x1824
 6533 1810 1B       		.uleb128 0x1b
 6534 1811 01       		.uleb128 0x1
 6535 1812 52       		.byte	0x52
 6536 1813 02       		.uleb128 0x2
 6537 1814 76       		.byte	0x76
 6538 1815 00       		.sleb128 0
 6539 1816 1B       		.uleb128 0x1b
 6540 1817 01       		.uleb128 0x1
 6541 1818 51       		.byte	0x51
 6542 1819 03       		.uleb128 0x3
 6543 181a 91       		.byte	0x91
 6544 181b 58       		.sleb128 -40
 6545 181c 06       		.byte	0x6
 6546 181d 1B       		.uleb128 0x1b
 6547 181e 01       		.uleb128 0x1
 6548 181f 50       		.byte	0x50
 6549 1820 02       		.uleb128 0x2
 6550 1821 77       		.byte	0x77
 6551 1822 00       		.sleb128 0
 6552 1823 00       		.byte	0
 6553 1824 1A       		.uleb128 0x1a
 6554 1825 94000000 		.4byte	.LVL369
 6555 1829 3D040000 		.4byte	0x43d
 6556 182d 44180000 		.4byte	0x1844
 6557 1831 1B       		.uleb128 0x1b
 6558 1832 01       		.uleb128 0x1
 6559 1833 52       		.byte	0x52
 6560 1834 02       		.uleb128 0x2
 6561 1835 76       		.byte	0x76
 6562 1836 00       		.sleb128 0
 6563 1837 1B       		.uleb128 0x1b
 6564 1838 01       		.uleb128 0x1
 6565 1839 51       		.byte	0x51
 6566 183a 02       		.uleb128 0x2
 6567 183b 74       		.byte	0x74
 6568 183c 00       		.sleb128 0
ARM GAS  C:\Users\Petro\AppData\Local\Temp\cchQWd3Z.s 			page 135


 6569 183d 1B       		.uleb128 0x1b
 6570 183e 01       		.uleb128 0x1
 6571 183f 50       		.byte	0x50
 6572 1840 02       		.uleb128 0x2
 6573 1841 75       		.byte	0x75
 6574 1842 00       		.sleb128 0
 6575 1843 00       		.byte	0
 6576 1844 1C       		.uleb128 0x1c
 6577 1845 9E000000 		.4byte	.LVL370
 6578 1849 3D040000 		.4byte	0x43d
 6579 184d 1B       		.uleb128 0x1b
 6580 184e 01       		.uleb128 0x1
 6581 184f 52       		.byte	0x52
 6582 1850 02       		.uleb128 0x2
 6583 1851 76       		.byte	0x76
 6584 1852 00       		.sleb128 0
 6585 1853 1B       		.uleb128 0x1b
 6586 1854 01       		.uleb128 0x1
 6587 1855 51       		.byte	0x51
 6588 1856 02       		.uleb128 0x2
 6589 1857 74       		.byte	0x74
 6590 1858 00       		.sleb128 0
 6591 1859 1B       		.uleb128 0x1b
 6592 185a 01       		.uleb128 0x1
 6593 185b 50       		.byte	0x50
 6594 185c 03       		.uleb128 0x3
 6595 185d 91       		.byte	0x91
 6596 185e 54       		.sleb128 -44
 6597 185f 06       		.byte	0x6
 6598 1860 00       		.byte	0
 6599 1861 00       		.byte	0
 6600 1862 26       		.uleb128 0x26
 6601 1863 08080000 		.4byte	.LASF128
 6602 1867 02       		.byte	0x2
 6603 1868 FA02     		.2byte	0x2fa
 6604 186a 00000000 		.4byte	.LFB93
 6605 186e 06010000 		.4byte	.LFE93-.LFB93
 6606 1872 01       		.uleb128 0x1
 6607 1873 9C       		.byte	0x9c
 6608 1874 4D1A0000 		.4byte	0x1a4d
 6609 1878 27       		.uleb128 0x27
 6610 1879 7800     		.ascii	"x\000"
 6611 187b 02       		.byte	0x2
 6612 187c FA02     		.2byte	0x2fa
 6613 187e 2C000000 		.4byte	0x2c
 6614 1882 A6130000 		.4byte	.LLST123
 6615 1886 27       		.uleb128 0x27
 6616 1887 7900     		.ascii	"y\000"
 6617 1889 02       		.byte	0x2
 6618 188a FA02     		.2byte	0x2fa
 6619 188c 2C000000 		.4byte	0x2c
 6620 1890 C7130000 		.4byte	.LLST124
 6621 1894 2F       		.uleb128 0x2f
 6622 1895 6B060000 		.4byte	.LASF129
 6623 1899 02       		.byte	0x2
 6624 189a FA02     		.2byte	0x2fa
 6625 189c 2C000000 		.4byte	0x2c
ARM GAS  C:\Users\Petro\AppData\Local\Temp\cchQWd3Z.s 			page 136


 6626 18a0 E8130000 		.4byte	.LLST125
 6627 18a4 2A       		.uleb128 0x2a
 6628 18a5 6600     		.ascii	"f\000"
 6629 18a7 02       		.byte	0x2
 6630 18a8 FC02     		.2byte	0x2fc
 6631 18aa 2C000000 		.4byte	0x2c
 6632 18ae 15140000 		.4byte	.LLST126
 6633 18b2 29       		.uleb128 0x29
 6634 18b3 16050000 		.4byte	.LASF130
 6635 18b7 02       		.byte	0x2
 6636 18b8 FD02     		.2byte	0x2fd
 6637 18ba 2C000000 		.4byte	0x2c
 6638 18be 4B140000 		.4byte	.LLST127
 6639 18c2 29       		.uleb128 0x29
 6640 18c3 1C050000 		.4byte	.LASF131
 6641 18c7 02       		.byte	0x2
 6642 18c8 FE02     		.2byte	0x2fe
 6643 18ca 2C000000 		.4byte	0x2c
 6644 18ce C2140000 		.4byte	.LLST128
 6645 18d2 2A       		.uleb128 0x2a
 6646 18d3 783100   		.ascii	"x1\000"
 6647 18d6 02       		.byte	0x2
 6648 18d7 FF02     		.2byte	0x2ff
 6649 18d9 2C000000 		.4byte	0x2c
 6650 18dd 03150000 		.4byte	.LLST129
 6651 18e1 2A       		.uleb128 0x2a
 6652 18e2 793100   		.ascii	"y1\000"
 6653 18e5 02       		.byte	0x2
 6654 18e6 0003     		.2byte	0x300
 6655 18e8 2C000000 		.4byte	0x2c
 6656 18ec 45150000 		.4byte	.LLST130
 6657 18f0 15       		.uleb128 0x15
 6658 18f1 636800   		.ascii	"ch\000"
 6659 18f4 02       		.byte	0x2
 6660 18f5 0103     		.2byte	0x301
 6661 18f7 B1000000 		.4byte	0xb1
 6662 18fb 15       		.uleb128 0x15
 6663 18fc 636C00   		.ascii	"cl\000"
 6664 18ff 02       		.byte	0x2
 6665 1900 0103     		.2byte	0x301
 6666 1902 B1000000 		.4byte	0xb1
 6667 1906 1A       		.uleb128 0x1a
 6668 1907 26000000 		.4byte	.LVL380
 6669 190b EA020000 		.4byte	0x2ea
 6670 190f 25190000 		.4byte	0x1925
 6671 1913 1B       		.uleb128 0x1b
 6672 1914 01       		.uleb128 0x1
 6673 1915 51       		.byte	0x51
 6674 1916 05       		.uleb128 0x5
 6675 1917 75       		.byte	0x75
 6676 1918 00       		.sleb128 0
 6677 1919 74       		.byte	0x74
 6678 191a 00       		.sleb128 0
 6679 191b 22       		.byte	0x22
 6680 191c 1B       		.uleb128 0x1b
 6681 191d 01       		.uleb128 0x1
 6682 191e 50       		.byte	0x50
ARM GAS  C:\Users\Petro\AppData\Local\Temp\cchQWd3Z.s 			page 137


 6683 191f 04       		.uleb128 0x4
 6684 1920 91       		.byte	0x91
 6685 1921 4C       		.sleb128 -52
 6686 1922 94       		.byte	0x94
 6687 1923 02       		.byte	0x2
 6688 1924 00       		.byte	0
 6689 1925 1A       		.uleb128 0x1a
 6690 1926 30000000 		.4byte	.LVL381
 6691 192a EA020000 		.4byte	0x2ea
 6692 192e 44190000 		.4byte	0x1944
 6693 1932 1B       		.uleb128 0x1b
 6694 1933 01       		.uleb128 0x1
 6695 1934 51       		.byte	0x51
 6696 1935 05       		.uleb128 0x5
 6697 1936 74       		.byte	0x74
 6698 1937 00       		.sleb128 0
 6699 1938 75       		.byte	0x75
 6700 1939 00       		.sleb128 0
 6701 193a 1C       		.byte	0x1c
 6702 193b 1B       		.uleb128 0x1b
 6703 193c 01       		.uleb128 0x1
 6704 193d 50       		.byte	0x50
 6705 193e 04       		.uleb128 0x4
 6706 193f 91       		.byte	0x91
 6707 1940 4C       		.sleb128 -52
 6708 1941 94       		.byte	0x94
 6709 1942 02       		.byte	0x2
 6710 1943 00       		.byte	0
 6711 1944 1A       		.uleb128 0x1a
 6712 1945 3C000000 		.4byte	.LVL382
 6713 1949 EA020000 		.4byte	0x2ea
 6714 194d 62190000 		.4byte	0x1962
 6715 1951 1B       		.uleb128 0x1b
 6716 1952 01       		.uleb128 0x1
 6717 1953 51       		.byte	0x51
 6718 1954 02       		.uleb128 0x2
 6719 1955 74       		.byte	0x74
 6720 1956 00       		.sleb128 0
 6721 1957 1B       		.uleb128 0x1b
 6722 1958 01       		.uleb128 0x1
 6723 1959 50       		.byte	0x50
 6724 195a 06       		.uleb128 0x6
 6725 195b 75       		.byte	0x75
 6726 195c 00       		.sleb128 0
 6727 195d 91       		.byte	0x91
 6728 195e 4C       		.sleb128 -52
 6729 195f 06       		.byte	0x6
 6730 1960 22       		.byte	0x22
 6731 1961 00       		.byte	0
 6732 1962 1A       		.uleb128 0x1a
 6733 1963 48000000 		.4byte	.LVL383
 6734 1967 EA020000 		.4byte	0x2ea
 6735 196b 80190000 		.4byte	0x1980
 6736 196f 1B       		.uleb128 0x1b
 6737 1970 01       		.uleb128 0x1
 6738 1971 51       		.byte	0x51
 6739 1972 02       		.uleb128 0x2
ARM GAS  C:\Users\Petro\AppData\Local\Temp\cchQWd3Z.s 			page 138


 6740 1973 74       		.byte	0x74
 6741 1974 00       		.sleb128 0
 6742 1975 1B       		.uleb128 0x1b
 6743 1976 01       		.uleb128 0x1
 6744 1977 50       		.byte	0x50
 6745 1978 06       		.uleb128 0x6
 6746 1979 91       		.byte	0x91
 6747 197a 4C       		.sleb128 -52
 6748 197b 06       		.byte	0x6
 6749 197c 75       		.byte	0x75
 6750 197d 00       		.sleb128 0
 6751 197e 1C       		.byte	0x1c
 6752 197f 00       		.byte	0
 6753 1980 1A       		.uleb128 0x1a
 6754 1981 9E000000 		.4byte	.LVL396
 6755 1985 EA020000 		.4byte	0x2ea
 6756 1989 9A190000 		.4byte	0x199a
 6757 198d 1B       		.uleb128 0x1b
 6758 198e 01       		.uleb128 0x1
 6759 198f 51       		.byte	0x51
 6760 1990 02       		.uleb128 0x2
 6761 1991 75       		.byte	0x75
 6762 1992 00       		.sleb128 0
 6763 1993 1B       		.uleb128 0x1b
 6764 1994 01       		.uleb128 0x1
 6765 1995 50       		.byte	0x50
 6766 1996 02       		.uleb128 0x2
 6767 1997 77       		.byte	0x77
 6768 1998 00       		.sleb128 0
 6769 1999 00       		.byte	0
 6770 199a 1A       		.uleb128 0x1a
 6771 199b AE000000 		.4byte	.LVL397
 6772 199f EA020000 		.4byte	0x2ea
 6773 19a3 B4190000 		.4byte	0x19b4
 6774 19a7 1B       		.uleb128 0x1b
 6775 19a8 01       		.uleb128 0x1
 6776 19a9 51       		.byte	0x51
 6777 19aa 02       		.uleb128 0x2
 6778 19ab 75       		.byte	0x75
 6779 19ac 00       		.sleb128 0
 6780 19ad 1B       		.uleb128 0x1b
 6781 19ae 01       		.uleb128 0x1
 6782 19af 50       		.byte	0x50
 6783 19b0 02       		.uleb128 0x2
 6784 19b1 76       		.byte	0x76
 6785 19b2 00       		.sleb128 0
 6786 19b3 00       		.byte	0
 6787 19b4 1A       		.uleb128 0x1a
 6788 19b5 BC000000 		.4byte	.LVL398
 6789 19b9 EA020000 		.4byte	0x2ea
 6790 19bd CE190000 		.4byte	0x19ce
 6791 19c1 1B       		.uleb128 0x1b
 6792 19c2 01       		.uleb128 0x1
 6793 19c3 51       		.byte	0x51
 6794 19c4 02       		.uleb128 0x2
 6795 19c5 75       		.byte	0x75
 6796 19c6 00       		.sleb128 0
ARM GAS  C:\Users\Petro\AppData\Local\Temp\cchQWd3Z.s 			page 139


 6797 19c7 1B       		.uleb128 0x1b
 6798 19c8 01       		.uleb128 0x1
 6799 19c9 50       		.byte	0x50
 6800 19ca 02       		.uleb128 0x2
 6801 19cb 77       		.byte	0x77
 6802 19cc 00       		.sleb128 0
 6803 19cd 00       		.byte	0
 6804 19ce 1A       		.uleb128 0x1a
 6805 19cf C4000000 		.4byte	.LVL399
 6806 19d3 EA020000 		.4byte	0x2ea
 6807 19d7 E8190000 		.4byte	0x19e8
 6808 19db 1B       		.uleb128 0x1b
 6809 19dc 01       		.uleb128 0x1
 6810 19dd 51       		.byte	0x51
 6811 19de 02       		.uleb128 0x2
 6812 19df 75       		.byte	0x75
 6813 19e0 00       		.sleb128 0
 6814 19e1 1B       		.uleb128 0x1b
 6815 19e2 01       		.uleb128 0x1
 6816 19e3 50       		.byte	0x50
 6817 19e4 02       		.uleb128 0x2
 6818 19e5 76       		.byte	0x76
 6819 19e6 00       		.sleb128 0
 6820 19e7 00       		.byte	0
 6821 19e8 1A       		.uleb128 0x1a
 6822 19e9 DA000000 		.4byte	.LVL400
 6823 19ed EA020000 		.4byte	0x2ea
 6824 19f1 021A0000 		.4byte	0x1a02
 6825 19f5 1B       		.uleb128 0x1b
 6826 19f6 01       		.uleb128 0x1
 6827 19f7 51       		.byte	0x51
 6828 19f8 02       		.uleb128 0x2
 6829 19f9 75       		.byte	0x75
 6830 19fa 00       		.sleb128 0
 6831 19fb 1B       		.uleb128 0x1b
 6832 19fc 01       		.uleb128 0x1
 6833 19fd 50       		.byte	0x50
 6834 19fe 02       		.uleb128 0x2
 6835 19ff 77       		.byte	0x77
 6836 1a00 00       		.sleb128 0
 6837 1a01 00       		.byte	0
 6838 1a02 1A       		.uleb128 0x1a
 6839 1a03 EA000000 		.4byte	.LVL401
 6840 1a07 EA020000 		.4byte	0x2ea
 6841 1a0b 1C1A0000 		.4byte	0x1a1c
 6842 1a0f 1B       		.uleb128 0x1b
 6843 1a10 01       		.uleb128 0x1
 6844 1a11 51       		.byte	0x51
 6845 1a12 02       		.uleb128 0x2
 6846 1a13 75       		.byte	0x75
 6847 1a14 00       		.sleb128 0
 6848 1a15 1B       		.uleb128 0x1b
 6849 1a16 01       		.uleb128 0x1
 6850 1a17 50       		.byte	0x50
 6851 1a18 02       		.uleb128 0x2
 6852 1a19 76       		.byte	0x76
 6853 1a1a 00       		.sleb128 0
ARM GAS  C:\Users\Petro\AppData\Local\Temp\cchQWd3Z.s 			page 140


 6854 1a1b 00       		.byte	0
 6855 1a1c 1A       		.uleb128 0x1a
 6856 1a1d F8000000 		.4byte	.LVL402
 6857 1a21 EA020000 		.4byte	0x2ea
 6858 1a25 361A0000 		.4byte	0x1a36
 6859 1a29 1B       		.uleb128 0x1b
 6860 1a2a 01       		.uleb128 0x1
 6861 1a2b 51       		.byte	0x51
 6862 1a2c 02       		.uleb128 0x2
 6863 1a2d 75       		.byte	0x75
 6864 1a2e 00       		.sleb128 0
 6865 1a2f 1B       		.uleb128 0x1b
 6866 1a30 01       		.uleb128 0x1
 6867 1a31 50       		.byte	0x50
 6868 1a32 02       		.uleb128 0x2
 6869 1a33 77       		.byte	0x77
 6870 1a34 00       		.sleb128 0
 6871 1a35 00       		.byte	0
 6872 1a36 1C       		.uleb128 0x1c
 6873 1a37 00010000 		.4byte	.LVL403
 6874 1a3b EA020000 		.4byte	0x2ea
 6875 1a3f 1B       		.uleb128 0x1b
 6876 1a40 01       		.uleb128 0x1
 6877 1a41 51       		.byte	0x51
 6878 1a42 02       		.uleb128 0x2
 6879 1a43 75       		.byte	0x75
 6880 1a44 00       		.sleb128 0
 6881 1a45 1B       		.uleb128 0x1b
 6882 1a46 01       		.uleb128 0x1
 6883 1a47 50       		.byte	0x50
 6884 1a48 02       		.uleb128 0x2
 6885 1a49 76       		.byte	0x76
 6886 1a4a 00       		.sleb128 0
 6887 1a4b 00       		.byte	0
 6888 1a4c 00       		.byte	0
 6889 1a4d 26       		.uleb128 0x26
 6890 1a4e 75030000 		.4byte	.LASF132
 6891 1a52 02       		.byte	0x2
 6892 1a53 1E03     		.2byte	0x31e
 6893 1a55 00000000 		.4byte	.LFB94
 6894 1a59 06010000 		.4byte	.LFE94-.LFB94
 6895 1a5d 01       		.uleb128 0x1
 6896 1a5e 9C       		.byte	0x9c
 6897 1a5f 381C0000 		.4byte	0x1c38
 6898 1a63 27       		.uleb128 0x27
 6899 1a64 7800     		.ascii	"x\000"
 6900 1a66 02       		.byte	0x2
 6901 1a67 1E03     		.2byte	0x31e
 6902 1a69 2C000000 		.4byte	0x2c
 6903 1a6d 87150000 		.4byte	.LLST131
 6904 1a71 27       		.uleb128 0x27
 6905 1a72 7900     		.ascii	"y\000"
 6906 1a74 02       		.byte	0x2
 6907 1a75 1E03     		.2byte	0x31e
 6908 1a77 2C000000 		.4byte	0x2c
 6909 1a7b A8150000 		.4byte	.LLST132
 6910 1a7f 2F       		.uleb128 0x2f
ARM GAS  C:\Users\Petro\AppData\Local\Temp\cchQWd3Z.s 			page 141


 6911 1a80 6B060000 		.4byte	.LASF129
 6912 1a84 02       		.byte	0x2
 6913 1a85 1E03     		.2byte	0x31e
 6914 1a87 2C000000 		.4byte	0x2c
 6915 1a8b C9150000 		.4byte	.LLST133
 6916 1a8f 2A       		.uleb128 0x2a
 6917 1a90 6600     		.ascii	"f\000"
 6918 1a92 02       		.byte	0x2
 6919 1a93 2003     		.2byte	0x320
 6920 1a95 2C000000 		.4byte	0x2c
 6921 1a99 F6150000 		.4byte	.LLST134
 6922 1a9d 29       		.uleb128 0x29
 6923 1a9e 16050000 		.4byte	.LASF130
 6924 1aa2 02       		.byte	0x2
 6925 1aa3 2103     		.2byte	0x321
 6926 1aa5 2C000000 		.4byte	0x2c
 6927 1aa9 2C160000 		.4byte	.LLST135
 6928 1aad 29       		.uleb128 0x29
 6929 1aae 1C050000 		.4byte	.LASF131
 6930 1ab2 02       		.byte	0x2
 6931 1ab3 2203     		.2byte	0x322
 6932 1ab5 2C000000 		.4byte	0x2c
 6933 1ab9 A3160000 		.4byte	.LLST136
 6934 1abd 2A       		.uleb128 0x2a
 6935 1abe 783100   		.ascii	"x1\000"
 6936 1ac1 02       		.byte	0x2
 6937 1ac2 2303     		.2byte	0x323
 6938 1ac4 2C000000 		.4byte	0x2c
 6939 1ac8 E4160000 		.4byte	.LLST137
 6940 1acc 2A       		.uleb128 0x2a
 6941 1acd 793100   		.ascii	"y1\000"
 6942 1ad0 02       		.byte	0x2
 6943 1ad1 2403     		.2byte	0x324
 6944 1ad3 2C000000 		.4byte	0x2c
 6945 1ad7 26170000 		.4byte	.LLST138
 6946 1adb 15       		.uleb128 0x15
 6947 1adc 636800   		.ascii	"ch\000"
 6948 1adf 02       		.byte	0x2
 6949 1ae0 2503     		.2byte	0x325
 6950 1ae2 B1000000 		.4byte	0xb1
 6951 1ae6 15       		.uleb128 0x15
 6952 1ae7 636C00   		.ascii	"cl\000"
 6953 1aea 02       		.byte	0x2
 6954 1aeb 2503     		.2byte	0x325
 6955 1aed B1000000 		.4byte	0xb1
 6956 1af1 1A       		.uleb128 0x1a
 6957 1af2 26000000 		.4byte	.LVL413
 6958 1af6 1D030000 		.4byte	0x31d
 6959 1afa 101B0000 		.4byte	0x1b10
 6960 1afe 1B       		.uleb128 0x1b
 6961 1aff 01       		.uleb128 0x1
 6962 1b00 51       		.byte	0x51
 6963 1b01 05       		.uleb128 0x5
 6964 1b02 75       		.byte	0x75
 6965 1b03 00       		.sleb128 0
 6966 1b04 74       		.byte	0x74
 6967 1b05 00       		.sleb128 0
ARM GAS  C:\Users\Petro\AppData\Local\Temp\cchQWd3Z.s 			page 142


 6968 1b06 22       		.byte	0x22
 6969 1b07 1B       		.uleb128 0x1b
 6970 1b08 01       		.uleb128 0x1
 6971 1b09 50       		.byte	0x50
 6972 1b0a 04       		.uleb128 0x4
 6973 1b0b 91       		.byte	0x91
 6974 1b0c 4C       		.sleb128 -52
 6975 1b0d 94       		.byte	0x94
 6976 1b0e 02       		.byte	0x2
 6977 1b0f 00       		.byte	0
 6978 1b10 1A       		.uleb128 0x1a
 6979 1b11 30000000 		.4byte	.LVL414
 6980 1b15 1D030000 		.4byte	0x31d
 6981 1b19 2F1B0000 		.4byte	0x1b2f
 6982 1b1d 1B       		.uleb128 0x1b
 6983 1b1e 01       		.uleb128 0x1
 6984 1b1f 51       		.byte	0x51
 6985 1b20 05       		.uleb128 0x5
 6986 1b21 74       		.byte	0x74
 6987 1b22 00       		.sleb128 0
 6988 1b23 75       		.byte	0x75
 6989 1b24 00       		.sleb128 0
 6990 1b25 1C       		.byte	0x1c
 6991 1b26 1B       		.uleb128 0x1b
 6992 1b27 01       		.uleb128 0x1
 6993 1b28 50       		.byte	0x50
 6994 1b29 04       		.uleb128 0x4
 6995 1b2a 91       		.byte	0x91
 6996 1b2b 4C       		.sleb128 -52
 6997 1b2c 94       		.byte	0x94
 6998 1b2d 02       		.byte	0x2
 6999 1b2e 00       		.byte	0
 7000 1b2f 1A       		.uleb128 0x1a
 7001 1b30 3C000000 		.4byte	.LVL415
 7002 1b34 1D030000 		.4byte	0x31d
 7003 1b38 4D1B0000 		.4byte	0x1b4d
 7004 1b3c 1B       		.uleb128 0x1b
 7005 1b3d 01       		.uleb128 0x1
 7006 1b3e 51       		.byte	0x51
 7007 1b3f 02       		.uleb128 0x2
 7008 1b40 74       		.byte	0x74
 7009 1b41 00       		.sleb128 0
 7010 1b42 1B       		.uleb128 0x1b
 7011 1b43 01       		.uleb128 0x1
 7012 1b44 50       		.byte	0x50
 7013 1b45 06       		.uleb128 0x6
 7014 1b46 75       		.byte	0x75
 7015 1b47 00       		.sleb128 0
 7016 1b48 91       		.byte	0x91
 7017 1b49 4C       		.sleb128 -52
 7018 1b4a 06       		.byte	0x6
 7019 1b4b 22       		.byte	0x22
 7020 1b4c 00       		.byte	0
 7021 1b4d 1A       		.uleb128 0x1a
 7022 1b4e 48000000 		.4byte	.LVL416
 7023 1b52 1D030000 		.4byte	0x31d
 7024 1b56 6B1B0000 		.4byte	0x1b6b
ARM GAS  C:\Users\Petro\AppData\Local\Temp\cchQWd3Z.s 			page 143


 7025 1b5a 1B       		.uleb128 0x1b
 7026 1b5b 01       		.uleb128 0x1
 7027 1b5c 51       		.byte	0x51
 7028 1b5d 02       		.uleb128 0x2
 7029 1b5e 74       		.byte	0x74
 7030 1b5f 00       		.sleb128 0
 7031 1b60 1B       		.uleb128 0x1b
 7032 1b61 01       		.uleb128 0x1
 7033 1b62 50       		.byte	0x50
 7034 1b63 06       		.uleb128 0x6
 7035 1b64 91       		.byte	0x91
 7036 1b65 4C       		.sleb128 -52
 7037 1b66 06       		.byte	0x6
 7038 1b67 75       		.byte	0x75
 7039 1b68 00       		.sleb128 0
 7040 1b69 1C       		.byte	0x1c
 7041 1b6a 00       		.byte	0
 7042 1b6b 1A       		.uleb128 0x1a
 7043 1b6c 9E000000 		.4byte	.LVL429
 7044 1b70 1D030000 		.4byte	0x31d
 7045 1b74 851B0000 		.4byte	0x1b85
 7046 1b78 1B       		.uleb128 0x1b
 7047 1b79 01       		.uleb128 0x1
 7048 1b7a 51       		.byte	0x51
 7049 1b7b 02       		.uleb128 0x2
 7050 1b7c 75       		.byte	0x75
 7051 1b7d 00       		.sleb128 0
 7052 1b7e 1B       		.uleb128 0x1b
 7053 1b7f 01       		.uleb128 0x1
 7054 1b80 50       		.byte	0x50
 7055 1b81 02       		.uleb128 0x2
 7056 1b82 77       		.byte	0x77
 7057 1b83 00       		.sleb128 0
 7058 1b84 00       		.byte	0
 7059 1b85 1A       		.uleb128 0x1a
 7060 1b86 AE000000 		.4byte	.LVL430
 7061 1b8a 1D030000 		.4byte	0x31d
 7062 1b8e 9F1B0000 		.4byte	0x1b9f
 7063 1b92 1B       		.uleb128 0x1b
 7064 1b93 01       		.uleb128 0x1
 7065 1b94 51       		.byte	0x51
 7066 1b95 02       		.uleb128 0x2
 7067 1b96 75       		.byte	0x75
 7068 1b97 00       		.sleb128 0
 7069 1b98 1B       		.uleb128 0x1b
 7070 1b99 01       		.uleb128 0x1
 7071 1b9a 50       		.byte	0x50
 7072 1b9b 02       		.uleb128 0x2
 7073 1b9c 76       		.byte	0x76
 7074 1b9d 00       		.sleb128 0
 7075 1b9e 00       		.byte	0
 7076 1b9f 1A       		.uleb128 0x1a
 7077 1ba0 BC000000 		.4byte	.LVL431
 7078 1ba4 1D030000 		.4byte	0x31d
 7079 1ba8 B91B0000 		.4byte	0x1bb9
 7080 1bac 1B       		.uleb128 0x1b
 7081 1bad 01       		.uleb128 0x1
ARM GAS  C:\Users\Petro\AppData\Local\Temp\cchQWd3Z.s 			page 144


 7082 1bae 51       		.byte	0x51
 7083 1baf 02       		.uleb128 0x2
 7084 1bb0 75       		.byte	0x75
 7085 1bb1 00       		.sleb128 0
 7086 1bb2 1B       		.uleb128 0x1b
 7087 1bb3 01       		.uleb128 0x1
 7088 1bb4 50       		.byte	0x50
 7089 1bb5 02       		.uleb128 0x2
 7090 1bb6 77       		.byte	0x77
 7091 1bb7 00       		.sleb128 0
 7092 1bb8 00       		.byte	0
 7093 1bb9 1A       		.uleb128 0x1a
 7094 1bba C4000000 		.4byte	.LVL432
 7095 1bbe 1D030000 		.4byte	0x31d
 7096 1bc2 D31B0000 		.4byte	0x1bd3
 7097 1bc6 1B       		.uleb128 0x1b
 7098 1bc7 01       		.uleb128 0x1
 7099 1bc8 51       		.byte	0x51
 7100 1bc9 02       		.uleb128 0x2
 7101 1bca 75       		.byte	0x75
 7102 1bcb 00       		.sleb128 0
 7103 1bcc 1B       		.uleb128 0x1b
 7104 1bcd 01       		.uleb128 0x1
 7105 1bce 50       		.byte	0x50
 7106 1bcf 02       		.uleb128 0x2
 7107 1bd0 76       		.byte	0x76
 7108 1bd1 00       		.sleb128 0
 7109 1bd2 00       		.byte	0
 7110 1bd3 1A       		.uleb128 0x1a
 7111 1bd4 DA000000 		.4byte	.LVL433
 7112 1bd8 1D030000 		.4byte	0x31d
 7113 1bdc ED1B0000 		.4byte	0x1bed
 7114 1be0 1B       		.uleb128 0x1b
 7115 1be1 01       		.uleb128 0x1
 7116 1be2 51       		.byte	0x51
 7117 1be3 02       		.uleb128 0x2
 7118 1be4 75       		.byte	0x75
 7119 1be5 00       		.sleb128 0
 7120 1be6 1B       		.uleb128 0x1b
 7121 1be7 01       		.uleb128 0x1
 7122 1be8 50       		.byte	0x50
 7123 1be9 02       		.uleb128 0x2
 7124 1bea 77       		.byte	0x77
 7125 1beb 00       		.sleb128 0
 7126 1bec 00       		.byte	0
 7127 1bed 1A       		.uleb128 0x1a
 7128 1bee EA000000 		.4byte	.LVL434
 7129 1bf2 1D030000 		.4byte	0x31d
 7130 1bf6 071C0000 		.4byte	0x1c07
 7131 1bfa 1B       		.uleb128 0x1b
 7132 1bfb 01       		.uleb128 0x1
 7133 1bfc 51       		.byte	0x51
 7134 1bfd 02       		.uleb128 0x2
 7135 1bfe 75       		.byte	0x75
 7136 1bff 00       		.sleb128 0
 7137 1c00 1B       		.uleb128 0x1b
 7138 1c01 01       		.uleb128 0x1
ARM GAS  C:\Users\Petro\AppData\Local\Temp\cchQWd3Z.s 			page 145


 7139 1c02 50       		.byte	0x50
 7140 1c03 02       		.uleb128 0x2
 7141 1c04 76       		.byte	0x76
 7142 1c05 00       		.sleb128 0
 7143 1c06 00       		.byte	0
 7144 1c07 1A       		.uleb128 0x1a
 7145 1c08 F8000000 		.4byte	.LVL435
 7146 1c0c 1D030000 		.4byte	0x31d
 7147 1c10 211C0000 		.4byte	0x1c21
 7148 1c14 1B       		.uleb128 0x1b
 7149 1c15 01       		.uleb128 0x1
 7150 1c16 51       		.byte	0x51
 7151 1c17 02       		.uleb128 0x2
 7152 1c18 75       		.byte	0x75
 7153 1c19 00       		.sleb128 0
 7154 1c1a 1B       		.uleb128 0x1b
 7155 1c1b 01       		.uleb128 0x1
 7156 1c1c 50       		.byte	0x50
 7157 1c1d 02       		.uleb128 0x2
 7158 1c1e 77       		.byte	0x77
 7159 1c1f 00       		.sleb128 0
 7160 1c20 00       		.byte	0
 7161 1c21 1C       		.uleb128 0x1c
 7162 1c22 00010000 		.4byte	.LVL436
 7163 1c26 1D030000 		.4byte	0x31d
 7164 1c2a 1B       		.uleb128 0x1b
 7165 1c2b 01       		.uleb128 0x1
 7166 1c2c 51       		.byte	0x51
 7167 1c2d 02       		.uleb128 0x2
 7168 1c2e 75       		.byte	0x75
 7169 1c2f 00       		.sleb128 0
 7170 1c30 1B       		.uleb128 0x1b
 7171 1c31 01       		.uleb128 0x1
 7172 1c32 50       		.byte	0x50
 7173 1c33 02       		.uleb128 0x2
 7174 1c34 76       		.byte	0x76
 7175 1c35 00       		.sleb128 0
 7176 1c36 00       		.byte	0
 7177 1c37 00       		.byte	0
 7178 1c38 26       		.uleb128 0x26
 7179 1c39 A6080000 		.4byte	.LASF133
 7180 1c3d 02       		.byte	0x2
 7181 1c3e 4203     		.2byte	0x342
 7182 1c40 00000000 		.4byte	.LFB95
 7183 1c44 70000000 		.4byte	.LFE95-.LFB95
 7184 1c48 01       		.uleb128 0x1
 7185 1c49 9C       		.byte	0x9c
 7186 1c4a 0A1D0000 		.4byte	0x1d0a
 7187 1c4e 27       		.uleb128 0x27
 7188 1c4f 7800     		.ascii	"x\000"
 7189 1c51 02       		.byte	0x2
 7190 1c52 4203     		.2byte	0x342
 7191 1c54 2C000000 		.4byte	0x2c
 7192 1c58 68170000 		.4byte	.LLST139
 7193 1c5c 27       		.uleb128 0x27
 7194 1c5d 7900     		.ascii	"y\000"
 7195 1c5f 02       		.byte	0x2
ARM GAS  C:\Users\Petro\AppData\Local\Temp\cchQWd3Z.s 			page 146


 7196 1c60 4203     		.2byte	0x342
 7197 1c62 2C000000 		.4byte	0x2c
 7198 1c66 87170000 		.4byte	.LLST140
 7199 1c6a 2F       		.uleb128 0x2f
 7200 1c6b 0F0A0000 		.4byte	.LASF134
 7201 1c6f 02       		.byte	0x2
 7202 1c70 4203     		.2byte	0x342
 7203 1c72 C1020000 		.4byte	0x2c1
 7204 1c76 B3170000 		.4byte	.LLST141
 7205 1c7a 27       		.uleb128 0x27
 7206 1c7b 737800   		.ascii	"sx\000"
 7207 1c7e 02       		.byte	0x2
 7208 1c7f 4203     		.2byte	0x342
 7209 1c81 2C000000 		.4byte	0x2c
 7210 1c85 D2170000 		.4byte	.LLST142
 7211 1c89 34       		.uleb128 0x34
 7212 1c8a 737900   		.ascii	"sy\000"
 7213 1c8d 02       		.byte	0x2
 7214 1c8e 4203     		.2byte	0x342
 7215 1c90 2C000000 		.4byte	0x2c
 7216 1c94 02       		.uleb128 0x2
 7217 1c95 91       		.byte	0x91
 7218 1c96 00       		.sleb128 0
 7219 1c97 2A       		.uleb128 0x2a
 7220 1c98 62697400 		.ascii	"bit\000"
 7221 1c9c 02       		.byte	0x2
 7222 1c9d 4403     		.2byte	0x344
 7223 1c9f 2C000000 		.4byte	0x2c
 7224 1ca3 FE170000 		.4byte	.LLST143
 7225 1ca7 29       		.uleb128 0x29
 7226 1ca8 32050000 		.4byte	.LASF93
 7227 1cac 02       		.byte	0x2
 7228 1cad 4503     		.2byte	0x345
 7229 1caf 8F000000 		.4byte	0x8f
 7230 1cb3 2C180000 		.4byte	.LLST144
 7231 1cb7 2A       		.uleb128 0x2a
 7232 1cb8 637900   		.ascii	"cy\000"
 7233 1cbb 02       		.byte	0x2
 7234 1cbc 4703     		.2byte	0x347
 7235 1cbe 2C000000 		.4byte	0x2c
 7236 1cc2 5C180000 		.4byte	.LLST145
 7237 1cc6 21       		.uleb128 0x21
 7238 1cc7 14000000 		.4byte	.LBB70
 7239 1ccb 4E000000 		.4byte	.LBE70-.LBB70
 7240 1ccf 2A       		.uleb128 0x2a
 7241 1cd0 637800   		.ascii	"cx\000"
 7242 1cd3 02       		.byte	0x2
 7243 1cd4 4B03     		.2byte	0x34b
 7244 1cd6 2C000000 		.4byte	0x2c
 7245 1cda 7B180000 		.4byte	.LLST146
 7246 1cde 1A       		.uleb128 0x1a
 7247 1cdf 58000000 		.4byte	.LVL443
 7248 1ce3 EA020000 		.4byte	0x2ea
 7249 1ce7 FF1C0000 		.4byte	0x1cff
 7250 1ceb 1B       		.uleb128 0x1b
 7251 1cec 01       		.uleb128 0x1
 7252 1ced 51       		.byte	0x51
ARM GAS  C:\Users\Petro\AppData\Local\Temp\cchQWd3Z.s 			page 147


 7253 1cee 05       		.uleb128 0x5
 7254 1cef 74       		.byte	0x74
 7255 1cf0 00       		.sleb128 0
 7256 1cf1 77       		.byte	0x77
 7257 1cf2 00       		.sleb128 0
 7258 1cf3 22       		.byte	0x22
 7259 1cf4 1B       		.uleb128 0x1b
 7260 1cf5 01       		.uleb128 0x1
 7261 1cf6 50       		.byte	0x50
 7262 1cf7 06       		.uleb128 0x6
 7263 1cf8 75       		.byte	0x75
 7264 1cf9 00       		.sleb128 0
 7265 1cfa 91       		.byte	0x91
 7266 1cfb 60       		.sleb128 -32
 7267 1cfc 06       		.byte	0x6
 7268 1cfd 22       		.byte	0x22
 7269 1cfe 00       		.byte	0
 7270 1cff 1D       		.uleb128 0x1d
 7271 1d00 5E000000 		.4byte	.LVL445
 7272 1d04 1D030000 		.4byte	0x31d
 7273 1d08 00       		.byte	0
 7274 1d09 00       		.byte	0
 7275 1d0a 35       		.uleb128 0x35
 7276 1d0b 8C010000 		.4byte	.LASF135
 7277 1d0f 07       		.byte	0x7
 7278 1d10 66       		.byte	0x66
 7279 1d11 C7020000 		.4byte	0x2c7
 7280 1d15 05       		.uleb128 0x5
 7281 1d16 03       		.byte	0x3
 7282 1d17 00000000 		.4byte	cfont
 7283 1d1b 08       		.uleb128 0x8
 7284 1d1c 8F000000 		.4byte	0x8f
 7285 1d20 2C1D0000 		.4byte	0x1d2c
 7286 1d24 36       		.uleb128 0x36
 7287 1d25 C3000000 		.4byte	0xc3
 7288 1d29 F701     		.2byte	0x1f7
 7289 1d2b 00       		.byte	0
 7290 1d2c 35       		.uleb128 0x35
 7291 1d2d 82070000 		.4byte	.LASF136
 7292 1d31 07       		.byte	0x7
 7293 1d32 67       		.byte	0x67
 7294 1d33 1B1D0000 		.4byte	0x1d1b
 7295 1d37 05       		.uleb128 0x5
 7296 1d38 03       		.byte	0x3
 7297 1d39 00000000 		.4byte	scrbuf
 7298 1d3d 35       		.uleb128 0x35
 7299 1d3e 37050000 		.4byte	.LASF137
 7300 1d42 07       		.byte	0x7
 7301 1d43 68       		.byte	0x68
 7302 1d44 5B090000 		.4byte	0x95b
 7303 1d48 05       		.uleb128 0x5
 7304 1d49 03       		.byte	0x3
 7305 1d4a 00000000 		.4byte	_sleep
 7306 1d4e 35       		.uleb128 0x35
 7307 1d4f 4D030000 		.4byte	.LASF138
 7308 1d53 07       		.byte	0x7
 7309 1d54 69       		.byte	0x69
ARM GAS  C:\Users\Petro\AppData\Local\Temp\cchQWd3Z.s 			page 148


 7310 1d55 2C000000 		.4byte	0x2c
 7311 1d59 05       		.uleb128 0x5
 7312 1d5a 03       		.byte	0x3
 7313 1d5b 00000000 		.4byte	_contrast
 7314 1d5f 37       		.uleb128 0x37
 7315 1d60 EA030000 		.4byte	.LASF148
 7316 1d64 0E       		.byte	0xe
 7317 1d65 DE       		.byte	0xde
 7318 1d66 2C000000 		.4byte	0x2c
 7319 1d6a 7A1D0000 		.4byte	0x1d7a
 7320 1d6e 38       		.uleb128 0x38
 7321 1d6f CA000000 		.4byte	0xca
 7322 1d73 38       		.uleb128 0x38
 7323 1d74 D0000000 		.4byte	0xd0
 7324 1d78 39       		.uleb128 0x39
 7325 1d79 00       		.byte	0
 7326 1d7a 3A       		.uleb128 0x3a
 7327 1d7b 68010000 		.4byte	.LASF139
 7328 1d7f 08       		.byte	0x8
 7329 1d80 33       		.byte	0x33
 7330 1d81 8B1D0000 		.4byte	0x1d8b
 7331 1d85 38       		.uleb128 0x38
 7332 1d86 A5000000 		.4byte	0xa5
 7333 1d8a 00       		.byte	0
 7334 1d8b 3A       		.uleb128 0x3a
 7335 1d8c AA070000 		.4byte	.LASF140
 7336 1d90 09       		.byte	0x9
 7337 1d91 33       		.byte	0x33
 7338 1d92 9C1D0000 		.4byte	0x1d9c
 7339 1d96 38       		.uleb128 0x38
 7340 1d97 A5000000 		.4byte	0xa5
 7341 1d9b 00       		.byte	0
 7342 1d9c 3A       		.uleb128 0x3a
 7343 1d9d 73050000 		.4byte	.LASF141
 7344 1da1 0A       		.byte	0xa
 7345 1da2 29       		.byte	0x29
 7346 1da3 AD1D0000 		.4byte	0x1dad
 7347 1da7 38       		.uleb128 0x38
 7348 1da8 A5000000 		.4byte	0xa5
 7349 1dac 00       		.byte	0
 7350 1dad 3A       		.uleb128 0x3a
 7351 1dae 5E010000 		.4byte	.LASF142
 7352 1db2 0B       		.byte	0xb
 7353 1db3 33       		.byte	0x33
 7354 1db4 BE1D0000 		.4byte	0x1dbe
 7355 1db8 38       		.uleb128 0x38
 7356 1db9 A5000000 		.4byte	0xa5
 7357 1dbd 00       		.byte	0
 7358 1dbe 3B       		.uleb128 0x3b
 7359 1dbf AB040000 		.4byte	.LASF143
 7360 1dc3 0C       		.byte	0xc
 7361 1dc4 21       		.byte	0x21
 7362 1dc5 B8000000 		.4byte	0xb8
 7363 1dc9 38       		.uleb128 0x38
 7364 1dca D0000000 		.4byte	0xd0
 7365 1dce 00       		.byte	0
 7366 1dcf 00       		.byte	0
ARM GAS  C:\Users\Petro\AppData\Local\Temp\cchQWd3Z.s 			page 149


 7367              		.section	.debug_abbrev,"",%progbits
 7368              	.Ldebug_abbrev0:
 7369 0000 01       		.uleb128 0x1
 7370 0001 11       		.uleb128 0x11
 7371 0002 01       		.byte	0x1
 7372 0003 25       		.uleb128 0x25
 7373 0004 0E       		.uleb128 0xe
 7374 0005 13       		.uleb128 0x13
 7375 0006 0B       		.uleb128 0xb
 7376 0007 03       		.uleb128 0x3
 7377 0008 0E       		.uleb128 0xe
 7378 0009 1B       		.uleb128 0x1b
 7379 000a 0E       		.uleb128 0xe
 7380 000b 55       		.uleb128 0x55
 7381 000c 17       		.uleb128 0x17
 7382 000d 11       		.uleb128 0x11
 7383 000e 01       		.uleb128 0x1
 7384 000f 10       		.uleb128 0x10
 7385 0010 17       		.uleb128 0x17
 7386 0011 00       		.byte	0
 7387 0012 00       		.byte	0
 7388 0013 02       		.uleb128 0x2
 7389 0014 24       		.uleb128 0x24
 7390 0015 00       		.byte	0
 7391 0016 0B       		.uleb128 0xb
 7392 0017 0B       		.uleb128 0xb
 7393 0018 3E       		.uleb128 0x3e
 7394 0019 0B       		.uleb128 0xb
 7395 001a 03       		.uleb128 0x3
 7396 001b 0E       		.uleb128 0xe
 7397 001c 00       		.byte	0
 7398 001d 00       		.byte	0
 7399 001e 03       		.uleb128 0x3
 7400 001f 24       		.uleb128 0x24
 7401 0020 00       		.byte	0
 7402 0021 0B       		.uleb128 0xb
 7403 0022 0B       		.uleb128 0xb
 7404 0023 3E       		.uleb128 0x3e
 7405 0024 0B       		.uleb128 0xb
 7406 0025 03       		.uleb128 0x3
 7407 0026 08       		.uleb128 0x8
 7408 0027 00       		.byte	0
 7409 0028 00       		.byte	0
 7410 0029 04       		.uleb128 0x4
 7411 002a 16       		.uleb128 0x16
 7412 002b 00       		.byte	0
 7413 002c 03       		.uleb128 0x3
 7414 002d 0E       		.uleb128 0xe
 7415 002e 3A       		.uleb128 0x3a
 7416 002f 0B       		.uleb128 0xb
 7417 0030 3B       		.uleb128 0x3b
 7418 0031 0B       		.uleb128 0xb
 7419 0032 49       		.uleb128 0x49
 7420 0033 13       		.uleb128 0x13
 7421 0034 00       		.byte	0
 7422 0035 00       		.byte	0
 7423 0036 05       		.uleb128 0x5
ARM GAS  C:\Users\Petro\AppData\Local\Temp\cchQWd3Z.s 			page 150


 7424 0037 16       		.uleb128 0x16
 7425 0038 00       		.byte	0
 7426 0039 03       		.uleb128 0x3
 7427 003a 0E       		.uleb128 0xe
 7428 003b 3A       		.uleb128 0x3a
 7429 003c 0B       		.uleb128 0xb
 7430 003d 3B       		.uleb128 0x3b
 7431 003e 05       		.uleb128 0x5
 7432 003f 49       		.uleb128 0x49
 7433 0040 13       		.uleb128 0x13
 7434 0041 00       		.byte	0
 7435 0042 00       		.byte	0
 7436 0043 06       		.uleb128 0x6
 7437 0044 0F       		.uleb128 0xf
 7438 0045 00       		.byte	0
 7439 0046 0B       		.uleb128 0xb
 7440 0047 0B       		.uleb128 0xb
 7441 0048 49       		.uleb128 0x49
 7442 0049 13       		.uleb128 0x13
 7443 004a 00       		.byte	0
 7444 004b 00       		.byte	0
 7445 004c 07       		.uleb128 0x7
 7446 004d 26       		.uleb128 0x26
 7447 004e 00       		.byte	0
 7448 004f 49       		.uleb128 0x49
 7449 0050 13       		.uleb128 0x13
 7450 0051 00       		.byte	0
 7451 0052 00       		.byte	0
 7452 0053 08       		.uleb128 0x8
 7453 0054 01       		.uleb128 0x1
 7454 0055 01       		.byte	0x1
 7455 0056 49       		.uleb128 0x49
 7456 0057 13       		.uleb128 0x13
 7457 0058 01       		.uleb128 0x1
 7458 0059 13       		.uleb128 0x13
 7459 005a 00       		.byte	0
 7460 005b 00       		.byte	0
 7461 005c 09       		.uleb128 0x9
 7462 005d 21       		.uleb128 0x21
 7463 005e 00       		.byte	0
 7464 005f 49       		.uleb128 0x49
 7465 0060 13       		.uleb128 0x13
 7466 0061 2F       		.uleb128 0x2f
 7467 0062 0B       		.uleb128 0xb
 7468 0063 00       		.byte	0
 7469 0064 00       		.byte	0
 7470 0065 0A       		.uleb128 0xa
 7471 0066 04       		.uleb128 0x4
 7472 0067 01       		.byte	0x1
 7473 0068 0B       		.uleb128 0xb
 7474 0069 0B       		.uleb128 0xb
 7475 006a 3A       		.uleb128 0x3a
 7476 006b 0B       		.uleb128 0xb
 7477 006c 3B       		.uleb128 0x3b
 7478 006d 0B       		.uleb128 0xb
 7479 006e 01       		.uleb128 0x1
 7480 006f 13       		.uleb128 0x13
ARM GAS  C:\Users\Petro\AppData\Local\Temp\cchQWd3Z.s 			page 151


 7481 0070 00       		.byte	0
 7482 0071 00       		.byte	0
 7483 0072 0B       		.uleb128 0xb
 7484 0073 28       		.uleb128 0x28
 7485 0074 00       		.byte	0
 7486 0075 03       		.uleb128 0x3
 7487 0076 0E       		.uleb128 0xe
 7488 0077 1C       		.uleb128 0x1c
 7489 0078 0D       		.uleb128 0xd
 7490 0079 00       		.byte	0
 7491 007a 00       		.byte	0
 7492 007b 0C       		.uleb128 0xc
 7493 007c 13       		.uleb128 0x13
 7494 007d 01       		.byte	0x1
 7495 007e 0B       		.uleb128 0xb
 7496 007f 0B       		.uleb128 0xb
 7497 0080 3A       		.uleb128 0x3a
 7498 0081 0B       		.uleb128 0xb
 7499 0082 3B       		.uleb128 0x3b
 7500 0083 0B       		.uleb128 0xb
 7501 0084 01       		.uleb128 0x1
 7502 0085 13       		.uleb128 0x13
 7503 0086 00       		.byte	0
 7504 0087 00       		.byte	0
 7505 0088 0D       		.uleb128 0xd
 7506 0089 0D       		.uleb128 0xd
 7507 008a 00       		.byte	0
 7508 008b 03       		.uleb128 0x3
 7509 008c 0E       		.uleb128 0xe
 7510 008d 3A       		.uleb128 0x3a
 7511 008e 0B       		.uleb128 0xb
 7512 008f 3B       		.uleb128 0x3b
 7513 0090 0B       		.uleb128 0xb
 7514 0091 49       		.uleb128 0x49
 7515 0092 13       		.uleb128 0x13
 7516 0093 38       		.uleb128 0x38
 7517 0094 0B       		.uleb128 0xb
 7518 0095 00       		.byte	0
 7519 0096 00       		.byte	0
 7520 0097 0E       		.uleb128 0xe
 7521 0098 2E       		.uleb128 0x2e
 7522 0099 01       		.byte	0x1
 7523 009a 3F       		.uleb128 0x3f
 7524 009b 19       		.uleb128 0x19
 7525 009c 03       		.uleb128 0x3
 7526 009d 0E       		.uleb128 0xe
 7527 009e 3A       		.uleb128 0x3a
 7528 009f 0B       		.uleb128 0xb
 7529 00a0 3B       		.uleb128 0x3b
 7530 00a1 0B       		.uleb128 0xb
 7531 00a2 20       		.uleb128 0x20
 7532 00a3 0B       		.uleb128 0xb
 7533 00a4 01       		.uleb128 0x1
 7534 00a5 13       		.uleb128 0x13
 7535 00a6 00       		.byte	0
 7536 00a7 00       		.byte	0
 7537 00a8 0F       		.uleb128 0xf
ARM GAS  C:\Users\Petro\AppData\Local\Temp\cchQWd3Z.s 			page 152


 7538 00a9 0B       		.uleb128 0xb
 7539 00aa 01       		.byte	0x1
 7540 00ab 00       		.byte	0
 7541 00ac 00       		.byte	0
 7542 00ad 10       		.uleb128 0x10
 7543 00ae 34       		.uleb128 0x34
 7544 00af 00       		.byte	0
 7545 00b0 03       		.uleb128 0x3
 7546 00b1 08       		.uleb128 0x8
 7547 00b2 3A       		.uleb128 0x3a
 7548 00b3 0B       		.uleb128 0xb
 7549 00b4 3B       		.uleb128 0x3b
 7550 00b5 0B       		.uleb128 0xb
 7551 00b6 49       		.uleb128 0x49
 7552 00b7 13       		.uleb128 0x13
 7553 00b8 00       		.byte	0
 7554 00b9 00       		.byte	0
 7555 00ba 11       		.uleb128 0x11
 7556 00bb 2E       		.uleb128 0x2e
 7557 00bc 01       		.byte	0x1
 7558 00bd 3F       		.uleb128 0x3f
 7559 00be 19       		.uleb128 0x19
 7560 00bf 03       		.uleb128 0x3
 7561 00c0 0E       		.uleb128 0xe
 7562 00c1 3A       		.uleb128 0x3a
 7563 00c2 0B       		.uleb128 0xb
 7564 00c3 3B       		.uleb128 0x3b
 7565 00c4 0B       		.uleb128 0xb
 7566 00c5 27       		.uleb128 0x27
 7567 00c6 19       		.uleb128 0x19
 7568 00c7 20       		.uleb128 0x20
 7569 00c8 0B       		.uleb128 0xb
 7570 00c9 01       		.uleb128 0x1
 7571 00ca 13       		.uleb128 0x13
 7572 00cb 00       		.byte	0
 7573 00cc 00       		.byte	0
 7574 00cd 12       		.uleb128 0x12
 7575 00ce 05       		.uleb128 0x5
 7576 00cf 00       		.byte	0
 7577 00d0 03       		.uleb128 0x3
 7578 00d1 08       		.uleb128 0x8
 7579 00d2 3A       		.uleb128 0x3a
 7580 00d3 0B       		.uleb128 0xb
 7581 00d4 3B       		.uleb128 0x3b
 7582 00d5 0B       		.uleb128 0xb
 7583 00d6 49       		.uleb128 0x49
 7584 00d7 13       		.uleb128 0x13
 7585 00d8 00       		.byte	0
 7586 00d9 00       		.byte	0
 7587 00da 13       		.uleb128 0x13
 7588 00db 2E       		.uleb128 0x2e
 7589 00dc 01       		.byte	0x1
 7590 00dd 3F       		.uleb128 0x3f
 7591 00de 19       		.uleb128 0x19
 7592 00df 03       		.uleb128 0x3
 7593 00e0 0E       		.uleb128 0xe
 7594 00e1 3A       		.uleb128 0x3a
ARM GAS  C:\Users\Petro\AppData\Local\Temp\cchQWd3Z.s 			page 153


 7595 00e2 0B       		.uleb128 0xb
 7596 00e3 3B       		.uleb128 0x3b
 7597 00e4 05       		.uleb128 0x5
 7598 00e5 27       		.uleb128 0x27
 7599 00e6 19       		.uleb128 0x19
 7600 00e7 20       		.uleb128 0x20
 7601 00e8 0B       		.uleb128 0xb
 7602 00e9 01       		.uleb128 0x1
 7603 00ea 13       		.uleb128 0x13
 7604 00eb 00       		.byte	0
 7605 00ec 00       		.byte	0
 7606 00ed 14       		.uleb128 0x14
 7607 00ee 05       		.uleb128 0x5
 7608 00ef 00       		.byte	0
 7609 00f0 03       		.uleb128 0x3
 7610 00f1 08       		.uleb128 0x8
 7611 00f2 3A       		.uleb128 0x3a
 7612 00f3 0B       		.uleb128 0xb
 7613 00f4 3B       		.uleb128 0x3b
 7614 00f5 05       		.uleb128 0x5
 7615 00f6 49       		.uleb128 0x49
 7616 00f7 13       		.uleb128 0x13
 7617 00f8 00       		.byte	0
 7618 00f9 00       		.byte	0
 7619 00fa 15       		.uleb128 0x15
 7620 00fb 34       		.uleb128 0x34
 7621 00fc 00       		.byte	0
 7622 00fd 03       		.uleb128 0x3
 7623 00fe 08       		.uleb128 0x8
 7624 00ff 3A       		.uleb128 0x3a
 7625 0100 0B       		.uleb128 0xb
 7626 0101 3B       		.uleb128 0x3b
 7627 0102 05       		.uleb128 0x5
 7628 0103 49       		.uleb128 0x49
 7629 0104 13       		.uleb128 0x13
 7630 0105 00       		.byte	0
 7631 0106 00       		.byte	0
 7632 0107 16       		.uleb128 0x16
 7633 0108 2E       		.uleb128 0x2e
 7634 0109 01       		.byte	0x1
 7635 010a 3F       		.uleb128 0x3f
 7636 010b 19       		.uleb128 0x19
 7637 010c 03       		.uleb128 0x3
 7638 010d 0E       		.uleb128 0xe
 7639 010e 3A       		.uleb128 0x3a
 7640 010f 0B       		.uleb128 0xb
 7641 0110 3B       		.uleb128 0x3b
 7642 0111 0B       		.uleb128 0xb
 7643 0112 27       		.uleb128 0x27
 7644 0113 19       		.uleb128 0x19
 7645 0114 11       		.uleb128 0x11
 7646 0115 01       		.uleb128 0x1
 7647 0116 12       		.uleb128 0x12
 7648 0117 06       		.uleb128 0x6
 7649 0118 40       		.uleb128 0x40
 7650 0119 18       		.uleb128 0x18
 7651 011a 9742     		.uleb128 0x2117
ARM GAS  C:\Users\Petro\AppData\Local\Temp\cchQWd3Z.s 			page 154


 7652 011c 19       		.uleb128 0x19
 7653 011d 01       		.uleb128 0x1
 7654 011e 13       		.uleb128 0x13
 7655 011f 00       		.byte	0
 7656 0120 00       		.byte	0
 7657 0121 17       		.uleb128 0x17
 7658 0122 05       		.uleb128 0x5
 7659 0123 00       		.byte	0
 7660 0124 03       		.uleb128 0x3
 7661 0125 08       		.uleb128 0x8
 7662 0126 3A       		.uleb128 0x3a
 7663 0127 0B       		.uleb128 0xb
 7664 0128 3B       		.uleb128 0x3b
 7665 0129 0B       		.uleb128 0xb
 7666 012a 49       		.uleb128 0x49
 7667 012b 13       		.uleb128 0x13
 7668 012c 02       		.uleb128 0x2
 7669 012d 17       		.uleb128 0x17
 7670 012e 00       		.byte	0
 7671 012f 00       		.byte	0
 7672 0130 18       		.uleb128 0x18
 7673 0131 05       		.uleb128 0x5
 7674 0132 00       		.byte	0
 7675 0133 03       		.uleb128 0x3
 7676 0134 0E       		.uleb128 0xe
 7677 0135 3A       		.uleb128 0x3a
 7678 0136 0B       		.uleb128 0xb
 7679 0137 3B       		.uleb128 0x3b
 7680 0138 0B       		.uleb128 0xb
 7681 0139 49       		.uleb128 0x49
 7682 013a 13       		.uleb128 0x13
 7683 013b 02       		.uleb128 0x2
 7684 013c 17       		.uleb128 0x17
 7685 013d 00       		.byte	0
 7686 013e 00       		.byte	0
 7687 013f 19       		.uleb128 0x19
 7688 0140 34       		.uleb128 0x34
 7689 0141 00       		.byte	0
 7690 0142 03       		.uleb128 0x3
 7691 0143 0E       		.uleb128 0xe
 7692 0144 3A       		.uleb128 0x3a
 7693 0145 0B       		.uleb128 0xb
 7694 0146 3B       		.uleb128 0x3b
 7695 0147 0B       		.uleb128 0xb
 7696 0148 49       		.uleb128 0x49
 7697 0149 13       		.uleb128 0x13
 7698 014a 02       		.uleb128 0x2
 7699 014b 18       		.uleb128 0x18
 7700 014c 00       		.byte	0
 7701 014d 00       		.byte	0
 7702 014e 1A       		.uleb128 0x1a
 7703 014f 898201   		.uleb128 0x4109
 7704 0152 01       		.byte	0x1
 7705 0153 11       		.uleb128 0x11
 7706 0154 01       		.uleb128 0x1
 7707 0155 31       		.uleb128 0x31
 7708 0156 13       		.uleb128 0x13
ARM GAS  C:\Users\Petro\AppData\Local\Temp\cchQWd3Z.s 			page 155


 7709 0157 01       		.uleb128 0x1
 7710 0158 13       		.uleb128 0x13
 7711 0159 00       		.byte	0
 7712 015a 00       		.byte	0
 7713 015b 1B       		.uleb128 0x1b
 7714 015c 8A8201   		.uleb128 0x410a
 7715 015f 00       		.byte	0
 7716 0160 02       		.uleb128 0x2
 7717 0161 18       		.uleb128 0x18
 7718 0162 9142     		.uleb128 0x2111
 7719 0164 18       		.uleb128 0x18
 7720 0165 00       		.byte	0
 7721 0166 00       		.byte	0
 7722 0167 1C       		.uleb128 0x1c
 7723 0168 898201   		.uleb128 0x4109
 7724 016b 01       		.byte	0x1
 7725 016c 11       		.uleb128 0x11
 7726 016d 01       		.uleb128 0x1
 7727 016e 31       		.uleb128 0x31
 7728 016f 13       		.uleb128 0x13
 7729 0170 00       		.byte	0
 7730 0171 00       		.byte	0
 7731 0172 1D       		.uleb128 0x1d
 7732 0173 898201   		.uleb128 0x4109
 7733 0176 00       		.byte	0
 7734 0177 11       		.uleb128 0x11
 7735 0178 01       		.uleb128 0x1
 7736 0179 31       		.uleb128 0x31
 7737 017a 13       		.uleb128 0x13
 7738 017b 00       		.byte	0
 7739 017c 00       		.byte	0
 7740 017d 1E       		.uleb128 0x1e
 7741 017e 2E       		.uleb128 0x2e
 7742 017f 01       		.byte	0x1
 7743 0180 3F       		.uleb128 0x3f
 7744 0181 19       		.uleb128 0x19
 7745 0182 03       		.uleb128 0x3
 7746 0183 0E       		.uleb128 0xe
 7747 0184 3A       		.uleb128 0x3a
 7748 0185 0B       		.uleb128 0xb
 7749 0186 3B       		.uleb128 0x3b
 7750 0187 0B       		.uleb128 0xb
 7751 0188 11       		.uleb128 0x11
 7752 0189 01       		.uleb128 0x1
 7753 018a 12       		.uleb128 0x12
 7754 018b 06       		.uleb128 0x6
 7755 018c 40       		.uleb128 0x40
 7756 018d 18       		.uleb128 0x18
 7757 018e 9742     		.uleb128 0x2117
 7758 0190 19       		.uleb128 0x19
 7759 0191 01       		.uleb128 0x1
 7760 0192 13       		.uleb128 0x13
 7761 0193 00       		.byte	0
 7762 0194 00       		.byte	0
 7763 0195 1F       		.uleb128 0x1f
 7764 0196 34       		.uleb128 0x34
 7765 0197 00       		.byte	0
ARM GAS  C:\Users\Petro\AppData\Local\Temp\cchQWd3Z.s 			page 156


 7766 0198 03       		.uleb128 0x3
 7767 0199 08       		.uleb128 0x8
 7768 019a 3A       		.uleb128 0x3a
 7769 019b 0B       		.uleb128 0xb
 7770 019c 3B       		.uleb128 0x3b
 7771 019d 0B       		.uleb128 0xb
 7772 019e 49       		.uleb128 0x49
 7773 019f 13       		.uleb128 0x13
 7774 01a0 02       		.uleb128 0x2
 7775 01a1 17       		.uleb128 0x17
 7776 01a2 00       		.byte	0
 7777 01a3 00       		.byte	0
 7778 01a4 20       		.uleb128 0x20
 7779 01a5 2E       		.uleb128 0x2e
 7780 01a6 01       		.byte	0x1
 7781 01a7 31       		.uleb128 0x31
 7782 01a8 13       		.uleb128 0x13
 7783 01a9 11       		.uleb128 0x11
 7784 01aa 01       		.uleb128 0x1
 7785 01ab 12       		.uleb128 0x12
 7786 01ac 06       		.uleb128 0x6
 7787 01ad 40       		.uleb128 0x40
 7788 01ae 18       		.uleb128 0x18
 7789 01af 9742     		.uleb128 0x2117
 7790 01b1 19       		.uleb128 0x19
 7791 01b2 01       		.uleb128 0x1
 7792 01b3 13       		.uleb128 0x13
 7793 01b4 00       		.byte	0
 7794 01b5 00       		.byte	0
 7795 01b6 21       		.uleb128 0x21
 7796 01b7 0B       		.uleb128 0xb
 7797 01b8 01       		.byte	0x1
 7798 01b9 11       		.uleb128 0x11
 7799 01ba 01       		.uleb128 0x1
 7800 01bb 12       		.uleb128 0x12
 7801 01bc 06       		.uleb128 0x6
 7802 01bd 00       		.byte	0
 7803 01be 00       		.byte	0
 7804 01bf 22       		.uleb128 0x22
 7805 01c0 34       		.uleb128 0x34
 7806 01c1 00       		.byte	0
 7807 01c2 31       		.uleb128 0x31
 7808 01c3 13       		.uleb128 0x13
 7809 01c4 02       		.uleb128 0x2
 7810 01c5 17       		.uleb128 0x17
 7811 01c6 00       		.byte	0
 7812 01c7 00       		.byte	0
 7813 01c8 23       		.uleb128 0x23
 7814 01c9 05       		.uleb128 0x5
 7815 01ca 00       		.byte	0
 7816 01cb 31       		.uleb128 0x31
 7817 01cc 13       		.uleb128 0x13
 7818 01cd 02       		.uleb128 0x2
 7819 01ce 17       		.uleb128 0x17
 7820 01cf 00       		.byte	0
 7821 01d0 00       		.byte	0
 7822 01d1 24       		.uleb128 0x24
ARM GAS  C:\Users\Petro\AppData\Local\Temp\cchQWd3Z.s 			page 157


 7823 01d2 34       		.uleb128 0x34
 7824 01d3 00       		.byte	0
 7825 01d4 31       		.uleb128 0x31
 7826 01d5 13       		.uleb128 0x13
 7827 01d6 00       		.byte	0
 7828 01d7 00       		.byte	0
 7829 01d8 25       		.uleb128 0x25
 7830 01d9 05       		.uleb128 0x5
 7831 01da 00       		.byte	0
 7832 01db 03       		.uleb128 0x3
 7833 01dc 0E       		.uleb128 0xe
 7834 01dd 3A       		.uleb128 0x3a
 7835 01de 0B       		.uleb128 0xb
 7836 01df 3B       		.uleb128 0x3b
 7837 01e0 0B       		.uleb128 0xb
 7838 01e1 49       		.uleb128 0x49
 7839 01e2 13       		.uleb128 0x13
 7840 01e3 02       		.uleb128 0x2
 7841 01e4 18       		.uleb128 0x18
 7842 01e5 00       		.byte	0
 7843 01e6 00       		.byte	0
 7844 01e7 26       		.uleb128 0x26
 7845 01e8 2E       		.uleb128 0x2e
 7846 01e9 01       		.byte	0x1
 7847 01ea 3F       		.uleb128 0x3f
 7848 01eb 19       		.uleb128 0x19
 7849 01ec 03       		.uleb128 0x3
 7850 01ed 0E       		.uleb128 0xe
 7851 01ee 3A       		.uleb128 0x3a
 7852 01ef 0B       		.uleb128 0xb
 7853 01f0 3B       		.uleb128 0x3b
 7854 01f1 05       		.uleb128 0x5
 7855 01f2 27       		.uleb128 0x27
 7856 01f3 19       		.uleb128 0x19
 7857 01f4 11       		.uleb128 0x11
 7858 01f5 01       		.uleb128 0x1
 7859 01f6 12       		.uleb128 0x12
 7860 01f7 06       		.uleb128 0x6
 7861 01f8 40       		.uleb128 0x40
 7862 01f9 18       		.uleb128 0x18
 7863 01fa 9742     		.uleb128 0x2117
 7864 01fc 19       		.uleb128 0x19
 7865 01fd 01       		.uleb128 0x1
 7866 01fe 13       		.uleb128 0x13
 7867 01ff 00       		.byte	0
 7868 0200 00       		.byte	0
 7869 0201 27       		.uleb128 0x27
 7870 0202 05       		.uleb128 0x5
 7871 0203 00       		.byte	0
 7872 0204 03       		.uleb128 0x3
 7873 0205 08       		.uleb128 0x8
 7874 0206 3A       		.uleb128 0x3a
 7875 0207 0B       		.uleb128 0xb
 7876 0208 3B       		.uleb128 0x3b
 7877 0209 05       		.uleb128 0x5
 7878 020a 49       		.uleb128 0x49
 7879 020b 13       		.uleb128 0x13
ARM GAS  C:\Users\Petro\AppData\Local\Temp\cchQWd3Z.s 			page 158


 7880 020c 02       		.uleb128 0x2
 7881 020d 17       		.uleb128 0x17
 7882 020e 00       		.byte	0
 7883 020f 00       		.byte	0
 7884 0210 28       		.uleb128 0x28
 7885 0211 0B       		.uleb128 0xb
 7886 0212 01       		.byte	0x1
 7887 0213 11       		.uleb128 0x11
 7888 0214 01       		.uleb128 0x1
 7889 0215 12       		.uleb128 0x12
 7890 0216 06       		.uleb128 0x6
 7891 0217 01       		.uleb128 0x1
 7892 0218 13       		.uleb128 0x13
 7893 0219 00       		.byte	0
 7894 021a 00       		.byte	0
 7895 021b 29       		.uleb128 0x29
 7896 021c 34       		.uleb128 0x34
 7897 021d 00       		.byte	0
 7898 021e 03       		.uleb128 0x3
 7899 021f 0E       		.uleb128 0xe
 7900 0220 3A       		.uleb128 0x3a
 7901 0221 0B       		.uleb128 0xb
 7902 0222 3B       		.uleb128 0x3b
 7903 0223 05       		.uleb128 0x5
 7904 0224 49       		.uleb128 0x49
 7905 0225 13       		.uleb128 0x13
 7906 0226 02       		.uleb128 0x2
 7907 0227 17       		.uleb128 0x17
 7908 0228 00       		.byte	0
 7909 0229 00       		.byte	0
 7910 022a 2A       		.uleb128 0x2a
 7911 022b 34       		.uleb128 0x34
 7912 022c 00       		.byte	0
 7913 022d 03       		.uleb128 0x3
 7914 022e 08       		.uleb128 0x8
 7915 022f 3A       		.uleb128 0x3a
 7916 0230 0B       		.uleb128 0xb
 7917 0231 3B       		.uleb128 0x3b
 7918 0232 05       		.uleb128 0x5
 7919 0233 49       		.uleb128 0x49
 7920 0234 13       		.uleb128 0x13
 7921 0235 02       		.uleb128 0x2
 7922 0236 17       		.uleb128 0x17
 7923 0237 00       		.byte	0
 7924 0238 00       		.byte	0
 7925 0239 2B       		.uleb128 0x2b
 7926 023a 2E       		.uleb128 0x2e
 7927 023b 01       		.byte	0x1
 7928 023c 3F       		.uleb128 0x3f
 7929 023d 19       		.uleb128 0x19
 7930 023e 03       		.uleb128 0x3
 7931 023f 0E       		.uleb128 0xe
 7932 0240 3A       		.uleb128 0x3a
 7933 0241 0B       		.uleb128 0xb
 7934 0242 3B       		.uleb128 0x3b
 7935 0243 0B       		.uleb128 0xb
 7936 0244 27       		.uleb128 0x27
ARM GAS  C:\Users\Petro\AppData\Local\Temp\cchQWd3Z.s 			page 159


 7937 0245 19       		.uleb128 0x19
 7938 0246 11       		.uleb128 0x11
 7939 0247 01       		.uleb128 0x1
 7940 0248 12       		.uleb128 0x12
 7941 0249 06       		.uleb128 0x6
 7942 024a 40       		.uleb128 0x40
 7943 024b 18       		.uleb128 0x18
 7944 024c 9642     		.uleb128 0x2116
 7945 024e 19       		.uleb128 0x19
 7946 024f 01       		.uleb128 0x1
 7947 0250 13       		.uleb128 0x13
 7948 0251 00       		.byte	0
 7949 0252 00       		.byte	0
 7950 0253 2C       		.uleb128 0x2c
 7951 0254 34       		.uleb128 0x34
 7952 0255 00       		.byte	0
 7953 0256 03       		.uleb128 0x3
 7954 0257 08       		.uleb128 0x8
 7955 0258 3A       		.uleb128 0x3a
 7956 0259 0B       		.uleb128 0xb
 7957 025a 3B       		.uleb128 0x3b
 7958 025b 0B       		.uleb128 0xb
 7959 025c 49       		.uleb128 0x49
 7960 025d 13       		.uleb128 0x13
 7961 025e 02       		.uleb128 0x2
 7962 025f 18       		.uleb128 0x18
 7963 0260 00       		.byte	0
 7964 0261 00       		.byte	0
 7965 0262 2D       		.uleb128 0x2d
 7966 0263 0B       		.uleb128 0xb
 7967 0264 01       		.byte	0x1
 7968 0265 55       		.uleb128 0x55
 7969 0266 17       		.uleb128 0x17
 7970 0267 01       		.uleb128 0x1
 7971 0268 13       		.uleb128 0x13
 7972 0269 00       		.byte	0
 7973 026a 00       		.byte	0
 7974 026b 2E       		.uleb128 0x2e
 7975 026c 2E       		.uleb128 0x2e
 7976 026d 01       		.byte	0x1
 7977 026e 3F       		.uleb128 0x3f
 7978 026f 19       		.uleb128 0x19
 7979 0270 03       		.uleb128 0x3
 7980 0271 0E       		.uleb128 0xe
 7981 0272 3A       		.uleb128 0x3a
 7982 0273 0B       		.uleb128 0xb
 7983 0274 3B       		.uleb128 0x3b
 7984 0275 05       		.uleb128 0x5
 7985 0276 27       		.uleb128 0x27
 7986 0277 19       		.uleb128 0x19
 7987 0278 11       		.uleb128 0x11
 7988 0279 01       		.uleb128 0x1
 7989 027a 12       		.uleb128 0x12
 7990 027b 06       		.uleb128 0x6
 7991 027c 40       		.uleb128 0x40
 7992 027d 18       		.uleb128 0x18
 7993 027e 9642     		.uleb128 0x2116
ARM GAS  C:\Users\Petro\AppData\Local\Temp\cchQWd3Z.s 			page 160


 7994 0280 19       		.uleb128 0x19
 7995 0281 01       		.uleb128 0x1
 7996 0282 13       		.uleb128 0x13
 7997 0283 00       		.byte	0
 7998 0284 00       		.byte	0
 7999 0285 2F       		.uleb128 0x2f
 8000 0286 05       		.uleb128 0x5
 8001 0287 00       		.byte	0
 8002 0288 03       		.uleb128 0x3
 8003 0289 0E       		.uleb128 0xe
 8004 028a 3A       		.uleb128 0x3a
 8005 028b 0B       		.uleb128 0xb
 8006 028c 3B       		.uleb128 0x3b
 8007 028d 05       		.uleb128 0x5
 8008 028e 49       		.uleb128 0x49
 8009 028f 13       		.uleb128 0x13
 8010 0290 02       		.uleb128 0x2
 8011 0291 17       		.uleb128 0x17
 8012 0292 00       		.byte	0
 8013 0293 00       		.byte	0
 8014 0294 30       		.uleb128 0x30
 8015 0295 34       		.uleb128 0x34
 8016 0296 00       		.byte	0
 8017 0297 03       		.uleb128 0x3
 8018 0298 08       		.uleb128 0x8
 8019 0299 3A       		.uleb128 0x3a
 8020 029a 0B       		.uleb128 0xb
 8021 029b 3B       		.uleb128 0x3b
 8022 029c 05       		.uleb128 0x5
 8023 029d 49       		.uleb128 0x49
 8024 029e 13       		.uleb128 0x13
 8025 029f 02       		.uleb128 0x2
 8026 02a0 18       		.uleb128 0x18
 8027 02a1 00       		.byte	0
 8028 02a2 00       		.byte	0
 8029 02a3 31       		.uleb128 0x31
 8030 02a4 05       		.uleb128 0x5
 8031 02a5 00       		.byte	0
 8032 02a6 03       		.uleb128 0x3
 8033 02a7 0E       		.uleb128 0xe
 8034 02a8 3A       		.uleb128 0x3a
 8035 02a9 0B       		.uleb128 0xb
 8036 02aa 3B       		.uleb128 0x3b
 8037 02ab 05       		.uleb128 0x5
 8038 02ac 49       		.uleb128 0x49
 8039 02ad 13       		.uleb128 0x13
 8040 02ae 02       		.uleb128 0x2
 8041 02af 18       		.uleb128 0x18
 8042 02b0 00       		.byte	0
 8043 02b1 00       		.byte	0
 8044 02b2 32       		.uleb128 0x32
 8045 02b3 05       		.uleb128 0x5
 8046 02b4 00       		.byte	0
 8047 02b5 31       		.uleb128 0x31
 8048 02b6 13       		.uleb128 0x13
 8049 02b7 02       		.uleb128 0x2
 8050 02b8 18       		.uleb128 0x18
ARM GAS  C:\Users\Petro\AppData\Local\Temp\cchQWd3Z.s 			page 161


 8051 02b9 00       		.byte	0
 8052 02ba 00       		.byte	0
 8053 02bb 33       		.uleb128 0x33
 8054 02bc 05       		.uleb128 0x5
 8055 02bd 00       		.byte	0
 8056 02be 31       		.uleb128 0x31
 8057 02bf 13       		.uleb128 0x13
 8058 02c0 00       		.byte	0
 8059 02c1 00       		.byte	0
 8060 02c2 34       		.uleb128 0x34
 8061 02c3 05       		.uleb128 0x5
 8062 02c4 00       		.byte	0
 8063 02c5 03       		.uleb128 0x3
 8064 02c6 08       		.uleb128 0x8
 8065 02c7 3A       		.uleb128 0x3a
 8066 02c8 0B       		.uleb128 0xb
 8067 02c9 3B       		.uleb128 0x3b
 8068 02ca 05       		.uleb128 0x5
 8069 02cb 49       		.uleb128 0x49
 8070 02cc 13       		.uleb128 0x13
 8071 02cd 02       		.uleb128 0x2
 8072 02ce 18       		.uleb128 0x18
 8073 02cf 00       		.byte	0
 8074 02d0 00       		.byte	0
 8075 02d1 35       		.uleb128 0x35
 8076 02d2 34       		.uleb128 0x34
 8077 02d3 00       		.byte	0
 8078 02d4 03       		.uleb128 0x3
 8079 02d5 0E       		.uleb128 0xe
 8080 02d6 3A       		.uleb128 0x3a
 8081 02d7 0B       		.uleb128 0xb
 8082 02d8 3B       		.uleb128 0x3b
 8083 02d9 0B       		.uleb128 0xb
 8084 02da 49       		.uleb128 0x49
 8085 02db 13       		.uleb128 0x13
 8086 02dc 3F       		.uleb128 0x3f
 8087 02dd 19       		.uleb128 0x19
 8088 02de 02       		.uleb128 0x2
 8089 02df 18       		.uleb128 0x18
 8090 02e0 00       		.byte	0
 8091 02e1 00       		.byte	0
 8092 02e2 36       		.uleb128 0x36
 8093 02e3 21       		.uleb128 0x21
 8094 02e4 00       		.byte	0
 8095 02e5 49       		.uleb128 0x49
 8096 02e6 13       		.uleb128 0x13
 8097 02e7 2F       		.uleb128 0x2f
 8098 02e8 05       		.uleb128 0x5
 8099 02e9 00       		.byte	0
 8100 02ea 00       		.byte	0
 8101 02eb 37       		.uleb128 0x37
 8102 02ec 2E       		.uleb128 0x2e
 8103 02ed 01       		.byte	0x1
 8104 02ee 3F       		.uleb128 0x3f
 8105 02ef 19       		.uleb128 0x19
 8106 02f0 03       		.uleb128 0x3
 8107 02f1 0E       		.uleb128 0xe
ARM GAS  C:\Users\Petro\AppData\Local\Temp\cchQWd3Z.s 			page 162


 8108 02f2 3A       		.uleb128 0x3a
 8109 02f3 0B       		.uleb128 0xb
 8110 02f4 3B       		.uleb128 0x3b
 8111 02f5 0B       		.uleb128 0xb
 8112 02f6 27       		.uleb128 0x27
 8113 02f7 19       		.uleb128 0x19
 8114 02f8 49       		.uleb128 0x49
 8115 02f9 13       		.uleb128 0x13
 8116 02fa 3C       		.uleb128 0x3c
 8117 02fb 19       		.uleb128 0x19
 8118 02fc 01       		.uleb128 0x1
 8119 02fd 13       		.uleb128 0x13
 8120 02fe 00       		.byte	0
 8121 02ff 00       		.byte	0
 8122 0300 38       		.uleb128 0x38
 8123 0301 05       		.uleb128 0x5
 8124 0302 00       		.byte	0
 8125 0303 49       		.uleb128 0x49
 8126 0304 13       		.uleb128 0x13
 8127 0305 00       		.byte	0
 8128 0306 00       		.byte	0
 8129 0307 39       		.uleb128 0x39
 8130 0308 18       		.uleb128 0x18
 8131 0309 00       		.byte	0
 8132 030a 00       		.byte	0
 8133 030b 00       		.byte	0
 8134 030c 3A       		.uleb128 0x3a
 8135 030d 2E       		.uleb128 0x2e
 8136 030e 01       		.byte	0x1
 8137 030f 3F       		.uleb128 0x3f
 8138 0310 19       		.uleb128 0x19
 8139 0311 03       		.uleb128 0x3
 8140 0312 0E       		.uleb128 0xe
 8141 0313 3A       		.uleb128 0x3a
 8142 0314 0B       		.uleb128 0xb
 8143 0315 3B       		.uleb128 0x3b
 8144 0316 0B       		.uleb128 0xb
 8145 0317 27       		.uleb128 0x27
 8146 0318 19       		.uleb128 0x19
 8147 0319 3C       		.uleb128 0x3c
 8148 031a 19       		.uleb128 0x19
 8149 031b 01       		.uleb128 0x1
 8150 031c 13       		.uleb128 0x13
 8151 031d 00       		.byte	0
 8152 031e 00       		.byte	0
 8153 031f 3B       		.uleb128 0x3b
 8154 0320 2E       		.uleb128 0x2e
 8155 0321 01       		.byte	0x1
 8156 0322 3F       		.uleb128 0x3f
 8157 0323 19       		.uleb128 0x19
 8158 0324 03       		.uleb128 0x3
 8159 0325 0E       		.uleb128 0xe
 8160 0326 3A       		.uleb128 0x3a
 8161 0327 0B       		.uleb128 0xb
 8162 0328 3B       		.uleb128 0x3b
 8163 0329 0B       		.uleb128 0xb
 8164 032a 27       		.uleb128 0x27
ARM GAS  C:\Users\Petro\AppData\Local\Temp\cchQWd3Z.s 			page 163


 8165 032b 19       		.uleb128 0x19
 8166 032c 49       		.uleb128 0x49
 8167 032d 13       		.uleb128 0x13
 8168 032e 3C       		.uleb128 0x3c
 8169 032f 19       		.uleb128 0x19
 8170 0330 00       		.byte	0
 8171 0331 00       		.byte	0
 8172 0332 00       		.byte	0
 8173              		.section	.debug_loc,"",%progbits
 8174              	.Ldebug_loc0:
 8175              	.LLST0:
 8176 0000 00000000 		.4byte	.LVL0
 8177 0004 0E000000 		.4byte	.LVL3
 8178 0008 0100     		.2byte	0x1
 8179 000a 50       		.byte	0x50
 8180 000b 0E000000 		.4byte	.LVL3
 8181 000f 22000000 		.4byte	.LVL7
 8182 0013 0100     		.2byte	0x1
 8183 0015 56       		.byte	0x56
 8184 0016 22000000 		.4byte	.LVL7
 8185 001a 28000000 		.4byte	.LFE63
 8186 001e 0400     		.2byte	0x4
 8187 0020 F3       		.byte	0xf3
 8188 0021 01       		.uleb128 0x1
 8189 0022 50       		.byte	0x50
 8190 0023 9F       		.byte	0x9f
 8191 0024 00000000 		.4byte	0
 8192 0028 00000000 		.4byte	0
 8193              	.LLST1:
 8194 002c 00000000 		.4byte	.LVL0
 8195 0030 0C000000 		.4byte	.LVL2
 8196 0034 0600     		.2byte	0x6
 8197 0036 52       		.byte	0x52
 8198 0037 93       		.byte	0x93
 8199 0038 04       		.uleb128 0x4
 8200 0039 53       		.byte	0x53
 8201 003a 93       		.byte	0x93
 8202 003b 04       		.uleb128 0x4
 8203 003c 0C000000 		.4byte	.LVL2
 8204 0040 28000000 		.4byte	.LFE63
 8205 0044 0600     		.2byte	0x6
 8206 0046 F3       		.byte	0xf3
 8207 0047 03       		.uleb128 0x3
 8208 0048 F5       		.byte	0xf5
 8209 0049 02       		.uleb128 0x2
 8210 004a 25       		.uleb128 0x25
 8211 004b 9F       		.byte	0x9f
 8212 004c 00000000 		.4byte	0
 8213 0050 00000000 		.4byte	0
 8214              	.LLST2:
 8215 0054 00000000 		.4byte	.LVL0
 8216 0058 0A000000 		.4byte	.LVL1
 8217 005c 0200     		.2byte	0x2
 8218 005e 91       		.byte	0x91
 8219 005f 00       		.sleb128 0
 8220 0060 0A000000 		.4byte	.LVL1
 8221 0064 0C000000 		.4byte	.LVL2
ARM GAS  C:\Users\Petro\AppData\Local\Temp\cchQWd3Z.s 			page 164


 8222 0068 0200     		.2byte	0x2
 8223 006a 73       		.byte	0x73
 8224 006b 00       		.sleb128 0
 8225 006c 0C000000 		.4byte	.LVL2
 8226 0070 10000000 		.4byte	.LVL4
 8227 0074 0200     		.2byte	0x2
 8228 0076 73       		.byte	0x73
 8229 0077 7C       		.sleb128 -4
 8230 0078 10000000 		.4byte	.LVL4
 8231 007c 28000000 		.4byte	.LFE63
 8232 0080 0200     		.2byte	0x2
 8233 0082 91       		.byte	0x91
 8234 0083 00       		.sleb128 0
 8235 0084 00000000 		.4byte	0
 8236 0088 00000000 		.4byte	0
 8237              	.LLST3:
 8238 008c 00000000 		.4byte	.LVL0
 8239 0090 0A000000 		.4byte	.LVL1
 8240 0094 0200     		.2byte	0x2
 8241 0096 91       		.byte	0x91
 8242 0097 04       		.sleb128 4
 8243 0098 0A000000 		.4byte	.LVL1
 8244 009c 0C000000 		.4byte	.LVL2
 8245 00a0 0200     		.2byte	0x2
 8246 00a2 73       		.byte	0x73
 8247 00a3 04       		.sleb128 4
 8248 00a4 0C000000 		.4byte	.LVL2
 8249 00a8 10000000 		.4byte	.LVL4
 8250 00ac 0200     		.2byte	0x2
 8251 00ae 73       		.byte	0x73
 8252 00af 00       		.sleb128 0
 8253 00b0 10000000 		.4byte	.LVL4
 8254 00b4 28000000 		.4byte	.LFE63
 8255 00b8 0200     		.2byte	0x2
 8256 00ba 91       		.byte	0x91
 8257 00bb 04       		.sleb128 4
 8258 00bc 00000000 		.4byte	0
 8259 00c0 00000000 		.4byte	0
 8260              	.LLST4:
 8261 00c4 00000000 		.4byte	.LVL8
 8262 00c8 06000000 		.4byte	.LVL9
 8263 00cc 0100     		.2byte	0x1
 8264 00ce 50       		.byte	0x50
 8265 00cf 06000000 		.4byte	.LVL9
 8266 00d3 22000000 		.4byte	.LFE64
 8267 00d7 0400     		.2byte	0x4
 8268 00d9 F3       		.byte	0xf3
 8269 00da 01       		.uleb128 0x1
 8270 00db 50       		.byte	0x50
 8271 00dc 9F       		.byte	0x9f
 8272 00dd 00000000 		.4byte	0
 8273 00e1 00000000 		.4byte	0
 8274              	.LLST5:
 8275 00e5 00000000 		.4byte	.LVL8
 8276 00e9 0D000000 		.4byte	.LVL10-1
 8277 00ed 0100     		.2byte	0x1
 8278 00ef 51       		.byte	0x51
ARM GAS  C:\Users\Petro\AppData\Local\Temp\cchQWd3Z.s 			page 165


 8279 00f0 0D000000 		.4byte	.LVL10-1
 8280 00f4 22000000 		.4byte	.LFE64
 8281 00f8 0400     		.2byte	0x4
 8282 00fa F3       		.byte	0xf3
 8283 00fb 01       		.uleb128 0x1
 8284 00fc 51       		.byte	0x51
 8285 00fd 9F       		.byte	0x9f
 8286 00fe 00000000 		.4byte	0
 8287 0102 00000000 		.4byte	0
 8288              	.LLST6:
 8289 0106 00000000 		.4byte	.LVL14
 8290 010a 12000000 		.4byte	.LVL15
 8291 010e 0100     		.2byte	0x1
 8292 0110 50       		.byte	0x50
 8293 0111 12000000 		.4byte	.LVL15
 8294 0115 34000000 		.4byte	.LVL19
 8295 0119 0100     		.2byte	0x1
 8296 011b 54       		.byte	0x54
 8297 011c 34000000 		.4byte	.LVL19
 8298 0120 3C000000 		.4byte	.LFE66
 8299 0124 0500     		.2byte	0x5
 8300 0126 03       		.byte	0x3
 8301 0127 00000000 		.4byte	_contrast
 8302 012b 00000000 		.4byte	0
 8303 012f 00000000 		.4byte	0
 8304              	.LLST7:
 8305 0133 1A000000 		.4byte	.LVL21
 8306 0137 1C000000 		.4byte	.LVL22
 8307 013b 0200     		.2byte	0x2
 8308 013d 30       		.byte	0x30
 8309 013e 9F       		.byte	0x9f
 8310 013f 1C000000 		.4byte	.LVL22
 8311 0143 22000000 		.4byte	.LVL23
 8312 0147 0700     		.2byte	0x7
 8313 0149 0A       		.byte	0xa
 8314 014a F801     		.2byte	0x1f8
 8315 014c 74       		.byte	0x74
 8316 014d 00       		.sleb128 0
 8317 014e 1C       		.byte	0x1c
 8318 014f 9F       		.byte	0x9f
 8319 0150 22000000 		.4byte	.LVL23
 8320 0154 26000000 		.4byte	.LVL24
 8321 0158 0700     		.2byte	0x7
 8322 015a 0A       		.byte	0xa
 8323 015b F701     		.2byte	0x1f7
 8324 015d 74       		.byte	0x74
 8325 015e 00       		.sleb128 0
 8326 015f 1C       		.byte	0x1c
 8327 0160 9F       		.byte	0x9f
 8328 0161 00000000 		.4byte	0
 8329 0165 00000000 		.4byte	0
 8330              	.LLST8:
 8331 0169 1A000000 		.4byte	.LVL27
 8332 016d 2E000000 		.4byte	.LVL30
 8333 0171 0100     		.2byte	0x1
 8334 0173 54       		.byte	0x54
 8335 0174 00000000 		.4byte	0
ARM GAS  C:\Users\Petro\AppData\Local\Temp\cchQWd3Z.s 			page 166


 8336 0178 00000000 		.4byte	0
 8337              	.LLST9:
 8338 017c 00000000 		.4byte	.LVL38
 8339 0180 02000000 		.4byte	.LVL39
 8340 0184 0200     		.2byte	0x2
 8341 0186 30       		.byte	0x30
 8342 0187 9F       		.byte	0x9f
 8343 0188 02000000 		.4byte	.LVL39
 8344 018c 1C000000 		.4byte	.LFE70
 8345 0190 0100     		.2byte	0x1
 8346 0192 53       		.byte	0x53
 8347 0193 00000000 		.4byte	0
 8348 0197 00000000 		.4byte	0
 8349              	.LLST10:
 8350 019b 00000000 		.4byte	.LVL41
 8351 019f 12000000 		.4byte	.LVL42
 8352 01a3 0100     		.2byte	0x1
 8353 01a5 50       		.byte	0x50
 8354 01a6 12000000 		.4byte	.LVL42
 8355 01aa 7A000000 		.4byte	.LVL55
 8356 01ae 0100     		.2byte	0x1
 8357 01b0 54       		.byte	0x54
 8358 01b1 7A000000 		.4byte	.LVL55
 8359 01b5 88000000 		.4byte	.LFE65
 8360 01b9 0500     		.2byte	0x5
 8361 01bb 03       		.byte	0x3
 8362 01bc 00000000 		.4byte	_contrast
 8363 01c0 00000000 		.4byte	0
 8364 01c4 00000000 		.4byte	0
 8365              	.LLST11:
 8366 01c8 00000000 		.4byte	.LVL56
 8367 01cc 02000000 		.4byte	.LVL57
 8368 01d0 0200     		.2byte	0x2
 8369 01d2 30       		.byte	0x30
 8370 01d3 9F       		.byte	0x9f
 8371 01d4 02000000 		.4byte	.LVL57
 8372 01d8 18000000 		.4byte	.LFE71
 8373 01dc 0100     		.2byte	0x1
 8374 01de 53       		.byte	0x53
 8375 01df 00000000 		.4byte	0
 8376 01e3 00000000 		.4byte	0
 8377              	.LLST12:
 8378 01e7 00000000 		.4byte	.LVL59
 8379 01eb 06000000 		.4byte	.LVL60
 8380 01ef 0100     		.2byte	0x1
 8381 01f1 50       		.byte	0x50
 8382 01f2 06000000 		.4byte	.LVL60
 8383 01f6 14000000 		.4byte	.LFE72
 8384 01fa 0400     		.2byte	0x4
 8385 01fc F3       		.byte	0xf3
 8386 01fd 01       		.uleb128 0x1
 8387 01fe 50       		.byte	0x50
 8388 01ff 9F       		.byte	0x9f
 8389 0200 00000000 		.4byte	0
 8390 0204 00000000 		.4byte	0
 8391              	.LLST13:
 8392 0208 00000000 		.4byte	.LVL62
ARM GAS  C:\Users\Petro\AppData\Local\Temp\cchQWd3Z.s 			page 167


 8393 020c 10000000 		.4byte	.LVL64
 8394 0210 0100     		.2byte	0x1
 8395 0212 50       		.byte	0x50
 8396 0213 10000000 		.4byte	.LVL64
 8397 0217 28000000 		.4byte	.LFE73
 8398 021b 0400     		.2byte	0x4
 8399 021d F3       		.byte	0xf3
 8400 021e 01       		.uleb128 0x1
 8401 021f 50       		.byte	0x50
 8402 0220 9F       		.byte	0x9f
 8403 0221 00000000 		.4byte	0
 8404 0225 00000000 		.4byte	0
 8405              	.LLST14:
 8406 0229 00000000 		.4byte	.LVL62
 8407 022d 14000000 		.4byte	.LVL65
 8408 0231 0100     		.2byte	0x1
 8409 0233 51       		.byte	0x51
 8410 0234 14000000 		.4byte	.LVL65
 8411 0238 28000000 		.4byte	.LFE73
 8412 023c 0400     		.2byte	0x4
 8413 023e F3       		.byte	0xf3
 8414 023f 01       		.uleb128 0x1
 8415 0240 51       		.byte	0x51
 8416 0241 9F       		.byte	0x9f
 8417 0242 00000000 		.4byte	0
 8418 0246 00000000 		.4byte	0
 8419              	.LLST15:
 8420 024a 08000000 		.4byte	.LVL63
 8421 024e 14000000 		.4byte	.LVL65
 8422 0252 0100     		.2byte	0x1
 8423 0254 51       		.byte	0x51
 8424 0255 14000000 		.4byte	.LVL65
 8425 0259 22000000 		.4byte	.LVL66
 8426 025d 0400     		.2byte	0x4
 8427 025f F3       		.byte	0xf3
 8428 0260 01       		.uleb128 0x1
 8429 0261 51       		.byte	0x51
 8430 0262 9F       		.byte	0x9f
 8431 0263 00000000 		.4byte	0
 8432 0267 00000000 		.4byte	0
 8433              	.LLST16:
 8434 026b 08000000 		.4byte	.LVL63
 8435 026f 10000000 		.4byte	.LVL64
 8436 0273 0100     		.2byte	0x1
 8437 0275 50       		.byte	0x50
 8438 0276 10000000 		.4byte	.LVL64
 8439 027a 22000000 		.4byte	.LVL66
 8440 027e 0400     		.2byte	0x4
 8441 0280 F3       		.byte	0xf3
 8442 0281 01       		.uleb128 0x1
 8443 0282 50       		.byte	0x50
 8444 0283 9F       		.byte	0x9f
 8445 0284 00000000 		.4byte	0
 8446 0288 00000000 		.4byte	0
 8447              	.LLST17:
 8448 028c 10000000 		.4byte	.LVL64
 8449 0290 22000000 		.4byte	.LVL66
ARM GAS  C:\Users\Petro\AppData\Local\Temp\cchQWd3Z.s 			page 168


 8450 0294 0100     		.2byte	0x1
 8451 0296 50       		.byte	0x50
 8452 0297 00000000 		.4byte	0
 8453 029b 00000000 		.4byte	0
 8454              	.LLST18:
 8455 029f 10000000 		.4byte	.LVL64
 8456 02a3 14000000 		.4byte	.LVL65
 8457 02a7 0900     		.2byte	0x9
 8458 02a9 71       		.byte	0x71
 8459 02aa 00       		.sleb128 0
 8460 02ab 37       		.byte	0x37
 8461 02ac 1A       		.byte	0x1a
 8462 02ad 0A       		.byte	0xa
 8463 02ae FFFF     		.2byte	0xffff
 8464 02b0 1A       		.byte	0x1a
 8465 02b1 9F       		.byte	0x9f
 8466 02b2 14000000 		.4byte	.LVL65
 8467 02b6 22000000 		.4byte	.LVL66
 8468 02ba 0A00     		.2byte	0xa
 8469 02bc F3       		.byte	0xf3
 8470 02bd 01       		.uleb128 0x1
 8471 02be 51       		.byte	0x51
 8472 02bf 37       		.byte	0x37
 8473 02c0 1A       		.byte	0x1a
 8474 02c1 0A       		.byte	0xa
 8475 02c2 FFFF     		.2byte	0xffff
 8476 02c4 1A       		.byte	0x1a
 8477 02c5 9F       		.byte	0x9f
 8478 02c6 00000000 		.4byte	0
 8479 02ca 00000000 		.4byte	0
 8480              	.LLST19:
 8481 02ce 00000000 		.4byte	.LVL67
 8482 02d2 10000000 		.4byte	.LVL69
 8483 02d6 0100     		.2byte	0x1
 8484 02d8 50       		.byte	0x50
 8485 02d9 10000000 		.4byte	.LVL69
 8486 02dd 28000000 		.4byte	.LFE74
 8487 02e1 0400     		.2byte	0x4
 8488 02e3 F3       		.byte	0xf3
 8489 02e4 01       		.uleb128 0x1
 8490 02e5 50       		.byte	0x50
 8491 02e6 9F       		.byte	0x9f
 8492 02e7 00000000 		.4byte	0
 8493 02eb 00000000 		.4byte	0
 8494              	.LLST20:
 8495 02ef 00000000 		.4byte	.LVL67
 8496 02f3 14000000 		.4byte	.LVL70
 8497 02f7 0100     		.2byte	0x1
 8498 02f9 51       		.byte	0x51
 8499 02fa 14000000 		.4byte	.LVL70
 8500 02fe 28000000 		.4byte	.LFE74
 8501 0302 0400     		.2byte	0x4
 8502 0304 F3       		.byte	0xf3
 8503 0305 01       		.uleb128 0x1
 8504 0306 51       		.byte	0x51
 8505 0307 9F       		.byte	0x9f
 8506 0308 00000000 		.4byte	0
ARM GAS  C:\Users\Petro\AppData\Local\Temp\cchQWd3Z.s 			page 169


 8507 030c 00000000 		.4byte	0
 8508              	.LLST21:
 8509 0310 08000000 		.4byte	.LVL68
 8510 0314 14000000 		.4byte	.LVL70
 8511 0318 0100     		.2byte	0x1
 8512 031a 51       		.byte	0x51
 8513 031b 14000000 		.4byte	.LVL70
 8514 031f 22000000 		.4byte	.LVL71
 8515 0323 0400     		.2byte	0x4
 8516 0325 F3       		.byte	0xf3
 8517 0326 01       		.uleb128 0x1
 8518 0327 51       		.byte	0x51
 8519 0328 9F       		.byte	0x9f
 8520 0329 00000000 		.4byte	0
 8521 032d 00000000 		.4byte	0
 8522              	.LLST22:
 8523 0331 08000000 		.4byte	.LVL68
 8524 0335 10000000 		.4byte	.LVL69
 8525 0339 0100     		.2byte	0x1
 8526 033b 50       		.byte	0x50
 8527 033c 10000000 		.4byte	.LVL69
 8528 0340 22000000 		.4byte	.LVL71
 8529 0344 0400     		.2byte	0x4
 8530 0346 F3       		.byte	0xf3
 8531 0347 01       		.uleb128 0x1
 8532 0348 50       		.byte	0x50
 8533 0349 9F       		.byte	0x9f
 8534 034a 00000000 		.4byte	0
 8535 034e 00000000 		.4byte	0
 8536              	.LLST23:
 8537 0352 10000000 		.4byte	.LVL69
 8538 0356 22000000 		.4byte	.LVL71
 8539 035a 0100     		.2byte	0x1
 8540 035c 50       		.byte	0x50
 8541 035d 00000000 		.4byte	0
 8542 0361 00000000 		.4byte	0
 8543              	.LLST24:
 8544 0365 10000000 		.4byte	.LVL69
 8545 0369 14000000 		.4byte	.LVL70
 8546 036d 0900     		.2byte	0x9
 8547 036f 71       		.byte	0x71
 8548 0370 00       		.sleb128 0
 8549 0371 37       		.byte	0x37
 8550 0372 1A       		.byte	0x1a
 8551 0373 0A       		.byte	0xa
 8552 0374 FFFF     		.2byte	0xffff
 8553 0376 1A       		.byte	0x1a
 8554 0377 9F       		.byte	0x9f
 8555 0378 14000000 		.4byte	.LVL70
 8556 037c 22000000 		.4byte	.LVL71
 8557 0380 0A00     		.2byte	0xa
 8558 0382 F3       		.byte	0xf3
 8559 0383 01       		.uleb128 0x1
 8560 0384 51       		.byte	0x51
 8561 0385 37       		.byte	0x37
 8562 0386 1A       		.byte	0x1a
 8563 0387 0A       		.byte	0xa
ARM GAS  C:\Users\Petro\AppData\Local\Temp\cchQWd3Z.s 			page 170


 8564 0388 FFFF     		.2byte	0xffff
 8565 038a 1A       		.byte	0x1a
 8566 038b 9F       		.byte	0x9f
 8567 038c 00000000 		.4byte	0
 8568 0390 00000000 		.4byte	0
 8569              	.LLST25:
 8570 0394 00000000 		.4byte	.LVL72
 8571 0398 12000000 		.4byte	.LVL73
 8572 039c 0100     		.2byte	0x1
 8573 039e 50       		.byte	0x50
 8574 039f 12000000 		.4byte	.LVL73
 8575 03a3 3C000000 		.4byte	.LFE75
 8576 03a7 0400     		.2byte	0x4
 8577 03a9 F3       		.byte	0xf3
 8578 03aa 01       		.uleb128 0x1
 8579 03ab 50       		.byte	0x50
 8580 03ac 9F       		.byte	0x9f
 8581 03ad 00000000 		.4byte	0
 8582 03b1 00000000 		.4byte	0
 8583              	.LLST26:
 8584 03b5 00000000 		.4byte	.LVL72
 8585 03b9 1A000000 		.4byte	.LVL74
 8586 03bd 0100     		.2byte	0x1
 8587 03bf 51       		.byte	0x51
 8588 03c0 1A000000 		.4byte	.LVL74
 8589 03c4 3C000000 		.4byte	.LFE75
 8590 03c8 0400     		.2byte	0x4
 8591 03ca F3       		.byte	0xf3
 8592 03cb 01       		.uleb128 0x1
 8593 03cc 51       		.byte	0x51
 8594 03cd 9F       		.byte	0x9f
 8595 03ce 00000000 		.4byte	0
 8596 03d2 00000000 		.4byte	0
 8597              	.LLST27:
 8598 03d6 12000000 		.4byte	.LVL73
 8599 03da 34000000 		.4byte	.LVL76
 8600 03de 0100     		.2byte	0x1
 8601 03e0 50       		.byte	0x50
 8602 03e1 00000000 		.4byte	0
 8603 03e5 00000000 		.4byte	0
 8604              	.LLST28:
 8605 03e9 1A000000 		.4byte	.LVL74
 8606 03ed 26000000 		.4byte	.LVL75
 8607 03f1 0100     		.2byte	0x1
 8608 03f3 51       		.byte	0x51
 8609 03f4 00000000 		.4byte	0
 8610 03f8 00000000 		.4byte	0
 8611              	.LLST29:
 8612 03fc 00000000 		.4byte	.LVL78
 8613 0400 20000000 		.4byte	.LVL81
 8614 0404 0100     		.2byte	0x1
 8615 0406 50       		.byte	0x50
 8616 0407 20000000 		.4byte	.LVL81
 8617 040b 8C000000 		.4byte	.LVL93
 8618 040f 0400     		.2byte	0x4
 8619 0411 F3       		.byte	0xf3
 8620 0412 01       		.uleb128 0x1
ARM GAS  C:\Users\Petro\AppData\Local\Temp\cchQWd3Z.s 			page 171


 8621 0413 50       		.byte	0x50
 8622 0414 9F       		.byte	0x9f
 8623 0415 8C000000 		.4byte	.LVL93
 8624 0419 9E000000 		.4byte	.LVL95
 8625 041d 0100     		.2byte	0x1
 8626 041f 50       		.byte	0x50
 8627 0420 9E000000 		.4byte	.LVL95
 8628 0424 04010000 		.4byte	.LFE81
 8629 0428 0400     		.2byte	0x4
 8630 042a F3       		.byte	0xf3
 8631 042b 01       		.uleb128 0x1
 8632 042c 50       		.byte	0x50
 8633 042d 9F       		.byte	0x9f
 8634 042e 00000000 		.4byte	0
 8635 0432 00000000 		.4byte	0
 8636              	.LLST30:
 8637 0436 00000000 		.4byte	.LVL78
 8638 043a 10000000 		.4byte	.LVL80
 8639 043e 0100     		.2byte	0x1
 8640 0440 51       		.byte	0x51
 8641 0441 10000000 		.4byte	.LVL80
 8642 0445 04010000 		.4byte	.LFE81
 8643 0449 0200     		.2byte	0x2
 8644 044b 91       		.byte	0x91
 8645 044c 64       		.sleb128 -28
 8646 044d 00000000 		.4byte	0
 8647 0451 00000000 		.4byte	0
 8648              	.LLST31:
 8649 0455 00000000 		.4byte	.LVL78
 8650 0459 08000000 		.4byte	.LVL79
 8651 045d 0100     		.2byte	0x1
 8652 045f 52       		.byte	0x52
 8653 0460 08000000 		.4byte	.LVL79
 8654 0464 04010000 		.4byte	.LFE81
 8655 0468 0200     		.2byte	0x2
 8656 046a 91       		.byte	0x91
 8657 046b 5C       		.sleb128 -36
 8658 046c 00000000 		.4byte	0
 8659 0470 00000000 		.4byte	0
 8660              	.LLST32:
 8661 0474 24000000 		.4byte	.LVL82
 8662 0478 26000000 		.4byte	.LVL83
 8663 047c 0300     		.2byte	0x3
 8664 047e 73       		.byte	0x73
 8665 047f 04       		.sleb128 4
 8666 0480 9F       		.byte	0x9f
 8667 0481 26000000 		.4byte	.LVL83
 8668 0485 8C000000 		.4byte	.LVL93
 8669 0489 0600     		.2byte	0x6
 8670 048b 91       		.byte	0x91
 8671 048c 60       		.sleb128 -32
 8672 048d 06       		.byte	0x6
 8673 048e 23       		.byte	0x23
 8674 048f 04       		.uleb128 0x4
 8675 0490 9F       		.byte	0x9f
 8676 0491 00000000 		.4byte	0
 8677 0495 00000000 		.4byte	0
ARM GAS  C:\Users\Petro\AppData\Local\Temp\cchQWd3Z.s 			page 172


 8678              	.LLST33:
 8679 0499 24000000 		.4byte	.LVL82
 8680 049d 2A000000 		.4byte	.LVL84
 8681 04a1 0200     		.2byte	0x2
 8682 04a3 30       		.byte	0x30
 8683 04a4 9F       		.byte	0x9f
 8684 04a5 2A000000 		.4byte	.LVL84
 8685 04a9 8C000000 		.4byte	.LVL93
 8686 04ad 0100     		.2byte	0x1
 8687 04af 54       		.byte	0x54
 8688 04b0 00000000 		.4byte	0
 8689 04b4 00000000 		.4byte	0
 8690              	.LLST34:
 8691 04b8 36000000 		.4byte	.LVL85
 8692 04bc 8C000000 		.4byte	.LVL93
 8693 04c0 0100     		.2byte	0x1
 8694 04c2 56       		.byte	0x56
 8695 04c3 00000000 		.4byte	0
 8696 04c7 00000000 		.4byte	0
 8697              	.LLST35:
 8698 04cb 40000000 		.4byte	.LVL86
 8699 04cf 84000000 		.4byte	.LVL91
 8700 04d3 0100     		.2byte	0x1
 8701 04d5 57       		.byte	0x57
 8702 04d6 00000000 		.4byte	0
 8703 04da 00000000 		.4byte	0
 8704              	.LLST36:
 8705 04de 9A000000 		.4byte	.LVL94
 8706 04e2 FA000000 		.4byte	.LVL104
 8707 04e6 0100     		.2byte	0x1
 8708 04e8 54       		.byte	0x54
 8709 04e9 00000000 		.4byte	0
 8710 04ed 00000000 		.4byte	0
 8711              	.LLST37:
 8712 04f1 9E000000 		.4byte	.LVL95
 8713 04f5 FA000000 		.4byte	.LVL104
 8714 04f9 0200     		.2byte	0x2
 8715 04fb 91       		.byte	0x91
 8716 04fc 60       		.sleb128 -32
 8717 04fd 00000000 		.4byte	0
 8718 0501 00000000 		.4byte	0
 8719              	.LLST38:
 8720 0505 9E000000 		.4byte	.LVL95
 8721 0509 E2000000 		.4byte	.LVL98
 8722 050d 0100     		.2byte	0x1
 8723 050f 55       		.byte	0x55
 8724 0510 E2000000 		.4byte	.LVL98
 8725 0514 E6000000 		.4byte	.LVL99
 8726 0518 0300     		.2byte	0x3
 8727 051a 75       		.byte	0x75
 8728 051b 7F       		.sleb128 -1
 8729 051c 9F       		.byte	0x9f
 8730 051d E6000000 		.4byte	.LVL99
 8731 0521 F2000000 		.4byte	.LVL101
 8732 0525 0200     		.2byte	0x2
 8733 0527 37       		.byte	0x37
 8734 0528 9F       		.byte	0x9f
ARM GAS  C:\Users\Petro\AppData\Local\Temp\cchQWd3Z.s 			page 173


 8735 0529 F2000000 		.4byte	.LVL101
 8736 052d FA000000 		.4byte	.LVL104
 8737 0531 0100     		.2byte	0x1
 8738 0533 55       		.byte	0x55
 8739 0534 00000000 		.4byte	0
 8740 0538 00000000 		.4byte	0
 8741              	.LLST39:
 8742 053c 9E000000 		.4byte	.LVL95
 8743 0540 FA000000 		.4byte	.LVL104
 8744 0544 0100     		.2byte	0x1
 8745 0546 57       		.byte	0x57
 8746 0547 00000000 		.4byte	0
 8747 054b 00000000 		.4byte	0
 8748              	.LLST40:
 8749 054f A8000000 		.4byte	.LVL96
 8750 0553 FA000000 		.4byte	.LVL104
 8751 0557 0100     		.2byte	0x1
 8752 0559 56       		.byte	0x56
 8753 055a 00000000 		.4byte	0
 8754 055e 00000000 		.4byte	0
 8755              	.LLST41:
 8756 0562 00000000 		.4byte	.LVL105
 8757 0566 0B000000 		.4byte	.LVL106-1
 8758 056a 0100     		.2byte	0x1
 8759 056c 50       		.byte	0x50
 8760 056d 0B000000 		.4byte	.LVL106-1
 8761 0571 36000000 		.4byte	.LVL112
 8762 0575 0100     		.2byte	0x1
 8763 0577 57       		.byte	0x57
 8764 0578 36000000 		.4byte	.LVL112
 8765 057c 3A000000 		.4byte	.LVL113
 8766 0580 0600     		.2byte	0x6
 8767 0582 77       		.byte	0x77
 8768 0583 00       		.sleb128 0
 8769 0584 75       		.byte	0x75
 8770 0585 00       		.sleb128 0
 8771 0586 22       		.byte	0x22
 8772 0587 9F       		.byte	0x9f
 8773 0588 3A000000 		.4byte	.LVL113
 8774 058c 4C000000 		.4byte	.LVL115
 8775 0590 0800     		.2byte	0x8
 8776 0592 77       		.byte	0x77
 8777 0593 00       		.sleb128 0
 8778 0594 75       		.byte	0x75
 8779 0595 00       		.sleb128 0
 8780 0596 22       		.byte	0x22
 8781 0597 23       		.byte	0x23
 8782 0598 01       		.uleb128 0x1
 8783 0599 9F       		.byte	0x9f
 8784 059a 4C000000 		.4byte	.LVL115
 8785 059e 4E000000 		.4byte	.LVL117
 8786 05a2 0600     		.2byte	0x6
 8787 05a4 77       		.byte	0x77
 8788 05a5 00       		.sleb128 0
 8789 05a6 75       		.byte	0x75
 8790 05a7 00       		.sleb128 0
 8791 05a8 22       		.byte	0x22
ARM GAS  C:\Users\Petro\AppData\Local\Temp\cchQWd3Z.s 			page 174


 8792 05a9 9F       		.byte	0x9f
 8793 05aa 00000000 		.4byte	0
 8794 05ae 00000000 		.4byte	0
 8795              	.LLST42:
 8796 05b2 00000000 		.4byte	.LVL105
 8797 05b6 0B000000 		.4byte	.LVL106-1
 8798 05ba 0100     		.2byte	0x1
 8799 05bc 51       		.byte	0x51
 8800 05bd 0B000000 		.4byte	.LVL106-1
 8801 05c1 18000000 		.4byte	.LVL108
 8802 05c5 0100     		.2byte	0x1
 8803 05c7 54       		.byte	0x54
 8804 05c8 18000000 		.4byte	.LVL108
 8805 05cc 1E000000 		.4byte	.LVL109
 8806 05d0 0400     		.2byte	0x4
 8807 05d2 F3       		.byte	0xf3
 8808 05d3 01       		.uleb128 0x1
 8809 05d4 51       		.byte	0x51
 8810 05d5 9F       		.byte	0x9f
 8811 05d6 1E000000 		.4byte	.LVL109
 8812 05da 30000000 		.4byte	.LVL110
 8813 05de 0100     		.2byte	0x1
 8814 05e0 54       		.byte	0x54
 8815 05e1 34000000 		.4byte	.LVL111
 8816 05e5 4E000000 		.4byte	.LVL116
 8817 05e9 0100     		.2byte	0x1
 8818 05eb 54       		.byte	0x54
 8819 05ec 00000000 		.4byte	0
 8820 05f0 00000000 		.4byte	0
 8821              	.LLST43:
 8822 05f4 00000000 		.4byte	.LVL105
 8823 05f8 0B000000 		.4byte	.LVL106-1
 8824 05fc 0100     		.2byte	0x1
 8825 05fe 52       		.byte	0x52
 8826 05ff 0B000000 		.4byte	.LVL106-1
 8827 0603 5C000000 		.4byte	.LFE77
 8828 0607 0200     		.2byte	0x2
 8829 0609 91       		.byte	0x91
 8830 060a 64       		.sleb128 -28
 8831 060b 00000000 		.4byte	0
 8832 060f 00000000 		.4byte	0
 8833              	.LLST44:
 8834 0613 10000000 		.4byte	.LVL107
 8835 0617 36000000 		.4byte	.LVL112
 8836 061b 0100     		.2byte	0x1
 8837 061d 50       		.byte	0x50
 8838 061e 36000000 		.4byte	.LVL112
 8839 0622 4E000000 		.4byte	.LVL118
 8840 0626 0100     		.2byte	0x1
 8841 0628 56       		.byte	0x56
 8842 0629 00000000 		.4byte	0
 8843 062d 00000000 		.4byte	0
 8844              	.LLST45:
 8845 0631 34000000 		.4byte	.LVL111
 8846 0635 36000000 		.4byte	.LVL112
 8847 0639 0200     		.2byte	0x2
 8848 063b 30       		.byte	0x30
ARM GAS  C:\Users\Petro\AppData\Local\Temp\cchQWd3Z.s 			page 175


 8849 063c 9F       		.byte	0x9f
 8850 063d 36000000 		.4byte	.LVL112
 8851 0641 4E000000 		.4byte	.LVL117
 8852 0645 0100     		.2byte	0x1
 8853 0647 55       		.byte	0x55
 8854 0648 00000000 		.4byte	0
 8855 064c 00000000 		.4byte	0
 8856              	.LLST46:
 8857 0650 00000000 		.4byte	.LVL119
 8858 0654 05000000 		.4byte	.LVL120-1
 8859 0658 0100     		.2byte	0x1
 8860 065a 50       		.byte	0x50
 8861 065b 05000000 		.4byte	.LVL120-1
 8862 065f 08000000 		.4byte	.LFE78
 8863 0663 0400     		.2byte	0x4
 8864 0665 F3       		.byte	0xf3
 8865 0666 01       		.uleb128 0x1
 8866 0667 50       		.byte	0x50
 8867 0668 9F       		.byte	0x9f
 8868 0669 00000000 		.4byte	0
 8869 066d 00000000 		.4byte	0
 8870              	.LLST47:
 8871 0671 00000000 		.4byte	.LVL119
 8872 0675 05000000 		.4byte	.LVL120-1
 8873 0679 0100     		.2byte	0x1
 8874 067b 51       		.byte	0x51
 8875 067c 05000000 		.4byte	.LVL120-1
 8876 0680 08000000 		.4byte	.LFE78
 8877 0684 0400     		.2byte	0x4
 8878 0686 F3       		.byte	0xf3
 8879 0687 01       		.uleb128 0x1
 8880 0688 51       		.byte	0x51
 8881 0689 9F       		.byte	0x9f
 8882 068a 00000000 		.4byte	0
 8883 068e 00000000 		.4byte	0
 8884              	.LLST48:
 8885 0692 00000000 		.4byte	.LVL119
 8886 0696 05000000 		.4byte	.LVL120-1
 8887 069a 0100     		.2byte	0x1
 8888 069c 52       		.byte	0x52
 8889 069d 05000000 		.4byte	.LVL120-1
 8890 06a1 08000000 		.4byte	.LFE78
 8891 06a5 0400     		.2byte	0x4
 8892 06a7 F3       		.byte	0xf3
 8893 06a8 01       		.uleb128 0x1
 8894 06a9 52       		.byte	0x52
 8895 06aa 9F       		.byte	0x9f
 8896 06ab 00000000 		.4byte	0
 8897 06af 00000000 		.4byte	0
 8898              	.LLST49:
 8899 06b3 00000000 		.4byte	.LVL121
 8900 06b7 16000000 		.4byte	.LVL124
 8901 06bb 0100     		.2byte	0x1
 8902 06bd 50       		.byte	0x50
 8903 06be 16000000 		.4byte	.LVL124
 8904 06c2 1A000000 		.4byte	.LVL125
 8905 06c6 0100     		.2byte	0x1
ARM GAS  C:\Users\Petro\AppData\Local\Temp\cchQWd3Z.s 			page 176


 8906 06c8 54       		.byte	0x54
 8907 06c9 1A000000 		.4byte	.LVL125
 8908 06cd 36000000 		.4byte	.LVL128
 8909 06d1 0400     		.2byte	0x4
 8910 06d3 F3       		.byte	0xf3
 8911 06d4 01       		.uleb128 0x1
 8912 06d5 50       		.byte	0x50
 8913 06d6 9F       		.byte	0x9f
 8914 06d7 36000000 		.4byte	.LVL128
 8915 06db 3E000000 		.4byte	.LVL129
 8916 06df 0100     		.2byte	0x1
 8917 06e1 54       		.byte	0x54
 8918 06e2 3E000000 		.4byte	.LVL129
 8919 06e6 46000000 		.4byte	.LVL131
 8920 06ea 0100     		.2byte	0x1
 8921 06ec 50       		.byte	0x50
 8922 06ed 46000000 		.4byte	.LVL131
 8923 06f1 66000000 		.4byte	.LVL137
 8924 06f5 0100     		.2byte	0x1
 8925 06f7 54       		.byte	0x54
 8926 06f8 66000000 		.4byte	.LVL137
 8927 06fc 78000000 		.4byte	.LVL138
 8928 0700 0100     		.2byte	0x1
 8929 0702 50       		.byte	0x50
 8930 0703 78000000 		.4byte	.LVL138
 8931 0707 9E000000 		.4byte	.LVL142
 8932 070b 0100     		.2byte	0x1
 8933 070d 54       		.byte	0x54
 8934 070e 00000000 		.4byte	0
 8935 0712 00000000 		.4byte	0
 8936              	.LLST50:
 8937 0716 00000000 		.4byte	.LVL121
 8938 071a 4A000000 		.4byte	.LVL133
 8939 071e 0100     		.2byte	0x1
 8940 0720 51       		.byte	0x51
 8941 0721 4A000000 		.4byte	.LVL133
 8942 0725 CC000000 		.4byte	.LFE79
 8943 0729 0300     		.2byte	0x3
 8944 072b 91       		.byte	0x91
 8945 072c A87F     		.sleb128 -88
 8946 072e 00000000 		.4byte	0
 8947 0732 00000000 		.4byte	0
 8948              	.LLST51:
 8949 0736 00000000 		.4byte	.LVL121
 8950 073a 4A000000 		.4byte	.LVL133
 8951 073e 0100     		.2byte	0x1
 8952 0740 52       		.byte	0x52
 8953 0741 4A000000 		.4byte	.LVL133
 8954 0745 CC000000 		.4byte	.LFE79
 8955 0749 0300     		.2byte	0x3
 8956 074b 91       		.byte	0x91
 8957 074c AC7F     		.sleb128 -84
 8958 074e 00000000 		.4byte	0
 8959 0752 00000000 		.4byte	0
 8960              	.LLST52:
 8961 0756 00000000 		.4byte	.LVL121
 8962 075a 08000000 		.4byte	.LVL122
ARM GAS  C:\Users\Petro\AppData\Local\Temp\cchQWd3Z.s 			page 177


 8963 075e 0100     		.2byte	0x1
 8964 0760 53       		.byte	0x53
 8965 0761 08000000 		.4byte	.LVL122
 8966 0765 9E000000 		.4byte	.LVL142
 8967 0769 0100     		.2byte	0x1
 8968 076b 57       		.byte	0x57
 8969 076c 9E000000 		.4byte	.LVL142
 8970 0770 CC000000 		.4byte	.LFE79
 8971 0774 0400     		.2byte	0x4
 8972 0776 F3       		.byte	0xf3
 8973 0777 01       		.uleb128 0x1
 8974 0778 53       		.byte	0x53
 8975 0779 9F       		.byte	0x9f
 8976 077a 00000000 		.4byte	0
 8977 077e 00000000 		.4byte	0
 8978              	.LLST53:
 8979 0782 00000000 		.4byte	.LVL121
 8980 0786 08000000 		.4byte	.LVL122
 8981 078a 0200     		.2byte	0x2
 8982 078c 91       		.byte	0x91
 8983 078d 00       		.sleb128 0
 8984 078e 08000000 		.4byte	.LVL122
 8985 0792 0A000000 		.4byte	.LVL123
 8986 0796 0200     		.2byte	0x2
 8987 0798 73       		.byte	0x73
 8988 0799 00       		.sleb128 0
 8989 079a 0A000000 		.4byte	.LVL123
 8990 079e CC000000 		.4byte	.LFE79
 8991 07a2 0200     		.2byte	0x2
 8992 07a4 91       		.byte	0x91
 8993 07a5 00       		.sleb128 0
 8994 07a6 00000000 		.4byte	0
 8995 07aa 00000000 		.4byte	0
 8996              	.LLST54:
 8997 07ae 00000000 		.4byte	.LVL121
 8998 07b2 44000000 		.4byte	.LVL130
 8999 07b6 0200     		.2byte	0x2
 9000 07b8 30       		.byte	0x30
 9001 07b9 9F       		.byte	0x9f
 9002 07ba 44000000 		.4byte	.LVL130
 9003 07be 48000000 		.4byte	.LVL132
 9004 07c2 0200     		.2byte	0x2
 9005 07c4 31       		.byte	0x31
 9006 07c5 9F       		.byte	0x9f
 9007 07c6 48000000 		.4byte	.LVL132
 9008 07ca BE000000 		.4byte	.LVL146
 9009 07ce 0100     		.2byte	0x1
 9010 07d0 56       		.byte	0x56
 9011 07d1 00000000 		.4byte	0
 9012 07d5 00000000 		.4byte	0
 9013              	.LLST55:
 9014 07d9 00000000 		.4byte	.LVL121
 9015 07dd 1A000000 		.4byte	.LVL125
 9016 07e1 0200     		.2byte	0x2
 9017 07e3 30       		.byte	0x30
 9018 07e4 9F       		.byte	0x9f
 9019 07e5 1A000000 		.4byte	.LVL125
ARM GAS  C:\Users\Petro\AppData\Local\Temp\cchQWd3Z.s 			page 178


 9020 07e9 32000000 		.4byte	.LVL127
 9021 07ed 0100     		.2byte	0x1
 9022 07ef 54       		.byte	0x54
 9023 07f0 36000000 		.4byte	.LVL128
 9024 07f4 4A000000 		.4byte	.LVL133
 9025 07f8 0200     		.2byte	0x2
 9026 07fa 30       		.byte	0x30
 9027 07fb 9F       		.byte	0x9f
 9028 07fc 4A000000 		.4byte	.LVL133
 9029 0800 BE000000 		.4byte	.LVL146
 9030 0804 0100     		.2byte	0x1
 9031 0806 55       		.byte	0x55
 9032 0807 00000000 		.4byte	0
 9033 080b 00000000 		.4byte	0
 9034              	.LLST56:
 9035 080f 00000000 		.4byte	.LVL121
 9036 0813 80000000 		.4byte	.LVL139
 9037 0817 0200     		.2byte	0x2
 9038 0819 30       		.byte	0x30
 9039 081a 9F       		.byte	0x9f
 9040 081b 80000000 		.4byte	.LVL139
 9041 081f 9C000000 		.4byte	.LVL141
 9042 0823 0100     		.2byte	0x1
 9043 0825 51       		.byte	0x51
 9044 0826 9C000000 		.4byte	.LVL141
 9045 082a BA000000 		.4byte	.LVL145
 9046 082e 0100     		.2byte	0x1
 9047 0830 53       		.byte	0x53
 9048 0831 00000000 		.4byte	0
 9049 0835 00000000 		.4byte	0
 9050              	.LLST57:
 9051 0839 9C000000 		.4byte	.LVL141
 9052 083d 9E000000 		.4byte	.LVL142
 9053 0841 0200     		.2byte	0x2
 9054 0843 30       		.byte	0x30
 9055 0844 9F       		.byte	0x9f
 9056 0845 9E000000 		.4byte	.LVL142
 9057 0849 B8000000 		.4byte	.LVL144
 9058 084d 0100     		.2byte	0x1
 9059 084f 52       		.byte	0x52
 9060 0850 00000000 		.4byte	0
 9061 0854 00000000 		.4byte	0
 9062              	.LLST58:
 9063 0858 80000000 		.4byte	.LVL139
 9064 085c 9C000000 		.4byte	.LVL141
 9065 0860 0100     		.2byte	0x1
 9066 0862 51       		.byte	0x51
 9067 0863 00000000 		.4byte	0
 9068 0867 00000000 		.4byte	0
 9069              	.LLST59:
 9070 086b 00000000 		.4byte	.LVL148
 9071 086f 14000000 		.4byte	.LVL153
 9072 0873 0600     		.2byte	0x6
 9073 0875 50       		.byte	0x50
 9074 0876 93       		.byte	0x93
 9075 0877 04       		.uleb128 0x4
 9076 0878 51       		.byte	0x51
ARM GAS  C:\Users\Petro\AppData\Local\Temp\cchQWd3Z.s 			page 179


 9077 0879 93       		.byte	0x93
 9078 087a 04       		.uleb128 0x4
 9079 087b 14000000 		.4byte	.LVL153
 9080 087f 92000000 		.4byte	.LFE80
 9081 0883 0600     		.2byte	0x6
 9082 0885 F3       		.byte	0xf3
 9083 0886 03       		.uleb128 0x3
 9084 0887 F5       		.byte	0xf5
 9085 0888 00       		.uleb128 0
 9086 0889 25       		.uleb128 0x25
 9087 088a 9F       		.byte	0x9f
 9088 088b 00000000 		.4byte	0
 9089 088f 00000000 		.4byte	0
 9090              	.LLST60:
 9091 0893 00000000 		.4byte	.LVL148
 9092 0897 22000000 		.4byte	.LVL156
 9093 089b 0100     		.2byte	0x1
 9094 089d 52       		.byte	0x52
 9095 089e 22000000 		.4byte	.LVL156
 9096 08a2 92000000 		.4byte	.LFE80
 9097 08a6 0400     		.2byte	0x4
 9098 08a8 F3       		.byte	0xf3
 9099 08a9 01       		.uleb128 0x1
 9100 08aa 52       		.byte	0x52
 9101 08ab 9F       		.byte	0x9f
 9102 08ac 00000000 		.4byte	0
 9103 08b0 00000000 		.4byte	0
 9104              	.LLST61:
 9105 08b4 00000000 		.4byte	.LVL148
 9106 08b8 0C000000 		.4byte	.LVL150
 9107 08bc 0100     		.2byte	0x1
 9108 08be 53       		.byte	0x53
 9109 08bf 0C000000 		.4byte	.LVL150
 9110 08c3 0E000000 		.4byte	.LVL151
 9111 08c7 0200     		.2byte	0x2
 9112 08c9 73       		.byte	0x73
 9113 08ca 44       		.sleb128 -60
 9114 08cb 0E000000 		.4byte	.LVL151
 9115 08cf 12000000 		.4byte	.LVL152
 9116 08d3 0200     		.2byte	0x2
 9117 08d5 73       		.byte	0x73
 9118 08d6 40       		.sleb128 -64
 9119 08d7 12000000 		.4byte	.LVL152
 9120 08db 92000000 		.4byte	.LFE80
 9121 08df 0200     		.2byte	0x2
 9122 08e1 91       		.byte	0x91
 9123 08e2 44       		.sleb128 -60
 9124 08e3 00000000 		.4byte	0
 9125 08e7 00000000 		.4byte	0
 9126              	.LLST62:
 9127 08eb 00000000 		.4byte	.LVL148
 9128 08ef 0C000000 		.4byte	.LVL150
 9129 08f3 0200     		.2byte	0x2
 9130 08f5 91       		.byte	0x91
 9131 08f6 00       		.sleb128 0
 9132 08f7 0C000000 		.4byte	.LVL150
 9133 08fb 0E000000 		.4byte	.LVL151
ARM GAS  C:\Users\Petro\AppData\Local\Temp\cchQWd3Z.s 			page 180


 9134 08ff 0200     		.2byte	0x2
 9135 0901 73       		.byte	0x73
 9136 0902 00       		.sleb128 0
 9137 0903 0E000000 		.4byte	.LVL151
 9138 0907 12000000 		.4byte	.LVL152
 9139 090b 0200     		.2byte	0x2
 9140 090d 73       		.byte	0x73
 9141 090e 7C       		.sleb128 -4
 9142 090f 12000000 		.4byte	.LVL152
 9143 0913 92000000 		.4byte	.LFE80
 9144 0917 0200     		.2byte	0x2
 9145 0919 91       		.byte	0x91
 9146 091a 00       		.sleb128 0
 9147 091b 00000000 		.4byte	0
 9148 091f 00000000 		.4byte	0
 9149              	.LLST63:
 9150 0923 00000000 		.4byte	.LVL148
 9151 0927 0C000000 		.4byte	.LVL150
 9152 092b 0200     		.2byte	0x2
 9153 092d 91       		.byte	0x91
 9154 092e 04       		.sleb128 4
 9155 092f 0C000000 		.4byte	.LVL150
 9156 0933 0E000000 		.4byte	.LVL151
 9157 0937 0200     		.2byte	0x2
 9158 0939 73       		.byte	0x73
 9159 093a 04       		.sleb128 4
 9160 093b 0E000000 		.4byte	.LVL151
 9161 093f 12000000 		.4byte	.LVL152
 9162 0943 0200     		.2byte	0x2
 9163 0945 73       		.byte	0x73
 9164 0946 00       		.sleb128 0
 9165 0947 12000000 		.4byte	.LVL152
 9166 094b 92000000 		.4byte	.LFE80
 9167 094f 0200     		.2byte	0x2
 9168 0951 91       		.byte	0x91
 9169 0952 04       		.sleb128 4
 9170 0953 00000000 		.4byte	0
 9171 0957 00000000 		.4byte	0
 9172              	.LLST64:
 9173 095b 00000000 		.4byte	.LVL148
 9174 095f 0C000000 		.4byte	.LVL150
 9175 0963 0200     		.2byte	0x2
 9176 0965 91       		.byte	0x91
 9177 0966 08       		.sleb128 8
 9178 0967 0C000000 		.4byte	.LVL150
 9179 096b 0E000000 		.4byte	.LVL151
 9180 096f 0200     		.2byte	0x2
 9181 0971 73       		.byte	0x73
 9182 0972 08       		.sleb128 8
 9183 0973 0E000000 		.4byte	.LVL151
 9184 0977 12000000 		.4byte	.LVL152
 9185 097b 0200     		.2byte	0x2
 9186 097d 73       		.byte	0x73
 9187 097e 04       		.sleb128 4
 9188 097f 12000000 		.4byte	.LVL152
 9189 0983 92000000 		.4byte	.LFE80
 9190 0987 0200     		.2byte	0x2
ARM GAS  C:\Users\Petro\AppData\Local\Temp\cchQWd3Z.s 			page 181


 9191 0989 91       		.byte	0x91
 9192 098a 08       		.sleb128 8
 9193 098b 00000000 		.4byte	0
 9194 098f 00000000 		.4byte	0
 9195              	.LLST65:
 9196 0993 00000000 		.4byte	.LVL148
 9197 0997 0C000000 		.4byte	.LVL150
 9198 099b 0200     		.2byte	0x2
 9199 099d 91       		.byte	0x91
 9200 099e 0C       		.sleb128 12
 9201 099f 0C000000 		.4byte	.LVL150
 9202 09a3 0E000000 		.4byte	.LVL151
 9203 09a7 0200     		.2byte	0x2
 9204 09a9 73       		.byte	0x73
 9205 09aa 0C       		.sleb128 12
 9206 09ab 0E000000 		.4byte	.LVL151
 9207 09af 12000000 		.4byte	.LVL152
 9208 09b3 0200     		.2byte	0x2
 9209 09b5 73       		.byte	0x73
 9210 09b6 08       		.sleb128 8
 9211 09b7 12000000 		.4byte	.LVL152
 9212 09bb 18000000 		.4byte	.LVL154
 9213 09bf 0200     		.2byte	0x2
 9214 09c1 91       		.byte	0x91
 9215 09c2 0C       		.sleb128 12
 9216 09c3 18000000 		.4byte	.LVL154
 9217 09c7 1C000000 		.4byte	.LVL155
 9218 09cb 0200     		.2byte	0x2
 9219 09cd 73       		.byte	0x73
 9220 09ce 00       		.sleb128 0
 9221 09cf 1C000000 		.4byte	.LVL155
 9222 09d3 92000000 		.4byte	.LFE80
 9223 09d7 0200     		.2byte	0x2
 9224 09d9 91       		.byte	0x91
 9225 09da 0C       		.sleb128 12
 9226 09db 00000000 		.4byte	0
 9227 09df 00000000 		.4byte	0
 9228              	.LLST66:
 9229 09e3 5E000000 		.4byte	.LVL163
 9230 09e7 70000000 		.4byte	.LVL166
 9231 09eb 0200     		.2byte	0x2
 9232 09ed 4B       		.byte	0x4b
 9233 09ee 9F       		.byte	0x9f
 9234 09ef 7E000000 		.4byte	.LVL169
 9235 09f3 82000000 		.4byte	.LVL170
 9236 09f7 0200     		.2byte	0x2
 9237 09f9 4B       		.byte	0x4b
 9238 09fa 9F       		.byte	0x9f
 9239 09fb 00000000 		.4byte	0
 9240 09ff 00000000 		.4byte	0
 9241              	.LLST67:
 9242 0a03 36000000 		.4byte	.LVL158
 9243 0a07 4A000000 		.4byte	.LVL161
 9244 0a0b 0100     		.2byte	0x1
 9245 0a0d 53       		.byte	0x53
 9246 0a0e 00000000 		.4byte	0
 9247 0a12 00000000 		.4byte	0
ARM GAS  C:\Users\Petro\AppData\Local\Temp\cchQWd3Z.s 			page 182


 9248              	.LLST68:
 9249 0a16 5E000000 		.4byte	.LVL163
 9250 0a1a 60000000 		.4byte	.LVL164
 9251 0a1e 0200     		.2byte	0x2
 9252 0a20 31       		.byte	0x31
 9253 0a21 9F       		.byte	0x9f
 9254 0a22 60000000 		.4byte	.LVL164
 9255 0a26 70000000 		.4byte	.LVL166
 9256 0a2a 0100     		.2byte	0x1
 9257 0a2c 53       		.byte	0x53
 9258 0a2d 7E000000 		.4byte	.LVL169
 9259 0a31 82000000 		.4byte	.LVL170
 9260 0a35 0100     		.2byte	0x1
 9261 0a37 53       		.byte	0x53
 9262 0a38 00000000 		.4byte	0
 9263 0a3c 00000000 		.4byte	0
 9264              	.LLST69:
 9265 0a40 00000000 		.4byte	.LVL174
 9266 0a44 12000000 		.4byte	.LVL175
 9267 0a48 0100     		.2byte	0x1
 9268 0a4a 50       		.byte	0x50
 9269 0a4b 12000000 		.4byte	.LVL175
 9270 0a4f 38000000 		.4byte	.LFE83
 9271 0a53 0400     		.2byte	0x4
 9272 0a55 F3       		.byte	0xf3
 9273 0a56 01       		.uleb128 0x1
 9274 0a57 50       		.byte	0x50
 9275 0a58 9F       		.byte	0x9f
 9276 0a59 00000000 		.4byte	0
 9277 0a5d 00000000 		.4byte	0
 9278              	.LLST70:
 9279 0a61 00000000 		.4byte	.LVL174
 9280 0a65 16000000 		.4byte	.LVL176
 9281 0a69 0100     		.2byte	0x1
 9282 0a6b 51       		.byte	0x51
 9283 0a6c 16000000 		.4byte	.LVL176
 9284 0a70 38000000 		.4byte	.LFE83
 9285 0a74 0400     		.2byte	0x4
 9286 0a76 F3       		.byte	0xf3
 9287 0a77 01       		.uleb128 0x1
 9288 0a78 51       		.byte	0x51
 9289 0a79 9F       		.byte	0x9f
 9290 0a7a 00000000 		.4byte	0
 9291 0a7e 00000000 		.4byte	0
 9292              	.LLST71:
 9293 0a82 22000000 		.4byte	.LVL178
 9294 0a86 30000000 		.4byte	.LVL180
 9295 0a8a 0D00     		.2byte	0xd
 9296 0a8c F3       		.byte	0xf3
 9297 0a8d 01       		.uleb128 0x1
 9298 0a8e 51       		.byte	0x51
 9299 0a8f 33       		.byte	0x33
 9300 0a90 26       		.byte	0x26
 9301 0a91 08       		.byte	0x8
 9302 0a92 54       		.byte	0x54
 9303 0a93 1E       		.byte	0x1e
 9304 0a94 F3       		.byte	0xf3
ARM GAS  C:\Users\Petro\AppData\Local\Temp\cchQWd3Z.s 			page 183


 9305 0a95 01       		.uleb128 0x1
 9306 0a96 50       		.byte	0x50
 9307 0a97 22       		.byte	0x22
 9308 0a98 9F       		.byte	0x9f
 9309 0a99 00000000 		.4byte	0
 9310 0a9d 00000000 		.4byte	0
 9311              	.LLST72:
 9312 0aa1 22000000 		.4byte	.LVL178
 9313 0aa5 30000000 		.4byte	.LVL180
 9314 0aa9 0600     		.2byte	0x6
 9315 0aab F3       		.byte	0xf3
 9316 0aac 01       		.uleb128 0x1
 9317 0aad 51       		.byte	0x51
 9318 0aae 37       		.byte	0x37
 9319 0aaf 1A       		.byte	0x1a
 9320 0ab0 9F       		.byte	0x9f
 9321 0ab1 00000000 		.4byte	0
 9322 0ab5 00000000 		.4byte	0
 9323              	.LLST73:
 9324 0ab9 1E000000 		.4byte	.LVL177
 9325 0abd 30000000 		.4byte	.LVL180
 9326 0ac1 0100     		.2byte	0x1
 9327 0ac3 53       		.byte	0x53
 9328 0ac4 00000000 		.4byte	0
 9329 0ac8 00000000 		.4byte	0
 9330              	.LLST74:
 9331 0acc 00000000 		.4byte	.LVL181
 9332 0ad0 12000000 		.4byte	.LVL182
 9333 0ad4 0100     		.2byte	0x1
 9334 0ad6 50       		.byte	0x50
 9335 0ad7 12000000 		.4byte	.LVL182
 9336 0adb 38000000 		.4byte	.LFE84
 9337 0adf 0400     		.2byte	0x4
 9338 0ae1 F3       		.byte	0xf3
 9339 0ae2 01       		.uleb128 0x1
 9340 0ae3 50       		.byte	0x50
 9341 0ae4 9F       		.byte	0x9f
 9342 0ae5 00000000 		.4byte	0
 9343 0ae9 00000000 		.4byte	0
 9344              	.LLST75:
 9345 0aed 00000000 		.4byte	.LVL181
 9346 0af1 16000000 		.4byte	.LVL183
 9347 0af5 0100     		.2byte	0x1
 9348 0af7 51       		.byte	0x51
 9349 0af8 16000000 		.4byte	.LVL183
 9350 0afc 38000000 		.4byte	.LFE84
 9351 0b00 0400     		.2byte	0x4
 9352 0b02 F3       		.byte	0xf3
 9353 0b03 01       		.uleb128 0x1
 9354 0b04 51       		.byte	0x51
 9355 0b05 9F       		.byte	0x9f
 9356 0b06 00000000 		.4byte	0
 9357 0b0a 00000000 		.4byte	0
 9358              	.LLST76:
 9359 0b0e 24000000 		.4byte	.LVL185
 9360 0b12 32000000 		.4byte	.LVL187
 9361 0b16 0D00     		.2byte	0xd
ARM GAS  C:\Users\Petro\AppData\Local\Temp\cchQWd3Z.s 			page 184


 9362 0b18 F3       		.byte	0xf3
 9363 0b19 01       		.uleb128 0x1
 9364 0b1a 51       		.byte	0x51
 9365 0b1b 33       		.byte	0x33
 9366 0b1c 26       		.byte	0x26
 9367 0b1d 08       		.byte	0x8
 9368 0b1e 54       		.byte	0x54
 9369 0b1f 1E       		.byte	0x1e
 9370 0b20 F3       		.byte	0xf3
 9371 0b21 01       		.uleb128 0x1
 9372 0b22 50       		.byte	0x50
 9373 0b23 22       		.byte	0x22
 9374 0b24 9F       		.byte	0x9f
 9375 0b25 00000000 		.4byte	0
 9376 0b29 00000000 		.4byte	0
 9377              	.LLST77:
 9378 0b2d 24000000 		.4byte	.LVL185
 9379 0b31 32000000 		.4byte	.LVL187
 9380 0b35 0600     		.2byte	0x6
 9381 0b37 F3       		.byte	0xf3
 9382 0b38 01       		.uleb128 0x1
 9383 0b39 51       		.byte	0x51
 9384 0b3a 37       		.byte	0x37
 9385 0b3b 1A       		.byte	0x1a
 9386 0b3c 9F       		.byte	0x9f
 9387 0b3d 00000000 		.4byte	0
 9388 0b41 00000000 		.4byte	0
 9389              	.LLST78:
 9390 0b45 20000000 		.4byte	.LVL184
 9391 0b49 32000000 		.4byte	.LVL187
 9392 0b4d 0100     		.2byte	0x1
 9393 0b4f 53       		.byte	0x53
 9394 0b50 00000000 		.4byte	0
 9395 0b54 00000000 		.4byte	0
 9396              	.LLST79:
 9397 0b58 00000000 		.4byte	.LVL188
 9398 0b5c 12000000 		.4byte	.LVL189
 9399 0b60 0100     		.2byte	0x1
 9400 0b62 50       		.byte	0x50
 9401 0b63 12000000 		.4byte	.LVL189
 9402 0b67 24000000 		.4byte	.LVL193
 9403 0b6b 0100     		.2byte	0x1
 9404 0b6d 55       		.byte	0x55
 9405 0b6e 24000000 		.4byte	.LVL193
 9406 0b72 26000000 		.4byte	.LFE85
 9407 0b76 0400     		.2byte	0x4
 9408 0b78 F3       		.byte	0xf3
 9409 0b79 01       		.uleb128 0x1
 9410 0b7a 50       		.byte	0x50
 9411 0b7b 9F       		.byte	0x9f
 9412 0b7c 00000000 		.4byte	0
 9413 0b80 00000000 		.4byte	0
 9414              	.LLST80:
 9415 0b84 00000000 		.4byte	.LVL188
 9416 0b88 12000000 		.4byte	.LVL189
 9417 0b8c 0100     		.2byte	0x1
 9418 0b8e 51       		.byte	0x51
ARM GAS  C:\Users\Petro\AppData\Local\Temp\cchQWd3Z.s 			page 185


 9419 0b8f 12000000 		.4byte	.LVL189
 9420 0b93 24000000 		.4byte	.LVL194
 9421 0b97 0100     		.2byte	0x1
 9422 0b99 56       		.byte	0x56
 9423 0b9a 24000000 		.4byte	.LVL194
 9424 0b9e 26000000 		.4byte	.LFE85
 9425 0ba2 0400     		.2byte	0x4
 9426 0ba4 F3       		.byte	0xf3
 9427 0ba5 01       		.uleb128 0x1
 9428 0ba6 51       		.byte	0x51
 9429 0ba7 9F       		.byte	0x9f
 9430 0ba8 00000000 		.4byte	0
 9431 0bac 00000000 		.4byte	0
 9432              	.LLST81:
 9433 0bb0 00000000 		.4byte	.LVL188
 9434 0bb4 12000000 		.4byte	.LVL189
 9435 0bb8 0100     		.2byte	0x1
 9436 0bba 52       		.byte	0x52
 9437 0bbb 12000000 		.4byte	.LVL189
 9438 0bbf 24000000 		.4byte	.LVL195
 9439 0bc3 0100     		.2byte	0x1
 9440 0bc5 57       		.byte	0x57
 9441 0bc6 24000000 		.4byte	.LVL195
 9442 0bca 26000000 		.4byte	.LFE85
 9443 0bce 0400     		.2byte	0x4
 9444 0bd0 F3       		.byte	0xf3
 9445 0bd1 01       		.uleb128 0x1
 9446 0bd2 52       		.byte	0x52
 9447 0bd3 9F       		.byte	0x9f
 9448 0bd4 00000000 		.4byte	0
 9449 0bd8 00000000 		.4byte	0
 9450              	.LLST82:
 9451 0bdc 12000000 		.4byte	.LVL189
 9452 0be0 24000000 		.4byte	.LVL192
 9453 0be4 0100     		.2byte	0x1
 9454 0be6 54       		.byte	0x54
 9455 0be7 00000000 		.4byte	0
 9456 0beb 00000000 		.4byte	0
 9457              	.LLST83:
 9458 0bef 00000000 		.4byte	.LVL196
 9459 0bf3 12000000 		.4byte	.LVL197
 9460 0bf7 0100     		.2byte	0x1
 9461 0bf9 50       		.byte	0x50
 9462 0bfa 12000000 		.4byte	.LVL197
 9463 0bfe 24000000 		.4byte	.LVL201
 9464 0c02 0100     		.2byte	0x1
 9465 0c04 55       		.byte	0x55
 9466 0c05 24000000 		.4byte	.LVL201
 9467 0c09 26000000 		.4byte	.LFE86
 9468 0c0d 0400     		.2byte	0x4
 9469 0c0f F3       		.byte	0xf3
 9470 0c10 01       		.uleb128 0x1
 9471 0c11 50       		.byte	0x50
 9472 0c12 9F       		.byte	0x9f
 9473 0c13 00000000 		.4byte	0
 9474 0c17 00000000 		.4byte	0
 9475              	.LLST84:
ARM GAS  C:\Users\Petro\AppData\Local\Temp\cchQWd3Z.s 			page 186


 9476 0c1b 00000000 		.4byte	.LVL196
 9477 0c1f 12000000 		.4byte	.LVL197
 9478 0c23 0100     		.2byte	0x1
 9479 0c25 51       		.byte	0x51
 9480 0c26 12000000 		.4byte	.LVL197
 9481 0c2a 24000000 		.4byte	.LVL202
 9482 0c2e 0100     		.2byte	0x1
 9483 0c30 56       		.byte	0x56
 9484 0c31 24000000 		.4byte	.LVL202
 9485 0c35 26000000 		.4byte	.LFE86
 9486 0c39 0400     		.2byte	0x4
 9487 0c3b F3       		.byte	0xf3
 9488 0c3c 01       		.uleb128 0x1
 9489 0c3d 51       		.byte	0x51
 9490 0c3e 9F       		.byte	0x9f
 9491 0c3f 00000000 		.4byte	0
 9492 0c43 00000000 		.4byte	0
 9493              	.LLST85:
 9494 0c47 00000000 		.4byte	.LVL196
 9495 0c4b 12000000 		.4byte	.LVL197
 9496 0c4f 0100     		.2byte	0x1
 9497 0c51 52       		.byte	0x52
 9498 0c52 12000000 		.4byte	.LVL197
 9499 0c56 24000000 		.4byte	.LVL203
 9500 0c5a 0100     		.2byte	0x1
 9501 0c5c 57       		.byte	0x57
 9502 0c5d 24000000 		.4byte	.LVL203
 9503 0c61 26000000 		.4byte	.LFE86
 9504 0c65 0400     		.2byte	0x4
 9505 0c67 F3       		.byte	0xf3
 9506 0c68 01       		.uleb128 0x1
 9507 0c69 52       		.byte	0x52
 9508 0c6a 9F       		.byte	0x9f
 9509 0c6b 00000000 		.4byte	0
 9510 0c6f 00000000 		.4byte	0
 9511              	.LLST86:
 9512 0c73 12000000 		.4byte	.LVL197
 9513 0c77 24000000 		.4byte	.LVL200
 9514 0c7b 0100     		.2byte	0x1
 9515 0c7d 54       		.byte	0x54
 9516 0c7e 00000000 		.4byte	0
 9517 0c82 00000000 		.4byte	0
 9518              	.LLST87:
 9519 0c86 00000000 		.4byte	.LVL204
 9520 0c8a 18000000 		.4byte	.LVL207
 9521 0c8e 0100     		.2byte	0x1
 9522 0c90 50       		.byte	0x50
 9523 0c91 18000000 		.4byte	.LVL207
 9524 0c95 26000000 		.4byte	.LVL211
 9525 0c99 0100     		.2byte	0x1
 9526 0c9b 54       		.byte	0x54
 9527 0c9c 26000000 		.4byte	.LVL211
 9528 0ca0 28000000 		.4byte	.LVL212
 9529 0ca4 0100     		.2byte	0x1
 9530 0ca6 53       		.byte	0x53
 9531 0ca7 28000000 		.4byte	.LVL212
 9532 0cab 36000000 		.4byte	.LVL213
ARM GAS  C:\Users\Petro\AppData\Local\Temp\cchQWd3Z.s 			page 187


 9533 0caf 0100     		.2byte	0x1
 9534 0cb1 54       		.byte	0x54
 9535 0cb2 36000000 		.4byte	.LVL213
 9536 0cb6 38000000 		.4byte	.LVL214
 9537 0cba 0100     		.2byte	0x1
 9538 0cbc 53       		.byte	0x53
 9539 0cbd 38000000 		.4byte	.LVL214
 9540 0cc1 A8000000 		.4byte	.LVL231
 9541 0cc5 0100     		.2byte	0x1
 9542 0cc7 54       		.byte	0x54
 9543 0cc8 10010000 		.4byte	.LVL247
 9544 0ccc 22010000 		.4byte	.LVL250
 9545 0cd0 0100     		.2byte	0x1
 9546 0cd2 54       		.byte	0x54
 9547 0cd3 00000000 		.4byte	0
 9548 0cd7 00000000 		.4byte	0
 9549              	.LLST88:
 9550 0cdb 00000000 		.4byte	.LVL204
 9551 0cdf 18000000 		.4byte	.LVL207
 9552 0ce3 0100     		.2byte	0x1
 9553 0ce5 51       		.byte	0x51
 9554 0ce6 18000000 		.4byte	.LVL207
 9555 0cea 20000000 		.4byte	.LVL208
 9556 0cee 0100     		.2byte	0x1
 9557 0cf0 55       		.byte	0x55
 9558 0cf1 20000000 		.4byte	.LVL208
 9559 0cf5 24000000 		.4byte	.LVL210
 9560 0cf9 0100     		.2byte	0x1
 9561 0cfb 53       		.byte	0x53
 9562 0cfc 24000000 		.4byte	.LVL210
 9563 0d00 28000000 		.4byte	.LVL212
 9564 0d04 0100     		.2byte	0x1
 9565 0d06 56       		.byte	0x56
 9566 0d07 28000000 		.4byte	.LVL212
 9567 0d0b 52000000 		.4byte	.LVL218
 9568 0d0f 0100     		.2byte	0x1
 9569 0d11 55       		.byte	0x55
 9570 0d12 52000000 		.4byte	.LVL218
 9571 0d16 54000000 		.4byte	.LVL219
 9572 0d1a 0100     		.2byte	0x1
 9573 0d1c 53       		.byte	0x53
 9574 0d1d 54000000 		.4byte	.LVL219
 9575 0d21 A8000000 		.4byte	.LVL231
 9576 0d25 0100     		.2byte	0x1
 9577 0d27 55       		.byte	0x55
 9578 0d28 10010000 		.4byte	.LVL247
 9579 0d2c 22010000 		.4byte	.LVL250
 9580 0d30 0100     		.2byte	0x1
 9581 0d32 55       		.byte	0x55
 9582 0d33 00000000 		.4byte	0
 9583 0d37 00000000 		.4byte	0
 9584              	.LLST89:
 9585 0d3b 00000000 		.4byte	.LVL204
 9586 0d3f 18000000 		.4byte	.LVL207
 9587 0d43 0100     		.2byte	0x1
 9588 0d45 52       		.byte	0x52
 9589 0d46 18000000 		.4byte	.LVL207
ARM GAS  C:\Users\Petro\AppData\Local\Temp\cchQWd3Z.s 			page 188


 9590 0d4a 46000000 		.4byte	.LVL216
 9591 0d4e 0200     		.2byte	0x2
 9592 0d50 7D       		.byte	0x7d
 9593 0d51 00       		.sleb128 0
 9594 0d52 46000000 		.4byte	.LVL216
 9595 0d56 50000000 		.4byte	.LVL217
 9596 0d5a 0100     		.2byte	0x1
 9597 0d5c 53       		.byte	0x53
 9598 0d5d 50000000 		.4byte	.LVL217
 9599 0d61 60000000 		.4byte	.LVL221
 9600 0d65 0200     		.2byte	0x2
 9601 0d67 7D       		.byte	0x7d
 9602 0d68 00       		.sleb128 0
 9603 0d69 60000000 		.4byte	.LVL221
 9604 0d6d 62000000 		.4byte	.LVL222
 9605 0d71 0100     		.2byte	0x1
 9606 0d73 53       		.byte	0x53
 9607 0d74 62000000 		.4byte	.LVL222
 9608 0d78 22010000 		.4byte	.LVL250
 9609 0d7c 0200     		.2byte	0x2
 9610 0d7e 7D       		.byte	0x7d
 9611 0d7f 00       		.sleb128 0
 9612 0d80 00000000 		.4byte	0
 9613 0d84 00000000 		.4byte	0
 9614              	.LLST90:
 9615 0d88 00000000 		.4byte	.LVL204
 9616 0d8c 0E000000 		.4byte	.LVL205
 9617 0d90 0100     		.2byte	0x1
 9618 0d92 53       		.byte	0x53
 9619 0d93 0E000000 		.4byte	.LVL205
 9620 0d97 16000000 		.4byte	.LVL206
 9621 0d9b 0100     		.2byte	0x1
 9622 0d9d 56       		.byte	0x56
 9623 0d9e 16000000 		.4byte	.LVL206
 9624 0da2 18000000 		.4byte	.LVL207
 9625 0da6 0100     		.2byte	0x1
 9626 0da8 55       		.byte	0x55
 9627 0da9 18000000 		.4byte	.LVL207
 9628 0dad 22000000 		.4byte	.LVL209
 9629 0db1 0100     		.2byte	0x1
 9630 0db3 56       		.byte	0x56
 9631 0db4 22000000 		.4byte	.LVL209
 9632 0db8 28000000 		.4byte	.LVL212
 9633 0dbc 0100     		.2byte	0x1
 9634 0dbe 55       		.byte	0x55
 9635 0dbf 28000000 		.4byte	.LVL212
 9636 0dc3 80000000 		.4byte	.LVL224
 9637 0dc7 0100     		.2byte	0x1
 9638 0dc9 56       		.byte	0x56
 9639 0dca 10010000 		.4byte	.LVL247
 9640 0dce 6C010000 		.4byte	.LVL261
 9641 0dd2 0100     		.2byte	0x1
 9642 0dd4 56       		.byte	0x56
 9643 0dd5 00000000 		.4byte	0
 9644 0dd9 00000000 		.4byte	0
 9645              	.LLST91:
 9646 0ddd 98000000 		.4byte	.LVL227
ARM GAS  C:\Users\Petro\AppData\Local\Temp\cchQWd3Z.s 			page 189


 9647 0de1 9A000000 		.4byte	.LVL228
 9648 0de5 0600     		.2byte	0x6
 9649 0de7 50       		.byte	0x50
 9650 0de8 93       		.byte	0x93
 9651 0de9 04       		.uleb128 0x4
 9652 0dea 51       		.byte	0x51
 9653 0deb 93       		.byte	0x93
 9654 0dec 04       		.uleb128 0x4
 9655 0ded 9A000000 		.4byte	.LVL228
 9656 0df1 10010000 		.4byte	.LVL247
 9657 0df5 0200     		.2byte	0x2
 9658 0df7 91       		.byte	0x91
 9659 0df8 60       		.sleb128 -32
 9660 0df9 10010000 		.4byte	.LVL247
 9661 0dfd 6C010000 		.4byte	.LVL261
 9662 0e01 1100     		.2byte	0x11
 9663 0e03 91       		.byte	0x91
 9664 0e04 60       		.sleb128 -32
 9665 0e05 06       		.byte	0x6
 9666 0e06 F7       		.byte	0xf7
 9667 0e07 2C       		.uleb128 0x2c
 9668 0e08 F7       		.byte	0xf7
 9669 0e09 33       		.uleb128 0x33
 9670 0e0a 77       		.byte	0x77
 9671 0e0b 00       		.sleb128 0
 9672 0e0c F7       		.byte	0xf7
 9673 0e0d 2C       		.uleb128 0x2c
 9674 0e0e F7       		.byte	0xf7
 9675 0e0f 33       		.uleb128 0x33
 9676 0e10 1B       		.byte	0x1b
 9677 0e11 F7       		.byte	0xf7
 9678 0e12 25       		.uleb128 0x25
 9679 0e13 9F       		.byte	0x9f
 9680 0e14 00000000 		.4byte	0
 9681 0e18 00000000 		.4byte	0
 9682              	.LLST92:
 9683 0e1c 10010000 		.4byte	.LVL247
 9684 0e20 22010000 		.4byte	.LVL250
 9685 0e24 0900     		.2byte	0x9
 9686 0e26 74       		.byte	0x74
 9687 0e27 00       		.sleb128 0
 9688 0e28 F7       		.byte	0xf7
 9689 0e29 2C       		.uleb128 0x2c
 9690 0e2a F7       		.byte	0xf7
 9691 0e2b 33       		.uleb128 0x33
 9692 0e2c F7       		.byte	0xf7
 9693 0e2d 25       		.uleb128 0x25
 9694 0e2e 9F       		.byte	0x9f
 9695 0e2f 22010000 		.4byte	.LVL250
 9696 0e33 6A010000 		.4byte	.LVL260
 9697 0e37 0200     		.2byte	0x2
 9698 0e39 7D       		.byte	0x7d
 9699 0e3a 00       		.sleb128 0
 9700 0e3b 6A010000 		.4byte	.LVL260
 9701 0e3f 6C010000 		.4byte	.LVL261
 9702 0e43 0600     		.2byte	0x6
 9703 0e45 50       		.byte	0x50
ARM GAS  C:\Users\Petro\AppData\Local\Temp\cchQWd3Z.s 			page 190


 9704 0e46 93       		.byte	0x93
 9705 0e47 04       		.uleb128 0x4
 9706 0e48 51       		.byte	0x51
 9707 0e49 93       		.byte	0x93
 9708 0e4a 04       		.uleb128 0x4
 9709 0e4b 00000000 		.4byte	0
 9710 0e4f 00000000 		.4byte	0
 9711              	.LLST93:
 9712 0e53 A4000000 		.4byte	.LVL230
 9713 0e57 D4000000 		.4byte	.LVL237
 9714 0e5b 0600     		.2byte	0x6
 9715 0e5d 56       		.byte	0x56
 9716 0e5e 93       		.byte	0x93
 9717 0e5f 04       		.uleb128 0x4
 9718 0e60 57       		.byte	0x57
 9719 0e61 93       		.byte	0x93
 9720 0e62 04       		.uleb128 0x4
 9721 0e63 D6000000 		.4byte	.LVL238
 9722 0e67 08010000 		.4byte	.LVL245
 9723 0e6b 0600     		.2byte	0x6
 9724 0e6d 56       		.byte	0x56
 9725 0e6e 93       		.byte	0x93
 9726 0e6f 04       		.uleb128 0x4
 9727 0e70 57       		.byte	0x57
 9728 0e71 93       		.byte	0x93
 9729 0e72 04       		.uleb128 0x4
 9730 0e73 0A010000 		.4byte	.LVL246
 9731 0e77 10010000 		.4byte	.LVL247
 9732 0e7b 0600     		.2byte	0x6
 9733 0e7d 56       		.byte	0x56
 9734 0e7e 93       		.byte	0x93
 9735 0e7f 04       		.uleb128 0x4
 9736 0e80 57       		.byte	0x57
 9737 0e81 93       		.byte	0x93
 9738 0e82 04       		.uleb128 0x4
 9739 0e83 00000000 		.4byte	0
 9740 0e87 00000000 		.4byte	0
 9741              	.LLST94:
 9742 0e8b A8000000 		.4byte	.LVL231
 9743 0e8f D2000000 		.4byte	.LVL236
 9744 0e93 0100     		.2byte	0x1
 9745 0e95 54       		.byte	0x54
 9746 0e96 D2000000 		.4byte	.LVL236
 9747 0e9a D6000000 		.4byte	.LVL238
 9748 0e9e 0300     		.2byte	0x3
 9749 0ea0 74       		.byte	0x74
 9750 0ea1 01       		.sleb128 1
 9751 0ea2 9F       		.byte	0x9f
 9752 0ea3 D6000000 		.4byte	.LVL238
 9753 0ea7 DC000000 		.4byte	.LVL239
 9754 0eab 0100     		.2byte	0x1
 9755 0ead 54       		.byte	0x54
 9756 0eae 00000000 		.4byte	0
 9757 0eb2 00000000 		.4byte	0
 9758              	.LLST95:
 9759 0eb6 DC000000 		.4byte	.LVL239
 9760 0eba 06010000 		.4byte	.LVL244
ARM GAS  C:\Users\Petro\AppData\Local\Temp\cchQWd3Z.s 			page 191


 9761 0ebe 0100     		.2byte	0x1
 9762 0ec0 54       		.byte	0x54
 9763 0ec1 06010000 		.4byte	.LVL244
 9764 0ec5 0A010000 		.4byte	.LVL246
 9765 0ec9 0300     		.2byte	0x3
 9766 0ecb 74       		.byte	0x74
 9767 0ecc 7F       		.sleb128 -1
 9768 0ecd 9F       		.byte	0x9f
 9769 0ece 0A010000 		.4byte	.LVL246
 9770 0ed2 10010000 		.4byte	.LVL247
 9771 0ed6 0100     		.2byte	0x1
 9772 0ed8 54       		.byte	0x54
 9773 0ed9 00000000 		.4byte	0
 9774 0edd 00000000 		.4byte	0
 9775              	.LLST96:
 9776 0ee1 22010000 		.4byte	.LVL250
 9777 0ee5 66010000 		.4byte	.LVL259
 9778 0ee9 0100     		.2byte	0x1
 9779 0eeb 55       		.byte	0x55
 9780 0eec 66010000 		.4byte	.LVL259
 9781 0ef0 6A010000 		.4byte	.LVL260
 9782 0ef4 0300     		.2byte	0x3
 9783 0ef6 75       		.byte	0x75
 9784 0ef7 7F       		.sleb128 -1
 9785 0ef8 9F       		.byte	0x9f
 9786 0ef9 6A010000 		.4byte	.LVL260
 9787 0efd 6C010000 		.4byte	.LVL261
 9788 0f01 0100     		.2byte	0x1
 9789 0f03 55       		.byte	0x55
 9790 0f04 00000000 		.4byte	0
 9791 0f08 00000000 		.4byte	0
 9792              	.LLST97:
 9793 0f0c 00000000 		.4byte	.LVL262
 9794 0f10 18000000 		.4byte	.LVL265
 9795 0f14 0100     		.2byte	0x1
 9796 0f16 50       		.byte	0x50
 9797 0f17 18000000 		.4byte	.LVL265
 9798 0f1b 26000000 		.4byte	.LVL269
 9799 0f1f 0100     		.2byte	0x1
 9800 0f21 54       		.byte	0x54
 9801 0f22 26000000 		.4byte	.LVL269
 9802 0f26 28000000 		.4byte	.LVL270
 9803 0f2a 0100     		.2byte	0x1
 9804 0f2c 53       		.byte	0x53
 9805 0f2d 28000000 		.4byte	.LVL270
 9806 0f31 36000000 		.4byte	.LVL271
 9807 0f35 0100     		.2byte	0x1
 9808 0f37 54       		.byte	0x54
 9809 0f38 36000000 		.4byte	.LVL271
 9810 0f3c 38000000 		.4byte	.LVL272
 9811 0f40 0100     		.2byte	0x1
 9812 0f42 53       		.byte	0x53
 9813 0f43 38000000 		.4byte	.LVL272
 9814 0f47 A8000000 		.4byte	.LVL289
 9815 0f4b 0100     		.2byte	0x1
 9816 0f4d 54       		.byte	0x54
 9817 0f4e 10010000 		.4byte	.LVL305
ARM GAS  C:\Users\Petro\AppData\Local\Temp\cchQWd3Z.s 			page 192


 9818 0f52 22010000 		.4byte	.LVL308
 9819 0f56 0100     		.2byte	0x1
 9820 0f58 54       		.byte	0x54
 9821 0f59 00000000 		.4byte	0
 9822 0f5d 00000000 		.4byte	0
 9823              	.LLST98:
 9824 0f61 00000000 		.4byte	.LVL262
 9825 0f65 18000000 		.4byte	.LVL265
 9826 0f69 0100     		.2byte	0x1
 9827 0f6b 51       		.byte	0x51
 9828 0f6c 18000000 		.4byte	.LVL265
 9829 0f70 20000000 		.4byte	.LVL266
 9830 0f74 0100     		.2byte	0x1
 9831 0f76 55       		.byte	0x55
 9832 0f77 20000000 		.4byte	.LVL266
 9833 0f7b 24000000 		.4byte	.LVL268
 9834 0f7f 0100     		.2byte	0x1
 9835 0f81 53       		.byte	0x53
 9836 0f82 24000000 		.4byte	.LVL268
 9837 0f86 28000000 		.4byte	.LVL270
 9838 0f8a 0100     		.2byte	0x1
 9839 0f8c 56       		.byte	0x56
 9840 0f8d 28000000 		.4byte	.LVL270
 9841 0f91 52000000 		.4byte	.LVL276
 9842 0f95 0100     		.2byte	0x1
 9843 0f97 55       		.byte	0x55
 9844 0f98 52000000 		.4byte	.LVL276
 9845 0f9c 54000000 		.4byte	.LVL277
 9846 0fa0 0100     		.2byte	0x1
 9847 0fa2 53       		.byte	0x53
 9848 0fa3 54000000 		.4byte	.LVL277
 9849 0fa7 A8000000 		.4byte	.LVL289
 9850 0fab 0100     		.2byte	0x1
 9851 0fad 55       		.byte	0x55
 9852 0fae 10010000 		.4byte	.LVL305
 9853 0fb2 22010000 		.4byte	.LVL308
 9854 0fb6 0100     		.2byte	0x1
 9855 0fb8 55       		.byte	0x55
 9856 0fb9 00000000 		.4byte	0
 9857 0fbd 00000000 		.4byte	0
 9858              	.LLST99:
 9859 0fc1 00000000 		.4byte	.LVL262
 9860 0fc5 18000000 		.4byte	.LVL265
 9861 0fc9 0100     		.2byte	0x1
 9862 0fcb 52       		.byte	0x52
 9863 0fcc 18000000 		.4byte	.LVL265
 9864 0fd0 46000000 		.4byte	.LVL274
 9865 0fd4 0200     		.2byte	0x2
 9866 0fd6 7D       		.byte	0x7d
 9867 0fd7 00       		.sleb128 0
 9868 0fd8 46000000 		.4byte	.LVL274
 9869 0fdc 50000000 		.4byte	.LVL275
 9870 0fe0 0100     		.2byte	0x1
 9871 0fe2 53       		.byte	0x53
 9872 0fe3 50000000 		.4byte	.LVL275
 9873 0fe7 60000000 		.4byte	.LVL279
 9874 0feb 0200     		.2byte	0x2
ARM GAS  C:\Users\Petro\AppData\Local\Temp\cchQWd3Z.s 			page 193


 9875 0fed 7D       		.byte	0x7d
 9876 0fee 00       		.sleb128 0
 9877 0fef 60000000 		.4byte	.LVL279
 9878 0ff3 62000000 		.4byte	.LVL280
 9879 0ff7 0100     		.2byte	0x1
 9880 0ff9 53       		.byte	0x53
 9881 0ffa 62000000 		.4byte	.LVL280
 9882 0ffe 22010000 		.4byte	.LVL308
 9883 1002 0200     		.2byte	0x2
 9884 1004 7D       		.byte	0x7d
 9885 1005 00       		.sleb128 0
 9886 1006 00000000 		.4byte	0
 9887 100a 00000000 		.4byte	0
 9888              	.LLST100:
 9889 100e 00000000 		.4byte	.LVL262
 9890 1012 0E000000 		.4byte	.LVL263
 9891 1016 0100     		.2byte	0x1
 9892 1018 53       		.byte	0x53
 9893 1019 0E000000 		.4byte	.LVL263
 9894 101d 16000000 		.4byte	.LVL264
 9895 1021 0100     		.2byte	0x1
 9896 1023 56       		.byte	0x56
 9897 1024 16000000 		.4byte	.LVL264
 9898 1028 18000000 		.4byte	.LVL265
 9899 102c 0100     		.2byte	0x1
 9900 102e 55       		.byte	0x55
 9901 102f 18000000 		.4byte	.LVL265
 9902 1033 22000000 		.4byte	.LVL267
 9903 1037 0100     		.2byte	0x1
 9904 1039 56       		.byte	0x56
 9905 103a 22000000 		.4byte	.LVL267
 9906 103e 28000000 		.4byte	.LVL270
 9907 1042 0100     		.2byte	0x1
 9908 1044 55       		.byte	0x55
 9909 1045 28000000 		.4byte	.LVL270
 9910 1049 80000000 		.4byte	.LVL282
 9911 104d 0100     		.2byte	0x1
 9912 104f 56       		.byte	0x56
 9913 1050 10010000 		.4byte	.LVL305
 9914 1054 6C010000 		.4byte	.LVL319
 9915 1058 0100     		.2byte	0x1
 9916 105a 56       		.byte	0x56
 9917 105b 00000000 		.4byte	0
 9918 105f 00000000 		.4byte	0
 9919              	.LLST101:
 9920 1063 98000000 		.4byte	.LVL285
 9921 1067 9A000000 		.4byte	.LVL286
 9922 106b 0600     		.2byte	0x6
 9923 106d 50       		.byte	0x50
 9924 106e 93       		.byte	0x93
 9925 106f 04       		.uleb128 0x4
 9926 1070 51       		.byte	0x51
 9927 1071 93       		.byte	0x93
 9928 1072 04       		.uleb128 0x4
 9929 1073 9A000000 		.4byte	.LVL286
 9930 1077 10010000 		.4byte	.LVL305
 9931 107b 0200     		.2byte	0x2
ARM GAS  C:\Users\Petro\AppData\Local\Temp\cchQWd3Z.s 			page 194


 9932 107d 91       		.byte	0x91
 9933 107e 60       		.sleb128 -32
 9934 107f 10010000 		.4byte	.LVL305
 9935 1083 6C010000 		.4byte	.LVL319
 9936 1087 1100     		.2byte	0x11
 9937 1089 91       		.byte	0x91
 9938 108a 60       		.sleb128 -32
 9939 108b 06       		.byte	0x6
 9940 108c F7       		.byte	0xf7
 9941 108d 2C       		.uleb128 0x2c
 9942 108e F7       		.byte	0xf7
 9943 108f 33       		.uleb128 0x33
 9944 1090 77       		.byte	0x77
 9945 1091 00       		.sleb128 0
 9946 1092 F7       		.byte	0xf7
 9947 1093 2C       		.uleb128 0x2c
 9948 1094 F7       		.byte	0xf7
 9949 1095 33       		.uleb128 0x33
 9950 1096 1B       		.byte	0x1b
 9951 1097 F7       		.byte	0xf7
 9952 1098 25       		.uleb128 0x25
 9953 1099 9F       		.byte	0x9f
 9954 109a 00000000 		.4byte	0
 9955 109e 00000000 		.4byte	0
 9956              	.LLST102:
 9957 10a2 10010000 		.4byte	.LVL305
 9958 10a6 22010000 		.4byte	.LVL308
 9959 10aa 0900     		.2byte	0x9
 9960 10ac 74       		.byte	0x74
 9961 10ad 00       		.sleb128 0
 9962 10ae F7       		.byte	0xf7
 9963 10af 2C       		.uleb128 0x2c
 9964 10b0 F7       		.byte	0xf7
 9965 10b1 33       		.uleb128 0x33
 9966 10b2 F7       		.byte	0xf7
 9967 10b3 25       		.uleb128 0x25
 9968 10b4 9F       		.byte	0x9f
 9969 10b5 22010000 		.4byte	.LVL308
 9970 10b9 6A010000 		.4byte	.LVL318
 9971 10bd 0200     		.2byte	0x2
 9972 10bf 7D       		.byte	0x7d
 9973 10c0 00       		.sleb128 0
 9974 10c1 6A010000 		.4byte	.LVL318
 9975 10c5 6C010000 		.4byte	.LVL319
 9976 10c9 0600     		.2byte	0x6
 9977 10cb 50       		.byte	0x50
 9978 10cc 93       		.byte	0x93
 9979 10cd 04       		.uleb128 0x4
 9980 10ce 51       		.byte	0x51
 9981 10cf 93       		.byte	0x93
 9982 10d0 04       		.uleb128 0x4
 9983 10d1 00000000 		.4byte	0
 9984 10d5 00000000 		.4byte	0
 9985              	.LLST103:
 9986 10d9 A4000000 		.4byte	.LVL288
 9987 10dd D4000000 		.4byte	.LVL295
 9988 10e1 0600     		.2byte	0x6
ARM GAS  C:\Users\Petro\AppData\Local\Temp\cchQWd3Z.s 			page 195


 9989 10e3 56       		.byte	0x56
 9990 10e4 93       		.byte	0x93
 9991 10e5 04       		.uleb128 0x4
 9992 10e6 57       		.byte	0x57
 9993 10e7 93       		.byte	0x93
 9994 10e8 04       		.uleb128 0x4
 9995 10e9 D6000000 		.4byte	.LVL296
 9996 10ed 08010000 		.4byte	.LVL303
 9997 10f1 0600     		.2byte	0x6
 9998 10f3 56       		.byte	0x56
 9999 10f4 93       		.byte	0x93
 10000 10f5 04       		.uleb128 0x4
 10001 10f6 57       		.byte	0x57
 10002 10f7 93       		.byte	0x93
 10003 10f8 04       		.uleb128 0x4
 10004 10f9 0A010000 		.4byte	.LVL304
 10005 10fd 10010000 		.4byte	.LVL305
 10006 1101 0600     		.2byte	0x6
 10007 1103 56       		.byte	0x56
 10008 1104 93       		.byte	0x93
 10009 1105 04       		.uleb128 0x4
 10010 1106 57       		.byte	0x57
 10011 1107 93       		.byte	0x93
 10012 1108 04       		.uleb128 0x4
 10013 1109 00000000 		.4byte	0
 10014 110d 00000000 		.4byte	0
 10015              	.LLST104:
 10016 1111 A8000000 		.4byte	.LVL289
 10017 1115 D2000000 		.4byte	.LVL294
 10018 1119 0100     		.2byte	0x1
 10019 111b 54       		.byte	0x54
 10020 111c D2000000 		.4byte	.LVL294
 10021 1120 D6000000 		.4byte	.LVL296
 10022 1124 0300     		.2byte	0x3
 10023 1126 74       		.byte	0x74
 10024 1127 01       		.sleb128 1
 10025 1128 9F       		.byte	0x9f
 10026 1129 D6000000 		.4byte	.LVL296
 10027 112d DC000000 		.4byte	.LVL297
 10028 1131 0100     		.2byte	0x1
 10029 1133 54       		.byte	0x54
 10030 1134 00000000 		.4byte	0
 10031 1138 00000000 		.4byte	0
 10032              	.LLST105:
 10033 113c DC000000 		.4byte	.LVL297
 10034 1140 06010000 		.4byte	.LVL302
 10035 1144 0100     		.2byte	0x1
 10036 1146 54       		.byte	0x54
 10037 1147 06010000 		.4byte	.LVL302
 10038 114b 0A010000 		.4byte	.LVL304
 10039 114f 0300     		.2byte	0x3
 10040 1151 74       		.byte	0x74
 10041 1152 7F       		.sleb128 -1
 10042 1153 9F       		.byte	0x9f
 10043 1154 0A010000 		.4byte	.LVL304
 10044 1158 10010000 		.4byte	.LVL305
 10045 115c 0100     		.2byte	0x1
ARM GAS  C:\Users\Petro\AppData\Local\Temp\cchQWd3Z.s 			page 196


 10046 115e 54       		.byte	0x54
 10047 115f 00000000 		.4byte	0
 10048 1163 00000000 		.4byte	0
 10049              	.LLST106:
 10050 1167 22010000 		.4byte	.LVL308
 10051 116b 66010000 		.4byte	.LVL317
 10052 116f 0100     		.2byte	0x1
 10053 1171 55       		.byte	0x55
 10054 1172 66010000 		.4byte	.LVL317
 10055 1176 6A010000 		.4byte	.LVL318
 10056 117a 0300     		.2byte	0x3
 10057 117c 75       		.byte	0x75
 10058 117d 7F       		.sleb128 -1
 10059 117e 9F       		.byte	0x9f
 10060 117f 6A010000 		.4byte	.LVL318
 10061 1183 6C010000 		.4byte	.LVL319
 10062 1187 0100     		.2byte	0x1
 10063 1189 55       		.byte	0x55
 10064 118a 00000000 		.4byte	0
 10065 118e 00000000 		.4byte	0
 10066              	.LLST107:
 10067 1192 00000000 		.4byte	.LVL320
 10068 1196 12000000 		.4byte	.LVL321
 10069 119a 0100     		.2byte	0x1
 10070 119c 50       		.byte	0x50
 10071 119d 12000000 		.4byte	.LVL321
 10072 11a1 4A000000 		.4byte	.LVL330
 10073 11a5 0100     		.2byte	0x1
 10074 11a7 55       		.byte	0x55
 10075 11a8 00000000 		.4byte	0
 10076 11ac 00000000 		.4byte	0
 10077              	.LLST108:
 10078 11b0 00000000 		.4byte	.LVL320
 10079 11b4 1C000000 		.4byte	.LVL323
 10080 11b8 0100     		.2byte	0x1
 10081 11ba 51       		.byte	0x51
 10082 11bb 1C000000 		.4byte	.LVL323
 10083 11bf 4A000000 		.4byte	.LVL329
 10084 11c3 0100     		.2byte	0x1
 10085 11c5 54       		.byte	0x54
 10086 11c6 00000000 		.4byte	0
 10087 11ca 00000000 		.4byte	0
 10088              	.LLST109:
 10089 11ce 00000000 		.4byte	.LVL320
 10090 11d2 12000000 		.4byte	.LVL321
 10091 11d6 0100     		.2byte	0x1
 10092 11d8 52       		.byte	0x52
 10093 11d9 12000000 		.4byte	.LVL321
 10094 11dd 4A000000 		.4byte	.LVL331
 10095 11e1 0100     		.2byte	0x1
 10096 11e3 56       		.byte	0x56
 10097 11e4 00000000 		.4byte	0
 10098 11e8 00000000 		.4byte	0
 10099              	.LLST110:
 10100 11ec 00000000 		.4byte	.LVL320
 10101 11f0 18000000 		.4byte	.LVL322
 10102 11f4 0100     		.2byte	0x1
ARM GAS  C:\Users\Petro\AppData\Local\Temp\cchQWd3Z.s 			page 197


 10103 11f6 53       		.byte	0x53
 10104 11f7 18000000 		.4byte	.LVL322
 10105 11fb 32000000 		.4byte	.LVL325
 10106 11ff 0100     		.2byte	0x1
 10107 1201 57       		.byte	0x57
 10108 1202 32000000 		.4byte	.LVL325
 10109 1206 35000000 		.4byte	.LVL326-1
 10110 120a 0100     		.2byte	0x1
 10111 120c 51       		.byte	0x51
 10112 120d 00000000 		.4byte	0
 10113 1211 00000000 		.4byte	0
 10114              	.LLST111:
 10115 1215 00000000 		.4byte	.LVL332
 10116 1219 12000000 		.4byte	.LVL333
 10117 121d 0100     		.2byte	0x1
 10118 121f 50       		.byte	0x50
 10119 1220 12000000 		.4byte	.LVL333
 10120 1224 4A000000 		.4byte	.LVL342
 10121 1228 0100     		.2byte	0x1
 10122 122a 55       		.byte	0x55
 10123 122b 00000000 		.4byte	0
 10124 122f 00000000 		.4byte	0
 10125              	.LLST112:
 10126 1233 00000000 		.4byte	.LVL332
 10127 1237 1C000000 		.4byte	.LVL335
 10128 123b 0100     		.2byte	0x1
 10129 123d 51       		.byte	0x51
 10130 123e 1C000000 		.4byte	.LVL335
 10131 1242 4A000000 		.4byte	.LVL341
 10132 1246 0100     		.2byte	0x1
 10133 1248 54       		.byte	0x54
 10134 1249 00000000 		.4byte	0
 10135 124d 00000000 		.4byte	0
 10136              	.LLST113:
 10137 1251 00000000 		.4byte	.LVL332
 10138 1255 12000000 		.4byte	.LVL333
 10139 1259 0100     		.2byte	0x1
 10140 125b 52       		.byte	0x52
 10141 125c 12000000 		.4byte	.LVL333
 10142 1260 4A000000 		.4byte	.LVL343
 10143 1264 0100     		.2byte	0x1
 10144 1266 56       		.byte	0x56
 10145 1267 00000000 		.4byte	0
 10146 126b 00000000 		.4byte	0
 10147              	.LLST114:
 10148 126f 00000000 		.4byte	.LVL332
 10149 1273 18000000 		.4byte	.LVL334
 10150 1277 0100     		.2byte	0x1
 10151 1279 53       		.byte	0x53
 10152 127a 18000000 		.4byte	.LVL334
 10153 127e 32000000 		.4byte	.LVL337
 10154 1282 0100     		.2byte	0x1
 10155 1284 57       		.byte	0x57
 10156 1285 32000000 		.4byte	.LVL337
 10157 1289 35000000 		.4byte	.LVL338-1
 10158 128d 0100     		.2byte	0x1
 10159 128f 51       		.byte	0x51
ARM GAS  C:\Users\Petro\AppData\Local\Temp\cchQWd3Z.s 			page 198


 10160 1290 00000000 		.4byte	0
 10161 1294 00000000 		.4byte	0
 10162              	.LLST115:
 10163 1298 00000000 		.4byte	.LVL344
 10164 129c 14000000 		.4byte	.LVL345
 10165 12a0 0100     		.2byte	0x1
 10166 12a2 50       		.byte	0x50
 10167 12a3 14000000 		.4byte	.LVL345
 10168 12a7 A0000000 		.4byte	.LVL357
 10169 12ab 0100     		.2byte	0x1
 10170 12ad 55       		.byte	0x55
 10171 12ae 00000000 		.4byte	0
 10172 12b2 00000000 		.4byte	0
 10173              	.LLST116:
 10174 12b6 00000000 		.4byte	.LVL344
 10175 12ba 20000000 		.4byte	.LVL347
 10176 12be 0100     		.2byte	0x1
 10177 12c0 51       		.byte	0x51
 10178 12c1 20000000 		.4byte	.LVL347
 10179 12c5 88000000 		.4byte	.LVL354
 10180 12c9 0100     		.2byte	0x1
 10181 12cb 54       		.byte	0x54
 10182 12cc 88000000 		.4byte	.LVL354
 10183 12d0 9E000000 		.4byte	.LVL356
 10184 12d4 0300     		.2byte	0x3
 10185 12d6 74       		.byte	0x74
 10186 12d7 7E       		.sleb128 -2
 10187 12d8 9F       		.byte	0x9f
 10188 12d9 00000000 		.4byte	0
 10189 12dd 00000000 		.4byte	0
 10190              	.LLST117:
 10191 12e1 00000000 		.4byte	.LVL344
 10192 12e5 14000000 		.4byte	.LVL345
 10193 12e9 0100     		.2byte	0x1
 10194 12eb 52       		.byte	0x52
 10195 12ec 14000000 		.4byte	.LVL345
 10196 12f0 A2000000 		.4byte	.LFE91
 10197 12f4 0200     		.2byte	0x2
 10198 12f6 91       		.byte	0x91
 10199 12f7 54       		.sleb128 -44
 10200 12f8 00000000 		.4byte	0
 10201 12fc 00000000 		.4byte	0
 10202              	.LLST118:
 10203 1300 00000000 		.4byte	.LVL344
 10204 1304 16000000 		.4byte	.LVL346
 10205 1308 0100     		.2byte	0x1
 10206 130a 53       		.byte	0x53
 10207 130b 16000000 		.4byte	.LVL346
 10208 130f A2000000 		.4byte	.LFE91
 10209 1313 0200     		.2byte	0x2
 10210 1315 91       		.byte	0x91
 10211 1316 58       		.sleb128 -40
 10212 1317 00000000 		.4byte	0
 10213 131b 00000000 		.4byte	0
 10214              	.LLST119:
 10215 131f 00000000 		.4byte	.LVL358
 10216 1323 14000000 		.4byte	.LVL359
ARM GAS  C:\Users\Petro\AppData\Local\Temp\cchQWd3Z.s 			page 199


 10217 1327 0100     		.2byte	0x1
 10218 1329 50       		.byte	0x50
 10219 132a 14000000 		.4byte	.LVL359
 10220 132e A0000000 		.4byte	.LVL371
 10221 1332 0100     		.2byte	0x1
 10222 1334 55       		.byte	0x55
 10223 1335 00000000 		.4byte	0
 10224 1339 00000000 		.4byte	0
 10225              	.LLST120:
 10226 133d 00000000 		.4byte	.LVL358
 10227 1341 20000000 		.4byte	.LVL361
 10228 1345 0100     		.2byte	0x1
 10229 1347 51       		.byte	0x51
 10230 1348 20000000 		.4byte	.LVL361
 10231 134c 88000000 		.4byte	.LVL368
 10232 1350 0100     		.2byte	0x1
 10233 1352 54       		.byte	0x54
 10234 1353 88000000 		.4byte	.LVL368
 10235 1357 9E000000 		.4byte	.LVL370
 10236 135b 0300     		.2byte	0x3
 10237 135d 74       		.byte	0x74
 10238 135e 7E       		.sleb128 -2
 10239 135f 9F       		.byte	0x9f
 10240 1360 00000000 		.4byte	0
 10241 1364 00000000 		.4byte	0
 10242              	.LLST121:
 10243 1368 00000000 		.4byte	.LVL358
 10244 136c 14000000 		.4byte	.LVL359
 10245 1370 0100     		.2byte	0x1
 10246 1372 52       		.byte	0x52
 10247 1373 14000000 		.4byte	.LVL359
 10248 1377 A2000000 		.4byte	.LFE92
 10249 137b 0200     		.2byte	0x2
 10250 137d 91       		.byte	0x91
 10251 137e 54       		.sleb128 -44
 10252 137f 00000000 		.4byte	0
 10253 1383 00000000 		.4byte	0
 10254              	.LLST122:
 10255 1387 00000000 		.4byte	.LVL358
 10256 138b 16000000 		.4byte	.LVL360
 10257 138f 0100     		.2byte	0x1
 10258 1391 53       		.byte	0x53
 10259 1392 16000000 		.4byte	.LVL360
 10260 1396 A2000000 		.4byte	.LFE92
 10261 139a 0200     		.2byte	0x2
 10262 139c 91       		.byte	0x91
 10263 139d 58       		.sleb128 -40
 10264 139e 00000000 		.4byte	0
 10265 13a2 00000000 		.4byte	0
 10266              	.LLST123:
 10267 13a6 00000000 		.4byte	.LVL372
 10268 13aa 22000000 		.4byte	.LVL379
 10269 13ae 0100     		.2byte	0x1
 10270 13b0 50       		.byte	0x50
 10271 13b1 22000000 		.4byte	.LVL379
 10272 13b5 06010000 		.4byte	.LFE93
 10273 13b9 0400     		.2byte	0x4
ARM GAS  C:\Users\Petro\AppData\Local\Temp\cchQWd3Z.s 			page 200


 10274 13bb F3       		.byte	0xf3
 10275 13bc 01       		.uleb128 0x1
 10276 13bd 50       		.byte	0x50
 10277 13be 9F       		.byte	0x9f
 10278 13bf 00000000 		.4byte	0
 10279 13c3 00000000 		.4byte	0
 10280              	.LLST124:
 10281 13c7 00000000 		.4byte	.LVL372
 10282 13cb 1E000000 		.4byte	.LVL378
 10283 13cf 0100     		.2byte	0x1
 10284 13d1 51       		.byte	0x51
 10285 13d2 1E000000 		.4byte	.LVL378
 10286 13d6 06010000 		.4byte	.LFE93
 10287 13da 0400     		.2byte	0x4
 10288 13dc F3       		.byte	0xf3
 10289 13dd 01       		.uleb128 0x1
 10290 13de 51       		.byte	0x51
 10291 13df 9F       		.byte	0x9f
 10292 13e0 00000000 		.4byte	0
 10293 13e4 00000000 		.4byte	0
 10294              	.LLST125:
 10295 13e8 00000000 		.4byte	.LVL372
 10296 13ec 25000000 		.4byte	.LVL380-1
 10297 13f0 0100     		.2byte	0x1
 10298 13f2 52       		.byte	0x52
 10299 13f3 25000000 		.4byte	.LVL380-1
 10300 13f7 4C000000 		.4byte	.LVL384
 10301 13fb 0200     		.2byte	0x2
 10302 13fd 91       		.byte	0x91
 10303 13fe 50       		.sleb128 -48
 10304 13ff 4C000000 		.4byte	.LVL384
 10305 1403 06010000 		.4byte	.LFE93
 10306 1407 0400     		.2byte	0x4
 10307 1409 F3       		.byte	0xf3
 10308 140a 01       		.uleb128 0x1
 10309 140b 52       		.byte	0x52
 10310 140c 9F       		.byte	0x9f
 10311 140d 00000000 		.4byte	0
 10312 1411 00000000 		.4byte	0
 10313              	.LLST126:
 10314 1415 0A000000 		.4byte	.LVL373
 10315 1419 0C000000 		.4byte	.LVL374
 10316 141d 0100     		.2byte	0x1
 10317 141f 53       		.byte	0x53
 10318 1420 0C000000 		.4byte	.LVL374
 10319 1424 80000000 		.4byte	.LVL394
 10320 1428 0200     		.2byte	0x2
 10321 142a 91       		.byte	0x91
 10322 142b 54       		.sleb128 -44
 10323 142c 80000000 		.4byte	.LVL394
 10324 1430 82000000 		.4byte	.LVL395
 10325 1434 0100     		.2byte	0x1
 10326 1436 53       		.byte	0x53
 10327 1437 82000000 		.4byte	.LVL395
 10328 143b 06010000 		.4byte	.LFE93
 10329 143f 0200     		.2byte	0x2
 10330 1441 91       		.byte	0x91
ARM GAS  C:\Users\Petro\AppData\Local\Temp\cchQWd3Z.s 			page 201


 10331 1442 54       		.sleb128 -44
 10332 1443 00000000 		.4byte	0
 10333 1447 00000000 		.4byte	0
 10334              	.LLST127:
 10335 144b 0A000000 		.4byte	.LVL373
 10336 144f 4C000000 		.4byte	.LVL384
 10337 1453 0200     		.2byte	0x2
 10338 1455 31       		.byte	0x31
 10339 1456 9F       		.byte	0x9f
 10340 1457 4C000000 		.4byte	.LVL384
 10341 145b 78000000 		.4byte	.LVL390
 10342 145f 0800     		.2byte	0x8
 10343 1461 91       		.byte	0x91
 10344 1462 58       		.sleb128 -40
 10345 1463 06       		.byte	0x6
 10346 1464 31       		.byte	0x31
 10347 1465 24       		.byte	0x24
 10348 1466 23       		.byte	0x23
 10349 1467 01       		.uleb128 0x1
 10350 1468 9F       		.byte	0x9f
 10351 1469 78000000 		.4byte	.LVL390
 10352 146d 7A000000 		.4byte	.LVL391
 10353 1471 0700     		.2byte	0x7
 10354 1473 73       		.byte	0x73
 10355 1474 00       		.sleb128 0
 10356 1475 31       		.byte	0x31
 10357 1476 24       		.byte	0x24
 10358 1477 23       		.byte	0x23
 10359 1478 01       		.uleb128 0x1
 10360 1479 9F       		.byte	0x9f
 10361 147a 7A000000 		.4byte	.LVL391
 10362 147e 7C000000 		.4byte	.LVL392
 10363 1482 0800     		.2byte	0x8
 10364 1484 91       		.byte	0x91
 10365 1485 58       		.sleb128 -40
 10366 1486 06       		.byte	0x6
 10367 1487 31       		.byte	0x31
 10368 1488 24       		.byte	0x24
 10369 1489 23       		.byte	0x23
 10370 148a 01       		.uleb128 0x1
 10371 148b 9F       		.byte	0x9f
 10372 148c 7C000000 		.4byte	.LVL392
 10373 1490 7E000000 		.4byte	.LVL393
 10374 1494 0100     		.2byte	0x1
 10375 1496 53       		.byte	0x53
 10376 1497 7E000000 		.4byte	.LVL393
 10377 149b 02010000 		.4byte	.LVL404
 10378 149f 0800     		.2byte	0x8
 10379 14a1 91       		.byte	0x91
 10380 14a2 58       		.sleb128 -40
 10381 14a3 06       		.byte	0x6
 10382 14a4 31       		.byte	0x31
 10383 14a5 24       		.byte	0x24
 10384 14a6 23       		.byte	0x23
 10385 14a7 01       		.uleb128 0x1
 10386 14a8 9F       		.byte	0x9f
 10387 14a9 02010000 		.4byte	.LVL404
ARM GAS  C:\Users\Petro\AppData\Local\Temp\cchQWd3Z.s 			page 202


 10388 14ad 06010000 		.4byte	.LFE93
 10389 14b1 0700     		.2byte	0x7
 10390 14b3 73       		.byte	0x73
 10391 14b4 00       		.sleb128 0
 10392 14b5 31       		.byte	0x31
 10393 14b6 24       		.byte	0x24
 10394 14b7 23       		.byte	0x23
 10395 14b8 01       		.uleb128 0x1
 10396 14b9 9F       		.byte	0x9f
 10397 14ba 00000000 		.4byte	0
 10398 14be 00000000 		.4byte	0
 10399              	.LLST128:
 10400 14c2 10000000 		.4byte	.LVL375
 10401 14c6 12000000 		.4byte	.LVL376
 10402 14ca 0100     		.2byte	0x1
 10403 14cc 53       		.byte	0x53
 10404 14cd 12000000 		.4byte	.LVL376
 10405 14d1 66000000 		.4byte	.LVL387
 10406 14d5 0200     		.2byte	0x2
 10407 14d7 91       		.byte	0x91
 10408 14d8 64       		.sleb128 -28
 10409 14d9 66000000 		.4byte	.LVL387
 10410 14dd 6A000000 		.4byte	.LVL388
 10411 14e1 0100     		.2byte	0x1
 10412 14e3 53       		.byte	0x53
 10413 14e4 6A000000 		.4byte	.LVL388
 10414 14e8 70000000 		.4byte	.LVL389
 10415 14ec 0100     		.2byte	0x1
 10416 14ee 52       		.byte	0x52
 10417 14ef 70000000 		.4byte	.LVL389
 10418 14f3 06010000 		.4byte	.LFE93
 10419 14f7 0200     		.2byte	0x2
 10420 14f9 91       		.byte	0x91
 10421 14fa 64       		.sleb128 -28
 10422 14fb 00000000 		.4byte	0
 10423 14ff 00000000 		.4byte	0
 10424              	.LLST129:
 10425 1503 10000000 		.4byte	.LVL375
 10426 1507 4C000000 		.4byte	.LVL384
 10427 150b 0200     		.2byte	0x2
 10428 150d 30       		.byte	0x30
 10429 150e 9F       		.byte	0x9f
 10430 150f 4C000000 		.4byte	.LVL384
 10431 1513 78000000 		.4byte	.LVL390
 10432 1517 0200     		.2byte	0x2
 10433 1519 91       		.byte	0x91
 10434 151a 58       		.sleb128 -40
 10435 151b 78000000 		.4byte	.LVL390
 10436 151f 7A000000 		.4byte	.LVL391
 10437 1523 0100     		.2byte	0x1
 10438 1525 53       		.byte	0x53
 10439 1526 7A000000 		.4byte	.LVL391
 10440 152a 02010000 		.4byte	.LVL404
 10441 152e 0200     		.2byte	0x2
 10442 1530 91       		.byte	0x91
 10443 1531 58       		.sleb128 -40
 10444 1532 02010000 		.4byte	.LVL404
ARM GAS  C:\Users\Petro\AppData\Local\Temp\cchQWd3Z.s 			page 203


 10445 1536 06010000 		.4byte	.LFE93
 10446 153a 0100     		.2byte	0x1
 10447 153c 53       		.byte	0x53
 10448 153d 00000000 		.4byte	0
 10449 1541 00000000 		.4byte	0
 10450              	.LLST130:
 10451 1545 10000000 		.4byte	.LVL375
 10452 1549 18000000 		.4byte	.LVL377
 10453 154d 0200     		.2byte	0x2
 10454 154f 91       		.byte	0x91
 10455 1550 50       		.sleb128 -48
 10456 1551 4C000000 		.4byte	.LVL384
 10457 1555 60000000 		.4byte	.LVL385
 10458 1559 0200     		.2byte	0x2
 10459 155b 91       		.byte	0x91
 10460 155c 50       		.sleb128 -48
 10461 155d 60000000 		.4byte	.LVL385
 10462 1561 62000000 		.4byte	.LVL386
 10463 1565 0100     		.2byte	0x1
 10464 1567 53       		.byte	0x53
 10465 1568 62000000 		.4byte	.LVL386
 10466 156c 02010000 		.4byte	.LVL404
 10467 1570 0200     		.2byte	0x2
 10468 1572 91       		.byte	0x91
 10469 1573 50       		.sleb128 -48
 10470 1574 02010000 		.4byte	.LVL404
 10471 1578 06010000 		.4byte	.LFE93
 10472 157c 0100     		.2byte	0x1
 10473 157e 52       		.byte	0x52
 10474 157f 00000000 		.4byte	0
 10475 1583 00000000 		.4byte	0
 10476              	.LLST131:
 10477 1587 00000000 		.4byte	.LVL405
 10478 158b 22000000 		.4byte	.LVL412
 10479 158f 0100     		.2byte	0x1
 10480 1591 50       		.byte	0x50
 10481 1592 22000000 		.4byte	.LVL412
 10482 1596 06010000 		.4byte	.LFE94
 10483 159a 0400     		.2byte	0x4
 10484 159c F3       		.byte	0xf3
 10485 159d 01       		.uleb128 0x1
 10486 159e 50       		.byte	0x50
 10487 159f 9F       		.byte	0x9f
 10488 15a0 00000000 		.4byte	0
 10489 15a4 00000000 		.4byte	0
 10490              	.LLST132:
 10491 15a8 00000000 		.4byte	.LVL405
 10492 15ac 1E000000 		.4byte	.LVL411
 10493 15b0 0100     		.2byte	0x1
 10494 15b2 51       		.byte	0x51
 10495 15b3 1E000000 		.4byte	.LVL411
 10496 15b7 06010000 		.4byte	.LFE94
 10497 15bb 0400     		.2byte	0x4
 10498 15bd F3       		.byte	0xf3
 10499 15be 01       		.uleb128 0x1
 10500 15bf 51       		.byte	0x51
 10501 15c0 9F       		.byte	0x9f
ARM GAS  C:\Users\Petro\AppData\Local\Temp\cchQWd3Z.s 			page 204


 10502 15c1 00000000 		.4byte	0
 10503 15c5 00000000 		.4byte	0
 10504              	.LLST133:
 10505 15c9 00000000 		.4byte	.LVL405
 10506 15cd 25000000 		.4byte	.LVL413-1
 10507 15d1 0100     		.2byte	0x1
 10508 15d3 52       		.byte	0x52
 10509 15d4 25000000 		.4byte	.LVL413-1
 10510 15d8 4C000000 		.4byte	.LVL417
 10511 15dc 0200     		.2byte	0x2
 10512 15de 91       		.byte	0x91
 10513 15df 50       		.sleb128 -48
 10514 15e0 4C000000 		.4byte	.LVL417
 10515 15e4 06010000 		.4byte	.LFE94
 10516 15e8 0400     		.2byte	0x4
 10517 15ea F3       		.byte	0xf3
 10518 15eb 01       		.uleb128 0x1
 10519 15ec 52       		.byte	0x52
 10520 15ed 9F       		.byte	0x9f
 10521 15ee 00000000 		.4byte	0
 10522 15f2 00000000 		.4byte	0
 10523              	.LLST134:
 10524 15f6 0A000000 		.4byte	.LVL406
 10525 15fa 0C000000 		.4byte	.LVL407
 10526 15fe 0100     		.2byte	0x1
 10527 1600 53       		.byte	0x53
 10528 1601 0C000000 		.4byte	.LVL407
 10529 1605 80000000 		.4byte	.LVL427
 10530 1609 0200     		.2byte	0x2
 10531 160b 91       		.byte	0x91
 10532 160c 54       		.sleb128 -44
 10533 160d 80000000 		.4byte	.LVL427
 10534 1611 82000000 		.4byte	.LVL428
 10535 1615 0100     		.2byte	0x1
 10536 1617 53       		.byte	0x53
 10537 1618 82000000 		.4byte	.LVL428
 10538 161c 06010000 		.4byte	.LFE94
 10539 1620 0200     		.2byte	0x2
 10540 1622 91       		.byte	0x91
 10541 1623 54       		.sleb128 -44
 10542 1624 00000000 		.4byte	0
 10543 1628 00000000 		.4byte	0
 10544              	.LLST135:
 10545 162c 0A000000 		.4byte	.LVL406
 10546 1630 4C000000 		.4byte	.LVL417
 10547 1634 0200     		.2byte	0x2
 10548 1636 31       		.byte	0x31
 10549 1637 9F       		.byte	0x9f
 10550 1638 4C000000 		.4byte	.LVL417
 10551 163c 78000000 		.4byte	.LVL423
 10552 1640 0800     		.2byte	0x8
 10553 1642 91       		.byte	0x91
 10554 1643 58       		.sleb128 -40
 10555 1644 06       		.byte	0x6
 10556 1645 31       		.byte	0x31
 10557 1646 24       		.byte	0x24
 10558 1647 23       		.byte	0x23
ARM GAS  C:\Users\Petro\AppData\Local\Temp\cchQWd3Z.s 			page 205


 10559 1648 01       		.uleb128 0x1
 10560 1649 9F       		.byte	0x9f
 10561 164a 78000000 		.4byte	.LVL423
 10562 164e 7A000000 		.4byte	.LVL424
 10563 1652 0700     		.2byte	0x7
 10564 1654 73       		.byte	0x73
 10565 1655 00       		.sleb128 0
 10566 1656 31       		.byte	0x31
 10567 1657 24       		.byte	0x24
 10568 1658 23       		.byte	0x23
 10569 1659 01       		.uleb128 0x1
 10570 165a 9F       		.byte	0x9f
 10571 165b 7A000000 		.4byte	.LVL424
 10572 165f 7C000000 		.4byte	.LVL425
 10573 1663 0800     		.2byte	0x8
 10574 1665 91       		.byte	0x91
 10575 1666 58       		.sleb128 -40
 10576 1667 06       		.byte	0x6
 10577 1668 31       		.byte	0x31
 10578 1669 24       		.byte	0x24
 10579 166a 23       		.byte	0x23
 10580 166b 01       		.uleb128 0x1
 10581 166c 9F       		.byte	0x9f
 10582 166d 7C000000 		.4byte	.LVL425
 10583 1671 7E000000 		.4byte	.LVL426
 10584 1675 0100     		.2byte	0x1
 10585 1677 53       		.byte	0x53
 10586 1678 7E000000 		.4byte	.LVL426
 10587 167c 02010000 		.4byte	.LVL437
 10588 1680 0800     		.2byte	0x8
 10589 1682 91       		.byte	0x91
 10590 1683 58       		.sleb128 -40
 10591 1684 06       		.byte	0x6
 10592 1685 31       		.byte	0x31
 10593 1686 24       		.byte	0x24
 10594 1687 23       		.byte	0x23
 10595 1688 01       		.uleb128 0x1
 10596 1689 9F       		.byte	0x9f
 10597 168a 02010000 		.4byte	.LVL437
 10598 168e 06010000 		.4byte	.LFE94
 10599 1692 0700     		.2byte	0x7
 10600 1694 73       		.byte	0x73
 10601 1695 00       		.sleb128 0
 10602 1696 31       		.byte	0x31
 10603 1697 24       		.byte	0x24
 10604 1698 23       		.byte	0x23
 10605 1699 01       		.uleb128 0x1
 10606 169a 9F       		.byte	0x9f
 10607 169b 00000000 		.4byte	0
 10608 169f 00000000 		.4byte	0
 10609              	.LLST136:
 10610 16a3 10000000 		.4byte	.LVL408
 10611 16a7 12000000 		.4byte	.LVL409
 10612 16ab 0100     		.2byte	0x1
 10613 16ad 53       		.byte	0x53
 10614 16ae 12000000 		.4byte	.LVL409
 10615 16b2 66000000 		.4byte	.LVL420
ARM GAS  C:\Users\Petro\AppData\Local\Temp\cchQWd3Z.s 			page 206


 10616 16b6 0200     		.2byte	0x2
 10617 16b8 91       		.byte	0x91
 10618 16b9 64       		.sleb128 -28
 10619 16ba 66000000 		.4byte	.LVL420
 10620 16be 6A000000 		.4byte	.LVL421
 10621 16c2 0100     		.2byte	0x1
 10622 16c4 53       		.byte	0x53
 10623 16c5 6A000000 		.4byte	.LVL421
 10624 16c9 70000000 		.4byte	.LVL422
 10625 16cd 0100     		.2byte	0x1
 10626 16cf 52       		.byte	0x52
 10627 16d0 70000000 		.4byte	.LVL422
 10628 16d4 06010000 		.4byte	.LFE94
 10629 16d8 0200     		.2byte	0x2
 10630 16da 91       		.byte	0x91
 10631 16db 64       		.sleb128 -28
 10632 16dc 00000000 		.4byte	0
 10633 16e0 00000000 		.4byte	0
 10634              	.LLST137:
 10635 16e4 10000000 		.4byte	.LVL408
 10636 16e8 4C000000 		.4byte	.LVL417
 10637 16ec 0200     		.2byte	0x2
 10638 16ee 30       		.byte	0x30
 10639 16ef 9F       		.byte	0x9f
 10640 16f0 4C000000 		.4byte	.LVL417
 10641 16f4 78000000 		.4byte	.LVL423
 10642 16f8 0200     		.2byte	0x2
 10643 16fa 91       		.byte	0x91
 10644 16fb 58       		.sleb128 -40
 10645 16fc 78000000 		.4byte	.LVL423
 10646 1700 7A000000 		.4byte	.LVL424
 10647 1704 0100     		.2byte	0x1
 10648 1706 53       		.byte	0x53
 10649 1707 7A000000 		.4byte	.LVL424
 10650 170b 02010000 		.4byte	.LVL437
 10651 170f 0200     		.2byte	0x2
 10652 1711 91       		.byte	0x91
 10653 1712 58       		.sleb128 -40
 10654 1713 02010000 		.4byte	.LVL437
 10655 1717 06010000 		.4byte	.LFE94
 10656 171b 0100     		.2byte	0x1
 10657 171d 53       		.byte	0x53
 10658 171e 00000000 		.4byte	0
 10659 1722 00000000 		.4byte	0
 10660              	.LLST138:
 10661 1726 10000000 		.4byte	.LVL408
 10662 172a 18000000 		.4byte	.LVL410
 10663 172e 0200     		.2byte	0x2
 10664 1730 91       		.byte	0x91
 10665 1731 50       		.sleb128 -48
 10666 1732 4C000000 		.4byte	.LVL417
 10667 1736 60000000 		.4byte	.LVL418
 10668 173a 0200     		.2byte	0x2
 10669 173c 91       		.byte	0x91
 10670 173d 50       		.sleb128 -48
 10671 173e 60000000 		.4byte	.LVL418
 10672 1742 62000000 		.4byte	.LVL419
ARM GAS  C:\Users\Petro\AppData\Local\Temp\cchQWd3Z.s 			page 207


 10673 1746 0100     		.2byte	0x1
 10674 1748 53       		.byte	0x53
 10675 1749 62000000 		.4byte	.LVL419
 10676 174d 02010000 		.4byte	.LVL437
 10677 1751 0200     		.2byte	0x2
 10678 1753 91       		.byte	0x91
 10679 1754 50       		.sleb128 -48
 10680 1755 02010000 		.4byte	.LVL437
 10681 1759 06010000 		.4byte	.LFE94
 10682 175d 0100     		.2byte	0x1
 10683 175f 52       		.byte	0x52
 10684 1760 00000000 		.4byte	0
 10685 1764 00000000 		.4byte	0
 10686              	.LLST139:
 10687 1768 00000000 		.4byte	.LVL438
 10688 176c 0E000000 		.4byte	.LVL439
 10689 1770 0100     		.2byte	0x1
 10690 1772 50       		.byte	0x50
 10691 1773 0E000000 		.4byte	.LVL439
 10692 1777 70000000 		.4byte	.LFE95
 10693 177b 0200     		.2byte	0x2
 10694 177d 91       		.byte	0x91
 10695 177e 60       		.sleb128 -32
 10696 177f 00000000 		.4byte	0
 10697 1783 00000000 		.4byte	0
 10698              	.LLST140:
 10699 1787 00000000 		.4byte	.LVL438
 10700 178b 0E000000 		.4byte	.LVL439
 10701 178f 0100     		.2byte	0x1
 10702 1791 51       		.byte	0x51
 10703 1792 0E000000 		.4byte	.LVL439
 10704 1796 68000000 		.4byte	.LVL451
 10705 179a 0100     		.2byte	0x1
 10706 179c 57       		.byte	0x57
 10707 179d 68000000 		.4byte	.LVL451
 10708 17a1 70000000 		.4byte	.LFE95
 10709 17a5 0400     		.2byte	0x4
 10710 17a7 F3       		.byte	0xf3
 10711 17a8 01       		.uleb128 0x1
 10712 17a9 51       		.byte	0x51
 10713 17aa 9F       		.byte	0x9f
 10714 17ab 00000000 		.4byte	0
 10715 17af 00000000 		.4byte	0
 10716              	.LLST141:
 10717 17b3 00000000 		.4byte	.LVL438
 10718 17b7 0E000000 		.4byte	.LVL439
 10719 17bb 0100     		.2byte	0x1
 10720 17bd 52       		.byte	0x52
 10721 17be 0E000000 		.4byte	.LVL439
 10722 17c2 70000000 		.4byte	.LFE95
 10723 17c6 0200     		.2byte	0x2
 10724 17c8 91       		.byte	0x91
 10725 17c9 64       		.sleb128 -28
 10726 17ca 00000000 		.4byte	0
 10727 17ce 00000000 		.4byte	0
 10728              	.LLST142:
 10729 17d2 00000000 		.4byte	.LVL438
ARM GAS  C:\Users\Petro\AppData\Local\Temp\cchQWd3Z.s 			page 208


 10730 17d6 0E000000 		.4byte	.LVL439
 10731 17da 0100     		.2byte	0x1
 10732 17dc 53       		.byte	0x53
 10733 17dd 0E000000 		.4byte	.LVL439
 10734 17e1 68000000 		.4byte	.LVL450
 10735 17e5 0100     		.2byte	0x1
 10736 17e7 56       		.byte	0x56
 10737 17e8 68000000 		.4byte	.LVL450
 10738 17ec 70000000 		.4byte	.LFE95
 10739 17f0 0400     		.2byte	0x4
 10740 17f2 F3       		.byte	0xf3
 10741 17f3 01       		.uleb128 0x1
 10742 17f4 53       		.byte	0x53
 10743 17f5 9F       		.byte	0x9f
 10744 17f6 00000000 		.4byte	0
 10745 17fa 00000000 		.4byte	0
 10746              	.LLST143:
 10747 17fe 14000000 		.4byte	.LVL440
 10748 1802 64000000 		.4byte	.LVL447
 10749 1806 0900     		.2byte	0x9
 10750 1808 74       		.byte	0x74
 10751 1809 00       		.sleb128 0
 10752 180a 38       		.byte	0x38
 10753 180b 14       		.byte	0x14
 10754 180c 14       		.byte	0x14
 10755 180d 1B       		.byte	0x1b
 10756 180e 1E       		.byte	0x1e
 10757 180f 1C       		.byte	0x1c
 10758 1810 9F       		.byte	0x9f
 10759 1811 64000000 		.4byte	.LVL447
 10760 1815 66000000 		.4byte	.LVL448
 10761 1819 0900     		.2byte	0x9
 10762 181b 74       		.byte	0x74
 10763 181c 7F       		.sleb128 -1
 10764 181d 38       		.byte	0x38
 10765 181e 14       		.byte	0x14
 10766 181f 14       		.byte	0x14
 10767 1820 1B       		.byte	0x1b
 10768 1821 1E       		.byte	0x1e
 10769 1822 1C       		.byte	0x1c
 10770 1823 9F       		.byte	0x9f
 10771 1824 00000000 		.4byte	0
 10772 1828 00000000 		.4byte	0
 10773              	.LLST144:
 10774 182c 3C000000 		.4byte	.LVL442
 10775 1830 57000000 		.4byte	.LVL443-1
 10776 1834 0A00     		.2byte	0xa
 10777 1836 91       		.byte	0x91
 10778 1837 64       		.sleb128 -28
 10779 1838 06       		.byte	0x6
 10780 1839 91       		.byte	0x91
 10781 183a 5C       		.sleb128 -36
 10782 183b 06       		.byte	0x6
 10783 183c 22       		.byte	0x22
 10784 183d 75       		.byte	0x75
 10785 183e 00       		.sleb128 0
 10786 183f 22       		.byte	0x22
ARM GAS  C:\Users\Petro\AppData\Local\Temp\cchQWd3Z.s 			page 209


 10787 1840 5A000000 		.4byte	.LVL444
 10788 1844 5D000000 		.4byte	.LVL445-1
 10789 1848 0A00     		.2byte	0xa
 10790 184a 91       		.byte	0x91
 10791 184b 64       		.sleb128 -28
 10792 184c 06       		.byte	0x6
 10793 184d 91       		.byte	0x91
 10794 184e 5C       		.sleb128 -36
 10795 184f 06       		.byte	0x6
 10796 1850 22       		.byte	0x22
 10797 1851 75       		.byte	0x75
 10798 1852 00       		.sleb128 0
 10799 1853 22       		.byte	0x22
 10800 1854 00000000 		.4byte	0
 10801 1858 00000000 		.4byte	0
 10802              	.LLST145:
 10803 185c 00000000 		.4byte	.LVL438
 10804 1860 0E000000 		.4byte	.LVL439
 10805 1864 0200     		.2byte	0x2
 10806 1866 30       		.byte	0x30
 10807 1867 9F       		.byte	0x9f
 10808 1868 0E000000 		.4byte	.LVL439
 10809 186c 68000000 		.4byte	.LVL449
 10810 1870 0100     		.2byte	0x1
 10811 1872 54       		.byte	0x54
 10812 1873 00000000 		.4byte	0
 10813 1877 00000000 		.4byte	0
 10814              	.LLST146:
 10815 187b 14000000 		.4byte	.LVL440
 10816 187f 38000000 		.4byte	.LVL441
 10817 1883 0200     		.2byte	0x2
 10818 1885 30       		.byte	0x30
 10819 1886 9F       		.byte	0x9f
 10820 1887 38000000 		.4byte	.LVL441
 10821 188b 66000000 		.4byte	.LVL448
 10822 188f 0100     		.2byte	0x1
 10823 1891 55       		.byte	0x55
 10824 1892 00000000 		.4byte	0
 10825 1896 00000000 		.4byte	0
 10826              		.section	.debug_aranges,"",%progbits
 10827 0000 1C010000 		.4byte	0x11c
 10828 0004 0200     		.2byte	0x2
 10829 0006 00000000 		.4byte	.Ldebug_info0
 10830 000a 04       		.byte	0x4
 10831 000b 00       		.byte	0
 10832 000c 0000     		.2byte	0
 10833 000e 0000     		.2byte	0
 10834 0010 00000000 		.4byte	.LFB63
 10835 0014 28000000 		.4byte	.LFE63-.LFB63
 10836 0018 00000000 		.4byte	.LFB64
 10837 001c 22000000 		.4byte	.LFE64-.LFB64
 10838 0020 00000000 		.4byte	.LFB66
 10839 0024 3C000000 		.4byte	.LFE66-.LFB66
 10840 0028 00000000 		.4byte	.LFB67
 10841 002c 38000000 		.4byte	.LFE67-.LFB67
 10842 0030 00000000 		.4byte	.LFB69
 10843 0034 38000000 		.4byte	.LFE69-.LFB69
ARM GAS  C:\Users\Petro\AppData\Local\Temp\cchQWd3Z.s 			page 210


 10844 0038 00000000 		.4byte	.LFB68
 10845 003c 50000000 		.4byte	.LFE68-.LFB68
 10846 0040 00000000 		.4byte	.LFB70
 10847 0044 1C000000 		.4byte	.LFE70-.LFB70
 10848 0048 00000000 		.4byte	.LFB65
 10849 004c 88000000 		.4byte	.LFE65-.LFB65
 10850 0050 00000000 		.4byte	.LFB71
 10851 0054 18000000 		.4byte	.LFE71-.LFB71
 10852 0058 00000000 		.4byte	.LFB72
 10853 005c 14000000 		.4byte	.LFE72-.LFB72
 10854 0060 00000000 		.4byte	.LFB73
 10855 0064 28000000 		.4byte	.LFE73-.LFB73
 10856 0068 00000000 		.4byte	.LFB74
 10857 006c 28000000 		.4byte	.LFE74-.LFB74
 10858 0070 00000000 		.4byte	.LFB75
 10859 0074 3C000000 		.4byte	.LFE75-.LFB75
 10860 0078 00000000 		.4byte	.LFB76
 10861 007c 14000000 		.4byte	.LFE76-.LFB76
 10862 0080 00000000 		.4byte	.LFB81
 10863 0084 04010000 		.4byte	.LFE81-.LFB81
 10864 0088 00000000 		.4byte	.LFB77
 10865 008c 5C000000 		.4byte	.LFE77-.LFB77
 10866 0090 00000000 		.4byte	.LFB78
 10867 0094 08000000 		.4byte	.LFE78-.LFB78
 10868 0098 00000000 		.4byte	.LFB79
 10869 009c CC000000 		.4byte	.LFE79-.LFB79
 10870 00a0 00000000 		.4byte	.LFB80
 10871 00a4 92000000 		.4byte	.LFE80-.LFB80
 10872 00a8 00000000 		.4byte	.LFB82
 10873 00ac 20000000 		.4byte	.LFE82-.LFB82
 10874 00b0 00000000 		.4byte	.LFB83
 10875 00b4 38000000 		.4byte	.LFE83-.LFB83
 10876 00b8 00000000 		.4byte	.LFB84
 10877 00bc 38000000 		.4byte	.LFE84-.LFB84
 10878 00c0 00000000 		.4byte	.LFB85
 10879 00c4 26000000 		.4byte	.LFE85-.LFB85
 10880 00c8 00000000 		.4byte	.LFB86
 10881 00cc 26000000 		.4byte	.LFE86-.LFB86
 10882 00d0 00000000 		.4byte	.LFB87
 10883 00d4 74010000 		.4byte	.LFE87-.LFB87
 10884 00d8 00000000 		.4byte	.LFB88
 10885 00dc 74010000 		.4byte	.LFE88-.LFB88
 10886 00e0 00000000 		.4byte	.LFB89
 10887 00e4 4C000000 		.4byte	.LFE89-.LFB89
 10888 00e8 00000000 		.4byte	.LFB90
 10889 00ec 4C000000 		.4byte	.LFE90-.LFB90
 10890 00f0 00000000 		.4byte	.LFB91
 10891 00f4 A2000000 		.4byte	.LFE91-.LFB91
 10892 00f8 00000000 		.4byte	.LFB92
 10893 00fc A2000000 		.4byte	.LFE92-.LFB92
 10894 0100 00000000 		.4byte	.LFB93
 10895 0104 06010000 		.4byte	.LFE93-.LFB93
 10896 0108 00000000 		.4byte	.LFB94
 10897 010c 06010000 		.4byte	.LFE94-.LFB94
 10898 0110 00000000 		.4byte	.LFB95
 10899 0114 70000000 		.4byte	.LFE95-.LFB95
 10900 0118 00000000 		.4byte	0
ARM GAS  C:\Users\Petro\AppData\Local\Temp\cchQWd3Z.s 			page 211


 10901 011c 00000000 		.4byte	0
 10902              		.section	.debug_ranges,"",%progbits
 10903              	.Ldebug_ranges0:
 10904 0000 40000000 		.4byte	.LBB26
 10905 0004 48000000 		.4byte	.LBE26
 10906 0008 4A000000 		.4byte	.LBB28
 10907 000c 78000000 		.4byte	.LBE28
 10908 0010 7A000000 		.4byte	.LBB29
 10909 0014 BE000000 		.4byte	.LBE29
 10910 0018 00000000 		.4byte	0
 10911 001c 00000000 		.4byte	0
 10912 0020 5A000000 		.4byte	.LBB31
 10913 0024 70000000 		.4byte	.LBE31
 10914 0028 7E000000 		.4byte	.LBB32
 10915 002c 82000000 		.4byte	.LBE32
 10916 0030 00000000 		.4byte	0
 10917 0034 00000000 		.4byte	0
 10918 0038 22010000 		.4byte	.LBB64
 10919 003c 3E010000 		.4byte	.LBE64
 10920 0040 5C010000 		.4byte	.LBB65
 10921 0044 6C010000 		.4byte	.LBE65
 10922 0048 00000000 		.4byte	0
 10923 004c 00000000 		.4byte	0
 10924 0050 22010000 		.4byte	.LBB68
 10925 0054 3E010000 		.4byte	.LBE68
 10926 0058 5C010000 		.4byte	.LBB69
 10927 005c 6C010000 		.4byte	.LBE69
 10928 0060 00000000 		.4byte	0
 10929 0064 00000000 		.4byte	0
 10930 0068 00000000 		.4byte	.LFB63
 10931 006c 28000000 		.4byte	.LFE63
 10932 0070 00000000 		.4byte	.LFB64
 10933 0074 22000000 		.4byte	.LFE64
 10934 0078 00000000 		.4byte	.LFB66
 10935 007c 3C000000 		.4byte	.LFE66
 10936 0080 00000000 		.4byte	.LFB67
 10937 0084 38000000 		.4byte	.LFE67
 10938 0088 00000000 		.4byte	.LFB69
 10939 008c 38000000 		.4byte	.LFE69
 10940 0090 00000000 		.4byte	.LFB68
 10941 0094 50000000 		.4byte	.LFE68
 10942 0098 00000000 		.4byte	.LFB70
 10943 009c 1C000000 		.4byte	.LFE70
 10944 00a0 00000000 		.4byte	.LFB65
 10945 00a4 88000000 		.4byte	.LFE65
 10946 00a8 00000000 		.4byte	.LFB71
 10947 00ac 18000000 		.4byte	.LFE71
 10948 00b0 00000000 		.4byte	.LFB72
 10949 00b4 14000000 		.4byte	.LFE72
 10950 00b8 00000000 		.4byte	.LFB73
 10951 00bc 28000000 		.4byte	.LFE73
 10952 00c0 00000000 		.4byte	.LFB74
 10953 00c4 28000000 		.4byte	.LFE74
 10954 00c8 00000000 		.4byte	.LFB75
 10955 00cc 3C000000 		.4byte	.LFE75
 10956 00d0 00000000 		.4byte	.LFB76
 10957 00d4 14000000 		.4byte	.LFE76
ARM GAS  C:\Users\Petro\AppData\Local\Temp\cchQWd3Z.s 			page 212


 10958 00d8 00000000 		.4byte	.LFB81
 10959 00dc 04010000 		.4byte	.LFE81
 10960 00e0 00000000 		.4byte	.LFB77
 10961 00e4 5C000000 		.4byte	.LFE77
 10962 00e8 00000000 		.4byte	.LFB78
 10963 00ec 08000000 		.4byte	.LFE78
 10964 00f0 00000000 		.4byte	.LFB79
 10965 00f4 CC000000 		.4byte	.LFE79
 10966 00f8 00000000 		.4byte	.LFB80
 10967 00fc 92000000 		.4byte	.LFE80
 10968 0100 00000000 		.4byte	.LFB82
 10969 0104 20000000 		.4byte	.LFE82
 10970 0108 00000000 		.4byte	.LFB83
 10971 010c 38000000 		.4byte	.LFE83
 10972 0110 00000000 		.4byte	.LFB84
 10973 0114 38000000 		.4byte	.LFE84
 10974 0118 00000000 		.4byte	.LFB85
 10975 011c 26000000 		.4byte	.LFE85
 10976 0120 00000000 		.4byte	.LFB86
 10977 0124 26000000 		.4byte	.LFE86
 10978 0128 00000000 		.4byte	.LFB87
 10979 012c 74010000 		.4byte	.LFE87
 10980 0130 00000000 		.4byte	.LFB88
 10981 0134 74010000 		.4byte	.LFE88
 10982 0138 00000000 		.4byte	.LFB89
 10983 013c 4C000000 		.4byte	.LFE89
 10984 0140 00000000 		.4byte	.LFB90
 10985 0144 4C000000 		.4byte	.LFE90
 10986 0148 00000000 		.4byte	.LFB91
 10987 014c A2000000 		.4byte	.LFE91
 10988 0150 00000000 		.4byte	.LFB92
 10989 0154 A2000000 		.4byte	.LFE92
 10990 0158 00000000 		.4byte	.LFB93
 10991 015c 06010000 		.4byte	.LFE93
 10992 0160 00000000 		.4byte	.LFB94
 10993 0164 06010000 		.4byte	.LFE94
 10994 0168 00000000 		.4byte	.LFB95
 10995 016c 70000000 		.4byte	.LFE95
 10996 0170 00000000 		.4byte	0
 10997 0174 00000000 		.4byte	0
 10998              		.section	.debug_line,"",%progbits
 10999              	.Ldebug_line0:
 11000 0000 12080000 		.section	.debug_str,"MS",%progbits,1
 11000      02004A02 
 11000      00000201 
 11000      FB0E0D00 
 11000      01010101 
 11001              	.LASF70:
 11002 0000 4359424C 		.ascii	"CYBLE_EVT_L2CAP_CBFC_RX_CREDIT_IND\000"
 11002      455F4556 
 11002      545F4C32 
 11002      4341505F 
 11002      43424643 
 11003              	.LASF123:
 11004 0023 636C724C 		.ascii	"clrLine\000"
 11004      696E6500 
 11005              	.LASF144:
ARM GAS  C:\Users\Petro\AppData\Local\Temp\cchQWd3Z.s 			page 213


 11006 002b 474E5520 		.ascii	"GNU C 4.9.3 20150303 (release) [ARM/embedded-4_9-br"
 11006      4320342E 
 11006      392E3320 
 11006      32303135 
 11006      30333033 
 11007 005e 616E6368 		.ascii	"anch revision 221220] -mcpu=cortex-m0 -mthumb -g -O"
 11007      20726576 
 11007      6973696F 
 11007      6E203232 
 11007      31323230 
 11008 0091 73202D66 		.ascii	"s -ffunction-sections -ffat-lto-objects\000"
 11008      66756E63 
 11008      74696F6E 
 11008      2D736563 
 11008      74696F6E 
 11009              	.LASF101:
 11010 00b9 496E6974 		.ascii	"InitLCD\000"
 11010      4C434400 
 11011              	.LASF113:
 11012 00c1 7072696E 		.ascii	"prints\000"
 11012      747300
 11013              	.LASF17:
 11014 00c8 73697A65 		.ascii	"size_t\000"
 11014      5F7400
 11015              	.LASF35:
 11016 00cf 4359424C 		.ascii	"CYBLE_EVT_GAP_CONNECTION_UPDATE_COMPLETE\000"
 11016      455F4556 
 11016      545F4741 
 11016      505F434F 
 11016      4E4E4543 
 11017              	.LASF68:
 11018 00f8 4359424C 		.ascii	"CYBLE_EVT_L2CAP_CBFC_DISCONN_CNF\000"
 11018      455F4556 
 11018      545F4C32 
 11018      4341505F 
 11018      43424643 
 11019              	.LASF24:
 11020 0119 4359424C 		.ascii	"CYBLE_EVT_STACK_BUSY_STATUS\000"
 11020      455F4556 
 11020      545F5354 
 11020      41434B5F 
 11020      42555359 
 11021              	.LASF49:
 11022 0135 4359424C 		.ascii	"CYBLE_EVT_GATTC_READ_MULTI_RSP\000"
 11022      455F4556 
 11022      545F4741 
 11022      5454435F 
 11022      52454144 
 11023              	.LASF5:
 11024 0154 5F5F7569 		.ascii	"__uint8_t\000"
 11024      6E74385F 
 11024      7400
 11025              	.LASF142:
 11026 015e 5253545F 		.ascii	"RST_Write\000"
 11026      57726974 
 11026      6500
 11027              	.LASF139:
ARM GAS  C:\Users\Petro\AppData\Local\Temp\cchQWd3Z.s 			page 214


 11028 0168 44435F57 		.ascii	"DC_Write\000"
 11028      72697465 
 11028      00
 11029              	.LASF21:
 11030 0171 4359424C 		.ascii	"CYBLE_EVT_TIMEOUT\000"
 11030      455F4556 
 11030      545F5449 
 11030      4D454F55 
 11030      5400
 11031              	.LASF8:
 11032 0183 6C6F6E67 		.ascii	"long int\000"
 11032      20696E74 
 11032      00
 11033              	.LASF135:
 11034 018c 63666F6E 		.ascii	"cfont\000"
 11034      7400
 11035              	.LASF146:
 11036 0192 443A5C43 		.ascii	"D:\\Cypress\\system-start-finish\\vesion 2\\fw\\fin"
 11036      79707265 
 11036      73735C73 
 11036      79737465 
 11036      6D2D7374 
 11037 01c0 6973685C 		.ascii	"ish\\sandbox\\v9_testmode\\fin_v9testmode.cydsn\000"
 11037      73616E64 
 11037      626F785C 
 11037      76395F74 
 11037      6573746D 
 11038              	.LASF80:
 11039 01ed 6E756D63 		.ascii	"numchars\000"
 11039      68617273 
 11039      00
 11040              	.LASF23:
 11041 01f6 4359424C 		.ascii	"CYBLE_EVT_HCI_STATUS\000"
 11041      455F4556 
 11041      545F4843 
 11041      495F5354 
 11041      41545553 
 11042              	.LASF112:
 11043 020b 7072696E 		.ascii	"print\000"
 11043      7400
 11044              	.LASF73:
 11045 0211 4359424C 		.ascii	"CYBLE_EVT_PENDING_FLASH_WRITE\000"
 11045      455F4556 
 11045      545F5045 
 11045      4E44494E 
 11045      475F464C 
 11046              	.LASF100:
 11047 022f 636C7253 		.ascii	"clrScr\000"
 11047      637200
 11048              	.LASF122:
 11049 0236 64656C74 		.ascii	"delta\000"
 11049      6100
 11050              	.LASF62:
 11051 023c 4359424C 		.ascii	"CYBLE_EVT_L2CAP_CONN_PARAM_UPDATE_REQ\000"
 11051      455F4556 
 11051      545F4C32 
 11051      4341505F 
ARM GAS  C:\Users\Petro\AppData\Local\Temp\cchQWd3Z.s 			page 215


 11051      434F4E4E 
 11052              	.LASF106:
 11053 0262 696E7665 		.ascii	"invertText\000"
 11053      72745465 
 11053      787400
 11054              	.LASF34:
 11055 026d 4359424C 		.ascii	"CYBLE_EVT_GAP_ENCRYPT_CHANGE\000"
 11055      455F4556 
 11055      545F4741 
 11055      505F454E 
 11055      43525950 
 11056              	.LASF71:
 11057 028a 4359424C 		.ascii	"CYBLE_EVT_L2CAP_CBFC_TX_CREDIT_IND\000"
 11057      455F4556 
 11057      545F4C32 
 11057      4341505F 
 11057      43424643 
 11058              	.LASF102:
 11059 02ad 66696C6C 		.ascii	"fillScr\000"
 11059      53637200 
 11060              	.LASF10:
 11061 02b5 6C6F6E67 		.ascii	"long long int\000"
 11061      206C6F6E 
 11061      6720696E 
 11061      7400
 11062              	.LASF2:
 11063 02c3 7369676E 		.ascii	"signed char\000"
 11063      65642063 
 11063      68617200 
 11064              	.LASF20:
 11065 02cf 4359424C 		.ascii	"CYBLE_EVT_STACK_ON\000"
 11065      455F4556 
 11065      545F5354 
 11065      41434B5F 
 11065      4F4E00
 11066              	.LASF119:
 11067 02e2 73697A65 		.ascii	"size\000"
 11067      00
 11068              	.LASF11:
 11069 02e7 6C6F6E67 		.ascii	"long long unsigned int\000"
 11069      206C6F6E 
 11069      6720756E 
 11069      7369676E 
 11069      65642069 
 11070              	.LASF36:
 11071 02fe 4359424C 		.ascii	"CYBLE_EVT_GAPC_SCAN_START_STOP\000"
 11071      455F4556 
 11071      545F4741 
 11071      50435F53 
 11071      43414E5F 
 11072              	.LASF26:
 11073 031d 4359424C 		.ascii	"CYBLE_EVT_GAP_AUTH_REQ\000"
 11073      455F4556 
 11073      545F4741 
 11073      505F4155 
 11073      54485F52 
 11074              	.LASF47:
ARM GAS  C:\Users\Petro\AppData\Local\Temp\cchQWd3Z.s 			page 216


 11075 0334 4359424C 		.ascii	"CYBLE_EVT_GATTC_READ_RSP\000"
 11075      455F4556 
 11075      545F4741 
 11075      5454435F 
 11075      52454144 
 11076              	.LASF138:
 11077 034d 5F636F6E 		.ascii	"_contrast\000"
 11077      74726173 
 11077      7400
 11078              	.LASF52:
 11079 0357 4359424C 		.ascii	"CYBLE_EVT_GATTS_WRITE_CMD_REQ\000"
 11079      455F4556 
 11079      545F4741 
 11079      5454535F 
 11079      57524954 
 11080              	.LASF132:
 11081 0375 636C7243 		.ascii	"clrCircle\000"
 11081      6972636C 
 11081      6500
 11082              	.LASF31:
 11083 037f 4359424C 		.ascii	"CYBLE_EVT_GAPP_ADVERTISEMENT_START_STOP\000"
 11083      455F4556 
 11083      545F4741 
 11083      50505F41 
 11083      44564552 
 11084              	.LASF41:
 11085 03a7 4359424C 		.ascii	"CYBLE_EVT_GATTS_XCNHG_MTU_REQ\000"
 11085      455F4556 
 11085      545F4741 
 11085      5454535F 
 11085      58434E48 
 11086              	.LASF15:
 11087 03c5 75696E74 		.ascii	"uint8\000"
 11087      3800
 11088              	.LASF55:
 11089 03cb 4359424C 		.ascii	"CYBLE_EVT_GATTC_EXEC_WRITE_RSP\000"
 11089      455F4556 
 11089      545F4741 
 11089      5454435F 
 11089      45584543 
 11090              	.LASF148:
 11091 03ea 73707269 		.ascii	"sprintf\000"
 11091      6E746600 
 11092              	.LASF95:
 11093 03f2 73657443 		.ascii	"setContrast\000"
 11093      6F6E7472 
 11093      61737400 
 11094              	.LASF99:
 11095 03fe 64697361 		.ascii	"disableSleep\000"
 11095      626C6553 
 11095      6C656570 
 11095      00
 11096              	.LASF121:
 11097 040b 64726177 		.ascii	"drawLine\000"
 11097      4C696E65 
 11097      00
 11098              	.LASF107:
ARM GAS  C:\Users\Petro\AppData\Local\Temp\cchQWd3Z.s 			page 217


 11099 0414 5F707269 		.ascii	"_print_char\000"
 11099      6E745F63 
 11099      68617200 
 11100              	.LASF72:
 11101 0420 4359424C 		.ascii	"CYBLE_EVT_L2CAP_CBFC_DATA_WRITE_IND\000"
 11101      455F4556 
 11101      545F4C32 
 11101      4341505F 
 11101      43424643 
 11102              	.LASF116:
 11103 0444 66696C6C 		.ascii	"filler\000"
 11103      657200
 11104              	.LASF88:
 11105 044b 636C7256 		.ascii	"clrVLine\000"
 11105      4C696E65 
 11105      00
 11106              	.LASF60:
 11107 0454 4359424C 		.ascii	"CYBLE_EVT_GATTC_STOP_CMD_COMPLETE\000"
 11107      455F4556 
 11107      545F4741 
 11107      5454435F 
 11107      53544F50 
 11108              	.LASF12:
 11109 0476 756E7369 		.ascii	"unsigned int\000"
 11109      676E6564 
 11109      20696E74 
 11109      00
 11110              	.LASF74:
 11111 0483 4359424C 		.ascii	"CYBLE_EVT_LE_PING_AUTH_TIMEOUT\000"
 11111      455F4556 
 11111      545F4C45 
 11111      5F50494E 
 11111      475F4155 
 11112              	.LASF14:
 11113 04a2 75696E74 		.ascii	"uint16_t\000"
 11113      31365F74 
 11113      00
 11114              	.LASF143:
 11115 04ab 7374726C 		.ascii	"strlen\000"
 11115      656E00
 11116              	.LASF109:
 11117 04b2 726F7763 		.ascii	"rowcnt\000"
 11117      6E7400
 11118              	.LASF9:
 11119 04b9 6C6F6E67 		.ascii	"long unsigned int\000"
 11119      20756E73 
 11119      69676E65 
 11119      6420696E 
 11119      7400
 11120              	.LASF83:
 11121 04cb 73657450 		.ascii	"setPixel\000"
 11121      6978656C 
 11121      00
 11122              	.LASF42:
 11123 04d4 4359424C 		.ascii	"CYBLE_EVT_GATTC_XCHNG_MTU_RSP\000"
 11123      455F4556 
 11123      545F4741 
ARM GAS  C:\Users\Petro\AppData\Local\Temp\cchQWd3Z.s 			page 218


 11123      5454435F 
 11123      5843484E 
 11124              	.LASF59:
 11125 04f2 4359424C 		.ascii	"CYBLE_EVT_GATTS_DATA_SIGNED_CMD_REQ\000"
 11125      455F4556 
 11125      545F4741 
 11125      5454535F 
 11125      44415441 
 11126              	.LASF130:
 11127 0516 6464465F 		.ascii	"ddF_x\000"
 11127      7800
 11128              	.LASF131:
 11129 051c 6464465F 		.ascii	"ddF_y\000"
 11129      7900
 11130              	.LASF87:
 11131 0522 64726177 		.ascii	"drawVLine\000"
 11131      564C696E 
 11131      6500
 11132              	.LASF89:
 11133 052c 77696474 		.ascii	"width\000"
 11133      6800
 11134              	.LASF93:
 11135 0532 64617461 		.ascii	"data\000"
 11135      00
 11136              	.LASF137:
 11137 0537 5F736C65 		.ascii	"_sleep\000"
 11137      657000
 11138              	.LASF7:
 11139 053e 73686F72 		.ascii	"short unsigned int\000"
 11139      7420756E 
 11139      7369676E 
 11139      65642069 
 11139      6E7400
 11140              	.LASF19:
 11141 0551 4359424C 		.ascii	"CYBLE_EVT_HOST_INVALID\000"
 11141      455F4556 
 11141      545F484F 
 11141      53545F49 
 11141      4E56414C 
 11142              	.LASF92:
 11143 0568 5F4C4344 		.ascii	"_LCD_Write\000"
 11143      5F577269 
 11143      746500
 11144              	.LASF141:
 11145 0573 53775350 		.ascii	"SwSPI_Master_SendByte\000"
 11145      495F4D61 
 11145      73746572 
 11145      5F53656E 
 11145      64427974 
 11146              	.LASF54:
 11147 0589 4359424C 		.ascii	"CYBLE_EVT_GATTS_EXEC_WRITE_REQ\000"
 11147      455F4556 
 11147      545F4741 
 11147      5454535F 
 11147      45584543 
 11148              	.LASF27:
 11149 05a8 4359424C 		.ascii	"CYBLE_EVT_GAP_PASSKEY_ENTRY_REQUEST\000"
ARM GAS  C:\Users\Petro\AppData\Local\Temp\cchQWd3Z.s 			page 219


 11149      455F4556 
 11149      545F4741 
 11149      505F5041 
 11149      53534B45 
 11150              	.LASF32:
 11151 05cc 4359424C 		.ascii	"CYBLE_EVT_GAP_DEVICE_CONNECTED\000"
 11151      455F4556 
 11151      545F4741 
 11151      505F4445 
 11151      56494345 
 11152              	.LASF50:
 11153 05eb 4359424C 		.ascii	"CYBLE_EVT_GATTS_WRITE_REQ\000"
 11153      455F4556 
 11153      545F4741 
 11153      5454535F 
 11153      57524954 
 11154              	.LASF28:
 11155 0605 4359424C 		.ascii	"CYBLE_EVT_GAP_PASSKEY_DISPLAY_REQUEST\000"
 11155      455F4556 
 11155      545F4741 
 11155      505F5041 
 11155      53534B45 
 11156              	.LASF39:
 11157 062b 4359424C 		.ascii	"CYBLE_EVT_GATT_CONNECT_IND\000"
 11157      455F4556 
 11157      545F4741 
 11157      54545F43 
 11157      4F4E4E45 
 11158              	.LASF84:
 11159 0646 636C7250 		.ascii	"clrPixel\000"
 11159      6978656C 
 11159      00
 11160              	.LASF64:
 11161 064f 4359424C 		.ascii	"CYBLE_EVT_L2CAP_COMMAND_REJ\000"
 11161      455F4556 
 11161      545F4C32 
 11161      4341505F 
 11161      434F4D4D 
 11162              	.LASF129:
 11163 066b 72616469 		.ascii	"radius\000"
 11163      757300
 11164              	.LASF110:
 11165 0672 63627974 		.ascii	"cbyte\000"
 11165      6500
 11166              	.LASF25:
 11167 0678 4359424C 		.ascii	"CYBLE_EVT_GAPC_SCAN_PROGRESS_RESULT\000"
 11167      455F4556 
 11167      545F4741 
 11167      50435F53 
 11167      43414E5F 
 11168              	.LASF82:
 11169 069c 5F637572 		.ascii	"_current_font\000"
 11169      72656E74 
 11169      5F666F6E 
 11169      7400
 11170              	.LASF33:
 11171 06aa 4359424C 		.ascii	"CYBLE_EVT_GAP_DEVICE_DISCONNECTED\000"
ARM GAS  C:\Users\Petro\AppData\Local\Temp\cchQWd3Z.s 			page 220


 11171      455F4556 
 11171      545F4741 
 11171      505F4445 
 11171      56494345 
 11172              	.LASF65:
 11173 06cc 4359424C 		.ascii	"CYBLE_EVT_L2CAP_CBFC_CONN_IND\000"
 11173      455F4556 
 11173      545F4C32 
 11173      4341505F 
 11173      43424643 
 11174              	.LASF44:
 11175 06ea 4359424C 		.ascii	"CYBLE_EVT_GATTC_READ_BY_TYPE_RSP\000"
 11175      455F4556 
 11175      545F4741 
 11175      5454435F 
 11175      52454144 
 11176              	.LASF86:
 11177 070b 636C7248 		.ascii	"clrHLine\000"
 11177      4C696E65 
 11177      00
 11178              	.LASF18:
 11179 0714 73697A65 		.ascii	"sizetype\000"
 11179      74797065 
 11179      00
 11180              	.LASF75:
 11181 071d 4359424C 		.ascii	"CYBLE_EVT_MAX\000"
 11181      455F4556 
 11181      545F4D41 
 11181      5800
 11182              	.LASF30:
 11183 072b 4359424C 		.ascii	"CYBLE_EVT_GAP_AUTH_FAILED\000"
 11183      455F4556 
 11183      545F4741 
 11183      505F4155 
 11183      54485F46 
 11184              	.LASF51:
 11185 0745 4359424C 		.ascii	"CYBLE_EVT_GATTC_WRITE_RSP\000"
 11185      455F4556 
 11185      545F4741 
 11185      5454435F 
 11185      57524954 
 11186              	.LASF77:
 11187 075f 785F7369 		.ascii	"x_size\000"
 11187      7A6500
 11188              	.LASF29:
 11189 0766 4359424C 		.ascii	"CYBLE_EVT_GAP_AUTH_COMPLETE\000"
 11189      455F4556 
 11189      545F4741 
 11189      505F4155 
 11189      54485F43 
 11190              	.LASF136:
 11191 0782 73637262 		.ascii	"scrbuf\000"
 11191      756600
 11192              	.LASF56:
 11193 0789 4359424C 		.ascii	"CYBLE_EVT_GATTC_HANDLE_VALUE_NTF\000"
 11193      455F4556 
 11193      545F4741 
ARM GAS  C:\Users\Petro\AppData\Local\Temp\cchQWd3Z.s 			page 221


 11193      5454435F 
 11193      48414E44 
 11194              	.LASF140:
 11195 07aa 43455F57 		.ascii	"CE_Write\000"
 11195      72697465 
 11195      00
 11196              	.LASF85:
 11197 07b3 64726177 		.ascii	"drawHLine\000"
 11197      484C696E 
 11197      6500
 11198              	.LASF66:
 11199 07bd 4359424C 		.ascii	"CYBLE_EVT_L2CAP_CBFC_CONN_CNF\000"
 11199      455F4556 
 11199      545F4C32 
 11199      4341505F 
 11199      43424643 
 11200              	.LASF43:
 11201 07db 4359424C 		.ascii	"CYBLE_EVT_GATTC_READ_BY_GROUP_TYPE_RSP\000"
 11201      455F4556 
 11201      545F4741 
 11201      5454435F 
 11201      52454144 
 11202              	.LASF1:
 11203 0802 666C6F61 		.ascii	"float\000"
 11203      7400
 11204              	.LASF128:
 11205 0808 64726177 		.ascii	"drawCircle\000"
 11205      43697263 
 11205      6C6500
 11206              	.LASF120:
 11207 0813 73657446 		.ascii	"setFont\000"
 11207      6F6E7400 
 11208              	.LASF126:
 11209 081b 64726177 		.ascii	"drawRoundRect\000"
 11209      526F756E 
 11209      64526563 
 11209      7400
 11210              	.LASF104:
 11211 0829 5F426F6F 		.ascii	"_Bool\000"
 11211      6C00
 11212              	.LASF3:
 11213 082f 756E7369 		.ascii	"unsigned char\000"
 11213      676E6564 
 11213      20636861 
 11213      7200
 11214              	.LASF125:
 11215 083d 636C7252 		.ascii	"clrRect\000"
 11215      65637400 
 11216              	.LASF78:
 11217 0845 795F7369 		.ascii	"y_size\000"
 11217      7A6500
 11218              	.LASF4:
 11219 084c 73686F72 		.ascii	"short int\000"
 11219      7420696E 
 11219      7400
 11220              	.LASF57:
 11221 0856 4359424C 		.ascii	"CYBLE_EVT_GATTC_HANDLE_VALUE_IND\000"
ARM GAS  C:\Users\Petro\AppData\Local\Temp\cchQWd3Z.s 			page 222


 11221      455F4556 
 11221      545F4741 
 11221      5454435F 
 11221      48414E44 
 11222              	.LASF81:
 11223 0877 696E7665 		.ascii	"inverted\000"
 11223      72746564 
 11223      00
 11224              	.LASF53:
 11225 0880 4359424C 		.ascii	"CYBLE_EVT_GATTS_PREP_WRITE_REQ\000"
 11225      455F4556 
 11225      545F4741 
 11225      5454535F 
 11225      50524550 
 11226              	.LASF97:
 11227 089f 666F726D 		.ascii	"format\000"
 11227      617400
 11228              	.LASF133:
 11229 08a6 64726177 		.ascii	"drawBitmap\000"
 11229      4269746D 
 11229      617000
 11230              	.LASF105:
 11231 08b1 696E7650 		.ascii	"invPixel\000"
 11231      6978656C 
 11231      00
 11232              	.LASF58:
 11233 08ba 4359424C 		.ascii	"CYBLE_EVT_GATTS_HANDLE_VALUE_CNF\000"
 11233      455F4556 
 11233      545F4741 
 11233      5454535F 
 11233      48414E44 
 11234              	.LASF38:
 11235 08db 4359424C 		.ascii	"CYBLE_EVT_GATTC_ERROR_RSP\000"
 11235      455F4556 
 11235      545F4741 
 11235      5454435F 
 11235      4552524F 
 11236              	.LASF45:
 11237 08f5 4359424C 		.ascii	"CYBLE_EVT_GATTC_FIND_INFO_RSP\000"
 11237      455F4556 
 11237      545F4741 
 11237      5454435F 
 11237      46494E44 
 11238              	.LASF108:
 11239 0913 666F6E74 		.ascii	"font_idx\000"
 11239      5F696478 
 11239      00
 11240              	.LASF115:
 11241 091c 6C656E67 		.ascii	"length\000"
 11241      746800
 11242              	.LASF16:
 11243 0923 63686172 		.ascii	"char\000"
 11243      00
 11244              	.LASF94:
 11245 0928 6D6F6465 		.ascii	"mode\000"
 11245      00
 11246              	.LASF6:
ARM GAS  C:\Users\Petro\AppData\Local\Temp\cchQWd3Z.s 			page 223


 11247 092d 5F5F7569 		.ascii	"__uint16_t\000"
 11247      6E743136 
 11247      5F7400
 11248              	.LASF61:
 11249 0938 4359424C 		.ascii	"CYBLE_EVT_GATTS_READ_CHAR_VAL_ACCESS_REQ\000"
 11249      455F4556 
 11249      545F4741 
 11249      5454535F 
 11249      52454144 
 11250              	.LASF48:
 11251 0961 4359424C 		.ascii	"CYBLE_EVT_GATTC_READ_BLOB_RSP\000"
 11251      455F4556 
 11251      545F4741 
 11251      5454435F 
 11251      52454144 
 11252              	.LASF69:
 11253 097f 4359424C 		.ascii	"CYBLE_EVT_L2CAP_CBFC_DATA_READ\000"
 11253      455F4556 
 11253      545F4C32 
 11253      4341505F 
 11253      43424643 
 11254              	.LASF79:
 11255 099e 6F666673 		.ascii	"offset\000"
 11255      657400
 11256              	.LASF22:
 11257 09a5 4359424C 		.ascii	"CYBLE_EVT_HARDWARE_ERROR\000"
 11257      455F4556 
 11257      545F4841 
 11257      52445741 
 11257      52455F45 
 11258              	.LASF90:
 11259 09be 70726563 		.ascii	"prec\000"
 11259      00
 11260              	.LASF147:
 11261 09c3 75706461 		.ascii	"update\000"
 11261      746500
 11262              	.LASF117:
 11263 09ca 7072696E 		.ascii	"printNumF\000"
 11263      744E756D 
 11263      4600
 11264              	.LASF114:
 11265 09d4 7072696E 		.ascii	"printNumI\000"
 11265      744E756D 
 11265      4900
 11266              	.LASF96:
 11267 09de 636F6E74 		.ascii	"contrast\000"
 11267      72617374 
 11267      00
 11268              	.LASF76:
 11269 09e7 666F6E74 		.ascii	"font\000"
 11269      00
 11270              	.LASF127:
 11271 09ec 636C7252 		.ascii	"clrRoundRect\000"
 11271      6F756E64 
 11271      52656374 
 11271      00
 11272              	.LASF124:
ARM GAS  C:\Users\Petro\AppData\Local\Temp\cchQWd3Z.s 			page 224


 11273 09f9 64726177 		.ascii	"drawRect\000"
 11273      52656374 
 11273      00
 11274              	.LASF13:
 11275 0a02 75696E74 		.ascii	"uint8_t\000"
 11275      385F7400 
 11276              	.LASF111:
 11277 0a0a 63626974 		.ascii	"cbit\000"
 11277      00
 11278              	.LASF134:
 11279 0a0f 6269746D 		.ascii	"bitmap\000"
 11279      617000
 11280              	.LASF118:
 11281 0a16 64697669 		.ascii	"divider\000"
 11281      64657200 
 11282              	.LASF46:
 11283 0a1e 4359424C 		.ascii	"CYBLE_EVT_GATTC_FIND_BY_TYPE_VALUE_RSP\000"
 11283      455F4556 
 11283      545F4741 
 11283      5454435F 
 11283      46494E44 
 11284              	.LASF37:
 11285 0a45 4359424C 		.ascii	"CYBLE_EVT_GAP_KEYINFO_EXCHNGE_CMPLT\000"
 11285      455F4556 
 11285      545F4741 
 11285      505F4B45 
 11285      59494E46 
 11286              	.LASF145:
 11287 0a69 6E6F6B69 		.ascii	"nokia5110\\LCD5110_Graph.c\000"
 11287      61353131 
 11287      305C4C43 
 11287      44353131 
 11287      305F4772 
 11288              	.LASF67:
 11289 0a83 4359424C 		.ascii	"CYBLE_EVT_L2CAP_CBFC_DISCONN_IND\000"
 11289      455F4556 
 11289      545F4C32 
 11289      4341505F 
 11289      43424643 
 11290              	.LASF63:
 11291 0aa4 4359424C 		.ascii	"CYBLE_EVT_L2CAP_CONN_PARAM_UPDATE_RSP\000"
 11291      455F4556 
 11291      545F4C32 
 11291      4341505F 
 11291      434F4E4E 
 11292              	.LASF91:
 11293 0aca 5F636F6E 		.ascii	"_convert_float\000"
 11293      76657274 
 11293      5F666C6F 
 11293      617400
 11294              	.LASF98:
 11295 0ad9 656E6162 		.ascii	"enableSleep\000"
 11295      6C65536C 
 11295      65657000 
 11296              	.LASF0:
 11297 0ae5 646F7562 		.ascii	"double\000"
 11297      6C6500
ARM GAS  C:\Users\Petro\AppData\Local\Temp\cchQWd3Z.s 			page 225


 11298              	.LASF40:
 11299 0aec 4359424C 		.ascii	"CYBLE_EVT_GATT_DISCONNECT_IND\000"
 11299      455F4556 
 11299      545F4741 
 11299      54545F44 
 11299      4953434F 
 11300              	.LASF103:
 11301 0b0a 696E7665 		.ascii	"invert\000"
 11301      727400
 11302              		.ident	"GCC: (GNU Tools for ARM Embedded Processors) 4.9.3 20150303 (release) [ARM/embedded-4_9-br
