ARM GAS  C:\Users\Petro\AppData\Local\Temp\ccsCKs4P.s 			page 1


   1              		.cpu cortex-m0
   2              		.fpu softvfp
   3              		.eabi_attribute 20, 1
   4              		.eabi_attribute 21, 1
   5              		.eabi_attribute 23, 3
   6              		.eabi_attribute 24, 1
   7              		.eabi_attribute 25, 1
   8              		.eabi_attribute 26, 1
   9              		.eabi_attribute 30, 4
  10              		.eabi_attribute 34, 0
  11              		.eabi_attribute 18, 4
  12              		.code	16
  13              		.file	"testMode.c"
  14              		.text
  15              	.Ltext0:
  16              		.cfi_sections	.debug_frame
  17              		.section	.text.testModeHandler,"ax",%progbits
  18              		.align	1
  19              		.global	testModeHandler
  20              		.code	16
  21              		.thumb_func
  22              		.type	testModeHandler, %function
  23              	testModeHandler:
  24              	.LFB63:
  25              		.file 1 "lib_testMode\\testMode.c"
   1:lib_testMode/testMode.c **** #include "project.h"
   2:lib_testMode/testMode.c **** #include <stdlib.h>
   3:lib_testMode/testMode.c **** 
   4:lib_testMode/testMode.c **** #include <stdio.h>
   5:lib_testMode/testMode.c **** #include <lib_Display\Display.h>
   6:lib_testMode/testMode.c **** #include <lib_Network\network.h>
   7:lib_testMode/testMode.c **** #include <lib_Testmode\testMode.h>
   8:lib_testMode/testMode.c **** #include <lib_DB\database.h>
   9:lib_testMode/testMode.c **** 
  10:lib_testMode/testMode.c **** #define COUNTER_TEST_MODE_ON   5
  11:lib_testMode/testMode.c **** #define MAX_DELAY_CYCLES_IN_READING 2
  12:lib_testMode/testMode.c **** #define COUNTER_TEST_MODE_OFF   7
  13:lib_testMode/testMode.c **** 
  14:lib_testMode/testMode.c **** enum status {STOPPED=0, RUN};
  15:lib_testMode/testMode.c **** typedef enum {HIGH_LEVEL, RISING_EDGE, FALLING_EDGE, LOW_LEVEL}funcReturnValue;
  16:lib_testMode/testMode.c **** 
  17:lib_testMode/testMode.c **** uint8_t statusTestMode = STOPPED;
  18:lib_testMode/testMode.c **** 
  19:lib_testMode/testMode.c **** funcReturnValue switchState = LOW_LEVEL;
  20:lib_testMode/testMode.c **** funcReturnValue networkState = LOW_LEVEL;
  21:lib_testMode/testMode.c **** 
  22:lib_testMode/testMode.c **** funcReturnValue ReadSwitchState();
  23:lib_testMode/testMode.c **** funcReturnValue ReadNetworkState();
  24:lib_testMode/testMode.c **** 
  25:lib_testMode/testMode.c **** static uint8_t enableTestMode;
  26:lib_testMode/testMode.c **** static uint8_t allowNextTestSkier;
  27:lib_testMode/testMode.c **** 
  28:lib_testMode/testMode.c **** CY_ISR(testModeHandler)
  29:lib_testMode/testMode.c **** {
  26              		.loc 1 29 0
  27              		.cfi_startproc
  28 0000 08B5     		push	{r3, lr}
ARM GAS  C:\Users\Petro\AppData\Local\Temp\ccsCKs4P.s 			page 2


  29              		.cfi_def_cfa_offset 8
  30              		.cfi_offset 3, -8
  31              		.cfi_offset 14, -4
  30:lib_testMode/testMode.c ****     Pin_testMode_Write(0);
  32              		.loc 1 30 0
  33 0002 0020     		mov	r0, #0
  34 0004 FFF7FEFF 		bl	Pin_testMode_Write
  35              	.LVL0:
  31:lib_testMode/testMode.c ****     Pin_testMode_Write(1);
  36              		.loc 1 31 0
  37 0008 0120     		mov	r0, #1
  38 000a FFF7FEFF 		bl	Pin_testMode_Write
  39              	.LVL1:
  32:lib_testMode/testMode.c ****     
  33:lib_testMode/testMode.c ****     TimerTestMode_ClearInterrupt(TimerTestMode_INTR_MASK_CC_MATCH);
  40              		.loc 1 33 0
  41 000e 0220     		mov	r0, #2
  42 0010 FFF7FEFF 		bl	TimerTestMode_ClearInterrupt
  43              	.LVL2:
  34:lib_testMode/testMode.c ****     statusTestMode = STOPPED;
  44              		.loc 1 34 0
  45 0014 0022     		mov	r2, #0
  46 0016 024B     		ldr	r3, .L2
  35:lib_testMode/testMode.c ****     allowNextTestSkier = 0;
  36:lib_testMode/testMode.c **** }
  47              		.loc 1 36 0
  48              		@ sp needed
  34:lib_testMode/testMode.c ****     statusTestMode = STOPPED;
  49              		.loc 1 34 0
  50 0018 1A70     		strb	r2, [r3]
  35:lib_testMode/testMode.c ****     allowNextTestSkier = 0;
  51              		.loc 1 35 0
  52 001a 5A70     		strb	r2, [r3, #1]
  53              		.loc 1 36 0
  54 001c 08BD     		pop	{r3, pc}
  55              	.L3:
  56 001e C046     		.align	2
  57              	.L2:
  58 0020 00000000 		.word	.LANCHOR0
  59              		.cfi_endproc
  60              	.LFE63:
  61              		.size	testModeHandler, .-testModeHandler
  62              		.global	__aeabi_idivmod
  63              		.section	.text.TestMode_UpdateNewRandomTime,"ax",%progbits
  64              		.align	1
  65              		.global	TestMode_UpdateNewRandomTime
  66              		.code	16
  67              		.thumb_func
  68              		.type	TestMode_UpdateNewRandomTime, %function
  69              	TestMode_UpdateNewRandomTime:
  70              	.LFB65:
  37:lib_testMode/testMode.c **** 
  38:lib_testMode/testMode.c **** 
  39:lib_testMode/testMode.c **** void newFuncTestMode()
  40:lib_testMode/testMode.c **** {   
  41:lib_testMode/testMode.c ****     ReadSwitchState();
  42:lib_testMode/testMode.c ****     ReadNetworkState();
ARM GAS  C:\Users\Petro\AppData\Local\Temp\ccsCKs4P.s 			page 3


  43:lib_testMode/testMode.c ****     
  44:lib_testMode/testMode.c ****     if(switchState == RISING_EDGE || networkState == RISING_EDGE)   //enable test mode
  45:lib_testMode/testMode.c ****     {
  46:lib_testMode/testMode.c ****         DisplayTestMode(1);
  47:lib_testMode/testMode.c ****         NetworkSendTestModeStatus(1);
  48:lib_testMode/testMode.c ****         statusTestMode = STOPPED;
  49:lib_testMode/testMode.c ****         allowNextTestSkier = 1;
  50:lib_testMode/testMode.c ****         if(networkState == RISING_EDGE && switchState == LOW_LEVEL)
  51:lib_testMode/testMode.c ****             switchState = RISING_EDGE;
  52:lib_testMode/testMode.c ****         if(networkState == LOW_LEVEL && switchState == RISING_EDGE)
  53:lib_testMode/testMode.c ****             networkState = RISING_EDGE;
  54:lib_testMode/testMode.c ****     }
  55:lib_testMode/testMode.c ****     if(/*switchState == FALLING_EDGE ||*/ networkState == FALLING_EDGE)        //disable test mode
  56:lib_testMode/testMode.c ****     {
  57:lib_testMode/testMode.c ****         TimerTestMode_Stop();
  58:lib_testMode/testMode.c ****         DisplayTestMode(0);
  59:lib_testMode/testMode.c ****         NetworkSendTestModeStatus(0);
  60:lib_testMode/testMode.c ****         statusTestMode = STOPPED;
  61:lib_testMode/testMode.c ****         allowNextTestSkier = 0;
  62:lib_testMode/testMode.c ****         if(networkState == FALLING_EDGE && switchState != FALLING_EDGE)
  63:lib_testMode/testMode.c ****             switchState = LOW_LEVEL;
  64:lib_testMode/testMode.c ****         if(networkState != FALLING_EDGE && switchState == FALLING_EDGE)
  65:lib_testMode/testMode.c ****             networkState = LOW_LEVEL;
  66:lib_testMode/testMode.c ****     }
  67:lib_testMode/testMode.c ****     //else    
  68:lib_testMode/testMode.c ****     //{
  69:lib_testMode/testMode.c ****     /*update test mode*/
  70:lib_testMode/testMode.c ****     if(networkState == HIGH_LEVEL && switchState == HIGH_LEVEL )
  71:lib_testMode/testMode.c ****     {
  72:lib_testMode/testMode.c ****         if(statusTestMode == STOPPED && SkierOnWay()>0 && allowNextTestSkier)
  73:lib_testMode/testMode.c ****         {
  74:lib_testMode/testMode.c ****             /*start timer*/
  75:lib_testMode/testMode.c ****             TestMode_UpdateNewRandomTime();
  76:lib_testMode/testMode.c ****             Int_timerTestMode_StartEx(testModeHandler);
  77:lib_testMode/testMode.c ****             statusTestMode = RUN;
  78:lib_testMode/testMode.c ****             allowNextTestSkier = 0;
  79:lib_testMode/testMode.c ****         }
  80:lib_testMode/testMode.c ****     }
  81:lib_testMode/testMode.c ****     //}
  82:lib_testMode/testMode.c **** }
  83:lib_testMode/testMode.c **** 
  84:lib_testMode/testMode.c **** 
  85:lib_testMode/testMode.c **** void TestMode_UpdateNewRandomTime()
  86:lib_testMode/testMode.c **** {
  71              		.loc 1 86 0
  72              		.cfi_startproc
  73 0000 1FB5     		push	{r0, r1, r2, r3, r4, lr}
  74              		.cfi_def_cfa_offset 24
  75              		.cfi_offset 0, -24
  76              		.cfi_offset 1, -20
  77              		.cfi_offset 2, -16
  78              		.cfi_offset 3, -12
  79              		.cfi_offset 4, -8
  80              		.cfi_offset 14, -4
  87:lib_testMode/testMode.c ****     uint8_t num;
  88:lib_testMode/testMode.c ****     
  89:lib_testMode/testMode.c ****     num = 30+rand()%60;
ARM GAS  C:\Users\Petro\AppData\Local\Temp\ccsCKs4P.s 			page 4


  81              		.loc 1 89 0
  82 0002 FFF7FEFF 		bl	rand
  83              	.LVL3:
  84 0006 3C21     		mov	r1, #60
  85 0008 FFF7FEFF 		bl	__aeabi_idivmod
  86              	.LVL4:
  87 000c 1E31     		add	r1, r1, #30
  90:lib_testMode/testMode.c ****     
  91:lib_testMode/testMode.c ****     char buff[11];
  92:lib_testMode/testMode.c ****     sprintf(buff,"%d",num);
  88              		.loc 1 92 0
  89 000e CCB2     		uxtb	r4, r1
  90 0010 221C     		mov	r2, r4
  91 0012 0849     		ldr	r1, .L5
  92 0014 01A8     		add	r0, sp, #4
  93 0016 FFF7FEFF 		bl	sprintf
  94              	.LVL5:
  93:lib_testMode/testMode.c ****     Display(buff);
  95              		.loc 1 93 0
  96 001a 01A8     		add	r0, sp, #4
  97 001c FFF7FEFF 		bl	Display
  98              	.LVL6:
  94:lib_testMode/testMode.c ****     
  95:lib_testMode/testMode.c ****     TimerTestMode_WriteCounter(0);
  99              		.loc 1 95 0
 100 0020 0020     		mov	r0, #0
 101 0022 FFF7FEFF 		bl	TimerTestMode_WriteCounter
 102              	.LVL7:
  96:lib_testMode/testMode.c ****     TimerTestMode_WriteCompare(num*100);
 103              		.loc 1 96 0
 104 0026 6420     		mov	r0, #100
 105 0028 6043     		mul	r0, r4
 106 002a FFF7FEFF 		bl	TimerTestMode_WriteCompare
 107              	.LVL8:
  97:lib_testMode/testMode.c ****     TimerTestMode_Start();   
  98:lib_testMode/testMode.c **** }
 108              		.loc 1 98 0
 109              		@ sp needed
  97:lib_testMode/testMode.c ****     TimerTestMode_Start();   
 110              		.loc 1 97 0
 111 002e FFF7FEFF 		bl	TimerTestMode_Start
 112              	.LVL9:
 113              		.loc 1 98 0
 114 0032 1FBD     		pop	{r0, r1, r2, r3, r4, pc}
 115              	.L6:
 116              		.align	2
 117              	.L5:
 118 0034 00000000 		.word	.LC1
 119              		.cfi_endproc
 120              	.LFE65:
 121              		.size	TestMode_UpdateNewRandomTime, .-TestMode_UpdateNewRandomTime
 122              		.section	.text.ReadSwitchState,"ax",%progbits
 123              		.align	1
 124              		.global	ReadSwitchState
 125              		.code	16
 126              		.thumb_func
 127              		.type	ReadSwitchState, %function
ARM GAS  C:\Users\Petro\AppData\Local\Temp\ccsCKs4P.s 			page 5


 128              	ReadSwitchState:
 129              	.LFB66:
  99:lib_testMode/testMode.c **** 
 100:lib_testMode/testMode.c **** funcReturnValue ReadSwitchState()
 101:lib_testMode/testMode.c **** {  
 130              		.loc 1 101 0
 131              		.cfi_startproc
 132 0000 10B5     		push	{r4, lr}
 133              		.cfi_def_cfa_offset 8
 134              		.cfi_offset 4, -8
 135              		.cfi_offset 14, -4
 102:lib_testMode/testMode.c ****     static uint8_t tmpCounter;
 103:lib_testMode/testMode.c ****     
 104:lib_testMode/testMode.c ****     if(SW_RunTestMode_Read() == 0)
 136              		.loc 1 104 0
 137 0002 FFF7FEFF 		bl	SW_RunTestMode_Read
 138              	.LVL10:
 139 0006 104B     		ldr	r3, .L17
 105:lib_testMode/testMode.c ****         tmpCounter++;
 106:lib_testMode/testMode.c ****     else
 107:lib_testMode/testMode.c ****         tmpCounter = 0;
 140              		.loc 1 107 0
 141 0008 0022     		mov	r2, #0
 104:lib_testMode/testMode.c ****         tmpCounter++;
 142              		.loc 1 104 0
 143 000a 0028     		cmp	r0, #0
 144 000c 01D1     		bne	.L14
 105:lib_testMode/testMode.c ****         tmpCounter++;
 145              		.loc 1 105 0
 146 000e 9A78     		ldrb	r2, [r3, #2]
 147 0010 0132     		add	r2, r2, #1
 148              	.L14:
 149              		.loc 1 107 0
 150 0012 9A70     		strb	r2, [r3, #2]
 108:lib_testMode/testMode.c ****     
 109:lib_testMode/testMode.c ****     if(tmpCounter > COUNTER_TEST_MODE_ON)
 151              		.loc 1 109 0
 152 0014 9B78     		ldrb	r3, [r3, #2]
 153 0016 0D4C     		ldr	r4, .L17+4
 154 0018 052B     		cmp	r3, #5
 155 001a 0AD9     		bls	.L10
 110:lib_testMode/testMode.c ****     {
 111:lib_testMode/testMode.c ****         if(switchState == LOW_LEVEL)switchState = RISING_EDGE;
 156              		.loc 1 111 0
 157 001c 2078     		ldrb	r0, [r4]
 158 001e 0123     		mov	r3, #1
 159 0020 0328     		cmp	r0, #3
 160 0022 0ED0     		beq	.L15
 112:lib_testMode/testMode.c ****         else if(switchState == HIGH_LEVEL){switchState = FALLING_EDGE;NetworkSendTestModeStatus(0);
 161              		.loc 1 112 0
 162 0024 0028     		cmp	r0, #0
 163 0026 0DD1     		bne	.L12
 164              		.loc 1 112 0 is_stmt 0 discriminator 1
 165 0028 0223     		mov	r3, #2
 166 002a 2370     		strb	r3, [r4]
 167 002c FFF7FEFF 		bl	NetworkSendTestModeStatus
 168              	.LVL11:
ARM GAS  C:\Users\Petro\AppData\Local\Temp\ccsCKs4P.s 			page 6


 169 0030 08E0     		b	.L12
 170              	.L10:
 113:lib_testMode/testMode.c ****     }
 114:lib_testMode/testMode.c ****     else
 115:lib_testMode/testMode.c ****     {
 116:lib_testMode/testMode.c ****         if(switchState == RISING_EDGE)switchState = HIGH_LEVEL;
 171              		.loc 1 116 0 is_stmt 1
 172 0032 2378     		ldrb	r3, [r4]
 173 0034 012B     		cmp	r3, #1
 174 0036 01D1     		bne	.L13
 175              		.loc 1 116 0 is_stmt 0 discriminator 1
 176 0038 0023     		mov	r3, #0
 177 003a 02E0     		b	.L15
 178              	.L13:
 117:lib_testMode/testMode.c ****         else if(switchState == FALLING_EDGE)switchState = LOW_LEVEL;
 179              		.loc 1 117 0 is_stmt 1
 180 003c 022B     		cmp	r3, #2
 181 003e 01D1     		bne	.L12
 182              		.loc 1 117 0 is_stmt 0 discriminator 1
 183 0040 0133     		add	r3, r3, #1
 184              	.L15:
 185 0042 2370     		strb	r3, [r4]
 186              	.L12:
 118:lib_testMode/testMode.c ****     }
 119:lib_testMode/testMode.c **** 
 120:lib_testMode/testMode.c ****       
 121:lib_testMode/testMode.c ****     return switchState;
 187              		.loc 1 121 0 is_stmt 1
 188 0044 2078     		ldrb	r0, [r4]
 122:lib_testMode/testMode.c **** }
 189              		.loc 1 122 0
 190              		@ sp needed
 191 0046 10BD     		pop	{r4, pc}
 192              	.L18:
 193              		.align	2
 194              	.L17:
 195 0048 00000000 		.word	.LANCHOR0
 196 004c 00000000 		.word	.LANCHOR1
 197              		.cfi_endproc
 198              	.LFE66:
 199              		.size	ReadSwitchState, .-ReadSwitchState
 200              		.section	.text.ReadNetworkState,"ax",%progbits
 201              		.align	1
 202              		.global	ReadNetworkState
 203              		.code	16
 204              		.thumb_func
 205              		.type	ReadNetworkState, %function
 206              	ReadNetworkState:
 207              	.LFB67:
 123:lib_testMode/testMode.c **** 
 124:lib_testMode/testMode.c **** 
 125:lib_testMode/testMode.c **** funcReturnValue ReadNetworkState()
 126:lib_testMode/testMode.c **** {
 208              		.loc 1 126 0
 209              		.cfi_startproc
 210 0000 10B5     		push	{r4, lr}
 211              		.cfi_def_cfa_offset 8
ARM GAS  C:\Users\Petro\AppData\Local\Temp\ccsCKs4P.s 			page 7


 212              		.cfi_offset 4, -8
 213              		.cfi_offset 14, -4
 127:lib_testMode/testMode.c ****     if(networkState == LOW_LEVEL && NetworkReadTestModeStatus()==1)  networkState = RISING_EDGE;
 214              		.loc 1 127 0
 215 0002 124C     		ldr	r4, .L27
 216 0004 6378     		ldrb	r3, [r4, #1]
 217 0006 032B     		cmp	r3, #3
 218 0008 05D1     		bne	.L20
 219              		.loc 1 127 0 is_stmt 0 discriminator 1
 220 000a FFF7FEFF 		bl	NetworkReadTestModeStatus
 221              	.LVL12:
 222 000e 0128     		cmp	r0, #1
 223 0010 01D1     		bne	.L20
 224              		.loc 1 127 0 discriminator 2
 225 0012 6070     		strb	r0, [r4, #1]
 226 0014 18E0     		b	.L21
 227              	.L20:
 128:lib_testMode/testMode.c ****     else if(networkState == HIGH_LEVEL && NetworkReadTestModeStatus() == 0)  networkState = FALLING
 228              		.loc 1 128 0 is_stmt 1
 229 0016 6378     		ldrb	r3, [r4, #1]
 230 0018 002B     		cmp	r3, #0
 231 001a 04D1     		bne	.L22
 232              		.loc 1 128 0 is_stmt 0 discriminator 1
 233 001c FFF7FEFF 		bl	NetworkReadTestModeStatus
 234              	.LVL13:
 235 0020 0223     		mov	r3, #2
 236 0022 0028     		cmp	r0, #0
 237 0024 0FD0     		beq	.L26
 238              	.L22:
 129:lib_testMode/testMode.c ****     else if(networkState == RISING_EDGE && NetworkReadTestModeStatus() ==1)  networkState = HIGH_LE
 239              		.loc 1 129 0 is_stmt 1
 240 0026 6378     		ldrb	r3, [r4, #1]
 241 0028 012B     		cmp	r3, #1
 242 002a 04D1     		bne	.L23
 243              		.loc 1 129 0 is_stmt 0 discriminator 1
 244 002c FFF7FEFF 		bl	NetworkReadTestModeStatus
 245              	.LVL14:
 246 0030 0023     		mov	r3, #0
 247 0032 0128     		cmp	r0, #1
 248 0034 07D0     		beq	.L26
 249              	.L23:
 130:lib_testMode/testMode.c ****     else if(networkState == FALLING_EDGE && NetworkReadTestModeStatus() == 0)  networkState = LOW_L
 250              		.loc 1 130 0 is_stmt 1
 251 0036 6378     		ldrb	r3, [r4, #1]
 252 0038 022B     		cmp	r3, #2
 253 003a 05D1     		bne	.L21
 254              		.loc 1 130 0 is_stmt 0 discriminator 1
 255 003c FFF7FEFF 		bl	NetworkReadTestModeStatus
 256              	.LVL15:
 257 0040 0028     		cmp	r0, #0
 258 0042 01D1     		bne	.L21
 259              		.loc 1 130 0 discriminator 2
 260 0044 0323     		mov	r3, #3
 261              	.L26:
 262 0046 6370     		strb	r3, [r4, #1]
 263              	.L21:
 131:lib_testMode/testMode.c ****     
ARM GAS  C:\Users\Petro\AppData\Local\Temp\ccsCKs4P.s 			page 8


 132:lib_testMode/testMode.c ****     /*no answer*/
 133:lib_testMode/testMode.c **** 
 134:lib_testMode/testMode.c ****     return networkState;   
 264              		.loc 1 134 0 is_stmt 1
 265 0048 6078     		ldrb	r0, [r4, #1]
 135:lib_testMode/testMode.c **** }
 266              		.loc 1 135 0
 267              		@ sp needed
 268 004a 10BD     		pop	{r4, pc}
 269              	.L28:
 270              		.align	2
 271              	.L27:
 272 004c 00000000 		.word	.LANCHOR1
 273              		.cfi_endproc
 274              	.LFE67:
 275              		.size	ReadNetworkState, .-ReadNetworkState
 276              		.section	.text.newFuncTestMode,"ax",%progbits
 277              		.align	1
 278              		.global	newFuncTestMode
 279              		.code	16
 280              		.thumb_func
 281              		.type	newFuncTestMode, %function
 282              	newFuncTestMode:
 283              	.LFB64:
  40:lib_testMode/testMode.c ****     ReadSwitchState();
 284              		.loc 1 40 0
 285              		.cfi_startproc
 286 0000 38B5     		push	{r3, r4, r5, lr}
 287              		.cfi_def_cfa_offset 16
 288              		.cfi_offset 3, -16
 289              		.cfi_offset 4, -12
 290              		.cfi_offset 5, -8
 291              		.cfi_offset 14, -4
  41:lib_testMode/testMode.c ****     ReadNetworkState();
 292              		.loc 1 41 0
 293 0002 FFF7FEFF 		bl	ReadSwitchState
 294              	.LVL16:
  42:lib_testMode/testMode.c ****     
 295              		.loc 1 42 0
 296 0006 FFF7FEFF 		bl	ReadNetworkState
 297              	.LVL17:
  44:lib_testMode/testMode.c ****     {
 298              		.loc 1 44 0
 299 000a 2B4C     		ldr	r4, .L59
 300 000c 2378     		ldrb	r3, [r4]
 301 000e 012B     		cmp	r3, #1
 302 0010 02D0     		beq	.L30
  44:lib_testMode/testMode.c ****     {
 303              		.loc 1 44 0 is_stmt 0 discriminator 1
 304 0012 6378     		ldrb	r3, [r4, #1]
 305 0014 012B     		cmp	r3, #1
 306 0016 18D1     		bne	.L31
 307              	.L30:
  46:lib_testMode/testMode.c ****         NetworkSendTestModeStatus(1);
 308              		.loc 1 46 0 is_stmt 1
 309 0018 0120     		mov	r0, #1
 310 001a FFF7FEFF 		bl	DisplayTestMode
ARM GAS  C:\Users\Petro\AppData\Local\Temp\ccsCKs4P.s 			page 9


 311              	.LVL18:
  47:lib_testMode/testMode.c ****         statusTestMode = STOPPED;
 312              		.loc 1 47 0
 313 001e 0120     		mov	r0, #1
 314 0020 FFF7FEFF 		bl	NetworkSendTestModeStatus
 315              	.LVL19:
  48:lib_testMode/testMode.c ****         allowNextTestSkier = 1;
 316              		.loc 1 48 0
 317 0024 0022     		mov	r2, #0
 318 0026 254B     		ldr	r3, .L59+4
 319 0028 1A70     		strb	r2, [r3]
  49:lib_testMode/testMode.c ****         if(networkState == RISING_EDGE && switchState == LOW_LEVEL)
 320              		.loc 1 49 0
 321 002a 0132     		add	r2, r2, #1
 322 002c 5A70     		strb	r2, [r3, #1]
  50:lib_testMode/testMode.c ****             switchState = RISING_EDGE;
 323              		.loc 1 50 0
 324 002e 6378     		ldrb	r3, [r4, #1]
 325 0030 9342     		cmp	r3, r2
 326 0032 04D1     		bne	.L32
  50:lib_testMode/testMode.c ****             switchState = RISING_EDGE;
 327              		.loc 1 50 0 is_stmt 0 discriminator 1
 328 0034 2278     		ldrb	r2, [r4]
 329 0036 032A     		cmp	r2, #3
 330 0038 07D1     		bne	.L31
  51:lib_testMode/testMode.c ****         if(networkState == LOW_LEVEL && switchState == RISING_EDGE)
 331              		.loc 1 51 0 is_stmt 1
 332 003a 2370     		strb	r3, [r4]
 333 003c 05E0     		b	.L31
 334              	.L32:
  52:lib_testMode/testMode.c ****             networkState = RISING_EDGE;
 335              		.loc 1 52 0
 336 003e 032B     		cmp	r3, #3
 337 0040 03D1     		bne	.L31
  52:lib_testMode/testMode.c ****             networkState = RISING_EDGE;
 338              		.loc 1 52 0 is_stmt 0 discriminator 1
 339 0042 2378     		ldrb	r3, [r4]
 340 0044 012B     		cmp	r3, #1
 341 0046 00D1     		bne	.L31
  53:lib_testMode/testMode.c ****     }
 342              		.loc 1 53 0 is_stmt 1
 343 0048 6370     		strb	r3, [r4, #1]
 344              	.L31:
  55:lib_testMode/testMode.c ****     {
 345              		.loc 1 55 0
 346 004a 6378     		ldrb	r3, [r4, #1]
 347 004c 022B     		cmp	r3, #2
 348 004e 18D1     		bne	.L36
  57:lib_testMode/testMode.c ****         DisplayTestMode(0);
 349              		.loc 1 57 0
 350 0050 FFF7FEFF 		bl	TimerTestMode_Stop
 351              	.LVL20:
  58:lib_testMode/testMode.c ****         NetworkSendTestModeStatus(0);
 352              		.loc 1 58 0
 353 0054 0020     		mov	r0, #0
 354 0056 FFF7FEFF 		bl	DisplayTestMode
 355              	.LVL21:
ARM GAS  C:\Users\Petro\AppData\Local\Temp\ccsCKs4P.s 			page 10


  59:lib_testMode/testMode.c ****         statusTestMode = STOPPED;
 356              		.loc 1 59 0
 357 005a 0020     		mov	r0, #0
 358 005c FFF7FEFF 		bl	NetworkSendTestModeStatus
 359              	.LVL22:
  60:lib_testMode/testMode.c ****         allowNextTestSkier = 0;
 360              		.loc 1 60 0
 361 0060 0022     		mov	r2, #0
 362 0062 164B     		ldr	r3, .L59+4
 363 0064 1A70     		strb	r2, [r3]
  61:lib_testMode/testMode.c ****         if(networkState == FALLING_EDGE && switchState != FALLING_EDGE)
 364              		.loc 1 61 0
 365 0066 5A70     		strb	r2, [r3, #1]
  62:lib_testMode/testMode.c ****             switchState = LOW_LEVEL;
 366              		.loc 1 62 0
 367 0068 6278     		ldrb	r2, [r4, #1]
 368 006a 2378     		ldrb	r3, [r4]
 369 006c 022A     		cmp	r2, #2
 370 006e 04D1     		bne	.L37
  62:lib_testMode/testMode.c ****             switchState = LOW_LEVEL;
 371              		.loc 1 62 0 is_stmt 0 discriminator 1
 372 0070 022B     		cmp	r3, #2
 373 0072 06D0     		beq	.L36
  63:lib_testMode/testMode.c ****         if(networkState != FALLING_EDGE && switchState == FALLING_EDGE)
 374              		.loc 1 63 0 is_stmt 1
 375 0074 0323     		mov	r3, #3
 376 0076 2370     		strb	r3, [r4]
 377 0078 03E0     		b	.L36
 378              	.L37:
  64:lib_testMode/testMode.c ****             networkState = LOW_LEVEL;
 379              		.loc 1 64 0
 380 007a 022B     		cmp	r3, #2
 381 007c 01D1     		bne	.L36
  65:lib_testMode/testMode.c ****     }
 382              		.loc 1 65 0
 383 007e 0323     		mov	r3, #3
 384 0080 6370     		strb	r3, [r4, #1]
 385              	.L36:
  70:lib_testMode/testMode.c ****     {
 386              		.loc 1 70 0
 387 0082 6378     		ldrb	r3, [r4, #1]
 388 0084 002B     		cmp	r3, #0
 389 0086 15D1     		bne	.L29
  70:lib_testMode/testMode.c ****     {
 390              		.loc 1 70 0 is_stmt 0 discriminator 1
 391 0088 2378     		ldrb	r3, [r4]
 392 008a 002B     		cmp	r3, #0
 393 008c 12D1     		bne	.L29
  72:lib_testMode/testMode.c ****         {
 394              		.loc 1 72 0 is_stmt 1
 395 008e 0B4C     		ldr	r4, .L59+4
 396 0090 2578     		ldrb	r5, [r4]
 397 0092 002D     		cmp	r5, #0
 398 0094 0ED1     		bne	.L29
  72:lib_testMode/testMode.c ****         {
 399              		.loc 1 72 0 is_stmt 0 discriminator 1
 400 0096 FFF7FEFF 		bl	SkierOnWay
ARM GAS  C:\Users\Petro\AppData\Local\Temp\ccsCKs4P.s 			page 11


 401              	.LVL23:
 402 009a 0028     		cmp	r0, #0
 403 009c 0AD0     		beq	.L29
  72:lib_testMode/testMode.c ****         {
 404              		.loc 1 72 0 discriminator 2
 405 009e 6378     		ldrb	r3, [r4, #1]
 406 00a0 002B     		cmp	r3, #0
 407 00a2 07D0     		beq	.L29
  75:lib_testMode/testMode.c ****             Int_timerTestMode_StartEx(testModeHandler);
 408              		.loc 1 75 0 is_stmt 1
 409 00a4 FFF7FEFF 		bl	TestMode_UpdateNewRandomTime
 410              	.LVL24:
  76:lib_testMode/testMode.c ****             statusTestMode = RUN;
 411              		.loc 1 76 0
 412 00a8 0548     		ldr	r0, .L59+8
 413 00aa FFF7FEFF 		bl	Int_timerTestMode_StartEx
 414              	.LVL25:
  77:lib_testMode/testMode.c ****             allowNextTestSkier = 0;
 415              		.loc 1 77 0
 416 00ae 0123     		mov	r3, #1
  78:lib_testMode/testMode.c ****         }
 417              		.loc 1 78 0
 418 00b0 6570     		strb	r5, [r4, #1]
  77:lib_testMode/testMode.c ****             allowNextTestSkier = 0;
 419              		.loc 1 77 0
 420 00b2 2370     		strb	r3, [r4]
 421              	.L29:
  82:lib_testMode/testMode.c **** 
 422              		.loc 1 82 0
 423              		@ sp needed
 424 00b4 38BD     		pop	{r3, r4, r5, pc}
 425              	.L60:
 426 00b6 C046     		.align	2
 427              	.L59:
 428 00b8 00000000 		.word	.LANCHOR1
 429 00bc 00000000 		.word	.LANCHOR0
 430 00c0 00000000 		.word	testModeHandler
 431              		.cfi_endproc
 432              	.LFE64:
 433              		.size	newFuncTestMode, .-newFuncTestMode
 434              		.section	.text.AllowNextTestSkier,"ax",%progbits
 435              		.align	1
 436              		.global	AllowNextTestSkier
 437              		.code	16
 438              		.thumb_func
 439              		.type	AllowNextTestSkier, %function
 440              	AllowNextTestSkier:
 441              	.LFB68:
 136:lib_testMode/testMode.c **** 
 137:lib_testMode/testMode.c **** void AllowNextTestSkier()
 138:lib_testMode/testMode.c **** {
 442              		.loc 1 138 0
 443              		.cfi_startproc
 139:lib_testMode/testMode.c ****     allowNextTestSkier = 1;
 444              		.loc 1 139 0
 445 0000 0122     		mov	r2, #1
 446 0002 014B     		ldr	r3, .L62
ARM GAS  C:\Users\Petro\AppData\Local\Temp\ccsCKs4P.s 			page 12


 140:lib_testMode/testMode.c **** }...
 447              		.loc 1 140 0
 448              		@ sp needed
 139:lib_testMode/testMode.c ****     allowNextTestSkier = 1;
 449              		.loc 1 139 0
 450 0004 5A70     		strb	r2, [r3, #1]
 451              		.loc 1 140 0
 452 0006 7047     		bx	lr
 453              	.L63:
 454              		.align	2
 455              	.L62:
 456 0008 00000000 		.word	.LANCHOR0
 457              		.cfi_endproc
 458              	.LFE68:
 459              		.size	AllowNextTestSkier, .-AllowNextTestSkier
 460              		.global	networkState
 461              		.global	switchState
 462              		.global	statusTestMode
 463              		.section	.rodata.str1.1,"aMS",%progbits,1
 464              	.LC1:
 465 0000 256400   		.ascii	"%d\000"
 466              		.data
 467              		.set	.LANCHOR1,. + 0
 468              		.type	switchState, %object
 469              		.size	switchState, 1
 470              	switchState:
 471 0000 03       		.byte	3
 472              		.type	networkState, %object
 473              		.size	networkState, 1
 474              	networkState:
 475 0001 03       		.byte	3
 476              		.bss
 477              		.set	.LANCHOR0,. + 0
 478              		.type	statusTestMode, %object
 479              		.size	statusTestMode, 1
 480              	statusTestMode:
 481 0000 00       		.space	1
 482              		.type	allowNextTestSkier, %object
 483              		.size	allowNextTestSkier, 1
 484              	allowNextTestSkier:
 485 0001 00       		.space	1
 486              		.type	tmpCounter.9532, %object
 487              		.size	tmpCounter.9532, 1
 488              	tmpCounter.9532:
 489 0002 00       		.space	1
 490              		.text
 491              	.Letext0:
 492              		.file 2 "c:\\program files (x86)\\cypress\\psoc creator\\4.0\\psoc creator\\import\\gnu\\arm\\4.9.
 493              		.file 3 "c:\\program files (x86)\\cypress\\psoc creator\\4.0\\psoc creator\\import\\gnu\\arm\\4.9.
 494              		.file 4 "Generated_Source\\PSoC4/cytypes.h"
 495              		.file 5 "Generated_Source\\PSoC4/ble_Stack.h"
 496              		.file 6 "Generated_Source\\PSoC4/Pin_testMode.h"
 497              		.file 7 "Generated_Source\\PSoC4/TimerTestMode.h"
 498              		.file 8 "./lib_Display\\Display.h"
 499              		.file 9 "c:\\program files (x86)\\cypress\\psoc creator\\4.0\\psoc creator\\import\\gnu\\arm\\4.9.
 500              		.file 10 "Generated_Source\\PSoC4/SW_RunTestMode.h"
 501              		.file 11 "./lib_Network\\network.h"
ARM GAS  C:\Users\Petro\AppData\Local\Temp\ccsCKs4P.s 			page 13


 502              		.file 12 "./lib_DB\\database.h"
 503              		.file 13 "c:\\program files (x86)\\cypress\\psoc creator\\4.0\\psoc creator\\import\\gnu\\arm\\4.9
 504              		.file 14 "Generated_Source\\PSoC4/Int_timerTestMode.h"