ARM GAS  C:\Users\Petro\AppData\Local\Temp\ccYZf4Nl.s 			page 1


   1              		.cpu cortex-m0
   2              		.fpu softvfp
   3              		.eabi_attribute 20, 1
   4              		.eabi_attribute 21, 1
   5              		.eabi_attribute 23, 3
   6              		.eabi_attribute 24, 1
   7              		.eabi_attribute 25, 1
   8              		.eabi_attribute 26, 1
   9              		.eabi_attribute 30, 4
  10              		.eabi_attribute 34, 0
  11              		.eabi_attribute 18, 4
  12              		.code	16
  13              		.file	"UART_XB_UART.c"
  14              		.text
  15              	.Ltext0:
  16              		.cfi_sections	.debug_frame
  17              		.section	.text.UART_XB_UartInit,"ax",%progbits
  18              		.align	1
  19              		.global	UART_XB_UartInit
  20              		.code	16
  21              		.thumb_func
  22              		.type	UART_XB_UartInit, %function
  23              	UART_XB_UartInit:
  24              	.LFB2:
  25              		.file 1 "Generated_Source\\PSoC4\\UART_XB_UART.c"
   1:Generated_Source\PSoC4/UART_XB_UART.c **** /***************************************************************************//**
   2:Generated_Source\PSoC4/UART_XB_UART.c **** * \file UART_XB_UART.c
   3:Generated_Source\PSoC4/UART_XB_UART.c **** * \version 3.20
   4:Generated_Source\PSoC4/UART_XB_UART.c **** *
   5:Generated_Source\PSoC4/UART_XB_UART.c **** * \brief
   6:Generated_Source\PSoC4/UART_XB_UART.c **** *  This file provides the source code to the API for the SCB Component in
   7:Generated_Source\PSoC4/UART_XB_UART.c **** *  UART mode.
   8:Generated_Source\PSoC4/UART_XB_UART.c **** *
   9:Generated_Source\PSoC4/UART_XB_UART.c **** * Note:
  10:Generated_Source\PSoC4/UART_XB_UART.c **** *
  11:Generated_Source\PSoC4/UART_XB_UART.c **** *******************************************************************************
  12:Generated_Source\PSoC4/UART_XB_UART.c **** * \copyright
  13:Generated_Source\PSoC4/UART_XB_UART.c **** * Copyright 2013-2016, Cypress Semiconductor Corporation.  All rights reserved.
  14:Generated_Source\PSoC4/UART_XB_UART.c **** * You may use this file only in accordance with the license, terms, conditions,
  15:Generated_Source\PSoC4/UART_XB_UART.c **** * disclaimers, and limitations in the end user license agreement accompanying
  16:Generated_Source\PSoC4/UART_XB_UART.c **** * the software package with which this file was provided.
  17:Generated_Source\PSoC4/UART_XB_UART.c **** *******************************************************************************/
  18:Generated_Source\PSoC4/UART_XB_UART.c **** 
  19:Generated_Source\PSoC4/UART_XB_UART.c **** #include "UART_XB_PVT.h"
  20:Generated_Source\PSoC4/UART_XB_UART.c **** #include "UART_XB_SPI_UART_PVT.h"
  21:Generated_Source\PSoC4/UART_XB_UART.c **** #include "cyapicallbacks.h"
  22:Generated_Source\PSoC4/UART_XB_UART.c **** 
  23:Generated_Source\PSoC4/UART_XB_UART.c **** #if (UART_XB_UART_WAKE_ENABLE_CONST && UART_XB_UART_RX_WAKEUP_IRQ)
  24:Generated_Source\PSoC4/UART_XB_UART.c ****     /**
  25:Generated_Source\PSoC4/UART_XB_UART.c ****     * \addtogroup group_globals
  26:Generated_Source\PSoC4/UART_XB_UART.c ****     * \{
  27:Generated_Source\PSoC4/UART_XB_UART.c ****     */
  28:Generated_Source\PSoC4/UART_XB_UART.c ****     /** This global variable determines whether to enable Skip Start
  29:Generated_Source\PSoC4/UART_XB_UART.c ****     * functionality when UART_XB_Sleep() function is called:
  30:Generated_Source\PSoC4/UART_XB_UART.c ****     * 0 – disable, other values – enable. Default value is 1.
  31:Generated_Source\PSoC4/UART_XB_UART.c ****     * It is only available when Enable wakeup from Deep Sleep Mode is enabled.
  32:Generated_Source\PSoC4/UART_XB_UART.c ****     */
ARM GAS  C:\Users\Petro\AppData\Local\Temp\ccYZf4Nl.s 			page 2


  33:Generated_Source\PSoC4/UART_XB_UART.c ****     uint8 UART_XB_skipStart = 1u;
  34:Generated_Source\PSoC4/UART_XB_UART.c ****     /** \} globals */
  35:Generated_Source\PSoC4/UART_XB_UART.c **** #endif /* (UART_XB_UART_WAKE_ENABLE_CONST && UART_XB_UART_RX_WAKEUP_IRQ) */
  36:Generated_Source\PSoC4/UART_XB_UART.c **** 
  37:Generated_Source\PSoC4/UART_XB_UART.c **** #if(UART_XB_SCB_MODE_UNCONFIG_CONST_CFG)
  38:Generated_Source\PSoC4/UART_XB_UART.c **** 
  39:Generated_Source\PSoC4/UART_XB_UART.c ****     /***************************************
  40:Generated_Source\PSoC4/UART_XB_UART.c ****     *  Configuration Structure Initialization
  41:Generated_Source\PSoC4/UART_XB_UART.c ****     ***************************************/
  42:Generated_Source\PSoC4/UART_XB_UART.c **** 
  43:Generated_Source\PSoC4/UART_XB_UART.c ****     const UART_XB_UART_INIT_STRUCT UART_XB_configUart =
  44:Generated_Source\PSoC4/UART_XB_UART.c ****     {
  45:Generated_Source\PSoC4/UART_XB_UART.c ****         UART_XB_UART_SUB_MODE,
  46:Generated_Source\PSoC4/UART_XB_UART.c ****         UART_XB_UART_DIRECTION,
  47:Generated_Source\PSoC4/UART_XB_UART.c ****         UART_XB_UART_DATA_BITS_NUM,
  48:Generated_Source\PSoC4/UART_XB_UART.c ****         UART_XB_UART_PARITY_TYPE,
  49:Generated_Source\PSoC4/UART_XB_UART.c ****         UART_XB_UART_STOP_BITS_NUM,
  50:Generated_Source\PSoC4/UART_XB_UART.c ****         UART_XB_UART_OVS_FACTOR,
  51:Generated_Source\PSoC4/UART_XB_UART.c ****         UART_XB_UART_IRDA_LOW_POWER,
  52:Generated_Source\PSoC4/UART_XB_UART.c ****         UART_XB_UART_MEDIAN_FILTER_ENABLE,
  53:Generated_Source\PSoC4/UART_XB_UART.c ****         UART_XB_UART_RETRY_ON_NACK,
  54:Generated_Source\PSoC4/UART_XB_UART.c ****         UART_XB_UART_IRDA_POLARITY,
  55:Generated_Source\PSoC4/UART_XB_UART.c ****         UART_XB_UART_DROP_ON_PARITY_ERR,
  56:Generated_Source\PSoC4/UART_XB_UART.c ****         UART_XB_UART_DROP_ON_FRAME_ERR,
  57:Generated_Source\PSoC4/UART_XB_UART.c ****         UART_XB_UART_WAKE_ENABLE,
  58:Generated_Source\PSoC4/UART_XB_UART.c ****         0u,
  59:Generated_Source\PSoC4/UART_XB_UART.c ****         NULL,
  60:Generated_Source\PSoC4/UART_XB_UART.c ****         0u,
  61:Generated_Source\PSoC4/UART_XB_UART.c ****         NULL,
  62:Generated_Source\PSoC4/UART_XB_UART.c ****         UART_XB_UART_MP_MODE_ENABLE,
  63:Generated_Source\PSoC4/UART_XB_UART.c ****         UART_XB_UART_MP_ACCEPT_ADDRESS,
  64:Generated_Source\PSoC4/UART_XB_UART.c ****         UART_XB_UART_MP_RX_ADDRESS,
  65:Generated_Source\PSoC4/UART_XB_UART.c ****         UART_XB_UART_MP_RX_ADDRESS_MASK,
  66:Generated_Source\PSoC4/UART_XB_UART.c ****         (uint32) UART_XB_SCB_IRQ_INTERNAL,
  67:Generated_Source\PSoC4/UART_XB_UART.c ****         UART_XB_UART_INTR_RX_MASK,
  68:Generated_Source\PSoC4/UART_XB_UART.c ****         UART_XB_UART_RX_TRIGGER_LEVEL,
  69:Generated_Source\PSoC4/UART_XB_UART.c ****         UART_XB_UART_INTR_TX_MASK,
  70:Generated_Source\PSoC4/UART_XB_UART.c ****         UART_XB_UART_TX_TRIGGER_LEVEL,
  71:Generated_Source\PSoC4/UART_XB_UART.c ****         (uint8) UART_XB_UART_BYTE_MODE_ENABLE,
  72:Generated_Source\PSoC4/UART_XB_UART.c ****         (uint8) UART_XB_UART_CTS_ENABLE,
  73:Generated_Source\PSoC4/UART_XB_UART.c ****         (uint8) UART_XB_UART_CTS_POLARITY,
  74:Generated_Source\PSoC4/UART_XB_UART.c ****         (uint8) UART_XB_UART_RTS_POLARITY,
  75:Generated_Source\PSoC4/UART_XB_UART.c ****         (uint8) UART_XB_UART_RTS_FIFO_LEVEL
  76:Generated_Source\PSoC4/UART_XB_UART.c ****     };
  77:Generated_Source\PSoC4/UART_XB_UART.c **** 
  78:Generated_Source\PSoC4/UART_XB_UART.c **** 
  79:Generated_Source\PSoC4/UART_XB_UART.c ****     /*******************************************************************************
  80:Generated_Source\PSoC4/UART_XB_UART.c ****     * Function Name: UART_XB_UartInit
  81:Generated_Source\PSoC4/UART_XB_UART.c ****     ****************************************************************************//**
  82:Generated_Source\PSoC4/UART_XB_UART.c ****     *
  83:Generated_Source\PSoC4/UART_XB_UART.c ****     *  Configures the UART_XB for UART operation.
  84:Generated_Source\PSoC4/UART_XB_UART.c ****     *
  85:Generated_Source\PSoC4/UART_XB_UART.c ****     *  This function is intended specifically to be used when the UART_XB
  86:Generated_Source\PSoC4/UART_XB_UART.c ****     *  configuration is set to “Unconfigured UART_XB” in the customizer.
  87:Generated_Source\PSoC4/UART_XB_UART.c ****     *  After initializing the UART_XB in UART mode using this function,
  88:Generated_Source\PSoC4/UART_XB_UART.c ****     *  the component can be enabled using the UART_XB_Start() or
  89:Generated_Source\PSoC4/UART_XB_UART.c ****     * UART_XB_Enable() function.
ARM GAS  C:\Users\Petro\AppData\Local\Temp\ccYZf4Nl.s 			page 3


  90:Generated_Source\PSoC4/UART_XB_UART.c ****     *  This function uses a pointer to a structure that provides the configuration
  91:Generated_Source\PSoC4/UART_XB_UART.c ****     *  settings. This structure contains the same information that would otherwise
  92:Generated_Source\PSoC4/UART_XB_UART.c ****     *  be provided by the customizer settings.
  93:Generated_Source\PSoC4/UART_XB_UART.c ****     *
  94:Generated_Source\PSoC4/UART_XB_UART.c ****     *  \param config: pointer to a structure that contains the following list of
  95:Generated_Source\PSoC4/UART_XB_UART.c ****     *   fields. These fields match the selections available in the customizer.
  96:Generated_Source\PSoC4/UART_XB_UART.c ****     *   Refer to the customizer for further description of the settings.
  97:Generated_Source\PSoC4/UART_XB_UART.c ****     *
  98:Generated_Source\PSoC4/UART_XB_UART.c ****     *******************************************************************************/
  99:Generated_Source\PSoC4/UART_XB_UART.c ****     void UART_XB_UartInit(const UART_XB_UART_INIT_STRUCT *config)
 100:Generated_Source\PSoC4/UART_XB_UART.c ****     {
 101:Generated_Source\PSoC4/UART_XB_UART.c ****         uint32 pinsConfig;
 102:Generated_Source\PSoC4/UART_XB_UART.c **** 
 103:Generated_Source\PSoC4/UART_XB_UART.c ****         if (NULL == config)
 104:Generated_Source\PSoC4/UART_XB_UART.c ****         {
 105:Generated_Source\PSoC4/UART_XB_UART.c ****             CYASSERT(0u != 0u); /* Halt execution due to bad function parameter */
 106:Generated_Source\PSoC4/UART_XB_UART.c ****         }
 107:Generated_Source\PSoC4/UART_XB_UART.c ****         else
 108:Generated_Source\PSoC4/UART_XB_UART.c ****         {
 109:Generated_Source\PSoC4/UART_XB_UART.c ****             /* Get direction to configure UART pins: TX, RX or TX+RX */
 110:Generated_Source\PSoC4/UART_XB_UART.c ****             pinsConfig  = config->direction;
 111:Generated_Source\PSoC4/UART_XB_UART.c **** 
 112:Generated_Source\PSoC4/UART_XB_UART.c ****         #if !(UART_XB_CY_SCBIP_V0 || UART_XB_CY_SCBIP_V1)
 113:Generated_Source\PSoC4/UART_XB_UART.c ****             /* Add RTS and CTS pins to configure */
 114:Generated_Source\PSoC4/UART_XB_UART.c ****             pinsConfig |= (0u != config->rtsRxFifoLevel) ? (UART_XB_UART_RTS_PIN_ENABLE) : (0u);
 115:Generated_Source\PSoC4/UART_XB_UART.c ****             pinsConfig |= (0u != config->enableCts)      ? (UART_XB_UART_CTS_PIN_ENABLE) : (0u);
 116:Generated_Source\PSoC4/UART_XB_UART.c ****         #endif /* !(UART_XB_CY_SCBIP_V0 || UART_XB_CY_SCBIP_V1) */
 117:Generated_Source\PSoC4/UART_XB_UART.c **** 
 118:Generated_Source\PSoC4/UART_XB_UART.c ****             /* Configure pins */
 119:Generated_Source\PSoC4/UART_XB_UART.c ****             UART_XB_SetPins(UART_XB_SCB_MODE_UART, config->mode, pinsConfig);
 120:Generated_Source\PSoC4/UART_XB_UART.c **** 
 121:Generated_Source\PSoC4/UART_XB_UART.c ****             /* Store internal configuration */
 122:Generated_Source\PSoC4/UART_XB_UART.c ****             UART_XB_scbMode       = (uint8) UART_XB_SCB_MODE_UART;
 123:Generated_Source\PSoC4/UART_XB_UART.c ****             UART_XB_scbEnableWake = (uint8) config->enableWake;
 124:Generated_Source\PSoC4/UART_XB_UART.c ****             UART_XB_scbEnableIntr = (uint8) config->enableInterrupt;
 125:Generated_Source\PSoC4/UART_XB_UART.c **** 
 126:Generated_Source\PSoC4/UART_XB_UART.c ****             /* Set RX direction internal variables */
 127:Generated_Source\PSoC4/UART_XB_UART.c ****             UART_XB_rxBuffer      =         config->rxBuffer;
 128:Generated_Source\PSoC4/UART_XB_UART.c ****             UART_XB_rxDataBits    = (uint8) config->dataBits;
 129:Generated_Source\PSoC4/UART_XB_UART.c ****             UART_XB_rxBufferSize  = (uint8) config->rxBufferSize;
 130:Generated_Source\PSoC4/UART_XB_UART.c **** 
 131:Generated_Source\PSoC4/UART_XB_UART.c ****             /* Set TX direction internal variables */
 132:Generated_Source\PSoC4/UART_XB_UART.c ****             UART_XB_txBuffer      =         config->txBuffer;
 133:Generated_Source\PSoC4/UART_XB_UART.c ****             UART_XB_txDataBits    = (uint8) config->dataBits;
 134:Generated_Source\PSoC4/UART_XB_UART.c ****             UART_XB_txBufferSize  = (uint8) config->txBufferSize;
 135:Generated_Source\PSoC4/UART_XB_UART.c **** 
 136:Generated_Source\PSoC4/UART_XB_UART.c ****             /* Configure UART interface */
 137:Generated_Source\PSoC4/UART_XB_UART.c ****             if(UART_XB_UART_MODE_IRDA == config->mode)
 138:Generated_Source\PSoC4/UART_XB_UART.c ****             {
 139:Generated_Source\PSoC4/UART_XB_UART.c ****                 /* OVS settings: IrDA */
 140:Generated_Source\PSoC4/UART_XB_UART.c ****                 UART_XB_CTRL_REG  = ((0u != config->enableIrdaLowPower) ?
 141:Generated_Source\PSoC4/UART_XB_UART.c ****                                                 (UART_XB_UART_GET_CTRL_OVS_IRDA_LP(config->oversamp
 142:Generated_Source\PSoC4/UART_XB_UART.c ****                                                 (UART_XB_CTRL_OVS_IRDA_OVS16));
 143:Generated_Source\PSoC4/UART_XB_UART.c ****             }
 144:Generated_Source\PSoC4/UART_XB_UART.c ****             else
 145:Generated_Source\PSoC4/UART_XB_UART.c ****             {
 146:Generated_Source\PSoC4/UART_XB_UART.c ****                 /* OVS settings: UART and SmartCard */
ARM GAS  C:\Users\Petro\AppData\Local\Temp\ccYZf4Nl.s 			page 4


 147:Generated_Source\PSoC4/UART_XB_UART.c ****                 UART_XB_CTRL_REG  = UART_XB_GET_CTRL_OVS(config->oversample);
 148:Generated_Source\PSoC4/UART_XB_UART.c ****             }
 149:Generated_Source\PSoC4/UART_XB_UART.c **** 
 150:Generated_Source\PSoC4/UART_XB_UART.c ****             UART_XB_CTRL_REG     |= UART_XB_GET_CTRL_BYTE_MODE  (config->enableByteMode)      |
 151:Generated_Source\PSoC4/UART_XB_UART.c ****                                              UART_XB_GET_CTRL_ADDR_ACCEPT(config->multiprocAcceptAd
 152:Generated_Source\PSoC4/UART_XB_UART.c ****                                              UART_XB_CTRL_UART;
 153:Generated_Source\PSoC4/UART_XB_UART.c **** 
 154:Generated_Source\PSoC4/UART_XB_UART.c ****             /* Configure sub-mode: UART, SmartCard or IrDA */
 155:Generated_Source\PSoC4/UART_XB_UART.c ****             UART_XB_UART_CTRL_REG = UART_XB_GET_UART_CTRL_MODE(config->mode);
 156:Generated_Source\PSoC4/UART_XB_UART.c **** 
 157:Generated_Source\PSoC4/UART_XB_UART.c ****             /* Configure RX direction */
 158:Generated_Source\PSoC4/UART_XB_UART.c ****             UART_XB_UART_RX_CTRL_REG = UART_XB_GET_UART_RX_CTRL_MODE(config->stopBits)             
 159:Generated_Source\PSoC4/UART_XB_UART.c ****                                         UART_XB_GET_UART_RX_CTRL_POLARITY(config->enableInvertedRx)
 160:Generated_Source\PSoC4/UART_XB_UART.c ****                                         UART_XB_GET_UART_RX_CTRL_MP_MODE(config->enableMultiproc)  
 161:Generated_Source\PSoC4/UART_XB_UART.c ****                                         UART_XB_GET_UART_RX_CTRL_DROP_ON_PARITY_ERR(config->dropOnP
 162:Generated_Source\PSoC4/UART_XB_UART.c ****                                         UART_XB_GET_UART_RX_CTRL_DROP_ON_FRAME_ERR(config->dropOnFr
 163:Generated_Source\PSoC4/UART_XB_UART.c **** 
 164:Generated_Source\PSoC4/UART_XB_UART.c ****             if(UART_XB_UART_PARITY_NONE != config->parity)
 165:Generated_Source\PSoC4/UART_XB_UART.c ****             {
 166:Generated_Source\PSoC4/UART_XB_UART.c ****                UART_XB_UART_RX_CTRL_REG |= UART_XB_GET_UART_RX_CTRL_PARITY(config->parity) |
 167:Generated_Source\PSoC4/UART_XB_UART.c ****                                                     UART_XB_UART_RX_CTRL_PARITY_ENABLED;
 168:Generated_Source\PSoC4/UART_XB_UART.c ****             }
 169:Generated_Source\PSoC4/UART_XB_UART.c **** 
 170:Generated_Source\PSoC4/UART_XB_UART.c ****             UART_XB_RX_CTRL_REG      = UART_XB_GET_RX_CTRL_DATA_WIDTH(config->dataBits)       |
 171:Generated_Source\PSoC4/UART_XB_UART.c ****                                                 UART_XB_GET_RX_CTRL_MEDIAN(config->enableMedianFilt
 172:Generated_Source\PSoC4/UART_XB_UART.c ****                                                 UART_XB_GET_UART_RX_CTRL_ENABLED(config->direction)
 173:Generated_Source\PSoC4/UART_XB_UART.c **** 
 174:Generated_Source\PSoC4/UART_XB_UART.c ****             UART_XB_RX_FIFO_CTRL_REG = UART_XB_GET_RX_FIFO_CTRL_TRIGGER_LEVEL(config->rxTriggerLeve
 175:Generated_Source\PSoC4/UART_XB_UART.c **** 
 176:Generated_Source\PSoC4/UART_XB_UART.c ****             /* Configure MP address */
 177:Generated_Source\PSoC4/UART_XB_UART.c ****             UART_XB_RX_MATCH_REG     = UART_XB_GET_RX_MATCH_ADDR(config->multiprocAddr) |
 178:Generated_Source\PSoC4/UART_XB_UART.c ****                                                 UART_XB_GET_RX_MATCH_MASK(config->multiprocAddrMask
 179:Generated_Source\PSoC4/UART_XB_UART.c **** 
 180:Generated_Source\PSoC4/UART_XB_UART.c ****             /* Configure RX direction */
 181:Generated_Source\PSoC4/UART_XB_UART.c ****             UART_XB_UART_TX_CTRL_REG = UART_XB_GET_UART_TX_CTRL_MODE(config->stopBits) |
 182:Generated_Source\PSoC4/UART_XB_UART.c ****                                                 UART_XB_GET_UART_TX_CTRL_RETRY_NACK(config->enableR
 183:Generated_Source\PSoC4/UART_XB_UART.c **** 
 184:Generated_Source\PSoC4/UART_XB_UART.c ****             if(UART_XB_UART_PARITY_NONE != config->parity)
 185:Generated_Source\PSoC4/UART_XB_UART.c ****             {
 186:Generated_Source\PSoC4/UART_XB_UART.c ****                UART_XB_UART_TX_CTRL_REG |= UART_XB_GET_UART_TX_CTRL_PARITY(config->parity) |
 187:Generated_Source\PSoC4/UART_XB_UART.c ****                                                     UART_XB_UART_TX_CTRL_PARITY_ENABLED;
 188:Generated_Source\PSoC4/UART_XB_UART.c ****             }
 189:Generated_Source\PSoC4/UART_XB_UART.c **** 
 190:Generated_Source\PSoC4/UART_XB_UART.c ****             UART_XB_TX_CTRL_REG      = UART_XB_GET_TX_CTRL_DATA_WIDTH(config->dataBits)    |
 191:Generated_Source\PSoC4/UART_XB_UART.c ****                                                 UART_XB_GET_UART_TX_CTRL_ENABLED(config->direction)
 192:Generated_Source\PSoC4/UART_XB_UART.c **** 
 193:Generated_Source\PSoC4/UART_XB_UART.c ****             UART_XB_TX_FIFO_CTRL_REG = UART_XB_GET_TX_FIFO_CTRL_TRIGGER_LEVEL(config->txTriggerLeve
 194:Generated_Source\PSoC4/UART_XB_UART.c **** 
 195:Generated_Source\PSoC4/UART_XB_UART.c ****         #if !(UART_XB_CY_SCBIP_V0 || UART_XB_CY_SCBIP_V1)
 196:Generated_Source\PSoC4/UART_XB_UART.c ****             UART_XB_UART_FLOW_CTRL_REG = UART_XB_GET_UART_FLOW_CTRL_CTS_ENABLE(config->enableCts) |
 197:Generated_Source\PSoC4/UART_XB_UART.c ****                                             UART_XB_GET_UART_FLOW_CTRL_CTS_POLARITY (config->ctsPol
 198:Generated_Source\PSoC4/UART_XB_UART.c ****                                             UART_XB_GET_UART_FLOW_CTRL_RTS_POLARITY (config->rtsPol
 199:Generated_Source\PSoC4/UART_XB_UART.c ****                                             UART_XB_GET_UART_FLOW_CTRL_TRIGGER_LEVEL(config->rtsRxF
 200:Generated_Source\PSoC4/UART_XB_UART.c ****         #endif /* !(UART_XB_CY_SCBIP_V0 || UART_XB_CY_SCBIP_V1) */
 201:Generated_Source\PSoC4/UART_XB_UART.c **** 
 202:Generated_Source\PSoC4/UART_XB_UART.c ****             /* Configure interrupt with UART handler but do not enable it */
 203:Generated_Source\PSoC4/UART_XB_UART.c ****             CyIntDisable    (UART_XB_ISR_NUMBER);
ARM GAS  C:\Users\Petro\AppData\Local\Temp\ccYZf4Nl.s 			page 5


 204:Generated_Source\PSoC4/UART_XB_UART.c ****             CyIntSetPriority(UART_XB_ISR_NUMBER, UART_XB_ISR_PRIORITY);
 205:Generated_Source\PSoC4/UART_XB_UART.c ****             (void) CyIntSetVector(UART_XB_ISR_NUMBER, &UART_XB_SPI_UART_ISR);
 206:Generated_Source\PSoC4/UART_XB_UART.c **** 
 207:Generated_Source\PSoC4/UART_XB_UART.c ****             /* Configure WAKE interrupt */
 208:Generated_Source\PSoC4/UART_XB_UART.c ****         #if(UART_XB_UART_RX_WAKEUP_IRQ)
 209:Generated_Source\PSoC4/UART_XB_UART.c ****             CyIntDisable    (UART_XB_RX_WAKE_ISR_NUMBER);
 210:Generated_Source\PSoC4/UART_XB_UART.c ****             CyIntSetPriority(UART_XB_RX_WAKE_ISR_NUMBER, UART_XB_RX_WAKE_ISR_PRIORITY);
 211:Generated_Source\PSoC4/UART_XB_UART.c ****             (void) CyIntSetVector(UART_XB_RX_WAKE_ISR_NUMBER, &UART_XB_UART_WAKEUP_ISR);
 212:Generated_Source\PSoC4/UART_XB_UART.c ****         #endif /* (UART_XB_UART_RX_WAKEUP_IRQ) */
 213:Generated_Source\PSoC4/UART_XB_UART.c **** 
 214:Generated_Source\PSoC4/UART_XB_UART.c ****             /* Configure interrupt sources */
 215:Generated_Source\PSoC4/UART_XB_UART.c ****             UART_XB_INTR_I2C_EC_MASK_REG = UART_XB_NO_INTR_SOURCES;
 216:Generated_Source\PSoC4/UART_XB_UART.c ****             UART_XB_INTR_SPI_EC_MASK_REG = UART_XB_NO_INTR_SOURCES;
 217:Generated_Source\PSoC4/UART_XB_UART.c ****             UART_XB_INTR_SLAVE_MASK_REG  = UART_XB_NO_INTR_SOURCES;
 218:Generated_Source\PSoC4/UART_XB_UART.c ****             UART_XB_INTR_MASTER_MASK_REG = UART_XB_NO_INTR_SOURCES;
 219:Generated_Source\PSoC4/UART_XB_UART.c ****             UART_XB_INTR_RX_MASK_REG     = config->rxInterruptMask;
 220:Generated_Source\PSoC4/UART_XB_UART.c ****             UART_XB_INTR_TX_MASK_REG     = config->txInterruptMask;
 221:Generated_Source\PSoC4/UART_XB_UART.c ****         
 222:Generated_Source\PSoC4/UART_XB_UART.c ****             /* Configure TX interrupt sources to restore. */
 223:Generated_Source\PSoC4/UART_XB_UART.c ****             UART_XB_IntrTxMask = LO16(UART_XB_INTR_TX_MASK_REG);
 224:Generated_Source\PSoC4/UART_XB_UART.c **** 
 225:Generated_Source\PSoC4/UART_XB_UART.c ****             /* Clear RX buffer indexes */
 226:Generated_Source\PSoC4/UART_XB_UART.c ****             UART_XB_rxBufferHead     = 0u;
 227:Generated_Source\PSoC4/UART_XB_UART.c ****             UART_XB_rxBufferTail     = 0u;
 228:Generated_Source\PSoC4/UART_XB_UART.c ****             UART_XB_rxBufferOverflow = 0u;
 229:Generated_Source\PSoC4/UART_XB_UART.c **** 
 230:Generated_Source\PSoC4/UART_XB_UART.c ****             /* Clear TX buffer indexes */
 231:Generated_Source\PSoC4/UART_XB_UART.c ****             UART_XB_txBufferHead = 0u;
 232:Generated_Source\PSoC4/UART_XB_UART.c ****             UART_XB_txBufferTail = 0u;
 233:Generated_Source\PSoC4/UART_XB_UART.c ****         }
 234:Generated_Source\PSoC4/UART_XB_UART.c ****     }
 235:Generated_Source\PSoC4/UART_XB_UART.c **** 
 236:Generated_Source\PSoC4/UART_XB_UART.c **** #else
 237:Generated_Source\PSoC4/UART_XB_UART.c **** 
 238:Generated_Source\PSoC4/UART_XB_UART.c ****     /*******************************************************************************
 239:Generated_Source\PSoC4/UART_XB_UART.c ****     * Function Name: UART_XB_UartInit
 240:Generated_Source\PSoC4/UART_XB_UART.c ****     ****************************************************************************//**
 241:Generated_Source\PSoC4/UART_XB_UART.c ****     *
 242:Generated_Source\PSoC4/UART_XB_UART.c ****     *  Configures the SCB for the UART operation.
 243:Generated_Source\PSoC4/UART_XB_UART.c ****     *
 244:Generated_Source\PSoC4/UART_XB_UART.c ****     *******************************************************************************/
 245:Generated_Source\PSoC4/UART_XB_UART.c ****     void UART_XB_UartInit(void)
 246:Generated_Source\PSoC4/UART_XB_UART.c ****     {
  26              		.loc 1 246 0
  27              		.cfi_startproc
  28 0000 38B5     		push	{r3, r4, r5, lr}
  29              		.cfi_def_cfa_offset 16
  30              		.cfi_offset 3, -16
  31              		.cfi_offset 4, -12
  32              		.cfi_offset 5, -8
  33              		.cfi_offset 14, -4
 247:Generated_Source\PSoC4/UART_XB_UART.c ****         /* Configure UART interface */
 248:Generated_Source\PSoC4/UART_XB_UART.c ****         UART_XB_CTRL_REG = UART_XB_UART_DEFAULT_CTRL;
  34              		.loc 1 248 0
  35 0002 1F4A     		ldr	r2, .L2
 249:Generated_Source\PSoC4/UART_XB_UART.c **** 
 250:Generated_Source\PSoC4/UART_XB_UART.c ****         /* Configure sub-mode: UART, SmartCard or IrDA */
ARM GAS  C:\Users\Petro\AppData\Local\Temp\ccYZf4Nl.s 			page 6


 251:Generated_Source\PSoC4/UART_XB_UART.c ****         UART_XB_UART_CTRL_REG = UART_XB_UART_DEFAULT_UART_CTRL;
  36              		.loc 1 251 0
  37 0004 0024     		mov	r4, #0
 248:Generated_Source\PSoC4/UART_XB_UART.c **** 
  38              		.loc 1 248 0
  39 0006 1F4B     		ldr	r3, .L2+4
 252:Generated_Source\PSoC4/UART_XB_UART.c **** 
 253:Generated_Source\PSoC4/UART_XB_UART.c ****         /* Configure RX direction */
 254:Generated_Source\PSoC4/UART_XB_UART.c ****         UART_XB_UART_RX_CTRL_REG = UART_XB_UART_DEFAULT_UART_RX_CTRL;
 255:Generated_Source\PSoC4/UART_XB_UART.c ****         UART_XB_RX_CTRL_REG      = UART_XB_UART_DEFAULT_RX_CTRL;
 256:Generated_Source\PSoC4/UART_XB_UART.c ****         UART_XB_RX_FIFO_CTRL_REG = UART_XB_UART_DEFAULT_RX_FIFO_CTRL;
  40              		.loc 1 256 0
  41 0008 0720     		mov	r0, #7
 248:Generated_Source\PSoC4/UART_XB_UART.c **** 
  42              		.loc 1 248 0
  43 000a 1A60     		str	r2, [r3]
 254:Generated_Source\PSoC4/UART_XB_UART.c ****         UART_XB_RX_CTRL_REG      = UART_XB_UART_DEFAULT_RX_CTRL;
  44              		.loc 1 254 0
  45 000c 3122     		mov	r2, #49
 257:Generated_Source\PSoC4/UART_XB_UART.c ****         UART_XB_RX_MATCH_REG     = UART_XB_UART_DEFAULT_RX_MATCH_REG;
 258:Generated_Source\PSoC4/UART_XB_UART.c **** 
 259:Generated_Source\PSoC4/UART_XB_UART.c ****         /* Configure TX direction */
 260:Generated_Source\PSoC4/UART_XB_UART.c ****         UART_XB_UART_TX_CTRL_REG = UART_XB_UART_DEFAULT_UART_TX_CTRL;
 261:Generated_Source\PSoC4/UART_XB_UART.c ****         UART_XB_TX_CTRL_REG      = UART_XB_UART_DEFAULT_TX_CTRL;
 262:Generated_Source\PSoC4/UART_XB_UART.c ****         UART_XB_TX_FIFO_CTRL_REG = UART_XB_UART_DEFAULT_TX_FIFO_CTRL;
 263:Generated_Source\PSoC4/UART_XB_UART.c **** 
 264:Generated_Source\PSoC4/UART_XB_UART.c ****     #if !(UART_XB_CY_SCBIP_V0 || UART_XB_CY_SCBIP_V1)
 265:Generated_Source\PSoC4/UART_XB_UART.c ****         UART_XB_UART_FLOW_CTRL_REG = UART_XB_UART_DEFAULT_FLOW_CTRL;
  46              		.loc 1 265 0
  47 000e 0425     		mov	r5, #4
 251:Generated_Source\PSoC4/UART_XB_UART.c **** 
  48              		.loc 1 251 0
  49 0010 1D4B     		ldr	r3, .L2+8
 255:Generated_Source\PSoC4/UART_XB_UART.c ****         UART_XB_RX_FIFO_CTRL_REG = UART_XB_UART_DEFAULT_RX_FIFO_CTRL;
  50              		.loc 1 255 0
  51 0012 1E49     		ldr	r1, .L2+12
 251:Generated_Source\PSoC4/UART_XB_UART.c **** 
  52              		.loc 1 251 0
  53 0014 1C60     		str	r4, [r3]
 254:Generated_Source\PSoC4/UART_XB_UART.c ****         UART_XB_RX_CTRL_REG      = UART_XB_UART_DEFAULT_RX_CTRL;
  54              		.loc 1 254 0
  55 0016 1E4B     		ldr	r3, .L2+16
 266:Generated_Source\PSoC4/UART_XB_UART.c ****     #endif /* !(UART_XB_CY_SCBIP_V0 || UART_XB_CY_SCBIP_V1) */
 267:Generated_Source\PSoC4/UART_XB_UART.c **** 
 268:Generated_Source\PSoC4/UART_XB_UART.c ****         /* Configure interrupt with UART handler but do not enable it */
 269:Generated_Source\PSoC4/UART_XB_UART.c ****     #if(UART_XB_SCB_IRQ_INTERNAL)
 270:Generated_Source\PSoC4/UART_XB_UART.c ****         CyIntDisable    (UART_XB_ISR_NUMBER);
 271:Generated_Source\PSoC4/UART_XB_UART.c ****         CyIntSetPriority(UART_XB_ISR_NUMBER, UART_XB_ISR_PRIORITY);
 272:Generated_Source\PSoC4/UART_XB_UART.c ****         (void) CyIntSetVector(UART_XB_ISR_NUMBER, &UART_XB_SPI_UART_ISR);
 273:Generated_Source\PSoC4/UART_XB_UART.c ****     #endif /* (UART_XB_SCB_IRQ_INTERNAL) */
 274:Generated_Source\PSoC4/UART_XB_UART.c **** 
 275:Generated_Source\PSoC4/UART_XB_UART.c ****         /* Configure WAKE interrupt */
 276:Generated_Source\PSoC4/UART_XB_UART.c ****     #if(UART_XB_UART_RX_WAKEUP_IRQ)
 277:Generated_Source\PSoC4/UART_XB_UART.c ****         CyIntDisable    (UART_XB_RX_WAKE_ISR_NUMBER);
 278:Generated_Source\PSoC4/UART_XB_UART.c ****         CyIntSetPriority(UART_XB_RX_WAKE_ISR_NUMBER, UART_XB_RX_WAKE_ISR_PRIORITY);
 279:Generated_Source\PSoC4/UART_XB_UART.c ****         (void) CyIntSetVector(UART_XB_RX_WAKE_ISR_NUMBER, &UART_XB_UART_WAKEUP_ISR);
 280:Generated_Source\PSoC4/UART_XB_UART.c ****     #endif /* (UART_XB_UART_RX_WAKEUP_IRQ) */
ARM GAS  C:\Users\Petro\AppData\Local\Temp\ccYZf4Nl.s 			page 7


 281:Generated_Source\PSoC4/UART_XB_UART.c **** 
 282:Generated_Source\PSoC4/UART_XB_UART.c ****         /* Configure interrupt sources */
 283:Generated_Source\PSoC4/UART_XB_UART.c ****         UART_XB_INTR_I2C_EC_MASK_REG = UART_XB_UART_DEFAULT_INTR_I2C_EC_MASK;
 284:Generated_Source\PSoC4/UART_XB_UART.c ****         UART_XB_INTR_SPI_EC_MASK_REG = UART_XB_UART_DEFAULT_INTR_SPI_EC_MASK;
 285:Generated_Source\PSoC4/UART_XB_UART.c ****         UART_XB_INTR_SLAVE_MASK_REG  = UART_XB_UART_DEFAULT_INTR_SLAVE_MASK;
 286:Generated_Source\PSoC4/UART_XB_UART.c ****         UART_XB_INTR_MASTER_MASK_REG = UART_XB_UART_DEFAULT_INTR_MASTER_MASK;
 287:Generated_Source\PSoC4/UART_XB_UART.c ****         UART_XB_INTR_RX_MASK_REG     = UART_XB_UART_DEFAULT_INTR_RX_MASK;
 288:Generated_Source\PSoC4/UART_XB_UART.c ****         UART_XB_INTR_TX_MASK_REG     = UART_XB_UART_DEFAULT_INTR_TX_MASK;
 289:Generated_Source\PSoC4/UART_XB_UART.c ****     
 290:Generated_Source\PSoC4/UART_XB_UART.c ****         /* Configure TX interrupt sources to restore. */
 291:Generated_Source\PSoC4/UART_XB_UART.c ****         UART_XB_IntrTxMask = LO16(UART_XB_INTR_TX_MASK_REG);
 292:Generated_Source\PSoC4/UART_XB_UART.c **** 
 293:Generated_Source\PSoC4/UART_XB_UART.c ****     #if(UART_XB_INTERNAL_RX_SW_BUFFER_CONST)
 294:Generated_Source\PSoC4/UART_XB_UART.c ****         UART_XB_rxBufferHead     = 0u;
 295:Generated_Source\PSoC4/UART_XB_UART.c ****         UART_XB_rxBufferTail     = 0u;
 296:Generated_Source\PSoC4/UART_XB_UART.c ****         UART_XB_rxBufferOverflow = 0u;
 297:Generated_Source\PSoC4/UART_XB_UART.c ****     #endif /* (UART_XB_INTERNAL_RX_SW_BUFFER_CONST) */
 298:Generated_Source\PSoC4/UART_XB_UART.c **** 
 299:Generated_Source\PSoC4/UART_XB_UART.c ****     #if(UART_XB_INTERNAL_TX_SW_BUFFER_CONST)
 300:Generated_Source\PSoC4/UART_XB_UART.c ****         UART_XB_txBufferHead = 0u;
 301:Generated_Source\PSoC4/UART_XB_UART.c ****         UART_XB_txBufferTail = 0u;
 302:Generated_Source\PSoC4/UART_XB_UART.c ****     #endif /* (UART_XB_INTERNAL_TX_SW_BUFFER_CONST) */
 303:Generated_Source\PSoC4/UART_XB_UART.c ****     }
  56              		.loc 1 303 0
  57              		@ sp needed
 254:Generated_Source\PSoC4/UART_XB_UART.c ****         UART_XB_RX_CTRL_REG      = UART_XB_UART_DEFAULT_RX_CTRL;
  58              		.loc 1 254 0
  59 0018 1A60     		str	r2, [r3]
 255:Generated_Source\PSoC4/UART_XB_UART.c ****         UART_XB_RX_FIFO_CTRL_REG = UART_XB_UART_DEFAULT_RX_FIFO_CTRL;
  60              		.loc 1 255 0
  61 001a 1E4B     		ldr	r3, .L2+20
  62 001c 0B60     		str	r3, [r1]
 256:Generated_Source\PSoC4/UART_XB_UART.c ****         UART_XB_RX_MATCH_REG     = UART_XB_UART_DEFAULT_RX_MATCH_REG;
  63              		.loc 1 256 0
  64 001e 1E49     		ldr	r1, .L2+24
  65 0020 0860     		str	r0, [r1]
 257:Generated_Source\PSoC4/UART_XB_UART.c **** 
  66              		.loc 1 257 0
  67 0022 1E49     		ldr	r1, .L2+28
 270:Generated_Source\PSoC4/UART_XB_UART.c ****         CyIntSetPriority(UART_XB_ISR_NUMBER, UART_XB_ISR_PRIORITY);
  68              		.loc 1 270 0
  69 0024 0230     		add	r0, r0, #2
 257:Generated_Source\PSoC4/UART_XB_UART.c **** 
  70              		.loc 1 257 0
  71 0026 0C60     		str	r4, [r1]
 260:Generated_Source\PSoC4/UART_XB_UART.c ****         UART_XB_TX_CTRL_REG      = UART_XB_UART_DEFAULT_TX_CTRL;
  72              		.loc 1 260 0
  73 0028 1D49     		ldr	r1, .L2+32
  74 002a 0A60     		str	r2, [r1]
 261:Generated_Source\PSoC4/UART_XB_UART.c ****         UART_XB_TX_FIFO_CTRL_REG = UART_XB_UART_DEFAULT_TX_FIFO_CTRL;
  75              		.loc 1 261 0
  76 002c 1D4A     		ldr	r2, .L2+36
  77 002e 1360     		str	r3, [r2]
 262:Generated_Source\PSoC4/UART_XB_UART.c **** 
  78              		.loc 1 262 0
  79 0030 1D4B     		ldr	r3, .L2+40
  80 0032 1C60     		str	r4, [r3]
ARM GAS  C:\Users\Petro\AppData\Local\Temp\ccYZf4Nl.s 			page 8


 265:Generated_Source\PSoC4/UART_XB_UART.c ****     #endif /* !(UART_XB_CY_SCBIP_V0 || UART_XB_CY_SCBIP_V1) */
  81              		.loc 1 265 0
  82 0034 1D4B     		ldr	r3, .L2+44
  83 0036 1D60     		str	r5, [r3]
 270:Generated_Source\PSoC4/UART_XB_UART.c ****         CyIntSetPriority(UART_XB_ISR_NUMBER, UART_XB_ISR_PRIORITY);
  84              		.loc 1 270 0
  85 0038 FFF7FEFF 		bl	CyIntDisable
  86              	.LVL0:
 271:Generated_Source\PSoC4/UART_XB_UART.c ****         (void) CyIntSetVector(UART_XB_ISR_NUMBER, &UART_XB_SPI_UART_ISR);
  87              		.loc 1 271 0
  88 003c 0920     		mov	r0, #9
  89 003e 0321     		mov	r1, #3
  90 0040 FFF7FEFF 		bl	CyIntSetPriority
  91              	.LVL1:
 272:Generated_Source\PSoC4/UART_XB_UART.c ****     #endif /* (UART_XB_SCB_IRQ_INTERNAL) */
  92              		.loc 1 272 0
  93 0044 1A49     		ldr	r1, .L2+48
  94 0046 0920     		mov	r0, #9
  95 0048 FFF7FEFF 		bl	CyIntSetVector
  96              	.LVL2:
 283:Generated_Source\PSoC4/UART_XB_UART.c ****         UART_XB_INTR_SPI_EC_MASK_REG = UART_XB_UART_DEFAULT_INTR_SPI_EC_MASK;
  97              		.loc 1 283 0
  98 004c 194B     		ldr	r3, .L2+52
  99 004e 1C60     		str	r4, [r3]
 284:Generated_Source\PSoC4/UART_XB_UART.c ****         UART_XB_INTR_SLAVE_MASK_REG  = UART_XB_UART_DEFAULT_INTR_SLAVE_MASK;
 100              		.loc 1 284 0
 101 0050 194B     		ldr	r3, .L2+56
 102 0052 1C60     		str	r4, [r3]
 285:Generated_Source\PSoC4/UART_XB_UART.c ****         UART_XB_INTR_MASTER_MASK_REG = UART_XB_UART_DEFAULT_INTR_MASTER_MASK;
 103              		.loc 1 285 0
 104 0054 194B     		ldr	r3, .L2+60
 105 0056 1C60     		str	r4, [r3]
 286:Generated_Source\PSoC4/UART_XB_UART.c ****         UART_XB_INTR_RX_MASK_REG     = UART_XB_UART_DEFAULT_INTR_RX_MASK;
 106              		.loc 1 286 0
 107 0058 194B     		ldr	r3, .L2+64
 108 005a 1C60     		str	r4, [r3]
 287:Generated_Source\PSoC4/UART_XB_UART.c ****         UART_XB_INTR_TX_MASK_REG     = UART_XB_UART_DEFAULT_INTR_TX_MASK;
 109              		.loc 1 287 0
 110 005c 194B     		ldr	r3, .L2+68
 111 005e 1D60     		str	r5, [r3]
 288:Generated_Source\PSoC4/UART_XB_UART.c ****     
 112              		.loc 1 288 0
 113 0060 194B     		ldr	r3, .L2+72
 114 0062 1C60     		str	r4, [r3]
 291:Generated_Source\PSoC4/UART_XB_UART.c **** 
 115              		.loc 1 291 0
 116 0064 1A68     		ldr	r2, [r3]
 117 0066 194B     		ldr	r3, .L2+76
 118 0068 1A80     		strh	r2, [r3]
 294:Generated_Source\PSoC4/UART_XB_UART.c ****         UART_XB_rxBufferTail     = 0u;
 119              		.loc 1 294 0
 120 006a 194B     		ldr	r3, .L2+80
 121 006c 1C60     		str	r4, [r3]
 295:Generated_Source\PSoC4/UART_XB_UART.c ****         UART_XB_rxBufferOverflow = 0u;
 122              		.loc 1 295 0
 123 006e 194B     		ldr	r3, .L2+84
 124 0070 1C60     		str	r4, [r3]
ARM GAS  C:\Users\Petro\AppData\Local\Temp\ccYZf4Nl.s 			page 9


 296:Generated_Source\PSoC4/UART_XB_UART.c ****     #endif /* (UART_XB_INTERNAL_RX_SW_BUFFER_CONST) */
 125              		.loc 1 296 0
 126 0072 194B     		ldr	r3, .L2+88
 127 0074 1C70     		strb	r4, [r3]
 300:Generated_Source\PSoC4/UART_XB_UART.c ****         UART_XB_txBufferTail = 0u;
 128              		.loc 1 300 0
 129 0076 194B     		ldr	r3, .L2+92
 130 0078 1C60     		str	r4, [r3]
 301:Generated_Source\PSoC4/UART_XB_UART.c ****     #endif /* (UART_XB_INTERNAL_TX_SW_BUFFER_CONST) */
 131              		.loc 1 301 0
 132 007a 194B     		ldr	r3, .L2+96
 133 007c 1C60     		str	r4, [r3]
 134              		.loc 1 303 0
 135 007e 38BD     		pop	{r3, r4, r5, pc}
 136              	.L3:
 137              		.align	2
 138              	.L2:
 139 0080 0B080002 		.word	33556491
 140 0084 00002440 		.word	1076101120
 141 0088 40002440 		.word	1076101184
 142 008c 00032440 		.word	1076101888
 143 0090 48002440 		.word	1076101192
 144 0094 07000080 		.word	-2147483641
 145 0098 04032440 		.word	1076101892
 146 009c 10032440 		.word	1076101904
 147 00a0 44002440 		.word	1076101188
 148 00a4 00022440 		.word	1076101632
 149 00a8 04022440 		.word	1076101636
 150 00ac 50002440 		.word	1076101200
 151 00b0 00000000 		.word	UART_XB_SPI_UART_ISR
 152 00b4 880E2440 		.word	1076104840
 153 00b8 C80E2440 		.word	1076104904
 154 00bc 480F2440 		.word	1076105032
 155 00c0 080F2440 		.word	1076104968
 156 00c4 C80F2440 		.word	1076105160
 157 00c8 880F2440 		.word	1076105096
 158 00cc 00000000 		.word	UART_XB_IntrTxMask
 159 00d0 00000000 		.word	UART_XB_rxBufferHead
 160 00d4 00000000 		.word	UART_XB_rxBufferTail
 161 00d8 00000000 		.word	UART_XB_rxBufferOverflow
 162 00dc 00000000 		.word	UART_XB_txBufferHead
 163 00e0 00000000 		.word	UART_XB_txBufferTail
 164              		.cfi_endproc
 165              	.LFE2:
 166              		.size	UART_XB_UartInit, .-UART_XB_UartInit
 167              		.section	.text.UART_XB_UartPostEnable,"ax",%progbits
 168              		.align	1
 169              		.global	UART_XB_UartPostEnable
 170              		.code	16
 171              		.thumb_func
 172              		.type	UART_XB_UartPostEnable, %function
 173              	UART_XB_UartPostEnable:
 174              	.LFB3:
 304:Generated_Source\PSoC4/UART_XB_UART.c **** #endif /* (UART_XB_SCB_MODE_UNCONFIG_CONST_CFG) */
 305:Generated_Source\PSoC4/UART_XB_UART.c **** 
 306:Generated_Source\PSoC4/UART_XB_UART.c **** 
 307:Generated_Source\PSoC4/UART_XB_UART.c **** /*******************************************************************************
ARM GAS  C:\Users\Petro\AppData\Local\Temp\ccYZf4Nl.s 			page 10


 308:Generated_Source\PSoC4/UART_XB_UART.c **** * Function Name: UART_XB_UartPostEnable
 309:Generated_Source\PSoC4/UART_XB_UART.c **** ****************************************************************************//**
 310:Generated_Source\PSoC4/UART_XB_UART.c **** *
 311:Generated_Source\PSoC4/UART_XB_UART.c **** *  Restores HSIOM settings for the UART output pins (TX and/or RTS) to be
 312:Generated_Source\PSoC4/UART_XB_UART.c **** *  controlled by the SCB UART.
 313:Generated_Source\PSoC4/UART_XB_UART.c **** *
 314:Generated_Source\PSoC4/UART_XB_UART.c **** *******************************************************************************/
 315:Generated_Source\PSoC4/UART_XB_UART.c **** void UART_XB_UartPostEnable(void)
 316:Generated_Source\PSoC4/UART_XB_UART.c **** {
 175              		.loc 1 316 0
 176              		.cfi_startproc
 317:Generated_Source\PSoC4/UART_XB_UART.c **** #if (UART_XB_SCB_MODE_UNCONFIG_CONST_CFG)
 318:Generated_Source\PSoC4/UART_XB_UART.c ****     #if (UART_XB_TX_SCL_MISO_PIN)
 319:Generated_Source\PSoC4/UART_XB_UART.c ****         if (UART_XB_CHECK_TX_SCL_MISO_PIN_USED)
 320:Generated_Source\PSoC4/UART_XB_UART.c ****         {
 321:Generated_Source\PSoC4/UART_XB_UART.c ****             /* Set SCB UART to drive the output pin */
 322:Generated_Source\PSoC4/UART_XB_UART.c ****             UART_XB_SET_HSIOM_SEL(UART_XB_TX_SCL_MISO_HSIOM_REG, UART_XB_TX_SCL_MISO_HSIOM_MASK,
 323:Generated_Source\PSoC4/UART_XB_UART.c ****                                            UART_XB_TX_SCL_MISO_HSIOM_POS, UART_XB_TX_SCL_MISO_HSIOM
 324:Generated_Source\PSoC4/UART_XB_UART.c ****         }
 325:Generated_Source\PSoC4/UART_XB_UART.c ****     #endif /* (UART_XB_TX_SCL_MISO_PIN_PIN) */
 326:Generated_Source\PSoC4/UART_XB_UART.c **** 
 327:Generated_Source\PSoC4/UART_XB_UART.c ****     #if !(UART_XB_CY_SCBIP_V0 || UART_XB_CY_SCBIP_V1)
 328:Generated_Source\PSoC4/UART_XB_UART.c ****         #if (UART_XB_RTS_SS0_PIN)
 329:Generated_Source\PSoC4/UART_XB_UART.c ****             if (UART_XB_CHECK_RTS_SS0_PIN_USED)
 330:Generated_Source\PSoC4/UART_XB_UART.c ****             {
 331:Generated_Source\PSoC4/UART_XB_UART.c ****                 /* Set SCB UART to drive the output pin */
 332:Generated_Source\PSoC4/UART_XB_UART.c ****                 UART_XB_SET_HSIOM_SEL(UART_XB_RTS_SS0_HSIOM_REG, UART_XB_RTS_SS0_HSIOM_MASK,
 333:Generated_Source\PSoC4/UART_XB_UART.c ****                                                UART_XB_RTS_SS0_HSIOM_POS, UART_XB_RTS_SS0_HSIOM_SEL
 334:Generated_Source\PSoC4/UART_XB_UART.c ****             }
 335:Generated_Source\PSoC4/UART_XB_UART.c ****         #endif /* (UART_XB_RTS_SS0_PIN) */
 336:Generated_Source\PSoC4/UART_XB_UART.c ****     #endif /* !(UART_XB_CY_SCBIP_V0 || UART_XB_CY_SCBIP_V1) */
 337:Generated_Source\PSoC4/UART_XB_UART.c **** 
 338:Generated_Source\PSoC4/UART_XB_UART.c **** #else
 339:Generated_Source\PSoC4/UART_XB_UART.c ****     #if (UART_XB_UART_TX_PIN)
 340:Generated_Source\PSoC4/UART_XB_UART.c ****          /* Set SCB UART to drive the output pin */
 341:Generated_Source\PSoC4/UART_XB_UART.c ****         UART_XB_SET_HSIOM_SEL(UART_XB_TX_HSIOM_REG, UART_XB_TX_HSIOM_MASK,
 177              		.loc 1 341 0
 178 0000 064A     		ldr	r2, .L5
 179 0002 074B     		ldr	r3, .L5+4
 180 0004 1168     		ldr	r1, [r2]
 342:Generated_Source\PSoC4/UART_XB_UART.c ****                                        UART_XB_TX_HSIOM_POS, UART_XB_TX_HSIOM_SEL_UART);
 343:Generated_Source\PSoC4/UART_XB_UART.c ****     #endif /* (UART_XB_UART_TX_PIN) */
 344:Generated_Source\PSoC4/UART_XB_UART.c **** 
 345:Generated_Source\PSoC4/UART_XB_UART.c ****     #if (UART_XB_UART_RTS_PIN)
 346:Generated_Source\PSoC4/UART_XB_UART.c ****         /* Set SCB UART to drive the output pin */
 347:Generated_Source\PSoC4/UART_XB_UART.c ****         UART_XB_SET_HSIOM_SEL(UART_XB_RTS_HSIOM_REG, UART_XB_RTS_HSIOM_MASK,
 348:Generated_Source\PSoC4/UART_XB_UART.c ****                                        UART_XB_RTS_HSIOM_POS, UART_XB_RTS_HSIOM_SEL_UART);
 349:Generated_Source\PSoC4/UART_XB_UART.c ****     #endif /* (UART_XB_UART_RTS_PIN) */
 350:Generated_Source\PSoC4/UART_XB_UART.c **** #endif /* (UART_XB_SCB_MODE_UNCONFIG_CONST_CFG) */
 351:Generated_Source\PSoC4/UART_XB_UART.c **** 
 352:Generated_Source\PSoC4/UART_XB_UART.c ****     /* Restore TX interrupt sources. */
 353:Generated_Source\PSoC4/UART_XB_UART.c ****     UART_XB_SetTxInterruptMode(UART_XB_IntrTxMask);
 354:Generated_Source\PSoC4/UART_XB_UART.c **** }
 181              		.loc 1 354 0
 182              		@ sp needed
 341:Generated_Source\PSoC4/UART_XB_UART.c ****                                        UART_XB_TX_HSIOM_POS, UART_XB_TX_HSIOM_SEL_UART);
 183              		.loc 1 341 0
ARM GAS  C:\Users\Petro\AppData\Local\Temp\ccYZf4Nl.s 			page 11


 184 0006 0B40     		and	r3, r1
 185 0008 9021     		mov	r1, #144
 186 000a 0904     		lsl	r1, r1, #16
 187 000c 0B43     		orr	r3, r1
 188 000e 1360     		str	r3, [r2]
 353:Generated_Source\PSoC4/UART_XB_UART.c **** }
 189              		.loc 1 353 0
 190 0010 044B     		ldr	r3, .L5+8
 191 0012 1A88     		ldrh	r2, [r3]
 192 0014 044B     		ldr	r3, .L5+12
 193 0016 1A60     		str	r2, [r3]
 194              		.loc 1 354 0
 195 0018 7047     		bx	lr
 196              	.L6:
 197 001a C046     		.align	2
 198              	.L5:
 199 001c 00000240 		.word	1073872896
 200 0020 FFFF0FFF 		.word	-15728641
 201 0024 00000000 		.word	UART_XB_IntrTxMask
 202 0028 880F2440 		.word	1076105096
 203              		.cfi_endproc
 204              	.LFE3:
 205              		.size	UART_XB_UartPostEnable, .-UART_XB_UartPostEnable
 206              		.section	.text.UART_XB_UartStop,"ax",%progbits
 207              		.align	1
 208              		.global	UART_XB_UartStop
 209              		.code	16
 210              		.thumb_func
 211              		.type	UART_XB_UartStop, %function
 212              	UART_XB_UartStop:
 213              	.LFB4:
 355:Generated_Source\PSoC4/UART_XB_UART.c **** 
 356:Generated_Source\PSoC4/UART_XB_UART.c **** 
 357:Generated_Source\PSoC4/UART_XB_UART.c **** /*******************************************************************************
 358:Generated_Source\PSoC4/UART_XB_UART.c **** * Function Name: UART_XB_UartStop
 359:Generated_Source\PSoC4/UART_XB_UART.c **** ****************************************************************************//**
 360:Generated_Source\PSoC4/UART_XB_UART.c **** *
 361:Generated_Source\PSoC4/UART_XB_UART.c **** *  Changes the HSIOM settings for the UART output pins (TX and/or RTS) to keep
 362:Generated_Source\PSoC4/UART_XB_UART.c **** *  them inactive after the block is disabled. The output pins are controlled by
 363:Generated_Source\PSoC4/UART_XB_UART.c **** *  the GPIO data register. Also, the function disables the skip start feature
 364:Generated_Source\PSoC4/UART_XB_UART.c **** *  to not cause it to trigger after the component is enabled.
 365:Generated_Source\PSoC4/UART_XB_UART.c **** *
 366:Generated_Source\PSoC4/UART_XB_UART.c **** *******************************************************************************/
 367:Generated_Source\PSoC4/UART_XB_UART.c **** void UART_XB_UartStop(void)
 368:Generated_Source\PSoC4/UART_XB_UART.c **** {
 214              		.loc 1 368 0
 215              		.cfi_startproc
 369:Generated_Source\PSoC4/UART_XB_UART.c **** #if(UART_XB_SCB_MODE_UNCONFIG_CONST_CFG)
 370:Generated_Source\PSoC4/UART_XB_UART.c ****     #if (UART_XB_TX_SCL_MISO_PIN)
 371:Generated_Source\PSoC4/UART_XB_UART.c ****         if (UART_XB_CHECK_TX_SCL_MISO_PIN_USED)
 372:Generated_Source\PSoC4/UART_XB_UART.c ****         {
 373:Generated_Source\PSoC4/UART_XB_UART.c ****             /* Set GPIO to drive output pin */
 374:Generated_Source\PSoC4/UART_XB_UART.c ****             UART_XB_SET_HSIOM_SEL(UART_XB_TX_SCL_MISO_HSIOM_REG, UART_XB_TX_SCL_MISO_HSIOM_MASK,
 375:Generated_Source\PSoC4/UART_XB_UART.c ****                                            UART_XB_TX_SCL_MISO_HSIOM_POS, UART_XB_TX_SCL_MISO_HSIOM
 376:Generated_Source\PSoC4/UART_XB_UART.c ****         }
 377:Generated_Source\PSoC4/UART_XB_UART.c ****     #endif /* (UART_XB_TX_SCL_MISO_PIN_PIN) */
 378:Generated_Source\PSoC4/UART_XB_UART.c **** 
ARM GAS  C:\Users\Petro\AppData\Local\Temp\ccYZf4Nl.s 			page 12


 379:Generated_Source\PSoC4/UART_XB_UART.c ****     #if !(UART_XB_CY_SCBIP_V0 || UART_XB_CY_SCBIP_V1)
 380:Generated_Source\PSoC4/UART_XB_UART.c ****         #if (UART_XB_RTS_SS0_PIN)
 381:Generated_Source\PSoC4/UART_XB_UART.c ****             if (UART_XB_CHECK_RTS_SS0_PIN_USED)
 382:Generated_Source\PSoC4/UART_XB_UART.c ****             {
 383:Generated_Source\PSoC4/UART_XB_UART.c ****                 /* Set output pin state after block is disabled */
 384:Generated_Source\PSoC4/UART_XB_UART.c ****                 UART_XB_uart_rts_spi_ss0_Write(UART_XB_GET_UART_RTS_INACTIVE);
 385:Generated_Source\PSoC4/UART_XB_UART.c **** 
 386:Generated_Source\PSoC4/UART_XB_UART.c ****                 /* Set GPIO to drive output pin */
 387:Generated_Source\PSoC4/UART_XB_UART.c ****                 UART_XB_SET_HSIOM_SEL(UART_XB_RTS_SS0_HSIOM_REG, UART_XB_RTS_SS0_HSIOM_MASK,
 388:Generated_Source\PSoC4/UART_XB_UART.c ****                                                UART_XB_RTS_SS0_HSIOM_POS, UART_XB_RTS_SS0_HSIOM_SEL
 389:Generated_Source\PSoC4/UART_XB_UART.c ****             }
 390:Generated_Source\PSoC4/UART_XB_UART.c ****         #endif /* (UART_XB_RTS_SS0_PIN) */
 391:Generated_Source\PSoC4/UART_XB_UART.c ****     #endif /* !(UART_XB_CY_SCBIP_V0 || UART_XB_CY_SCBIP_V1) */
 392:Generated_Source\PSoC4/UART_XB_UART.c **** 
 393:Generated_Source\PSoC4/UART_XB_UART.c **** #else
 394:Generated_Source\PSoC4/UART_XB_UART.c ****     #if (UART_XB_UART_TX_PIN)
 395:Generated_Source\PSoC4/UART_XB_UART.c ****         /* Set GPIO to drive output pin */
 396:Generated_Source\PSoC4/UART_XB_UART.c ****         UART_XB_SET_HSIOM_SEL(UART_XB_TX_HSIOM_REG, UART_XB_TX_HSIOM_MASK,
 216              		.loc 1 396 0
 217 0000 064A     		ldr	r2, .L8
 218 0002 074B     		ldr	r3, .L8+4
 219 0004 1168     		ldr	r1, [r2]
 397:Generated_Source\PSoC4/UART_XB_UART.c ****                                        UART_XB_TX_HSIOM_POS, UART_XB_TX_HSIOM_SEL_GPIO);
 398:Generated_Source\PSoC4/UART_XB_UART.c ****     #endif /* (UART_XB_UART_TX_PIN) */
 399:Generated_Source\PSoC4/UART_XB_UART.c **** 
 400:Generated_Source\PSoC4/UART_XB_UART.c ****     #if (UART_XB_UART_RTS_PIN)
 401:Generated_Source\PSoC4/UART_XB_UART.c ****         /* Set output pin state after block is disabled */
 402:Generated_Source\PSoC4/UART_XB_UART.c ****         UART_XB_rts_Write(UART_XB_GET_UART_RTS_INACTIVE);
 403:Generated_Source\PSoC4/UART_XB_UART.c **** 
 404:Generated_Source\PSoC4/UART_XB_UART.c ****         /* Set GPIO to drive output pin */
 405:Generated_Source\PSoC4/UART_XB_UART.c ****         UART_XB_SET_HSIOM_SEL(UART_XB_RTS_HSIOM_REG, UART_XB_RTS_HSIOM_MASK,
 406:Generated_Source\PSoC4/UART_XB_UART.c ****                                        UART_XB_RTS_HSIOM_POS, UART_XB_RTS_HSIOM_SEL_GPIO);
 407:Generated_Source\PSoC4/UART_XB_UART.c ****     #endif /* (UART_XB_UART_RTS_PIN) */
 408:Generated_Source\PSoC4/UART_XB_UART.c **** 
 409:Generated_Source\PSoC4/UART_XB_UART.c **** #endif /* (UART_XB_SCB_MODE_UNCONFIG_CONST_CFG) */
 410:Generated_Source\PSoC4/UART_XB_UART.c **** 
 411:Generated_Source\PSoC4/UART_XB_UART.c **** #if (UART_XB_UART_WAKE_ENABLE_CONST)
 412:Generated_Source\PSoC4/UART_XB_UART.c ****     /* Disable skip start feature used for wakeup */
 413:Generated_Source\PSoC4/UART_XB_UART.c ****     UART_XB_UART_RX_CTRL_REG &= (uint32) ~UART_XB_UART_RX_CTRL_SKIP_START;
 414:Generated_Source\PSoC4/UART_XB_UART.c **** #endif /* (UART_XB_UART_WAKE_ENABLE_CONST) */
 415:Generated_Source\PSoC4/UART_XB_UART.c **** 
 416:Generated_Source\PSoC4/UART_XB_UART.c ****     /* Store TX interrupt sources (exclude level triggered). */
 417:Generated_Source\PSoC4/UART_XB_UART.c ****     UART_XB_IntrTxMask = LO16(UART_XB_GetTxInterruptMode() & UART_XB_INTR_UART_TX_RESTORE);
 418:Generated_Source\PSoC4/UART_XB_UART.c **** }
 220              		.loc 1 418 0
 221              		@ sp needed
 396:Generated_Source\PSoC4/UART_XB_UART.c ****                                        UART_XB_TX_HSIOM_POS, UART_XB_TX_HSIOM_SEL_GPIO);
 222              		.loc 1 396 0
 223 0006 0B40     		and	r3, r1
 224 0008 1360     		str	r3, [r2]
 417:Generated_Source\PSoC4/UART_XB_UART.c **** }
 225              		.loc 1 417 0
 226 000a 064B     		ldr	r3, .L8+8
 227 000c 1A68     		ldr	r2, [r3]
 228 000e E423     		mov	r3, #228
 229 0010 DB00     		lsl	r3, r3, #3
 230 0012 1340     		and	r3, r2
ARM GAS  C:\Users\Petro\AppData\Local\Temp\ccYZf4Nl.s 			page 13


 231 0014 044A     		ldr	r2, .L8+12
 232 0016 1380     		strh	r3, [r2]
 233              		.loc 1 418 0
 234 0018 7047     		bx	lr
 235              	.L9:
 236 001a C046     		.align	2
 237              	.L8:
 238 001c 00000240 		.word	1073872896
 239 0020 FFFF0FFF 		.word	-15728641
 240 0024 880F2440 		.word	1076105096
 241 0028 00000000 		.word	UART_XB_IntrTxMask
 242              		.cfi_endproc
 243              	.LFE4:
 244              		.size	UART_XB_UartStop, .-UART_XB_UartStop
 245              		.section	.text.UART_XB_UartSetRxAddress,"ax",%progbits
 246              		.align	1
 247              		.global	UART_XB_UartSetRxAddress
 248              		.code	16
 249              		.thumb_func
 250              		.type	UART_XB_UartSetRxAddress, %function
 251              	UART_XB_UartSetRxAddress:
 252              	.LFB5:
 419:Generated_Source\PSoC4/UART_XB_UART.c **** 
 420:Generated_Source\PSoC4/UART_XB_UART.c **** 
 421:Generated_Source\PSoC4/UART_XB_UART.c **** /*******************************************************************************
 422:Generated_Source\PSoC4/UART_XB_UART.c **** * Function Name: UART_XB_UartSetRxAddress
 423:Generated_Source\PSoC4/UART_XB_UART.c **** ****************************************************************************//**
 424:Generated_Source\PSoC4/UART_XB_UART.c **** *
 425:Generated_Source\PSoC4/UART_XB_UART.c **** *  Sets the hardware detectable receiver address for the UART in the
 426:Generated_Source\PSoC4/UART_XB_UART.c **** *  Multiprocessor mode.
 427:Generated_Source\PSoC4/UART_XB_UART.c **** *
 428:Generated_Source\PSoC4/UART_XB_UART.c **** *  \param address: Address for hardware address detection.
 429:Generated_Source\PSoC4/UART_XB_UART.c **** *
 430:Generated_Source\PSoC4/UART_XB_UART.c **** *******************************************************************************/
 431:Generated_Source\PSoC4/UART_XB_UART.c **** void UART_XB_UartSetRxAddress(uint32 address)
 432:Generated_Source\PSoC4/UART_XB_UART.c **** {
 253              		.loc 1 432 0
 254              		.cfi_startproc
 255              	.LVL3:
 433:Generated_Source\PSoC4/UART_XB_UART.c ****      uint32 matchReg;
 434:Generated_Source\PSoC4/UART_XB_UART.c **** 
 435:Generated_Source\PSoC4/UART_XB_UART.c ****     matchReg = UART_XB_RX_MATCH_REG;
 436:Generated_Source\PSoC4/UART_XB_UART.c **** 
 437:Generated_Source\PSoC4/UART_XB_UART.c ****     matchReg &= ((uint32) ~UART_XB_RX_MATCH_ADDR_MASK); /* Clear address bits */
 256              		.loc 1 437 0
 257 0000 FF22     		mov	r2, #255
 435:Generated_Source\PSoC4/UART_XB_UART.c **** 
 258              		.loc 1 435 0
 259 0002 0349     		ldr	r1, .L11
 438:Generated_Source\PSoC4/UART_XB_UART.c ****     matchReg |= ((uint32)  (address & UART_XB_RX_MATCH_ADDR_MASK)); /* Set address  */
 260              		.loc 1 438 0
 261 0004 1040     		and	r0, r2
 262              	.LVL4:
 435:Generated_Source\PSoC4/UART_XB_UART.c **** 
 263              		.loc 1 435 0
 264 0006 0B68     		ldr	r3, [r1]
 265              	.LVL5:
ARM GAS  C:\Users\Petro\AppData\Local\Temp\ccYZf4Nl.s 			page 14


 439:Generated_Source\PSoC4/UART_XB_UART.c **** 
 440:Generated_Source\PSoC4/UART_XB_UART.c ****     UART_XB_RX_MATCH_REG = matchReg;
 441:Generated_Source\PSoC4/UART_XB_UART.c **** }
 266              		.loc 1 441 0
 267              		@ sp needed
 437:Generated_Source\PSoC4/UART_XB_UART.c ****     matchReg |= ((uint32)  (address & UART_XB_RX_MATCH_ADDR_MASK)); /* Set address  */
 268              		.loc 1 437 0
 269 0008 9343     		bic	r3, r2
 270              	.LVL6:
 438:Generated_Source\PSoC4/UART_XB_UART.c ****     matchReg |= ((uint32)  (address & UART_XB_RX_MATCH_ADDR_MASK)); /* Set address  */
 271              		.loc 1 438 0
 272 000a 1843     		orr	r0, r3
 273              	.LVL7:
 440:Generated_Source\PSoC4/UART_XB_UART.c **** }
 274              		.loc 1 440 0
 275 000c 0860     		str	r0, [r1]
 276              		.loc 1 441 0
 277 000e 7047     		bx	lr
 278              	.L12:
 279              		.align	2
 280              	.L11:
 281 0010 10032440 		.word	1076101904
 282              		.cfi_endproc
 283              	.LFE5:
 284              		.size	UART_XB_UartSetRxAddress, .-UART_XB_UartSetRxAddress
 285              		.section	.text.UART_XB_UartSetRxAddressMask,"ax",%progbits
 286              		.align	1
 287              		.global	UART_XB_UartSetRxAddressMask
 288              		.code	16
 289              		.thumb_func
 290              		.type	UART_XB_UartSetRxAddressMask, %function
 291              	UART_XB_UartSetRxAddressMask:
 292              	.LFB6:
 442:Generated_Source\PSoC4/UART_XB_UART.c **** 
 443:Generated_Source\PSoC4/UART_XB_UART.c **** 
 444:Generated_Source\PSoC4/UART_XB_UART.c **** /*******************************************************************************
 445:Generated_Source\PSoC4/UART_XB_UART.c **** * Function Name: UART_XB_UartSetRxAddressMask
 446:Generated_Source\PSoC4/UART_XB_UART.c **** ****************************************************************************//**
 447:Generated_Source\PSoC4/UART_XB_UART.c **** *
 448:Generated_Source\PSoC4/UART_XB_UART.c **** *  Sets the hardware address mask for the UART in the Multiprocessor mode.
 449:Generated_Source\PSoC4/UART_XB_UART.c **** *
 450:Generated_Source\PSoC4/UART_XB_UART.c **** *  \param addressMask: Address mask.
 451:Generated_Source\PSoC4/UART_XB_UART.c **** *   - Bit value 0 – excludes bit from address comparison.
 452:Generated_Source\PSoC4/UART_XB_UART.c **** *   - Bit value 1 – the bit needs to match with the corresponding bit
 453:Generated_Source\PSoC4/UART_XB_UART.c **** *     of the address.
 454:Generated_Source\PSoC4/UART_XB_UART.c **** *
 455:Generated_Source\PSoC4/UART_XB_UART.c **** *******************************************************************************/
 456:Generated_Source\PSoC4/UART_XB_UART.c **** void UART_XB_UartSetRxAddressMask(uint32 addressMask)
 457:Generated_Source\PSoC4/UART_XB_UART.c **** {
 293              		.loc 1 457 0
 294              		.cfi_startproc
 295              	.LVL8:
 458:Generated_Source\PSoC4/UART_XB_UART.c ****     uint32 matchReg;
 459:Generated_Source\PSoC4/UART_XB_UART.c **** 
 460:Generated_Source\PSoC4/UART_XB_UART.c ****     matchReg = UART_XB_RX_MATCH_REG;
 296              		.loc 1 460 0
 297 0000 034A     		ldr	r2, .L14
ARM GAS  C:\Users\Petro\AppData\Local\Temp\ccYZf4Nl.s 			page 15


 461:Generated_Source\PSoC4/UART_XB_UART.c **** 
 462:Generated_Source\PSoC4/UART_XB_UART.c ****     matchReg &= ((uint32) ~UART_XB_RX_MATCH_MASK_MASK); /* Clear address mask bits */
 298              		.loc 1 462 0
 299 0002 044B     		ldr	r3, .L14+4
 460:Generated_Source\PSoC4/UART_XB_UART.c **** 
 300              		.loc 1 460 0
 301 0004 1168     		ldr	r1, [r2]
 302              	.LVL9:
 463:Generated_Source\PSoC4/UART_XB_UART.c ****     matchReg |= ((uint32) (addressMask << UART_XB_RX_MATCH_MASK_POS));
 303              		.loc 1 463 0
 304 0006 0004     		lsl	r0, r0, #16
 305              	.LVL10:
 462:Generated_Source\PSoC4/UART_XB_UART.c ****     matchReg |= ((uint32) (addressMask << UART_XB_RX_MATCH_MASK_POS));
 306              		.loc 1 462 0
 307 0008 0B40     		and	r3, r1
 308              	.LVL11:
 309              		.loc 1 463 0
 310 000a 1843     		orr	r0, r3
 311              	.LVL12:
 464:Generated_Source\PSoC4/UART_XB_UART.c **** 
 465:Generated_Source\PSoC4/UART_XB_UART.c ****     UART_XB_RX_MATCH_REG = matchReg;
 312              		.loc 1 465 0
 313 000c 1060     		str	r0, [r2]
 466:Generated_Source\PSoC4/UART_XB_UART.c **** }
 314              		.loc 1 466 0
 315              		@ sp needed
 316 000e 7047     		bx	lr
 317              	.L15:
 318              		.align	2
 319              	.L14:
 320 0010 10032440 		.word	1076101904
 321 0014 FFFF00FF 		.word	-16711681
 322              		.cfi_endproc
 323              	.LFE6:
 324              		.size	UART_XB_UartSetRxAddressMask, .-UART_XB_UartSetRxAddressMask
 325              		.section	.text.UART_XB_UartGetChar,"ax",%progbits
 326              		.align	1
 327              		.global	UART_XB_UartGetChar
 328              		.code	16
 329              		.thumb_func
 330              		.type	UART_XB_UartGetChar, %function
 331              	UART_XB_UartGetChar:
 332              	.LFB7:
 467:Generated_Source\PSoC4/UART_XB_UART.c **** 
 468:Generated_Source\PSoC4/UART_XB_UART.c **** 
 469:Generated_Source\PSoC4/UART_XB_UART.c **** #if(UART_XB_UART_RX_DIRECTION)
 470:Generated_Source\PSoC4/UART_XB_UART.c ****     /*******************************************************************************
 471:Generated_Source\PSoC4/UART_XB_UART.c ****     * Function Name: UART_XB_UartGetChar
 472:Generated_Source\PSoC4/UART_XB_UART.c ****     ****************************************************************************//**
 473:Generated_Source\PSoC4/UART_XB_UART.c ****     *
 474:Generated_Source\PSoC4/UART_XB_UART.c ****     *  Retrieves next data element from receive buffer.
 475:Generated_Source\PSoC4/UART_XB_UART.c ****     *  This function is designed for ASCII characters and returns a char where
 476:Generated_Source\PSoC4/UART_XB_UART.c ****     *  1 to 255 are valid characters and 0 indicates an error occurred or no data
 477:Generated_Source\PSoC4/UART_XB_UART.c ****     *  is present.
 478:Generated_Source\PSoC4/UART_XB_UART.c ****     *  - RX software buffer is disabled: Returns data element retrieved from RX
 479:Generated_Source\PSoC4/UART_XB_UART.c ****     *    FIFO.
 480:Generated_Source\PSoC4/UART_XB_UART.c ****     *  - RX software buffer is enabled: Returns data element from the software
ARM GAS  C:\Users\Petro\AppData\Local\Temp\ccYZf4Nl.s 			page 16


 481:Generated_Source\PSoC4/UART_XB_UART.c ****     *    receive buffer.
 482:Generated_Source\PSoC4/UART_XB_UART.c ****     *
 483:Generated_Source\PSoC4/UART_XB_UART.c ****     *  \return
 484:Generated_Source\PSoC4/UART_XB_UART.c ****     *   Next data element from the receive buffer. ASCII character values from
 485:Generated_Source\PSoC4/UART_XB_UART.c ****     *   1 to 255 are valid. A returned zero signifies an error condition or no
 486:Generated_Source\PSoC4/UART_XB_UART.c ****     *   data available.
 487:Generated_Source\PSoC4/UART_XB_UART.c ****     *
 488:Generated_Source\PSoC4/UART_XB_UART.c ****     *  \sideeffect
 489:Generated_Source\PSoC4/UART_XB_UART.c ****     *   The errors bits may not correspond with reading characters due to
 490:Generated_Source\PSoC4/UART_XB_UART.c ****     *   RX FIFO and software buffer usage.
 491:Generated_Source\PSoC4/UART_XB_UART.c ****     *   RX software buffer is enabled: The internal software buffer overflow
 492:Generated_Source\PSoC4/UART_XB_UART.c ****     *   is not treated as an error condition.
 493:Generated_Source\PSoC4/UART_XB_UART.c ****     *   Check UART_XB_rxBufferOverflow to capture that error condition.
 494:Generated_Source\PSoC4/UART_XB_UART.c ****     *
 495:Generated_Source\PSoC4/UART_XB_UART.c ****     *******************************************************************************/
 496:Generated_Source\PSoC4/UART_XB_UART.c ****     uint32 UART_XB_UartGetChar(void)
 497:Generated_Source\PSoC4/UART_XB_UART.c ****     {
 333              		.loc 1 497 0
 334              		.cfi_startproc
 335              	.LVL13:
 336 0000 08B5     		push	{r3, lr}
 337              		.cfi_def_cfa_offset 8
 338              		.cfi_offset 3, -8
 339              		.cfi_offset 14, -4
 498:Generated_Source\PSoC4/UART_XB_UART.c ****         uint32 rxData = 0u;
 499:Generated_Source\PSoC4/UART_XB_UART.c **** 
 500:Generated_Source\PSoC4/UART_XB_UART.c ****         /* Reads data only if there is data to read */
 501:Generated_Source\PSoC4/UART_XB_UART.c ****         if (0u != UART_XB_SpiUartGetRxBufferSize())
 340              		.loc 1 501 0
 341 0002 FFF7FEFF 		bl	UART_XB_SpiUartGetRxBufferSize
 342              	.LVL14:
 343 0006 031C     		mov	r3, r0
 498:Generated_Source\PSoC4/UART_XB_UART.c ****         uint32 rxData = 0u;
 344              		.loc 1 498 0
 345 0008 0020     		mov	r0, #0
 346              		.loc 1 501 0
 347 000a 8342     		cmp	r3, r0
 348 000c 01D0     		beq	.L17
 502:Generated_Source\PSoC4/UART_XB_UART.c ****         {
 503:Generated_Source\PSoC4/UART_XB_UART.c ****             rxData = UART_XB_SpiUartReadRxData();
 349              		.loc 1 503 0
 350 000e FFF7FEFF 		bl	UART_XB_SpiUartReadRxData
 351              	.LVL15:
 352              	.L17:
 504:Generated_Source\PSoC4/UART_XB_UART.c ****         }
 505:Generated_Source\PSoC4/UART_XB_UART.c **** 
 506:Generated_Source\PSoC4/UART_XB_UART.c ****         if (UART_XB_CHECK_INTR_RX(UART_XB_INTR_RX_ERR))
 353              		.loc 1 506 0
 354 0012 D822     		mov	r2, #216
 355 0014 034B     		ldr	r3, .L25
 356 0016 9200     		lsl	r2, r2, #2
 357 0018 1968     		ldr	r1, [r3]
 358 001a 1142     		tst	r1, r2
 359 001c 01D0     		beq	.L18
 360              	.LVL16:
 507:Generated_Source\PSoC4/UART_XB_UART.c ****         {
 508:Generated_Source\PSoC4/UART_XB_UART.c ****             rxData = 0u; /* Error occurred: returns zero */
ARM GAS  C:\Users\Petro\AppData\Local\Temp\ccYZf4Nl.s 			page 17


 361              		.loc 1 508 0
 362 001e 0020     		mov	r0, #0
 509:Generated_Source\PSoC4/UART_XB_UART.c ****             UART_XB_ClearRxInterruptSource(UART_XB_INTR_RX_ERR);
 363              		.loc 1 509 0
 364 0020 1A60     		str	r2, [r3]
 365              	.LVL17:
 366              	.L18:
 510:Generated_Source\PSoC4/UART_XB_UART.c ****         }
 511:Generated_Source\PSoC4/UART_XB_UART.c **** 
 512:Generated_Source\PSoC4/UART_XB_UART.c ****         return (rxData);
 513:Generated_Source\PSoC4/UART_XB_UART.c ****     }
 367              		.loc 1 513 0
 368              		@ sp needed
 369 0022 08BD     		pop	{r3, pc}
 370              	.L26:
 371              		.align	2
 372              	.L25:
 373 0024 C00F2440 		.word	1076105152
 374              		.cfi_endproc
 375              	.LFE7:
 376              		.size	UART_XB_UartGetChar, .-UART_XB_UartGetChar
 377              		.section	.text.UART_XB_UartGetByte,"ax",%progbits
 378              		.align	1
 379              		.global	UART_XB_UartGetByte
 380              		.code	16
 381              		.thumb_func
 382              		.type	UART_XB_UartGetByte, %function
 383              	UART_XB_UartGetByte:
 384              	.LFB8:
 514:Generated_Source\PSoC4/UART_XB_UART.c **** 
 515:Generated_Source\PSoC4/UART_XB_UART.c **** 
 516:Generated_Source\PSoC4/UART_XB_UART.c ****     /*******************************************************************************
 517:Generated_Source\PSoC4/UART_XB_UART.c ****     * Function Name: UART_XB_UartGetByte
 518:Generated_Source\PSoC4/UART_XB_UART.c ****     ****************************************************************************//**
 519:Generated_Source\PSoC4/UART_XB_UART.c ****     *
 520:Generated_Source\PSoC4/UART_XB_UART.c ****     *  Retrieves the next data element from the receive buffer, returns the
 521:Generated_Source\PSoC4/UART_XB_UART.c ****     *  received byte and error condition.
 522:Generated_Source\PSoC4/UART_XB_UART.c ****     *   - The RX software buffer is disabled: returns the data element retrieved
 523:Generated_Source\PSoC4/UART_XB_UART.c ****     *     from the RX FIFO. Undefined data will be returned if the RX FIFO is
 524:Generated_Source\PSoC4/UART_XB_UART.c ****     *     empty.
 525:Generated_Source\PSoC4/UART_XB_UART.c ****     *   - The RX software buffer is enabled: returns data element from the
 526:Generated_Source\PSoC4/UART_XB_UART.c ****     *     software receive buffer.
 527:Generated_Source\PSoC4/UART_XB_UART.c ****     *
 528:Generated_Source\PSoC4/UART_XB_UART.c ****     *  \return
 529:Generated_Source\PSoC4/UART_XB_UART.c ****     *   Bits 7-0 contain the next data element from the receive buffer and
 530:Generated_Source\PSoC4/UART_XB_UART.c ****     *   other bits contain the error condition.
 531:Generated_Source\PSoC4/UART_XB_UART.c ****     *   - UART_XB_UART_RX_OVERFLOW - Attempt to write to a full
 532:Generated_Source\PSoC4/UART_XB_UART.c ****     *     receiver FIFO.
 533:Generated_Source\PSoC4/UART_XB_UART.c ****     *   - UART_XB_UART_RX_UNDERFLOW	Attempt to read from an empty
 534:Generated_Source\PSoC4/UART_XB_UART.c ****     *     receiver FIFO.
 535:Generated_Source\PSoC4/UART_XB_UART.c ****     *   - UART_XB_UART_RX_FRAME_ERROR - UART framing error detected.
 536:Generated_Source\PSoC4/UART_XB_UART.c ****     *   - UART_XB_UART_RX_PARITY_ERROR - UART parity error detected.
 537:Generated_Source\PSoC4/UART_XB_UART.c ****     *
 538:Generated_Source\PSoC4/UART_XB_UART.c ****     *  \sideeffect
 539:Generated_Source\PSoC4/UART_XB_UART.c ****     *   The errors bits may not correspond with reading characters due to
 540:Generated_Source\PSoC4/UART_XB_UART.c ****     *   RX FIFO and software buffer usage.
 541:Generated_Source\PSoC4/UART_XB_UART.c ****     *   RX software buffer is enabled: The internal software buffer overflow
ARM GAS  C:\Users\Petro\AppData\Local\Temp\ccYZf4Nl.s 			page 18


 542:Generated_Source\PSoC4/UART_XB_UART.c ****     *   is not treated as an error condition.
 543:Generated_Source\PSoC4/UART_XB_UART.c ****     *   Check UART_XB_rxBufferOverflow to capture that error condition.
 544:Generated_Source\PSoC4/UART_XB_UART.c ****     *
 545:Generated_Source\PSoC4/UART_XB_UART.c ****     *******************************************************************************/
 546:Generated_Source\PSoC4/UART_XB_UART.c ****     uint32 UART_XB_UartGetByte(void)
 547:Generated_Source\PSoC4/UART_XB_UART.c ****     {
 385              		.loc 1 547 0
 386              		.cfi_startproc
 387 0000 38B5     		push	{r3, r4, r5, lr}
 388              		.cfi_def_cfa_offset 16
 389              		.cfi_offset 3, -16
 390              		.cfi_offset 4, -12
 391              		.cfi_offset 5, -8
 392              		.cfi_offset 14, -4
 548:Generated_Source\PSoC4/UART_XB_UART.c ****         uint32 rxData;
 549:Generated_Source\PSoC4/UART_XB_UART.c ****         uint32 tmpStatus;
 550:Generated_Source\PSoC4/UART_XB_UART.c **** 
 551:Generated_Source\PSoC4/UART_XB_UART.c ****         #if (UART_XB_CHECK_RX_SW_BUFFER)
 552:Generated_Source\PSoC4/UART_XB_UART.c ****         {
 553:Generated_Source\PSoC4/UART_XB_UART.c ****             UART_XB_DisableInt();
 393              		.loc 1 553 0
 394 0002 0920     		mov	r0, #9
 395 0004 FFF7FEFF 		bl	CyIntDisable
 396              	.LVL18:
 554:Generated_Source\PSoC4/UART_XB_UART.c ****         }
 555:Generated_Source\PSoC4/UART_XB_UART.c ****         #endif
 556:Generated_Source\PSoC4/UART_XB_UART.c **** 
 557:Generated_Source\PSoC4/UART_XB_UART.c ****         if (0u != UART_XB_SpiUartGetRxBufferSize())
 397              		.loc 1 557 0
 398 0008 FFF7FEFF 		bl	UART_XB_SpiUartGetRxBufferSize
 399              	.LVL19:
 400 000c 0C4D     		ldr	r5, .L30
 401 000e 0028     		cmp	r0, #0
 402 0010 06D0     		beq	.L28
 558:Generated_Source\PSoC4/UART_XB_UART.c ****         {
 559:Generated_Source\PSoC4/UART_XB_UART.c ****             /* Enables interrupt to receive more bytes: at least one byte is in
 560:Generated_Source\PSoC4/UART_XB_UART.c ****             * buffer.
 561:Generated_Source\PSoC4/UART_XB_UART.c ****             */
 562:Generated_Source\PSoC4/UART_XB_UART.c ****             #if (UART_XB_CHECK_RX_SW_BUFFER)
 563:Generated_Source\PSoC4/UART_XB_UART.c ****             {
 564:Generated_Source\PSoC4/UART_XB_UART.c ****                 UART_XB_EnableInt();
 403              		.loc 1 564 0
 404 0012 0920     		mov	r0, #9
 405 0014 FFF7FEFF 		bl	CyIntEnable
 406              	.LVL20:
 565:Generated_Source\PSoC4/UART_XB_UART.c ****             }
 566:Generated_Source\PSoC4/UART_XB_UART.c ****             #endif
 567:Generated_Source\PSoC4/UART_XB_UART.c **** 
 568:Generated_Source\PSoC4/UART_XB_UART.c ****             /* Get received byte */
 569:Generated_Source\PSoC4/UART_XB_UART.c ****             rxData = UART_XB_SpiUartReadRxData();
 407              		.loc 1 569 0
 408 0018 FFF7FEFF 		bl	UART_XB_SpiUartReadRxData
 409              	.LVL21:
 410 001c 041C     		mov	r4, r0
 411              	.LVL22:
 412 001e 06E0     		b	.L29
 413              	.LVL23:
ARM GAS  C:\Users\Petro\AppData\Local\Temp\ccYZf4Nl.s 			page 19


 414              	.L28:
 570:Generated_Source\PSoC4/UART_XB_UART.c ****         }
 571:Generated_Source\PSoC4/UART_XB_UART.c ****         else
 572:Generated_Source\PSoC4/UART_XB_UART.c ****         {
 573:Generated_Source\PSoC4/UART_XB_UART.c ****             /* Reads a byte directly from RX FIFO: underflow is raised in the
 574:Generated_Source\PSoC4/UART_XB_UART.c ****             * case of empty. Otherwise the first received byte will be read.
 575:Generated_Source\PSoC4/UART_XB_UART.c ****             */
 576:Generated_Source\PSoC4/UART_XB_UART.c ****             rxData = UART_XB_RX_FIFO_RD_REG;
 415              		.loc 1 576 0
 416 0020 084B     		ldr	r3, .L30+4
 577:Generated_Source\PSoC4/UART_XB_UART.c **** 
 578:Generated_Source\PSoC4/UART_XB_UART.c **** 
 579:Generated_Source\PSoC4/UART_XB_UART.c ****             /* Enables interrupt to receive more bytes. */
 580:Generated_Source\PSoC4/UART_XB_UART.c ****             #if (UART_XB_CHECK_RX_SW_BUFFER)
 581:Generated_Source\PSoC4/UART_XB_UART.c ****             {
 582:Generated_Source\PSoC4/UART_XB_UART.c **** 
 583:Generated_Source\PSoC4/UART_XB_UART.c ****                 /* The byte has been read from RX FIFO. Clear RX interrupt to
 584:Generated_Source\PSoC4/UART_XB_UART.c ****                 * not involve interrupt handler when RX FIFO is empty.
 585:Generated_Source\PSoC4/UART_XB_UART.c ****                 */
 586:Generated_Source\PSoC4/UART_XB_UART.c ****                 UART_XB_ClearRxInterruptSource(UART_XB_INTR_RX_NOT_EMPTY);
 587:Generated_Source\PSoC4/UART_XB_UART.c **** 
 588:Generated_Source\PSoC4/UART_XB_UART.c ****                 UART_XB_EnableInt();
 417              		.loc 1 588 0
 418 0022 0920     		mov	r0, #9
 576:Generated_Source\PSoC4/UART_XB_UART.c **** 
 419              		.loc 1 576 0
 420 0024 1C68     		ldr	r4, [r3]
 421              	.LVL24:
 586:Generated_Source\PSoC4/UART_XB_UART.c **** 
 422              		.loc 1 586 0
 423 0026 0423     		mov	r3, #4
 424 0028 2B60     		str	r3, [r5]
 425              		.loc 1 588 0
 426 002a FFF7FEFF 		bl	CyIntEnable
 427              	.LVL25:
 428              	.L29:
 589:Generated_Source\PSoC4/UART_XB_UART.c ****             }
 590:Generated_Source\PSoC4/UART_XB_UART.c ****             #endif
 591:Generated_Source\PSoC4/UART_XB_UART.c ****         }
 592:Generated_Source\PSoC4/UART_XB_UART.c **** 
 593:Generated_Source\PSoC4/UART_XB_UART.c ****         /* Get and clear RX error mask */
 594:Generated_Source\PSoC4/UART_XB_UART.c ****         tmpStatus = (UART_XB_GetRxInterruptSource() & UART_XB_INTR_RX_ERR);
 595:Generated_Source\PSoC4/UART_XB_UART.c ****         UART_XB_ClearRxInterruptSource(UART_XB_INTR_RX_ERR);
 429              		.loc 1 595 0
 430 002e D823     		mov	r3, #216
 594:Generated_Source\PSoC4/UART_XB_UART.c ****         UART_XB_ClearRxInterruptSource(UART_XB_INTR_RX_ERR);
 431              		.loc 1 594 0
 432 0030 2868     		ldr	r0, [r5]
 433              	.LVL26:
 434              		.loc 1 595 0
 435 0032 9B00     		lsl	r3, r3, #2
 594:Generated_Source\PSoC4/UART_XB_UART.c ****         UART_XB_ClearRxInterruptSource(UART_XB_INTR_RX_ERR);
 436              		.loc 1 594 0
 437 0034 1840     		and	r0, r3
 438              	.LVL27:
 596:Generated_Source\PSoC4/UART_XB_UART.c **** 
 597:Generated_Source\PSoC4/UART_XB_UART.c ****         /* Puts together data and error status:
ARM GAS  C:\Users\Petro\AppData\Local\Temp\ccYZf4Nl.s 			page 20


 598:Generated_Source\PSoC4/UART_XB_UART.c ****         * MP mode and accept address: 9th bit is set to notify mark.
 599:Generated_Source\PSoC4/UART_XB_UART.c ****         */
 600:Generated_Source\PSoC4/UART_XB_UART.c ****         rxData |= ((uint32) (tmpStatus << 8u));
 439              		.loc 1 600 0
 440 0036 0002     		lsl	r0, r0, #8
 595:Generated_Source\PSoC4/UART_XB_UART.c **** 
 441              		.loc 1 595 0
 442 0038 2B60     		str	r3, [r5]
 443              	.LVL28:
 444              		.loc 1 600 0
 445 003a 2043     		orr	r0, r4
 601:Generated_Source\PSoC4/UART_XB_UART.c **** 
 602:Generated_Source\PSoC4/UART_XB_UART.c ****         return (rxData);
 603:Generated_Source\PSoC4/UART_XB_UART.c ****     }
 446              		.loc 1 603 0
 447              		@ sp needed
 448 003c 38BD     		pop	{r3, r4, r5, pc}
 449              	.L31:
 450 003e C046     		.align	2
 451              	.L30:
 452 0040 C00F2440 		.word	1076105152
 453 0044 40032440 		.word	1076101952
 454              		.cfi_endproc
 455              	.LFE8:
 456              		.size	UART_XB_UartGetByte, .-UART_XB_UartGetByte
 457              		.section	.text.UART_XB_UartSetRtsPolarity,"ax",%progbits
 458              		.align	1
 459              		.global	UART_XB_UartSetRtsPolarity
 460              		.code	16
 461              		.thumb_func
 462              		.type	UART_XB_UartSetRtsPolarity, %function
 463              	UART_XB_UartSetRtsPolarity:
 464              	.LFB9:
 604:Generated_Source\PSoC4/UART_XB_UART.c **** 
 605:Generated_Source\PSoC4/UART_XB_UART.c **** 
 606:Generated_Source\PSoC4/UART_XB_UART.c ****     #if !(UART_XB_CY_SCBIP_V0 || UART_XB_CY_SCBIP_V1)
 607:Generated_Source\PSoC4/UART_XB_UART.c ****         /*******************************************************************************
 608:Generated_Source\PSoC4/UART_XB_UART.c ****         * Function Name: UART_XB_UartSetRtsPolarity
 609:Generated_Source\PSoC4/UART_XB_UART.c ****         ****************************************************************************//**
 610:Generated_Source\PSoC4/UART_XB_UART.c ****         *
 611:Generated_Source\PSoC4/UART_XB_UART.c ****         *  Sets active polarity of RTS output signal.
 612:Generated_Source\PSoC4/UART_XB_UART.c ****         *  Only available for PSoC 4100 BLE / PSoC 4200 BLE / PSoC 4100M / PSoC 4200M /
 613:Generated_Source\PSoC4/UART_XB_UART.c ****         *  PSoC 4200L / PSoC 4000S / PSoC 4100S / PSoC Analog Coprocessor devices.
 614:Generated_Source\PSoC4/UART_XB_UART.c ****         *
 615:Generated_Source\PSoC4/UART_XB_UART.c ****         *  \param polarity: Active polarity of RTS output signal.
 616:Generated_Source\PSoC4/UART_XB_UART.c ****         *   - UART_XB_UART_RTS_ACTIVE_LOW  - RTS signal is active low.
 617:Generated_Source\PSoC4/UART_XB_UART.c ****         *   - UART_XB_UART_RTS_ACTIVE_HIGH - RTS signal is active high.
 618:Generated_Source\PSoC4/UART_XB_UART.c ****         *
 619:Generated_Source\PSoC4/UART_XB_UART.c ****         *******************************************************************************/
 620:Generated_Source\PSoC4/UART_XB_UART.c ****         void UART_XB_UartSetRtsPolarity(uint32 polarity)
 621:Generated_Source\PSoC4/UART_XB_UART.c ****         {
 465              		.loc 1 621 0
 466              		.cfi_startproc
 467              	.LVL29:
 468 0000 064B     		ldr	r3, .L36
 622:Generated_Source\PSoC4/UART_XB_UART.c ****             if(0u != polarity)
 469              		.loc 1 622 0
ARM GAS  C:\Users\Petro\AppData\Local\Temp\ccYZf4Nl.s 			page 21


 470 0002 0028     		cmp	r0, #0
 471 0004 04D0     		beq	.L33
 623:Generated_Source\PSoC4/UART_XB_UART.c ****             {
 624:Generated_Source\PSoC4/UART_XB_UART.c ****                 UART_XB_UART_FLOW_CTRL_REG |= (uint32)  UART_XB_UART_FLOW_CTRL_RTS_POLARITY;
 472              		.loc 1 624 0
 473 0006 8021     		mov	r1, #128
 474 0008 1A68     		ldr	r2, [r3]
 475 000a 4902     		lsl	r1, r1, #9
 476 000c 0A43     		orr	r2, r1
 477 000e 02E0     		b	.L35
 478              	.L33:
 625:Generated_Source\PSoC4/UART_XB_UART.c ****             }
 626:Generated_Source\PSoC4/UART_XB_UART.c ****             else
 627:Generated_Source\PSoC4/UART_XB_UART.c ****             {
 628:Generated_Source\PSoC4/UART_XB_UART.c ****                 UART_XB_UART_FLOW_CTRL_REG &= (uint32) ~UART_XB_UART_FLOW_CTRL_RTS_POLARITY;
 479              		.loc 1 628 0
 480 0010 1968     		ldr	r1, [r3]
 481 0012 034A     		ldr	r2, .L36+4
 482 0014 0A40     		and	r2, r1
 483              	.L35:
 484 0016 1A60     		str	r2, [r3]
 629:Generated_Source\PSoC4/UART_XB_UART.c ****             }
 630:Generated_Source\PSoC4/UART_XB_UART.c ****         }
 485              		.loc 1 630 0
 486              		@ sp needed
 487 0018 7047     		bx	lr
 488              	.L37:
 489 001a C046     		.align	2
 490              	.L36:
 491 001c 50002440 		.word	1076101200
 492 0020 FFFFFEFF 		.word	-65537
 493              		.cfi_endproc
 494              	.LFE9:
 495              		.size	UART_XB_UartSetRtsPolarity, .-UART_XB_UartSetRtsPolarity
 496              		.section	.text.UART_XB_UartSetRtsFifoLevel,"ax",%progbits
 497              		.align	1
 498              		.global	UART_XB_UartSetRtsFifoLevel
 499              		.code	16
 500              		.thumb_func
 501              		.type	UART_XB_UartSetRtsFifoLevel, %function
 502              	UART_XB_UartSetRtsFifoLevel:
 503              	.LFB10:
 631:Generated_Source\PSoC4/UART_XB_UART.c **** 
 632:Generated_Source\PSoC4/UART_XB_UART.c **** 
 633:Generated_Source\PSoC4/UART_XB_UART.c ****         /*******************************************************************************
 634:Generated_Source\PSoC4/UART_XB_UART.c ****         * Function Name: UART_XB_UartSetRtsFifoLevel
 635:Generated_Source\PSoC4/UART_XB_UART.c ****         ****************************************************************************//**
 636:Generated_Source\PSoC4/UART_XB_UART.c ****         *
 637:Generated_Source\PSoC4/UART_XB_UART.c ****         *  Sets level in the RX FIFO for RTS signal activation.
 638:Generated_Source\PSoC4/UART_XB_UART.c ****         *  While the RX FIFO has fewer entries than the RX FIFO level the RTS signal
 639:Generated_Source\PSoC4/UART_XB_UART.c ****         *  remains active, otherwise the RTS signal becomes inactive.
 640:Generated_Source\PSoC4/UART_XB_UART.c ****         *  Only available for PSoC 4100 BLE / PSoC 4200 BLE / PSoC 4100M / PSoC 4200M /
 641:Generated_Source\PSoC4/UART_XB_UART.c ****         *  PSoC 4200L / PSoC 4000S / PSoC 4100S / PSoC Analog Coprocessor devices.
 642:Generated_Source\PSoC4/UART_XB_UART.c ****         *
 643:Generated_Source\PSoC4/UART_XB_UART.c ****         *  \param level: Level in the RX FIFO for RTS signal activation.
 644:Generated_Source\PSoC4/UART_XB_UART.c ****         *   The range of valid level values is between 0 and RX FIFO depth - 1.
 645:Generated_Source\PSoC4/UART_XB_UART.c ****         *   Setting level value to 0 disables RTS signal activation.
ARM GAS  C:\Users\Petro\AppData\Local\Temp\ccYZf4Nl.s 			page 22


 646:Generated_Source\PSoC4/UART_XB_UART.c ****         *
 647:Generated_Source\PSoC4/UART_XB_UART.c ****         *******************************************************************************/
 648:Generated_Source\PSoC4/UART_XB_UART.c ****         void UART_XB_UartSetRtsFifoLevel(uint32 level)
 649:Generated_Source\PSoC4/UART_XB_UART.c ****         {
 504              		.loc 1 649 0
 505              		.cfi_startproc
 506              	.LVL30:
 650:Generated_Source\PSoC4/UART_XB_UART.c ****             uint32 uartFlowCtrl;
 651:Generated_Source\PSoC4/UART_XB_UART.c **** 
 652:Generated_Source\PSoC4/UART_XB_UART.c ****             uartFlowCtrl = UART_XB_UART_FLOW_CTRL_REG;
 653:Generated_Source\PSoC4/UART_XB_UART.c **** 
 654:Generated_Source\PSoC4/UART_XB_UART.c ****             uartFlowCtrl &= ((uint32) ~UART_XB_UART_FLOW_CTRL_TRIGGER_LEVEL_MASK); /* Clear level m
 507              		.loc 1 654 0
 508 0000 0F22     		mov	r2, #15
 652:Generated_Source\PSoC4/UART_XB_UART.c **** 
 509              		.loc 1 652 0
 510 0002 0349     		ldr	r1, .L39
 655:Generated_Source\PSoC4/UART_XB_UART.c ****             uartFlowCtrl |= ((uint32) (UART_XB_UART_FLOW_CTRL_TRIGGER_LEVEL_MASK & level));
 511              		.loc 1 655 0
 512 0004 1040     		and	r0, r2
 513              	.LVL31:
 652:Generated_Source\PSoC4/UART_XB_UART.c **** 
 514              		.loc 1 652 0
 515 0006 0B68     		ldr	r3, [r1]
 516              	.LVL32:
 656:Generated_Source\PSoC4/UART_XB_UART.c **** 
 657:Generated_Source\PSoC4/UART_XB_UART.c ****             UART_XB_UART_FLOW_CTRL_REG = uartFlowCtrl;
 658:Generated_Source\PSoC4/UART_XB_UART.c ****         }
 517              		.loc 1 658 0
 518              		@ sp needed
 654:Generated_Source\PSoC4/UART_XB_UART.c ****             uartFlowCtrl |= ((uint32) (UART_XB_UART_FLOW_CTRL_TRIGGER_LEVEL_MASK & level));
 519              		.loc 1 654 0
 520 0008 9343     		bic	r3, r2
 521              	.LVL33:
 655:Generated_Source\PSoC4/UART_XB_UART.c ****             uartFlowCtrl |= ((uint32) (UART_XB_UART_FLOW_CTRL_TRIGGER_LEVEL_MASK & level));
 522              		.loc 1 655 0
 523 000a 1843     		orr	r0, r3
 524              	.LVL34:
 657:Generated_Source\PSoC4/UART_XB_UART.c ****         }
 525              		.loc 1 657 0
 526 000c 0860     		str	r0, [r1]
 527              		.loc 1 658 0
 528 000e 7047     		bx	lr
 529              	.L40:
 530              		.align	2
 531              	.L39:
 532 0010 50002440 		.word	1076101200
 533              		.cfi_endproc
 534              	.LFE10:
 535              		.size	UART_XB_UartSetRtsFifoLevel, .-UART_XB_UartSetRtsFifoLevel
 536              		.section	.text.UART_XB_UartPutString,"ax",%progbits
 537              		.align	1
 538              		.global	UART_XB_UartPutString
 539              		.code	16
 540              		.thumb_func
 541              		.type	UART_XB_UartPutString, %function
 542              	UART_XB_UartPutString:
ARM GAS  C:\Users\Petro\AppData\Local\Temp\ccYZf4Nl.s 			page 23


 543              	.LFB11:
 659:Generated_Source\PSoC4/UART_XB_UART.c ****     #endif /* !(UART_XB_CY_SCBIP_V0 || UART_XB_CY_SCBIP_V1) */
 660:Generated_Source\PSoC4/UART_XB_UART.c **** 
 661:Generated_Source\PSoC4/UART_XB_UART.c **** #endif /* (UART_XB_UART_RX_DIRECTION) */
 662:Generated_Source\PSoC4/UART_XB_UART.c **** 
 663:Generated_Source\PSoC4/UART_XB_UART.c **** 
 664:Generated_Source\PSoC4/UART_XB_UART.c **** #if(UART_XB_UART_TX_DIRECTION)
 665:Generated_Source\PSoC4/UART_XB_UART.c ****     /*******************************************************************************
 666:Generated_Source\PSoC4/UART_XB_UART.c ****     * Function Name: UART_XB_UartPutString
 667:Generated_Source\PSoC4/UART_XB_UART.c ****     ****************************************************************************//**
 668:Generated_Source\PSoC4/UART_XB_UART.c ****     *
 669:Generated_Source\PSoC4/UART_XB_UART.c ****     *  Places a NULL terminated string in the transmit buffer to be sent at the
 670:Generated_Source\PSoC4/UART_XB_UART.c ****     *  next available bus time.
 671:Generated_Source\PSoC4/UART_XB_UART.c ****     *  This function is blocking and waits until there is a space available to put
 672:Generated_Source\PSoC4/UART_XB_UART.c ****     *  requested data in transmit buffer.
 673:Generated_Source\PSoC4/UART_XB_UART.c ****     *
 674:Generated_Source\PSoC4/UART_XB_UART.c ****     *  \param string: pointer to the null terminated string array to be placed in the
 675:Generated_Source\PSoC4/UART_XB_UART.c ****     *   transmit buffer.
 676:Generated_Source\PSoC4/UART_XB_UART.c ****     *
 677:Generated_Source\PSoC4/UART_XB_UART.c ****     *******************************************************************************/
 678:Generated_Source\PSoC4/UART_XB_UART.c ****     void UART_XB_UartPutString(const char8 string[])
 679:Generated_Source\PSoC4/UART_XB_UART.c ****     {
 544              		.loc 1 679 0
 545              		.cfi_startproc
 546              	.LVL35:
 547 0000 10B5     		push	{r4, lr}
 548              		.cfi_def_cfa_offset 8
 549              		.cfi_offset 4, -8
 550              		.cfi_offset 14, -4
 551 0002 041C     		mov	r4, r0
 552              	.LVL36:
 553              	.L42:
 554 0004 0134     		add	r4, r4, #1
 555              	.LVL37:
 556 0006 631E     		sub	r3, r4, #1
 680:Generated_Source\PSoC4/UART_XB_UART.c ****         uint32 bufIndex;
 681:Generated_Source\PSoC4/UART_XB_UART.c **** 
 682:Generated_Source\PSoC4/UART_XB_UART.c ****         bufIndex = 0u;
 683:Generated_Source\PSoC4/UART_XB_UART.c **** 
 684:Generated_Source\PSoC4/UART_XB_UART.c ****         /* Blocks the control flow until all data has been sent */
 685:Generated_Source\PSoC4/UART_XB_UART.c ****         while(string[bufIndex] != ((char8) 0))
 557              		.loc 1 685 0
 558 0008 1878     		ldrb	r0, [r3]
 559 000a 0028     		cmp	r0, #0
 560 000c 02D0     		beq	.L44
 686:Generated_Source\PSoC4/UART_XB_UART.c ****         {
 687:Generated_Source\PSoC4/UART_XB_UART.c ****             UART_XB_UartPutChar((uint32) string[bufIndex]);
 561              		.loc 1 687 0
 562 000e FFF7FEFF 		bl	UART_XB_SpiUartWriteTxData
 563              	.LVL38:
 564 0012 F7E7     		b	.L42
 565              	.LVL39:
 566              	.L44:
 688:Generated_Source\PSoC4/UART_XB_UART.c ****             bufIndex++;
 689:Generated_Source\PSoC4/UART_XB_UART.c ****         }
 690:Generated_Source\PSoC4/UART_XB_UART.c ****     }
 567              		.loc 1 690 0
ARM GAS  C:\Users\Petro\AppData\Local\Temp\ccYZf4Nl.s 			page 24


 568              		@ sp needed
 569              	.LVL40:
 570 0014 10BD     		pop	{r4, pc}
 571              		.cfi_endproc
 572              	.LFE11:
 573              		.size	UART_XB_UartPutString, .-UART_XB_UartPutString
 574              		.section	.text.UART_XB_UartPutCRLF,"ax",%progbits
 575              		.align	1
 576              		.global	UART_XB_UartPutCRLF
 577              		.code	16
 578              		.thumb_func
 579              		.type	UART_XB_UartPutCRLF, %function
 580              	UART_XB_UartPutCRLF:
 581              	.LFB12:
 691:Generated_Source\PSoC4/UART_XB_UART.c **** 
 692:Generated_Source\PSoC4/UART_XB_UART.c **** 
 693:Generated_Source\PSoC4/UART_XB_UART.c ****     /*******************************************************************************
 694:Generated_Source\PSoC4/UART_XB_UART.c ****     * Function Name: UART_XB_UartPutCRLF
 695:Generated_Source\PSoC4/UART_XB_UART.c ****     ****************************************************************************//**
 696:Generated_Source\PSoC4/UART_XB_UART.c ****     *
 697:Generated_Source\PSoC4/UART_XB_UART.c ****     *  Places byte of data followed by a carriage return (0x0D) and line feed
 698:Generated_Source\PSoC4/UART_XB_UART.c ****     *  (0x0A) in the transmit buffer.
 699:Generated_Source\PSoC4/UART_XB_UART.c ****     *  This function is blocking and waits until there is a space available to put
 700:Generated_Source\PSoC4/UART_XB_UART.c ****     *  all requested data in transmit buffer.
 701:Generated_Source\PSoC4/UART_XB_UART.c ****     *
 702:Generated_Source\PSoC4/UART_XB_UART.c ****     *  \param txDataByte: the data to be transmitted.
 703:Generated_Source\PSoC4/UART_XB_UART.c ****     *
 704:Generated_Source\PSoC4/UART_XB_UART.c ****     *******************************************************************************/
 705:Generated_Source\PSoC4/UART_XB_UART.c ****     void UART_XB_UartPutCRLF(uint32 txDataByte)
 706:Generated_Source\PSoC4/UART_XB_UART.c ****     {
 582              		.loc 1 706 0
 583              		.cfi_startproc
 584              	.LVL41:
 585 0000 08B5     		push	{r3, lr}
 586              		.cfi_def_cfa_offset 8
 587              		.cfi_offset 3, -8
 588              		.cfi_offset 14, -4
 707:Generated_Source\PSoC4/UART_XB_UART.c ****         UART_XB_UartPutChar(txDataByte);  /* Blocks control flow until all data has been sent */
 589              		.loc 1 707 0
 590 0002 FFF7FEFF 		bl	UART_XB_SpiUartWriteTxData
 591              	.LVL42:
 708:Generated_Source\PSoC4/UART_XB_UART.c ****         UART_XB_UartPutChar(0x0Du);       /* Blocks control flow until all data has been sent */
 592              		.loc 1 708 0
 593 0006 0D20     		mov	r0, #13
 594 0008 FFF7FEFF 		bl	UART_XB_SpiUartWriteTxData
 595              	.LVL43:
 709:Generated_Source\PSoC4/UART_XB_UART.c ****         UART_XB_UartPutChar(0x0Au);       /* Blocks control flow until all data has been sent */
 596              		.loc 1 709 0
 597 000c 0A20     		mov	r0, #10
 598 000e FFF7FEFF 		bl	UART_XB_SpiUartWriteTxData
 599              	.LVL44:
 710:Generated_Source\PSoC4/UART_XB_UART.c ****     }
 600              		.loc 1 710 0
 601              		@ sp needed
 602 0012 08BD     		pop	{r3, pc}
 603              		.cfi_endproc
 604              	.LFE12:
ARM GAS  C:\Users\Petro\AppData\Local\Temp\ccYZf4Nl.s 			page 25


 605              		.size	UART_XB_UartPutCRLF, .-UART_XB_UartPutCRLF
 606              		.section	.text.UART_XB_UartEnableCts,"ax",%progbits
 607              		.align	1
 608              		.global	UART_XB_UartEnableCts
 609              		.code	16
 610              		.thumb_func
 611              		.type	UART_XB_UartEnableCts, %function
 612              	UART_XB_UartEnableCts:
 613              	.LFB13:
 711:Generated_Source\PSoC4/UART_XB_UART.c **** 
 712:Generated_Source\PSoC4/UART_XB_UART.c **** 
 713:Generated_Source\PSoC4/UART_XB_UART.c ****     #if !(UART_XB_CY_SCBIP_V0 || UART_XB_CY_SCBIP_V1)
 714:Generated_Source\PSoC4/UART_XB_UART.c ****         /*******************************************************************************
 715:Generated_Source\PSoC4/UART_XB_UART.c ****         * Function Name: UART_XBSCB_UartEnableCts
 716:Generated_Source\PSoC4/UART_XB_UART.c ****         ****************************************************************************//**
 717:Generated_Source\PSoC4/UART_XB_UART.c ****         *
 718:Generated_Source\PSoC4/UART_XB_UART.c ****         *  Enables usage of CTS input signal by the UART transmitter.
 719:Generated_Source\PSoC4/UART_XB_UART.c ****         *  Only available for PSoC 4100 BLE / PSoC 4200 BLE / PSoC 4100M / PSoC 4200M /
 720:Generated_Source\PSoC4/UART_XB_UART.c ****         *  PSoC 4200L / PSoC 4000S / PSoC 4100S / PSoC Analog Coprocessor devices.
 721:Generated_Source\PSoC4/UART_XB_UART.c ****         *
 722:Generated_Source\PSoC4/UART_XB_UART.c ****         *******************************************************************************/
 723:Generated_Source\PSoC4/UART_XB_UART.c ****         void UART_XB_UartEnableCts(void)
 724:Generated_Source\PSoC4/UART_XB_UART.c ****         {
 614              		.loc 1 724 0
 615              		.cfi_startproc
 725:Generated_Source\PSoC4/UART_XB_UART.c ****             UART_XB_UART_FLOW_CTRL_REG |= (uint32)  UART_XB_UART_FLOW_CTRL_CTS_ENABLE;
 616              		.loc 1 725 0
 617 0000 8021     		mov	r1, #128
 618 0002 034A     		ldr	r2, .L47
 619 0004 8904     		lsl	r1, r1, #18
 620 0006 1368     		ldr	r3, [r2]
 726:Generated_Source\PSoC4/UART_XB_UART.c ****         }
 621              		.loc 1 726 0
 622              		@ sp needed
 725:Generated_Source\PSoC4/UART_XB_UART.c ****             UART_XB_UART_FLOW_CTRL_REG |= (uint32)  UART_XB_UART_FLOW_CTRL_CTS_ENABLE;
 623              		.loc 1 725 0
 624 0008 0B43     		orr	r3, r1
 625 000a 1360     		str	r3, [r2]
 626              		.loc 1 726 0
 627 000c 7047     		bx	lr
 628              	.L48:
 629 000e C046     		.align	2
 630              	.L47:
 631 0010 50002440 		.word	1076101200
 632              		.cfi_endproc
 633              	.LFE13:
 634              		.size	UART_XB_UartEnableCts, .-UART_XB_UartEnableCts
 635              		.section	.text.UART_XB_UartDisableCts,"ax",%progbits
 636              		.align	1
 637              		.global	UART_XB_UartDisableCts
 638              		.code	16
 639              		.thumb_func
 640              		.type	UART_XB_UartDisableCts, %function
 641              	UART_XB_UartDisableCts:
 642              	.LFB14:
 727:Generated_Source\PSoC4/UART_XB_UART.c **** 
 728:Generated_Source\PSoC4/UART_XB_UART.c **** 
ARM GAS  C:\Users\Petro\AppData\Local\Temp\ccYZf4Nl.s 			page 26


 729:Generated_Source\PSoC4/UART_XB_UART.c ****         /*******************************************************************************
 730:Generated_Source\PSoC4/UART_XB_UART.c ****         * Function Name: UART_XB_UartDisableCts
 731:Generated_Source\PSoC4/UART_XB_UART.c ****         ****************************************************************************//**
 732:Generated_Source\PSoC4/UART_XB_UART.c ****         *
 733:Generated_Source\PSoC4/UART_XB_UART.c ****         *  Disables usage of CTS input signal by the UART transmitter.
 734:Generated_Source\PSoC4/UART_XB_UART.c ****         *  Only available for PSoC 4100 BLE / PSoC 4200 BLE / PSoC 4100M / PSoC 4200M /
 735:Generated_Source\PSoC4/UART_XB_UART.c ****         *  PSoC 4200L / PSoC 4000S / PSoC 4100S / PSoC Analog Coprocessor devices.
 736:Generated_Source\PSoC4/UART_XB_UART.c ****         *
 737:Generated_Source\PSoC4/UART_XB_UART.c ****         *******************************************************************************/
 738:Generated_Source\PSoC4/UART_XB_UART.c ****         void UART_XB_UartDisableCts(void)
 739:Generated_Source\PSoC4/UART_XB_UART.c ****         {
 643              		.loc 1 739 0
 644              		.cfi_startproc
 740:Generated_Source\PSoC4/UART_XB_UART.c ****             UART_XB_UART_FLOW_CTRL_REG &= (uint32) ~UART_XB_UART_FLOW_CTRL_CTS_ENABLE;
 645              		.loc 1 740 0
 646 0000 024A     		ldr	r2, .L50
 647 0002 034B     		ldr	r3, .L50+4
 648 0004 1168     		ldr	r1, [r2]
 741:Generated_Source\PSoC4/UART_XB_UART.c ****         }
 649              		.loc 1 741 0
 650              		@ sp needed
 740:Generated_Source\PSoC4/UART_XB_UART.c ****             UART_XB_UART_FLOW_CTRL_REG &= (uint32) ~UART_XB_UART_FLOW_CTRL_CTS_ENABLE;
 651              		.loc 1 740 0
 652 0006 0B40     		and	r3, r1
 653 0008 1360     		str	r3, [r2]
 654              		.loc 1 741 0
 655 000a 7047     		bx	lr
 656              	.L51:
 657              		.align	2
 658              	.L50:
 659 000c 50002440 		.word	1076101200
 660 0010 FFFFFFFD 		.word	-33554433
 661              		.cfi_endproc
 662              	.LFE14:
 663              		.size	UART_XB_UartDisableCts, .-UART_XB_UartDisableCts
 664              		.section	.text.UART_XB_UartSetCtsPolarity,"ax",%progbits
 665              		.align	1
 666              		.global	UART_XB_UartSetCtsPolarity
 667              		.code	16
 668              		.thumb_func
 669              		.type	UART_XB_UartSetCtsPolarity, %function
 670              	UART_XB_UartSetCtsPolarity:
 671              	.LFB15:
 742:Generated_Source\PSoC4/UART_XB_UART.c **** 
 743:Generated_Source\PSoC4/UART_XB_UART.c **** 
 744:Generated_Source\PSoC4/UART_XB_UART.c ****         /*******************************************************************************
 745:Generated_Source\PSoC4/UART_XB_UART.c ****         * Function Name: UART_XB_UartSetCtsPolarity
 746:Generated_Source\PSoC4/UART_XB_UART.c ****         ****************************************************************************//**
 747:Generated_Source\PSoC4/UART_XB_UART.c ****         *
 748:Generated_Source\PSoC4/UART_XB_UART.c ****         *  Sets active polarity of CTS input signal.
 749:Generated_Source\PSoC4/UART_XB_UART.c ****         *  Only available for PSoC 4100 BLE / PSoC 4200 BLE / PSoC 4100M / PSoC 4200M /
 750:Generated_Source\PSoC4/UART_XB_UART.c ****         *  PSoC 4200L / PSoC 4000S / PSoC 4100S / PSoC Analog Coprocessor devices.
 751:Generated_Source\PSoC4/UART_XB_UART.c ****         *
 752:Generated_Source\PSoC4/UART_XB_UART.c ****         *  \param polarity: Active polarity of CTS output signal.
 753:Generated_Source\PSoC4/UART_XB_UART.c ****         *   - UART_XB_UART_CTS_ACTIVE_LOW  - CTS signal is active low.
 754:Generated_Source\PSoC4/UART_XB_UART.c ****         *   - UART_XB_UART_CTS_ACTIVE_HIGH - CTS signal is active high.
 755:Generated_Source\PSoC4/UART_XB_UART.c ****         *
ARM GAS  C:\Users\Petro\AppData\Local\Temp\ccYZf4Nl.s 			page 27


 756:Generated_Source\PSoC4/UART_XB_UART.c ****         *******************************************************************************/
 757:Generated_Source\PSoC4/UART_XB_UART.c ****         void UART_XB_UartSetCtsPolarity(uint32 polarity)
 758:Generated_Source\PSoC4/UART_XB_UART.c ****         {
 672              		.loc 1 758 0
 673              		.cfi_startproc
 674              	.LVL45:
 675 0000 064B     		ldr	r3, .L56
 759:Generated_Source\PSoC4/UART_XB_UART.c ****             if (0u != polarity)
 676              		.loc 1 759 0
 677 0002 0028     		cmp	r0, #0
 678 0004 04D0     		beq	.L53
 760:Generated_Source\PSoC4/UART_XB_UART.c ****             {
 761:Generated_Source\PSoC4/UART_XB_UART.c ****                 UART_XB_UART_FLOW_CTRL_REG |= (uint32)  UART_XB_UART_FLOW_CTRL_CTS_POLARITY;
 679              		.loc 1 761 0
 680 0006 8021     		mov	r1, #128
 681 0008 1A68     		ldr	r2, [r3]
 682 000a 4904     		lsl	r1, r1, #17
 683 000c 0A43     		orr	r2, r1
 684 000e 02E0     		b	.L55
 685              	.L53:
 762:Generated_Source\PSoC4/UART_XB_UART.c ****             }
 763:Generated_Source\PSoC4/UART_XB_UART.c ****             else
 764:Generated_Source\PSoC4/UART_XB_UART.c ****             {
 765:Generated_Source\PSoC4/UART_XB_UART.c ****                 UART_XB_UART_FLOW_CTRL_REG &= (uint32) ~UART_XB_UART_FLOW_CTRL_CTS_POLARITY;
 686              		.loc 1 765 0
 687 0010 1968     		ldr	r1, [r3]
 688 0012 034A     		ldr	r2, .L56+4
 689 0014 0A40     		and	r2, r1
 690              	.L55:
 691 0016 1A60     		str	r2, [r3]
 766:Generated_Source\PSoC4/UART_XB_UART.c ****             }
 767:Generated_Source\PSoC4/UART_XB_UART.c ****         }
 692              		.loc 1 767 0
 693              		@ sp needed
 694 0018 7047     		bx	lr
 695              	.L57:
 696 001a C046     		.align	2
 697              	.L56:
 698 001c 50002440 		.word	1076101200
 699 0020 FFFFFFFE 		.word	-16777217
 700              		.cfi_endproc
 701              	.LFE15:
 702              		.size	UART_XB_UartSetCtsPolarity, .-UART_XB_UartSetCtsPolarity
 703              		.text
 704              	.Letext0:
 705              		.file 2 "Generated_Source\\PSoC4/cytypes.h"
 706              		.file 3 "Generated_Source\\PSoC4\\UART_XB_PVT.h"
 707              		.file 4 "Generated_Source\\PSoC4\\UART_XB_SPI_UART_PVT.h"
 708              		.file 5 "Generated_Source\\PSoC4/CyLib.h"
 709              		.file 6 "Generated_Source\\PSoC4\\UART_XB_SPI_UART.h"