ARM GAS  C:\Users\Petro\AppData\Local\Temp\ccaooTre.s 			page 1


   1              		.cpu cortex-m0
   2              		.fpu softvfp
   3              		.eabi_attribute 20, 1
   4              		.eabi_attribute 21, 1
   5              		.eabi_attribute 23, 3
   6              		.eabi_attribute 24, 1
   7              		.eabi_attribute 25, 1
   8              		.eabi_attribute 26, 1
   9              		.eabi_attribute 30, 1
  10              		.eabi_attribute 34, 0
  11              		.eabi_attribute 18, 4
  12              		.code	16
  13              		.file	"network.c"
  14              		.text
  15              	.Ltext0:
  16              		.cfi_sections	.debug_frame
  17              		.section	.text.InitNetwork,"ax",%progbits
  18              		.align	2
  19              		.global	InitNetwork
  20              		.code	16
  21              		.thumb_func
  22              		.type	InitNetwork, %function
  23              	InitNetwork:
  24              	.LFB63:
  25              		.file 1 ".\\lib_Network\\network.c"
   1:.\lib_Network/network.c **** 
   2:.\lib_Network/network.c **** #include "lib_Network\network.h"
   3:.\lib_Network/network.c **** 
   4:.\lib_Network/network.c **** 
   5:.\lib_Network/network.c **** 
   6:.\lib_Network/network.c **** void InitNetwork(void)
   7:.\lib_Network/network.c **** {
  26              		.loc 1 7 0
  27              		.cfi_startproc
  28 0000 08B5     		push	{r3, lr}
  29              		.cfi_def_cfa_offset 8
  30              		.cfi_offset 3, -8
  31              		.cfi_offset 14, -4
   8:.\lib_Network/network.c ****     UART_XB_Start();
  32              		.loc 1 8 0
  33 0002 FFF7FEFF 		bl	UART_XB_Start
  34              	.LVL0:
   9:.\lib_Network/network.c ****     
  10:.\lib_Network/network.c ****     #ifdef DEBUG_PC
  11:.\lib_Network/network.c ****     SW_UART_DEBUG_Start();
  35              		.loc 1 11 0
  36 0006 FFF7FEFF 		bl	SW_UART_DEBUG_Start
  37              	.LVL1:
  12:.\lib_Network/network.c ****     SW_UART_DEBUG_PutString("\n\nInit network start\n\n");
  38              		.loc 1 12 0
  39 000a 0848     		ldr	r0, .L2
  40 000c FFF7FEFF 		bl	SW_UART_DEBUG_PutString
  41              	.LVL2:
  13:.\lib_Network/network.c ****     #endif
  14:.\lib_Network/network.c ****     
  15:.\lib_Network/network.c ****     inData.readStatus = NO_READ;
  42              		.loc 1 15 0
ARM GAS  C:\Users\Petro\AppData\Local\Temp\ccaooTre.s 			page 2


  43 0010 0023     		mov	r3, #0
  44 0012 074A     		ldr	r2, .L2+4
  45 0014 9374     		strb	r3, [r2, #18]
  16:.\lib_Network/network.c ****     outData.writeStatus = WRITE_OK;
  46              		.loc 1 16 0
  47 0016 074A     		ldr	r2, .L2+8
  48 0018 0121     		mov	r1, #1
  49 001a D174     		strb	r1, [r2, #19]
  17:.\lib_Network/network.c ****     outData.IDpacket = 0xFF;
  50              		.loc 1 17 0
  51 001c FE31     		add	r1, r1, #254
  52 001e 1170     		strb	r1, [r2]
  18:.\lib_Network/network.c ****     networkStatus = NETWORK_DISCONN;   
  53              		.loc 1 18 0
  54 0020 054A     		ldr	r2, .L2+12
  55 0022 1360     		str	r3, [r2]
  19:.\lib_Network/network.c ****     UART_XB_SpiUartClearRxBuffer();
  56              		.loc 1 19 0
  57 0024 FFF7FEFF 		bl	UART_XB_SpiUartClearRxBuffer
  58              	.LVL3:
  20:.\lib_Network/network.c **** }
  59              		.loc 1 20 0
  60              		@ sp needed
  61 0028 08BD     		pop	{r3, pc}
  62              	.L3:
  63 002a C046     		.align	2
  64              	.L2:
  65 002c 00000000 		.word	.LC0
  66 0030 00000000 		.word	inData
  67 0034 00000000 		.word	outData
  68 0038 00000000 		.word	.LANCHOR0
  69              		.cfi_endproc
  70              	.LFE63:
  71              		.size	InitNetwork, .-InitNetwork
  72              		.section	.text.SendData,"ax",%progbits
  73              		.align	2
  74              		.global	SendData
  75              		.code	16
  76              		.thumb_func
  77              		.type	SendData, %function
  78              	SendData:
  79              	.LFB64:
  21:.\lib_Network/network.c **** 
  22:.\lib_Network/network.c **** void SendData(void)
  23:.\lib_Network/network.c **** {
  80              		.loc 1 23 0
  81              		.cfi_startproc
  82 0000 30B5     		push	{r4, r5, lr}
  83              		.cfi_def_cfa_offset 12
  84              		.cfi_offset 4, -12
  85              		.cfi_offset 5, -8
  86              		.cfi_offset 14, -4
  87 0002 9FB0     		sub	sp, sp, #124
  88              		.cfi_def_cfa_offset 136
  24:.\lib_Network/network.c ****     if(outData.writeStatus == NO_WRITE && inData.readStatus == READ_OK)
  89              		.loc 1 24 0
  90 0004 214B     		ldr	r3, .L7
ARM GAS  C:\Users\Petro\AppData\Local\Temp\ccaooTre.s 			page 3


  91 0006 DB7C     		ldrb	r3, [r3, #19]
  92 0008 002B     		cmp	r3, #0
  93 000a 3DD1     		bne	.L4
  94              		.loc 1 24 0 is_stmt 0 discriminator 1
  95 000c 204B     		ldr	r3, .L7+4
  96 000e 9B7C     		ldrb	r3, [r3, #18]
  97 0010 012B     		cmp	r3, #1
  98 0012 39D1     		bne	.L4
  25:.\lib_Network/network.c ****     { 
  26:.\lib_Network/network.c ****         if (inData.IDpacket == outData.IDpacket)
  99              		.loc 1 26 0 is_stmt 1
 100 0014 1E4B     		ldr	r3, .L7+4
 101 0016 1A78     		ldrb	r2, [r3]
 102 0018 1C4B     		ldr	r3, .L7
 103 001a 1B78     		ldrb	r3, [r3]
 104 001c 9A42     		cmp	r2, r3
 105 001e 09D1     		bne	.L6
  27:.\lib_Network/network.c ****         {
  28:.\lib_Network/network.c ****             /*send previous packet*/
  29:.\lib_Network/network.c ****             
  30:.\lib_Network/network.c ****             UART_XB_UartPutString(previousData);
 106              		.loc 1 30 0
 107 0020 1C48     		ldr	r0, .L7+8
 108 0022 FFF7FEFF 		bl	UART_XB_UartPutString
 109              	.LVL4:
  31:.\lib_Network/network.c ****             outData.writeStatus = WRITE_OK;
 110              		.loc 1 31 0
 111 0026 0122     		mov	r2, #1
 112 0028 184B     		ldr	r3, .L7
 113 002a DA74     		strb	r2, [r3, #19]
  32:.\lib_Network/network.c ****             inData.readStatus = NO_READ;
 114              		.loc 1 32 0
 115 002c 0022     		mov	r2, #0
 116 002e 184B     		ldr	r3, .L7+4
 117 0030 9A74     		strb	r2, [r3, #18]
 118 0032 29E0     		b	.L4
 119              	.L6:
 120              	.LBB2:
  33:.\lib_Network/network.c ****         }else
  34:.\lib_Network/network.c ****         {
  35:.\lib_Network/network.c ****             /*send nex packet*/
  36:.\lib_Network/network.c ****             
  37:.\lib_Network/network.c ****             char sendBuffer[DATA_BUFFER];
  38:.\lib_Network/network.c ****             char sendData[DATA_BUFFER];
  39:.\lib_Network/network.c ****             
  40:.\lib_Network/network.c ****             /*pack data*/
  41:.\lib_Network/network.c ****             sprintf(sendData,"%02X:%08X%08X%04X%02X",
  42:.\lib_Network/network.c ****                     0u,
  43:.\lib_Network/network.c ****                     (uint32_t)((outData.unixStartTime & MASK_HIGH) >> DATA_SHIFT), 
 121              		.loc 1 43 0
 122 0034 154C     		ldr	r4, .L7
 123 0036 E368     		ldr	r3, [r4, #12]
  44:.\lib_Network/network.c ****                     (uint32_t)(outData.unixStartTime & MASK_LOW), 
  45:.\lib_Network/network.c ****                     outData.startMsTime, 
 124              		.loc 1 45 0
 125 0038 218A     		ldrh	r1, [r4, #16]
  46:.\lib_Network/network.c ****                     outData.newSkier);
ARM GAS  C:\Users\Petro\AppData\Local\Temp\ccaooTre.s 			page 4


 126              		.loc 1 46 0
 127 003a A27C     		ldrb	r2, [r4, #18]
  41:.\lib_Network/network.c ****                     0u,
 128              		.loc 1 41 0
 129 003c A068     		ldr	r0, [r4, #8]
 130 003e 0090     		str	r0, [sp]
 131 0040 0191     		str	r1, [sp, #4]
 132 0042 0292     		str	r2, [sp, #8]
 133 0044 11A8     		add	r0, sp, #68
 134 0046 1449     		ldr	r1, .L7+12
 135 0048 0022     		mov	r2, #0
 136 004a FFF7FEFF 		bl	sprintf
 137              	.LVL5:
  47:.\lib_Network/network.c ****             
  48:.\lib_Network/network.c ****             
  49:.\lib_Network/network.c ****             PackData(sendBuffer, (uint8_t *)sendData, inData.IDpacket);
 138              		.loc 1 49 0
 139 004e 104D     		ldr	r5, .L7+4
 140 0050 2A78     		ldrb	r2, [r5]
 141 0052 04A8     		add	r0, sp, #16
 142 0054 11A9     		add	r1, sp, #68
 143 0056 FFF7FEFF 		bl	PackData
 144              	.LVL6:
  50:.\lib_Network/network.c ****             UART_XB_UartPutString(sendBuffer);
 145              		.loc 1 50 0
 146 005a 04A8     		add	r0, sp, #16
 147 005c FFF7FEFF 		bl	UART_XB_UartPutString
 148              	.LVL7:
  51:.\lib_Network/network.c ****             
  52:.\lib_Network/network.c **** 
  53:.\lib_Network/network.c ****             outData.newSkier = !NEW_SKIER_IN_TARCK;
 149              		.loc 1 53 0
 150 0060 0023     		mov	r3, #0
 151 0062 A374     		strb	r3, [r4, #18]
  54:.\lib_Network/network.c ****                 
  55:.\lib_Network/network.c ****             outData.writeStatus = WRITE_OK;
 152              		.loc 1 55 0
 153 0064 0122     		mov	r2, #1
 154 0066 E274     		strb	r2, [r4, #19]
  56:.\lib_Network/network.c ****             outData.IDpacket = inData.IDpacket;
 155              		.loc 1 56 0
 156 0068 2A78     		ldrb	r2, [r5]
 157 006a 2270     		strb	r2, [r4]
  57:.\lib_Network/network.c ****             inData.readStatus = NO_READ;
 158              		.loc 1 57 0
 159 006c AB74     		strb	r3, [r5, #18]
  58:.\lib_Network/network.c ****             #ifdef DEBUG_PC
  59:.\lib_Network/network.c ****             SW_UART_DEBUG_PutString("out data - "); 
 160              		.loc 1 59 0
 161 006e 0B48     		ldr	r0, .L7+16
 162 0070 FFF7FEFF 		bl	SW_UART_DEBUG_PutString
 163              	.LVL8:
  60:.\lib_Network/network.c ****             SW_UART_DEBUG_PutString(sendBuffer);   
 164              		.loc 1 60 0
 165 0074 04A8     		add	r0, sp, #16
 166 0076 FFF7FEFF 		bl	SW_UART_DEBUG_PutString
 167              	.LVL9:
ARM GAS  C:\Users\Petro\AppData\Local\Temp\ccaooTre.s 			page 5


  61:.\lib_Network/network.c ****             SW_UART_DEBUG_PutString("\n\r");
 168              		.loc 1 61 0
 169 007a 0948     		ldr	r0, .L7+20
 170 007c FFF7FEFF 		bl	SW_UART_DEBUG_PutString
 171              	.LVL10:
  62:.\lib_Network/network.c ****             #endif   
  63:.\lib_Network/network.c ****             strcpy(previousData, sendBuffer);
 172              		.loc 1 63 0
 173 0080 0448     		ldr	r0, .L7+8
 174 0082 04A9     		add	r1, sp, #16
 175 0084 FFF7FEFF 		bl	strcpy
 176              	.LVL11:
 177              	.L4:
 178              	.LBE2:
  64:.\lib_Network/network.c ****         }
  65:.\lib_Network/network.c ****     }
  66:.\lib_Network/network.c **** }
 179              		.loc 1 66 0
 180 0088 1FB0     		add	sp, sp, #124
 181              		@ sp needed
 182 008a 30BD     		pop	{r4, r5, pc}
 183              	.L8:
 184              		.align	2
 185              	.L7:
 186 008c 00000000 		.word	outData
 187 0090 00000000 		.word	inData
 188 0094 00000000 		.word	previousData
 189 0098 18000000 		.word	.LC8
 190 009c 30000000 		.word	.LC10
 191 00a0 3C000000 		.word	.LC12
 192              		.cfi_endproc
 193              	.LFE64:
 194              		.size	SendData, .-SendData
 195              		.section	.text.ReceiveData,"ax",%progbits
 196              		.align	2
 197              		.global	ReceiveData
 198              		.code	16
 199              		.thumb_func
 200              		.type	ReceiveData, %function
 201              	ReceiveData:
 202              	.LFB65:
  67:.\lib_Network/network.c **** 
  68:.\lib_Network/network.c **** 
  69:.\lib_Network/network.c **** uint32_t ReceiveData(void)
  70:.\lib_Network/network.c **** {
 203              		.loc 1 70 0
 204              		.cfi_startproc
 205 0000 10B5     		push	{r4, lr}
 206              		.cfi_def_cfa_offset 8
 207              		.cfi_offset 4, -8
 208              		.cfi_offset 14, -4
 209 0002 88B0     		sub	sp, sp, #32
 210              		.cfi_def_cfa_offset 40
  71:.\lib_Network/network.c ****     if(outData.writeStatus == WRITE_OK && inData.readStatus == NO_READ)
 211              		.loc 1 71 0
 212 0004 244B     		ldr	r3, .L17
 213 0006 DB7C     		ldrb	r3, [r3, #19]
ARM GAS  C:\Users\Petro\AppData\Local\Temp\ccaooTre.s 			page 6


 214 0008 012B     		cmp	r3, #1
 215 000a 42D1     		bne	.L15
 216              		.loc 1 71 0 is_stmt 0 discriminator 1
 217 000c 234B     		ldr	r3, .L17+4
 218 000e 9B7C     		ldrb	r3, [r3, #18]
 219 0010 002B     		cmp	r3, #0
 220 0012 29D0     		beq	.L11
  72:.\lib_Network/network.c ****     {
  73:.\lib_Network/network.c ****         uint32_t byte;
  74:.\lib_Network/network.c ****         struct Resp recvData;
  75:.\lib_Network/network.c ****           
  76:.\lib_Network/network.c ****         while((UART_XB_SpiUartGetRxBufferSize() > 0) && ((byte=UART_XB_UartGetChar()) != 0))
  77:.\lib_Network/network.c ****         { 
  78:.\lib_Network/network.c ****             UnpackData(&recvData, (uint8_t)(byte & 0xFF));
  79:.\lib_Network/network.c ****             
  80:.\lib_Network/network.c ****             #ifdef DEBUG_PC
  81:.\lib_Network/network.c ****             //SW_UART_DEBUG_PutString("\nbyte - ");
  82:.\lib_Network/network.c ****             SW_UART_DEBUG_PutChar(byte);
  83:.\lib_Network/network.c ****             #endif
  84:.\lib_Network/network.c ****             
  85:.\lib_Network/network.c ****             if(recvData.EndPacket == 1)
  86:.\lib_Network/network.c ****             {                      
  87:.\lib_Network/network.c ****                 inData.IDpacket = recvData.Seq;
  88:.\lib_Network/network.c ****                 
  89:.\lib_Network/network.c ****                 inData.readStatus = READ_OK;
  90:.\lib_Network/network.c ****                 outData.writeStatus = NO_WRITE;
  91:.\lib_Network/network.c ****                 
  92:.\lib_Network/network.c ****                 /*connect network*/
  93:.\lib_Network/network.c ****                 networkStatus = NETWORK_CONN;
  94:.\lib_Network/network.c ****                 noConnect = 0;
  95:.\lib_Network/network.c ****                 /*write data*/
  96:.\lib_Network/network.c ****                 inData.countSkiers = recvData.Data3;
  97:.\lib_Network/network.c ****                 //inData.unixStartTime = recvData.Data1;
  98:.\lib_Network/network.c ****                 inData.ready = (recvData.Data2 & 0xFF00) >> 8;
  99:.\lib_Network/network.c ****                 inData.reboot = recvData.Data2 & 0x00FF;
 100:.\lib_Network/network.c ****                 /*next packet*/
 101:.\lib_Network/network.c ****                 //outData.IDpacket++;
 102:.\lib_Network/network.c ****                 #ifdef DEBUG_PC
 103:.\lib_Network/network.c ****                 SW_UART_DEBUG_PutString("       READ DATA OKEY");   
 104:.\lib_Network/network.c ****                 SW_UART_DEBUG_PutString("\n\r");
 105:.\lib_Network/network.c ****                 #endif 
 106:.\lib_Network/network.c **** 
 107:.\lib_Network/network.c ****                 return  NETWORK_CONN;  
 108:.\lib_Network/network.c ****             }
 109:.\lib_Network/network.c ****         }
 110:.\lib_Network/network.c ****         
 111:.\lib_Network/network.c ****         #ifdef DEBUG_PC
 112:.\lib_Network/network.c ****         //SW_UART_DEBUG_PutString("\nERROR READ!!!!");   
 113:.\lib_Network/network.c ****         //SW_UART_DEBUG_PutString("\n\r");
 114:.\lib_Network/network.c ****         #endif 
 115:.\lib_Network/network.c ****         
 116:.\lib_Network/network.c ****         /*tyme to respond*/
 117:.\lib_Network/network.c ****         if(noConnect++ >= NETWORK_TIMEOUT)
 118:.\lib_Network/network.c ****         {
 119:.\lib_Network/network.c ****             networkStatus = NETWORK_DISCONN;
 120:.\lib_Network/network.c ****         }
 121:.\lib_Network/network.c ****         return  NETWORK_DISCONN;
ARM GAS  C:\Users\Petro\AppData\Local\Temp\ccaooTre.s 			page 7


 122:.\lib_Network/network.c ****     }
 123:.\lib_Network/network.c ****     return 0;
 221              		.loc 1 123 0 is_stmt 1
 222 0014 0020     		mov	r0, #0
 223 0016 3DE0     		b	.L10
 224              	.LVL12:
 225              	.L14:
 226              	.LBB3:
  78:.\lib_Network/network.c ****             
 227              		.loc 1 78 0
 228 0018 C4B2     		uxtb	r4, r0
 229 001a 6846     		mov	r0, sp
 230              	.LVL13:
 231 001c 211C     		mov	r1, r4
 232 001e FFF7FEFF 		bl	UnpackData
 233              	.LVL14:
  82:.\lib_Network/network.c ****             #endif
 234              		.loc 1 82 0
 235 0022 201C     		mov	r0, r4
 236 0024 FFF7FEFF 		bl	SW_UART_DEBUG_PutChar
 237              	.LVL15:
  85:.\lib_Network/network.c ****             {                      
 238              		.loc 1 85 0
 239 0028 6B46     		mov	r3, sp
 240 002a 1B7E     		ldrb	r3, [r3, #24]
 241 002c 012B     		cmp	r3, #1
 242 002e 1BD1     		bne	.L11
  87:.\lib_Network/network.c ****                 
 243              		.loc 1 87 0
 244 0030 6B46     		mov	r3, sp
 245 0032 1A88     		ldrh	r2, [r3]
 246 0034 194B     		ldr	r3, .L17+4
 247 0036 1A70     		strb	r2, [r3]
  89:.\lib_Network/network.c ****                 outData.writeStatus = NO_WRITE;
 248              		.loc 1 89 0
 249 0038 0120     		mov	r0, #1
 250 003a 9874     		strb	r0, [r3, #18]
  90:.\lib_Network/network.c ****                 
 251              		.loc 1 90 0
 252 003c 0021     		mov	r1, #0
 253 003e 164A     		ldr	r2, .L17
 254 0040 D174     		strb	r1, [r2, #19]
  93:.\lib_Network/network.c ****                 noConnect = 0;
 255              		.loc 1 93 0
 256 0042 174A     		ldr	r2, .L17+8
 257 0044 1060     		str	r0, [r2]
  94:.\lib_Network/network.c ****                 /*write data*/
 258              		.loc 1 94 0
 259 0046 5160     		str	r1, [r2, #4]
  96:.\lib_Network/network.c ****                 //inData.unixStartTime = recvData.Data1;
 260              		.loc 1 96 0
 261 0048 6A46     		mov	r2, sp
 262 004a 927C     		ldrb	r2, [r2, #18]
 263 004c DA70     		strb	r2, [r3, #3]
  98:.\lib_Network/network.c ****                 inData.reboot = recvData.Data2 & 0x00FF;
 264              		.loc 1 98 0
 265 004e 6A46     		mov	r2, sp
ARM GAS  C:\Users\Petro\AppData\Local\Temp\ccaooTre.s 			page 8


 266 0050 128A     		ldrh	r2, [r2, #16]
 267 0052 110A     		lsr	r1, r2, #8
 268 0054 5970     		strb	r1, [r3, #1]
  99:.\lib_Network/network.c ****                 /*next packet*/
 269              		.loc 1 99 0
 270 0056 9A70     		strb	r2, [r3, #2]
 103:.\lib_Network/network.c ****                 SW_UART_DEBUG_PutString("\n\r");
 271              		.loc 1 103 0
 272 0058 1248     		ldr	r0, .L17+12
 273 005a FFF7FEFF 		bl	SW_UART_DEBUG_PutString
 274              	.LVL16:
 104:.\lib_Network/network.c ****                 #endif 
 275              		.loc 1 104 0
 276 005e 1248     		ldr	r0, .L17+16
 277 0060 FFF7FEFF 		bl	SW_UART_DEBUG_PutString
 278              	.LVL17:
 107:.\lib_Network/network.c ****             }
 279              		.loc 1 107 0
 280 0064 0120     		mov	r0, #1
 281 0066 15E0     		b	.L10
 282              	.L11:
  76:.\lib_Network/network.c ****         { 
 283              		.loc 1 76 0
 284 0068 FFF7FEFF 		bl	UART_XB_SpiUartGetRxBufferSize
 285              	.LVL18:
 286 006c 0028     		cmp	r0, #0
 287 006e 03D0     		beq	.L13
  76:.\lib_Network/network.c ****         { 
 288              		.loc 1 76 0 is_stmt 0 discriminator 1
 289 0070 FFF7FEFF 		bl	UART_XB_UartGetChar
 290              	.LVL19:
 291 0074 0028     		cmp	r0, #0
 292 0076 CFD1     		bne	.L14
 293              	.LVL20:
 294              	.L13:
 117:.\lib_Network/network.c ****         {
 295              		.loc 1 117 0 is_stmt 1
 296 0078 094A     		ldr	r2, .L17+8
 297 007a 5368     		ldr	r3, [r2, #4]
 298 007c 591C     		add	r1, r3, #1
 299 007e 5160     		str	r1, [r2, #4]
 300 0080 1D2B     		cmp	r3, #29
 301 0082 04DD     		ble	.L16
 119:.\lib_Network/network.c ****         }
 302              		.loc 1 119 0
 303 0084 0022     		mov	r2, #0
 304 0086 064B     		ldr	r3, .L17+8
 305 0088 1A60     		str	r2, [r3]
 121:.\lib_Network/network.c ****     }
 306              		.loc 1 121 0
 307 008a 0020     		mov	r0, #0
 308 008c 02E0     		b	.L10
 309              	.L16:
 310 008e 0020     		mov	r0, #0
 311 0090 00E0     		b	.L10
 312              	.L15:
 313              	.LBE3:
ARM GAS  C:\Users\Petro\AppData\Local\Temp\ccaooTre.s 			page 9


 314              		.loc 1 123 0
 315 0092 0020     		mov	r0, #0
 316              	.L10:
 124:.\lib_Network/network.c **** }
 317              		.loc 1 124 0 discriminator 1
 318 0094 08B0     		add	sp, sp, #32
 319              		@ sp needed
 320 0096 10BD     		pop	{r4, pc}
 321              	.L18:
 322              		.align	2
 323              	.L17:
 324 0098 00000000 		.word	outData
 325 009c 00000000 		.word	inData
 326 00a0 00000000 		.word	.LANCHOR0
 327 00a4 40000000 		.word	.LC17
 328 00a8 3C000000 		.word	.LC12
 329              		.cfi_endproc
 330              	.LFE65:
 331              		.size	ReceiveData, .-ReceiveData
 332              		.section	.text.NetworkStatus,"ax",%progbits
 333              		.align	2
 334              		.global	NetworkStatus
 335              		.code	16
 336              		.thumb_func
 337              		.type	NetworkStatus, %function
 338              	NetworkStatus:
 339              	.LFB66:
 125:.\lib_Network/network.c **** 
 126:.\lib_Network/network.c **** 
 127:.\lib_Network/network.c **** uint32_t NetworkStatus(void)
 128:.\lib_Network/network.c **** {
 340              		.loc 1 128 0
 341              		.cfi_startproc
 129:.\lib_Network/network.c ****     return networkStatus;
 342              		.loc 1 129 0
 343 0000 014B     		ldr	r3, .L20
 344 0002 1868     		ldr	r0, [r3]
 130:.\lib_Network/network.c **** }
 345              		.loc 1 130 0
 346              		@ sp needed
 347 0004 7047     		bx	lr
 348              	.L21:
 349 0006 C046     		.align	2
 350              	.L20:
 351 0008 00000000 		.word	.LANCHOR0
 352              		.cfi_endproc
 353              	.LFE66:
 354              		.size	NetworkStatus, .-NetworkStatus
 355              		.section	.text.SendSkierStart,"ax",%progbits
 356              		.align	2
 357              		.global	SendSkierStart
 358              		.code	16
 359              		.thumb_func
 360              		.type	SendSkierStart, %function
 361              	SendSkierStart:
 362              	.LFB67:
 131:.\lib_Network/network.c **** 
ARM GAS  C:\Users\Petro\AppData\Local\Temp\ccaooTre.s 			page 10


 132:.\lib_Network/network.c **** 
 133:.\lib_Network/network.c **** void SendSkierStart(uint64_t unixTimeStart, uint32_t recentMs)
 134:.\lib_Network/network.c **** {
 363              		.loc 1 134 0
 364              		.cfi_startproc
 365              	.LVL21:
 135:.\lib_Network/network.c ****     outData.unixStartTime = unixTimeStart;
 366              		.loc 1 135 0
 367 0000 034B     		ldr	r3, .L23
 368 0002 9860     		str	r0, [r3, #8]
 369 0004 D960     		str	r1, [r3, #12]
 136:.\lib_Network/network.c ****     outData.startMsTime = recentMs;
 370              		.loc 1 136 0
 371 0006 1A82     		strh	r2, [r3, #16]
 137:.\lib_Network/network.c ****     outData.newSkier = NEW_SKIER_IN_TARCK;
 372              		.loc 1 137 0
 373 0008 0122     		mov	r2, #1
 374              	.LVL22:
 375 000a 9A74     		strb	r2, [r3, #18]
 138:.\lib_Network/network.c **** }
 376              		.loc 1 138 0
 377              		@ sp needed
 378 000c 7047     		bx	lr
 379              	.L24:
 380 000e C046     		.align	2
 381              	.L23:
 382 0010 00000000 		.word	outData
 383              		.cfi_endproc
 384              	.LFE67:
 385              		.size	SendSkierStart, .-SendSkierStart
 386              		.section	.text.FinReady,"ax",%progbits
 387              		.align	2
 388              		.global	FinReady
 389              		.code	16
 390              		.thumb_func
 391              		.type	FinReady, %function
 392              	FinReady:
 393              	.LFB68:
 139:.\lib_Network/network.c **** 
 140:.\lib_Network/network.c **** 
 141:.\lib_Network/network.c **** uint32_t FinReady(void)
 142:.\lib_Network/network.c **** {
 394              		.loc 1 142 0
 395              		.cfi_startproc
 143:.\lib_Network/network.c ****     /*uint32_t result;
 144:.\lib_Network/network.c ****     
 145:.\lib_Network/network.c ****     if(finNoReady <= TIMEOUT_FIN_READY )
 146:.\lib_Network/network.c ****     {
 147:.\lib_Network/network.c ****         if(inData.ready == READY)
 148:.\lib_Network/network.c ****         {
 149:.\lib_Network/network.c ****             finNoReady = 0;
 150:.\lib_Network/network.c ****         }else
 151:.\lib_Network/network.c ****         {
 152:.\lib_Network/network.c ****             finNoReady++;    
 153:.\lib_Network/network.c ****         }
 154:.\lib_Network/network.c ****         
 155:.\lib_Network/network.c ****         result = READY;
ARM GAS  C:\Users\Petro\AppData\Local\Temp\ccaooTre.s 			page 11


 156:.\lib_Network/network.c ****     }else 
 157:.\lib_Network/network.c ****     {
 158:.\lib_Network/network.c ****         result = NO_READY;
 159:.\lib_Network/network.c ****         finNoReady = TIMEOUT_FIN_READY;
 160:.\lib_Network/network.c ****     }
 161:.\lib_Network/network.c ****     
 162:.\lib_Network/network.c ****     return result;*/
 163:.\lib_Network/network.c ****     return inData.ready;
 396              		.loc 1 163 0
 397 0000 014B     		ldr	r3, .L26
 398 0002 5878     		ldrb	r0, [r3, #1]
 164:.\lib_Network/network.c **** }
 399              		.loc 1 164 0
 400              		@ sp needed
 401 0004 7047     		bx	lr
 402              	.L27:
 403 0006 C046     		.align	2
 404              	.L26:
 405 0008 00000000 		.word	inData
 406              		.cfi_endproc
 407              	.LFE68:
 408              		.size	FinReady, .-FinReady
 409              		.section	.text.FinWriteInDB,"ax",%progbits
 410              		.align	2
 411              		.global	FinWriteInDB
 412              		.code	16
 413              		.thumb_func
 414              		.type	FinWriteInDB, %function
 415              	FinWriteInDB:
 416              	.LFB69:
 165:.\lib_Network/network.c **** 
 166:.\lib_Network/network.c **** 
 167:.\lib_Network/network.c **** uint32_t FinWriteInDB(void)
 168:.\lib_Network/network.c **** {
 417              		.loc 1 168 0
 418              		.cfi_startproc
 169:.\lib_Network/network.c ****     uint32_t result;
 170:.\lib_Network/network.c ****     
 171:.\lib_Network/network.c ****     if(outData.newSkier == NEW_SKIER_IN_TARCK)
 419              		.loc 1 171 0
 420 0000 034B     		ldr	r3, .L31
 421 0002 9B7C     		ldrb	r3, [r3, #18]
 422 0004 012B     		cmp	r3, #1
 423 0006 01D1     		bne	.L30
 172:.\lib_Network/network.c ****     {
 173:.\lib_Network/network.c ****         result = NO_WRITE;
 424              		.loc 1 173 0
 425 0008 0020     		mov	r0, #0
 426 000a 00E0     		b	.L29
 427              	.L30:
 174:.\lib_Network/network.c ****     }else
 175:.\lib_Network/network.c ****     {
 176:.\lib_Network/network.c ****         result = WRITE_OK;
 428              		.loc 1 176 0
 429 000c 0120     		mov	r0, #1
 430              	.L29:
 431              	.LVL23:
ARM GAS  C:\Users\Petro\AppData\Local\Temp\ccaooTre.s 			page 12


 177:.\lib_Network/network.c ****     }
 178:.\lib_Network/network.c ****     
 179:.\lib_Network/network.c ****     return result;
 180:.\lib_Network/network.c **** }
 432              		.loc 1 180 0
 433              		@ sp needed
 434 000e 7047     		bx	lr
 435              	.L32:
 436              		.align	2
 437              	.L31:
 438 0010 00000000 		.word	outData
 439              		.cfi_endproc
 440              	.LFE69:
 441              		.size	FinWriteInDB, .-FinWriteInDB
 442              		.comm	previousData,100,4
 443              		.comm	outData,24,8
 444              		.comm	inData,24,8
 445              		.comm	LenC,1,1
 446              		.comm	LenChS,1,1
 447              		.comm	LenSeq,1,1
 448              		.comm	LenD3,1,1
 449              		.comm	LenD2,1,1
 450              		.comm	LenD1,1,1
 451              		.comm	PROTO_STATE,1,1
 452              		.section	.rodata.str1.4,"aMS",%progbits,1
 453              		.align	2
 454              	.LC0:
 455 0000 0A0A496E 		.ascii	"\012\012Init network start\012\012\000"
 455      6974206E 
 455      6574776F 
 455      726B2073 
 455      74617274 
 456 0017 00       		.space	1
 457              	.LC8:
 458 0018 25303258 		.ascii	"%02X:%08X%08X%04X%02X\000"
 458      3A253038 
 458      58253038 
 458      58253034 
 458      58253032 
 459 002e 0000     		.space	2
 460              	.LC10:
 461 0030 6F757420 		.ascii	"out data - \000"
 461      64617461 
 461      202D2000 
 462              	.LC12:
 463 003c 0A0D00   		.ascii	"\012\015\000"
 464 003f 00       		.space	1
 465              	.LC17:
 466 0040 20202020 		.ascii	"       READ DATA OKEY\000"
 466      20202052 
 466      45414420 
 466      44415441 
 466      204F4B45 
 467 0056 0000     		.bss
 468              		.align	2
 469              		.set	.LANCHOR0,. + 0
 470              		.type	networkStatus, %object
ARM GAS  C:\Users\Petro\AppData\Local\Temp\ccaooTre.s 			page 13


 471              		.size	networkStatus, 4
 472              	networkStatus:
 473 0000 00000000 		.space	4
 474              		.type	noConnect, %object
 475              		.size	noConnect, 4
 476              	noConnect:
 477 0004 00000000 		.space	4
 478              		.text
 479              	.Letext0:
 480              		.file 2 "c:\\program files (x86)\\cypress\\psoc creator\\3.3\\psoc creator\\import\\gnu\\arm\\4.9.
 481              		.file 3 "c:\\program files (x86)\\cypress\\psoc creator\\3.3\\psoc creator\\import\\gnu\\arm\\4.9.
 482              		.file 4 "Generated_Source\\PSoC4/cytypes.h"
 483              		.file 5 "./lib_Network\\svt.h"
 484              		.file 6 "./lib_Network\\network.h"
 485              		.file 7 "Generated_Source\\PSoC4/UART_XB.h"
 486              		.file 8 "Generated_Source\\PSoC4/SW_UART_DEBUG.h"
 487              		.file 9 "Generated_Source\\PSoC4/UART_XB_SPI_UART.h"
 488              		.file 10 "c:\\program files (x86)\\cypress\\psoc creator\\3.3\\psoc creator\\import\\gnu\\arm\\4.9
 489              		.file 11 "c:\\program files (x86)\\cypress\\psoc creator\\3.3\\psoc creator\\import\\gnu\\arm\\4.9