ARM GAS  C:\Users\Petro\AppData\Local\Temp\cctVrPRe.s 			page 1


   1              		.cpu cortex-m0
   2              		.fpu softvfp
   3              		.eabi_attribute 20, 1
   4              		.eabi_attribute 21, 1
   5              		.eabi_attribute 23, 3
   6              		.eabi_attribute 24, 1
   7              		.eabi_attribute 25, 1
   8              		.eabi_attribute 26, 1
   9              		.eabi_attribute 30, 1
  10              		.eabi_attribute 34, 0
  11              		.eabi_attribute 18, 4
  12              		.code	16
  13              		.file	"svt.c"
  14              		.text
  15              	.Ltext0:
  16              		.cfi_sections	.debug_frame
  17              		.section	.text.DecodeByte,"ax",%progbits
  18              		.align	2
  19              		.global	DecodeByte
  20              		.code	16
  21              		.thumb_func
  22              		.type	DecodeByte, %function
  23              	DecodeByte:
  24              	.LFB3:
  25              		.file 1 ".\\lib_Network\\svt.c"
   1:.\lib_Network/svt.c **** #include "svt.h"
   2:.\lib_Network/svt.c **** 
   3:.\lib_Network/svt.c **** 
   4:.\lib_Network/svt.c **** uint8_t UnpackData(struct Resp *Data, uint8_t InByte)
   5:.\lib_Network/svt.c **** {
   6:.\lib_Network/svt.c **** 	uint32_t ERR_CODE = 0;
   7:.\lib_Network/svt.c **** 	InByte = DecodeByte(InByte);
   8:.\lib_Network/svt.c ****     if (InByte == STX)
   9:.\lib_Network/svt.c **** 	{
  10:.\lib_Network/svt.c **** 	    PROTO_STATE = READ_SQ;
  11:.\lib_Network/svt.c **** 		ResetPacket(Data);
  12:.\lib_Network/svt.c **** 		LenSeq = 0;
  13:.\lib_Network/svt.c **** 		LenC = 0;
  14:.\lib_Network/svt.c **** 		LenChS = 0;
  15:.\lib_Network/svt.c **** 		LenD1 = 0;
  16:.\lib_Network/svt.c **** 		LenD2 = 0;
  17:.\lib_Network/svt.c ****         LenD3 = 0;
  18:.\lib_Network/svt.c ****     }
  19:.\lib_Network/svt.c ****     else
  20:.\lib_Network/svt.c ****     {
  21:.\lib_Network/svt.c ****     	switch(PROTO_STATE){
  22:.\lib_Network/svt.c ****     		case READ_SQ:
  23:.\lib_Network/svt.c ****     		{
  24:.\lib_Network/svt.c ****     			if(CheckSymb(InByte))
  25:.\lib_Network/svt.c ****     			{
  26:.\lib_Network/svt.c ****     				Data->Seq |= InByte;
  27:.\lib_Network/svt.c ****     				LenSeq++;
  28:.\lib_Network/svt.c ****     				if (LenSeq == LEN_SEQ)
  29:.\lib_Network/svt.c ****     				{
  30:.\lib_Network/svt.c ****     					PROTO_STATE = READ_FR1;
  31:.\lib_Network/svt.c ****     				}
  32:.\lib_Network/svt.c ****     				else
ARM GAS  C:\Users\Petro\AppData\Local\Temp\cctVrPRe.s 			page 2


  33:.\lib_Network/svt.c ****     				{
  34:.\lib_Network/svt.c ****     					Data->Seq = Data->Seq << HALF_BYTE;
  35:.\lib_Network/svt.c ****     				}
  36:.\lib_Network/svt.c ****     			}
  37:.\lib_Network/svt.c ****     			else{
  38:.\lib_Network/svt.c ****     				PROTO_STATE = WAIT_STX;
  39:.\lib_Network/svt.c ****     				ERR_CODE = BAD_SEQ;
  40:.\lib_Network/svt.c ****     			}
  41:.\lib_Network/svt.c ****     			break;
  42:.\lib_Network/svt.c ****     		}  		
  43:.\lib_Network/svt.c ****     		case READ_FR1:
  44:.\lib_Network/svt.c ****     		{
  45:.\lib_Network/svt.c ****     			if (InByte == FR1)
  46:.\lib_Network/svt.c ****     			{
  47:.\lib_Network/svt.c ****     				PROTO_STATE = READ_COM;
  48:.\lib_Network/svt.c ****     			}
  49:.\lib_Network/svt.c ****     			else
  50:.\lib_Network/svt.c ****     			{
  51:.\lib_Network/svt.c ****     				ResetPacket(Data);
  52:.\lib_Network/svt.c ****     				ERR_CODE = NO_FR1;
  53:.\lib_Network/svt.c ****     				PROTO_STATE = WAIT_STX;
  54:.\lib_Network/svt.c ****     			}
  55:.\lib_Network/svt.c ****     			break;
  56:.\lib_Network/svt.c ****     		}
  57:.\lib_Network/svt.c ****     		case READ_COM:
  58:.\lib_Network/svt.c ****     		{
  59:.\lib_Network/svt.c ****     			//printf("InByte Command: %02X\n", InByte);
  60:.\lib_Network/svt.c ****     			if(CheckSymb(InByte))
  61:.\lib_Network/svt.c ****     			{
  62:.\lib_Network/svt.c ****     				Data->Command |= InByte;
  63:.\lib_Network/svt.c ****     				LenC ++;
  64:.\lib_Network/svt.c ****     				//printf("LenC Command: %d\n", LenC);
  65:.\lib_Network/svt.c ****     				if (LenC == LEN_COM)
  66:.\lib_Network/svt.c ****     				{
  67:.\lib_Network/svt.c ****     					PROTO_STATE = READ_FR2;
  68:.\lib_Network/svt.c ****     				}
  69:.\lib_Network/svt.c ****     				else
  70:.\lib_Network/svt.c ****     				{
  71:.\lib_Network/svt.c ****     					Data->Command = Data->Command << HALF_BYTE;
  72:.\lib_Network/svt.c ****     				}
  73:.\lib_Network/svt.c ****     			}
  74:.\lib_Network/svt.c ****     			else
  75:.\lib_Network/svt.c ****     			{
  76:.\lib_Network/svt.c ****     				ResetPacket(Data);
  77:.\lib_Network/svt.c ****     				PROTO_STATE = WAIT_STX;
  78:.\lib_Network/svt.c ****     				ERR_CODE = INV_COMM;
  79:.\lib_Network/svt.c ****     			}
  80:.\lib_Network/svt.c ****     			break;
  81:.\lib_Network/svt.c ****     		}
  82:.\lib_Network/svt.c ****     		case READ_FR2:
  83:.\lib_Network/svt.c ****     		{
  84:.\lib_Network/svt.c ****     			if (InByte == FR2)
  85:.\lib_Network/svt.c ****     			{
  86:.\lib_Network/svt.c ****     				PROTO_STATE = READ_DA1;
  87:.\lib_Network/svt.c ****     			}
  88:.\lib_Network/svt.c ****     			else
  89:.\lib_Network/svt.c ****     			{
ARM GAS  C:\Users\Petro\AppData\Local\Temp\cctVrPRe.s 			page 3


  90:.\lib_Network/svt.c ****     				ResetPacket(Data);
  91:.\lib_Network/svt.c ****     				ERR_CODE = NO_FR2;
  92:.\lib_Network/svt.c ****     				PROTO_STATE = WAIT_STX;
  93:.\lib_Network/svt.c ****     			}
  94:.\lib_Network/svt.c ****     			break;
  95:.\lib_Network/svt.c ****     		}
  96:.\lib_Network/svt.c ****     		case READ_DA1:
  97:.\lib_Network/svt.c ****     		{
  98:.\lib_Network/svt.c **** 
  99:.\lib_Network/svt.c ****     			if(CheckSymb(InByte))
 100:.\lib_Network/svt.c ****     			{
 101:.\lib_Network/svt.c ****     				Data->Data1 |= InByte;
 102:.\lib_Network/svt.c ****     				LenD1++;
 103:.\lib_Network/svt.c ****     				if (LenD1 == LEN_DA1)
 104:.\lib_Network/svt.c ****     				{
 105:.\lib_Network/svt.c ****     					PROTO_STATE = READ_DA2;
 106:.\lib_Network/svt.c ****     				}
 107:.\lib_Network/svt.c ****     				else
 108:.\lib_Network/svt.c ****     				{
 109:.\lib_Network/svt.c ****     					Data->Data1 = Data->Data1 << HALF_BYTE;
 110:.\lib_Network/svt.c ****     				}
 111:.\lib_Network/svt.c ****     			}
 112:.\lib_Network/svt.c ****     			else{
 113:.\lib_Network/svt.c ****     				ResetPacket(Data);
 114:.\lib_Network/svt.c ****     				ERR_CODE = INV_DA1;
 115:.\lib_Network/svt.c ****     				PROTO_STATE = WAIT_STX;
 116:.\lib_Network/svt.c ****     			}
 117:.\lib_Network/svt.c ****     			break;
 118:.\lib_Network/svt.c ****     		}
 119:.\lib_Network/svt.c ****     		case READ_DA2:
 120:.\lib_Network/svt.c ****     		{
 121:.\lib_Network/svt.c ****     			
 122:.\lib_Network/svt.c **** 
 123:.\lib_Network/svt.c ****     			if(CheckSymb(InByte))
 124:.\lib_Network/svt.c ****     			{
 125:.\lib_Network/svt.c ****     				Data->Data2 |= InByte;
 126:.\lib_Network/svt.c ****     				LenD2++;
 127:.\lib_Network/svt.c ****     				if (LenD2 == LEN_DA2)
 128:.\lib_Network/svt.c ****     				{
 129:.\lib_Network/svt.c ****     					PROTO_STATE = READ_DA3;
 130:.\lib_Network/svt.c ****     				}
 131:.\lib_Network/svt.c ****     				else
 132:.\lib_Network/svt.c ****     				{
 133:.\lib_Network/svt.c ****     					Data->Data2 = Data->Data2 << HALF_BYTE;
 134:.\lib_Network/svt.c ****     				}
 135:.\lib_Network/svt.c ****     			}
 136:.\lib_Network/svt.c ****     			else{
 137:.\lib_Network/svt.c ****     				ResetPacket(Data);
 138:.\lib_Network/svt.c ****     				ERR_CODE = INV_DA2;
 139:.\lib_Network/svt.c ****     				PROTO_STATE = WAIT_STX;
 140:.\lib_Network/svt.c ****     			}
 141:.\lib_Network/svt.c ****     			break;
 142:.\lib_Network/svt.c ****     		}
 143:.\lib_Network/svt.c **** 			case READ_DA3:
 144:.\lib_Network/svt.c ****     		{
 145:.\lib_Network/svt.c ****     			if(CheckSymb(InByte))
 146:.\lib_Network/svt.c ****     			{
ARM GAS  C:\Users\Petro\AppData\Local\Temp\cctVrPRe.s 			page 4


 147:.\lib_Network/svt.c ****     				Data->Data3 |= InByte;
 148:.\lib_Network/svt.c ****     				LenD3++;
 149:.\lib_Network/svt.c ****     				if (LenD3 == LEN_DA3)
 150:.\lib_Network/svt.c ****     				{
 151:.\lib_Network/svt.c ****     					PROTO_STATE = READ_FR3;
 152:.\lib_Network/svt.c ****     				}
 153:.\lib_Network/svt.c ****     				else
 154:.\lib_Network/svt.c ****     				{
 155:.\lib_Network/svt.c ****     					Data->Data3 = Data->Data3 << HALF_BYTE;
 156:.\lib_Network/svt.c ****     				}
 157:.\lib_Network/svt.c ****     			}
 158:.\lib_Network/svt.c ****     			else{
 159:.\lib_Network/svt.c ****     				ResetPacket(Data);
 160:.\lib_Network/svt.c ****     				ERR_CODE = INV_DA3;
 161:.\lib_Network/svt.c ****     				PROTO_STATE = WAIT_STX;
 162:.\lib_Network/svt.c ****     			}
 163:.\lib_Network/svt.c ****     			break;
 164:.\lib_Network/svt.c ****     		}
 165:.\lib_Network/svt.c ****     		case READ_FR3:
 166:.\lib_Network/svt.c ****     		{
 167:.\lib_Network/svt.c ****     			if (InByte == FR3)
 168:.\lib_Network/svt.c ****     			{
 169:.\lib_Network/svt.c ****     				PROTO_STATE = READ_CHS;
 170:.\lib_Network/svt.c ****     			}
 171:.\lib_Network/svt.c ****     			else
 172:.\lib_Network/svt.c ****     			{
 173:.\lib_Network/svt.c ****     				ResetPacket(Data);
 174:.\lib_Network/svt.c ****     				ERR_CODE = NO_FR3;
 175:.\lib_Network/svt.c ****     				PROTO_STATE = WAIT_STX;
 176:.\lib_Network/svt.c ****     			}
 177:.\lib_Network/svt.c ****     			break;
 178:.\lib_Network/svt.c ****     		}
 179:.\lib_Network/svt.c ****     		case READ_CHS:
 180:.\lib_Network/svt.c ****     		{
 181:.\lib_Network/svt.c ****     			if(CheckSymb(InByte))
 182:.\lib_Network/svt.c ****     			{
 183:.\lib_Network/svt.c ****     				Data->CheckSum |= InByte;
 184:.\lib_Network/svt.c ****     				LenChS++;
 185:.\lib_Network/svt.c ****     				if (LenChS == LEN_CHS)
 186:.\lib_Network/svt.c ****     				{
 187:.\lib_Network/svt.c ****     					PROTO_STATE = READ_ETX;
 188:.\lib_Network/svt.c ****     				}
 189:.\lib_Network/svt.c ****     				else
 190:.\lib_Network/svt.c ****     				{
 191:.\lib_Network/svt.c ****     					Data->CheckSum = Data->CheckSum << HALF_BYTE;
 192:.\lib_Network/svt.c ****     				}
 193:.\lib_Network/svt.c ****     			}
 194:.\lib_Network/svt.c ****     			else
 195:.\lib_Network/svt.c ****     			{
 196:.\lib_Network/svt.c ****     				ResetPacket(Data);
 197:.\lib_Network/svt.c ****     				ERR_CODE = INV_CKECKSUM;
 198:.\lib_Network/svt.c ****     				PROTO_STATE = WAIT_STX;
 199:.\lib_Network/svt.c ****     			}
 200:.\lib_Network/svt.c ****     			break;
 201:.\lib_Network/svt.c ****     		}
 202:.\lib_Network/svt.c ****     		case READ_ETX:
 203:.\lib_Network/svt.c ****     		{
ARM GAS  C:\Users\Petro\AppData\Local\Temp\cctVrPRe.s 			page 5


 204:.\lib_Network/svt.c ****     			if (InByte == ETX)
 205:.\lib_Network/svt.c ****     			{
 206:.\lib_Network/svt.c ****                     uint32_t _tmpcrc;
 207:.\lib_Network/svt.c ****                     char _tmpdata[40];
 208:.\lib_Network/svt.c ****                     sprintf(_tmpdata, "%02X:%08X%08X%04X%02X", Data->Command, 
 209:.\lib_Network/svt.c ****                         (uint32_t)((Data->Data1 & 0xFFFFFFFF00000000) >> 32), 
 210:.\lib_Network/svt.c ****                         (uint32_t)(Data->Data1 & 0x00000000FFFFFFFF), 
 211:.\lib_Network/svt.c ****                         Data->Data2, Data->Data3);
 212:.\lib_Network/svt.c ****                     _tmpcrc = crc32_reset();
 213:.\lib_Network/svt.c ****                     _tmpcrc = crc32_calc_block((uint8_t *)"A", 1, _tmpcrc);
 214:.\lib_Network/svt.c ****                     _tmpcrc = crc32_calc_block((uint8_t *)_tmpdata, strlen(_tmpdata), _tmpcrc);
 215:.\lib_Network/svt.c ****     				_tmpcrc = crc32_calc_block((uint8_t *)"F", 1, _tmpcrc);
 216:.\lib_Network/svt.c ****                     _tmpcrc = crc32_final(_tmpcrc);
 217:.\lib_Network/svt.c ****                     if (_tmpcrc == Data->CheckSum)
 218:.\lib_Network/svt.c ****                     {
 219:.\lib_Network/svt.c ****                         Data->EndPacket = 1;
 220:.\lib_Network/svt.c ****     				    ERR_CODE = PARSED_OK;
 221:.\lib_Network/svt.c ****                     }
 222:.\lib_Network/svt.c ****                     else
 223:.\lib_Network/svt.c ****                     {
 224:.\lib_Network/svt.c ****                         Data->EndPacket = 0;
 225:.\lib_Network/svt.c ****                         ERR_CODE = 10;
 226:.\lib_Network/svt.c ****                     }
 227:.\lib_Network/svt.c ****     			}
 228:.\lib_Network/svt.c ****     			else{
 229:.\lib_Network/svt.c ****     				ERR_CODE = NO_ETX;
 230:.\lib_Network/svt.c ****     				ResetPacket(Data);
 231:.\lib_Network/svt.c ****     			}
 232:.\lib_Network/svt.c ****     			PROTO_STATE = WAIT_STX;
 233:.\lib_Network/svt.c ****     			break;
 234:.\lib_Network/svt.c ****     		}
 235:.\lib_Network/svt.c ****             default: 
 236:.\lib_Network/svt.c ****             {
 237:.\lib_Network/svt.c ****                 ResetPacket(Data);
 238:.\lib_Network/svt.c ****             }
 239:.\lib_Network/svt.c ****     	}
 240:.\lib_Network/svt.c ****     } 
 241:.\lib_Network/svt.c ****     return ERR_CODE;
 242:.\lib_Network/svt.c **** }
 243:.\lib_Network/svt.c **** 
 244:.\lib_Network/svt.c **** uint8_t DecodeByte(uint8_t Inp)
 245:.\lib_Network/svt.c **** {
  26              		.loc 1 245 0
  27              		.cfi_startproc
  28              	.LVL0:
 246:.\lib_Network/svt.c **** 	if ((Inp >= 'A') && (Inp <= 'F'))
  29              		.loc 1 246 0
  30 0000 031C     		mov	r3, r0
  31 0002 413B     		sub	r3, r3, #65
  32 0004 052B     		cmp	r3, #5
  33 0006 02D8     		bhi	.L2
 247:.\lib_Network/svt.c **** 	{
 248:.\lib_Network/svt.c **** 		Inp -= 0x37;
  34              		.loc 1 248 0
  35 0008 3738     		sub	r0, r0, #55
  36              	.LVL1:
  37 000a C3B2     		uxtb	r3, r0
ARM GAS  C:\Users\Petro\AppData\Local\Temp\cctVrPRe.s 			page 6


  38              	.LVL2:
  39 000c 05E0     		b	.L3
  40              	.LVL3:
  41              	.L2:
 249:.\lib_Network/svt.c **** 	}
 250:.\lib_Network/svt.c **** 	else if ((Inp >= '0') && (Inp <= '9')){
  42              		.loc 1 250 0
  43 000e 031C     		mov	r3, r0
  44 0010 303B     		sub	r3, r3, #48
  45 0012 DBB2     		uxtb	r3, r3
  46 0014 092B     		cmp	r3, #9
  47 0016 00D9     		bls	.L3
  48 0018 031C     		mov	r3, r0
  49              	.LVL4:
  50              	.L3:
 251:.\lib_Network/svt.c **** 		Inp -= 0x30;
 252:.\lib_Network/svt.c **** 	}
 253:.\lib_Network/svt.c **** 	return Inp;
 254:.\lib_Network/svt.c **** }
  51              		.loc 1 254 0
  52 001a 181C     		mov	r0, r3
  53              		@ sp needed
  54 001c 7047     		bx	lr
  55              		.cfi_endproc
  56              	.LFE3:
  57              		.size	DecodeByte, .-DecodeByte
  58 001e C046     		.section	.text.CheckSymb,"ax",%progbits
  59              		.align	2
  60              		.global	CheckSymb
  61              		.code	16
  62              		.thumb_func
  63              		.type	CheckSymb, %function
  64              	CheckSymb:
  65              	.LFB4:
 255:.\lib_Network/svt.c **** 
 256:.\lib_Network/svt.c **** uint8_t CheckSymb(uint8_t Inp)
 257:.\lib_Network/svt.c **** {
  66              		.loc 1 257 0
  67              		.cfi_startproc
  68              	.LVL5:
 258:.\lib_Network/svt.c **** 	uint8_t Val = 1;
 259:.\lib_Network/svt.c **** 
 260:.\lib_Network/svt.c **** 	if ((Inp > 0xF) || (Inp < 0x0))
  69              		.loc 1 260 0
  70 0000 0F28     		cmp	r0, #15
  71 0002 01D8     		bhi	.L6
 258:.\lib_Network/svt.c **** 	uint8_t Val = 1;
  72              		.loc 1 258 0
  73 0004 0120     		mov	r0, #1
  74              	.LVL6:
  75 0006 00E0     		b	.L5
  76              	.LVL7:
  77              	.L6:
 261:.\lib_Network/svt.c **** 	{
 262:.\lib_Network/svt.c **** 		Val = 0;
  78              		.loc 1 262 0
  79 0008 0020     		mov	r0, #0
ARM GAS  C:\Users\Petro\AppData\Local\Temp\cctVrPRe.s 			page 7


  80              	.LVL8:
  81              	.L5:
 263:.\lib_Network/svt.c **** 	}
 264:.\lib_Network/svt.c **** 	return Val;
 265:.\lib_Network/svt.c **** }
  82              		.loc 1 265 0
  83              		@ sp needed
  84 000a 7047     		bx	lr
  85              		.cfi_endproc
  86              	.LFE4:
  87              		.size	CheckSymb, .-CheckSymb
  88              		.section	.text.ResetPacket,"ax",%progbits
  89              		.align	2
  90              		.global	ResetPacket
  91              		.code	16
  92              		.thumb_func
  93              		.type	ResetPacket, %function
  94              	ResetPacket:
  95              	.LFB5:
 266:.\lib_Network/svt.c **** 
 267:.\lib_Network/svt.c **** void ResetPacket(struct Resp *Data)
 268:.\lib_Network/svt.c **** {
  96              		.loc 1 268 0
  97              		.cfi_startproc
  98              	.LVL9:
  99 0000 30B5     		push	{r4, r5, lr}
 100              		.cfi_def_cfa_offset 12
 101              		.cfi_offset 4, -12
 102              		.cfi_offset 5, -8
 103              		.cfi_offset 14, -4
 269:.\lib_Network/svt.c **** 	Data->Seq = 0;
 104              		.loc 1 269 0
 105 0002 0023     		mov	r3, #0
 106 0004 0022     		mov	r2, #0
 107 0006 0380     		strh	r3, [r0]
 270:.\lib_Network/svt.c **** 	Data->Command = 0;
 108              		.loc 1 270 0
 109 0008 4360     		str	r3, [r0, #4]
 271:.\lib_Network/svt.c **** 	Data->Data1 = 0;
 110              		.loc 1 271 0
 111 000a 0024     		mov	r4, #0
 112 000c 0025     		mov	r5, #0
 113 000e 8460     		str	r4, [r0, #8]
 114 0010 C560     		str	r5, [r0, #12]
 272:.\lib_Network/svt.c **** 	Data->Data2 = 0;
 115              		.loc 1 272 0
 116 0012 0382     		strh	r3, [r0, #16]
 273:.\lib_Network/svt.c **** 	Data->Data3 = 0;
 117              		.loc 1 273 0
 118 0014 8274     		strb	r2, [r0, #18]
 274:.\lib_Network/svt.c **** 	Data->CheckSum = 0;
 119              		.loc 1 274 0
 120 0016 4361     		str	r3, [r0, #20]
 275:.\lib_Network/svt.c **** 	Data->EndPacket = 0;
 121              		.loc 1 275 0
 122 0018 0276     		strb	r2, [r0, #24]
 276:.\lib_Network/svt.c **** }
ARM GAS  C:\Users\Petro\AppData\Local\Temp\cctVrPRe.s 			page 8


 123              		.loc 1 276 0
 124              		@ sp needed
 125 001a 30BD     		pop	{r4, r5, pc}
 126              		.cfi_endproc
 127              	.LFE5:
 128              		.size	ResetPacket, .-ResetPacket
 129              		.section	.text.UnpackData,"ax",%progbits
 130              		.align	2
 131              		.global	UnpackData
 132              		.code	16
 133              		.thumb_func
 134              		.type	UnpackData, %function
 135              	UnpackData:
 136              	.LFB2:
   5:.\lib_Network/svt.c **** 	uint32_t ERR_CODE = 0;
 137              		.loc 1 5 0
 138              		.cfi_startproc
 139              	.LVL10:
 140 0000 30B5     		push	{r4, r5, lr}
 141              		.cfi_def_cfa_offset 12
 142              		.cfi_offset 4, -12
 143              		.cfi_offset 5, -8
 144              		.cfi_offset 14, -4
 145 0002 8FB0     		sub	sp, sp, #60
 146              		.cfi_def_cfa_offset 72
 147 0004 051C     		mov	r5, r0
 148              	.LVL11:
   7:.\lib_Network/svt.c ****     if (InByte == STX)
 149              		.loc 1 7 0
 150 0006 081C     		mov	r0, r1
 151              	.LVL12:
 152 0008 FFF7FEFF 		bl	DecodeByte
 153              	.LVL13:
 154 000c 041C     		mov	r4, r0
 155 000e 021E     		sub	r2, r0, #0
 156              	.LVL14:
   8:.\lib_Network/svt.c **** 	{
 157              		.loc 1 8 0
 158 0010 3C2A     		cmp	r2, #60
 159 0012 14D1     		bne	.L9
  10:.\lib_Network/svt.c **** 		ResetPacket(Data);
 160              		.loc 1 10 0
 161 0014 3B3A     		sub	r2, r2, #59
 162 0016 A34B     		ldr	r3, .L42
 163 0018 1A70     		strb	r2, [r3]
  11:.\lib_Network/svt.c **** 		LenSeq = 0;
 164              		.loc 1 11 0
 165 001a 281C     		mov	r0, r5
 166              	.LVL15:
 167 001c FFF7FEFF 		bl	ResetPacket
 168              	.LVL16:
  12:.\lib_Network/svt.c **** 		LenC = 0;
 169              		.loc 1 12 0
 170 0020 0023     		mov	r3, #0
 171 0022 A14A     		ldr	r2, .L42+4
 172 0024 1370     		strb	r3, [r2]
  13:.\lib_Network/svt.c **** 		LenChS = 0;
ARM GAS  C:\Users\Petro\AppData\Local\Temp\cctVrPRe.s 			page 9


 173              		.loc 1 13 0
 174 0026 A14A     		ldr	r2, .L42+8
 175 0028 1370     		strb	r3, [r2]
  14:.\lib_Network/svt.c **** 		LenD1 = 0;
 176              		.loc 1 14 0
 177 002a A14A     		ldr	r2, .L42+12
 178 002c 1370     		strb	r3, [r2]
  15:.\lib_Network/svt.c **** 		LenD2 = 0;
 179              		.loc 1 15 0
 180 002e A14A     		ldr	r2, .L42+16
 181 0030 1370     		strb	r3, [r2]
  16:.\lib_Network/svt.c ****         LenD3 = 0;
 182              		.loc 1 16 0
 183 0032 A14A     		ldr	r2, .L42+20
 184 0034 1370     		strb	r3, [r2]
  17:.\lib_Network/svt.c ****     }
 185              		.loc 1 17 0
 186 0036 A14A     		ldr	r2, .L42+24
 187 0038 1370     		strb	r3, [r2]
   6:.\lib_Network/svt.c **** 	InByte = DecodeByte(InByte);
 188              		.loc 1 6 0
 189 003a 0020     		mov	r0, #0
 190 003c 2EE1     		b	.L10
 191              	.LVL17:
 192              	.L9:
  21:.\lib_Network/svt.c ****     		case READ_SQ:
 193              		.loc 1 21 0
 194 003e 994B     		ldr	r3, .L42
 195 0040 1978     		ldrb	r1, [r3]
 196 0042 0A29     		cmp	r1, #10
 197 0044 00D9     		bls	.LCB147
 198 0046 25E1     		b	.L11	@long jump
 199              	.LCB147:
 200 0048 8B00     		lsl	r3, r1, #2
 201 004a 9D49     		ldr	r1, .L42+28
 202 004c CB58     		ldr	r3, [r1, r3]
 203 004e 9F46     		mov	pc, r3
 204              		.section	.rodata
 205              		.align	2
 206              	.L13:
 207 0000 94020000 		.word	.L11
 208 0004 50000000 		.word	.L12
 209 0008 8A000000 		.word	.L14
 210 000c A8000000 		.word	.L15
 211 0010 E6000000 		.word	.L16
 212 0014 04010000 		.word	.L17
 213 0018 4C010000 		.word	.L18
 214 001c 8C010000 		.word	.L19
 215 0020 CC010000 		.word	.L20
 216 0024 EA010000 		.word	.L21
 217 0028 28020000 		.word	.L22
 218              		.section	.text.UnpackData
 219              	.L12:
  24:.\lib_Network/svt.c ****     			{
 220              		.loc 1 24 0
 221 0050 FFF7FEFF 		bl	CheckSymb
 222              	.LVL18:
ARM GAS  C:\Users\Petro\AppData\Local\Temp\cctVrPRe.s 			page 10


 223 0054 0028     		cmp	r0, #0
 224 0056 13D0     		beq	.L23
  26:.\lib_Network/svt.c ****     				LenSeq++;
 225              		.loc 1 26 0
 226 0058 2B88     		ldrh	r3, [r5]
 227 005a 1C43     		orr	r4, r3
 228 005c 2C80     		strh	r4, [r5]
  27:.\lib_Network/svt.c ****     				if (LenSeq == LEN_SEQ)
 229              		.loc 1 27 0
 230 005e 924A     		ldr	r2, .L42+4
 231 0060 1378     		ldrb	r3, [r2]
 232 0062 0133     		add	r3, r3, #1
 233 0064 DBB2     		uxtb	r3, r3
 234 0066 1370     		strb	r3, [r2]
  28:.\lib_Network/svt.c ****     				{
 235              		.loc 1 28 0
 236 0068 042B     		cmp	r3, #4
 237 006a 04D1     		bne	.L24
  30:.\lib_Network/svt.c ****     				}
 238              		.loc 1 30 0
 239 006c 0222     		mov	r2, #2
 240 006e 8D4B     		ldr	r3, .L42
 241 0070 1A70     		strb	r2, [r3]
   6:.\lib_Network/svt.c **** 	InByte = DecodeByte(InByte);
 242              		.loc 1 6 0
 243 0072 0020     		mov	r0, #0
 244 0074 12E1     		b	.L10
 245              	.L24:
  34:.\lib_Network/svt.c ****     				}
 246              		.loc 1 34 0
 247 0076 2B88     		ldrh	r3, [r5]
 248 0078 1B01     		lsl	r3, r3, #4
 249 007a 2B80     		strh	r3, [r5]
   6:.\lib_Network/svt.c **** 	InByte = DecodeByte(InByte);
 250              		.loc 1 6 0
 251 007c 0020     		mov	r0, #0
 252 007e 0DE1     		b	.L10
 253              	.L23:
  38:.\lib_Network/svt.c ****     				ERR_CODE = BAD_SEQ;
 254              		.loc 1 38 0
 255 0080 0022     		mov	r2, #0
 256 0082 884B     		ldr	r3, .L42
 257 0084 1A70     		strb	r2, [r3]
 258              	.LVL19:
  39:.\lib_Network/svt.c ****     			}
 259              		.loc 1 39 0
 260 0086 0120     		mov	r0, #1
 261 0088 08E1     		b	.L10
 262              	.LVL20:
 263              	.L14:
  45:.\lib_Network/svt.c ****     			{
 264              		.loc 1 45 0
 265 008a 2128     		cmp	r0, #33
 266 008c 04D1     		bne	.L25
  47:.\lib_Network/svt.c ****     			}
 267              		.loc 1 47 0
 268 008e 1E3A     		sub	r2, r2, #30
ARM GAS  C:\Users\Petro\AppData\Local\Temp\cctVrPRe.s 			page 11


 269 0090 844B     		ldr	r3, .L42
 270 0092 1A70     		strb	r2, [r3]
   6:.\lib_Network/svt.c **** 	InByte = DecodeByte(InByte);
 271              		.loc 1 6 0
 272 0094 0020     		mov	r0, #0
 273              	.LVL21:
 274 0096 01E1     		b	.L10
 275              	.LVL22:
 276              	.L25:
  51:.\lib_Network/svt.c ****     				ERR_CODE = NO_FR1;
 277              		.loc 1 51 0
 278 0098 281C     		mov	r0, r5
 279              	.LVL23:
 280 009a FFF7FEFF 		bl	ResetPacket
 281              	.LVL24:
  53:.\lib_Network/svt.c ****     			}
 282              		.loc 1 53 0
 283 009e 0022     		mov	r2, #0
 284 00a0 804B     		ldr	r3, .L42
 285 00a2 1A70     		strb	r2, [r3]
  52:.\lib_Network/svt.c ****     				PROTO_STATE = WAIT_STX;
 286              		.loc 1 52 0
 287 00a4 0220     		mov	r0, #2
 288 00a6 F9E0     		b	.L10
 289              	.LVL25:
 290              	.L15:
  60:.\lib_Network/svt.c ****     			{
 291              		.loc 1 60 0
 292 00a8 FFF7FEFF 		bl	CheckSymb
 293              	.LVL26:
 294 00ac 0028     		cmp	r0, #0
 295 00ae 12D0     		beq	.L26
  62:.\lib_Network/svt.c ****     				LenC ++;
 296              		.loc 1 62 0
 297 00b0 6B68     		ldr	r3, [r5, #4]
 298 00b2 1C43     		orr	r4, r3
 299 00b4 6C60     		str	r4, [r5, #4]
  63:.\lib_Network/svt.c ****     				//printf("LenC Command: %d\n", LenC);
 300              		.loc 1 63 0
 301 00b6 7D4A     		ldr	r2, .L42+8
 302 00b8 1378     		ldrb	r3, [r2]
 303 00ba 0133     		add	r3, r3, #1
 304 00bc DBB2     		uxtb	r3, r3
 305 00be 1370     		strb	r3, [r2]
  65:.\lib_Network/svt.c ****     				{
 306              		.loc 1 65 0
 307 00c0 022B     		cmp	r3, #2
 308 00c2 04D1     		bne	.L27
  67:.\lib_Network/svt.c ****     				}
 309              		.loc 1 67 0
 310 00c4 0422     		mov	r2, #4
 311 00c6 774B     		ldr	r3, .L42
 312 00c8 1A70     		strb	r2, [r3]
   6:.\lib_Network/svt.c **** 	InByte = DecodeByte(InByte);
 313              		.loc 1 6 0
 314 00ca 0020     		mov	r0, #0
 315 00cc E6E0     		b	.L10
ARM GAS  C:\Users\Petro\AppData\Local\Temp\cctVrPRe.s 			page 12


 316              	.L27:
  71:.\lib_Network/svt.c ****     				}
 317              		.loc 1 71 0
 318 00ce 2401     		lsl	r4, r4, #4
 319 00d0 6C60     		str	r4, [r5, #4]
   6:.\lib_Network/svt.c **** 	InByte = DecodeByte(InByte);
 320              		.loc 1 6 0
 321 00d2 0020     		mov	r0, #0
 322 00d4 E2E0     		b	.L10
 323              	.L26:
  76:.\lib_Network/svt.c ****     				PROTO_STATE = WAIT_STX;
 324              		.loc 1 76 0
 325 00d6 281C     		mov	r0, r5
 326 00d8 FFF7FEFF 		bl	ResetPacket
 327              	.LVL27:
  77:.\lib_Network/svt.c ****     				ERR_CODE = INV_COMM;
 328              		.loc 1 77 0
 329 00dc 0022     		mov	r2, #0
 330 00de 714B     		ldr	r3, .L42
 331 00e0 1A70     		strb	r2, [r3]
 332              	.LVL28:
  78:.\lib_Network/svt.c ****     			}
 333              		.loc 1 78 0
 334 00e2 0320     		mov	r0, #3
 335 00e4 DAE0     		b	.L10
 336              	.LVL29:
 337              	.L16:
  84:.\lib_Network/svt.c ****     			{
 338              		.loc 1 84 0
 339 00e6 3A28     		cmp	r0, #58
 340 00e8 04D1     		bne	.L28
  86:.\lib_Network/svt.c ****     			}
 341              		.loc 1 86 0
 342 00ea 353A     		sub	r2, r2, #53
 343 00ec 6D4B     		ldr	r3, .L42
 344 00ee 1A70     		strb	r2, [r3]
   6:.\lib_Network/svt.c **** 	InByte = DecodeByte(InByte);
 345              		.loc 1 6 0
 346 00f0 0020     		mov	r0, #0
 347              	.LVL30:
 348 00f2 D3E0     		b	.L10
 349              	.LVL31:
 350              	.L28:
  90:.\lib_Network/svt.c ****     				ERR_CODE = NO_FR2;
 351              		.loc 1 90 0
 352 00f4 281C     		mov	r0, r5
 353              	.LVL32:
 354 00f6 FFF7FEFF 		bl	ResetPacket
 355              	.LVL33:
  92:.\lib_Network/svt.c ****     			}
 356              		.loc 1 92 0
 357 00fa 0022     		mov	r2, #0
 358 00fc 694B     		ldr	r3, .L42
 359 00fe 1A70     		strb	r2, [r3]
  91:.\lib_Network/svt.c ****     				PROTO_STATE = WAIT_STX;
 360              		.loc 1 91 0
 361 0100 0420     		mov	r0, #4
ARM GAS  C:\Users\Petro\AppData\Local\Temp\cctVrPRe.s 			page 13


 362 0102 CBE0     		b	.L10
 363              	.LVL34:
 364              	.L17:
  99:.\lib_Network/svt.c ****     			{
 365              		.loc 1 99 0
 366 0104 FFF7FEFF 		bl	CheckSymb
 367              	.LVL35:
 368 0108 0028     		cmp	r0, #0
 369 010a 17D0     		beq	.L29
 101:.\lib_Network/svt.c ****     				LenD1++;
 370              		.loc 1 101 0
 371 010c AB68     		ldr	r3, [r5, #8]
 372 010e 1C43     		orr	r4, r3
 373 0110 EA68     		ldr	r2, [r5, #12]
 374 0112 AC60     		str	r4, [r5, #8]
 102:.\lib_Network/svt.c ****     				if (LenD1 == LEN_DA1)
 375              		.loc 1 102 0
 376 0114 6749     		ldr	r1, .L42+16
 377 0116 0B78     		ldrb	r3, [r1]
 378 0118 0133     		add	r3, r3, #1
 379 011a DBB2     		uxtb	r3, r3
 380 011c 0B70     		strb	r3, [r1]
 103:.\lib_Network/svt.c ****     				{
 381              		.loc 1 103 0
 382 011e 102B     		cmp	r3, #16
 383 0120 04D1     		bne	.L30
 105:.\lib_Network/svt.c ****     				}
 384              		.loc 1 105 0
 385 0122 0622     		mov	r2, #6
 386 0124 5F4B     		ldr	r3, .L42
 387 0126 1A70     		strb	r2, [r3]
   6:.\lib_Network/svt.c **** 	InByte = DecodeByte(InByte);
 388              		.loc 1 6 0
 389 0128 0020     		mov	r0, #0
 390 012a B7E0     		b	.L10
 391              	.L30:
 109:.\lib_Network/svt.c ****     				}
 392              		.loc 1 109 0
 393 012c 210F     		lsr	r1, r4, #28
 394 012e 1301     		lsl	r3, r2, #4
 395 0130 0B43     		orr	r3, r1
 396 0132 2401     		lsl	r4, r4, #4
 397 0134 AC60     		str	r4, [r5, #8]
 398 0136 EB60     		str	r3, [r5, #12]
   6:.\lib_Network/svt.c **** 	InByte = DecodeByte(InByte);
 399              		.loc 1 6 0
 400 0138 0020     		mov	r0, #0
 401 013a AFE0     		b	.L10
 402              	.L29:
 113:.\lib_Network/svt.c ****     				ERR_CODE = INV_DA1;
 403              		.loc 1 113 0
 404 013c 281C     		mov	r0, r5
 405 013e FFF7FEFF 		bl	ResetPacket
 406              	.LVL36:
 115:.\lib_Network/svt.c ****     			}
 407              		.loc 1 115 0
 408 0142 0022     		mov	r2, #0
ARM GAS  C:\Users\Petro\AppData\Local\Temp\cctVrPRe.s 			page 14


 409 0144 574B     		ldr	r3, .L42
 410 0146 1A70     		strb	r2, [r3]
 114:.\lib_Network/svt.c ****     				PROTO_STATE = WAIT_STX;
 411              		.loc 1 114 0
 412 0148 0520     		mov	r0, #5
 413 014a A7E0     		b	.L10
 414              	.LVL37:
 415              	.L18:
 123:.\lib_Network/svt.c ****     			{
 416              		.loc 1 123 0
 417 014c FFF7FEFF 		bl	CheckSymb
 418              	.LVL38:
 419 0150 0028     		cmp	r0, #0
 420 0152 13D0     		beq	.L31
 125:.\lib_Network/svt.c ****     				LenD2++;
 421              		.loc 1 125 0
 422 0154 2B8A     		ldrh	r3, [r5, #16]
 423 0156 1C43     		orr	r4, r3
 424 0158 A4B2     		uxth	r4, r4
 425 015a 2C82     		strh	r4, [r5, #16]
 126:.\lib_Network/svt.c ****     				if (LenD2 == LEN_DA2)
 426              		.loc 1 126 0
 427 015c 564A     		ldr	r2, .L42+20
 428 015e 1378     		ldrb	r3, [r2]
 429 0160 0133     		add	r3, r3, #1
 430 0162 DBB2     		uxtb	r3, r3
 431 0164 1370     		strb	r3, [r2]
 127:.\lib_Network/svt.c ****     				{
 432              		.loc 1 127 0
 433 0166 042B     		cmp	r3, #4
 434 0168 04D1     		bne	.L32
 129:.\lib_Network/svt.c ****     				}
 435              		.loc 1 129 0
 436 016a 0722     		mov	r2, #7
 437 016c 4D4B     		ldr	r3, .L42
 438 016e 1A70     		strb	r2, [r3]
   6:.\lib_Network/svt.c **** 	InByte = DecodeByte(InByte);
 439              		.loc 1 6 0
 440 0170 0020     		mov	r0, #0
 441 0172 93E0     		b	.L10
 442              	.L32:
 133:.\lib_Network/svt.c ****     				}
 443              		.loc 1 133 0
 444 0174 2401     		lsl	r4, r4, #4
 445 0176 2C82     		strh	r4, [r5, #16]
   6:.\lib_Network/svt.c **** 	InByte = DecodeByte(InByte);
 446              		.loc 1 6 0
 447 0178 0020     		mov	r0, #0
 448 017a 8FE0     		b	.L10
 449              	.L31:
 137:.\lib_Network/svt.c ****     				ERR_CODE = INV_DA2;
 450              		.loc 1 137 0
 451 017c 281C     		mov	r0, r5
 452 017e FFF7FEFF 		bl	ResetPacket
 453              	.LVL39:
 139:.\lib_Network/svt.c ****     			}
 454              		.loc 1 139 0
ARM GAS  C:\Users\Petro\AppData\Local\Temp\cctVrPRe.s 			page 15


 455 0182 0022     		mov	r2, #0
 456 0184 474B     		ldr	r3, .L42
 457 0186 1A70     		strb	r2, [r3]
 138:.\lib_Network/svt.c ****     				PROTO_STATE = WAIT_STX;
 458              		.loc 1 138 0
 459 0188 0620     		mov	r0, #6
 460 018a 87E0     		b	.L10
 461              	.LVL40:
 462              	.L19:
 145:.\lib_Network/svt.c ****     			{
 463              		.loc 1 145 0
 464 018c FFF7FEFF 		bl	CheckSymb
 465              	.LVL41:
 466 0190 0028     		cmp	r0, #0
 467 0192 13D0     		beq	.L33
 147:.\lib_Network/svt.c ****     				LenD3++;
 468              		.loc 1 147 0
 469 0194 AB7C     		ldrb	r3, [r5, #18]
 470 0196 1C43     		orr	r4, r3
 471 0198 E4B2     		uxtb	r4, r4
 472 019a AC74     		strb	r4, [r5, #18]
 148:.\lib_Network/svt.c ****     				if (LenD3 == LEN_DA3)
 473              		.loc 1 148 0
 474 019c 474A     		ldr	r2, .L42+24
 475 019e 1378     		ldrb	r3, [r2]
 476 01a0 0133     		add	r3, r3, #1
 477 01a2 DBB2     		uxtb	r3, r3
 478 01a4 1370     		strb	r3, [r2]
 149:.\lib_Network/svt.c ****     				{
 479              		.loc 1 149 0
 480 01a6 022B     		cmp	r3, #2
 481 01a8 04D1     		bne	.L34
 151:.\lib_Network/svt.c ****     				}
 482              		.loc 1 151 0
 483 01aa 0822     		mov	r2, #8
 484 01ac 3D4B     		ldr	r3, .L42
 485 01ae 1A70     		strb	r2, [r3]
   6:.\lib_Network/svt.c **** 	InByte = DecodeByte(InByte);
 486              		.loc 1 6 0
 487 01b0 0020     		mov	r0, #0
 488 01b2 73E0     		b	.L10
 489              	.L34:
 155:.\lib_Network/svt.c ****     				}
 490              		.loc 1 155 0
 491 01b4 2401     		lsl	r4, r4, #4
 492 01b6 AC74     		strb	r4, [r5, #18]
   6:.\lib_Network/svt.c **** 	InByte = DecodeByte(InByte);
 493              		.loc 1 6 0
 494 01b8 0020     		mov	r0, #0
 495 01ba 6FE0     		b	.L10
 496              	.L33:
 159:.\lib_Network/svt.c ****     				ERR_CODE = INV_DA3;
 497              		.loc 1 159 0
 498 01bc 281C     		mov	r0, r5
 499 01be FFF7FEFF 		bl	ResetPacket
 500              	.LVL42:
 161:.\lib_Network/svt.c ****     			}
ARM GAS  C:\Users\Petro\AppData\Local\Temp\cctVrPRe.s 			page 16


 501              		.loc 1 161 0
 502 01c2 0022     		mov	r2, #0
 503 01c4 374B     		ldr	r3, .L42
 504 01c6 1A70     		strb	r2, [r3]
 160:.\lib_Network/svt.c ****     				PROTO_STATE = WAIT_STX;
 505              		.loc 1 160 0
 506 01c8 0A20     		mov	r0, #10
 507 01ca 67E0     		b	.L10
 508              	.LVL43:
 509              	.L20:
 167:.\lib_Network/svt.c ****     			{
 510              		.loc 1 167 0
 511 01cc 4028     		cmp	r0, #64
 512 01ce 04D1     		bne	.L35
 169:.\lib_Network/svt.c ****     			}
 513              		.loc 1 169 0
 514 01d0 373A     		sub	r2, r2, #55
 515 01d2 344B     		ldr	r3, .L42
 516 01d4 1A70     		strb	r2, [r3]
   6:.\lib_Network/svt.c **** 	InByte = DecodeByte(InByte);
 517              		.loc 1 6 0
 518 01d6 0020     		mov	r0, #0
 519              	.LVL44:
 520 01d8 60E0     		b	.L10
 521              	.LVL45:
 522              	.L35:
 173:.\lib_Network/svt.c ****     				ERR_CODE = NO_FR3;
 523              		.loc 1 173 0
 524 01da 281C     		mov	r0, r5
 525              	.LVL46:
 526 01dc FFF7FEFF 		bl	ResetPacket
 527              	.LVL47:
 175:.\lib_Network/svt.c ****     			}
 528              		.loc 1 175 0
 529 01e0 0022     		mov	r2, #0
 530 01e2 304B     		ldr	r3, .L42
 531 01e4 1A70     		strb	r2, [r3]
 174:.\lib_Network/svt.c ****     				PROTO_STATE = WAIT_STX;
 532              		.loc 1 174 0
 533 01e6 0720     		mov	r0, #7
 534 01e8 58E0     		b	.L10
 535              	.LVL48:
 536              	.L21:
 181:.\lib_Network/svt.c ****     			{
 537              		.loc 1 181 0
 538 01ea FFF7FEFF 		bl	CheckSymb
 539              	.LVL49:
 540 01ee 0028     		cmp	r0, #0
 541 01f0 12D0     		beq	.L36
 183:.\lib_Network/svt.c ****     				LenChS++;
 542              		.loc 1 183 0
 543 01f2 6B69     		ldr	r3, [r5, #20]
 544 01f4 1C43     		orr	r4, r3
 545 01f6 6C61     		str	r4, [r5, #20]
 184:.\lib_Network/svt.c ****     				if (LenChS == LEN_CHS)
 546              		.loc 1 184 0
 547 01f8 2D4A     		ldr	r2, .L42+12
ARM GAS  C:\Users\Petro\AppData\Local\Temp\cctVrPRe.s 			page 17


 548 01fa 1378     		ldrb	r3, [r2]
 549 01fc 0133     		add	r3, r3, #1
 550 01fe DBB2     		uxtb	r3, r3
 551 0200 1370     		strb	r3, [r2]
 185:.\lib_Network/svt.c ****     				{
 552              		.loc 1 185 0
 553 0202 082B     		cmp	r3, #8
 554 0204 04D1     		bne	.L37
 187:.\lib_Network/svt.c ****     				}
 555              		.loc 1 187 0
 556 0206 0A22     		mov	r2, #10
 557 0208 264B     		ldr	r3, .L42
 558 020a 1A70     		strb	r2, [r3]
   6:.\lib_Network/svt.c **** 	InByte = DecodeByte(InByte);
 559              		.loc 1 6 0
 560 020c 0020     		mov	r0, #0
 561 020e 45E0     		b	.L10
 562              	.L37:
 191:.\lib_Network/svt.c ****     				}
 563              		.loc 1 191 0
 564 0210 2401     		lsl	r4, r4, #4
 565 0212 6C61     		str	r4, [r5, #20]
   6:.\lib_Network/svt.c **** 	InByte = DecodeByte(InByte);
 566              		.loc 1 6 0
 567 0214 0020     		mov	r0, #0
 568 0216 41E0     		b	.L10
 569              	.L36:
 196:.\lib_Network/svt.c ****     				ERR_CODE = INV_CKECKSUM;
 570              		.loc 1 196 0
 571 0218 281C     		mov	r0, r5
 572 021a FFF7FEFF 		bl	ResetPacket
 573              	.LVL50:
 198:.\lib_Network/svt.c ****     			}
 574              		.loc 1 198 0
 575 021e 0022     		mov	r2, #0
 576 0220 204B     		ldr	r3, .L42
 577 0222 1A70     		strb	r2, [r3]
 197:.\lib_Network/svt.c ****     				PROTO_STATE = WAIT_STX;
 578              		.loc 1 197 0
 579 0224 0820     		mov	r0, #8
 580 0226 39E0     		b	.L10
 581              	.LVL51:
 582              	.L22:
 204:.\lib_Network/svt.c ****     			{
 583              		.loc 1 204 0
 584 0228 3E28     		cmp	r0, #62
 585 022a 2BD1     		bne	.L38
 586              	.LBB2:
 211:.\lib_Network/svt.c ****                     _tmpcrc = crc32_reset();
 587              		.loc 1 211 0
 588 022c 2A8A     		ldrh	r2, [r5, #16]
 589 022e AB7C     		ldrb	r3, [r5, #18]
 208:.\lib_Network/svt.c ****                         (uint32_t)((Data->Data1 & 0xFFFFFFFF00000000) >> 32), 
 590              		.loc 1 208 0
 591 0230 A968     		ldr	r1, [r5, #8]
 592 0232 0091     		str	r1, [sp]
 593 0234 0192     		str	r2, [sp, #4]
ARM GAS  C:\Users\Petro\AppData\Local\Temp\cctVrPRe.s 			page 18


 594 0236 0293     		str	r3, [sp, #8]
 595 0238 04A8     		add	r0, sp, #16
 596              	.LVL52:
 597 023a 2249     		ldr	r1, .L42+32
 598 023c 6A68     		ldr	r2, [r5, #4]
 599 023e EB68     		ldr	r3, [r5, #12]
 600 0240 FFF7FEFF 		bl	sprintf
 601              	.LVL53:
 213:.\lib_Network/svt.c ****                     _tmpcrc = crc32_calc_block((uint8_t *)_tmpdata, strlen(_tmpdata), _tmpcrc);
 602              		.loc 1 213 0
 603 0244 2048     		ldr	r0, .L42+36
 604 0246 0121     		mov	r1, #1
 605 0248 0122     		mov	r2, #1
 606 024a 5242     		neg	r2, r2
 607 024c FFF7FEFF 		bl	crc32_calc_block
 608              	.LVL54:
 609 0250 041C     		mov	r4, r0
 610              	.LVL55:
 214:.\lib_Network/svt.c ****     				_tmpcrc = crc32_calc_block((uint8_t *)"F", 1, _tmpcrc);
 611              		.loc 1 214 0
 612 0252 04A8     		add	r0, sp, #16
 613              	.LVL56:
 614 0254 FFF7FEFF 		bl	strlen
 615              	.LVL57:
 616 0258 011C     		mov	r1, r0
 617 025a 04A8     		add	r0, sp, #16
 618 025c 221C     		mov	r2, r4
 619 025e FFF7FEFF 		bl	crc32_calc_block
 620              	.LVL58:
 621 0262 021C     		mov	r2, r0
 622              	.LVL59:
 215:.\lib_Network/svt.c ****                     _tmpcrc = crc32_final(_tmpcrc);
 623              		.loc 1 215 0
 624 0264 1948     		ldr	r0, .L42+40
 625              	.LVL60:
 626 0266 0121     		mov	r1, #1
 627 0268 FFF7FEFF 		bl	crc32_calc_block
 628              	.LVL61:
 216:.\lib_Network/svt.c ****                     if (_tmpcrc == Data->CheckSum)
 629              		.loc 1 216 0
 630 026c C043     		mvn	r0, r0
 631              	.LVL62:
 217:.\lib_Network/svt.c ****                     {
 632              		.loc 1 217 0
 633 026e 6B69     		ldr	r3, [r5, #20]
 634 0270 8342     		cmp	r3, r0
 635 0272 03D1     		bne	.L39
 219:.\lib_Network/svt.c ****     				    ERR_CODE = PARSED_OK;
 636              		.loc 1 219 0
 637 0274 0123     		mov	r3, #1
 638 0276 2B76     		strb	r3, [r5, #24]
 220:.\lib_Network/svt.c ****                     }
 639              		.loc 1 220 0
 640 0278 0020     		mov	r0, #0
 641              	.LVL63:
 642 027a 07E0     		b	.L41
 643              	.LVL64:
ARM GAS  C:\Users\Petro\AppData\Local\Temp\cctVrPRe.s 			page 19


 644              	.L39:
 224:.\lib_Network/svt.c ****                         ERR_CODE = 10;
 645              		.loc 1 224 0
 646 027c 0023     		mov	r3, #0
 647 027e 2B76     		strb	r3, [r5, #24]
 648              	.LVL65:
 225:.\lib_Network/svt.c ****                     }
 649              		.loc 1 225 0
 650 0280 0A20     		mov	r0, #10
 651              	.LVL66:
 652 0282 03E0     		b	.L41
 653              	.LVL67:
 654              	.L38:
 655              	.LBE2:
 230:.\lib_Network/svt.c ****     			}
 656              		.loc 1 230 0
 657 0284 281C     		mov	r0, r5
 658              	.LVL68:
 659 0286 FFF7FEFF 		bl	ResetPacket
 660              	.LVL69:
 229:.\lib_Network/svt.c ****     				ResetPacket(Data);
 661              		.loc 1 229 0
 662 028a 0920     		mov	r0, #9
 663              	.LVL70:
 664              	.L41:
 232:.\lib_Network/svt.c ****     			break;
 665              		.loc 1 232 0
 666 028c 0022     		mov	r2, #0
 667 028e 054B     		ldr	r3, .L42
 668 0290 1A70     		strb	r2, [r3]
 233:.\lib_Network/svt.c ****     		}
 669              		.loc 1 233 0
 670 0292 03E0     		b	.L10
 671              	.LVL71:
 672              	.L11:
 237:.\lib_Network/svt.c ****             }
 673              		.loc 1 237 0
 674 0294 281C     		mov	r0, r5
 675              	.LVL72:
 676 0296 FFF7FEFF 		bl	ResetPacket
 677              	.LVL73:
   6:.\lib_Network/svt.c **** 	InByte = DecodeByte(InByte);
 678              		.loc 1 6 0
 679 029a 0020     		mov	r0, #0
 680              	.LVL74:
 681              	.L10:
 241:.\lib_Network/svt.c **** }
 682              		.loc 1 241 0
 683 029c C0B2     		uxtb	r0, r0
 684              	.LVL75:
 242:.\lib_Network/svt.c **** 
 685              		.loc 1 242 0
 686 029e 0FB0     		add	sp, sp, #60
 687              		@ sp needed
 688              	.LVL76:
 689 02a0 30BD     		pop	{r4, r5, pc}
 690              	.L43:
ARM GAS  C:\Users\Petro\AppData\Local\Temp\cctVrPRe.s 			page 20


 691 02a2 C046     		.align	2
 692              	.L42:
 693 02a4 00000000 		.word	PROTO_STATE
 694 02a8 00000000 		.word	LenSeq
 695 02ac 00000000 		.word	LenC
 696 02b0 00000000 		.word	LenChS
 697 02b4 00000000 		.word	LenD1
 698 02b8 00000000 		.word	LenD2
 699 02bc 00000000 		.word	LenD3
 700 02c0 00000000 		.word	.L13
 701 02c4 00000000 		.word	.LC8
 702 02c8 18000000 		.word	.LC10
 703 02cc 1C000000 		.word	.LC12
 704              		.cfi_endproc
 705              	.LFE2:
 706              		.size	UnpackData, .-UnpackData
 707              		.section	.text.PackData,"ax",%progbits
 708              		.align	2
 709              		.global	PackData
 710              		.code	16
 711              		.thumb_func
 712              		.type	PackData, %function
 713              	PackData:
 714              	.LFB6:
 277:.\lib_Network/svt.c **** 
 278:.\lib_Network/svt.c **** uint8_t PackData(char *buff, uint8_t *data, uint32_t Sequence)
 279:.\lib_Network/svt.c **** {
 715              		.loc 1 279 0
 716              		.cfi_startproc
 717              	.LVL77:
 718 0000 70B5     		push	{r4, r5, r6, lr}
 719              		.cfi_def_cfa_offset 16
 720              		.cfi_offset 4, -16
 721              		.cfi_offset 5, -12
 722              		.cfi_offset 6, -8
 723              		.cfi_offset 14, -4
 724 0002 8AB0     		sub	sp, sp, #40
 725              		.cfi_def_cfa_offset 56
 726 0004 041C     		mov	r4, r0
 727 0006 0D1C     		mov	r5, r1
 728              	.LVL78:
 729 0008 1204     		lsl	r2, r2, #16
 730              	.LVL79:
 731 000a 120C     		lsr	r2, r2, #16
 280:.\lib_Network/svt.c ****     uint32_t _crc;
 281:.\lib_Network/svt.c ****     char *_p;
 282:.\lib_Network/svt.c ****     char szSeq[20];
 283:.\lib_Network/svt.c ****     char szCheckSum[20];
 284:.\lib_Network/svt.c ****     
 285:.\lib_Network/svt.c ****     _p = (char *)data;
 286:.\lib_Network/svt.c **** 
 287:.\lib_Network/svt.c **** 
 288:.\lib_Network/svt.c ****     sprintf(szSeq, "%04X", (uint16_t)Sequence);
 732              		.loc 1 288 0
 733 000c 05A8     		add	r0, sp, #20
 734              	.LVL80:
 735 000e 2549     		ldr	r1, .L45
ARM GAS  C:\Users\Petro\AppData\Local\Temp\cctVrPRe.s 			page 21


 736              	.LVL81:
 737 0010 FFF7FEFF 		bl	sprintf
 738              	.LVL82:
 289:.\lib_Network/svt.c ****     
 290:.\lib_Network/svt.c ****     _crc = crc32_reset();
 291:.\lib_Network/svt.c ****     _crc = crc32_calc_block((uint8_t *)"A", 1, _crc);
 739              		.loc 1 291 0
 740 0014 2448     		ldr	r0, .L45+4
 741 0016 0121     		mov	r1, #1
 742 0018 0122     		mov	r2, #1
 743 001a 5242     		neg	r2, r2
 744 001c FFF7FEFF 		bl	crc32_calc_block
 745              	.LVL83:
 746 0020 061C     		mov	r6, r0
 747              	.LVL84:
 292:.\lib_Network/svt.c ****     _crc = crc32_calc_block((uint8_t *)_p, strlen(_p), _crc);
 748              		.loc 1 292 0
 749 0022 281C     		mov	r0, r5
 750              	.LVL85:
 751 0024 FFF7FEFF 		bl	strlen
 752              	.LVL86:
 753 0028 011C     		mov	r1, r0
 754 002a 281C     		mov	r0, r5
 755 002c 321C     		mov	r2, r6
 756 002e FFF7FEFF 		bl	crc32_calc_block
 757              	.LVL87:
 758 0032 021C     		mov	r2, r0
 759              	.LVL88:
 293:.\lib_Network/svt.c ****     _crc = crc32_calc_block((uint8_t *)"F", 1, _crc);
 760              		.loc 1 293 0
 761 0034 1D48     		ldr	r0, .L45+8
 762              	.LVL89:
 763 0036 0121     		mov	r1, #1
 764 0038 FFF7FEFF 		bl	crc32_calc_block
 765              	.LVL90:
 294:.\lib_Network/svt.c ****     _crc = crc32_final(_crc);
 766              		.loc 1 294 0
 767 003c C243     		mvn	r2, r0
 768              	.LVL91:
 295:.\lib_Network/svt.c ****     
 296:.\lib_Network/svt.c ****     sprintf(szCheckSum, "%08X", _crc);
 769              		.loc 1 296 0
 770 003e 6846     		mov	r0, sp
 771 0040 1B49     		ldr	r1, .L45+12
 772 0042 FFF7FEFF 		bl	sprintf
 773              	.LVL92:
 297:.\lib_Network/svt.c ****     
 298:.\lib_Network/svt.c ****     strcpy(buff, STX_S);
 774              		.loc 1 298 0
 775 0046 201C     		mov	r0, r4
 776 0048 1A49     		ldr	r1, .L45+16
 777 004a 0222     		mov	r2, #2
 778 004c FFF7FEFF 		bl	memcpy
 779              	.LVL93:
 299:.\lib_Network/svt.c ****     strcat(buff, szSeq);
 780              		.loc 1 299 0
 781 0050 201C     		mov	r0, r4
ARM GAS  C:\Users\Petro\AppData\Local\Temp\cctVrPRe.s 			page 22


 782 0052 05A9     		add	r1, sp, #20
 783 0054 FFF7FEFF 		bl	strcat
 784              	.LVL94:
 300:.\lib_Network/svt.c ****     strcat(buff, FRM0);
 785              		.loc 1 300 0
 786 0058 201C     		mov	r0, r4
 787 005a FFF7FEFF 		bl	strlen
 788              	.LVL95:
 789 005e 2018     		add	r0, r4, r0
 790 0060 1549     		ldr	r1, .L45+20
 791 0062 0222     		mov	r2, #2
 792 0064 FFF7FEFF 		bl	memcpy
 793              	.LVL96:
 301:.\lib_Network/svt.c ****     strcat(buff, _p);
 794              		.loc 1 301 0
 795 0068 201C     		mov	r0, r4
 796 006a 291C     		mov	r1, r5
 797 006c FFF7FEFF 		bl	strcat
 798              	.LVL97:
 302:.\lib_Network/svt.c ****     strcat(buff, FRM1);    
 799              		.loc 1 302 0
 800 0070 201C     		mov	r0, r4
 801 0072 FFF7FEFF 		bl	strlen
 802              	.LVL98:
 803 0076 2018     		add	r0, r4, r0
 804 0078 1049     		ldr	r1, .L45+24
 805 007a 0222     		mov	r2, #2
 806 007c FFF7FEFF 		bl	memcpy
 807              	.LVL99:
 303:.\lib_Network/svt.c ****     strcat(buff, szCheckSum);
 808              		.loc 1 303 0
 809 0080 201C     		mov	r0, r4
 810 0082 6946     		mov	r1, sp
 811 0084 FFF7FEFF 		bl	strcat
 812              	.LVL100:
 304:.\lib_Network/svt.c ****     strcat(buff, ETX_S);
 813              		.loc 1 304 0
 814 0088 201C     		mov	r0, r4
 815 008a FFF7FEFF 		bl	strlen
 816              	.LVL101:
 817 008e 2018     		add	r0, r4, r0
 818 0090 0B49     		ldr	r1, .L45+28
 819 0092 0222     		mov	r2, #2
 820 0094 FFF7FEFF 		bl	memcpy
 821              	.LVL102:
 305:.\lib_Network/svt.c ****     
 306:.\lib_Network/svt.c ****     return strlen(buff);
 822              		.loc 1 306 0
 823 0098 201C     		mov	r0, r4
 824 009a FFF7FEFF 		bl	strlen
 825              	.LVL103:
 826 009e C0B2     		uxtb	r0, r0
 307:.\lib_Network/svt.c **** }
 827              		.loc 1 307 0
 828 00a0 0AB0     		add	sp, sp, #40
 829              		@ sp needed
 830              	.LVL104:
ARM GAS  C:\Users\Petro\AppData\Local\Temp\cctVrPRe.s 			page 23


 831              	.LVL105:
 832 00a2 70BD     		pop	{r4, r5, r6, pc}
 833              	.L46:
 834              		.align	2
 835              	.L45:
 836 00a4 20000000 		.word	.LC14
 837 00a8 18000000 		.word	.LC10
 838 00ac 1C000000 		.word	.LC12
 839 00b0 28000000 		.word	.LC18
 840 00b4 30000000 		.word	.LC20
 841 00b8 34000000 		.word	.LC22
 842 00bc 38000000 		.word	.LC24
 843 00c0 3C000000 		.word	.LC26
 844              		.cfi_endproc
 845              	.LFE6:
 846              		.size	PackData, .-PackData
 847              		.comm	LenC,1,1
 848              		.comm	LenChS,1,1
 849              		.comm	LenSeq,1,1
 850              		.comm	LenD3,1,1
 851              		.comm	LenD2,1,1
 852              		.comm	LenD1,1,1
 853              		.comm	PROTO_STATE,1,1
 854              		.section	.rodata.str1.4,"aMS",%progbits,1
 855              		.align	2
 856              	.LC8:
 857 0000 25303258 		.ascii	"%02X:%08X%08X%04X%02X\000"
 857      3A253038 
 857      58253038 
 857      58253034 
 857      58253032 
 858 0016 0000     		.space	2
 859              	.LC10:
 860 0018 4100     		.ascii	"A\000"
 861 001a 0000     		.space	2
 862              	.LC12:
 863 001c 4600     		.ascii	"F\000"
 864 001e 0000     		.space	2
 865              	.LC14:
 866 0020 25303458 		.ascii	"%04X\000"
 866      00
 867 0025 000000   		.space	3
 868              	.LC18:
 869 0028 25303858 		.ascii	"%08X\000"
 869      00
 870 002d 000000   		.space	3
 871              	.LC20:
 872 0030 3C00     		.ascii	"<\000"
 873 0032 0000     		.space	2
 874              	.LC22:
 875 0034 2100     		.ascii	"!\000"
 876 0036 0000     		.space	2
 877              	.LC24:
 878 0038 4000     		.ascii	"@\000"
 879 003a 0000     		.space	2
 880              	.LC26:
 881 003c 3E00     		.ascii	">\000"
ARM GAS  C:\Users\Petro\AppData\Local\Temp\cctVrPRe.s 			page 24


 882 003e 0000     		.text
 883              	.Letext0:
 884              		.file 2 "c:\\program files (x86)\\cypress\\psoc creator\\3.3\\psoc creator\\import\\gnu\\arm\\4.9.
 885              		.file 3 "c:\\program files (x86)\\cypress\\psoc creator\\3.3\\psoc creator\\import\\gnu\\arm\\4.9.
 886              		.file 4 "c:\\program files (x86)\\cypress\\psoc creator\\3.3\\psoc creator\\import\\gnu\\arm\\4.9.
 887              		.file 5 ".\\lib_Network\\svt.h"
 888              		.file 6 "c:\\program files (x86)\\cypress\\psoc creator\\3.3\\psoc creator\\import\\gnu\\arm\\4.9.
 889              		.file 7 "./lib_Network\\crc32.h"
 890              		.file 8 "c:\\program files (x86)\\cypress\\psoc creator\\3.3\\psoc creator\\import\\gnu\\arm\\4.9.
 891              		.file 9 "<built-in>"