ARM GAS  C:\Users\Petro\AppData\Local\Temp\cc0Gnyfo.s 			page 1


   1              		.cpu cortex-m0
   2              		.fpu softvfp
   3              		.eabi_attribute 20, 1
   4              		.eabi_attribute 21, 1
   5              		.eabi_attribute 23, 3
   6              		.eabi_attribute 24, 1
   7              		.eabi_attribute 25, 1
   8              		.eabi_attribute 26, 1
   9              		.eabi_attribute 30, 1
  10              		.eabi_attribute 34, 0
  11              		.eabi_attribute 18, 4
  12              		.code	16
  13              		.file	"main.c"
  14              		.text
  15              	.Ltext0:
  16              		.cfi_sections	.debug_frame
  17              		.section	.text.finishHandler,"ax",%progbits
  18              		.align	2
  19              		.global	finishHandler
  20              		.code	16
  21              		.thumb_func
  22              		.type	finishHandler, %function
  23              	finishHandler:
  24              	.LFB34:
  25              		.file 1 ".\\main.c"
   1:.\main.c      **** #include <project.h>
   2:.\main.c      **** #include <stdio.h>          //include for sprintf()
   3:.\main.c      **** #include <string.h>         //include for memset()
   4:.\main.c      **** #define MAXSKIER 9          //max skier in distance
   5:.\main.c      **** 
   6:.\main.c      **** void show_time(void);       //out time
   7:.\main.c      **** void led_indication(void);  
   8:.\main.c      **** 
   9:.\main.c      **** typedef enum {false, true} bool;
  10:.\main.c      **** struct time{            //struct for saved time
  11:.\main.c      ****     uint16_t hour;
  12:.\main.c      ****     uint16_t min;
  13:.\main.c      ****     uint16_t sec;
  14:.\main.c      ****     uint16_t msec;
  15:.\main.c      **** };
  16:.\main.c      **** struct time first = {0,0,0,0};
  17:.\main.c      **** bool crossFin = false;      //flag cross the finish
  18:.\main.c      **** bool runStopwach = false;     //flag run stopwatch
  19:.\main.c      **** int skier = 0;
  20:.\main.c      **** char lastPressed;       //for read number skiers for add or delet
  21:.\main.c      **** 
  22:.\main.c      **** CY_ISR(finishHandler)
  23:.\main.c      **** {
  26              		.loc 1 23 0
  27              		.cfi_startproc
  28 0000 08B5     		push	{r3, lr}
  29              		.cfi_def_cfa_offset 8
  30              		.cfi_offset 3, -8
  31              		.cfi_offset 14, -4
  24:.\main.c      ****     crossFin = true;
  32              		.loc 1 24 0
  33 0002 094B     		ldr	r3, .L4
ARM GAS  C:\Users\Petro\AppData\Local\Temp\cc0Gnyfo.s 			page 2


  34 0004 0122     		mov	r2, #1
  35 0006 1A70     		strb	r2, [r3]
  25:.\main.c      ****     
  26:.\main.c      ****     if(skier)skier--;
  36              		.loc 1 26 0
  37 0008 5B68     		ldr	r3, [r3, #4]
  38 000a 002B     		cmp	r3, #0
  39 000c 02D0     		beq	.L2
  40              		.loc 1 26 0 is_stmt 0 discriminator 1
  41 000e 013B     		sub	r3, r3, #1
  42 0010 054A     		ldr	r2, .L4
  43 0012 5360     		str	r3, [r2, #4]
  44              	.L2:
  27:.\main.c      ****     if(!skier) runStopwach = false;     //stop stopwath
  45              		.loc 1 27 0 is_stmt 1
  46 0014 044B     		ldr	r3, .L4
  47 0016 5B68     		ldr	r3, [r3, #4]
  48 0018 002B     		cmp	r3, #0
  49 001a 02D1     		bne	.L3
  50              		.loc 1 27 0 is_stmt 0 discriminator 1
  51 001c 0022     		mov	r2, #0
  52 001e 024B     		ldr	r3, .L4
  53 0020 1A72     		strb	r2, [r3, #8]
  54              	.L3:
  28:.\main.c      ****     
  29:.\main.c      ****     finish_ClearInterrupt();
  55              		.loc 1 29 0 is_stmt 1
  56 0022 FFF7FEFF 		bl	finish_ClearInterrupt
  57              	.LVL0:
  30:.\main.c      **** }
  58              		.loc 1 30 0
  59              		@ sp needed
  60 0026 08BD     		pop	{r3, pc}
  61              	.L5:
  62              		.align	2
  63              	.L4:
  64 0028 00000000 		.word	.LANCHOR0
  65              		.cfi_endproc
  66              	.LFE34:
  67              		.size	finishHandler, .-finishHandler
  68              		.section	.text.timerHandler,"ax",%progbits
  69              		.align	2
  70              		.global	timerHandler
  71              		.code	16
  72              		.thumb_func
  73              		.type	timerHandler, %function
  74              	timerHandler:
  75              	.LFB35:
  31:.\main.c      **** 
  32:.\main.c      **** CY_ISR(timerHandler)
  33:.\main.c      **** {
  76              		.loc 1 33 0
  77              		.cfi_startproc
  78 0000 08B5     		push	{r3, lr}
  79              		.cfi_def_cfa_offset 8
  80              		.cfi_offset 3, -8
  81              		.cfi_offset 14, -4
ARM GAS  C:\Users\Petro\AppData\Local\Temp\cc0Gnyfo.s 			page 3


  34:.\main.c      ****     if(runStopwach){        //if run stopwach, timer start
  82              		.loc 1 34 0
  83 0002 124B     		ldr	r3, .L9
  84 0004 1B7A     		ldrb	r3, [r3, #8]
  85 0006 002B     		cmp	r3, #0
  86 0008 1CD0     		beq	.L7
  35:.\main.c      ****         if (++first.sec==59){
  87              		.loc 1 35 0
  88 000a 104A     		ldr	r2, .L9
  89 000c 138A     		ldrh	r3, [r2, #16]
  90 000e 0133     		add	r3, r3, #1
  91 0010 9BB2     		uxth	r3, r3
  92 0012 1382     		strh	r3, [r2, #16]
  93 0014 3B2B     		cmp	r3, #59
  94 0016 12D1     		bne	.L8
  36:.\main.c      ****             first.sec = 0;   
  95              		.loc 1 36 0
  96 0018 0023     		mov	r3, #0
  97 001a 1382     		strh	r3, [r2, #16]
  37:.\main.c      ****             if (++first.min==59){
  98              		.loc 1 37 0
  99 001c D389     		ldrh	r3, [r2, #14]
 100 001e 0133     		add	r3, r3, #1
 101 0020 9BB2     		uxth	r3, r3
 102 0022 D381     		strh	r3, [r2, #14]
 103 0024 3B2B     		cmp	r3, #59
 104 0026 0AD1     		bne	.L8
  38:.\main.c      ****                 first.min = 0;    
 105              		.loc 1 38 0
 106 0028 0023     		mov	r3, #0
 107 002a D381     		strh	r3, [r2, #14]
  39:.\main.c      ****                 if (++first.hour==24) 
 108              		.loc 1 39 0
 109 002c 9389     		ldrh	r3, [r2, #12]
 110 002e 0133     		add	r3, r3, #1
 111 0030 9BB2     		uxth	r3, r3
 112 0032 9381     		strh	r3, [r2, #12]
 113 0034 182B     		cmp	r3, #24
 114 0036 02D1     		bne	.L8
  40:.\main.c      ****                     first.hour = 0;   
 115              		.loc 1 40 0
 116 0038 0022     		mov	r2, #0
 117 003a 044B     		ldr	r3, .L9
 118 003c 9A81     		strh	r2, [r3, #12]
 119              	.L8:
  41:.\main.c      ****             }  
  42:.\main.c      ****         }
  43:.\main.c      ****         led_green_Write(0);
 120              		.loc 1 43 0
 121 003e 0020     		mov	r0, #0
 122 0040 FFF7FEFF 		bl	led_green_Write
 123              	.LVL1:
 124              	.L7:
  44:.\main.c      ****     }
  45:.\main.c      ****     
  46:.\main.c      ****     timer_ClearInterrupt(timer_INTR_MASK_CC_MATCH); //delet interrupt timer
 125              		.loc 1 46 0
ARM GAS  C:\Users\Petro\AppData\Local\Temp\cc0Gnyfo.s 			page 4


 126 0044 0220     		mov	r0, #2
 127 0046 FFF7FEFF 		bl	timer_ClearInterrupt
 128              	.LVL2:
  47:.\main.c      **** }
 129              		.loc 1 47 0
 130              		@ sp needed
 131 004a 08BD     		pop	{r3, pc}
 132              	.L10:
 133              		.align	2
 134              	.L9:
 135 004c 00000000 		.word	.LANCHOR0
 136              		.cfi_endproc
 137              	.LFE35:
 138              		.size	timerHandler, .-timerHandler
 139              		.section	.text.xbeeHandler,"ax",%progbits
 140              		.align	2
 141              		.global	xbeeHandler
 142              		.code	16
 143              		.thumb_func
 144              		.type	xbeeHandler, %function
 145              	xbeeHandler:
 146              	.LFB36:
  48:.\main.c      **** 
  49:.\main.c      **** CY_ISR(xbeeHandler)
  50:.\main.c      **** {
 147              		.loc 1 50 0
 148              		.cfi_startproc
 149 0000 10B5     		push	{r4, lr}
 150              		.cfi_def_cfa_offset 8
 151              		.cfi_offset 4, -8
 152              		.cfi_offset 14, -4
  51:.\main.c      ****     char input = xbee_GetChar();
 153              		.loc 1 51 0
 154 0002 FFF7FEFF 		bl	xbee_GetChar
 155              	.LVL3:
 156 0006 041E     		sub	r4, r0, #0
 157              	.LVL4:
  52:.\main.c      ****     
  53:.\main.c      ****     switch (input){
 158              		.loc 1 53 0
 159 0008 632C     		cmp	r4, #99
 160 000a 08D0     		beq	.L13
 161 000c 7328     		cmp	r0, #115
 162 000e 0ED1     		bne	.L17
  54:.\main.c      ****         case 's':       //xbee recived start
  55:.\main.c      ****             first.msec = timer_ReadCounter();
 163              		.loc 1 55 0
 164 0010 FFF7FEFF 		bl	timer_ReadCounter
 165              	.LVL5:
 166 0014 104B     		ldr	r3, .L18
 167 0016 5882     		strh	r0, [r3, #18]
  56:.\main.c      ****             runStopwach = true;
 168              		.loc 1 56 0
 169 0018 0122     		mov	r2, #1
 170 001a 1A72     		strb	r2, [r3, #8]
  57:.\main.c      ****             break;
 171              		.loc 1 57 0
ARM GAS  C:\Users\Petro\AppData\Local\Temp\cc0Gnyfo.s 			page 5


 172 001c 19E0     		b	.L15
 173              	.LVL6:
 174              	.L13:
  58:.\main.c      ****         case 'c':       //xbee resived cancel
  59:.\main.c      ****             if(!skier)runStopwach = false;
 175              		.loc 1 59 0
 176 001e 0E4B     		ldr	r3, .L18
 177 0020 5B68     		ldr	r3, [r3, #4]
 178 0022 002B     		cmp	r3, #0
 179 0024 15D1     		bne	.L15
 180              		.loc 1 59 0 is_stmt 0 discriminator 1
 181 0026 0022     		mov	r2, #0
 182 0028 0B4B     		ldr	r3, .L18
 183 002a 1A72     		strb	r2, [r3, #8]
 184 002c 11E0     		b	.L15
 185              	.L17:
  60:.\main.c      ****             break;
  61:.\main.c      ****         default:
  62:.\main.c      ****             if(lastPressed == 's')skier = input-'0';    //write number skier add distance
 186              		.loc 1 62 0 is_stmt 1
 187 002e 0B4B     		ldr	r3, .L18+4
 188 0030 1B78     		ldrb	r3, [r3]
 189 0032 732B     		cmp	r3, #115
 190 0034 04D1     		bne	.L16
 191              		.loc 1 62 0 is_stmt 0 discriminator 1
 192 0036 084A     		ldr	r2, .L18
 193 0038 031C     		mov	r3, r0
 194 003a 303B     		sub	r3, r3, #48
 195 003c 5360     		str	r3, [r2, #4]
 196 003e 08E0     		b	.L15
 197              	.L16:
  63:.\main.c      ****             else if(lastPressed == 'c'){             //delet number skier
 198              		.loc 1 63 0 is_stmt 1
 199 0040 632B     		cmp	r3, #99
 200 0042 06D1     		bne	.L15
  64:.\main.c      ****                     if(skier)skier--;
 201              		.loc 1 64 0
 202 0044 044B     		ldr	r3, .L18
 203 0046 5B68     		ldr	r3, [r3, #4]
 204 0048 002B     		cmp	r3, #0
 205 004a 02D0     		beq	.L15
 206              		.loc 1 64 0 is_stmt 0 discriminator 1
 207 004c 013B     		sub	r3, r3, #1
 208 004e 024A     		ldr	r2, .L18
 209 0050 5360     		str	r3, [r2, #4]
 210              	.LVL7:
 211              	.L15:
  65:.\main.c      ****                 }
  66:.\main.c      ****             break;       
  67:.\main.c      ****     }
  68:.\main.c      ****     lastPressed = input;
 212              		.loc 1 68 0 is_stmt 1
 213 0052 024B     		ldr	r3, .L18+4
 214 0054 1C70     		strb	r4, [r3]
  69:.\main.c      **** }
 215              		.loc 1 69 0
 216              		@ sp needed
ARM GAS  C:\Users\Petro\AppData\Local\Temp\cc0Gnyfo.s 			page 6


 217 0056 10BD     		pop	{r4, pc}
 218              	.L19:
 219              		.align	2
 220              	.L18:
 221 0058 00000000 		.word	.LANCHOR0
 222 005c 00000000 		.word	lastPressed
 223              		.cfi_endproc
 224              	.LFE36:
 225              		.size	xbeeHandler, .-xbeeHandler
 226              		.section	.text.show_time,"ax",%progbits
 227              		.align	2
 228              		.global	show_time
 229              		.code	16
 230              		.thumb_func
 231              		.type	show_time, %function
 232              	show_time:
 233              	.LFB38:
  70:.\main.c      **** 
  71:.\main.c      **** 
  72:.\main.c      **** int main()
  73:.\main.c      **** {
  74:.\main.c      ****     CyGlobalIntEnable; /* Enable global interrupts. */
  75:.\main.c      ****     timer_Start();
  76:.\main.c      ****     xbee_Start();
  77:.\main.c      **** 
  78:.\main.c      ****     isr_finish_StartEx(finishHandler);      //interrupt for button finish
  79:.\main.c      ****     isr_timer_StartEx(timerHandler);        //interrupt for counter timer 
  80:.\main.c      ****     isr_xbee_StartEx(xbeeHandler);          //interrupt for input simbol from xbee
  81:.\main.c      ****     
  82:.\main.c      ****     for(;;)
  83:.\main.c      ****     {
  84:.\main.c      ****         show_time();        //output time
  85:.\main.c      ****         led_indication();   //blink led (period - 1s)
  86:.\main.c      ****         //if(!runStopwach)memset(&first,0,sizeof(first));     //reset struct first
  87:.\main.c      ****     }
  88:.\main.c      **** }
  89:.\main.c      **** 
  90:.\main.c      **** void show_time()
  91:.\main.c      **** {
 234              		.loc 1 91 0
 235              		.cfi_startproc
 236 0000 00B5     		push	{lr}
 237              		.cfi_def_cfa_offset 4
 238              		.cfi_offset 14, -4
 239 0002 8BB0     		sub	sp, sp, #44
 240              		.cfi_def_cfa_offset 48
  92:.\main.c      ****     char buffer[32];    ////buffer for two rows
  93:.\main.c      ****     sprintf(buffer, "%i:%i:%i-%i\n\r",first.hour, first.min, first.sec, skier);
 241              		.loc 1 93 0
 242 0004 0949     		ldr	r1, .L21
 243 0006 8A89     		ldrh	r2, [r1, #12]
 244 0008 CB89     		ldrh	r3, [r1, #14]
 245 000a 088A     		ldrh	r0, [r1, #16]
 246 000c 0090     		str	r0, [sp]
 247 000e 4968     		ldr	r1, [r1, #4]
 248 0010 0191     		str	r1, [sp, #4]
 249 0012 02A8     		add	r0, sp, #8
ARM GAS  C:\Users\Petro\AppData\Local\Temp\cc0Gnyfo.s 			page 7


 250 0014 0649     		ldr	r1, .L21+4
 251 0016 FFF7FEFF 		bl	sprintf
 252              	.LVL8:
  94:.\main.c      ****     xbee_PutString(buffer);
 253              		.loc 1 94 0
 254 001a 02A8     		add	r0, sp, #8
 255 001c FFF7FEFF 		bl	xbee_PutString
 256              	.LVL9:
  95:.\main.c      ****     CyDelay(100);
 257              		.loc 1 95 0
 258 0020 6420     		mov	r0, #100
 259 0022 FFF7FEFF 		bl	CyDelay
 260              	.LVL10:
  96:.\main.c      **** }
 261              		.loc 1 96 0
 262 0026 0BB0     		add	sp, sp, #44
 263              		@ sp needed
 264 0028 00BD     		pop	{pc}
 265              	.L22:
 266 002a C046     		.align	2
 267              	.L21:
 268 002c 00000000 		.word	.LANCHOR0
 269 0030 00000000 		.word	.LC5
 270              		.cfi_endproc
 271              	.LFE38:
 272              		.size	show_time, .-show_time
 273              		.section	.text.led_indication,"ax",%progbits
 274              		.align	2
 275              		.global	led_indication
 276              		.code	16
 277              		.thumb_func
 278              		.type	led_indication, %function
 279              	led_indication:
 280              	.LFB39:
  97:.\main.c      **** 
  98:.\main.c      **** void led_indication()
  99:.\main.c      **** {
 281              		.loc 1 99 0
 282              		.cfi_startproc
 283 0000 08B5     		push	{r3, lr}
 284              		.cfi_def_cfa_offset 8
 285              		.cfi_offset 3, -8
 286              		.cfi_offset 14, -4
 100:.\main.c      ****     led_green_Write(1);     //off led(on in interrupt in timer)
 287              		.loc 1 100 0
 288 0002 0120     		mov	r0, #1
 289 0004 FFF7FEFF 		bl	led_green_Write
 290              	.LVL11:
 101:.\main.c      **** }...
 291              		.loc 1 101 0
 292              		@ sp needed
 293 0008 08BD     		pop	{r3, pc}
 294              		.cfi_endproc
 295              	.LFE39:
 296              		.size	led_indication, .-led_indication
 297 000a C046     		.section	.text.main,"ax",%progbits
 298              		.align	2
ARM GAS  C:\Users\Petro\AppData\Local\Temp\cc0Gnyfo.s 			page 8


 299              		.global	main
 300              		.code	16
 301              		.thumb_func
 302              		.type	main, %function
 303              	main:
 304              	.LFB37:
  73:.\main.c      **** {
 305              		.loc 1 73 0
 306              		.cfi_startproc
 307 0000 08B5     		push	{r3, lr}
 308              		.cfi_def_cfa_offset 8
 309              		.cfi_offset 3, -8
 310              		.cfi_offset 14, -4
  74:.\main.c      ****     CyGlobalIntEnable; /* Enable global interrupts. */
 311              		.loc 1 74 0
 312              	@ 74 ".\main.c" 1
 313 0002 62B6     		CPSIE   i
 314              	@ 0 "" 2
  75:.\main.c      ****     timer_Start();
 315              		.loc 1 75 0
 316              		.code	16
 317 0004 FFF7FEFF 		bl	timer_Start
 318              	.LVL12:
  76:.\main.c      ****     xbee_Start();
 319              		.loc 1 76 0
 320 0008 FFF7FEFF 		bl	xbee_Start
 321              	.LVL13:
  78:.\main.c      ****     isr_finish_StartEx(finishHandler);      //interrupt for button finish
 322              		.loc 1 78 0
 323 000c 0648     		ldr	r0, .L26
 324 000e FFF7FEFF 		bl	isr_finish_StartEx
 325              	.LVL14:
  79:.\main.c      ****     isr_timer_StartEx(timerHandler);        //interrupt for counter timer 
 326              		.loc 1 79 0
 327 0012 0648     		ldr	r0, .L26+4
 328 0014 FFF7FEFF 		bl	isr_timer_StartEx
 329              	.LVL15:
  80:.\main.c      ****     isr_xbee_StartEx(xbeeHandler);          //interrupt for input simbol from xbee
 330              		.loc 1 80 0
 331 0018 0548     		ldr	r0, .L26+8
 332 001a FFF7FEFF 		bl	isr_xbee_StartEx
 333              	.LVL16:
 334              	.L25:
  84:.\main.c      ****         show_time();        //output time
 335              		.loc 1 84 0 discriminator 1
 336 001e FFF7FEFF 		bl	show_time
 337              	.LVL17:
  85:.\main.c      ****         led_indication();   //blink led (period - 1s)
 338              		.loc 1 85 0 discriminator 1
 339 0022 FFF7FEFF 		bl	led_indication
 340              	.LVL18:
  87:.\main.c      ****     }
 341              		.loc 1 87 0 discriminator 1
 342 0026 FAE7     		b	.L25
 343              	.L27:
 344              		.align	2
 345              	.L26:
ARM GAS  C:\Users\Petro\AppData\Local\Temp\cc0Gnyfo.s 			page 9


 346 0028 00000000 		.word	finishHandler
 347 002c 00000000 		.word	timerHandler
 348 0030 00000000 		.word	xbeeHandler
 349              		.cfi_endproc
 350              	.LFE37:
 351              		.size	main, .-main
 352              		.comm	lastPressed,1,1
 353              		.global	skier
 354              		.global	runStopwach
 355              		.global	crossFin
 356              		.global	first
 357              		.section	.rodata.str1.4,"aMS",%progbits,1
 358              		.align	2
 359              	.LC5:
 360 0000 25693A25 		.ascii	"%i:%i:%i-%i\012\015\000"
 360      693A2569 
 360      2D25690A 
 360      0D00
 361 000e 0000     		.bss
 362              		.align	2
 363              		.set	.LANCHOR0,. + 0
 364              		.type	crossFin, %object
 365              		.size	crossFin, 1
 366              	crossFin:
 367 0000 00       		.space	1
 368 0001 000000   		.space	3
 369              		.type	skier, %object
 370              		.size	skier, 4
 371              	skier:
 372 0004 00000000 		.space	4
 373              		.type	runStopwach, %object
 374              		.size	runStopwach, 1
 375              	runStopwach:
 376 0008 00       		.space	1
 377 0009 000000   		.space	3
 378              		.type	first, %object
 379              		.size	first, 8
 380              	first:
 381 000c 00000000 		.space	8
 381      00000000 
 382              		.text
 383              	.Letext0:
 384              		.file 2 "c:\\program files (x86)\\cypress\\psoc creator\\3.3\\psoc creator\\import\\gnu\\arm\\4.9.
 385              		.file 3 "c:\\program files (x86)\\cypress\\psoc creator\\3.3\\psoc creator\\import\\gnu\\arm\\4.9.
 386              		.file 4 "Generated_Source\\PSoC4/cytypes.h"
 387              		.file 5 "Generated_Source\\PSoC4/led_green.h"
 388              		.file 6 "Generated_Source\\PSoC4/timer.h"
 389              		.file 7 "Generated_Source\\PSoC4/finish.h"
 390              		.file 8 "Generated_Source\\PSoC4/xbee.h"
 391              		.file 9 "Generated_Source\\PSoC4/CyLib.h"
 392              		.file 10 "Generated_Source\\PSoC4/isr_finish.h"
 393              		.file 11 "Generated_Source\\PSoC4/isr_timer.h"
 394              		.file 12 "c:\\program files (x86)\\cypress\\psoc creator\\3.3\\psoc creator\\import\\gnu\\arm\\4.9
 395              		.file 13 "Generated_Source\\PSoC4/isr_xbee.h"