ARM GAS  C:\Users\Petro\AppData\Local\Temp\ccbKo2Qz.s 			page 1


   1              		.cpu cortex-m0
   2              		.fpu softvfp
   3              		.eabi_attribute 20, 1
   4              		.eabi_attribute 21, 1
   5              		.eabi_attribute 23, 3
   6              		.eabi_attribute 24, 1
   7              		.eabi_attribute 25, 1
   8              		.eabi_attribute 26, 1
   9              		.eabi_attribute 30, 6
  10              		.eabi_attribute 34, 0
  11              		.eabi_attribute 18, 4
  12              		.code	16
  13              		.file	"cyfitter_cfg.c"
  14              		.text
  15              	.Ltext0:
  16              		.cfi_sections	.debug_frame
  17              		.section	.text.CYMEMZERO,"ax",%progbits
  18              		.align	2
  19              		.code	16
  20              		.thumb_func
  21              		.type	CYMEMZERO, %function
  22              	CYMEMZERO:
  23              	.LFB2:
  24              		.file 1 "Generated_Source\\PSoC4\\cyfitter_cfg.c"
   1:Generated_Source\PSoC4/cyfitter_cfg.c **** /*******************************************************************************
   2:Generated_Source\PSoC4/cyfitter_cfg.c **** * File Name: cyfitter_cfg.c
   3:Generated_Source\PSoC4/cyfitter_cfg.c **** * 
   4:Generated_Source\PSoC4/cyfitter_cfg.c **** * PSoC Creator  4.0
   5:Generated_Source\PSoC4/cyfitter_cfg.c **** *
   6:Generated_Source\PSoC4/cyfitter_cfg.c **** * Description:
   7:Generated_Source\PSoC4/cyfitter_cfg.c **** * This file contains device initialization code.
   8:Generated_Source\PSoC4/cyfitter_cfg.c **** * Except for the user defined sections in CyClockStartupError(), this file should not be modified.
   9:Generated_Source\PSoC4/cyfitter_cfg.c **** * This file is automatically generated by PSoC Creator.
  10:Generated_Source\PSoC4/cyfitter_cfg.c **** *
  11:Generated_Source\PSoC4/cyfitter_cfg.c **** ********************************************************************************
  12:Generated_Source\PSoC4/cyfitter_cfg.c **** * Copyright (c) 2007-2016 Cypress Semiconductor.  All rights reserved.
  13:Generated_Source\PSoC4/cyfitter_cfg.c **** * You may use this file only in accordance with the license, terms, conditions, 
  14:Generated_Source\PSoC4/cyfitter_cfg.c **** * disclaimers, and limitations in the end user license agreement accompanying 
  15:Generated_Source\PSoC4/cyfitter_cfg.c **** * the software package with which this file was provided.
  16:Generated_Source\PSoC4/cyfitter_cfg.c **** ********************************************************************************/
  17:Generated_Source\PSoC4/cyfitter_cfg.c **** 
  18:Generated_Source\PSoC4/cyfitter_cfg.c **** #include <string.h>
  19:Generated_Source\PSoC4/cyfitter_cfg.c **** #include "cytypes.h"
  20:Generated_Source\PSoC4/cyfitter_cfg.c **** #include "cydevice_trm.h"
  21:Generated_Source\PSoC4/cyfitter_cfg.c **** #include "cyfitter.h"
  22:Generated_Source\PSoC4/cyfitter_cfg.c **** #include "CyLib.h"
  23:Generated_Source\PSoC4/cyfitter_cfg.c **** #include "CyLFClk.h"
  24:Generated_Source\PSoC4/cyfitter_cfg.c **** #include "cyfitter_cfg.h"
  25:Generated_Source\PSoC4/cyfitter_cfg.c **** #include "cyapicallbacks.h"
  26:Generated_Source\PSoC4/cyfitter_cfg.c **** 
  27:Generated_Source\PSoC4/cyfitter_cfg.c **** 
  28:Generated_Source\PSoC4/cyfitter_cfg.c **** #if defined(__GNUC__) || defined(__ARMCC_VERSION)
  29:Generated_Source\PSoC4/cyfitter_cfg.c ****     #define CYPACKED 
  30:Generated_Source\PSoC4/cyfitter_cfg.c ****     #define CYPACKED_ATTR __attribute__ ((packed))
  31:Generated_Source\PSoC4/cyfitter_cfg.c ****     #define CYALIGNED __attribute__ ((aligned))
  32:Generated_Source\PSoC4/cyfitter_cfg.c ****     #define CY_CFG_UNUSED __attribute__ ((unused))
  33:Generated_Source\PSoC4/cyfitter_cfg.c ****     #ifndef CY_CFG_SECTION
ARM GAS  C:\Users\Petro\AppData\Local\Temp\ccbKo2Qz.s 			page 2


  34:Generated_Source\PSoC4/cyfitter_cfg.c ****         #define CY_CFG_SECTION __attribute__ ((section(".psocinit")))
  35:Generated_Source\PSoC4/cyfitter_cfg.c ****     #endif
  36:Generated_Source\PSoC4/cyfitter_cfg.c ****     
  37:Generated_Source\PSoC4/cyfitter_cfg.c ****     #if defined(__ARMCC_VERSION)
  38:Generated_Source\PSoC4/cyfitter_cfg.c ****         #define CY_CFG_MEMORY_BARRIER() __memory_changed()
  39:Generated_Source\PSoC4/cyfitter_cfg.c ****     #else
  40:Generated_Source\PSoC4/cyfitter_cfg.c ****         #define CY_CFG_MEMORY_BARRIER() __sync_synchronize()
  41:Generated_Source\PSoC4/cyfitter_cfg.c ****     #endif
  42:Generated_Source\PSoC4/cyfitter_cfg.c ****     
  43:Generated_Source\PSoC4/cyfitter_cfg.c **** #elif defined(__ICCARM__)
  44:Generated_Source\PSoC4/cyfitter_cfg.c ****     #include <intrinsics.h>
  45:Generated_Source\PSoC4/cyfitter_cfg.c **** 
  46:Generated_Source\PSoC4/cyfitter_cfg.c ****     #define CYPACKED __packed
  47:Generated_Source\PSoC4/cyfitter_cfg.c ****     #define CYPACKED_ATTR 
  48:Generated_Source\PSoC4/cyfitter_cfg.c ****     #define CYALIGNED _Pragma("data_alignment=4")
  49:Generated_Source\PSoC4/cyfitter_cfg.c ****     #define CY_CFG_UNUSED _Pragma("diag_suppress=Pe177")
  50:Generated_Source\PSoC4/cyfitter_cfg.c ****     #define CY_CFG_SECTION _Pragma("location=\".psocinit\"")
  51:Generated_Source\PSoC4/cyfitter_cfg.c ****     
  52:Generated_Source\PSoC4/cyfitter_cfg.c ****     #define CY_CFG_MEMORY_BARRIER() __DMB()
  53:Generated_Source\PSoC4/cyfitter_cfg.c ****     
  54:Generated_Source\PSoC4/cyfitter_cfg.c **** #else
  55:Generated_Source\PSoC4/cyfitter_cfg.c ****     #error Unsupported toolchain
  56:Generated_Source\PSoC4/cyfitter_cfg.c **** #endif
  57:Generated_Source\PSoC4/cyfitter_cfg.c **** 
  58:Generated_Source\PSoC4/cyfitter_cfg.c **** 
  59:Generated_Source\PSoC4/cyfitter_cfg.c **** CY_CFG_UNUSED
  60:Generated_Source\PSoC4/cyfitter_cfg.c **** static void CYMEMZERO(void *s, size_t n);
  61:Generated_Source\PSoC4/cyfitter_cfg.c **** CY_CFG_UNUSED
  62:Generated_Source\PSoC4/cyfitter_cfg.c **** static void CYMEMZERO(void *s, size_t n)
  63:Generated_Source\PSoC4/cyfitter_cfg.c **** {
  25              		.loc 1 63 0
  26              		.cfi_startproc
  27 0000 80B5     		push	{r7, lr}
  28              		.cfi_def_cfa_offset 8
  29              		.cfi_offset 7, -8
  30              		.cfi_offset 14, -4
  31 0002 82B0     		sub	sp, sp, #8
  32              		.cfi_def_cfa_offset 16
  33 0004 00AF     		add	r7, sp, #0
  34              		.cfi_def_cfa_register 7
  35 0006 7860     		str	r0, [r7, #4]
  36 0008 3960     		str	r1, [r7]
  64:Generated_Source\PSoC4/cyfitter_cfg.c **** 	(void)memset(s, 0, n);
  37              		.loc 1 64 0
  38 000a 7A68     		ldr	r2, [r7, #4]
  39 000c 3B68     		ldr	r3, [r7]
  40 000e 101C     		mov	r0, r2
  41 0010 0021     		mov	r1, #0
  42 0012 1A1C     		mov	r2, r3
  43 0014 FFF7FEFF 		bl	memset
  65:Generated_Source\PSoC4/cyfitter_cfg.c **** }
  44              		.loc 1 65 0
  45 0018 BD46     		mov	sp, r7
  46 001a 02B0     		add	sp, sp, #8
  47              		@ sp needed
  48 001c 80BD     		pop	{r7, pc}
  49              		.cfi_endproc
ARM GAS  C:\Users\Petro\AppData\Local\Temp\ccbKo2Qz.s 			page 3


  50              	.LFE2:
  51              		.size	CYMEMZERO, .-CYMEMZERO
  52 001e C046     		.section	.text.CYCONFIGCPY,"ax",%progbits
  53              		.align	2
  54              		.code	16
  55              		.thumb_func
  56              		.type	CYCONFIGCPY, %function
  57              	CYCONFIGCPY:
  58              	.LFB3:
  66:Generated_Source\PSoC4/cyfitter_cfg.c **** CY_CFG_UNUSED
  67:Generated_Source\PSoC4/cyfitter_cfg.c **** static void CYCONFIGCPY(void *dest, const void *src, size_t n);
  68:Generated_Source\PSoC4/cyfitter_cfg.c **** CY_CFG_UNUSED
  69:Generated_Source\PSoC4/cyfitter_cfg.c **** static void CYCONFIGCPY(void *dest, const void *src, size_t n)
  70:Generated_Source\PSoC4/cyfitter_cfg.c **** {
  59              		.loc 1 70 0
  60              		.cfi_startproc
  61 0000 80B5     		push	{r7, lr}
  62              		.cfi_def_cfa_offset 8
  63              		.cfi_offset 7, -8
  64              		.cfi_offset 14, -4
  65 0002 84B0     		sub	sp, sp, #16
  66              		.cfi_def_cfa_offset 24
  67 0004 00AF     		add	r7, sp, #0
  68              		.cfi_def_cfa_register 7
  69 0006 F860     		str	r0, [r7, #12]
  70 0008 B960     		str	r1, [r7, #8]
  71 000a 7A60     		str	r2, [r7, #4]
  71:Generated_Source\PSoC4/cyfitter_cfg.c **** 	(void)memcpy(dest, src, n);
  72              		.loc 1 71 0
  73 000c F968     		ldr	r1, [r7, #12]
  74 000e BA68     		ldr	r2, [r7, #8]
  75 0010 7B68     		ldr	r3, [r7, #4]
  76 0012 081C     		mov	r0, r1
  77 0014 111C     		mov	r1, r2
  78 0016 1A1C     		mov	r2, r3
  79 0018 FFF7FEFF 		bl	memcpy
  72:Generated_Source\PSoC4/cyfitter_cfg.c **** }
  80              		.loc 1 72 0
  81 001c BD46     		mov	sp, r7
  82 001e 04B0     		add	sp, sp, #16
  83              		@ sp needed
  84 0020 80BD     		pop	{r7, pc}
  85              		.cfi_endproc
  86              	.LFE3:
  87              		.size	CYCONFIGCPY, .-CYCONFIGCPY
  88 0022 C046     		.section	.text.CYCONFIGCPYCODE,"ax",%progbits
  89              		.align	2
  90              		.code	16
  91              		.thumb_func
  92              		.type	CYCONFIGCPYCODE, %function
  93              	CYCONFIGCPYCODE:
  94              	.LFB4:
  73:Generated_Source\PSoC4/cyfitter_cfg.c **** CY_CFG_UNUSED
  74:Generated_Source\PSoC4/cyfitter_cfg.c **** static void CYCONFIGCPYCODE(void *dest, const void *src, size_t n);
  75:Generated_Source\PSoC4/cyfitter_cfg.c **** CY_CFG_UNUSED
  76:Generated_Source\PSoC4/cyfitter_cfg.c **** static void CYCONFIGCPYCODE(void *dest, const void *src, size_t n)
  77:Generated_Source\PSoC4/cyfitter_cfg.c **** {
ARM GAS  C:\Users\Petro\AppData\Local\Temp\ccbKo2Qz.s 			page 4


  95              		.loc 1 77 0
  96              		.cfi_startproc
  97 0000 80B5     		push	{r7, lr}
  98              		.cfi_def_cfa_offset 8
  99              		.cfi_offset 7, -8
 100              		.cfi_offset 14, -4
 101 0002 84B0     		sub	sp, sp, #16
 102              		.cfi_def_cfa_offset 24
 103 0004 00AF     		add	r7, sp, #0
 104              		.cfi_def_cfa_register 7
 105 0006 F860     		str	r0, [r7, #12]
 106 0008 B960     		str	r1, [r7, #8]
 107 000a 7A60     		str	r2, [r7, #4]
  78:Generated_Source\PSoC4/cyfitter_cfg.c **** 	(void)memcpy(dest, src, n);
 108              		.loc 1 78 0
 109 000c F968     		ldr	r1, [r7, #12]
 110 000e BA68     		ldr	r2, [r7, #8]
 111 0010 7B68     		ldr	r3, [r7, #4]
 112 0012 081C     		mov	r0, r1
 113 0014 111C     		mov	r1, r2
 114 0016 1A1C     		mov	r2, r3
 115 0018 FFF7FEFF 		bl	memcpy
  79:Generated_Source\PSoC4/cyfitter_cfg.c **** }
 116              		.loc 1 79 0
 117 001c BD46     		mov	sp, r7
 118 001e 04B0     		add	sp, sp, #16
 119              		@ sp needed
 120 0020 80BD     		pop	{r7, pc}
 121              		.cfi_endproc
 122              	.LFE4:
 123              		.size	CYCONFIGCPYCODE, .-CYCONFIGCPYCODE
 124 0022 C046     		.section	.text.cfg_write_bytes32,"ax",%progbits
 125              		.align	2
 126              		.code	16
 127              		.thumb_func
 128              		.type	cfg_write_bytes32, %function
 129              	cfg_write_bytes32:
 130              	.LFB5:
  80:Generated_Source\PSoC4/cyfitter_cfg.c **** 
  81:Generated_Source\PSoC4/cyfitter_cfg.c **** 
  82:Generated_Source\PSoC4/cyfitter_cfg.c **** 
  83:Generated_Source\PSoC4/cyfitter_cfg.c **** 
  84:Generated_Source\PSoC4/cyfitter_cfg.c **** /* Clock startup error codes                                                   */
  85:Generated_Source\PSoC4/cyfitter_cfg.c **** #define CYCLOCKSTART_NO_ERROR    0u
  86:Generated_Source\PSoC4/cyfitter_cfg.c **** #define CYCLOCKSTART_XTAL_ERROR  1u
  87:Generated_Source\PSoC4/cyfitter_cfg.c **** #define CYCLOCKSTART_32KHZ_ERROR 2u
  88:Generated_Source\PSoC4/cyfitter_cfg.c **** #define CYCLOCKSTART_PLL_ERROR   3u
  89:Generated_Source\PSoC4/cyfitter_cfg.c **** 
  90:Generated_Source\PSoC4/cyfitter_cfg.c **** 
  91:Generated_Source\PSoC4/cyfitter_cfg.c **** #ifdef CY_NEED_CYCLOCKSTARTUPERROR
  92:Generated_Source\PSoC4/cyfitter_cfg.c **** /*******************************************************************************
  93:Generated_Source\PSoC4/cyfitter_cfg.c **** * Function Name: CyClockStartupError
  94:Generated_Source\PSoC4/cyfitter_cfg.c **** ********************************************************************************
  95:Generated_Source\PSoC4/cyfitter_cfg.c **** * Summary:
  96:Generated_Source\PSoC4/cyfitter_cfg.c **** *  If an error is encountered during clock configuration (crystal startup error,
  97:Generated_Source\PSoC4/cyfitter_cfg.c **** *  PLL lock error, etc.), the system will end up here.  Unless reimplemented by
  98:Generated_Source\PSoC4/cyfitter_cfg.c **** *  the customer, this function will stop in an infinite loop.
ARM GAS  C:\Users\Petro\AppData\Local\Temp\ccbKo2Qz.s 			page 5


  99:Generated_Source\PSoC4/cyfitter_cfg.c **** *
 100:Generated_Source\PSoC4/cyfitter_cfg.c **** * Parameters:
 101:Generated_Source\PSoC4/cyfitter_cfg.c **** *   void
 102:Generated_Source\PSoC4/cyfitter_cfg.c **** *
 103:Generated_Source\PSoC4/cyfitter_cfg.c **** * Return:
 104:Generated_Source\PSoC4/cyfitter_cfg.c **** *   void
 105:Generated_Source\PSoC4/cyfitter_cfg.c **** *
 106:Generated_Source\PSoC4/cyfitter_cfg.c **** *******************************************************************************/
 107:Generated_Source\PSoC4/cyfitter_cfg.c **** CY_CFG_UNUSED
 108:Generated_Source\PSoC4/cyfitter_cfg.c **** static void CyClockStartupError(uint8 errorCode);
 109:Generated_Source\PSoC4/cyfitter_cfg.c **** CY_CFG_UNUSED
 110:Generated_Source\PSoC4/cyfitter_cfg.c **** static void CyClockStartupError(uint8 errorCode)
 111:Generated_Source\PSoC4/cyfitter_cfg.c **** {
 112:Generated_Source\PSoC4/cyfitter_cfg.c ****     /* To remove the compiler warning if errorCode not used.                */
 113:Generated_Source\PSoC4/cyfitter_cfg.c ****     errorCode = errorCode;
 114:Generated_Source\PSoC4/cyfitter_cfg.c **** 
 115:Generated_Source\PSoC4/cyfitter_cfg.c ****     /* If we have a clock startup error (bad MHz crystal, PLL lock, etc.),  */
 116:Generated_Source\PSoC4/cyfitter_cfg.c ****     /* we will end up here to allow the customer to implement something to  */
 117:Generated_Source\PSoC4/cyfitter_cfg.c ****     /* deal with the clock condition.                                       */
 118:Generated_Source\PSoC4/cyfitter_cfg.c **** 
 119:Generated_Source\PSoC4/cyfitter_cfg.c **** #ifdef CY_CFG_CLOCK_STARTUP_ERROR_CALLBACK
 120:Generated_Source\PSoC4/cyfitter_cfg.c **** 	CY_CFG_Clock_Startup_ErrorCallback();
 121:Generated_Source\PSoC4/cyfitter_cfg.c **** #else
 122:Generated_Source\PSoC4/cyfitter_cfg.c **** 	/*  If not using CY_CFG_CLOCK_STARTUP_ERROR_CALLBACK, place your clock startup code here. */
 123:Generated_Source\PSoC4/cyfitter_cfg.c ****     /* `#START CyClockStartupError` */
 124:Generated_Source\PSoC4/cyfitter_cfg.c **** 
 125:Generated_Source\PSoC4/cyfitter_cfg.c ****     /* If we have a clock startup error (bad MHz crystal, PLL lock, etc.),  */
 126:Generated_Source\PSoC4/cyfitter_cfg.c ****     /* we will end up here to allow the customer to implement something to  */
 127:Generated_Source\PSoC4/cyfitter_cfg.c ****     /* deal with the clock condition.                                       */
 128:Generated_Source\PSoC4/cyfitter_cfg.c **** 
 129:Generated_Source\PSoC4/cyfitter_cfg.c ****     /* `#END` */
 130:Generated_Source\PSoC4/cyfitter_cfg.c **** 
 131:Generated_Source\PSoC4/cyfitter_cfg.c ****     /* If nothing else, stop here since the clocks have not started         */
 132:Generated_Source\PSoC4/cyfitter_cfg.c ****     /* correctly.                                                           */
 133:Generated_Source\PSoC4/cyfitter_cfg.c ****     while(1) {}
 134:Generated_Source\PSoC4/cyfitter_cfg.c **** #endif /* CY_CFG_CLOCK_STARTUP_ERROR_CALLBACK */ 
 135:Generated_Source\PSoC4/cyfitter_cfg.c **** }
 136:Generated_Source\PSoC4/cyfitter_cfg.c **** #endif
 137:Generated_Source\PSoC4/cyfitter_cfg.c **** 
 138:Generated_Source\PSoC4/cyfitter_cfg.c **** #define CY_CFG_BASE_ADDR_COUNT 10u
 139:Generated_Source\PSoC4/cyfitter_cfg.c **** CYPACKED typedef struct
 140:Generated_Source\PSoC4/cyfitter_cfg.c **** {
 141:Generated_Source\PSoC4/cyfitter_cfg.c **** 	uint8 offset;
 142:Generated_Source\PSoC4/cyfitter_cfg.c **** 	uint8 value;
 143:Generated_Source\PSoC4/cyfitter_cfg.c **** } CYPACKED_ATTR cy_cfg_addrvalue_t;
 144:Generated_Source\PSoC4/cyfitter_cfg.c **** 
 145:Generated_Source\PSoC4/cyfitter_cfg.c **** 
 146:Generated_Source\PSoC4/cyfitter_cfg.c **** 
 147:Generated_Source\PSoC4/cyfitter_cfg.c **** /*******************************************************************************
 148:Generated_Source\PSoC4/cyfitter_cfg.c **** * Function Name: cfg_write_bytes32
 149:Generated_Source\PSoC4/cyfitter_cfg.c **** ********************************************************************************
 150:Generated_Source\PSoC4/cyfitter_cfg.c **** * Summary:
 151:Generated_Source\PSoC4/cyfitter_cfg.c **** *  This function is used for setting up the chip configuration areas that
 152:Generated_Source\PSoC4/cyfitter_cfg.c **** *  contain relatively sparse data.
 153:Generated_Source\PSoC4/cyfitter_cfg.c **** *
 154:Generated_Source\PSoC4/cyfitter_cfg.c **** * Parameters:
 155:Generated_Source\PSoC4/cyfitter_cfg.c **** *   void
ARM GAS  C:\Users\Petro\AppData\Local\Temp\ccbKo2Qz.s 			page 6


 156:Generated_Source\PSoC4/cyfitter_cfg.c **** *
 157:Generated_Source\PSoC4/cyfitter_cfg.c **** * Return:
 158:Generated_Source\PSoC4/cyfitter_cfg.c **** *   void
 159:Generated_Source\PSoC4/cyfitter_cfg.c **** *
 160:Generated_Source\PSoC4/cyfitter_cfg.c **** *******************************************************************************/
 161:Generated_Source\PSoC4/cyfitter_cfg.c **** static void cfg_write_bytes32(const uint32 addr_table[], const cy_cfg_addrvalue_t data_table[]);
 162:Generated_Source\PSoC4/cyfitter_cfg.c **** static void cfg_write_bytes32(const uint32 addr_table[], const cy_cfg_addrvalue_t data_table[])
 163:Generated_Source\PSoC4/cyfitter_cfg.c **** {
 131              		.loc 1 163 0
 132              		.cfi_startproc
 133 0000 80B5     		push	{r7, lr}
 134              		.cfi_def_cfa_offset 8
 135              		.cfi_offset 7, -8
 136              		.cfi_offset 14, -4
 137 0002 86B0     		sub	sp, sp, #24
 138              		.cfi_def_cfa_offset 32
 139 0004 00AF     		add	r7, sp, #0
 140              		.cfi_def_cfa_register 7
 141 0006 7860     		str	r0, [r7, #4]
 142 0008 3960     		str	r1, [r7]
 164:Generated_Source\PSoC4/cyfitter_cfg.c **** 	/* For 32-bit little-endian architectures */
 165:Generated_Source\PSoC4/cyfitter_cfg.c **** 	uint32 i, j = 0u;
 143              		.loc 1 165 0
 144 000a 0023     		mov	r3, #0
 145 000c 3B61     		str	r3, [r7, #16]
 166:Generated_Source\PSoC4/cyfitter_cfg.c **** 	for (i = 0u; i < CY_CFG_BASE_ADDR_COUNT; i++)
 146              		.loc 1 166 0
 147 000e 0023     		mov	r3, #0
 148 0010 7B61     		str	r3, [r7, #20]
 149 0012 2FE0     		b	.L5
 150              	.L8:
 151              	.LBB2:
 167:Generated_Source\PSoC4/cyfitter_cfg.c **** 	{
 168:Generated_Source\PSoC4/cyfitter_cfg.c **** 		uint32 baseAddr = addr_table[i];
 152              		.loc 1 168 0
 153 0014 7B69     		ldr	r3, [r7, #20]
 154 0016 9B00     		lsl	r3, r3, #2
 155 0018 7A68     		ldr	r2, [r7, #4]
 156 001a D318     		add	r3, r2, r3
 157 001c 1B68     		ldr	r3, [r3]
 158 001e BB60     		str	r3, [r7, #8]
 169:Generated_Source\PSoC4/cyfitter_cfg.c **** 		uint8 count = (uint8)baseAddr;
 159              		.loc 1 169 0
 160 0020 0F23     		mov	r3, #15
 161 0022 FB18     		add	r3, r7, r3
 162 0024 BA68     		ldr	r2, [r7, #8]
 163 0026 1A70     		strb	r2, [r3]
 170:Generated_Source\PSoC4/cyfitter_cfg.c **** 		baseAddr &= 0xFFFFFF00u;
 164              		.loc 1 170 0
 165 0028 BB68     		ldr	r3, [r7, #8]
 166 002a FF22     		mov	r2, #255
 167 002c 9343     		bic	r3, r2
 168 002e BB60     		str	r3, [r7, #8]
 171:Generated_Source\PSoC4/cyfitter_cfg.c **** 		while (count != 0u)
 169              		.loc 1 171 0
 170 0030 18E0     		b	.L6
 171              	.L7:
ARM GAS  C:\Users\Petro\AppData\Local\Temp\ccbKo2Qz.s 			page 7


 172:Generated_Source\PSoC4/cyfitter_cfg.c **** 		{
 173:Generated_Source\PSoC4/cyfitter_cfg.c **** 			CY_SET_XTND_REG8((void CYFAR *)(baseAddr + data_table[j].offset), data_table[j].value);
 172              		.loc 1 173 0
 173 0032 3B69     		ldr	r3, [r7, #16]
 174 0034 5B00     		lsl	r3, r3, #1
 175 0036 3A68     		ldr	r2, [r7]
 176 0038 D318     		add	r3, r2, r3
 177 003a 1B78     		ldrb	r3, [r3]
 178 003c 1A1C     		mov	r2, r3
 179 003e BB68     		ldr	r3, [r7, #8]
 180 0040 D318     		add	r3, r2, r3
 181 0042 191C     		mov	r1, r3
 182 0044 3B69     		ldr	r3, [r7, #16]
 183 0046 5B00     		lsl	r3, r3, #1
 184 0048 3A68     		ldr	r2, [r7]
 185 004a D318     		add	r3, r2, r3
 186 004c 5B78     		ldrb	r3, [r3, #1]
 187 004e 0B70     		strb	r3, [r1]
 174:Generated_Source\PSoC4/cyfitter_cfg.c **** 			j++;
 188              		.loc 1 174 0
 189 0050 3B69     		ldr	r3, [r7, #16]
 190 0052 0133     		add	r3, r3, #1
 191 0054 3B61     		str	r3, [r7, #16]
 175:Generated_Source\PSoC4/cyfitter_cfg.c **** 			count--;
 192              		.loc 1 175 0
 193 0056 0F23     		mov	r3, #15
 194 0058 FB18     		add	r3, r7, r3
 195 005a 1A78     		ldrb	r2, [r3]
 196 005c 0F23     		mov	r3, #15
 197 005e FB18     		add	r3, r7, r3
 198 0060 013A     		sub	r2, r2, #1
 199 0062 1A70     		strb	r2, [r3]
 200              	.L6:
 171:Generated_Source\PSoC4/cyfitter_cfg.c **** 		{
 201              		.loc 1 171 0
 202 0064 0F23     		mov	r3, #15
 203 0066 FB18     		add	r3, r7, r3
 204 0068 1B78     		ldrb	r3, [r3]
 205 006a 002B     		cmp	r3, #0
 206 006c E1D1     		bne	.L7
 207              	.LBE2:
 166:Generated_Source\PSoC4/cyfitter_cfg.c **** 	{
 208              		.loc 1 166 0 discriminator 2
 209 006e 7B69     		ldr	r3, [r7, #20]
 210 0070 0133     		add	r3, r3, #1
 211 0072 7B61     		str	r3, [r7, #20]
 212              	.L5:
 166:Generated_Source\PSoC4/cyfitter_cfg.c **** 	{
 213              		.loc 1 166 0 is_stmt 0 discriminator 1
 214 0074 7B69     		ldr	r3, [r7, #20]
 215 0076 092B     		cmp	r3, #9
 216 0078 CCD9     		bls	.L8
 176:Generated_Source\PSoC4/cyfitter_cfg.c **** 		}
 177:Generated_Source\PSoC4/cyfitter_cfg.c **** 	}
 178:Generated_Source\PSoC4/cyfitter_cfg.c **** }
 217              		.loc 1 178 0 is_stmt 1
 218 007a BD46     		mov	sp, r7
ARM GAS  C:\Users\Petro\AppData\Local\Temp\ccbKo2Qz.s 			page 8


 219 007c 06B0     		add	sp, sp, #24
 220              		@ sp needed
 221 007e 80BD     		pop	{r7, pc}
 222              		.cfi_endproc
 223              	.LFE5:
 224              		.size	cfg_write_bytes32, .-cfg_write_bytes32
 225              		.section	.psocinit,"ax",%progbits
 226              		.align	2
 227              		.code	16
 228              		.thumb_func
 229              		.type	ClockSetup, %function
 230              	ClockSetup:
 231              	.LFB6:
 179:Generated_Source\PSoC4/cyfitter_cfg.c **** 
 180:Generated_Source\PSoC4/cyfitter_cfg.c **** 
 181:Generated_Source\PSoC4/cyfitter_cfg.c **** /*******************************************************************************
 182:Generated_Source\PSoC4/cyfitter_cfg.c **** * Function Name: ClockSetup
 183:Generated_Source\PSoC4/cyfitter_cfg.c **** ********************************************************************************
 184:Generated_Source\PSoC4/cyfitter_cfg.c **** *
 185:Generated_Source\PSoC4/cyfitter_cfg.c **** * Summary:
 186:Generated_Source\PSoC4/cyfitter_cfg.c **** *   Performs the initialization of all of the clocks in the device based on the
 187:Generated_Source\PSoC4/cyfitter_cfg.c **** *   settings in the Clock tab of the DWR.  This includes enabling the requested
 188:Generated_Source\PSoC4/cyfitter_cfg.c **** *   clocks and setting the necessary dividers to produce the desired frequency. 
 189:Generated_Source\PSoC4/cyfitter_cfg.c **** *
 190:Generated_Source\PSoC4/cyfitter_cfg.c **** * Parameters:
 191:Generated_Source\PSoC4/cyfitter_cfg.c **** *   void
 192:Generated_Source\PSoC4/cyfitter_cfg.c **** *
 193:Generated_Source\PSoC4/cyfitter_cfg.c **** * Return:
 194:Generated_Source\PSoC4/cyfitter_cfg.c **** *   void
 195:Generated_Source\PSoC4/cyfitter_cfg.c **** *
 196:Generated_Source\PSoC4/cyfitter_cfg.c **** *******************************************************************************/
 197:Generated_Source\PSoC4/cyfitter_cfg.c **** static void ClockSetup(void);
 198:Generated_Source\PSoC4/cyfitter_cfg.c **** CY_CFG_SECTION
 199:Generated_Source\PSoC4/cyfitter_cfg.c **** static void ClockSetup(void)
 200:Generated_Source\PSoC4/cyfitter_cfg.c **** {
 232              		.loc 1 200 0
 233              		.cfi_startproc
 234 0000 80B5     		push	{r7, lr}
 235              		.cfi_def_cfa_offset 8
 236              		.cfi_offset 7, -8
 237              		.cfi_offset 14, -4
 238 0002 00AF     		add	r7, sp, #0
 239              		.cfi_def_cfa_register 7
 201:Generated_Source\PSoC4/cyfitter_cfg.c **** 
 202:Generated_Source\PSoC4/cyfitter_cfg.c **** 	/* Set Flash Cycles based on max possible frequency in case a glitch occurs during ClockSetup(). *
 203:Generated_Source\PSoC4/cyfitter_cfg.c **** 	CY_SET_REG32((void CYXDATA *)(CYREG_CPUSS_FLASH_CTL), (0x0012u));
 240              		.loc 1 203 0
 241 0004 404B     		ldr	r3, .L11
 242 0006 1222     		mov	r2, #18
 243 0008 1A60     		str	r2, [r3]
 204:Generated_Source\PSoC4/cyfitter_cfg.c **** 
 205:Generated_Source\PSoC4/cyfitter_cfg.c **** 	/* Start the WCO */
 206:Generated_Source\PSoC4/cyfitter_cfg.c **** 	CySysClkWcoStart();
 244              		.loc 1 206 0
 245 000a FFF7FEFF 		bl	CySysClkWcoStart
 207:Generated_Source\PSoC4/cyfitter_cfg.c **** 	CyDelayCycles(12000000u); /* WCO may take up to 500ms to start */
 246              		.loc 1 207 0
ARM GAS  C:\Users\Petro\AppData\Local\Temp\ccbKo2Qz.s 			page 9


 247 000e 3F4B     		ldr	r3, .L11+4
 248 0010 181C     		mov	r0, r3
 249 0012 FFF7FEFF 		bl	CyDelayCycles
 208:Generated_Source\PSoC4/cyfitter_cfg.c **** 	(void)CySysClkWcoSetPowerMode(CY_SYS_CLK_WCO_LPM);    /* Switch to the low power mode */
 250              		.loc 1 208 0
 251 0016 0120     		mov	r0, #1
 252 0018 FFF7FEFF 		bl	CySysClkWcoSetPowerMode
 209:Generated_Source\PSoC4/cyfitter_cfg.c **** 
 210:Generated_Source\PSoC4/cyfitter_cfg.c **** 	/* Setup and trim IMO based on desired frequency. */
 211:Generated_Source\PSoC4/cyfitter_cfg.c **** 	CySysClkWriteImoFreq(48u);
 253              		.loc 1 211 0
 254 001c 3020     		mov	r0, #48
 255 001e FFF7FEFF 		bl	CySysClkWriteImoFreq
 212:Generated_Source\PSoC4/cyfitter_cfg.c **** 	/* CYDEV_WDT_CONFIG Starting address: CYDEV_WDT_CONFIG */
 213:Generated_Source\PSoC4/cyfitter_cfg.c **** 	CY_SET_XTND_REG32((void CYFAR *)(CYREG_WDT_CONFIG), 0x40000000u);
 256              		.loc 1 213 0
 257 0022 3B4B     		ldr	r3, .L11+8
 258 0024 8022     		mov	r2, #128
 259 0026 D205     		lsl	r2, r2, #23
 260 0028 1A60     		str	r2, [r3]
 214:Generated_Source\PSoC4/cyfitter_cfg.c **** 
 215:Generated_Source\PSoC4/cyfitter_cfg.c **** 
 216:Generated_Source\PSoC4/cyfitter_cfg.c **** 	/* Enable fast start mode for XO */
 217:Generated_Source\PSoC4/cyfitter_cfg.c **** 	CY_SET_REG32((void*)CYREG_BLE_BLERD_BB_XO, CY_GET_REG32((void*)CYREG_BLE_BLERD_BB_XO) | (uint32)0x
 261              		.loc 1 217 0
 262 002a 3A4B     		ldr	r3, .L11+12
 263 002c 394A     		ldr	r2, .L11+12
 264 002e 1268     		ldr	r2, [r2]
 265 0030 0221     		mov	r1, #2
 266 0032 0A43     		orr	r2, r1
 267 0034 1A60     		str	r2, [r3]
 218:Generated_Source\PSoC4/cyfitter_cfg.c **** 	CY_SET_XTND_REG32((void CYFAR *)(CYREG_BLE_BLERD_BB_XO_CAPTRIM), 0x00003E2Du);
 268              		.loc 1 218 0
 269 0036 384B     		ldr	r3, .L11+16
 270 0038 384A     		ldr	r2, .L11+20
 271 003a 1A60     		str	r2, [r3]
 219:Generated_Source\PSoC4/cyfitter_cfg.c **** 	/*Set XTAL(ECO) divider*/
 220:Generated_Source\PSoC4/cyfitter_cfg.c **** 	CY_SET_XTND_REG32((void CYFAR *)(CYREG_BLE_BLESS_XTAL_CLK_DIV_CONFIG), 0x00000000u);
 272              		.loc 1 220 0
 273 003c 384B     		ldr	r3, .L11+24
 274 003e 0022     		mov	r2, #0
 275 0040 1A60     		str	r2, [r3]
 221:Generated_Source\PSoC4/cyfitter_cfg.c **** 	/* Disable Crystal Stable Interrupt before enabling ECO */
 222:Generated_Source\PSoC4/cyfitter_cfg.c **** 	CY_SET_REG32((void*)CYREG_BLE_BLESS_LL_DSM_CTRL, CY_GET_REG32((void*)CYREG_BLE_BLESS_LL_DSM_CTRL) 
 276              		.loc 1 222 0
 277 0042 384B     		ldr	r3, .L11+28
 278 0044 374A     		ldr	r2, .L11+28
 279 0046 1268     		ldr	r2, [r2]
 280 0048 0821     		mov	r1, #8
 281 004a 8A43     		bic	r2, r1
 282 004c 1A60     		str	r2, [r3]
 223:Generated_Source\PSoC4/cyfitter_cfg.c **** 	/* Start the ECO and do not check status since it is not needed for HFCLK */
 224:Generated_Source\PSoC4/cyfitter_cfg.c **** 	(void)CySysClkEcoStart(2000u);
 283              		.loc 1 224 0
 284 004e FA23     		mov	r3, #250
 285 0050 DB00     		lsl	r3, r3, #3
 286 0052 181C     		mov	r0, r3
ARM GAS  C:\Users\Petro\AppData\Local\Temp\ccbKo2Qz.s 			page 10


 287 0054 FFF7FEFF 		bl	CySysClkEcoStart
 225:Generated_Source\PSoC4/cyfitter_cfg.c **** 	CyDelayUs(1500u); /* Wait to stabalize */
 288              		.loc 1 225 0
 289 0058 334B     		ldr	r3, .L11+32
 290 005a 181C     		mov	r0, r3
 291 005c FFF7FEFF 		bl	CyDelayUs
 226:Generated_Source\PSoC4/cyfitter_cfg.c **** 
 227:Generated_Source\PSoC4/cyfitter_cfg.c **** 	/* Setup phase aligned clocks */
 228:Generated_Source\PSoC4/cyfitter_cfg.c **** 	CY_SET_REG32((void *)CYREG_PERI_DIV_16_CTL0, 0x00000300u);
 292              		.loc 1 228 0
 293 0060 324B     		ldr	r3, .L11+36
 294 0062 C022     		mov	r2, #192
 295 0064 9200     		lsl	r2, r2, #2
 296 0066 1A60     		str	r2, [r3]
 229:Generated_Source\PSoC4/cyfitter_cfg.c **** 	CY_SET_REG32((void *)CYREG_PERI_DIV_CMD, 0x8000FF40u);
 297              		.loc 1 229 0
 298 0068 314B     		ldr	r3, .L11+40
 299 006a 324A     		ldr	r2, .L11+44
 300 006c 1A60     		str	r2, [r3]
 230:Generated_Source\PSoC4/cyfitter_cfg.c **** 	CY_SET_REG32((void *)CYREG_PERI_DIV_16_CTL3, 0x00BB7F00u);
 301              		.loc 1 230 0
 302 006e 324B     		ldr	r3, .L11+48
 303 0070 324A     		ldr	r2, .L11+52
 304 0072 1A60     		str	r2, [r3]
 231:Generated_Source\PSoC4/cyfitter_cfg.c **** 	CY_SET_REG32((void *)CYREG_PERI_DIV_CMD, 0x8000FF43u);
 305              		.loc 1 231 0
 306 0074 2E4B     		ldr	r3, .L11+40
 307 0076 324A     		ldr	r2, .L11+56
 308 0078 1A60     		str	r2, [r3]
 232:Generated_Source\PSoC4/cyfitter_cfg.c **** 	CY_SET_REG32((void *)CYREG_PERI_DIV_16_CTL4, 0x00BB7F00u);
 309              		.loc 1 232 0
 310 007a 324B     		ldr	r3, .L11+60
 311 007c 2F4A     		ldr	r2, .L11+52
 312 007e 1A60     		str	r2, [r3]
 233:Generated_Source\PSoC4/cyfitter_cfg.c **** 	CY_SET_REG32((void *)CYREG_PERI_DIV_CMD, 0x8000FF44u);
 313              		.loc 1 233 0
 314 0080 2B4B     		ldr	r3, .L11+40
 315 0082 314A     		ldr	r2, .L11+64
 316 0084 1A60     		str	r2, [r3]
 234:Generated_Source\PSoC4/cyfitter_cfg.c **** 	CY_SET_REG32((void *)CYREG_PERI_DIV_16_CTL1, 0x00000F00u);
 317              		.loc 1 234 0
 318 0086 314B     		ldr	r3, .L11+68
 319 0088 F022     		mov	r2, #240
 320 008a 1201     		lsl	r2, r2, #4
 321 008c 1A60     		str	r2, [r3]
 235:Generated_Source\PSoC4/cyfitter_cfg.c **** 	CY_SET_REG32((void *)CYREG_PERI_DIV_CMD, 0x8000FF41u);
 322              		.loc 1 235 0
 323 008e 284B     		ldr	r3, .L11+40
 324 0090 2F4A     		ldr	r2, .L11+72
 325 0092 1A60     		str	r2, [r3]
 236:Generated_Source\PSoC4/cyfitter_cfg.c **** 	CY_SET_REG32((void *)CYREG_PERI_DIV_16_CTL2, 0x0001A000u);
 326              		.loc 1 236 0
 327 0094 2F4B     		ldr	r3, .L11+76
 328 0096 D022     		mov	r2, #208
 329 0098 5202     		lsl	r2, r2, #9
 330 009a 1A60     		str	r2, [r3]
 237:Generated_Source\PSoC4/cyfitter_cfg.c **** 	CY_SET_REG32((void *)CYREG_PERI_DIV_CMD, 0x8000FF42u);
ARM GAS  C:\Users\Petro\AppData\Local\Temp\ccbKo2Qz.s 			page 11


 331              		.loc 1 237 0
 332 009c 244B     		ldr	r3, .L11+40
 333 009e 2E4A     		ldr	r2, .L11+80
 334 00a0 1A60     		str	r2, [r3]
 238:Generated_Source\PSoC4/cyfitter_cfg.c **** 
 239:Generated_Source\PSoC4/cyfitter_cfg.c **** 	/* CYDEV_CLK_IMO_CONFIG Starting address: CYDEV_CLK_IMO_CONFIG */
 240:Generated_Source\PSoC4/cyfitter_cfg.c **** 	CY_SET_XTND_REG32((void CYFAR *)(CYREG_CLK_IMO_CONFIG), 0x82000000u);
 335              		.loc 1 240 0
 336 00a2 2E4B     		ldr	r3, .L11+84
 337 00a4 8222     		mov	r2, #130
 338 00a6 1206     		lsl	r2, r2, #24
 339 00a8 1A60     		str	r2, [r3]
 241:Generated_Source\PSoC4/cyfitter_cfg.c **** 
 242:Generated_Source\PSoC4/cyfitter_cfg.c **** 	/* CYDEV_CLK_SELECT Starting address: CYDEV_CLK_SELECT */
 243:Generated_Source\PSoC4/cyfitter_cfg.c **** 	CY_SET_XTND_REG32((void CYFAR *)(CYREG_CLK_SELECT), 0x00040000u);
 340              		.loc 1 243 0
 341 00aa 2D4B     		ldr	r3, .L11+88
 342 00ac 8022     		mov	r2, #128
 343 00ae D202     		lsl	r2, r2, #11
 344 00b0 1A60     		str	r2, [r3]
 244:Generated_Source\PSoC4/cyfitter_cfg.c **** 
 245:Generated_Source\PSoC4/cyfitter_cfg.c **** 	/* CYDEV_PERI_PCLK_CTL11 Starting address: CYDEV_PERI_PCLK_CTL11 */
 246:Generated_Source\PSoC4/cyfitter_cfg.c **** 	CY_SET_XTND_REG32((void CYFAR *)(CYREG_PERI_PCLK_CTL11), 0x00000040u);
 345              		.loc 1 246 0
 346 00b2 2C4B     		ldr	r3, .L11+92
 347 00b4 4022     		mov	r2, #64
 348 00b6 1A60     		str	r2, [r3]
 247:Generated_Source\PSoC4/cyfitter_cfg.c **** 
 248:Generated_Source\PSoC4/cyfitter_cfg.c **** 	/* CYDEV_PERI_PCLK_CTL8 Starting address: CYDEV_PERI_PCLK_CTL8 */
 249:Generated_Source\PSoC4/cyfitter_cfg.c **** 	CY_SET_XTND_REG32((void CYFAR *)(CYREG_PERI_PCLK_CTL8), 0x00000043u);
 349              		.loc 1 249 0
 350 00b8 2B4B     		ldr	r3, .L11+96
 351 00ba 4322     		mov	r2, #67
 352 00bc 1A60     		str	r2, [r3]
 250:Generated_Source\PSoC4/cyfitter_cfg.c **** 
 251:Generated_Source\PSoC4/cyfitter_cfg.c **** 	/* CYDEV_PERI_PCLK_CTL7 Starting address: CYDEV_PERI_PCLK_CTL7 */
 252:Generated_Source\PSoC4/cyfitter_cfg.c **** 	CY_SET_XTND_REG32((void CYFAR *)(CYREG_PERI_PCLK_CTL7), 0x00000044u);
 353              		.loc 1 252 0
 354 00be 2B4B     		ldr	r3, .L11+100
 355 00c0 4422     		mov	r2, #68
 356 00c2 1A60     		str	r2, [r3]
 253:Generated_Source\PSoC4/cyfitter_cfg.c **** 
 254:Generated_Source\PSoC4/cyfitter_cfg.c **** 	/* CYDEV_PERI_PCLK_CTL6 Starting address: CYDEV_PERI_PCLK_CTL6 */
 255:Generated_Source\PSoC4/cyfitter_cfg.c **** 	CY_SET_XTND_REG32((void CYFAR *)(CYREG_PERI_PCLK_CTL6), 0x00000041u);
 357              		.loc 1 255 0
 358 00c4 2A4B     		ldr	r3, .L11+104
 359 00c6 4122     		mov	r2, #65
 360 00c8 1A60     		str	r2, [r3]
 256:Generated_Source\PSoC4/cyfitter_cfg.c **** 
 257:Generated_Source\PSoC4/cyfitter_cfg.c **** 	/* CYDEV_PERI_PCLK_CTL1 Starting address: CYDEV_PERI_PCLK_CTL1 */
 258:Generated_Source\PSoC4/cyfitter_cfg.c **** 	CY_SET_XTND_REG32((void CYFAR *)(CYREG_PERI_PCLK_CTL1), 0x00000042u);
 361              		.loc 1 258 0
 362 00ca 2A4B     		ldr	r3, .L11+108
 363 00cc 4222     		mov	r2, #66
 364 00ce 1A60     		str	r2, [r3]
 259:Generated_Source\PSoC4/cyfitter_cfg.c **** 
 260:Generated_Source\PSoC4/cyfitter_cfg.c **** 	(void)CyIntSetVector(8u, &CySysWdtIsr);
ARM GAS  C:\Users\Petro\AppData\Local\Temp\ccbKo2Qz.s 			page 12


 365              		.loc 1 260 0
 366 00d0 294B     		ldr	r3, .L11+112
 367 00d2 0820     		mov	r0, #8
 368 00d4 191C     		mov	r1, r3
 369 00d6 FFF7FEFF 		bl	CyIntSetVector
 261:Generated_Source\PSoC4/cyfitter_cfg.c **** 	CyIntEnable(8u);
 370              		.loc 1 261 0
 371 00da 0820     		mov	r0, #8
 372 00dc FFF7FEFF 		bl	CyIntEnable
 262:Generated_Source\PSoC4/cyfitter_cfg.c **** 	CY_SET_XTND_REG32((void CYFAR *)(CYREG_WDT_MATCH), 0x00000020u);
 373              		.loc 1 262 0
 374 00e0 264B     		ldr	r3, .L11+116
 375 00e2 2022     		mov	r2, #32
 376 00e4 1A60     		str	r2, [r3]
 263:Generated_Source\PSoC4/cyfitter_cfg.c **** 	CY_SET_XTND_REG32((void CYFAR *)(CYREG_WDT_CONFIG), 0x40000005u);
 377              		.loc 1 263 0
 378 00e6 0A4B     		ldr	r3, .L11+8
 379 00e8 254A     		ldr	r2, .L11+120
 380 00ea 1A60     		str	r2, [r3]
 264:Generated_Source\PSoC4/cyfitter_cfg.c **** 	CY_SET_XTND_REG32((void CYFAR *)(CYREG_WDT_CONTROL), 0x00000008u);
 381              		.loc 1 264 0
 382 00ec 254B     		ldr	r3, .L11+124
 383 00ee 0822     		mov	r2, #8
 384 00f0 1A60     		str	r2, [r3]
 265:Generated_Source\PSoC4/cyfitter_cfg.c **** 	while ((CY_GET_XTND_REG32((void CYFAR *)(CYREG_WDT_CONTROL)) & 0x00000008u) != 0u) { }
 385              		.loc 1 265 0
 386 00f2 C046     		mov	r8, r8
 387              	.L10:
 388              		.loc 1 265 0 is_stmt 0 discriminator 1
 389 00f4 234B     		ldr	r3, .L11+124
 390 00f6 1B68     		ldr	r3, [r3]
 391 00f8 0822     		mov	r2, #8
 392 00fa 1340     		and	r3, r2
 393 00fc FAD1     		bne	.L10
 266:Generated_Source\PSoC4/cyfitter_cfg.c **** 	CY_SET_XTND_REG32((void CYFAR *)(CYREG_WDT_CONTROL), 0x00000001u);
 394              		.loc 1 266 0 is_stmt 1
 395 00fe 214B     		ldr	r3, .L11+124
 396 0100 0122     		mov	r2, #1
 397 0102 1A60     		str	r2, [r3]
 267:Generated_Source\PSoC4/cyfitter_cfg.c **** }
 398              		.loc 1 267 0
 399 0104 BD46     		mov	sp, r7
 400              		@ sp needed
 401 0106 80BD     		pop	{r7, pc}
 402              	.L12:
 403              		.align	2
 404              	.L11:
 405 0108 30001040 		.word	1074790448
 406 010c 001BB700 		.word	12000000
 407 0110 0C020B40 		.word	1074463244
 408 0114 78002E40 		.word	1076756600
 409 0118 7C002E40 		.word	1076756604
 410 011c 2D3E0000 		.word	15917
 411 0120 64F02E40 		.word	1076818020
 412 0124 6CF02E40 		.word	1076818028
 413 0128 DC050000 		.word	1500
 414 012c 00030140 		.word	1073808128
ARM GAS  C:\Users\Petro\AppData\Local\Temp\ccbKo2Qz.s 			page 13


 415 0130 00000140 		.word	1073807360
 416 0134 40FF0080 		.word	-2147418304
 417 0138 0C030140 		.word	1073808140
 418 013c 007FBB00 		.word	12287744
 419 0140 43FF0080 		.word	-2147418301
 420 0144 10030140 		.word	1073808144
 421 0148 44FF0080 		.word	-2147418300
 422 014c 04030140 		.word	1073808132
 423 0150 41FF0080 		.word	-2147418303
 424 0154 08030140 		.word	1073808136
 425 0158 42FF0080 		.word	-2147418302
 426 015c 08010B40 		.word	1074462984
 427 0160 00010B40 		.word	1074462976
 428 0164 2C010140 		.word	1073807660
 429 0168 20010140 		.word	1073807648
 430 016c 1C010140 		.word	1073807644
 431 0170 18010140 		.word	1073807640
 432 0174 04010140 		.word	1073807620
 433 0178 00000000 		.word	CySysWdtIsr
 434 017c 08020B40 		.word	1074463240
 435 0180 05000040 		.word	1073741829
 436 0184 10020B40 		.word	1074463248
 437              		.cfi_endproc
 438              	.LFE6:
 439              		.size	ClockSetup, .-ClockSetup
 440              		.section	.text.AnalogSetDefault,"ax",%progbits
 441              		.align	2
 442              		.code	16
 443              		.thumb_func
 444              		.type	AnalogSetDefault, %function
 445              	AnalogSetDefault:
 446              	.LFB7:
 268:Generated_Source\PSoC4/cyfitter_cfg.c **** 
 269:Generated_Source\PSoC4/cyfitter_cfg.c **** 
 270:Generated_Source\PSoC4/cyfitter_cfg.c **** /* Analog API Functions */
 271:Generated_Source\PSoC4/cyfitter_cfg.c **** 
 272:Generated_Source\PSoC4/cyfitter_cfg.c **** 
 273:Generated_Source\PSoC4/cyfitter_cfg.c **** /*******************************************************************************
 274:Generated_Source\PSoC4/cyfitter_cfg.c **** * Function Name: AnalogSetDefault
 275:Generated_Source\PSoC4/cyfitter_cfg.c **** ********************************************************************************
 276:Generated_Source\PSoC4/cyfitter_cfg.c **** *
 277:Generated_Source\PSoC4/cyfitter_cfg.c **** * Summary:
 278:Generated_Source\PSoC4/cyfitter_cfg.c **** *  Sets up the analog portions of the chip to default values based on chip
 279:Generated_Source\PSoC4/cyfitter_cfg.c **** *  configuration options from the project.
 280:Generated_Source\PSoC4/cyfitter_cfg.c **** *
 281:Generated_Source\PSoC4/cyfitter_cfg.c **** * Parameters:
 282:Generated_Source\PSoC4/cyfitter_cfg.c **** *  void
 283:Generated_Source\PSoC4/cyfitter_cfg.c **** *
 284:Generated_Source\PSoC4/cyfitter_cfg.c **** * Return:
 285:Generated_Source\PSoC4/cyfitter_cfg.c **** *  void
 286:Generated_Source\PSoC4/cyfitter_cfg.c **** *
 287:Generated_Source\PSoC4/cyfitter_cfg.c **** *******************************************************************************/
 288:Generated_Source\PSoC4/cyfitter_cfg.c **** static void AnalogSetDefault(void);
 289:Generated_Source\PSoC4/cyfitter_cfg.c **** static void AnalogSetDefault(void)
 290:Generated_Source\PSoC4/cyfitter_cfg.c **** {
 447              		.loc 1 290 0
 448              		.cfi_startproc
ARM GAS  C:\Users\Petro\AppData\Local\Temp\ccbKo2Qz.s 			page 14


 449 0000 80B5     		push	{r7, lr}
 450              		.cfi_def_cfa_offset 8
 451              		.cfi_offset 7, -8
 452              		.cfi_offset 14, -4
 453 0002 00AF     		add	r7, sp, #0
 454              		.cfi_def_cfa_register 7
 291:Generated_Source\PSoC4/cyfitter_cfg.c **** 	CY_SET_XTND_REG32((void CYFAR *)CYREG_CTBM0_DFT_CTRL, 0x00000003u);
 455              		.loc 1 291 0
 456 0004 0A4B     		ldr	r3, .L14
 457 0006 0322     		mov	r2, #3
 458 0008 1A60     		str	r2, [r3]
 292:Generated_Source\PSoC4/cyfitter_cfg.c **** 	CY_SET_XTND_REG32((void CYFAR *)CYREG_CTBM1_DFT_CTRL, 0x00000003u);
 459              		.loc 1 292 0
 460 000a 0A4B     		ldr	r3, .L14+4
 461 000c 0322     		mov	r2, #3
 462 000e 1A60     		str	r2, [r3]
 293:Generated_Source\PSoC4/cyfitter_cfg.c **** 	CY_SET_XTND_REG32((void CYFAR *)CYREG_SAR_CTRL, 0x80000000u);
 463              		.loc 1 293 0
 464 0010 094B     		ldr	r3, .L14+8
 465 0012 8022     		mov	r2, #128
 466 0014 1206     		lsl	r2, r2, #24
 467 0016 1A60     		str	r2, [r3]
 294:Generated_Source\PSoC4/cyfitter_cfg.c **** 	CY_SET_XTND_REG32((void CYFAR *)CYREG_SAR_MUX_SWITCH0, 0x00000001u);
 468              		.loc 1 294 0
 469 0018 084B     		ldr	r3, .L14+12
 470 001a 0122     		mov	r2, #1
 471 001c 1A60     		str	r2, [r3]
 295:Generated_Source\PSoC4/cyfitter_cfg.c **** 	CY_SET_XTND_REG32((void CYFAR *)CYREG_PASS_DSAB_DSAB_CTRL, 0x00000000u);
 472              		.loc 1 295 0
 473 001e 084B     		ldr	r3, .L14+16
 474 0020 0022     		mov	r2, #0
 475 0022 1A60     		str	r2, [r3]
 296:Generated_Source\PSoC4/cyfitter_cfg.c **** 	SetAnalogRoutingPumps(1);
 476              		.loc 1 296 0
 477 0024 0120     		mov	r0, #1
 478 0026 FFF7FEFF 		bl	SetAnalogRoutingPumps
 297:Generated_Source\PSoC4/cyfitter_cfg.c **** }
 479              		.loc 1 297 0
 480 002a BD46     		mov	sp, r7
 481              		@ sp needed
 482 002c 80BD     		pop	{r7, pc}
 483              	.L15:
 484 002e C046     		.align	2
 485              	.L14:
 486 0030 30003040 		.word	1076887600
 487 0034 30003140 		.word	1076953136
 488 0038 00003A40 		.word	1077542912
 489 003c 00033A40 		.word	1077543680
 490 0040 000E3F40 		.word	1077874176
 491              		.cfi_endproc
 492              	.LFE7:
 493              		.size	AnalogSetDefault, .-AnalogSetDefault
 494              		.section	.text.SetAnalogRoutingPumps,"ax",%progbits
 495              		.align	2
 496              		.global	SetAnalogRoutingPumps
 497              		.code	16
 498              		.thumb_func
ARM GAS  C:\Users\Petro\AppData\Local\Temp\ccbKo2Qz.s 			page 15


 499              		.type	SetAnalogRoutingPumps, %function
 500              	SetAnalogRoutingPumps:
 501              	.LFB8:
 298:Generated_Source\PSoC4/cyfitter_cfg.c **** 
 299:Generated_Source\PSoC4/cyfitter_cfg.c **** 
 300:Generated_Source\PSoC4/cyfitter_cfg.c **** /*******************************************************************************
 301:Generated_Source\PSoC4/cyfitter_cfg.c **** * Function Name: SetAnalogRoutingPumps
 302:Generated_Source\PSoC4/cyfitter_cfg.c **** ********************************************************************************
 303:Generated_Source\PSoC4/cyfitter_cfg.c **** *
 304:Generated_Source\PSoC4/cyfitter_cfg.c **** * Summary:
 305:Generated_Source\PSoC4/cyfitter_cfg.c **** * Enables or disables the analog pumps feeding analog routing switches.
 306:Generated_Source\PSoC4/cyfitter_cfg.c **** * Intended to be called at startup, based on the Vdda system configuration;
 307:Generated_Source\PSoC4/cyfitter_cfg.c **** * may be called during operation when the user informs us that the Vdda voltage crossed the pump th
 308:Generated_Source\PSoC4/cyfitter_cfg.c **** *
 309:Generated_Source\PSoC4/cyfitter_cfg.c **** * Parameters:
 310:Generated_Source\PSoC4/cyfitter_cfg.c **** *  enabled - 1 to enable the pumps, 0 to disable the pumps
 311:Generated_Source\PSoC4/cyfitter_cfg.c **** *
 312:Generated_Source\PSoC4/cyfitter_cfg.c **** * Return:
 313:Generated_Source\PSoC4/cyfitter_cfg.c **** *  void
 314:Generated_Source\PSoC4/cyfitter_cfg.c **** *
 315:Generated_Source\PSoC4/cyfitter_cfg.c **** *******************************************************************************/
 316:Generated_Source\PSoC4/cyfitter_cfg.c **** void SetAnalogRoutingPumps(uint8 enabled)
 317:Generated_Source\PSoC4/cyfitter_cfg.c **** {
 502              		.loc 1 317 0
 503              		.cfi_startproc
 504 0000 80B5     		push	{r7, lr}
 505              		.cfi_def_cfa_offset 8
 506              		.cfi_offset 7, -8
 507              		.cfi_offset 14, -4
 508 0002 84B0     		sub	sp, sp, #16
 509              		.cfi_def_cfa_offset 24
 510 0004 00AF     		add	r7, sp, #0
 511              		.cfi_def_cfa_register 7
 512 0006 021C     		mov	r2, r0
 513 0008 FB1D     		add	r3, r7, #7
 514 000a 1A70     		strb	r2, [r3]
 318:Generated_Source\PSoC4/cyfitter_cfg.c **** 	uint32 regValue = CY_GET_XTND_REG32((void *)(CYREG_SAR_PUMP_CTRL));
 515              		.loc 1 318 0
 516 000c 0B4B     		ldr	r3, .L19
 517 000e 1B68     		ldr	r3, [r3]
 518 0010 FB60     		str	r3, [r7, #12]
 319:Generated_Source\PSoC4/cyfitter_cfg.c **** 	if (enabled != 0u)
 519              		.loc 1 319 0
 520 0012 FB1D     		add	r3, r7, #7
 521 0014 1B78     		ldrb	r3, [r3]
 522 0016 002B     		cmp	r3, #0
 523 0018 05D0     		beq	.L17
 320:Generated_Source\PSoC4/cyfitter_cfg.c **** 	{
 321:Generated_Source\PSoC4/cyfitter_cfg.c **** 		regValue |= 0x80000000u;
 524              		.loc 1 321 0
 525 001a FB68     		ldr	r3, [r7, #12]
 526 001c 8022     		mov	r2, #128
 527 001e 1206     		lsl	r2, r2, #24
 528 0020 1343     		orr	r3, r2
 529 0022 FB60     		str	r3, [r7, #12]
 530 0024 03E0     		b	.L18
 531              	.L17:
ARM GAS  C:\Users\Petro\AppData\Local\Temp\ccbKo2Qz.s 			page 16


 322:Generated_Source\PSoC4/cyfitter_cfg.c **** 	}
 323:Generated_Source\PSoC4/cyfitter_cfg.c **** 	else
 324:Generated_Source\PSoC4/cyfitter_cfg.c **** 	{
 325:Generated_Source\PSoC4/cyfitter_cfg.c **** 		regValue &= ~0x80000000u;
 532              		.loc 1 325 0
 533 0026 FB68     		ldr	r3, [r7, #12]
 534 0028 5B00     		lsl	r3, r3, #1
 535 002a 5B08     		lsr	r3, r3, #1
 536 002c FB60     		str	r3, [r7, #12]
 537              	.L18:
 326:Generated_Source\PSoC4/cyfitter_cfg.c **** 	}
 327:Generated_Source\PSoC4/cyfitter_cfg.c **** 	CY_SET_XTND_REG32((void *)(CYREG_SAR_PUMP_CTRL), regValue);
 538              		.loc 1 327 0
 539 002e 034B     		ldr	r3, .L19
 540 0030 FA68     		ldr	r2, [r7, #12]
 541 0032 1A60     		str	r2, [r3]
 328:Generated_Source\PSoC4/cyfitter_cfg.c **** }
 542              		.loc 1 328 0
 543 0034 BD46     		mov	sp, r7
 544 0036 04B0     		add	sp, sp, #16
 545              		@ sp needed
 546 0038 80BD     		pop	{r7, pc}
 547              	.L20:
 548 003a C046     		.align	2
 549              	.L19:
 550 003c 80033A40 		.word	1077543808
 551              		.cfi_endproc
 552              	.LFE8:
 553              		.size	SetAnalogRoutingPumps, .-SetAnalogRoutingPumps
 554              		.section	.psocinit
 555              		.align	2
 556              		.global	cyfitter_cfg
 557              		.code	16
 558              		.thumb_func
 559              		.type	cyfitter_cfg, %function
 560              	cyfitter_cfg:
 561              	.LFB9:
 329:Generated_Source\PSoC4/cyfitter_cfg.c **** 
 330:Generated_Source\PSoC4/cyfitter_cfg.c **** #define CY_AMUX_UNUSED CYREG_CM0_ROM_DWT
 331:Generated_Source\PSoC4/cyfitter_cfg.c **** 
 332:Generated_Source\PSoC4/cyfitter_cfg.c **** 
 333:Generated_Source\PSoC4/cyfitter_cfg.c **** /*******************************************************************************
 334:Generated_Source\PSoC4/cyfitter_cfg.c **** * Function Name: cyfitter_cfg
 335:Generated_Source\PSoC4/cyfitter_cfg.c **** ********************************************************************************
 336:Generated_Source\PSoC4/cyfitter_cfg.c **** * Summary:
 337:Generated_Source\PSoC4/cyfitter_cfg.c **** *  This function is called by the start-up code for the selected device. It
 338:Generated_Source\PSoC4/cyfitter_cfg.c **** *  performs all of the necessary device configuration based on the design
 339:Generated_Source\PSoC4/cyfitter_cfg.c **** *  settings.  This includes settings from the Design Wide Resources (DWR) such
 340:Generated_Source\PSoC4/cyfitter_cfg.c **** *  as Clocks and Pins as well as any component configuration that is necessary.
 341:Generated_Source\PSoC4/cyfitter_cfg.c **** *
 342:Generated_Source\PSoC4/cyfitter_cfg.c **** * Parameters:  
 343:Generated_Source\PSoC4/cyfitter_cfg.c **** *   void
 344:Generated_Source\PSoC4/cyfitter_cfg.c **** *
 345:Generated_Source\PSoC4/cyfitter_cfg.c **** * Return:
 346:Generated_Source\PSoC4/cyfitter_cfg.c **** *   void
 347:Generated_Source\PSoC4/cyfitter_cfg.c **** *
 348:Generated_Source\PSoC4/cyfitter_cfg.c **** *******************************************************************************/
ARM GAS  C:\Users\Petro\AppData\Local\Temp\ccbKo2Qz.s 			page 17


 349:Generated_Source\PSoC4/cyfitter_cfg.c **** CY_CFG_SECTION
 350:Generated_Source\PSoC4/cyfitter_cfg.c **** void cyfitter_cfg(void)
 351:Generated_Source\PSoC4/cyfitter_cfg.c **** {
 562              		.loc 1 351 0
 563              		.cfi_startproc
 564 0188 80B5     		push	{r7, lr}
 565              		.cfi_def_cfa_offset 8
 566              		.cfi_offset 7, -8
 567              		.cfi_offset 14, -4
 568 018a 86B0     		sub	sp, sp, #24
 569              		.cfi_def_cfa_offset 32
 570 018c 00AF     		add	r7, sp, #0
 571              		.cfi_def_cfa_register 7
 352:Generated_Source\PSoC4/cyfitter_cfg.c **** 	/* Disable interrupts by default. Let user enable if/when they want. */
 353:Generated_Source\PSoC4/cyfitter_cfg.c **** 	CyGlobalIntDisable;
 572              		.loc 1 353 0
 573              	@ 353 "Generated_Source\PSoC4\cyfitter_cfg.c" 1
 574 018e 72B6     		CPSID   i
 575              	@ 0 "" 2
 354:Generated_Source\PSoC4/cyfitter_cfg.c **** 
 355:Generated_Source\PSoC4/cyfitter_cfg.c **** 	CY_SET_XTND_REG32((void CYFAR *)(CYREG_BLE_BLESS_LL_DSM_CTRL), 0x00000000u);
 576              		.loc 1 355 0
 577              		.code	16
 578 0190 734B     		ldr	r3, .L26
 579 0192 0022     		mov	r2, #0
 580 0194 1A60     		str	r2, [r3]
 356:Generated_Source\PSoC4/cyfitter_cfg.c **** 
 357:Generated_Source\PSoC4/cyfitter_cfg.c **** 	/* Enable the clock in the interrupt controller for the routed interrupts */
 358:Generated_Source\PSoC4/cyfitter_cfg.c **** 	CY_SET_REG8((void *)CYREG_UDB_UDBIF_INT_CLK_CTL, 0x01u);
 581              		.loc 1 358 0
 582 0196 734B     		ldr	r3, .L26+4
 583 0198 0122     		mov	r2, #1
 584 019a 1A70     		strb	r2, [r3]
 585              	.LBB3:
 359:Generated_Source\PSoC4/cyfitter_cfg.c **** 	{
 360:Generated_Source\PSoC4/cyfitter_cfg.c **** 		static const uint32 CYCODE cy_cfg_addr_table[] = {
 361:Generated_Source\PSoC4/cyfitter_cfg.c **** 			0x400F0001u, /* Base address: 0x400F0000 Count: 1 */
 362:Generated_Source\PSoC4/cyfitter_cfg.c **** 			0x400F3004u, /* Base address: 0x400F3000 Count: 4 */
 363:Generated_Source\PSoC4/cyfitter_cfg.c **** 			0x400F3131u, /* Base address: 0x400F3100 Count: 49 */
 364:Generated_Source\PSoC4/cyfitter_cfg.c **** 			0x400F3247u, /* Base address: 0x400F3200 Count: 71 */
 365:Generated_Source\PSoC4/cyfitter_cfg.c **** 			0x400F333Fu, /* Base address: 0x400F3300 Count: 63 */
 366:Generated_Source\PSoC4/cyfitter_cfg.c **** 			0x400F4001u, /* Base address: 0x400F4000 Count: 1 */
 367:Generated_Source\PSoC4/cyfitter_cfg.c **** 			0x400F410Au, /* Base address: 0x400F4100 Count: 10 */
 368:Generated_Source\PSoC4/cyfitter_cfg.c **** 			0x400F4205u, /* Base address: 0x400F4200 Count: 5 */
 369:Generated_Source\PSoC4/cyfitter_cfg.c **** 			0x400F4306u, /* Base address: 0x400F4300 Count: 6 */
 370:Generated_Source\PSoC4/cyfitter_cfg.c **** 			0x400F6002u, /* Base address: 0x400F6000 Count: 2 */
 371:Generated_Source\PSoC4/cyfitter_cfg.c **** 		};
 372:Generated_Source\PSoC4/cyfitter_cfg.c **** 
 373:Generated_Source\PSoC4/cyfitter_cfg.c **** 		static const cy_cfg_addrvalue_t CYCODE cy_cfg_data_table[] = {
 374:Generated_Source\PSoC4/cyfitter_cfg.c **** 			{0x81u, 0x0Fu},
 375:Generated_Source\PSoC4/cyfitter_cfg.c **** 			{0xD6u, 0x02u},
 376:Generated_Source\PSoC4/cyfitter_cfg.c **** 			{0xD7u, 0x24u},
 377:Generated_Source\PSoC4/cyfitter_cfg.c **** 			{0xDBu, 0x04u},
 378:Generated_Source\PSoC4/cyfitter_cfg.c **** 			{0xDFu, 0x01u},
 379:Generated_Source\PSoC4/cyfitter_cfg.c **** 			{0x00u, 0x04u},
 380:Generated_Source\PSoC4/cyfitter_cfg.c **** 			{0x01u, 0x21u},
 381:Generated_Source\PSoC4/cyfitter_cfg.c **** 			{0x03u, 0x01u},
ARM GAS  C:\Users\Petro\AppData\Local\Temp\ccbKo2Qz.s 			page 18


 382:Generated_Source\PSoC4/cyfitter_cfg.c **** 			{0x09u, 0x40u},
 383:Generated_Source\PSoC4/cyfitter_cfg.c **** 			{0x0Au, 0x50u},
 384:Generated_Source\PSoC4/cyfitter_cfg.c **** 			{0x0Bu, 0x08u},
 385:Generated_Source\PSoC4/cyfitter_cfg.c **** 			{0x10u, 0x22u},
 386:Generated_Source\PSoC4/cyfitter_cfg.c **** 			{0x11u, 0x10u},
 387:Generated_Source\PSoC4/cyfitter_cfg.c **** 			{0x18u, 0x50u},
 388:Generated_Source\PSoC4/cyfitter_cfg.c **** 			{0x19u, 0x22u},
 389:Generated_Source\PSoC4/cyfitter_cfg.c **** 			{0x1Au, 0x40u},
 390:Generated_Source\PSoC4/cyfitter_cfg.c **** 			{0x1Bu, 0x01u},
 391:Generated_Source\PSoC4/cyfitter_cfg.c **** 			{0x21u, 0x80u},
 392:Generated_Source\PSoC4/cyfitter_cfg.c **** 			{0x22u, 0x03u},
 393:Generated_Source\PSoC4/cyfitter_cfg.c **** 			{0x2Bu, 0x89u},
 394:Generated_Source\PSoC4/cyfitter_cfg.c **** 			{0x30u, 0x20u},
 395:Generated_Source\PSoC4/cyfitter_cfg.c **** 			{0x31u, 0x88u},
 396:Generated_Source\PSoC4/cyfitter_cfg.c **** 			{0x33u, 0x01u},
 397:Generated_Source\PSoC4/cyfitter_cfg.c **** 			{0x38u, 0x04u},
 398:Generated_Source\PSoC4/cyfitter_cfg.c **** 			{0x39u, 0x51u},
 399:Generated_Source\PSoC4/cyfitter_cfg.c **** 			{0x40u, 0x44u},
 400:Generated_Source\PSoC4/cyfitter_cfg.c **** 			{0x43u, 0x08u},
 401:Generated_Source\PSoC4/cyfitter_cfg.c **** 			{0x48u, 0x04u},
 402:Generated_Source\PSoC4/cyfitter_cfg.c **** 			{0x49u, 0x08u},
 403:Generated_Source\PSoC4/cyfitter_cfg.c **** 			{0x4Au, 0x02u},
 404:Generated_Source\PSoC4/cyfitter_cfg.c **** 			{0x4Bu, 0x01u},
 405:Generated_Source\PSoC4/cyfitter_cfg.c **** 			{0x50u, 0x02u},
 406:Generated_Source\PSoC4/cyfitter_cfg.c **** 			{0x51u, 0x24u},
 407:Generated_Source\PSoC4/cyfitter_cfg.c **** 			{0x53u, 0x84u},
 408:Generated_Source\PSoC4/cyfitter_cfg.c **** 			{0x60u, 0x10u},
 409:Generated_Source\PSoC4/cyfitter_cfg.c **** 			{0x61u, 0x20u},
 410:Generated_Source\PSoC4/cyfitter_cfg.c **** 			{0x63u, 0x01u},
 411:Generated_Source\PSoC4/cyfitter_cfg.c **** 			{0x67u, 0x04u},
 412:Generated_Source\PSoC4/cyfitter_cfg.c **** 			{0x6Cu, 0x20u},
 413:Generated_Source\PSoC4/cyfitter_cfg.c **** 			{0x6Du, 0xD1u},
 414:Generated_Source\PSoC4/cyfitter_cfg.c **** 			{0x77u, 0x01u},
 415:Generated_Source\PSoC4/cyfitter_cfg.c **** 			{0x85u, 0x80u},
 416:Generated_Source\PSoC4/cyfitter_cfg.c **** 			{0x88u, 0x04u},
 417:Generated_Source\PSoC4/cyfitter_cfg.c **** 			{0xC0u, 0x0Fu},
 418:Generated_Source\PSoC4/cyfitter_cfg.c **** 			{0xC2u, 0x0Fu},
 419:Generated_Source\PSoC4/cyfitter_cfg.c **** 			{0xC4u, 0x07u},
 420:Generated_Source\PSoC4/cyfitter_cfg.c **** 			{0xCAu, 0x0Du},
 421:Generated_Source\PSoC4/cyfitter_cfg.c **** 			{0xCCu, 0x0Fu},
 422:Generated_Source\PSoC4/cyfitter_cfg.c **** 			{0xCEu, 0x0Fu},
 423:Generated_Source\PSoC4/cyfitter_cfg.c **** 			{0xD0u, 0x07u},
 424:Generated_Source\PSoC4/cyfitter_cfg.c **** 			{0xD2u, 0x0Cu},
 425:Generated_Source\PSoC4/cyfitter_cfg.c **** 			{0xD8u, 0x2Eu},
 426:Generated_Source\PSoC4/cyfitter_cfg.c **** 			{0xE0u, 0x20u},
 427:Generated_Source\PSoC4/cyfitter_cfg.c **** 			{0xE4u, 0x02u},
 428:Generated_Source\PSoC4/cyfitter_cfg.c **** 			{0x00u, 0x14u},
 429:Generated_Source\PSoC4/cyfitter_cfg.c **** 			{0x02u, 0x29u},
 430:Generated_Source\PSoC4/cyfitter_cfg.c **** 			{0x04u, 0x33u},
 431:Generated_Source\PSoC4/cyfitter_cfg.c **** 			{0x06u, 0x04u},
 432:Generated_Source\PSoC4/cyfitter_cfg.c **** 			{0x08u, 0x0Eu},
 433:Generated_Source\PSoC4/cyfitter_cfg.c **** 			{0x0Cu, 0x30u},
 434:Generated_Source\PSoC4/cyfitter_cfg.c **** 			{0x14u, 0x10u},
 435:Generated_Source\PSoC4/cyfitter_cfg.c **** 			{0x18u, 0x05u},
 436:Generated_Source\PSoC4/cyfitter_cfg.c **** 			{0x1Au, 0x1Au},
 437:Generated_Source\PSoC4/cyfitter_cfg.c **** 			{0x1Cu, 0x10u},
 438:Generated_Source\PSoC4/cyfitter_cfg.c **** 			{0x1Eu, 0x20u},
ARM GAS  C:\Users\Petro\AppData\Local\Temp\ccbKo2Qz.s 			page 19


 439:Generated_Source\PSoC4/cyfitter_cfg.c **** 			{0x20u, 0x30u},
 440:Generated_Source\PSoC4/cyfitter_cfg.c **** 			{0x24u, 0x20u},
 441:Generated_Source\PSoC4/cyfitter_cfg.c **** 			{0x28u, 0x20u},
 442:Generated_Source\PSoC4/cyfitter_cfg.c **** 			{0x2Au, 0x10u},
 443:Generated_Source\PSoC4/cyfitter_cfg.c **** 			{0x2Cu, 0x10u},
 444:Generated_Source\PSoC4/cyfitter_cfg.c **** 			{0x2Eu, 0x20u},
 445:Generated_Source\PSoC4/cyfitter_cfg.c **** 			{0x32u, 0x31u},
 446:Generated_Source\PSoC4/cyfitter_cfg.c **** 			{0x34u, 0x0Fu},
 447:Generated_Source\PSoC4/cyfitter_cfg.c **** 			{0x38u, 0x20u},
 448:Generated_Source\PSoC4/cyfitter_cfg.c **** 			{0x58u, 0x04u},
 449:Generated_Source\PSoC4/cyfitter_cfg.c **** 			{0x5Fu, 0x01u},
 450:Generated_Source\PSoC4/cyfitter_cfg.c **** 			{0x80u, 0x1Cu},
 451:Generated_Source\PSoC4/cyfitter_cfg.c **** 			{0x81u, 0x04u},
 452:Generated_Source\PSoC4/cyfitter_cfg.c **** 			{0x82u, 0x63u},
 453:Generated_Source\PSoC4/cyfitter_cfg.c **** 			{0x84u, 0x11u},
 454:Generated_Source\PSoC4/cyfitter_cfg.c **** 			{0x85u, 0x10u},
 455:Generated_Source\PSoC4/cyfitter_cfg.c **** 			{0x86u, 0x68u},
 456:Generated_Source\PSoC4/cyfitter_cfg.c **** 			{0x87u, 0x68u},
 457:Generated_Source\PSoC4/cyfitter_cfg.c **** 			{0x88u, 0x33u},
 458:Generated_Source\PSoC4/cyfitter_cfg.c **** 			{0x8Au, 0x04u},
 459:Generated_Source\PSoC4/cyfitter_cfg.c **** 			{0x8Bu, 0x04u},
 460:Generated_Source\PSoC4/cyfitter_cfg.c **** 			{0x8Cu, 0x0Au},
 461:Generated_Source\PSoC4/cyfitter_cfg.c **** 			{0x8Du, 0x04u},
 462:Generated_Source\PSoC4/cyfitter_cfg.c **** 			{0x91u, 0x04u},
 463:Generated_Source\PSoC4/cyfitter_cfg.c **** 			{0x92u, 0x40u},
 464:Generated_Source\PSoC4/cyfitter_cfg.c **** 			{0x94u, 0x08u},
 465:Generated_Source\PSoC4/cyfitter_cfg.c **** 			{0x95u, 0x01u},
 466:Generated_Source\PSoC4/cyfitter_cfg.c **** 			{0x97u, 0x06u},
 467:Generated_Source\PSoC4/cyfitter_cfg.c **** 			{0x98u, 0x02u},
 468:Generated_Source\PSoC4/cyfitter_cfg.c **** 			{0x99u, 0x04u},
 469:Generated_Source\PSoC4/cyfitter_cfg.c **** 			{0x9Cu, 0x08u},
 470:Generated_Source\PSoC4/cyfitter_cfg.c **** 			{0x9Eu, 0x02u},
 471:Generated_Source\PSoC4/cyfitter_cfg.c **** 			{0xA0u, 0x0Au},
 472:Generated_Source\PSoC4/cyfitter_cfg.c **** 			{0xA1u, 0x4Fu},
 473:Generated_Source\PSoC4/cyfitter_cfg.c **** 			{0xA3u, 0xB0u},
 474:Generated_Source\PSoC4/cyfitter_cfg.c **** 			{0xA4u, 0x08u},
 475:Generated_Source\PSoC4/cyfitter_cfg.c **** 			{0xA5u, 0xA9u},
 476:Generated_Source\PSoC4/cyfitter_cfg.c **** 			{0xA6u, 0x02u},
 477:Generated_Source\PSoC4/cyfitter_cfg.c **** 			{0xA7u, 0x56u},
 478:Generated_Source\PSoC4/cyfitter_cfg.c **** 			{0xA8u, 0x02u},
 479:Generated_Source\PSoC4/cyfitter_cfg.c **** 			{0xA9u, 0x18u},
 480:Generated_Source\PSoC4/cyfitter_cfg.c **** 			{0xAAu, 0x08u},
 481:Generated_Source\PSoC4/cyfitter_cfg.c **** 			{0xABu, 0xE3u},
 482:Generated_Source\PSoC4/cyfitter_cfg.c **** 			{0xACu, 0x80u},
 483:Generated_Source\PSoC4/cyfitter_cfg.c **** 			{0xB0u, 0x60u},
 484:Generated_Source\PSoC4/cyfitter_cfg.c **** 			{0xB1u, 0x80u},
 485:Generated_Source\PSoC4/cyfitter_cfg.c **** 			{0xB2u, 0x80u},
 486:Generated_Source\PSoC4/cyfitter_cfg.c **** 			{0xB3u, 0x07u},
 487:Generated_Source\PSoC4/cyfitter_cfg.c **** 			{0xB4u, 0x0Fu},
 488:Generated_Source\PSoC4/cyfitter_cfg.c **** 			{0xB5u, 0x78u},
 489:Generated_Source\PSoC4/cyfitter_cfg.c **** 			{0xB6u, 0x10u},
 490:Generated_Source\PSoC4/cyfitter_cfg.c **** 			{0xBAu, 0x20u},
 491:Generated_Source\PSoC4/cyfitter_cfg.c **** 			{0xBBu, 0x28u},
 492:Generated_Source\PSoC4/cyfitter_cfg.c **** 			{0xBEu, 0x44u},
 493:Generated_Source\PSoC4/cyfitter_cfg.c **** 			{0xBFu, 0x01u},
 494:Generated_Source\PSoC4/cyfitter_cfg.c **** 			{0xD4u, 0x09u},
 495:Generated_Source\PSoC4/cyfitter_cfg.c **** 			{0xD8u, 0x04u},
ARM GAS  C:\Users\Petro\AppData\Local\Temp\ccbKo2Qz.s 			page 20


 496:Generated_Source\PSoC4/cyfitter_cfg.c **** 			{0xD9u, 0x04u},
 497:Generated_Source\PSoC4/cyfitter_cfg.c **** 			{0xDBu, 0x04u},
 498:Generated_Source\PSoC4/cyfitter_cfg.c **** 			{0xDFu, 0x01u},
 499:Generated_Source\PSoC4/cyfitter_cfg.c **** 			{0x00u, 0x04u},
 500:Generated_Source\PSoC4/cyfitter_cfg.c **** 			{0x01u, 0x02u},
 501:Generated_Source\PSoC4/cyfitter_cfg.c **** 			{0x03u, 0x09u},
 502:Generated_Source\PSoC4/cyfitter_cfg.c **** 			{0x05u, 0x16u},
 503:Generated_Source\PSoC4/cyfitter_cfg.c **** 			{0x07u, 0x01u},
 504:Generated_Source\PSoC4/cyfitter_cfg.c **** 			{0x08u, 0x10u},
 505:Generated_Source\PSoC4/cyfitter_cfg.c **** 			{0x09u, 0x48u},
 506:Generated_Source\PSoC4/cyfitter_cfg.c **** 			{0x0Au, 0x40u},
 507:Generated_Source\PSoC4/cyfitter_cfg.c **** 			{0x0Bu, 0x08u},
 508:Generated_Source\PSoC4/cyfitter_cfg.c **** 			{0x0Du, 0x48u},
 509:Generated_Source\PSoC4/cyfitter_cfg.c **** 			{0x0Eu, 0x04u},
 510:Generated_Source\PSoC4/cyfitter_cfg.c **** 			{0x10u, 0x20u},
 511:Generated_Source\PSoC4/cyfitter_cfg.c **** 			{0x11u, 0x11u},
 512:Generated_Source\PSoC4/cyfitter_cfg.c **** 			{0x12u, 0x01u},
 513:Generated_Source\PSoC4/cyfitter_cfg.c **** 			{0x15u, 0x59u},
 514:Generated_Source\PSoC4/cyfitter_cfg.c **** 			{0x18u, 0x04u},
 515:Generated_Source\PSoC4/cyfitter_cfg.c **** 			{0x19u, 0x40u},
 516:Generated_Source\PSoC4/cyfitter_cfg.c **** 			{0x1Au, 0x44u},
 517:Generated_Source\PSoC4/cyfitter_cfg.c **** 			{0x1Bu, 0x14u},
 518:Generated_Source\PSoC4/cyfitter_cfg.c **** 			{0x1Du, 0x14u},
 519:Generated_Source\PSoC4/cyfitter_cfg.c **** 			{0x1Eu, 0x10u},
 520:Generated_Source\PSoC4/cyfitter_cfg.c **** 			{0x1Fu, 0x08u},
 521:Generated_Source\PSoC4/cyfitter_cfg.c **** 			{0x21u, 0x08u},
 522:Generated_Source\PSoC4/cyfitter_cfg.c **** 			{0x23u, 0x84u},
 523:Generated_Source\PSoC4/cyfitter_cfg.c **** 			{0x29u, 0x02u},
 524:Generated_Source\PSoC4/cyfitter_cfg.c **** 			{0x2Bu, 0x18u},
 525:Generated_Source\PSoC4/cyfitter_cfg.c **** 			{0x30u, 0x20u},
 526:Generated_Source\PSoC4/cyfitter_cfg.c **** 			{0x31u, 0x08u},
 527:Generated_Source\PSoC4/cyfitter_cfg.c **** 			{0x33u, 0x01u},
 528:Generated_Source\PSoC4/cyfitter_cfg.c **** 			{0x39u, 0x51u},
 529:Generated_Source\PSoC4/cyfitter_cfg.c **** 			{0x3Bu, 0x04u},
 530:Generated_Source\PSoC4/cyfitter_cfg.c **** 			{0x58u, 0x10u},
 531:Generated_Source\PSoC4/cyfitter_cfg.c **** 			{0x59u, 0x08u},
 532:Generated_Source\PSoC4/cyfitter_cfg.c **** 			{0x5Au, 0x02u},
 533:Generated_Source\PSoC4/cyfitter_cfg.c **** 			{0x5Bu, 0x80u},
 534:Generated_Source\PSoC4/cyfitter_cfg.c **** 			{0x61u, 0x40u},
 535:Generated_Source\PSoC4/cyfitter_cfg.c **** 			{0x82u, 0x01u},
 536:Generated_Source\PSoC4/cyfitter_cfg.c **** 			{0x83u, 0x04u},
 537:Generated_Source\PSoC4/cyfitter_cfg.c **** 			{0x8Du, 0x10u},
 538:Generated_Source\PSoC4/cyfitter_cfg.c **** 			{0x8Eu, 0x40u},
 539:Generated_Source\PSoC4/cyfitter_cfg.c **** 			{0x91u, 0xD9u},
 540:Generated_Source\PSoC4/cyfitter_cfg.c **** 			{0x92u, 0x02u},
 541:Generated_Source\PSoC4/cyfitter_cfg.c **** 			{0x93u, 0x08u},
 542:Generated_Source\PSoC4/cyfitter_cfg.c **** 			{0x94u, 0x04u},
 543:Generated_Source\PSoC4/cyfitter_cfg.c **** 			{0x96u, 0x10u},
 544:Generated_Source\PSoC4/cyfitter_cfg.c **** 			{0x97u, 0x04u},
 545:Generated_Source\PSoC4/cyfitter_cfg.c **** 			{0x99u, 0x0Au},
 546:Generated_Source\PSoC4/cyfitter_cfg.c **** 			{0x9Bu, 0x01u},
 547:Generated_Source\PSoC4/cyfitter_cfg.c **** 			{0xA0u, 0x20u},
 548:Generated_Source\PSoC4/cyfitter_cfg.c **** 			{0xA1u, 0x40u},
 549:Generated_Source\PSoC4/cyfitter_cfg.c **** 			{0xA5u, 0x08u},
 550:Generated_Source\PSoC4/cyfitter_cfg.c **** 			{0xA7u, 0x08u},
 551:Generated_Source\PSoC4/cyfitter_cfg.c **** 			{0xB4u, 0x20u},
 552:Generated_Source\PSoC4/cyfitter_cfg.c **** 			{0xB5u, 0x40u},
ARM GAS  C:\Users\Petro\AppData\Local\Temp\ccbKo2Qz.s 			page 21


 553:Generated_Source\PSoC4/cyfitter_cfg.c **** 			{0xC0u, 0xFFu},
 554:Generated_Source\PSoC4/cyfitter_cfg.c **** 			{0xC2u, 0xEFu},
 555:Generated_Source\PSoC4/cyfitter_cfg.c **** 			{0xC4u, 0xFFu},
 556:Generated_Source\PSoC4/cyfitter_cfg.c **** 			{0xCAu, 0x07u},
 557:Generated_Source\PSoC4/cyfitter_cfg.c **** 			{0xCCu, 0x07u},
 558:Generated_Source\PSoC4/cyfitter_cfg.c **** 			{0xCEu, 0x0Fu},
 559:Generated_Source\PSoC4/cyfitter_cfg.c **** 			{0xD6u, 0x0Fu},
 560:Generated_Source\PSoC4/cyfitter_cfg.c **** 			{0xD8u, 0x08u},
 561:Generated_Source\PSoC4/cyfitter_cfg.c **** 			{0xE2u, 0x44u},
 562:Generated_Source\PSoC4/cyfitter_cfg.c **** 			{0x8Bu, 0x08u},
 563:Generated_Source\PSoC4/cyfitter_cfg.c **** 			{0x03u, 0x08u},
 564:Generated_Source\PSoC4/cyfitter_cfg.c **** 			{0x63u, 0x08u},
 565:Generated_Source\PSoC4/cyfitter_cfg.c **** 			{0x6Fu, 0x20u},
 566:Generated_Source\PSoC4/cyfitter_cfg.c **** 			{0x83u, 0x20u},
 567:Generated_Source\PSoC4/cyfitter_cfg.c **** 			{0x8Fu, 0x04u},
 568:Generated_Source\PSoC4/cyfitter_cfg.c **** 			{0xA7u, 0x08u},
 569:Generated_Source\PSoC4/cyfitter_cfg.c **** 			{0xC0u, 0x40u},
 570:Generated_Source\PSoC4/cyfitter_cfg.c **** 			{0xD8u, 0x40u},
 571:Generated_Source\PSoC4/cyfitter_cfg.c **** 			{0xDAu, 0x80u},
 572:Generated_Source\PSoC4/cyfitter_cfg.c **** 			{0xE6u, 0x20u},
 573:Generated_Source\PSoC4/cyfitter_cfg.c **** 			{0x50u, 0x10u},
 574:Generated_Source\PSoC4/cyfitter_cfg.c **** 			{0x5Fu, 0x02u},
 575:Generated_Source\PSoC4/cyfitter_cfg.c **** 			{0x87u, 0x02u},
 576:Generated_Source\PSoC4/cyfitter_cfg.c **** 			{0xD4u, 0x04u},
 577:Generated_Source\PSoC4/cyfitter_cfg.c **** 			{0xD6u, 0x01u},
 578:Generated_Source\PSoC4/cyfitter_cfg.c **** 			{0x04u, 0x04u},
 579:Generated_Source\PSoC4/cyfitter_cfg.c **** 			{0x80u, 0x04u},
 580:Generated_Source\PSoC4/cyfitter_cfg.c **** 			{0x8Cu, 0x10u},
 581:Generated_Source\PSoC4/cyfitter_cfg.c **** 			{0x94u, 0x20u},
 582:Generated_Source\PSoC4/cyfitter_cfg.c **** 			{0xC0u, 0x04u},
 583:Generated_Source\PSoC4/cyfitter_cfg.c **** 			{0xE4u, 0x02u},
 584:Generated_Source\PSoC4/cyfitter_cfg.c **** 			{0x01u, 0x01u},
 585:Generated_Source\PSoC4/cyfitter_cfg.c **** 			{0x10u, 0x01u},
 586:Generated_Source\PSoC4/cyfitter_cfg.c **** 		};
 587:Generated_Source\PSoC4/cyfitter_cfg.c **** 
 588:Generated_Source\PSoC4/cyfitter_cfg.c **** 
 589:Generated_Source\PSoC4/cyfitter_cfg.c **** 
 590:Generated_Source\PSoC4/cyfitter_cfg.c **** 		CYPACKED typedef struct {
 591:Generated_Source\PSoC4/cyfitter_cfg.c **** 			void CYFAR *address;
 592:Generated_Source\PSoC4/cyfitter_cfg.c **** 			uint16 size;
 593:Generated_Source\PSoC4/cyfitter_cfg.c **** 		} CYPACKED_ATTR cfg_memset_t;
 594:Generated_Source\PSoC4/cyfitter_cfg.c **** 
 595:Generated_Source\PSoC4/cyfitter_cfg.c **** 
 596:Generated_Source\PSoC4/cyfitter_cfg.c **** 		CYPACKED typedef struct {
 597:Generated_Source\PSoC4/cyfitter_cfg.c **** 			void CYFAR *dest;
 598:Generated_Source\PSoC4/cyfitter_cfg.c **** 			const void CYCODE *src;
 599:Generated_Source\PSoC4/cyfitter_cfg.c **** 			uint16 size;
 600:Generated_Source\PSoC4/cyfitter_cfg.c **** 		} CYPACKED_ATTR cfg_memcpy_t;
 601:Generated_Source\PSoC4/cyfitter_cfg.c **** 
 602:Generated_Source\PSoC4/cyfitter_cfg.c **** 		static const cfg_memset_t CYCODE cfg_memset_list [] = {
 603:Generated_Source\PSoC4/cyfitter_cfg.c **** 			/* address, size */
 604:Generated_Source\PSoC4/cyfitter_cfg.c **** 			{(void CYFAR *)(CYDEV_UDB_P0_U1_BASE), 896u},
 605:Generated_Source\PSoC4/cyfitter_cfg.c **** 			{(void CYFAR *)(CYDEV_UDB_DSI0_BASE), 1024u},
 606:Generated_Source\PSoC4/cyfitter_cfg.c **** 		};
 607:Generated_Source\PSoC4/cyfitter_cfg.c **** 
 608:Generated_Source\PSoC4/cyfitter_cfg.c **** 		/* UDB_0_1_0_CONFIG Address: CYDEV_UDB_P0_U0_BASE Size (bytes): 128 */
 609:Generated_Source\PSoC4/cyfitter_cfg.c **** 		static const uint8 CYCODE BS_UDB_0_1_0_CONFIG_VAL[] = {
ARM GAS  C:\Users\Petro\AppData\Local\Temp\ccbKo2Qz.s 			page 22


 610:Generated_Source\PSoC4/cyfitter_cfg.c **** 			0x8Du, 0x84u, 0x00u, 0x00u, 0x62u, 0x0Au, 0x14u, 0x10u, 0x02u, 0x80u, 0x0Du, 0x04u, 0x8Du, 0x04u
 611:Generated_Source\PSoC4/cyfitter_cfg.c **** 			0x42u, 0x84u, 0x08u, 0x00u, 0x11u, 0x04u, 0x22u, 0x00u, 0x40u, 0x84u, 0x00u, 0x00u, 0x0Du, 0x01u
 612:Generated_Source\PSoC4/cyfitter_cfg.c **** 			0x00u, 0x60u, 0x00u, 0x00u, 0x8Du, 0x00u, 0x00u, 0x00u, 0x8Du, 0x07u, 0x00u, 0x38u, 0x00u, 0x56u
 613:Generated_Source\PSoC4/cyfitter_cfg.c **** 			0x70u, 0x80u, 0x80u, 0x00u, 0x0Fu, 0x00u, 0x00u, 0x7Fu, 0x00u, 0x80u, 0x22u, 0x00u, 0x00u, 0x00u
 614:Generated_Source\PSoC4/cyfitter_cfg.c **** 			0x24u, 0x03u, 0x50u, 0x00u, 0x06u, 0xDEu, 0xFBu, 0xDCu, 0x3Fu, 0xFFu, 0xFFu, 0xFFu, 0x22u, 0x00u
 615:Generated_Source\PSoC4/cyfitter_cfg.c **** 			0x04u, 0x00u, 0x00u, 0x00u, 0x40u, 0x00u, 0x00u, 0x00u, 0x04u, 0x04u, 0x04u, 0x04u, 0x00u, 0x00u
 616:Generated_Source\PSoC4/cyfitter_cfg.c **** 			0x00u, 0x00u, 0xC0u, 0x00u, 0x40u, 0x01u, 0x10u, 0x11u, 0xC0u, 0x01u, 0x00u, 0x11u, 0x40u, 0x01u
 617:Generated_Source\PSoC4/cyfitter_cfg.c **** 			0x00u, 0x00u, 0x00u, 0x00u, 0x00u, 0x00u, 0x00u, 0x00u, 0x00u, 0x00u, 0x00u, 0x00u, 0x00u, 0x00u
 618:Generated_Source\PSoC4/cyfitter_cfg.c **** 
 619:Generated_Source\PSoC4/cyfitter_cfg.c **** 		static const cfg_memcpy_t CYCODE cfg_memcpy_list [] = {
 620:Generated_Source\PSoC4/cyfitter_cfg.c **** 			/* dest, src, size */
 621:Generated_Source\PSoC4/cyfitter_cfg.c **** 			{(void CYFAR *)(CYDEV_UDB_P0_U0_BASE), BS_UDB_0_1_0_CONFIG_VAL, 128u},
 622:Generated_Source\PSoC4/cyfitter_cfg.c **** 		};
 623:Generated_Source\PSoC4/cyfitter_cfg.c **** 
 624:Generated_Source\PSoC4/cyfitter_cfg.c **** 		uint8 CYDATA i;
 625:Generated_Source\PSoC4/cyfitter_cfg.c **** 
 626:Generated_Source\PSoC4/cyfitter_cfg.c **** 		/* Zero out critical memory blocks before beginning configuration */
 627:Generated_Source\PSoC4/cyfitter_cfg.c **** 		for (i = 0u; i < (sizeof(cfg_memset_list)/sizeof(cfg_memset_list[0])); i++)
 586              		.loc 1 627 0
 587 019c 1723     		mov	r3, #23
 588 019e FB18     		add	r3, r7, r3
 589 01a0 0022     		mov	r2, #0
 590 01a2 1A70     		strb	r2, [r3]
 591 01a4 26E0     		b	.L22
 592              	.L23:
 593              	.LBB4:
 628:Generated_Source\PSoC4/cyfitter_cfg.c **** 		{
 629:Generated_Source\PSoC4/cyfitter_cfg.c **** 			const cfg_memset_t CYCODE * CYDATA ms = &cfg_memset_list[i];
 594              		.loc 1 629 0 discriminator 3
 595 01a6 1723     		mov	r3, #23
 596 01a8 FB18     		add	r3, r7, r3
 597 01aa 1A78     		ldrb	r2, [r3]
 598 01ac 131C     		mov	r3, r2
 599 01ae 5B00     		lsl	r3, r3, #1
 600 01b0 9B18     		add	r3, r3, r2
 601 01b2 5B00     		lsl	r3, r3, #1
 602 01b4 6C4A     		ldr	r2, .L26+8
 603 01b6 9B18     		add	r3, r3, r2
 604 01b8 3B61     		str	r3, [r7, #16]
 630:Generated_Source\PSoC4/cyfitter_cfg.c **** 			CYMEMZERO(ms->address, (size_t)(uint32)(ms->size));
 605              		.loc 1 630 0 discriminator 3
 606 01ba 3B69     		ldr	r3, [r7, #16]
 607 01bc 1A78     		ldrb	r2, [r3]
 608 01be 5978     		ldrb	r1, [r3, #1]
 609 01c0 0902     		lsl	r1, r1, #8
 610 01c2 0A43     		orr	r2, r1
 611 01c4 9978     		ldrb	r1, [r3, #2]
 612 01c6 0904     		lsl	r1, r1, #16
 613 01c8 0A43     		orr	r2, r1
 614 01ca DB78     		ldrb	r3, [r3, #3]
 615 01cc 1B06     		lsl	r3, r3, #24
 616 01ce 1343     		orr	r3, r2
 617 01d0 191C     		mov	r1, r3
 618 01d2 3B69     		ldr	r3, [r7, #16]
 619 01d4 1A79     		ldrb	r2, [r3, #4]
 620 01d6 5B79     		ldrb	r3, [r3, #5]
 621 01d8 1B02     		lsl	r3, r3, #8
ARM GAS  C:\Users\Petro\AppData\Local\Temp\ccbKo2Qz.s 			page 23


 622 01da 1343     		orr	r3, r2
 623 01dc 9BB2     		uxth	r3, r3
 624 01de 081C     		mov	r0, r1
 625 01e0 191C     		mov	r1, r3
 626 01e2 FFF7FEFF 		bl	CYMEMZERO
 627              	.LBE4:
 627:Generated_Source\PSoC4/cyfitter_cfg.c **** 		{
 628              		.loc 1 627 0 discriminator 3
 629 01e6 1723     		mov	r3, #23
 630 01e8 FB18     		add	r3, r7, r3
 631 01ea 1A78     		ldrb	r2, [r3]
 632 01ec 1723     		mov	r3, #23
 633 01ee FB18     		add	r3, r7, r3
 634 01f0 0132     		add	r2, r2, #1
 635 01f2 1A70     		strb	r2, [r3]
 636              	.L22:
 627:Generated_Source\PSoC4/cyfitter_cfg.c **** 		{
 637              		.loc 1 627 0 is_stmt 0 discriminator 1
 638 01f4 1723     		mov	r3, #23
 639 01f6 FB18     		add	r3, r7, r3
 640 01f8 1B78     		ldrb	r3, [r3]
 641 01fa 012B     		cmp	r3, #1
 642 01fc D3D9     		bls	.L23
 631:Generated_Source\PSoC4/cyfitter_cfg.c **** 		}
 632:Generated_Source\PSoC4/cyfitter_cfg.c **** 
 633:Generated_Source\PSoC4/cyfitter_cfg.c **** 		/* Copy device configuration data into registers */
 634:Generated_Source\PSoC4/cyfitter_cfg.c **** 		for (i = 0u; i < (sizeof(cfg_memcpy_list)/sizeof(cfg_memcpy_list[0])); i++)
 643              		.loc 1 634 0 is_stmt 1
 644 01fe 1723     		mov	r3, #23
 645 0200 FB18     		add	r3, r7, r3
 646 0202 0022     		mov	r2, #0
 647 0204 1A70     		strb	r2, [r3]
 648 0206 38E0     		b	.L24
 649              	.L25:
 650              	.LBB5:
 635:Generated_Source\PSoC4/cyfitter_cfg.c **** 		{
 636:Generated_Source\PSoC4/cyfitter_cfg.c **** 			const cfg_memcpy_t CYCODE * CYDATA mc = &cfg_memcpy_list[i];
 651              		.loc 1 636 0 discriminator 3
 652 0208 1723     		mov	r3, #23
 653 020a FB18     		add	r3, r7, r3
 654 020c 1A78     		ldrb	r2, [r3]
 655 020e 131C     		mov	r3, r2
 656 0210 9B00     		lsl	r3, r3, #2
 657 0212 9B18     		add	r3, r3, r2
 658 0214 5B00     		lsl	r3, r3, #1
 659 0216 554A     		ldr	r2, .L26+12
 660 0218 9B18     		add	r3, r3, r2
 661 021a FB60     		str	r3, [r7, #12]
 637:Generated_Source\PSoC4/cyfitter_cfg.c **** 			void * CYDATA destPtr = mc->dest;
 662              		.loc 1 637 0 discriminator 3
 663 021c FB68     		ldr	r3, [r7, #12]
 664 021e 1A78     		ldrb	r2, [r3]
 665 0220 5978     		ldrb	r1, [r3, #1]
 666 0222 0902     		lsl	r1, r1, #8
 667 0224 0A43     		orr	r2, r1
 668 0226 9978     		ldrb	r1, [r3, #2]
 669 0228 0904     		lsl	r1, r1, #16
ARM GAS  C:\Users\Petro\AppData\Local\Temp\ccbKo2Qz.s 			page 24


 670 022a 0A43     		orr	r2, r1
 671 022c DB78     		ldrb	r3, [r3, #3]
 672 022e 1B06     		lsl	r3, r3, #24
 673 0230 1343     		orr	r3, r2
 674 0232 BB60     		str	r3, [r7, #8]
 638:Generated_Source\PSoC4/cyfitter_cfg.c **** 			const void CYCODE * CYDATA srcPtr = mc->src;
 675              		.loc 1 638 0 discriminator 3
 676 0234 FB68     		ldr	r3, [r7, #12]
 677 0236 1A79     		ldrb	r2, [r3, #4]
 678 0238 5979     		ldrb	r1, [r3, #5]
 679 023a 0902     		lsl	r1, r1, #8
 680 023c 0A43     		orr	r2, r1
 681 023e 9979     		ldrb	r1, [r3, #6]
 682 0240 0904     		lsl	r1, r1, #16
 683 0242 0A43     		orr	r2, r1
 684 0244 DB79     		ldrb	r3, [r3, #7]
 685 0246 1B06     		lsl	r3, r3, #24
 686 0248 1343     		orr	r3, r2
 687 024a 7B60     		str	r3, [r7, #4]
 639:Generated_Source\PSoC4/cyfitter_cfg.c **** 			uint16 CYDATA numBytes = mc->size;
 688              		.loc 1 639 0 discriminator 3
 689 024c BA1C     		add	r2, r7, #2
 690 024e FB68     		ldr	r3, [r7, #12]
 691 0250 197A     		ldrb	r1, [r3, #8]
 692 0252 5B7A     		ldrb	r3, [r3, #9]
 693 0254 1B02     		lsl	r3, r3, #8
 694 0256 0B43     		orr	r3, r1
 695 0258 1380     		strh	r3, [r2]
 640:Generated_Source\PSoC4/cyfitter_cfg.c **** 			CYCONFIGCPYCODE(destPtr, srcPtr, numBytes);
 696              		.loc 1 640 0 discriminator 3
 697 025a BB1C     		add	r3, r7, #2
 698 025c 1B88     		ldrh	r3, [r3]
 699 025e B968     		ldr	r1, [r7, #8]
 700 0260 7A68     		ldr	r2, [r7, #4]
 701 0262 081C     		mov	r0, r1
 702 0264 111C     		mov	r1, r2
 703 0266 1A1C     		mov	r2, r3
 704 0268 FFF7FEFF 		bl	CYCONFIGCPYCODE
 705              	.LBE5:
 634:Generated_Source\PSoC4/cyfitter_cfg.c **** 		{
 706              		.loc 1 634 0 discriminator 3
 707 026c 1723     		mov	r3, #23
 708 026e FB18     		add	r3, r7, r3
 709 0270 1A78     		ldrb	r2, [r3]
 710 0272 1723     		mov	r3, #23
 711 0274 FB18     		add	r3, r7, r3
 712 0276 0132     		add	r2, r2, #1
 713 0278 1A70     		strb	r2, [r3]
 714              	.L24:
 634:Generated_Source\PSoC4/cyfitter_cfg.c **** 		{
 715              		.loc 1 634 0 is_stmt 0 discriminator 1
 716 027a 1723     		mov	r3, #23
 717 027c FB18     		add	r3, r7, r3
 718 027e 1B78     		ldrb	r3, [r3]
 719 0280 002B     		cmp	r3, #0
 720 0282 C1D0     		beq	.L25
 641:Generated_Source\PSoC4/cyfitter_cfg.c **** 		}
ARM GAS  C:\Users\Petro\AppData\Local\Temp\ccbKo2Qz.s 			page 25


 642:Generated_Source\PSoC4/cyfitter_cfg.c **** 
 643:Generated_Source\PSoC4/cyfitter_cfg.c **** 		cfg_write_bytes32(cy_cfg_addr_table, cy_cfg_data_table);
 721              		.loc 1 643 0 is_stmt 1
 722 0284 3A4A     		ldr	r2, .L26+16
 723 0286 3B4B     		ldr	r3, .L26+20
 724 0288 101C     		mov	r0, r2
 725 028a 191C     		mov	r1, r3
 726 028c FFF7FEFF 		bl	cfg_write_bytes32
 644:Generated_Source\PSoC4/cyfitter_cfg.c **** 
 645:Generated_Source\PSoC4/cyfitter_cfg.c **** 		/* HSIOM Starting address: CYDEV_HSIOM_BASE */
 646:Generated_Source\PSoC4/cyfitter_cfg.c **** 		CY_SET_XTND_REG32((void CYFAR *)(CYDEV_HSIOM_BASE), 0xEE990000u);
 727              		.loc 1 646 0
 728 0290 394B     		ldr	r3, .L26+24
 729 0292 3A4A     		ldr	r2, .L26+28
 730 0294 1A60     		str	r2, [r3]
 647:Generated_Source\PSoC4/cyfitter_cfg.c **** 		CY_SET_XTND_REG32((void CYFAR *)(CYREG_HSIOM_PORT_SEL1), 0x00030000u);
 731              		.loc 1 647 0
 732 0296 3A4B     		ldr	r3, .L26+32
 733 0298 C022     		mov	r2, #192
 734 029a 9202     		lsl	r2, r2, #10
 735 029c 1A60     		str	r2, [r3]
 648:Generated_Source\PSoC4/cyfitter_cfg.c **** 		CY_SET_XTND_REG32((void CYFAR *)(CYREG_HSIOM_PORT_SEL2), 0x00030300u);
 736              		.loc 1 648 0
 737 029e 394B     		ldr	r3, .L26+36
 738 02a0 394A     		ldr	r2, .L26+40
 739 02a2 1A60     		str	r2, [r3]
 649:Generated_Source\PSoC4/cyfitter_cfg.c **** 
 650:Generated_Source\PSoC4/cyfitter_cfg.c **** 		/* UDB_PA_0 Starting address: CYDEV_UDB_PA0_BASE */
 651:Generated_Source\PSoC4/cyfitter_cfg.c **** 		CY_SET_XTND_REG32((void CYFAR *)(CYDEV_UDB_PA0_BASE), 0x00990000u);
 740              		.loc 1 651 0
 741 02a4 394B     		ldr	r3, .L26+44
 742 02a6 9922     		mov	r2, #153
 743 02a8 1204     		lsl	r2, r2, #16
 744 02aa 1A60     		str	r2, [r3]
 652:Generated_Source\PSoC4/cyfitter_cfg.c **** 
 653:Generated_Source\PSoC4/cyfitter_cfg.c **** 		/* UDB_PA_1 Starting address: CYDEV_UDB_PA1_BASE */
 654:Generated_Source\PSoC4/cyfitter_cfg.c **** 		CY_SET_XTND_REG32((void CYFAR *)(CYDEV_UDB_PA1_BASE), 0x00990000u);
 745              		.loc 1 654 0
 746 02ac 384B     		ldr	r3, .L26+48
 747 02ae 9922     		mov	r2, #153
 748 02b0 1204     		lsl	r2, r2, #16
 749 02b2 1A60     		str	r2, [r3]
 655:Generated_Source\PSoC4/cyfitter_cfg.c **** 		CY_SET_XTND_REG32((void CYFAR *)(CYREG_UDB_PA1_CFG8), 0x02000000u);
 750              		.loc 1 655 0
 751 02b4 374B     		ldr	r3, .L26+52
 752 02b6 8022     		mov	r2, #128
 753 02b8 9204     		lsl	r2, r2, #18
 754 02ba 1A60     		str	r2, [r3]
 656:Generated_Source\PSoC4/cyfitter_cfg.c **** 
 657:Generated_Source\PSoC4/cyfitter_cfg.c **** 		/* UDB_PA_2 Starting address: CYDEV_UDB_PA2_BASE */
 658:Generated_Source\PSoC4/cyfitter_cfg.c **** 		CY_SET_XTND_REG32((void CYFAR *)(CYDEV_UDB_PA2_BASE), 0x00990000u);
 755              		.loc 1 658 0
 756 02bc 364B     		ldr	r3, .L26+56
 757 02be 9922     		mov	r2, #153
 758 02c0 1204     		lsl	r2, r2, #16
 759 02c2 1A60     		str	r2, [r3]
 659:Generated_Source\PSoC4/cyfitter_cfg.c **** 		CY_SET_XTND_REG32((void CYFAR *)(CYREG_UDB_PA2_CFG8), 0x01450000u);
ARM GAS  C:\Users\Petro\AppData\Local\Temp\ccbKo2Qz.s 			page 26


 760              		.loc 1 659 0
 761 02c4 354B     		ldr	r3, .L26+60
 762 02c6 364A     		ldr	r2, .L26+64
 763 02c8 1A60     		str	r2, [r3]
 660:Generated_Source\PSoC4/cyfitter_cfg.c **** 
 661:Generated_Source\PSoC4/cyfitter_cfg.c **** 		/* UDB_PA_3 Starting address: CYDEV_UDB_PA3_BASE */
 662:Generated_Source\PSoC4/cyfitter_cfg.c **** 		CY_SET_XTND_REG32((void CYFAR *)(CYDEV_UDB_PA3_BASE), 0x00990000u);
 764              		.loc 1 662 0
 765 02ca 364B     		ldr	r3, .L26+68
 766 02cc 9922     		mov	r2, #153
 767 02ce 1204     		lsl	r2, r2, #16
 768 02d0 1A60     		str	r2, [r3]
 663:Generated_Source\PSoC4/cyfitter_cfg.c **** 
 664:Generated_Source\PSoC4/cyfitter_cfg.c **** 		/* INT_SELECT Starting address: CYDEV_CPUSS_INT_SEL */
 665:Generated_Source\PSoC4/cyfitter_cfg.c **** 		CY_SET_XTND_REG32((void CYFAR *)(CYREG_CPUSS_INT_SEL), 0x00000002u);
 769              		.loc 1 665 0
 770 02d2 354B     		ldr	r3, .L26+72
 771 02d4 0222     		mov	r2, #2
 772 02d6 1A60     		str	r2, [r3]
 666:Generated_Source\PSoC4/cyfitter_cfg.c **** 
 667:Generated_Source\PSoC4/cyfitter_cfg.c **** 		/* INT_CONFIG Starting address: CYDEV_UDB_INT_CFG */
 668:Generated_Source\PSoC4/cyfitter_cfg.c **** 		CY_SET_XTND_REG32((void CYFAR *)(CYREG_UDB_INT_CFG), 0x00000002u);
 773              		.loc 1 668 0
 774 02d8 344B     		ldr	r3, .L26+76
 775 02da 0222     		mov	r2, #2
 776 02dc 1A60     		str	r2, [r3]
 669:Generated_Source\PSoC4/cyfitter_cfg.c **** 
 670:Generated_Source\PSoC4/cyfitter_cfg.c **** 		/* Enable digital routing */
 671:Generated_Source\PSoC4/cyfitter_cfg.c **** 		CY_SET_XTND_REG8((void *)CYREG_UDB_UDBIF_BANK_CTL, CY_GET_XTND_REG8((void *)CYREG_UDB_UDBIF_BANK_
 777              		.loc 1 671 0
 778 02de 344A     		ldr	r2, .L26+80
 779 02e0 334B     		ldr	r3, .L26+80
 780 02e2 1B78     		ldrb	r3, [r3]
 781 02e4 DBB2     		uxtb	r3, r3
 782 02e6 0221     		mov	r1, #2
 783 02e8 0B43     		orr	r3, r1
 784 02ea DBB2     		uxtb	r3, r3
 785 02ec 1370     		strb	r3, [r2]
 672:Generated_Source\PSoC4/cyfitter_cfg.c **** 
 673:Generated_Source\PSoC4/cyfitter_cfg.c **** 		/* Enable UDB array */
 674:Generated_Source\PSoC4/cyfitter_cfg.c **** 		CY_SET_XTND_REG8((void *)CYREG_UDB_UDBIF_WAIT_CFG, (uint8)((CY_GET_XTND_REG8((void *)CYREG_UDB_UD
 786              		.loc 1 674 0
 787 02ee 314A     		ldr	r2, .L26+84
 788 02f0 304B     		ldr	r3, .L26+84
 789 02f2 1B78     		ldrb	r3, [r3]
 790 02f4 DBB2     		uxtb	r3, r3
 791 02f6 3C21     		mov	r1, #60
 792 02f8 8B43     		bic	r3, r1
 793 02fa DBB2     		uxtb	r3, r3
 794 02fc 1421     		mov	r1, #20
 795 02fe 0B43     		orr	r3, r1
 796 0300 DBB2     		uxtb	r3, r3
 797 0302 1370     		strb	r3, [r2]
 675:Generated_Source\PSoC4/cyfitter_cfg.c **** 		CY_SET_XTND_REG8((void *)CYREG_UDB_UDBIF_BANK_CTL, (uint8)(CY_GET_XTND_REG8((void *)CYREG_UDB_UDB
 798              		.loc 1 675 0
 799 0304 2A4A     		ldr	r2, .L26+80
 800 0306 2A4B     		ldr	r3, .L26+80
ARM GAS  C:\Users\Petro\AppData\Local\Temp\ccbKo2Qz.s 			page 27


 801 0308 1B78     		ldrb	r3, [r3]
 802 030a DBB2     		uxtb	r3, r3
 803 030c 1621     		mov	r1, #22
 804 030e 0B43     		orr	r3, r1
 805 0310 DBB2     		uxtb	r3, r3
 806 0312 1370     		strb	r3, [r2]
 807              	.LBE3:
 676:Generated_Source\PSoC4/cyfitter_cfg.c **** 	}
 677:Generated_Source\PSoC4/cyfitter_cfg.c **** 
 678:Generated_Source\PSoC4/cyfitter_cfg.c **** 	/* Perform second pass device configuration. These items must be configured in specific order afte
 679:Generated_Source\PSoC4/cyfitter_cfg.c **** 	/* IOPINS0_0 Starting address: CYDEV_GPIO_PRT0_BASE */
 680:Generated_Source\PSoC4/cyfitter_cfg.c **** 	CY_SET_XTND_REG32((void CYFAR *)(CYDEV_GPIO_PRT0_BASE), 0x00000020u);
 808              		.loc 1 680 0
 809 0314 284B     		ldr	r3, .L26+88
 810 0316 2022     		mov	r2, #32
 811 0318 1A60     		str	r2, [r3]
 681:Generated_Source\PSoC4/cyfitter_cfg.c **** 	CY_SET_XTND_REG32((void CYFAR *)(CYREG_GPIO_PRT0_PC), 0x00DB1036u);
 812              		.loc 1 681 0
 813 031a 284B     		ldr	r3, .L26+92
 814 031c 284A     		ldr	r2, .L26+96
 815 031e 1A60     		str	r2, [r3]
 682:Generated_Source\PSoC4/cyfitter_cfg.c **** 	CY_SET_XTND_REG32((void CYFAR *)(CYREG_GPIO_PRT0_PC2), 0x00000020u);
 816              		.loc 1 682 0
 817 0320 284B     		ldr	r3, .L26+100
 818 0322 2022     		mov	r2, #32
 819 0324 1A60     		str	r2, [r3]
 683:Generated_Source\PSoC4/cyfitter_cfg.c **** 
 684:Generated_Source\PSoC4/cyfitter_cfg.c **** 	/* IOPINS0_1 Starting address: CYDEV_GPIO_PRT1_BASE */
 685:Generated_Source\PSoC4/cyfitter_cfg.c **** 	CY_SET_XTND_REG32((void CYFAR *)(CYDEV_GPIO_PRT1_BASE), 0x00000010u);
 820              		.loc 1 685 0
 821 0326 284B     		ldr	r3, .L26+104
 822 0328 1022     		mov	r2, #16
 823 032a 1A60     		str	r2, [r3]
 686:Generated_Source\PSoC4/cyfitter_cfg.c **** 	CY_SET_XTND_REG32((void CYFAR *)(CYREG_GPIO_PRT1_PC), 0x001B6040u);
 824              		.loc 1 686 0
 825 032c 274B     		ldr	r3, .L26+108
 826 032e 284A     		ldr	r2, .L26+112
 827 0330 1A60     		str	r2, [r3]
 687:Generated_Source\PSoC4/cyfitter_cfg.c **** 
 688:Generated_Source\PSoC4/cyfitter_cfg.c **** 	/* IOPINS0_2 Starting address: CYDEV_GPIO_PRT2_BASE */
 689:Generated_Source\PSoC4/cyfitter_cfg.c **** 	CY_SET_XTND_REG32((void CYFAR *)(CYDEV_GPIO_PRT2_BASE), 0x00000014u);
 828              		.loc 1 689 0
 829 0332 284B     		ldr	r3, .L26+116
 830 0334 1422     		mov	r2, #20
 831 0336 1A60     		str	r2, [r3]
 690:Generated_Source\PSoC4/cyfitter_cfg.c **** 	CY_SET_XTND_REG32((void CYFAR *)(CYREG_GPIO_PRT2_PC), 0x00006180u);
 832              		.loc 1 690 0
 833 0338 274B     		ldr	r3, .L26+120
 834 033a C322     		mov	r2, #195
 835 033c D201     		lsl	r2, r2, #7
 836 033e 1A60     		str	r2, [r3]
 691:Generated_Source\PSoC4/cyfitter_cfg.c **** 
 692:Generated_Source\PSoC4/cyfitter_cfg.c **** 	/* IOPINS0_3 Starting address: CYDEV_GPIO_PRT3_BASE */
 693:Generated_Source\PSoC4/cyfitter_cfg.c **** 	CY_SET_XTND_REG32((void CYFAR *)(CYDEV_GPIO_PRT3_BASE), 0x00000003u);
 837              		.loc 1 693 0
 838 0340 264B     		ldr	r3, .L26+124
 839 0342 0322     		mov	r2, #3
ARM GAS  C:\Users\Petro\AppData\Local\Temp\ccbKo2Qz.s 			page 28


 840 0344 1A60     		str	r2, [r3]
 694:Generated_Source\PSoC4/cyfitter_cfg.c **** 	CY_SET_XTND_REG32((void CYFAR *)(CYREG_GPIO_PRT3_PC), 0x00034010u);
 841              		.loc 1 694 0
 842 0346 264B     		ldr	r3, .L26+128
 843 0348 264A     		ldr	r2, .L26+132
 844 034a 1A60     		str	r2, [r3]
 695:Generated_Source\PSoC4/cyfitter_cfg.c **** 	CY_SET_XTND_REG32((void CYFAR *)(CYREG_GPIO_PRT3_PC2), 0x00000001u);
 845              		.loc 1 695 0
 846 034c 264B     		ldr	r3, .L26+136
 847 034e 0122     		mov	r2, #1
 848 0350 1A60     		str	r2, [r3]
 696:Generated_Source\PSoC4/cyfitter_cfg.c **** 
 697:Generated_Source\PSoC4/cyfitter_cfg.c **** 
 698:Generated_Source\PSoC4/cyfitter_cfg.c **** 	/* Setup clocks based on selections from Clock DWR */
 699:Generated_Source\PSoC4/cyfitter_cfg.c **** 	ClockSetup();
 849              		.loc 1 699 0
 850 0352 FFF755FE 		bl	ClockSetup
 700:Generated_Source\PSoC4/cyfitter_cfg.c **** 
 701:Generated_Source\PSoC4/cyfitter_cfg.c **** 	/* Perform basic analog initialization to defaults */
 702:Generated_Source\PSoC4/cyfitter_cfg.c **** 	AnalogSetDefault();
 851              		.loc 1 702 0
 852 0356 FFF7FEFF 		bl	AnalogSetDefault
 703:Generated_Source\PSoC4/cyfitter_cfg.c **** 
 704:Generated_Source\PSoC4/cyfitter_cfg.c **** }
 853              		.loc 1 704 0
 854 035a BD46     		mov	sp, r7
 855 035c 06B0     		add	sp, sp, #24
 856              		@ sp needed
 857 035e 80BD     		pop	{r7, pc}
 858              	.L27:
 859              		.align	2
 860              	.L26:
 861 0360 6CF02E40 		.word	1076818028
 862 0364 1C700F40 		.word	1074753564
 863 0368 00000000 		.word	cfg_memset_list.4795
 864 036c 0C000000 		.word	cfg_memcpy_list.4797
 865 0370 18000000 		.word	cy_cfg_addr_table.4784
 866 0374 40000000 		.word	cy_cfg_data_table.4785
 867 0378 00000240 		.word	1073872896
 868 037c 000099EE 		.word	-291962880
 869 0380 00010240 		.word	1073873152
 870 0384 00020240 		.word	1073873408
 871 0388 00030300 		.word	197376
 872 038c 00500F40 		.word	1074745344
 873 0390 10500F40 		.word	1074745360
 874 0394 18500F40 		.word	1074745368
 875 0398 20500F40 		.word	1074745376
 876 039c 28500F40 		.word	1074745384
 877 03a0 00004501 		.word	21299200
 878 03a4 30500F40 		.word	1074745392
 879 03a8 20001040 		.word	1074790432
 880 03ac 00800F40 		.word	1074757632
 881 03b0 00700F40 		.word	1074753536
 882 03b4 01700F40 		.word	1074753537
 883 03b8 00000440 		.word	1074003968
 884 03bc 08000440 		.word	1074003976
 885 03c0 3610DB00 		.word	14356534
ARM GAS  C:\Users\Petro\AppData\Local\Temp\ccbKo2Qz.s 			page 29


 886 03c4 18000440 		.word	1074003992
 887 03c8 00010440 		.word	1074004224
 888 03cc 08010440 		.word	1074004232
 889 03d0 40601B00 		.word	1794112
 890 03d4 00020440 		.word	1074004480
 891 03d8 08020440 		.word	1074004488
 892 03dc 00030440 		.word	1074004736
 893 03e0 08030440 		.word	1074004744
 894 03e4 10400300 		.word	213008
 895 03e8 18030440 		.word	1074004760
 896              		.cfi_endproc
 897              	.LFE9:
 898              		.size	cyfitter_cfg, .-cyfitter_cfg
 899              		.section	.rodata
 900              		.align	2
 901              		.type	cfg_memset_list.4795, %object
 902              		.size	cfg_memset_list.4795, 12
 903              	cfg_memset_list.4795:
 904 0000 80300F40 		.word	1074737280
 905 0004 8003     		.short	896
 906 0006 00400F40 		.4byte	1074741248
 907 000a 0004     		.short	1024
 908              		.align	2
 909              		.type	cfg_memcpy_list.4797, %object
 910              		.size	cfg_memcpy_list.4797, 10
 911              	cfg_memcpy_list.4797:
 912 000c 00300F40 		.word	1074737152
 913 0010 E8010000 		.word	BS_UDB_0_1_0_CONFIG_VAL.4796
 914 0014 8000     		.short	128
 915 0016 0000     		.align	2
 916              		.type	cy_cfg_addr_table.4784, %object
 917              		.size	cy_cfg_addr_table.4784, 40
 918              	cy_cfg_addr_table.4784:
 919 0018 01000F40 		.word	1074724865
 920 001c 04300F40 		.word	1074737156
 921 0020 31310F40 		.word	1074737457
 922 0024 47320F40 		.word	1074737735
 923 0028 3F330F40 		.word	1074737983
 924 002c 01400F40 		.word	1074741249
 925 0030 0A410F40 		.word	1074741514
 926 0034 05420F40 		.word	1074741765
 927 0038 06430F40 		.word	1074742022
 928 003c 02600F40 		.word	1074749442
 929              		.align	2
 930              		.type	cy_cfg_data_table.4785, %object
 931              		.size	cy_cfg_data_table.4785, 424
 932              	cy_cfg_data_table.4785:
 933 0040 81       		.byte	-127
 934 0041 0F       		.byte	15
 935 0042 D6       		.byte	-42
 936 0043 02       		.byte	2
 937 0044 D7       		.byte	-41
 938 0045 24       		.byte	36
 939 0046 DB       		.byte	-37
 940 0047 04       		.byte	4
 941 0048 DF       		.byte	-33
 942 0049 01       		.byte	1
ARM GAS  C:\Users\Petro\AppData\Local\Temp\ccbKo2Qz.s 			page 30


 943 004a 00       		.byte	0
 944 004b 04       		.byte	4
 945 004c 01       		.byte	1
 946 004d 21       		.byte	33
 947 004e 03       		.byte	3
 948 004f 01       		.byte	1
 949 0050 09       		.byte	9
 950 0051 40       		.byte	64
 951 0052 0A       		.byte	10
 952 0053 50       		.byte	80
 953 0054 0B       		.byte	11
 954 0055 08       		.byte	8
 955 0056 10       		.byte	16
 956 0057 22       		.byte	34
 957 0058 11       		.byte	17
 958 0059 10       		.byte	16
 959 005a 18       		.byte	24
 960 005b 50       		.byte	80
 961 005c 19       		.byte	25
 962 005d 22       		.byte	34
 963 005e 1A       		.byte	26
 964 005f 40       		.byte	64
 965 0060 1B       		.byte	27
 966 0061 01       		.byte	1
 967 0062 21       		.byte	33
 968 0063 80       		.byte	-128
 969 0064 22       		.byte	34
 970 0065 03       		.byte	3
 971 0066 2B       		.byte	43
 972 0067 89       		.byte	-119
 973 0068 30       		.byte	48
 974 0069 20       		.byte	32
 975 006a 31       		.byte	49
 976 006b 88       		.byte	-120
 977 006c 33       		.byte	51
 978 006d 01       		.byte	1
 979 006e 38       		.byte	56
 980 006f 04       		.byte	4
 981 0070 39       		.byte	57
 982 0071 51       		.byte	81
 983 0072 40       		.byte	64
 984 0073 44       		.byte	68
 985 0074 43       		.byte	67
 986 0075 08       		.byte	8
 987 0076 48       		.byte	72
 988 0077 04       		.byte	4
 989 0078 49       		.byte	73
 990 0079 08       		.byte	8
 991 007a 4A       		.byte	74
 992 007b 02       		.byte	2
 993 007c 4B       		.byte	75
 994 007d 01       		.byte	1
 995 007e 50       		.byte	80
 996 007f 02       		.byte	2
 997 0080 51       		.byte	81
 998 0081 24       		.byte	36
 999 0082 53       		.byte	83
ARM GAS  C:\Users\Petro\AppData\Local\Temp\ccbKo2Qz.s 			page 31


 1000 0083 84       		.byte	-124
 1001 0084 60       		.byte	96
 1002 0085 10       		.byte	16
 1003 0086 61       		.byte	97
 1004 0087 20       		.byte	32
 1005 0088 63       		.byte	99
 1006 0089 01       		.byte	1
 1007 008a 67       		.byte	103
 1008 008b 04       		.byte	4
 1009 008c 6C       		.byte	108
 1010 008d 20       		.byte	32
 1011 008e 6D       		.byte	109
 1012 008f D1       		.byte	-47
 1013 0090 77       		.byte	119
 1014 0091 01       		.byte	1
 1015 0092 85       		.byte	-123
 1016 0093 80       		.byte	-128
 1017 0094 88       		.byte	-120
 1018 0095 04       		.byte	4
 1019 0096 C0       		.byte	-64
 1020 0097 0F       		.byte	15
 1021 0098 C2       		.byte	-62
 1022 0099 0F       		.byte	15
 1023 009a C4       		.byte	-60
 1024 009b 07       		.byte	7
 1025 009c CA       		.byte	-54
 1026 009d 0D       		.byte	13
 1027 009e CC       		.byte	-52
 1028 009f 0F       		.byte	15
 1029 00a0 CE       		.byte	-50
 1030 00a1 0F       		.byte	15
 1031 00a2 D0       		.byte	-48
 1032 00a3 07       		.byte	7
 1033 00a4 D2       		.byte	-46
 1034 00a5 0C       		.byte	12
 1035 00a6 D8       		.byte	-40
 1036 00a7 2E       		.byte	46
 1037 00a8 E0       		.byte	-32
 1038 00a9 20       		.byte	32
 1039 00aa E4       		.byte	-28
 1040 00ab 02       		.byte	2
 1041 00ac 00       		.byte	0
 1042 00ad 14       		.byte	20
 1043 00ae 02       		.byte	2
 1044 00af 29       		.byte	41
 1045 00b0 04       		.byte	4
 1046 00b1 33       		.byte	51
 1047 00b2 06       		.byte	6
 1048 00b3 04       		.byte	4
 1049 00b4 08       		.byte	8
 1050 00b5 0E       		.byte	14
 1051 00b6 0C       		.byte	12
 1052 00b7 30       		.byte	48
 1053 00b8 14       		.byte	20
 1054 00b9 10       		.byte	16
 1055 00ba 18       		.byte	24
 1056 00bb 05       		.byte	5
ARM GAS  C:\Users\Petro\AppData\Local\Temp\ccbKo2Qz.s 			page 32


 1057 00bc 1A       		.byte	26
 1058 00bd 1A       		.byte	26
 1059 00be 1C       		.byte	28
 1060 00bf 10       		.byte	16
 1061 00c0 1E       		.byte	30
 1062 00c1 20       		.byte	32
 1063 00c2 20       		.byte	32
 1064 00c3 30       		.byte	48
 1065 00c4 24       		.byte	36
 1066 00c5 20       		.byte	32
 1067 00c6 28       		.byte	40
 1068 00c7 20       		.byte	32
 1069 00c8 2A       		.byte	42
 1070 00c9 10       		.byte	16
 1071 00ca 2C       		.byte	44
 1072 00cb 10       		.byte	16
 1073 00cc 2E       		.byte	46
 1074 00cd 20       		.byte	32
 1075 00ce 32       		.byte	50
 1076 00cf 31       		.byte	49
 1077 00d0 34       		.byte	52
 1078 00d1 0F       		.byte	15
 1079 00d2 38       		.byte	56
 1080 00d3 20       		.byte	32
 1081 00d4 58       		.byte	88
 1082 00d5 04       		.byte	4
 1083 00d6 5F       		.byte	95
 1084 00d7 01       		.byte	1
 1085 00d8 80       		.byte	-128
 1086 00d9 1C       		.byte	28
 1087 00da 81       		.byte	-127
 1088 00db 04       		.byte	4
 1089 00dc 82       		.byte	-126
 1090 00dd 63       		.byte	99
 1091 00de 84       		.byte	-124
 1092 00df 11       		.byte	17
 1093 00e0 85       		.byte	-123
 1094 00e1 10       		.byte	16
 1095 00e2 86       		.byte	-122
 1096 00e3 68       		.byte	104
 1097 00e4 87       		.byte	-121
 1098 00e5 68       		.byte	104
 1099 00e6 88       		.byte	-120
 1100 00e7 33       		.byte	51
 1101 00e8 8A       		.byte	-118
 1102 00e9 04       		.byte	4
 1103 00ea 8B       		.byte	-117
 1104 00eb 04       		.byte	4
 1105 00ec 8C       		.byte	-116
 1106 00ed 0A       		.byte	10
 1107 00ee 8D       		.byte	-115
 1108 00ef 04       		.byte	4
 1109 00f0 91       		.byte	-111
 1110 00f1 04       		.byte	4
 1111 00f2 92       		.byte	-110
 1112 00f3 40       		.byte	64
 1113 00f4 94       		.byte	-108
ARM GAS  C:\Users\Petro\AppData\Local\Temp\ccbKo2Qz.s 			page 33


 1114 00f5 08       		.byte	8
 1115 00f6 95       		.byte	-107
 1116 00f7 01       		.byte	1
 1117 00f8 97       		.byte	-105
 1118 00f9 06       		.byte	6
 1119 00fa 98       		.byte	-104
 1120 00fb 02       		.byte	2
 1121 00fc 99       		.byte	-103
 1122 00fd 04       		.byte	4
 1123 00fe 9C       		.byte	-100
 1124 00ff 08       		.byte	8
 1125 0100 9E       		.byte	-98
 1126 0101 02       		.byte	2
 1127 0102 A0       		.byte	-96
 1128 0103 0A       		.byte	10
 1129 0104 A1       		.byte	-95
 1130 0105 4F       		.byte	79
 1131 0106 A3       		.byte	-93
 1132 0107 B0       		.byte	-80
 1133 0108 A4       		.byte	-92
 1134 0109 08       		.byte	8
 1135 010a A5       		.byte	-91
 1136 010b A9       		.byte	-87
 1137 010c A6       		.byte	-90
 1138 010d 02       		.byte	2
 1139 010e A7       		.byte	-89
 1140 010f 56       		.byte	86
 1141 0110 A8       		.byte	-88
 1142 0111 02       		.byte	2
 1143 0112 A9       		.byte	-87
 1144 0113 18       		.byte	24
 1145 0114 AA       		.byte	-86
 1146 0115 08       		.byte	8
 1147 0116 AB       		.byte	-85
 1148 0117 E3       		.byte	-29
 1149 0118 AC       		.byte	-84
 1150 0119 80       		.byte	-128
 1151 011a B0       		.byte	-80
 1152 011b 60       		.byte	96
 1153 011c B1       		.byte	-79
 1154 011d 80       		.byte	-128
 1155 011e B2       		.byte	-78
 1156 011f 80       		.byte	-128
 1157 0120 B3       		.byte	-77
 1158 0121 07       		.byte	7
 1159 0122 B4       		.byte	-76
 1160 0123 0F       		.byte	15
 1161 0124 B5       		.byte	-75
 1162 0125 78       		.byte	120
 1163 0126 B6       		.byte	-74
 1164 0127 10       		.byte	16
 1165 0128 BA       		.byte	-70
 1166 0129 20       		.byte	32
 1167 012a BB       		.byte	-69
 1168 012b 28       		.byte	40
 1169 012c BE       		.byte	-66
 1170 012d 44       		.byte	68
ARM GAS  C:\Users\Petro\AppData\Local\Temp\ccbKo2Qz.s 			page 34


 1171 012e BF       		.byte	-65
 1172 012f 01       		.byte	1
 1173 0130 D4       		.byte	-44
 1174 0131 09       		.byte	9
 1175 0132 D8       		.byte	-40
 1176 0133 04       		.byte	4
 1177 0134 D9       		.byte	-39
 1178 0135 04       		.byte	4
 1179 0136 DB       		.byte	-37
 1180 0137 04       		.byte	4
 1181 0138 DF       		.byte	-33
 1182 0139 01       		.byte	1
 1183 013a 00       		.byte	0
 1184 013b 04       		.byte	4
 1185 013c 01       		.byte	1
 1186 013d 02       		.byte	2
 1187 013e 03       		.byte	3
 1188 013f 09       		.byte	9
 1189 0140 05       		.byte	5
 1190 0141 16       		.byte	22
 1191 0142 07       		.byte	7
 1192 0143 01       		.byte	1
 1193 0144 08       		.byte	8
 1194 0145 10       		.byte	16
 1195 0146 09       		.byte	9
 1196 0147 48       		.byte	72
 1197 0148 0A       		.byte	10
 1198 0149 40       		.byte	64
 1199 014a 0B       		.byte	11
 1200 014b 08       		.byte	8
 1201 014c 0D       		.byte	13
 1202 014d 48       		.byte	72
 1203 014e 0E       		.byte	14
 1204 014f 04       		.byte	4
 1205 0150 10       		.byte	16
 1206 0151 20       		.byte	32
 1207 0152 11       		.byte	17
 1208 0153 11       		.byte	17
 1209 0154 12       		.byte	18
 1210 0155 01       		.byte	1
 1211 0156 15       		.byte	21
 1212 0157 59       		.byte	89
 1213 0158 18       		.byte	24
 1214 0159 04       		.byte	4
 1215 015a 19       		.byte	25
 1216 015b 40       		.byte	64
 1217 015c 1A       		.byte	26
 1218 015d 44       		.byte	68
 1219 015e 1B       		.byte	27
 1220 015f 14       		.byte	20
 1221 0160 1D       		.byte	29
 1222 0161 14       		.byte	20
 1223 0162 1E       		.byte	30
 1224 0163 10       		.byte	16
 1225 0164 1F       		.byte	31
 1226 0165 08       		.byte	8
 1227 0166 21       		.byte	33
ARM GAS  C:\Users\Petro\AppData\Local\Temp\ccbKo2Qz.s 			page 35


 1228 0167 08       		.byte	8
 1229 0168 23       		.byte	35
 1230 0169 84       		.byte	-124
 1231 016a 29       		.byte	41
 1232 016b 02       		.byte	2
 1233 016c 2B       		.byte	43
 1234 016d 18       		.byte	24
 1235 016e 30       		.byte	48
 1236 016f 20       		.byte	32
 1237 0170 31       		.byte	49
 1238 0171 08       		.byte	8
 1239 0172 33       		.byte	51
 1240 0173 01       		.byte	1
 1241 0174 39       		.byte	57
 1242 0175 51       		.byte	81
 1243 0176 3B       		.byte	59
 1244 0177 04       		.byte	4
 1245 0178 58       		.byte	88
 1246 0179 10       		.byte	16
 1247 017a 59       		.byte	89
 1248 017b 08       		.byte	8
 1249 017c 5A       		.byte	90
 1250 017d 02       		.byte	2
 1251 017e 5B       		.byte	91
 1252 017f 80       		.byte	-128
 1253 0180 61       		.byte	97
 1254 0181 40       		.byte	64
 1255 0182 82       		.byte	-126
 1256 0183 01       		.byte	1
 1257 0184 83       		.byte	-125
 1258 0185 04       		.byte	4
 1259 0186 8D       		.byte	-115
 1260 0187 10       		.byte	16
 1261 0188 8E       		.byte	-114
 1262 0189 40       		.byte	64
 1263 018a 91       		.byte	-111
 1264 018b D9       		.byte	-39
 1265 018c 92       		.byte	-110
 1266 018d 02       		.byte	2
 1267 018e 93       		.byte	-109
 1268 018f 08       		.byte	8
 1269 0190 94       		.byte	-108
 1270 0191 04       		.byte	4
 1271 0192 96       		.byte	-106
 1272 0193 10       		.byte	16
 1273 0194 97       		.byte	-105
 1274 0195 04       		.byte	4
 1275 0196 99       		.byte	-103
 1276 0197 0A       		.byte	10
 1277 0198 9B       		.byte	-101
 1278 0199 01       		.byte	1
 1279 019a A0       		.byte	-96
 1280 019b 20       		.byte	32
 1281 019c A1       		.byte	-95
 1282 019d 40       		.byte	64
 1283 019e A5       		.byte	-91
 1284 019f 08       		.byte	8
ARM GAS  C:\Users\Petro\AppData\Local\Temp\ccbKo2Qz.s 			page 36


 1285 01a0 A7       		.byte	-89
 1286 01a1 08       		.byte	8
 1287 01a2 B4       		.byte	-76
 1288 01a3 20       		.byte	32
 1289 01a4 B5       		.byte	-75
 1290 01a5 40       		.byte	64
 1291 01a6 C0       		.byte	-64
 1292 01a7 FF       		.byte	-1
 1293 01a8 C2       		.byte	-62
 1294 01a9 EF       		.byte	-17
 1295 01aa C4       		.byte	-60
 1296 01ab FF       		.byte	-1
 1297 01ac CA       		.byte	-54
 1298 01ad 07       		.byte	7
 1299 01ae CC       		.byte	-52
 1300 01af 07       		.byte	7
 1301 01b0 CE       		.byte	-50
 1302 01b1 0F       		.byte	15
 1303 01b2 D6       		.byte	-42
 1304 01b3 0F       		.byte	15
 1305 01b4 D8       		.byte	-40
 1306 01b5 08       		.byte	8
 1307 01b6 E2       		.byte	-30
 1308 01b7 44       		.byte	68
 1309 01b8 8B       		.byte	-117
 1310 01b9 08       		.byte	8
 1311 01ba 03       		.byte	3
 1312 01bb 08       		.byte	8
 1313 01bc 63       		.byte	99
 1314 01bd 08       		.byte	8
 1315 01be 6F       		.byte	111
 1316 01bf 20       		.byte	32
 1317 01c0 83       		.byte	-125
 1318 01c1 20       		.byte	32
 1319 01c2 8F       		.byte	-113
 1320 01c3 04       		.byte	4
 1321 01c4 A7       		.byte	-89
 1322 01c5 08       		.byte	8
 1323 01c6 C0       		.byte	-64
 1324 01c7 40       		.byte	64
 1325 01c8 D8       		.byte	-40
 1326 01c9 40       		.byte	64
 1327 01ca DA       		.byte	-38
 1328 01cb 80       		.byte	-128
 1329 01cc E6       		.byte	-26
 1330 01cd 20       		.byte	32
 1331 01ce 50       		.byte	80
 1332 01cf 10       		.byte	16
 1333 01d0 5F       		.byte	95
 1334 01d1 02       		.byte	2
 1335 01d2 87       		.byte	-121
 1336 01d3 02       		.byte	2
 1337 01d4 D4       		.byte	-44
 1338 01d5 04       		.byte	4
 1339 01d6 D6       		.byte	-42
 1340 01d7 01       		.byte	1
 1341 01d8 04       		.byte	4
ARM GAS  C:\Users\Petro\AppData\Local\Temp\ccbKo2Qz.s 			page 37


 1342 01d9 04       		.byte	4
 1343 01da 80       		.byte	-128
 1344 01db 04       		.byte	4
 1345 01dc 8C       		.byte	-116
 1346 01dd 10       		.byte	16
 1347 01de 94       		.byte	-108
 1348 01df 20       		.byte	32
 1349 01e0 C0       		.byte	-64
 1350 01e1 04       		.byte	4
 1351 01e2 E4       		.byte	-28
 1352 01e3 02       		.byte	2
 1353 01e4 01       		.byte	1
 1354 01e5 01       		.byte	1
 1355 01e6 10       		.byte	16
 1356 01e7 01       		.byte	1
 1357              		.align	2
 1358              		.type	BS_UDB_0_1_0_CONFIG_VAL.4796, %object
 1359              		.size	BS_UDB_0_1_0_CONFIG_VAL.4796, 128
 1360              	BS_UDB_0_1_0_CONFIG_VAL.4796:
 1361 01e8 8D       		.byte	-115
 1362 01e9 84       		.byte	-124
 1363 01ea 00       		.byte	0
 1364 01eb 00       		.byte	0
 1365 01ec 62       		.byte	98
 1366 01ed 0A       		.byte	10
 1367 01ee 14       		.byte	20
 1368 01ef 10       		.byte	16
 1369 01f0 02       		.byte	2
 1370 01f1 80       		.byte	-128
 1371 01f2 0D       		.byte	13
 1372 01f3 04       		.byte	4
 1373 01f4 8D       		.byte	-115
 1374 01f5 04       		.byte	4
 1375 01f6 00       		.byte	0
 1376 01f7 80       		.byte	-128
 1377 01f8 42       		.byte	66
 1378 01f9 84       		.byte	-124
 1379 01fa 08       		.byte	8
 1380 01fb 00       		.byte	0
 1381 01fc 11       		.byte	17
 1382 01fd 04       		.byte	4
 1383 01fe 22       		.byte	34
 1384 01ff 00       		.byte	0
 1385 0200 40       		.byte	64
 1386 0201 84       		.byte	-124
 1387 0202 00       		.byte	0
 1388 0203 00       		.byte	0
 1389 0204 0D       		.byte	13
 1390 0205 01       		.byte	1
 1391 0206 80       		.byte	-128
 1392 0207 00       		.byte	0
 1393 0208 00       		.byte	0
 1394 0209 60       		.byte	96
 1395 020a 00       		.byte	0
 1396 020b 00       		.byte	0
 1397 020c 8D       		.byte	-115
 1398 020d 00       		.byte	0
ARM GAS  C:\Users\Petro\AppData\Local\Temp\ccbKo2Qz.s 			page 38


 1399 020e 00       		.byte	0
 1400 020f 00       		.byte	0
 1401 0210 8D       		.byte	-115
 1402 0211 07       		.byte	7
 1403 0212 00       		.byte	0
 1404 0213 38       		.byte	56
 1405 0214 00       		.byte	0
 1406 0215 56       		.byte	86
 1407 0216 80       		.byte	-128
 1408 0217 09       		.byte	9
 1409 0218 70       		.byte	112
 1410 0219 80       		.byte	-128
 1411 021a 80       		.byte	-128
 1412 021b 00       		.byte	0
 1413 021c 0F       		.byte	15
 1414 021d 00       		.byte	0
 1415 021e 00       		.byte	0
 1416 021f 7F       		.byte	127
 1417 0220 00       		.byte	0
 1418 0221 80       		.byte	-128
 1419 0222 22       		.byte	34
 1420 0223 00       		.byte	0
 1421 0224 00       		.byte	0
 1422 0225 00       		.byte	0
 1423 0226 04       		.byte	4
 1424 0227 01       		.byte	1
 1425 0228 24       		.byte	36
 1426 0229 03       		.byte	3
 1427 022a 50       		.byte	80
 1428 022b 00       		.byte	0
 1429 022c 06       		.byte	6
 1430 022d DE       		.byte	-34
 1431 022e FB       		.byte	-5
 1432 022f DC       		.byte	-36
 1433 0230 3F       		.byte	63
 1434 0231 FF       		.byte	-1
 1435 0232 FF       		.byte	-1
 1436 0233 FF       		.byte	-1
 1437 0234 22       		.byte	34
 1438 0235 00       		.byte	0
 1439 0236 F0       		.byte	-16
 1440 0237 08       		.byte	8
 1441 0238 04       		.byte	4
 1442 0239 00       		.byte	0
 1443 023a 00       		.byte	0
 1444 023b 00       		.byte	0
 1445 023c 40       		.byte	64
 1446 023d 00       		.byte	0
 1447 023e 00       		.byte	0
 1448 023f 00       		.byte	0
 1449 0240 04       		.byte	4
 1450 0241 04       		.byte	4
 1451 0242 04       		.byte	4
 1452 0243 04       		.byte	4
 1453 0244 00       		.byte	0
 1454 0245 00       		.byte	0
 1455 0246 00       		.byte	0
ARM GAS  C:\Users\Petro\AppData\Local\Temp\ccbKo2Qz.s 			page 39


 1456 0247 01       		.byte	1
 1457 0248 00       		.byte	0
 1458 0249 00       		.byte	0
 1459 024a C0       		.byte	-64
 1460 024b 00       		.byte	0
 1461 024c 40       		.byte	64
 1462 024d 01       		.byte	1
 1463 024e 10       		.byte	16
 1464 024f 11       		.byte	17
 1465 0250 C0       		.byte	-64
 1466 0251 01       		.byte	1
 1467 0252 00       		.byte	0
 1468 0253 11       		.byte	17
 1469 0254 40       		.byte	64
 1470 0255 01       		.byte	1
 1471 0256 40       		.byte	64
 1472 0257 01       		.byte	1
 1473 0258 00       		.byte	0
 1474 0259 00       		.byte	0
 1475 025a 00       		.byte	0
 1476 025b 00       		.byte	0
 1477 025c 00       		.byte	0
 1478 025d 00       		.byte	0
 1479 025e 00       		.byte	0
 1480 025f 00       		.byte	0
 1481 0260 00       		.byte	0
 1482 0261 00       		.byte	0
 1483 0262 00       		.byte	0
 1484 0263 00       		.byte	0
 1485 0264 00       		.byte	0
 1486 0265 00       		.byte	0
 1487 0266 00       		.byte	0
 1488 0267 00       		.byte	0
 1489              		.text
 1490              	.Letext0:
 1491              		.file 2 "c:\\program files (x86)\\cypress\\psoc creator\\4.0\\psoc creator\\import\\gnu\\arm\\4.9.
 1492              		.file 3 "Generated_Source\\PSoC4\\cytypes.h"