ARM GAS  C:\Users\Petro\AppData\Local\Temp\ccgkGqpX.s 			page 1


   1              		.cpu cortex-m0
   2              		.fpu softvfp
   3              		.eabi_attribute 20, 1
   4              		.eabi_attribute 21, 1
   5              		.eabi_attribute 23, 3
   6              		.eabi_attribute 24, 1
   7              		.eabi_attribute 25, 1
   8              		.eabi_attribute 26, 1
   9              		.eabi_attribute 30, 6
  10              		.eabi_attribute 34, 0
  11              		.eabi_attribute 18, 4
  12              		.code	16
  13              		.file	"display.c"
  14              		.text
  15              	.Ltext0:
  16              		.cfi_sections	.debug_frame
  17              		.section	.text.RTC_GetSecond,"ax",%progbits
  18              		.align	2
  19              		.code	16
  20              		.thumb_func
  21              		.type	RTC_GetSecond, %function
  22              	RTC_GetSecond:
  23              	.LFB4:
  24              		.file 1 "Generated_Source\\PSoC4/RTC.h"
   1:Generated_Source\PSoC4/RTC.h **** /***************************************************************************//**
   2:Generated_Source\PSoC4/RTC.h **** * \file Name: RTC.h
   3:Generated_Source\PSoC4/RTC.h **** * \version 1.10
   4:Generated_Source\PSoC4/RTC.h **** *
   5:Generated_Source\PSoC4/RTC.h **** * \brief
   6:Generated_Source\PSoC4/RTC.h **** *  This file provides constants and parameter values for the RTC_P4 Component.
   7:Generated_Source\PSoC4/RTC.h **** *
   8:Generated_Source\PSoC4/RTC.h **** ********************************************************************************
   9:Generated_Source\PSoC4/RTC.h **** * Copyright 2015-2016, Cypress Semiconductor Corporation.  All rights reserved.
  10:Generated_Source\PSoC4/RTC.h **** * You may use this file only in accordance with the license, terms, conditions,
  11:Generated_Source\PSoC4/RTC.h **** * disclaimers, and limitations in the end user license agreement accompanying
  12:Generated_Source\PSoC4/RTC.h **** * the software package with which this file was provided.
  13:Generated_Source\PSoC4/RTC.h **** *******************************************************************************/
  14:Generated_Source\PSoC4/RTC.h **** 
  15:Generated_Source\PSoC4/RTC.h **** #if !defined(CY_RTC_P4_RTC_H)
  16:Generated_Source\PSoC4/RTC.h **** #define CY_RTC_P4_RTC_H
  17:Generated_Source\PSoC4/RTC.h **** 
  18:Generated_Source\PSoC4/RTC.h **** #include <cytypes.h>
  19:Generated_Source\PSoC4/RTC.h **** #include <CyLib.h>
  20:Generated_Source\PSoC4/RTC.h **** 
  21:Generated_Source\PSoC4/RTC.h **** 
  22:Generated_Source\PSoC4/RTC.h **** /*******************************************************************************
  23:Generated_Source\PSoC4/RTC.h **** *    Data types definition
  24:Generated_Source\PSoC4/RTC.h **** *******************************************************************************/
  25:Generated_Source\PSoC4/RTC.h **** 
  26:Generated_Source\PSoC4/RTC.h **** typedef enum
  27:Generated_Source\PSoC4/RTC.h **** {
  28:Generated_Source\PSoC4/RTC.h ****     RTC_DST_DATE_RELATIVE = 0u,
  29:Generated_Source\PSoC4/RTC.h ****     RTC_DST_DATE_FIXED = 1u
  30:Generated_Source\PSoC4/RTC.h **** }RTC_DST_DATETYPE_ENUM;
  31:Generated_Source\PSoC4/RTC.h **** 
  32:Generated_Source\PSoC4/RTC.h **** /**
  33:Generated_Source\PSoC4/RTC.h **** * \addtogroup group_structures
ARM GAS  C:\Users\Petro\AppData\Local\Temp\ccgkGqpX.s 			page 2


  34:Generated_Source\PSoC4/RTC.h **** * @{
  35:Generated_Source\PSoC4/RTC.h **** */
  36:Generated_Source\PSoC4/RTC.h **** 
  37:Generated_Source\PSoC4/RTC.h **** /**
  38:Generated_Source\PSoC4/RTC.h **** * This is the data structure that is used to save the current time and date 
  39:Generated_Source\PSoC4/RTC.h **** * (RTC_currentTimeDate), and Alarm time and date (RTC_alarmCfgTimeDate).
  40:Generated_Source\PSoC4/RTC.h **** */
  41:Generated_Source\PSoC4/RTC.h **** typedef struct
  42:Generated_Source\PSoC4/RTC.h **** {
  43:Generated_Source\PSoC4/RTC.h ****     uint32 time;
  44:Generated_Source\PSoC4/RTC.h ****     uint32 date;
  45:Generated_Source\PSoC4/RTC.h ****     uint32 dayOfWeek;
  46:Generated_Source\PSoC4/RTC.h ****     uint32 status;
  47:Generated_Source\PSoC4/RTC.h **** }RTC_DATE_TIME;
  48:Generated_Source\PSoC4/RTC.h **** 
  49:Generated_Source\PSoC4/RTC.h **** /**
  50:Generated_Source\PSoC4/RTC.h **** * This is the data structure that is used to save time and date values for 
  51:Generated_Source\PSoC4/RTC.h **** * Daylight Savings Time Start and Stop (RTC_dstTimeDateStart and 
  52:Generated_Source\PSoC4/RTC.h **** * RTC_dstTimeDateStop).
  53:Generated_Source\PSoC4/RTC.h **** */
  54:Generated_Source\PSoC4/RTC.h **** typedef struct
  55:Generated_Source\PSoC4/RTC.h **** {
  56:Generated_Source\PSoC4/RTC.h ****     uint32 hour;
  57:Generated_Source\PSoC4/RTC.h ****     uint32 dayOfWeek;
  58:Generated_Source\PSoC4/RTC.h ****     uint32 dayOfMonth;
  59:Generated_Source\PSoC4/RTC.h ****     uint32 weekOfMonth;
  60:Generated_Source\PSoC4/RTC.h ****     uint32 month;
  61:Generated_Source\PSoC4/RTC.h ****     uint8  timeFormat;
  62:Generated_Source\PSoC4/RTC.h **** }RTC_DST_TIME;
  63:Generated_Source\PSoC4/RTC.h **** 
  64:Generated_Source\PSoC4/RTC.h **** /** @} structures */
  65:Generated_Source\PSoC4/RTC.h **** 
  66:Generated_Source\PSoC4/RTC.h **** /*******************************************************************************
  67:Generated_Source\PSoC4/RTC.h **** *    Enumerated Types and Parameters
  68:Generated_Source\PSoC4/RTC.h **** *******************************************************************************/
  69:Generated_Source\PSoC4/RTC.h **** /* Time Format setting constants */
  70:Generated_Source\PSoC4/RTC.h **** #define RTC__HOUR_12 1
  71:Generated_Source\PSoC4/RTC.h **** #define RTC__HOUR_24 0
  72:Generated_Source\PSoC4/RTC.h **** 
  73:Generated_Source\PSoC4/RTC.h **** /*  Date Format setting constants */
  74:Generated_Source\PSoC4/RTC.h **** #define RTC__MM_DD_YYYY 0
  75:Generated_Source\PSoC4/RTC.h **** #define RTC__DD_MM_YYYY 1
  76:Generated_Source\PSoC4/RTC.h **** #define RTC__YYYY_MM_DD 2
  77:Generated_Source\PSoC4/RTC.h **** 
  78:Generated_Source\PSoC4/RTC.h **** /* Date Type setting constants */
  79:Generated_Source\PSoC4/RTC.h **** #define RTC__RELATIVE 0
  80:Generated_Source\PSoC4/RTC.h **** #define RTC__FIXED 1
  81:Generated_Source\PSoC4/RTC.h **** 
  82:Generated_Source\PSoC4/RTC.h **** /* DST Hour setting constants */
  83:Generated_Source\PSoC4/RTC.h **** #define RTC__H0000 0
  84:Generated_Source\PSoC4/RTC.h **** #define RTC__H0100 1
  85:Generated_Source\PSoC4/RTC.h **** #define RTC__H0200 2
  86:Generated_Source\PSoC4/RTC.h **** #define RTC__H0300 3
  87:Generated_Source\PSoC4/RTC.h **** #define RTC__H0400 4
  88:Generated_Source\PSoC4/RTC.h **** #define RTC__H0500 5
  89:Generated_Source\PSoC4/RTC.h **** #define RTC__H0600 6
  90:Generated_Source\PSoC4/RTC.h **** #define RTC__H0700 7
ARM GAS  C:\Users\Petro\AppData\Local\Temp\ccgkGqpX.s 			page 3


  91:Generated_Source\PSoC4/RTC.h **** #define RTC__H0800 8
  92:Generated_Source\PSoC4/RTC.h **** #define RTC__H0900 9
  93:Generated_Source\PSoC4/RTC.h **** #define RTC__H1000 10
  94:Generated_Source\PSoC4/RTC.h **** #define RTC__H1100 11
  95:Generated_Source\PSoC4/RTC.h **** #define RTC__H1200 12
  96:Generated_Source\PSoC4/RTC.h **** #define RTC__H1300 13
  97:Generated_Source\PSoC4/RTC.h **** #define RTC__H1400 14
  98:Generated_Source\PSoC4/RTC.h **** #define RTC__H1500 15
  99:Generated_Source\PSoC4/RTC.h **** #define RTC__H1600 16
 100:Generated_Source\PSoC4/RTC.h **** #define RTC__H1700 17
 101:Generated_Source\PSoC4/RTC.h **** #define RTC__H1800 18
 102:Generated_Source\PSoC4/RTC.h **** #define RTC__H1900 19
 103:Generated_Source\PSoC4/RTC.h **** #define RTC__H2000 20
 104:Generated_Source\PSoC4/RTC.h **** #define RTC__H2100 21
 105:Generated_Source\PSoC4/RTC.h **** #define RTC__H2200 22
 106:Generated_Source\PSoC4/RTC.h **** #define RTC__H2300 23
 107:Generated_Source\PSoC4/RTC.h **** 
 108:Generated_Source\PSoC4/RTC.h **** /* DST DayOfWeek setting constants */
 109:Generated_Source\PSoC4/RTC.h **** #define RTC__SUNDAY 1
 110:Generated_Source\PSoC4/RTC.h **** #define RTC__MONDAY 2
 111:Generated_Source\PSoC4/RTC.h **** #define RTC__TUESDAY 3
 112:Generated_Source\PSoC4/RTC.h **** #define RTC__WEDNESDAY 4
 113:Generated_Source\PSoC4/RTC.h **** #define RTC__THURSDAY 5
 114:Generated_Source\PSoC4/RTC.h **** #define RTC__FRIDAY 6
 115:Generated_Source\PSoC4/RTC.h **** #define RTC__SATURDAY 7
 116:Generated_Source\PSoC4/RTC.h **** 
 117:Generated_Source\PSoC4/RTC.h **** /* DST Month setting constants */
 118:Generated_Source\PSoC4/RTC.h **** #define RTC__JAN 1
 119:Generated_Source\PSoC4/RTC.h **** #define RTC__FEB 2
 120:Generated_Source\PSoC4/RTC.h **** #define RTC__MAR 3
 121:Generated_Source\PSoC4/RTC.h **** #define RTC__APR 4
 122:Generated_Source\PSoC4/RTC.h **** #define RTC__MAY 5
 123:Generated_Source\PSoC4/RTC.h **** #define RTC__JUN 6
 124:Generated_Source\PSoC4/RTC.h **** #define RTC__JUL 7
 125:Generated_Source\PSoC4/RTC.h **** #define RTC__AUG 8
 126:Generated_Source\PSoC4/RTC.h **** #define RTC__SEP 9
 127:Generated_Source\PSoC4/RTC.h **** #define RTC__OCT 10
 128:Generated_Source\PSoC4/RTC.h **** #define RTC__NOV 11
 129:Generated_Source\PSoC4/RTC.h **** #define RTC__DEC 12
 130:Generated_Source\PSoC4/RTC.h **** 
 131:Generated_Source\PSoC4/RTC.h **** /* DST WeekOfMonth setting constants */
 132:Generated_Source\PSoC4/RTC.h **** #define RTC__FIRST 1
 133:Generated_Source\PSoC4/RTC.h **** #define RTC__SECOND 2
 134:Generated_Source\PSoC4/RTC.h **** #define RTC__THIRD 3
 135:Generated_Source\PSoC4/RTC.h **** #define RTC__FOURTH 4
 136:Generated_Source\PSoC4/RTC.h **** #define RTC__FIFTH 5
 137:Generated_Source\PSoC4/RTC.h **** #define RTC__LAST 6
 138:Generated_Source\PSoC4/RTC.h **** 
 139:Generated_Source\PSoC4/RTC.h **** 
 140:Generated_Source\PSoC4/RTC.h **** #define RTC_INITIAL_DATA_FORMAT     (0u)
 141:Generated_Source\PSoC4/RTC.h **** #define RTC_INITIAL_TIME_FORMAT     (0u)
 142:Generated_Source\PSoC4/RTC.h **** #define RTC_INITIAL_UPDATE_MODE     (0u)
 143:Generated_Source\PSoC4/RTC.h **** #define RTC_INITIAL_SECOND          (27u)
 144:Generated_Source\PSoC4/RTC.h **** #define RTC_INITIAL_MINUTE          (23u)
 145:Generated_Source\PSoC4/RTC.h **** #define RTC_INITIAL_HOUR            (23u)
 146:Generated_Source\PSoC4/RTC.h **** #define RTC_INITIAL_DAY             (1u)
 147:Generated_Source\PSoC4/RTC.h **** #define RTC_INITIAL_MONTH           (9u)
ARM GAS  C:\Users\Petro\AppData\Local\Temp\ccgkGqpX.s 			page 4


 148:Generated_Source\PSoC4/RTC.h **** #define RTC_INITIAL_YEAR            (2016u)
 149:Generated_Source\PSoC4/RTC.h **** 
 150:Generated_Source\PSoC4/RTC.h **** #define RTC_INITIAL_ALARM_STATUS    (0u)
 151:Generated_Source\PSoC4/RTC.h **** 
 152:Generated_Source\PSoC4/RTC.h **** #define RTC_INITIAL_DST_STATUS      (0u)
 153:Generated_Source\PSoC4/RTC.h **** #define RTC_INITIAL_DST_DATE_TYPE   (0u)
 154:Generated_Source\PSoC4/RTC.h **** #define RTC_INITIAL_DST_START_MONTH (3uL)
 155:Generated_Source\PSoC4/RTC.h **** #define RTC_INITIAL_DST_START_WOM   (6uL)
 156:Generated_Source\PSoC4/RTC.h **** #define RTC_INITIAL_DST_START_DOM   (22uL)
 157:Generated_Source\PSoC4/RTC.h **** #define RTC_INITIAL_DST_START_DOW   (1uL)
 158:Generated_Source\PSoC4/RTC.h **** #define RTC_INITIAL_DST_START_HRS   (0uL)
 159:Generated_Source\PSoC4/RTC.h **** #define RTC_INITIAL_DST_STOP_MONTH  (10uL)
 160:Generated_Source\PSoC4/RTC.h **** #define RTC_INITIAL_DST_STOP_DOM    (22uL)
 161:Generated_Source\PSoC4/RTC.h **** #define RTC_INITIAL_DST_STOP_DOW    (1uL)
 162:Generated_Source\PSoC4/RTC.h **** #define RTC_INITIAL_DST_STOP_WOM    (6uL)
 163:Generated_Source\PSoC4/RTC.h **** #define RTC_INITIAL_DST_STOP_HRS    (0uL)
 164:Generated_Source\PSoC4/RTC.h **** 
 165:Generated_Source\PSoC4/RTC.h **** /* Day of week definitions */
 166:Generated_Source\PSoC4/RTC.h **** #define RTC_SUNDAY     (RTC__SUNDAY)
 167:Generated_Source\PSoC4/RTC.h **** #define RTC_MONDAY     (RTC__MONDAY)
 168:Generated_Source\PSoC4/RTC.h **** #define RTC_TUESDAY    (RTC__TUESDAY)
 169:Generated_Source\PSoC4/RTC.h **** #define RTC_WEDNESDAY  (RTC__WEDNESDAY)
 170:Generated_Source\PSoC4/RTC.h **** #define RTC_THURSDAY   (RTC__THURSDAY)
 171:Generated_Source\PSoC4/RTC.h **** #define RTC_FRIDAY     (RTC__FRIDAY)
 172:Generated_Source\PSoC4/RTC.h **** #define RTC_SATURDAY   (RTC__SATURDAY)
 173:Generated_Source\PSoC4/RTC.h **** 
 174:Generated_Source\PSoC4/RTC.h **** /* DST WeekOfMonth setting constants definitions */
 175:Generated_Source\PSoC4/RTC.h **** #define RTC_FIRST      (RTC__FIRST)
 176:Generated_Source\PSoC4/RTC.h **** #define RTC_SECOND     (RTC__SECOND)
 177:Generated_Source\PSoC4/RTC.h **** #define RTC_THIRD      (RTC__THIRD)
 178:Generated_Source\PSoC4/RTC.h **** #define RTC_FOURTH     (RTC__FOURTH)
 179:Generated_Source\PSoC4/RTC.h **** #define RTC_FIFTH      (RTC__FIFTH)
 180:Generated_Source\PSoC4/RTC.h **** #define RTC_LAST       (RTC__LAST)
 181:Generated_Source\PSoC4/RTC.h **** 
 182:Generated_Source\PSoC4/RTC.h **** /* Month definitions */
 183:Generated_Source\PSoC4/RTC.h **** #define RTC_JANUARY    (RTC__JAN)
 184:Generated_Source\PSoC4/RTC.h **** #define RTC_FEBRUARY   (RTC__FEB)
 185:Generated_Source\PSoC4/RTC.h **** #define RTC_MARCH      (RTC__MAR)
 186:Generated_Source\PSoC4/RTC.h **** #define RTC_APRIL      (RTC__APR)
 187:Generated_Source\PSoC4/RTC.h **** #define RTC_MAY        (RTC__MAY)
 188:Generated_Source\PSoC4/RTC.h **** #define RTC_JUNE       (RTC__JUN)
 189:Generated_Source\PSoC4/RTC.h **** #define RTC_JULY       (RTC__JUL)
 190:Generated_Source\PSoC4/RTC.h **** #define RTC_AUGUST     (RTC__AUG)
 191:Generated_Source\PSoC4/RTC.h **** #define RTC_SEPTEMBER  (RTC__SEP)
 192:Generated_Source\PSoC4/RTC.h **** #define RTC_OCTOBER    (RTC__OCT)
 193:Generated_Source\PSoC4/RTC.h **** #define RTC_NOVEMBER   (RTC__NOV)
 194:Generated_Source\PSoC4/RTC.h **** #define RTC_DECEMBER   (RTC__DEC)
 195:Generated_Source\PSoC4/RTC.h **** 
 196:Generated_Source\PSoC4/RTC.h **** #define RTC_DAYS_PER_WEEK       (7u)
 197:Generated_Source\PSoC4/RTC.h **** 
 198:Generated_Source\PSoC4/RTC.h **** /* Number of days in month definitions */
 199:Generated_Source\PSoC4/RTC.h **** #define RTC_DAYS_IN_JANUARY     (31u)
 200:Generated_Source\PSoC4/RTC.h **** #define RTC_DAYS_IN_FEBRUARY    (28u)
 201:Generated_Source\PSoC4/RTC.h **** #define RTC_DAYS_IN_MARCH       (31u)
 202:Generated_Source\PSoC4/RTC.h **** #define RTC_DAYS_IN_APRIL       (30u)
 203:Generated_Source\PSoC4/RTC.h **** #define RTC_DAYS_IN_MAY         (31u)
 204:Generated_Source\PSoC4/RTC.h **** #define RTC_DAYS_IN_JUNE        (30u)
ARM GAS  C:\Users\Petro\AppData\Local\Temp\ccgkGqpX.s 			page 5


 205:Generated_Source\PSoC4/RTC.h **** #define RTC_DAYS_IN_JULY        (31u)
 206:Generated_Source\PSoC4/RTC.h **** #define RTC_DAYS_IN_AUGUST      (31u)
 207:Generated_Source\PSoC4/RTC.h **** #define RTC_DAYS_IN_SEPTEMBER   (30u)
 208:Generated_Source\PSoC4/RTC.h **** #define RTC_DAYS_IN_OCTOBER     (31u)
 209:Generated_Source\PSoC4/RTC.h **** #define RTC_DAYS_IN_NOVEMBER    (30u)
 210:Generated_Source\PSoC4/RTC.h **** #define RTC_DAYS_IN_DECEMBER    (31u)
 211:Generated_Source\PSoC4/RTC.h **** 
 212:Generated_Source\PSoC4/RTC.h **** #define RTC_MONTHS_PER_YEAR     (12uL)
 213:Generated_Source\PSoC4/RTC.h **** 
 214:Generated_Source\PSoC4/RTC.h **** #define RTC_HOURS_PER_DAY       (24uL)
 215:Generated_Source\PSoC4/RTC.h **** #define RTC_HOURS_PER_HALF_DAY  (12uL)
 216:Generated_Source\PSoC4/RTC.h **** 
 217:Generated_Source\PSoC4/RTC.h **** #define RTC_SECONDS_PER_MINUTE  (60uL)
 218:Generated_Source\PSoC4/RTC.h **** #define RTC_SECONDS_PER_HOUR    (3600uL)
 219:Generated_Source\PSoC4/RTC.h **** #define RTC_SECONDS_PER_DAY     (24uL * 3600uL)
 220:Generated_Source\PSoC4/RTC.h **** 
 221:Generated_Source\PSoC4/RTC.h **** #define RTC_SECONDS_PER_LEAP_YEAR    (366uL * 24uL * 3600uL)
 222:Generated_Source\PSoC4/RTC.h **** #define RTC_SECONDS_PER_NONLEAP_YEAR (365uL * 24uL * 3600uL)
 223:Generated_Source\PSoC4/RTC.h **** 
 224:Generated_Source\PSoC4/RTC.h **** #define RTC_UNIX_TIME_PM   ((12uL * 3600uL) + 1uL)
 225:Generated_Source\PSoC4/RTC.h **** 
 226:Generated_Source\PSoC4/RTC.h **** /* AM/PM status definitions */
 227:Generated_Source\PSoC4/RTC.h **** #define RTC_AM                 (0u)
 228:Generated_Source\PSoC4/RTC.h **** #define RTC_PM                 (1u)
 229:Generated_Source\PSoC4/RTC.h **** 
 230:Generated_Source\PSoC4/RTC.h **** /* Time format definitions */
 231:Generated_Source\PSoC4/RTC.h **** #define RTC_12_HOURS_FORMAT    (RTC__HOUR_12)
 232:Generated_Source\PSoC4/RTC.h **** #define RTC_24_HOURS_FORMAT    (RTC__HOUR_24)
 233:Generated_Source\PSoC4/RTC.h **** 
 234:Generated_Source\PSoC4/RTC.h **** /* UNIX time begins in 1970 year.  */
 235:Generated_Source\PSoC4/RTC.h **** #define RTC_YEAR_0             (1970u)
 236:Generated_Source\PSoC4/RTC.h **** 
 237:Generated_Source\PSoC4/RTC.h **** /* Definition of date register fields */
 238:Generated_Source\PSoC4/RTC.h **** #if(RTC_INITIAL_DATA_FORMAT == RTC__MM_DD_YYYY)
 239:Generated_Source\PSoC4/RTC.h ****     #define RTC_10_MONTH_OFFSET   (28u)
 240:Generated_Source\PSoC4/RTC.h ****     #define RTC_MONTH_OFFSET      (24u)
 241:Generated_Source\PSoC4/RTC.h ****     #define RTC_10_DAY_OFFSET     (20u)
 242:Generated_Source\PSoC4/RTC.h ****     #define RTC_DAY_OFFSET        (16u)
 243:Generated_Source\PSoC4/RTC.h ****     #define RTC_1000_YEAR_OFFSET  (12u)
 244:Generated_Source\PSoC4/RTC.h ****     #define RTC_100_YEAR_OFFSET   (8u)
 245:Generated_Source\PSoC4/RTC.h ****     #define RTC_10_YEAR_OFFSET    (4u)
 246:Generated_Source\PSoC4/RTC.h ****     #define RTC_YEAR_OFFSET       (0u)
 247:Generated_Source\PSoC4/RTC.h **** #elif(RTC_INITIAL_DATA_FORMAT == RTC__DD_MM_YYYY)
 248:Generated_Source\PSoC4/RTC.h ****     #define RTC_10_MONTH_OFFSET   (20u)
 249:Generated_Source\PSoC4/RTC.h ****     #define RTC_MONTH_OFFSET      (16u)
 250:Generated_Source\PSoC4/RTC.h ****     #define RTC_10_DAY_OFFSET     (28u)
 251:Generated_Source\PSoC4/RTC.h ****     #define RTC_DAY_OFFSET        (24u)
 252:Generated_Source\PSoC4/RTC.h ****     #define RTC_1000_YEAR_OFFSET  (12u)
 253:Generated_Source\PSoC4/RTC.h ****     #define RTC_100_YEAR_OFFSET   (8u)
 254:Generated_Source\PSoC4/RTC.h ****     #define RTC_10_YEAR_OFFSET    (4u)
 255:Generated_Source\PSoC4/RTC.h ****     #define RTC_YEAR_OFFSET       (0u)
 256:Generated_Source\PSoC4/RTC.h **** #else
 257:Generated_Source\PSoC4/RTC.h ****     #define RTC_10_MONTH_OFFSET   (12u)
 258:Generated_Source\PSoC4/RTC.h ****     #define RTC_MONTH_OFFSET      (8u)
 259:Generated_Source\PSoC4/RTC.h ****     #define RTC_10_DAY_OFFSET     (4u)
 260:Generated_Source\PSoC4/RTC.h ****     #define RTC_DAY_OFFSET        (0u)
 261:Generated_Source\PSoC4/RTC.h ****     #define RTC_1000_YEAR_OFFSET  (28u)
ARM GAS  C:\Users\Petro\AppData\Local\Temp\ccgkGqpX.s 			page 6


 262:Generated_Source\PSoC4/RTC.h ****     #define RTC_100_YEAR_OFFSET   (24u)
 263:Generated_Source\PSoC4/RTC.h ****     #define RTC_10_YEAR_OFFSET    (20u)
 264:Generated_Source\PSoC4/RTC.h ****     #define RTC_YEAR_OFFSET       (16u)
 265:Generated_Source\PSoC4/RTC.h **** #endif /* (RTC_INITIAL_DATA_FORMAT == RTC__MM_DD_YYYY) */
 266:Generated_Source\PSoC4/RTC.h **** 
 267:Generated_Source\PSoC4/RTC.h **** #define RTC_10_MONTH_MASK          (0x00000001uL << RTC_10_MONTH_OFFSET)
 268:Generated_Source\PSoC4/RTC.h **** #define RTC_MONTH_MASK             (0x0000000FuL << RTC_MONTH_OFFSET)
 269:Generated_Source\PSoC4/RTC.h **** #define RTC_10_DAY_MASK            (0x00000003uL << RTC_10_DAY_OFFSET)
 270:Generated_Source\PSoC4/RTC.h **** #define RTC_DAY_MASK               (0x0000000FuL << RTC_DAY_OFFSET)
 271:Generated_Source\PSoC4/RTC.h **** #define RTC_1000_YEAR_MASK         (0x00000003uL << RTC_1000_YEAR_OFFSET)
 272:Generated_Source\PSoC4/RTC.h **** #define RTC_100_YEAR_MASK          (0x0000000FuL << RTC_100_YEAR_OFFSET)
 273:Generated_Source\PSoC4/RTC.h **** #define RTC_10_YEAR_MASK           (0x0000000FuL << RTC_10_YEAR_OFFSET)
 274:Generated_Source\PSoC4/RTC.h **** #define RTC_YEAR_MASK              (0x0000000FuL << RTC_YEAR_OFFSET)
 275:Generated_Source\PSoC4/RTC.h **** 
 276:Generated_Source\PSoC4/RTC.h **** #define  RTC_MONTH_FULL_MASK       (RTC_10_MONTH_MASK  | RTC_MONTH_MASK)
 277:Generated_Source\PSoC4/RTC.h **** #define  RTC_DAY_FULL_MASK         (RTC_10_DAY_MASK    | RTC_DAY_MASK)
 278:Generated_Source\PSoC4/RTC.h **** #define  RTC_YEAR_FULL_MASK        (RTC_1000_YEAR_MASK | RTC_100_YEAR_MASK |\
 279:Generated_Source\PSoC4/RTC.h ****                                                  RTC_10_YEAR_MASK   | RTC_YEAR_MASK)
 280:Generated_Source\PSoC4/RTC.h **** 
 281:Generated_Source\PSoC4/RTC.h **** 
 282:Generated_Source\PSoC4/RTC.h **** /* Definition of time register fields */
 283:Generated_Source\PSoC4/RTC.h **** #define RTC_TIME_FORMAT_OFFSET     (23u)
 284:Generated_Source\PSoC4/RTC.h **** #define RTC_PERIOD_OF_DAY_OFFSET   (22u)
 285:Generated_Source\PSoC4/RTC.h **** #define RTC_10_HOURS_OFFSET        (20u)
 286:Generated_Source\PSoC4/RTC.h **** #define RTC_HOURS_OFFSET           (16u)
 287:Generated_Source\PSoC4/RTC.h **** #define RTC_10_MINUTES_OFFSET      (12u)
 288:Generated_Source\PSoC4/RTC.h **** #define RTC_MINUTES_OFFSET         (8u)
 289:Generated_Source\PSoC4/RTC.h **** #define RTC_10_SECONDS_OFFSET      (4u)
 290:Generated_Source\PSoC4/RTC.h **** #define RTC_SECONDS_OFFSET         (0u)
 291:Generated_Source\PSoC4/RTC.h **** 
 292:Generated_Source\PSoC4/RTC.h **** #define RTC_TIME_FORMAT_MASK       (0x00000001uL << RTC_TIME_FORMAT_OFFSET)
 293:Generated_Source\PSoC4/RTC.h **** #define RTC_PERIOD_OF_DAY_MASK     (0x00000001uL << RTC_PERIOD_OF_DAY_OFFSET)
 294:Generated_Source\PSoC4/RTC.h **** #define RTC_10_HOURS_MASK          (0x00000003uL << RTC_10_HOURS_OFFSET)
 295:Generated_Source\PSoC4/RTC.h **** #define RTC_HOURS_MASK             (0x0000000FuL << RTC_HOURS_OFFSET)
 296:Generated_Source\PSoC4/RTC.h **** #define RTC_10_MINUTES_MASK        (0x00000007uL << RTC_10_MINUTES_OFFSET)
 297:Generated_Source\PSoC4/RTC.h **** #define RTC_MINUTES_MASK           (0x0000000FuL << RTC_MINUTES_OFFSET)
 298:Generated_Source\PSoC4/RTC.h **** #define RTC_10_SECONDS_MASK        (0x00000007uL << RTC_10_SECONDS_OFFSET)
 299:Generated_Source\PSoC4/RTC.h **** #define RTC_SECONDS_MASK           (0x0000000FuL << RTC_SECONDS_OFFSET)
 300:Generated_Source\PSoC4/RTC.h **** 
 301:Generated_Source\PSoC4/RTC.h **** #define RTC_HOURS_FULL_MASK        (RTC_10_HOURS_MASK   | RTC_HOURS_MASK)
 302:Generated_Source\PSoC4/RTC.h **** #define RTC_MINUTES_FULL_MASK      (RTC_10_MINUTES_MASK | RTC_MINUTES_MASK)
 303:Generated_Source\PSoC4/RTC.h **** #define RTC_SECONDS_FULL_MASK      (RTC_10_SECONDS_MASK | RTC_SECONDS_MASK)
 304:Generated_Source\PSoC4/RTC.h **** 
 305:Generated_Source\PSoC4/RTC.h **** #define RTC_ALARM_SEC_MASK         (0x00000001uL)
 306:Generated_Source\PSoC4/RTC.h **** #define RTC_ALARM_MIN_MASK         (0x00000002uL)
 307:Generated_Source\PSoC4/RTC.h **** #define RTC_ALARM_HOUR_MASK        (0x00000004uL)
 308:Generated_Source\PSoC4/RTC.h **** #define RTC_ALARM_DAYOFWEEK_MASK   (0x00000008uL)
 309:Generated_Source\PSoC4/RTC.h **** #define RTC_ALARM_DAYOFMONTH_MASK  (0x00000010uL)
 310:Generated_Source\PSoC4/RTC.h **** #define RTC_ALARM_MONTH_MASK       (0x00000020uL)
 311:Generated_Source\PSoC4/RTC.h **** #define RTC_ALARM_YEAR_MASK        (0x00000040uL)
 312:Generated_Source\PSoC4/RTC.h **** 
 313:Generated_Source\PSoC4/RTC.h **** #define RTC_STATUS_DST_OFFSET      (1u)
 314:Generated_Source\PSoC4/RTC.h **** #define RTC_STATUS_ALARM_OFFSET    (2u)
 315:Generated_Source\PSoC4/RTC.h **** #define RTC_STATUS_LY_OFFSET       (3u)
 316:Generated_Source\PSoC4/RTC.h **** #define RTC_STATUS_AM_PM_OFFSET    (4u)
 317:Generated_Source\PSoC4/RTC.h **** 
 318:Generated_Source\PSoC4/RTC.h **** /* Definition of the RTC status values. */
ARM GAS  C:\Users\Petro\AppData\Local\Temp\ccgkGqpX.s 			page 7


 319:Generated_Source\PSoC4/RTC.h **** #define RTC_STATUS_DST             (1uL << RTC_STATUS_DST_OFFSET)
 320:Generated_Source\PSoC4/RTC.h **** #define RTC_STATUS_LY              (1uL << RTC_STATUS_LY_OFFSET)
 321:Generated_Source\PSoC4/RTC.h **** #define RTC_STATUS_AM_PM           (1uL << RTC_STATUS_AM_PM_OFFSET)
 322:Generated_Source\PSoC4/RTC.h **** 
 323:Generated_Source\PSoC4/RTC.h **** /* Number of bits per one BCD digit. */
 324:Generated_Source\PSoC4/RTC.h **** #define RTC_BCD_NUMBER_SIZE        (4u)
 325:Generated_Source\PSoC4/RTC.h **** #define RTC_BCD_ONE_DIGIT_MASK     (0x0000000FuL)
 326:Generated_Source\PSoC4/RTC.h **** 
 327:Generated_Source\PSoC4/RTC.h **** /*******************************************************************************
 328:Generated_Source\PSoC4/RTC.h **** *    Function Prototypes
 329:Generated_Source\PSoC4/RTC.h **** *******************************************************************************/
 330:Generated_Source\PSoC4/RTC.h **** /**
 331:Generated_Source\PSoC4/RTC.h **** * \addtogroup group_api
 332:Generated_Source\PSoC4/RTC.h **** * @{
 333:Generated_Source\PSoC4/RTC.h **** */
 334:Generated_Source\PSoC4/RTC.h **** void   RTC_Start(void);
 335:Generated_Source\PSoC4/RTC.h **** void   RTC_Stop(void);
 336:Generated_Source\PSoC4/RTC.h **** void   RTC_Init(void);
 337:Generated_Source\PSoC4/RTC.h **** void   RTC_SetUnixTime(uint64 unixTime);
 338:Generated_Source\PSoC4/RTC.h **** uint64 RTC_GetUnixTime(void);
 339:Generated_Source\PSoC4/RTC.h **** void   RTC_SetPeriod(uint32 ticks, uint32 refOneSecTicks);
 340:Generated_Source\PSoC4/RTC.h **** uint32 RTC_GetPeriod(void);
 341:Generated_Source\PSoC4/RTC.h **** uint32 RTC_GetRefOneSec(void);
 342:Generated_Source\PSoC4/RTC.h **** void   RTC_SetDateAndTime(uint32 inputTime, uint32 inputDate);
 343:Generated_Source\PSoC4/RTC.h **** void   RTC_GetDateAndTime(RTC_DATE_TIME* dateTime);
 344:Generated_Source\PSoC4/RTC.h **** uint32 RTC_GetTime(void);
 345:Generated_Source\PSoC4/RTC.h **** uint32 RTC_GetDate(void);
 346:Generated_Source\PSoC4/RTC.h **** void   RTC_SetAlarmDateAndTime(const RTC_DATE_TIME* alarmTime);
 347:Generated_Source\PSoC4/RTC.h **** void   RTC_GetAlarmDateAndTime(RTC_DATE_TIME* alarmTimeDate);
 348:Generated_Source\PSoC4/RTC.h **** void   RTC_SetAlarmMask(uint32 mask);
 349:Generated_Source\PSoC4/RTC.h **** uint32 RTC_GetAlarmMask(void);
 350:Generated_Source\PSoC4/RTC.h **** uint32 RTC_ReadStatus(void);
 351:Generated_Source\PSoC4/RTC.h **** uint32 RTC_GetAlarmStatus(void);
 352:Generated_Source\PSoC4/RTC.h **** void   RTC_ClearAlarmStatus(void);
 353:Generated_Source\PSoC4/RTC.h **** void   RTC_SetDSTStartTime(const RTC_DST_TIME* dstStartTime,
 354:Generated_Source\PSoC4/RTC.h ****                                               RTC_DST_DATETYPE_ENUM type);
 355:Generated_Source\PSoC4/RTC.h **** void   RTC_SetDSTStopTime(const RTC_DST_TIME* dstStopTime,
 356:Generated_Source\PSoC4/RTC.h ****                                              RTC_DST_DATETYPE_ENUM type);
 357:Generated_Source\PSoC4/RTC.h **** uint32 RTC_ConvertBCDToDec(uint32 bcdNum);
 358:Generated_Source\PSoC4/RTC.h **** uint32 RTC_ConvertDecToBCD(uint32 decNum);
 359:Generated_Source\PSoC4/RTC.h **** void   RTC_Update(void);
 360:Generated_Source\PSoC4/RTC.h **** void*  RTC_SetAlarmHandler(void (*CallbackFunction)(void));
 361:Generated_Source\PSoC4/RTC.h **** 
 362:Generated_Source\PSoC4/RTC.h **** static uint32 RTC_ConstructDate(uint32 month, uint32 day, uint32 year);
 363:Generated_Source\PSoC4/RTC.h **** static uint32 RTC_ConstructTime(uint32 timeFormat, uint32 stateAmPm, uint32 hour, uint32 min, uint3
 364:Generated_Source\PSoC4/RTC.h **** /** @} api */
 365:Generated_Source\PSoC4/RTC.h **** 
 366:Generated_Source\PSoC4/RTC.h **** static uint32 RTC_GetTimeFormat(uint32 inputTime);
 367:Generated_Source\PSoC4/RTC.h **** static uint32 RTC_SetTimeFormat(uint32 inputTime, uint32 timeFormat);
 368:Generated_Source\PSoC4/RTC.h **** 
 369:Generated_Source\PSoC4/RTC.h **** /**
 370:Generated_Source\PSoC4/RTC.h **** * \addtogroup group_api
 371:Generated_Source\PSoC4/RTC.h **** * @{
 372:Generated_Source\PSoC4/RTC.h **** */
 373:Generated_Source\PSoC4/RTC.h **** static uint32 RTC_LeapYear(uint32 year);
 374:Generated_Source\PSoC4/RTC.h **** static uint32 RTC_IsBitSet(uint32 var, uint32 mask);
 375:Generated_Source\PSoC4/RTC.h **** static uint32 RTC_GetSecond(uint32 inputTime);
ARM GAS  C:\Users\Petro\AppData\Local\Temp\ccgkGqpX.s 			page 8


 376:Generated_Source\PSoC4/RTC.h **** static uint32 RTC_GetMinutes(uint32 inputTime);
 377:Generated_Source\PSoC4/RTC.h **** static uint32 RTC_GetHours(uint32 inputTime);
 378:Generated_Source\PSoC4/RTC.h **** static uint32 RTC_GetAmPm(uint32 inputTime);
 379:Generated_Source\PSoC4/RTC.h **** static uint32 RTC_GetDay(uint32 date);
 380:Generated_Source\PSoC4/RTC.h **** static uint32 RTC_GetMonth(uint32 date);
 381:Generated_Source\PSoC4/RTC.h **** static uint32 RTC_GetYear(uint32 date);
 382:Generated_Source\PSoC4/RTC.h **** /** @} api */
 383:Generated_Source\PSoC4/RTC.h **** 
 384:Generated_Source\PSoC4/RTC.h **** static uint32 RTC_SetSecond(uint32 inputTime, uint32 inputSecond);
 385:Generated_Source\PSoC4/RTC.h **** static uint32 RTC_SetMinutes(uint32 inputTime, uint32 inputMinute);
 386:Generated_Source\PSoC4/RTC.h **** static uint32 RTC_SetHours(uint32 inputTime, uint32 inputHours);
 387:Generated_Source\PSoC4/RTC.h **** static uint32 RTC_SetAmPm(uint32 inputTime, uint32 periodOfDay);
 388:Generated_Source\PSoC4/RTC.h **** static uint32 RTC_SetDay(uint32 inputDate, uint32 inputDay);
 389:Generated_Source\PSoC4/RTC.h **** static uint32 RTC_SetMonth(uint32 inputDate, uint32 inputMonth);
 390:Generated_Source\PSoC4/RTC.h **** static uint32 RTC_SetYear(uint32 inputDate, uint32 inputYear);
 391:Generated_Source\PSoC4/RTC.h **** 
 392:Generated_Source\PSoC4/RTC.h **** uint64 RTC_ConstructUnixAlarmTime(const RTC_DATE_TIME* alarmTime, uint8 alarmCfgMask);
 393:Generated_Source\PSoC4/RTC.h **** uint64 RTC_GetDstUnixTime(const RTC_DST_TIME* dstTime);
 394:Generated_Source\PSoC4/RTC.h **** uint64 RTC_GetNexAlarmTime(uint64 curUnixTime, uint8 alarmCfgMask);
 395:Generated_Source\PSoC4/RTC.h **** 
 396:Generated_Source\PSoC4/RTC.h **** static uint32 RTC_GetNextMinSec(uint32 curVal);
 397:Generated_Source\PSoC4/RTC.h **** static uint32 RTC_GetNextHour(uint32 curVal);
 398:Generated_Source\PSoC4/RTC.h **** static uint32 RTC_GetNextDay(uint32 curYear, uint32 curMonth, uint32 curDay, uint32 alarmCfgMask);
 399:Generated_Source\PSoC4/RTC.h **** static uint32 RTC_GetNextMonth(uint32 curMonth);
 400:Generated_Source\PSoC4/RTC.h **** static uint32 RTC_GetNextYear(uint32 curYear);
 401:Generated_Source\PSoC4/RTC.h **** static uint32 RTC_GetDayOfWeek(uint32 day, uint32 month, uint32 year);
 402:Generated_Source\PSoC4/RTC.h **** 
 403:Generated_Source\PSoC4/RTC.h **** uint32 RTC_DaysInMonth(uint32 month, uint32 year);
 404:Generated_Source\PSoC4/RTC.h **** uint32 RTC_DaysBeforeMonth(uint32 month, uint32 year);
 405:Generated_Source\PSoC4/RTC.h **** 
 406:Generated_Source\PSoC4/RTC.h **** /**
 407:Generated_Source\PSoC4/RTC.h **** * \addtogroup group_api
 408:Generated_Source\PSoC4/RTC.h **** * @{
 409:Generated_Source\PSoC4/RTC.h **** */
 410:Generated_Source\PSoC4/RTC.h **** void   RTC_UnixToDateTime(RTC_DATE_TIME* dateTime, uint64 unixTime, uint32 timeFormat);
 411:Generated_Source\PSoC4/RTC.h **** uint64 RTC_DateTimeToUnix(uint32 inputDate, uint32 inputTime);
 412:Generated_Source\PSoC4/RTC.h **** /** @} api */
 413:Generated_Source\PSoC4/RTC.h **** 
 414:Generated_Source\PSoC4/RTC.h **** uint32 RTC_RelativeToFixed(uint32 dayOfWeek, uint32 weekOfMonth, uint32 month, uint32 year);
 415:Generated_Source\PSoC4/RTC.h **** 
 416:Generated_Source\PSoC4/RTC.h **** 
 417:Generated_Source\PSoC4/RTC.h **** #if defined(CYDEV_RTC_SOURCE_WDT)
 418:Generated_Source\PSoC4/RTC.h ****     #if((0u != CYDEV_WDT_GENERATE_ISR) && (0u == RTC_INITIAL_UPDATE_MODE))
 419:Generated_Source\PSoC4/RTC.h ****         static void RTC_CySysRtcSetCallback(uint32 wdtNumber);
 420:Generated_Source\PSoC4/RTC.h ****         static void RTC_CySysRtcResetCallback(uint32 wdtNumber);
 421:Generated_Source\PSoC4/RTC.h ****     #endif /* ((0u != CYDEV_WDT_GENERATE_ISR) && (0u == RTC_INITIAL_UPDATE_MODE)) */
 422:Generated_Source\PSoC4/RTC.h **** #endif /* (CYDEV_RTC_SOURCE_WDT) */
 423:Generated_Source\PSoC4/RTC.h **** 
 424:Generated_Source\PSoC4/RTC.h **** /*******************************************************************************
 425:Generated_Source\PSoC4/RTC.h **** * Function Name: RTC_IsBitSet
 426:Generated_Source\PSoC4/RTC.h **** ****************************************************************************//**
 427:Generated_Source\PSoC4/RTC.h **** *
 428:Generated_Source\PSoC4/RTC.h **** * \brief
 429:Generated_Source\PSoC4/RTC.h **** *  Checks the state of a bit passed through parameter.
 430:Generated_Source\PSoC4/RTC.h **** *
 431:Generated_Source\PSoC4/RTC.h **** * \param
 432:Generated_Source\PSoC4/RTC.h **** *  var The variable to be checked.
ARM GAS  C:\Users\Petro\AppData\Local\Temp\ccgkGqpX.s 			page 9


 433:Generated_Source\PSoC4/RTC.h **** * \param
 434:Generated_Source\PSoC4/RTC.h **** *  mask The mask for a bit to be checked.
 435:Generated_Source\PSoC4/RTC.h **** *
 436:Generated_Source\PSoC4/RTC.h **** * \return
 437:Generated_Source\PSoC4/RTC.h **** *  0u - Bit is not set.
 438:Generated_Source\PSoC4/RTC.h **** * \return
 439:Generated_Source\PSoC4/RTC.h **** *  1u - Bit is set.
 440:Generated_Source\PSoC4/RTC.h **** *
 441:Generated_Source\PSoC4/RTC.h **** *******************************************************************************/
 442:Generated_Source\PSoC4/RTC.h **** static CY_INLINE uint32 RTC_IsBitSet(uint32 var, uint32 mask)
 443:Generated_Source\PSoC4/RTC.h **** {
 444:Generated_Source\PSoC4/RTC.h ****     return ((mask == (var & mask)) ? 1Lu : 0Lu);
 445:Generated_Source\PSoC4/RTC.h **** }
 446:Generated_Source\PSoC4/RTC.h **** 
 447:Generated_Source\PSoC4/RTC.h **** 
 448:Generated_Source\PSoC4/RTC.h **** /*******************************************************************************
 449:Generated_Source\PSoC4/RTC.h **** * Function Name: RTC_LeapYear
 450:Generated_Source\PSoC4/RTC.h **** ****************************************************************************//**
 451:Generated_Source\PSoC4/RTC.h **** *
 452:Generated_Source\PSoC4/RTC.h **** * \brief
 453:Generated_Source\PSoC4/RTC.h **** * Checks whether the year passed through the parameter is
 454:Generated_Source\PSoC4/RTC.h **** * leap or no.
 455:Generated_Source\PSoC4/RTC.h **** *
 456:Generated_Source\PSoC4/RTC.h **** * \param
 457:Generated_Source\PSoC4/RTC.h **** *  year The year to be checked.
 458:Generated_Source\PSoC4/RTC.h **** *
 459:Generated_Source\PSoC4/RTC.h **** *
 460:Generated_Source\PSoC4/RTC.h **** * \return
 461:Generated_Source\PSoC4/RTC.h **** *  0u - The year is not leap.
 462:Generated_Source\PSoC4/RTC.h **** * \return
 463:Generated_Source\PSoC4/RTC.h **** *  1u - The year is leap.
 464:Generated_Source\PSoC4/RTC.h **** *
 465:Generated_Source\PSoC4/RTC.h **** *******************************************************************************/
 466:Generated_Source\PSoC4/RTC.h **** static CY_INLINE uint32 RTC_LeapYear(uint32 year)
 467:Generated_Source\PSoC4/RTC.h **** {
 468:Generated_Source\PSoC4/RTC.h ****     uint32 retVal;
 469:Generated_Source\PSoC4/RTC.h **** 
 470:Generated_Source\PSoC4/RTC.h ****     if(((0u == (year % 4Lu)) && (0u != (year % 100Lu))) || (0u == (year % 400Lu)))
 471:Generated_Source\PSoC4/RTC.h ****     {
 472:Generated_Source\PSoC4/RTC.h ****         retVal = 1uL;
 473:Generated_Source\PSoC4/RTC.h ****     }
 474:Generated_Source\PSoC4/RTC.h ****     else
 475:Generated_Source\PSoC4/RTC.h ****     {
 476:Generated_Source\PSoC4/RTC.h ****         retVal = 0uL;
 477:Generated_Source\PSoC4/RTC.h ****     }
 478:Generated_Source\PSoC4/RTC.h **** 
 479:Generated_Source\PSoC4/RTC.h ****     return(retVal);
 480:Generated_Source\PSoC4/RTC.h **** }
 481:Generated_Source\PSoC4/RTC.h **** 
 482:Generated_Source\PSoC4/RTC.h **** 
 483:Generated_Source\PSoC4/RTC.h **** /*******************************************************************************
 484:Generated_Source\PSoC4/RTC.h **** * Function Name: RTC_GetSecond
 485:Generated_Source\PSoC4/RTC.h **** ****************************************************************************//**
 486:Generated_Source\PSoC4/RTC.h **** *
 487:Generated_Source\PSoC4/RTC.h **** * \brief
 488:Generated_Source\PSoC4/RTC.h **** *  Returns the seconds value from the time value that is passed as a/the parameter.
 489:Generated_Source\PSoC4/RTC.h **** *
ARM GAS  C:\Users\Petro\AppData\Local\Temp\ccgkGqpX.s 			page 10


 490:Generated_Source\PSoC4/RTC.h **** * \param
 491:Generated_Source\PSoC4/RTC.h **** *  time The time value.
 492:Generated_Source\PSoC4/RTC.h **** *
 493:Generated_Source\PSoC4/RTC.h **** * \return
 494:Generated_Source\PSoC4/RTC.h **** *  The seconds value.
 495:Generated_Source\PSoC4/RTC.h **** *
 496:Generated_Source\PSoC4/RTC.h **** *******************************************************************************/
 497:Generated_Source\PSoC4/RTC.h **** static CY_INLINE uint32 RTC_GetSecond(uint32 inputTime)
 498:Generated_Source\PSoC4/RTC.h **** {
  25              		.loc 1 498 0
  26              		.cfi_startproc
  27 0000 80B5     		push	{r7, lr}
  28              		.cfi_def_cfa_offset 8
  29              		.cfi_offset 7, -8
  30              		.cfi_offset 14, -4
  31 0002 84B0     		sub	sp, sp, #16
  32              		.cfi_def_cfa_offset 24
  33 0004 00AF     		add	r7, sp, #0
  34              		.cfi_def_cfa_register 7
  35 0006 7860     		str	r0, [r7, #4]
 499:Generated_Source\PSoC4/RTC.h ****     uint32 retVal;
 500:Generated_Source\PSoC4/RTC.h **** 
 501:Generated_Source\PSoC4/RTC.h ****     retVal  = ((inputTime & RTC_10_SECONDS_MASK) >> RTC_10_SECONDS_OFFSET) * 10u;
  36              		.loc 1 501 0
  37 0008 7B68     		ldr	r3, [r7, #4]
  38 000a 7022     		mov	r2, #112
  39 000c 1340     		and	r3, r2
  40 000e 1A09     		lsr	r2, r3, #4
  41 0010 131C     		mov	r3, r2
  42 0012 9B00     		lsl	r3, r3, #2
  43 0014 9B18     		add	r3, r3, r2
  44 0016 5B00     		lsl	r3, r3, #1
  45 0018 FB60     		str	r3, [r7, #12]
 502:Generated_Source\PSoC4/RTC.h ****     retVal += (inputTime & RTC_SECONDS_MASK) >> RTC_SECONDS_OFFSET;
  46              		.loc 1 502 0
  47 001a 7B68     		ldr	r3, [r7, #4]
  48 001c 0F22     		mov	r2, #15
  49 001e 1340     		and	r3, r2
  50 0020 FA68     		ldr	r2, [r7, #12]
  51 0022 D318     		add	r3, r2, r3
  52 0024 FB60     		str	r3, [r7, #12]
 503:Generated_Source\PSoC4/RTC.h **** 
 504:Generated_Source\PSoC4/RTC.h ****     return (retVal);
  53              		.loc 1 504 0
  54 0026 FB68     		ldr	r3, [r7, #12]
 505:Generated_Source\PSoC4/RTC.h **** }
  55              		.loc 1 505 0
  56 0028 181C     		mov	r0, r3
  57 002a BD46     		mov	sp, r7
  58 002c 04B0     		add	sp, sp, #16
  59              		@ sp needed
  60 002e 80BD     		pop	{r7, pc}
  61              		.cfi_endproc
  62              	.LFE4:
  63              		.size	RTC_GetSecond, .-RTC_GetSecond
  64              		.section	.text.RTC_GetMinutes,"ax",%progbits
  65              		.align	2
ARM GAS  C:\Users\Petro\AppData\Local\Temp\ccgkGqpX.s 			page 11


  66              		.code	16
  67              		.thumb_func
  68              		.type	RTC_GetMinutes, %function
  69              	RTC_GetMinutes:
  70              	.LFB5:
 506:Generated_Source\PSoC4/RTC.h **** 
 507:Generated_Source\PSoC4/RTC.h **** 
 508:Generated_Source\PSoC4/RTC.h **** /*******************************************************************************
 509:Generated_Source\PSoC4/RTC.h **** * Function Name: RTC_GetMinutes
 510:Generated_Source\PSoC4/RTC.h **** ****************************************************************************//**
 511:Generated_Source\PSoC4/RTC.h **** *
 512:Generated_Source\PSoC4/RTC.h **** * \brief
 513:Generated_Source\PSoC4/RTC.h **** *  Returns the minutes value from the time value that is passed as a/the 
 514:Generated_Source\PSoC4/RTC.h **** * parameter.
 515:Generated_Source\PSoC4/RTC.h **** *
 516:Generated_Source\PSoC4/RTC.h **** * \param
 517:Generated_Source\PSoC4/RTC.h **** *  time The time value.
 518:Generated_Source\PSoC4/RTC.h **** *
 519:Generated_Source\PSoC4/RTC.h **** * \return
 520:Generated_Source\PSoC4/RTC.h **** *  The minutes value.
 521:Generated_Source\PSoC4/RTC.h **** *
 522:Generated_Source\PSoC4/RTC.h **** *******************************************************************************/
 523:Generated_Source\PSoC4/RTC.h **** static CY_INLINE uint32 RTC_GetMinutes(uint32 inputTime)
 524:Generated_Source\PSoC4/RTC.h **** {
  71              		.loc 1 524 0
  72              		.cfi_startproc
  73 0000 80B5     		push	{r7, lr}
  74              		.cfi_def_cfa_offset 8
  75              		.cfi_offset 7, -8
  76              		.cfi_offset 14, -4
  77 0002 84B0     		sub	sp, sp, #16
  78              		.cfi_def_cfa_offset 24
  79 0004 00AF     		add	r7, sp, #0
  80              		.cfi_def_cfa_register 7
  81 0006 7860     		str	r0, [r7, #4]
 525:Generated_Source\PSoC4/RTC.h ****     uint32 retVal;
 526:Generated_Source\PSoC4/RTC.h **** 
 527:Generated_Source\PSoC4/RTC.h ****     retVal  = ((inputTime & RTC_10_MINUTES_MASK) >> RTC_10_MINUTES_OFFSET) * 10u;
  82              		.loc 1 527 0
  83 0008 7A68     		ldr	r2, [r7, #4]
  84 000a E023     		mov	r3, #224
  85 000c DB01     		lsl	r3, r3, #7
  86 000e 1340     		and	r3, r2
  87 0010 1A0B     		lsr	r2, r3, #12
  88 0012 131C     		mov	r3, r2
  89 0014 9B00     		lsl	r3, r3, #2
  90 0016 9B18     		add	r3, r3, r2
  91 0018 5B00     		lsl	r3, r3, #1
  92 001a FB60     		str	r3, [r7, #12]
 528:Generated_Source\PSoC4/RTC.h ****     retVal += (inputTime & RTC_MINUTES_MASK) >> RTC_MINUTES_OFFSET;
  93              		.loc 1 528 0
  94 001c 7A68     		ldr	r2, [r7, #4]
  95 001e F023     		mov	r3, #240
  96 0020 1B01     		lsl	r3, r3, #4
  97 0022 1340     		and	r3, r2
  98 0024 1B0A     		lsr	r3, r3, #8
  99 0026 FA68     		ldr	r2, [r7, #12]
ARM GAS  C:\Users\Petro\AppData\Local\Temp\ccgkGqpX.s 			page 12


 100 0028 D318     		add	r3, r2, r3
 101 002a FB60     		str	r3, [r7, #12]
 529:Generated_Source\PSoC4/RTC.h **** 
 530:Generated_Source\PSoC4/RTC.h ****     return (retVal);
 102              		.loc 1 530 0
 103 002c FB68     		ldr	r3, [r7, #12]
 531:Generated_Source\PSoC4/RTC.h **** }
 104              		.loc 1 531 0
 105 002e 181C     		mov	r0, r3
 106 0030 BD46     		mov	sp, r7
 107 0032 04B0     		add	sp, sp, #16
 108              		@ sp needed
 109 0034 80BD     		pop	{r7, pc}
 110              		.cfi_endproc
 111              	.LFE5:
 112              		.size	RTC_GetMinutes, .-RTC_GetMinutes
 113 0036 C046     		.section	.text.RTC_GetHours,"ax",%progbits
 114              		.align	2
 115              		.code	16
 116              		.thumb_func
 117              		.type	RTC_GetHours, %function
 118              	RTC_GetHours:
 119              	.LFB6:
 532:Generated_Source\PSoC4/RTC.h **** 
 533:Generated_Source\PSoC4/RTC.h **** 
 534:Generated_Source\PSoC4/RTC.h **** /*******************************************************************************
 535:Generated_Source\PSoC4/RTC.h **** * Function Name: RTC_GetHours
 536:Generated_Source\PSoC4/RTC.h **** ****************************************************************************//**
 537:Generated_Source\PSoC4/RTC.h **** *
 538:Generated_Source\PSoC4/RTC.h **** * \brief
 539:Generated_Source\PSoC4/RTC.h **** *  Returns the hours value from the time value that is passed as a/the parameter.
 540:Generated_Source\PSoC4/RTC.h **** *
 541:Generated_Source\PSoC4/RTC.h **** * \param
 542:Generated_Source\PSoC4/RTC.h **** *  time The time value.
 543:Generated_Source\PSoC4/RTC.h **** *
 544:Generated_Source\PSoC4/RTC.h **** * \return
 545:Generated_Source\PSoC4/RTC.h **** *  The hours value.
 546:Generated_Source\PSoC4/RTC.h **** *
 547:Generated_Source\PSoC4/RTC.h **** *******************************************************************************/
 548:Generated_Source\PSoC4/RTC.h **** static CY_INLINE uint32 RTC_GetHours(uint32 inputTime)
 549:Generated_Source\PSoC4/RTC.h **** {
 120              		.loc 1 549 0
 121              		.cfi_startproc
 122 0000 80B5     		push	{r7, lr}
 123              		.cfi_def_cfa_offset 8
 124              		.cfi_offset 7, -8
 125              		.cfi_offset 14, -4
 126 0002 84B0     		sub	sp, sp, #16
 127              		.cfi_def_cfa_offset 24
 128 0004 00AF     		add	r7, sp, #0
 129              		.cfi_def_cfa_register 7
 130 0006 7860     		str	r0, [r7, #4]
 550:Generated_Source\PSoC4/RTC.h ****     uint32 retVal;
 551:Generated_Source\PSoC4/RTC.h **** 
 552:Generated_Source\PSoC4/RTC.h ****     retVal  = ((inputTime & RTC_10_HOURS_MASK) >> RTC_10_HOURS_OFFSET) * 10u;
 131              		.loc 1 552 0
 132 0008 7A68     		ldr	r2, [r7, #4]
ARM GAS  C:\Users\Petro\AppData\Local\Temp\ccgkGqpX.s 			page 13


 133 000a C023     		mov	r3, #192
 134 000c 9B03     		lsl	r3, r3, #14
 135 000e 1340     		and	r3, r2
 136 0010 1A0D     		lsr	r2, r3, #20
 137 0012 131C     		mov	r3, r2
 138 0014 9B00     		lsl	r3, r3, #2
 139 0016 9B18     		add	r3, r3, r2
 140 0018 5B00     		lsl	r3, r3, #1
 141 001a FB60     		str	r3, [r7, #12]
 553:Generated_Source\PSoC4/RTC.h ****     retVal += (inputTime & RTC_HOURS_MASK) >> RTC_HOURS_OFFSET;
 142              		.loc 1 553 0
 143 001c 7A68     		ldr	r2, [r7, #4]
 144 001e F023     		mov	r3, #240
 145 0020 1B03     		lsl	r3, r3, #12
 146 0022 1340     		and	r3, r2
 147 0024 1B0C     		lsr	r3, r3, #16
 148 0026 FA68     		ldr	r2, [r7, #12]
 149 0028 D318     		add	r3, r2, r3
 150 002a FB60     		str	r3, [r7, #12]
 554:Generated_Source\PSoC4/RTC.h **** 
 555:Generated_Source\PSoC4/RTC.h ****     return (retVal);
 151              		.loc 1 555 0
 152 002c FB68     		ldr	r3, [r7, #12]
 556:Generated_Source\PSoC4/RTC.h **** }
 153              		.loc 1 556 0
 154 002e 181C     		mov	r0, r3
 155 0030 BD46     		mov	sp, r7
 156 0032 04B0     		add	sp, sp, #16
 157              		@ sp needed
 158 0034 80BD     		pop	{r7, pc}
 159              		.cfi_endproc
 160              	.LFE6:
 161              		.size	RTC_GetHours, .-RTC_GetHours
 162              		.comm	cfont,12,4
 163              		.comm	scrbuf,504,4
 164              		.comm	_sleep,1,1
 165              		.comm	_contrast,4,4
 166 0036 C046     		.bss
 167              		.align	2
 168              	buff:
 169 0000 00000000 		.space	100
 169      00000000 
 169      00000000 
 169      00000000 
 169      00000000 
 170              		.section	.text.DisplayStart,"ax",%progbits
 171              		.align	2
 172              		.global	DisplayStart
 173              		.code	16
 174              		.thumb_func
 175              		.type	DisplayStart, %function
 176              	DisplayStart:
 177              	.LFB63:
 178              		.file 2 "lib_Display\\display.c"
   1:lib_Display/display.c **** 
   2:lib_Display/display.c **** #include <CyLib.h>
   3:lib_Display/display.c **** #include <stdio.h>
ARM GAS  C:\Users\Petro\AppData\Local\Temp\ccgkGqpX.s 			page 14


   4:lib_Display/display.c **** //#include "lib_RTC\RTC_WDT.h"
   5:lib_Display/display.c **** #include "lib_Display\display.h"
   6:lib_Display/display.c **** #include "nokia5110/LCD5110_Graph.h"
   7:lib_Display/display.c **** #include "project.h"
   8:lib_Display/display.c **** 
   9:lib_Display/display.c **** #define BATT_0_PERCENT      0.36
  10:lib_Display/display.c **** #define BATT_25_PERCENT     0.41
  11:lib_Display/display.c **** #define BATT_50_PERCENT     0.46
  12:lib_Display/display.c **** #define BATT_75_PERCENT     0.51
  13:lib_Display/display.c **** #define BATT_100_PERCENT    0.56
  14:lib_Display/display.c **** 
  15:lib_Display/display.c **** extern unsigned char SmallFont[];
  16:lib_Display/display.c **** extern unsigned char TinyFont[];
  17:lib_Display/display.c **** extern unsigned char BigNumbers[];
  18:lib_Display/display.c **** extern unsigned char MediumNumbers[];
  19:lib_Display/display.c **** extern uint8_t logoCypress[];
  20:lib_Display/display.c **** extern uint8_t homeSkreen[];
  21:lib_Display/display.c **** extern uint8_t homeSkreenNull[];
  22:lib_Display/display.c **** extern uint8_t networkOn[];
  23:lib_Display/display.c **** extern uint8_t SDinsert[];
  24:lib_Display/display.c **** extern uint8_t SDnoInsert[];
  25:lib_Display/display.c **** 
  26:lib_Display/display.c **** /*buffer for print string on LCD*/
  27:lib_Display/display.c **** static  char buff[100];
  28:lib_Display/display.c **** 
  29:lib_Display/display.c **** 
  30:lib_Display/display.c **** /*******************************************************************************
  31:lib_Display/display.c **** * Function name: DisplayConfig
  32:lib_Display/display.c **** ********************************************************************************
  33:lib_Display/display.c **** *
  34:lib_Display/display.c **** * Summary:
  35:lib_Display/display.c **** * initialization display
  36:lib_Display/display.c **** *
  37:lib_Display/display.c **** *******************************************************************************/	
  38:lib_Display/display.c **** void DisplayStart(void)
  39:lib_Display/display.c **** {
 179              		.loc 2 39 0
 180              		.cfi_startproc
 181 0000 80B5     		push	{r7, lr}
 182              		.cfi_def_cfa_offset 8
 183              		.cfi_offset 7, -8
 184              		.cfi_offset 14, -4
 185 0002 82B0     		sub	sp, sp, #8
 186              		.cfi_def_cfa_offset 16
 187 0004 02AF     		add	r7, sp, #8
 188              		.cfi_def_cfa 7, 8
  40:lib_Display/display.c ****     /*backlight off*/
  41:lib_Display/display.c ****     LCD_BL_Write(0);
 189              		.loc 2 41 0
 190 0006 0020     		mov	r0, #0
 191 0008 FFF7FEFF 		bl	LCD_BL_Write
  42:lib_Display/display.c ****     
  43:lib_Display/display.c ****     InitLCD(LCD_CONTRAST);
 192              		.loc 2 43 0
 193 000c 4620     		mov	r0, #70
 194 000e FFF7FEFF 		bl	InitLCD
  44:lib_Display/display.c ****     setFont(SmallFont);
ARM GAS  C:\Users\Petro\AppData\Local\Temp\ccgkGqpX.s 			page 15


 195              		.loc 2 44 0
 196 0012 094B     		ldr	r3, .L8
 197 0014 181C     		mov	r0, r3
 198 0016 FFF7FEFF 		bl	setFont
  45:lib_Display/display.c ****     clrScr();
 199              		.loc 2 45 0
 200 001a FFF7FEFF 		bl	clrScr
  46:lib_Display/display.c ****     drawBitmap(0, 0, homeSkreenNull, 84, 48);
 201              		.loc 2 46 0
 202 001e 074A     		ldr	r2, .L8+4
 203 0020 3023     		mov	r3, #48
 204 0022 0093     		str	r3, [sp]
 205 0024 0020     		mov	r0, #0
 206 0026 0021     		mov	r1, #0
 207 0028 5423     		mov	r3, #84
 208 002a FFF7FEFF 		bl	drawBitmap
  47:lib_Display/display.c ****     update();
 209              		.loc 2 47 0
 210 002e FFF7FEFF 		bl	update
  48:lib_Display/display.c **** }
 211              		.loc 2 48 0
 212 0032 BD46     		mov	sp, r7
 213              		@ sp needed
 214 0034 80BD     		pop	{r7, pc}
 215              	.L9:
 216 0036 C046     		.align	2
 217              	.L8:
 218 0038 00000000 		.word	SmallFont
 219 003c 00000000 		.word	homeSkreenNull
 220              		.cfi_endproc
 221              	.LFE63:
 222              		.size	DisplayStart, .-DisplayStart
 223              		.section	.text.Display,"ax",%progbits
 224              		.align	2
 225              		.global	Display
 226              		.code	16
 227              		.thumb_func
 228              		.type	Display, %function
 229              	Display:
 230              	.LFB64:
  49:lib_Display/display.c **** 	
  50:lib_Display/display.c **** 
  51:lib_Display/display.c **** /*******************************************************************************
  52:lib_Display/display.c **** * Function Name: DisplayPrintf
  53:lib_Display/display.c **** ********************************************************************************
  54:lib_Display/display.c **** *
  55:lib_Display/display.c **** * Summary:
  56:lib_Display/display.c **** *   Writes a zero terminated string to the LCD.
  57:lib_Display/display.c **** *
  58:lib_Display/display.c **** * Parameters:
  59:lib_Display/display.c **** *  string: Pointer to head of char8 array to be written to the LCD module
  60:lib_Display/display.c **** * Note:
  61:lib_Display/display.c **** *   print string from position row = 0, column = 0
  62:lib_Display/display.c **** *
  63:lib_Display/display.c **** *******************************************************************************/
  64:lib_Display/display.c **** void Display(char *message)
  65:lib_Display/display.c **** {    
ARM GAS  C:\Users\Petro\AppData\Local\Temp\ccgkGqpX.s 			page 16


 231              		.loc 2 65 0
 232              		.cfi_startproc
 233 0000 80B5     		push	{r7, lr}
 234              		.cfi_def_cfa_offset 8
 235              		.cfi_offset 7, -8
 236              		.cfi_offset 14, -4
 237 0002 82B0     		sub	sp, sp, #8
 238              		.cfi_def_cfa_offset 16
 239 0004 00AF     		add	r7, sp, #0
 240              		.cfi_def_cfa_register 7
 241 0006 7860     		str	r0, [r7, #4]
  66:lib_Display/display.c ****     //if(strlen(message) > 11)return;
  67:lib_Display/display.c ****     strncpy(buff,message,11);
 242              		.loc 2 67 0
 243 0008 0A4A     		ldr	r2, .L11
 244 000a 7B68     		ldr	r3, [r7, #4]
 245 000c 101C     		mov	r0, r2
 246 000e 191C     		mov	r1, r3
 247 0010 0B22     		mov	r2, #11
 248 0012 FFF7FEFF 		bl	strncpy
  68:lib_Display/display.c ****     setFont(SmallFont);
 249              		.loc 2 68 0
 250 0016 084B     		ldr	r3, .L11+4
 251 0018 181C     		mov	r0, r3
 252 001a FFF7FEFF 		bl	setFont
  69:lib_Display/display.c ****     print(buff,8,40);
 253              		.loc 2 69 0
 254 001e 054B     		ldr	r3, .L11
 255 0020 181C     		mov	r0, r3
 256 0022 0821     		mov	r1, #8
 257 0024 2822     		mov	r2, #40
 258 0026 FFF7FEFF 		bl	print
  70:lib_Display/display.c ****     update();
 259              		.loc 2 70 0
 260 002a FFF7FEFF 		bl	update
  71:lib_Display/display.c **** }
 261              		.loc 2 71 0
 262 002e BD46     		mov	sp, r7
 263 0030 02B0     		add	sp, sp, #8
 264              		@ sp needed
 265 0032 80BD     		pop	{r7, pc}
 266              	.L12:
 267              		.align	2
 268              	.L11:
 269 0034 00000000 		.word	buff
 270 0038 00000000 		.word	SmallFont
 271              		.cfi_endproc
 272              	.LFE64:
 273              		.size	Display, .-Display
 274              		.section	.text.DisplayIndicatorSD,"ax",%progbits
 275              		.align	2
 276              		.global	DisplayIndicatorSD
 277              		.code	16
 278              		.thumb_func
 279              		.type	DisplayIndicatorSD, %function
 280              	DisplayIndicatorSD:
 281              	.LFB65:
ARM GAS  C:\Users\Petro\AppData\Local\Temp\ccgkGqpX.s 			page 17


  72:lib_Display/display.c **** 
  73:lib_Display/display.c **** /*******************************************************************************
  74:lib_Display/display.c **** * Function name: DisplayPutIndicatorSD
  75:lib_Display/display.c **** ********************************************************************************
  76:lib_Display/display.c **** *
  77:lib_Display/display.c **** * Summary:
  78:lib_Display/display.c **** *   print incator SD card 
  79:lib_Display/display.c **** *
  80:lib_Display/display.c **** * Parametrs:
  81:lib_Display/display.c **** *   state = SD_INSERT or state = SD_NO_INSERT
  82:lib_Display/display.c **** *******************************************************************************/
  83:lib_Display/display.c **** void DisplayIndicatorSD(SDindicator indicator)
  84:lib_Display/display.c **** {
 282              		.loc 2 84 0
 283              		.cfi_startproc
 284 0000 80B5     		push	{r7, lr}
 285              		.cfi_def_cfa_offset 8
 286              		.cfi_offset 7, -8
 287              		.cfi_offset 14, -4
 288 0002 84B0     		sub	sp, sp, #16
 289              		.cfi_def_cfa_offset 24
 290 0004 02AF     		add	r7, sp, #8
 291              		.cfi_def_cfa 7, 16
 292 0006 021C     		mov	r2, r0
 293 0008 FB1D     		add	r3, r7, #7
 294 000a 1A70     		strb	r2, [r3]
  85:lib_Display/display.c ****     if(indicator == SD_INSERT)
 295              		.loc 2 85 0
 296 000c FB1D     		add	r3, r7, #7
 297 000e 1B78     		ldrb	r3, [r3]
 298 0010 002B     		cmp	r3, #0
 299 0012 08D1     		bne	.L14
  86:lib_Display/display.c ****     {
  87:lib_Display/display.c ****         drawBitmap(64, 1, SDinsert, 10, 8);
 300              		.loc 2 87 0
 301 0014 0A4A     		ldr	r2, .L16
 302 0016 0823     		mov	r3, #8
 303 0018 0093     		str	r3, [sp]
 304 001a 4020     		mov	r0, #64
 305 001c 0121     		mov	r1, #1
 306 001e 0A23     		mov	r3, #10
 307 0020 FFF7FEFF 		bl	drawBitmap
 308 0024 07E0     		b	.L15
 309              	.L14:
  88:lib_Display/display.c ****     }
  89:lib_Display/display.c ****     else
  90:lib_Display/display.c ****     {
  91:lib_Display/display.c ****         drawBitmap(64, 1, SDnoInsert, 10, 8);
 310              		.loc 2 91 0
 311 0026 074A     		ldr	r2, .L16+4
 312 0028 0823     		mov	r3, #8
 313 002a 0093     		str	r3, [sp]
 314 002c 4020     		mov	r0, #64
 315 002e 0121     		mov	r1, #1
 316 0030 0A23     		mov	r3, #10
 317 0032 FFF7FEFF 		bl	drawBitmap
 318              	.L15:
ARM GAS  C:\Users\Petro\AppData\Local\Temp\ccgkGqpX.s 			page 18


  92:lib_Display/display.c ****     }
  93:lib_Display/display.c ****     update();
 319              		.loc 2 93 0
 320 0036 FFF7FEFF 		bl	update
  94:lib_Display/display.c **** }
 321              		.loc 2 94 0
 322 003a BD46     		mov	sp, r7
 323 003c 02B0     		add	sp, sp, #8
 324              		@ sp needed
 325 003e 80BD     		pop	{r7, pc}
 326              	.L17:
 327              		.align	2
 328              	.L16:
 329 0040 00000000 		.word	SDinsert
 330 0044 00000000 		.word	SDnoInsert
 331              		.cfi_endproc
 332              	.LFE65:
 333              		.size	DisplayIndicatorSD, .-DisplayIndicatorSD
 334              		.section	.text.DisplayIndicatorNetwork,"ax",%progbits
 335              		.align	2
 336              		.global	DisplayIndicatorNetwork
 337              		.code	16
 338              		.thumb_func
 339              		.type	DisplayIndicatorNetwork, %function
 340              	DisplayIndicatorNetwork:
 341              	.LFB66:
  95:lib_Display/display.c **** 
  96:lib_Display/display.c **** /*******************************************************************************
  97:lib_Display/display.c **** * Function name: DisplayPutIndicatorNetwork
  98:lib_Display/display.c **** ********************************************************************************
  99:lib_Display/display.c **** *
 100:lib_Display/display.c **** * Summary:
 101:lib_Display/display.c **** *   print incator connect  from position row = 1, column = 15
 102:lib_Display/display.c **** *
 103:lib_Display/display.c **** * Parametrs:
 104:lib_Display/display.c **** *   state = CONNECT or state = DISCONNECT
 105:lib_Display/display.c **** *******************************************************************************/
 106:lib_Display/display.c **** void DisplayIndicatorNetwork(NetworkIndicator indicator)
 107:lib_Display/display.c **** {
 342              		.loc 2 107 0
 343              		.cfi_startproc
 344 0000 80B5     		push	{r7, lr}
 345              		.cfi_def_cfa_offset 8
 346              		.cfi_offset 7, -8
 347              		.cfi_offset 14, -4
 348 0002 84B0     		sub	sp, sp, #16
 349              		.cfi_def_cfa_offset 24
 350 0004 02AF     		add	r7, sp, #8
 351              		.cfi_def_cfa 7, 16
 352 0006 021C     		mov	r2, r0
 353 0008 FB1D     		add	r3, r7, #7
 354 000a 1A70     		strb	r2, [r3]
 108:lib_Display/display.c ****     if(indicator == CONNECT)
 355              		.loc 2 108 0
 356 000c FB1D     		add	r3, r7, #7
 357 000e 1B78     		ldrb	r3, [r3]
 358 0010 002B     		cmp	r3, #0
ARM GAS  C:\Users\Petro\AppData\Local\Temp\ccgkGqpX.s 			page 19


 359 0012 08D1     		bne	.L19
 109:lib_Display/display.c ****     {
 110:lib_Display/display.c ****         drawBitmap(1,3,networkOn,6,35);
 360              		.loc 2 110 0
 361 0014 134A     		ldr	r2, .L21
 362 0016 2323     		mov	r3, #35
 363 0018 0093     		str	r3, [sp]
 364 001a 0120     		mov	r0, #1
 365 001c 0321     		mov	r1, #3
 366 001e 0623     		mov	r3, #6
 367 0020 FFF7FEFF 		bl	drawBitmap
 368 0024 18E0     		b	.L20
 369              	.L19:
 111:lib_Display/display.c ****     }
 112:lib_Display/display.c ****     else
 113:lib_Display/display.c ****     {
 114:lib_Display/display.c ****         clrVLine(1,3,35);
 370              		.loc 2 114 0
 371 0026 0120     		mov	r0, #1
 372 0028 0321     		mov	r1, #3
 373 002a 2322     		mov	r2, #35
 374 002c FFF7FEFF 		bl	clrVLine
 115:lib_Display/display.c ****         clrVLine(2,3,35);
 375              		.loc 2 115 0
 376 0030 0220     		mov	r0, #2
 377 0032 0321     		mov	r1, #3
 378 0034 2322     		mov	r2, #35
 379 0036 FFF7FEFF 		bl	clrVLine
 116:lib_Display/display.c ****         clrVLine(3,3,35);
 380              		.loc 2 116 0
 381 003a 0320     		mov	r0, #3
 382 003c 0321     		mov	r1, #3
 383 003e 2322     		mov	r2, #35
 384 0040 FFF7FEFF 		bl	clrVLine
 117:lib_Display/display.c ****         clrVLine(4,3,35);
 385              		.loc 2 117 0
 386 0044 0420     		mov	r0, #4
 387 0046 0321     		mov	r1, #3
 388 0048 2322     		mov	r2, #35
 389 004a FFF7FEFF 		bl	clrVLine
 118:lib_Display/display.c ****         clrVLine(5,3,35);
 390              		.loc 2 118 0
 391 004e 0520     		mov	r0, #5
 392 0050 0321     		mov	r1, #3
 393 0052 2322     		mov	r2, #35
 394 0054 FFF7FEFF 		bl	clrVLine
 395              	.L20:
 119:lib_Display/display.c ****     }
 120:lib_Display/display.c ****     update();
 396              		.loc 2 120 0
 397 0058 FFF7FEFF 		bl	update
 121:lib_Display/display.c **** }
 398              		.loc 2 121 0
 399 005c BD46     		mov	sp, r7
 400 005e 02B0     		add	sp, sp, #8
 401              		@ sp needed
 402 0060 80BD     		pop	{r7, pc}
ARM GAS  C:\Users\Petro\AppData\Local\Temp\ccgkGqpX.s 			page 20


 403              	.L22:
 404 0062 C046     		.align	2
 405              	.L21:
 406 0064 00000000 		.word	networkOn
 407              		.cfi_endproc
 408              	.LFE66:
 409              		.size	DisplayIndicatorNetwork, .-DisplayIndicatorNetwork
 410              		.section	.rodata
 411              		.align	2
 412              	.LC9:
 413 0000 2530326C 		.ascii	"%02lu:%02lu:%02lu\000"
 413      753A2530 
 413      326C753A 
 413      2530326C 
 413      7500
 414 0012 0000     		.section	.text.DisplayRealTime,"ax",%progbits
 415              		.align	2
 416              		.global	DisplayRealTime
 417              		.code	16
 418              		.thumb_func
 419              		.type	DisplayRealTime, %function
 420              	DisplayRealTime:
 421              	.LFB67:
 122:lib_Display/display.c **** 
 123:lib_Display/display.c **** /*******************************************************************************
 124:lib_Display/display.c **** * Function name: DisplayPrintfRealTime
 125:lib_Display/display.c **** ********************************************************************************
 126:lib_Display/display.c **** *
 127:lib_Display/display.c **** * Summary:
 128:lib_Display/display.c **** *   print real time from position row = 1, column = 0
 129:lib_Display/display.c **** *
 130:lib_Display/display.c **** *******************************************************************************/
 131:lib_Display/display.c **** void DisplayRealTime(void)
 132:lib_Display/display.c **** {
 422              		.loc 2 132 0
 423              		.cfi_startproc
 424 0000 B0B5     		push	{r4, r5, r7, lr}
 425              		.cfi_def_cfa_offset 16
 426              		.cfi_offset 4, -16
 427              		.cfi_offset 5, -12
 428              		.cfi_offset 7, -8
 429              		.cfi_offset 14, -4
 430 0002 84B0     		sub	sp, sp, #16
 431              		.cfi_def_cfa_offset 32
 432 0004 02AF     		add	r7, sp, #8
 433              		.cfi_def_cfa 7, 24
 133:lib_Display/display.c ****     uint32_t time;
 134:lib_Display/display.c ****     
 135:lib_Display/display.c ****     setFont(SmallFont);
 434              		.loc 2 135 0
 435 0006 154B     		ldr	r3, .L24
 436 0008 181C     		mov	r0, r3
 437 000a FFF7FEFF 		bl	setFont
 136:lib_Display/display.c ****     time = RTC_GetTime();
 438              		.loc 2 136 0
 439 000e FFF7FEFF 		bl	RTC_GetTime
 440 0012 031C     		mov	r3, r0
ARM GAS  C:\Users\Petro\AppData\Local\Temp\ccgkGqpX.s 			page 21


 441 0014 7B60     		str	r3, [r7, #4]
 137:lib_Display/display.c ****     sprintf(buff, "%02lu:%02lu:%02lu", RTC_GetHours(time),RTC_GetMinutes(time), RTC_GetSecond(time)
 442              		.loc 2 137 0
 443 0016 7B68     		ldr	r3, [r7, #4]
 444 0018 181C     		mov	r0, r3
 445 001a FFF7FEFF 		bl	RTC_GetHours
 446 001e 051C     		mov	r5, r0
 447 0020 7B68     		ldr	r3, [r7, #4]
 448 0022 181C     		mov	r0, r3
 449 0024 FFF7FEFF 		bl	RTC_GetMinutes
 450 0028 041C     		mov	r4, r0
 451 002a 7B68     		ldr	r3, [r7, #4]
 452 002c 181C     		mov	r0, r3
 453 002e FFF7FEFF 		bl	RTC_GetSecond
 454 0032 011C     		mov	r1, r0
 455 0034 0A4A     		ldr	r2, .L24+4
 456 0036 0B4B     		ldr	r3, .L24+8
 457 0038 0091     		str	r1, [sp]
 458 003a 101C     		mov	r0, r2
 459 003c 191C     		mov	r1, r3
 460 003e 2A1C     		mov	r2, r5
 461 0040 231C     		mov	r3, r4
 462 0042 FFF7FEFF 		bl	sprintf
 138:lib_Display/display.c ****     //sprintf(buff,"%02d:%02d:%02d", 13,59,59);
 139:lib_Display/display.c ****     print(buff,10,0);
 463              		.loc 2 139 0
 464 0046 064B     		ldr	r3, .L24+4
 465 0048 181C     		mov	r0, r3
 466 004a 0A21     		mov	r1, #10
 467 004c 0022     		mov	r2, #0
 468 004e FFF7FEFF 		bl	print
 140:lib_Display/display.c ****     update();
 469              		.loc 2 140 0
 470 0052 FFF7FEFF 		bl	update
 141:lib_Display/display.c ****     
 142:lib_Display/display.c **** }
 471              		.loc 2 142 0
 472 0056 BD46     		mov	sp, r7
 473 0058 02B0     		add	sp, sp, #8
 474              		@ sp needed
 475 005a B0BD     		pop	{r4, r5, r7, pc}
 476              	.L25:
 477              		.align	2
 478              	.L24:
 479 005c 00000000 		.word	SmallFont
 480 0060 00000000 		.word	buff
 481 0064 00000000 		.word	.LC9
 482              		.cfi_endproc
 483              	.LFE67:
 484              		.size	DisplayRealTime, .-DisplayRealTime
 485              		.section	.text.DisplayLoading,"ax",%progbits
 486              		.align	2
 487              		.global	DisplayLoading
 488              		.code	16
 489              		.thumb_func
 490              		.type	DisplayLoading, %function
 491              	DisplayLoading:
ARM GAS  C:\Users\Petro\AppData\Local\Temp\ccgkGqpX.s 			page 22


 492              	.LFB68:
 143:lib_Display/display.c **** 
 144:lib_Display/display.c **** 
 145:lib_Display/display.c **** /*******************************************************************************
 146:lib_Display/display.c **** * Function name: DisplayPrintfLoading
 147:lib_Display/display.c **** ********************************************************************************
 148:lib_Display/display.c **** *
 149:lib_Display/display.c **** * print loading from position row = 1, column = 0
 150:lib_Display/display.c **** *
 151:lib_Display/display.c **** *******************************************************************************/
 152:lib_Display/display.c **** void DisplayLoading(uint32_t numLoad)
 153:lib_Display/display.c **** {
 493              		.loc 2 153 0
 494              		.cfi_startproc
 495 0000 80B5     		push	{r7, lr}
 496              		.cfi_def_cfa_offset 8
 497              		.cfi_offset 7, -8
 498              		.cfi_offset 14, -4
 499 0002 82B0     		sub	sp, sp, #8
 500              		.cfi_def_cfa_offset 16
 501 0004 00AF     		add	r7, sp, #0
 502              		.cfi_def_cfa_register 7
 503 0006 7860     		str	r0, [r7, #4]
 154:lib_Display/display.c **** //    if(numLoad == 0)
 155:lib_Display/display.c **** //    {
 156:lib_Display/display.c **** //        /*clear row 1*/
 157:lib_Display/display.c **** //        LCD_Position(1,0);
 158:lib_Display/display.c **** //        LCD_PrintString("             ");
 159:lib_Display/display.c **** //    }
 160:lib_Display/display.c **** //    if((numLoad > 0) && numLoad < 16)
 161:lib_Display/display.c **** //    {
 162:lib_Display/display.c **** //        LCD_Position(1,numLoad-1);
 163:lib_Display/display.c **** //        LCD_PutChar(LCD_CUSTOM_4);
 164:lib_Display/display.c **** //    }
 165:lib_Display/display.c **** }
 504              		.loc 2 165 0
 505 0008 BD46     		mov	sp, r7
 506 000a 02B0     		add	sp, sp, #8
 507              		@ sp needed
 508 000c 80BD     		pop	{r7, pc}
 509              		.cfi_endproc
 510              	.LFE68:
 511              		.size	DisplayLoading, .-DisplayLoading
 512              		.global	__aeabi_fcmplt
 513              		.global	__aeabi_f2d
 514              		.global	__aeabi_dcmpgt
 515 000e C046     		.section	.text.DisplayBattVoltage,"ax",%progbits
 516              		.align	2
 517              		.global	DisplayBattVoltage
 518              		.code	16
 519              		.thumb_func
 520              		.type	DisplayBattVoltage, %function
 521              	DisplayBattVoltage:
 522              	.LFB69:
 166:lib_Display/display.c **** 
 167:lib_Display/display.c **** /*******************************************************************************
 168:lib_Display/display.c **** * Function name: DisplayBattVoltage
ARM GAS  C:\Users\Petro\AppData\Local\Temp\ccgkGqpX.s 			page 23


 169:lib_Display/display.c **** ********************************************************************************
 170:lib_Display/display.c **** *
 171:lib_Display/display.c **** * print voltage battery
 172:lib_Display/display.c **** *
 173:lib_Display/display.c **** *******************************************************************************/
 174:lib_Display/display.c **** void DisplayBattVoltage(float voltage)
 175:lib_Display/display.c **** {
 523              		.loc 2 175 0
 524              		.cfi_startproc
 525 0000 90B5     		push	{r4, r7, lr}
 526              		.cfi_def_cfa_offset 12
 527              		.cfi_offset 4, -12
 528              		.cfi_offset 7, -8
 529              		.cfi_offset 14, -4
 530 0002 85B0     		sub	sp, sp, #20
 531              		.cfi_def_cfa_offset 32
 532 0004 00AF     		add	r7, sp, #0
 533              		.cfi_def_cfa_register 7
 534 0006 7860     		str	r0, [r7, #4]
 176:lib_Display/display.c ****     if(voltage < 0)return;
 535              		.loc 2 176 0
 536 0008 7868     		ldr	r0, [r7, #4]
 537 000a 0021     		mov	r1, #0
 538 000c FFF7FEFF 		bl	__aeabi_fcmplt
 539 0010 031E     		sub	r3, r0, #0
 540 0012 00D0     		beq	.L46
 541 0014 9AE0     		b	.L27
 542              	.L46:
 177:lib_Display/display.c ****     
 178:lib_Display/display.c ****     /*clear image batt*/
 179:lib_Display/display.c ****     uint8_t i;
 180:lib_Display/display.c ****     for(i=0;i<5;i++)
 543              		.loc 2 180 0
 544 0016 0F23     		mov	r3, #15
 545 0018 FB18     		add	r3, r7, r3
 546 001a 0022     		mov	r2, #0
 547 001c 1A70     		strb	r2, [r3]
 548 001e 0FE0     		b	.L31
 549              	.L32:
 181:lib_Display/display.c ****     {
 182:lib_Display/display.c ****         clrVLine(77+i,4,35);
 550              		.loc 2 182 0 discriminator 3
 551 0020 0F23     		mov	r3, #15
 552 0022 FB18     		add	r3, r7, r3
 553 0024 1B78     		ldrb	r3, [r3]
 554 0026 4D33     		add	r3, r3, #77
 555 0028 181C     		mov	r0, r3
 556 002a 0421     		mov	r1, #4
 557 002c 2322     		mov	r2, #35
 558 002e FFF7FEFF 		bl	clrVLine
 180:lib_Display/display.c ****     {
 559              		.loc 2 180 0 discriminator 3
 560 0032 0F23     		mov	r3, #15
 561 0034 FB18     		add	r3, r7, r3
 562 0036 1A78     		ldrb	r2, [r3]
 563 0038 0F23     		mov	r3, #15
 564 003a FB18     		add	r3, r7, r3
ARM GAS  C:\Users\Petro\AppData\Local\Temp\ccgkGqpX.s 			page 24


 565 003c 0132     		add	r2, r2, #1
 566 003e 1A70     		strb	r2, [r3]
 567              	.L31:
 180:lib_Display/display.c ****     {
 568              		.loc 2 180 0 is_stmt 0 discriminator 1
 569 0040 0F23     		mov	r3, #15
 570 0042 FB18     		add	r3, r7, r3
 571 0044 1B78     		ldrb	r3, [r3]
 572 0046 042B     		cmp	r3, #4
 573 0048 EAD9     		bls	.L32
 183:lib_Display/display.c ****     }
 184:lib_Display/display.c ****     
 185:lib_Display/display.c ****     if(voltage > BATT_0_PERCENT)
 574              		.loc 2 185 0 is_stmt 1
 575 004a 7868     		ldr	r0, [r7, #4]
 576 004c FFF7FEFF 		bl	__aeabi_f2d
 577 0050 031C     		mov	r3, r0
 578 0052 0C1C     		mov	r4, r1
 579 0054 181C     		mov	r0, r3
 580 0056 211C     		mov	r1, r4
 581 0058 3E4A     		ldr	r2, .L47
 582 005a 3F4B     		ldr	r3, .L47+4
 583 005c FFF7FEFF 		bl	__aeabi_dcmpgt
 584 0060 031E     		sub	r3, r0, #0
 585 0062 0ED0     		beq	.L33
 186:lib_Display/display.c ****     {
 187:lib_Display/display.c ****         drawVLine(79,31,7);
 586              		.loc 2 187 0
 587 0064 4F20     		mov	r0, #79
 588 0066 1F21     		mov	r1, #31
 589 0068 0722     		mov	r2, #7
 590 006a FFF7FEFF 		bl	drawVLine
 188:lib_Display/display.c ****         drawVLine(80,31,7);
 591              		.loc 2 188 0
 592 006e 5020     		mov	r0, #80
 593 0070 1F21     		mov	r1, #31
 594 0072 0722     		mov	r2, #7
 595 0074 FFF7FEFF 		bl	drawVLine
 189:lib_Display/display.c ****         drawVLine(81,31,7);
 596              		.loc 2 189 0
 597 0078 5120     		mov	r0, #81
 598 007a 1F21     		mov	r1, #31
 599 007c 0722     		mov	r2, #7
 600 007e FFF7FEFF 		bl	drawVLine
 601              	.L33:
 190:lib_Display/display.c ****     }
 191:lib_Display/display.c ****     if(voltage > BATT_25_PERCENT)
 602              		.loc 2 191 0
 603 0082 7868     		ldr	r0, [r7, #4]
 604 0084 FFF7FEFF 		bl	__aeabi_f2d
 605 0088 031C     		mov	r3, r0
 606 008a 0C1C     		mov	r4, r1
 607 008c 181C     		mov	r0, r3
 608 008e 211C     		mov	r1, r4
 609 0090 324A     		ldr	r2, .L47+8
 610 0092 334B     		ldr	r3, .L47+12
 611 0094 FFF7FEFF 		bl	__aeabi_dcmpgt
ARM GAS  C:\Users\Petro\AppData\Local\Temp\ccgkGqpX.s 			page 25


 612 0098 031E     		sub	r3, r0, #0
 613 009a 0ED0     		beq	.L35
 192:lib_Display/display.c ****     {
 193:lib_Display/display.c ****         drawVLine(79,22,7);
 614              		.loc 2 193 0
 615 009c 4F20     		mov	r0, #79
 616 009e 1621     		mov	r1, #22
 617 00a0 0722     		mov	r2, #7
 618 00a2 FFF7FEFF 		bl	drawVLine
 194:lib_Display/display.c ****         drawVLine(80,22,7);
 619              		.loc 2 194 0
 620 00a6 5020     		mov	r0, #80
 621 00a8 1621     		mov	r1, #22
 622 00aa 0722     		mov	r2, #7
 623 00ac FFF7FEFF 		bl	drawVLine
 195:lib_Display/display.c ****         drawVLine(81,22,7);
 624              		.loc 2 195 0
 625 00b0 5120     		mov	r0, #81
 626 00b2 1621     		mov	r1, #22
 627 00b4 0722     		mov	r2, #7
 628 00b6 FFF7FEFF 		bl	drawVLine
 629              	.L35:
 196:lib_Display/display.c ****     }
 197:lib_Display/display.c ****     if(voltage > BATT_50_PERCENT)
 630              		.loc 2 197 0
 631 00ba 7868     		ldr	r0, [r7, #4]
 632 00bc FFF7FEFF 		bl	__aeabi_f2d
 633 00c0 031C     		mov	r3, r0
 634 00c2 0C1C     		mov	r4, r1
 635 00c4 181C     		mov	r0, r3
 636 00c6 211C     		mov	r1, r4
 637 00c8 264A     		ldr	r2, .L47+16
 638 00ca 274B     		ldr	r3, .L47+20
 639 00cc FFF7FEFF 		bl	__aeabi_dcmpgt
 640 00d0 031E     		sub	r3, r0, #0
 641 00d2 13D0     		beq	.L37
 198:lib_Display/display.c ****     {
 199:lib_Display/display.c ****         drawVLine(78,13,7);
 642              		.loc 2 199 0
 643 00d4 4E20     		mov	r0, #78
 644 00d6 0D21     		mov	r1, #13
 645 00d8 0722     		mov	r2, #7
 646 00da FFF7FEFF 		bl	drawVLine
 200:lib_Display/display.c ****         drawVLine(79,13,7);
 647              		.loc 2 200 0
 648 00de 4F20     		mov	r0, #79
 649 00e0 0D21     		mov	r1, #13
 650 00e2 0722     		mov	r2, #7
 651 00e4 FFF7FEFF 		bl	drawVLine
 201:lib_Display/display.c ****         drawVLine(80,13,7);
 652              		.loc 2 201 0
 653 00e8 5020     		mov	r0, #80
 654 00ea 0D21     		mov	r1, #13
 655 00ec 0722     		mov	r2, #7
 656 00ee FFF7FEFF 		bl	drawVLine
 202:lib_Display/display.c ****         drawVLine(81,13,7);
 657              		.loc 2 202 0
ARM GAS  C:\Users\Petro\AppData\Local\Temp\ccgkGqpX.s 			page 26


 658 00f2 5120     		mov	r0, #81
 659 00f4 0D21     		mov	r1, #13
 660 00f6 0722     		mov	r2, #7
 661 00f8 FFF7FEFF 		bl	drawVLine
 662              	.L37:
 203:lib_Display/display.c ****     }
 204:lib_Display/display.c ****     if(voltage > BATT_75_PERCENT)
 663              		.loc 2 204 0
 664 00fc 7868     		ldr	r0, [r7, #4]
 665 00fe FFF7FEFF 		bl	__aeabi_f2d
 666 0102 031C     		mov	r3, r0
 667 0104 0C1C     		mov	r4, r1
 668 0106 181C     		mov	r0, r3
 669 0108 211C     		mov	r1, r4
 670 010a 184A     		ldr	r2, .L47+24
 671 010c 184B     		ldr	r3, .L47+28
 672 010e FFF7FEFF 		bl	__aeabi_dcmpgt
 673 0112 031E     		sub	r3, r0, #0
 674 0114 18D0     		beq	.L39
 205:lib_Display/display.c ****     {
 206:lib_Display/display.c ****         drawVLine(77,4,7);
 675              		.loc 2 206 0
 676 0116 4D20     		mov	r0, #77
 677 0118 0421     		mov	r1, #4
 678 011a 0722     		mov	r2, #7
 679 011c FFF7FEFF 		bl	drawVLine
 207:lib_Display/display.c ****         drawVLine(78,4,7);
 680              		.loc 2 207 0
 681 0120 4E20     		mov	r0, #78
 682 0122 0421     		mov	r1, #4
 683 0124 0722     		mov	r2, #7
 684 0126 FFF7FEFF 		bl	drawVLine
 208:lib_Display/display.c ****         drawVLine(79,4,7);
 685              		.loc 2 208 0
 686 012a 4F20     		mov	r0, #79
 687 012c 0421     		mov	r1, #4
 688 012e 0722     		mov	r2, #7
 689 0130 FFF7FEFF 		bl	drawVLine
 209:lib_Display/display.c ****         drawVLine(80,4,7);
 690              		.loc 2 209 0
 691 0134 5020     		mov	r0, #80
 692 0136 0421     		mov	r1, #4
 693 0138 0722     		mov	r2, #7
 694 013a FFF7FEFF 		bl	drawVLine
 210:lib_Display/display.c ****         drawVLine(81,4,7);
 695              		.loc 2 210 0
 696 013e 5120     		mov	r0, #81
 697 0140 0421     		mov	r1, #4
 698 0142 0722     		mov	r2, #7
 699 0144 FFF7FEFF 		bl	drawVLine
 700              	.L39:
 211:lib_Display/display.c ****     }
 212:lib_Display/display.c ****     update();
 701              		.loc 2 212 0
 702 0148 FFF7FEFF 		bl	update
 703              	.L27:
 213:lib_Display/display.c **** }
ARM GAS  C:\Users\Petro\AppData\Local\Temp\ccgkGqpX.s 			page 27


 704              		.loc 2 213 0
 705 014c BD46     		mov	sp, r7
 706 014e 05B0     		add	sp, sp, #20
 707              		@ sp needed
 708 0150 90BD     		pop	{r4, r7, pc}
 709              	.L48:
 710 0152 C046     		.align	2
 711              	.L47:
 712 0154 0AD7A370 		.word	1889785610
 713 0158 3D0AD73F 		.word	1071057469
 714 015c 3D0AD7A3 		.word	-1546188227
 715 0160 703DDA3F 		.word	1071267184
 716 0164 713D0AD7 		.word	-687194767
 717 0168 A370DD3F 		.word	1071476899
 718 016c 52B81E85 		.word	-2061584302
 719 0170 EB51E03F 		.word	1071665643
 720              		.cfi_endproc
 721              	.LFE69:
 722              		.size	DisplayBattVoltage, .-DisplayBattVoltage
 723              		.global	__aeabi_uidiv
 724              		.global	__aeabi_uidivmod
 725              		.section	.text.DisplayLastSkierTime,"ax",%progbits
 726              		.align	2
 727              		.global	DisplayLastSkierTime
 728              		.code	16
 729              		.thumb_func
 730              		.type	DisplayLastSkierTime, %function
 731              	DisplayLastSkierTime:
 732              	.LFB70:
 214:lib_Display/display.c **** 
 215:lib_Display/display.c **** /*******************************************************************************
 216:lib_Display/display.c **** * Function name: DisplayPrintLastTimeSkier
 217:lib_Display/display.c **** ********************************************************************************
 218:lib_Display/display.c **** *
 219:lib_Display/display.c **** * Summary:
 220:lib_Display/display.c **** *   print time last skier from position row = 1, column = 0
 221:lib_Display/display.c **** *
 222:lib_Display/display.c **** *******************************************************************************/
 223:lib_Display/display.c **** void DisplayLastSkierTime(uint32_t sec, uint16_t milisec)
 224:lib_Display/display.c **** {
 733              		.loc 2 224 0
 734              		.cfi_startproc
 735 0000 80B5     		push	{r7, lr}
 736              		.cfi_def_cfa_offset 8
 737              		.cfi_offset 7, -8
 738              		.cfi_offset 14, -4
 739 0002 84B0     		sub	sp, sp, #16
 740              		.cfi_def_cfa_offset 24
 741 0004 02AF     		add	r7, sp, #8
 742              		.cfi_def_cfa 7, 16
 743 0006 7860     		str	r0, [r7, #4]
 744 0008 0A1C     		mov	r2, r1
 745 000a BB1C     		add	r3, r7, #2
 746 000c 1A80     		strh	r2, [r3]
 225:lib_Display/display.c ****     if(sec > 60000 || milisec >= 1000)return;
 747              		.loc 2 225 0
 748 000e 7B68     		ldr	r3, [r7, #4]
ARM GAS  C:\Users\Petro\AppData\Local\Temp\ccgkGqpX.s 			page 28


 749 0010 1B4A     		ldr	r2, .L53
 750 0012 9342     		cmp	r3, r2
 751 0014 04D8     		bhi	.L50
 752              		.loc 2 225 0 is_stmt 0 discriminator 1
 753 0016 BB1C     		add	r3, r7, #2
 754 0018 1B88     		ldrh	r3, [r3]
 755 001a 1A4A     		ldr	r2, .L53+4
 756 001c 9342     		cmp	r3, r2
 757 001e 00D9     		bls	.L51
 758              	.L50:
 759              		.loc 2 225 0
 760 0020 2BE0     		b	.L49
 761              	.L51:
 226:lib_Display/display.c ****         
 227:lib_Display/display.c ****     setFont(SmallFont);
 762              		.loc 2 227 0 is_stmt 1
 763 0022 194B     		ldr	r3, .L53+8
 764 0024 181C     		mov	r0, r3
 765 0026 FFF7FEFF 		bl	setFont
 228:lib_Display/display.c ****     printNumI(sec/60,22,11,3,' ');
 766              		.loc 2 228 0
 767 002a 7B68     		ldr	r3, [r7, #4]
 768 002c 181C     		mov	r0, r3
 769 002e 3C21     		mov	r1, #60
 770 0030 FFF7FEFF 		bl	__aeabi_uidiv
 771 0034 031C     		mov	r3, r0
 772 0036 1A1C     		mov	r2, r3
 773 0038 2023     		mov	r3, #32
 774 003a 0093     		str	r3, [sp]
 775 003c 101C     		mov	r0, r2
 776 003e 1621     		mov	r1, #22
 777 0040 0B22     		mov	r2, #11
 778 0042 0323     		mov	r3, #3
 779 0044 FFF7FEFF 		bl	printNumI
 229:lib_Display/display.c ****     printNumI(sec%60,28,20,2,' ');
 780              		.loc 2 229 0
 781 0048 7B68     		ldr	r3, [r7, #4]
 782 004a 181C     		mov	r0, r3
 783 004c 3C21     		mov	r1, #60
 784 004e FFF7FEFF 		bl	__aeabi_uidivmod
 785 0052 0B1C     		mov	r3, r1
 786 0054 1A1C     		mov	r2, r3
 787 0056 2023     		mov	r3, #32
 788 0058 0093     		str	r3, [sp]
 789 005a 101C     		mov	r0, r2
 790 005c 1C21     		mov	r1, #28
 791 005e 1422     		mov	r2, #20
 792 0060 0223     		mov	r3, #2
 793 0062 FFF7FEFF 		bl	printNumI
 230:lib_Display/display.c ****     printNumI(milisec,22,29,3,' ');
 794              		.loc 2 230 0
 795 0066 BB1C     		add	r3, r7, #2
 796 0068 1A88     		ldrh	r2, [r3]
 797 006a 2023     		mov	r3, #32
 798 006c 0093     		str	r3, [sp]
 799 006e 101C     		mov	r0, r2
 800 0070 1621     		mov	r1, #22
ARM GAS  C:\Users\Petro\AppData\Local\Temp\ccgkGqpX.s 			page 29


 801 0072 1D22     		mov	r2, #29
 802 0074 0323     		mov	r3, #3
 803 0076 FFF7FEFF 		bl	printNumI
 804              	.L49:
 231:lib_Display/display.c **** }
 805              		.loc 2 231 0
 806 007a BD46     		mov	sp, r7
 807 007c 02B0     		add	sp, sp, #8
 808              		@ sp needed
 809 007e 80BD     		pop	{r7, pc}
 810              	.L54:
 811              		.align	2
 812              	.L53:
 813 0080 60EA0000 		.word	60000
 814 0084 E7030000 		.word	999
 815 0088 00000000 		.word	SmallFont
 816              		.cfi_endproc
 817              	.LFE70:
 818              		.size	DisplayLastSkierTime, .-DisplayLastSkierTime
 819              		.section	.text.DisplayNumSkierOnWay,"ax",%progbits
 820              		.align	2
 821              		.global	DisplayNumSkierOnWay
 822              		.code	16
 823              		.thumb_func
 824              		.type	DisplayNumSkierOnWay, %function
 825              	DisplayNumSkierOnWay:
 826              	.LFB71:
 232:lib_Display/display.c **** 
 233:lib_Display/display.c **** /*******************************************************************************
 234:lib_Display/display.c **** * Function name: DisplayPrintNumSkierOnWay
 235:lib_Display/display.c **** ********************************************************************************
 236:lib_Display/display.c **** *
 237:lib_Display/display.c **** * Summary:
 238:lib_Display/display.c **** *   print number skier on way from position row = 1, column = 11
 239:lib_Display/display.c **** *
 240:lib_Display/display.c **** *******************************************************************************/
 241:lib_Display/display.c **** void DisplayNumSkierOnWay(uint32_t num)
 242:lib_Display/display.c **** {
 827              		.loc 2 242 0
 828              		.cfi_startproc
 829 0000 80B5     		push	{r7, lr}
 830              		.cfi_def_cfa_offset 8
 831              		.cfi_offset 7, -8
 832              		.cfi_offset 14, -4
 833 0002 84B0     		sub	sp, sp, #16
 834              		.cfi_def_cfa_offset 24
 835 0004 02AF     		add	r7, sp, #8
 836              		.cfi_def_cfa 7, 16
 837 0006 7860     		str	r0, [r7, #4]
 243:lib_Display/display.c **** //    sprintf(buff, "%u/%u", num, MAX_SKIERS_ON_WAY);
 244:lib_Display/display.c **** //    LCD_Position(1,10);
 245:lib_Display/display.c **** //    LCD_PrintString(buff);
 246:lib_Display/display.c ****     setFont(MediumNumbers);
 838              		.loc 2 246 0
 839 0008 0C4B     		ldr	r3, .L56
 840 000a 181C     		mov	r0, r3
 841 000c FFF7FEFF 		bl	setFont
ARM GAS  C:\Users\Petro\AppData\Local\Temp\ccgkGqpX.s 			page 30


 247:lib_Display/display.c ****     printNumI(num,43,14,1,' ');
 842              		.loc 2 247 0
 843 0010 7A68     		ldr	r2, [r7, #4]
 844 0012 2023     		mov	r3, #32
 845 0014 0093     		str	r3, [sp]
 846 0016 101C     		mov	r0, r2
 847 0018 2B21     		mov	r1, #43
 848 001a 0E22     		mov	r2, #14
 849 001c 0123     		mov	r3, #1
 850 001e FFF7FEFF 		bl	printNumI
 248:lib_Display/display.c ****     printNumI(4,64,14,1,' ');
 851              		.loc 2 248 0
 852 0022 2023     		mov	r3, #32
 853 0024 0093     		str	r3, [sp]
 854 0026 0420     		mov	r0, #4
 855 0028 4021     		mov	r1, #64
 856 002a 0E22     		mov	r2, #14
 857 002c 0123     		mov	r3, #1
 858 002e FFF7FEFF 		bl	printNumI
 249:lib_Display/display.c ****     update();
 859              		.loc 2 249 0
 860 0032 FFF7FEFF 		bl	update
 250:lib_Display/display.c **** }
 861              		.loc 2 250 0
 862 0036 BD46     		mov	sp, r7
 863 0038 02B0     		add	sp, sp, #8
 864              		@ sp needed
 865 003a 80BD     		pop	{r7, pc}
 866              	.L57:
 867              		.align	2
 868              	.L56:
 869 003c 00000000 		.word	MediumNumbers
 870              		.cfi_endproc
 871              	.LFE71:
 872              		.size	DisplayNumSkierOnWay, .-DisplayNumSkierOnWay
 873              		.text
 874              	.Letext0:
 875              		.file 3 "c:\\program files (x86)\\cypress\\psoc creator\\4.0\\psoc creator\\import\\gnu\\arm\\4.9.
 876              		.file 4 "c:\\program files (x86)\\cypress\\psoc creator\\4.0\\psoc creator\\import\\gnu\\arm\\4.9.
 877              		.file 5 "Generated_Source\\PSoC4/cytypes.h"
 878              		.file 6 "./lib_Display\\display.h"
 879              		.file 7 "./nokia5110/LCD5110_Graph.h"