ARM GAS  C:\Users\Petro\AppData\Local\Temp\ccqcneFb.s 			page 1


   1              		.cpu cortex-m0
   2              		.fpu softvfp
   3              		.eabi_attribute 20, 1
   4              		.eabi_attribute 21, 1
   5              		.eabi_attribute 23, 3
   6              		.eabi_attribute 24, 1
   7              		.eabi_attribute 25, 1
   8              		.eabi_attribute 26, 1
   9              		.eabi_attribute 30, 6
  10              		.eabi_attribute 34, 0
  11              		.eabi_attribute 18, 4
  12              		.code	16
  13              		.file	"main.c"
  14              		.text
  15              	.Ltext0:
  16              		.cfi_sections	.debug_frame
  17              		.comm	currentState,1,1
  18              		.bss
  19              		.align	2
  20              	result:
  21 0000 00000000 		.space	4
  22              		.section	.text.main,"ax",%progbits
  23              		.align	2
  24              		.global	main
  25              		.code	16
  26              		.thumb_func
  27              		.type	main, %function
  28              	main:
  29              	.LFB63:
  30              		.file 1 "main.c"
   1:main.c        **** #include "appGlobal.h"
   2:main.c        **** 
   3:main.c        **** int main()
   4:main.c        **** {
  31              		.loc 1 4 0
  32              		.cfi_startproc
  33 0000 80B5     		push	{r7, lr}
  34              		.cfi_def_cfa_offset 8
  35              		.cfi_offset 7, -8
  36              		.cfi_offset 14, -4
  37 0002 00AF     		add	r7, sp, #0
  38              		.cfi_def_cfa_register 7
   5:main.c        ****     SystemInit();
  39              		.loc 1 5 0
  40 0004 FFF7FEFF 		bl	SystemInit
   6:main.c        ****     currentState = TIME_SYNC;
  41              		.loc 1 6 0
  42 0008 294B     		ldr	r3, .L14
  43 000a 0022     		mov	r2, #0
  44 000c 1A70     		strb	r2, [r3]
  45              	.L13:
   7:main.c        **** 
   8:main.c        ****     for(;;)
   9:main.c        ****     {
  10:main.c        ****         switch (currentState)
  46              		.loc 1 10 0
  47 000e 284B     		ldr	r3, .L14
ARM GAS  C:\Users\Petro\AppData\Local\Temp\ccqcneFb.s 			page 2


  48 0010 1B78     		ldrb	r3, [r3]
  49 0012 012B     		cmp	r3, #1
  50 0014 16D0     		beq	.L3
  51 0016 02DC     		bgt	.L4
  52 0018 002B     		cmp	r3, #0
  53 001a 05D0     		beq	.L5
  54 001c 42E0     		b	.L2
  55              	.L4:
  56 001e 022B     		cmp	r3, #2
  57 0020 26D0     		beq	.L6
  58 0022 032B     		cmp	r3, #3
  59 0024 35D0     		beq	.L7
  60 0026 3DE0     		b	.L2
  61              	.L5:
  11:main.c        ****         {
  12:main.c        ****             case TIME_SYNC:
  13:main.c        ****             {
  14:main.c        ****                 result = TimeSynchronize();
  62              		.loc 1 14 0
  63 0028 FFF7FEFF 		bl	TimeSynchronize
  64 002c 021C     		mov	r2, r0
  65 002e 214B     		ldr	r3, .L14+4
  66 0030 1A60     		str	r2, [r3]
  15:main.c        ****                 if(result == TIME_SYNC_OK)
  67              		.loc 1 15 0
  68 0032 204B     		ldr	r3, .L14+4
  69 0034 1B68     		ldr	r3, [r3]
  70 0036 002B     		cmp	r3, #0
  71 0038 03D1     		bne	.L8
  16:main.c        ****                 {
  17:main.c        ****                     currentState = GET_FIN_STATUS;
  72              		.loc 1 17 0
  73 003a 1D4B     		ldr	r3, .L14
  74 003c 0122     		mov	r2, #1
  75 003e 1A70     		strb	r2, [r3]
  18:main.c        ****                 }
  19:main.c        ****                 break;
  76              		.loc 1 19 0
  77 0040 30E0     		b	.L2
  78              	.L8:
  79 0042 2FE0     		b	.L2
  80              	.L3:
  20:main.c        ****             }
  21:main.c        ****             case GET_FIN_STATUS:
  22:main.c        ****             {
  23:main.c        ****                 result = GetFinishStatus();
  81              		.loc 1 23 0
  82 0044 FFF7FEFF 		bl	GetFinishStatus
  83 0048 021C     		mov	r2, r0
  84 004a 1A4B     		ldr	r3, .L14+4
  85 004c 1A60     		str	r2, [r3]
  24:main.c        **** 
  25:main.c        ****                 if(result == NO_ERROR)
  86              		.loc 1 25 0
  87 004e 194B     		ldr	r3, .L14+4
  88 0050 1B68     		ldr	r3, [r3]
  89 0052 012B     		cmp	r3, #1
ARM GAS  C:\Users\Petro\AppData\Local\Temp\ccqcneFb.s 			page 3


  90 0054 03D1     		bne	.L9
  26:main.c        ****                 {
  27:main.c        ****                     currentState = CHECK_GATE;                   
  91              		.loc 1 27 0
  92 0056 164B     		ldr	r3, .L14
  93 0058 0222     		mov	r2, #2
  94 005a 1A70     		strb	r2, [r3]
  95 005c 07E0     		b	.L10
  96              	.L9:
  28:main.c        ****                 }
  29:main.c        ****                 else if(result == REBOOT)  
  97              		.loc 1 29 0
  98 005e 154B     		ldr	r3, .L14+4
  99 0060 1B68     		ldr	r3, [r3]
 100 0062 FF2B     		cmp	r3, #255
 101 0064 03D1     		bne	.L10
  30:main.c        ****                 {
  31:main.c        ****                     currentState = TIME_SYNC;
 102              		.loc 1 31 0
 103 0066 124B     		ldr	r3, .L14
 104 0068 0022     		mov	r2, #0
 105 006a 1A70     		strb	r2, [r3]
  32:main.c        ****                 }
  33:main.c        ****                 break;
 106              		.loc 1 33 0
 107 006c 1AE0     		b	.L2
 108              	.L10:
 109 006e 19E0     		b	.L2
 110              	.L6:
  34:main.c        ****             }
  35:main.c        ****             case CHECK_GATE:
  36:main.c        ****             {
  37:main.c        ****                 result = CheckGate();
 111              		.loc 1 37 0
 112 0070 FFF7FEFF 		bl	CheckGate
 113 0074 021C     		mov	r2, r0
 114 0076 0F4B     		ldr	r3, .L14+4
 115 0078 1A60     		str	r2, [r3]
  38:main.c        ****                 if(result == GATE_OPEN)
 116              		.loc 1 38 0
 117 007a 0E4B     		ldr	r3, .L14+4
 118 007c 1B68     		ldr	r3, [r3]
 119 007e 012B     		cmp	r3, #1
 120 0080 03D1     		bne	.L11
  39:main.c        ****                 {
  40:main.c        ****                     currentState = SAVE_RESULT;
 121              		.loc 1 40 0
 122 0082 0B4B     		ldr	r3, .L14
 123 0084 0322     		mov	r2, #3
 124 0086 1A70     		strb	r2, [r3]
  41:main.c        ****                 }
  42:main.c        ****                 else
  43:main.c        ****                 {
  44:main.c        ****                     currentState = GET_FIN_STATUS;
  45:main.c        ****                 }
  46:main.c        ****                 break;
 125              		.loc 1 46 0
ARM GAS  C:\Users\Petro\AppData\Local\Temp\ccqcneFb.s 			page 4


 126 0088 0CE0     		b	.L2
 127              	.L11:
  44:main.c        ****                 }
 128              		.loc 1 44 0
 129 008a 094B     		ldr	r3, .L14
 130 008c 0122     		mov	r2, #1
 131 008e 1A70     		strb	r2, [r3]
 132              		.loc 1 46 0
 133 0090 08E0     		b	.L2
 134              	.L7:
  47:main.c        ****             }
  48:main.c        ****             case SAVE_RESULT:
  49:main.c        ****             {
  50:main.c        ****                 result = SaveResult();
 135              		.loc 1 50 0
 136 0092 FFF7FEFF 		bl	SaveResult
 137 0096 021C     		mov	r2, r0
 138 0098 064B     		ldr	r3, .L14+4
 139 009a 1A60     		str	r2, [r3]
  51:main.c        ****                 currentState = GET_FIN_STATUS;
 140              		.loc 1 51 0
 141 009c 044B     		ldr	r3, .L14
 142 009e 0122     		mov	r2, #1
 143 00a0 1A70     		strb	r2, [r3]
  52:main.c        ****     
  53:main.c        ****                 break;
 144              		.loc 1 53 0
 145 00a2 C046     		mov	r8, r8
 146              	.L2:
  54:main.c        ****             }           
  55:main.c        ****         }
  56:main.c        ****         MyDelay(TIMEOUT_STATE);
 147              		.loc 1 56 0
 148 00a4 FA23     		mov	r3, #250
 149 00a6 5B00     		lsl	r3, r3, #1
 150 00a8 181C     		mov	r0, r3
 151 00aa FFF7FEFF 		bl	MyDelay
  57:main.c        ****     }
 152              		.loc 1 57 0
 153 00ae AEE7     		b	.L13
 154              	.L15:
 155              		.align	2
 156              	.L14:
 157 00b0 00000000 		.word	currentState
 158 00b4 00000000 		.word	result
 159              		.cfi_endproc
 160              	.LFE63:
 161              		.size	main, .-main
 162              		.section	.rodata
 163              		.align	2
 164              	.LC2:
 165 0000 53797374 		.ascii	"System init...\000"
 165      656D2069 
 165      6E69742E 
 165      2E2E00
 166              		.section	.text.SystemInit,"ax",%progbits
 167              		.align	2
ARM GAS  C:\Users\Petro\AppData\Local\Temp\ccqcneFb.s 			page 5


 168              		.global	SystemInit
 169              		.code	16
 170              		.thumb_func
 171              		.type	SystemInit, %function
 172              	SystemInit:
 173              	.LFB64:
  58:main.c        **** }
  59:main.c        **** 
  60:main.c        **** void  SystemInit(void)
  61:main.c        **** {   
 174              		.loc 1 61 0
 175              		.cfi_startproc
 176 0000 80B5     		push	{r7, lr}
 177              		.cfi_def_cfa_offset 8
 178              		.cfi_offset 7, -8
 179              		.cfi_offset 14, -4
 180 0002 00AF     		add	r7, sp, #0
 181              		.cfi_def_cfa_register 7
  62:main.c        ****     SetRebootFlag();
 182              		.loc 1 62 0
 183 0004 FFF7FEFF 		bl	SetRebootFlag
  63:main.c        ****     LedInit();
 184              		.loc 1 63 0
 185 0008 FFF7FEFF 		bl	LedInit
  64:main.c        ****     LedBlink(FREQ_INIT_BLINK);
 186              		.loc 1 64 0
 187 000c 0A20     		mov	r0, #10
 188 000e FFF7FEFF 		bl	LedBlink
  65:main.c        ****     
  66:main.c        ****     DisplayStart();
 189              		.loc 1 66 0
 190 0012 FFF7FEFF 		bl	DisplayStart
  67:main.c        ****     Display("System init...");
 191              		.loc 1 67 0
 192 0016 074B     		ldr	r3, .L17
 193 0018 181C     		mov	r0, r3
 194 001a FFF7FEFF 		bl	Display
  68:main.c        ****     
  69:main.c        ****     RTC_WDT_Init(); 
 195              		.loc 1 69 0
 196 001e FFF7FEFF 		bl	RTC_WDT_Init
  70:main.c        ****     InitNetwork();
 197              		.loc 1 70 0
 198 0022 FFF7FEFF 		bl	InitNetwork
  71:main.c        ****     GateInit();
 199              		.loc 1 71 0
 200 0026 FFF7FEFF 		bl	GateInit
  72:main.c        ****     BattADC_Init();
 201              		.loc 1 72 0
 202 002a FFF7FEFF 		bl	BattADC_Init
  73:main.c        ****     
  74:main.c        ****     /* Enable global interrupts. */ 
  75:main.c        ****     CyGlobalIntEnable; 
 203              		.loc 1 75 0
 204              	@ 75 "main.c" 1
 205 002e 62B6     		CPSIE   i
 206              	@ 0 "" 2
ARM GAS  C:\Users\Petro\AppData\Local\Temp\ccqcneFb.s 			page 6


  76:main.c        ****     
  77:main.c        **** }
 207              		.loc 1 77 0
 208              		.code	16
 209 0030 BD46     		mov	sp, r7
 210              		@ sp needed
 211 0032 80BD     		pop	{r7, pc}
 212              	.L18:
 213              		.align	2
 214              	.L17:
 215 0034 00000000 		.word	.LC2
 216              		.cfi_endproc
 217              	.LFE64:
 218              		.size	SystemInit, .-SystemInit
 219              		.section	.rodata
 220 000f 00       		.align	2
 221              	.LC4:
 222 0010 4E657477 		.ascii	"Network conn...\000"
 222      6F726B20 
 222      636F6E6E 
 222      2E2E2E00 
 223              		.align	2
 224              	.LC6:
 225 0020 53796E63 		.ascii	"Sync time...\000"
 225      2074696D 
 225      652E2E2E 
 225      00
 226 002d 000000   		.align	2
 227              	.LC8:
 228 0030 53796E63 		.ascii	"Sync ok\000"
 228      206F6B00 
 229              		.section	.text.TimeSynchronize,"ax",%progbits
 230              		.align	2
 231              		.global	TimeSynchronize
 232              		.code	16
 233              		.thumb_func
 234              		.type	TimeSynchronize, %function
 235              	TimeSynchronize:
 236              	.LFB65:
  78:main.c        **** 
  79:main.c        **** uint32_t TimeSynchronize(void)
  80:main.c        **** {
 237              		.loc 1 80 0
 238              		.cfi_startproc
 239 0000 80B5     		push	{r7, lr}
 240              		.cfi_def_cfa_offset 8
 241              		.cfi_offset 7, -8
 242              		.cfi_offset 14, -4
 243 0002 82B0     		sub	sp, sp, #8
 244              		.cfi_def_cfa_offset 16
 245 0004 00AF     		add	r7, sp, #0
 246              		.cfi_def_cfa_register 7
  81:main.c        ****     uint32_t result;
  82:main.c        ****     
  83:main.c        ****     LedBlink(FREQ_INIT_BLINK);
 247              		.loc 1 83 0
 248 0006 0A20     		mov	r0, #10
ARM GAS  C:\Users\Petro\AppData\Local\Temp\ccqcneFb.s 			page 7


 249 0008 FFF7FEFF 		bl	LedBlink
  84:main.c        ****     
  85:main.c        ****     /*network connect*/
  86:main.c        ****     //if(NetworkStatus() == NETWORK_DISCONN)
  87:main.c        ****     {
  88:main.c        ****         Display("Network conn...");
 250              		.loc 1 88 0
 251 000c 0F4B     		ldr	r3, .L21
 252 000e 181C     		mov	r0, r3
 253 0010 FFF7FEFF 		bl	Display
  89:main.c        ****         MyDelay(TIMEOUT_STATE);
 254              		.loc 1 89 0
 255 0014 FA23     		mov	r3, #250
 256 0016 5B00     		lsl	r3, r3, #1
 257 0018 181C     		mov	r0, r3
 258 001a FFF7FEFF 		bl	MyDelay
  90:main.c        ****     }
  91:main.c        ****     //else
  92:main.c        ****     {
  93:main.c        ****         /*time sync*/
  94:main.c        ****         Display("Sync time...");
 259              		.loc 1 94 0
 260 001e 0C4B     		ldr	r3, .L21+4
 261 0020 181C     		mov	r0, r3
 262 0022 FFF7FEFF 		bl	Display
  95:main.c        ****         
  96:main.c        ****         //if(NTPsync() == TIME_SYNC_OK)
  97:main.c        ****         {
  98:main.c        ****             Display("Sync ok");
 263              		.loc 1 98 0
 264 0026 0B4B     		ldr	r3, .L21+8
 265 0028 181C     		mov	r0, r3
 266 002a FFF7FEFF 		bl	Display
  99:main.c        ****             ClearRebootFlag();
 267              		.loc 1 99 0
 268 002e FFF7FEFF 		bl	ClearRebootFlag
 100:main.c        ****             MyDelay(4*TIMEOUT_USER_READ_INFO);
 269              		.loc 1 100 0
 270 0032 FA23     		mov	r3, #250
 271 0034 DB00     		lsl	r3, r3, #3
 272 0036 181C     		mov	r0, r3
 273 0038 FFF7FEFF 		bl	MyDelay
 101:main.c        ****             
 102:main.c        ****             result = TIME_SYNC_OK;
 274              		.loc 1 102 0
 275 003c 0023     		mov	r3, #0
 276 003e 7B60     		str	r3, [r7, #4]
 103:main.c        ****         }
 104:main.c        ****         //else
 105:main.c        ****         {
 106:main.c        ****             //Display("Sync time error");
 107:main.c        ****             //SetRebootFlag();
 108:main.c        ****             //MyDelay(TIMEOUT_USER_READ_INFO);
 109:main.c        ****       
 110:main.c        ****             //result = TIME_SYNC_ERR;
 111:main.c        ****         }
 112:main.c        ****     }
ARM GAS  C:\Users\Petro\AppData\Local\Temp\ccqcneFb.s 			page 8


 113:main.c        ****     
 114:main.c        ****     return result;
 277              		.loc 1 114 0
 278 0040 7B68     		ldr	r3, [r7, #4]
 115:main.c        **** }
 279              		.loc 1 115 0
 280 0042 181C     		mov	r0, r3
 281 0044 BD46     		mov	sp, r7
 282 0046 02B0     		add	sp, sp, #8
 283              		@ sp needed
 284 0048 80BD     		pop	{r7, pc}
 285              	.L22:
 286 004a C046     		.align	2
 287              	.L21:
 288 004c 10000000 		.word	.LC4
 289 0050 20000000 		.word	.LC6
 290 0054 30000000 		.word	.LC8
 291              		.cfi_endproc
 292              	.LFE65:
 293              		.size	TimeSynchronize, .-TimeSynchronize
 294              		.section	.rodata
 295              		.align	2
 296              	.LC10:
 297 0038 46696E20 		.ascii	"Fin no ready\000"
 297      6E6F2072 
 297      65616479 
 297      00
 298              		.section	.text.GetFinishStatus,"ax",%progbits
 299              		.align	2
 300              		.global	GetFinishStatus
 301              		.code	16
 302              		.thumb_func
 303              		.type	GetFinishStatus, %function
 304              	GetFinishStatus:
 305              	.LFB66:
 116:main.c        **** 
 117:main.c        **** uint32_t GetFinishStatus(void)
 118:main.c        **** {
 306              		.loc 1 118 0
 307              		.cfi_startproc
 308 0000 80B5     		push	{r7, lr}
 309              		.cfi_def_cfa_offset 8
 310              		.cfi_offset 7, -8
 311              		.cfi_offset 14, -4
 312 0002 82B0     		sub	sp, sp, #8
 313              		.cfi_def_cfa_offset 16
 314 0004 00AF     		add	r7, sp, #0
 315              		.cfi_def_cfa_register 7
 119:main.c        ****     uint32_t result;
 120:main.c        ****     
 121:main.c        ****     if (NetworkStatus() == NETWORK_DISCONN || FinWriteInDB() == NO_WRITE || FinReady() == NO_READY)
 316              		.loc 1 121 0
 317 0006 FFF7FEFF 		bl	NetworkStatus
 318 000a 031E     		sub	r3, r0, #0
 319 000c 07D0     		beq	.L24
 320              		.loc 1 121 0 is_stmt 0 discriminator 1
 321 000e FFF7FEFF 		bl	FinWriteInDB
ARM GAS  C:\Users\Petro\AppData\Local\Temp\ccqcneFb.s 			page 9


 322 0012 031E     		sub	r3, r0, #0
 323 0014 03D0     		beq	.L24
 324              		.loc 1 121 0 discriminator 2
 325 0016 FFF7FEFF 		bl	FinReady
 326 001a 031E     		sub	r3, r0, #0
 327 001c 10D1     		bne	.L25
 328              	.L24:
 122:main.c        ****     {
 123:main.c        ****         LedBlink(FREQ_ERR_BLINK);
 329              		.loc 1 123 0 is_stmt 1
 330 001e 0320     		mov	r0, #3
 331 0020 FFF7FEFF 		bl	LedBlink
 124:main.c        ****         result = ERROR;
 332              		.loc 1 124 0
 333 0024 0023     		mov	r3, #0
 334 0026 7B60     		str	r3, [r7, #4]
 125:main.c        ****         Display("Fin no ready");
 335              		.loc 1 125 0
 336 0028 0C4B     		ldr	r3, .L29
 337 002a 181C     		mov	r0, r3
 338 002c FFF7FEFF 		bl	Display
 126:main.c        ****         DisAllowNextSkier();
 339              		.loc 1 126 0
 340 0030 FFF7FEFF 		bl	DisAllowNextSkier
 127:main.c        ****         MyDelay(TIMEOUT_USER_READ_INFO);
 341              		.loc 1 127 0
 342 0034 FA23     		mov	r3, #250
 343 0036 5B00     		lsl	r3, r3, #1
 344 0038 181C     		mov	r0, r3
 345 003a FFF7FEFF 		bl	MyDelay
 346 003e 01E0     		b	.L26
 347              	.L25:
 128:main.c        ****     }
 129:main.c        ****     else
 130:main.c        ****     {
 131:main.c        ****         result = NO_ERROR;
 348              		.loc 1 131 0
 349 0040 0123     		mov	r3, #1
 350 0042 7B60     		str	r3, [r7, #4]
 351              	.L26:
 132:main.c        ****     }
 133:main.c        ****     
 134:main.c        ****     if(IsRebootFinishFlag() == REBOOT)
 352              		.loc 1 134 0
 353 0044 FFF7FEFF 		bl	IsRebootFinishFlag
 354 0048 031E     		sub	r3, r0, #0
 355 004a FF2B     		cmp	r3, #255
 356 004c 01D1     		bne	.L27
 135:main.c        ****     {
 136:main.c        ****         result = REBOOT;    
 357              		.loc 1 136 0
 358 004e FF23     		mov	r3, #255
 359 0050 7B60     		str	r3, [r7, #4]
 360              	.L27:
 137:main.c        ****     }
 138:main.c        ****          
 139:main.c        ****     return result;
ARM GAS  C:\Users\Petro\AppData\Local\Temp\ccqcneFb.s 			page 10


 361              		.loc 1 139 0
 362 0052 7B68     		ldr	r3, [r7, #4]
 140:main.c        ****     
 141:main.c        **** }
 363              		.loc 1 141 0
 364 0054 181C     		mov	r0, r3
 365 0056 BD46     		mov	sp, r7
 366 0058 02B0     		add	sp, sp, #8
 367              		@ sp needed
 368 005a 80BD     		pop	{r7, pc}
 369              	.L30:
 370              		.align	2
 371              	.L29:
 372 005c 38000000 		.word	.LC10
 373              		.cfi_endproc
 374              	.LFE66:
 375              		.size	GetFinishStatus, .-GetFinishStatus
 376              		.section	.rodata
 377 0045 000000   		.align	2
 378              	.LC12:
 379 0048 536B6965 		.ascii	"Skier Started\000"
 379      72205374 
 379      61727465 
 379      6400
 380 0056 0000     		.align	2
 381              	.LC14:
 382 0058 53746172 		.ascii	"Start ready\000"
 382      74207265 
 382      61647900 
 383              		.section	.text.CheckGate,"ax",%progbits
 384              		.align	2
 385              		.global	CheckGate
 386              		.code	16
 387              		.thumb_func
 388              		.type	CheckGate, %function
 389              	CheckGate:
 390              	.LFB67:
 142:main.c        **** 
 143:main.c        **** uint32_t CheckGate(void)
 144:main.c        **** {
 391              		.loc 1 144 0
 392              		.cfi_startproc
 393 0000 80B5     		push	{r7, lr}
 394              		.cfi_def_cfa_offset 8
 395              		.cfi_offset 7, -8
 396              		.cfi_offset 14, -4
 397 0002 82B0     		sub	sp, sp, #8
 398              		.cfi_def_cfa_offset 16
 399 0004 00AF     		add	r7, sp, #0
 400              		.cfi_def_cfa_register 7
 145:main.c        ****     uint32_t result;
 146:main.c        ****     
 147:main.c        ****     result = GateIsOpen();
 401              		.loc 1 147 0
 402 0006 FFF7FEFF 		bl	GateIsOpen
 403 000a 031C     		mov	r3, r0
 404 000c 7B60     		str	r3, [r7, #4]
ARM GAS  C:\Users\Petro\AppData\Local\Temp\ccqcneFb.s 			page 11


 148:main.c        ****     
 149:main.c        ****     if(result == GATE_OPEN)
 405              		.loc 1 149 0
 406 000e 7B68     		ldr	r3, [r7, #4]
 407 0010 012B     		cmp	r3, #1
 408 0012 0CD1     		bne	.L32
 150:main.c        ****     {
 151:main.c        ****         Display("Skier Started");
 409              		.loc 1 151 0
 410 0014 0D4B     		ldr	r3, .L35
 411 0016 181C     		mov	r0, r3
 412 0018 FFF7FEFF 		bl	Display
 152:main.c        ****         LedBlink(FREQ_INIT_BLINK);
 413              		.loc 1 152 0
 414 001c 0A20     		mov	r0, #10
 415 001e FFF7FEFF 		bl	LedBlink
 153:main.c        ****         MyDelay(TIMEOUT_USER_READ_INFO);
 416              		.loc 1 153 0
 417 0022 FA23     		mov	r3, #250
 418 0024 5B00     		lsl	r3, r3, #1
 419 0026 181C     		mov	r0, r3
 420 0028 FFF7FEFF 		bl	MyDelay
 421 002c 08E0     		b	.L33
 422              	.L32:
 154:main.c        **** 
 155:main.c        ****     }
 156:main.c        ****     else
 157:main.c        ****     {
 158:main.c        ****         Display("Start ready");
 423              		.loc 1 158 0
 424 002e 084B     		ldr	r3, .L35+4
 425 0030 181C     		mov	r0, r3
 426 0032 FFF7FEFF 		bl	Display
 159:main.c        ****         SetLedState(LED_ENABLE);
 427              		.loc 1 159 0
 428 0036 0120     		mov	r0, #1
 429 0038 FFF7FEFF 		bl	SetLedState
 160:main.c        ****         AllowNextSkier();
 430              		.loc 1 160 0
 431 003c FFF7FEFF 		bl	AllowNextSkier
 432              	.L33:
 161:main.c        **** 
 162:main.c        ****     }
 163:main.c        **** 
 164:main.c        ****     return result;
 433              		.loc 1 164 0
 434 0040 7B68     		ldr	r3, [r7, #4]
 165:main.c        ****     
 166:main.c        **** }
 435              		.loc 1 166 0
 436 0042 181C     		mov	r0, r3
 437 0044 BD46     		mov	sp, r7
 438 0046 02B0     		add	sp, sp, #8
 439              		@ sp needed
 440 0048 80BD     		pop	{r7, pc}
 441              	.L36:
 442 004a C046     		.align	2
ARM GAS  C:\Users\Petro\AppData\Local\Temp\ccqcneFb.s 			page 12


 443              	.L35:
 444 004c 48000000 		.word	.LC12
 445 0050 58000000 		.word	.LC14
 446              		.cfi_endproc
 447              	.LFE67:
 448              		.size	CheckGate, .-CheckGate
 449              		.section	.rodata
 450              		.align	2
 451              	.LC16:
 452 0064 53617665 		.ascii	"Save result\000"
 452      20726573 
 452      756C7400 
 453              		.align	2
 454              	.LC18:
 455 0070 57616974 		.ascii	"Wait next skier\000"
 455      206E6578 
 455      7420736B 
 455      69657200 
 456              		.section	.text.SaveResult,"ax",%progbits
 457              		.align	2
 458              		.global	SaveResult
 459              		.code	16
 460              		.thumb_func
 461              		.type	SaveResult, %function
 462              	SaveResult:
 463              	.LFB68:
 167:main.c        **** 
 168:main.c        **** uint32_t SaveResult(void)
 169:main.c        **** {
 464              		.loc 1 169 0
 465              		.cfi_startproc
 466 0000 90B5     		push	{r4, r7, lr}
 467              		.cfi_def_cfa_offset 12
 468              		.cfi_offset 4, -12
 469              		.cfi_offset 7, -8
 470              		.cfi_offset 14, -4
 471 0002 87B0     		sub	sp, sp, #28
 472              		.cfi_def_cfa_offset 40
 473 0004 00AF     		add	r7, sp, #0
 474              		.cfi_def_cfa_register 7
 170:main.c        ****     uint32_t result;
 171:main.c        ****     uint64_t startUnixTime;
 172:main.c        ****     uint32_t startRecentMs;
 173:main.c        ****     
 174:main.c        ****     LedBlink(FREQ_INIT_BLINK);
 475              		.loc 1 174 0
 476 0006 0A20     		mov	r0, #10
 477 0008 FFF7FEFF 		bl	LedBlink
 175:main.c        ****     Display("Save result");
 478              		.loc 1 175 0
 479 000c 134B     		ldr	r3, .L39
 480 000e 181C     		mov	r0, r3
 481 0010 FFF7FEFF 		bl	Display
 176:main.c        ****     MyDelay(TIMEOUT_USER_READ_INFO);
 482              		.loc 1 176 0
 483 0014 FA23     		mov	r3, #250
 484 0016 5B00     		lsl	r3, r3, #1
ARM GAS  C:\Users\Petro\AppData\Local\Temp\ccqcneFb.s 			page 13


 485 0018 181C     		mov	r0, r3
 486 001a FFF7FEFF 		bl	MyDelay
 177:main.c        ****     
 178:main.c        ****     GetStartTime(&startUnixTime, &startRecentMs);
 487              		.loc 1 178 0
 488 001e 0823     		mov	r3, #8
 489 0020 FA18     		add	r2, r7, r3
 490 0022 3B1D     		add	r3, r7, #4
 491 0024 101C     		mov	r0, r2
 492 0026 191C     		mov	r1, r3
 493 0028 FFF7FEFF 		bl	GetStartTime
 179:main.c        ****     SendSkierStart(startUnixTime, startRecentMs);
 494              		.loc 1 179 0
 495 002c BB68     		ldr	r3, [r7, #8]
 496 002e FC68     		ldr	r4, [r7, #12]
 497 0030 7A68     		ldr	r2, [r7, #4]
 498 0032 181C     		mov	r0, r3
 499 0034 211C     		mov	r1, r4
 500 0036 FFF7FEFF 		bl	SendSkierStart
 180:main.c        ****     
 181:main.c        ****     Display("Wait next skier");
 501              		.loc 1 181 0
 502 003a 094B     		ldr	r3, .L39+4
 503 003c 181C     		mov	r0, r3
 504 003e FFF7FEFF 		bl	Display
 182:main.c        ****     MyDelay(TIMEOUT_NEXT_SKIER);
 505              		.loc 1 182 0
 506 0042 FA23     		mov	r3, #250
 507 0044 DB00     		lsl	r3, r3, #3
 508 0046 181C     		mov	r0, r3
 509 0048 FFF7FEFF 		bl	MyDelay
 183:main.c        ****     
 184:main.c        ****     result = NO_ERROR;
 510              		.loc 1 184 0
 511 004c 0123     		mov	r3, #1
 512 004e 7B61     		str	r3, [r7, #20]
 185:main.c        ****     
 186:main.c        ****     return result;
 513              		.loc 1 186 0
 514 0050 7B69     		ldr	r3, [r7, #20]
 187:main.c        ****     
 188:main.c        **** }
 515              		.loc 1 188 0
 516 0052 181C     		mov	r0, r3
 517 0054 BD46     		mov	sp, r7
 518 0056 07B0     		add	sp, sp, #28
 519              		@ sp needed
 520 0058 90BD     		pop	{r4, r7, pc}
 521              	.L40:
 522 005a C046     		.align	2
 523              	.L39:
 524 005c 64000000 		.word	.LC16
 525 0060 70000000 		.word	.LC18
 526              		.cfi_endproc
 527              	.LFE68:
 528              		.size	SaveResult, .-SaveResult
 529              		.text
ARM GAS  C:\Users\Petro\AppData\Local\Temp\ccqcneFb.s 			page 14


 530              	.Letext0:
 531              		.file 2 "c:\\program files (x86)\\cypress\\psoc creator\\4.0\\psoc creator\\import\\gnu\\arm\\4.9.
 532              		.file 3 "c:\\program files (x86)\\cypress\\psoc creator\\4.0\\psoc creator\\import\\gnu\\arm\\4.9.
 533              		.file 4 "appGlobal.h"