ARM GAS  C:\Users\Petro\AppData\Local\Temp\cczi3JlV.s 			page 1


   1              		.cpu cortex-m0
   2              		.fpu softvfp
   3              		.eabi_attribute 20, 1
   4              		.eabi_attribute 21, 1
   5              		.eabi_attribute 23, 3
   6              		.eabi_attribute 24, 1
   7              		.eabi_attribute 25, 1
   8              		.eabi_attribute 26, 1
   9              		.eabi_attribute 30, 6
  10              		.eabi_attribute 34, 0
  11              		.eabi_attribute 18, 4
  12              		.code	16
  13              		.file	"main.c"
  14              		.text
  15              	.Ltext0:
  16              		.cfi_sections	.debug_frame
  17              		.bss
  18              		.align	1
  19              	minMs:
  20 0000 0000     		.space	2
  21              		.align	1
  22              	maxMs:
  23 0002 0000     		.space	2
  24              		.comm	tmpMs,2,2
  25              		.comm	currentState,1,1
  26              		.align	2
  27              	result:
  28 0004 00000000 		.space	4
  29              		.section	.text.main,"ax",%progbits
  30              		.align	2
  31              		.global	main
  32              		.code	16
  33              		.thumb_func
  34              		.type	main, %function
  35              	main:
  36              	.LFB63:
  37              		.file 1 ".\\main.c"
   1:.\main.c      **** 
   2:.\main.c      **** #include "appGlobal.h"
   3:.\main.c      **** 
   4:.\main.c      **** 
   5:.\main.c      **** int main()
   6:.\main.c      **** {      
  38              		.loc 1 6 0
  39              		.cfi_startproc
  40 0000 80B5     		push	{r7, lr}
  41              		.cfi_def_cfa_offset 8
  42              		.cfi_offset 7, -8
  43              		.cfi_offset 14, -4
  44 0002 00AF     		add	r7, sp, #0
  45              		.cfi_def_cfa_register 7
   7:.\main.c      ****     while(SystemInit() == ERROR);
  46              		.loc 1 7 0
  47 0004 C046     		mov	r8, r8
  48              	.L2:
  49              		.loc 1 7 0 is_stmt 0 discriminator 1
  50 0006 FFF7FEFF 		bl	SystemInit
ARM GAS  C:\Users\Petro\AppData\Local\Temp\cczi3JlV.s 			page 2


  51 000a 031E     		sub	r3, r0, #0
  52 000c FBD0     		beq	.L2
   8:.\main.c      ****     //SystemInit();
   9:.\main.c      ****     currentState = TIME_SYNC;
  53              		.loc 1 9 0 is_stmt 1
  54 000e 284B     		ldr	r3, .L15
  55 0010 0022     		mov	r2, #0
  56 0012 1A70     		strb	r2, [r3]
  57              	.L14:
  10:.\main.c      ****     
  11:.\main.c      ****     for(;;)
  12:.\main.c      ****     {
  13:.\main.c      ****         switch (currentState)
  58              		.loc 1 13 0
  59 0014 264B     		ldr	r3, .L15
  60 0016 1B78     		ldrb	r3, [r3]
  61 0018 012B     		cmp	r3, #1
  62 001a 16D0     		beq	.L4
  63 001c 02DC     		bgt	.L5
  64 001e 002B     		cmp	r3, #0
  65 0020 05D0     		beq	.L6
  66 0022 3FE0     		b	.L3
  67              	.L5:
  68 0024 022B     		cmp	r3, #2
  69 0026 26D0     		beq	.L7
  70 0028 032B     		cmp	r3, #3
  71 002a 35D0     		beq	.L8
  72 002c 3AE0     		b	.L3
  73              	.L6:
  14:.\main.c      ****         {
  15:.\main.c      ****             case TIME_SYNC:
  16:.\main.c      ****             {
  17:.\main.c      ****                 result = TimeSynchronize();
  74              		.loc 1 17 0
  75 002e FFF7FEFF 		bl	TimeSynchronize
  76 0032 021C     		mov	r2, r0
  77 0034 1F4B     		ldr	r3, .L15+4
  78 0036 1A60     		str	r2, [r3]
  18:.\main.c      ****                 if(result == TIME_SYNC_OK)
  79              		.loc 1 18 0
  80 0038 1E4B     		ldr	r3, .L15+4
  81 003a 1B68     		ldr	r3, [r3]
  82 003c 002B     		cmp	r3, #0
  83 003e 03D1     		bne	.L9
  19:.\main.c      ****                 {
  20:.\main.c      ****                     currentState = READY;
  84              		.loc 1 20 0
  85 0040 1B4B     		ldr	r3, .L15
  86 0042 0122     		mov	r2, #1
  87 0044 1A70     		strb	r2, [r3]
  21:.\main.c      ****                 }
  22:.\main.c      ****                 break;
  88              		.loc 1 22 0
  89 0046 2DE0     		b	.L3
  90              	.L9:
  91 0048 2CE0     		b	.L3
  92              	.L4:
ARM GAS  C:\Users\Petro\AppData\Local\Temp\cczi3JlV.s 			page 3


  23:.\main.c      ****             }
  24:.\main.c      ****             case READY:
  25:.\main.c      ****             {
  26:.\main.c      ****                 result = CheckReady();
  93              		.loc 1 26 0
  94 004a FFF7FEFF 		bl	CheckReady
  95 004e 021C     		mov	r2, r0
  96 0050 184B     		ldr	r3, .L15+4
  97 0052 1A60     		str	r2, [r3]
  27:.\main.c      ****                 if(result == NO_ERROR)
  98              		.loc 1 27 0
  99 0054 174B     		ldr	r3, .L15+4
 100 0056 1B68     		ldr	r3, [r3]
 101 0058 012B     		cmp	r3, #1
 102 005a 03D1     		bne	.L10
  28:.\main.c      ****                 {
  29:.\main.c      ****                     currentState = CHECK_GATE;
 103              		.loc 1 29 0
 104 005c 144B     		ldr	r3, .L15
 105 005e 0222     		mov	r2, #2
 106 0060 1A70     		strb	r2, [r3]
 107 0062 07E0     		b	.L11
 108              	.L10:
  30:.\main.c      ****                 }
  31:.\main.c      ****                 else if(result == REBOOT)  
 109              		.loc 1 31 0
 110 0064 134B     		ldr	r3, .L15+4
 111 0066 1B68     		ldr	r3, [r3]
 112 0068 FF2B     		cmp	r3, #255
 113 006a 03D1     		bne	.L11
  32:.\main.c      ****                 {
  33:.\main.c      ****                     currentState = TIME_SYNC;
 114              		.loc 1 33 0
 115 006c 104B     		ldr	r3, .L15
 116 006e 0022     		mov	r2, #0
 117 0070 1A70     		strb	r2, [r3]
  34:.\main.c      ****                 }
  35:.\main.c      ****                 break;
 118              		.loc 1 35 0
 119 0072 17E0     		b	.L3
 120              	.L11:
 121 0074 16E0     		b	.L3
 122              	.L7:
  36:.\main.c      ****             }
  37:.\main.c      ****             case CHECK_GATE:
  38:.\main.c      ****             {
  39:.\main.c      ****                 result = CheckGate();
 123              		.loc 1 39 0
 124 0076 FFF7FEFF 		bl	CheckGate
 125 007a 021C     		mov	r2, r0
 126 007c 0D4B     		ldr	r3, .L15+4
 127 007e 1A60     		str	r2, [r3]
  40:.\main.c      ****                 if(result == GATE_OPEN)
 128              		.loc 1 40 0
 129 0080 0C4B     		ldr	r3, .L15+4
 130 0082 1B68     		ldr	r3, [r3]
 131 0084 012B     		cmp	r3, #1
ARM GAS  C:\Users\Petro\AppData\Local\Temp\cczi3JlV.s 			page 4


 132 0086 03D1     		bne	.L12
  41:.\main.c      ****                 {
  42:.\main.c      ****                     currentState = SAVE_RESULT;
 133              		.loc 1 42 0
 134 0088 094B     		ldr	r3, .L15
 135 008a 0322     		mov	r2, #3
 136 008c 1A70     		strb	r2, [r3]
  43:.\main.c      ****                 }
  44:.\main.c      ****                 else
  45:.\main.c      ****                 {
  46:.\main.c      ****                     currentState = READY;
  47:.\main.c      ****                 }
  48:.\main.c      ****                 break;
 137              		.loc 1 48 0
 138 008e 09E0     		b	.L3
 139              	.L12:
  46:.\main.c      ****                 }
 140              		.loc 1 46 0
 141 0090 074B     		ldr	r3, .L15
 142 0092 0122     		mov	r2, #1
 143 0094 1A70     		strb	r2, [r3]
 144              		.loc 1 48 0
 145 0096 05E0     		b	.L3
 146              	.L8:
  49:.\main.c      ****             }
  50:.\main.c      ****             case SAVE_RESULT:
  51:.\main.c      ****             {
  52:.\main.c      ****                 SaveResult();
 147              		.loc 1 52 0
 148 0098 FFF7FEFF 		bl	SaveResult
  53:.\main.c      ****                 currentState = READY;
 149              		.loc 1 53 0
 150 009c 044B     		ldr	r3, .L15
 151 009e 0122     		mov	r2, #1
 152 00a0 1A70     		strb	r2, [r3]
  54:.\main.c      ****                 break;
 153              		.loc 1 54 0
 154 00a2 C046     		mov	r8, r8
 155              	.L3:
  55:.\main.c      ****             }            
  56:.\main.c      ****         }
  57:.\main.c      ****         MyDelay(TIMEOUT_DELAY);
 156              		.loc 1 57 0
 157 00a4 FA23     		mov	r3, #250
 158 00a6 5B00     		lsl	r3, r3, #1
 159 00a8 181C     		mov	r0, r3
 160 00aa FFF7FEFF 		bl	MyDelay
  58:.\main.c      ****     }
 161              		.loc 1 58 0
 162 00ae B1E7     		b	.L14
 163              	.L16:
 164              		.align	2
 165              	.L15:
 166 00b0 00000000 		.word	currentState
 167 00b4 04000000 		.word	result
 168              		.cfi_endproc
 169              	.LFE63:
ARM GAS  C:\Users\Petro\AppData\Local\Temp\cczi3JlV.s 			page 5


 170              		.size	main, .-main
 171              		.section	.rodata
 172              		.align	2
 173              	.LC2:
 174 0000 53797374 		.ascii	"System init...\000"
 174      656D2069 
 174      6E69742E 
 174      2E2E00
 175 000f 00       		.align	2
 176              	.LC4:
 177 0010 506C6561 		.ascii	"Please insert SD\000"
 177      73652069 
 177      6E736572 
 177      74205344 
 177      00
 178 0021 000000   		.align	2
 179              	.LC6:
 180 0024 4572726F 		.ascii	"Error sync time\000"
 180      72207379 
 180      6E632074 
 180      696D6500 
 181              		.section	.text.SystemInit,"ax",%progbits
 182              		.align	2
 183              		.global	SystemInit
 184              		.code	16
 185              		.thumb_func
 186              		.type	SystemInit, %function
 187              	SystemInit:
 188              	.LFB64:
  59:.\main.c      **** }
  60:.\main.c      **** 
  61:.\main.c      **** 
  62:.\main.c      **** uint32_t SystemInit(void)
  63:.\main.c      **** {
 189              		.loc 1 63 0
 190              		.cfi_startproc
 191 0000 90B5     		push	{r4, r7, lr}
 192              		.cfi_def_cfa_offset 12
 193              		.cfi_offset 4, -12
 194              		.cfi_offset 7, -8
 195              		.cfi_offset 14, -4
 196 0002 85B0     		sub	sp, sp, #20
 197              		.cfi_def_cfa_offset 32
 198 0004 00AF     		add	r7, sp, #0
 199              		.cfi_def_cfa_register 7
  64:.\main.c      ****     uint32_t result;
  65:.\main.c      ****     uint64_t unixTime;
  66:.\main.c      ****         
  67:.\main.c      ****     SetRebootFlag();
 200              		.loc 1 67 0
 201 0006 FFF7FEFF 		bl	SetRebootFlag
  68:.\main.c      ****     LedInit();   
 202              		.loc 1 68 0
 203 000a FFF7FEFF 		bl	LedInit
  69:.\main.c      ****     DisplayStart();   
 204              		.loc 1 69 0
 205 000e FFF7FEFF 		bl	DisplayStart
ARM GAS  C:\Users\Petro\AppData\Local\Temp\cczi3JlV.s 			page 6


  70:.\main.c      ****     RTC_WDT_Init(); 
 206              		.loc 1 70 0
 207 0012 FFF7FEFF 		bl	RTC_WDT_Init
  71:.\main.c      ****     InitNetwork();
 208              		.loc 1 71 0
 209 0016 FFF7FEFF 		bl	InitNetwork
  72:.\main.c      ****     GateInit();
 210              		.loc 1 72 0
 211 001a FFF7FEFF 		bl	GateInit
  73:.\main.c      ****     InitBuff();
 212              		.loc 1 73 0
 213 001e FFF7FEFF 		bl	InitBuff
  74:.\main.c      **** 
  75:.\main.c      ****     /* Enable global interrupts */
  76:.\main.c      ****     CyGlobalIntEnable;
 214              		.loc 1 76 0
 215              	@ 76 ".\main.c" 1
 216 0022 62B6     		CPSIE   i
 217              	@ 0 "" 2
  77:.\main.c      ****     
  78:.\main.c      ****     /*set unix time in RTC DS1307*/  
  79:.\main.c      ****     DS1307_SetUnixTime(1476096197);
 218              		.loc 1 79 0
 219              		.code	16
 220 0024 1D4B     		ldr	r3, .L24
 221 0026 0024     		mov	r4, #0
 222 0028 181C     		mov	r0, r3
 223 002a 211C     		mov	r1, r4
 224 002c FFF7FEFF 		bl	DS1307_SetUnixTime
  80:.\main.c      ****     
  81:.\main.c      ****     /*sync real time*/
  82:.\main.c      ****     unixTime = DS1307_GetUnixTime();
 225              		.loc 1 82 0
 226 0030 FFF7FEFF 		bl	DS1307_GetUnixTime
 227 0034 031C     		mov	r3, r0
 228 0036 0C1C     		mov	r4, r1
 229 0038 3B60     		str	r3, [r7]
 230 003a 7C60     		str	r4, [r7, #4]
  83:.\main.c      ****     
  84:.\main.c      ****     if(unixTime > 0)
 231              		.loc 1 84 0
 232 003c 3B68     		ldr	r3, [r7]
 233 003e 7A68     		ldr	r2, [r7, #4]
 234 0040 1343     		orr	r3, r2
 235 0042 1DD0     		beq	.L18
  85:.\main.c      ****     {      
  86:.\main.c      ****         RTC_SetUnixTime(unixTime);
 236              		.loc 1 86 0
 237 0044 3B68     		ldr	r3, [r7]
 238 0046 7C68     		ldr	r4, [r7, #4]
 239 0048 181C     		mov	r0, r3
 240 004a 211C     		mov	r1, r4
 241 004c FFF7FEFF 		bl	RTC_SetUnixTime
  87:.\main.c      ****         result = DataBaseStart();
 242              		.loc 1 87 0
 243 0050 FFF7FEFF 		bl	DataBaseStart
 244 0054 031C     		mov	r3, r0
ARM GAS  C:\Users\Petro\AppData\Local\Temp\cczi3JlV.s 			page 7


 245 0056 FB60     		str	r3, [r7, #12]
  88:.\main.c      ****         
  89:.\main.c      ****         if(result == DB_NO_ERROR)
 246              		.loc 1 89 0
 247 0058 FB68     		ldr	r3, [r7, #12]
 248 005a 012B     		cmp	r3, #1
 249 005c 06D1     		bne	.L20
  90:.\main.c      ****         {
  91:.\main.c      ****             Display("System init...");
 250              		.loc 1 91 0
 251 005e 104B     		ldr	r3, .L24+4
 252 0060 181C     		mov	r0, r3
 253 0062 FFF7FEFF 		bl	Display
  92:.\main.c      ****             result = NO_ERROR;
 254              		.loc 1 92 0
 255 0066 0123     		mov	r3, #1
 256 0068 FB60     		str	r3, [r7, #12]
 257 006a 12E0     		b	.L22
 258              	.L20:
  93:.\main.c      ****         }
  94:.\main.c      ****         else
  95:.\main.c      ****         {
  96:.\main.c      ****             Display("Please insert SD");
 259              		.loc 1 96 0
 260 006c 0D4B     		ldr	r3, .L24+8
 261 006e 181C     		mov	r0, r3
 262 0070 FFF7FEFF 		bl	Display
  97:.\main.c      ****             result = ERROR;
 263              		.loc 1 97 0
 264 0074 0023     		mov	r3, #0
 265 0076 FB60     		str	r3, [r7, #12]
  98:.\main.c      ****             SendFinStatus(FIN_NO_READY);
 266              		.loc 1 98 0
 267 0078 0020     		mov	r0, #0
 268 007a FFF7FEFF 		bl	SendFinStatus
 269 007e 08E0     		b	.L22
 270              	.L18:
  99:.\main.c      ****         }
 100:.\main.c      ****     }
 101:.\main.c      ****     else
 102:.\main.c      ****     {
 103:.\main.c      ****         Display("Error sync time");
 271              		.loc 1 103 0
 272 0080 094B     		ldr	r3, .L24+12
 273 0082 181C     		mov	r0, r3
 274 0084 FFF7FEFF 		bl	Display
 104:.\main.c      ****         result = ERROR;
 275              		.loc 1 104 0
 276 0088 0023     		mov	r3, #0
 277 008a FB60     		str	r3, [r7, #12]
 105:.\main.c      ****         SendFinStatus(FIN_NO_READY);
 278              		.loc 1 105 0
 279 008c 0020     		mov	r0, #0
 280 008e FFF7FEFF 		bl	SendFinStatus
 281              	.L22:
 106:.\main.c      ****     }
 107:.\main.c      ****     
ARM GAS  C:\Users\Petro\AppData\Local\Temp\cczi3JlV.s 			page 8


 108:.\main.c      ****     return result;    
 282              		.loc 1 108 0
 283 0092 FB68     		ldr	r3, [r7, #12]
 109:.\main.c      **** }
 284              		.loc 1 109 0
 285 0094 181C     		mov	r0, r3
 286 0096 BD46     		mov	sp, r7
 287 0098 05B0     		add	sp, sp, #20
 288              		@ sp needed
 289 009a 90BD     		pop	{r4, r7, pc}
 290              	.L25:
 291              		.align	2
 292              	.L24:
 293 009c C570FB57 		.word	1476096197
 294 00a0 00000000 		.word	.LC2
 295 00a4 10000000 		.word	.LC4
 296 00a8 24000000 		.word	.LC6
 297              		.cfi_endproc
 298              	.LFE64:
 299              		.size	SystemInit, .-SystemInit
 300              		.section	.rodata
 301              		.align	2
 302              	.LC8:
 303 0034 4E657477 		.ascii	"Network conn...\000"
 303      6F726B20 
 303      636F6E6E 
 303      2E2E2E00 
 304              		.align	2
 305              	.LC10:
 306 0044 53796E63 		.ascii	"Sync time...\000"
 306      2074696D 
 306      652E2E2E 
 306      00
 307 0051 000000   		.align	2
 308              	.LC12:
 309 0054 53796E63 		.ascii	"Sync ok\000"
 309      206F6B00 
 310              		.align	2
 311              	.LC14:
 312 005c 53796E63 		.ascii	"Sync time error\000"
 312      2074696D 
 312      65206572 
 312      726F7200 
 313              		.section	.text.TimeSynchronize,"ax",%progbits
 314              		.align	2
 315              		.global	TimeSynchronize
 316              		.code	16
 317              		.thumb_func
 318              		.type	TimeSynchronize, %function
 319              	TimeSynchronize:
 320              	.LFB65:
 110:.\main.c      **** 
 111:.\main.c      **** uint32_t TimeSynchronize(void)
 112:.\main.c      **** {
 321              		.loc 1 112 0
 322              		.cfi_startproc
 323 0000 80B5     		push	{r7, lr}
ARM GAS  C:\Users\Petro\AppData\Local\Temp\cczi3JlV.s 			page 9


 324              		.cfi_def_cfa_offset 8
 325              		.cfi_offset 7, -8
 326              		.cfi_offset 14, -4
 327 0002 82B0     		sub	sp, sp, #8
 328              		.cfi_def_cfa_offset 16
 329 0004 00AF     		add	r7, sp, #0
 330              		.cfi_def_cfa_register 7
 113:.\main.c      ****     uint32_t result;
 114:.\main.c      ****     
 115:.\main.c      ****     LedBlink(FREQ_INIT_BLINK);
 331              		.loc 1 115 0
 332 0006 0A20     		mov	r0, #10
 333 0008 FFF7FEFF 		bl	LedBlink
 116:.\main.c      ****     
 117:.\main.c      ****     /* network connect */
 118:.\main.c      ****     if(NetworkStatus() == NETWORK_DISCONNECT)
 334              		.loc 1 118 0
 335 000c FFF7FEFF 		bl	NetworkStatus
 336 0010 031E     		sub	r3, r0, #0
 337 0012 09D1     		bne	.L27
 119:.\main.c      ****     {
 120:.\main.c      ****         Display("Network conn...");
 338              		.loc 1 120 0
 339 0014 184B     		ldr	r3, .L31
 340 0016 181C     		mov	r0, r3
 341 0018 FFF7FEFF 		bl	Display
 121:.\main.c      ****         MyDelay(TIMEOUT_DELAY);
 342              		.loc 1 121 0
 343 001c FA23     		mov	r3, #250
 344 001e 5B00     		lsl	r3, r3, #1
 345 0020 181C     		mov	r0, r3
 346 0022 FFF7FEFF 		bl	MyDelay
 347 0026 22E0     		b	.L28
 348              	.L27:
 122:.\main.c      ****     }
 123:.\main.c      ****     else
 124:.\main.c      ****     {  
 125:.\main.c      ****         /* time sync */
 126:.\main.c      ****         Display("Sync time...");
 349              		.loc 1 126 0
 350 0028 144B     		ldr	r3, .L31+4
 351 002a 181C     		mov	r0, r3
 352 002c FFF7FEFF 		bl	Display
 127:.\main.c      ****         if(NTPsync() == TIME_SYNC_OK)
 353              		.loc 1 127 0
 354 0030 FFF7FEFF 		bl	NTPsync
 355 0034 031E     		sub	r3, r0, #0
 356 0036 0DD1     		bne	.L29
 128:.\main.c      ****         {
 129:.\main.c      ****             Display("Sync ok");
 357              		.loc 1 129 0
 358 0038 114B     		ldr	r3, .L31+8
 359 003a 181C     		mov	r0, r3
 360 003c FFF7FEFF 		bl	Display
 130:.\main.c      ****             ClearRebootFlag();
 361              		.loc 1 130 0
 362 0040 FFF7FEFF 		bl	ClearRebootFlag
ARM GAS  C:\Users\Petro\AppData\Local\Temp\cczi3JlV.s 			page 10


 131:.\main.c      ****             MyDelay(4 * TIMEOUT_USER_READ_INFO);
 363              		.loc 1 131 0
 364 0044 FA23     		mov	r3, #250
 365 0046 DB00     		lsl	r3, r3, #3
 366 0048 181C     		mov	r0, r3
 367 004a FFF7FEFF 		bl	MyDelay
 132:.\main.c      ****             
 133:.\main.c      ****             result = TIME_SYNC_OK;
 368              		.loc 1 133 0
 369 004e 0023     		mov	r3, #0
 370 0050 7B60     		str	r3, [r7, #4]
 371 0052 0CE0     		b	.L28
 372              	.L29:
 134:.\main.c      ****         }
 135:.\main.c      ****         else
 136:.\main.c      ****         {
 137:.\main.c      ****             Display("Sync time error");
 373              		.loc 1 137 0
 374 0054 0B4B     		ldr	r3, .L31+12
 375 0056 181C     		mov	r0, r3
 376 0058 FFF7FEFF 		bl	Display
 138:.\main.c      ****             SetRebootFlag();
 377              		.loc 1 138 0
 378 005c FFF7FEFF 		bl	SetRebootFlag
 139:.\main.c      ****             MyDelay(4 * TIMEOUT_USER_READ_INFO);
 379              		.loc 1 139 0
 380 0060 FA23     		mov	r3, #250
 381 0062 DB00     		lsl	r3, r3, #3
 382 0064 181C     		mov	r0, r3
 383 0066 FFF7FEFF 		bl	MyDelay
 140:.\main.c      ****             
 141:.\main.c      ****             result = TIME_SYNC_ERR;
 384              		.loc 1 141 0
 385 006a 0123     		mov	r3, #1
 386 006c 7B60     		str	r3, [r7, #4]
 387              	.L28:
 142:.\main.c      ****         }
 143:.\main.c      ****     }
 144:.\main.c      ****     
 145:.\main.c      ****     return result;
 388              		.loc 1 145 0
 389 006e 7B68     		ldr	r3, [r7, #4]
 146:.\main.c      **** }
 390              		.loc 1 146 0
 391 0070 181C     		mov	r0, r3
 392 0072 BD46     		mov	sp, r7
 393 0074 02B0     		add	sp, sp, #8
 394              		@ sp needed
 395 0076 80BD     		pop	{r7, pc}
 396              	.L32:
 397              		.align	2
 398              	.L31:
 399 0078 34000000 		.word	.LC8
 400 007c 44000000 		.word	.LC10
 401 0080 54000000 		.word	.LC12
 402 0084 5C000000 		.word	.LC14
 403              		.cfi_endproc
ARM GAS  C:\Users\Petro\AppData\Local\Temp\cczi3JlV.s 			page 11


 404              	.LFE65:
 405              		.size	TimeSynchronize, .-TimeSynchronize
 406              		.section	.rodata
 407              		.align	2
 408              	.LC16:
 409 006c 4572726F 		.ascii	"Error SD Card!\000"
 409      72205344 
 409      20436172 
 409      642100
 410 007b 00       		.align	2
 411              	.LC18:
 412 007c 4D617820 		.ascii	"Max skier on way\000"
 412      736B6965 
 412      72206F6E 
 412      20776179 
 412      00
 413 008d 000000   		.align	2
 414              	.LC20:
 415 0090 46696E69 		.ascii	"Finish Ready\000"
 415      73682052 
 415      65616479 
 415      00
 416              		.section	.text.CheckReady,"ax",%progbits
 417              		.align	2
 418              		.global	CheckReady
 419              		.code	16
 420              		.thumb_func
 421              		.type	CheckReady, %function
 422              	CheckReady:
 423              	.LFB66:
 147:.\main.c      **** 
 148:.\main.c      **** 
 149:.\main.c      **** uint32_t CheckReady(void)
 150:.\main.c      **** {
 424              		.loc 1 150 0
 425              		.cfi_startproc
 426 0000 80B5     		push	{r7, lr}
 427              		.cfi_def_cfa_offset 8
 428              		.cfi_offset 7, -8
 429              		.cfi_offset 14, -4
 430 0002 82B0     		sub	sp, sp, #8
 431              		.cfi_def_cfa_offset 16
 432 0004 00AF     		add	r7, sp, #0
 433              		.cfi_def_cfa_register 7
 151:.\main.c      ****     uint32_t result;   
 152:.\main.c      ****  
 153:.\main.c      ****     /*sise FIFO*/
 154:.\main.c      ****     if ((FifoGetSize() >= MAX_SKIERS_ON_BUF/*main_db_buffer) */)&& (FifoGetSize() <= MAX_FIFO_SIZE)
 434              		.loc 1 154 0
 435 0006 FFF7FEFF 		bl	FifoGetSize
 436 000a 031E     		sub	r3, r0, #0
 437 000c 072B     		cmp	r3, #7
 438 000e 15D9     		bls	.L34
 439              		.loc 1 154 0 is_stmt 0 discriminator 1
 440 0010 FFF7FEFF 		bl	FifoGetSize
 441 0014 031E     		sub	r3, r0, #0
 442 0016 0C2B     		cmp	r3, #12
ARM GAS  C:\Users\Petro\AppData\Local\Temp\cczi3JlV.s 			page 12


 443 0018 10D8     		bhi	.L34
 155:.\main.c      ****     {
 156:.\main.c      ****         /*skier finish successful*/
 157:.\main.c      ****         Display("Error SD Card!");
 444              		.loc 1 157 0 is_stmt 1
 445 001a 2D4B     		ldr	r3, .L43
 446 001c 181C     		mov	r0, r3
 447 001e FFF7FEFF 		bl	Display
 158:.\main.c      ****         SendFinStatus(FIN_NO_READY); 
 448              		.loc 1 158 0
 449 0022 0020     		mov	r0, #0
 450 0024 FFF7FEFF 		bl	SendFinStatus
 159:.\main.c      ****         
 160:.\main.c      ****         if (SkierOnWay() != 0)
 451              		.loc 1 160 0
 452 0028 FFF7FEFF 		bl	SkierOnWay
 453 002c 031E     		sub	r3, r0, #0
 454 002e 02D0     		beq	.L35
 161:.\main.c      ****         {
 162:.\main.c      ****             /*if skiers on way*/
 163:.\main.c      ****             result = NO_ERROR;
 455              		.loc 1 163 0
 456 0030 0123     		mov	r3, #1
 457 0032 7B60     		str	r3, [r7, #4]
 160:.\main.c      ****         {
 458              		.loc 1 160 0
 459 0034 3FE0     		b	.L37
 460              	.L35:
 164:.\main.c      ****         }
 165:.\main.c      ****         else
 166:.\main.c      ****         {
 167:.\main.c      ****             /*if not skiers on way*/
 168:.\main.c      ****             result = ERROR;
 461              		.loc 1 168 0
 462 0036 0023     		mov	r3, #0
 463 0038 7B60     		str	r3, [r7, #4]
 160:.\main.c      ****         {
 464              		.loc 1 160 0
 465 003a 3CE0     		b	.L37
 466              	.L34:
 169:.\main.c      ****         }        
 170:.\main.c      ****     }
 171:.\main.c      ****     else if(FifoGetSize() > MAX_FIFO_SIZE)
 467              		.loc 1 171 0
 468 003c FFF7FEFF 		bl	FifoGetSize
 469 0040 031E     		sub	r3, r0, #0
 470 0042 0C2B     		cmp	r3, #12
 471 0044 09D9     		bls	.L38
 172:.\main.c      ****     {
 173:.\main.c      ****         /*skier finish no successful*/
 174:.\main.c      ****         Display("Error SD Card!");
 472              		.loc 1 174 0
 473 0046 224B     		ldr	r3, .L43
 474 0048 181C     		mov	r0, r3
 475 004a FFF7FEFF 		bl	Display
 175:.\main.c      ****         SendFinStatus(FIN_NO_READY); 
 476              		.loc 1 175 0
ARM GAS  C:\Users\Petro\AppData\Local\Temp\cczi3JlV.s 			page 13


 477 004e 0020     		mov	r0, #0
 478 0050 FFF7FEFF 		bl	SendFinStatus
 176:.\main.c      ****         
 177:.\main.c      ****         result = ERROR;                
 479              		.loc 1 177 0
 480 0054 0023     		mov	r3, #0
 481 0056 7B60     		str	r3, [r7, #4]
 482 0058 2DE0     		b	.L37
 483              	.L38:
 178:.\main.c      ****     }
 179:.\main.c      ****     else if(SkierOnWay() >= MAX_SKIERS_ON_WAY/*MAX_COUNT, TRACK_OVERFLOW*/)
 484              		.loc 1 179 0
 485 005a FFF7FEFF 		bl	SkierOnWay
 486 005e 031E     		sub	r3, r0, #0
 487 0060 032B     		cmp	r3, #3
 488 0062 0ED9     		bls	.L39
 180:.\main.c      ****     {
 181:.\main.c      ****         /*max skier on way*/
 182:.\main.c      ****      
 183:.\main.c      ****         Display("Max skier on way");
 489              		.loc 1 183 0
 490 0064 1B4B     		ldr	r3, .L43+4
 491 0066 181C     		mov	r0, r3
 492 0068 FFF7FEFF 		bl	Display
 184:.\main.c      ****         SendFinStatus(FIN_NO_READY);
 493              		.loc 1 184 0
 494 006c 0020     		mov	r0, #0
 495 006e FFF7FEFF 		bl	SendFinStatus
 185:.\main.c      ****         MyDelay(TIMEOUT_USER_READ_INFO);
 496              		.loc 1 185 0
 497 0072 FA23     		mov	r3, #250
 498 0074 5B00     		lsl	r3, r3, #1
 499 0076 181C     		mov	r0, r3
 500 0078 FFF7FEFF 		bl	MyDelay
 186:.\main.c      ****         
 187:.\main.c      ****         result = NO_ERROR;      
 501              		.loc 1 187 0
 502 007c 0123     		mov	r3, #1
 503 007e 7B60     		str	r3, [r7, #4]
 504 0080 19E0     		b	.L37
 505              	.L39:
 188:.\main.c      ****     }
 189:.\main.c      ****     else if(SkierOnWay() == 0)
 506              		.loc 1 189 0
 507 0082 FFF7FEFF 		bl	SkierOnWay
 508 0086 031E     		sub	r3, r0, #0
 509 0088 0CD1     		bne	.L40
 190:.\main.c      ****     {
 191:.\main.c      ****         Display("Finish Ready");
 510              		.loc 1 191 0
 511 008a 134B     		ldr	r3, .L43+8
 512 008c 181C     		mov	r0, r3
 513 008e FFF7FEFF 		bl	Display
 192:.\main.c      ****         SendFinStatus(FIN_READY);
 514              		.loc 1 192 0
 515 0092 0120     		mov	r0, #1
 516 0094 FFF7FEFF 		bl	SendFinStatus
ARM GAS  C:\Users\Petro\AppData\Local\Temp\cczi3JlV.s 			page 14


 193:.\main.c      ****         SetLedState(LED_DISABLE);        
 517              		.loc 1 193 0
 518 0098 0020     		mov	r0, #0
 519 009a FFF7FEFF 		bl	SetLedState
 194:.\main.c      ****         
 195:.\main.c      ****         result = ERROR;      
 520              		.loc 1 195 0
 521 009e 0023     		mov	r3, #0
 522 00a0 7B60     		str	r3, [r7, #4]
 523 00a2 08E0     		b	.L37
 524              	.L40:
 196:.\main.c      ****     }
 197:.\main.c      ****     else
 198:.\main.c      ****     {
 199:.\main.c      ****         /*finish ready*/
 200:.\main.c      ****         SendFinStatus(FIN_READY);
 525              		.loc 1 200 0
 526 00a4 0120     		mov	r0, #1
 527 00a6 FFF7FEFF 		bl	SendFinStatus
 201:.\main.c      ****         Display("Finish Ready");
 528              		.loc 1 201 0
 529 00aa 0B4B     		ldr	r3, .L43+8
 530 00ac 181C     		mov	r0, r3
 531 00ae FFF7FEFF 		bl	Display
 202:.\main.c      ****         
 203:.\main.c      ****         result = NO_ERROR;
 532              		.loc 1 203 0
 533 00b2 0123     		mov	r3, #1
 534 00b4 7B60     		str	r3, [r7, #4]
 535              	.L37:
 204:.\main.c      ****     }
 205:.\main.c      ****     
 206:.\main.c      ****     //if(ReadRebootStartFlag() == REBOOT/*IS*/)
 207:.\main.c      ****     if(IsRebootStartFlag() == REBOOT)
 536              		.loc 1 207 0
 537 00b6 FFF7FEFF 		bl	IsRebootStartFlag
 538 00ba 031E     		sub	r3, r0, #0
 539 00bc FF2B     		cmp	r3, #255
 540 00be 01D1     		bne	.L41
 208:.\main.c      ****     {
 209:.\main.c      ****         result = REBOOT;
 541              		.loc 1 209 0
 542 00c0 FF23     		mov	r3, #255
 543 00c2 7B60     		str	r3, [r7, #4]
 544              	.L41:
 210:.\main.c      ****     }
 211:.\main.c      ****        
 212:.\main.c      ****     return result;
 545              		.loc 1 212 0
 546 00c4 7B68     		ldr	r3, [r7, #4]
 213:.\main.c      **** }
 547              		.loc 1 213 0
 548 00c6 181C     		mov	r0, r3
 549 00c8 BD46     		mov	sp, r7
 550 00ca 02B0     		add	sp, sp, #8
 551              		@ sp needed
 552 00cc 80BD     		pop	{r7, pc}
ARM GAS  C:\Users\Petro\AppData\Local\Temp\cczi3JlV.s 			page 15


 553              	.L44:
 554 00ce C046     		.align	2
 555              	.L43:
 556 00d0 6C000000 		.word	.LC16
 557 00d4 7C000000 		.word	.LC18
 558 00d8 90000000 		.word	.LC20
 559              		.cfi_endproc
 560              	.LFE66:
 561              		.size	CheckReady, .-CheckReady
 562              		.section	.rodata
 563 009d 000000   		.align	2
 564              	.LC22:
 565 00a0 536B6965 		.ascii	"Skier Finished\000"
 565      72204669 
 565      6E697368 
 565      656400
 566              		.section	.text.CheckGate,"ax",%progbits
 567              		.align	2
 568              		.global	CheckGate
 569              		.code	16
 570              		.thumb_func
 571              		.type	CheckGate, %function
 572              	CheckGate:
 573              	.LFB67:
 214:.\main.c      **** 
 215:.\main.c      **** uint32_t CheckGate(void)
 216:.\main.c      **** {
 574              		.loc 1 216 0
 575              		.cfi_startproc
 576 0000 80B5     		push	{r7, lr}
 577              		.cfi_def_cfa_offset 8
 578              		.cfi_offset 7, -8
 579              		.cfi_offset 14, -4
 580 0002 82B0     		sub	sp, sp, #8
 581              		.cfi_def_cfa_offset 16
 582 0004 00AF     		add	r7, sp, #0
 583              		.cfi_def_cfa_register 7
 217:.\main.c      ****     uint32_t result;
 218:.\main.c      ****     
 219:.\main.c      ****     SetLedState(LED_ENABLE);
 584              		.loc 1 219 0
 585 0006 0120     		mov	r0, #1
 586 0008 FFF7FEFF 		bl	SetLedState
 220:.\main.c      ****     result = GateIsOpen();/*IsGateOpen(), CheckGateStatus()*/
 587              		.loc 1 220 0
 588 000c FFF7FEFF 		bl	GateIsOpen
 589 0010 031C     		mov	r3, r0
 590 0012 7B60     		str	r3, [r7, #4]
 221:.\main.c      ****     
 222:.\main.c      ****     if(result == GATE_OPEN)
 591              		.loc 1 222 0
 592 0014 7B68     		ldr	r3, [r7, #4]
 593 0016 012B     		cmp	r3, #1
 594 0018 09D1     		bne	.L46
 223:.\main.c      ****     {
 224:.\main.c      ****         Display("Skier Finished");
 595              		.loc 1 224 0
ARM GAS  C:\Users\Petro\AppData\Local\Temp\cczi3JlV.s 			page 16


 596 001a 084B     		ldr	r3, .L49
 597 001c 181C     		mov	r0, r3
 598 001e FFF7FEFF 		bl	Display
 225:.\main.c      ****         MyDelay(TIMEOUT_USER_READ_INFO);
 599              		.loc 1 225 0
 600 0022 FA23     		mov	r3, #250
 601 0024 5B00     		lsl	r3, r3, #1
 602 0026 181C     		mov	r0, r3
 603 0028 FFF7FEFF 		bl	MyDelay
 604 002c 01E0     		b	.L47
 605              	.L46:
 226:.\main.c      ****     }
 227:.\main.c      ****     else
 228:.\main.c      ****     {
 229:.\main.c      ****         AllowNextSkier();
 606              		.loc 1 229 0
 607 002e FFF7FEFF 		bl	AllowNextSkier
 608              	.L47:
 230:.\main.c      ****     }
 231:.\main.c      ****     
 232:.\main.c      ****     return result;  
 609              		.loc 1 232 0
 610 0032 7B68     		ldr	r3, [r7, #4]
 233:.\main.c      **** }
 611              		.loc 1 233 0
 612 0034 181C     		mov	r0, r3
 613 0036 BD46     		mov	sp, r7
 614 0038 02B0     		add	sp, sp, #8
 615              		@ sp needed
 616 003a 80BD     		pop	{r7, pc}
 617              	.L50:
 618              		.align	2
 619              	.L49:
 620 003c A0000000 		.word	.LC22
 621              		.cfi_endproc
 622              	.LFE67:
 623              		.size	CheckGate, .-CheckGate
 624              		.section	.rodata
 625 00af 00       		.align	2
 626              	.LC24:
 627 00b0 53617665 		.ascii	"Save data\000"
 627      20646174 
 627      6100
 628 00ba 0000     		.section	.text.SaveResult,"ax",%progbits
 629              		.align	2
 630              		.global	SaveResult
 631              		.code	16
 632              		.thumb_func
 633              		.type	SaveResult, %function
 634              	SaveResult:
 635              	.LFB68:
 234:.\main.c      **** 
 235:.\main.c      **** void SaveResult(void)
 236:.\main.c      **** {
 636              		.loc 1 236 0
 637              		.cfi_startproc
 638 0000 90B5     		push	{r4, r7, lr}
ARM GAS  C:\Users\Petro\AppData\Local\Temp\cczi3JlV.s 			page 17


 639              		.cfi_def_cfa_offset 12
 640              		.cfi_offset 4, -12
 641              		.cfi_offset 7, -8
 642              		.cfi_offset 14, -4
 643 0002 85B0     		sub	sp, sp, #20
 644              		.cfi_def_cfa_offset 32
 645 0004 00AF     		add	r7, sp, #0
 646              		.cfi_def_cfa_register 7
 237:.\main.c      ****     uint64_t finUnixTime;
 238:.\main.c      ****     uint32_t finRecentMs;
 239:.\main.c      ****     
 240:.\main.c      ****     SendFinStatus(FIN_READY);
 647              		.loc 1 240 0
 648 0006 0120     		mov	r0, #1
 649 0008 FFF7FEFF 		bl	SendFinStatus
 241:.\main.c      ****     LedBlink(FREQ_INIT_BLINK);
 650              		.loc 1 241 0
 651 000c 0A20     		mov	r0, #10
 652 000e FFF7FEFF 		bl	LedBlink
 242:.\main.c      ****     Display("Save data");
 653              		.loc 1 242 0
 654 0012 164B     		ldr	r3, .L52
 655 0014 181C     		mov	r0, r3
 656 0016 FFF7FEFF 		bl	Display
 243:.\main.c      ****     MyDelay(TIMEOUT_USER_READ_INFO);
 657              		.loc 1 243 0
 658 001a FA23     		mov	r3, #250
 659 001c 5B00     		lsl	r3, r3, #1
 660 001e 181C     		mov	r0, r3
 661 0020 FFF7FEFF 		bl	MyDelay
 244:.\main.c      ****     
 245:.\main.c      ****     /*write time in fifo*/
 246:.\main.c      ****     GetFinTime(&finUnixTime, &finRecentMs);
 662              		.loc 1 246 0
 663 0024 0823     		mov	r3, #8
 664 0026 FA18     		add	r2, r7, r3
 665 0028 3B1D     		add	r3, r7, #4
 666 002a 101C     		mov	r0, r2
 667 002c 191C     		mov	r1, r3
 668 002e FFF7FEFF 		bl	GetFinTime
 247:.\main.c      ****     WriteFinishTime(finUnixTime,finRecentMs);
 669              		.loc 1 247 0
 670 0032 BB68     		ldr	r3, [r7, #8]
 671 0034 FC68     		ldr	r4, [r7, #12]
 672 0036 7A68     		ldr	r2, [r7, #4]
 673 0038 92B2     		uxth	r2, r2
 674 003a 181C     		mov	r0, r3
 675 003c 211C     		mov	r1, r4
 676 003e FFF7FEFF 		bl	WriteFinishTime
 248:.\main.c      ****     
 249:.\main.c      ****     FifoPushLastFinished();
 677              		.loc 1 249 0
 678 0042 FFF7FEFF 		bl	FifoPushLastFinished
 250:.\main.c      ****     
 251:.\main.c      ****     /*print time result last skier finished*/
 252:.\main.c      ****     DisplayLastSkierTime(LastSecTimeOnWay(),LastMillsTimeOnWay());/*LastTimeOnWaySecs(), LastTimeOn
 679              		.loc 1 252 0
ARM GAS  C:\Users\Petro\AppData\Local\Temp\cczi3JlV.s 			page 18


 680 0046 FFF7FEFF 		bl	LastSecTimeOnWay
 681 004a 041C     		mov	r4, r0
 682 004c FFF7FEFF 		bl	LastMillsTimeOnWay
 683 0050 031C     		mov	r3, r0
 684 0052 9BB2     		uxth	r3, r3
 685 0054 201C     		mov	r0, r4
 686 0056 191C     		mov	r1, r3
 687 0058 FFF7FEFF 		bl	DisplayLastSkierTime
 253:.\main.c      ****     MyDelay(2*TIMEOUT_USER_READ_INFO);
 688              		.loc 1 253 0
 689 005c FA23     		mov	r3, #250
 690 005e 9B00     		lsl	r3, r3, #2
 691 0060 181C     		mov	r0, r3
 692 0062 FFF7FEFF 		bl	MyDelay
 254:.\main.c      ****   
 255:.\main.c      **** }
 693              		.loc 1 255 0
 694 0066 BD46     		mov	sp, r7
 695 0068 05B0     		add	sp, sp, #20
 696              		@ sp needed
 697 006a 90BD     		pop	{r4, r7, pc}
 698              	.L53:
 699              		.align	2
 700              	.L52:
 701 006c B0000000 		.word	.LC24
 702              		.cfi_endproc
 703              	.LFE68:
 704              		.size	SaveResult, .-SaveResult
 705              		.text
 706              	.Letext0:
 707              		.file 2 "c:\\program files (x86)\\cypress\\psoc creator\\3.3\\psoc creator\\import\\gnu\\arm\\4.9.
 708              		.file 3 "c:\\program files (x86)\\cypress\\psoc creator\\3.3\\psoc creator\\import\\gnu\\arm\\4.9.
 709              		.file 4 ".\\appGlobal.h"
 710              		.file 5 "./debug.h"
 711              		.section	.debug_info,"",%progbits
 712              	.Ldebug_info0:
 713 0000 3C020000 		.4byte	0x23c
 714 0004 0400     		.2byte	0x4
 715 0006 00000000 		.4byte	.Ldebug_abbrev0
 716 000a 04       		.byte	0x4
 717 000b 01       		.uleb128 0x1
 718 000c B8000000 		.4byte	.LASF36
 719 0010 01       		.byte	0x1
 720 0011 76000000 		.4byte	.LASF37
 721 0015 B2010000 		.4byte	.LASF38
 722 0019 00000000 		.4byte	.Ldebug_ranges0+0
 723 001d 00000000 		.4byte	0
 724 0021 00000000 		.4byte	.Ldebug_line0
 725 0025 02       		.uleb128 0x2
 726 0026 01       		.byte	0x1
 727 0027 06       		.byte	0x6
 728 0028 72020000 		.4byte	.LASF0
 729 002c 02       		.uleb128 0x2
 730 002d 01       		.byte	0x1
 731 002e 08       		.byte	0x8
 732 002f 38000000 		.4byte	.LASF1
 733 0033 02       		.uleb128 0x2
ARM GAS  C:\Users\Petro\AppData\Local\Temp\cczi3JlV.s 			page 19


 734 0034 02       		.byte	0x2
 735 0035 05       		.byte	0x5
 736 0036 39020000 		.4byte	.LASF2
 737 003a 03       		.uleb128 0x3
 738 003b 91000000 		.4byte	.LASF5
 739 003f 02       		.byte	0x2
 740 0040 2B       		.byte	0x2b
 741 0041 45000000 		.4byte	0x45
 742 0045 02       		.uleb128 0x2
 743 0046 02       		.byte	0x2
 744 0047 07       		.byte	0x7
 745 0048 63000000 		.4byte	.LASF3
 746 004c 02       		.uleb128 0x2
 747 004d 04       		.byte	0x4
 748 004e 05       		.byte	0x5
 749 004f 69020000 		.4byte	.LASF4
 750 0053 03       		.uleb128 0x3
 751 0054 AD000000 		.4byte	.LASF6
 752 0058 02       		.byte	0x2
 753 0059 41       		.byte	0x41
 754 005a 5E000000 		.4byte	0x5e
 755 005e 02       		.uleb128 0x2
 756 005f 04       		.byte	0x4
 757 0060 07       		.byte	0x7
 758 0061 51000000 		.4byte	.LASF7
 759 0065 02       		.uleb128 0x2
 760 0066 08       		.byte	0x8
 761 0067 05       		.byte	0x5
 762 0068 26020000 		.4byte	.LASF8
 763 006c 03       		.uleb128 0x3
 764 006d 43020000 		.4byte	.LASF9
 765 0071 02       		.byte	0x2
 766 0072 5B       		.byte	0x5b
 767 0073 77000000 		.4byte	0x77
 768 0077 02       		.uleb128 0x2
 769 0078 08       		.byte	0x8
 770 0079 07       		.byte	0x7
 771 007a 78010000 		.4byte	.LASF10
 772 007e 04       		.uleb128 0x4
 773 007f 04       		.byte	0x4
 774 0080 05       		.byte	0x5
 775 0081 696E7400 		.ascii	"int\000"
 776 0085 02       		.uleb128 0x2
 777 0086 04       		.byte	0x4
 778 0087 07       		.byte	0x7
 779 0088 6B010000 		.4byte	.LASF11
 780 008c 03       		.uleb128 0x3
 781 008d 4E020000 		.4byte	.LASF12
 782 0091 03       		.byte	0x3
 783 0092 21       		.byte	0x21
 784 0093 3A000000 		.4byte	0x3a
 785 0097 03       		.uleb128 0x3
 786 0098 60020000 		.4byte	.LASF13
 787 009c 03       		.byte	0x3
 788 009d 2D       		.byte	0x2d
 789 009e 53000000 		.4byte	0x53
 790 00a2 03       		.uleb128 0x3
ARM GAS  C:\Users\Petro\AppData\Local\Temp\cczi3JlV.s 			page 20


 791 00a3 57020000 		.4byte	.LASF14
 792 00a7 03       		.byte	0x3
 793 00a8 39       		.byte	0x39
 794 00a9 6C000000 		.4byte	0x6c
 795 00ad 02       		.uleb128 0x2
 796 00ae 04       		.byte	0x4
 797 00af 04       		.byte	0x4
 798 00b0 0D000000 		.4byte	.LASF15
 799 00b4 02       		.uleb128 0x2
 800 00b5 08       		.byte	0x8
 801 00b6 04       		.byte	0x4
 802 00b7 9C000000 		.4byte	.LASF16
 803 00bb 02       		.uleb128 0x2
 804 00bc 01       		.byte	0x1
 805 00bd 08       		.byte	0x8
 806 00be 34020000 		.4byte	.LASF17
 807 00c2 02       		.uleb128 0x2
 808 00c3 04       		.byte	0x4
 809 00c4 07       		.byte	0x7
 810 00c5 12020000 		.4byte	.LASF18
 811 00c9 05       		.uleb128 0x5
 812 00ca 01       		.byte	0x1
 813 00cb 04       		.byte	0x4
 814 00cc 19       		.byte	0x19
 815 00cd EA000000 		.4byte	0xea
 816 00d1 06       		.uleb128 0x6
 817 00d2 A3000000 		.4byte	.LASF19
 818 00d6 00       		.sleb128 0
 819 00d7 06       		.uleb128 0x6
 820 00d8 A1010000 		.4byte	.LASF20
 821 00dc 01       		.sleb128 1
 822 00dd 06       		.uleb128 0x6
 823 00de 46000000 		.4byte	.LASF21
 824 00e2 02       		.sleb128 2
 825 00e3 06       		.uleb128 0x6
 826 00e4 7E020000 		.4byte	.LASF22
 827 00e8 03       		.sleb128 3
 828 00e9 00       		.byte	0
 829 00ea 03       		.uleb128 0x3
 830 00eb 46010000 		.4byte	.LASF23
 831 00ef 04       		.byte	0x4
 832 00f0 19       		.byte	0x19
 833 00f1 C9000000 		.4byte	0xc9
 834 00f5 07       		.uleb128 0x7
 835 00f6 60010000 		.4byte	.LASF39
 836 00fa 01       		.byte	0x1
 837 00fb 05       		.byte	0x5
 838 00fc 7E000000 		.4byte	0x7e
 839 0100 00000000 		.4byte	.LFB63
 840 0104 B8000000 		.4byte	.LFE63-.LFB63
 841 0108 01       		.uleb128 0x1
 842 0109 9C       		.byte	0x9c
 843 010a 08       		.uleb128 0x8
 844 010b A7010000 		.4byte	.LASF26
 845 010f 01       		.byte	0x1
 846 0110 3E       		.byte	0x3e
 847 0111 97000000 		.4byte	0x97
ARM GAS  C:\Users\Petro\AppData\Local\Temp\cczi3JlV.s 			page 21


 848 0115 00000000 		.4byte	.LFB64
 849 0119 AC000000 		.4byte	.LFE64-.LFB64
 850 011d 01       		.uleb128 0x1
 851 011e 9C       		.byte	0x9c
 852 011f 40010000 		.4byte	0x140
 853 0123 09       		.uleb128 0x9
 854 0124 9A010000 		.4byte	.LASF24
 855 0128 01       		.byte	0x1
 856 0129 40       		.byte	0x40
 857 012a 97000000 		.4byte	0x97
 858 012e 02       		.uleb128 0x2
 859 012f 91       		.byte	0x91
 860 0130 6C       		.sleb128 -20
 861 0131 09       		.uleb128 0x9
 862 0132 13000000 		.4byte	.LASF25
 863 0136 01       		.byte	0x1
 864 0137 41       		.byte	0x41
 865 0138 A2000000 		.4byte	0xa2
 866 013c 02       		.uleb128 0x2
 867 013d 91       		.byte	0x91
 868 013e 60       		.sleb128 -32
 869 013f 00       		.byte	0
 870 0140 08       		.uleb128 0x8
 871 0141 50010000 		.4byte	.LASF27
 872 0145 01       		.byte	0x1
 873 0146 6F       		.byte	0x6f
 874 0147 97000000 		.4byte	0x97
 875 014b 00000000 		.4byte	.LFB65
 876 014f 88000000 		.4byte	.LFE65-.LFB65
 877 0153 01       		.uleb128 0x1
 878 0154 9C       		.byte	0x9c
 879 0155 68010000 		.4byte	0x168
 880 0159 09       		.uleb128 0x9
 881 015a 9A010000 		.4byte	.LASF24
 882 015e 01       		.byte	0x1
 883 015f 71       		.byte	0x71
 884 0160 97000000 		.4byte	0x97
 885 0164 02       		.uleb128 0x2
 886 0165 91       		.byte	0x91
 887 0166 74       		.sleb128 -12
 888 0167 00       		.byte	0
 889 0168 08       		.uleb128 0x8
 890 0169 1B020000 		.4byte	.LASF28
 891 016d 01       		.byte	0x1
 892 016e 95       		.byte	0x95
 893 016f 97000000 		.4byte	0x97
 894 0173 00000000 		.4byte	.LFB66
 895 0177 DC000000 		.4byte	.LFE66-.LFB66
 896 017b 01       		.uleb128 0x1
 897 017c 9C       		.byte	0x9c
 898 017d 90010000 		.4byte	0x190
 899 0181 09       		.uleb128 0x9
 900 0182 9A010000 		.4byte	.LASF24
 901 0186 01       		.byte	0x1
 902 0187 97       		.byte	0x97
 903 0188 97000000 		.4byte	0x97
 904 018c 02       		.uleb128 0x2
ARM GAS  C:\Users\Petro\AppData\Local\Temp\cczi3JlV.s 			page 22


 905 018d 91       		.byte	0x91
 906 018e 74       		.sleb128 -12
 907 018f 00       		.byte	0
 908 0190 08       		.uleb128 0x8
 909 0191 1C000000 		.4byte	.LASF29
 910 0195 01       		.byte	0x1
 911 0196 D7       		.byte	0xd7
 912 0197 97000000 		.4byte	0x97
 913 019b 00000000 		.4byte	.LFB67
 914 019f 40000000 		.4byte	.LFE67-.LFB67
 915 01a3 01       		.uleb128 0x1
 916 01a4 9C       		.byte	0x9c
 917 01a5 B8010000 		.4byte	0x1b8
 918 01a9 09       		.uleb128 0x9
 919 01aa 9A010000 		.4byte	.LASF24
 920 01ae 01       		.byte	0x1
 921 01af D9       		.byte	0xd9
 922 01b0 97000000 		.4byte	0x97
 923 01b4 02       		.uleb128 0x2
 924 01b5 91       		.byte	0x91
 925 01b6 74       		.sleb128 -12
 926 01b7 00       		.byte	0
 927 01b8 0A       		.uleb128 0xa
 928 01b9 8F010000 		.4byte	.LASF40
 929 01bd 01       		.byte	0x1
 930 01be EB       		.byte	0xeb
 931 01bf 00000000 		.4byte	.LFB68
 932 01c3 70000000 		.4byte	.LFE68-.LFB68
 933 01c7 01       		.uleb128 0x1
 934 01c8 9C       		.byte	0x9c
 935 01c9 EA010000 		.4byte	0x1ea
 936 01cd 09       		.uleb128 0x9
 937 01ce 7F000000 		.4byte	.LASF30
 938 01d2 01       		.byte	0x1
 939 01d3 ED       		.byte	0xed
 940 01d4 A2000000 		.4byte	0xa2
 941 01d8 02       		.uleb128 0x2
 942 01d9 91       		.byte	0x91
 943 01da 68       		.sleb128 -24
 944 01db 09       		.uleb128 0x9
 945 01dc 2C000000 		.4byte	.LASF31
 946 01e0 01       		.byte	0x1
 947 01e1 EE       		.byte	0xee
 948 01e2 97000000 		.4byte	0x97
 949 01e6 02       		.uleb128 0x2
 950 01e7 91       		.byte	0x91
 951 01e8 64       		.sleb128 -28
 952 01e9 00       		.byte	0
 953 01ea 09       		.uleb128 0x9
 954 01eb 8B000000 		.4byte	.LASF32
 955 01ef 05       		.byte	0x5
 956 01f0 04       		.byte	0x4
 957 01f1 8C000000 		.4byte	0x8c
 958 01f5 05       		.uleb128 0x5
 959 01f6 03       		.byte	0x3
 960 01f7 00000000 		.4byte	minMs
 961 01fb 09       		.uleb128 0x9
ARM GAS  C:\Users\Petro\AppData\Local\Temp\cczi3JlV.s 			page 23


 962 01fc 26000000 		.4byte	.LASF33
 963 0200 05       		.byte	0x5
 964 0201 05       		.byte	0x5
 965 0202 8C000000 		.4byte	0x8c
 966 0206 05       		.uleb128 0x5
 967 0207 03       		.byte	0x3
 968 0208 02000000 		.4byte	maxMs
 969 020c 09       		.uleb128 0x9
 970 020d 9A010000 		.4byte	.LASF24
 971 0211 04       		.byte	0x4
 972 0212 1C       		.byte	0x1c
 973 0213 97000000 		.4byte	0x97
 974 0217 05       		.uleb128 0x5
 975 0218 03       		.byte	0x3
 976 0219 04000000 		.4byte	result
 977 021d 0B       		.uleb128 0xb
 978 021e 65010000 		.4byte	.LASF34
 979 0222 05       		.byte	0x5
 980 0223 06       		.byte	0x6
 981 0224 8C000000 		.4byte	0x8c
 982 0228 05       		.uleb128 0x5
 983 0229 03       		.byte	0x3
 984 022a 00000000 		.4byte	tmpMs
 985 022e 0B       		.uleb128 0xb
 986 022f 00000000 		.4byte	.LASF35
 987 0233 04       		.byte	0x4
 988 0234 1A       		.byte	0x1a
 989 0235 EA000000 		.4byte	0xea
 990 0239 05       		.uleb128 0x5
 991 023a 03       		.byte	0x3
 992 023b 00000000 		.4byte	currentState
 993 023f 00       		.byte	0
 994              		.section	.debug_abbrev,"",%progbits
 995              	.Ldebug_abbrev0:
 996 0000 01       		.uleb128 0x1
 997 0001 11       		.uleb128 0x11
 998 0002 01       		.byte	0x1
 999 0003 25       		.uleb128 0x25
 1000 0004 0E       		.uleb128 0xe
 1001 0005 13       		.uleb128 0x13
 1002 0006 0B       		.uleb128 0xb
 1003 0007 03       		.uleb128 0x3
 1004 0008 0E       		.uleb128 0xe
 1005 0009 1B       		.uleb128 0x1b
 1006 000a 0E       		.uleb128 0xe
 1007 000b 55       		.uleb128 0x55
 1008 000c 17       		.uleb128 0x17
 1009 000d 11       		.uleb128 0x11
 1010 000e 01       		.uleb128 0x1
 1011 000f 10       		.uleb128 0x10
 1012 0010 17       		.uleb128 0x17
 1013 0011 00       		.byte	0
 1014 0012 00       		.byte	0
 1015 0013 02       		.uleb128 0x2
 1016 0014 24       		.uleb128 0x24
 1017 0015 00       		.byte	0
 1018 0016 0B       		.uleb128 0xb
ARM GAS  C:\Users\Petro\AppData\Local\Temp\cczi3JlV.s 			page 24


 1019 0017 0B       		.uleb128 0xb
 1020 0018 3E       		.uleb128 0x3e
 1021 0019 0B       		.uleb128 0xb
 1022 001a 03       		.uleb128 0x3
 1023 001b 0E       		.uleb128 0xe
 1024 001c 00       		.byte	0
 1025 001d 00       		.byte	0
 1026 001e 03       		.uleb128 0x3
 1027 001f 16       		.uleb128 0x16
 1028 0020 00       		.byte	0
 1029 0021 03       		.uleb128 0x3
 1030 0022 0E       		.uleb128 0xe
 1031 0023 3A       		.uleb128 0x3a
 1032 0024 0B       		.uleb128 0xb
 1033 0025 3B       		.uleb128 0x3b
 1034 0026 0B       		.uleb128 0xb
 1035 0027 49       		.uleb128 0x49
 1036 0028 13       		.uleb128 0x13
 1037 0029 00       		.byte	0
 1038 002a 00       		.byte	0
 1039 002b 04       		.uleb128 0x4
 1040 002c 24       		.uleb128 0x24
 1041 002d 00       		.byte	0
 1042 002e 0B       		.uleb128 0xb
 1043 002f 0B       		.uleb128 0xb
 1044 0030 3E       		.uleb128 0x3e
 1045 0031 0B       		.uleb128 0xb
 1046 0032 03       		.uleb128 0x3
 1047 0033 08       		.uleb128 0x8
 1048 0034 00       		.byte	0
 1049 0035 00       		.byte	0
 1050 0036 05       		.uleb128 0x5
 1051 0037 04       		.uleb128 0x4
 1052 0038 01       		.byte	0x1
 1053 0039 0B       		.uleb128 0xb
 1054 003a 0B       		.uleb128 0xb
 1055 003b 3A       		.uleb128 0x3a
 1056 003c 0B       		.uleb128 0xb
 1057 003d 3B       		.uleb128 0x3b
 1058 003e 0B       		.uleb128 0xb
 1059 003f 01       		.uleb128 0x1
 1060 0040 13       		.uleb128 0x13
 1061 0041 00       		.byte	0
 1062 0042 00       		.byte	0
 1063 0043 06       		.uleb128 0x6
 1064 0044 28       		.uleb128 0x28
 1065 0045 00       		.byte	0
 1066 0046 03       		.uleb128 0x3
 1067 0047 0E       		.uleb128 0xe
 1068 0048 1C       		.uleb128 0x1c
 1069 0049 0D       		.uleb128 0xd
 1070 004a 00       		.byte	0
 1071 004b 00       		.byte	0
 1072 004c 07       		.uleb128 0x7
 1073 004d 2E       		.uleb128 0x2e
 1074 004e 00       		.byte	0
 1075 004f 3F       		.uleb128 0x3f
ARM GAS  C:\Users\Petro\AppData\Local\Temp\cczi3JlV.s 			page 25


 1076 0050 19       		.uleb128 0x19
 1077 0051 03       		.uleb128 0x3
 1078 0052 0E       		.uleb128 0xe
 1079 0053 3A       		.uleb128 0x3a
 1080 0054 0B       		.uleb128 0xb
 1081 0055 3B       		.uleb128 0x3b
 1082 0056 0B       		.uleb128 0xb
 1083 0057 49       		.uleb128 0x49
 1084 0058 13       		.uleb128 0x13
 1085 0059 11       		.uleb128 0x11
 1086 005a 01       		.uleb128 0x1
 1087 005b 12       		.uleb128 0x12
 1088 005c 06       		.uleb128 0x6
 1089 005d 40       		.uleb128 0x40
 1090 005e 18       		.uleb128 0x18
 1091 005f 9642     		.uleb128 0x2116
 1092 0061 19       		.uleb128 0x19
 1093 0062 00       		.byte	0
 1094 0063 00       		.byte	0
 1095 0064 08       		.uleb128 0x8
 1096 0065 2E       		.uleb128 0x2e
 1097 0066 01       		.byte	0x1
 1098 0067 3F       		.uleb128 0x3f
 1099 0068 19       		.uleb128 0x19
 1100 0069 03       		.uleb128 0x3
 1101 006a 0E       		.uleb128 0xe
 1102 006b 3A       		.uleb128 0x3a
 1103 006c 0B       		.uleb128 0xb
 1104 006d 3B       		.uleb128 0x3b
 1105 006e 0B       		.uleb128 0xb
 1106 006f 27       		.uleb128 0x27
 1107 0070 19       		.uleb128 0x19
 1108 0071 49       		.uleb128 0x49
 1109 0072 13       		.uleb128 0x13
 1110 0073 11       		.uleb128 0x11
 1111 0074 01       		.uleb128 0x1
 1112 0075 12       		.uleb128 0x12
 1113 0076 06       		.uleb128 0x6
 1114 0077 40       		.uleb128 0x40
 1115 0078 18       		.uleb128 0x18
 1116 0079 9642     		.uleb128 0x2116
 1117 007b 19       		.uleb128 0x19
 1118 007c 01       		.uleb128 0x1
 1119 007d 13       		.uleb128 0x13
 1120 007e 00       		.byte	0
 1121 007f 00       		.byte	0
 1122 0080 09       		.uleb128 0x9
 1123 0081 34       		.uleb128 0x34
 1124 0082 00       		.byte	0
 1125 0083 03       		.uleb128 0x3
 1126 0084 0E       		.uleb128 0xe
 1127 0085 3A       		.uleb128 0x3a
 1128 0086 0B       		.uleb128 0xb
 1129 0087 3B       		.uleb128 0x3b
 1130 0088 0B       		.uleb128 0xb
 1131 0089 49       		.uleb128 0x49
 1132 008a 13       		.uleb128 0x13
ARM GAS  C:\Users\Petro\AppData\Local\Temp\cczi3JlV.s 			page 26


 1133 008b 02       		.uleb128 0x2
 1134 008c 18       		.uleb128 0x18
 1135 008d 00       		.byte	0
 1136 008e 00       		.byte	0
 1137 008f 0A       		.uleb128 0xa
 1138 0090 2E       		.uleb128 0x2e
 1139 0091 01       		.byte	0x1
 1140 0092 3F       		.uleb128 0x3f
 1141 0093 19       		.uleb128 0x19
 1142 0094 03       		.uleb128 0x3
 1143 0095 0E       		.uleb128 0xe
 1144 0096 3A       		.uleb128 0x3a
 1145 0097 0B       		.uleb128 0xb
 1146 0098 3B       		.uleb128 0x3b
 1147 0099 0B       		.uleb128 0xb
 1148 009a 27       		.uleb128 0x27
 1149 009b 19       		.uleb128 0x19
 1150 009c 11       		.uleb128 0x11
 1151 009d 01       		.uleb128 0x1
 1152 009e 12       		.uleb128 0x12
 1153 009f 06       		.uleb128 0x6
 1154 00a0 40       		.uleb128 0x40
 1155 00a1 18       		.uleb128 0x18
 1156 00a2 9642     		.uleb128 0x2116
 1157 00a4 19       		.uleb128 0x19
 1158 00a5 01       		.uleb128 0x1
 1159 00a6 13       		.uleb128 0x13
 1160 00a7 00       		.byte	0
 1161 00a8 00       		.byte	0
 1162 00a9 0B       		.uleb128 0xb
 1163 00aa 34       		.uleb128 0x34
 1164 00ab 00       		.byte	0
 1165 00ac 03       		.uleb128 0x3
 1166 00ad 0E       		.uleb128 0xe
 1167 00ae 3A       		.uleb128 0x3a
 1168 00af 0B       		.uleb128 0xb
 1169 00b0 3B       		.uleb128 0x3b
 1170 00b1 0B       		.uleb128 0xb
 1171 00b2 49       		.uleb128 0x49
 1172 00b3 13       		.uleb128 0x13
 1173 00b4 3F       		.uleb128 0x3f
 1174 00b5 19       		.uleb128 0x19
 1175 00b6 02       		.uleb128 0x2
 1176 00b7 18       		.uleb128 0x18
 1177 00b8 00       		.byte	0
 1178 00b9 00       		.byte	0
 1179 00ba 00       		.byte	0
 1180              		.section	.debug_aranges,"",%progbits
 1181 0000 44000000 		.4byte	0x44
 1182 0004 0200     		.2byte	0x2
 1183 0006 00000000 		.4byte	.Ldebug_info0
 1184 000a 04       		.byte	0x4
 1185 000b 00       		.byte	0
 1186 000c 0000     		.2byte	0
 1187 000e 0000     		.2byte	0
 1188 0010 00000000 		.4byte	.LFB63
 1189 0014 B8000000 		.4byte	.LFE63-.LFB63
ARM GAS  C:\Users\Petro\AppData\Local\Temp\cczi3JlV.s 			page 27


 1190 0018 00000000 		.4byte	.LFB64
 1191 001c AC000000 		.4byte	.LFE64-.LFB64
 1192 0020 00000000 		.4byte	.LFB65
 1193 0024 88000000 		.4byte	.LFE65-.LFB65
 1194 0028 00000000 		.4byte	.LFB66
 1195 002c DC000000 		.4byte	.LFE66-.LFB66
 1196 0030 00000000 		.4byte	.LFB67
 1197 0034 40000000 		.4byte	.LFE67-.LFB67
 1198 0038 00000000 		.4byte	.LFB68
 1199 003c 70000000 		.4byte	.LFE68-.LFB68
 1200 0040 00000000 		.4byte	0
 1201 0044 00000000 		.4byte	0
 1202              		.section	.debug_ranges,"",%progbits
 1203              	.Ldebug_ranges0:
 1204 0000 00000000 		.4byte	.LFB63
 1205 0004 B8000000 		.4byte	.LFE63
 1206 0008 00000000 		.4byte	.LFB64
 1207 000c AC000000 		.4byte	.LFE64
 1208 0010 00000000 		.4byte	.LFB65
 1209 0014 88000000 		.4byte	.LFE65
 1210 0018 00000000 		.4byte	.LFB66
 1211 001c DC000000 		.4byte	.LFE66
 1212 0020 00000000 		.4byte	.LFB67
 1213 0024 40000000 		.4byte	.LFE67
 1214 0028 00000000 		.4byte	.LFB68
 1215 002c 70000000 		.4byte	.LFE68
 1216 0030 00000000 		.4byte	0
 1217 0034 00000000 		.4byte	0
 1218              		.section	.debug_line,"",%progbits
 1219              	.Ldebug_line0:
 1220 0000 18020000 		.section	.debug_str,"MS",%progbits,1
 1220      02003501 
 1220      00000201 
 1220      FB0E0D00 
 1220      01010101 
 1221              	.LASF35:
 1222 0000 63757272 		.ascii	"currentState\000"
 1222      656E7453 
 1222      74617465 
 1222      00
 1223              	.LASF15:
 1224 000d 666C6F61 		.ascii	"float\000"
 1224      7400
 1225              	.LASF25:
 1226 0013 756E6978 		.ascii	"unixTime\000"
 1226      54696D65 
 1226      00
 1227              	.LASF29:
 1228 001c 43686563 		.ascii	"CheckGate\000"
 1228      6B476174 
 1228      6500
 1229              	.LASF33:
 1230 0026 6D61784D 		.ascii	"maxMs\000"
 1230      7300
 1231              	.LASF31:
 1232 002c 66696E52 		.ascii	"finRecentMs\000"
 1232      6563656E 
ARM GAS  C:\Users\Petro\AppData\Local\Temp\cczi3JlV.s 			page 28


 1232      744D7300 
 1233              	.LASF1:
 1234 0038 756E7369 		.ascii	"unsigned char\000"
 1234      676E6564 
 1234      20636861 
 1234      7200
 1235              	.LASF21:
 1236 0046 43484543 		.ascii	"CHECK_GATE\000"
 1236      4B5F4741 
 1236      544500
 1237              	.LASF7:
 1238 0051 6C6F6E67 		.ascii	"long unsigned int\000"
 1238      20756E73 
 1238      69676E65 
 1238      6420696E 
 1238      7400
 1239              	.LASF3:
 1240 0063 73686F72 		.ascii	"short unsigned int\000"
 1240      7420756E 
 1240      7369676E 
 1240      65642069 
 1240      6E7400
 1241              	.LASF37:
 1242 0076 2E5C6D61 		.ascii	".\\main.c\000"
 1242      696E2E63 
 1242      00
 1243              	.LASF30:
 1244 007f 66696E55 		.ascii	"finUnixTime\000"
 1244      6E697854 
 1244      696D6500 
 1245              	.LASF32:
 1246 008b 6D696E4D 		.ascii	"minMs\000"
 1246      7300
 1247              	.LASF5:
 1248 0091 5F5F7569 		.ascii	"__uint16_t\000"
 1248      6E743136 
 1248      5F7400
 1249              	.LASF16:
 1250 009c 646F7562 		.ascii	"double\000"
 1250      6C6500
 1251              	.LASF19:
 1252 00a3 54494D45 		.ascii	"TIME_SYNC\000"
 1252      5F53594E 
 1252      4300
 1253              	.LASF6:
 1254 00ad 5F5F7569 		.ascii	"__uint32_t\000"
 1254      6E743332 
 1254      5F7400
 1255              	.LASF36:
 1256 00b8 474E5520 		.ascii	"GNU C 4.9.3 20150303 (release) [ARM/embedded-4_9-br"
 1256      4320342E 
 1256      392E3320 
 1256      32303135 
 1256      30333033 
 1257 00eb 616E6368 		.ascii	"anch revision 221220] -mcpu=cortex-m0 -mthumb -g -O"
 1257      20726576 
 1257      6973696F 
ARM GAS  C:\Users\Petro\AppData\Local\Temp\cczi3JlV.s 			page 29


 1257      6E203232 
 1257      31323230 
 1258 011e 30202D66 		.ascii	"0 -ffunction-sections -ffat-lto-objects\000"
 1258      66756E63 
 1258      74696F6E 
 1258      2D736563 
 1258      74696F6E 
 1259              	.LASF23:
 1260 0146 53746174 		.ascii	"StateType\000"
 1260      65547970 
 1260      6500
 1261              	.LASF27:
 1262 0150 54696D65 		.ascii	"TimeSynchronize\000"
 1262      53796E63 
 1262      68726F6E 
 1262      697A6500 
 1263              	.LASF39:
 1264 0160 6D61696E 		.ascii	"main\000"
 1264      00
 1265              	.LASF34:
 1266 0165 746D704D 		.ascii	"tmpMs\000"
 1266      7300
 1267              	.LASF11:
 1268 016b 756E7369 		.ascii	"unsigned int\000"
 1268      676E6564 
 1268      20696E74 
 1268      00
 1269              	.LASF10:
 1270 0178 6C6F6E67 		.ascii	"long long unsigned int\000"
 1270      206C6F6E 
 1270      6720756E 
 1270      7369676E 
 1270      65642069 
 1271              	.LASF40:
 1272 018f 53617665 		.ascii	"SaveResult\000"
 1272      52657375 
 1272      6C7400
 1273              	.LASF24:
 1274 019a 72657375 		.ascii	"result\000"
 1274      6C7400
 1275              	.LASF20:
 1276 01a1 52454144 		.ascii	"READY\000"
 1276      5900
 1277              	.LASF26:
 1278 01a7 53797374 		.ascii	"SystemInit\000"
 1278      656D496E 
 1278      697400
 1279              	.LASF38:
 1280 01b2 443A5C43 		.ascii	"D:\\Cypress\\system-start-finish\\vesion 2\\fw\\fin"
 1280      79707265 
 1280      73735C73 
 1280      79737465 
 1280      6D2D7374 
 1281 01e0 6973685C 		.ascii	"ish\\sandbox\\v5\\Finish(state machine)\\fin_v0.cyd"
 1281      73616E64 
 1281      626F785C 
 1281      76355C46 
ARM GAS  C:\Users\Petro\AppData\Local\Temp\cczi3JlV.s 			page 30


 1281      696E6973 
 1282 020f 736E00   		.ascii	"sn\000"
 1283              	.LASF18:
 1284 0212 73697A65 		.ascii	"sizetype\000"
 1284      74797065 
 1284      00
 1285              	.LASF28:
 1286 021b 43686563 		.ascii	"CheckReady\000"
 1286      6B526561 
 1286      647900
 1287              	.LASF8:
 1288 0226 6C6F6E67 		.ascii	"long long int\000"
 1288      206C6F6E 
 1288      6720696E 
 1288      7400
 1289              	.LASF17:
 1290 0234 63686172 		.ascii	"char\000"
 1290      00
 1291              	.LASF2:
 1292 0239 73686F72 		.ascii	"short int\000"
 1292      7420696E 
 1292      7400
 1293              	.LASF9:
 1294 0243 5F5F7569 		.ascii	"__uint64_t\000"
 1294      6E743634 
 1294      5F7400
 1295              	.LASF12:
 1296 024e 75696E74 		.ascii	"uint16_t\000"
 1296      31365F74 
 1296      00
 1297              	.LASF14:
 1298 0257 75696E74 		.ascii	"uint64_t\000"
 1298      36345F74 
 1298      00
 1299              	.LASF13:
 1300 0260 75696E74 		.ascii	"uint32_t\000"
 1300      33325F74 
 1300      00
 1301              	.LASF4:
 1302 0269 6C6F6E67 		.ascii	"long int\000"
 1302      20696E74 
 1302      00
 1303              	.LASF0:
 1304 0272 7369676E 		.ascii	"signed char\000"
 1304      65642063 
 1304      68617200 
 1305              	.LASF22:
 1306 027e 53415645 		.ascii	"SAVE_RESULT\000"
 1306      5F524553 
 1306      554C5400 
 1307              		.ident	"GCC: (GNU Tools for ARM Embedded Processors) 4.9.3 20150303 (release) [ARM/embedded-4_9-br
