ARM GAS  C:\Users\Petro\AppData\Local\Temp\cczi3JlV.s 			page 1


   1              		.cpu cortex-m0
   2              		.fpu softvfp
   3              		.eabi_attribute 20, 1
   4              		.eabi_attribute 21, 1
   5              		.eabi_attribute 23, 3
   6              		.eabi_attribute 24, 1
   7              		.eabi_attribute 25, 1
   8              		.eabi_attribute 26, 1
   9              		.eabi_attribute 30, 6
  10              		.eabi_attribute 34, 0
  11              		.eabi_attribute 18, 4
  12              		.code	16
  13              		.file	"main.c"
  14              		.text
  15              	.Ltext0:
  16              		.cfi_sections	.debug_frame
  17              		.bss
  18              		.align	1
  19              	minMs:
  20 0000 0000     		.space	2
  21              		.align	1
  22              	maxMs:
  23 0002 0000     		.space	2
  24              		.comm	tmpMs,2,2
  25              		.comm	currentState,1,1
  26              		.align	2
  27              	result:
  28 0004 00000000 		.space	4
  29              		.section	.text.main,"ax",%progbits
  30              		.align	2
  31              		.global	main
  32              		.code	16
  33              		.thumb_func
  34              		.type	main, %function
  35              	main:
  36              	.LFB63:
  37              		.file 1 ".\\main.c"
   1:.\main.c      **** 
   2:.\main.c      **** #include "appGlobal.h"
   3:.\main.c      **** 
   4:.\main.c      **** 
   5:.\main.c      **** int main()
   6:.\main.c      **** {      
  38              		.loc 1 6 0
  39              		.cfi_startproc
  40 0000 80B5     		push	{r7, lr}
  41              		.cfi_def_cfa_offset 8
  42              		.cfi_offset 7, -8
  43              		.cfi_offset 14, -4
  44 0002 00AF     		add	r7, sp, #0
  45              		.cfi_def_cfa_register 7
   7:.\main.c      ****     while(SystemInit() == ERROR);
  46              		.loc 1 7 0
  47 0004 C046     		mov	r8, r8
  48              	.L2:
  49              		.loc 1 7 0 is_stmt 0 discriminator 1
  50 0006 FFF7FEFF 		bl	SystemInit
ARM GAS  C:\Users\Petro\AppData\Local\Temp\cczi3JlV.s 			page 2


  51 000a 031E     		sub	r3, r0, #0
  52 000c FBD0     		beq	.L2
   8:.\main.c      ****     //SystemInit();
   9:.\main.c      ****     currentState = TIME_SYNC;
  53              		.loc 1 9 0 is_stmt 1
  54 000e 284B     		ldr	r3, .L15
  55 0010 0022     		mov	r2, #0
  56 0012 1A70     		strb	r2, [r3]
  57              	.L14:
  10:.\main.c      ****     
  11:.\main.c      ****     for(;;)
  12:.\main.c      ****     {
  13:.\main.c      ****         switch (currentState)
  58              		.loc 1 13 0
  59 0014 264B     		ldr	r3, .L15
  60 0016 1B78     		ldrb	r3, [r3]
  61 0018 012B     		cmp	r3, #1
  62 001a 16D0     		beq	.L4
  63 001c 02DC     		bgt	.L5
  64 001e 002B     		cmp	r3, #0
  65 0020 05D0     		beq	.L6
  66 0022 3FE0     		b	.L3
  67              	.L5:
  68 0024 022B     		cmp	r3, #2
  69 0026 26D0     		beq	.L7
  70 0028 032B     		cmp	r3, #3
  71 002a 35D0     		beq	.L8
  72 002c 3AE0     		b	.L3
  73              	.L6:
  14:.\main.c      ****         {
  15:.\main.c      ****             case TIME_SYNC:
  16:.\main.c      ****             {
  17:.\main.c      ****                 result = TimeSynchronize();
  74              		.loc 1 17 0
  75 002e FFF7FEFF 		bl	TimeSynchronize
  76 0032 021C     		mov	r2, r0
  77 0034 1F4B     		ldr	r3, .L15+4
  78 0036 1A60     		str	r2, [r3]
  18:.\main.c      ****                 if(result == TIME_SYNC_OK)
  79              		.loc 1 18 0
  80 0038 1E4B     		ldr	r3, .L15+4
  81 003a 1B68     		ldr	r3, [r3]
  82 003c 002B     		cmp	r3, #0
  83 003e 03D1     		bne	.L9
  19:.\main.c      ****                 {
  20:.\main.c      ****                     currentState = READY;
  84              		.loc 1 20 0
  85 0040 1B4B     		ldr	r3, .L15
  86 0042 0122     		mov	r2, #1
  87 0044 1A70     		strb	r2, [r3]
  21:.\main.c      ****                 }
  22:.\main.c      ****                 break;
  88              		.loc 1 22 0
  89 0046 2DE0     		b	.L3
  90              	.L9:
  91 0048 2CE0     		b	.L3
  92              	.L4:
ARM GAS  C:\Users\Petro\AppData\Local\Temp\cczi3JlV.s 			page 3


  23:.\main.c      ****             }
  24:.\main.c      ****             case READY:
  25:.\main.c      ****             {
  26:.\main.c      ****                 result = CheckReady();
  93              		.loc 1 26 0
  94 004a FFF7FEFF 		bl	CheckReady
  95 004e 021C     		mov	r2, r0
  96 0050 184B     		ldr	r3, .L15+4
  97 0052 1A60     		str	r2, [r3]
  27:.\main.c      ****                 if(result == NO_ERROR)
  98              		.loc 1 27 0
  99 0054 174B     		ldr	r3, .L15+4
 100 0056 1B68     		ldr	r3, [r3]
 101 0058 012B     		cmp	r3, #1
 102 005a 03D1     		bne	.L10
  28:.\main.c      ****                 {
  29:.\main.c      ****                     currentState = CHECK_GATE;
 103              		.loc 1 29 0
 104 005c 144B     		ldr	r3, .L15
 105 005e 0222     		mov	r2, #2
 106 0060 1A70     		strb	r2, [r3]
 107 0062 07E0     		b	.L11
 108              	.L10:
  30:.\main.c      ****                 }
  31:.\main.c      ****                 else if(result == REBOOT)  
 109              		.loc 1 31 0
 110 0064 134B     		ldr	r3, .L15+4
 111 0066 1B68     		ldr	r3, [r3]
 112 0068 FF2B     		cmp	r3, #255
 113 006a 03D1     		bne	.L11
  32:.\main.c      ****                 {
  33:.\main.c      ****                     currentState = TIME_SYNC;
 114              		.loc 1 33 0
 115 006c 104B     		ldr	r3, .L15
 116 006e 0022     		mov	r2, #0
 117 0070 1A70     		strb	r2, [r3]
  34:.\main.c      ****                 }
  35:.\main.c      ****                 break;
 118              		.loc 1 35 0
 119 0072 17E0     		b	.L3
 120              	.L11:
 121 0074 16E0     		b	.L3
 122              	.L7:
  36:.\main.c      ****             }
  37:.\main.c      ****             case CHECK_GATE:
  38:.\main.c      ****             {
  39:.\main.c      ****                 result = CheckGate();
 123              		.loc 1 39 0
 124 0076 FFF7FEFF 		bl	CheckGate
 125 007a 021C     		mov	r2, r0
 126 007c 0D4B     		ldr	r3, .L15+4
 127 007e 1A60     		str	r2, [r3]
  40:.\main.c      ****                 if(result == GATE_OPEN)
 128              		.loc 1 40 0
 129 0080 0C4B     		ldr	r3, .L15+4
 130 0082 1B68     		ldr	r3, [r3]
 131 0084 012B     		cmp	r3, #1
ARM GAS  C:\Users\Petro\AppData\Local\Temp\cczi3JlV.s 			page 4


 132 0086 03D1     		bne	.L12
  41:.\main.c      ****                 {
  42:.\main.c      ****                     currentState = SAVE_RESULT;
 133              		.loc 1 42 0
 134 0088 094B     		ldr	r3, .L15
 135 008a 0322     		mov	r2, #3
 136 008c 1A70     		strb	r2, [r3]
  43:.\main.c      ****                 }
  44:.\main.c      ****                 else
  45:.\main.c      ****                 {
  46:.\main.c      ****                     currentState = READY;
  47:.\main.c      ****                 }
  48:.\main.c      ****                 break;
 137              		.loc 1 48 0
 138 008e 09E0     		b	.L3
 139              	.L12:
  46:.\main.c      ****                 }
 140              		.loc 1 46 0
 141 0090 074B     		ldr	r3, .L15
 142 0092 0122     		mov	r2, #1
 143 0094 1A70     		strb	r2, [r3]
 144              		.loc 1 48 0
 145 0096 05E0     		b	.L3
 146              	.L8:
  49:.\main.c      ****             }
  50:.\main.c      ****             case SAVE_RESULT:
  51:.\main.c      ****             {
  52:.\main.c      ****                 SaveResult();
 147              		.loc 1 52 0
 148 0098 FFF7FEFF 		bl	SaveResult
  53:.\main.c      ****                 currentState = READY;
 149              		.loc 1 53 0
 150 009c 044B     		ldr	r3, .L15
 151 009e 0122     		mov	r2, #1
 152 00a0 1A70     		strb	r2, [r3]
  54:.\main.c      ****                 break;
 153              		.loc 1 54 0
 154 00a2 C046     		mov	r8, r8
 155              	.L3:
  55:.\main.c      ****             }            
  56:.\main.c      ****         }
  57:.\main.c      ****         MyDelay(TIMEOUT_DELAY);
 156              		.loc 1 57 0
 157 00a4 FA23     		mov	r3, #250
 158 00a6 5B00     		lsl	r3, r3, #1
 159 00a8 181C     		mov	r0, r3
 160 00aa FFF7FEFF 		bl	MyDelay
  58:.\main.c      ****     }
 161              		.loc 1 58 0
 162 00ae B1E7     		b	.L14
 163              	.L16:
 164              		.align	2
 165              	.L15:
 166 00b0 00000000 		.word	currentState
 167 00b4 04000000 		.word	result
 168              		.cfi_endproc
 169              	.LFE63:
ARM GAS  C:\Users\Petro\AppData\Local\Temp\cczi3JlV.s 			page 5


 170              		.size	main, .-main
 171              		.section	.rodata
 172              		.align	2
 173              	.LC2:
 174 0000 53797374 		.ascii	"System init...\000"
 174      656D2069 
 174      6E69742E 
 174      2E2E00
 175 000f 00       		.align	2
 176              	.LC4:
 177 0010 506C6561 		.ascii	"Please insert SD\000"
 177      73652069 
 177      6E736572 
 177      74205344 
 177      00
 178 0021 000000   		.align	2
 179              	.LC6:
 180 0024 4572726F 		.ascii	"Error sync time\000"
 180      72207379 
 180      6E632074 
 180      696D6500 
 181              		.section	.text.SystemInit,"ax",%progbits
 182              		.align	2
 183              		.global	SystemInit
 184              		.code	16
 185              		.thumb_func
 186              		.type	SystemInit, %function
 187              	SystemInit:
 188              	.LFB64:
  59:.\main.c      **** }
  60:.\main.c      **** 
  61:.\main.c      **** 
  62:.\main.c      **** uint32_t SystemInit(void)
  63:.\main.c      **** {
 189              		.loc 1 63 0
 190              		.cfi_startproc
 191 0000 90B5     		push	{r4, r7, lr}
 192              		.cfi_def_cfa_offset 12
 193              		.cfi_offset 4, -12
 194              		.cfi_offset 7, -8
 195              		.cfi_offset 14, -4
 196 0002 85B0     		sub	sp, sp, #20
 197              		.cfi_def_cfa_offset 32
 198 0004 00AF     		add	r7, sp, #0
 199              		.cfi_def_cfa_register 7
  64:.\main.c      ****     uint32_t result;
  65:.\main.c      ****     uint64_t unixTime;
  66:.\main.c      ****         
  67:.\main.c      ****     SetRebootFlag();
 200              		.loc 1 67 0
 201 0006 FFF7FEFF 		bl	SetRebootFlag
  68:.\main.c      ****     LedInit();   
 202              		.loc 1 68 0
 203 000a FFF7FEFF 		bl	LedInit
  69:.\main.c      ****     DisplayStart();   
 204              		.loc 1 69 0
 205 000e FFF7FEFF 		bl	DisplayStart
ARM GAS  C:\Users\Petro\AppData\Local\Temp\cczi3JlV.s 			page 6


  70:.\main.c      ****     RTC_WDT_Init(); 
 206              		.loc 1 70 0
 207 0012 FFF7FEFF 		bl	RTC_WDT_Init
  71:.\main.c      ****     InitNetwork();
 208              		.loc 1 71 0
 209 0016 FFF7FEFF 		bl	InitNetwork
  72:.\main.c      ****     GateInit();
 210              		.loc 1 72 0
 211 001a FFF7FEFF 		bl	GateInit
  73:.\main.c      ****     InitBuff();
 212              		.loc 1 73 0
 213 001e FFF7FEFF 		bl	InitBuff
  74:.\main.c      **** 
  75:.\main.c      ****     /* Enable global interrupts */
  76:.\main.c      ****     CyGlobalIntEnable;
 214              		.loc 1 76 0
 215              	@ 76 ".\main.c" 1
 216 0022 62B6     		CPSIE   i
 217              	@ 0 "" 2
  77:.\main.c      ****     
  78:.\main.c      ****     /*set unix time in RTC DS1307*/  
  79:.\main.c      ****     DS1307_SetUnixTime(1476096197);
 218              		.loc 1 79 0
 219              		.code	16
 220 0024 1D4B     		ldr	r3, .L24
 221 0026 0024     		mov	r4, #0
 222 0028 181C     		mov	r0, r3
 223 002a 211C     		mov	r1, r4
 224 002c FFF7FEFF 		bl	DS1307_SetUnixTime
  80:.\main.c      ****     
  81:.\main.c      ****     /*sync real time*/
  82:.\main.c      ****     unixTime = DS1307_GetUnixTime();
 225              		.loc 1 82 0
 226 0030 FFF7FEFF 		bl	DS1307_GetUnixTime
 227 0034 031C     		mov	r3, r0
 228 0036 0C1C     		mov	r4, r1
 229 0038 3B60     		str	r3, [r7]
 230 003a 7C60     		str	r4, [r7, #4]
  83:.\main.c      ****     
  84:.\main.c      ****     if(unixTime > 0)
 231              		.loc 1 84 0
 232 003c 3B68     		ldr	r3, [r7]
 233 003e 7A68     		ldr	r2, [r7, #4]
 234 0040 1343     		orr	r3, r2
 235 0042 1DD0     		beq	.L18
  85:.\main.c      ****     {      
  86:.\main.c      ****         RTC_SetUnixTime(unixTime);
 236              		.loc 1 86 0
 237 0044 3B68     		ldr	r3, [r7]
 238 0046 7C68     		ldr	r4, [r7, #4]
 239 0048 181C     		mov	r0, r3
 240 004a 211C     		mov	r1, r4
 241 004c FFF7FEFF 		bl	RTC_SetUnixTime
  87:.\main.c      ****         result = DataBaseStart();
 242              		.loc 1 87 0
 243 0050 FFF7FEFF 		bl	DataBaseStart
 244 0054 031C     		mov	r3, r0
ARM GAS  C:\Users\Petro\AppData\Local\Temp\cczi3JlV.s 			page 7


 245 0056 FB60     		str	r3, [r7, #12]
  88:.\main.c      ****         
  89:.\main.c      ****         if(result == DB_NO_ERROR)
 246              		.loc 1 89 0
 247 0058 FB68     		ldr	r3, [r7, #12]
 248 005a 012B     		cmp	r3, #1
 249 005c 06D1     		bne	.L20
  90:.\main.c      ****         {
  91:.\main.c      ****             Display("System init...");
 250              		.loc 1 91 0
 251 005e 104B     		ldr	r3, .L24+4
 252 0060 181C     		mov	r0, r3
 253 0062 FFF7FEFF 		bl	Display
  92:.\main.c      ****             result = NO_ERROR;
 254              		.loc 1 92 0
 255 0066 0123     		mov	r3, #1
 256 0068 FB60     		str	r3, [r7, #12]
 257 006a 12E0     		b	.L22
 258              	.L20:
  93:.\main.c      ****         }
  94:.\main.c      ****         else
  95:.\main.c      ****         {
  96:.\main.c      ****             Display("Please insert SD");
 259              		.loc 1 96 0
 260 006c 0D4B     		ldr	r3, .L24+8
 261 006e 181C     		mov	r0, r3
 262 0070 FFF7FEFF 		bl	Display
  97:.\main.c      ****             result = ERROR;
 263              		.loc 1 97 0
 264 0074 0023     		mov	r3, #0
 265 0076 FB60     		str	r3, [r7, #12]
  98:.\main.c      ****             SendFinStatus(FIN_NO_READY);
 266              		.loc 1 98 0
 267 0078 0020     		mov	r0, #0
 268 007a FFF7FEFF 		bl	SendFinStatus
 269 007e 08E0     		b	.L22
 270              	.L18:
  99:.\main.c      ****         }
 100:.\main.c      ****     }
 101:.\main.c      ****     else
 102:.\main.c      ****     {
 103:.\main.c      ****         Display("Error sync time");
 271              		.loc 1 103 0
 272 0080 094B     		ldr	r3, .L24+12
 273 0082 181C     		mov	r0, r3
 274 0084 FFF7FEFF 		bl	Display
 104:.\main.c      ****         result = ERROR;
 275              		.loc 1 104 0
 276 0088 0023     		mov	r3, #0
 277 008a FB60     		str	r3, [r7, #12]
 105:.\main.c      ****         SendFinStatus(FIN_NO_READY);
 278              		.loc 1 105 0
 279 008c 0020     		mov	r0, #0
 280 008e FFF7FEFF 		bl	SendFinStatus
 281              	.L22:
 106:.\main.c      ****     }
 107:.\main.c      ****     
ARM GAS  C:\Users\Petro\AppData\Local\Temp\cczi3JlV.s 			page 8


 108:.\main.c      ****     return result;    
 282              		.loc 1 108 0
 283 0092 FB68     		ldr	r3, [r7, #12]
 109:.\main.c      **** }
 284              		.loc 1 109 0
 285 0094 181C     		mov	r0, r3
 286 0096 BD46     		mov	sp, r7
 287 0098 05B0     		add	sp, sp, #20
 288              		@ sp needed
 289 009a 90BD     		pop	{r4, r7, pc}
 290              	.L25:
 291              		.align	2
 292              	.L24:
 293 009c C570FB57 		.word	1476096197
 294 00a0 00000000 		.word	.LC2
 295 00a4 10000000 		.word	.LC4
 296 00a8 24000000 		.word	.LC6
 297              		.cfi_endproc
 298              	.LFE64:
 299              		.size	SystemInit, .-SystemInit
 300              		.section	.rodata
 301              		.align	2
 302              	.LC8:
 303 0034 4E657477 		.ascii	"Network conn...\000"
 303      6F726B20 
 303      636F6E6E 
 303      2E2E2E00 
 304              		.align	2
 305              	.LC10:
 306 0044 53796E63 		.ascii	"Sync time...\000"
 306      2074696D 
 306      652E2E2E 
 306      00
 307 0051 000000   		.align	2
 308              	.LC12:
 309 0054 53796E63 		.ascii	"Sync ok\000"
 309      206F6B00 
 310              		.align	2
 311              	.LC14:
 312 005c 53796E63 		.ascii	"Sync time error\000"
 312      2074696D 
 312      65206572 
 312      726F7200 
 313              		.section	.text.TimeSynchronize,"ax",%progbits
 314              		.align	2
 315              		.global	TimeSynchronize
 316              		.code	16
 317              		.thumb_func
 318              		.type	TimeSynchronize, %function
 319              	TimeSynchronize:
 320              	.LFB65:
 110:.\main.c      **** 
 111:.\main.c      **** uint32_t TimeSynchronize(void)
 112:.\main.c      **** {
 321              		.loc 1 112 0
 322              		.cfi_startproc
 323 0000 80B5     		push	{r7, lr}
ARM GAS  C:\Users\Petro\AppData\Local\Temp\cczi3JlV.s 			page 9


 324              		.cfi_def_cfa_offset 8
 325              		.cfi_offset 7, -8
 326              		.cfi_offset 14, -4
 327 0002 82B0     		sub	sp, sp, #8
 328              		.cfi_def_cfa_offset 16
 329 0004 00AF     		add	r7, sp, #0
 330              		.cfi_def_cfa_register 7
 113:.\main.c      ****     uint32_t result;
 114:.\main.c      ****     
 115:.\main.c      ****     LedBlink(FREQ_INIT_BLINK);
 331              		.loc 1 115 0
 332 0006 0A20     		mov	r0, #10
 333 0008 FFF7FEFF 		bl	LedBlink
 116:.\main.c      ****     
 117:.\main.c      ****     /* network connect */
 118:.\main.c      ****     if(NetworkStatus() == NETWORK_DISCONNECT)
 334              		.loc 1 118 0
 335 000c FFF7FEFF 		bl	NetworkStatus
 336 0010 031E     		sub	r3, r0, #0
 337 0012 09D1     		bne	.L27
 119:.\main.c      ****     {
 120:.\main.c      ****         Display("Network conn...");
 338              		.loc 1 120 0
 339 0014 184B     		ldr	r3, .L31
 340 0016 181C     		mov	r0, r3
 341 0018 FFF7FEFF 		bl	Display
 121:.\main.c      ****         MyDelay(TIMEOUT_DELAY);
 342              		.loc 1 121 0
 343 001c FA23     		mov	r3, #250
 344 001e 5B00     		lsl	r3, r3, #1
 345 0020 181C     		mov	r0, r3
 346 0022 FFF7FEFF 		bl	MyDelay
 347 0026 22E0     		b	.L28
 348              	.L27:
 122:.\main.c      ****     }
 123:.\main.c      ****     else
 124:.\main.c      ****     {  
 125:.\main.c      ****         /* time sync */
 126:.\main.c      ****         Display("Sync time...");
 349              		.loc 1 126 0
 350 0028 144B     		ldr	r3, .L31+4
 351 002a 181C     		mov	r0, r3
 352 002c FFF7FEFF 		bl	Display
 127:.\main.c      ****         if(NTPsync() == TIME_SYNC_OK)
 353              		.loc 1 127 0
 354 0030 FFF7FEFF 		bl	NTPsync
 355 0034 031E     		sub	r3, r0, #0
 356 0036 0DD1     		bne	.L29
 128:.\main.c      ****         {
 129:.\main.c      ****             Display("Sync ok");
 357              		.loc 1 129 0
 358 0038 114B     		ldr	r3, .L31+8
 359 003a 181C     		mov	r0, r3
 360 003c FFF7FEFF 		bl	Display
 130:.\main.c      ****             ClearRebootFlag();
 361              		.loc 1 130 0
 362 0040 FFF7FEFF 		bl	ClearRebootFlag
ARM GAS  C:\Users\Petro\AppData\Local\Temp\cczi3JlV.s 			page 10


 131:.\main.c      ****             MyDelay(4 * TIMEOUT_USER_READ_INFO);
 363              		.loc 1 131 0
 364 0044 FA23     		mov	r3, #250
 365 0046 DB00     		lsl	r3, r3, #3
 366 0048 181C     		mov	r0, r3
 367 004a FFF7FEFF 		bl	MyDelay
 132:.\main.c      ****             
 133:.\main.c      ****             result = TIME_SYNC_OK;
 368              		.loc 1 133 0
 369 004e 0023     		mov	r3, #0
 370 0050 7B60     		str	r3, [r7, #4]
 371 0052 0CE0     		b	.L28
 372              	.L29:
 134:.\main.c      ****         }
 135:.\main.c      ****         else
 136:.\main.c      ****         {
 137:.\main.c      ****             Display("Sync time error");
 373              		.loc 1 137 0
 374 0054 0B4B     		ldr	r3, .L31+12
 375 0056 181C     		mov	r0, r3
 376 0058 FFF7FEFF 		bl	Display
 138:.\main.c      ****             SetRebootFlag();
 377              		.loc 1 138 0
 378 005c FFF7FEFF 		bl	SetRebootFlag
 139:.\main.c      ****             MyDelay(4 * TIMEOUT_USER_READ_INFO);
 379              		.loc 1 139 0
 380 0060 FA23     		mov	r3, #250
 381 0062 DB00     		lsl	r3, r3, #3
 382 0064 181C     		mov	r0, r3
 383 0066 FFF7FEFF 		bl	MyDelay
 140:.\main.c      ****             
 141:.\main.c      ****             result = TIME_SYNC_ERR;
 384              		.loc 1 141 0
 385 006a 0123     		mov	r3, #1
 386 006c 7B60     		str	r3, [r7, #4]
 387              	.L28:
 142:.\main.c      ****         }
 143:.\main.c      ****     }
 144:.\main.c      ****     
 145:.\main.c      ****     return result;
 388              		.loc 1 145 0
 389 006e 7B68     		ldr	r3, [r7, #4]
 146:.\main.c      **** }
 390              		.loc 1 146 0
 391 0070 181C     		mov	r0, r3
 392 0072 BD46     		mov	sp, r7
 393 0074 02B0     		add	sp, sp, #8
 394              		@ sp needed
 395 0076 80BD     		pop	{r7, pc}
 396              	.L32:
 397              		.align	2
 398              	.L31:
 399 0078 34000000 		.word	.LC8
 400 007c 44000000 		.word	.LC10
 401 0080 54000000 		.word	.LC12
 402 0084 5C000000 		.word	.LC14
 403              		.cfi_endproc
ARM GAS  C:\Users\Petro\AppData\Local\Temp\cczi3JlV.s 			page 11


 404              	.LFE65:
 405              		.size	TimeSynchronize, .-TimeSynchronize
 406              		.section	.rodata
 407              		.align	2
 408              	.LC16:
 409 006c 4572726F 		.ascii	"Error SD Card!\000"
 409      72205344 
 409      20436172 
 409      642100
 410 007b 00       		.align	2
 411              	.LC18:
 412 007c 4D617820 		.ascii	"Max skier on way\000"
 412      736B6965 
 412      72206F6E 
 412      20776179 
 412      00
 413 008d 000000   		.align	2
 414              	.LC20:
 415 0090 46696E69 		.ascii	"Finish Ready\000"
 415      73682052 
 415      65616479 
 415      00
 416              		.section	.text.CheckReady,"ax",%progbits
 417              		.align	2
 418              		.global	CheckReady
 419              		.code	16
 420              		.thumb_func
 421              		.type	CheckReady, %function
 422              	CheckReady:
 423              	.LFB66:
 147:.\main.c      **** 
 148:.\main.c      **** 
 149:.\main.c      **** uint32_t CheckReady(void)
 150:.\main.c      **** {
 424              		.loc 1 150 0
 425              		.cfi_startproc
 426 0000 80B5     		push	{r7, lr}
 427              		.cfi_def_cfa_offset 8
 428              		.cfi_offset 7, -8
 429              		.cfi_offset 14, -4
 430 0002 82B0     		sub	sp, sp, #8
 431              		.cfi_def_cfa_offset 16
 432 0004 00AF     		add	r7, sp, #0
 433              		.cfi_def_cfa_register 7
 151:.\main.c      ****     uint32_t result;   
 152:.\main.c      ****  
 153:.\main.c      ****     /*sise FIFO*/
 154:.\main.c      ****     if ((FifoGetSize() >= MAX_SKIERS_ON_BUF/*main_db_buffer) */)&& (FifoGetSize() <= MAX_FIFO_SIZE)
 434              		.loc 1 154 0
 435 0006 FFF7FEFF 		bl	FifoGetSize
 436 000a 031E     		sub	r3, r0, #0
 437 000c 072B     		cmp	r3, #7
 438 000e 15D9     		bls	.L34
 439              		.loc 1 154 0 is_stmt 0 discriminator 1
 440 0010 FFF7FEFF 		bl	FifoGetSize
 441 0014 031E     		sub	r3, r0, #0
 442 0016 0C2B     		cmp	r3, #12
ARM GAS  C:\Users\Petro\AppData\Local\Temp\cczi3JlV.s 			page 12


 443 0018 10D8     		bhi	.L34
 155:.\main.c      ****     {
 156:.\main.c      ****         /*skier finish successful*/
 157:.\main.c      ****         Display("Error SD Card!");
 444              		.loc 1 157 0 is_stmt 1
 445 001a 2D4B     		ldr	r3, .L43
 446 001c 181C     		mov	r0, r3
 447 001e FFF7FEFF 		bl	Display
 158:.\main.c      ****         SendFinStatus(FIN_NO_READY); 
 448              		.loc 1 158 0
 449 0022 0020     		mov	r0, #0
 450 0024 FFF7FEFF 		bl	SendFinStatus
 159:.\main.c      ****         
 160:.\main.c      ****         if (SkierOnWay() != 0)
 451              		.loc 1 160 0
 452 0028 FFF7FEFF 		bl	SkierOnWay
 453 002c 031E     		sub	r3, r0, #0
 454 002e 02D0     		beq	.L35
 161:.\main.c      ****         {
 162:.\main.c      ****             /*if skiers on way*/
 163:.\main.c      ****             result = NO_ERROR;
 455              		.loc 1 163 0
 456 0030 0123     		mov	r3, #1
 457 0032 7B60     		str	r3, [r7, #4]
 160:.\main.c      ****         {
 458              		.loc 1 160 0
 459 0034 3FE0     		b	.L37
 460              	.L35:
 164:.\main.c      ****         }
 165:.\main.c      ****         else
 166:.\main.c      ****         {
 167:.\main.c      ****             /*if not skiers on way*/
 168:.\main.c      ****             result = ERROR;
 461              		.loc 1 168 0
 462 0036 0023     		mov	r3, #0
 463 0038 7B60     		str	r3, [r7, #4]
 160:.\main.c      ****         {
 464              		.loc 1 160 0
 465 003a 3CE0     		b	.L37
 466              	.L34:
 169:.\main.c      ****         }        
 170:.\main.c      ****     }
 171:.\main.c      ****     else if(FifoGetSize() > MAX_FIFO_SIZE)
 467              		.loc 1 171 0
 468 003c FFF7FEFF 		bl	FifoGetSize
 469 0040 031E     		sub	r3, r0, #0
 470 0042 0C2B     		cmp	r3, #12
 471 0044 09D9     		bls	.L38
 172:.\main.c      ****     {
 173:.\main.c      ****         /*skier finish no successful*/
 174:.\main.c      ****         Display("Error SD Card!");
 472              		.loc 1 174 0
 473 0046 224B     		ldr	r3, .L43
 474 0048 181C     		mov	r0, r3
 475 004a FFF7FEFF 		bl	Display
 175:.\main.c      ****         SendFinStatus(FIN_NO_READY); 
 476              		.loc 1 175 0
ARM GAS  C:\Users\Petro\AppData\Local\Temp\cczi3JlV.s 			page 13


 477 004e 0020     		mov	r0, #0
 478 0050 FFF7FEFF 		bl	SendFinStatus
 176:.\main.c      ****         
 177:.\main.c      ****         result = ERROR;                
 479              		.loc 1 177 0
 480 0054 0023     		mov	r3, #0
 481 0056 7B60     		str	r3, [r7, #4]
 482 0058 2DE0     		b	.L37
 483              	.L38:
 178:.\main.c      ****     }
 179:.\main.c      ****     else if(SkierOnWay() >= MAX_SKIERS_ON_WAY/*MAX_COUNT, TRACK_OVERFLOW*/)
 484              		.loc 1 179 0
 485 005a FFF7FEFF 		bl	SkierOnWay
 486 005e 031E     		sub	r3, r0, #0
 487 0060 032B     		cmp	r3, #3
 488 0062 0ED9     		bls	.L39
 180:.\main.c      ****     {
 181:.\main.c      ****         /*max skier on way*/
 182:.\main.c      ****      
 183:.\main.c      ****         Display("Max skier on way");
 489              		.loc 1 183 0
 490 0064 1B4B     		ldr	r3, .L43+4
 491 0066 181C     		mov	r0, r3
 492 0068 FFF7FEFF 		bl	Display
 184:.\main.c      ****         SendFinStatus(FIN_NO_READY);
 493              		.loc 1 184 0
 494 006c 0020     		mov	r0, #0
 495 006e FFF7FEFF 		bl	SendFinStatus
 185:.\main.c      ****         MyDelay(TIMEOUT_USER_READ_INFO);
 496              		.loc 1 185 0
 497 0072 FA23     		mov	r3, #250
 498 0074 5B00     		lsl	r3, r3, #1
 499 0076 181C     		mov	r0, r3
 500 0078 FFF7FEFF 		bl	MyDelay
 186:.\main.c      ****         
 187:.\main.c      ****         result = NO_ERROR;      
 501              		.loc 1 187 0
 502 007c 0123     		mov	r3, #1
 503 007e 7B60     		str	r3, [r7, #4]
 504 0080 19E0     		b	.L37
 505              	.L39:
 188:.\main.c      ****     }
 189:.\main.c      ****     else if(SkierOnWay() == 0)
 506              		.loc 1 189 0
 507 0082 FFF7FEFF 		bl	SkierOnWay
 508 0086 031E     		sub	r3, r0, #0
 509 0088 0CD1     		bne	.L40
 190:.\main.c      ****     {
 191:.\main.c      ****         Display("Finish Ready");
 510              		.loc 1 191 0
 511 008a 134B     		ldr	r3, .L43+8
 512 008c 181C     		mov	r0, r3
 513 008e FFF7FEFF 		bl	Display
 192:.\main.c      ****         SendFinStatus(FIN_READY);
 514              		.loc 1 192 0
 515 0092 0120     		mov	r0, #1
 516 0094 FFF7FEFF 		bl	SendFinStatus
ARM GAS  C:\Users\Petro\AppData\Local\Temp\cczi3JlV.s 			page 14


 193:.\main.c      ****         SetLedState(LED_DISABLE);        
 517              		.loc 1 193 0
 518 0098 0020     		mov	r0, #0
 519 009a FFF7FEFF 		bl	SetLedState
 194:.\main.c      ****         
 195:.\main.c      ****         result = ERROR;      
 520              		.loc 1 195 0
 521 009e 0023     		mov	r3, #0
 522 00a0 7B60     		str	r3, [r7, #4]
 523 00a2 08E0     		b	.L37
 524              	.L40:
 196:.\main.c      ****     }
 197:.\main.c      ****     else
 198:.\main.c      ****     {
 199:.\main.c      ****         /*finish ready*/
 200:.\main.c      ****         SendFinStatus(FIN_READY);
 525              		.loc 1 200 0
 526 00a4 0120     		mov	r0, #1
 527 00a6 FFF7FEFF 		bl	SendFinStatus
 201:.\main.c      ****         Display("Finish Ready");
 528              		.loc 1 201 0
 529 00aa 0B4B     		ldr	r3, .L43+8
 530 00ac 181C     		mov	r0, r3
 531 00ae FFF7FEFF 		bl	Display
 202:.\main.c      ****         
 203:.\main.c      ****         result = NO_ERROR;
 532              		.loc 1 203 0
 533 00b2 0123     		mov	r3, #1
 534 00b4 7B60     		str	r3, [r7, #4]
 535              	.L37:
 204:.\main.c      ****     }
 205:.\main.c      ****     
 206:.\main.c      ****     //if(ReadRebootStartFlag() == REBOOT/*IS*/)
 207:.\main.c      ****     if(IsRebootStartFlag() == REBOOT)
 536              		.loc 1 207 0
 537 00b6 FFF7FEFF 		bl	IsRebootStartFlag
 538 00ba 031E     		sub	r3, r0, #0
 539 00bc FF2B     		cmp	r3, #255
 540 00be 01D1     		bne	.L41
 208:.\main.c      ****     {
 209:.\main.c      ****         result = REBOOT;
 541              		.loc 1 209 0
 542 00c0 FF23     		mov	r3, #255
 543 00c2 7B60     		str	r3, [r7, #4]
 544              	.L41:
 210:.\main.c      ****     }
 211:.\main.c      ****        
 212:.\main.c      ****     return result;
 545              		.loc 1 212 0
 546 00c4 7B68     		ldr	r3, [r7, #4]
 213:.\main.c      **** }
 547              		.loc 1 213 0
 548 00c6 181C     		mov	r0, r3
 549 00c8 BD46     		mov	sp, r7
 550 00ca 02B0     		add	sp, sp, #8
 551              		@ sp needed
 552 00cc 80BD     		pop	{r7, pc}
ARM GAS  C:\Users\Petro\AppData\Local\Temp\cczi3JlV.s 			page 15


 553              	.L44:
 554 00ce C046     		.align	2
 555              	.L43:
 556 00d0 6C000000 		.word	.LC16
 557 00d4 7C000000 		.word	.LC18
 558 00d8 90000000 		.word	.LC20
 559              		.cfi_endproc
 560              	.LFE66:
 561              		.size	CheckReady, .-CheckReady
 562              		.section	.rodata
 563 009d 000000   		.align	2
 564              	.LC22:
 565 00a0 536B6965 		.ascii	"Skier Finished\000"
 565      72204669 
 565      6E697368 
 565      656400
 566              		.section	.text.CheckGate,"ax",%progbits
 567              		.align	2
 568              		.global	CheckGate
 569              		.code	16
 570              		.thumb_func
 571              		.type	CheckGate, %function
 572              	CheckGate:
 573              	.LFB67:
 214:.\main.c      **** 
 215:.\main.c      **** uint32_t CheckGate(void)
 216:.\main.c      **** {
 574              		.loc 1 216 0
 575              		.cfi_startproc
 576 0000 80B5     		push	{r7, lr}
 577              		.cfi_def_cfa_offset 8
 578              		.cfi_offset 7, -8
 579              		.cfi_offset 14, -4
 580 0002 82B0     		sub	sp, sp, #8
 581              		.cfi_def_cfa_offset 16
 582 0004 00AF     		add	r7, sp, #0
 583              		.cfi_def_cfa_register 7
 217:.\main.c      ****     uint32_t result;
 218:.\main.c      ****     
 219:.\main.c      ****     SetLedState(LED_ENABLE);
 584              		.loc 1 219 0
 585 0006 0120     		mov	r0, #1
 586 0008 FFF7FEFF 		bl	SetLedState
 220:.\main.c      ****     result = GateIsOpen();/*IsGateOpen(), CheckGateStatus()*/
 587              		.loc 1 220 0
 588 000c FFF7FEFF 		bl	GateIsOpen
 589 0010 031C     		mov	r3, r0
 590 0012 7B60     		str	r3, [r7, #4]
 221:.\main.c      ****     
 222:.\main.c      ****     if(result == GATE_OPEN)
 591              		.loc 1 222 0
 592 0014 7B68     		ldr	r3, [r7, #4]
 593 0016 012B     		cmp	r3, #1
 594 0018 09D1     		bne	.L46
 223:.\main.c      ****     {
 224:.\main.c      ****         Display("Skier Finished");
 595              		.loc 1 224 0
ARM GAS  C:\Users\Petro\AppData\Local\Temp\cczi3JlV.s 			page 16


 596 001a 084B     		ldr	r3, .L49
 597 001c 181C     		mov	r0, r3
 598 001e FFF7FEFF 		bl	Display
 225:.\main.c      ****         MyDelay(TIMEOUT_USER_READ_INFO);
 599              		.loc 1 225 0
 600 0022 FA23     		mov	r3, #250
 601 0024 5B00     		lsl	r3, r3, #1
 602 0026 181C     		mov	r0, r3
 603 0028 FFF7FEFF 		bl	MyDelay
 604 002c 01E0     		b	.L47
 605              	.L46:
 226:.\main.c      ****     }
 227:.\main.c      ****     else
 228:.\main.c      ****     {
 229:.\main.c      ****         AllowNextSkier();
 606              		.loc 1 229 0
 607 002e FFF7FEFF 		bl	AllowNextSkier
 608              	.L47:
 230:.\main.c      ****     }
 231:.\main.c      ****     
 232:.\main.c      ****     return result;  
 609              		.loc 1 232 0
 610 0032 7B68     		ldr	r3, [r7, #4]
 233:.\main.c      **** }
 611              		.loc 1 233 0
 612 0034 181C     		mov	r0, r3
 613 0036 BD46     		mov	sp, r7
 614 0038 02B0     		add	sp, sp, #8
 615              		@ sp needed
 616 003a 80BD     		pop	{r7, pc}
 617              	.L50:
 618              		.align	2
 619              	.L49:
 620 003c A0000000 		.word	.LC22
 621              		.cfi_endproc
 622              	.LFE67:
 623              		.size	CheckGate, .-CheckGate
 624              		.section	.rodata
 625 00af 00       		.align	2
 626              	.LC24:
 627 00b0 53617665 		.ascii	"Save data\000"
 627      20646174 
 627      6100
 628 00ba 0000     		.section	.text.SaveResult,"ax",%progbits
 629              		.align	2
 630              		.global	SaveResult
 631              		.code	16
 632              		.thumb_func
 633              		.type	SaveResult, %function
 634              	SaveResult:
 635              	.LFB68:
 234:.\main.c      **** 
 235:.\main.c      **** void SaveResult(void)
 236:.\main.c      **** {
 636              		.loc 1 236 0
 637              		.cfi_startproc
 638 0000 90B5     		push	{r4, r7, lr}
ARM GAS  C:\Users\Petro\AppData\Local\Temp\cczi3JlV.s 			page 17


 639              		.cfi_def_cfa_offset 12
 640              		.cfi_offset 4, -12
 641              		.cfi_offset 7, -8
 642              		.cfi_offset 14, -4
 643 0002 85B0     		sub	sp, sp, #20
 644              		.cfi_def_cfa_offset 32
 645 0004 00AF     		add	r7, sp, #0
 646              		.cfi_def_cfa_register 7
 237:.\main.c      ****     uint64_t finUnixTime;
 238:.\main.c      ****     uint32_t finRecentMs;
 239:.\main.c      ****     
 240:.\main.c      ****     SendFinStatus(FIN_READY);
 647              		.loc 1 240 0
 648 0006 0120     		mov	r0, #1
 649 0008 FFF7FEFF 		bl	SendFinStatus
 241:.\main.c      ****     LedBlink(FREQ_INIT_BLINK);
 650              		.loc 1 241 0
 651 000c 0A20     		mov	r0, #10
 652 000e FFF7FEFF 		bl	LedBlink
 242:.\main.c      ****     Display("Save data");
 653              		.loc 1 242 0
 654 0012 164B     		ldr	r3, .L52
 655 0014 181C     		mov	r0, r3
 656 0016 FFF7FEFF 		bl	Display
 243:.\main.c      ****     MyDelay(TIMEOUT_USER_READ_INFO);
 657              		.loc 1 243 0
 658 001a FA23     		mov	r3, #250
 659 001c 5B00     		lsl	r3, r3, #1
 660 001e 181C     		mov	r0, r3
 661 0020 FFF7FEFF 		bl	MyDelay
 244:.\main.c      ****     
 245:.\main.c      ****     /*write time in fifo*/
 246:.\main.c      ****     GetFinTime(&finUnixTime, &finRecentMs);
 662              		.loc 1 246 0
 663 0024 0823     		mov	r3, #8
 664 0026 FA18     		add	r2, r7, r3
 665 0028 3B1D     		add	r3, r7, #4
 666 002a 101C     		mov	r0, r2
 667 002c 191C     		mov	r1, r3
 668 002e FFF7FEFF 		bl	GetFinTime
 247:.\main.c      ****     WriteFinishTime(finUnixTime,finRecentMs);
 669              		.loc 1 247 0
 670 0032 BB68     		ldr	r3, [r7, #8]
 671 0034 FC68     		ldr	r4, [r7, #12]
 672 0036 7A68     		ldr	r2, [r7, #4]
 673 0038 92B2     		uxth	r2, r2
 674 003a 181C     		mov	r0, r3
 675 003c 211C     		mov	r1, r4
 676 003e FFF7FEFF 		bl	WriteFinishTime
 248:.\main.c      ****     
 249:.\main.c      ****     FifoPushLastFinished();
 677              		.loc 1 249 0
 678 0042 FFF7FEFF 		bl	FifoPushLastFinished
 250:.\main.c      ****     
 251:.\main.c      ****     /*print time result last skier finished*/
 252:.\main.c      ****     DisplayLastSkierTime(LastSecTimeOnWay(),LastMillsTimeOnWay());/*LastTimeOnWaySecs(), LastTimeOn
 679              		.loc 1 252 0
ARM GAS  C:\Users\Petro\AppData\Local\Temp\cczi3JlV.s 			page 18


 680 0046 FFF7FEFF 		bl	LastSecTimeOnWay
 681 004a 041C     		mov	r4, r0
 682 004c FFF7FEFF 		bl	LastMillsTimeOnWay
 683 0050 031C     		mov	r3, r0
 684 0052 9BB2     		uxth	r3, r3
 685 0054 201C     		mov	r0, r4
 686 0056 191C     		mov	r1, r3
 687 0058 FFF7FEFF 		bl	DisplayLastSkierTime
 253:.\main.c      ****     MyDelay(2*TIMEOUT_USER_READ_INFO);
 688              		.loc 1 253 0
 689 005c FA23     		mov	r3, #250
 690 005e 9B00     		lsl	r3, r3, #2
 691 0060 181C     		mov	r0, r3
 692 0062 FFF7FEFF 		bl	MyDelay
 254:.\main.c      ****   
 255:.\main.c      **** }
 693              		.loc 1 255 0
 694 0066 BD46     		mov	sp, r7
 695 0068 05B0     		add	sp, sp, #20
 696              		@ sp needed
 697 006a 90BD     		pop	{r4, r7, pc}
 698              	.L53:
 699              		.align	2
 700              	.L52:
 701 006c B0000000 		.word	.LC24
 702              		.cfi_endproc
 703              	.LFE68:
 704              		.size	SaveResult, .-SaveResult
 705              		.text
 706              	.Letext0:
 707              		.file 2 "c:\\program files (x86)\\cypress\\psoc creator\\3.3\\psoc creator\\import\\gnu\\arm\\4.9.
 708              		.file 3 "c:\\program files (x86)\\cypress\\psoc creator\\3.3\\psoc creator\\import\\gnu\\arm\\4.9.
 709              		.file 4 ".\\appGlobal.h"
 710              		.file 5 "./debug.h"