ARM GAS  C:\Users\Petro\AppData\Local\Temp\cc6Lo8fB.s 			page 1


   1              		.cpu cortex-m0
   2              		.fpu softvfp
   3              		.eabi_attribute 20, 1
   4              		.eabi_attribute 21, 1
   5              		.eabi_attribute 23, 3
   6              		.eabi_attribute 24, 1
   7              		.eabi_attribute 25, 1
   8              		.eabi_attribute 26, 1
   9              		.eabi_attribute 30, 6
  10              		.eabi_attribute 34, 0
  11              		.eabi_attribute 18, 4
  12              		.code	16
  13              		.file	"BLE.c"
  14              		.text
  15              	.Ltext0:
  16              		.cfi_sections	.debug_frame
  17              		.global	cyBle_initVar
  18              		.bss
  19              		.type	cyBle_initVar, %object
  20              		.size	cyBle_initVar, 1
  21              	cyBle_initVar:
  22 0000 00       		.space	1
  23              		.comm	cyBle_stackMemoryRam,2768,8
  24              		.global	cyBle_discoveryParam
  25              		.data
  26              		.align	2
  27              		.type	cyBle_discoveryParam, %object
  28              		.size	cyBle_discoveryParam, 16
  29              	cyBle_discoveryParam:
  30 0000 2000     		.short	32
  31 0002 3000     		.short	48
  32 0004 00       		.byte	0
  33 0005 00       		.byte	0
  34 0006 00       		.byte	0
  35 0007 02       		.byte	2
  36 0008 00       		.byte	0
  37 0009 00       		.byte	0
  38 000a 50       		.byte	80
  39 000b A0       		.byte	-96
  40 000c 00       		.byte	0
  41 000d 07       		.byte	7
  42 000e 00       		.byte	0
  43 000f 00       		.space	1
  44              		.global	cyBle_discoveryData
  45              		.align	2
  46              		.type	cyBle_discoveryData, %object
  47              		.size	cyBle_discoveryData, 32
  48              	cyBle_discoveryData:
  49 0010 02       		.byte	2
  50 0011 01       		.byte	1
  51 0012 06       		.byte	6
  52 0013 0E       		.byte	14
  53 0014 09       		.byte	9
  54 0015 42       		.byte	66
  55 0016 61       		.byte	97
  56 0017 74       		.byte	116
  57 0018 74       		.byte	116
ARM GAS  C:\Users\Petro\AppData\Local\Temp\cc6Lo8fB.s 			page 2


  58 0019 65       		.byte	101
  59 001a 72       		.byte	114
  60 001b 79       		.byte	121
  61 001c 20       		.byte	32
  62 001d 4C       		.byte	76
  63 001e 65       		.byte	101
  64 001f 76       		.byte	118
  65 0020 65       		.byte	101
  66 0021 6C       		.byte	108
  67 0022 07       		.byte	7
  68 0023 03       		.byte	3
  69 0024 0A       		.byte	10
  70 0025 18       		.byte	24
  71 0026 0F       		.byte	15
  72 0027 18       		.byte	24
  73 0028 0F       		.byte	15
  74 0029 18       		.byte	24
  75 002a 00       		.byte	0
  76 002b 00       		.byte	0
  77 002c 00       		.byte	0
  78 002d 00       		.byte	0
  79 002e 00       		.byte	0
  80 002f 1A       		.byte	26
  81              		.global	cyBle_scanRspData
  82              		.align	2
  83              		.type	cyBle_scanRspData, %object
  84              		.size	cyBle_scanRspData, 32
  85              	cyBle_scanRspData:
  86 0030 0E       		.byte	14
  87 0031 09       		.byte	9
  88 0032 42       		.byte	66
  89 0033 61       		.byte	97
  90 0034 74       		.byte	116
  91 0035 74       		.byte	116
  92 0036 65       		.byte	101
  93 0037 72       		.byte	114
  94 0038 79       		.byte	121
  95 0039 20       		.byte	32
  96 003a 4C       		.byte	76
  97 003b 65       		.byte	101
  98 003c 76       		.byte	118
  99 003d 65       		.byte	101
 100 003e 6C       		.byte	108
 101 003f 00       		.byte	0
 102 0040 00       		.byte	0
 103 0041 00       		.byte	0
 104 0042 00       		.byte	0
 105 0043 00       		.byte	0
 106 0044 00       		.byte	0
 107 0045 00       		.byte	0
 108 0046 00       		.byte	0
 109 0047 00       		.byte	0
 110 0048 00       		.byte	0
 111 0049 00       		.byte	0
 112 004a 00       		.byte	0
 113 004b 00       		.byte	0
 114 004c 00       		.byte	0
ARM GAS  C:\Users\Petro\AppData\Local\Temp\cc6Lo8fB.s 			page 3


 115 004d 00       		.byte	0
 116 004e 00       		.byte	0
 117 004f 0F       		.byte	15
 118              		.global	cyBle_discoveryModeInfo
 119              		.align	2
 120              		.type	cyBle_discoveryModeInfo, %object
 121              		.size	cyBle_discoveryModeInfo, 20
 122              	cyBle_discoveryModeInfo:
 123 0050 02       		.byte	2
 124 0051 000000   		.space	3
 125 0054 00000000 		.word	cyBle_discoveryParam
 126 0058 00000000 		.word	cyBle_discoveryData
 127 005c 00000000 		.word	cyBle_scanRspData
 128 0060 1E00     		.short	30
 129 0062 0000     		.space	2
 130              		.comm	CyBle_ApplCallback,4,4
 131              		.global	cyBle_deviceAddress
 132              		.align	2
 133              		.type	cyBle_deviceAddress, %object
 134              		.size	cyBle_deviceAddress, 7
 135              	cyBle_deviceAddress:
 136 0064 02       		.byte	2
 137 0065 00       		.byte	0
 138 0066 00       		.byte	0
 139 0067 50       		.byte	80
 140 0068 A0       		.byte	-96
 141 0069 00       		.byte	0
 142 006a 00       		.byte	0
 143              		.global	cyBle_sflashDeviceAddress
 144 006b 00       		.align	2
 145              		.type	cyBle_sflashDeviceAddress, %object
 146              		.size	cyBle_sflashDeviceAddress, 4
 147              	cyBle_sflashDeviceAddress:
 148 006c 00F2FF0F 		.word	268431872
 149              		.global	cyBle_StackFlashptr
 150              		.section	.rodata
 151              		.align	7
 152              		.type	cyBle_StackFlashptr, %object
 153              		.size	cyBle_StackFlashptr, 365
 154              	cyBle_StackFlashptr:
 155 0000 00000000 		.space	365
 155      00000000 
 155      00000000 
 155      00000000 
 155      00000000 
 156              		.section	.text.CyBle_Init,"ax",%progbits
 157              		.align	2
 158              		.global	CyBle_Init
 159              		.code	16
 160              		.thumb_func
 161              		.type	CyBle_Init, %function
 162              	CyBle_Init:
 163              	.LFB2:
 164              		.file 1 ".\\Generated_Source\\PSoC4\\BLE.c"
   1:.\Generated_Source\PSoC4/BLE.c **** /***************************************************************************//**
   2:.\Generated_Source\PSoC4/BLE.c **** * \file CYBLE.c
   3:.\Generated_Source\PSoC4/BLE.c **** * \version 2.30
ARM GAS  C:\Users\Petro\AppData\Local\Temp\cc6Lo8fB.s 			page 4


   4:.\Generated_Source\PSoC4/BLE.c **** * 
   5:.\Generated_Source\PSoC4/BLE.c **** * \brief
   6:.\Generated_Source\PSoC4/BLE.c **** *  This file contains the source code for the Common APIs of the BLE Component.
   7:.\Generated_Source\PSoC4/BLE.c **** * 
   8:.\Generated_Source\PSoC4/BLE.c **** ********************************************************************************
   9:.\Generated_Source\PSoC4/BLE.c **** * \copyright
  10:.\Generated_Source\PSoC4/BLE.c **** * Copyright 2014-2015, Cypress Semiconductor Corporation.  All rights reserved.
  11:.\Generated_Source\PSoC4/BLE.c **** * You may use this file only in accordance with the license, terms, conditions,
  12:.\Generated_Source\PSoC4/BLE.c **** * disclaimers, and limitations in the end user license agreement accompanying
  13:.\Generated_Source\PSoC4/BLE.c **** * the software package with which this file was provided.
  14:.\Generated_Source\PSoC4/BLE.c **** *******************************************************************************/
  15:.\Generated_Source\PSoC4/BLE.c **** 
  16:.\Generated_Source\PSoC4/BLE.c **** #include "BLE_eventHandler.h"
  17:.\Generated_Source\PSoC4/BLE.c **** #include "BLE_HAL_PVT.h"
  18:.\Generated_Source\PSoC4/BLE.c **** #include <stdlib.h>
  19:.\Generated_Source\PSoC4/BLE.c **** 
  20:.\Generated_Source\PSoC4/BLE.c **** 
  21:.\Generated_Source\PSoC4/BLE.c **** /***************************************
  22:.\Generated_Source\PSoC4/BLE.c **** * Function Prototypes
  23:.\Generated_Source\PSoC4/BLE.c **** ***************************************/
  24:.\Generated_Source\PSoC4/BLE.c **** 
  25:.\Generated_Source\PSoC4/BLE.c **** #if(CYBLE_GATT_ROLE_SERVER)
  26:.\Generated_Source\PSoC4/BLE.c ****     #if(CYBLE_GAP_ROLE_PERIPHERAL)
  27:.\Generated_Source\PSoC4/BLE.c ****         static void CyBle_ChangeAdLocalName(const char8 name[], uint8 dest);
  28:.\Generated_Source\PSoC4/BLE.c ****     #endif /* (CYBLE_GAP_ROLE_PERIPHERAL) */
  29:.\Generated_Source\PSoC4/BLE.c **** #endif /* (CYBLE_GATT_ROLE_SERVER) */
  30:.\Generated_Source\PSoC4/BLE.c ****     
  31:.\Generated_Source\PSoC4/BLE.c **** 
  32:.\Generated_Source\PSoC4/BLE.c **** /***************************************
  33:.\Generated_Source\PSoC4/BLE.c **** * Global Variables
  34:.\Generated_Source\PSoC4/BLE.c **** ***************************************/
  35:.\Generated_Source\PSoC4/BLE.c **** 
  36:.\Generated_Source\PSoC4/BLE.c **** /* Indicates whether the BLE has been initialized. The variable is initialized to
  37:.\Generated_Source\PSoC4/BLE.c ****    0 and set to 1 the first time CyBle_Start() is called. This allows the component
  38:.\Generated_Source\PSoC4/BLE.c ****    to restart without reinitialization after the first call to the CyBle_Start() 
  39:.\Generated_Source\PSoC4/BLE.c ****    routine. If reinitialization of the component is required, the variable should 
  40:.\Generated_Source\PSoC4/BLE.c ****    be set to 0 before the CyBle_Start() routine is called. Alternatively, the BLE
  41:.\Generated_Source\PSoC4/BLE.c ****    can be reinitialized by calling the CyBle_Init() function.
  42:.\Generated_Source\PSoC4/BLE.c **** */
  43:.\Generated_Source\PSoC4/BLE.c **** uint8  cyBle_initVar = 0u;
  44:.\Generated_Source\PSoC4/BLE.c **** 
  45:.\Generated_Source\PSoC4/BLE.c **** /* Allocate RAM memory for stack. This buffer could be reused by application when 
  46:.\Generated_Source\PSoC4/BLE.c ****    BLE component is stopped. For export mode buffer is allocated in heap.
  47:.\Generated_Source\PSoC4/BLE.c **** */
  48:.\Generated_Source\PSoC4/BLE.c **** #if(CYBLE_SHARING_MODE_EXPORT)
  49:.\Generated_Source\PSoC4/BLE.c ****     
  50:.\Generated_Source\PSoC4/BLE.c **** uint8 *cyBle_stackMemoryRam = NULL;
  51:.\Generated_Source\PSoC4/BLE.c **** 
  52:.\Generated_Source\PSoC4/BLE.c **** #else
  53:.\Generated_Source\PSoC4/BLE.c **** 
  54:.\Generated_Source\PSoC4/BLE.c **** CYBLE_CYALIGNED_BEGIN uint8 cyBle_stackMemoryRam[CYBLE_STACK_RAM_SIZE] CYBLE_CYALIGNED_END;
  55:.\Generated_Source\PSoC4/BLE.c **** 
  56:.\Generated_Source\PSoC4/BLE.c **** #endif  /* CYBLE_SHARING_MODE_EXPORT */
  57:.\Generated_Source\PSoC4/BLE.c **** 
  58:.\Generated_Source\PSoC4/BLE.c **** #if(CYBLE_GAP_ROLE_PERIPHERAL || CYBLE_GAP_ROLE_BROADCASTER)
  59:.\Generated_Source\PSoC4/BLE.c **** 
  60:.\Generated_Source\PSoC4/BLE.c **** CYBLE_GAPP_DISC_PARAM_T cyBle_discoveryParam =
ARM GAS  C:\Users\Petro\AppData\Local\Temp\cc6Lo8fB.s 			page 5


  61:.\Generated_Source\PSoC4/BLE.c **** {
  62:.\Generated_Source\PSoC4/BLE.c ****     0x0020u,    /* uint16 advertising_interval_min */
  63:.\Generated_Source\PSoC4/BLE.c ****     0x0030u,    /* uint16 advertising_interval_max */
  64:.\Generated_Source\PSoC4/BLE.c ****     CYBLE_GAPP_CONNECTABLE_UNDIRECTED_ADV, /* uint8 advertising_type */
  65:.\Generated_Source\PSoC4/BLE.c ****     0x00u,      /* uint8 own_addr_type */
  66:.\Generated_Source\PSoC4/BLE.c ****     0x00u,      /* uint8 direct_addr_type */
  67:.\Generated_Source\PSoC4/BLE.c ****     {0x02u, 0x00u, 0x00u, 0x50u, 0xA0u, 0x00u}, /* uint8* direct_addr */
  68:.\Generated_Source\PSoC4/BLE.c ****     0x07u,      /* uint8 advertising_channel_map */
  69:.\Generated_Source\PSoC4/BLE.c ****     0x00u,      /* uint8 advertising_filter_policy */
  70:.\Generated_Source\PSoC4/BLE.c **** };
  71:.\Generated_Source\PSoC4/BLE.c **** 
  72:.\Generated_Source\PSoC4/BLE.c **** CYBLE_GAPP_DISC_DATA_T cyBle_discoveryData =
  73:.\Generated_Source\PSoC4/BLE.c **** {
  74:.\Generated_Source\PSoC4/BLE.c ****     { 0x02u, 0x01u, 0x06u, 0x0Eu, 0x09u, 0x42u, 0x61u,
  75:.\Generated_Source\PSoC4/BLE.c ****     0x74u, 0x74u, 0x65u, 0x72u, 0x79u, 0x20u, 0x4Cu, 0x65u,
  76:.\Generated_Source\PSoC4/BLE.c ****     0x76u, 0x65u, 0x6Cu, 0x07u, 0x03u, 0x0Au, 0x18u, 0x0Fu,
  77:.\Generated_Source\PSoC4/BLE.c ****     0x18u, 0x0Fu, 0x18u, 0x00u, 0x00u, 0x00u, 0x00u, 0x00u }, /* uint8 advertising_data[CYBLE_MAX_A
  78:.\Generated_Source\PSoC4/BLE.c ****     0x1Au,      /* uint8 adv_data_length */
  79:.\Generated_Source\PSoC4/BLE.c **** };
  80:.\Generated_Source\PSoC4/BLE.c **** 
  81:.\Generated_Source\PSoC4/BLE.c **** CYBLE_GAPP_SCAN_RSP_DATA_T cyBle_scanRspData =
  82:.\Generated_Source\PSoC4/BLE.c **** {
  83:.\Generated_Source\PSoC4/BLE.c ****     { 0x0Eu, 0x09u, 0x42u, 0x61u, 0x74u, 0x74u, 0x65u,
  84:.\Generated_Source\PSoC4/BLE.c ****     0x72u, 0x79u, 0x20u, 0x4Cu, 0x65u, 0x76u, 0x65u, 0x6Cu,
  85:.\Generated_Source\PSoC4/BLE.c ****     0x00u, 0x00u, 0x00u, 0x00u, 0x00u, 0x00u, 0x00u, 0x00u,
  86:.\Generated_Source\PSoC4/BLE.c ****     0x00u, 0x00u, 0x00u, 0x00u, 0x00u, 0x00u, 0x00u, 0x00u }, /* uint8 scan_rsp_data[CYBLE_MAX_SCAN
  87:.\Generated_Source\PSoC4/BLE.c ****     0x0Fu,      /* uint8 scan_rsp_data_length */
  88:.\Generated_Source\PSoC4/BLE.c **** };
  89:.\Generated_Source\PSoC4/BLE.c **** 
  90:.\Generated_Source\PSoC4/BLE.c **** /* This variable of type CYBLE_GAPP_DISC_MODE_INFO_T is present only when 
  91:.\Generated_Source\PSoC4/BLE.c ****    the BLE component is configured for Peripheral GAP role or Central and 
  92:.\Generated_Source\PSoC4/BLE.c ****    Peripheral GAP role. It contains the Advertisement settings and also the 
  93:.\Generated_Source\PSoC4/BLE.c ****    Advertisement and Scan response data parameters entered in the customizer.
  94:.\Generated_Source\PSoC4/BLE.c ****    This variable can be used by advanced users to change Advertisement settings,
  95:.\Generated_Source\PSoC4/BLE.c ****    Advertisement or Scan response data in runtime. 
  96:.\Generated_Source\PSoC4/BLE.c **** */
  97:.\Generated_Source\PSoC4/BLE.c **** CYBLE_GAPP_DISC_MODE_INFO_T cyBle_discoveryModeInfo =
  98:.\Generated_Source\PSoC4/BLE.c **** {
  99:.\Generated_Source\PSoC4/BLE.c ****     0x02u,      /* uint8 discMode */
 100:.\Generated_Source\PSoC4/BLE.c ****     &cyBle_discoveryParam,
 101:.\Generated_Source\PSoC4/BLE.c ****     &cyBle_discoveryData,
 102:.\Generated_Source\PSoC4/BLE.c ****     &cyBle_scanRspData,
 103:.\Generated_Source\PSoC4/BLE.c ****     0x001Eu,    /* uint16 advTo */
 104:.\Generated_Source\PSoC4/BLE.c **** };
 105:.\Generated_Source\PSoC4/BLE.c **** 
 106:.\Generated_Source\PSoC4/BLE.c **** 
 107:.\Generated_Source\PSoC4/BLE.c **** #endif /* CYBLE_GAP_ROLE_PERIPHERAL || CYBLE_GAP_ROLE_BROADCASTER */
 108:.\Generated_Source\PSoC4/BLE.c **** 
 109:.\Generated_Source\PSoC4/BLE.c **** #if(CYBLE_GAP_ROLE_CENTRAL)
 110:.\Generated_Source\PSoC4/BLE.c ****     
 111:.\Generated_Source\PSoC4/BLE.c **** CYBLE_GAPC_CONN_PARAM_T cyBle_connectionParameters;
 112:.\Generated_Source\PSoC4/BLE.c **** 
 113:.\Generated_Source\PSoC4/BLE.c **** /* Connecting timeout is set to 30 seconds in CyBle_Init function. 
 114:.\Generated_Source\PSoC4/BLE.c ****    Not zero value starts timer in CyBle_GapcConnectDevice API.
 115:.\Generated_Source\PSoC4/BLE.c **** */
 116:.\Generated_Source\PSoC4/BLE.c **** uint16 cyBle_connectingTimeout;
 117:.\Generated_Source\PSoC4/BLE.c ****     
ARM GAS  C:\Users\Petro\AppData\Local\Temp\cc6Lo8fB.s 			page 6


 118:.\Generated_Source\PSoC4/BLE.c **** #endif /* CYBLE_GAP_ROLE_CENTRAL */
 119:.\Generated_Source\PSoC4/BLE.c **** 
 120:.\Generated_Source\PSoC4/BLE.c **** #if(CYBLE_GAP_ROLE_CENTRAL || CYBLE_GAP_ROLE_OBSERVER)
 121:.\Generated_Source\PSoC4/BLE.c ****     
 122:.\Generated_Source\PSoC4/BLE.c **** 
 123:.\Generated_Source\PSoC4/BLE.c ****     
 124:.\Generated_Source\PSoC4/BLE.c **** #endif /* CYBLE_GAP_ROLE_CENTRAL || CYBLE_GAP_ROLE_OBSERVER */
 125:.\Generated_Source\PSoC4/BLE.c **** 
 126:.\Generated_Source\PSoC4/BLE.c **** #if((CYBLE_GAP_ROLE_PERIPHERAL || CYBLE_GAP_ROLE_CENTRAL) && (CYBLE_BONDING_REQUIREMENT == CYBLE_BO
 127:.\Generated_Source\PSoC4/BLE.c **** 
 128:.\Generated_Source\PSoC4/BLE.c **** uint8 cyBle_peerBonding;
 129:.\Generated_Source\PSoC4/BLE.c **** uint8 cyBle_pendingFlashWrite;
 130:.\Generated_Source\PSoC4/BLE.c ****     
 131:.\Generated_Source\PSoC4/BLE.c **** #endif  /* (CYBLE_BONDING_REQUIREMENT == CYBLE_BONDING_YES) */
 132:.\Generated_Source\PSoC4/BLE.c **** 
 133:.\Generated_Source\PSoC4/BLE.c **** CYBLE_CALLBACK_T CyBle_ApplCallback;
 134:.\Generated_Source\PSoC4/BLE.c **** CYBLE_GAP_BD_ADDR_T cyBle_deviceAddress = {{0x02u, 0x00u, 0x00u, 0x50u, 0xA0u, 0x00u}, 0x00u };
 135:.\Generated_Source\PSoC4/BLE.c **** CYBLE_GAP_BD_ADDR_T * cyBle_sflashDeviceAddress = CYBLE_SFLASH_DEVICE_ADDRESS_PTR;
 136:.\Generated_Source\PSoC4/BLE.c **** 
 137:.\Generated_Source\PSoC4/BLE.c **** #if(CYBLE_MODE_PROFILE)
 138:.\Generated_Source\PSoC4/BLE.c ****     #if defined(__ARMCC_VERSION)
 139:.\Generated_Source\PSoC4/BLE.c ****         CY_ALIGN(CYDEV_FLS_ROW_SIZE) const uint8 cyBle_StackFlashptr[CYBLE_STACK_FLASH_SIZE] = {0u}
 140:.\Generated_Source\PSoC4/BLE.c ****     #elif defined (__GNUC__)
 141:.\Generated_Source\PSoC4/BLE.c ****         const uint8 cyBle_StackFlashptr[CYBLE_STACK_FLASH_SIZE] CY_ALIGN(CYDEV_FLS_ROW_SIZE) = {0u}
 142:.\Generated_Source\PSoC4/BLE.c ****     #elif defined (__ICCARM__)
 143:.\Generated_Source\PSoC4/BLE.c ****         #pragma data_alignment=CY_FLASH_SIZEOF_ROW
 144:.\Generated_Source\PSoC4/BLE.c ****         const uint8 cyBle_StackFlashptr[CYBLE_STACK_FLASH_SIZE] = {0u};
 145:.\Generated_Source\PSoC4/BLE.c ****     #endif  /* (__ARMCC_VERSION) */
 146:.\Generated_Source\PSoC4/BLE.c **** #endif /* (CYBLE_MODE_PROFILE) */
 147:.\Generated_Source\PSoC4/BLE.c **** 
 148:.\Generated_Source\PSoC4/BLE.c **** 
 149:.\Generated_Source\PSoC4/BLE.c **** /******************************************************************************
 150:.\Generated_Source\PSoC4/BLE.c **** * Function Name: CyBle_Init
 151:.\Generated_Source\PSoC4/BLE.c **** ***************************************************************************//**
 152:.\Generated_Source\PSoC4/BLE.c **** *
 153:.\Generated_Source\PSoC4/BLE.c **** *   Initializes the component with the parameters set in the customizer.
 154:.\Generated_Source\PSoC4/BLE.c **** * 
 155:.\Generated_Source\PSoC4/BLE.c **** *  \return
 156:.\Generated_Source\PSoC4/BLE.c **** *   None
 157:.\Generated_Source\PSoC4/BLE.c **** * 
 158:.\Generated_Source\PSoC4/BLE.c **** ******************************************************************************/
 159:.\Generated_Source\PSoC4/BLE.c **** void CyBle_Init(void)
 160:.\Generated_Source\PSoC4/BLE.c **** {
 165              		.loc 1 160 0
 166              		.cfi_startproc
 167 0000 80B5     		push	{r7, lr}
 168              		.cfi_def_cfa_offset 8
 169              		.cfi_offset 7, -8
 170              		.cfi_offset 14, -4
 171 0002 00AF     		add	r7, sp, #0
 172              		.cfi_def_cfa_register 7
 161:.\Generated_Source\PSoC4/BLE.c ****     cyBle_eventHandlerFlag = 0u;
 173              		.loc 1 161 0
 174 0004 064B     		ldr	r3, .L2
 175 0006 0022     		mov	r2, #0
 176 0008 1A70     		strb	r2, [r3]
 162:.\Generated_Source\PSoC4/BLE.c ****     cyBle_busyStatus = CYBLE_STACK_STATE_FREE;
ARM GAS  C:\Users\Petro\AppData\Local\Temp\cc6Lo8fB.s 			page 7


 177              		.loc 1 162 0
 178 000a 064B     		ldr	r3, .L2+4
 179 000c 0022     		mov	r2, #0
 180 000e 1A70     		strb	r2, [r3]
 163:.\Generated_Source\PSoC4/BLE.c **** 
 164:.\Generated_Source\PSoC4/BLE.c ****     #if(CYBLE_GAP_ROLE_PERIPHERAL || CYBLE_GAP_ROLE_BROADCASTER) 
 165:.\Generated_Source\PSoC4/BLE.c ****         cyBle_advertisingIntervalType = CYBLE_ADVERTISING_FAST; 
 181              		.loc 1 165 0
 182 0010 054B     		ldr	r3, .L2+8
 183 0012 0022     		mov	r2, #0
 184 0014 1A70     		strb	r2, [r3]
 166:.\Generated_Source\PSoC4/BLE.c ****     #endif /* (CYBLE_GAP_ROLE_PERIPHERAL || CYBLE_GAP_ROLE_BROADCASTER)  */
 167:.\Generated_Source\PSoC4/BLE.c ****     #if(CYBLE_GAP_ROLE_CENTRAL || CYBLE_GAP_ROLE_OBSERVER)
 168:.\Generated_Source\PSoC4/BLE.c ****         cyBle_scanningIntervalType = CYBLE_SCANNING_FAST; 
 169:.\Generated_Source\PSoC4/BLE.c ****     #endif /* (CYBLE_GAP_ROLE_CENTRAL || CYBLE_GAP_ROLE_OBSERVER) */
 170:.\Generated_Source\PSoC4/BLE.c ****         
 171:.\Generated_Source\PSoC4/BLE.c ****     /* Init default connection parameters. 
 172:.\Generated_Source\PSoC4/BLE.c ****        Application may change it before initiating a connection */
 173:.\Generated_Source\PSoC4/BLE.c ****     #if(CYBLE_GAP_ROLE_CENTRAL)
 174:.\Generated_Source\PSoC4/BLE.c ****         cyBle_connectionParameters.scanIntv = cyBle_discoveryInfo.scanIntv;
 175:.\Generated_Source\PSoC4/BLE.c ****         cyBle_connectionParameters.scanWindow = cyBle_discoveryInfo.scanWindow;
 176:.\Generated_Source\PSoC4/BLE.c ****         cyBle_connectionParameters.ownAddrType = cyBle_discoveryInfo.ownAddrType;
 177:.\Generated_Source\PSoC4/BLE.c ****         cyBle_connectionParameters.initiatorFilterPolicy = cyBle_discoveryInfo.scanFilterPolicy;
 178:.\Generated_Source\PSoC4/BLE.c ****         cyBle_connectionParameters.connIntvMin = CYBLE_GAPC_CONNECTION_INTERVAL_MIN;
 179:.\Generated_Source\PSoC4/BLE.c ****         cyBle_connectionParameters.connIntvMax = CYBLE_GAPC_CONNECTION_INTERVAL_MAX;
 180:.\Generated_Source\PSoC4/BLE.c ****         cyBle_connectionParameters.connLatency = CYBLE_GAPC_CONNECTION_SLAVE_LATENCY;
 181:.\Generated_Source\PSoC4/BLE.c ****         cyBle_connectionParameters.supervisionTO = CYBLE_GAPC_CONNECTION_TIME_OUT;
 182:.\Generated_Source\PSoC4/BLE.c ****         cyBle_connectionParameters.minCeLength = 0x0000u;
 183:.\Generated_Source\PSoC4/BLE.c ****         cyBle_connectionParameters.maxCeLength = 0xFFFFu;
 184:.\Generated_Source\PSoC4/BLE.c ****         
 185:.\Generated_Source\PSoC4/BLE.c ****         cyBle_connectingTimeout = CYBLE_GAPC_CONNECTING_TIMEOUT;
 186:.\Generated_Source\PSoC4/BLE.c ****     #endif /* CYBLE_GAP_ROLE_CENTRAL */
 187:.\Generated_Source\PSoC4/BLE.c **** 
 188:.\Generated_Source\PSoC4/BLE.c ****     CyBle_ServiceInit();
 185              		.loc 1 188 0
 186 0016 FFF7FEFF 		bl	CyBle_ServiceInit
 189:.\Generated_Source\PSoC4/BLE.c **** 
 190:.\Generated_Source\PSoC4/BLE.c ****     #if((CYBLE_GAP_ROLE_PERIPHERAL || CYBLE_GAP_ROLE_CENTRAL) && (CYBLE_BONDING_REQUIREMENT == CYBL
 191:.\Generated_Source\PSoC4/BLE.c ****         cyBle_pendingFlashWrite = 0u;
 192:.\Generated_Source\PSoC4/BLE.c ****         cyBle_peerBonding = CYBLE_GAP_BONDING_NONE;
 193:.\Generated_Source\PSoC4/BLE.c ****     #endif  /* (CYBLE_BONDING_REQUIREMENT == CYBLE_BONDING_YES) */
 194:.\Generated_Source\PSoC4/BLE.c **** 
 195:.\Generated_Source\PSoC4/BLE.c **** }
 187              		.loc 1 195 0
 188 001a BD46     		mov	sp, r7
 189              		@ sp needed
 190 001c 80BD     		pop	{r7, pc}
 191              	.L3:
 192 001e C046     		.align	2
 193              	.L2:
 194 0020 00000000 		.word	cyBle_eventHandlerFlag
 195 0024 00000000 		.word	cyBle_busyStatus
 196 0028 00000000 		.word	cyBle_advertisingIntervalType
 197              		.cfi_endproc
 198              	.LFE2:
 199              		.size	CyBle_Init, .-CyBle_Init
 200              		.section	.text.CyBle_ServiceInit,"ax",%progbits
ARM GAS  C:\Users\Petro\AppData\Local\Temp\cc6Lo8fB.s 			page 8


 201              		.align	2
 202              		.global	CyBle_ServiceInit
 203              		.code	16
 204              		.thumb_func
 205              		.type	CyBle_ServiceInit, %function
 206              	CyBle_ServiceInit:
 207              	.LFB3:
 196:.\Generated_Source\PSoC4/BLE.c **** 
 197:.\Generated_Source\PSoC4/BLE.c **** 
 198:.\Generated_Source\PSoC4/BLE.c **** /******************************************************************************
 199:.\Generated_Source\PSoC4/BLE.c **** * Function Name: CyBle_ServiceInit
 200:.\Generated_Source\PSoC4/BLE.c **** ***************************************************************************//**
 201:.\Generated_Source\PSoC4/BLE.c **** * 
 202:.\Generated_Source\PSoC4/BLE.c **** *  Initializes all included services.
 203:.\Generated_Source\PSoC4/BLE.c **** * 
 204:.\Generated_Source\PSoC4/BLE.c **** * \return
 205:.\Generated_Source\PSoC4/BLE.c **** *  None
 206:.\Generated_Source\PSoC4/BLE.c **** * 
 207:.\Generated_Source\PSoC4/BLE.c **** ******************************************************************************/
 208:.\Generated_Source\PSoC4/BLE.c **** void CyBle_ServiceInit(void)
 209:.\Generated_Source\PSoC4/BLE.c **** {
 208              		.loc 1 209 0
 209              		.cfi_startproc
 210 0000 80B5     		push	{r7, lr}
 211              		.cfi_def_cfa_offset 8
 212              		.cfi_offset 7, -8
 213              		.cfi_offset 14, -4
 214 0002 00AF     		add	r7, sp, #0
 215              		.cfi_def_cfa_register 7
 210:.\Generated_Source\PSoC4/BLE.c ****     #if(CYBLE_GATT_ROLE_CLIENT)
 211:.\Generated_Source\PSoC4/BLE.c ****         (void)memset(&cyBle_gapc, 0, sizeof(cyBle_gapc));
 212:.\Generated_Source\PSoC4/BLE.c ****         (void)memset(&cyBle_gattc, 0, sizeof(cyBle_gattc));
 213:.\Generated_Source\PSoC4/BLE.c ****     #endif /* CYBLE_GATT_ROLE_CLIENT */
 214:.\Generated_Source\PSoC4/BLE.c ****     
 215:.\Generated_Source\PSoC4/BLE.c **** 	#ifdef CYBLE_ANCS
 216:.\Generated_Source\PSoC4/BLE.c ****         CyBle_AncsInit();
 217:.\Generated_Source\PSoC4/BLE.c ****     #endif /* CYBLE_ANCS */
 218:.\Generated_Source\PSoC4/BLE.c **** 	
 219:.\Generated_Source\PSoC4/BLE.c ****     #ifdef CYBLE_ANS
 220:.\Generated_Source\PSoC4/BLE.c ****         CyBle_AnsInit();
 221:.\Generated_Source\PSoC4/BLE.c ****     #endif /* CYBLE_ANS */
 222:.\Generated_Source\PSoC4/BLE.c ****     
 223:.\Generated_Source\PSoC4/BLE.c ****     #ifdef CYBLE_BAS
 224:.\Generated_Source\PSoC4/BLE.c ****         CyBle_BasInit();
 216              		.loc 1 224 0
 217 0004 FFF7FEFF 		bl	CyBle_BasInit
 225:.\Generated_Source\PSoC4/BLE.c ****     #endif /* CYBLE_BAS */
 226:.\Generated_Source\PSoC4/BLE.c ****     
 227:.\Generated_Source\PSoC4/BLE.c ****     #ifdef CYBLE_BLS
 228:.\Generated_Source\PSoC4/BLE.c ****         CyBle_BlsInit();
 229:.\Generated_Source\PSoC4/BLE.c ****     #endif /* CYBLE_BLS */
 230:.\Generated_Source\PSoC4/BLE.c ****     
 231:.\Generated_Source\PSoC4/BLE.c ****     #ifdef CYBLE_BMS
 232:.\Generated_Source\PSoC4/BLE.c ****         CyBle_BmsInit();
 233:.\Generated_Source\PSoC4/BLE.c ****     #endif /* CYBLE_BMS */
 234:.\Generated_Source\PSoC4/BLE.c ****     
 235:.\Generated_Source\PSoC4/BLE.c ****     #ifdef CYBLE_CGMS
ARM GAS  C:\Users\Petro\AppData\Local\Temp\cc6Lo8fB.s 			page 9


 236:.\Generated_Source\PSoC4/BLE.c ****         CyBle_CgmsInit();
 237:.\Generated_Source\PSoC4/BLE.c ****     #endif /* CYBLE_CGMS */
 238:.\Generated_Source\PSoC4/BLE.c **** 
 239:.\Generated_Source\PSoC4/BLE.c ****     #ifdef CYBLE_CPS
 240:.\Generated_Source\PSoC4/BLE.c ****         CyBle_CpsInit();
 241:.\Generated_Source\PSoC4/BLE.c ****     #endif /* CYBLE_CPS */
 242:.\Generated_Source\PSoC4/BLE.c **** 
 243:.\Generated_Source\PSoC4/BLE.c ****     #ifdef CYBLE_CSCS
 244:.\Generated_Source\PSoC4/BLE.c ****         CyBle_CscsInit();
 245:.\Generated_Source\PSoC4/BLE.c ****     #endif /* CYBLE_CSCS */
 246:.\Generated_Source\PSoC4/BLE.c ****     
 247:.\Generated_Source\PSoC4/BLE.c ****     #ifdef CYBLE_CTS
 248:.\Generated_Source\PSoC4/BLE.c ****         CyBle_CtsInit();
 249:.\Generated_Source\PSoC4/BLE.c ****     #endif /* CYBLE_CTS */
 250:.\Generated_Source\PSoC4/BLE.c **** 
 251:.\Generated_Source\PSoC4/BLE.c ****     #ifdef CYBLE_DIS
 252:.\Generated_Source\PSoC4/BLE.c ****         CyBle_DisInit();
 218              		.loc 1 252 0
 219 0008 FFF7FEFF 		bl	CyBle_DisInit
 253:.\Generated_Source\PSoC4/BLE.c ****     #endif /* CYBLE_DIS */
 254:.\Generated_Source\PSoC4/BLE.c **** 
 255:.\Generated_Source\PSoC4/BLE.c ****     #ifdef CYBLE_ESS
 256:.\Generated_Source\PSoC4/BLE.c ****         CyBle_EssInit();
 257:.\Generated_Source\PSoC4/BLE.c ****     #endif /* CYBLE_ESS */
 258:.\Generated_Source\PSoC4/BLE.c ****     
 259:.\Generated_Source\PSoC4/BLE.c ****     #ifdef CYBLE_GLS
 260:.\Generated_Source\PSoC4/BLE.c ****         CyBle_GlsInit();
 261:.\Generated_Source\PSoC4/BLE.c ****     #endif /* CYBLE_GLS */
 262:.\Generated_Source\PSoC4/BLE.c ****     
 263:.\Generated_Source\PSoC4/BLE.c ****     #ifdef CYBLE_CUSTOM
 264:.\Generated_Source\PSoC4/BLE.c ****         CyBle_CustomInit();
 265:.\Generated_Source\PSoC4/BLE.c ****     #endif /* CYBLE_CUSTOM */
 266:.\Generated_Source\PSoC4/BLE.c **** 
 267:.\Generated_Source\PSoC4/BLE.c ****     #ifdef CYBLE_HIDS
 268:.\Generated_Source\PSoC4/BLE.c ****         CyBle_HidsInit();
 269:.\Generated_Source\PSoC4/BLE.c ****     #endif /* CYBLE_HIDS */
 270:.\Generated_Source\PSoC4/BLE.c **** 
 271:.\Generated_Source\PSoC4/BLE.c ****     #ifdef CYBLE_HRS
 272:.\Generated_Source\PSoC4/BLE.c ****         CyBle_HrsInit();
 273:.\Generated_Source\PSoC4/BLE.c ****     #endif /* CYBLE_HRS */
 274:.\Generated_Source\PSoC4/BLE.c ****     
 275:.\Generated_Source\PSoC4/BLE.c ****     #ifdef CYBLE_HTS
 276:.\Generated_Source\PSoC4/BLE.c ****         CyBle_HtsInit();
 277:.\Generated_Source\PSoC4/BLE.c ****     #endif /* CYBLE_RSCS */
 278:.\Generated_Source\PSoC4/BLE.c **** 
 279:.\Generated_Source\PSoC4/BLE.c ****     #ifdef CYBLE_IAS
 280:.\Generated_Source\PSoC4/BLE.c ****         CyBle_IasInit();
 281:.\Generated_Source\PSoC4/BLE.c ****     #endif /* CYBLE_IAS */
 282:.\Generated_Source\PSoC4/BLE.c **** 
 283:.\Generated_Source\PSoC4/BLE.c ****     #ifdef CYBLE_LLS
 284:.\Generated_Source\PSoC4/BLE.c ****         CyBle_LlsInit();
 285:.\Generated_Source\PSoC4/BLE.c ****     #endif /* CYBLE_LLS */
 286:.\Generated_Source\PSoC4/BLE.c **** 
 287:.\Generated_Source\PSoC4/BLE.c ****     #ifdef CYBLE_RTUS
 288:.\Generated_Source\PSoC4/BLE.c ****         CyBle_RtusInit();
 289:.\Generated_Source\PSoC4/BLE.c ****     #endif /* CYBLE_RTUS */
 290:.\Generated_Source\PSoC4/BLE.c **** 
ARM GAS  C:\Users\Petro\AppData\Local\Temp\cc6Lo8fB.s 			page 10


 291:.\Generated_Source\PSoC4/BLE.c ****     #ifdef CYBLE_LNS
 292:.\Generated_Source\PSoC4/BLE.c ****         CyBle_LnsInit();
 293:.\Generated_Source\PSoC4/BLE.c ****     #endif /* CYBLE_LNS */
 294:.\Generated_Source\PSoC4/BLE.c ****     
 295:.\Generated_Source\PSoC4/BLE.c ****     #ifdef CYBLE_PASS
 296:.\Generated_Source\PSoC4/BLE.c ****         CyBle_PassInit();
 297:.\Generated_Source\PSoC4/BLE.c ****     #endif /* CYBLE_PASS */
 298:.\Generated_Source\PSoC4/BLE.c ****     
 299:.\Generated_Source\PSoC4/BLE.c ****     #ifdef CYBLE_RSCS
 300:.\Generated_Source\PSoC4/BLE.c ****         CyBle_RscsInit();
 301:.\Generated_Source\PSoC4/BLE.c ****     #endif /* CYBLE_RSCS */
 302:.\Generated_Source\PSoC4/BLE.c **** 
 303:.\Generated_Source\PSoC4/BLE.c ****     #ifdef CYBLE_SCPS
 304:.\Generated_Source\PSoC4/BLE.c ****         CyBle_ScpsInit();
 305:.\Generated_Source\PSoC4/BLE.c ****     #endif /* CYBLE_SCPS */
 306:.\Generated_Source\PSoC4/BLE.c ****     
 307:.\Generated_Source\PSoC4/BLE.c ****     #ifdef CYBLE_TPS
 308:.\Generated_Source\PSoC4/BLE.c ****         CyBle_TpsInit();
 309:.\Generated_Source\PSoC4/BLE.c ****     #endif /* CYBLE_TPS */
 310:.\Generated_Source\PSoC4/BLE.c ****     
 311:.\Generated_Source\PSoC4/BLE.c ****     #ifdef CYBLE_UDS
 312:.\Generated_Source\PSoC4/BLE.c ****         CyBle_UdsInit();
 313:.\Generated_Source\PSoC4/BLE.c ****     #endif /* CYBLE_UDS */
 314:.\Generated_Source\PSoC4/BLE.c **** 
 315:.\Generated_Source\PSoC4/BLE.c ****     #ifdef CYBLE_WPTS
 316:.\Generated_Source\PSoC4/BLE.c ****         CyBle_WptsInit();
 317:.\Generated_Source\PSoC4/BLE.c ****     #endif /* CYBLE_WPTS */
 318:.\Generated_Source\PSoC4/BLE.c **** 
 319:.\Generated_Source\PSoC4/BLE.c ****     #ifdef CYBLE_WSS
 320:.\Generated_Source\PSoC4/BLE.c ****         CyBle_WssInit();
 321:.\Generated_Source\PSoC4/BLE.c ****     #endif /* CYBLE_WSS */
 322:.\Generated_Source\PSoC4/BLE.c **** }
 220              		.loc 1 322 0
 221 000c BD46     		mov	sp, r7
 222              		@ sp needed
 223 000e 80BD     		pop	{r7, pc}
 224              		.cfi_endproc
 225              	.LFE3:
 226              		.size	CyBle_ServiceInit, .-CyBle_ServiceInit
 227              		.section	.rodata
 228 016d 000000   		.align	2
 229              	.LC0:
 230 0170 2400     		.short	36
 231 0172 03       		.byte	3
 232 0173 00       		.space	1
 233 0174 2400     		.short	36
 234 0176 01       		.byte	1
 235 0177 00       		.space	1
 236 0178 3000     		.short	48
 237 017a 01       		.byte	1
 238 017b 00       		.space	1
 239 017c 4800     		.short	72
 240 017e 01       		.byte	1
 241 017f 00       		.space	1
 242 0180 2400     		.short	36
 243 0182 01       		.byte	1
 244 0183 00       		.space	1
ARM GAS  C:\Users\Petro\AppData\Local\Temp\cc6Lo8fB.s 			page 11


 245 0184 2400     		.short	36
 246 0186 01       		.byte	1
 247 0187 00       		.space	1
 248 0188 00000000 		.section	.text.CyBle_Start,"ax",%progbits
 248      00000000 
 248      00000000 
 248      00000000 
 248      00000000 
 249              		.align	2
 250              		.global	CyBle_Start
 251              		.code	16
 252              		.thumb_func
 253              		.type	CyBle_Start, %function
 254              	CyBle_Start:
 255              	.LFB4:
 323:.\Generated_Source\PSoC4/BLE.c **** 
 324:.\Generated_Source\PSoC4/BLE.c **** 
 325:.\Generated_Source\PSoC4/BLE.c **** /******************************************************************************
 326:.\Generated_Source\PSoC4/BLE.c **** * Function Name: CyBle_Start
 327:.\Generated_Source\PSoC4/BLE.c **** ***************************************************************************//**
 328:.\Generated_Source\PSoC4/BLE.c **** * 
 329:.\Generated_Source\PSoC4/BLE.c **** *  This function initializes the BLE Stack, which consists of the BLE Stack 
 330:.\Generated_Source\PSoC4/BLE.c **** *  Manager, BLE Controller, and BLE Host modules. It takes care of initializing
 331:.\Generated_Source\PSoC4/BLE.c **** *  the Profile layer, schedulers, Timer and other platform related
 332:.\Generated_Source\PSoC4/BLE.c **** *  resources required for the BLE component. It also registers the callback 
 333:.\Generated_Source\PSoC4/BLE.c **** *  function for BLE events that will be registered in the BLE stack.
 334:.\Generated_Source\PSoC4/BLE.c **** * 
 335:.\Generated_Source\PSoC4/BLE.c **** *  Note that this function does not reset the BLE Stack.
 336:.\Generated_Source\PSoC4/BLE.c **** * 
 337:.\Generated_Source\PSoC4/BLE.c **** *  For HCI-Mode of operation, this function will not initialize the BLE Host 
 338:.\Generated_Source\PSoC4/BLE.c **** *  module.
 339:.\Generated_Source\PSoC4/BLE.c **** * 
 340:.\Generated_Source\PSoC4/BLE.c **** *  Calling this function results in the generation of CYBLE_EVT_STACK_ON event
 341:.\Generated_Source\PSoC4/BLE.c **** *  on successful initialization of the BLE Stack.
 342:.\Generated_Source\PSoC4/BLE.c **** * 
 343:.\Generated_Source\PSoC4/BLE.c **** *  \param callbackFunc: Event callback function to receive events from BLE stack.
 344:.\Generated_Source\PSoC4/BLE.c **** *   CYBLE_CALLBACK_T is a function pointer type.
 345:.\Generated_Source\PSoC4/BLE.c **** * 
 346:.\Generated_Source\PSoC4/BLE.c **** * \return
 347:.\Generated_Source\PSoC4/BLE.c **** *  CYBLE_API_RESULT_T : Return value indicates if the function succeeded or 
 348:.\Generated_Source\PSoC4/BLE.c **** *  failed. Following are the possible error codes.
 349:.\Generated_Source\PSoC4/BLE.c **** * 
 350:.\Generated_Source\PSoC4/BLE.c **** *   <table>
 351:.\Generated_Source\PSoC4/BLE.c **** *  	  <tr>
 352:.\Generated_Source\PSoC4/BLE.c **** *       <th>Error codes</th>
 353:.\Generated_Source\PSoC4/BLE.c **** *       <th>Description</th>
 354:.\Generated_Source\PSoC4/BLE.c **** *     </tr>
 355:.\Generated_Source\PSoC4/BLE.c **** *     <tr>
 356:.\Generated_Source\PSoC4/BLE.c **** *       <td>CYBLE_ERROR_OK</td>
 357:.\Generated_Source\PSoC4/BLE.c **** *       <td>On successful operation.</td>
 358:.\Generated_Source\PSoC4/BLE.c **** *     </tr>
 359:.\Generated_Source\PSoC4/BLE.c **** *     <tr>
 360:.\Generated_Source\PSoC4/BLE.c **** *       <td>CYBLE_ERROR_INVALID_PARAMETER</td>
 361:.\Generated_Source\PSoC4/BLE.c **** *       <td>On passing a NULL pointer to the function when the BLE stack is not built in HCI mode. 
 362:.\Generated_Source\PSoC4/BLE.c **** *			CYBLE_ERROR_INVALID_PARAMETER is never returned in HCI mode.</td>
 363:.\Generated_Source\PSoC4/BLE.c **** *     </tr>
 364:.\Generated_Source\PSoC4/BLE.c **** *     <tr>
ARM GAS  C:\Users\Petro\AppData\Local\Temp\cc6Lo8fB.s 			page 12


 365:.\Generated_Source\PSoC4/BLE.c **** *       <td>CYBLE_ERROR_REPEATED_ATTEMPTS</td>
 366:.\Generated_Source\PSoC4/BLE.c **** *       <td>On invoking this function more than once without calling CyBle_Shutdown() 
 367:.\Generated_Source\PSoC4/BLE.c **** *           function between calls to this function.</td>
 368:.\Generated_Source\PSoC4/BLE.c **** *     </tr>
 369:.\Generated_Source\PSoC4/BLE.c **** *     <tr>
 370:.\Generated_Source\PSoC4/BLE.c **** *       <td>CYBLE_ERROR_MEMORY_ALLOCATION_FAILED</td>
 371:.\Generated_Source\PSoC4/BLE.c **** *       <td>There is insufficient memory available.</td>
 372:.\Generated_Source\PSoC4/BLE.c **** *     </tr>
 373:.\Generated_Source\PSoC4/BLE.c **** *   </table>
 374:.\Generated_Source\PSoC4/BLE.c **** * 
 375:.\Generated_Source\PSoC4/BLE.c **** *  \globalvars
 376:.\Generated_Source\PSoC4/BLE.c **** *   The CyBle_initVar variable is used to indicate initial
 377:.\Generated_Source\PSoC4/BLE.c **** *   configuration of this component. The variable is initialized to zero (0u)
 378:.\Generated_Source\PSoC4/BLE.c **** *   and set to one (1u) the first time CyBle_Start() is called. This
 379:.\Generated_Source\PSoC4/BLE.c **** *   allows for component initialization without re-initialization in all
 380:.\Generated_Source\PSoC4/BLE.c **** *   subsequent calls to the CyBle_Start() routine.
 381:.\Generated_Source\PSoC4/BLE.c **** * 
 382:.\Generated_Source\PSoC4/BLE.c **** ******************************************************************************/
 383:.\Generated_Source\PSoC4/BLE.c **** CYBLE_API_RESULT_T CyBle_Start(CYBLE_CALLBACK_T callbackFunc)
 384:.\Generated_Source\PSoC4/BLE.c **** {
 256              		.loc 1 384 0
 257              		.cfi_startproc
 258 0000 B0B5     		push	{r4, r5, r7, lr}
 259              		.cfi_def_cfa_offset 16
 260              		.cfi_offset 4, -16
 261              		.cfi_offset 5, -12
 262              		.cfi_offset 7, -8
 263              		.cfi_offset 14, -4
 264 0002 8EB0     		sub	sp, sp, #56
 265              		.cfi_def_cfa_offset 72
 266 0004 04AF     		add	r7, sp, #16
 267              		.cfi_def_cfa 7, 56
 268 0006 7860     		str	r0, [r7, #4]
 385:.\Generated_Source\PSoC4/BLE.c ****     CYBLE_API_RESULT_T apiResult = CYBLE_ERROR_OK;
 269              		.loc 1 385 0
 270 0008 2623     		mov	r3, #38
 271 000a FB18     		add	r3, r7, r3
 272 000c 0022     		mov	r2, #0
 273 000e 1A80     		strh	r2, [r3]
 386:.\Generated_Source\PSoC4/BLE.c ****     
 387:.\Generated_Source\PSoC4/BLE.c ****     #if(CYBLE_MODE_PROFILE)
 388:.\Generated_Source\PSoC4/BLE.c ****     
 389:.\Generated_Source\PSoC4/BLE.c ****     CYBLE_STK_APP_DATA_BUFF_T cyBle_stackDataBuff[CYBLE_STACK_BUF_COUNT] = 
 274              		.loc 1 389 0
 275 0010 0C23     		mov	r3, #12
 276 0012 FA18     		add	r2, r7, r3
 277 0014 274B     		ldr	r3, .L11
 278 0016 111C     		mov	r1, r2
 279 0018 1A1C     		mov	r2, r3
 280 001a 1823     		mov	r3, #24
 281 001c 081C     		mov	r0, r1
 282 001e 111C     		mov	r1, r2
 283 0020 1A1C     		mov	r2, r3
 284 0022 FFF7FEFF 		bl	memcpy
 390:.\Generated_Source\PSoC4/BLE.c ****     {
 391:.\Generated_Source\PSoC4/BLE.c ****         {CYBLE_GATT_MTU_PLUS_L2CAP_MEM_EXT, CYBLE_GATT_MTU_BUF_COUNT},
 392:.\Generated_Source\PSoC4/BLE.c ****         {CYBLE_GATT_MAX_ATTR_LEN_PLUS_L2CAP_MEM_EXT, 1u},
ARM GAS  C:\Users\Petro\AppData\Local\Temp\cc6Lo8fB.s 			page 13


 393:.\Generated_Source\PSoC4/BLE.c ****         {CYBLE_L2CAP_PSM_PLUS_L2CAP_MEM_EXT, CYBLE_L2CAP_PSM_COUNT},
 394:.\Generated_Source\PSoC4/BLE.c ****         {CYBLE_L2CAP_CBFC_PLUS_L2CAP_MEM_EXT, CYBLE_L2CAP_LOGICAL_CHANNEL_COUNT},
 395:.\Generated_Source\PSoC4/BLE.c ****         {CYBLE_L2CAP_MTU_PLUS_L2CAP_MEM_EXT, CYBLE_L2CAP_LOGICAL_CHANNEL_COUNT},
 396:.\Generated_Source\PSoC4/BLE.c ****         {CYBLE_L2CAP_MPS_PLUS_L2CAP_MEM_EXT, CYBLE_L2CAP_LOGICAL_CHANNEL_COUNT * (CYBLE_L2CAP_MTU/C
 397:.\Generated_Source\PSoC4/BLE.c ****     }; 
 398:.\Generated_Source\PSoC4/BLE.c **** 
 399:.\Generated_Source\PSoC4/BLE.c ****     #endif /* CYBLE_MODE_PROFILE */
 400:.\Generated_Source\PSoC4/BLE.c ****     
 401:.\Generated_Source\PSoC4/BLE.c ****     /* If not initialized then initialize all the required hardware and software */
 402:.\Generated_Source\PSoC4/BLE.c ****     if(cyBle_initVar == 0u)
 285              		.loc 1 402 0
 286 0026 244B     		ldr	r3, .L11+4
 287 0028 1B78     		ldrb	r3, [r3]
 288 002a 002B     		cmp	r3, #0
 289 002c 04D1     		bne	.L6
 403:.\Generated_Source\PSoC4/BLE.c ****     {
 404:.\Generated_Source\PSoC4/BLE.c ****         CyBle_Init();
 290              		.loc 1 404 0
 291 002e FFF7FEFF 		bl	CyBle_Init
 405:.\Generated_Source\PSoC4/BLE.c ****         cyBle_initVar = 1u;
 292              		.loc 1 405 0
 293 0032 214B     		ldr	r3, .L11+4
 294 0034 0122     		mov	r2, #1
 295 0036 1A70     		strb	r2, [r3]
 296              	.L6:
 406:.\Generated_Source\PSoC4/BLE.c ****     }
 407:.\Generated_Source\PSoC4/BLE.c ****     
 408:.\Generated_Source\PSoC4/BLE.c ****     if(callbackFunc != NULL)
 297              		.loc 1 408 0
 298 0038 7B68     		ldr	r3, [r7, #4]
 299 003a 002B     		cmp	r3, #0
 300 003c 2ED0     		beq	.L7
 409:.\Generated_Source\PSoC4/BLE.c ****     {
 410:.\Generated_Source\PSoC4/BLE.c ****     #if(CYBLE_SHARING_MODE_EXPORT)
 411:.\Generated_Source\PSoC4/BLE.c ****         if(cyBle_stackMemoryRam == NULL)
 412:.\Generated_Source\PSoC4/BLE.c ****         {
 413:.\Generated_Source\PSoC4/BLE.c ****             cyBle_stackMemoryRam = (uint8 *)malloc(CYBLE_STACK_RAM_SIZE);
 414:.\Generated_Source\PSoC4/BLE.c ****             if(cyBle_stackMemoryRam == NULL)
 415:.\Generated_Source\PSoC4/BLE.c ****             {
 416:.\Generated_Source\PSoC4/BLE.c ****                 apiResult = CYBLE_ERROR_MEMORY_ALLOCATION_FAILED;
 417:.\Generated_Source\PSoC4/BLE.c ****             } 
 418:.\Generated_Source\PSoC4/BLE.c ****         }
 419:.\Generated_Source\PSoC4/BLE.c ****     #endif /* CYBLE_SHARING_MODE_EXPORT */
 420:.\Generated_Source\PSoC4/BLE.c ****         if(apiResult == CYBLE_ERROR_OK)
 301              		.loc 1 420 0
 302 003e 2623     		mov	r3, #38
 303 0040 FB18     		add	r3, r7, r3
 304 0042 1B88     		ldrh	r3, [r3]
 305 0044 002B     		cmp	r3, #0
 306 0046 2DD1     		bne	.L9
 421:.\Generated_Source\PSoC4/BLE.c ****         {
 422:.\Generated_Source\PSoC4/BLE.c ****             CyBle_ApplCallback = callbackFunc;
 307              		.loc 1 422 0
 308 0048 1C4B     		ldr	r3, .L11+8
 309 004a 7A68     		ldr	r2, [r7, #4]
 310 004c 1A60     		str	r2, [r3]
 423:.\Generated_Source\PSoC4/BLE.c ****             
ARM GAS  C:\Users\Petro\AppData\Local\Temp\cc6Lo8fB.s 			page 14


 424:.\Generated_Source\PSoC4/BLE.c ****         #if(CYBLE_MODE_PROFILE)
 425:.\Generated_Source\PSoC4/BLE.c ****             apiResult = CyBle_StackInit(&CyBle_EventHandler, cyBle_stackMemoryRam, CYBLE_STACK_RAM_
 311              		.loc 1 425 0
 312 004e 2623     		mov	r3, #38
 313 0050 FC18     		add	r4, r7, r3
 314 0052 1B48     		ldr	r0, .L11+12
 315 0054 1B49     		ldr	r1, .L11+16
 316 0056 AD23     		mov	r3, #173
 317 0058 1A01     		lsl	r2, r3, #4
 318 005a 0C23     		mov	r3, #12
 319 005c FD18     		add	r5, r7, r3
 320 005e 0623     		mov	r3, #6
 321 0060 0093     		str	r3, [sp]
 322 0062 194B     		ldr	r3, .L11+20
 323 0064 0193     		str	r3, [sp, #4]
 324 0066 6E23     		mov	r3, #110
 325 0068 FF33     		add	r3, r3, #255
 326 006a 0293     		str	r3, [sp, #8]
 327 006c 2B1C     		mov	r3, r5
 328 006e FFF7FEFF 		bl	CyBle_StackInit
 329 0072 031C     		mov	r3, r0
 330 0074 2380     		strh	r3, [r4]
 426:.\Generated_Source\PSoC4/BLE.c ****                 cyBle_stackDataBuff, CYBLE_STACK_BUF_COUNT, cyBle_flashStorage.stackFlashptr, CYBLE
 427:.\Generated_Source\PSoC4/BLE.c ****         #else
 428:.\Generated_Source\PSoC4/BLE.c ****             apiResult = CyBle_StackInit(&CyBle_EventHandler, cyBle_stackMemoryRam, CYBLE_STACK_RAM_
 429:.\Generated_Source\PSoC4/BLE.c ****                 NULL, 0u, NULL, 0u);
 430:.\Generated_Source\PSoC4/BLE.c ****         #endif /* CYBLE_MODE_PROFILE */
 431:.\Generated_Source\PSoC4/BLE.c **** 
 432:.\Generated_Source\PSoC4/BLE.c ****             if(apiResult == CYBLE_ERROR_OK)
 331              		.loc 1 432 0
 332 0076 2623     		mov	r3, #38
 333 0078 FB18     		add	r3, r7, r3
 334 007a 1B88     		ldrh	r3, [r3]
 335 007c 002B     		cmp	r3, #0
 336 007e 11D1     		bne	.L9
 433:.\Generated_Source\PSoC4/BLE.c ****             {
 434:.\Generated_Source\PSoC4/BLE.c ****                 CyBle_SetState(CYBLE_STATE_INITIALIZING);
 337              		.loc 1 434 0
 338 0080 124B     		ldr	r3, .L11+24
 339 0082 0122     		mov	r2, #1
 340 0084 1A70     		strb	r2, [r3]
 435:.\Generated_Source\PSoC4/BLE.c ****                 
 436:.\Generated_Source\PSoC4/BLE.c ****             #if (CYBLE_GATT_ROLE_CLIENT)
 437:.\Generated_Source\PSoC4/BLE.c ****                 CyBle_SetClientState(CYBLE_CLIENT_STATE_DISCONNECTED);
 438:.\Generated_Source\PSoC4/BLE.c ****             #endif /* CYBLE_GATT_ROLE_CLIENT */
 439:.\Generated_Source\PSoC4/BLE.c ****                 
 440:.\Generated_Source\PSoC4/BLE.c ****             #if(CYBLE_GATT_ROLE_SERVER)
 441:.\Generated_Source\PSoC4/BLE.c ****                 apiResult = CyBle_GattsDbRegister(cyBle_gattDB, CYBLE_GATT_DB_INDEX_COUNT, CYBLE_GA
 341              		.loc 1 441 0
 342 0086 2623     		mov	r3, #38
 343 0088 FC18     		add	r4, r7, r3
 344 008a 114B     		ldr	r3, .L11+28
 345 008c 181C     		mov	r0, r3
 346 008e 1C21     		mov	r1, #28
 347 0090 1522     		mov	r2, #21
 348 0092 FFF7FEFF 		bl	CyBle_GattsDbRegister
 349 0096 031C     		mov	r3, r0
ARM GAS  C:\Users\Petro\AppData\Local\Temp\cc6Lo8fB.s 			page 15


 350 0098 2380     		strh	r3, [r4]
 351 009a 03E0     		b	.L9
 352              	.L7:
 442:.\Generated_Source\PSoC4/BLE.c ****             #endif /* CYBLE_GATT_ROLE_SERVER */
 443:.\Generated_Source\PSoC4/BLE.c ****             }
 444:.\Generated_Source\PSoC4/BLE.c ****         }
 445:.\Generated_Source\PSoC4/BLE.c ****     }
 446:.\Generated_Source\PSoC4/BLE.c ****     else
 447:.\Generated_Source\PSoC4/BLE.c ****     {
 448:.\Generated_Source\PSoC4/BLE.c ****         apiResult = CYBLE_ERROR_INVALID_PARAMETER;
 353              		.loc 1 448 0
 354 009c 2623     		mov	r3, #38
 355 009e FB18     		add	r3, r7, r3
 356 00a0 0122     		mov	r2, #1
 357 00a2 1A80     		strh	r2, [r3]
 358              	.L9:
 449:.\Generated_Source\PSoC4/BLE.c ****     }
 450:.\Generated_Source\PSoC4/BLE.c **** 
 451:.\Generated_Source\PSoC4/BLE.c ****     return (apiResult);
 359              		.loc 1 451 0
 360 00a4 2623     		mov	r3, #38
 361 00a6 FB18     		add	r3, r7, r3
 362 00a8 1B88     		ldrh	r3, [r3]
 452:.\Generated_Source\PSoC4/BLE.c **** }
 363              		.loc 1 452 0
 364 00aa 181C     		mov	r0, r3
 365 00ac BD46     		mov	sp, r7
 366 00ae 0AB0     		add	sp, sp, #40
 367              		@ sp needed
 368 00b0 B0BD     		pop	{r4, r5, r7, pc}
 369              	.L12:
 370 00b2 C046     		.align	2
 371              	.L11:
 372 00b4 70010000 		.word	.LC0
 373 00b8 00000000 		.word	cyBle_initVar
 374 00bc 00000000 		.word	CyBle_ApplCallback
 375 00c0 00000000 		.word	CyBle_EventHandler
 376 00c4 00000000 		.word	cyBle_stackMemoryRam
 377 00c8 00000000 		.word	cyBle_flashStorage
 378 00cc 00000000 		.word	cyBle_state
 379 00d0 00000000 		.word	cyBle_gattDB
 380              		.cfi_endproc
 381              	.LFE4:
 382              		.size	CyBle_Start, .-CyBle_Start
 383              		.section	.text.CyBle_Stop,"ax",%progbits
 384              		.align	2
 385              		.global	CyBle_Stop
 386              		.code	16
 387              		.thumb_func
 388              		.type	CyBle_Stop, %function
 389              	CyBle_Stop:
 390              	.LFB5:
 453:.\Generated_Source\PSoC4/BLE.c **** 
 454:.\Generated_Source\PSoC4/BLE.c **** 
 455:.\Generated_Source\PSoC4/BLE.c **** /******************************************************************************
 456:.\Generated_Source\PSoC4/BLE.c **** * Function Name: CyBle_Stop
 457:.\Generated_Source\PSoC4/BLE.c **** ***************************************************************************//**
ARM GAS  C:\Users\Petro\AppData\Local\Temp\cc6Lo8fB.s 			page 16


 458:.\Generated_Source\PSoC4/BLE.c **** * 
 459:.\Generated_Source\PSoC4/BLE.c **** *  This function stops any ongoing operation in the BLE Stack and forces the 
 460:.\Generated_Source\PSoC4/BLE.c **** *  BLE Stack to shut down. The only function that can be called after calling
 461:.\Generated_Source\PSoC4/BLE.c **** *  this function is CyBle_Start(). 
 462:.\Generated_Source\PSoC4/BLE.c **** * 
 463:.\Generated_Source\PSoC4/BLE.c **** * \return
 464:.\Generated_Source\PSoC4/BLE.c **** *  None
 465:.\Generated_Source\PSoC4/BLE.c **** * 
 466:.\Generated_Source\PSoC4/BLE.c **** ******************************************************************************/
 467:.\Generated_Source\PSoC4/BLE.c **** void CyBle_Stop(void)
 468:.\Generated_Source\PSoC4/BLE.c **** {
 391              		.loc 1 468 0
 392              		.cfi_startproc
 393 0000 80B5     		push	{r7, lr}
 394              		.cfi_def_cfa_offset 8
 395              		.cfi_offset 7, -8
 396              		.cfi_offset 14, -4
 397 0002 00AF     		add	r7, sp, #0
 398              		.cfi_def_cfa_register 7
 469:.\Generated_Source\PSoC4/BLE.c ****     CyBle_Shutdown();                         /* Stop all ongoing activities */
 399              		.loc 1 469 0
 400 0004 FFF7FEFF 		bl	CyBle_Shutdown
 470:.\Generated_Source\PSoC4/BLE.c ****     CyBle_SetState(CYBLE_STATE_STOPPED);
 401              		.loc 1 470 0
 402 0008 024B     		ldr	r3, .L14
 403 000a 0022     		mov	r2, #0
 404 000c 1A70     		strb	r2, [r3]
 471:.\Generated_Source\PSoC4/BLE.c ****     #if(CYBLE_SHARING_MODE_EXPORT)
 472:.\Generated_Source\PSoC4/BLE.c ****         if(cyBle_stackMemoryRam != NULL)
 473:.\Generated_Source\PSoC4/BLE.c ****         {
 474:.\Generated_Source\PSoC4/BLE.c ****             free(cyBle_stackMemoryRam);
 475:.\Generated_Source\PSoC4/BLE.c ****         }
 476:.\Generated_Source\PSoC4/BLE.c ****     #endif /* CYBLE_SHARING_MODE_EXPORT */
 477:.\Generated_Source\PSoC4/BLE.c **** }
 405              		.loc 1 477 0
 406 000e BD46     		mov	sp, r7
 407              		@ sp needed
 408 0010 80BD     		pop	{r7, pc}
 409              	.L15:
 410 0012 C046     		.align	2
 411              	.L14:
 412 0014 00000000 		.word	cyBle_state
 413              		.cfi_endproc
 414              	.LFE5:
 415              		.size	CyBle_Stop, .-CyBle_Stop
 416              		.section	.text.CyBle_GappStartAdvertisement,"ax",%progbits
 417              		.align	2
 418              		.global	CyBle_GappStartAdvertisement
 419              		.code	16
 420              		.thumb_func
 421              		.type	CyBle_GappStartAdvertisement, %function
 422              	CyBle_GappStartAdvertisement:
 423              	.LFB6:
 478:.\Generated_Source\PSoC4/BLE.c **** 
 479:.\Generated_Source\PSoC4/BLE.c **** 
 480:.\Generated_Source\PSoC4/BLE.c **** #if((CYBLE_GAP_ROLE_PERIPHERAL || CYBLE_GAP_ROLE_CENTRAL) && (CYBLE_BONDING_REQUIREMENT == CYBLE_BO
 481:.\Generated_Source\PSoC4/BLE.c **** 
ARM GAS  C:\Users\Petro\AppData\Local\Temp\cc6Lo8fB.s 			page 17


 482:.\Generated_Source\PSoC4/BLE.c ****     
 483:.\Generated_Source\PSoC4/BLE.c **** /******************************************************************************
 484:.\Generated_Source\PSoC4/BLE.c **** * Function Name: CyBle_StoreBondingData
 485:.\Generated_Source\PSoC4/BLE.c **** ***************************************************************************//**
 486:.\Generated_Source\PSoC4/BLE.c **** * 
 487:.\Generated_Source\PSoC4/BLE.c **** *  This function writes the new bonding data from RAM to the dedicated Flash 
 488:.\Generated_Source\PSoC4/BLE.c **** *  location as defined by the component. It performs data comparing between RAM
 489:.\Generated_Source\PSoC4/BLE.c **** *  and Flash before writing to Flash. If there is no change between RAM and Flash
 490:.\Generated_Source\PSoC4/BLE.c **** *  data, then no write is performed. It writes only one flash row in one call.
 491:.\Generated_Source\PSoC4/BLE.c **** *  Application should keep calling this function till API return CYBLE_ERROR_OK. 
 492:.\Generated_Source\PSoC4/BLE.c **** *  This function is available only when Bonding requirement is selected in
 493:.\Generated_Source\PSoC4/BLE.c **** *  Security settings.    
 494:.\Generated_Source\PSoC4/BLE.c **** * 
 495:.\Generated_Source\PSoC4/BLE.c **** *  \param isForceWrite:  If value is set to 0, then stack will check if flash write 
 496:.\Generated_Source\PSoC4/BLE.c **** *                 is permissible. 
 497:.\Generated_Source\PSoC4/BLE.c **** *  
 498:.\Generated_Source\PSoC4/BLE.c **** * \return
 499:.\Generated_Source\PSoC4/BLE.c **** *  Return value is of type CYBLE_API_RESULT_T.
 500:.\Generated_Source\PSoC4/BLE.c **** *
 501:.\Generated_Source\PSoC4/BLE.c **** *   Errors codes                         | Description
 502:.\Generated_Source\PSoC4/BLE.c **** *   ----------------------------------   | ------------------------------------
 503:.\Generated_Source\PSoC4/BLE.c **** *   CYBLE_ERROR_OK                       | On successful operation
 504:.\Generated_Source\PSoC4/BLE.c **** *   CYBLE_ERROR_FLASH_WRITE_NOT_PERMITED | Flash Write is not complete
 505:.\Generated_Source\PSoC4/BLE.c **** *    
 506:.\Generated_Source\PSoC4/BLE.c **** *  \sideeffect
 507:.\Generated_Source\PSoC4/BLE.c **** *   For BLE devices with 128K of Flash memory this API will automatically 
 508:.\Generated_Source\PSoC4/BLE.c **** *   modify the clock settings for the device.
 509:.\Generated_Source\PSoC4/BLE.c **** *   Writing to flash requires changes to be done to the IMO (set to 48 MHz)
 510:.\Generated_Source\PSoC4/BLE.c **** *   and HFCLK (source set to IMO) settings. The configuration is restored before
 511:.\Generated_Source\PSoC4/BLE.c **** *   returning. This will impact the operation of most of the hardware in the
 512:.\Generated_Source\PSoC4/BLE.c **** *   device.
 513:.\Generated_Source\PSoC4/BLE.c **** * 
 514:.\Generated_Source\PSoC4/BLE.c **** *  \globalvars
 515:.\Generated_Source\PSoC4/BLE.c **** *   The BLE_pendingFlashWrite variable is used to detect status
 516:.\Generated_Source\PSoC4/BLE.c **** *   of pending write to flash operation for stack data and CCCD.
 517:.\Generated_Source\PSoC4/BLE.c **** *   This API automatically clears pending bits after write operation complete.
 518:.\Generated_Source\PSoC4/BLE.c **** *     
 519:.\Generated_Source\PSoC4/BLE.c **** ******************************************************************************/
 520:.\Generated_Source\PSoC4/BLE.c **** CYBLE_API_RESULT_T CyBle_StoreBondingData(uint8 isForceWrite)
 521:.\Generated_Source\PSoC4/BLE.c **** {
 522:.\Generated_Source\PSoC4/BLE.c ****     CYBLE_API_RESULT_T apiResult = CYBLE_ERROR_OK;
 523:.\Generated_Source\PSoC4/BLE.c ****     
 524:.\Generated_Source\PSoC4/BLE.c ****     /* Store Stack data */
 525:.\Generated_Source\PSoC4/BLE.c ****     if((cyBle_pendingFlashWrite & CYBLE_PENDING_STACK_FLASH_WRITE_BIT) != 0u)
 526:.\Generated_Source\PSoC4/BLE.c ****     {
 527:.\Generated_Source\PSoC4/BLE.c ****         apiResult = CyBle_StoreStackData(isForceWrite);
 528:.\Generated_Source\PSoC4/BLE.c ****         if(apiResult == CYBLE_ERROR_OK)
 529:.\Generated_Source\PSoC4/BLE.c ****         {
 530:.\Generated_Source\PSoC4/BLE.c ****             cyBle_pendingFlashWrite &= (uint8)~CYBLE_PENDING_STACK_FLASH_WRITE_BIT;
 531:.\Generated_Source\PSoC4/BLE.c ****             /* Change apiResult if there are more pending data to store */
 532:.\Generated_Source\PSoC4/BLE.c ****             if((cyBle_pendingFlashWrite & CYBLE_PENDING_CCCD_FLASH_WRITE_BIT) != 0u)
 533:.\Generated_Source\PSoC4/BLE.c ****             {
 534:.\Generated_Source\PSoC4/BLE.c ****                 apiResult = CYBLE_ERROR_FLASH_WRITE_NOT_PERMITED;
 535:.\Generated_Source\PSoC4/BLE.c ****             }
 536:.\Generated_Source\PSoC4/BLE.c ****         }
 537:.\Generated_Source\PSoC4/BLE.c ****     }
 538:.\Generated_Source\PSoC4/BLE.c **** #if(CYBLE_GATT_DB_CCCD_COUNT != 0u)
ARM GAS  C:\Users\Petro\AppData\Local\Temp\cc6Lo8fB.s 			page 18


 539:.\Generated_Source\PSoC4/BLE.c ****     /* Store CCCD values */
 540:.\Generated_Source\PSoC4/BLE.c ****     if( ((apiResult == CYBLE_ERROR_OK) || (isForceWrite != 0u)) && 
 541:.\Generated_Source\PSoC4/BLE.c ****         ((cyBle_pendingFlashWrite & CYBLE_PENDING_CCCD_FLASH_WRITE_BIT) != 0u) &&
 542:.\Generated_Source\PSoC4/BLE.c ****         (cyBle_connHandle.bdHandle <= CYBLE_GAP_MAX_BONDED_DEVICE))
 543:.\Generated_Source\PSoC4/BLE.c ****     {
 544:.\Generated_Source\PSoC4/BLE.c ****         apiResult = CyBle_StoreAppData(cyBle_attValuesCCCD, cyBle_flashStorage.attValuesCCCDFlashMe
 545:.\Generated_Source\PSoC4/BLE.c ****                                        CYBLE_GATT_DB_CCCD_COUNT, isForceWrite);
 546:.\Generated_Source\PSoC4/BLE.c ****         if(apiResult == CYBLE_ERROR_OK)
 547:.\Generated_Source\PSoC4/BLE.c ****         {
 548:.\Generated_Source\PSoC4/BLE.c ****             cyBle_pendingFlashWrite &= (uint8)~CYBLE_PENDING_CCCD_FLASH_WRITE_BIT;
 549:.\Generated_Source\PSoC4/BLE.c ****         }
 550:.\Generated_Source\PSoC4/BLE.c ****     }
 551:.\Generated_Source\PSoC4/BLE.c **** #endif /* CYBLE_GATT_DB_CCCD_COUNT != 0u */
 552:.\Generated_Source\PSoC4/BLE.c ****     return(apiResult);
 553:.\Generated_Source\PSoC4/BLE.c **** }
 554:.\Generated_Source\PSoC4/BLE.c **** 
 555:.\Generated_Source\PSoC4/BLE.c **** 
 556:.\Generated_Source\PSoC4/BLE.c **** #endif /* (CYBLE_GAP_ROLE_PERIPHERAL || CYBLE_GAP_ROLE_CENTRAL) && (CYBLE_BONDING_REQUIREMENT == CY
 557:.\Generated_Source\PSoC4/BLE.c **** 
 558:.\Generated_Source\PSoC4/BLE.c **** 
 559:.\Generated_Source\PSoC4/BLE.c **** #if(CYBLE_GAP_ROLE_PERIPHERAL || CYBLE_GAP_ROLE_BROADCASTER)
 560:.\Generated_Source\PSoC4/BLE.c **** 
 561:.\Generated_Source\PSoC4/BLE.c ****     /******************************************************************************
 562:.\Generated_Source\PSoC4/BLE.c ****     *  Function Name: CyBle_GappStartAdvertisement
 563:.\Generated_Source\PSoC4/BLE.c ****     ***************************************************************************//**
 564:.\Generated_Source\PSoC4/BLE.c ****     *     
 565:.\Generated_Source\PSoC4/BLE.c ****     *  This function is used to start the advertisement using the advertisement data 
 566:.\Generated_Source\PSoC4/BLE.c ****     *  set in the component customizer's GUI. After invoking this API, the device 
 567:.\Generated_Source\PSoC4/BLE.c ****     *  will be available for connection by the devices configured for GAP central 
 568:.\Generated_Source\PSoC4/BLE.c ****     *  role. It is only included if the device is configured for GAP Peripheral or 
 569:.\Generated_Source\PSoC4/BLE.c ****     *  GAP Peripheral + Central role.
 570:.\Generated_Source\PSoC4/BLE.c ****     *  
 571:.\Generated_Source\PSoC4/BLE.c ****     *  On start of advertisement, GAP Peripheral receives the
 572:.\Generated_Source\PSoC4/BLE.c ****     *  CYBLE_EVT_GAPP_ADVERTISEMENT_START_STOP event. The following events are 
 573:.\Generated_Source\PSoC4/BLE.c ****     *  possible on invoking this function:
 574:.\Generated_Source\PSoC4/BLE.c ****     *  
 575:.\Generated_Source\PSoC4/BLE.c ****     *  * CYBLE_EVT_GAP_DEVICE_CONNECTED: If the device connects to remote GAP 
 576:.\Generated_Source\PSoC4/BLE.c ****     *                                      Central device
 577:.\Generated_Source\PSoC4/BLE.c ****     *  * CYBLE_EVT_TIMEOUT: If no device in GAP Central mode connects to this 
 578:.\Generated_Source\PSoC4/BLE.c ****     *                       device within the specified timeout limit. Stack 
 579:.\Generated_Source\PSoC4/BLE.c ****     *                       automatically initiate stop advertising when Slow 
 580:.\Generated_Source\PSoC4/BLE.c ****     *                       advertising was initiated, or starts Slow advertising
 581:.\Generated_Source\PSoC4/BLE.c ****     *                       after Fast advertising timeout occur.
 582:.\Generated_Source\PSoC4/BLE.c ****     *  * CYBLE_EVT_GAPP_ADVERTISEMENT_START_STOP: If device started or stopped
 583:.\Generated_Source\PSoC4/BLE.c ****     *                                               advertising. Use CyBle_GetState()
 584:.\Generated_Source\PSoC4/BLE.c ****     *                                               to determine the state. Sequential 
 585:.\Generated_Source\PSoC4/BLE.c ****     *                                               advertising could be started when
 586:.\Generated_Source\PSoC4/BLE.c ****     *                                               CYBLE_STATE_DISCONNECTED state is
 587:.\Generated_Source\PSoC4/BLE.c ****     *                                               returned.
 588:.\Generated_Source\PSoC4/BLE.c ****     * 
 589:.\Generated_Source\PSoC4/BLE.c ****     *  \param advertisingIntervalType: Fast or slow advertising interval with timings
 590:.\Generated_Source\PSoC4/BLE.c ****     *                                 entered in Advertising settings section of the
 591:.\Generated_Source\PSoC4/BLE.c ****     *                                 customizer.
 592:.\Generated_Source\PSoC4/BLE.c ****     *  * CYBLE_ADVERTISING_FAST   0x00u
 593:.\Generated_Source\PSoC4/BLE.c ****     *  * CYBLE_ADVERTISING_SLOW   0x01u
 594:.\Generated_Source\PSoC4/BLE.c ****     *  * CYBLE_ADVERTISING_CUSTOM 0x02u
 595:.\Generated_Source\PSoC4/BLE.c ****     * 
ARM GAS  C:\Users\Petro\AppData\Local\Temp\cc6Lo8fB.s 			page 19


 596:.\Generated_Source\PSoC4/BLE.c ****     * \return
 597:.\Generated_Source\PSoC4/BLE.c ****     *  CYBLE_API_RESULT_T : Return value indicates if the function succeeded or
 598:.\Generated_Source\PSoC4/BLE.c ****     *  failed. Following are the possible error codes.
 599:.\Generated_Source\PSoC4/BLE.c ****     * 
 600:.\Generated_Source\PSoC4/BLE.c ****     *   Errors codes                      |  Description
 601:.\Generated_Source\PSoC4/BLE.c ****     *   --------------------------------- |  --------------------------------
 602:.\Generated_Source\PSoC4/BLE.c ****     *   CYBLE_ERROR_OK                    |  On successful operation.
 603:.\Generated_Source\PSoC4/BLE.c ****     *   CYBLE_ERROR_INVALID_PARAMETER     |  On passing an invalid parameter.
 604:.\Generated_Source\PSoC4/BLE.c ****     *   CYBLE_ERROR_INVALID_STATE         |  On calling this API not in Disconnected state.
 605:.\Generated_Source\PSoC4/BLE.c ****     *
 606:.\Generated_Source\PSoC4/BLE.c ****     * 
 607:.\Generated_Source\PSoC4/BLE.c ****     *******************************************************************************/
 608:.\Generated_Source\PSoC4/BLE.c ****     CYBLE_API_RESULT_T CyBle_GappStartAdvertisement(uint8 advertisingIntervalType)
 609:.\Generated_Source\PSoC4/BLE.c ****     {
 424              		.loc 1 609 0
 425              		.cfi_startproc
 426 0000 90B5     		push	{r4, r7, lr}
 427              		.cfi_def_cfa_offset 12
 428              		.cfi_offset 4, -12
 429              		.cfi_offset 7, -8
 430              		.cfi_offset 14, -4
 431 0002 85B0     		sub	sp, sp, #20
 432              		.cfi_def_cfa_offset 32
 433 0004 00AF     		add	r7, sp, #0
 434              		.cfi_def_cfa_register 7
 435 0006 021C     		mov	r2, r0
 436 0008 FB1D     		add	r3, r7, #7
 437 000a 1A70     		strb	r2, [r3]
 610:.\Generated_Source\PSoC4/BLE.c ****         CYBLE_API_RESULT_T apiResult;
 611:.\Generated_Source\PSoC4/BLE.c ****         
 612:.\Generated_Source\PSoC4/BLE.c ****         if(advertisingIntervalType > CYBLE_ADVERTISING_CUSTOM)
 438              		.loc 1 612 0
 439 000c FB1D     		add	r3, r7, #7
 440 000e 1B78     		ldrb	r3, [r3]
 441 0010 022B     		cmp	r3, #2
 442 0012 04D9     		bls	.L17
 613:.\Generated_Source\PSoC4/BLE.c ****         {
 614:.\Generated_Source\PSoC4/BLE.c ****             apiResult = CYBLE_ERROR_INVALID_PARAMETER;
 443              		.loc 1 614 0
 444 0014 0E23     		mov	r3, #14
 445 0016 FB18     		add	r3, r7, r3
 446 0018 0122     		mov	r2, #1
 447 001a 1A80     		strh	r2, [r3]
 448 001c 4BE0     		b	.L18
 449              	.L17:
 615:.\Generated_Source\PSoC4/BLE.c ****         }
 616:.\Generated_Source\PSoC4/BLE.c ****         else if((CYBLE_STATE_DISCONNECTED == CyBle_GetState()) && ((cyBle_eventHandlerFlag & CYBLE_
 450              		.loc 1 616 0
 451 001e 294B     		ldr	r3, .L24
 452 0020 1B78     		ldrb	r3, [r3]
 453 0022 042B     		cmp	r3, #4
 454 0024 42D1     		bne	.L19
 455              		.loc 1 616 0 is_stmt 0 discriminator 1
 456 0026 284B     		ldr	r3, .L24+4
 457 0028 1B78     		ldrb	r3, [r3]
 458 002a DBB2     		uxtb	r3, r3
 459 002c 1A1C     		mov	r2, r3
ARM GAS  C:\Users\Petro\AppData\Local\Temp\cc6Lo8fB.s 			page 20


 460 002e 0423     		mov	r3, #4
 461 0030 1340     		and	r3, r2
 462 0032 3BD1     		bne	.L19
 617:.\Generated_Source\PSoC4/BLE.c ****         {   
 618:.\Generated_Source\PSoC4/BLE.c ****             if(advertisingIntervalType == CYBLE_ADVERTISING_FAST)
 463              		.loc 1 618 0 is_stmt 1
 464 0034 FB1D     		add	r3, r7, #7
 465 0036 1B78     		ldrb	r3, [r3]
 466 0038 002B     		cmp	r3, #0
 467 003a 0BD1     		bne	.L20
 619:.\Generated_Source\PSoC4/BLE.c ****             {
 620:.\Generated_Source\PSoC4/BLE.c ****                 cyBle_discoveryModeInfo.advTo = CYBLE_FAST_ADV_TIMEOUT;
 468              		.loc 1 620 0
 469 003c 234B     		ldr	r3, .L24+8
 470 003e 1E22     		mov	r2, #30
 471 0040 1A82     		strh	r2, [r3, #16]
 621:.\Generated_Source\PSoC4/BLE.c ****                 cyBle_discoveryModeInfo.advParam->advIntvMin = CYBLE_FAST_ADV_INT_MIN;
 472              		.loc 1 621 0
 473 0042 224B     		ldr	r3, .L24+8
 474 0044 5B68     		ldr	r3, [r3, #4]
 475 0046 2022     		mov	r2, #32
 476 0048 1A80     		strh	r2, [r3]
 622:.\Generated_Source\PSoC4/BLE.c ****                 cyBle_discoveryModeInfo.advParam->advIntvMax = CYBLE_FAST_ADV_INT_MAX;
 477              		.loc 1 622 0
 478 004a 204B     		ldr	r3, .L24+8
 479 004c 5B68     		ldr	r3, [r3, #4]
 480 004e 3022     		mov	r2, #48
 481 0050 5A80     		strh	r2, [r3, #2]
 482 0052 10E0     		b	.L21
 483              	.L20:
 623:.\Generated_Source\PSoC4/BLE.c ****             }
 624:.\Generated_Source\PSoC4/BLE.c ****             else if(advertisingIntervalType == CYBLE_ADVERTISING_SLOW)
 484              		.loc 1 624 0
 485 0054 FB1D     		add	r3, r7, #7
 486 0056 1B78     		ldrb	r3, [r3]
 487 0058 012B     		cmp	r3, #1
 488 005a 0CD1     		bne	.L21
 625:.\Generated_Source\PSoC4/BLE.c ****             {
 626:.\Generated_Source\PSoC4/BLE.c ****                 cyBle_discoveryModeInfo.advTo = CYBLE_SLOW_ADV_TIMEOUT;
 489              		.loc 1 626 0
 490 005c 1B4B     		ldr	r3, .L24+8
 491 005e 9622     		mov	r2, #150
 492 0060 1A82     		strh	r2, [r3, #16]
 627:.\Generated_Source\PSoC4/BLE.c ****                 cyBle_discoveryModeInfo.advParam->advIntvMin = CYBLE_SLOW_ADV_INT_MIN;
 493              		.loc 1 627 0
 494 0062 1A4B     		ldr	r3, .L24+8
 495 0064 5B68     		ldr	r3, [r3, #4]
 496 0066 C822     		mov	r2, #200
 497 0068 D200     		lsl	r2, r2, #3
 498 006a 1A80     		strh	r2, [r3]
 628:.\Generated_Source\PSoC4/BLE.c ****                 cyBle_discoveryModeInfo.advParam->advIntvMax = CYBLE_SLOW_ADV_INT_MAX;
 499              		.loc 1 628 0
 500 006c 174B     		ldr	r3, .L24+8
 501 006e 5B68     		ldr	r3, [r3, #4]
 502 0070 FA22     		mov	r2, #250
 503 0072 1201     		lsl	r2, r2, #4
 504 0074 5A80     		strh	r2, [r3, #2]
ARM GAS  C:\Users\Petro\AppData\Local\Temp\cc6Lo8fB.s 			page 21


 505              	.L21:
 629:.\Generated_Source\PSoC4/BLE.c ****             }       
 630:.\Generated_Source\PSoC4/BLE.c ****             else /* Do not update advertising intervals */
 631:.\Generated_Source\PSoC4/BLE.c ****             {
 632:.\Generated_Source\PSoC4/BLE.c ****             }
 633:.\Generated_Source\PSoC4/BLE.c ****             cyBle_advertisingIntervalType = advertisingIntervalType;
 506              		.loc 1 633 0
 507 0076 164B     		ldr	r3, .L24+12
 508 0078 FA1D     		add	r2, r7, #7
 509 007a 1278     		ldrb	r2, [r2]
 510 007c 1A70     		strb	r2, [r3]
 634:.\Generated_Source\PSoC4/BLE.c ****             apiResult = CyBle_GappEnterDiscoveryMode(&cyBle_discoveryModeInfo);
 511              		.loc 1 634 0
 512 007e 0E23     		mov	r3, #14
 513 0080 FC18     		add	r4, r7, r3
 514 0082 124B     		ldr	r3, .L24+8
 515 0084 181C     		mov	r0, r3
 516 0086 FFF7FEFF 		bl	CyBle_GappEnterDiscoveryMode
 517 008a 031C     		mov	r3, r0
 518 008c 2380     		strh	r3, [r4]
 635:.\Generated_Source\PSoC4/BLE.c ****         
 636:.\Generated_Source\PSoC4/BLE.c ****             if(CYBLE_ERROR_OK == apiResult)
 519              		.loc 1 636 0
 520 008e 0E23     		mov	r3, #14
 521 0090 FB18     		add	r3, r7, r3
 522 0092 1B88     		ldrh	r3, [r3]
 523 0094 002B     		cmp	r3, #0
 524 0096 08D1     		bne	.L22
 637:.\Generated_Source\PSoC4/BLE.c ****             {
 638:.\Generated_Source\PSoC4/BLE.c ****                 cyBle_eventHandlerFlag |= CYBLE_START_FLAG;
 525              		.loc 1 638 0
 526 0098 0B4B     		ldr	r3, .L24+4
 527 009a 1B78     		ldrb	r3, [r3]
 528 009c DBB2     		uxtb	r3, r3
 529 009e 0422     		mov	r2, #4
 530 00a0 1343     		orr	r3, r2
 531 00a2 DAB2     		uxtb	r2, r3
 532 00a4 084B     		ldr	r3, .L24+4
 533 00a6 1A70     		strb	r2, [r3]
 636:.\Generated_Source\PSoC4/BLE.c ****             {
 534              		.loc 1 636 0
 535 00a8 05E0     		b	.L18
 536              	.L22:
 537 00aa 04E0     		b	.L18
 538              	.L19:
 639:.\Generated_Source\PSoC4/BLE.c ****             }
 640:.\Generated_Source\PSoC4/BLE.c ****         }
 641:.\Generated_Source\PSoC4/BLE.c ****         else
 642:.\Generated_Source\PSoC4/BLE.c ****         {
 643:.\Generated_Source\PSoC4/BLE.c ****             apiResult = CYBLE_ERROR_INVALID_STATE;
 539              		.loc 1 643 0
 540 00ac 0E23     		mov	r3, #14
 541 00ae FB18     		add	r3, r7, r3
 542 00b0 0422     		mov	r2, #4
 543 00b2 FF32     		add	r2, r2, #255
 544 00b4 1A80     		strh	r2, [r3]
 545              	.L18:
ARM GAS  C:\Users\Petro\AppData\Local\Temp\cc6Lo8fB.s 			page 22


 644:.\Generated_Source\PSoC4/BLE.c ****         }
 645:.\Generated_Source\PSoC4/BLE.c **** 
 646:.\Generated_Source\PSoC4/BLE.c ****         return (apiResult);
 546              		.loc 1 646 0
 547 00b6 0E23     		mov	r3, #14
 548 00b8 FB18     		add	r3, r7, r3
 549 00ba 1B88     		ldrh	r3, [r3]
 647:.\Generated_Source\PSoC4/BLE.c ****     }
 550              		.loc 1 647 0
 551 00bc 181C     		mov	r0, r3
 552 00be BD46     		mov	sp, r7
 553 00c0 05B0     		add	sp, sp, #20
 554              		@ sp needed
 555 00c2 90BD     		pop	{r4, r7, pc}
 556              	.L25:
 557              		.align	2
 558              	.L24:
 559 00c4 00000000 		.word	cyBle_state
 560 00c8 00000000 		.word	cyBle_eventHandlerFlag
 561 00cc 00000000 		.word	cyBle_discoveryModeInfo
 562 00d0 00000000 		.word	cyBle_advertisingIntervalType
 563              		.cfi_endproc
 564              	.LFE6:
 565              		.size	CyBle_GappStartAdvertisement, .-CyBle_GappStartAdvertisement
 566              		.section	.text.CyBle_GappStopAdvertisement,"ax",%progbits
 567              		.align	2
 568              		.global	CyBle_GappStopAdvertisement
 569              		.code	16
 570              		.thumb_func
 571              		.type	CyBle_GappStopAdvertisement, %function
 572              	CyBle_GappStopAdvertisement:
 573              	.LFB7:
 648:.\Generated_Source\PSoC4/BLE.c **** 
 649:.\Generated_Source\PSoC4/BLE.c ****     
 650:.\Generated_Source\PSoC4/BLE.c ****     /******************************************************************************
 651:.\Generated_Source\PSoC4/BLE.c ****     * Function Name: CyBle_GappStopAdvertisement
 652:.\Generated_Source\PSoC4/BLE.c ****     ***************************************************************************//**
 653:.\Generated_Source\PSoC4/BLE.c ****     * 
 654:.\Generated_Source\PSoC4/BLE.c ****     *   This function can be used to exit from discovery mode. After the execution 
 655:.\Generated_Source\PSoC4/BLE.c ****     *   of this function, there will no longer be any advertisements. On stopping 
 656:.\Generated_Source\PSoC4/BLE.c ****     *   advertising, GAP Peripheral receives CYBLE_EVT_GAPP_ADVERTISEMENT_START_STOP
 657:.\Generated_Source\PSoC4/BLE.c ****     *   event. It is expected that the application layer tracks the function call 
 658:.\Generated_Source\PSoC4/BLE.c ****     *   performed before occurrence of this event as this event can occur on making 
 659:.\Generated_Source\PSoC4/BLE.c ****     *   a call to Cy_BleGappStartAdvertisement(), CyBle_GappEnterDiscoveryMode(), 
 660:.\Generated_Source\PSoC4/BLE.c ****     *   or CyBle_GappStartAdvertisement() functions as well.
 661:.\Generated_Source\PSoC4/BLE.c ****     *   
 662:.\Generated_Source\PSoC4/BLE.c ****     *   The following event occurs on invoking this function:
 663:.\Generated_Source\PSoC4/BLE.c ****     *   * CYBLE_EVT_GAPP_ADVERTISEMENT_START_STOP
 664:.\Generated_Source\PSoC4/BLE.c ****     * 
 665:.\Generated_Source\PSoC4/BLE.c ****     *  \return
 666:.\Generated_Source\PSoC4/BLE.c ****     *   None
 667:.\Generated_Source\PSoC4/BLE.c ****     * 
 668:.\Generated_Source\PSoC4/BLE.c ****     *******************************************************************************/
 669:.\Generated_Source\PSoC4/BLE.c ****     void CyBle_GappStopAdvertisement(void)
 670:.\Generated_Source\PSoC4/BLE.c ****     {
 574              		.loc 1 670 0
 575              		.cfi_startproc
ARM GAS  C:\Users\Petro\AppData\Local\Temp\cc6Lo8fB.s 			page 23


 576 0000 80B5     		push	{r7, lr}
 577              		.cfi_def_cfa_offset 8
 578              		.cfi_offset 7, -8
 579              		.cfi_offset 14, -4
 580 0002 00AF     		add	r7, sp, #0
 581              		.cfi_def_cfa_register 7
 671:.\Generated_Source\PSoC4/BLE.c ****         CyBle_GappExitDiscoveryMode();
 582              		.loc 1 671 0
 583 0004 FFF7FEFF 		bl	CyBle_GappExitDiscoveryMode
 672:.\Generated_Source\PSoC4/BLE.c ****         cyBle_eventHandlerFlag |= CYBLE_STOP_FLAG;
 584              		.loc 1 672 0
 585 0008 044B     		ldr	r3, .L27
 586 000a 1B78     		ldrb	r3, [r3]
 587 000c DBB2     		uxtb	r3, r3
 588 000e 0822     		mov	r2, #8
 589 0010 1343     		orr	r3, r2
 590 0012 DAB2     		uxtb	r2, r3
 591 0014 014B     		ldr	r3, .L27
 592 0016 1A70     		strb	r2, [r3]
 673:.\Generated_Source\PSoC4/BLE.c ****     }
 593              		.loc 1 673 0
 594 0018 BD46     		mov	sp, r7
 595              		@ sp needed
 596 001a 80BD     		pop	{r7, pc}
 597              	.L28:
 598              		.align	2
 599              	.L27:
 600 001c 00000000 		.word	cyBle_eventHandlerFlag
 601              		.cfi_endproc
 602              	.LFE7:
 603              		.size	CyBle_GappStopAdvertisement, .-CyBle_GappStopAdvertisement
 604              		.section	.text.CyBle_ChangeAdDeviceAddress,"ax",%progbits
 605              		.align	2
 606              		.global	CyBle_ChangeAdDeviceAddress
 607              		.code	16
 608              		.thumb_func
 609              		.type	CyBle_ChangeAdDeviceAddress, %function
 610              	CyBle_ChangeAdDeviceAddress:
 611              	.LFB8:
 674:.\Generated_Source\PSoC4/BLE.c ****     
 675:.\Generated_Source\PSoC4/BLE.c ****     
 676:.\Generated_Source\PSoC4/BLE.c ****     /******************************************************************************
 677:.\Generated_Source\PSoC4/BLE.c ****     * Function Name: CyBle_ChangeAdDeviceAddress
 678:.\Generated_Source\PSoC4/BLE.c ****     ***************************************************************************//**
 679:.\Generated_Source\PSoC4/BLE.c ****     * 
 680:.\Generated_Source\PSoC4/BLE.c ****     *  This API is used to set the Bluetooth device address into the advertisement 
 681:.\Generated_Source\PSoC4/BLE.c ****     *  or scan response data structure.
 682:.\Generated_Source\PSoC4/BLE.c ****     * 
 683:.\Generated_Source\PSoC4/BLE.c ****     *  \param bdAddr: Bluetooth Device address. The variable is of type CYBLE_GAP_BD_ADDR_T
 684:.\Generated_Source\PSoC4/BLE.c ****     *  \param dest: 0 - selects advertisement structure, not zero value selects scan 
 685:.\Generated_Source\PSoC4/BLE.c ****     *               response structure.
 686:.\Generated_Source\PSoC4/BLE.c ****     * 
 687:.\Generated_Source\PSoC4/BLE.c ****     * \return
 688:.\Generated_Source\PSoC4/BLE.c ****     *  None
 689:.\Generated_Source\PSoC4/BLE.c ****     *  
 690:.\Generated_Source\PSoC4/BLE.c ****     *******************************************************************************/
 691:.\Generated_Source\PSoC4/BLE.c ****     void CyBle_ChangeAdDeviceAddress(const CYBLE_GAP_BD_ADDR_T* bdAddr, uint8 dest)
ARM GAS  C:\Users\Petro\AppData\Local\Temp\cc6Lo8fB.s 			page 24


 692:.\Generated_Source\PSoC4/BLE.c ****     {
 612              		.loc 1 692 0
 613              		.cfi_startproc
 614 0000 80B5     		push	{r7, lr}
 615              		.cfi_def_cfa_offset 8
 616              		.cfi_offset 7, -8
 617              		.cfi_offset 14, -4
 618 0002 84B0     		sub	sp, sp, #16
 619              		.cfi_def_cfa_offset 24
 620 0004 00AF     		add	r7, sp, #0
 621              		.cfi_def_cfa_register 7
 622 0006 7860     		str	r0, [r7, #4]
 623 0008 0A1C     		mov	r2, r1
 624 000a FB1C     		add	r3, r7, #3
 625 000c 1A70     		strb	r2, [r3]
 693:.\Generated_Source\PSoC4/BLE.c ****         uint8 i;
 694:.\Generated_Source\PSoC4/BLE.c ****         uint8 *destBuffer = NULL;
 626              		.loc 1 694 0
 627 000e 0023     		mov	r3, #0
 628 0010 BB60     		str	r3, [r7, #8]
 695:.\Generated_Source\PSoC4/BLE.c ****         
 696:.\Generated_Source\PSoC4/BLE.c ****         if(dest == 0u)      /* Destination - advertising structure */
 697:.\Generated_Source\PSoC4/BLE.c ****         {
 698:.\Generated_Source\PSoC4/BLE.c ****             #ifdef CYBLE_ADV_PKT_INDEX_BLUETOOTH_DEVICE_ADDRESS
 699:.\Generated_Source\PSoC4/BLE.c ****                 destBuffer = &cyBle_discoveryData.advData[CYBLE_ADV_PKT_INDEX_BLUETOOTH_DEVICE_ADDR
 700:.\Generated_Source\PSoC4/BLE.c ****             #endif /* CYBLE_ADV_PKT_INDEX_BLUETOOTH_DEVICE_ADDRESS */
 701:.\Generated_Source\PSoC4/BLE.c ****         }
 702:.\Generated_Source\PSoC4/BLE.c ****         else                /* Destination - scan response structure */
 703:.\Generated_Source\PSoC4/BLE.c ****         {
 704:.\Generated_Source\PSoC4/BLE.c ****             #ifdef CYBLE_SCN_PKT_INDEX_BLUETOOTH_DEVICE_ADDRESS
 705:.\Generated_Source\PSoC4/BLE.c ****                 destBuffer = &cyBle_scanRspData.scanRspData[CYBLE_SCN_PKT_INDEX_BLUETOOTH_DEVICE_AD
 706:.\Generated_Source\PSoC4/BLE.c ****             #endif /* CYBLE_SCN_PKT_INDEX_BLUETOOTH_DEVICE_ADDRESS */    
 707:.\Generated_Source\PSoC4/BLE.c ****         }
 708:.\Generated_Source\PSoC4/BLE.c ****         
 709:.\Generated_Source\PSoC4/BLE.c ****         if(destBuffer != NULL)
 629              		.loc 1 709 0
 630 0012 BB68     		ldr	r3, [r7, #8]
 631 0014 002B     		cmp	r3, #0
 632 0016 20D0     		beq	.L29
 710:.\Generated_Source\PSoC4/BLE.c ****         {
 711:.\Generated_Source\PSoC4/BLE.c ****             /* Update Device Address type */
 712:.\Generated_Source\PSoC4/BLE.c ****             destBuffer[0u] = bdAddr->type;
 633              		.loc 1 712 0
 634 0018 7B68     		ldr	r3, [r7, #4]
 635 001a 9A79     		ldrb	r2, [r3, #6]
 636 001c BB68     		ldr	r3, [r7, #8]
 637 001e 1A70     		strb	r2, [r3]
 713:.\Generated_Source\PSoC4/BLE.c ****             
 714:.\Generated_Source\PSoC4/BLE.c ****             for(i = 0u; i < CYBLE_GAP_BD_ADDR_SIZE; i++)
 638              		.loc 1 714 0
 639 0020 0F23     		mov	r3, #15
 640 0022 FB18     		add	r3, r7, r3
 641 0024 0022     		mov	r2, #0
 642 0026 1A70     		strb	r2, [r3]
 643 0028 12E0     		b	.L31
 644              	.L32:
 715:.\Generated_Source\PSoC4/BLE.c ****             {
ARM GAS  C:\Users\Petro\AppData\Local\Temp\cc6Lo8fB.s 			page 25


 716:.\Generated_Source\PSoC4/BLE.c ****                 destBuffer[i + 1u] = bdAddr->bdAddr[i];
 645              		.loc 1 716 0 discriminator 3
 646 002a 0F23     		mov	r3, #15
 647 002c FB18     		add	r3, r7, r3
 648 002e 1B78     		ldrb	r3, [r3]
 649 0030 0133     		add	r3, r3, #1
 650 0032 BA68     		ldr	r2, [r7, #8]
 651 0034 D318     		add	r3, r2, r3
 652 0036 0F22     		mov	r2, #15
 653 0038 BA18     		add	r2, r7, r2
 654 003a 1278     		ldrb	r2, [r2]
 655 003c 7968     		ldr	r1, [r7, #4]
 656 003e 8A5C     		ldrb	r2, [r1, r2]
 657 0040 1A70     		strb	r2, [r3]
 714:.\Generated_Source\PSoC4/BLE.c ****             {
 658              		.loc 1 714 0 discriminator 3
 659 0042 0F23     		mov	r3, #15
 660 0044 FB18     		add	r3, r7, r3
 661 0046 1A78     		ldrb	r2, [r3]
 662 0048 0F23     		mov	r3, #15
 663 004a FB18     		add	r3, r7, r3
 664 004c 0132     		add	r2, r2, #1
 665 004e 1A70     		strb	r2, [r3]
 666              	.L31:
 714:.\Generated_Source\PSoC4/BLE.c ****             {
 667              		.loc 1 714 0 is_stmt 0 discriminator 1
 668 0050 0F23     		mov	r3, #15
 669 0052 FB18     		add	r3, r7, r3
 670 0054 1B78     		ldrb	r3, [r3]
 671 0056 052B     		cmp	r3, #5
 672 0058 E7D9     		bls	.L32
 673              	.L29:
 717:.\Generated_Source\PSoC4/BLE.c ****             }
 718:.\Generated_Source\PSoC4/BLE.c ****         }
 719:.\Generated_Source\PSoC4/BLE.c ****     }
 674              		.loc 1 719 0 is_stmt 1
 675 005a BD46     		mov	sp, r7
 676 005c 04B0     		add	sp, sp, #16
 677              		@ sp needed
 678 005e 80BD     		pop	{r7, pc}
 679              		.cfi_endproc
 680              	.LFE8:
 681              		.size	CyBle_ChangeAdDeviceAddress, .-CyBle_ChangeAdDeviceAddress
 682              		.section	.text.CyBle_ChangeAdLocalName,"ax",%progbits
 683              		.align	2
 684              		.code	16
 685              		.thumb_func
 686              		.type	CyBle_ChangeAdLocalName, %function
 687              	CyBle_ChangeAdLocalName:
 688              	.LFB9:
 720:.\Generated_Source\PSoC4/BLE.c ****   
 721:.\Generated_Source\PSoC4/BLE.c **** #endif /* CYBLE_GAP_ROLE_PERIPHERAL || CYBLE_GAP_ROLE_BROADCASTER */
 722:.\Generated_Source\PSoC4/BLE.c **** 
 723:.\Generated_Source\PSoC4/BLE.c **** 
 724:.\Generated_Source\PSoC4/BLE.c **** #if(CYBLE_GAP_ROLE_CENTRAL || CYBLE_GAP_ROLE_OBSERVER)
 725:.\Generated_Source\PSoC4/BLE.c **** 
 726:.\Generated_Source\PSoC4/BLE.c ****     /******************************************************************************
ARM GAS  C:\Users\Petro\AppData\Local\Temp\cc6Lo8fB.s 			page 26


 727:.\Generated_Source\PSoC4/BLE.c ****     * Function Name: CyBle_GapcStartScan
 728:.\Generated_Source\PSoC4/BLE.c ****     ***************************************************************************//**
 729:.\Generated_Source\PSoC4/BLE.c ****     * 
 730:.\Generated_Source\PSoC4/BLE.c ****     *   This function is used for discovering GAP peripheral devices that are 
 731:.\Generated_Source\PSoC4/BLE.c ****     *   available for connection. It performs the scanning routine using the 
 732:.\Generated_Source\PSoC4/BLE.c ****     *   parameters entered in the component's customizer.
 733:.\Generated_Source\PSoC4/BLE.c ****     *   
 734:.\Generated_Source\PSoC4/BLE.c ****     *   As soon as the discovery operation starts, CYBLE_EVT_GAPC_SCAN_START_STOP 
 735:.\Generated_Source\PSoC4/BLE.c ****     *   event is generated. The CYBLE_EVT_GAPC_SCAN_PROGRESS_RESULT event is 
 736:.\Generated_Source\PSoC4/BLE.c ****     *   generated when a GAP peripheral device is located. There are three discovery
 737:.\Generated_Source\PSoC4/BLE.c ****     *   procedures can be selected in the customizer's GUI:
 738:.\Generated_Source\PSoC4/BLE.c ****     *   
 739:.\Generated_Source\PSoC4/BLE.c ****     *   * Observation procedure: A device performing the observer role receives only
 740:.\Generated_Source\PSoC4/BLE.c ****     *                            advertisement data from devices irrespective of 
 741:.\Generated_Source\PSoC4/BLE.c ****     *                            their discoverable mode settings. Advertisement 
 742:.\Generated_Source\PSoC4/BLE.c ****     *                            data received is provided by the event,      
 743:.\Generated_Source\PSoC4/BLE.c ****     *                            CYBLE_EVT_GAPC_SCAN_PROGRESS_RESULT. This procedure
 744:.\Generated_Source\PSoC4/BLE.c ****     *                            requires the scanType sub parameter to be passive
 745:.\Generated_Source\PSoC4/BLE.c ****     *                            scanning. 
 746:.\Generated_Source\PSoC4/BLE.c ****     *   
 747:.\Generated_Source\PSoC4/BLE.c ****     *   * Limited Discovery procedure: A device performing the limited discovery
 748:.\Generated_Source\PSoC4/BLE.c ****     *                                  procedure receives advertisement data and 
 749:.\Generated_Source\PSoC4/BLE.c ****     *                                  scan# response data from devices in the 
 750:.\Generated_Source\PSoC4/BLE.c ****     *                                  limited discoverable mode only. Received data
 751:.\Generated_Source\PSoC4/BLE.c ****     *                                  is provided by the event, 
 752:.\Generated_Source\PSoC4/BLE.c ****     *                                  CYBLE_EVT_GAPC_SCAN_PROGRESS_RESULT. This 
 753:.\Generated_Source\PSoC4/BLE.c ****     *                                  procedure requires the scanType sub-parameter 
 754:.\Generated_Source\PSoC4/BLE.c ****     *                                  to be active scanning.
 755:.\Generated_Source\PSoC4/BLE.c ****     *   
 756:.\Generated_Source\PSoC4/BLE.c ****     *   * General Discovery procedure: A device performing the general discovery 
 757:.\Generated_Source\PSoC4/BLE.c ****     *                                  procedure receives the advertisement data and
 758:.\Generated_Source\PSoC4/BLE.c ****     *                                  scan response data from devices in both 
 759:.\Generated_Source\PSoC4/BLE.c ****     *                                  limited discoverable mode and the general 
 760:.\Generated_Source\PSoC4/BLE.c ****     *                                  discoverable mode. Received data is provided
 761:.\Generated_Source\PSoC4/BLE.c ****     *                                  by the event,
 762:.\Generated_Source\PSoC4/BLE.c ****     *                                  CYBLE_EVT_GAPC_SCAN_PROGRESS_RESULT. This 
 763:.\Generated_Source\PSoC4/BLE.c ****     *                                  procedure requires the scanType sub-parameter
 764:.\Generated_Source\PSoC4/BLE.c ****     *                                  to be active scanning.
 765:.\Generated_Source\PSoC4/BLE.c ****     *   
 766:.\Generated_Source\PSoC4/BLE.c ****     *   Every Advertisement / Scan response packet received results in a new event, 
 767:.\Generated_Source\PSoC4/BLE.c ****     *   CYBLE_EVT_GAPC_SCAN_PROGRESS_RESULT.
 768:.\Generated_Source\PSoC4/BLE.c ****     *   If 'scanTo' sub-parameter is a non-zero value, then upon commencement of 
 769:.\Generated_Source\PSoC4/BLE.c ****     *   discovery procedure and elapsed time = 'scanTo', CYBLE_EVT_TIMEOUT event
 770:.\Generated_Source\PSoC4/BLE.c ****     *   is generated with the event parameter indicating CYBLE_GAP_SCAN_TO.
 771:.\Generated_Source\PSoC4/BLE.c ****     *   Possible generated events are:
 772:.\Generated_Source\PSoC4/BLE.c ****     *   * CYBLE_EVT_GAPC_SCAN_START_STOP: If a device started or stopped scanning. 
 773:.\Generated_Source\PSoC4/BLE.c ****     *                                     Use CyBle_GetState() to determine the 
 774:.\Generated_Source\PSoC4/BLE.c ****     *                                     state. Sequential scanning could be 
 775:.\Generated_Source\PSoC4/BLE.c ****     *                                     started when CYBLE_STATE_DISCONNECTED 
 776:.\Generated_Source\PSoC4/BLE.c ****     *                                     state is returned. 
 777:.\Generated_Source\PSoC4/BLE.c ****     *   * CYBLE_EVT_GAPC_SCAN_PROGRESS_RESULT 
 778:.\Generated_Source\PSoC4/BLE.c ****     *   * CYBLE_EVT_TIMEOUT (CYBLE_GAP_SCAN_TO)
 779:.\Generated_Source\PSoC4/BLE.c ****     * 
 780:.\Generated_Source\PSoC4/BLE.c ****     *   \param scanningIntervalType:  Fast or slow scanning interval with
 781:.\Generated_Source\PSoC4/BLE.c ****     *       timings entered in Scan settings section of the customizer.
 782:.\Generated_Source\PSoC4/BLE.c ****     * 	  * CYBLE_SCANNING_FAST   0x00u
 783:.\Generated_Source\PSoC4/BLE.c ****     * 	  * CYBLE_SCANNING_SLOW   0x01u
ARM GAS  C:\Users\Petro\AppData\Local\Temp\cc6Lo8fB.s 			page 27


 784:.\Generated_Source\PSoC4/BLE.c ****     * 	  * CYBLE_SCANNING_CUSTOM 0x02u
 785:.\Generated_Source\PSoC4/BLE.c ****     * 
 786:.\Generated_Source\PSoC4/BLE.c ****     * \return
 787:.\Generated_Source\PSoC4/BLE.c ****     *  CYBLE_API_RESULT_T : Return value indicates if the function succeeded or
 788:.\Generated_Source\PSoC4/BLE.c ****     *  failed. Following are the possible error codes.
 789:.\Generated_Source\PSoC4/BLE.c ****     *
 790:.\Generated_Source\PSoC4/BLE.c ****     *   Errors codes                       | Description
 791:.\Generated_Source\PSoC4/BLE.c ****     *   ---------------------------------- | -----------------------------------
 792:.\Generated_Source\PSoC4/BLE.c ****     *   CYBLE_ERROR_OK                     | On successful operation.
 793:.\Generated_Source\PSoC4/BLE.c ****     *   CYBLE_ERROR_STACK_INTERNAL         | An error occurred in the BLE stack.
 794:.\Generated_Source\PSoC4/BLE.c ****     *   CYBLE_ERROR_INVALID_PARAMETER      | On passing an invalid parameter.
 795:.\Generated_Source\PSoC4/BLE.c ****     *  
 796:.\Generated_Source\PSoC4/BLE.c ****     *******************************************************************************/
 797:.\Generated_Source\PSoC4/BLE.c ****     CYBLE_API_RESULT_T CyBle_GapcStartScan(uint8 scanningIntervalType)
 798:.\Generated_Source\PSoC4/BLE.c ****     {
 799:.\Generated_Source\PSoC4/BLE.c ****         CYBLE_API_RESULT_T apiResult;
 800:.\Generated_Source\PSoC4/BLE.c **** 
 801:.\Generated_Source\PSoC4/BLE.c ****         if(scanningIntervalType > CYBLE_SCANNING_CUSTOM)
 802:.\Generated_Source\PSoC4/BLE.c ****         {
 803:.\Generated_Source\PSoC4/BLE.c ****             apiResult = CYBLE_ERROR_INVALID_PARAMETER;
 804:.\Generated_Source\PSoC4/BLE.c ****         }
 805:.\Generated_Source\PSoC4/BLE.c ****         else
 806:.\Generated_Source\PSoC4/BLE.c ****         {
 807:.\Generated_Source\PSoC4/BLE.c ****             if(scanningIntervalType == CYBLE_SCANNING_FAST)
 808:.\Generated_Source\PSoC4/BLE.c ****             {
 809:.\Generated_Source\PSoC4/BLE.c ****                 cyBle_discoveryInfo.scanTo = CYBLE_FAST_SCAN_TIMEOUT;
 810:.\Generated_Source\PSoC4/BLE.c ****                 cyBle_discoveryInfo.scanIntv = CYBLE_FAST_SCAN_INTERVAL;
 811:.\Generated_Source\PSoC4/BLE.c ****                 cyBle_discoveryInfo.scanWindow = CYBLE_FAST_SCAN_WINDOW;
 812:.\Generated_Source\PSoC4/BLE.c ****             }
 813:.\Generated_Source\PSoC4/BLE.c ****             else if(scanningIntervalType == CYBLE_SCANNING_SLOW)
 814:.\Generated_Source\PSoC4/BLE.c ****             {
 815:.\Generated_Source\PSoC4/BLE.c ****                 cyBle_discoveryInfo.scanTo = CYBLE_SLOW_SCAN_TIMEOUT;
 816:.\Generated_Source\PSoC4/BLE.c ****                 cyBle_discoveryInfo.scanIntv = CYBLE_SLOW_SCAN_INTERVAL;
 817:.\Generated_Source\PSoC4/BLE.c ****                 cyBle_discoveryInfo.scanWindow = CYBLE_SLOW_SCAN_WINDOW;
 818:.\Generated_Source\PSoC4/BLE.c ****             }       
 819:.\Generated_Source\PSoC4/BLE.c ****             else /* Do not update scanning intervals */
 820:.\Generated_Source\PSoC4/BLE.c ****             {
 821:.\Generated_Source\PSoC4/BLE.c ****             }
 822:.\Generated_Source\PSoC4/BLE.c ****             
 823:.\Generated_Source\PSoC4/BLE.c ****             cyBle_scanningIntervalType = scanningIntervalType;
 824:.\Generated_Source\PSoC4/BLE.c ****             apiResult = CyBle_GapcStartDiscovery(&cyBle_discoveryInfo);
 825:.\Generated_Source\PSoC4/BLE.c ****         
 826:.\Generated_Source\PSoC4/BLE.c ****             if(CYBLE_ERROR_OK == apiResult)
 827:.\Generated_Source\PSoC4/BLE.c ****             {
 828:.\Generated_Source\PSoC4/BLE.c ****                 cyBle_eventHandlerFlag |= CYBLE_START_FLAG;
 829:.\Generated_Source\PSoC4/BLE.c ****             }
 830:.\Generated_Source\PSoC4/BLE.c ****         }
 831:.\Generated_Source\PSoC4/BLE.c ****        
 832:.\Generated_Source\PSoC4/BLE.c ****         return (apiResult);
 833:.\Generated_Source\PSoC4/BLE.c ****     }
 834:.\Generated_Source\PSoC4/BLE.c ****     
 835:.\Generated_Source\PSoC4/BLE.c ****     
 836:.\Generated_Source\PSoC4/BLE.c ****     /******************************************************************************
 837:.\Generated_Source\PSoC4/BLE.c ****     * Function Name: CyBle_GapcStopScan
 838:.\Generated_Source\PSoC4/BLE.c ****     ***************************************************************************//**
 839:.\Generated_Source\PSoC4/BLE.c ****     * 
 840:.\Generated_Source\PSoC4/BLE.c ****     *   This function used to stop the discovery of devices. On stopping discovery
ARM GAS  C:\Users\Petro\AppData\Local\Temp\cc6Lo8fB.s 			page 28


 841:.\Generated_Source\PSoC4/BLE.c ****     *   operation, CYBLE_EVT_GAPC_SCAN_START_STOP event is generated. Application
 842:.\Generated_Source\PSoC4/BLE.c ****     *   layer needs to keep track of the function call made before receiving this
 843:.\Generated_Source\PSoC4/BLE.c ****     *   event to associate this event with either the start or stop discovery
 844:.\Generated_Source\PSoC4/BLE.c ****     *   function.
 845:.\Generated_Source\PSoC4/BLE.c ****     * 
 846:.\Generated_Source\PSoC4/BLE.c ****     *   Possible events generated are:
 847:.\Generated_Source\PSoC4/BLE.c ****     *    * CYBLE_EVT_GAPC_SCAN_START_STOP
 848:.\Generated_Source\PSoC4/BLE.c ****     * 
 849:.\Generated_Source\PSoC4/BLE.c ****     *  \return
 850:.\Generated_Source\PSoC4/BLE.c ****     *   None
 851:.\Generated_Source\PSoC4/BLE.c ****     * 
 852:.\Generated_Source\PSoC4/BLE.c ****     *******************************************************************************/
 853:.\Generated_Source\PSoC4/BLE.c ****     void CyBle_GapcStopScan(void)
 854:.\Generated_Source\PSoC4/BLE.c ****     {
 855:.\Generated_Source\PSoC4/BLE.c ****         CyBle_GapcStopDiscovery();
 856:.\Generated_Source\PSoC4/BLE.c ****         
 857:.\Generated_Source\PSoC4/BLE.c ****         cyBle_eventHandlerFlag |= CYBLE_STOP_FLAG;
 858:.\Generated_Source\PSoC4/BLE.c ****     }
 859:.\Generated_Source\PSoC4/BLE.c **** 
 860:.\Generated_Source\PSoC4/BLE.c ****     
 861:.\Generated_Source\PSoC4/BLE.c **** #endif /* CYBLE_GAP_ROLE_CENTRAL || CYBLE_GAP_ROLE_OBSERVER */
 862:.\Generated_Source\PSoC4/BLE.c **** 
 863:.\Generated_Source\PSoC4/BLE.c **** 
 864:.\Generated_Source\PSoC4/BLE.c **** #if(CYBLE_GAP_ROLE_CENTRAL)
 865:.\Generated_Source\PSoC4/BLE.c **** 
 866:.\Generated_Source\PSoC4/BLE.c ****     /******************************************************************************
 867:.\Generated_Source\PSoC4/BLE.c ****     * Function Name: CyBle_GapcConnectDevice
 868:.\Generated_Source\PSoC4/BLE.c ****     ***************************************************************************//**
 869:.\Generated_Source\PSoC4/BLE.c ****     * 
 870:.\Generated_Source\PSoC4/BLE.c ****     *  This function is used to send a connection request to the remote device with
 871:.\Generated_Source\PSoC4/BLE.c ****     *  the connection parameters set in the component customizer. This function needs
 872:.\Generated_Source\PSoC4/BLE.c ****     *  to be called only once after the target device is discovered by 
 873:.\Generated_Source\PSoC4/BLE.c ****     *  CyBle_GapcStartScan() and further scanning has stopped. Scanning is 
 874:.\Generated_Source\PSoC4/BLE.c ****     *  successfully stopped on invoking CyBle_GapcStopScan() and then receiving the
 875:.\Generated_Source\PSoC4/BLE.c ****     *  event CYBLE_EVT_GAPC_SCAN_START_STOP with sub-parameter 'success' = 0x01u.
 876:.\Generated_Source\PSoC4/BLE.c ****     *  
 877:.\Generated_Source\PSoC4/BLE.c ****     *  On successful connection, the following events are generated at the GAP 
 878:.\Generated_Source\PSoC4/BLE.c ****     *  Central device (as well as the GAP Peripheral device), in the following order.
 879:.\Generated_Source\PSoC4/BLE.c ****     *  * CYBLE_EVT_GATT_CONNECT_IND
 880:.\Generated_Source\PSoC4/BLE.c ****     *  * CYBLE_EVT_GAP_DEVICE_CONNECTED
 881:.\Generated_Source\PSoC4/BLE.c ****     *  
 882:.\Generated_Source\PSoC4/BLE.c ****     *  A procedure is considered to have timed out if a connection response packet is 
 883:.\Generated_Source\PSoC4/BLE.c ****     *  not received within time set by cyBle_connectingTimeout global variable
 884:.\Generated_Source\PSoC4/BLE.c ****     *  (30 seconds by default). CYBLE_EVT_TIMEOUT event with CYBLE_GENERIC_TO parameter
 885:.\Generated_Source\PSoC4/BLE.c ****     *  will indicate about connection procedure timeout. Connection will automatically
 886:.\Generated_Source\PSoC4/BLE.c ****     *  be canceled and state will be changed to CYBLE_STATE_DISCONNECTED.
 887:.\Generated_Source\PSoC4/BLE.c ****     * 
 888:.\Generated_Source\PSoC4/BLE.c ****     *  \param address: The device address of the remote device to connect to. 
 889:.\Generated_Source\PSoC4/BLE.c ****     *  \param timeout: Timeout for which timer to be started in seconds.
 890:.\Generated_Source\PSoC4/BLE.c ****     *  
 891:.\Generated_Source\PSoC4/BLE.c ****     * \return
 892:.\Generated_Source\PSoC4/BLE.c ****     *  CYBLE_API_RESULT_T : Return value indicates if the function succeeded or 
 893:.\Generated_Source\PSoC4/BLE.c ****     *  failed. Following are the possible error codes.
 894:.\Generated_Source\PSoC4/BLE.c ****     *
 895:.\Generated_Source\PSoC4/BLE.c ****     *   Errors codes                       | Description
 896:.\Generated_Source\PSoC4/BLE.c ****     *   ------------                       | -----------
 897:.\Generated_Source\PSoC4/BLE.c ****     *   CYBLE_ERROR_OK                     | On successful operation.
ARM GAS  C:\Users\Petro\AppData\Local\Temp\cc6Lo8fB.s 			page 29


 898:.\Generated_Source\PSoC4/BLE.c ****     *   CYBLE_ERROR_STACK_INTERNAL         | On error occurred in the BLE stack.
 899:.\Generated_Source\PSoC4/BLE.c ****     *   CYBLE_ERROR_INVALID_PARAMETER      | On passing an invalid parameter.
 900:.\Generated_Source\PSoC4/BLE.c ****     *   CYBLE_ERROR_INVALID_STATE          | On calling this API not in Disconnected state.
 901:.\Generated_Source\PSoC4/BLE.c ****     *  
 902:.\Generated_Source\PSoC4/BLE.c ****     ******************************************************************************/
 903:.\Generated_Source\PSoC4/BLE.c ****     CYBLE_API_RESULT_T CyBle_GapcConnectDevice(const CYBLE_GAP_BD_ADDR_T * address)
 904:.\Generated_Source\PSoC4/BLE.c ****     {
 905:.\Generated_Source\PSoC4/BLE.c ****         CYBLE_API_RESULT_T apiResult;
 906:.\Generated_Source\PSoC4/BLE.c ****         uint8 i;
 907:.\Generated_Source\PSoC4/BLE.c **** 
 908:.\Generated_Source\PSoC4/BLE.c ****         if(CYBLE_STATE_DISCONNECTED != CyBle_GetState())
 909:.\Generated_Source\PSoC4/BLE.c ****         {
 910:.\Generated_Source\PSoC4/BLE.c ****             apiResult = CYBLE_ERROR_INVALID_STATE;
 911:.\Generated_Source\PSoC4/BLE.c ****         }
 912:.\Generated_Source\PSoC4/BLE.c ****         else if(address == NULL)
 913:.\Generated_Source\PSoC4/BLE.c ****         {
 914:.\Generated_Source\PSoC4/BLE.c ****             apiResult = CYBLE_ERROR_INVALID_PARAMETER;
 915:.\Generated_Source\PSoC4/BLE.c ****         }
 916:.\Generated_Source\PSoC4/BLE.c ****         else
 917:.\Generated_Source\PSoC4/BLE.c ****         {
 918:.\Generated_Source\PSoC4/BLE.c ****             for(i = 0u; i < CYBLE_GAP_BD_ADDR_SIZE; i++)
 919:.\Generated_Source\PSoC4/BLE.c ****             {
 920:.\Generated_Source\PSoC4/BLE.c ****                 cyBle_connectionParameters.peerBdAddr[i] = address->bdAddr[i];
 921:.\Generated_Source\PSoC4/BLE.c ****             }
 922:.\Generated_Source\PSoC4/BLE.c ****             cyBle_connectionParameters.peerAddrType = address -> type;
 923:.\Generated_Source\PSoC4/BLE.c ****             apiResult = CyBle_GapcInitConnection(&cyBle_connectionParameters);
 924:.\Generated_Source\PSoC4/BLE.c ****             
 925:.\Generated_Source\PSoC4/BLE.c ****             if(CYBLE_ERROR_OK == apiResult)
 926:.\Generated_Source\PSoC4/BLE.c ****             {
 927:.\Generated_Source\PSoC4/BLE.c ****                 CyBle_SetState(CYBLE_STATE_CONNECTING);
 928:.\Generated_Source\PSoC4/BLE.c ****                 if(cyBle_connectingTimeout != 0u)
 929:.\Generated_Source\PSoC4/BLE.c ****                 {
 930:.\Generated_Source\PSoC4/BLE.c ****                     (void)CyBle_StartTimer(cyBle_connectingTimeout);
 931:.\Generated_Source\PSoC4/BLE.c ****                 }
 932:.\Generated_Source\PSoC4/BLE.c ****             }
 933:.\Generated_Source\PSoC4/BLE.c ****         }
 934:.\Generated_Source\PSoC4/BLE.c ****         return (apiResult);
 935:.\Generated_Source\PSoC4/BLE.c ****     }
 936:.\Generated_Source\PSoC4/BLE.c ****     
 937:.\Generated_Source\PSoC4/BLE.c **** 
 938:.\Generated_Source\PSoC4/BLE.c ****     /******************************************************************************
 939:.\Generated_Source\PSoC4/BLE.c ****     * Function Name: CyBle_GapcCancelDeviceConnection
 940:.\Generated_Source\PSoC4/BLE.c ****     ***************************************************************************//**
 941:.\Generated_Source\PSoC4/BLE.c ****     * 
 942:.\Generated_Source\PSoC4/BLE.c ****     *  This function cancels a previously initiated connection with the remote 
 943:.\Generated_Source\PSoC4/BLE.c ****     *  device. It is a blocking function. No event is generated on calling this 
 944:.\Generated_Source\PSoC4/BLE.c ****     *  function. If the devices are already connected then this function should not
 945:.\Generated_Source\PSoC4/BLE.c ****     *  be used. If you intend to disconnect from an existing connection, the function
 946:.\Generated_Source\PSoC4/BLE.c ****     *  CyBle_GapDisconnect() should be used.
 947:.\Generated_Source\PSoC4/BLE.c ****     * 
 948:.\Generated_Source\PSoC4/BLE.c ****     * \return
 949:.\Generated_Source\PSoC4/BLE.c ****     *  CYBLE_API_RESULT_T : Return value indicates if the function succeeded or 
 950:.\Generated_Source\PSoC4/BLE.c ****     *  failed. Following are the possible error codes.
 951:.\Generated_Source\PSoC4/BLE.c ****     *
 952:.\Generated_Source\PSoC4/BLE.c ****     *   Errors codes                       | Description
 953:.\Generated_Source\PSoC4/BLE.c ****     *   ---------------------------------- | --------------------------------------
 954:.\Generated_Source\PSoC4/BLE.c ****     *   CYBLE_ERROR_OK                     | On successful operation.
ARM GAS  C:\Users\Petro\AppData\Local\Temp\cc6Lo8fB.s 			page 30


 955:.\Generated_Source\PSoC4/BLE.c ****     *   CYBLE_ERROR_STACK_INTERNAL         | An error occurred in the BLE stack.
 956:.\Generated_Source\PSoC4/BLE.c ****     *   CYBLE_ERROR_INVALID_OPERATION      | Device is already connected.
 957:.\Generated_Source\PSoC4/BLE.c ****     *  
 958:.\Generated_Source\PSoC4/BLE.c ****     *******************************************************************************/
 959:.\Generated_Source\PSoC4/BLE.c ****     CYBLE_API_RESULT_T CyBle_GapcCancelDeviceConnection(void)
 960:.\Generated_Source\PSoC4/BLE.c ****     {
 961:.\Generated_Source\PSoC4/BLE.c ****         CYBLE_API_RESULT_T apiResult;
 962:.\Generated_Source\PSoC4/BLE.c ****         
 963:.\Generated_Source\PSoC4/BLE.c ****         apiResult = CyBle_GapcCancelConnection();
 964:.\Generated_Source\PSoC4/BLE.c ****             
 965:.\Generated_Source\PSoC4/BLE.c ****         if(cyBle_connectingTimeout != 0u)
 966:.\Generated_Source\PSoC4/BLE.c ****         {
 967:.\Generated_Source\PSoC4/BLE.c ****             (void)CyBle_StopTimer();
 968:.\Generated_Source\PSoC4/BLE.c ****         }
 969:.\Generated_Source\PSoC4/BLE.c **** 
 970:.\Generated_Source\PSoC4/BLE.c ****         if(CYBLE_ERROR_OK == apiResult)
 971:.\Generated_Source\PSoC4/BLE.c ****         {
 972:.\Generated_Source\PSoC4/BLE.c ****             CyBle_SetState(CYBLE_STATE_DISCONNECTED);
 973:.\Generated_Source\PSoC4/BLE.c ****         }
 974:.\Generated_Source\PSoC4/BLE.c ****         return (apiResult);
 975:.\Generated_Source\PSoC4/BLE.c ****     }    
 976:.\Generated_Source\PSoC4/BLE.c **** 
 977:.\Generated_Source\PSoC4/BLE.c ****     
 978:.\Generated_Source\PSoC4/BLE.c **** #endif /* CYBLE_GAP_ROLE_CENTRAL */
 979:.\Generated_Source\PSoC4/BLE.c **** 
 980:.\Generated_Source\PSoC4/BLE.c **** 
 981:.\Generated_Source\PSoC4/BLE.c **** #if(CYBLE_GATT_ROLE_SERVER)
 982:.\Generated_Source\PSoC4/BLE.c **** 
 983:.\Generated_Source\PSoC4/BLE.c **** #if(CYBLE_GAP_ROLE_PERIPHERAL)
 984:.\Generated_Source\PSoC4/BLE.c **** 
 985:.\Generated_Source\PSoC4/BLE.c ****         /******************************************************************************
 986:.\Generated_Source\PSoC4/BLE.c ****         * Function Name: CyBle_ChangeAdLocalName
 987:.\Generated_Source\PSoC4/BLE.c ****         ***************************************************************************//**
 988:.\Generated_Source\PSoC4/BLE.c ****         *  This API is used to set the local device name in the advertisement or scan 
 989:.\Generated_Source\PSoC4/BLE.c ****         *  response data structure.
 990:.\Generated_Source\PSoC4/BLE.c ****         * 
 991:.\Generated_Source\PSoC4/BLE.c ****         *  \param name: The local device name string to be set in advertisement data 
 992:.\Generated_Source\PSoC4/BLE.c ****         *            structure.
 993:.\Generated_Source\PSoC4/BLE.c ****         *  \param dest: 0 - advertisement structure, not zero value selects scan response
 994:.\Generated_Source\PSoC4/BLE.c ****         *              structure.
 995:.\Generated_Source\PSoC4/BLE.c ****         * 
 996:.\Generated_Source\PSoC4/BLE.c ****         * \return
 997:.\Generated_Source\PSoC4/BLE.c ****         *  None
 998:.\Generated_Source\PSoC4/BLE.c ****         *  
 999:.\Generated_Source\PSoC4/BLE.c ****         *******************************************************************************/
1000:.\Generated_Source\PSoC4/BLE.c ****         static void CyBle_ChangeAdLocalName(const char8 name[], uint8 dest)
1001:.\Generated_Source\PSoC4/BLE.c ****         {
 689              		.loc 1 1001 0
 690              		.cfi_startproc
 691 0000 80B5     		push	{r7, lr}
 692              		.cfi_def_cfa_offset 8
 693              		.cfi_offset 7, -8
 694              		.cfi_offset 14, -4
 695 0002 86B0     		sub	sp, sp, #24
 696              		.cfi_def_cfa_offset 32
 697 0004 00AF     		add	r7, sp, #0
 698              		.cfi_def_cfa_register 7
ARM GAS  C:\Users\Petro\AppData\Local\Temp\cc6Lo8fB.s 			page 31


 699 0006 7860     		str	r0, [r7, #4]
 700 0008 0A1C     		mov	r2, r1
 701 000a FB1C     		add	r3, r7, #3
 702 000c 1A70     		strb	r2, [r3]
1002:.\Generated_Source\PSoC4/BLE.c ****             uint8 i;
1003:.\Generated_Source\PSoC4/BLE.c ****             uint8 flag = 0u;
 703              		.loc 1 1003 0
 704 000e 1623     		mov	r3, #22
 705 0010 FB18     		add	r3, r7, r3
 706 0012 0022     		mov	r2, #0
 707 0014 1A70     		strb	r2, [r3]
1004:.\Generated_Source\PSoC4/BLE.c ****             uint8 adLength = 0u;
 708              		.loc 1 1004 0
 709 0016 1523     		mov	r3, #21
 710 0018 FB18     		add	r3, r7, r3
 711 001a 0022     		mov	r2, #0
 712 001c 1A70     		strb	r2, [r3]
1005:.\Generated_Source\PSoC4/BLE.c ****             uint8 byteCounter = 0u;
 713              		.loc 1 1005 0
 714 001e 1423     		mov	r3, #20
 715 0020 FB18     		add	r3, r7, r3
 716 0022 0022     		mov	r2, #0
 717 0024 1A70     		strb	r2, [r3]
1006:.\Generated_Source\PSoC4/BLE.c ****             uint8 *destBuffer;
1007:.\Generated_Source\PSoC4/BLE.c ****             uint8 maxLength;
1008:.\Generated_Source\PSoC4/BLE.c ****             
1009:.\Generated_Source\PSoC4/BLE.c ****             if(dest == 0u)      /* Destination - advertising structure */
 718              		.loc 1 1009 0
 719 0026 FB1C     		add	r3, r7, #3
 720 0028 1B78     		ldrb	r3, [r3]
 721 002a 002B     		cmp	r3, #0
 722 002c 07D1     		bne	.L34
1010:.\Generated_Source\PSoC4/BLE.c ****             {
1011:.\Generated_Source\PSoC4/BLE.c ****                 destBuffer = cyBle_discoveryData.advData;
 723              		.loc 1 1011 0
 724 002e 5B4B     		ldr	r3, .L49
 725 0030 3B61     		str	r3, [r7, #16]
1012:.\Generated_Source\PSoC4/BLE.c ****                 maxLength = cyBle_discoveryData.advDataLen;
 726              		.loc 1 1012 0
 727 0032 0F23     		mov	r3, #15
 728 0034 FB18     		add	r3, r7, r3
 729 0036 594A     		ldr	r2, .L49
 730 0038 D27F     		ldrb	r2, [r2, #31]
 731 003a 1A70     		strb	r2, [r3]
 732 003c 06E0     		b	.L35
 733              	.L34:
1013:.\Generated_Source\PSoC4/BLE.c ****             }
1014:.\Generated_Source\PSoC4/BLE.c ****             else                /* Destination - scan response structure */
1015:.\Generated_Source\PSoC4/BLE.c ****             {
1016:.\Generated_Source\PSoC4/BLE.c ****                 destBuffer = cyBle_scanRspData.scanRspData;
 734              		.loc 1 1016 0
 735 003e 584B     		ldr	r3, .L49+4
 736 0040 3B61     		str	r3, [r7, #16]
1017:.\Generated_Source\PSoC4/BLE.c ****                 maxLength = cyBle_scanRspData.scanRspDataLen;
 737              		.loc 1 1017 0
 738 0042 0F23     		mov	r3, #15
 739 0044 FB18     		add	r3, r7, r3
ARM GAS  C:\Users\Petro\AppData\Local\Temp\cc6Lo8fB.s 			page 32


 740 0046 564A     		ldr	r2, .L49+4
 741 0048 D27F     		ldrb	r2, [r2, #31]
 742 004a 1A70     		strb	r2, [r3]
 743              	.L35:
1018:.\Generated_Source\PSoC4/BLE.c ****             }
1019:.\Generated_Source\PSoC4/BLE.c ****             
1020:.\Generated_Source\PSoC4/BLE.c ****             while((byteCounter < maxLength) && (0u == flag))
 744              		.loc 1 1020 0
 745 004c 35E0     		b	.L36
 746              	.L42:
1021:.\Generated_Source\PSoC4/BLE.c ****             {
1022:.\Generated_Source\PSoC4/BLE.c ****                 adLength = destBuffer[byteCounter];
 747              		.loc 1 1022 0
 748 004e 1423     		mov	r3, #20
 749 0050 FB18     		add	r3, r7, r3
 750 0052 1B78     		ldrb	r3, [r3]
 751 0054 3A69     		ldr	r2, [r7, #16]
 752 0056 D218     		add	r2, r2, r3
 753 0058 1523     		mov	r3, #21
 754 005a FB18     		add	r3, r7, r3
 755 005c 1278     		ldrb	r2, [r2]
 756 005e 1A70     		strb	r2, [r3]
1023:.\Generated_Source\PSoC4/BLE.c ****                 
1024:.\Generated_Source\PSoC4/BLE.c ****                 if(0u != adLength)
 757              		.loc 1 1024 0
 758 0060 1523     		mov	r3, #21
 759 0062 FB18     		add	r3, r7, r3
 760 0064 1B78     		ldrb	r3, [r3]
 761 0066 002B     		cmp	r3, #0
 762 0068 26D0     		beq	.L37
1025:.\Generated_Source\PSoC4/BLE.c ****                 {
1026:.\Generated_Source\PSoC4/BLE.c ****                     /* Increment byte counter so it can point to AD type */
1027:.\Generated_Source\PSoC4/BLE.c ****                     byteCounter++;
 763              		.loc 1 1027 0
 764 006a 1423     		mov	r3, #20
 765 006c FB18     		add	r3, r7, r3
 766 006e 1A78     		ldrb	r2, [r3]
 767 0070 1423     		mov	r3, #20
 768 0072 FB18     		add	r3, r7, r3
 769 0074 0132     		add	r2, r2, #1
 770 0076 1A70     		strb	r2, [r3]
1028:.\Generated_Source\PSoC4/BLE.c ****                     
1029:.\Generated_Source\PSoC4/BLE.c ****                     if((CYBLE_SHORT_LOCAL_NAME == destBuffer[byteCounter]) || 
 771              		.loc 1 1029 0
 772 0078 1423     		mov	r3, #20
 773 007a FB18     		add	r3, r7, r3
 774 007c 1B78     		ldrb	r3, [r3]
 775 007e 3A69     		ldr	r2, [r7, #16]
 776 0080 D318     		add	r3, r2, r3
 777 0082 1B78     		ldrb	r3, [r3]
 778 0084 082B     		cmp	r3, #8
 779 0086 07D0     		beq	.L38
1030:.\Generated_Source\PSoC4/BLE.c ****                        (CYBLE_COMPLETE_LOCAL_NAME == destBuffer[byteCounter]))
 780              		.loc 1 1030 0 discriminator 1
 781 0088 1423     		mov	r3, #20
 782 008a FB18     		add	r3, r7, r3
 783 008c 1B78     		ldrb	r3, [r3]
ARM GAS  C:\Users\Petro\AppData\Local\Temp\cc6Lo8fB.s 			page 33


 784 008e 3A69     		ldr	r2, [r7, #16]
 785 0090 D318     		add	r3, r2, r3
 786 0092 1B78     		ldrb	r3, [r3]
1029:.\Generated_Source\PSoC4/BLE.c ****                        (CYBLE_COMPLETE_LOCAL_NAME == destBuffer[byteCounter]))
 787              		.loc 1 1029 0 discriminator 1
 788 0094 092B     		cmp	r3, #9
 789 0096 04D1     		bne	.L39
 790              	.L38:
1031:.\Generated_Source\PSoC4/BLE.c ****                     {
1032:.\Generated_Source\PSoC4/BLE.c ****                         /* Start of the Local Name AD type was fount. Set flag and exit the loop. *
1033:.\Generated_Source\PSoC4/BLE.c ****                         flag = 1u;
 791              		.loc 1 1033 0
 792 0098 1623     		mov	r3, #22
 793 009a FB18     		add	r3, r7, r3
 794 009c 0122     		mov	r2, #1
 795 009e 1A70     		strb	r2, [r3]
 796 00a0 09E0     		b	.L40
 797              	.L39:
1034:.\Generated_Source\PSoC4/BLE.c ****                     }
1035:.\Generated_Source\PSoC4/BLE.c ****                     else
1036:.\Generated_Source\PSoC4/BLE.c ****                     {
1037:.\Generated_Source\PSoC4/BLE.c ****                         byteCounter += adLength;
 798              		.loc 1 1037 0
 799 00a2 1423     		mov	r3, #20
 800 00a4 FB18     		add	r3, r7, r3
 801 00a6 1422     		mov	r2, #20
 802 00a8 B918     		add	r1, r7, r2
 803 00aa 1522     		mov	r2, #21
 804 00ac BA18     		add	r2, r7, r2
 805 00ae 0978     		ldrb	r1, [r1]
 806 00b0 1278     		ldrb	r2, [r2]
 807 00b2 8A18     		add	r2, r1, r2
 808 00b4 1A70     		strb	r2, [r3]
 809              	.L40:
 810 00b6 00E0     		b	.L36
 811              	.L37:
1038:.\Generated_Source\PSoC4/BLE.c ****                     }
1039:.\Generated_Source\PSoC4/BLE.c ****                 }
1040:.\Generated_Source\PSoC4/BLE.c ****                 else
1041:.\Generated_Source\PSoC4/BLE.c ****                 {
1042:.\Generated_Source\PSoC4/BLE.c ****                     /* The end of advertisement data structure was encountered though exit the loop
1043:.\Generated_Source\PSoC4/BLE.c ****                     break;
 812              		.loc 1 1043 0
 813 00b8 0CE0     		b	.L41
 814              	.L36:
1020:.\Generated_Source\PSoC4/BLE.c ****             {
 815              		.loc 1 1020 0
 816 00ba 1423     		mov	r3, #20
 817 00bc FA18     		add	r2, r7, r3
 818 00be 0F23     		mov	r3, #15
 819 00c0 FB18     		add	r3, r7, r3
 820 00c2 1278     		ldrb	r2, [r2]
 821 00c4 1B78     		ldrb	r3, [r3]
 822 00c6 9A42     		cmp	r2, r3
 823 00c8 04D2     		bcs	.L41
1020:.\Generated_Source\PSoC4/BLE.c ****             {
 824              		.loc 1 1020 0 is_stmt 0 discriminator 1
ARM GAS  C:\Users\Petro\AppData\Local\Temp\cc6Lo8fB.s 			page 34


 825 00ca 1623     		mov	r3, #22
 826 00cc FB18     		add	r3, r7, r3
 827 00ce 1B78     		ldrb	r3, [r3]
 828 00d0 002B     		cmp	r3, #0
 829 00d2 BCD0     		beq	.L42
 830              	.L41:
1044:.\Generated_Source\PSoC4/BLE.c ****                 }
1045:.\Generated_Source\PSoC4/BLE.c ****             }
1046:.\Generated_Source\PSoC4/BLE.c ****             
1047:.\Generated_Source\PSoC4/BLE.c ****             if(0u != flag)
 831              		.loc 1 1047 0 is_stmt 1
 832 00d4 1623     		mov	r3, #22
 833 00d6 FB18     		add	r3, r7, r3
 834 00d8 1B78     		ldrb	r3, [r3]
 835 00da 002B     		cmp	r3, #0
 836 00dc 5BD0     		beq	.L33
1048:.\Generated_Source\PSoC4/BLE.c ****             {
1049:.\Generated_Source\PSoC4/BLE.c ****                 /* Reuse "adLength" to hold location of the last character of local name in 
1050:.\Generated_Source\PSoC4/BLE.c ****                    AD structure. */
1051:.\Generated_Source\PSoC4/BLE.c ****                 adLength += byteCounter;
 837              		.loc 1 1051 0
 838 00de 1523     		mov	r3, #21
 839 00e0 FB18     		add	r3, r7, r3
 840 00e2 1522     		mov	r2, #21
 841 00e4 B918     		add	r1, r7, r2
 842 00e6 1422     		mov	r2, #20
 843 00e8 BA18     		add	r2, r7, r2
 844 00ea 0978     		ldrb	r1, [r1]
 845 00ec 1278     		ldrb	r2, [r2]
 846 00ee 8A18     		add	r2, r1, r2
 847 00f0 1A70     		strb	r2, [r3]
1052:.\Generated_Source\PSoC4/BLE.c ****                 
1053:.\Generated_Source\PSoC4/BLE.c ****                 /* Increment byte counter to point to start of the local Name string */
1054:.\Generated_Source\PSoC4/BLE.c ****                 byteCounter++;
 848              		.loc 1 1054 0
 849 00f2 1423     		mov	r3, #20
 850 00f4 FB18     		add	r3, r7, r3
 851 00f6 1A78     		ldrb	r2, [r3]
 852 00f8 1423     		mov	r3, #20
 853 00fa FB18     		add	r3, r7, r3
 854 00fc 0132     		add	r2, r2, #1
 855 00fe 1A70     		strb	r2, [r3]
1055:.\Generated_Source\PSoC4/BLE.c ****                 
1056:.\Generated_Source\PSoC4/BLE.c ****                 for(i = byteCounter; ((i < (adLength)) && (CYBLE_NULL_CHARCTER != name[i - byteCoun
 856              		.loc 1 1056 0
 857 0100 1723     		mov	r3, #23
 858 0102 FB18     		add	r3, r7, r3
 859 0104 1422     		mov	r2, #20
 860 0106 BA18     		add	r2, r7, r2
 861 0108 1278     		ldrb	r2, [r2]
 862 010a 1A70     		strb	r2, [r3]
 863 010c 17E0     		b	.L44
 864              	.L46:
1057:.\Generated_Source\PSoC4/BLE.c ****                 {
1058:.\Generated_Source\PSoC4/BLE.c ****                     destBuffer[i] = (uint8)name[i - byteCounter];
 865              		.loc 1 1058 0 discriminator 4
 866 010e 1723     		mov	r3, #23
ARM GAS  C:\Users\Petro\AppData\Local\Temp\cc6Lo8fB.s 			page 35


 867 0110 FB18     		add	r3, r7, r3
 868 0112 1B78     		ldrb	r3, [r3]
 869 0114 3A69     		ldr	r2, [r7, #16]
 870 0116 D318     		add	r3, r2, r3
 871 0118 1722     		mov	r2, #23
 872 011a BA18     		add	r2, r7, r2
 873 011c 1178     		ldrb	r1, [r2]
 874 011e 1422     		mov	r2, #20
 875 0120 BA18     		add	r2, r7, r2
 876 0122 1278     		ldrb	r2, [r2]
 877 0124 8A1A     		sub	r2, r1, r2
 878 0126 111C     		mov	r1, r2
 879 0128 7A68     		ldr	r2, [r7, #4]
 880 012a 5218     		add	r2, r2, r1
 881 012c 1278     		ldrb	r2, [r2]
 882 012e 1A70     		strb	r2, [r3]
1056:.\Generated_Source\PSoC4/BLE.c ****                 {
 883              		.loc 1 1056 0 discriminator 4
 884 0130 1723     		mov	r3, #23
 885 0132 FB18     		add	r3, r7, r3
 886 0134 1A78     		ldrb	r2, [r3]
 887 0136 1723     		mov	r3, #23
 888 0138 FB18     		add	r3, r7, r3
 889 013a 0132     		add	r2, r2, #1
 890 013c 1A70     		strb	r2, [r3]
 891              	.L44:
1056:.\Generated_Source\PSoC4/BLE.c ****                 {
 892              		.loc 1 1056 0 is_stmt 0 discriminator 1
 893 013e 1723     		mov	r3, #23
 894 0140 FA18     		add	r2, r7, r3
 895 0142 1523     		mov	r3, #21
 896 0144 FB18     		add	r3, r7, r3
 897 0146 1278     		ldrb	r2, [r2]
 898 0148 1B78     		ldrb	r3, [r3]
 899 014a 9A42     		cmp	r2, r3
 900 014c 0CD2     		bcs	.L45
1056:.\Generated_Source\PSoC4/BLE.c ****                 {
 901              		.loc 1 1056 0 discriminator 3
 902 014e 1723     		mov	r3, #23
 903 0150 FB18     		add	r3, r7, r3
 904 0152 1A78     		ldrb	r2, [r3]
 905 0154 1423     		mov	r3, #20
 906 0156 FB18     		add	r3, r7, r3
 907 0158 1B78     		ldrb	r3, [r3]
 908 015a D31A     		sub	r3, r2, r3
 909 015c 1A1C     		mov	r2, r3
 910 015e 7B68     		ldr	r3, [r7, #4]
 911 0160 9B18     		add	r3, r3, r2
 912 0162 1B78     		ldrb	r3, [r3]
 913 0164 002B     		cmp	r3, #0
 914 0166 D2D1     		bne	.L46
 915              	.L45:
1059:.\Generated_Source\PSoC4/BLE.c ****                 }
1060:.\Generated_Source\PSoC4/BLE.c ****                 
1061:.\Generated_Source\PSoC4/BLE.c ****                 /* This loop handles the case when new local name is shorted than old one.
1062:.\Generated_Source\PSoC4/BLE.c ****                    In this case all remaining characters should be null characters. */
1063:.\Generated_Source\PSoC4/BLE.c ****                 while(adLength > i)
ARM GAS  C:\Users\Petro\AppData\Local\Temp\cc6Lo8fB.s 			page 36


 916              		.loc 1 1063 0 is_stmt 1
 917 0168 0DE0     		b	.L47
 918              	.L48:
1064:.\Generated_Source\PSoC4/BLE.c ****                 {
1065:.\Generated_Source\PSoC4/BLE.c ****                     /* Terminate string */
1066:.\Generated_Source\PSoC4/BLE.c ****                     destBuffer[i] = (uint8)CYBLE_NULL_CHARCTER;
 919              		.loc 1 1066 0
 920 016a 1723     		mov	r3, #23
 921 016c FB18     		add	r3, r7, r3
 922 016e 1B78     		ldrb	r3, [r3]
 923 0170 3A69     		ldr	r2, [r7, #16]
 924 0172 D318     		add	r3, r2, r3
 925 0174 0022     		mov	r2, #0
 926 0176 1A70     		strb	r2, [r3]
1067:.\Generated_Source\PSoC4/BLE.c ****                     i++;
 927              		.loc 1 1067 0
 928 0178 1723     		mov	r3, #23
 929 017a FB18     		add	r3, r7, r3
 930 017c 1A78     		ldrb	r2, [r3]
 931 017e 1723     		mov	r3, #23
 932 0180 FB18     		add	r3, r7, r3
 933 0182 0132     		add	r2, r2, #1
 934 0184 1A70     		strb	r2, [r3]
 935              	.L47:
1063:.\Generated_Source\PSoC4/BLE.c ****                 {
 936              		.loc 1 1063 0
 937 0186 1523     		mov	r3, #21
 938 0188 FA18     		add	r2, r7, r3
 939 018a 1723     		mov	r3, #23
 940 018c FB18     		add	r3, r7, r3
 941 018e 1278     		ldrb	r2, [r2]
 942 0190 1B78     		ldrb	r3, [r3]
 943 0192 9A42     		cmp	r2, r3
 944 0194 E9D8     		bhi	.L48
 945              	.L33:
1068:.\Generated_Source\PSoC4/BLE.c ****                 }
1069:.\Generated_Source\PSoC4/BLE.c ****             }
1070:.\Generated_Source\PSoC4/BLE.c ****         }
 946              		.loc 1 1070 0
 947 0196 BD46     		mov	sp, r7
 948 0198 06B0     		add	sp, sp, #24
 949              		@ sp needed
 950 019a 80BD     		pop	{r7, pc}
 951              	.L50:
 952              		.align	2
 953              	.L49:
 954 019c 00000000 		.word	cyBle_discoveryData
 955 01a0 00000000 		.word	cyBle_scanRspData
 956              		.cfi_endproc
 957              	.LFE9:
 958              		.size	CyBle_ChangeAdLocalName, .-CyBle_ChangeAdLocalName
 959              		.section	.text.CyBle_GapSetLocalName,"ax",%progbits
 960              		.align	2
 961              		.global	CyBle_GapSetLocalName
 962              		.code	16
 963              		.thumb_func
 964              		.type	CyBle_GapSetLocalName, %function
ARM GAS  C:\Users\Petro\AppData\Local\Temp\cc6Lo8fB.s 			page 37


 965              	CyBle_GapSetLocalName:
 966              	.LFB10:
1071:.\Generated_Source\PSoC4/BLE.c ****         
1072:.\Generated_Source\PSoC4/BLE.c **** #endif /* (CYBLE_GAP_ROLE_PERIPHERAL) */  
1073:.\Generated_Source\PSoC4/BLE.c ****     
1074:.\Generated_Source\PSoC4/BLE.c ****     
1075:.\Generated_Source\PSoC4/BLE.c ****     /******************************************************************************
1076:.\Generated_Source\PSoC4/BLE.c ****     * Function Name: CyBle_GapSetLocalName
1077:.\Generated_Source\PSoC4/BLE.c ****     ***************************************************************************//**
1078:.\Generated_Source\PSoC4/BLE.c ****     *  This API is used to set the local device name - a Characteristic of the 
1079:.\Generated_Source\PSoC4/BLE.c ****     *  GAP Service. If the characteristic length entered in the component customizer
1080:.\Generated_Source\PSoC4/BLE.c ****     *  is shorter than the string specified by the "name" parameter, the local device
1081:.\Generated_Source\PSoC4/BLE.c ****     *  name will be cut to the length specified in the customizer.
1082:.\Generated_Source\PSoC4/BLE.c ****     * 
1083:.\Generated_Source\PSoC4/BLE.c ****     *  \param name: The local device name string. The name string to be written as
1084:.\Generated_Source\PSoC4/BLE.c ****     *              the local device name. It represents a UTF-8 encoded User
1085:.\Generated_Source\PSoC4/BLE.c ****     *              Friendly Descriptive Name for the device. The length of the local
1086:.\Generated_Source\PSoC4/BLE.c ****     *              device string is entered into the component customizer and it can
1087:.\Generated_Source\PSoC4/BLE.c ****     *              be set to a value from 0 to 248 bytes. If the name contained in
1088:.\Generated_Source\PSoC4/BLE.c ****     *              the parameter is shorter than the length from the customizer, the
1089:.\Generated_Source\PSoC4/BLE.c ****     *              end of the name is indicated by a NULL octet (0x00).
1090:.\Generated_Source\PSoC4/BLE.c ****     * 
1091:.\Generated_Source\PSoC4/BLE.c ****     * \return
1092:.\Generated_Source\PSoC4/BLE.c ****     *  CYBLE_API_RESULT_T : Return value indicates if the function succeeded or 
1093:.\Generated_Source\PSoC4/BLE.c ****     *  failed. Following are the possible error codes.
1094:.\Generated_Source\PSoC4/BLE.c ****     *
1095:.\Generated_Source\PSoC4/BLE.c ****     *   Errors codes                       | Description
1096:.\Generated_Source\PSoC4/BLE.c ****     *   ------------                       | -----------
1097:.\Generated_Source\PSoC4/BLE.c ****     *   CYBLE_ERROR_OK                     | Function completed successfully.
1098:.\Generated_Source\PSoC4/BLE.c ****     *   CYBLE_ERROR_INVALID_PARAMETER      | On specifying NULL as input parameter
1099:.\Generated_Source\PSoC4/BLE.c ****     *  
1100:.\Generated_Source\PSoC4/BLE.c ****     *******************************************************************************/
1101:.\Generated_Source\PSoC4/BLE.c ****     CYBLE_API_RESULT_T CyBle_GapSetLocalName(const char8 name[])
1102:.\Generated_Source\PSoC4/BLE.c ****     {
 967              		.loc 1 1102 0
 968              		.cfi_startproc
 969 0000 80B5     		push	{r7, lr}
 970              		.cfi_def_cfa_offset 8
 971              		.cfi_offset 7, -8
 972              		.cfi_offset 14, -4
 973 0002 86B0     		sub	sp, sp, #24
 974              		.cfi_def_cfa_offset 32
 975 0004 00AF     		add	r7, sp, #0
 976              		.cfi_def_cfa_register 7
 977 0006 7860     		str	r0, [r7, #4]
1103:.\Generated_Source\PSoC4/BLE.c ****         CYBLE_API_RESULT_T apiResult = CYBLE_ERROR_OK;
 978              		.loc 1 1103 0
 979 0008 1623     		mov	r3, #22
 980 000a FB18     		add	r3, r7, r3
 981 000c 0022     		mov	r2, #0
 982 000e 1A80     		strh	r2, [r3]
1104:.\Generated_Source\PSoC4/BLE.c ****         uint8 i;
1105:.\Generated_Source\PSoC4/BLE.c ****         char8 *ptr;
1106:.\Generated_Source\PSoC4/BLE.c ****         uint8 charLen;
1107:.\Generated_Source\PSoC4/BLE.c **** 
1108:.\Generated_Source\PSoC4/BLE.c ****         if(NULL != name)
 983              		.loc 1 1108 0
ARM GAS  C:\Users\Petro\AppData\Local\Temp\cc6Lo8fB.s 			page 38


 984 0010 7B68     		ldr	r3, [r7, #4]
 985 0012 002B     		cmp	r3, #0
 986 0014 4AD0     		beq	.L52
1109:.\Generated_Source\PSoC4/BLE.c ****         {
1110:.\Generated_Source\PSoC4/BLE.c ****             /* Get the pointer to the Device Name characteristic  */
1111:.\Generated_Source\PSoC4/BLE.c ****             ptr = (char8 *) CYBLE_GATT_DB_ATTR_GET_ATTR_GEN_PTR(CYBLE_GAP_DEVICE_NAME_INDEX + 1u);
 987              		.loc 1 1111 0
 988 0016 2B4B     		ldr	r3, .L59
 989 0018 9B6B     		ldr	r3, [r3, #56]
 990 001a 5B68     		ldr	r3, [r3, #4]
 991 001c 3B61     		str	r3, [r7, #16]
1112:.\Generated_Source\PSoC4/BLE.c **** 
1113:.\Generated_Source\PSoC4/BLE.c ****             /* First need to get the maximum length of the characteristic data in the GATT
1114:.\Generated_Source\PSoC4/BLE.c ****                 database to make sure there is enough place for the data. The length
1115:.\Generated_Source\PSoC4/BLE.c ****                 can't be longer than 248, so only the LSB of 16 bit of length is to
1116:.\Generated_Source\PSoC4/BLE.c ****                 be used. */
1117:.\Generated_Source\PSoC4/BLE.c ****             charLen = (uint8)CYBLE_GATT_DB_ATTR_GET_ATTR_GEN_MAX_LEN(CYBLE_GAP_DEVICE_NAME_INDEX + 
 992              		.loc 1 1117 0
 993 001e 294B     		ldr	r3, .L59
 994 0020 9A8E     		ldrh	r2, [r3, #52]
 995 0022 0F23     		mov	r3, #15
 996 0024 FB18     		add	r3, r7, r3
 997 0026 1A70     		strb	r2, [r3]
1118:.\Generated_Source\PSoC4/BLE.c **** 
1119:.\Generated_Source\PSoC4/BLE.c ****             /* Copy name into characteristic */
1120:.\Generated_Source\PSoC4/BLE.c ****             for(i = 0u; ((i < charLen) && (CYBLE_NULL_CHARCTER != name[i])); i++)
 998              		.loc 1 1120 0
 999 0028 1523     		mov	r3, #21
 1000 002a FB18     		add	r3, r7, r3
 1001 002c 0022     		mov	r2, #0
 1002 002e 1A70     		strb	r2, [r3]
 1003 0030 12E0     		b	.L53
 1004              	.L55:
1121:.\Generated_Source\PSoC4/BLE.c ****             {
1122:.\Generated_Source\PSoC4/BLE.c ****                 ptr[i] = name[i];
 1005              		.loc 1 1122 0 discriminator 4
 1006 0032 1523     		mov	r3, #21
 1007 0034 FB18     		add	r3, r7, r3
 1008 0036 1B78     		ldrb	r3, [r3]
 1009 0038 3A69     		ldr	r2, [r7, #16]
 1010 003a D318     		add	r3, r2, r3
 1011 003c 1522     		mov	r2, #21
 1012 003e BA18     		add	r2, r7, r2
 1013 0040 1278     		ldrb	r2, [r2]
 1014 0042 7968     		ldr	r1, [r7, #4]
 1015 0044 8A18     		add	r2, r1, r2
 1016 0046 1278     		ldrb	r2, [r2]
 1017 0048 1A70     		strb	r2, [r3]
1120:.\Generated_Source\PSoC4/BLE.c ****             {
 1018              		.loc 1 1120 0 discriminator 4
 1019 004a 1523     		mov	r3, #21
 1020 004c FB18     		add	r3, r7, r3
 1021 004e 1A78     		ldrb	r2, [r3]
 1022 0050 1523     		mov	r3, #21
 1023 0052 FB18     		add	r3, r7, r3
 1024 0054 0132     		add	r2, r2, #1
 1025 0056 1A70     		strb	r2, [r3]
ARM GAS  C:\Users\Petro\AppData\Local\Temp\cc6Lo8fB.s 			page 39


 1026              	.L53:
1120:.\Generated_Source\PSoC4/BLE.c ****             {
 1027              		.loc 1 1120 0 is_stmt 0 discriminator 1
 1028 0058 1523     		mov	r3, #21
 1029 005a FA18     		add	r2, r7, r3
 1030 005c 0F23     		mov	r3, #15
 1031 005e FB18     		add	r3, r7, r3
 1032 0060 1278     		ldrb	r2, [r2]
 1033 0062 1B78     		ldrb	r3, [r3]
 1034 0064 9A42     		cmp	r2, r3
 1035 0066 07D2     		bcs	.L54
1120:.\Generated_Source\PSoC4/BLE.c ****             {
 1036              		.loc 1 1120 0 discriminator 3
 1037 0068 1523     		mov	r3, #21
 1038 006a FB18     		add	r3, r7, r3
 1039 006c 1B78     		ldrb	r3, [r3]
 1040 006e 7A68     		ldr	r2, [r7, #4]
 1041 0070 D318     		add	r3, r2, r3
 1042 0072 1B78     		ldrb	r3, [r3]
 1043 0074 002B     		cmp	r3, #0
 1044 0076 DCD1     		bne	.L55
 1045              	.L54:
1123:.\Generated_Source\PSoC4/BLE.c ****             }
1124:.\Generated_Source\PSoC4/BLE.c **** 
1125:.\Generated_Source\PSoC4/BLE.c ****             if(i < charLen)
 1046              		.loc 1 1125 0 is_stmt 1
 1047 0078 1523     		mov	r3, #21
 1048 007a FA18     		add	r2, r7, r3
 1049 007c 0F23     		mov	r3, #15
 1050 007e FB18     		add	r3, r7, r3
 1051 0080 1278     		ldrb	r2, [r2]
 1052 0082 1B78     		ldrb	r3, [r3]
 1053 0084 9A42     		cmp	r2, r3
 1054 0086 06D2     		bcs	.L56
1126:.\Generated_Source\PSoC4/BLE.c ****             {
1127:.\Generated_Source\PSoC4/BLE.c ****                 /* Terminate string */
1128:.\Generated_Source\PSoC4/BLE.c ****                 ptr[i] = CYBLE_NULL_CHARCTER;
 1055              		.loc 1 1128 0
 1056 0088 1523     		mov	r3, #21
 1057 008a FB18     		add	r3, r7, r3
 1058 008c 1B78     		ldrb	r3, [r3]
 1059 008e 3A69     		ldr	r2, [r7, #16]
 1060 0090 D318     		add	r3, r2, r3
 1061 0092 0022     		mov	r2, #0
 1062 0094 1A70     		strb	r2, [r3]
 1063              	.L56:
1129:.\Generated_Source\PSoC4/BLE.c ****             }
1130:.\Generated_Source\PSoC4/BLE.c ****             
1131:.\Generated_Source\PSoC4/BLE.c ****             /* Set new actual length */
1132:.\Generated_Source\PSoC4/BLE.c ****             
1133:.\Generated_Source\PSoC4/BLE.c ****             /* Update device name in advertising and scan response structure */
1134:.\Generated_Source\PSoC4/BLE.c ****             #if(CYBLE_GAP_ROLE_PERIPHERAL)
1135:.\Generated_Source\PSoC4/BLE.c ****                 CyBle_ChangeAdLocalName(name, 0u);
 1064              		.loc 1 1135 0
 1065 0096 7B68     		ldr	r3, [r7, #4]
 1066 0098 181C     		mov	r0, r3
 1067 009a 0021     		mov	r1, #0
ARM GAS  C:\Users\Petro\AppData\Local\Temp\cc6Lo8fB.s 			page 40


 1068 009c FFF7FEFF 		bl	CyBle_ChangeAdLocalName
1136:.\Generated_Source\PSoC4/BLE.c ****                 CyBle_ChangeAdLocalName(name, 1u);
 1069              		.loc 1 1136 0
 1070 00a0 7B68     		ldr	r3, [r7, #4]
 1071 00a2 181C     		mov	r0, r3
 1072 00a4 0121     		mov	r1, #1
 1073 00a6 FFF7FEFF 		bl	CyBle_ChangeAdLocalName
 1074 00aa 03E0     		b	.L57
 1075              	.L52:
1137:.\Generated_Source\PSoC4/BLE.c ****             #endif /* (CYBLE_GAP_ROLE_PERIPHERAL) */
1138:.\Generated_Source\PSoC4/BLE.c ****         }
1139:.\Generated_Source\PSoC4/BLE.c ****         else
1140:.\Generated_Source\PSoC4/BLE.c ****         {
1141:.\Generated_Source\PSoC4/BLE.c ****             apiResult = CYBLE_ERROR_INVALID_PARAMETER;
 1076              		.loc 1 1141 0
 1077 00ac 1623     		mov	r3, #22
 1078 00ae FB18     		add	r3, r7, r3
 1079 00b0 0122     		mov	r2, #1
 1080 00b2 1A80     		strh	r2, [r3]
 1081              	.L57:
1142:.\Generated_Source\PSoC4/BLE.c ****         }
1143:.\Generated_Source\PSoC4/BLE.c ****         
1144:.\Generated_Source\PSoC4/BLE.c ****         return(apiResult);
 1082              		.loc 1 1144 0
 1083 00b4 1623     		mov	r3, #22
 1084 00b6 FB18     		add	r3, r7, r3
 1085 00b8 1B88     		ldrh	r3, [r3]
1145:.\Generated_Source\PSoC4/BLE.c ****     }
 1086              		.loc 1 1145 0
 1087 00ba 181C     		mov	r0, r3
 1088 00bc BD46     		mov	sp, r7
 1089 00be 06B0     		add	sp, sp, #24
 1090              		@ sp needed
 1091 00c0 80BD     		pop	{r7, pc}
 1092              	.L60:
 1093 00c2 C046     		.align	2
 1094              	.L59:
 1095 00c4 00000000 		.word	cyBle_gattDB
 1096              		.cfi_endproc
 1097              	.LFE10:
 1098              		.size	CyBle_GapSetLocalName, .-CyBle_GapSetLocalName
 1099              		.section	.text.CyBle_GapGetLocalName,"ax",%progbits
 1100              		.align	2
 1101              		.global	CyBle_GapGetLocalName
 1102              		.code	16
 1103              		.thumb_func
 1104              		.type	CyBle_GapGetLocalName, %function
 1105              	CyBle_GapGetLocalName:
 1106              	.LFB11:
1146:.\Generated_Source\PSoC4/BLE.c **** 
1147:.\Generated_Source\PSoC4/BLE.c **** 
1148:.\Generated_Source\PSoC4/BLE.c ****     /******************************************************************************
1149:.\Generated_Source\PSoC4/BLE.c ****     * Function Name: CyBle_GapGetLocalName
1150:.\Generated_Source\PSoC4/BLE.c ****     ***************************************************************************//**
1151:.\Generated_Source\PSoC4/BLE.c ****     *  
1152:.\Generated_Source\PSoC4/BLE.c ****     *  This API is used to read the local device name - a Characteristic of the 
1153:.\Generated_Source\PSoC4/BLE.c ****     *  GAP Service.
ARM GAS  C:\Users\Petro\AppData\Local\Temp\cc6Lo8fB.s 			page 41


1154:.\Generated_Source\PSoC4/BLE.c ****     * 
1155:.\Generated_Source\PSoC4/BLE.c ****     * \param name: The local device name string. Used to read the local name to the
1156:.\Generated_Source\PSoC4/BLE.c ****     *             given string array. It represents a UTF-8 encoded User Friendly 
1157:.\Generated_Source\PSoC4/BLE.c ****     *             Descriptive Name for the device. The length of the local device
1158:.\Generated_Source\PSoC4/BLE.c ****     *             string is entered into the component customizer and it can be set
1159:.\Generated_Source\PSoC4/BLE.c ****     *             to a value from 0 to 248 bytes. If the name contained in the
1160:.\Generated_Source\PSoC4/BLE.c ****     *             parameter is shorter than the length from the customizer, the end
1161:.\Generated_Source\PSoC4/BLE.c ****     *             of the name is indicated by a NULL octet (0x00).
1162:.\Generated_Source\PSoC4/BLE.c ****     * 
1163:.\Generated_Source\PSoC4/BLE.c ****     * \return
1164:.\Generated_Source\PSoC4/BLE.c ****     *  CYBLE_API_RESULT_T : Return value indicates if the function succeeded or 
1165:.\Generated_Source\PSoC4/BLE.c ****     *  failed. Following are the possible error codes.
1166:.\Generated_Source\PSoC4/BLE.c ****     *
1167:.\Generated_Source\PSoC4/BLE.c ****     *   Errors codes                       | Description
1168:.\Generated_Source\PSoC4/BLE.c ****     *   ------------                       | -----------
1169:.\Generated_Source\PSoC4/BLE.c ****     *   CYBLE_ERROR_OK                     | Function completed successfully.
1170:.\Generated_Source\PSoC4/BLE.c ****     *   CYBLE_ERROR_INVALID_PARAMETER      | On specifying NULL as input parameter
1171:.\Generated_Source\PSoC4/BLE.c ****     *
1172:.\Generated_Source\PSoC4/BLE.c ****     *******************************************************************************/
1173:.\Generated_Source\PSoC4/BLE.c ****     CYBLE_API_RESULT_T CyBle_GapGetLocalName(char8 name[])
1174:.\Generated_Source\PSoC4/BLE.c ****     {
 1107              		.loc 1 1174 0
 1108              		.cfi_startproc
 1109 0000 80B5     		push	{r7, lr}
 1110              		.cfi_def_cfa_offset 8
 1111              		.cfi_offset 7, -8
 1112              		.cfi_offset 14, -4
 1113 0002 86B0     		sub	sp, sp, #24
 1114              		.cfi_def_cfa_offset 32
 1115 0004 00AF     		add	r7, sp, #0
 1116              		.cfi_def_cfa_register 7
 1117 0006 7860     		str	r0, [r7, #4]
1175:.\Generated_Source\PSoC4/BLE.c ****         CYBLE_API_RESULT_T apiResult = CYBLE_ERROR_OK;
 1118              		.loc 1 1175 0
 1119 0008 1623     		mov	r3, #22
 1120 000a FB18     		add	r3, r7, r3
 1121 000c 0022     		mov	r2, #0
 1122 000e 1A80     		strh	r2, [r3]
1176:.\Generated_Source\PSoC4/BLE.c ****         uint8 charLen;
1177:.\Generated_Source\PSoC4/BLE.c ****         uint8 i;
1178:.\Generated_Source\PSoC4/BLE.c ****         char8 *ptr;
1179:.\Generated_Source\PSoC4/BLE.c **** 
1180:.\Generated_Source\PSoC4/BLE.c ****         if(NULL != name)
 1123              		.loc 1 1180 0
 1124 0010 7B68     		ldr	r3, [r7, #4]
 1125 0012 002B     		cmp	r3, #0
 1126 0014 39D0     		beq	.L62
1181:.\Generated_Source\PSoC4/BLE.c ****         {
1182:.\Generated_Source\PSoC4/BLE.c ****             /* Get the pointer to the Device Name characteristic  */
1183:.\Generated_Source\PSoC4/BLE.c ****             ptr = (char8 *) CYBLE_GATT_DB_ATTR_GET_ATTR_GEN_PTR(CYBLE_GAP_DEVICE_NAME_INDEX + 1u);
 1127              		.loc 1 1183 0
 1128 0016 224B     		ldr	r3, .L68
 1129 0018 9B6B     		ldr	r3, [r3, #56]
 1130 001a 5B68     		ldr	r3, [r3, #4]
 1131 001c 3B61     		str	r3, [r7, #16]
1184:.\Generated_Source\PSoC4/BLE.c **** 
1185:.\Generated_Source\PSoC4/BLE.c ****             /* First need to get the length of the characteristic data in the GATT
ARM GAS  C:\Users\Petro\AppData\Local\Temp\cc6Lo8fB.s 			page 42


1186:.\Generated_Source\PSoC4/BLE.c ****                 database to make sure there is enough place for the data. The length
1187:.\Generated_Source\PSoC4/BLE.c ****                 can't be longer than 248, so only the LSB of 16 bit of length is to
1188:.\Generated_Source\PSoC4/BLE.c ****                 be used. */
1189:.\Generated_Source\PSoC4/BLE.c ****             charLen = (uint8)CYBLE_GATT_DB_ATTR_GET_ATTR_GEN_LEN(CYBLE_GAP_DEVICE_NAME_INDEX + 1u);
 1132              		.loc 1 1189 0
 1133 001e 204B     		ldr	r3, .L68
 1134 0020 9B6B     		ldr	r3, [r3, #56]
 1135 0022 1A88     		ldrh	r2, [r3]
 1136 0024 0F23     		mov	r3, #15
 1137 0026 FB18     		add	r3, r7, r3
 1138 0028 1A70     		strb	r2, [r3]
1190:.\Generated_Source\PSoC4/BLE.c **** 
1191:.\Generated_Source\PSoC4/BLE.c ****             /* Copy name from characteristic */
1192:.\Generated_Source\PSoC4/BLE.c ****             for(i = 0u; ((i < charLen) && (CYBLE_NULL_CHARCTER != ptr[i])); i++)
 1139              		.loc 1 1192 0
 1140 002a 1523     		mov	r3, #21
 1141 002c FB18     		add	r3, r7, r3
 1142 002e 0022     		mov	r2, #0
 1143 0030 1A70     		strb	r2, [r3]
 1144 0032 12E0     		b	.L63
 1145              	.L65:
1193:.\Generated_Source\PSoC4/BLE.c ****             {
1194:.\Generated_Source\PSoC4/BLE.c ****                 name[i] = ptr[i];
 1146              		.loc 1 1194 0 discriminator 4
 1147 0034 1523     		mov	r3, #21
 1148 0036 FB18     		add	r3, r7, r3
 1149 0038 1B78     		ldrb	r3, [r3]
 1150 003a 7A68     		ldr	r2, [r7, #4]
 1151 003c D318     		add	r3, r2, r3
 1152 003e 1522     		mov	r2, #21
 1153 0040 BA18     		add	r2, r7, r2
 1154 0042 1278     		ldrb	r2, [r2]
 1155 0044 3969     		ldr	r1, [r7, #16]
 1156 0046 8A18     		add	r2, r1, r2
 1157 0048 1278     		ldrb	r2, [r2]
 1158 004a 1A70     		strb	r2, [r3]
1192:.\Generated_Source\PSoC4/BLE.c ****             {
 1159              		.loc 1 1192 0 discriminator 4
 1160 004c 1523     		mov	r3, #21
 1161 004e FB18     		add	r3, r7, r3
 1162 0050 1A78     		ldrb	r2, [r3]
 1163 0052 1523     		mov	r3, #21
 1164 0054 FB18     		add	r3, r7, r3
 1165 0056 0132     		add	r2, r2, #1
 1166 0058 1A70     		strb	r2, [r3]
 1167              	.L63:
1192:.\Generated_Source\PSoC4/BLE.c ****             {
 1168              		.loc 1 1192 0 is_stmt 0 discriminator 1
 1169 005a 1523     		mov	r3, #21
 1170 005c FA18     		add	r2, r7, r3
 1171 005e 0F23     		mov	r3, #15
 1172 0060 FB18     		add	r3, r7, r3
 1173 0062 1278     		ldrb	r2, [r2]
 1174 0064 1B78     		ldrb	r3, [r3]
 1175 0066 9A42     		cmp	r2, r3
 1176 0068 07D2     		bcs	.L64
1192:.\Generated_Source\PSoC4/BLE.c ****             {
ARM GAS  C:\Users\Petro\AppData\Local\Temp\cc6Lo8fB.s 			page 43


 1177              		.loc 1 1192 0 discriminator 3
 1178 006a 1523     		mov	r3, #21
 1179 006c FB18     		add	r3, r7, r3
 1180 006e 1B78     		ldrb	r3, [r3]
 1181 0070 3A69     		ldr	r2, [r7, #16]
 1182 0072 D318     		add	r3, r2, r3
 1183 0074 1B78     		ldrb	r3, [r3]
 1184 0076 002B     		cmp	r3, #0
 1185 0078 DCD1     		bne	.L65
 1186              	.L64:
1195:.\Generated_Source\PSoC4/BLE.c ****             }
1196:.\Generated_Source\PSoC4/BLE.c **** 
1197:.\Generated_Source\PSoC4/BLE.c ****             /* Terminate string */
1198:.\Generated_Source\PSoC4/BLE.c ****             name[i] = CYBLE_NULL_CHARCTER;
 1187              		.loc 1 1198 0 is_stmt 1
 1188 007a 1523     		mov	r3, #21
 1189 007c FB18     		add	r3, r7, r3
 1190 007e 1B78     		ldrb	r3, [r3]
 1191 0080 7A68     		ldr	r2, [r7, #4]
 1192 0082 D318     		add	r3, r2, r3
 1193 0084 0022     		mov	r2, #0
 1194 0086 1A70     		strb	r2, [r3]
 1195 0088 03E0     		b	.L66
 1196              	.L62:
1199:.\Generated_Source\PSoC4/BLE.c ****         }
1200:.\Generated_Source\PSoC4/BLE.c ****         else
1201:.\Generated_Source\PSoC4/BLE.c ****         {
1202:.\Generated_Source\PSoC4/BLE.c ****             apiResult = CYBLE_ERROR_INVALID_PARAMETER;
 1197              		.loc 1 1202 0
 1198 008a 1623     		mov	r3, #22
 1199 008c FB18     		add	r3, r7, r3
 1200 008e 0122     		mov	r2, #1
 1201 0090 1A80     		strh	r2, [r3]
 1202              	.L66:
1203:.\Generated_Source\PSoC4/BLE.c ****         }
1204:.\Generated_Source\PSoC4/BLE.c ****         
1205:.\Generated_Source\PSoC4/BLE.c ****         return(apiResult);
 1203              		.loc 1 1205 0
 1204 0092 1623     		mov	r3, #22
 1205 0094 FB18     		add	r3, r7, r3
 1206 0096 1B88     		ldrh	r3, [r3]
1206:.\Generated_Source\PSoC4/BLE.c ****     }
 1207              		.loc 1 1206 0
 1208 0098 181C     		mov	r0, r3
 1209 009a BD46     		mov	sp, r7
 1210 009c 06B0     		add	sp, sp, #24
 1211              		@ sp needed
 1212 009e 80BD     		pop	{r7, pc}
 1213              	.L69:
 1214              		.align	2
 1215              	.L68:
 1216 00a0 00000000 		.word	cyBle_gattDB
 1217              		.cfi_endproc
 1218              	.LFE11:
 1219              		.size	CyBle_GapGetLocalName, .-CyBle_GapGetLocalName
 1220              		.section	.text.CyBle_Get16ByPtr,"ax",%progbits
 1221              		.align	2
ARM GAS  C:\Users\Petro\AppData\Local\Temp\cc6Lo8fB.s 			page 44


 1222              		.global	CyBle_Get16ByPtr
 1223              		.code	16
 1224              		.thumb_func
 1225              		.type	CyBle_Get16ByPtr, %function
 1226              	CyBle_Get16ByPtr:
 1227              	.LFB12:
1207:.\Generated_Source\PSoC4/BLE.c **** 
1208:.\Generated_Source\PSoC4/BLE.c **** #endif /* (CYBLE_GATT_ROLE_SERVER) */
1209:.\Generated_Source\PSoC4/BLE.c **** 
1210:.\Generated_Source\PSoC4/BLE.c **** 
1211:.\Generated_Source\PSoC4/BLE.c **** /******************************************************************************
1212:.\Generated_Source\PSoC4/BLE.c **** * Function Name: CyBle_Get16ByPtr
1213:.\Generated_Source\PSoC4/BLE.c **** ***************************************************************************//**
1214:.\Generated_Source\PSoC4/BLE.c **** * 
1215:.\Generated_Source\PSoC4/BLE.c **** *  Returns the two-bytes value by using a pointer to the LSB.
1216:.\Generated_Source\PSoC4/BLE.c **** * 
1217:.\Generated_Source\PSoC4/BLE.c **** *  \param ptr: Pointer to the LSB of two-bytes data (little endian).
1218:.\Generated_Source\PSoC4/BLE.c **** * 
1219:.\Generated_Source\PSoC4/BLE.c **** *  \return
1220:.\Generated_Source\PSoC4/BLE.c **** *  uint16: Two-bytes data.
1221:.\Generated_Source\PSoC4/BLE.c **** * 
1222:.\Generated_Source\PSoC4/BLE.c **** ******************************************************************************/
1223:.\Generated_Source\PSoC4/BLE.c **** uint16 CyBle_Get16ByPtr(const uint8 ptr[])
1224:.\Generated_Source\PSoC4/BLE.c **** {
 1228              		.loc 1 1224 0
 1229              		.cfi_startproc
 1230 0000 80B5     		push	{r7, lr}
 1231              		.cfi_def_cfa_offset 8
 1232              		.cfi_offset 7, -8
 1233              		.cfi_offset 14, -4
 1234 0002 82B0     		sub	sp, sp, #8
 1235              		.cfi_def_cfa_offset 16
 1236 0004 00AF     		add	r7, sp, #0
 1237              		.cfi_def_cfa_register 7
 1238 0006 7860     		str	r0, [r7, #4]
1225:.\Generated_Source\PSoC4/BLE.c ****     return ((uint16) ptr[0u] | ((uint16) (((uint16) ptr[1u]) << 8u)));
 1239              		.loc 1 1225 0
 1240 0008 7B68     		ldr	r3, [r7, #4]
 1241 000a 1B78     		ldrb	r3, [r3]
 1242 000c 9AB2     		uxth	r2, r3
 1243 000e 7B68     		ldr	r3, [r7, #4]
 1244 0010 0133     		add	r3, r3, #1
 1245 0012 1B78     		ldrb	r3, [r3]
 1246 0014 9BB2     		uxth	r3, r3
 1247 0016 1B02     		lsl	r3, r3, #8
 1248 0018 9BB2     		uxth	r3, r3
 1249 001a 1343     		orr	r3, r2
 1250 001c 9BB2     		uxth	r3, r3
1226:.\Generated_Source\PSoC4/BLE.c **** }
 1251              		.loc 1 1226 0
 1252 001e 181C     		mov	r0, r3
 1253 0020 BD46     		mov	sp, r7
 1254 0022 02B0     		add	sp, sp, #8
 1255              		@ sp needed
 1256 0024 80BD     		pop	{r7, pc}
 1257              		.cfi_endproc
 1258              	.LFE12:
ARM GAS  C:\Users\Petro\AppData\Local\Temp\cc6Lo8fB.s 			page 45


 1259              		.size	CyBle_Get16ByPtr, .-CyBle_Get16ByPtr
 1260 0026 C046     		.section	.text.CyBle_Set16ByPtr,"ax",%progbits
 1261              		.align	2
 1262              		.global	CyBle_Set16ByPtr
 1263              		.code	16
 1264              		.thumb_func
 1265              		.type	CyBle_Set16ByPtr, %function
 1266              	CyBle_Set16ByPtr:
 1267              	.LFB13:
1227:.\Generated_Source\PSoC4/BLE.c **** 
1228:.\Generated_Source\PSoC4/BLE.c **** 
1229:.\Generated_Source\PSoC4/BLE.c **** /******************************************************************************
1230:.\Generated_Source\PSoC4/BLE.c **** * Function Name: CyBle_Set16ByPtr
1231:.\Generated_Source\PSoC4/BLE.c **** ***************************************************************************//**
1232:.\Generated_Source\PSoC4/BLE.c **** * 
1233:.\Generated_Source\PSoC4/BLE.c **** *  Sets the two-bytes value by using a pointer to the LSB.
1234:.\Generated_Source\PSoC4/BLE.c **** * 
1235:.\Generated_Source\PSoC4/BLE.c **** *  \param ptr:    Pointer to the LSB of two-bytes data (little endian).
1236:.\Generated_Source\PSoC4/BLE.c **** *  \param value:  Two-bytes data to be written.
1237:.\Generated_Source\PSoC4/BLE.c **** * 
1238:.\Generated_Source\PSoC4/BLE.c **** *  \return
1239:.\Generated_Source\PSoC4/BLE.c **** *  None
1240:.\Generated_Source\PSoC4/BLE.c **** * 
1241:.\Generated_Source\PSoC4/BLE.c **** ******************************************************************************/
1242:.\Generated_Source\PSoC4/BLE.c **** void CyBle_Set16ByPtr(uint8 ptr[], uint16 value)
1243:.\Generated_Source\PSoC4/BLE.c **** {
 1268              		.loc 1 1243 0
 1269              		.cfi_startproc
 1270 0000 80B5     		push	{r7, lr}
 1271              		.cfi_def_cfa_offset 8
 1272              		.cfi_offset 7, -8
 1273              		.cfi_offset 14, -4
 1274 0002 82B0     		sub	sp, sp, #8
 1275              		.cfi_def_cfa_offset 16
 1276 0004 00AF     		add	r7, sp, #0
 1277              		.cfi_def_cfa_register 7
 1278 0006 7860     		str	r0, [r7, #4]
 1279 0008 0A1C     		mov	r2, r1
 1280 000a BB1C     		add	r3, r7, #2
 1281 000c 1A80     		strh	r2, [r3]
1244:.\Generated_Source\PSoC4/BLE.c ****     ptr[0u] = (uint8) value;
 1282              		.loc 1 1244 0
 1283 000e BB1C     		add	r3, r7, #2
 1284 0010 1B88     		ldrh	r3, [r3]
 1285 0012 DAB2     		uxtb	r2, r3
 1286 0014 7B68     		ldr	r3, [r7, #4]
 1287 0016 1A70     		strb	r2, [r3]
1245:.\Generated_Source\PSoC4/BLE.c ****     ptr[1u] = (uint8) (value >> 8u);
 1288              		.loc 1 1245 0
 1289 0018 7B68     		ldr	r3, [r7, #4]
 1290 001a 0133     		add	r3, r3, #1
 1291 001c BA1C     		add	r2, r7, #2
 1292 001e 1288     		ldrh	r2, [r2]
 1293 0020 120A     		lsr	r2, r2, #8
 1294 0022 92B2     		uxth	r2, r2
 1295 0024 D2B2     		uxtb	r2, r2
 1296 0026 1A70     		strb	r2, [r3]
ARM GAS  C:\Users\Petro\AppData\Local\Temp\cc6Lo8fB.s 			page 46


1246:.\Generated_Source\PSoC4/BLE.c **** }
 1297              		.loc 1 1246 0
 1298 0028 BD46     		mov	sp, r7
 1299 002a 02B0     		add	sp, sp, #8
 1300              		@ sp needed
 1301 002c 80BD     		pop	{r7, pc}
 1302              		.cfi_endproc
 1303              	.LFE13:
 1304              		.size	CyBle_Set16ByPtr, .-CyBle_Set16ByPtr
 1305 002e C046     		.text
 1306              	.Letext0:
 1307              		.file 2 ".\\Generated_Source\\PSoC4\\cytypes.h"
 1308              		.file 3 ".\\Generated_Source\\PSoC4\\BLE_Stack.h"
 1309              		.file 4 ".\\Generated_Source\\PSoC4\\BLE_StackGap.h"
 1310              		.file 5 ".\\Generated_Source\\PSoC4\\BLE_StackGattDb.h"
 1311              		.file 6 ".\\Generated_Source\\PSoC4\\BLE.h"
 1312              		.file 7 ".\\Generated_Source\\PSoC4\\BLE_gatt.h"
 1313              		.file 8 ".\\Generated_Source\\PSoC4\\BLE_dis.h"
 1314              		.file 9 ".\\Generated_Source\\PSoC4\\BLE_eventHandler.h"